   1              		.cpu cortex-a9
   2              		.eabi_attribute 28, 1
   3              		.eabi_attribute 20, 1
   4              		.eabi_attribute 21, 1
   5              		.eabi_attribute 23, 3
   6              		.eabi_attribute 24, 1
   7              		.eabi_attribute 25, 1
   8              		.eabi_attribute 26, 1
   9              		.eabi_attribute 30, 2
  10              		.eabi_attribute 34, 0
  11              		.eabi_attribute 18, 4
  12              		.file	"vdc_portsetting.c"
  13              		.section	.text.VDC_LcdPortSetting,"ax",%progbits
  14              		.align	2
  15              		.global	VDC_LcdPortSetting
  16              		.syntax unified
  17              		.arm
  18              		.fpu neon
  20              	VDC_LcdPortSetting:
  21              		@ args = 0, pretend = 0, frame = 40
  22              		@ frame_needed = 0, uses_anonymous_args = 0
  23 0000 000000E3 		movw	r0, #:lower16:.LC0
  24 0004 F0402DE9 		push	{r4, r5, r6, r7, lr}
  25 0008 0010A0E3 		mov	r1, #0
  26 000c 2CD04DE2 		sub	sp, sp, #44
  27 0010 000040E3 		movt	r0, #:upper16:.LC0
  28 0014 FEFFFFEB 		bl	direct_open
  29 0018 004050E2 		subs	r4, r0, #0
  30 001c 3C0000BA 		blt	.L9
  31 0020 003000E3 		movw	r3, #:lower16:.LANCHOR0
  32 0024 0050A0E3 		mov	r5, #0
  33 0028 003040E3 		movt	r3, #:upper16:.LANCHOR0
  34 002c 1DC0A0E3 		mov	ip, #29
  35 0030 0C208DE2 		add	r2, sp, #12
  36 0034 0410A0E3 		mov	r1, #4
  37 0038 0C308DE5 		str	r3, [sp, #12]
  38 003c 14508DE5 		str	r5, [sp, #20]
  39 0040 10C08DE5 		str	ip, [sp, #16]
  40 0044 FEFFFFEB 		bl	direct_control
  41 0048 050050E1 		cmp	r0, r5
  42 004c 310000BA 		blt	.L10
  43 0050 0510A0E1 		mov	r1, r5
  44 0054 0450A0E3 		mov	r5, #4
  45 0058 063700E3 		movw	r3, #1798
  46 005c 0160A0E3 		mov	r6, #1
  47 0060 05208DE0 		add	r2, sp, r5
  48 0064 0400A0E1 		mov	r0, r4
  49 0068 B430CDE1 		strh	r3, [sp, #4]	@ movhi
  50 006c 0650CDE5 		strb	r5, [sp, #6]
  51 0070 0850CDE5 		strb	r5, [sp, #8]
  52 0074 0760CDE5 		strb	r6, [sp, #7]
  53 0078 FEFFFFEB 		bl	direct_control
  54 007c 000050E3 		cmp	r0, #0
  55 0080 250000BA 		blt	.L11
  56 0084 002000E3 		movw	r2, #:lower16:.LANCHOR1
  57 0088 0810A0E3 		mov	r1, #8
  58 008c 002040E3 		movt	r2, #:upper16:.LANCHOR1
  59 0090 0400A0E1 		mov	r0, r4
  60 0094 FEFFFFEB 		bl	direct_control
  61 0098 000000E3 		movw	r0, #:lower16:.LC1
  62 009c 0210A0E3 		mov	r1, #2
  63 00a0 000040E3 		movt	r0, #:upper16:.LC1
  64 00a4 FEFFFFEB 		bl	open
  65 00a8 007050E2 		subs	r7, r0, #0
  66 00ac 0F0000BA 		blt	.L8
  67 00b0 7030A0E3 		mov	r3, #112
  68 00b4 7820A0E3 		mov	r2, #120
  69 00b8 02E0A0E3 		mov	lr, #2
  70 00bc BFC800E3 		movw	ip, #2239
  71 00c0 0330CDE5 		strb	r3, [sp, #3]
  72 00c4 0510A0E1 		mov	r1, r5
  73 00c8 03308DE2 		add	r3, sp, #3
  74 00cc B821CDE1 		strh	r2, [sp, #24]	@ movhi
  75 00d0 18208DE2 		add	r2, sp, #24
  76 00d4 20608DE5 		str	r6, [sp, #32]
  77 00d8 1AE0CDE5 		strb	lr, [sp, #26]
  78 00dc 1CC08DE5 		str	ip, [sp, #28]
  79 00e0 24308DE5 		str	r3, [sp, #36]
  80 00e4 FEFFFFEB 		bl	control
  81 00e8 0700A0E1 		mov	r0, r7
  82 00ec FEFFFFEB 		bl	close
  83              	.L8:
  84 00f0 002000E3 		movw	r2, #:lower16:.LANCHOR2
  85 00f4 0810A0E3 		mov	r1, #8
  86 00f8 002040E3 		movt	r2, #:upper16:.LANCHOR2
  87 00fc 0400A0E1 		mov	r0, r4
  88 0100 FEFFFFEB 		bl	direct_control
  89 0104 0400A0E1 		mov	r0, r4
  90 0108 FEFFFFEB 		bl	direct_close
  91 010c 2CD08DE2 		add	sp, sp, #44
  92              		@ sp needed
  93 0110 F080BDE8 		pop	{r4, r5, r6, r7, pc}
  94              	.L9:
  95 0114 FEFFFFEA 		b	.L9
  96              	.L10:
  97 0118 FEFFFFEA 		b	.L10
  98              	.L11:
  99 011c FEFFFFEA 		b	.L11
 101              		.section	.rodata.GPIO_SC_TABLE_vdc,"a",%progbits
 102              		.align	2
 103              		.set	.LANCHOR0,. + 0
 106              	GPIO_SC_TABLE_vdc:
 107 0000 0707     		.short	1799
 108 0002 09       		.byte	9
 109 0003 01       		.byte	1
 110 0004 04       		.byte	4
 111 0005 00       		.space	1
 112 0006 0008     		.short	2048
 113 0008 09       		.byte	9
 114 0009 01       		.byte	1
 115 000a 04       		.byte	4
 116 000b 00       		.space	1
 117 000c 000A     		.short	2560
 118 000e 09       		.byte	9
 119 000f 01       		.byte	1
 120 0010 04       		.byte	4
 121 0011 00       		.space	1
 122 0012 010A     		.short	2561
 123 0014 09       		.byte	9
 124 0015 01       		.byte	1
 125 0016 04       		.byte	4
 126 0017 00       		.space	1
 127 0018 020A     		.short	2562
 128 001a 09       		.byte	9
 129 001b 01       		.byte	1
 130 001c 04       		.byte	4
 131 001d 00       		.space	1
 132 001e 030A     		.short	2563
 133 0020 09       		.byte	9
 134 0021 01       		.byte	1
 135 0022 04       		.byte	4
 136 0023 00       		.space	1
 137 0024 040A     		.short	2564
 138 0026 09       		.byte	9
 139 0027 01       		.byte	1
 140 0028 04       		.byte	4
 141 0029 00       		.space	1
 142 002a 050A     		.short	2565
 143 002c 09       		.byte	9
 144 002d 01       		.byte	1
 145 002e 04       		.byte	4
 146 002f 00       		.space	1
 147 0030 060A     		.short	2566
 148 0032 09       		.byte	9
 149 0033 01       		.byte	1
 150 0034 04       		.byte	4
 151 0035 00       		.space	1
 152 0036 070A     		.short	2567
 153 0038 09       		.byte	9
 154 0039 01       		.byte	1
 155 003a 04       		.byte	4
 156 003b 00       		.space	1
 157 003c 000B     		.short	2816
 158 003e 09       		.byte	9
 159 003f 01       		.byte	1
 160 0040 04       		.byte	4
 161 0041 00       		.space	1
 162 0042 010B     		.short	2817
 163 0044 09       		.byte	9
 164 0045 01       		.byte	1
 165 0046 04       		.byte	4
 166 0047 00       		.space	1
 167 0048 020B     		.short	2818
 168 004a 09       		.byte	9
 169 004b 01       		.byte	1
 170 004c 04       		.byte	4
 171 004d 00       		.space	1
 172 004e 030B     		.short	2819
 173 0050 09       		.byte	9
 174 0051 01       		.byte	1
 175 0052 04       		.byte	4
 176 0053 00       		.space	1
 177 0054 040B     		.short	2820
 178 0056 09       		.byte	9
 179 0057 01       		.byte	1
 180 0058 04       		.byte	4
 181 0059 00       		.space	1
 182 005a 050B     		.short	2821
 183 005c 09       		.byte	9
 184 005d 01       		.byte	1
 185 005e 04       		.byte	4
 186 005f 00       		.space	1
 187 0060 030C     		.short	3075
 188 0062 0B       		.byte	11
 189 0063 01       		.byte	1
 190 0064 04       		.byte	4
 191 0065 00       		.space	1
 192 0066 040C     		.short	3076
 193 0068 0B       		.byte	11
 194 0069 01       		.byte	1
 195 006a 04       		.byte	4
 196 006b 00       		.space	1
 197 006c 000F     		.short	3840
 198 006e 09       		.byte	9
 199 006f 01       		.byte	1
 200 0070 04       		.byte	4
 201 0071 00       		.space	1
 202 0072 010F     		.short	3841
 203 0074 09       		.byte	9
 204 0075 01       		.byte	1
 205 0076 04       		.byte	4
 206 0077 00       		.space	1
 207 0078 020F     		.short	3842
 208 007a 09       		.byte	9
 209 007b 01       		.byte	1
 210 007c 04       		.byte	4
 211 007d 00       		.space	1
 212 007e 030F     		.short	3843
 213 0080 09       		.byte	9
 214 0081 01       		.byte	1
 215 0082 04       		.byte	4
 216 0083 00       		.space	1
 217 0084 040F     		.short	3844
 218 0086 09       		.byte	9
 219 0087 01       		.byte	1
 220 0088 04       		.byte	4
 221 0089 00       		.space	1
 222 008a 050F     		.short	3845
 223 008c 09       		.byte	9
 224 008d 01       		.byte	1
 225 008e 04       		.byte	4
 226 008f 00       		.space	1
 227 0090 060F     		.short	3846
 228 0092 09       		.byte	9
 229 0093 01       		.byte	1
 230 0094 04       		.byte	4
 231 0095 00       		.space	1
 232 0096 070F     		.short	3847
 233 0098 09       		.byte	9
 234 0099 01       		.byte	1
 235 009a 04       		.byte	4
 236 009b 00       		.space	1
 237 009c 0211     		.short	4354
 238 009e 09       		.byte	9
 239 009f 01       		.byte	1
 240 00a0 04       		.byte	4
 241 00a1 00       		.space	1
 242 00a2 0612     		.short	4614
 243 00a4 09       		.byte	9
 244 00a5 01       		.byte	1
 245 00a6 02       		.byte	2
 246 00a7 00       		.space	1
 247 00a8 0712     		.short	4615
 248 00aa 09       		.byte	9
 249 00ab 01       		.byte	1
 250 00ac 05       		.byte	5
 251 00ad 00       		.space	1
 252              		.section	.rodata.VDC_LcdPortSetting.str1.4,"aMS",%progbits,1
 253              		.align	2
 254              	.LC0:
 255 0000 6770696F 		.ascii	"gpio\000"
 255      00
 256 0005 000000   		.space	3
 257              	.LC1:
 258 0008 5C5C2E5C 		.ascii	"\\\\.\\riic3\000"
 258      72696963 
 258      3300
 259              		.section	.rodata.p76_hi.71903,"a",%progbits
 260              		.align	2
 261              		.set	.LANCHOR1,. + 0
 264              	p76_hi.71903:
 265 0000 0607     		.short	1798
 266 0002 02       		.byte	2
 267 0003 00       		.space	1
 268              		.section	.rodata.p76_lo.71904,"a",%progbits
 269              		.align	2
 270              		.set	.LANCHOR2,. + 0
 273              	p76_lo.71904:
 274 0000 0607     		.short	1798
 275 0002 01       		.byte	1
 276 0003 00       		.space	1
 277              		.ident	"GCC: (GNU Tools for ARM Embedded Processors 6-2017-q2-update) 6.3.1 20170620 (release) [AR
DEFINED SYMBOLS
                            *ABS*:00000000 vdc_portsetting.c
C:\Users\a5050395\AppData\Local\Temp\ccbXSmJb.s:14     .text.VDC_LcdPortSetting:00000000 $a
C:\Users\a5050395\AppData\Local\Temp\ccbXSmJb.s:20     .text.VDC_LcdPortSetting:00000000 VDC_LcdPortSetting
C:\Users\a5050395\AppData\Local\Temp\ccbXSmJb.s:254    .rodata.VDC_LcdPortSetting.str1.4:00000000 .LC0
C:\Users\a5050395\AppData\Local\Temp\ccbXSmJb.s:103    .rodata.GPIO_SC_TABLE_vdc:00000000 .LANCHOR0
C:\Users\a5050395\AppData\Local\Temp\ccbXSmJb.s:261    .rodata.p76_hi.71903:00000000 .LANCHOR1
C:\Users\a5050395\AppData\Local\Temp\ccbXSmJb.s:257    .rodata.VDC_LcdPortSetting.str1.4:00000008 .LC1
C:\Users\a5050395\AppData\Local\Temp\ccbXSmJb.s:270    .rodata.p76_lo.71904:00000000 .LANCHOR2
C:\Users\a5050395\AppData\Local\Temp\ccbXSmJb.s:102    .rodata.GPIO_SC_TABLE_vdc:00000000 $d
C:\Users\a5050395\AppData\Local\Temp\ccbXSmJb.s:106    .rodata.GPIO_SC_TABLE_vdc:00000000 GPIO_SC_TABLE_vdc
C:\Users\a5050395\AppData\Local\Temp\ccbXSmJb.s:253    .rodata.VDC_LcdPortSetting.str1.4:00000000 $d
C:\Users\a5050395\AppData\Local\Temp\ccbXSmJb.s:260    .rodata.p76_hi.71903:00000000 $d
C:\Users\a5050395\AppData\Local\Temp\ccbXSmJb.s:264    .rodata.p76_hi.71903:00000000 p76_hi.71903
C:\Users\a5050395\AppData\Local\Temp\ccbXSmJb.s:269    .rodata.p76_lo.71904:00000000 $d
C:\Users\a5050395\AppData\Local\Temp\ccbXSmJb.s:273    .rodata.p76_lo.71904:00000000 p76_lo.71904

UNDEFINED SYMBOLS
direct_open
direct_control
open
control
close
direct_close
