   1              		.cpu cortex-a9
   2              		.eabi_attribute 28, 1
   3              		.eabi_attribute 20, 1
   4              		.eabi_attribute 21, 1
   5              		.eabi_attribute 23, 3
   6              		.eabi_attribute 24, 1
   7              		.eabi_attribute 25, 1
   8              		.eabi_attribute 26, 1
   9              		.eabi_attribute 30, 1
  10              		.eabi_attribute 34, 0
  11              		.eabi_attribute 18, 4
  12              		.file	"r_rza2_riic_lld_int.c"
  13              		.text
  14              	.Ltext0:
  15              		.cfi_sections	.debug_frame
  16              		.section	.text.intriictmoi_proc_handler,"ax",%progbits
  17              		.align	2
  18              		.syntax unified
  19              		.arm
  20              		.fpu neon
  22              	intriictmoi_proc_handler:
  23              	.LFB38:
  24              		.file 1 "../generate/sc_drivers/r_riic/src/lld/r_rza2_riic_lld_int.c"
   1:../generate/sc_drivers/r_riic/src/lld/r_rza2_riic_lld_int.c **** /******************************************************************************
   2:../generate/sc_drivers/r_riic/src/lld/r_rza2_riic_lld_int.c ****  * DISCLAIMER
   3:../generate/sc_drivers/r_riic/src/lld/r_rza2_riic_lld_int.c ****  * This software is supplied by Renesas Electronics Corporation and is only
   4:../generate/sc_drivers/r_riic/src/lld/r_rza2_riic_lld_int.c ****  * intended for use with Renesas products. No other uses are authorized. This
   5:../generate/sc_drivers/r_riic/src/lld/r_rza2_riic_lld_int.c ****  * software is owned by Renesas Electronics Corporation and is protected under
   6:../generate/sc_drivers/r_riic/src/lld/r_rza2_riic_lld_int.c ****  * all applicable laws, including copyright laws.
   7:../generate/sc_drivers/r_riic/src/lld/r_rza2_riic_lld_int.c ****  * THIS SOFTWARE IS PROVIDED "AS IS" AND RENESAS MAKES NO WARRANTIES REGARDING
   8:../generate/sc_drivers/r_riic/src/lld/r_rza2_riic_lld_int.c ****  * THIS SOFTWARE, WHETHER EXPRESS, IMPLIED OR STATUTORY, INCLUDING BUT NOT
   9:../generate/sc_drivers/r_riic/src/lld/r_rza2_riic_lld_int.c ****  * LIMITED TO WARRANTIES OF MERCHANTABILITY, FITNESS FOR A PARTICULAR PURPOSE
  10:../generate/sc_drivers/r_riic/src/lld/r_rza2_riic_lld_int.c ****  * AND NON-INFRINGEMENT. ALL SUCH WARRANTIES ARE EXPRESSLY DISCLAIMED.
  11:../generate/sc_drivers/r_riic/src/lld/r_rza2_riic_lld_int.c ****  * TO THE MAXIMUM EXTENT PERMITTED NOT PROHIBITED BY LAW, NEITHER RENESAS
  12:../generate/sc_drivers/r_riic/src/lld/r_rza2_riic_lld_int.c ****  * ELECTRONICS CORPORATION NOR ANY OF ITS AFFILIATED COMPANIES SHALL BE LIABLE
  13:../generate/sc_drivers/r_riic/src/lld/r_rza2_riic_lld_int.c ****  * FOR ANY DIRECT, INDIRECT, SPECIAL, INCIDENTAL OR CONSEQUENTIAL DAMAGES FOR
  14:../generate/sc_drivers/r_riic/src/lld/r_rza2_riic_lld_int.c ****  * ANY REASON RELATED TO THIS SOFTWARE, EVEN IF RENESAS OR ITS AFFILIATES HAVE
  15:../generate/sc_drivers/r_riic/src/lld/r_rza2_riic_lld_int.c ****  * BEEN ADVISED OF THE POSSIBILITY OF SUCH DAMAGES.
  16:../generate/sc_drivers/r_riic/src/lld/r_rza2_riic_lld_int.c ****  * Renesas reserves the right, without notice, to make changes to this
  17:../generate/sc_drivers/r_riic/src/lld/r_rza2_riic_lld_int.c ****  * software and to discontinue the availability of this software. By using this
  18:../generate/sc_drivers/r_riic/src/lld/r_rza2_riic_lld_int.c ****  * software, you agree to the additional terms and conditions found by
  19:../generate/sc_drivers/r_riic/src/lld/r_rza2_riic_lld_int.c ****  * accessing the following link:
  20:../generate/sc_drivers/r_riic/src/lld/r_rza2_riic_lld_int.c ****  * http://www.renesas.com/disclaimer
  21:../generate/sc_drivers/r_riic/src/lld/r_rza2_riic_lld_int.c ****  *
  22:../generate/sc_drivers/r_riic/src/lld/r_rza2_riic_lld_int.c ****  * Copyright (C) 2018 Renesas Electronics Corporation. All rights reserved.
  23:../generate/sc_drivers/r_riic/src/lld/r_rza2_riic_lld_int.c ****  *****************************************************************************/
  24:../generate/sc_drivers/r_riic/src/lld/r_rza2_riic_lld_int.c **** /******************************************************************************
  25:../generate/sc_drivers/r_riic/src/lld/r_rza2_riic_lld_int.c ****  * File Name    : r_rza2_riic_lld_int.c
  26:../generate/sc_drivers/r_riic/src/lld/r_rza2_riic_lld_int.c ****  * Device(s)    : RZ/A2M
  27:../generate/sc_drivers/r_riic/src/lld/r_rza2_riic_lld_int.c ****  * Tool-Chain   : GCC ARM Embedded 6.3.1.20170620
  28:../generate/sc_drivers/r_riic/src/lld/r_rza2_riic_lld_int.c ****  * OS           : None
  29:../generate/sc_drivers/r_riic/src/lld/r_rza2_riic_lld_int.c ****  * H/W Platform : RZ/A2M Evaluation Board
  30:../generate/sc_drivers/r_riic/src/lld/r_rza2_riic_lld_int.c ****  * Description  : RZ/A2M RIIC Driver - Interrupt control of RIIC module
  31:../generate/sc_drivers/r_riic/src/lld/r_rza2_riic_lld_int.c ****  * Operation    :
  32:../generate/sc_drivers/r_riic/src/lld/r_rza2_riic_lld_int.c ****  * Limitations  :
  33:../generate/sc_drivers/r_riic/src/lld/r_rza2_riic_lld_int.c ****  *****************************************************************************/
  34:../generate/sc_drivers/r_riic/src/lld/r_rza2_riic_lld_int.c **** 
  35:../generate/sc_drivers/r_riic/src/lld/r_rza2_riic_lld_int.c **** /******************************************************************************
  36:../generate/sc_drivers/r_riic/src/lld/r_rza2_riic_lld_int.c ****  Includes   <System Includes> , "Project Includes"
  37:../generate/sc_drivers/r_riic/src/lld/r_rza2_riic_lld_int.c ****  *****************************************************************************/
  38:../generate/sc_drivers/r_riic/src/lld/r_rza2_riic_lld_int.c **** 
  39:../generate/sc_drivers/r_riic/src/lld/r_rza2_riic_lld_int.c **** /* System Includes */
  40:../generate/sc_drivers/r_riic/src/lld/r_rza2_riic_lld_int.c **** #include "r_typedefs.h"
  41:../generate/sc_drivers/r_riic/src/lld/r_rza2_riic_lld_int.c **** #include "iodefine.h"
  42:../generate/sc_drivers/r_riic/src/lld/r_rza2_riic_lld_int.c **** #include "iobitmask.h"
  43:../generate/sc_drivers/r_riic/src/lld/r_rza2_riic_lld_int.c **** /* Low level register read/write header */
  44:../generate/sc_drivers/r_riic/src/lld/r_rza2_riic_lld_int.c **** #include "rza_io_regrw.h"
  45:../generate/sc_drivers/r_riic/src/lld/r_rza2_riic_lld_int.c **** 
  46:../generate/sc_drivers/r_riic/src/lld/r_rza2_riic_lld_int.c **** /* Driver Includes */
  47:../generate/sc_drivers/r_riic/src/lld/r_rza2_riic_lld_int.c **** /* Device driver header */
  48:../generate/sc_drivers/r_riic/src/lld/r_rza2_riic_lld_int.c **** #include "driver.h"
  49:../generate/sc_drivers/r_riic/src/lld/r_rza2_riic_lld_int.c **** /* High level API header for callback function */
  50:../generate/sc_drivers/r_riic/src/lld/r_rza2_riic_lld_int.c **** #include "r_riic_hld_api.h"
  51:../generate/sc_drivers/r_riic/src/lld/r_rza2_riic_lld_int.c **** /* High level Driver header for callback funtion */
  52:../generate/sc_drivers/r_riic/src/lld/r_rza2_riic_lld_int.c **** #include "r_riic_drv_api.h"
  53:../generate/sc_drivers/r_riic/src/lld/r_rza2_riic_lld_int.c **** /* Low level Driver Header */
  54:../generate/sc_drivers/r_riic/src/lld/r_rza2_riic_lld_int.c **** #include "r_rza2m_riic_lld_api.h"
  55:../generate/sc_drivers/r_riic/src/lld/r_rza2_riic_lld_int.c **** /* Low level Driver Configuration Header */
  56:../generate/sc_drivers/r_riic/src/lld/r_rza2_riic_lld_int.c **** #include "r_rza2m_riic_lld_cfg.h"
  57:../generate/sc_drivers/r_riic/src/lld/r_rza2_riic_lld_int.c **** /* Low level Driver Header */
  58:../generate/sc_drivers/r_riic/src/lld/r_rza2_riic_lld_int.c **** #include "r_rza2m_riic_lld_prv.h"
  59:../generate/sc_drivers/r_riic/src/lld/r_rza2_riic_lld_int.c **** /* Interrupt Driver API Header */
  60:../generate/sc_drivers/r_riic/src/lld/r_rza2_riic_lld_int.c **** #include "r_intc_drv_api.h"
  61:../generate/sc_drivers/r_riic/src/lld/r_rza2_riic_lld_int.c **** 
  62:../generate/sc_drivers/r_riic/src/lld/r_rza2_riic_lld_int.c **** /******************************************************************************
  63:../generate/sc_drivers/r_riic/src/lld/r_rza2_riic_lld_int.c ****  Private global variables and functions
  64:../generate/sc_drivers/r_riic/src/lld/r_rza2_riic_lld_int.c ****  *****************************************************************************/
  65:../generate/sc_drivers/r_riic/src/lld/r_rza2_riic_lld_int.c **** 
  66:../generate/sc_drivers/r_riic/src/lld/r_rza2_riic_lld_int.c **** /******************************************************************************
  67:../generate/sc_drivers/r_riic/src/lld/r_rza2_riic_lld_int.c ****  Macro definitions
  68:../generate/sc_drivers/r_riic/src/lld/r_rza2_riic_lld_int.c ****  *****************************************************************************/
  69:../generate/sc_drivers/r_riic/src/lld/r_rza2_riic_lld_int.c **** 
  70:../generate/sc_drivers/r_riic/src/lld/r_rza2_riic_lld_int.c **** /******************************************************************************
  71:../generate/sc_drivers/r_riic/src/lld/r_rza2_riic_lld_int.c ****  Typedefs
  72:../generate/sc_drivers/r_riic/src/lld/r_rza2_riic_lld_int.c ****  *****************************************************************************/
  73:../generate/sc_drivers/r_riic/src/lld/r_rza2_riic_lld_int.c **** 
  74:../generate/sc_drivers/r_riic/src/lld/r_rza2_riic_lld_int.c **** /******************************************************************************
  75:../generate/sc_drivers/r_riic/src/lld/r_rza2_riic_lld_int.c ****  Private function definitions
  76:../generate/sc_drivers/r_riic/src/lld/r_rza2_riic_lld_int.c ****  *****************************************************************************/
  77:../generate/sc_drivers/r_riic/src/lld/r_rza2_riic_lld_int.c **** static void intriictei_proc_handler (int_t channel);
  78:../generate/sc_drivers/r_riic/src/lld/r_rza2_riic_lld_int.c **** static void intriic0tei_handler (uint32_t int_sense);
  79:../generate/sc_drivers/r_riic/src/lld/r_rza2_riic_lld_int.c **** static void intriic1tei_handler (uint32_t int_sense);
  80:../generate/sc_drivers/r_riic/src/lld/r_rza2_riic_lld_int.c **** static void intriic2tei_handler (uint32_t int_sense);
  81:../generate/sc_drivers/r_riic/src/lld/r_rza2_riic_lld_int.c **** static void intriic3tei_handler (uint32_t int_sense);
  82:../generate/sc_drivers/r_riic/src/lld/r_rza2_riic_lld_int.c **** 
  83:../generate/sc_drivers/r_riic/src/lld/r_rza2_riic_lld_int.c **** static void intriicri_proc_handler (int_t channel);
  84:../generate/sc_drivers/r_riic/src/lld/r_rza2_riic_lld_int.c **** static void intriic0ri_handler (uint32_t int_sense);
  85:../generate/sc_drivers/r_riic/src/lld/r_rza2_riic_lld_int.c **** static void intriic1ri_handler (uint32_t int_sense);
  86:../generate/sc_drivers/r_riic/src/lld/r_rza2_riic_lld_int.c **** static void intriic2ri_handler (uint32_t int_sense);
  87:../generate/sc_drivers/r_riic/src/lld/r_rza2_riic_lld_int.c **** static void intriic3ri_handler (uint32_t int_sense);
  88:../generate/sc_drivers/r_riic/src/lld/r_rza2_riic_lld_int.c **** 
  89:../generate/sc_drivers/r_riic/src/lld/r_rza2_riic_lld_int.c **** static void intriicti_proc_handler (int_t channel);
  90:../generate/sc_drivers/r_riic/src/lld/r_rza2_riic_lld_int.c **** static void intriic0ti_handler (uint32_t int_sense);
  91:../generate/sc_drivers/r_riic/src/lld/r_rza2_riic_lld_int.c **** static void intriic1ti_handler (uint32_t int_sense);
  92:../generate/sc_drivers/r_riic/src/lld/r_rza2_riic_lld_int.c **** static void intriic2ti_handler (uint32_t int_sense);
  93:../generate/sc_drivers/r_riic/src/lld/r_rza2_riic_lld_int.c **** static void intriic3ti_handler (uint32_t int_sense);
  94:../generate/sc_drivers/r_riic/src/lld/r_rza2_riic_lld_int.c **** 
  95:../generate/sc_drivers/r_riic/src/lld/r_rza2_riic_lld_int.c **** static void intriicsti_proc_handler (int_t channel);
  96:../generate/sc_drivers/r_riic/src/lld/r_rza2_riic_lld_int.c **** static void intriic0sti_handler (uint32_t int_sense);
  97:../generate/sc_drivers/r_riic/src/lld/r_rza2_riic_lld_int.c **** static void intriic1sti_handler (uint32_t int_sense);
  98:../generate/sc_drivers/r_riic/src/lld/r_rza2_riic_lld_int.c **** static void intriic2sti_handler (uint32_t int_sense);
  99:../generate/sc_drivers/r_riic/src/lld/r_rza2_riic_lld_int.c **** static void intriic3sti_handler (uint32_t int_sense);
 100:../generate/sc_drivers/r_riic/src/lld/r_rza2_riic_lld_int.c **** 
 101:../generate/sc_drivers/r_riic/src/lld/r_rza2_riic_lld_int.c **** static void intriicspi_proc_handler (int_t channel);
 102:../generate/sc_drivers/r_riic/src/lld/r_rza2_riic_lld_int.c **** static void intriic0spi_handler (uint32_t int_sense);
 103:../generate/sc_drivers/r_riic/src/lld/r_rza2_riic_lld_int.c **** static void intriic1spi_handler (uint32_t int_sense);
 104:../generate/sc_drivers/r_riic/src/lld/r_rza2_riic_lld_int.c **** static void intriic2spi_handler (uint32_t int_sense);
 105:../generate/sc_drivers/r_riic/src/lld/r_rza2_riic_lld_int.c **** static void intriic3spi_handler (uint32_t int_sense);
 106:../generate/sc_drivers/r_riic/src/lld/r_rza2_riic_lld_int.c **** 
 107:../generate/sc_drivers/r_riic/src/lld/r_rza2_riic_lld_int.c **** static void intriicnaki_proc_handler (int_t channel);
 108:../generate/sc_drivers/r_riic/src/lld/r_rza2_riic_lld_int.c **** static void intriic0naki_handler (uint32_t int_sense);
 109:../generate/sc_drivers/r_riic/src/lld/r_rza2_riic_lld_int.c **** static void intriic1naki_handler (uint32_t int_sense);
 110:../generate/sc_drivers/r_riic/src/lld/r_rza2_riic_lld_int.c **** static void intriic2naki_handler (uint32_t int_sense);
 111:../generate/sc_drivers/r_riic/src/lld/r_rza2_riic_lld_int.c **** static void intriic3naki_handler (uint32_t int_sense);
 112:../generate/sc_drivers/r_riic/src/lld/r_rza2_riic_lld_int.c **** 
 113:../generate/sc_drivers/r_riic/src/lld/r_rza2_riic_lld_int.c **** static void intriicali_proc_handler (int_t channel);
 114:../generate/sc_drivers/r_riic/src/lld/r_rza2_riic_lld_int.c **** static void intriic0ali_handler (uint32_t int_sense);
 115:../generate/sc_drivers/r_riic/src/lld/r_rza2_riic_lld_int.c **** static void intriic1ali_handler (uint32_t int_sense);
 116:../generate/sc_drivers/r_riic/src/lld/r_rza2_riic_lld_int.c **** static void intriic2ali_handler (uint32_t int_sense);
 117:../generate/sc_drivers/r_riic/src/lld/r_rza2_riic_lld_int.c **** static void intriic3ali_handler (uint32_t int_sense);
 118:../generate/sc_drivers/r_riic/src/lld/r_rza2_riic_lld_int.c **** 
 119:../generate/sc_drivers/r_riic/src/lld/r_rza2_riic_lld_int.c **** static void intriictmoi_proc_handler (int_t channel);
 120:../generate/sc_drivers/r_riic/src/lld/r_rza2_riic_lld_int.c **** static void intriic0tmoi_handler (uint32_t int_sense);
 121:../generate/sc_drivers/r_riic/src/lld/r_rza2_riic_lld_int.c **** static void intriic1tmoi_handler (uint32_t int_sense);
 122:../generate/sc_drivers/r_riic/src/lld/r_rza2_riic_lld_int.c **** static void intriic2tmoi_handler (uint32_t int_sense);
 123:../generate/sc_drivers/r_riic/src/lld/r_rza2_riic_lld_int.c **** static void intriic3tmoi_handler (uint32_t int_sense);
 124:../generate/sc_drivers/r_riic/src/lld/r_rza2_riic_lld_int.c **** 
 125:../generate/sc_drivers/r_riic/src/lld/r_rza2_riic_lld_int.c **** /******************************************************************************
 126:../generate/sc_drivers/r_riic/src/lld/r_rza2_riic_lld_int.c ****  Private global variables and functions
 127:../generate/sc_drivers/r_riic/src/lld/r_rza2_riic_lld_int.c ****  ******************************************************************************/
 128:../generate/sc_drivers/r_riic/src/lld/r_rza2_riic_lld_int.c **** static volatile struct st_riic *gsp_riic[RIIC_CFG_LLD_NUM_CHANNELS] =
 129:../generate/sc_drivers/r_riic/src/lld/r_rza2_riic_lld_int.c **** {
 130:../generate/sc_drivers/r_riic/src/lld/r_rza2_riic_lld_int.c ****     /* RIIC Channels */
 131:../generate/sc_drivers/r_riic/src/lld/r_rza2_riic_lld_int.c ****     &RIIC30, &RIIC31, &RIIC32, &RIIC33 
 132:../generate/sc_drivers/r_riic/src/lld/r_rza2_riic_lld_int.c **** };
 133:../generate/sc_drivers/r_riic/src/lld/r_rza2_riic_lld_int.c **** 
 134:../generate/sc_drivers/r_riic/src/lld/r_rza2_riic_lld_int.c **** /* RIIC interrupt info */
 135:../generate/sc_drivers/r_riic/src/lld/r_rza2_riic_lld_int.c **** 
 136:../generate/sc_drivers/r_riic/src/lld/r_rza2_riic_lld_int.c **** /* interrupt information table define */
 137:../generate/sc_drivers/r_riic/src/lld/r_rza2_riic_lld_int.c **** static const st_riic_int_param_t gs_riic_int_info[RIIC_CFG_LLD_NUM_CHANNELS][RIIC_INT_MAX] =
 138:../generate/sc_drivers/r_riic/src/lld/r_rza2_riic_lld_int.c **** {
 139:../generate/sc_drivers/r_riic/src/lld/r_rza2_riic_lld_int.c ****     { 
 140:../generate/sc_drivers/r_riic/src/lld/r_rza2_riic_lld_int.c ****         /* ch0 */
 141:../generate/sc_drivers/r_riic/src/lld/r_rza2_riic_lld_int.c ****         { &intriic0tei_handler, INTC_ID_IIC_INTRIICTEI0, INT_SENSE_LEVEL }, /* TEI */
 142:../generate/sc_drivers/r_riic/src/lld/r_rza2_riic_lld_int.c ****         { &intriic0ri_handler, INTC_ID_IIC_INTRIICRI0, INT_SENSE_EDGE }, /* RI */
 143:../generate/sc_drivers/r_riic/src/lld/r_rza2_riic_lld_int.c ****         { &intriic0ti_handler, INTC_ID_IIC_INTRIICTI0, INT_SENSE_EDGE }, /* TI */
 144:../generate/sc_drivers/r_riic/src/lld/r_rza2_riic_lld_int.c ****         { &intriic0spi_handler, INTC_ID_IIC_INTRIICSPI0, INT_SENSE_LEVEL }, /* SPI */
 145:../generate/sc_drivers/r_riic/src/lld/r_rza2_riic_lld_int.c ****         { &intriic0sti_handler, INTC_ID_IIC_INTRIICSTI0, INT_SENSE_LEVEL }, /* STI */
 146:../generate/sc_drivers/r_riic/src/lld/r_rza2_riic_lld_int.c ****         { &intriic0naki_handler, INTC_ID_IIC_INTRIICNAKI0, INT_SENSE_LEVEL }, /* NAKI */
 147:../generate/sc_drivers/r_riic/src/lld/r_rza2_riic_lld_int.c ****         { &intriic0ali_handler, INTC_ID_IIC_INTRIICALI0, INT_SENSE_LEVEL }, /* ALI */
 148:../generate/sc_drivers/r_riic/src/lld/r_rza2_riic_lld_int.c ****         { &intriic0tmoi_handler, INTC_ID_IIC_INTRIICTMOI0, INT_SENSE_LEVEL } /* TMOI */
 149:../generate/sc_drivers/r_riic/src/lld/r_rza2_riic_lld_int.c ****     },
 150:../generate/sc_drivers/r_riic/src/lld/r_rza2_riic_lld_int.c ****     { 
 151:../generate/sc_drivers/r_riic/src/lld/r_rza2_riic_lld_int.c ****         /* ch1 */
 152:../generate/sc_drivers/r_riic/src/lld/r_rza2_riic_lld_int.c ****         { &intriic1tei_handler, INTC_ID_IIC_INTRIICTEI1, INT_SENSE_LEVEL }, /* TEI */
 153:../generate/sc_drivers/r_riic/src/lld/r_rza2_riic_lld_int.c ****         { &intriic1ri_handler, INTC_ID_IIC_INTRIICRI1, INT_SENSE_EDGE }, /* RI */
 154:../generate/sc_drivers/r_riic/src/lld/r_rza2_riic_lld_int.c ****         { &intriic1ti_handler, INTC_ID_IIC_INTRIICTI1, INT_SENSE_EDGE }, /* TI */
 155:../generate/sc_drivers/r_riic/src/lld/r_rza2_riic_lld_int.c ****         { &intriic1spi_handler, INTC_ID_IIC_INTRIICSPI1, INT_SENSE_LEVEL }, /* SPI */
 156:../generate/sc_drivers/r_riic/src/lld/r_rza2_riic_lld_int.c ****         { &intriic1sti_handler, INTC_ID_IIC_INTRIICSTI1, INT_SENSE_LEVEL }, /* STI */
 157:../generate/sc_drivers/r_riic/src/lld/r_rza2_riic_lld_int.c ****         { &intriic1naki_handler, INTC_ID_IIC_INTRIICNAKI1, INT_SENSE_LEVEL }, /* NAKI */
 158:../generate/sc_drivers/r_riic/src/lld/r_rza2_riic_lld_int.c ****         { &intriic1ali_handler, INTC_ID_IIC_INTRIICALI1, INT_SENSE_LEVEL }, /* ALI */
 159:../generate/sc_drivers/r_riic/src/lld/r_rza2_riic_lld_int.c ****         { &intriic1tmoi_handler, INTC_ID_IIC_INTRIICTMOI1, INT_SENSE_LEVEL } /* TMOI */
 160:../generate/sc_drivers/r_riic/src/lld/r_rza2_riic_lld_int.c ****     },
 161:../generate/sc_drivers/r_riic/src/lld/r_rza2_riic_lld_int.c ****     { 
 162:../generate/sc_drivers/r_riic/src/lld/r_rza2_riic_lld_int.c ****         /* ch2 */
 163:../generate/sc_drivers/r_riic/src/lld/r_rza2_riic_lld_int.c ****         { &intriic2tei_handler, INTC_ID_IIC_INTRIICTEI2, INT_SENSE_LEVEL }, /* TEI */
 164:../generate/sc_drivers/r_riic/src/lld/r_rza2_riic_lld_int.c ****         { &intriic2ri_handler, INTC_ID_IIC_INTRIICRI2, INT_SENSE_EDGE }, /* RI */
 165:../generate/sc_drivers/r_riic/src/lld/r_rza2_riic_lld_int.c ****         { &intriic2ti_handler, INTC_ID_IIC_INTRIICTI2, INT_SENSE_EDGE }, /* TI */
 166:../generate/sc_drivers/r_riic/src/lld/r_rza2_riic_lld_int.c ****         { &intriic2spi_handler, INTC_ID_IIC_INTRIICSPI2, INT_SENSE_LEVEL }, /* SPI */
 167:../generate/sc_drivers/r_riic/src/lld/r_rza2_riic_lld_int.c ****         { &intriic2sti_handler, INTC_ID_IIC_INTRIICSTI2, INT_SENSE_LEVEL }, /* STI */
 168:../generate/sc_drivers/r_riic/src/lld/r_rza2_riic_lld_int.c ****         { &intriic2naki_handler, INTC_ID_IIC_INTRIICNAKI2, INT_SENSE_LEVEL }, /* NAKI */
 169:../generate/sc_drivers/r_riic/src/lld/r_rza2_riic_lld_int.c ****         { &intriic2ali_handler, INTC_ID_IIC_INTRIICALI2, INT_SENSE_LEVEL }, /* ALI */
 170:../generate/sc_drivers/r_riic/src/lld/r_rza2_riic_lld_int.c ****         { &intriic2tmoi_handler, INTC_ID_IIC_INTRIICTMOI2, INT_SENSE_LEVEL } /* TMOI */
 171:../generate/sc_drivers/r_riic/src/lld/r_rza2_riic_lld_int.c ****     },
 172:../generate/sc_drivers/r_riic/src/lld/r_rza2_riic_lld_int.c ****     { 
 173:../generate/sc_drivers/r_riic/src/lld/r_rza2_riic_lld_int.c ****         /* ch3 */
 174:../generate/sc_drivers/r_riic/src/lld/r_rza2_riic_lld_int.c ****         { &intriic3tei_handler, INTC_ID_IIC_INTRIICTEI3, INT_SENSE_LEVEL }, /* TEI */
 175:../generate/sc_drivers/r_riic/src/lld/r_rza2_riic_lld_int.c ****         { &intriic3ri_handler, INTC_ID_IIC_INTRIICRI3, INT_SENSE_EDGE }, /* RI */
 176:../generate/sc_drivers/r_riic/src/lld/r_rza2_riic_lld_int.c ****         { &intriic3ti_handler, INTC_ID_IIC_INTRIICTI3, INT_SENSE_EDGE }, /* TI */
 177:../generate/sc_drivers/r_riic/src/lld/r_rza2_riic_lld_int.c ****         { &intriic3spi_handler, INTC_ID_IIC_INTRIICSPI3, INT_SENSE_LEVEL }, /* SPI */
 178:../generate/sc_drivers/r_riic/src/lld/r_rza2_riic_lld_int.c ****         { &intriic3sti_handler, INTC_ID_IIC_INTRIICSTI3, INT_SENSE_LEVEL }, /* STI */
 179:../generate/sc_drivers/r_riic/src/lld/r_rza2_riic_lld_int.c ****         { &intriic3naki_handler, INTC_ID_IIC_INTRIICNAKI3, INT_SENSE_LEVEL }, /* NAKI */
 180:../generate/sc_drivers/r_riic/src/lld/r_rza2_riic_lld_int.c ****         { &intriic3ali_handler, INTC_ID_IIC_INTRIICALI3, INT_SENSE_LEVEL }, /* ALI */
 181:../generate/sc_drivers/r_riic/src/lld/r_rza2_riic_lld_int.c ****         { &intriic3tmoi_handler, INTC_ID_IIC_INTRIICTMOI3, INT_SENSE_LEVEL } /* TMOI */
 182:../generate/sc_drivers/r_riic/src/lld/r_rza2_riic_lld_int.c ****     } 
 183:../generate/sc_drivers/r_riic/src/lld/r_rza2_riic_lld_int.c **** };
 184:../generate/sc_drivers/r_riic/src/lld/r_rza2_riic_lld_int.c **** 
 185:../generate/sc_drivers/r_riic/src/lld/r_rza2_riic_lld_int.c **** /* Prototypes */
 186:../generate/sc_drivers/r_riic/src/lld/r_rza2_riic_lld_int.c **** 
 187:../generate/sc_drivers/r_riic/src/lld/r_rza2_riic_lld_int.c **** /******************************************************************************
 188:../generate/sc_drivers/r_riic/src/lld/r_rza2_riic_lld_int.c ****  Private function definitions
 189:../generate/sc_drivers/r_riic/src/lld/r_rza2_riic_lld_int.c ****  *****************************************************************************/
 190:../generate/sc_drivers/r_riic/src/lld/r_rza2_riic_lld_int.c **** 
 191:../generate/sc_drivers/r_riic/src/lld/r_rza2_riic_lld_int.c **** /******************************************************************************
 192:../generate/sc_drivers/r_riic/src/lld/r_rza2_riic_lld_int.c **** * Function Name: interrupt_init
 193:../generate/sc_drivers/r_riic/src/lld/r_rza2_riic_lld_int.c **** * Description  : Initialize function of interrupt.
 194:../generate/sc_drivers/r_riic/src/lld/r_rza2_riic_lld_int.c **** * Arguments    : channel - The RIIC channel on initialising interrupt.
 195:../generate/sc_drivers/r_riic/src/lld/r_rza2_riic_lld_int.c ****                  *p_cfg - The RIIC channel configration information.
 196:../generate/sc_drivers/r_riic/src/lld/r_rza2_riic_lld_int.c **** * Return Value : None.
 197:../generate/sc_drivers/r_riic/src/lld/r_rza2_riic_lld_int.c **** ******************************************************************************/
 198:../generate/sc_drivers/r_riic/src/lld/r_rza2_riic_lld_int.c **** void interrupt_init (const int_t channel, const st_riic_config_t *p_cfg)
 199:../generate/sc_drivers/r_riic/src/lld/r_rza2_riic_lld_int.c **** {
 200:../generate/sc_drivers/r_riic/src/lld/r_rza2_riic_lld_int.c ****     R_INTC_RegistIntFunc(gs_riic_int_info[channel][RIIC_INT_TEI].int_num,
 201:../generate/sc_drivers/r_riic/src/lld/r_rza2_riic_lld_int.c ****             gs_riic_int_info[channel][RIIC_INT_TEI].int_handler);
 202:../generate/sc_drivers/r_riic/src/lld/r_rza2_riic_lld_int.c ****     R_INTC_Enable(gs_riic_int_info[channel][RIIC_INT_TEI].int_num);
 203:../generate/sc_drivers/r_riic/src/lld/r_rza2_riic_lld_int.c ****     R_INTC_SetPriority(gs_riic_int_info[channel][RIIC_INT_TEI].int_num, p_cfg->tei_priority);
 204:../generate/sc_drivers/r_riic/src/lld/r_rza2_riic_lld_int.c **** 
 205:../generate/sc_drivers/r_riic/src/lld/r_rza2_riic_lld_int.c ****     R_INTC_RegistIntFunc(gs_riic_int_info[channel][RIIC_INT_RI].int_num,
 206:../generate/sc_drivers/r_riic/src/lld/r_rza2_riic_lld_int.c ****             gs_riic_int_info[channel][RIIC_INT_RI].int_handler);
 207:../generate/sc_drivers/r_riic/src/lld/r_rza2_riic_lld_int.c ****     R_INTC_Enable(gs_riic_int_info[channel][RIIC_INT_RI].int_num);
 208:../generate/sc_drivers/r_riic/src/lld/r_rza2_riic_lld_int.c ****     R_INTC_SetPriority(gs_riic_int_info[channel][RIIC_INT_RI].int_num, p_cfg->ri_priority);
 209:../generate/sc_drivers/r_riic/src/lld/r_rza2_riic_lld_int.c **** 
 210:../generate/sc_drivers/r_riic/src/lld/r_rza2_riic_lld_int.c ****     R_INTC_RegistIntFunc(gs_riic_int_info[channel][RIIC_INT_TI].int_num,
 211:../generate/sc_drivers/r_riic/src/lld/r_rza2_riic_lld_int.c ****             gs_riic_int_info[channel][RIIC_INT_TI].int_handler);
 212:../generate/sc_drivers/r_riic/src/lld/r_rza2_riic_lld_int.c ****     R_INTC_Enable(gs_riic_int_info[channel][RIIC_INT_TI].int_num);
 213:../generate/sc_drivers/r_riic/src/lld/r_rza2_riic_lld_int.c ****     R_INTC_SetPriority(gs_riic_int_info[channel][RIIC_INT_TI].int_num, p_cfg->ti_priority);
 214:../generate/sc_drivers/r_riic/src/lld/r_rza2_riic_lld_int.c **** 
 215:../generate/sc_drivers/r_riic/src/lld/r_rza2_riic_lld_int.c ****     R_INTC_RegistIntFunc(gs_riic_int_info[channel][RIIC_INT_STI].int_num,
 216:../generate/sc_drivers/r_riic/src/lld/r_rza2_riic_lld_int.c ****             gs_riic_int_info[channel][RIIC_INT_STI].int_handler);
 217:../generate/sc_drivers/r_riic/src/lld/r_rza2_riic_lld_int.c ****     R_INTC_Enable(gs_riic_int_info[channel][RIIC_INT_STI].int_num);
 218:../generate/sc_drivers/r_riic/src/lld/r_rza2_riic_lld_int.c ****     R_INTC_SetPriority(gs_riic_int_info[channel][RIIC_INT_STI].int_num, p_cfg->sti_priority);
 219:../generate/sc_drivers/r_riic/src/lld/r_rza2_riic_lld_int.c **** 
 220:../generate/sc_drivers/r_riic/src/lld/r_rza2_riic_lld_int.c ****     R_INTC_RegistIntFunc(gs_riic_int_info[channel][RIIC_INT_SPI].int_num,
 221:../generate/sc_drivers/r_riic/src/lld/r_rza2_riic_lld_int.c ****             gs_riic_int_info[channel][RIIC_INT_SPI].int_handler);
 222:../generate/sc_drivers/r_riic/src/lld/r_rza2_riic_lld_int.c ****     R_INTC_Enable(gs_riic_int_info[channel][RIIC_INT_SPI].int_num);
 223:../generate/sc_drivers/r_riic/src/lld/r_rza2_riic_lld_int.c ****     R_INTC_SetPriority(gs_riic_int_info[channel][RIIC_INT_SPI].int_num, p_cfg->spi_priority);
 224:../generate/sc_drivers/r_riic/src/lld/r_rza2_riic_lld_int.c **** 
 225:../generate/sc_drivers/r_riic/src/lld/r_rza2_riic_lld_int.c ****     R_INTC_RegistIntFunc(gs_riic_int_info[channel][RIIC_INT_NAKI].int_num,
 226:../generate/sc_drivers/r_riic/src/lld/r_rza2_riic_lld_int.c ****             gs_riic_int_info[channel][RIIC_INT_NAKI].int_handler);
 227:../generate/sc_drivers/r_riic/src/lld/r_rza2_riic_lld_int.c ****     R_INTC_Enable(gs_riic_int_info[channel][RIIC_INT_NAKI].int_num);
 228:../generate/sc_drivers/r_riic/src/lld/r_rza2_riic_lld_int.c ****     R_INTC_SetPriority(gs_riic_int_info[channel][RIIC_INT_NAKI].int_num, p_cfg->naki_priority);
 229:../generate/sc_drivers/r_riic/src/lld/r_rza2_riic_lld_int.c **** 
 230:../generate/sc_drivers/r_riic/src/lld/r_rza2_riic_lld_int.c ****     R_INTC_RegistIntFunc(gs_riic_int_info[channel][RIIC_INT_ALI].int_num,
 231:../generate/sc_drivers/r_riic/src/lld/r_rza2_riic_lld_int.c ****             gs_riic_int_info[channel][RIIC_INT_ALI].int_handler);
 232:../generate/sc_drivers/r_riic/src/lld/r_rza2_riic_lld_int.c ****     R_INTC_Enable(gs_riic_int_info[channel][RIIC_INT_ALI].int_num);
 233:../generate/sc_drivers/r_riic/src/lld/r_rza2_riic_lld_int.c ****     R_INTC_SetPriority(gs_riic_int_info[channel][RIIC_INT_ALI].int_num, p_cfg->ali_priority);
 234:../generate/sc_drivers/r_riic/src/lld/r_rza2_riic_lld_int.c **** 
 235:../generate/sc_drivers/r_riic/src/lld/r_rza2_riic_lld_int.c ****     R_INTC_RegistIntFunc(gs_riic_int_info[channel][RIIC_INT_TMOI].int_num,
 236:../generate/sc_drivers/r_riic/src/lld/r_rza2_riic_lld_int.c ****             gs_riic_int_info[channel][RIIC_INT_TMOI].int_handler);
 237:../generate/sc_drivers/r_riic/src/lld/r_rza2_riic_lld_int.c ****     R_INTC_Enable(gs_riic_int_info[channel][RIIC_INT_TMOI].int_num);
 238:../generate/sc_drivers/r_riic/src/lld/r_rza2_riic_lld_int.c ****     R_INTC_SetPriority(gs_riic_int_info[channel][RIIC_INT_TMOI].int_num, p_cfg->tmoi_priority);
 239:../generate/sc_drivers/r_riic/src/lld/r_rza2_riic_lld_int.c **** }
 240:../generate/sc_drivers/r_riic/src/lld/r_rza2_riic_lld_int.c **** /******************************************************************************
 241:../generate/sc_drivers/r_riic/src/lld/r_rza2_riic_lld_int.c ****  * End of Function interrupt_init
 242:../generate/sc_drivers/r_riic/src/lld/r_rza2_riic_lld_int.c ****  *****************************************************************************/
 243:../generate/sc_drivers/r_riic/src/lld/r_rza2_riic_lld_int.c **** 
 244:../generate/sc_drivers/r_riic/src/lld/r_rza2_riic_lld_int.c **** /******************************************************************************
 245:../generate/sc_drivers/r_riic/src/lld/r_rza2_riic_lld_int.c **** * Function Name: interrupt_uninit
 246:../generate/sc_drivers/r_riic/src/lld/r_rza2_riic_lld_int.c **** * Description  : Uninitialize function of interrupt.
 247:../generate/sc_drivers/r_riic/src/lld/r_rza2_riic_lld_int.c **** * Arguments    : channel -The RIIC channel on initialising interrupt.
 248:../generate/sc_drivers/r_riic/src/lld/r_rza2_riic_lld_int.c **** * Return Value : None.
 249:../generate/sc_drivers/r_riic/src/lld/r_rza2_riic_lld_int.c **** ******************************************************************************/
 250:../generate/sc_drivers/r_riic/src/lld/r_rza2_riic_lld_int.c **** void interrupt_uninit (const int_t channel)
 251:../generate/sc_drivers/r_riic/src/lld/r_rza2_riic_lld_int.c **** {
 252:../generate/sc_drivers/r_riic/src/lld/r_rza2_riic_lld_int.c ****     e_riic_int_type_t int_type;
 253:../generate/sc_drivers/r_riic/src/lld/r_rza2_riic_lld_int.c **** 
 254:../generate/sc_drivers/r_riic/src/lld/r_rza2_riic_lld_int.c ****     for (int_type = RIIC_INT_TEI; int_type < RIIC_INT_MAX; int_type++)
 255:../generate/sc_drivers/r_riic/src/lld/r_rza2_riic_lld_int.c ****     {
 256:../generate/sc_drivers/r_riic/src/lld/r_rza2_riic_lld_int.c ****         R_INTC_Disable(gs_riic_int_info[channel][int_type].int_num);
 257:../generate/sc_drivers/r_riic/src/lld/r_rza2_riic_lld_int.c ****         
 258:../generate/sc_drivers/r_riic/src/lld/r_rza2_riic_lld_int.c ****         /* Casting the pointer to NULL is valid because the interrupt handler
 259:../generate/sc_drivers/r_riic/src/lld/r_rza2_riic_lld_int.c ****            function is set to NULL on driver termination process */
 260:../generate/sc_drivers/r_riic/src/lld/r_rza2_riic_lld_int.c ****         R_INTC_RegistIntFunc(gs_riic_int_info[channel][int_type].int_num, NULL);
 261:../generate/sc_drivers/r_riic/src/lld/r_rza2_riic_lld_int.c ****     }
 262:../generate/sc_drivers/r_riic/src/lld/r_rza2_riic_lld_int.c **** }
 263:../generate/sc_drivers/r_riic/src/lld/r_rza2_riic_lld_int.c **** /******************************************************************************
 264:../generate/sc_drivers/r_riic/src/lld/r_rza2_riic_lld_int.c ****  * End of Function interrupt_uninit
 265:../generate/sc_drivers/r_riic/src/lld/r_rza2_riic_lld_int.c ****  *****************************************************************************/
 266:../generate/sc_drivers/r_riic/src/lld/r_rza2_riic_lld_int.c **** 
 267:../generate/sc_drivers/r_riic/src/lld/r_rza2_riic_lld_int.c **** /******************************************************************************
 268:../generate/sc_drivers/r_riic/src/lld/r_rza2_riic_lld_int.c **** * Function Name: intriictei_proc_handler
 269:../generate/sc_drivers/r_riic/src/lld/r_rza2_riic_lld_int.c **** * Description  : ISR process function of TEI interrupt.
 270:../generate/sc_drivers/r_riic/src/lld/r_rza2_riic_lld_int.c **** * Arguments    : channel - The channel number where interrupt occurred.
 271:../generate/sc_drivers/r_riic/src/lld/r_rza2_riic_lld_int.c **** * Return Value : None.
 272:../generate/sc_drivers/r_riic/src/lld/r_rza2_riic_lld_int.c **** ******************************************************************************/
 273:../generate/sc_drivers/r_riic/src/lld/r_rza2_riic_lld_int.c **** static void intriictei_proc_handler (int_t channel)
 274:../generate/sc_drivers/r_riic/src/lld/r_rza2_riic_lld_int.c **** {
 275:../generate/sc_drivers/r_riic/src/lld/r_rza2_riic_lld_int.c ****     uint32_t dummy;
 276:../generate/sc_drivers/r_riic/src/lld/r_rza2_riic_lld_int.c **** 
 277:../generate/sc_drivers/r_riic/src/lld/r_rza2_riic_lld_int.c ****     r_riic_hld_set_tx_end(channel);
 278:../generate/sc_drivers/r_riic/src/lld/r_rza2_riic_lld_int.c **** 
 279:../generate/sc_drivers/r_riic/src/lld/r_rza2_riic_lld_int.c ****     /* clear interrupt source */
 280:../generate/sc_drivers/r_riic/src/lld/r_rza2_riic_lld_int.c ****     dummy = RZA_IO_RegRead_32((volatile uint32_t *) &gsp_riic[channel]->ICSR2.LONG, RIIC_ICSR2_TEND
 281:../generate/sc_drivers/r_riic/src/lld/r_rza2_riic_lld_int.c ****             RIIC_ICSR2_TEND);
 282:../generate/sc_drivers/r_riic/src/lld/r_rza2_riic_lld_int.c **** 
 283:../generate/sc_drivers/r_riic/src/lld/r_rza2_riic_lld_int.c ****     /* cast to volatile uint32_t * */
 284:../generate/sc_drivers/r_riic/src/lld/r_rza2_riic_lld_int.c ****     RZA_IO_RegWrite_32((volatile uint32_t *) &gsp_riic[channel]->ICSR2.LONG, 
 285:../generate/sc_drivers/r_riic/src/lld/r_rza2_riic_lld_int.c ****                         0, RIIC_ICSR2_TEND_SHIFT, RIIC_ICSR2_TEND);
 286:../generate/sc_drivers/r_riic/src/lld/r_rza2_riic_lld_int.c **** 
 287:../generate/sc_drivers/r_riic/src/lld/r_rza2_riic_lld_int.c **** }
 288:../generate/sc_drivers/r_riic/src/lld/r_rza2_riic_lld_int.c **** /******************************************************************************
 289:../generate/sc_drivers/r_riic/src/lld/r_rza2_riic_lld_int.c ****  * End of Function intriictei_proc_handler
 290:../generate/sc_drivers/r_riic/src/lld/r_rza2_riic_lld_int.c ****  *****************************************************************************/
 291:../generate/sc_drivers/r_riic/src/lld/r_rza2_riic_lld_int.c **** 
 292:../generate/sc_drivers/r_riic/src/lld/r_rza2_riic_lld_int.c **** /******************************************************************************
 293:../generate/sc_drivers/r_riic/src/lld/r_rza2_riic_lld_int.c **** * Function Name: intriic0tei_handler
 294:../generate/sc_drivers/r_riic/src/lld/r_rza2_riic_lld_int.c **** * Description  : The function accepts INTRIIC0TEI interrupt.
 295:../generate/sc_drivers/r_riic/src/lld/r_rza2_riic_lld_int.c **** * Arguments    : None.
 296:../generate/sc_drivers/r_riic/src/lld/r_rza2_riic_lld_int.c **** * Return Value : None.
 297:../generate/sc_drivers/r_riic/src/lld/r_rza2_riic_lld_int.c **** ******************************************************************************/
 298:../generate/sc_drivers/r_riic/src/lld/r_rza2_riic_lld_int.c **** static void intriic0tei_handler (uint32_t int_sense)
 299:../generate/sc_drivers/r_riic/src/lld/r_rza2_riic_lld_int.c **** {
 300:../generate/sc_drivers/r_riic/src/lld/r_rza2_riic_lld_int.c **** 
 301:../generate/sc_drivers/r_riic/src/lld/r_rza2_riic_lld_int.c ****     intriictei_proc_handler(RIIC_CH0);
 302:../generate/sc_drivers/r_riic/src/lld/r_rza2_riic_lld_int.c **** 
 303:../generate/sc_drivers/r_riic/src/lld/r_rza2_riic_lld_int.c **** }
 304:../generate/sc_drivers/r_riic/src/lld/r_rza2_riic_lld_int.c **** /******************************************************************************
 305:../generate/sc_drivers/r_riic/src/lld/r_rza2_riic_lld_int.c ****  * End of Function intriic0tei_handler
 306:../generate/sc_drivers/r_riic/src/lld/r_rza2_riic_lld_int.c ****  *****************************************************************************/
 307:../generate/sc_drivers/r_riic/src/lld/r_rza2_riic_lld_int.c **** 
 308:../generate/sc_drivers/r_riic/src/lld/r_rza2_riic_lld_int.c **** /******************************************************************************
 309:../generate/sc_drivers/r_riic/src/lld/r_rza2_riic_lld_int.c **** * Function Name: intriic1tei_handler
 310:../generate/sc_drivers/r_riic/src/lld/r_rza2_riic_lld_int.c **** * Description  : The function accepts INTRIIC1TEI interrupt.
 311:../generate/sc_drivers/r_riic/src/lld/r_rza2_riic_lld_int.c **** * Arguments    : None.
 312:../generate/sc_drivers/r_riic/src/lld/r_rza2_riic_lld_int.c **** * Return Value : None.
 313:../generate/sc_drivers/r_riic/src/lld/r_rza2_riic_lld_int.c **** ******************************************************************************/
 314:../generate/sc_drivers/r_riic/src/lld/r_rza2_riic_lld_int.c **** static void intriic1tei_handler (uint32_t int_sense)
 315:../generate/sc_drivers/r_riic/src/lld/r_rza2_riic_lld_int.c **** {
 316:../generate/sc_drivers/r_riic/src/lld/r_rza2_riic_lld_int.c ****     intriictei_proc_handler(RIIC_CH1);
 317:../generate/sc_drivers/r_riic/src/lld/r_rza2_riic_lld_int.c **** 
 318:../generate/sc_drivers/r_riic/src/lld/r_rza2_riic_lld_int.c **** }
 319:../generate/sc_drivers/r_riic/src/lld/r_rza2_riic_lld_int.c **** /******************************************************************************
 320:../generate/sc_drivers/r_riic/src/lld/r_rza2_riic_lld_int.c ****  * End of Function intriic1tei_handler
 321:../generate/sc_drivers/r_riic/src/lld/r_rza2_riic_lld_int.c ****  *****************************************************************************/
 322:../generate/sc_drivers/r_riic/src/lld/r_rza2_riic_lld_int.c **** 
 323:../generate/sc_drivers/r_riic/src/lld/r_rza2_riic_lld_int.c **** /******************************************************************************
 324:../generate/sc_drivers/r_riic/src/lld/r_rza2_riic_lld_int.c **** * Function Name: intriic2tei_handler
 325:../generate/sc_drivers/r_riic/src/lld/r_rza2_riic_lld_int.c **** * Description  : The function accepts INTRIIC2TEI interrupt.
 326:../generate/sc_drivers/r_riic/src/lld/r_rza2_riic_lld_int.c **** * Arguments    : None.
 327:../generate/sc_drivers/r_riic/src/lld/r_rza2_riic_lld_int.c **** * Return Value : None.
 328:../generate/sc_drivers/r_riic/src/lld/r_rza2_riic_lld_int.c **** ******************************************************************************/
 329:../generate/sc_drivers/r_riic/src/lld/r_rza2_riic_lld_int.c **** static void intriic2tei_handler (uint32_t int_sense)
 330:../generate/sc_drivers/r_riic/src/lld/r_rza2_riic_lld_int.c **** {
 331:../generate/sc_drivers/r_riic/src/lld/r_rza2_riic_lld_int.c ****     intriictei_proc_handler(RIIC_CH2);
 332:../generate/sc_drivers/r_riic/src/lld/r_rza2_riic_lld_int.c **** 
 333:../generate/sc_drivers/r_riic/src/lld/r_rza2_riic_lld_int.c **** }
 334:../generate/sc_drivers/r_riic/src/lld/r_rza2_riic_lld_int.c **** /******************************************************************************
 335:../generate/sc_drivers/r_riic/src/lld/r_rza2_riic_lld_int.c ****  * End of Function intriic2tei_handler
 336:../generate/sc_drivers/r_riic/src/lld/r_rza2_riic_lld_int.c ****  *****************************************************************************/
 337:../generate/sc_drivers/r_riic/src/lld/r_rza2_riic_lld_int.c **** 
 338:../generate/sc_drivers/r_riic/src/lld/r_rza2_riic_lld_int.c **** /******************************************************************************
 339:../generate/sc_drivers/r_riic/src/lld/r_rza2_riic_lld_int.c **** * Function Name: intriic3tei_handler
 340:../generate/sc_drivers/r_riic/src/lld/r_rza2_riic_lld_int.c **** * Description  : The function accepts INTRIIC3TEI interrupt.
 341:../generate/sc_drivers/r_riic/src/lld/r_rza2_riic_lld_int.c **** * Arguments    : None.
 342:../generate/sc_drivers/r_riic/src/lld/r_rza2_riic_lld_int.c **** * Return Value : None.
 343:../generate/sc_drivers/r_riic/src/lld/r_rza2_riic_lld_int.c **** ******************************************************************************/
 344:../generate/sc_drivers/r_riic/src/lld/r_rza2_riic_lld_int.c **** static void intriic3tei_handler (uint32_t int_sense)
 345:../generate/sc_drivers/r_riic/src/lld/r_rza2_riic_lld_int.c **** {
 346:../generate/sc_drivers/r_riic/src/lld/r_rza2_riic_lld_int.c ****     intriictei_proc_handler(RIIC_CH3);
 347:../generate/sc_drivers/r_riic/src/lld/r_rza2_riic_lld_int.c **** 
 348:../generate/sc_drivers/r_riic/src/lld/r_rza2_riic_lld_int.c **** }
 349:../generate/sc_drivers/r_riic/src/lld/r_rza2_riic_lld_int.c **** /******************************************************************************
 350:../generate/sc_drivers/r_riic/src/lld/r_rza2_riic_lld_int.c ****  * End of Function intriic3tei_handler
 351:../generate/sc_drivers/r_riic/src/lld/r_rza2_riic_lld_int.c ****  *****************************************************************************/
 352:../generate/sc_drivers/r_riic/src/lld/r_rza2_riic_lld_int.c **** 
 353:../generate/sc_drivers/r_riic/src/lld/r_rza2_riic_lld_int.c **** /******************************************************************************
 354:../generate/sc_drivers/r_riic/src/lld/r_rza2_riic_lld_int.c **** * Function Name: intriicri_proc_handler
 355:../generate/sc_drivers/r_riic/src/lld/r_rza2_riic_lld_int.c **** * Description  : ISR process function of RI interrupt.
 356:../generate/sc_drivers/r_riic/src/lld/r_rza2_riic_lld_int.c **** * Arguments    : channel - The channel number where interrupt occurred.
 357:../generate/sc_drivers/r_riic/src/lld/r_rza2_riic_lld_int.c **** * Return Value : None.
 358:../generate/sc_drivers/r_riic/src/lld/r_rza2_riic_lld_int.c **** ******************************************************************************/
 359:../generate/sc_drivers/r_riic/src/lld/r_rza2_riic_lld_int.c **** static void intriicri_proc_handler (int_t channel)
 360:../generate/sc_drivers/r_riic/src/lld/r_rza2_riic_lld_int.c **** {
 361:../generate/sc_drivers/r_riic/src/lld/r_rza2_riic_lld_int.c ****     /* cast channel to int_t */
 362:../generate/sc_drivers/r_riic/src/lld/r_rza2_riic_lld_int.c ****     r_riic_hld_set_rx_full(channel);
 363:../generate/sc_drivers/r_riic/src/lld/r_rza2_riic_lld_int.c **** }
 364:../generate/sc_drivers/r_riic/src/lld/r_rza2_riic_lld_int.c **** /******************************************************************************
 365:../generate/sc_drivers/r_riic/src/lld/r_rza2_riic_lld_int.c ****  * End of Function intriicri_proc_handler
 366:../generate/sc_drivers/r_riic/src/lld/r_rza2_riic_lld_int.c ****  *****************************************************************************/
 367:../generate/sc_drivers/r_riic/src/lld/r_rza2_riic_lld_int.c **** 
 368:../generate/sc_drivers/r_riic/src/lld/r_rza2_riic_lld_int.c **** /******************************************************************************
 369:../generate/sc_drivers/r_riic/src/lld/r_rza2_riic_lld_int.c **** * Function Name: intriic0ri_handler
 370:../generate/sc_drivers/r_riic/src/lld/r_rza2_riic_lld_int.c **** * Description  : The function accepts INTRIIC0RI interrupt.
 371:../generate/sc_drivers/r_riic/src/lld/r_rza2_riic_lld_int.c **** * Arguments    : None.
 372:../generate/sc_drivers/r_riic/src/lld/r_rza2_riic_lld_int.c **** * Return Value : None.
 373:../generate/sc_drivers/r_riic/src/lld/r_rza2_riic_lld_int.c **** ******************************************************************************/
 374:../generate/sc_drivers/r_riic/src/lld/r_rza2_riic_lld_int.c **** static void intriic0ri_handler (uint32_t int_sense)
 375:../generate/sc_drivers/r_riic/src/lld/r_rza2_riic_lld_int.c **** {
 376:../generate/sc_drivers/r_riic/src/lld/r_rza2_riic_lld_int.c ****     intriicri_proc_handler(RIIC_CH0);
 377:../generate/sc_drivers/r_riic/src/lld/r_rza2_riic_lld_int.c **** 
 378:../generate/sc_drivers/r_riic/src/lld/r_rza2_riic_lld_int.c **** }
 379:../generate/sc_drivers/r_riic/src/lld/r_rza2_riic_lld_int.c **** /******************************************************************************
 380:../generate/sc_drivers/r_riic/src/lld/r_rza2_riic_lld_int.c ****  * End of Function intriic0ri_handler
 381:../generate/sc_drivers/r_riic/src/lld/r_rza2_riic_lld_int.c ****  *****************************************************************************/
 382:../generate/sc_drivers/r_riic/src/lld/r_rza2_riic_lld_int.c **** 
 383:../generate/sc_drivers/r_riic/src/lld/r_rza2_riic_lld_int.c **** /******************************************************************************
 384:../generate/sc_drivers/r_riic/src/lld/r_rza2_riic_lld_int.c **** * Function Name: intriic1ri_handler
 385:../generate/sc_drivers/r_riic/src/lld/r_rza2_riic_lld_int.c **** * Description  : The function accepts INTRIIC1RI interrupt.
 386:../generate/sc_drivers/r_riic/src/lld/r_rza2_riic_lld_int.c **** * Arguments    : None.
 387:../generate/sc_drivers/r_riic/src/lld/r_rza2_riic_lld_int.c **** * Return Value : None.
 388:../generate/sc_drivers/r_riic/src/lld/r_rza2_riic_lld_int.c **** ******************************************************************************/
 389:../generate/sc_drivers/r_riic/src/lld/r_rza2_riic_lld_int.c **** static void intriic1ri_handler (uint32_t int_sense)
 390:../generate/sc_drivers/r_riic/src/lld/r_rza2_riic_lld_int.c **** {
 391:../generate/sc_drivers/r_riic/src/lld/r_rza2_riic_lld_int.c ****     intriicri_proc_handler(RIIC_CH1);
 392:../generate/sc_drivers/r_riic/src/lld/r_rza2_riic_lld_int.c **** 
 393:../generate/sc_drivers/r_riic/src/lld/r_rza2_riic_lld_int.c **** }
 394:../generate/sc_drivers/r_riic/src/lld/r_rza2_riic_lld_int.c **** /******************************************************************************
 395:../generate/sc_drivers/r_riic/src/lld/r_rza2_riic_lld_int.c ****  * End of Function intriic1ri_handler
 396:../generate/sc_drivers/r_riic/src/lld/r_rza2_riic_lld_int.c ****  *****************************************************************************/
 397:../generate/sc_drivers/r_riic/src/lld/r_rza2_riic_lld_int.c **** 
 398:../generate/sc_drivers/r_riic/src/lld/r_rza2_riic_lld_int.c **** /******************************************************************************
 399:../generate/sc_drivers/r_riic/src/lld/r_rza2_riic_lld_int.c **** * Function Name: intriic2ri_handler
 400:../generate/sc_drivers/r_riic/src/lld/r_rza2_riic_lld_int.c **** * Description  : The function accepts INTRIIC2RI interrupt.
 401:../generate/sc_drivers/r_riic/src/lld/r_rza2_riic_lld_int.c **** * Arguments    : None.
 402:../generate/sc_drivers/r_riic/src/lld/r_rza2_riic_lld_int.c **** * Return Value : None.
 403:../generate/sc_drivers/r_riic/src/lld/r_rza2_riic_lld_int.c **** ******************************************************************************/
 404:../generate/sc_drivers/r_riic/src/lld/r_rza2_riic_lld_int.c **** static void intriic2ri_handler (uint32_t int_sense)
 405:../generate/sc_drivers/r_riic/src/lld/r_rza2_riic_lld_int.c **** {
 406:../generate/sc_drivers/r_riic/src/lld/r_rza2_riic_lld_int.c ****     intriicri_proc_handler(RIIC_CH2);
 407:../generate/sc_drivers/r_riic/src/lld/r_rza2_riic_lld_int.c **** 
 408:../generate/sc_drivers/r_riic/src/lld/r_rza2_riic_lld_int.c **** }
 409:../generate/sc_drivers/r_riic/src/lld/r_rza2_riic_lld_int.c **** /******************************************************************************
 410:../generate/sc_drivers/r_riic/src/lld/r_rza2_riic_lld_int.c ****  * End of Function intriic2ri_handler
 411:../generate/sc_drivers/r_riic/src/lld/r_rza2_riic_lld_int.c ****  *****************************************************************************/
 412:../generate/sc_drivers/r_riic/src/lld/r_rza2_riic_lld_int.c **** 
 413:../generate/sc_drivers/r_riic/src/lld/r_rza2_riic_lld_int.c **** /******************************************************************************
 414:../generate/sc_drivers/r_riic/src/lld/r_rza2_riic_lld_int.c **** * Function Name: intriic3ri_handler
 415:../generate/sc_drivers/r_riic/src/lld/r_rza2_riic_lld_int.c **** * Description  : The function accepts INTRIIC3RI interrupt.
 416:../generate/sc_drivers/r_riic/src/lld/r_rza2_riic_lld_int.c **** * Arguments    : None.
 417:../generate/sc_drivers/r_riic/src/lld/r_rza2_riic_lld_int.c **** * Return Value : None.
 418:../generate/sc_drivers/r_riic/src/lld/r_rza2_riic_lld_int.c **** ******************************************************************************/
 419:../generate/sc_drivers/r_riic/src/lld/r_rza2_riic_lld_int.c **** static void intriic3ri_handler (uint32_t int_sense)
 420:../generate/sc_drivers/r_riic/src/lld/r_rza2_riic_lld_int.c **** {
 421:../generate/sc_drivers/r_riic/src/lld/r_rza2_riic_lld_int.c ****     intriicri_proc_handler(RIIC_CH3);
 422:../generate/sc_drivers/r_riic/src/lld/r_rza2_riic_lld_int.c **** 
 423:../generate/sc_drivers/r_riic/src/lld/r_rza2_riic_lld_int.c **** }
 424:../generate/sc_drivers/r_riic/src/lld/r_rza2_riic_lld_int.c **** /******************************************************************************
 425:../generate/sc_drivers/r_riic/src/lld/r_rza2_riic_lld_int.c ****  * End of Function intriic3ri_handler
 426:../generate/sc_drivers/r_riic/src/lld/r_rza2_riic_lld_int.c ****  *****************************************************************************/
 427:../generate/sc_drivers/r_riic/src/lld/r_rza2_riic_lld_int.c **** 
 428:../generate/sc_drivers/r_riic/src/lld/r_rza2_riic_lld_int.c **** /******************************************************************************
 429:../generate/sc_drivers/r_riic/src/lld/r_rza2_riic_lld_int.c **** * Function Name: intriicti_proc_handler
 430:../generate/sc_drivers/r_riic/src/lld/r_rza2_riic_lld_int.c **** * Description  : ISR process function of TI interrupt.
 431:../generate/sc_drivers/r_riic/src/lld/r_rza2_riic_lld_int.c **** * Arguments    : channel - The channel number where interrupt occurred.
 432:../generate/sc_drivers/r_riic/src/lld/r_rza2_riic_lld_int.c **** * Return Value : None.
 433:../generate/sc_drivers/r_riic/src/lld/r_rza2_riic_lld_int.c **** ******************************************************************************/
 434:../generate/sc_drivers/r_riic/src/lld/r_rza2_riic_lld_int.c **** static void intriicti_proc_handler (int_t channel)
 435:../generate/sc_drivers/r_riic/src/lld/r_rza2_riic_lld_int.c **** {
 436:../generate/sc_drivers/r_riic/src/lld/r_rza2_riic_lld_int.c ****     /* cast to int_t */
 437:../generate/sc_drivers/r_riic/src/lld/r_rza2_riic_lld_int.c ****     r_riic_hld_set_tx_empty(channel);
 438:../generate/sc_drivers/r_riic/src/lld/r_rza2_riic_lld_int.c **** 
 439:../generate/sc_drivers/r_riic/src/lld/r_rza2_riic_lld_int.c **** }
 440:../generate/sc_drivers/r_riic/src/lld/r_rza2_riic_lld_int.c **** /******************************************************************************
 441:../generate/sc_drivers/r_riic/src/lld/r_rza2_riic_lld_int.c ****  * End of Function intriicti_proc_handler
 442:../generate/sc_drivers/r_riic/src/lld/r_rza2_riic_lld_int.c ****  *****************************************************************************/
 443:../generate/sc_drivers/r_riic/src/lld/r_rza2_riic_lld_int.c **** 
 444:../generate/sc_drivers/r_riic/src/lld/r_rza2_riic_lld_int.c **** /******************************************************************************
 445:../generate/sc_drivers/r_riic/src/lld/r_rza2_riic_lld_int.c **** * Function Name: intriic0ti_handler
 446:../generate/sc_drivers/r_riic/src/lld/r_rza2_riic_lld_int.c **** * Description  : The function accepts INTRIIC0TI interrupt.
 447:../generate/sc_drivers/r_riic/src/lld/r_rza2_riic_lld_int.c **** * Arguments    : None.
 448:../generate/sc_drivers/r_riic/src/lld/r_rza2_riic_lld_int.c **** * Return Value : None.
 449:../generate/sc_drivers/r_riic/src/lld/r_rza2_riic_lld_int.c **** ******************************************************************************/
 450:../generate/sc_drivers/r_riic/src/lld/r_rza2_riic_lld_int.c **** static void intriic0ti_handler (uint32_t int_sense)
 451:../generate/sc_drivers/r_riic/src/lld/r_rza2_riic_lld_int.c **** {
 452:../generate/sc_drivers/r_riic/src/lld/r_rza2_riic_lld_int.c ****     intriicti_proc_handler(RIIC_CH0);
 453:../generate/sc_drivers/r_riic/src/lld/r_rza2_riic_lld_int.c **** 
 454:../generate/sc_drivers/r_riic/src/lld/r_rza2_riic_lld_int.c **** }
 455:../generate/sc_drivers/r_riic/src/lld/r_rza2_riic_lld_int.c **** /******************************************************************************
 456:../generate/sc_drivers/r_riic/src/lld/r_rza2_riic_lld_int.c ****  * End of Function intriic0ti_handler
 457:../generate/sc_drivers/r_riic/src/lld/r_rza2_riic_lld_int.c ****  *****************************************************************************/
 458:../generate/sc_drivers/r_riic/src/lld/r_rza2_riic_lld_int.c **** 
 459:../generate/sc_drivers/r_riic/src/lld/r_rza2_riic_lld_int.c **** /******************************************************************************
 460:../generate/sc_drivers/r_riic/src/lld/r_rza2_riic_lld_int.c **** * Function Name: intriic1ti_handler
 461:../generate/sc_drivers/r_riic/src/lld/r_rza2_riic_lld_int.c **** * Description  : The function accepts INTRIIC1TI interrupt.
 462:../generate/sc_drivers/r_riic/src/lld/r_rza2_riic_lld_int.c **** * Arguments    : None.
 463:../generate/sc_drivers/r_riic/src/lld/r_rza2_riic_lld_int.c **** * Return Value : None.
 464:../generate/sc_drivers/r_riic/src/lld/r_rza2_riic_lld_int.c **** ******************************************************************************/
 465:../generate/sc_drivers/r_riic/src/lld/r_rza2_riic_lld_int.c **** static void intriic1ti_handler (uint32_t int_sense)
 466:../generate/sc_drivers/r_riic/src/lld/r_rza2_riic_lld_int.c **** {
 467:../generate/sc_drivers/r_riic/src/lld/r_rza2_riic_lld_int.c ****     intriicti_proc_handler(RIIC_CH1);
 468:../generate/sc_drivers/r_riic/src/lld/r_rza2_riic_lld_int.c **** 
 469:../generate/sc_drivers/r_riic/src/lld/r_rza2_riic_lld_int.c **** }
 470:../generate/sc_drivers/r_riic/src/lld/r_rza2_riic_lld_int.c **** /******************************************************************************
 471:../generate/sc_drivers/r_riic/src/lld/r_rza2_riic_lld_int.c ****  * End of Function intriic1ti_handler
 472:../generate/sc_drivers/r_riic/src/lld/r_rza2_riic_lld_int.c ****  *****************************************************************************/
 473:../generate/sc_drivers/r_riic/src/lld/r_rza2_riic_lld_int.c **** 
 474:../generate/sc_drivers/r_riic/src/lld/r_rza2_riic_lld_int.c **** /******************************************************************************
 475:../generate/sc_drivers/r_riic/src/lld/r_rza2_riic_lld_int.c **** * Function Name: intriic2ti_handler
 476:../generate/sc_drivers/r_riic/src/lld/r_rza2_riic_lld_int.c **** * Description  : The function accepts INTRIIC2TI interrupt.
 477:../generate/sc_drivers/r_riic/src/lld/r_rza2_riic_lld_int.c **** * Arguments    : None.
 478:../generate/sc_drivers/r_riic/src/lld/r_rza2_riic_lld_int.c **** * Return Value : None.
 479:../generate/sc_drivers/r_riic/src/lld/r_rza2_riic_lld_int.c **** ******************************************************************************/
 480:../generate/sc_drivers/r_riic/src/lld/r_rza2_riic_lld_int.c **** static void intriic2ti_handler (uint32_t int_sense)
 481:../generate/sc_drivers/r_riic/src/lld/r_rza2_riic_lld_int.c **** {
 482:../generate/sc_drivers/r_riic/src/lld/r_rza2_riic_lld_int.c ****     intriicti_proc_handler(RIIC_CH2);
 483:../generate/sc_drivers/r_riic/src/lld/r_rza2_riic_lld_int.c **** 
 484:../generate/sc_drivers/r_riic/src/lld/r_rza2_riic_lld_int.c **** }
 485:../generate/sc_drivers/r_riic/src/lld/r_rza2_riic_lld_int.c **** /******************************************************************************
 486:../generate/sc_drivers/r_riic/src/lld/r_rza2_riic_lld_int.c ****  * End of Function intriic2ti_handler
 487:../generate/sc_drivers/r_riic/src/lld/r_rza2_riic_lld_int.c ****  *****************************************************************************/
 488:../generate/sc_drivers/r_riic/src/lld/r_rza2_riic_lld_int.c **** 
 489:../generate/sc_drivers/r_riic/src/lld/r_rza2_riic_lld_int.c **** /******************************************************************************
 490:../generate/sc_drivers/r_riic/src/lld/r_rza2_riic_lld_int.c **** * Function Name: intriic3ti_handler
 491:../generate/sc_drivers/r_riic/src/lld/r_rza2_riic_lld_int.c **** * Description  : The function accepts INTRIIC3TI interrupt.
 492:../generate/sc_drivers/r_riic/src/lld/r_rza2_riic_lld_int.c **** * Arguments    : None.
 493:../generate/sc_drivers/r_riic/src/lld/r_rza2_riic_lld_int.c **** * Return Value : None.
 494:../generate/sc_drivers/r_riic/src/lld/r_rza2_riic_lld_int.c **** ******************************************************************************/
 495:../generate/sc_drivers/r_riic/src/lld/r_rza2_riic_lld_int.c **** static void intriic3ti_handler (uint32_t int_sense)
 496:../generate/sc_drivers/r_riic/src/lld/r_rza2_riic_lld_int.c **** {
 497:../generate/sc_drivers/r_riic/src/lld/r_rza2_riic_lld_int.c ****     intriicti_proc_handler(RIIC_CH3);
 498:../generate/sc_drivers/r_riic/src/lld/r_rza2_riic_lld_int.c **** 
 499:../generate/sc_drivers/r_riic/src/lld/r_rza2_riic_lld_int.c **** }
 500:../generate/sc_drivers/r_riic/src/lld/r_rza2_riic_lld_int.c **** /******************************************************************************
 501:../generate/sc_drivers/r_riic/src/lld/r_rza2_riic_lld_int.c ****  * End of Function intriic3ti_handler
 502:../generate/sc_drivers/r_riic/src/lld/r_rza2_riic_lld_int.c ****  *****************************************************************************/
 503:../generate/sc_drivers/r_riic/src/lld/r_rza2_riic_lld_int.c **** 
 504:../generate/sc_drivers/r_riic/src/lld/r_rza2_riic_lld_int.c **** /******************************************************************************
 505:../generate/sc_drivers/r_riic/src/lld/r_rza2_riic_lld_int.c **** * Function Name: intriicsti_proc_handler
 506:../generate/sc_drivers/r_riic/src/lld/r_rza2_riic_lld_int.c **** * Description  : ISR process function of STI interrupt.
 507:../generate/sc_drivers/r_riic/src/lld/r_rza2_riic_lld_int.c **** * Arguments    : channel - The channel number where interrupt occurred.
 508:../generate/sc_drivers/r_riic/src/lld/r_rza2_riic_lld_int.c **** * Return Value : None.
 509:../generate/sc_drivers/r_riic/src/lld/r_rza2_riic_lld_int.c **** ******************************************************************************/
 510:../generate/sc_drivers/r_riic/src/lld/r_rza2_riic_lld_int.c **** static void intriicsti_proc_handler (int_t channel)
 511:../generate/sc_drivers/r_riic/src/lld/r_rza2_riic_lld_int.c **** {
 512:../generate/sc_drivers/r_riic/src/lld/r_rza2_riic_lld_int.c ****     uint32_t dummy;
 513:../generate/sc_drivers/r_riic/src/lld/r_rza2_riic_lld_int.c **** 
 514:../generate/sc_drivers/r_riic/src/lld/r_rza2_riic_lld_int.c ****     /* cast to int_t */
 515:../generate/sc_drivers/r_riic/src/lld/r_rza2_riic_lld_int.c ****     r_riic_hld_set_start_asserted(channel);
 516:../generate/sc_drivers/r_riic/src/lld/r_rza2_riic_lld_int.c **** 
 517:../generate/sc_drivers/r_riic/src/lld/r_rza2_riic_lld_int.c ****     /* clear interrupt source */
 518:../generate/sc_drivers/r_riic/src/lld/r_rza2_riic_lld_int.c ****     dummy = RZA_IO_RegRead_32((volatile uint32_t *) &gsp_riic[channel]->ICSR2.LONG, RIIC_ICSR2_STAR
 519:../generate/sc_drivers/r_riic/src/lld/r_rza2_riic_lld_int.c ****             RIIC_ICSR2_START);
 520:../generate/sc_drivers/r_riic/src/lld/r_rza2_riic_lld_int.c **** 
 521:../generate/sc_drivers/r_riic/src/lld/r_rza2_riic_lld_int.c ****     /* cast to volatile uint32_t * */
 522:../generate/sc_drivers/r_riic/src/lld/r_rza2_riic_lld_int.c ****     RZA_IO_RegWrite_32((volatile uint32_t *) &gsp_riic[channel]->ICSR2.LONG, 0, RIIC_ICSR2_START_SH
 523:../generate/sc_drivers/r_riic/src/lld/r_rza2_riic_lld_int.c ****             RIIC_ICSR2_START);
 524:../generate/sc_drivers/r_riic/src/lld/r_rza2_riic_lld_int.c **** 
 525:../generate/sc_drivers/r_riic/src/lld/r_rza2_riic_lld_int.c **** }
 526:../generate/sc_drivers/r_riic/src/lld/r_rza2_riic_lld_int.c **** /******************************************************************************
 527:../generate/sc_drivers/r_riic/src/lld/r_rza2_riic_lld_int.c ****  * End of Function intriicsti_proc_handler
 528:../generate/sc_drivers/r_riic/src/lld/r_rza2_riic_lld_int.c ****  *****************************************************************************/
 529:../generate/sc_drivers/r_riic/src/lld/r_rza2_riic_lld_int.c **** 
 530:../generate/sc_drivers/r_riic/src/lld/r_rza2_riic_lld_int.c **** /******************************************************************************
 531:../generate/sc_drivers/r_riic/src/lld/r_rza2_riic_lld_int.c **** * Function Name: intriic0sti_handler
 532:../generate/sc_drivers/r_riic/src/lld/r_rza2_riic_lld_int.c **** * Description  : The function accepts INTRIIC0STI interrupt.
 533:../generate/sc_drivers/r_riic/src/lld/r_rza2_riic_lld_int.c **** * Arguments    : None.
 534:../generate/sc_drivers/r_riic/src/lld/r_rza2_riic_lld_int.c **** * Return Value : None.
 535:../generate/sc_drivers/r_riic/src/lld/r_rza2_riic_lld_int.c **** ******************************************************************************/
 536:../generate/sc_drivers/r_riic/src/lld/r_rza2_riic_lld_int.c **** static void intriic0sti_handler (uint32_t int_sense)
 537:../generate/sc_drivers/r_riic/src/lld/r_rza2_riic_lld_int.c **** {
 538:../generate/sc_drivers/r_riic/src/lld/r_rza2_riic_lld_int.c ****     intriicsti_proc_handler(RIIC_CH0);
 539:../generate/sc_drivers/r_riic/src/lld/r_rza2_riic_lld_int.c **** 
 540:../generate/sc_drivers/r_riic/src/lld/r_rza2_riic_lld_int.c **** }
 541:../generate/sc_drivers/r_riic/src/lld/r_rza2_riic_lld_int.c **** /*****************************************************************************
 542:../generate/sc_drivers/r_riic/src/lld/r_rza2_riic_lld_int.c ****  * End of Function intriic0sti_handler
 543:../generate/sc_drivers/r_riic/src/lld/r_rza2_riic_lld_int.c ****  *****************************************************************************/
 544:../generate/sc_drivers/r_riic/src/lld/r_rza2_riic_lld_int.c **** 
 545:../generate/sc_drivers/r_riic/src/lld/r_rza2_riic_lld_int.c **** /******************************************************************************
 546:../generate/sc_drivers/r_riic/src/lld/r_rza2_riic_lld_int.c **** * Function Name: intriic1sti_handler
 547:../generate/sc_drivers/r_riic/src/lld/r_rza2_riic_lld_int.c **** * Description  : The function accepts INTRIIC1STI interrupt.
 548:../generate/sc_drivers/r_riic/src/lld/r_rza2_riic_lld_int.c **** * Arguments    : None.
 549:../generate/sc_drivers/r_riic/src/lld/r_rza2_riic_lld_int.c **** * Return Value : None.
 550:../generate/sc_drivers/r_riic/src/lld/r_rza2_riic_lld_int.c **** ******************************************************************************/
 551:../generate/sc_drivers/r_riic/src/lld/r_rza2_riic_lld_int.c **** static void intriic1sti_handler (uint32_t int_sense)
 552:../generate/sc_drivers/r_riic/src/lld/r_rza2_riic_lld_int.c **** {
 553:../generate/sc_drivers/r_riic/src/lld/r_rza2_riic_lld_int.c ****     intriicsti_proc_handler(RIIC_CH1);
 554:../generate/sc_drivers/r_riic/src/lld/r_rza2_riic_lld_int.c **** 
 555:../generate/sc_drivers/r_riic/src/lld/r_rza2_riic_lld_int.c **** }
 556:../generate/sc_drivers/r_riic/src/lld/r_rza2_riic_lld_int.c **** /******************************************************************************
 557:../generate/sc_drivers/r_riic/src/lld/r_rza2_riic_lld_int.c ****  * End of Function intriic1sti_handler
 558:../generate/sc_drivers/r_riic/src/lld/r_rza2_riic_lld_int.c ****  *****************************************************************************/
 559:../generate/sc_drivers/r_riic/src/lld/r_rza2_riic_lld_int.c **** 
 560:../generate/sc_drivers/r_riic/src/lld/r_rza2_riic_lld_int.c **** /******************************************************************************
 561:../generate/sc_drivers/r_riic/src/lld/r_rza2_riic_lld_int.c **** * Function Name: intriic2sti_handler
 562:../generate/sc_drivers/r_riic/src/lld/r_rza2_riic_lld_int.c **** * Description  : The function accepts INTRIIC2STI interrupt.
 563:../generate/sc_drivers/r_riic/src/lld/r_rza2_riic_lld_int.c **** * Arguments    : None.
 564:../generate/sc_drivers/r_riic/src/lld/r_rza2_riic_lld_int.c **** * Return Value : None.
 565:../generate/sc_drivers/r_riic/src/lld/r_rza2_riic_lld_int.c **** ******************************************************************************/
 566:../generate/sc_drivers/r_riic/src/lld/r_rza2_riic_lld_int.c **** static void intriic2sti_handler (uint32_t int_sense)
 567:../generate/sc_drivers/r_riic/src/lld/r_rza2_riic_lld_int.c **** {
 568:../generate/sc_drivers/r_riic/src/lld/r_rza2_riic_lld_int.c ****     intriicsti_proc_handler(RIIC_CH2);
 569:../generate/sc_drivers/r_riic/src/lld/r_rza2_riic_lld_int.c **** 
 570:../generate/sc_drivers/r_riic/src/lld/r_rza2_riic_lld_int.c **** }
 571:../generate/sc_drivers/r_riic/src/lld/r_rza2_riic_lld_int.c **** /******************************************************************************
 572:../generate/sc_drivers/r_riic/src/lld/r_rza2_riic_lld_int.c ****  * End of Function intriic2sti_handler
 573:../generate/sc_drivers/r_riic/src/lld/r_rza2_riic_lld_int.c ****  *****************************************************************************/
 574:../generate/sc_drivers/r_riic/src/lld/r_rza2_riic_lld_int.c **** 
 575:../generate/sc_drivers/r_riic/src/lld/r_rza2_riic_lld_int.c **** /******************************************************************************
 576:../generate/sc_drivers/r_riic/src/lld/r_rza2_riic_lld_int.c **** * Function Name: intriic3sti_handler
 577:../generate/sc_drivers/r_riic/src/lld/r_rza2_riic_lld_int.c **** * Description  : The function accepts INTRIIC3STI interrupt.
 578:../generate/sc_drivers/r_riic/src/lld/r_rza2_riic_lld_int.c **** * Arguments    : None.
 579:../generate/sc_drivers/r_riic/src/lld/r_rza2_riic_lld_int.c **** * Return Value : None.
 580:../generate/sc_drivers/r_riic/src/lld/r_rza2_riic_lld_int.c **** ******************************************************************************/
 581:../generate/sc_drivers/r_riic/src/lld/r_rza2_riic_lld_int.c **** static void intriic3sti_handler (uint32_t int_sense)
 582:../generate/sc_drivers/r_riic/src/lld/r_rza2_riic_lld_int.c **** {
 583:../generate/sc_drivers/r_riic/src/lld/r_rza2_riic_lld_int.c ****     intriicsti_proc_handler(RIIC_CH3);
 584:../generate/sc_drivers/r_riic/src/lld/r_rza2_riic_lld_int.c **** 
 585:../generate/sc_drivers/r_riic/src/lld/r_rza2_riic_lld_int.c **** }
 586:../generate/sc_drivers/r_riic/src/lld/r_rza2_riic_lld_int.c **** /******************************************************************************
 587:../generate/sc_drivers/r_riic/src/lld/r_rza2_riic_lld_int.c ****  * End of Function intriic3sti_handler
 588:../generate/sc_drivers/r_riic/src/lld/r_rza2_riic_lld_int.c ****  *****************************************************************************/
 589:../generate/sc_drivers/r_riic/src/lld/r_rza2_riic_lld_int.c **** 
 590:../generate/sc_drivers/r_riic/src/lld/r_rza2_riic_lld_int.c **** /******************************************************************************
 591:../generate/sc_drivers/r_riic/src/lld/r_rza2_riic_lld_int.c **** * Function Name: intriicspi_proc_handler
 592:../generate/sc_drivers/r_riic/src/lld/r_rza2_riic_lld_int.c **** * Description  : ISR process function of SPI interrupt.
 593:../generate/sc_drivers/r_riic/src/lld/r_rza2_riic_lld_int.c **** * Arguments    : channel - The channel number where interrupt occurred.
 594:../generate/sc_drivers/r_riic/src/lld/r_rza2_riic_lld_int.c **** * Return Value : None.
 595:../generate/sc_drivers/r_riic/src/lld/r_rza2_riic_lld_int.c **** ******************************************************************************/
 596:../generate/sc_drivers/r_riic/src/lld/r_rza2_riic_lld_int.c **** static void intriicspi_proc_handler (int_t channel)
 597:../generate/sc_drivers/r_riic/src/lld/r_rza2_riic_lld_int.c **** {
 598:../generate/sc_drivers/r_riic/src/lld/r_rza2_riic_lld_int.c ****     uint32_t dummy;
 599:../generate/sc_drivers/r_riic/src/lld/r_rza2_riic_lld_int.c **** 
 600:../generate/sc_drivers/r_riic/src/lld/r_rza2_riic_lld_int.c ****     /* cast to int_t */
 601:../generate/sc_drivers/r_riic/src/lld/r_rza2_riic_lld_int.c ****     r_riic_hld_set_stop_asserted(channel);
 602:../generate/sc_drivers/r_riic/src/lld/r_rza2_riic_lld_int.c **** 
 603:../generate/sc_drivers/r_riic/src/lld/r_rza2_riic_lld_int.c ****     /* clear interrupt source */
 604:../generate/sc_drivers/r_riic/src/lld/r_rza2_riic_lld_int.c ****     dummy = RZA_IO_RegRead_32((volatile uint32_t *) &gsp_riic[channel]->ICSR2.LONG, RIIC_ICSR2_STOP
 605:../generate/sc_drivers/r_riic/src/lld/r_rza2_riic_lld_int.c ****             RIIC_ICSR2_STOP);
 606:../generate/sc_drivers/r_riic/src/lld/r_rza2_riic_lld_int.c **** 
 607:../generate/sc_drivers/r_riic/src/lld/r_rza2_riic_lld_int.c ****     /* cast to volatile uint32_t * */
 608:../generate/sc_drivers/r_riic/src/lld/r_rza2_riic_lld_int.c ****     RZA_IO_RegWrite_32((volatile uint32_t *) &gsp_riic[channel]->ICSR2.LONG, 
 609:../generate/sc_drivers/r_riic/src/lld/r_rza2_riic_lld_int.c ****                         0, RIIC_ICSR2_STOP_SHIFT, RIIC_ICSR2_STOP);
 610:../generate/sc_drivers/r_riic/src/lld/r_rza2_riic_lld_int.c **** 
 611:../generate/sc_drivers/r_riic/src/lld/r_rza2_riic_lld_int.c **** }
 612:../generate/sc_drivers/r_riic/src/lld/r_rza2_riic_lld_int.c **** /******************************************************************************
 613:../generate/sc_drivers/r_riic/src/lld/r_rza2_riic_lld_int.c ****  * End of Function intriicspi_proc_handler
 614:../generate/sc_drivers/r_riic/src/lld/r_rza2_riic_lld_int.c ****  *****************************************************************************/
 615:../generate/sc_drivers/r_riic/src/lld/r_rza2_riic_lld_int.c **** 
 616:../generate/sc_drivers/r_riic/src/lld/r_rza2_riic_lld_int.c **** /******************************************************************************
 617:../generate/sc_drivers/r_riic/src/lld/r_rza2_riic_lld_int.c **** * Function Name: intriic0spi_handler
 618:../generate/sc_drivers/r_riic/src/lld/r_rza2_riic_lld_int.c **** * Description  : The function accepts INTRIIC0SPI interrupt.
 619:../generate/sc_drivers/r_riic/src/lld/r_rza2_riic_lld_int.c **** * Arguments    : None.
 620:../generate/sc_drivers/r_riic/src/lld/r_rza2_riic_lld_int.c **** * Return Value : None.
 621:../generate/sc_drivers/r_riic/src/lld/r_rza2_riic_lld_int.c **** ******************************************************************************/
 622:../generate/sc_drivers/r_riic/src/lld/r_rza2_riic_lld_int.c **** static void intriic0spi_handler (uint32_t int_sense)
 623:../generate/sc_drivers/r_riic/src/lld/r_rza2_riic_lld_int.c **** {
 624:../generate/sc_drivers/r_riic/src/lld/r_rza2_riic_lld_int.c ****     intriicspi_proc_handler(RIIC_CH0);
 625:../generate/sc_drivers/r_riic/src/lld/r_rza2_riic_lld_int.c **** }
 626:../generate/sc_drivers/r_riic/src/lld/r_rza2_riic_lld_int.c **** /******************************************************************************
 627:../generate/sc_drivers/r_riic/src/lld/r_rza2_riic_lld_int.c ****  * End of Function intriic0spi_handler
 628:../generate/sc_drivers/r_riic/src/lld/r_rza2_riic_lld_int.c ****  *****************************************************************************/
 629:../generate/sc_drivers/r_riic/src/lld/r_rza2_riic_lld_int.c **** 
 630:../generate/sc_drivers/r_riic/src/lld/r_rza2_riic_lld_int.c **** /******************************************************************************
 631:../generate/sc_drivers/r_riic/src/lld/r_rza2_riic_lld_int.c **** * Function Name: intriic1spi_handler
 632:../generate/sc_drivers/r_riic/src/lld/r_rza2_riic_lld_int.c **** * Description  : The function accepts INTRIIC1SPI interrupt.
 633:../generate/sc_drivers/r_riic/src/lld/r_rza2_riic_lld_int.c **** * Arguments    : None.
 634:../generate/sc_drivers/r_riic/src/lld/r_rza2_riic_lld_int.c **** * Return Value : None.
 635:../generate/sc_drivers/r_riic/src/lld/r_rza2_riic_lld_int.c **** ******************************************************************************/
 636:../generate/sc_drivers/r_riic/src/lld/r_rza2_riic_lld_int.c **** static void intriic1spi_handler (uint32_t int_sense)
 637:../generate/sc_drivers/r_riic/src/lld/r_rza2_riic_lld_int.c **** {
 638:../generate/sc_drivers/r_riic/src/lld/r_rza2_riic_lld_int.c ****     intriicspi_proc_handler(RIIC_CH1);
 639:../generate/sc_drivers/r_riic/src/lld/r_rza2_riic_lld_int.c **** 
 640:../generate/sc_drivers/r_riic/src/lld/r_rza2_riic_lld_int.c **** }
 641:../generate/sc_drivers/r_riic/src/lld/r_rza2_riic_lld_int.c **** /******************************************************************************
 642:../generate/sc_drivers/r_riic/src/lld/r_rza2_riic_lld_int.c ****  * End of Function intriic1spi_handler
 643:../generate/sc_drivers/r_riic/src/lld/r_rza2_riic_lld_int.c ****  *****************************************************************************/
 644:../generate/sc_drivers/r_riic/src/lld/r_rza2_riic_lld_int.c **** 
 645:../generate/sc_drivers/r_riic/src/lld/r_rza2_riic_lld_int.c **** /******************************************************************************
 646:../generate/sc_drivers/r_riic/src/lld/r_rza2_riic_lld_int.c **** * Function Name: intriic2spi_handler
 647:../generate/sc_drivers/r_riic/src/lld/r_rza2_riic_lld_int.c **** * Description  : The function accepts INTRIIC2SPI interrupt.
 648:../generate/sc_drivers/r_riic/src/lld/r_rza2_riic_lld_int.c **** * Arguments    : None.
 649:../generate/sc_drivers/r_riic/src/lld/r_rza2_riic_lld_int.c **** * Return Value : None.
 650:../generate/sc_drivers/r_riic/src/lld/r_rza2_riic_lld_int.c **** ******************************************************************************/
 651:../generate/sc_drivers/r_riic/src/lld/r_rza2_riic_lld_int.c **** static void intriic2spi_handler (uint32_t int_sense)
 652:../generate/sc_drivers/r_riic/src/lld/r_rza2_riic_lld_int.c **** {
 653:../generate/sc_drivers/r_riic/src/lld/r_rza2_riic_lld_int.c ****     intriicspi_proc_handler(RIIC_CH2);
 654:../generate/sc_drivers/r_riic/src/lld/r_rza2_riic_lld_int.c **** 
 655:../generate/sc_drivers/r_riic/src/lld/r_rza2_riic_lld_int.c **** }
 656:../generate/sc_drivers/r_riic/src/lld/r_rza2_riic_lld_int.c **** /******************************************************************************
 657:../generate/sc_drivers/r_riic/src/lld/r_rza2_riic_lld_int.c ****  * End of Function intriic2spi_handler
 658:../generate/sc_drivers/r_riic/src/lld/r_rza2_riic_lld_int.c ****  *****************************************************************************/
 659:../generate/sc_drivers/r_riic/src/lld/r_rza2_riic_lld_int.c **** 
 660:../generate/sc_drivers/r_riic/src/lld/r_rza2_riic_lld_int.c **** /******************************************************************************
 661:../generate/sc_drivers/r_riic/src/lld/r_rza2_riic_lld_int.c **** * Function Name: intriic3spi_handler
 662:../generate/sc_drivers/r_riic/src/lld/r_rza2_riic_lld_int.c **** * Description  : The function accepts INTRIIC3SPI interrupt.
 663:../generate/sc_drivers/r_riic/src/lld/r_rza2_riic_lld_int.c **** * Arguments    : None.
 664:../generate/sc_drivers/r_riic/src/lld/r_rza2_riic_lld_int.c **** * Return Value : None.
 665:../generate/sc_drivers/r_riic/src/lld/r_rza2_riic_lld_int.c **** ******************************************************************************/
 666:../generate/sc_drivers/r_riic/src/lld/r_rza2_riic_lld_int.c **** static void intriic3spi_handler (uint32_t int_sense)
 667:../generate/sc_drivers/r_riic/src/lld/r_rza2_riic_lld_int.c **** {
 668:../generate/sc_drivers/r_riic/src/lld/r_rza2_riic_lld_int.c ****     intriicspi_proc_handler(RIIC_CH3);
 669:../generate/sc_drivers/r_riic/src/lld/r_rza2_riic_lld_int.c **** 
 670:../generate/sc_drivers/r_riic/src/lld/r_rza2_riic_lld_int.c **** }
 671:../generate/sc_drivers/r_riic/src/lld/r_rza2_riic_lld_int.c **** /******************************************************************************
 672:../generate/sc_drivers/r_riic/src/lld/r_rza2_riic_lld_int.c ****  * End of Function intriic3spi_handler
 673:../generate/sc_drivers/r_riic/src/lld/r_rza2_riic_lld_int.c ****  *****************************************************************************/
 674:../generate/sc_drivers/r_riic/src/lld/r_rza2_riic_lld_int.c **** 
 675:../generate/sc_drivers/r_riic/src/lld/r_rza2_riic_lld_int.c **** /******************************************************************************
 676:../generate/sc_drivers/r_riic/src/lld/r_rza2_riic_lld_int.c **** * Function Name: intriicali_proc_handler
 677:../generate/sc_drivers/r_riic/src/lld/r_rza2_riic_lld_int.c **** * Description  : ISR process function of ALI interrupt.
 678:../generate/sc_drivers/r_riic/src/lld/r_rza2_riic_lld_int.c **** * Arguments    : channel - The channel number where interrupt occurred.
 679:../generate/sc_drivers/r_riic/src/lld/r_rza2_riic_lld_int.c **** * Return Value : None.
 680:../generate/sc_drivers/r_riic/src/lld/r_rza2_riic_lld_int.c **** *******************************************************************************/
 681:../generate/sc_drivers/r_riic/src/lld/r_rza2_riic_lld_int.c **** static void intriicali_proc_handler (int_t channel)
 682:../generate/sc_drivers/r_riic/src/lld/r_rza2_riic_lld_int.c **** {
 683:../generate/sc_drivers/r_riic/src/lld/r_rza2_riic_lld_int.c ****     uint32_t dummy;
 684:../generate/sc_drivers/r_riic/src/lld/r_rza2_riic_lld_int.c **** 
 685:../generate/sc_drivers/r_riic/src/lld/r_rza2_riic_lld_int.c ****     /* cast to int_t */
 686:../generate/sc_drivers/r_riic/src/lld/r_rza2_riic_lld_int.c ****     r_riic_hld_set_arbitrate_assert(channel);
 687:../generate/sc_drivers/r_riic/src/lld/r_rza2_riic_lld_int.c **** 
 688:../generate/sc_drivers/r_riic/src/lld/r_rza2_riic_lld_int.c ****     /* clear interrupt source */
 689:../generate/sc_drivers/r_riic/src/lld/r_rza2_riic_lld_int.c ****     dummy = RZA_IO_RegRead_32((volatile uint32_t *) &gsp_riic[channel]->ICSR2.LONG, 
 690:../generate/sc_drivers/r_riic/src/lld/r_rza2_riic_lld_int.c ****                                 RIIC_ICSR2_AL_SHIFT, RIIC_ICSR2_AL);
 691:../generate/sc_drivers/r_riic/src/lld/r_rza2_riic_lld_int.c **** 
 692:../generate/sc_drivers/r_riic/src/lld/r_rza2_riic_lld_int.c ****     /* cast to volatile uint32_t * */
 693:../generate/sc_drivers/r_riic/src/lld/r_rza2_riic_lld_int.c ****     RZA_IO_RegWrite_32((volatile uint32_t *) &gsp_riic[channel]->ICSR2.LONG, 0, RIIC_ICSR2_AL_SHIFT
 694:../generate/sc_drivers/r_riic/src/lld/r_rza2_riic_lld_int.c **** 
 695:../generate/sc_drivers/r_riic/src/lld/r_rza2_riic_lld_int.c **** }
 696:../generate/sc_drivers/r_riic/src/lld/r_rza2_riic_lld_int.c **** /******************************************************************************
 697:../generate/sc_drivers/r_riic/src/lld/r_rza2_riic_lld_int.c ****  * End of Function intriicali_proc_handler
 698:../generate/sc_drivers/r_riic/src/lld/r_rza2_riic_lld_int.c ****  *****************************************************************************/
 699:../generate/sc_drivers/r_riic/src/lld/r_rza2_riic_lld_int.c **** 
 700:../generate/sc_drivers/r_riic/src/lld/r_rza2_riic_lld_int.c **** /******************************************************************************
 701:../generate/sc_drivers/r_riic/src/lld/r_rza2_riic_lld_int.c **** * Function Name: intriic0ali_handler
 702:../generate/sc_drivers/r_riic/src/lld/r_rza2_riic_lld_int.c **** * Description  : The function accepts INTRIIC0ALI interrupt.
 703:../generate/sc_drivers/r_riic/src/lld/r_rza2_riic_lld_int.c **** * Arguments    : None.
 704:../generate/sc_drivers/r_riic/src/lld/r_rza2_riic_lld_int.c **** * Return Value : None.
 705:../generate/sc_drivers/r_riic/src/lld/r_rza2_riic_lld_int.c **** ******************************************************************************/
 706:../generate/sc_drivers/r_riic/src/lld/r_rza2_riic_lld_int.c **** static void intriic0ali_handler (uint32_t int_sense)
 707:../generate/sc_drivers/r_riic/src/lld/r_rza2_riic_lld_int.c **** {
 708:../generate/sc_drivers/r_riic/src/lld/r_rza2_riic_lld_int.c ****     intriicali_proc_handler(RIIC_CH0);
 709:../generate/sc_drivers/r_riic/src/lld/r_rza2_riic_lld_int.c **** }
 710:../generate/sc_drivers/r_riic/src/lld/r_rza2_riic_lld_int.c **** /******************************************************************************
 711:../generate/sc_drivers/r_riic/src/lld/r_rza2_riic_lld_int.c ****  * End of Function intriic0ali_handler
 712:../generate/sc_drivers/r_riic/src/lld/r_rza2_riic_lld_int.c ****  *****************************************************************************/
 713:../generate/sc_drivers/r_riic/src/lld/r_rza2_riic_lld_int.c **** 
 714:../generate/sc_drivers/r_riic/src/lld/r_rza2_riic_lld_int.c **** /******************************************************************************
 715:../generate/sc_drivers/r_riic/src/lld/r_rza2_riic_lld_int.c **** * Function Name: intriic1ali_handler
 716:../generate/sc_drivers/r_riic/src/lld/r_rza2_riic_lld_int.c **** * Description  : The function accepts INTRIIC1ALI interrupt.
 717:../generate/sc_drivers/r_riic/src/lld/r_rza2_riic_lld_int.c **** * Arguments    : None.
 718:../generate/sc_drivers/r_riic/src/lld/r_rza2_riic_lld_int.c **** * Return Value : None.
 719:../generate/sc_drivers/r_riic/src/lld/r_rza2_riic_lld_int.c **** ******************************************************************************/
 720:../generate/sc_drivers/r_riic/src/lld/r_rza2_riic_lld_int.c **** static void intriic1ali_handler (uint32_t int_sense)
 721:../generate/sc_drivers/r_riic/src/lld/r_rza2_riic_lld_int.c **** {
 722:../generate/sc_drivers/r_riic/src/lld/r_rza2_riic_lld_int.c ****     intriicali_proc_handler(RIIC_CH1);
 723:../generate/sc_drivers/r_riic/src/lld/r_rza2_riic_lld_int.c **** 
 724:../generate/sc_drivers/r_riic/src/lld/r_rza2_riic_lld_int.c **** }
 725:../generate/sc_drivers/r_riic/src/lld/r_rza2_riic_lld_int.c **** /******************************************************************************
 726:../generate/sc_drivers/r_riic/src/lld/r_rza2_riic_lld_int.c ****  * End of Function intriic1ali_handler
 727:../generate/sc_drivers/r_riic/src/lld/r_rza2_riic_lld_int.c ****  *****************************************************************************/
 728:../generate/sc_drivers/r_riic/src/lld/r_rza2_riic_lld_int.c **** 
 729:../generate/sc_drivers/r_riic/src/lld/r_rza2_riic_lld_int.c **** /******************************************************************************
 730:../generate/sc_drivers/r_riic/src/lld/r_rza2_riic_lld_int.c **** * Function Name: intriic2ali_handler
 731:../generate/sc_drivers/r_riic/src/lld/r_rza2_riic_lld_int.c **** * Description  : The function accepts INTRIIC2ALI interrupt.
 732:../generate/sc_drivers/r_riic/src/lld/r_rza2_riic_lld_int.c **** * Arguments    : None.
 733:../generate/sc_drivers/r_riic/src/lld/r_rza2_riic_lld_int.c **** * Return Value : None.
 734:../generate/sc_drivers/r_riic/src/lld/r_rza2_riic_lld_int.c **** ******************************************************************************/
 735:../generate/sc_drivers/r_riic/src/lld/r_rza2_riic_lld_int.c **** static void intriic2ali_handler (uint32_t int_sense)
 736:../generate/sc_drivers/r_riic/src/lld/r_rza2_riic_lld_int.c **** {
 737:../generate/sc_drivers/r_riic/src/lld/r_rza2_riic_lld_int.c ****     intriicali_proc_handler(RIIC_CH2);
 738:../generate/sc_drivers/r_riic/src/lld/r_rza2_riic_lld_int.c **** 
 739:../generate/sc_drivers/r_riic/src/lld/r_rza2_riic_lld_int.c **** }
 740:../generate/sc_drivers/r_riic/src/lld/r_rza2_riic_lld_int.c **** /******************************************************************************
 741:../generate/sc_drivers/r_riic/src/lld/r_rza2_riic_lld_int.c ****  * End of Function intriic2ali_handler
 742:../generate/sc_drivers/r_riic/src/lld/r_rza2_riic_lld_int.c ****  *****************************************************************************/
 743:../generate/sc_drivers/r_riic/src/lld/r_rza2_riic_lld_int.c **** 
 744:../generate/sc_drivers/r_riic/src/lld/r_rza2_riic_lld_int.c **** /******************************************************************************
 745:../generate/sc_drivers/r_riic/src/lld/r_rza2_riic_lld_int.c **** * Function Name: intriic3ali_handler
 746:../generate/sc_drivers/r_riic/src/lld/r_rza2_riic_lld_int.c **** * Description  : The function accepts INTRIIC3ALI interrupt.
 747:../generate/sc_drivers/r_riic/src/lld/r_rza2_riic_lld_int.c **** * Arguments    : None.
 748:../generate/sc_drivers/r_riic/src/lld/r_rza2_riic_lld_int.c **** * Return Value : None.
 749:../generate/sc_drivers/r_riic/src/lld/r_rza2_riic_lld_int.c **** ******************************************************************************/
 750:../generate/sc_drivers/r_riic/src/lld/r_rza2_riic_lld_int.c **** static void intriic3ali_handler (uint32_t int_sense)
 751:../generate/sc_drivers/r_riic/src/lld/r_rza2_riic_lld_int.c **** {
 752:../generate/sc_drivers/r_riic/src/lld/r_rza2_riic_lld_int.c ****     intriicali_proc_handler(RIIC_CH3);
 753:../generate/sc_drivers/r_riic/src/lld/r_rza2_riic_lld_int.c **** 
 754:../generate/sc_drivers/r_riic/src/lld/r_rza2_riic_lld_int.c **** }
 755:../generate/sc_drivers/r_riic/src/lld/r_rza2_riic_lld_int.c **** /******************************************************************************
 756:../generate/sc_drivers/r_riic/src/lld/r_rza2_riic_lld_int.c ****  * End of Function intriic3ali_handler
 757:../generate/sc_drivers/r_riic/src/lld/r_rza2_riic_lld_int.c ****  *****************************************************************************/
 758:../generate/sc_drivers/r_riic/src/lld/r_rza2_riic_lld_int.c **** 
 759:../generate/sc_drivers/r_riic/src/lld/r_rza2_riic_lld_int.c **** /******************************************************************************
 760:../generate/sc_drivers/r_riic/src/lld/r_rza2_riic_lld_int.c **** * Function Name: intriicnaki_proc_handler
 761:../generate/sc_drivers/r_riic/src/lld/r_rza2_riic_lld_int.c **** * Description  : ISR process function of NAKI interrupt.
 762:../generate/sc_drivers/r_riic/src/lld/r_rza2_riic_lld_int.c **** * Arguments    : channel - The channel number where interrupt occurred.
 763:../generate/sc_drivers/r_riic/src/lld/r_rza2_riic_lld_int.c **** * Return Value : None.
 764:../generate/sc_drivers/r_riic/src/lld/r_rza2_riic_lld_int.c **** ******************************************************************************/
 765:../generate/sc_drivers/r_riic/src/lld/r_rza2_riic_lld_int.c **** static void intriicnaki_proc_handler (int_t channel)
 766:../generate/sc_drivers/r_riic/src/lld/r_rza2_riic_lld_int.c **** {
 767:../generate/sc_drivers/r_riic/src/lld/r_rza2_riic_lld_int.c ****     uint32_t dummy;
 768:../generate/sc_drivers/r_riic/src/lld/r_rza2_riic_lld_int.c **** 
 769:../generate/sc_drivers/r_riic/src/lld/r_rza2_riic_lld_int.c ****     /* cast to int_t*/
 770:../generate/sc_drivers/r_riic/src/lld/r_rza2_riic_lld_int.c ****     r_riic_hld_set_nack_asserted(channel);
 771:../generate/sc_drivers/r_riic/src/lld/r_rza2_riic_lld_int.c **** 
 772:../generate/sc_drivers/r_riic/src/lld/r_rza2_riic_lld_int.c ****     /* clear interrupt source */
 773:../generate/sc_drivers/r_riic/src/lld/r_rza2_riic_lld_int.c ****     dummy = RZA_IO_RegRead_32((volatile uint32_t *) &gsp_riic[channel]->ICSR2.LONG, RIIC_ICSR2_NACK
 774:../generate/sc_drivers/r_riic/src/lld/r_rza2_riic_lld_int.c ****             RIIC_ICSR2_NACKF);
 775:../generate/sc_drivers/r_riic/src/lld/r_rza2_riic_lld_int.c **** 
 776:../generate/sc_drivers/r_riic/src/lld/r_rza2_riic_lld_int.c ****     /* cast to volatile uint32_t * */
 777:../generate/sc_drivers/r_riic/src/lld/r_rza2_riic_lld_int.c ****     RZA_IO_RegWrite_32((volatile uint32_t *) &gsp_riic[channel]->ICSR2.LONG, 0, RIIC_ICSR2_NACKF_SH
 778:../generate/sc_drivers/r_riic/src/lld/r_rza2_riic_lld_int.c ****             RIIC_ICSR2_NACKF);
 779:../generate/sc_drivers/r_riic/src/lld/r_rza2_riic_lld_int.c **** 
 780:../generate/sc_drivers/r_riic/src/lld/r_rza2_riic_lld_int.c **** }
 781:../generate/sc_drivers/r_riic/src/lld/r_rza2_riic_lld_int.c **** /******************************************************************************
 782:../generate/sc_drivers/r_riic/src/lld/r_rza2_riic_lld_int.c ****  * End of Function intriicnaki_proc_handler
 783:../generate/sc_drivers/r_riic/src/lld/r_rza2_riic_lld_int.c ****  *****************************************************************************/
 784:../generate/sc_drivers/r_riic/src/lld/r_rza2_riic_lld_int.c **** 
 785:../generate/sc_drivers/r_riic/src/lld/r_rza2_riic_lld_int.c **** /******************************************************************************
 786:../generate/sc_drivers/r_riic/src/lld/r_rza2_riic_lld_int.c **** * Function Name: intriic0naki_handler
 787:../generate/sc_drivers/r_riic/src/lld/r_rza2_riic_lld_int.c **** * Description  : The function accepts INTRIIC0NAKI interrupt.
 788:../generate/sc_drivers/r_riic/src/lld/r_rza2_riic_lld_int.c **** * Arguments    : None.
 789:../generate/sc_drivers/r_riic/src/lld/r_rza2_riic_lld_int.c **** * Return Value : None.
 790:../generate/sc_drivers/r_riic/src/lld/r_rza2_riic_lld_int.c **** ******************************************************************************/
 791:../generate/sc_drivers/r_riic/src/lld/r_rza2_riic_lld_int.c **** static void intriic0naki_handler (uint32_t int_sense)
 792:../generate/sc_drivers/r_riic/src/lld/r_rza2_riic_lld_int.c **** {
 793:../generate/sc_drivers/r_riic/src/lld/r_rza2_riic_lld_int.c ****     intriicnaki_proc_handler(RIIC_CH0);
 794:../generate/sc_drivers/r_riic/src/lld/r_rza2_riic_lld_int.c **** }
 795:../generate/sc_drivers/r_riic/src/lld/r_rza2_riic_lld_int.c **** /******************************************************************************
 796:../generate/sc_drivers/r_riic/src/lld/r_rza2_riic_lld_int.c ****  * End of Function intriic0naki_handler
 797:../generate/sc_drivers/r_riic/src/lld/r_rza2_riic_lld_int.c ****  *****************************************************************************/
 798:../generate/sc_drivers/r_riic/src/lld/r_rza2_riic_lld_int.c **** 
 799:../generate/sc_drivers/r_riic/src/lld/r_rza2_riic_lld_int.c **** /******************************************************************************
 800:../generate/sc_drivers/r_riic/src/lld/r_rza2_riic_lld_int.c **** * Function Name: intriic1naki_handler
 801:../generate/sc_drivers/r_riic/src/lld/r_rza2_riic_lld_int.c **** * Description  : The function accepts INTRIIC1NAKI interrupt.
 802:../generate/sc_drivers/r_riic/src/lld/r_rza2_riic_lld_int.c **** * Arguments    : None.
 803:../generate/sc_drivers/r_riic/src/lld/r_rza2_riic_lld_int.c **** * Return Value : None.
 804:../generate/sc_drivers/r_riic/src/lld/r_rza2_riic_lld_int.c **** ******************************************************************************/
 805:../generate/sc_drivers/r_riic/src/lld/r_rza2_riic_lld_int.c **** static void intriic1naki_handler (uint32_t int_sense)
 806:../generate/sc_drivers/r_riic/src/lld/r_rza2_riic_lld_int.c **** {
 807:../generate/sc_drivers/r_riic/src/lld/r_rza2_riic_lld_int.c ****     intriicnaki_proc_handler(RIIC_CH1);
 808:../generate/sc_drivers/r_riic/src/lld/r_rza2_riic_lld_int.c **** 
 809:../generate/sc_drivers/r_riic/src/lld/r_rza2_riic_lld_int.c **** }
 810:../generate/sc_drivers/r_riic/src/lld/r_rza2_riic_lld_int.c **** /******************************************************************************
 811:../generate/sc_drivers/r_riic/src/lld/r_rza2_riic_lld_int.c ****  * End of Function intriic1naki_handler
 812:../generate/sc_drivers/r_riic/src/lld/r_rza2_riic_lld_int.c ****  *****************************************************************************/
 813:../generate/sc_drivers/r_riic/src/lld/r_rza2_riic_lld_int.c **** 
 814:../generate/sc_drivers/r_riic/src/lld/r_rza2_riic_lld_int.c **** /******************************************************************************
 815:../generate/sc_drivers/r_riic/src/lld/r_rza2_riic_lld_int.c **** * Function Name: intriic2naki_handler
 816:../generate/sc_drivers/r_riic/src/lld/r_rza2_riic_lld_int.c **** * Description  : The function accepts INTRIIC2NAKI interrupt.
 817:../generate/sc_drivers/r_riic/src/lld/r_rza2_riic_lld_int.c **** * Arguments    : None.
 818:../generate/sc_drivers/r_riic/src/lld/r_rza2_riic_lld_int.c **** * Return Value : None.
 819:../generate/sc_drivers/r_riic/src/lld/r_rza2_riic_lld_int.c **** ******************************************************************************/
 820:../generate/sc_drivers/r_riic/src/lld/r_rza2_riic_lld_int.c **** static void intriic2naki_handler (uint32_t int_sense)
 821:../generate/sc_drivers/r_riic/src/lld/r_rza2_riic_lld_int.c **** {
 822:../generate/sc_drivers/r_riic/src/lld/r_rza2_riic_lld_int.c ****     intriicnaki_proc_handler(RIIC_CH2);
 823:../generate/sc_drivers/r_riic/src/lld/r_rza2_riic_lld_int.c **** 
 824:../generate/sc_drivers/r_riic/src/lld/r_rza2_riic_lld_int.c **** }
 825:../generate/sc_drivers/r_riic/src/lld/r_rza2_riic_lld_int.c **** /******************************************************************************
 826:../generate/sc_drivers/r_riic/src/lld/r_rza2_riic_lld_int.c ****  * End of Function intriic2naki_handler
 827:../generate/sc_drivers/r_riic/src/lld/r_rza2_riic_lld_int.c ****  *****************************************************************************/
 828:../generate/sc_drivers/r_riic/src/lld/r_rza2_riic_lld_int.c **** 
 829:../generate/sc_drivers/r_riic/src/lld/r_rza2_riic_lld_int.c **** /******************************************************************************
 830:../generate/sc_drivers/r_riic/src/lld/r_rza2_riic_lld_int.c **** * Function Name: intriic3naki_handler
 831:../generate/sc_drivers/r_riic/src/lld/r_rza2_riic_lld_int.c **** * Description  : The function accepts INTRIIC3NAKI interrupt.
 832:../generate/sc_drivers/r_riic/src/lld/r_rza2_riic_lld_int.c **** * Arguments    : None.
 833:../generate/sc_drivers/r_riic/src/lld/r_rza2_riic_lld_int.c **** * Return Value : None.
 834:../generate/sc_drivers/r_riic/src/lld/r_rza2_riic_lld_int.c **** ******************************************************************************/
 835:../generate/sc_drivers/r_riic/src/lld/r_rza2_riic_lld_int.c **** static void intriic3naki_handler (uint32_t int_sense)
 836:../generate/sc_drivers/r_riic/src/lld/r_rza2_riic_lld_int.c **** {
 837:../generate/sc_drivers/r_riic/src/lld/r_rza2_riic_lld_int.c ****     intriicnaki_proc_handler(RIIC_CH3);
 838:../generate/sc_drivers/r_riic/src/lld/r_rza2_riic_lld_int.c **** 
 839:../generate/sc_drivers/r_riic/src/lld/r_rza2_riic_lld_int.c **** }
 840:../generate/sc_drivers/r_riic/src/lld/r_rza2_riic_lld_int.c **** /******************************************************************************
 841:../generate/sc_drivers/r_riic/src/lld/r_rza2_riic_lld_int.c ****  * End of Function intriic3naki_handler
 842:../generate/sc_drivers/r_riic/src/lld/r_rza2_riic_lld_int.c ****  *****************************************************************************/
 843:../generate/sc_drivers/r_riic/src/lld/r_rza2_riic_lld_int.c **** 
 844:../generate/sc_drivers/r_riic/src/lld/r_rza2_riic_lld_int.c **** /******************************************************************************
 845:../generate/sc_drivers/r_riic/src/lld/r_rza2_riic_lld_int.c **** * Function Name: intriictmoi_proc_handler
 846:../generate/sc_drivers/r_riic/src/lld/r_rza2_riic_lld_int.c **** * Description  : ISR process function of TMOI interrupt.
 847:../generate/sc_drivers/r_riic/src/lld/r_rza2_riic_lld_int.c **** * Arguments    : channel - The channel number where interrupt occurred.
 848:../generate/sc_drivers/r_riic/src/lld/r_rza2_riic_lld_int.c **** * Return Value : None.
 849:../generate/sc_drivers/r_riic/src/lld/r_rza2_riic_lld_int.c **** ******************************************************************************/
 850:../generate/sc_drivers/r_riic/src/lld/r_rza2_riic_lld_int.c **** static void intriictmoi_proc_handler (int_t channel)
 851:../generate/sc_drivers/r_riic/src/lld/r_rza2_riic_lld_int.c **** {
  25              		.loc 1 851 0
  26              		.cfi_startproc
  27              		@ args = 0, pretend = 0, frame = 0
  28              		@ frame_needed = 0, uses_anonymous_args = 0
  29              	.LVL0:
  30 0000 10402DE9 		push	{r4, lr}
  31              		.cfi_def_cfa_offset 8
  32              		.cfi_offset 4, -8
  33              		.cfi_offset 14, -4
  34 0004 0040A0E1 		mov	r4, r0
 852:../generate/sc_drivers/r_riic/src/lld/r_rza2_riic_lld_int.c ****     uint32_t dummy;
 853:../generate/sc_drivers/r_riic/src/lld/r_rza2_riic_lld_int.c **** 
 854:../generate/sc_drivers/r_riic/src/lld/r_rza2_riic_lld_int.c ****     /* cast to int_t */
 855:../generate/sc_drivers/r_riic/src/lld/r_rza2_riic_lld_int.c ****     r_riic_hld_set_timeout_asserted(channel);
  35              		.loc 1 855 0
  36 0008 FEFFFFEB 		bl	r_riic_hld_set_timeout_asserted
  37              	.LVL1:
 856:../generate/sc_drivers/r_riic/src/lld/r_rza2_riic_lld_int.c **** 
 857:../generate/sc_drivers/r_riic/src/lld/r_rza2_riic_lld_int.c ****     /* clear interrupt source */
 858:../generate/sc_drivers/r_riic/src/lld/r_rza2_riic_lld_int.c ****     dummy = RZA_IO_RegRead_32((volatile uint32_t *) &gsp_riic[channel]->ICSR2.LONG, RIIC_ICSR2_TMOF
  38              		.loc 1 858 0
  39 000c 003000E3 		movw	r3, #:lower16:.LANCHOR0
  40 0010 003040E3 		movt	r3, #:upper16:.LANCHOR0
  41 0014 044193E7 		ldr	r4, [r3, r4, lsl #2]
  42              	.LVL2:
  43 0018 244084E2 		add	r4, r4, #36
  44 001c 0120A0E3 		mov	r2, #1
  45 0020 0010A0E3 		mov	r1, #0
  46 0024 0400A0E1 		mov	r0, r4
  47 0028 FEFFFFEB 		bl	RZA_IO_RegRead_32
  48              	.LVL3:
 859:../generate/sc_drivers/r_riic/src/lld/r_rza2_riic_lld_int.c ****             RIIC_ICSR2_TMOF);
 860:../generate/sc_drivers/r_riic/src/lld/r_rza2_riic_lld_int.c **** 
 861:../generate/sc_drivers/r_riic/src/lld/r_rza2_riic_lld_int.c ****     /* cast to volatile uint32_t * */
 862:../generate/sc_drivers/r_riic/src/lld/r_rza2_riic_lld_int.c ****     RZA_IO_RegWrite_32((volatile uint32_t *) &gsp_riic[channel]->ICSR2.LONG, 
  49              		.loc 1 862 0
  50 002c 0130A0E3 		mov	r3, #1
  51 0030 0020A0E3 		mov	r2, #0
  52 0034 0210A0E1 		mov	r1, r2
  53 0038 0400A0E1 		mov	r0, r4
  54 003c FEFFFFEB 		bl	RZA_IO_RegWrite_32
  55              	.LVL4:
  56 0040 1080BDE8 		pop	{r4, pc}
  57              		.cfi_endproc
  58              	.LFE38:
  60              		.section	.text.intriic3tmoi_handler,"ax",%progbits
  61              		.align	2
  62              		.syntax unified
  63              		.arm
  64              		.fpu neon
  66              	intriic3tmoi_handler:
  67              	.LFB42:
 863:../generate/sc_drivers/r_riic/src/lld/r_rza2_riic_lld_int.c ****                         0, RIIC_ICSR2_TMOF_SHIFT, RIIC_ICSR2_TMOF);
 864:../generate/sc_drivers/r_riic/src/lld/r_rza2_riic_lld_int.c **** 
 865:../generate/sc_drivers/r_riic/src/lld/r_rza2_riic_lld_int.c **** }
 866:../generate/sc_drivers/r_riic/src/lld/r_rza2_riic_lld_int.c **** /******************************************************************************
 867:../generate/sc_drivers/r_riic/src/lld/r_rza2_riic_lld_int.c ****  * End of Function intriictmoi_proc_handler
 868:../generate/sc_drivers/r_riic/src/lld/r_rza2_riic_lld_int.c ****  *****************************************************************************/
 869:../generate/sc_drivers/r_riic/src/lld/r_rza2_riic_lld_int.c **** 
 870:../generate/sc_drivers/r_riic/src/lld/r_rza2_riic_lld_int.c **** /******************************************************************************
 871:../generate/sc_drivers/r_riic/src/lld/r_rza2_riic_lld_int.c **** * Function Name: intriic0tmoi_handler
 872:../generate/sc_drivers/r_riic/src/lld/r_rza2_riic_lld_int.c **** * Description  : The function accepts INTRIIC0TMOI interrupt.
 873:../generate/sc_drivers/r_riic/src/lld/r_rza2_riic_lld_int.c **** * Arguments    : None.
 874:../generate/sc_drivers/r_riic/src/lld/r_rza2_riic_lld_int.c **** * Return Value : None.
 875:../generate/sc_drivers/r_riic/src/lld/r_rza2_riic_lld_int.c **** ******************************************************************************/
 876:../generate/sc_drivers/r_riic/src/lld/r_rza2_riic_lld_int.c **** static void intriic0tmoi_handler (uint32_t int_sense)
 877:../generate/sc_drivers/r_riic/src/lld/r_rza2_riic_lld_int.c **** {
 878:../generate/sc_drivers/r_riic/src/lld/r_rza2_riic_lld_int.c ****     intriictmoi_proc_handler(RIIC_CH0);
 879:../generate/sc_drivers/r_riic/src/lld/r_rza2_riic_lld_int.c **** 
 880:../generate/sc_drivers/r_riic/src/lld/r_rza2_riic_lld_int.c **** }
 881:../generate/sc_drivers/r_riic/src/lld/r_rza2_riic_lld_int.c **** /******************************************************************************
 882:../generate/sc_drivers/r_riic/src/lld/r_rza2_riic_lld_int.c ****  * End of Function intriic0tmoi_handler
 883:../generate/sc_drivers/r_riic/src/lld/r_rza2_riic_lld_int.c ****  *****************************************************************************/
 884:../generate/sc_drivers/r_riic/src/lld/r_rza2_riic_lld_int.c **** 
 885:../generate/sc_drivers/r_riic/src/lld/r_rza2_riic_lld_int.c **** /******************************************************************************
 886:../generate/sc_drivers/r_riic/src/lld/r_rza2_riic_lld_int.c **** * Function Name: intriic1tmoi_handler
 887:../generate/sc_drivers/r_riic/src/lld/r_rza2_riic_lld_int.c **** * Description  : The function accepts INTRIIC1TMOI interrupt.
 888:../generate/sc_drivers/r_riic/src/lld/r_rza2_riic_lld_int.c **** * Arguments    : None.
 889:../generate/sc_drivers/r_riic/src/lld/r_rza2_riic_lld_int.c **** * Return Value : None.
 890:../generate/sc_drivers/r_riic/src/lld/r_rza2_riic_lld_int.c **** ******************************************************************************/
 891:../generate/sc_drivers/r_riic/src/lld/r_rza2_riic_lld_int.c **** static void intriic1tmoi_handler (uint32_t int_sense)
 892:../generate/sc_drivers/r_riic/src/lld/r_rza2_riic_lld_int.c **** {
 893:../generate/sc_drivers/r_riic/src/lld/r_rza2_riic_lld_int.c ****     intriictmoi_proc_handler(RIIC_CH1);
 894:../generate/sc_drivers/r_riic/src/lld/r_rza2_riic_lld_int.c **** 
 895:../generate/sc_drivers/r_riic/src/lld/r_rza2_riic_lld_int.c **** }
 896:../generate/sc_drivers/r_riic/src/lld/r_rza2_riic_lld_int.c **** /******************************************************************************
 897:../generate/sc_drivers/r_riic/src/lld/r_rza2_riic_lld_int.c ****  * End of Function intriic1tmoi_handler
 898:../generate/sc_drivers/r_riic/src/lld/r_rza2_riic_lld_int.c ****  *****************************************************************************/
 899:../generate/sc_drivers/r_riic/src/lld/r_rza2_riic_lld_int.c **** 
 900:../generate/sc_drivers/r_riic/src/lld/r_rza2_riic_lld_int.c **** /******************************************************************************
 901:../generate/sc_drivers/r_riic/src/lld/r_rza2_riic_lld_int.c **** * Function Name: intriic2tmoi_handler
 902:../generate/sc_drivers/r_riic/src/lld/r_rza2_riic_lld_int.c **** * Description  : The function accepts INTRIIC2TMOI interrupt.
 903:../generate/sc_drivers/r_riic/src/lld/r_rza2_riic_lld_int.c **** * Arguments    : None.
 904:../generate/sc_drivers/r_riic/src/lld/r_rza2_riic_lld_int.c **** * Return Value : None.
 905:../generate/sc_drivers/r_riic/src/lld/r_rza2_riic_lld_int.c **** ******************************************************************************/
 906:../generate/sc_drivers/r_riic/src/lld/r_rza2_riic_lld_int.c **** static void intriic2tmoi_handler (uint32_t int_sense)
 907:../generate/sc_drivers/r_riic/src/lld/r_rza2_riic_lld_int.c **** {
 908:../generate/sc_drivers/r_riic/src/lld/r_rza2_riic_lld_int.c ****     intriictmoi_proc_handler(RIIC_CH2);
 909:../generate/sc_drivers/r_riic/src/lld/r_rza2_riic_lld_int.c **** 
 910:../generate/sc_drivers/r_riic/src/lld/r_rza2_riic_lld_int.c **** }
 911:../generate/sc_drivers/r_riic/src/lld/r_rza2_riic_lld_int.c **** /******************************************************************************
 912:../generate/sc_drivers/r_riic/src/lld/r_rza2_riic_lld_int.c ****  * End of Function intriic2tmoi_handler
 913:../generate/sc_drivers/r_riic/src/lld/r_rza2_riic_lld_int.c ****  *****************************************************************************/
 914:../generate/sc_drivers/r_riic/src/lld/r_rza2_riic_lld_int.c **** 
 915:../generate/sc_drivers/r_riic/src/lld/r_rza2_riic_lld_int.c **** /******************************************************************************
 916:../generate/sc_drivers/r_riic/src/lld/r_rza2_riic_lld_int.c **** * Function Name: intriic3tmoi_handler
 917:../generate/sc_drivers/r_riic/src/lld/r_rza2_riic_lld_int.c **** * Description  : The function accepts INTRIIC3TMOI interrupt.
 918:../generate/sc_drivers/r_riic/src/lld/r_rza2_riic_lld_int.c **** * Arguments    : None.
 919:../generate/sc_drivers/r_riic/src/lld/r_rza2_riic_lld_int.c **** * Return Value : None.
 920:../generate/sc_drivers/r_riic/src/lld/r_rza2_riic_lld_int.c **** ******************************************************************************/
 921:../generate/sc_drivers/r_riic/src/lld/r_rza2_riic_lld_int.c **** static void intriic3tmoi_handler (uint32_t int_sense)
 922:../generate/sc_drivers/r_riic/src/lld/r_rza2_riic_lld_int.c **** {
  68              		.loc 1 922 0
  69              		.cfi_startproc
  70              		@ args = 0, pretend = 0, frame = 0
  71              		@ frame_needed = 0, uses_anonymous_args = 0
  72              	.LVL5:
  73 0000 10402DE9 		push	{r4, lr}
  74              		.cfi_def_cfa_offset 8
  75              		.cfi_offset 4, -8
  76              		.cfi_offset 14, -4
 923:../generate/sc_drivers/r_riic/src/lld/r_rza2_riic_lld_int.c ****     intriictmoi_proc_handler(RIIC_CH3);
  77              		.loc 1 923 0
  78 0004 0300A0E3 		mov	r0, #3
  79              	.LVL6:
  80 0008 FEFFFFEB 		bl	intriictmoi_proc_handler
  81              	.LVL7:
  82 000c 1080BDE8 		pop	{r4, pc}
  83              		.cfi_endproc
  84              	.LFE42:
  86              		.section	.text.intriic2tmoi_handler,"ax",%progbits
  87              		.align	2
  88              		.syntax unified
  89              		.arm
  90              		.fpu neon
  92              	intriic2tmoi_handler:
  93              	.LFB41:
 907:../generate/sc_drivers/r_riic/src/lld/r_rza2_riic_lld_int.c ****     intriictmoi_proc_handler(RIIC_CH2);
  94              		.loc 1 907 0
  95              		.cfi_startproc
  96              		@ args = 0, pretend = 0, frame = 0
  97              		@ frame_needed = 0, uses_anonymous_args = 0
  98              	.LVL8:
  99 0000 10402DE9 		push	{r4, lr}
 100              		.cfi_def_cfa_offset 8
 101              		.cfi_offset 4, -8
 102              		.cfi_offset 14, -4
 908:../generate/sc_drivers/r_riic/src/lld/r_rza2_riic_lld_int.c **** 
 103              		.loc 1 908 0
 104 0004 0200A0E3 		mov	r0, #2
 105              	.LVL9:
 106 0008 FEFFFFEB 		bl	intriictmoi_proc_handler
 107              	.LVL10:
 108 000c 1080BDE8 		pop	{r4, pc}
 109              		.cfi_endproc
 110              	.LFE41:
 112              		.section	.text.intriic1tmoi_handler,"ax",%progbits
 113              		.align	2
 114              		.syntax unified
 115              		.arm
 116              		.fpu neon
 118              	intriic1tmoi_handler:
 119              	.LFB40:
 892:../generate/sc_drivers/r_riic/src/lld/r_rza2_riic_lld_int.c ****     intriictmoi_proc_handler(RIIC_CH1);
 120              		.loc 1 892 0
 121              		.cfi_startproc
 122              		@ args = 0, pretend = 0, frame = 0
 123              		@ frame_needed = 0, uses_anonymous_args = 0
 124              	.LVL11:
 125 0000 10402DE9 		push	{r4, lr}
 126              		.cfi_def_cfa_offset 8
 127              		.cfi_offset 4, -8
 128              		.cfi_offset 14, -4
 893:../generate/sc_drivers/r_riic/src/lld/r_rza2_riic_lld_int.c **** 
 129              		.loc 1 893 0
 130 0004 0100A0E3 		mov	r0, #1
 131              	.LVL12:
 132 0008 FEFFFFEB 		bl	intriictmoi_proc_handler
 133              	.LVL13:
 134 000c 1080BDE8 		pop	{r4, pc}
 135              		.cfi_endproc
 136              	.LFE40:
 138              		.section	.text.intriic0tmoi_handler,"ax",%progbits
 139              		.align	2
 140              		.syntax unified
 141              		.arm
 142              		.fpu neon
 144              	intriic0tmoi_handler:
 145              	.LFB39:
 877:../generate/sc_drivers/r_riic/src/lld/r_rza2_riic_lld_int.c ****     intriictmoi_proc_handler(RIIC_CH0);
 146              		.loc 1 877 0
 147              		.cfi_startproc
 148              		@ args = 0, pretend = 0, frame = 0
 149              		@ frame_needed = 0, uses_anonymous_args = 0
 150              	.LVL14:
 151 0000 10402DE9 		push	{r4, lr}
 152              		.cfi_def_cfa_offset 8
 153              		.cfi_offset 4, -8
 154              		.cfi_offset 14, -4
 878:../generate/sc_drivers/r_riic/src/lld/r_rza2_riic_lld_int.c **** 
 155              		.loc 1 878 0
 156 0004 0000A0E3 		mov	r0, #0
 157              	.LVL15:
 158 0008 FEFFFFEB 		bl	intriictmoi_proc_handler
 159              	.LVL16:
 160 000c 1080BDE8 		pop	{r4, pc}
 161              		.cfi_endproc
 162              	.LFE39:
 164              		.section	.text.intriicali_proc_handler,"ax",%progbits
 165              		.align	2
 166              		.syntax unified
 167              		.arm
 168              		.fpu neon
 170              	intriicali_proc_handler:
 171              	.LFB28:
 682:../generate/sc_drivers/r_riic/src/lld/r_rza2_riic_lld_int.c ****     uint32_t dummy;
 172              		.loc 1 682 0
 173              		.cfi_startproc
 174              		@ args = 0, pretend = 0, frame = 0
 175              		@ frame_needed = 0, uses_anonymous_args = 0
 176              	.LVL17:
 177 0000 10402DE9 		push	{r4, lr}
 178              		.cfi_def_cfa_offset 8
 179              		.cfi_offset 4, -8
 180              		.cfi_offset 14, -4
 181 0004 0040A0E1 		mov	r4, r0
 686:../generate/sc_drivers/r_riic/src/lld/r_rza2_riic_lld_int.c **** 
 182              		.loc 1 686 0
 183 0008 FEFFFFEB 		bl	r_riic_hld_set_arbitrate_assert
 184              	.LVL18:
 689:../generate/sc_drivers/r_riic/src/lld/r_rza2_riic_lld_int.c ****                                 RIIC_ICSR2_AL_SHIFT, RIIC_ICSR2_AL);
 185              		.loc 1 689 0
 186 000c 003000E3 		movw	r3, #:lower16:.LANCHOR0
 187 0010 003040E3 		movt	r3, #:upper16:.LANCHOR0
 188 0014 044193E7 		ldr	r4, [r3, r4, lsl #2]
 189              	.LVL19:
 190 0018 244084E2 		add	r4, r4, #36
 191 001c 0220A0E3 		mov	r2, #2
 192 0020 0110A0E3 		mov	r1, #1
 193 0024 0400A0E1 		mov	r0, r4
 194 0028 FEFFFFEB 		bl	RZA_IO_RegRead_32
 195              	.LVL20:
 693:../generate/sc_drivers/r_riic/src/lld/r_rza2_riic_lld_int.c **** 
 196              		.loc 1 693 0
 197 002c 0230A0E3 		mov	r3, #2
 198 0030 0120A0E3 		mov	r2, #1
 199 0034 0010A0E3 		mov	r1, #0
 200 0038 0400A0E1 		mov	r0, r4
 201 003c FEFFFFEB 		bl	RZA_IO_RegWrite_32
 202              	.LVL21:
 203 0040 1080BDE8 		pop	{r4, pc}
 204              		.cfi_endproc
 205              	.LFE28:
 207              		.section	.text.intriic3ali_handler,"ax",%progbits
 208              		.align	2
 209              		.syntax unified
 210              		.arm
 211              		.fpu neon
 213              	intriic3ali_handler:
 214              	.LFB32:
 751:../generate/sc_drivers/r_riic/src/lld/r_rza2_riic_lld_int.c ****     intriicali_proc_handler(RIIC_CH3);
 215              		.loc 1 751 0
 216              		.cfi_startproc
 217              		@ args = 0, pretend = 0, frame = 0
 218              		@ frame_needed = 0, uses_anonymous_args = 0
 219              	.LVL22:
 220 0000 10402DE9 		push	{r4, lr}
 221              		.cfi_def_cfa_offset 8
 222              		.cfi_offset 4, -8
 223              		.cfi_offset 14, -4
 752:../generate/sc_drivers/r_riic/src/lld/r_rza2_riic_lld_int.c **** 
 224              		.loc 1 752 0
 225 0004 0300A0E3 		mov	r0, #3
 226              	.LVL23:
 227 0008 FEFFFFEB 		bl	intriicali_proc_handler
 228              	.LVL24:
 229 000c 1080BDE8 		pop	{r4, pc}
 230              		.cfi_endproc
 231              	.LFE32:
 233              		.section	.text.intriic2ali_handler,"ax",%progbits
 234              		.align	2
 235              		.syntax unified
 236              		.arm
 237              		.fpu neon
 239              	intriic2ali_handler:
 240              	.LFB31:
 736:../generate/sc_drivers/r_riic/src/lld/r_rza2_riic_lld_int.c ****     intriicali_proc_handler(RIIC_CH2);
 241              		.loc 1 736 0
 242              		.cfi_startproc
 243              		@ args = 0, pretend = 0, frame = 0
 244              		@ frame_needed = 0, uses_anonymous_args = 0
 245              	.LVL25:
 246 0000 10402DE9 		push	{r4, lr}
 247              		.cfi_def_cfa_offset 8
 248              		.cfi_offset 4, -8
 249              		.cfi_offset 14, -4
 737:../generate/sc_drivers/r_riic/src/lld/r_rza2_riic_lld_int.c **** 
 250              		.loc 1 737 0
 251 0004 0200A0E3 		mov	r0, #2
 252              	.LVL26:
 253 0008 FEFFFFEB 		bl	intriicali_proc_handler
 254              	.LVL27:
 255 000c 1080BDE8 		pop	{r4, pc}
 256              		.cfi_endproc
 257              	.LFE31:
 259              		.section	.text.intriic1ali_handler,"ax",%progbits
 260              		.align	2
 261              		.syntax unified
 262              		.arm
 263              		.fpu neon
 265              	intriic1ali_handler:
 266              	.LFB30:
 721:../generate/sc_drivers/r_riic/src/lld/r_rza2_riic_lld_int.c ****     intriicali_proc_handler(RIIC_CH1);
 267              		.loc 1 721 0
 268              		.cfi_startproc
 269              		@ args = 0, pretend = 0, frame = 0
 270              		@ frame_needed = 0, uses_anonymous_args = 0
 271              	.LVL28:
 272 0000 10402DE9 		push	{r4, lr}
 273              		.cfi_def_cfa_offset 8
 274              		.cfi_offset 4, -8
 275              		.cfi_offset 14, -4
 722:../generate/sc_drivers/r_riic/src/lld/r_rza2_riic_lld_int.c **** 
 276              		.loc 1 722 0
 277 0004 0100A0E3 		mov	r0, #1
 278              	.LVL29:
 279 0008 FEFFFFEB 		bl	intriicali_proc_handler
 280              	.LVL30:
 281 000c 1080BDE8 		pop	{r4, pc}
 282              		.cfi_endproc
 283              	.LFE30:
 285              		.section	.text.intriic0ali_handler,"ax",%progbits
 286              		.align	2
 287              		.syntax unified
 288              		.arm
 289              		.fpu neon
 291              	intriic0ali_handler:
 292              	.LFB29:
 707:../generate/sc_drivers/r_riic/src/lld/r_rza2_riic_lld_int.c ****     intriicali_proc_handler(RIIC_CH0);
 293              		.loc 1 707 0
 294              		.cfi_startproc
 295              		@ args = 0, pretend = 0, frame = 0
 296              		@ frame_needed = 0, uses_anonymous_args = 0
 297              	.LVL31:
 298 0000 10402DE9 		push	{r4, lr}
 299              		.cfi_def_cfa_offset 8
 300              		.cfi_offset 4, -8
 301              		.cfi_offset 14, -4
 708:../generate/sc_drivers/r_riic/src/lld/r_rza2_riic_lld_int.c **** }
 302              		.loc 1 708 0
 303 0004 0000A0E3 		mov	r0, #0
 304              	.LVL32:
 305 0008 FEFFFFEB 		bl	intriicali_proc_handler
 306              	.LVL33:
 307 000c 1080BDE8 		pop	{r4, pc}
 308              		.cfi_endproc
 309              	.LFE29:
 311              		.section	.text.intriicnaki_proc_handler,"ax",%progbits
 312              		.align	2
 313              		.syntax unified
 314              		.arm
 315              		.fpu neon
 317              	intriicnaki_proc_handler:
 318              	.LFB33:
 766:../generate/sc_drivers/r_riic/src/lld/r_rza2_riic_lld_int.c ****     uint32_t dummy;
 319              		.loc 1 766 0
 320              		.cfi_startproc
 321              		@ args = 0, pretend = 0, frame = 0
 322              		@ frame_needed = 0, uses_anonymous_args = 0
 323              	.LVL34:
 324 0000 10402DE9 		push	{r4, lr}
 325              		.cfi_def_cfa_offset 8
 326              		.cfi_offset 4, -8
 327              		.cfi_offset 14, -4
 328 0004 0040A0E1 		mov	r4, r0
 770:../generate/sc_drivers/r_riic/src/lld/r_rza2_riic_lld_int.c **** 
 329              		.loc 1 770 0
 330 0008 FEFFFFEB 		bl	r_riic_hld_set_nack_asserted
 331              	.LVL35:
 773:../generate/sc_drivers/r_riic/src/lld/r_rza2_riic_lld_int.c ****             RIIC_ICSR2_NACKF);
 332              		.loc 1 773 0
 333 000c 003000E3 		movw	r3, #:lower16:.LANCHOR0
 334 0010 003040E3 		movt	r3, #:upper16:.LANCHOR0
 335 0014 044193E7 		ldr	r4, [r3, r4, lsl #2]
 336              	.LVL36:
 337 0018 244084E2 		add	r4, r4, #36
 338 001c 1020A0E3 		mov	r2, #16
 339 0020 0410A0E3 		mov	r1, #4
 340 0024 0400A0E1 		mov	r0, r4
 341 0028 FEFFFFEB 		bl	RZA_IO_RegRead_32
 342              	.LVL37:
 777:../generate/sc_drivers/r_riic/src/lld/r_rza2_riic_lld_int.c ****             RIIC_ICSR2_NACKF);
 343              		.loc 1 777 0
 344 002c 1030A0E3 		mov	r3, #16
 345 0030 0420A0E3 		mov	r2, #4
 346 0034 0010A0E3 		mov	r1, #0
 347 0038 0400A0E1 		mov	r0, r4
 348 003c FEFFFFEB 		bl	RZA_IO_RegWrite_32
 349              	.LVL38:
 350 0040 1080BDE8 		pop	{r4, pc}
 351              		.cfi_endproc
 352              	.LFE33:
 354              		.section	.text.intriic3naki_handler,"ax",%progbits
 355              		.align	2
 356              		.syntax unified
 357              		.arm
 358              		.fpu neon
 360              	intriic3naki_handler:
 361              	.LFB37:
 836:../generate/sc_drivers/r_riic/src/lld/r_rza2_riic_lld_int.c ****     intriicnaki_proc_handler(RIIC_CH3);
 362              		.loc 1 836 0
 363              		.cfi_startproc
 364              		@ args = 0, pretend = 0, frame = 0
 365              		@ frame_needed = 0, uses_anonymous_args = 0
 366              	.LVL39:
 367 0000 10402DE9 		push	{r4, lr}
 368              		.cfi_def_cfa_offset 8
 369              		.cfi_offset 4, -8
 370              		.cfi_offset 14, -4
 837:../generate/sc_drivers/r_riic/src/lld/r_rza2_riic_lld_int.c **** 
 371              		.loc 1 837 0
 372 0004 0300A0E3 		mov	r0, #3
 373              	.LVL40:
 374 0008 FEFFFFEB 		bl	intriicnaki_proc_handler
 375              	.LVL41:
 376 000c 1080BDE8 		pop	{r4, pc}
 377              		.cfi_endproc
 378              	.LFE37:
 380              		.section	.text.intriic2naki_handler,"ax",%progbits
 381              		.align	2
 382              		.syntax unified
 383              		.arm
 384              		.fpu neon
 386              	intriic2naki_handler:
 387              	.LFB36:
 821:../generate/sc_drivers/r_riic/src/lld/r_rza2_riic_lld_int.c ****     intriicnaki_proc_handler(RIIC_CH2);
 388              		.loc 1 821 0
 389              		.cfi_startproc
 390              		@ args = 0, pretend = 0, frame = 0
 391              		@ frame_needed = 0, uses_anonymous_args = 0
 392              	.LVL42:
 393 0000 10402DE9 		push	{r4, lr}
 394              		.cfi_def_cfa_offset 8
 395              		.cfi_offset 4, -8
 396              		.cfi_offset 14, -4
 822:../generate/sc_drivers/r_riic/src/lld/r_rza2_riic_lld_int.c **** 
 397              		.loc 1 822 0
 398 0004 0200A0E3 		mov	r0, #2
 399              	.LVL43:
 400 0008 FEFFFFEB 		bl	intriicnaki_proc_handler
 401              	.LVL44:
 402 000c 1080BDE8 		pop	{r4, pc}
 403              		.cfi_endproc
 404              	.LFE36:
 406              		.section	.text.intriic1naki_handler,"ax",%progbits
 407              		.align	2
 408              		.syntax unified
 409              		.arm
 410              		.fpu neon
 412              	intriic1naki_handler:
 413              	.LFB35:
 806:../generate/sc_drivers/r_riic/src/lld/r_rza2_riic_lld_int.c ****     intriicnaki_proc_handler(RIIC_CH1);
 414              		.loc 1 806 0
 415              		.cfi_startproc
 416              		@ args = 0, pretend = 0, frame = 0
 417              		@ frame_needed = 0, uses_anonymous_args = 0
 418              	.LVL45:
 419 0000 10402DE9 		push	{r4, lr}
 420              		.cfi_def_cfa_offset 8
 421              		.cfi_offset 4, -8
 422              		.cfi_offset 14, -4
 807:../generate/sc_drivers/r_riic/src/lld/r_rza2_riic_lld_int.c **** 
 423              		.loc 1 807 0
 424 0004 0100A0E3 		mov	r0, #1
 425              	.LVL46:
 426 0008 FEFFFFEB 		bl	intriicnaki_proc_handler
 427              	.LVL47:
 428 000c 1080BDE8 		pop	{r4, pc}
 429              		.cfi_endproc
 430              	.LFE35:
 432              		.section	.text.intriic0naki_handler,"ax",%progbits
 433              		.align	2
 434              		.syntax unified
 435              		.arm
 436              		.fpu neon
 438              	intriic0naki_handler:
 439              	.LFB34:
 792:../generate/sc_drivers/r_riic/src/lld/r_rza2_riic_lld_int.c ****     intriicnaki_proc_handler(RIIC_CH0);
 440              		.loc 1 792 0
 441              		.cfi_startproc
 442              		@ args = 0, pretend = 0, frame = 0
 443              		@ frame_needed = 0, uses_anonymous_args = 0
 444              	.LVL48:
 445 0000 10402DE9 		push	{r4, lr}
 446              		.cfi_def_cfa_offset 8
 447              		.cfi_offset 4, -8
 448              		.cfi_offset 14, -4
 793:../generate/sc_drivers/r_riic/src/lld/r_rza2_riic_lld_int.c **** }
 449              		.loc 1 793 0
 450 0004 0000A0E3 		mov	r0, #0
 451              	.LVL49:
 452 0008 FEFFFFEB 		bl	intriicnaki_proc_handler
 453              	.LVL50:
 454 000c 1080BDE8 		pop	{r4, pc}
 455              		.cfi_endproc
 456              	.LFE34:
 458              		.section	.text.intriicsti_proc_handler,"ax",%progbits
 459              		.align	2
 460              		.syntax unified
 461              		.arm
 462              		.fpu neon
 464              	intriicsti_proc_handler:
 465              	.LFB18:
 511:../generate/sc_drivers/r_riic/src/lld/r_rza2_riic_lld_int.c ****     uint32_t dummy;
 466              		.loc 1 511 0
 467              		.cfi_startproc
 468              		@ args = 0, pretend = 0, frame = 0
 469              		@ frame_needed = 0, uses_anonymous_args = 0
 470              	.LVL51:
 471 0000 10402DE9 		push	{r4, lr}
 472              		.cfi_def_cfa_offset 8
 473              		.cfi_offset 4, -8
 474              		.cfi_offset 14, -4
 475 0004 0040A0E1 		mov	r4, r0
 515:../generate/sc_drivers/r_riic/src/lld/r_rza2_riic_lld_int.c **** 
 476              		.loc 1 515 0
 477 0008 FEFFFFEB 		bl	r_riic_hld_set_start_asserted
 478              	.LVL52:
 518:../generate/sc_drivers/r_riic/src/lld/r_rza2_riic_lld_int.c ****             RIIC_ICSR2_START);
 479              		.loc 1 518 0
 480 000c 003000E3 		movw	r3, #:lower16:.LANCHOR0
 481 0010 003040E3 		movt	r3, #:upper16:.LANCHOR0
 482 0014 044193E7 		ldr	r4, [r3, r4, lsl #2]
 483              	.LVL53:
 484 0018 244084E2 		add	r4, r4, #36
 485 001c 0420A0E3 		mov	r2, #4
 486 0020 0210A0E3 		mov	r1, #2
 487 0024 0400A0E1 		mov	r0, r4
 488 0028 FEFFFFEB 		bl	RZA_IO_RegRead_32
 489              	.LVL54:
 522:../generate/sc_drivers/r_riic/src/lld/r_rza2_riic_lld_int.c ****             RIIC_ICSR2_START);
 490              		.loc 1 522 0
 491 002c 0430A0E3 		mov	r3, #4
 492 0030 0220A0E3 		mov	r2, #2
 493 0034 0010A0E3 		mov	r1, #0
 494 0038 0400A0E1 		mov	r0, r4
 495 003c FEFFFFEB 		bl	RZA_IO_RegWrite_32
 496              	.LVL55:
 497 0040 1080BDE8 		pop	{r4, pc}
 498              		.cfi_endproc
 499              	.LFE18:
 501              		.section	.text.intriic3sti_handler,"ax",%progbits
 502              		.align	2
 503              		.syntax unified
 504              		.arm
 505              		.fpu neon
 507              	intriic3sti_handler:
 508              	.LFB22:
 582:../generate/sc_drivers/r_riic/src/lld/r_rza2_riic_lld_int.c ****     intriicsti_proc_handler(RIIC_CH3);
 509              		.loc 1 582 0
 510              		.cfi_startproc
 511              		@ args = 0, pretend = 0, frame = 0
 512              		@ frame_needed = 0, uses_anonymous_args = 0
 513              	.LVL56:
 514 0000 10402DE9 		push	{r4, lr}
 515              		.cfi_def_cfa_offset 8
 516              		.cfi_offset 4, -8
 517              		.cfi_offset 14, -4
 583:../generate/sc_drivers/r_riic/src/lld/r_rza2_riic_lld_int.c **** 
 518              		.loc 1 583 0
 519 0004 0300A0E3 		mov	r0, #3
 520              	.LVL57:
 521 0008 FEFFFFEB 		bl	intriicsti_proc_handler
 522              	.LVL58:
 523 000c 1080BDE8 		pop	{r4, pc}
 524              		.cfi_endproc
 525              	.LFE22:
 527              		.section	.text.intriic2sti_handler,"ax",%progbits
 528              		.align	2
 529              		.syntax unified
 530              		.arm
 531              		.fpu neon
 533              	intriic2sti_handler:
 534              	.LFB21:
 567:../generate/sc_drivers/r_riic/src/lld/r_rza2_riic_lld_int.c ****     intriicsti_proc_handler(RIIC_CH2);
 535              		.loc 1 567 0
 536              		.cfi_startproc
 537              		@ args = 0, pretend = 0, frame = 0
 538              		@ frame_needed = 0, uses_anonymous_args = 0
 539              	.LVL59:
 540 0000 10402DE9 		push	{r4, lr}
 541              		.cfi_def_cfa_offset 8
 542              		.cfi_offset 4, -8
 543              		.cfi_offset 14, -4
 568:../generate/sc_drivers/r_riic/src/lld/r_rza2_riic_lld_int.c **** 
 544              		.loc 1 568 0
 545 0004 0200A0E3 		mov	r0, #2
 546              	.LVL60:
 547 0008 FEFFFFEB 		bl	intriicsti_proc_handler
 548              	.LVL61:
 549 000c 1080BDE8 		pop	{r4, pc}
 550              		.cfi_endproc
 551              	.LFE21:
 553              		.section	.text.intriic1sti_handler,"ax",%progbits
 554              		.align	2
 555              		.syntax unified
 556              		.arm
 557              		.fpu neon
 559              	intriic1sti_handler:
 560              	.LFB20:
 552:../generate/sc_drivers/r_riic/src/lld/r_rza2_riic_lld_int.c ****     intriicsti_proc_handler(RIIC_CH1);
 561              		.loc 1 552 0
 562              		.cfi_startproc
 563              		@ args = 0, pretend = 0, frame = 0
 564              		@ frame_needed = 0, uses_anonymous_args = 0
 565              	.LVL62:
 566 0000 10402DE9 		push	{r4, lr}
 567              		.cfi_def_cfa_offset 8
 568              		.cfi_offset 4, -8
 569              		.cfi_offset 14, -4
 553:../generate/sc_drivers/r_riic/src/lld/r_rza2_riic_lld_int.c **** 
 570              		.loc 1 553 0
 571 0004 0100A0E3 		mov	r0, #1
 572              	.LVL63:
 573 0008 FEFFFFEB 		bl	intriicsti_proc_handler
 574              	.LVL64:
 575 000c 1080BDE8 		pop	{r4, pc}
 576              		.cfi_endproc
 577              	.LFE20:
 579              		.section	.text.intriic0sti_handler,"ax",%progbits
 580              		.align	2
 581              		.syntax unified
 582              		.arm
 583              		.fpu neon
 585              	intriic0sti_handler:
 586              	.LFB19:
 537:../generate/sc_drivers/r_riic/src/lld/r_rza2_riic_lld_int.c ****     intriicsti_proc_handler(RIIC_CH0);
 587              		.loc 1 537 0
 588              		.cfi_startproc
 589              		@ args = 0, pretend = 0, frame = 0
 590              		@ frame_needed = 0, uses_anonymous_args = 0
 591              	.LVL65:
 592 0000 10402DE9 		push	{r4, lr}
 593              		.cfi_def_cfa_offset 8
 594              		.cfi_offset 4, -8
 595              		.cfi_offset 14, -4
 538:../generate/sc_drivers/r_riic/src/lld/r_rza2_riic_lld_int.c **** 
 596              		.loc 1 538 0
 597 0004 0000A0E3 		mov	r0, #0
 598              	.LVL66:
 599 0008 FEFFFFEB 		bl	intriicsti_proc_handler
 600              	.LVL67:
 601 000c 1080BDE8 		pop	{r4, pc}
 602              		.cfi_endproc
 603              	.LFE19:
 605              		.section	.text.intriicspi_proc_handler,"ax",%progbits
 606              		.align	2
 607              		.syntax unified
 608              		.arm
 609              		.fpu neon
 611              	intriicspi_proc_handler:
 612              	.LFB23:
 597:../generate/sc_drivers/r_riic/src/lld/r_rza2_riic_lld_int.c ****     uint32_t dummy;
 613              		.loc 1 597 0
 614              		.cfi_startproc
 615              		@ args = 0, pretend = 0, frame = 0
 616              		@ frame_needed = 0, uses_anonymous_args = 0
 617              	.LVL68:
 618 0000 10402DE9 		push	{r4, lr}
 619              		.cfi_def_cfa_offset 8
 620              		.cfi_offset 4, -8
 621              		.cfi_offset 14, -4
 622 0004 0040A0E1 		mov	r4, r0
 601:../generate/sc_drivers/r_riic/src/lld/r_rza2_riic_lld_int.c **** 
 623              		.loc 1 601 0
 624 0008 FEFFFFEB 		bl	r_riic_hld_set_stop_asserted
 625              	.LVL69:
 604:../generate/sc_drivers/r_riic/src/lld/r_rza2_riic_lld_int.c ****             RIIC_ICSR2_STOP);
 626              		.loc 1 604 0
 627 000c 003000E3 		movw	r3, #:lower16:.LANCHOR0
 628 0010 003040E3 		movt	r3, #:upper16:.LANCHOR0
 629 0014 044193E7 		ldr	r4, [r3, r4, lsl #2]
 630              	.LVL70:
 631 0018 244084E2 		add	r4, r4, #36
 632 001c 0820A0E3 		mov	r2, #8
 633 0020 0310A0E3 		mov	r1, #3
 634 0024 0400A0E1 		mov	r0, r4
 635 0028 FEFFFFEB 		bl	RZA_IO_RegRead_32
 636              	.LVL71:
 608:../generate/sc_drivers/r_riic/src/lld/r_rza2_riic_lld_int.c ****                         0, RIIC_ICSR2_STOP_SHIFT, RIIC_ICSR2_STOP);
 637              		.loc 1 608 0
 638 002c 0830A0E3 		mov	r3, #8
 639 0030 0320A0E3 		mov	r2, #3
 640 0034 0010A0E3 		mov	r1, #0
 641 0038 0400A0E1 		mov	r0, r4
 642 003c FEFFFFEB 		bl	RZA_IO_RegWrite_32
 643              	.LVL72:
 644 0040 1080BDE8 		pop	{r4, pc}
 645              		.cfi_endproc
 646              	.LFE23:
 648              		.section	.text.intriic3spi_handler,"ax",%progbits
 649              		.align	2
 650              		.syntax unified
 651              		.arm
 652              		.fpu neon
 654              	intriic3spi_handler:
 655              	.LFB27:
 667:../generate/sc_drivers/r_riic/src/lld/r_rza2_riic_lld_int.c ****     intriicspi_proc_handler(RIIC_CH3);
 656              		.loc 1 667 0
 657              		.cfi_startproc
 658              		@ args = 0, pretend = 0, frame = 0
 659              		@ frame_needed = 0, uses_anonymous_args = 0
 660              	.LVL73:
 661 0000 10402DE9 		push	{r4, lr}
 662              		.cfi_def_cfa_offset 8
 663              		.cfi_offset 4, -8
 664              		.cfi_offset 14, -4
 668:../generate/sc_drivers/r_riic/src/lld/r_rza2_riic_lld_int.c **** 
 665              		.loc 1 668 0
 666 0004 0300A0E3 		mov	r0, #3
 667              	.LVL74:
 668 0008 FEFFFFEB 		bl	intriicspi_proc_handler
 669              	.LVL75:
 670 000c 1080BDE8 		pop	{r4, pc}
 671              		.cfi_endproc
 672              	.LFE27:
 674              		.section	.text.intriic2spi_handler,"ax",%progbits
 675              		.align	2
 676              		.syntax unified
 677              		.arm
 678              		.fpu neon
 680              	intriic2spi_handler:
 681              	.LFB26:
 652:../generate/sc_drivers/r_riic/src/lld/r_rza2_riic_lld_int.c ****     intriicspi_proc_handler(RIIC_CH2);
 682              		.loc 1 652 0
 683              		.cfi_startproc
 684              		@ args = 0, pretend = 0, frame = 0
 685              		@ frame_needed = 0, uses_anonymous_args = 0
 686              	.LVL76:
 687 0000 10402DE9 		push	{r4, lr}
 688              		.cfi_def_cfa_offset 8
 689              		.cfi_offset 4, -8
 690              		.cfi_offset 14, -4
 653:../generate/sc_drivers/r_riic/src/lld/r_rza2_riic_lld_int.c **** 
 691              		.loc 1 653 0
 692 0004 0200A0E3 		mov	r0, #2
 693              	.LVL77:
 694 0008 FEFFFFEB 		bl	intriicspi_proc_handler
 695              	.LVL78:
 696 000c 1080BDE8 		pop	{r4, pc}
 697              		.cfi_endproc
 698              	.LFE26:
 700              		.section	.text.intriic1spi_handler,"ax",%progbits
 701              		.align	2
 702              		.syntax unified
 703              		.arm
 704              		.fpu neon
 706              	intriic1spi_handler:
 707              	.LFB25:
 637:../generate/sc_drivers/r_riic/src/lld/r_rza2_riic_lld_int.c ****     intriicspi_proc_handler(RIIC_CH1);
 708              		.loc 1 637 0
 709              		.cfi_startproc
 710              		@ args = 0, pretend = 0, frame = 0
 711              		@ frame_needed = 0, uses_anonymous_args = 0
 712              	.LVL79:
 713 0000 10402DE9 		push	{r4, lr}
 714              		.cfi_def_cfa_offset 8
 715              		.cfi_offset 4, -8
 716              		.cfi_offset 14, -4
 638:../generate/sc_drivers/r_riic/src/lld/r_rza2_riic_lld_int.c **** 
 717              		.loc 1 638 0
 718 0004 0100A0E3 		mov	r0, #1
 719              	.LVL80:
 720 0008 FEFFFFEB 		bl	intriicspi_proc_handler
 721              	.LVL81:
 722 000c 1080BDE8 		pop	{r4, pc}
 723              		.cfi_endproc
 724              	.LFE25:
 726              		.section	.text.intriic0spi_handler,"ax",%progbits
 727              		.align	2
 728              		.syntax unified
 729              		.arm
 730              		.fpu neon
 732              	intriic0spi_handler:
 733              	.LFB24:
 623:../generate/sc_drivers/r_riic/src/lld/r_rza2_riic_lld_int.c ****     intriicspi_proc_handler(RIIC_CH0);
 734              		.loc 1 623 0
 735              		.cfi_startproc
 736              		@ args = 0, pretend = 0, frame = 0
 737              		@ frame_needed = 0, uses_anonymous_args = 0
 738              	.LVL82:
 739 0000 10402DE9 		push	{r4, lr}
 740              		.cfi_def_cfa_offset 8
 741              		.cfi_offset 4, -8
 742              		.cfi_offset 14, -4
 624:../generate/sc_drivers/r_riic/src/lld/r_rza2_riic_lld_int.c **** }
 743              		.loc 1 624 0
 744 0004 0000A0E3 		mov	r0, #0
 745              	.LVL83:
 746 0008 FEFFFFEB 		bl	intriicspi_proc_handler
 747              	.LVL84:
 748 000c 1080BDE8 		pop	{r4, pc}
 749              		.cfi_endproc
 750              	.LFE24:
 752              		.section	.text.intriicti_proc_handler,"ax",%progbits
 753              		.align	2
 754              		.syntax unified
 755              		.arm
 756              		.fpu neon
 758              	intriicti_proc_handler:
 759              	.LFB13:
 435:../generate/sc_drivers/r_riic/src/lld/r_rza2_riic_lld_int.c ****     /* cast to int_t */
 760              		.loc 1 435 0
 761              		.cfi_startproc
 762              		@ args = 0, pretend = 0, frame = 0
 763              		@ frame_needed = 0, uses_anonymous_args = 0
 764              	.LVL85:
 765 0000 10402DE9 		push	{r4, lr}
 766              		.cfi_def_cfa_offset 8
 767              		.cfi_offset 4, -8
 768              		.cfi_offset 14, -4
 437:../generate/sc_drivers/r_riic/src/lld/r_rza2_riic_lld_int.c **** 
 769              		.loc 1 437 0
 770 0004 FEFFFFEB 		bl	r_riic_hld_set_tx_empty
 771              	.LVL86:
 772 0008 1080BDE8 		pop	{r4, pc}
 773              		.cfi_endproc
 774              	.LFE13:
 776              		.section	.text.intriic3ti_handler,"ax",%progbits
 777              		.align	2
 778              		.syntax unified
 779              		.arm
 780              		.fpu neon
 782              	intriic3ti_handler:
 783              	.LFB17:
 496:../generate/sc_drivers/r_riic/src/lld/r_rza2_riic_lld_int.c ****     intriicti_proc_handler(RIIC_CH3);
 784              		.loc 1 496 0
 785              		.cfi_startproc
 786              		@ args = 0, pretend = 0, frame = 0
 787              		@ frame_needed = 0, uses_anonymous_args = 0
 788              	.LVL87:
 789 0000 10402DE9 		push	{r4, lr}
 790              		.cfi_def_cfa_offset 8
 791              		.cfi_offset 4, -8
 792              		.cfi_offset 14, -4
 497:../generate/sc_drivers/r_riic/src/lld/r_rza2_riic_lld_int.c **** 
 793              		.loc 1 497 0
 794 0004 0300A0E3 		mov	r0, #3
 795              	.LVL88:
 796 0008 FEFFFFEB 		bl	intriicti_proc_handler
 797              	.LVL89:
 798 000c 1080BDE8 		pop	{r4, pc}
 799              		.cfi_endproc
 800              	.LFE17:
 802              		.section	.text.intriic2ti_handler,"ax",%progbits
 803              		.align	2
 804              		.syntax unified
 805              		.arm
 806              		.fpu neon
 808              	intriic2ti_handler:
 809              	.LFB16:
 481:../generate/sc_drivers/r_riic/src/lld/r_rza2_riic_lld_int.c ****     intriicti_proc_handler(RIIC_CH2);
 810              		.loc 1 481 0
 811              		.cfi_startproc
 812              		@ args = 0, pretend = 0, frame = 0
 813              		@ frame_needed = 0, uses_anonymous_args = 0
 814              	.LVL90:
 815 0000 10402DE9 		push	{r4, lr}
 816              		.cfi_def_cfa_offset 8
 817              		.cfi_offset 4, -8
 818              		.cfi_offset 14, -4
 482:../generate/sc_drivers/r_riic/src/lld/r_rza2_riic_lld_int.c **** 
 819              		.loc 1 482 0
 820 0004 0200A0E3 		mov	r0, #2
 821              	.LVL91:
 822 0008 FEFFFFEB 		bl	intriicti_proc_handler
 823              	.LVL92:
 824 000c 1080BDE8 		pop	{r4, pc}
 825              		.cfi_endproc
 826              	.LFE16:
 828              		.section	.text.intriic1ti_handler,"ax",%progbits
 829              		.align	2
 830              		.syntax unified
 831              		.arm
 832              		.fpu neon
 834              	intriic1ti_handler:
 835              	.LFB15:
 466:../generate/sc_drivers/r_riic/src/lld/r_rza2_riic_lld_int.c ****     intriicti_proc_handler(RIIC_CH1);
 836              		.loc 1 466 0
 837              		.cfi_startproc
 838              		@ args = 0, pretend = 0, frame = 0
 839              		@ frame_needed = 0, uses_anonymous_args = 0
 840              	.LVL93:
 841 0000 10402DE9 		push	{r4, lr}
 842              		.cfi_def_cfa_offset 8
 843              		.cfi_offset 4, -8
 844              		.cfi_offset 14, -4
 467:../generate/sc_drivers/r_riic/src/lld/r_rza2_riic_lld_int.c **** 
 845              		.loc 1 467 0
 846 0004 0100A0E3 		mov	r0, #1
 847              	.LVL94:
 848 0008 FEFFFFEB 		bl	intriicti_proc_handler
 849              	.LVL95:
 850 000c 1080BDE8 		pop	{r4, pc}
 851              		.cfi_endproc
 852              	.LFE15:
 854              		.section	.text.intriic0ti_handler,"ax",%progbits
 855              		.align	2
 856              		.syntax unified
 857              		.arm
 858              		.fpu neon
 860              	intriic0ti_handler:
 861              	.LFB14:
 451:../generate/sc_drivers/r_riic/src/lld/r_rza2_riic_lld_int.c ****     intriicti_proc_handler(RIIC_CH0);
 862              		.loc 1 451 0
 863              		.cfi_startproc
 864              		@ args = 0, pretend = 0, frame = 0
 865              		@ frame_needed = 0, uses_anonymous_args = 0
 866              	.LVL96:
 867 0000 10402DE9 		push	{r4, lr}
 868              		.cfi_def_cfa_offset 8
 869              		.cfi_offset 4, -8
 870              		.cfi_offset 14, -4
 452:../generate/sc_drivers/r_riic/src/lld/r_rza2_riic_lld_int.c **** 
 871              		.loc 1 452 0
 872 0004 0000A0E3 		mov	r0, #0
 873              	.LVL97:
 874 0008 FEFFFFEB 		bl	intriicti_proc_handler
 875              	.LVL98:
 876 000c 1080BDE8 		pop	{r4, pc}
 877              		.cfi_endproc
 878              	.LFE14:
 880              		.section	.text.intriicri_proc_handler,"ax",%progbits
 881              		.align	2
 882              		.syntax unified
 883              		.arm
 884              		.fpu neon
 886              	intriicri_proc_handler:
 887              	.LFB8:
 360:../generate/sc_drivers/r_riic/src/lld/r_rza2_riic_lld_int.c ****     /* cast channel to int_t */
 888              		.loc 1 360 0
 889              		.cfi_startproc
 890              		@ args = 0, pretend = 0, frame = 0
 891              		@ frame_needed = 0, uses_anonymous_args = 0
 892              	.LVL99:
 893 0000 10402DE9 		push	{r4, lr}
 894              		.cfi_def_cfa_offset 8
 895              		.cfi_offset 4, -8
 896              		.cfi_offset 14, -4
 362:../generate/sc_drivers/r_riic/src/lld/r_rza2_riic_lld_int.c **** }
 897              		.loc 1 362 0
 898 0004 FEFFFFEB 		bl	r_riic_hld_set_rx_full
 899              	.LVL100:
 900 0008 1080BDE8 		pop	{r4, pc}
 901              		.cfi_endproc
 902              	.LFE8:
 904              		.section	.text.intriic3ri_handler,"ax",%progbits
 905              		.align	2
 906              		.syntax unified
 907              		.arm
 908              		.fpu neon
 910              	intriic3ri_handler:
 911              	.LFB12:
 420:../generate/sc_drivers/r_riic/src/lld/r_rza2_riic_lld_int.c ****     intriicri_proc_handler(RIIC_CH3);
 912              		.loc 1 420 0
 913              		.cfi_startproc
 914              		@ args = 0, pretend = 0, frame = 0
 915              		@ frame_needed = 0, uses_anonymous_args = 0
 916              	.LVL101:
 917 0000 10402DE9 		push	{r4, lr}
 918              		.cfi_def_cfa_offset 8
 919              		.cfi_offset 4, -8
 920              		.cfi_offset 14, -4
 421:../generate/sc_drivers/r_riic/src/lld/r_rza2_riic_lld_int.c **** 
 921              		.loc 1 421 0
 922 0004 0300A0E3 		mov	r0, #3
 923              	.LVL102:
 924 0008 FEFFFFEB 		bl	intriicri_proc_handler
 925              	.LVL103:
 926 000c 1080BDE8 		pop	{r4, pc}
 927              		.cfi_endproc
 928              	.LFE12:
 930              		.section	.text.intriic2ri_handler,"ax",%progbits
 931              		.align	2
 932              		.syntax unified
 933              		.arm
 934              		.fpu neon
 936              	intriic2ri_handler:
 937              	.LFB11:
 405:../generate/sc_drivers/r_riic/src/lld/r_rza2_riic_lld_int.c ****     intriicri_proc_handler(RIIC_CH2);
 938              		.loc 1 405 0
 939              		.cfi_startproc
 940              		@ args = 0, pretend = 0, frame = 0
 941              		@ frame_needed = 0, uses_anonymous_args = 0
 942              	.LVL104:
 943 0000 10402DE9 		push	{r4, lr}
 944              		.cfi_def_cfa_offset 8
 945              		.cfi_offset 4, -8
 946              		.cfi_offset 14, -4
 406:../generate/sc_drivers/r_riic/src/lld/r_rza2_riic_lld_int.c **** 
 947              		.loc 1 406 0
 948 0004 0200A0E3 		mov	r0, #2
 949              	.LVL105:
 950 0008 FEFFFFEB 		bl	intriicri_proc_handler
 951              	.LVL106:
 952 000c 1080BDE8 		pop	{r4, pc}
 953              		.cfi_endproc
 954              	.LFE11:
 956              		.section	.text.intriic1ri_handler,"ax",%progbits
 957              		.align	2
 958              		.syntax unified
 959              		.arm
 960              		.fpu neon
 962              	intriic1ri_handler:
 963              	.LFB10:
 390:../generate/sc_drivers/r_riic/src/lld/r_rza2_riic_lld_int.c ****     intriicri_proc_handler(RIIC_CH1);
 964              		.loc 1 390 0
 965              		.cfi_startproc
 966              		@ args = 0, pretend = 0, frame = 0
 967              		@ frame_needed = 0, uses_anonymous_args = 0
 968              	.LVL107:
 969 0000 10402DE9 		push	{r4, lr}
 970              		.cfi_def_cfa_offset 8
 971              		.cfi_offset 4, -8
 972              		.cfi_offset 14, -4
 391:../generate/sc_drivers/r_riic/src/lld/r_rza2_riic_lld_int.c **** 
 973              		.loc 1 391 0
 974 0004 0100A0E3 		mov	r0, #1
 975              	.LVL108:
 976 0008 FEFFFFEB 		bl	intriicri_proc_handler
 977              	.LVL109:
 978 000c 1080BDE8 		pop	{r4, pc}
 979              		.cfi_endproc
 980              	.LFE10:
 982              		.section	.text.intriic0ri_handler,"ax",%progbits
 983              		.align	2
 984              		.syntax unified
 985              		.arm
 986              		.fpu neon
 988              	intriic0ri_handler:
 989              	.LFB9:
 375:../generate/sc_drivers/r_riic/src/lld/r_rza2_riic_lld_int.c ****     intriicri_proc_handler(RIIC_CH0);
 990              		.loc 1 375 0
 991              		.cfi_startproc
 992              		@ args = 0, pretend = 0, frame = 0
 993              		@ frame_needed = 0, uses_anonymous_args = 0
 994              	.LVL110:
 995 0000 10402DE9 		push	{r4, lr}
 996              		.cfi_def_cfa_offset 8
 997              		.cfi_offset 4, -8
 998              		.cfi_offset 14, -4
 376:../generate/sc_drivers/r_riic/src/lld/r_rza2_riic_lld_int.c **** 
 999              		.loc 1 376 0
 1000 0004 0000A0E3 		mov	r0, #0
 1001              	.LVL111:
 1002 0008 FEFFFFEB 		bl	intriicri_proc_handler
 1003              	.LVL112:
 1004 000c 1080BDE8 		pop	{r4, pc}
 1005              		.cfi_endproc
 1006              	.LFE9:
 1008              		.section	.text.intriictei_proc_handler,"ax",%progbits
 1009              		.align	2
 1010              		.syntax unified
 1011              		.arm
 1012              		.fpu neon
 1014              	intriictei_proc_handler:
 1015              	.LFB3:
 274:../generate/sc_drivers/r_riic/src/lld/r_rza2_riic_lld_int.c ****     uint32_t dummy;
 1016              		.loc 1 274 0
 1017              		.cfi_startproc
 1018              		@ args = 0, pretend = 0, frame = 0
 1019              		@ frame_needed = 0, uses_anonymous_args = 0
 1020              	.LVL113:
 1021 0000 10402DE9 		push	{r4, lr}
 1022              		.cfi_def_cfa_offset 8
 1023              		.cfi_offset 4, -8
 1024              		.cfi_offset 14, -4
 1025 0004 0040A0E1 		mov	r4, r0
 277:../generate/sc_drivers/r_riic/src/lld/r_rza2_riic_lld_int.c **** 
 1026              		.loc 1 277 0
 1027 0008 FEFFFFEB 		bl	r_riic_hld_set_tx_end
 1028              	.LVL114:
 280:../generate/sc_drivers/r_riic/src/lld/r_rza2_riic_lld_int.c ****             RIIC_ICSR2_TEND);
 1029              		.loc 1 280 0
 1030 000c 003000E3 		movw	r3, #:lower16:.LANCHOR0
 1031 0010 003040E3 		movt	r3, #:upper16:.LANCHOR0
 1032 0014 044193E7 		ldr	r4, [r3, r4, lsl #2]
 1033              	.LVL115:
 1034 0018 244084E2 		add	r4, r4, #36
 1035 001c 4020A0E3 		mov	r2, #64
 1036 0020 0610A0E3 		mov	r1, #6
 1037 0024 0400A0E1 		mov	r0, r4
 1038 0028 FEFFFFEB 		bl	RZA_IO_RegRead_32
 1039              	.LVL116:
 284:../generate/sc_drivers/r_riic/src/lld/r_rza2_riic_lld_int.c ****                         0, RIIC_ICSR2_TEND_SHIFT, RIIC_ICSR2_TEND);
 1040              		.loc 1 284 0
 1041 002c 4030A0E3 		mov	r3, #64
 1042 0030 0620A0E3 		mov	r2, #6
 1043 0034 0010A0E3 		mov	r1, #0
 1044 0038 0400A0E1 		mov	r0, r4
 1045 003c FEFFFFEB 		bl	RZA_IO_RegWrite_32
 1046              	.LVL117:
 1047 0040 1080BDE8 		pop	{r4, pc}
 1048              		.cfi_endproc
 1049              	.LFE3:
 1051              		.section	.text.intriic3tei_handler,"ax",%progbits
 1052              		.align	2
 1053              		.syntax unified
 1054              		.arm
 1055              		.fpu neon
 1057              	intriic3tei_handler:
 1058              	.LFB7:
 345:../generate/sc_drivers/r_riic/src/lld/r_rza2_riic_lld_int.c ****     intriictei_proc_handler(RIIC_CH3);
 1059              		.loc 1 345 0
 1060              		.cfi_startproc
 1061              		@ args = 0, pretend = 0, frame = 0
 1062              		@ frame_needed = 0, uses_anonymous_args = 0
 1063              	.LVL118:
 1064 0000 10402DE9 		push	{r4, lr}
 1065              		.cfi_def_cfa_offset 8
 1066              		.cfi_offset 4, -8
 1067              		.cfi_offset 14, -4
 346:../generate/sc_drivers/r_riic/src/lld/r_rza2_riic_lld_int.c **** 
 1068              		.loc 1 346 0
 1069 0004 0300A0E3 		mov	r0, #3
 1070              	.LVL119:
 1071 0008 FEFFFFEB 		bl	intriictei_proc_handler
 1072              	.LVL120:
 1073 000c 1080BDE8 		pop	{r4, pc}
 1074              		.cfi_endproc
 1075              	.LFE7:
 1077              		.section	.text.intriic2tei_handler,"ax",%progbits
 1078              		.align	2
 1079              		.syntax unified
 1080              		.arm
 1081              		.fpu neon
 1083              	intriic2tei_handler:
 1084              	.LFB6:
 330:../generate/sc_drivers/r_riic/src/lld/r_rza2_riic_lld_int.c ****     intriictei_proc_handler(RIIC_CH2);
 1085              		.loc 1 330 0
 1086              		.cfi_startproc
 1087              		@ args = 0, pretend = 0, frame = 0
 1088              		@ frame_needed = 0, uses_anonymous_args = 0
 1089              	.LVL121:
 1090 0000 10402DE9 		push	{r4, lr}
 1091              		.cfi_def_cfa_offset 8
 1092              		.cfi_offset 4, -8
 1093              		.cfi_offset 14, -4
 331:../generate/sc_drivers/r_riic/src/lld/r_rza2_riic_lld_int.c **** 
 1094              		.loc 1 331 0
 1095 0004 0200A0E3 		mov	r0, #2
 1096              	.LVL122:
 1097 0008 FEFFFFEB 		bl	intriictei_proc_handler
 1098              	.LVL123:
 1099 000c 1080BDE8 		pop	{r4, pc}
 1100              		.cfi_endproc
 1101              	.LFE6:
 1103              		.section	.text.intriic1tei_handler,"ax",%progbits
 1104              		.align	2
 1105              		.syntax unified
 1106              		.arm
 1107              		.fpu neon
 1109              	intriic1tei_handler:
 1110              	.LFB5:
 315:../generate/sc_drivers/r_riic/src/lld/r_rza2_riic_lld_int.c ****     intriictei_proc_handler(RIIC_CH1);
 1111              		.loc 1 315 0
 1112              		.cfi_startproc
 1113              		@ args = 0, pretend = 0, frame = 0
 1114              		@ frame_needed = 0, uses_anonymous_args = 0
 1115              	.LVL124:
 1116 0000 10402DE9 		push	{r4, lr}
 1117              		.cfi_def_cfa_offset 8
 1118              		.cfi_offset 4, -8
 1119              		.cfi_offset 14, -4
 316:../generate/sc_drivers/r_riic/src/lld/r_rza2_riic_lld_int.c **** 
 1120              		.loc 1 316 0
 1121 0004 0100A0E3 		mov	r0, #1
 1122              	.LVL125:
 1123 0008 FEFFFFEB 		bl	intriictei_proc_handler
 1124              	.LVL126:
 1125 000c 1080BDE8 		pop	{r4, pc}
 1126              		.cfi_endproc
 1127              	.LFE5:
 1129              		.section	.text.intriic0tei_handler,"ax",%progbits
 1130              		.align	2
 1131              		.syntax unified
 1132              		.arm
 1133              		.fpu neon
 1135              	intriic0tei_handler:
 1136              	.LFB4:
 299:../generate/sc_drivers/r_riic/src/lld/r_rza2_riic_lld_int.c **** 
 1137              		.loc 1 299 0
 1138              		.cfi_startproc
 1139              		@ args = 0, pretend = 0, frame = 0
 1140              		@ frame_needed = 0, uses_anonymous_args = 0
 1141              	.LVL127:
 1142 0000 10402DE9 		push	{r4, lr}
 1143              		.cfi_def_cfa_offset 8
 1144              		.cfi_offset 4, -8
 1145              		.cfi_offset 14, -4
 301:../generate/sc_drivers/r_riic/src/lld/r_rza2_riic_lld_int.c **** 
 1146              		.loc 1 301 0
 1147 0004 0000A0E3 		mov	r0, #0
 1148              	.LVL128:
 1149 0008 FEFFFFEB 		bl	intriictei_proc_handler
 1150              	.LVL129:
 1151 000c 1080BDE8 		pop	{r4, pc}
 1152              		.cfi_endproc
 1153              	.LFE4:
 1155              		.section	.text.interrupt_init,"ax",%progbits
 1156              		.align	2
 1157              		.global	interrupt_init
 1158              		.syntax unified
 1159              		.arm
 1160              		.fpu neon
 1162              	interrupt_init:
 1163              	.LFB1:
 199:../generate/sc_drivers/r_riic/src/lld/r_rza2_riic_lld_int.c ****     R_INTC_RegistIntFunc(gs_riic_int_info[channel][RIIC_INT_TEI].int_num,
 1164              		.loc 1 199 0
 1165              		.cfi_startproc
 1166              		@ args = 0, pretend = 0, frame = 0
 1167              		@ frame_needed = 0, uses_anonymous_args = 0
 1168              	.LVL130:
 1169 0000 70402DE9 		push	{r4, r5, r6, lr}
 1170              		.cfi_def_cfa_offset 16
 1171              		.cfi_offset 4, -16
 1172              		.cfi_offset 5, -12
 1173              		.cfi_offset 6, -8
 1174              		.cfi_offset 14, -4
 1175 0004 0150A0E1 		mov	r5, r1
 200:../generate/sc_drivers/r_riic/src/lld/r_rza2_riic_lld_int.c ****             gs_riic_int_info[channel][RIIC_INT_TEI].int_handler);
 1176              		.loc 1 200 0
 1177 0008 003000E3 		movw	r3, #:lower16:.LANCHOR1
 1178 000c 003040E3 		movt	r3, #:upper16:.LANCHOR1
 1179 0010 004383E0 		add	r4, r3, r0, lsl #6
 1180 0014 B460D4E1 		ldrh	r6, [r4, #4]
 1181 0018 001393E7 		ldr	r1, [r3, r0, lsl #6]
 1182              	.LVL131:
 1183 001c 0600A0E1 		mov	r0, r6
 1184              	.LVL132:
 1185 0020 FEFFFFEB 		bl	R_INTC_RegistIntFunc
 1186              	.LVL133:
 202:../generate/sc_drivers/r_riic/src/lld/r_rza2_riic_lld_int.c ****     R_INTC_SetPriority(gs_riic_int_info[channel][RIIC_INT_TEI].int_num, p_cfg->tei_priority);
 1187              		.loc 1 202 0
 1188 0024 0600A0E1 		mov	r0, r6
 1189 0028 FEFFFFEB 		bl	R_INTC_Enable
 1190              	.LVL134:
 203:../generate/sc_drivers/r_riic/src/lld/r_rza2_riic_lld_int.c **** 
 1191              		.loc 1 203 0
 1192 002c 2C10D5E5 		ldrb	r1, [r5, #44]	@ zero_extendqisi2
 1193 0030 0600A0E1 		mov	r0, r6
 1194 0034 FEFFFFEB 		bl	R_INTC_SetPriority
 1195              	.LVL135:
 205:../generate/sc_drivers/r_riic/src/lld/r_rza2_riic_lld_int.c ****             gs_riic_int_info[channel][RIIC_INT_RI].int_handler);
 1196              		.loc 1 205 0
 1197 0038 BC60D4E1 		ldrh	r6, [r4, #12]
 1198 003c 081094E5 		ldr	r1, [r4, #8]
 1199 0040 0600A0E1 		mov	r0, r6
 1200 0044 FEFFFFEB 		bl	R_INTC_RegistIntFunc
 1201              	.LVL136:
 207:../generate/sc_drivers/r_riic/src/lld/r_rza2_riic_lld_int.c ****     R_INTC_SetPriority(gs_riic_int_info[channel][RIIC_INT_RI].int_num, p_cfg->ri_priority);
 1202              		.loc 1 207 0
 1203 0048 0600A0E1 		mov	r0, r6
 1204 004c FEFFFFEB 		bl	R_INTC_Enable
 1205              	.LVL137:
 208:../generate/sc_drivers/r_riic/src/lld/r_rza2_riic_lld_int.c **** 
 1206              		.loc 1 208 0
 1207 0050 2D10D5E5 		ldrb	r1, [r5, #45]	@ zero_extendqisi2
 1208 0054 0600A0E1 		mov	r0, r6
 1209 0058 FEFFFFEB 		bl	R_INTC_SetPriority
 1210              	.LVL138:
 210:../generate/sc_drivers/r_riic/src/lld/r_rza2_riic_lld_int.c ****             gs_riic_int_info[channel][RIIC_INT_TI].int_handler);
 1211              		.loc 1 210 0
 1212 005c B461D4E1 		ldrh	r6, [r4, #20]
 1213 0060 101094E5 		ldr	r1, [r4, #16]
 1214 0064 0600A0E1 		mov	r0, r6
 1215 0068 FEFFFFEB 		bl	R_INTC_RegistIntFunc
 1216              	.LVL139:
 212:../generate/sc_drivers/r_riic/src/lld/r_rza2_riic_lld_int.c ****     R_INTC_SetPriority(gs_riic_int_info[channel][RIIC_INT_TI].int_num, p_cfg->ti_priority);
 1217              		.loc 1 212 0
 1218 006c 0600A0E1 		mov	r0, r6
 1219 0070 FEFFFFEB 		bl	R_INTC_Enable
 1220              	.LVL140:
 213:../generate/sc_drivers/r_riic/src/lld/r_rza2_riic_lld_int.c **** 
 1221              		.loc 1 213 0
 1222 0074 2E10D5E5 		ldrb	r1, [r5, #46]	@ zero_extendqisi2
 1223 0078 0600A0E1 		mov	r0, r6
 1224 007c FEFFFFEB 		bl	R_INTC_SetPriority
 1225              	.LVL141:
 215:../generate/sc_drivers/r_riic/src/lld/r_rza2_riic_lld_int.c ****             gs_riic_int_info[channel][RIIC_INT_STI].int_handler);
 1226              		.loc 1 215 0
 1227 0080 B462D4E1 		ldrh	r6, [r4, #36]
 1228 0084 201094E5 		ldr	r1, [r4, #32]
 1229 0088 0600A0E1 		mov	r0, r6
 1230 008c FEFFFFEB 		bl	R_INTC_RegistIntFunc
 1231              	.LVL142:
 217:../generate/sc_drivers/r_riic/src/lld/r_rza2_riic_lld_int.c ****     R_INTC_SetPriority(gs_riic_int_info[channel][RIIC_INT_STI].int_num, p_cfg->sti_priority);
 1232              		.loc 1 217 0
 1233 0090 0600A0E1 		mov	r0, r6
 1234 0094 FEFFFFEB 		bl	R_INTC_Enable
 1235              	.LVL143:
 218:../generate/sc_drivers/r_riic/src/lld/r_rza2_riic_lld_int.c **** 
 1236              		.loc 1 218 0
 1237 0098 3010D5E5 		ldrb	r1, [r5, #48]	@ zero_extendqisi2
 1238 009c 0600A0E1 		mov	r0, r6
 1239 00a0 FEFFFFEB 		bl	R_INTC_SetPriority
 1240              	.LVL144:
 220:../generate/sc_drivers/r_riic/src/lld/r_rza2_riic_lld_int.c ****             gs_riic_int_info[channel][RIIC_INT_SPI].int_handler);
 1241              		.loc 1 220 0
 1242 00a4 BC61D4E1 		ldrh	r6, [r4, #28]
 1243 00a8 181094E5 		ldr	r1, [r4, #24]
 1244 00ac 0600A0E1 		mov	r0, r6
 1245 00b0 FEFFFFEB 		bl	R_INTC_RegistIntFunc
 1246              	.LVL145:
 222:../generate/sc_drivers/r_riic/src/lld/r_rza2_riic_lld_int.c ****     R_INTC_SetPriority(gs_riic_int_info[channel][RIIC_INT_SPI].int_num, p_cfg->spi_priority);
 1247              		.loc 1 222 0
 1248 00b4 0600A0E1 		mov	r0, r6
 1249 00b8 FEFFFFEB 		bl	R_INTC_Enable
 1250              	.LVL146:
 223:../generate/sc_drivers/r_riic/src/lld/r_rza2_riic_lld_int.c **** 
 1251              		.loc 1 223 0
 1252 00bc 2F10D5E5 		ldrb	r1, [r5, #47]	@ zero_extendqisi2
 1253 00c0 0600A0E1 		mov	r0, r6
 1254 00c4 FEFFFFEB 		bl	R_INTC_SetPriority
 1255              	.LVL147:
 225:../generate/sc_drivers/r_riic/src/lld/r_rza2_riic_lld_int.c ****             gs_riic_int_info[channel][RIIC_INT_NAKI].int_handler);
 1256              		.loc 1 225 0
 1257 00c8 BC62D4E1 		ldrh	r6, [r4, #44]
 1258 00cc 281094E5 		ldr	r1, [r4, #40]
 1259 00d0 0600A0E1 		mov	r0, r6
 1260 00d4 FEFFFFEB 		bl	R_INTC_RegistIntFunc
 1261              	.LVL148:
 227:../generate/sc_drivers/r_riic/src/lld/r_rza2_riic_lld_int.c ****     R_INTC_SetPriority(gs_riic_int_info[channel][RIIC_INT_NAKI].int_num, p_cfg->naki_priority);
 1262              		.loc 1 227 0
 1263 00d8 0600A0E1 		mov	r0, r6
 1264 00dc FEFFFFEB 		bl	R_INTC_Enable
 1265              	.LVL149:
 228:../generate/sc_drivers/r_riic/src/lld/r_rza2_riic_lld_int.c **** 
 1266              		.loc 1 228 0
 1267 00e0 3110D5E5 		ldrb	r1, [r5, #49]	@ zero_extendqisi2
 1268 00e4 0600A0E1 		mov	r0, r6
 1269 00e8 FEFFFFEB 		bl	R_INTC_SetPriority
 1270              	.LVL150:
 230:../generate/sc_drivers/r_riic/src/lld/r_rza2_riic_lld_int.c ****             gs_riic_int_info[channel][RIIC_INT_ALI].int_handler);
 1271              		.loc 1 230 0
 1272 00ec B463D4E1 		ldrh	r6, [r4, #52]
 1273 00f0 301094E5 		ldr	r1, [r4, #48]
 1274 00f4 0600A0E1 		mov	r0, r6
 1275 00f8 FEFFFFEB 		bl	R_INTC_RegistIntFunc
 1276              	.LVL151:
 232:../generate/sc_drivers/r_riic/src/lld/r_rza2_riic_lld_int.c ****     R_INTC_SetPriority(gs_riic_int_info[channel][RIIC_INT_ALI].int_num, p_cfg->ali_priority);
 1277              		.loc 1 232 0
 1278 00fc 0600A0E1 		mov	r0, r6
 1279 0100 FEFFFFEB 		bl	R_INTC_Enable
 1280              	.LVL152:
 233:../generate/sc_drivers/r_riic/src/lld/r_rza2_riic_lld_int.c **** 
 1281              		.loc 1 233 0
 1282 0104 3210D5E5 		ldrb	r1, [r5, #50]	@ zero_extendqisi2
 1283 0108 0600A0E1 		mov	r0, r6
 1284 010c FEFFFFEB 		bl	R_INTC_SetPriority
 1285              	.LVL153:
 235:../generate/sc_drivers/r_riic/src/lld/r_rza2_riic_lld_int.c ****             gs_riic_int_info[channel][RIIC_INT_TMOI].int_handler);
 1286              		.loc 1 235 0
 1287 0110 BC63D4E1 		ldrh	r6, [r4, #60]
 1288 0114 381094E5 		ldr	r1, [r4, #56]
 1289 0118 0600A0E1 		mov	r0, r6
 1290 011c FEFFFFEB 		bl	R_INTC_RegistIntFunc
 1291              	.LVL154:
 237:../generate/sc_drivers/r_riic/src/lld/r_rza2_riic_lld_int.c ****     R_INTC_SetPriority(gs_riic_int_info[channel][RIIC_INT_TMOI].int_num, p_cfg->tmoi_priority);
 1292              		.loc 1 237 0
 1293 0120 0600A0E1 		mov	r0, r6
 1294 0124 FEFFFFEB 		bl	R_INTC_Enable
 1295              	.LVL155:
 238:../generate/sc_drivers/r_riic/src/lld/r_rza2_riic_lld_int.c **** }
 1296              		.loc 1 238 0
 1297 0128 3310D5E5 		ldrb	r1, [r5, #51]	@ zero_extendqisi2
 1298 012c 0600A0E1 		mov	r0, r6
 1299 0130 FEFFFFEB 		bl	R_INTC_SetPriority
 1300              	.LVL156:
 1301 0134 7080BDE8 		pop	{r4, r5, r6, pc}
 1302              		.cfi_endproc
 1303              	.LFE1:
 1305              		.section	.text.interrupt_uninit,"ax",%progbits
 1306              		.align	2
 1307              		.global	interrupt_uninit
 1308              		.syntax unified
 1309              		.arm
 1310              		.fpu neon
 1312              	interrupt_uninit:
 1313              	.LFB2:
 251:../generate/sc_drivers/r_riic/src/lld/r_rza2_riic_lld_int.c ****     e_riic_int_type_t int_type;
 1314              		.loc 1 251 0
 1315              		.cfi_startproc
 1316              		@ args = 0, pretend = 0, frame = 0
 1317              		@ frame_needed = 0, uses_anonymous_args = 0
 1318              	.LVL157:
 1319 0000 70402DE9 		push	{r4, r5, r6, lr}
 1320              		.cfi_def_cfa_offset 16
 1321              		.cfi_offset 4, -16
 1322              		.cfi_offset 5, -12
 1323              		.cfi_offset 6, -8
 1324              		.cfi_offset 14, -4
 1325 0004 0060A0E1 		mov	r6, r0
 1326              	.LVL158:
 254:../generate/sc_drivers/r_riic/src/lld/r_rza2_riic_lld_int.c ****     {
 1327              		.loc 1 254 0
 1328 0008 0040A0E3 		mov	r4, #0
 1329 000c 0B0000EA 		b	.L84
 1330              	.LVL159:
 1331              	.L85:
 256:../generate/sc_drivers/r_riic/src/lld/r_rza2_riic_lld_int.c ****         
 1332              		.loc 1 256 0 discriminator 3
 1333 0010 003000E3 		movw	r3, #:lower16:.LANCHOR1
 1334 0014 003040E3 		movt	r3, #:upper16:.LANCHOR1
 1335 0018 862184E0 		add	r2, r4, r6, lsl #3
 1336 001c 823183E0 		add	r3, r3, r2, lsl #3
 1337 0020 B450D3E1 		ldrh	r5, [r3, #4]
 1338 0024 0500A0E1 		mov	r0, r5
 1339 0028 FEFFFFEB 		bl	R_INTC_Disable
 1340              	.LVL160:
 260:../generate/sc_drivers/r_riic/src/lld/r_rza2_riic_lld_int.c ****     }
 1341              		.loc 1 260 0 discriminator 3
 1342 002c 0010A0E3 		mov	r1, #0
 1343 0030 0500A0E1 		mov	r0, r5
 1344 0034 FEFFFFEB 		bl	R_INTC_RegistIntFunc
 1345              	.LVL161:
 254:../generate/sc_drivers/r_riic/src/lld/r_rza2_riic_lld_int.c ****     {
 1346              		.loc 1 254 0 discriminator 3
 1347 0038 014084E2 		add	r4, r4, #1
 1348              	.LVL162:
 1349 003c 7440EFE6 		uxtb	r4, r4
 1350              	.LVL163:
 1351              	.L84:
 254:../generate/sc_drivers/r_riic/src/lld/r_rza2_riic_lld_int.c ****     {
 1352              		.loc 1 254 0 is_stmt 0 discriminator 1
 1353 0040 070054E3 		cmp	r4, #7
 1354 0044 F1FFFF9A 		bls	.L85
 262:../generate/sc_drivers/r_riic/src/lld/r_rza2_riic_lld_int.c **** /******************************************************************************
 1355              		.loc 1 262 0 is_stmt 1
 1356 0048 7080BDE8 		pop	{r4, r5, r6, pc}
 1357              		.cfi_endproc
 1358              	.LFE2:
 1360              		.section	.rodata.gs_riic_int_info,"a",%progbits
 1361              		.align	2
 1362              		.set	.LANCHOR1,. + 0
 1365              	gs_riic_int_info:
 1366 0000 00000000 		.word	intriic0tei_handler
 1367 0004 0801     		.short	264
 1368 0006 00       		.byte	0
 1369 0007 00       		.space	1
 1370 0008 00000000 		.word	intriic0ri_handler
 1371 000c 0901     		.short	265
 1372 000e 01       		.byte	1
 1373 000f 00       		.space	1
 1374 0010 00000000 		.word	intriic0ti_handler
 1375 0014 0A01     		.short	266
 1376 0016 01       		.byte	1
 1377 0017 00       		.space	1
 1378 0018 00000000 		.word	intriic0spi_handler
 1379 001c 0B01     		.short	267
 1380 001e 00       		.byte	0
 1381 001f 00       		.space	1
 1382 0020 00000000 		.word	intriic0sti_handler
 1383 0024 0C01     		.short	268
 1384 0026 00       		.byte	0
 1385 0027 00       		.space	1
 1386 0028 00000000 		.word	intriic0naki_handler
 1387 002c 0D01     		.short	269
 1388 002e 00       		.byte	0
 1389 002f 00       		.space	1
 1390 0030 00000000 		.word	intriic0ali_handler
 1391 0034 0E01     		.short	270
 1392 0036 00       		.byte	0
 1393 0037 00       		.space	1
 1394 0038 00000000 		.word	intriic0tmoi_handler
 1395 003c 0F01     		.short	271
 1396 003e 00       		.byte	0
 1397 003f 00       		.space	1
 1398 0040 00000000 		.word	intriic1tei_handler
 1399 0044 1001     		.short	272
 1400 0046 00       		.byte	0
 1401 0047 00       		.space	1
 1402 0048 00000000 		.word	intriic1ri_handler
 1403 004c 1101     		.short	273
 1404 004e 01       		.byte	1
 1405 004f 00       		.space	1
 1406 0050 00000000 		.word	intriic1ti_handler
 1407 0054 1201     		.short	274
 1408 0056 01       		.byte	1
 1409 0057 00       		.space	1
 1410 0058 00000000 		.word	intriic1spi_handler
 1411 005c 1301     		.short	275
 1412 005e 00       		.byte	0
 1413 005f 00       		.space	1
 1414 0060 00000000 		.word	intriic1sti_handler
 1415 0064 1401     		.short	276
 1416 0066 00       		.byte	0
 1417 0067 00       		.space	1
 1418 0068 00000000 		.word	intriic1naki_handler
 1419 006c 1501     		.short	277
 1420 006e 00       		.byte	0
 1421 006f 00       		.space	1
 1422 0070 00000000 		.word	intriic1ali_handler
 1423 0074 1601     		.short	278
 1424 0076 00       		.byte	0
 1425 0077 00       		.space	1
 1426 0078 00000000 		.word	intriic1tmoi_handler
 1427 007c 1701     		.short	279
 1428 007e 00       		.byte	0
 1429 007f 00       		.space	1
 1430 0080 00000000 		.word	intriic2tei_handler
 1431 0084 1801     		.short	280
 1432 0086 00       		.byte	0
 1433 0087 00       		.space	1
 1434 0088 00000000 		.word	intriic2ri_handler
 1435 008c 1901     		.short	281
 1436 008e 01       		.byte	1
 1437 008f 00       		.space	1
 1438 0090 00000000 		.word	intriic2ti_handler
 1439 0094 1A01     		.short	282
 1440 0096 01       		.byte	1
 1441 0097 00       		.space	1
 1442 0098 00000000 		.word	intriic2spi_handler
 1443 009c 1B01     		.short	283
 1444 009e 00       		.byte	0
 1445 009f 00       		.space	1
 1446 00a0 00000000 		.word	intriic2sti_handler
 1447 00a4 1C01     		.short	284
 1448 00a6 00       		.byte	0
 1449 00a7 00       		.space	1
 1450 00a8 00000000 		.word	intriic2naki_handler
 1451 00ac 1D01     		.short	285
 1452 00ae 00       		.byte	0
 1453 00af 00       		.space	1
 1454 00b0 00000000 		.word	intriic2ali_handler
 1455 00b4 1E01     		.short	286
 1456 00b6 00       		.byte	0
 1457 00b7 00       		.space	1
 1458 00b8 00000000 		.word	intriic2tmoi_handler
 1459 00bc 1F01     		.short	287
 1460 00be 00       		.byte	0
 1461 00bf 00       		.space	1
 1462 00c0 00000000 		.word	intriic3tei_handler
 1463 00c4 2001     		.short	288
 1464 00c6 00       		.byte	0
 1465 00c7 00       		.space	1
 1466 00c8 00000000 		.word	intriic3ri_handler
 1467 00cc 2101     		.short	289
 1468 00ce 01       		.byte	1
 1469 00cf 00       		.space	1
 1470 00d0 00000000 		.word	intriic3ti_handler
 1471 00d4 2201     		.short	290
 1472 00d6 01       		.byte	1
 1473 00d7 00       		.space	1
 1474 00d8 00000000 		.word	intriic3spi_handler
 1475 00dc 2301     		.short	291
 1476 00de 00       		.byte	0
 1477 00df 00       		.space	1
 1478 00e0 00000000 		.word	intriic3sti_handler
 1479 00e4 2401     		.short	292
 1480 00e6 00       		.byte	0
 1481 00e7 00       		.space	1
 1482 00e8 00000000 		.word	intriic3naki_handler
 1483 00ec 2501     		.short	293
 1484 00ee 00       		.byte	0
 1485 00ef 00       		.space	1
 1486 00f0 00000000 		.word	intriic3ali_handler
 1487 00f4 2601     		.short	294
 1488 00f6 00       		.byte	0
 1489 00f7 00       		.space	1
 1490 00f8 00000000 		.word	intriic3tmoi_handler
 1491 00fc 2701     		.short	295
 1492 00fe 00       		.byte	0
 1493 00ff 00       		.space	1
 1494              		.section	.rodata.gsp_riic,"a",%progbits
 1495              		.align	2
 1496              		.set	.LANCHOR0,. + 0
 1499              	gsp_riic:
 1500 0000 00A003E8 		.word	-402415616
 1501 0004 00A403E8 		.word	-402414592
 1502 0008 00A803E8 		.word	-402413568
 1503 000c 00AC03E8 		.word	-402412544
 1504              		.text
 1505              	.Letext0:
 1506              		.file 2 "c:\\program files (x86)\\gnu tools arm embedded\\6 2017-q2-update\\arm-none-eabi\\include
 1507              		.file 3 "c:\\program files (x86)\\gnu tools arm embedded\\6 2017-q2-update\\arm-none-eabi\\include
 1508              		.file 4 "c:\\program files (x86)\\gnu tools arm embedded\\6 2017-q2-update\\arm-none-eabi\\include
 1509              		.file 5 "c:\\program files (x86)\\gnu tools arm embedded\\6 2017-q2-update\\arm-none-eabi\\include
 1510              		.file 6 "c:\\program files (x86)\\gnu tools arm embedded\\6 2017-q2-update\\lib\\gcc\\arm-none-eab
 1511              		.file 7 "c:\\program files (x86)\\gnu tools arm embedded\\6 2017-q2-update\\arm-none-eabi\\include
 1512              		.file 8 "c:\\program files (x86)\\gnu tools arm embedded\\6 2017-q2-update\\arm-none-eabi\\include
 1513              		.file 9 "C:/Renesas/e2studio_2021_01_workspace_RZA2M_ANPR/ANPR_RZA2M_GR_MANGO/generate/system/inc/
 1514              		.file 10 "C:/Renesas/e2studio_2021_01_workspace_RZA2M_ANPR/ANPR_RZA2M_GR_MANGO/generate/system/iod
 1515              		.file 11 "C:/Renesas/e2studio_2021_01_workspace_RZA2M_ANPR/ANPR_RZA2M_GR_MANGO/generate/system/inc
 1516              		.file 12 "c:\\program files (x86)\\gnu tools arm embedded\\6 2017-q2-update\\arm-none-eabi\\includ
 1517              		.file 13 "c:\\program files (x86)\\gnu tools arm embedded\\6 2017-q2-update\\arm-none-eabi\\includ
 1518              		.file 14 "C:/Renesas/e2studio_2021_01_workspace_RZA2M_ANPR/ANPR_RZA2M_GR_MANGO/generate/sc_drivers
 1519              		.file 15 "C:/Renesas/e2studio_2021_01_workspace_RZA2M_ANPR/ANPR_RZA2M_GR_MANGO/generate/sc_drivers
 1520              		.file 16 "C:/Renesas/e2studio_2021_01_workspace_RZA2M_ANPR/ANPR_RZA2M_GR_MANGO/generate/drivers/r_
 1521              		.file 17 "C:/Renesas/e2studio_2021_01_workspace_RZA2M_ANPR/ANPR_RZA2M_GR_MANGO/generate/drivers/r_
 1522              		.file 18 "C:/Renesas/e2studio_2021_01_workspace_RZA2M_ANPR/ANPR_RZA2M_GR_MANGO/generate/drivers/r_
 1523              		.file 19 "C:/Renesas/e2studio_2021_01_workspace_RZA2M_ANPR/ANPR_RZA2M_GR_MANGO/generate/sc_drivers
 1524              		.file 20 "C:/Renesas/e2studio_2021_01_workspace_RZA2M_ANPR/ANPR_RZA2M_GR_MANGO/generate/drivers/r_
 1525              		.file 21 "C:/Renesas/e2studio_2021_01_workspace_RZA2M_ANPR/ANPR_RZA2M_GR_MANGO/generate/sc_drivers
 1526              		.file 22 "C:/Renesas/e2studio_2021_01_workspace_RZA2M_ANPR/ANPR_RZA2M_GR_MANGO/generate/sc_drivers
 1527              		.file 23 "C:/Renesas/e2studio_2021_01_workspace_RZA2M_ANPR/ANPR_RZA2M_GR_MANGO/generate/system/inc
DEFINED SYMBOLS
                            *ABS*:00000000 r_rza2_riic_lld_int.c
C:\Users\a5050395\AppData\Local\Temp\ccCdoFuo.s:17     .text.intriictmoi_proc_handler:00000000 $a
C:\Users\a5050395\AppData\Local\Temp\ccCdoFuo.s:22     .text.intriictmoi_proc_handler:00000000 intriictmoi_proc_handler
C:\Users\a5050395\AppData\Local\Temp\ccCdoFuo.s:1496   .rodata.gsp_riic:00000000 .LANCHOR0
C:\Users\a5050395\AppData\Local\Temp\ccCdoFuo.s:61     .text.intriic3tmoi_handler:00000000 $a
C:\Users\a5050395\AppData\Local\Temp\ccCdoFuo.s:66     .text.intriic3tmoi_handler:00000000 intriic3tmoi_handler
C:\Users\a5050395\AppData\Local\Temp\ccCdoFuo.s:87     .text.intriic2tmoi_handler:00000000 $a
C:\Users\a5050395\AppData\Local\Temp\ccCdoFuo.s:92     .text.intriic2tmoi_handler:00000000 intriic2tmoi_handler
C:\Users\a5050395\AppData\Local\Temp\ccCdoFuo.s:113    .text.intriic1tmoi_handler:00000000 $a
C:\Users\a5050395\AppData\Local\Temp\ccCdoFuo.s:118    .text.intriic1tmoi_handler:00000000 intriic1tmoi_handler
C:\Users\a5050395\AppData\Local\Temp\ccCdoFuo.s:139    .text.intriic0tmoi_handler:00000000 $a
C:\Users\a5050395\AppData\Local\Temp\ccCdoFuo.s:144    .text.intriic0tmoi_handler:00000000 intriic0tmoi_handler
C:\Users\a5050395\AppData\Local\Temp\ccCdoFuo.s:165    .text.intriicali_proc_handler:00000000 $a
C:\Users\a5050395\AppData\Local\Temp\ccCdoFuo.s:170    .text.intriicali_proc_handler:00000000 intriicali_proc_handler
C:\Users\a5050395\AppData\Local\Temp\ccCdoFuo.s:208    .text.intriic3ali_handler:00000000 $a
C:\Users\a5050395\AppData\Local\Temp\ccCdoFuo.s:213    .text.intriic3ali_handler:00000000 intriic3ali_handler
C:\Users\a5050395\AppData\Local\Temp\ccCdoFuo.s:234    .text.intriic2ali_handler:00000000 $a
C:\Users\a5050395\AppData\Local\Temp\ccCdoFuo.s:239    .text.intriic2ali_handler:00000000 intriic2ali_handler
C:\Users\a5050395\AppData\Local\Temp\ccCdoFuo.s:260    .text.intriic1ali_handler:00000000 $a
C:\Users\a5050395\AppData\Local\Temp\ccCdoFuo.s:265    .text.intriic1ali_handler:00000000 intriic1ali_handler
C:\Users\a5050395\AppData\Local\Temp\ccCdoFuo.s:286    .text.intriic0ali_handler:00000000 $a
C:\Users\a5050395\AppData\Local\Temp\ccCdoFuo.s:291    .text.intriic0ali_handler:00000000 intriic0ali_handler
C:\Users\a5050395\AppData\Local\Temp\ccCdoFuo.s:312    .text.intriicnaki_proc_handler:00000000 $a
C:\Users\a5050395\AppData\Local\Temp\ccCdoFuo.s:317    .text.intriicnaki_proc_handler:00000000 intriicnaki_proc_handler
C:\Users\a5050395\AppData\Local\Temp\ccCdoFuo.s:355    .text.intriic3naki_handler:00000000 $a
C:\Users\a5050395\AppData\Local\Temp\ccCdoFuo.s:360    .text.intriic3naki_handler:00000000 intriic3naki_handler
C:\Users\a5050395\AppData\Local\Temp\ccCdoFuo.s:381    .text.intriic2naki_handler:00000000 $a
C:\Users\a5050395\AppData\Local\Temp\ccCdoFuo.s:386    .text.intriic2naki_handler:00000000 intriic2naki_handler
C:\Users\a5050395\AppData\Local\Temp\ccCdoFuo.s:407    .text.intriic1naki_handler:00000000 $a
C:\Users\a5050395\AppData\Local\Temp\ccCdoFuo.s:412    .text.intriic1naki_handler:00000000 intriic1naki_handler
C:\Users\a5050395\AppData\Local\Temp\ccCdoFuo.s:433    .text.intriic0naki_handler:00000000 $a
C:\Users\a5050395\AppData\Local\Temp\ccCdoFuo.s:438    .text.intriic0naki_handler:00000000 intriic0naki_handler
C:\Users\a5050395\AppData\Local\Temp\ccCdoFuo.s:459    .text.intriicsti_proc_handler:00000000 $a
C:\Users\a5050395\AppData\Local\Temp\ccCdoFuo.s:464    .text.intriicsti_proc_handler:00000000 intriicsti_proc_handler
C:\Users\a5050395\AppData\Local\Temp\ccCdoFuo.s:502    .text.intriic3sti_handler:00000000 $a
C:\Users\a5050395\AppData\Local\Temp\ccCdoFuo.s:507    .text.intriic3sti_handler:00000000 intriic3sti_handler
C:\Users\a5050395\AppData\Local\Temp\ccCdoFuo.s:528    .text.intriic2sti_handler:00000000 $a
C:\Users\a5050395\AppData\Local\Temp\ccCdoFuo.s:533    .text.intriic2sti_handler:00000000 intriic2sti_handler
C:\Users\a5050395\AppData\Local\Temp\ccCdoFuo.s:554    .text.intriic1sti_handler:00000000 $a
C:\Users\a5050395\AppData\Local\Temp\ccCdoFuo.s:559    .text.intriic1sti_handler:00000000 intriic1sti_handler
C:\Users\a5050395\AppData\Local\Temp\ccCdoFuo.s:580    .text.intriic0sti_handler:00000000 $a
C:\Users\a5050395\AppData\Local\Temp\ccCdoFuo.s:585    .text.intriic0sti_handler:00000000 intriic0sti_handler
C:\Users\a5050395\AppData\Local\Temp\ccCdoFuo.s:606    .text.intriicspi_proc_handler:00000000 $a
C:\Users\a5050395\AppData\Local\Temp\ccCdoFuo.s:611    .text.intriicspi_proc_handler:00000000 intriicspi_proc_handler
C:\Users\a5050395\AppData\Local\Temp\ccCdoFuo.s:649    .text.intriic3spi_handler:00000000 $a
C:\Users\a5050395\AppData\Local\Temp\ccCdoFuo.s:654    .text.intriic3spi_handler:00000000 intriic3spi_handler
C:\Users\a5050395\AppData\Local\Temp\ccCdoFuo.s:675    .text.intriic2spi_handler:00000000 $a
C:\Users\a5050395\AppData\Local\Temp\ccCdoFuo.s:680    .text.intriic2spi_handler:00000000 intriic2spi_handler
C:\Users\a5050395\AppData\Local\Temp\ccCdoFuo.s:701    .text.intriic1spi_handler:00000000 $a
C:\Users\a5050395\AppData\Local\Temp\ccCdoFuo.s:706    .text.intriic1spi_handler:00000000 intriic1spi_handler
C:\Users\a5050395\AppData\Local\Temp\ccCdoFuo.s:727    .text.intriic0spi_handler:00000000 $a
C:\Users\a5050395\AppData\Local\Temp\ccCdoFuo.s:732    .text.intriic0spi_handler:00000000 intriic0spi_handler
C:\Users\a5050395\AppData\Local\Temp\ccCdoFuo.s:753    .text.intriicti_proc_handler:00000000 $a
C:\Users\a5050395\AppData\Local\Temp\ccCdoFuo.s:758    .text.intriicti_proc_handler:00000000 intriicti_proc_handler
C:\Users\a5050395\AppData\Local\Temp\ccCdoFuo.s:777    .text.intriic3ti_handler:00000000 $a
C:\Users\a5050395\AppData\Local\Temp\ccCdoFuo.s:782    .text.intriic3ti_handler:00000000 intriic3ti_handler
C:\Users\a5050395\AppData\Local\Temp\ccCdoFuo.s:803    .text.intriic2ti_handler:00000000 $a
C:\Users\a5050395\AppData\Local\Temp\ccCdoFuo.s:808    .text.intriic2ti_handler:00000000 intriic2ti_handler
C:\Users\a5050395\AppData\Local\Temp\ccCdoFuo.s:829    .text.intriic1ti_handler:00000000 $a
C:\Users\a5050395\AppData\Local\Temp\ccCdoFuo.s:834    .text.intriic1ti_handler:00000000 intriic1ti_handler
C:\Users\a5050395\AppData\Local\Temp\ccCdoFuo.s:855    .text.intriic0ti_handler:00000000 $a
C:\Users\a5050395\AppData\Local\Temp\ccCdoFuo.s:860    .text.intriic0ti_handler:00000000 intriic0ti_handler
C:\Users\a5050395\AppData\Local\Temp\ccCdoFuo.s:881    .text.intriicri_proc_handler:00000000 $a
C:\Users\a5050395\AppData\Local\Temp\ccCdoFuo.s:886    .text.intriicri_proc_handler:00000000 intriicri_proc_handler
C:\Users\a5050395\AppData\Local\Temp\ccCdoFuo.s:905    .text.intriic3ri_handler:00000000 $a
C:\Users\a5050395\AppData\Local\Temp\ccCdoFuo.s:910    .text.intriic3ri_handler:00000000 intriic3ri_handler
C:\Users\a5050395\AppData\Local\Temp\ccCdoFuo.s:931    .text.intriic2ri_handler:00000000 $a
C:\Users\a5050395\AppData\Local\Temp\ccCdoFuo.s:936    .text.intriic2ri_handler:00000000 intriic2ri_handler
C:\Users\a5050395\AppData\Local\Temp\ccCdoFuo.s:957    .text.intriic1ri_handler:00000000 $a
C:\Users\a5050395\AppData\Local\Temp\ccCdoFuo.s:962    .text.intriic1ri_handler:00000000 intriic1ri_handler
C:\Users\a5050395\AppData\Local\Temp\ccCdoFuo.s:983    .text.intriic0ri_handler:00000000 $a
C:\Users\a5050395\AppData\Local\Temp\ccCdoFuo.s:988    .text.intriic0ri_handler:00000000 intriic0ri_handler
C:\Users\a5050395\AppData\Local\Temp\ccCdoFuo.s:1009   .text.intriictei_proc_handler:00000000 $a
C:\Users\a5050395\AppData\Local\Temp\ccCdoFuo.s:1014   .text.intriictei_proc_handler:00000000 intriictei_proc_handler
C:\Users\a5050395\AppData\Local\Temp\ccCdoFuo.s:1052   .text.intriic3tei_handler:00000000 $a
C:\Users\a5050395\AppData\Local\Temp\ccCdoFuo.s:1057   .text.intriic3tei_handler:00000000 intriic3tei_handler
C:\Users\a5050395\AppData\Local\Temp\ccCdoFuo.s:1078   .text.intriic2tei_handler:00000000 $a
C:\Users\a5050395\AppData\Local\Temp\ccCdoFuo.s:1083   .text.intriic2tei_handler:00000000 intriic2tei_handler
C:\Users\a5050395\AppData\Local\Temp\ccCdoFuo.s:1104   .text.intriic1tei_handler:00000000 $a
C:\Users\a5050395\AppData\Local\Temp\ccCdoFuo.s:1109   .text.intriic1tei_handler:00000000 intriic1tei_handler
C:\Users\a5050395\AppData\Local\Temp\ccCdoFuo.s:1130   .text.intriic0tei_handler:00000000 $a
C:\Users\a5050395\AppData\Local\Temp\ccCdoFuo.s:1135   .text.intriic0tei_handler:00000000 intriic0tei_handler
C:\Users\a5050395\AppData\Local\Temp\ccCdoFuo.s:1156   .text.interrupt_init:00000000 $a
C:\Users\a5050395\AppData\Local\Temp\ccCdoFuo.s:1162   .text.interrupt_init:00000000 interrupt_init
C:\Users\a5050395\AppData\Local\Temp\ccCdoFuo.s:1362   .rodata.gs_riic_int_info:00000000 .LANCHOR1
C:\Users\a5050395\AppData\Local\Temp\ccCdoFuo.s:1306   .text.interrupt_uninit:00000000 $a
C:\Users\a5050395\AppData\Local\Temp\ccCdoFuo.s:1312   .text.interrupt_uninit:00000000 interrupt_uninit
C:\Users\a5050395\AppData\Local\Temp\ccCdoFuo.s:1361   .rodata.gs_riic_int_info:00000000 $d
C:\Users\a5050395\AppData\Local\Temp\ccCdoFuo.s:1365   .rodata.gs_riic_int_info:00000000 gs_riic_int_info
C:\Users\a5050395\AppData\Local\Temp\ccCdoFuo.s:1495   .rodata.gsp_riic:00000000 $d
C:\Users\a5050395\AppData\Local\Temp\ccCdoFuo.s:1499   .rodata.gsp_riic:00000000 gsp_riic
                     .debug_frame:00000010 $d
                           .group:00000000 wm4.0.14fc17be114e5a2cba0959c511ea2aaf
                           .group:00000000 wm4.stddef.h.39.a38874c8f8a57e66301090908ec2a69f
                           .group:00000000 wm4._newlib_version.h.4.3572908597b70d672d181fc7fc501c19
                           .group:00000000 wm4.features.h.33.d97f2d646536517df901beeb5b9993f5
                           .group:00000000 wm4._default_types.h.15.247e5cd201eca3442cbf5404108c4935
                           .group:00000000 wm4._intsup.h.10.cce27fed8484c08a33f522034c30d2b5
                           .group:00000000 wm4._stdint.h.10.c24fa3af3bc1706662bb5593a907e841
                           .group:00000000 wm4.stdint.h.23.d53047a68f4a85177f80b422d52785ed
                           .group:00000000 wm4.newlib.h.8.5f2124c7e712be65f83b91ff86a0b1c1
                           .group:00000000 wm4.config.h.219.65a553ab5bef5482f0d7880b0d33015e
                           .group:00000000 wm4._ansi.h.23.9f8fcfa20193763fcf364fb91705c94b
                           .group:00000000 wm4.lock.h.2.1461d1fff82dffe8bfddc23307f6484f
                           .group:00000000 wm4._types.h.125.5cf8a495f1f7ef36777ad868a1e32068
                           .group:00000000 wm4.stddef.h.161.5349cb105733e8777bfb0cf53c4e3f34
                           .group:00000000 wm4._types.h.183.c226d164ceca1f2ecb9ae9360c54a098
                           .group:00000000 wm4.reent.h.17.23b059516345f8f5abfa01ddc379570f
                           .group:00000000 wm4.cdefs.h.47.e658329a094974ebad41b40c60502de7
                           .group:00000000 wm4.math.h.13.adb102f7bd7860b1f241e149d6914a1e
                           .group:00000000 wm4.r_typedefs.h.38.e90d9de5300d9ae020e5db8c5af88b3e
                           .group:00000000 wm4.adc_iodefine.h.29.14c6f50dce37432a7d004e4b1ce33da7
                           .group:00000000 wm4.bsc_iodefine.h.29.9281d1f3639266933964d6d0c2d42c4f
                           .group:00000000 wm4.ceu_iodefine.h.29.2a669d0b46fdde030a50db9e3c307fbf
                           .group:00000000 wm4.cpg_iodefine.h.29.d6fdc9cb4798723afd88b251d64c2ce2
                           .group:00000000 wm4.csi2link_iodefine.h.29.221c4531636a409f24d307b16341ada8
                           .group:00000000 wm4.dmac_iodefine.h.29.578fccc2cc1da886ec95a029bf874f01
                           .group:00000000 wm4.drpk_iodefine.h.29.580eb8588a2b2d43d2726fbe791e513f
                           .group:00000000 wm4.drw_iodefine.h.29.df30f4a4a34a79f6a86c4df91353dffe
                           .group:00000000 wm4.edmac_iodefine.h.29.33e8759349004a722f42f5429c1353f6
                           .group:00000000 wm4.eptpc_iodefine.h.29.74d8f9fab0f5549b56097fb9e937dde8
                           .group:00000000 wm4.etherc_iodefine.h.29.14602750383a574f1c21f994ad33a366
                           .group:00000000 wm4.gpio_iodefine.h.29.3d0b021c56839cee4ae5149903684e4b
                           .group:00000000 wm4.gpt_iodefine.h.29.557ead75d7b0585b898d3898b64c7f87
                           .group:00000000 wm4.hyper_iodefine.h.29.000caadbb74d881e97db55b39b432154
                           .group:00000000 wm4.imr_iodefine.h.29.77c022f017e711c4d51cc0145db1dad3
                           .group:00000000 wm4.intc_iodefine.h.29.b68f5799a35a7495d63b4cd458e1ba57
                           .group:00000000 wm4.irda_iodefine.h.29.37e67bd2005173d68a74d1cc937d8444
                           .group:00000000 wm4.jcu_iodefine.h.29.3aca452908962e7a7ccf26164751feda
                           .group:00000000 wm4.lvds_iodefine.h.29.c11cbe1900e5209c8dcc76c2336c16bc
                           .group:00000000 wm4.mtu_iodefine.h.29.5498fb974bb53caf05aa143c2deec781
                           .group:00000000 wm4.nandc_iodefine.h.29.e0b343306750f017ee86e169ad98efe9
                           .group:00000000 wm4.octa_iodefine.h.29.4cb0d62e4b9633e173858000dc1c626c
                           .group:00000000 wm4.ostm_iodefine.h.29.6914f7e330a1cf0008b34219adcdfed4
                           .group:00000000 wm4.pl_iodefine.h.29.abbb6d725aed990aa8343242bfe31416
                           .group:00000000 wm4.pmg_iodefine.h.29.8bcfbc4771a6f9b7dd4d6f504427219e
                           .group:00000000 wm4.poeg_iodefine.h.29.0d8e258d10986260cbc70cfb8c0ef273
                           .group:00000000 wm4.poe_iodefine.h.29.fe74e55e7b6b4afbe3596c74ba035e98
                           .group:00000000 wm4.prr_iodefine.h.29.c1f15576f7a27b9c83aa3b40f5b2f988
                           .group:00000000 wm4.ptpedmac_iodefine.h.29.cd24a93374ce35cebc41e26889d619ef
                           .group:00000000 wm4.rcanfd_iodefine.h.29.532dd48b82fcb61d63538aba4b6f1289
                           .group:00000000 wm4.rcan_iodefine.h.29.a47a89db1b35c12b54af48fa1956acba
                           .group:00000000 wm4.riic_iodefine.h.29.f96943d49800d297612c4af3bba5c943
                           .group:00000000 wm4.rspi_iodefine.h.29.7efa041fe34a7d27db66a7b337879dfe
                           .group:00000000 wm4.rtc_iodefine.h.29.6dc76be5ca3df69cecb5a81d06cc46b5
                           .group:00000000 wm4.scifa_iodefine.h.29.b04ccd664d71baaf31c75761c45b9c4d
                           .group:00000000 wm4.scim_iodefine.h.29.87d0760abf94446b00d826c797bf0ff2
                           .group:00000000 wm4.sdmmc_iodefine.h.29.e67e9815445e8057a3262d1566bea0db
                           .group:00000000 wm4.spdif_iodefine.h.29.59f5d70150fa200a4d8ee50be1ee34c8
                           .group:00000000 wm4.spibsc_iodefine.h.29.f4930f8b8da1140200204513a363c76f
                           .group:00000000 wm4.sprite_iodefine.h.29.55796d1fa083a2457fea4ece974a192e
                           .group:00000000 wm4.ssif_iodefine.h.29.054ec6d95f487f631f16aee39c85c47a
                           .group:00000000 wm4.usb_iodefine.h.29.6dc44ea388ba227e8fdcfb33c315887b
                           .group:00000000 wm4.vdc_iodefine.h.29.db282ded1f052d8567fbbd3b61ce8f7a
                           .group:00000000 wm4.vin_iodefine.h.29.9b392e5601347d53e64be3272934e170
                           .group:00000000 wm4.wdt_iodefine.h.29.ed07bb44b797072f8c28b41c64fdca30
                           .group:00000000 wm4.iobitmask.h.29.773e8f8428b0c21e1206a8c47a6d3927
                           .group:00000000 wm4.adc_iobitmask.h.29.48ba2821c8a4fc20022447ad9316d399
                           .group:00000000 wm4.bsc_iobitmask.h.29.115d15c4ad4b48e00598dcd62d33c637
                           .group:00000000 wm4.ceu_iobitmask.h.29.413b5b68bb3c2148786493166a57173e
                           .group:00000000 wm4.cpg_iobitmask.h.29.128911f0454a5339c74031b8d73e8fed
                           .group:00000000 wm4.csi2link_iobitmask.h.29.701c130cb17627664fe7c147084057cf
                           .group:00000000 wm4.dmac_iobitmask.h.29.98850e876107975c53dc0bb8ebb53eb5
                           .group:00000000 wm4.drpk_iobitmask.h.29.167e7cf6b1feb4d38b8903a46d8c35ac
                           .group:00000000 wm4.drw_iobitmask.h.29.71d46f2244f6e7ae6117fe6c41c5567d
                           .group:00000000 wm4.edmac_iobitmask.h.29.4e406d859155ba914663e1cf61cad89a
                           .group:00000000 wm4.eptpc_iobitmask.h.29.64bcd0a67db3a886572992ae6da8898c
                           .group:00000000 wm4.etherc_iobitmask.h.29.07b13cb10c426023658e5c51f952b6de
                           .group:00000000 wm4.gpio_iobitmask.h.29.ea8c1464682eb61f2d0763b97ed530f9
                           .group:00000000 wm4.gpt_iobitmask.h.29.94173800a704c5ba32e348ba97cd23cf
                           .group:00000000 wm4.hyper_iobitmask.h.29.f09febbc7b835674abe34ae75f3c700d
                           .group:00000000 wm4.imr2_iobitmask.h.29.fff702c4c9409266054e806327fa236b
                           .group:00000000 wm4.intc_iobitmask.h.29.6d3be2e47bf3d7eb7e91eeddcab863af
                           .group:00000000 wm4.irda_iobitmask.h.29.6f43dde454e599a1d4a8be2978ac9459
                           .group:00000000 wm4.jcu_iobitmask.h.29.9fd48851a81ff31733aa19b29e4846ad
                           .group:00000000 wm4.lvds_iobitmask.h.29.4a6f69c8911426fa05f0b05eab5f5e15
                           .group:00000000 wm4.mtu_iobitmask.h.29.0dfead439d92d73e6bac91e937399f90
                           .group:00000000 wm4.nandc_iobitmask.h.29.26dc88335e3fd43a64a25f5ba82d9db4
                           .group:00000000 wm4.octa_iobitmask.h.29.75dc3e3c70ac86c7551744de3991f583
                           .group:00000000 wm4.ostm_iobitmask.h.29.38ee9f4e1711e17bd3f38545ba631cde
                           .group:00000000 wm4.pl310_iobitmask.h.29.c1ef5625c0a9d67f24e89fe2fd7e4886
                           .group:00000000 wm4.pmg_iobitmask.h.29.d20cb8352080a58cf6cbf526935d968e
                           .group:00000000 wm4.poe3_iobitmask.h.29.3a3444cc2dbf606e2370573e16d57254
                           .group:00000000 wm4.poeg_iobitmask.h.29.5601eb8cf1161926d683c0720340f85d
                           .group:00000000 wm4.prr_iobitmask.h.29.52f8479a52e2236c122b5956e4bdbfce
                           .group:00000000 wm4.ptpedmac_iobitmask.h.29.494dcb2240ebba7fa20d0c2ab02007f7
                           .group:00000000 wm4.rcanfd_iobitmask.h.29.d172f89cbc4f253e32a4e10346bdc9f6
                           .group:00000000 wm4.rcan_iobitmask.h.29.c6f8b9b62e8fdc007f8b5f40c1f7e95d
                           .group:00000000 wm4.riic_iobitmask.h.29.faa52a36e584704b50a2c22ab62c84de
                           .group:00000000 wm4.rspi_iobitmask.h.29.2e257f44186c83ca40dbb0db2548623b
                           .group:00000000 wm4.rtc_iobitmask.h.29.2c82d3237997f1de7d2ac9d93855f3da
                           .group:00000000 wm4.scifa_iobitmask.h.29.c7af830569e0d6a26f3d66e3adc293d7
                           .group:00000000 wm4.scim_iobitmask.h.29.3b5e9d8b03a11c94acd93de96d2037f6
                           .group:00000000 wm4.sdmmc_iobitmask.h.29.21d47a25c0df1ed3d24cd6232ec3b4e7
                           .group:00000000 wm4.spdif_iobitmask.h.29.c16f83f628828ab24aa2b72615b93e69
                           .group:00000000 wm4.spibsc_iobitmask.h.29.8ade4a581f57cd5b82569a69eb5f0d67
                           .group:00000000 wm4.sprite_iobitmask.h.29.82888597faf7ebb3bc86b5f1018a2253
                           .group:00000000 wm4.ssif_iobitmask.h.29.482529b431f1ad627a02168620c61eee
                           .group:00000000 wm4.usb_iobitmask.h.29.aae4dfd463dfdd120bf5855c9dc97483
                           .group:00000000 wm4.vdc6_iobitmask.h.29.3ce0a3f9d2209ce71e4fec48b4ecb79a
                           .group:00000000 wm4.vin_iobitmask.h.29.576a1d6e4b2cf6cbd353044865e437f2
                           .group:00000000 wm4.wdt_iobitmask.h.29.c612db09eac33fb3da8d8aaee67287a9
                           .group:00000000 wm4.rza_io_regrw.h.33.07c1ee176b41ade23637426c80e4b86a
                           .group:00000000 wm4.driver.h.34.180df73e0731406f5e50150641059ede
                           .group:00000000 wm4.stdio.h.27.3fc80220048df77954e38daec3bb9670
                           .group:00000000 wm4.stddef.h.161.19e15733342b50ead2919490b095303e
                           .group:00000000 wm4.stdarg.h.34.3a23a216c0c293b3d2ea2e89281481e6
                           .group:00000000 wm4.types.h.40.e8c16e7ec36ba55f133d0616070e25fc
                           .group:00000000 wm4._endian.h.31.65a10590763c3dde1ac4a7f66d7d4891
                           .group:00000000 wm4.endian.h.9.49f3a4695c1b61e8a0808de3c4a106cb
                           .group:00000000 wm4._timeval.h.30.0e8bfd94e85db17dda3286ee81496fe6
                           .group:00000000 wm4.timespec.h.41.d855182eb0e690443ab8651bcedca6e1
                           .group:00000000 wm4.select.h.30.bbece7fa40993a78092dcc5805132560
                           .group:00000000 wm4.types.h.69.ed3eae3cf73030a737515151ebcab7a1
                           .group:00000000 wm4.stdio.h.2.4aa87247282eca6c8f36f9de33d8df1a
                           .group:00000000 wm4.stdio.h.81.8188691c2279eac7a223caa50f6694b9
                           .group:00000000 wm4.stdlib.h.13.4ed386f5c1a80d71e72172885d946ef2
                           .group:00000000 wm4.alloca.h.8.dfc0c703c47ec3e69746825b17d9e66d
                           .group:00000000 wm4.stdlib.h.56.d4493cd3736e51e9d56335045f26df45
                           .group:00000000 wm4.reent.h.91.b3ea049ebc5486622b61409b78486f84
                           .group:00000000 wm4._default_fcntl.h.6.b13d56891b95175b639f824a0fd1ed77
                           .group:00000000 wm4.time.h.8.db4619001f026d0b4874c029fef0e91f
                           .group:00000000 wm4.time.h.2.4581ce0ffb6627cfc02162c94bf846c9
                           .group:00000000 wm4.time.h.25.0e6a0fdbc9955f5707ed54246ed2e089
                           .group:00000000 wm4.time.h.162.d096f2f5887c52e271c4dc33d795dc64
                           .group:00000000 wm4.stat.h.71.d65ac61ff88c651e198008cfb38bda9c
                           .group:00000000 wm4.fcntl.h.9.9336f33d7f5028f694c75e6e224e0cf7
                           .group:00000000 wm4.r_devlink_wrapper.h.72.ad1de4c851513efa3aed0532ebca7ca2
                           .group:00000000 wm4.r_rza2m_riic_lld_cfg.h.34.420dadece52c9d581310a82d03ef7a9c
                           .group:00000000 wm4.r_rza2m_riic_lld_api.h.36.fbae5305df069aab4ee8737f6b4cc155
                           .group:00000000 wm4.r_riic_drv_api.h.81.8cfa166374387345d2e15a569d3903b9
                           .group:00000000 wm4.r_gpio_lld_rza2m.h.35.fd76d0816769697a06dd6f4a61c03021
                           .group:00000000 wm4.r_gpio_drv_api.h.82.9514441e942567d0eb0b23efaff62239
                           .group:00000000 wm4.r_riic_drv_sc_cfg.h.61.5b602d36b67415ece823db1792791a3e
                           .group:00000000 wm4.r_intc_lld_rza2m.h.35.148dee33e6a963828fdce2545668b517
                           .group:00000000 wm4.r_rza2m_riic_lld_prv.h.63.f25e9a27396c28527691a5b6942f7c3a

UNDEFINED SYMBOLS
r_riic_hld_set_timeout_asserted
RZA_IO_RegRead_32
RZA_IO_RegWrite_32
r_riic_hld_set_arbitrate_assert
r_riic_hld_set_nack_asserted
r_riic_hld_set_start_asserted
r_riic_hld_set_stop_asserted
r_riic_hld_set_tx_empty
r_riic_hld_set_rx_full
r_riic_hld_set_tx_end
R_INTC_RegistIntFunc
R_INTC_Enable
R_INTC_SetPriority
R_INTC_Disable
