   1              		.cpu cortex-a9
   2              		.eabi_attribute 28, 1
   3              		.eabi_attribute 20, 1
   4              		.eabi_attribute 21, 1
   5              		.eabi_attribute 23, 3
   6              		.eabi_attribute 24, 1
   7              		.eabi_attribute 25, 1
   8              		.eabi_attribute 26, 1
   9              		.eabi_attribute 30, 2
  10              		.eabi_attribute 34, 0
  11              		.eabi_attribute 18, 4
  12              		.file	"activations.cc"
  13              		.text
  14              	.Ltext0:
  15              		.cfi_sections	.debug_frame
  16              		.section	.text._ZN6tflite3ops5micro11activations8ReluInitEP13TfLiteContextPKcj,"ax",%progbits
  17              		.align	2
  18              		.global	_ZN6tflite3ops5micro11activations8ReluInitEP13TfLiteContextPKcj
  19              		.syntax unified
  20              		.arm
  21              		.fpu neon
  23              	_ZN6tflite3ops5micro11activations8ReluInitEP13TfLiteContextPKcj:
  24              		.fnstart
  25              	.LFB4179:
  26              		.file 1 "../src/tensorflow_lite/tensorflow/lite/micro/kernels/activations.cc"
   1:../src/tensorflow_lite/tensorflow/lite/micro/kernels/activations.cc **** /* Copyright 2019 The TensorFlow Authors. All Rights Reserved.
   2:../src/tensorflow_lite/tensorflow/lite/micro/kernels/activations.cc **** 
   3:../src/tensorflow_lite/tensorflow/lite/micro/kernels/activations.cc **** Licensed under the Apache License, Version 2.0 (the "License");
   4:../src/tensorflow_lite/tensorflow/lite/micro/kernels/activations.cc **** you may not use this file except in compliance with the License.
   5:../src/tensorflow_lite/tensorflow/lite/micro/kernels/activations.cc **** You may obtain a copy of the License at
   6:../src/tensorflow_lite/tensorflow/lite/micro/kernels/activations.cc **** 
   7:../src/tensorflow_lite/tensorflow/lite/micro/kernels/activations.cc ****     http://www.apache.org/licenses/LICENSE-2.0
   8:../src/tensorflow_lite/tensorflow/lite/micro/kernels/activations.cc **** 
   9:../src/tensorflow_lite/tensorflow/lite/micro/kernels/activations.cc **** Unless required by applicable law or agreed to in writing, software
  10:../src/tensorflow_lite/tensorflow/lite/micro/kernels/activations.cc **** distributed under the License is distributed on an "AS IS" BASIS,
  11:../src/tensorflow_lite/tensorflow/lite/micro/kernels/activations.cc **** WITHOUT WARRANTIES OR CONDITIONS OF ANY KIND, either express or implied.
  12:../src/tensorflow_lite/tensorflow/lite/micro/kernels/activations.cc **** See the License for the specific language governing permissions and
  13:../src/tensorflow_lite/tensorflow/lite/micro/kernels/activations.cc **** limitations under the License.
  14:../src/tensorflow_lite/tensorflow/lite/micro/kernels/activations.cc **** ==============================================================================*/
  15:../src/tensorflow_lite/tensorflow/lite/micro/kernels/activations.cc **** 
  16:../src/tensorflow_lite/tensorflow/lite/micro/kernels/activations.cc **** #include "tensorflow/lite/c/builtin_op_data.h"
  17:../src/tensorflow_lite/tensorflow/lite/micro/kernels/activations.cc **** #include "tensorflow/lite/c/common.h"
  18:../src/tensorflow_lite/tensorflow/lite/micro/kernels/activations.cc **** #include "tensorflow/lite/kernels/internal/common.h"
  19:../src/tensorflow_lite/tensorflow/lite/micro/kernels/activations.cc **** #include "tensorflow/lite/kernels/internal/quantization_util.h"
  20:../src/tensorflow_lite/tensorflow/lite/micro/kernels/activations.cc **** #include "tensorflow/lite/kernels/internal/tensor_ctypes.h"
  21:../src/tensorflow_lite/tensorflow/lite/micro/kernels/activations.cc **** #include "tensorflow/lite/kernels/internal/types.h"
  22:../src/tensorflow_lite/tensorflow/lite/micro/kernels/activations.cc **** #include "tensorflow/lite/kernels/kernel_util.h"
  23:../src/tensorflow_lite/tensorflow/lite/micro/kernels/activations.cc **** #include "tensorflow/lite/kernels/op_macros.h"
  24:../src/tensorflow_lite/tensorflow/lite/micro/kernels/activations.cc **** #include "tensorflow/lite/micro/kernels/kernel_util.h"
  25:../src/tensorflow_lite/tensorflow/lite/micro/kernels/activations.cc **** #include "tensorflow/lite/micro/micro_utils.h"
  26:../src/tensorflow_lite/tensorflow/lite/micro/kernels/activations.cc **** 
  27:../src/tensorflow_lite/tensorflow/lite/micro/kernels/activations.cc **** namespace tflite {
  28:../src/tensorflow_lite/tensorflow/lite/micro/kernels/activations.cc **** namespace ops {
  29:../src/tensorflow_lite/tensorflow/lite/micro/kernels/activations.cc **** namespace micro {
  30:../src/tensorflow_lite/tensorflow/lite/micro/kernels/activations.cc **** namespace activations {
  31:../src/tensorflow_lite/tensorflow/lite/micro/kernels/activations.cc **** namespace {
  32:../src/tensorflow_lite/tensorflow/lite/micro/kernels/activations.cc **** 
  33:../src/tensorflow_lite/tensorflow/lite/micro/kernels/activations.cc **** struct ReluOpData {
  34:../src/tensorflow_lite/tensorflow/lite/micro/kernels/activations.cc ****   ReluParams params;
  35:../src/tensorflow_lite/tensorflow/lite/micro/kernels/activations.cc **** };
  36:../src/tensorflow_lite/tensorflow/lite/micro/kernels/activations.cc **** 
  37:../src/tensorflow_lite/tensorflow/lite/micro/kernels/activations.cc **** struct Relu6OpData {
  38:../src/tensorflow_lite/tensorflow/lite/micro/kernels/activations.cc ****   int8_t six_int8;
  39:../src/tensorflow_lite/tensorflow/lite/micro/kernels/activations.cc ****   int8_t zero_int8;
  40:../src/tensorflow_lite/tensorflow/lite/micro/kernels/activations.cc ****   uint8_t six_uint8;
  41:../src/tensorflow_lite/tensorflow/lite/micro/kernels/activations.cc ****   uint8_t zero_uint8;
  42:../src/tensorflow_lite/tensorflow/lite/micro/kernels/activations.cc **** };
  43:../src/tensorflow_lite/tensorflow/lite/micro/kernels/activations.cc **** 
  44:../src/tensorflow_lite/tensorflow/lite/micro/kernels/activations.cc **** }  // namespace
  45:../src/tensorflow_lite/tensorflow/lite/micro/kernels/activations.cc **** 
  46:../src/tensorflow_lite/tensorflow/lite/micro/kernels/activations.cc **** constexpr int kInputTensor = 0;
  47:../src/tensorflow_lite/tensorflow/lite/micro/kernels/activations.cc **** constexpr int kOutputTensor = 0;
  48:../src/tensorflow_lite/tensorflow/lite/micro/kernels/activations.cc **** 
  49:../src/tensorflow_lite/tensorflow/lite/micro/kernels/activations.cc **** template <typename T>
  50:../src/tensorflow_lite/tensorflow/lite/micro/kernels/activations.cc **** inline void ReluQuantized(const ReluOpData& data,
  51:../src/tensorflow_lite/tensorflow/lite/micro/kernels/activations.cc ****                           const RuntimeShape& input_shape,
  52:../src/tensorflow_lite/tensorflow/lite/micro/kernels/activations.cc ****                           const RuntimeShape& output_shape, const T* input_data,
  53:../src/tensorflow_lite/tensorflow/lite/micro/kernels/activations.cc ****                           T* output_data) {
  54:../src/tensorflow_lite/tensorflow/lite/micro/kernels/activations.cc ****   const int flat_size = MatchingFlatSize(input_shape, output_shape);
  55:../src/tensorflow_lite/tensorflow/lite/micro/kernels/activations.cc ****   for (int i = 0; i < flat_size; ++i) {
  56:../src/tensorflow_lite/tensorflow/lite/micro/kernels/activations.cc ****     const int32_t val = static_cast<int32_t>(input_data[i]);
  57:../src/tensorflow_lite/tensorflow/lite/micro/kernels/activations.cc ****     int32_t clamped =
  58:../src/tensorflow_lite/tensorflow/lite/micro/kernels/activations.cc ****         data.params.output_offset +
  59:../src/tensorflow_lite/tensorflow/lite/micro/kernels/activations.cc ****         MultiplyByQuantizedMultiplier(val - data.params.input_offset,
  60:../src/tensorflow_lite/tensorflow/lite/micro/kernels/activations.cc ****                                       data.params.output_multiplier,
  61:../src/tensorflow_lite/tensorflow/lite/micro/kernels/activations.cc ****                                       data.params.output_shift);
  62:../src/tensorflow_lite/tensorflow/lite/micro/kernels/activations.cc ****     clamped = std::max(data.params.quantized_activation_min, clamped);
  63:../src/tensorflow_lite/tensorflow/lite/micro/kernels/activations.cc ****     clamped = std::min(data.params.quantized_activation_max, clamped);
  64:../src/tensorflow_lite/tensorflow/lite/micro/kernels/activations.cc ****     output_data[i] = static_cast<T>(clamped);
  65:../src/tensorflow_lite/tensorflow/lite/micro/kernels/activations.cc ****   }
  66:../src/tensorflow_lite/tensorflow/lite/micro/kernels/activations.cc **** }
  67:../src/tensorflow_lite/tensorflow/lite/micro/kernels/activations.cc **** 
  68:../src/tensorflow_lite/tensorflow/lite/micro/kernels/activations.cc **** template <typename T>
  69:../src/tensorflow_lite/tensorflow/lite/micro/kernels/activations.cc **** inline void CalculateReluOpData(const TfLiteTensor* input, TfLiteTensor* output,
  70:../src/tensorflow_lite/tensorflow/lite/micro/kernels/activations.cc ****                                 ReluOpData* data) {
  71:../src/tensorflow_lite/tensorflow/lite/micro/kernels/activations.cc ****   float act_min = 0.0;
  72:../src/tensorflow_lite/tensorflow/lite/micro/kernels/activations.cc ****   float act_max = std::numeric_limits<float>::infinity();
  73:../src/tensorflow_lite/tensorflow/lite/micro/kernels/activations.cc ****   double real_multiplier =
  74:../src/tensorflow_lite/tensorflow/lite/micro/kernels/activations.cc ****       static_cast<double>(input->params.scale / output->params.scale);
  75:../src/tensorflow_lite/tensorflow/lite/micro/kernels/activations.cc **** 
  76:../src/tensorflow_lite/tensorflow/lite/micro/kernels/activations.cc ****   const RuntimeShape input_shape = GetTensorShape(input);
  77:../src/tensorflow_lite/tensorflow/lite/micro/kernels/activations.cc ****   const RuntimeShape output_shape = GetTensorShape(output);
  78:../src/tensorflow_lite/tensorflow/lite/micro/kernels/activations.cc **** 
  79:../src/tensorflow_lite/tensorflow/lite/micro/kernels/activations.cc ****   QuantizeMultiplier(real_multiplier, &data->params.output_multiplier,
  80:../src/tensorflow_lite/tensorflow/lite/micro/kernels/activations.cc ****                      &data->params.output_shift);
  81:../src/tensorflow_lite/tensorflow/lite/micro/kernels/activations.cc **** 
  82:../src/tensorflow_lite/tensorflow/lite/micro/kernels/activations.cc ****   data->params.quantized_activation_min = std::max(
  83:../src/tensorflow_lite/tensorflow/lite/micro/kernels/activations.cc ****       static_cast<int32_t>(std::numeric_limits<T>::min()),
  84:../src/tensorflow_lite/tensorflow/lite/micro/kernels/activations.cc ****       output->params.zero_point +
  85:../src/tensorflow_lite/tensorflow/lite/micro/kernels/activations.cc ****           static_cast<int32_t>(roundf(act_min / output->params.scale)));
  86:../src/tensorflow_lite/tensorflow/lite/micro/kernels/activations.cc ****   data->params.quantized_activation_max =
  87:../src/tensorflow_lite/tensorflow/lite/micro/kernels/activations.cc ****       act_max == std::numeric_limits<float>::infinity()
  88:../src/tensorflow_lite/tensorflow/lite/micro/kernels/activations.cc ****           ? static_cast<int32_t>(std::numeric_limits<T>::max())
  89:../src/tensorflow_lite/tensorflow/lite/micro/kernels/activations.cc ****           : std::min(static_cast<int32_t>(std::numeric_limits<T>::max()),
  90:../src/tensorflow_lite/tensorflow/lite/micro/kernels/activations.cc ****                      output->params.zero_point +
  91:../src/tensorflow_lite/tensorflow/lite/micro/kernels/activations.cc ****                          static_cast<int32_t>(
  92:../src/tensorflow_lite/tensorflow/lite/micro/kernels/activations.cc ****                              roundf(act_max / output->params.scale)));
  93:../src/tensorflow_lite/tensorflow/lite/micro/kernels/activations.cc ****   data->params.input_offset = input->params.zero_point;
  94:../src/tensorflow_lite/tensorflow/lite/micro/kernels/activations.cc ****   data->params.output_offset = output->params.zero_point;
  95:../src/tensorflow_lite/tensorflow/lite/micro/kernels/activations.cc **** }
  96:../src/tensorflow_lite/tensorflow/lite/micro/kernels/activations.cc **** 
  97:../src/tensorflow_lite/tensorflow/lite/micro/kernels/activations.cc **** inline void ReluFloat(const RuntimeShape& input_shape, const float* input_data,
  98:../src/tensorflow_lite/tensorflow/lite/micro/kernels/activations.cc ****                       const RuntimeShape& output_shape, float* output_data) {
  99:../src/tensorflow_lite/tensorflow/lite/micro/kernels/activations.cc ****   const int flat_size = MatchingFlatSize(input_shape, output_shape);
 100:../src/tensorflow_lite/tensorflow/lite/micro/kernels/activations.cc ****   for (int i = 0; i < flat_size; ++i) {
 101:../src/tensorflow_lite/tensorflow/lite/micro/kernels/activations.cc ****     const float val = input_data[i];
 102:../src/tensorflow_lite/tensorflow/lite/micro/kernels/activations.cc ****     const float lower = 0.0f;
 103:../src/tensorflow_lite/tensorflow/lite/micro/kernels/activations.cc ****     const float clamped = val < lower ? lower : val;
 104:../src/tensorflow_lite/tensorflow/lite/micro/kernels/activations.cc ****     output_data[i] = clamped;
 105:../src/tensorflow_lite/tensorflow/lite/micro/kernels/activations.cc ****   }
 106:../src/tensorflow_lite/tensorflow/lite/micro/kernels/activations.cc **** }
 107:../src/tensorflow_lite/tensorflow/lite/micro/kernels/activations.cc **** 
 108:../src/tensorflow_lite/tensorflow/lite/micro/kernels/activations.cc **** inline void Relu6Float(const RuntimeShape& input_shape, const float* input_data,
 109:../src/tensorflow_lite/tensorflow/lite/micro/kernels/activations.cc ****                        const RuntimeShape& output_shape, float* output_data) {
 110:../src/tensorflow_lite/tensorflow/lite/micro/kernels/activations.cc ****   const int flat_size = MatchingFlatSize(input_shape, output_shape);
 111:../src/tensorflow_lite/tensorflow/lite/micro/kernels/activations.cc ****   for (int i = 0; i < flat_size; ++i) {
 112:../src/tensorflow_lite/tensorflow/lite/micro/kernels/activations.cc ****     const float val = input_data[i];
 113:../src/tensorflow_lite/tensorflow/lite/micro/kernels/activations.cc ****     const float upper = 6.0f;
 114:../src/tensorflow_lite/tensorflow/lite/micro/kernels/activations.cc ****     const float lower = 0.0f;
 115:../src/tensorflow_lite/tensorflow/lite/micro/kernels/activations.cc ****     const float clamped = val > upper ? upper : val < lower ? lower : val;
 116:../src/tensorflow_lite/tensorflow/lite/micro/kernels/activations.cc ****     output_data[i] = clamped;
 117:../src/tensorflow_lite/tensorflow/lite/micro/kernels/activations.cc ****   }
 118:../src/tensorflow_lite/tensorflow/lite/micro/kernels/activations.cc **** }
 119:../src/tensorflow_lite/tensorflow/lite/micro/kernels/activations.cc **** 
 120:../src/tensorflow_lite/tensorflow/lite/micro/kernels/activations.cc **** template <typename Q>
 121:../src/tensorflow_lite/tensorflow/lite/micro/kernels/activations.cc **** inline void Relu6Quantized(Q lower, Q upper, const RuntimeShape& input_shape,
 122:../src/tensorflow_lite/tensorflow/lite/micro/kernels/activations.cc ****                            const Q* input_data,
 123:../src/tensorflow_lite/tensorflow/lite/micro/kernels/activations.cc ****                            const RuntimeShape& output_shape, Q* output_data) {
 124:../src/tensorflow_lite/tensorflow/lite/micro/kernels/activations.cc ****   const int flat_size = MatchingFlatSize(input_shape, output_shape);
 125:../src/tensorflow_lite/tensorflow/lite/micro/kernels/activations.cc ****   for (int i = 0; i < flat_size; ++i) {
 126:../src/tensorflow_lite/tensorflow/lite/micro/kernels/activations.cc ****     const Q val = input_data[i];
 127:../src/tensorflow_lite/tensorflow/lite/micro/kernels/activations.cc ****     const Q clamped = val > upper ? upper : val < lower ? lower : val;
 128:../src/tensorflow_lite/tensorflow/lite/micro/kernels/activations.cc ****     output_data[i] = clamped;
 129:../src/tensorflow_lite/tensorflow/lite/micro/kernels/activations.cc ****   }
 130:../src/tensorflow_lite/tensorflow/lite/micro/kernels/activations.cc **** }
 131:../src/tensorflow_lite/tensorflow/lite/micro/kernels/activations.cc **** 
 132:../src/tensorflow_lite/tensorflow/lite/micro/kernels/activations.cc **** void* ReluInit(TfLiteContext* context, const char* buffer, size_t length) {
  27              		.loc 1 132 0
  28              		.cfi_startproc
  29              		@ args = 0, pretend = 0, frame = 0
  30              		@ frame_needed = 0, uses_anonymous_args = 0
  31              	.LVL0:
 133:../src/tensorflow_lite/tensorflow/lite/micro/kernels/activations.cc ****   TFLITE_DCHECK(context->AllocatePersistentBuffer != nullptr);
  32              		.loc 1 133 0
  33 0000 383090E5 		ldr	r3, [r0, #56]
  34 0004 000053E3 		cmp	r3, #0
  35 0008 0100000A 		beq	.L7
 134:../src/tensorflow_lite/tensorflow/lite/micro/kernels/activations.cc ****   return context->AllocatePersistentBuffer(context, sizeof(ReluOpData));
  36              		.loc 1 134 0
  37 000c 1C10A0E3 		mov	r1, #28
  38              	.LVL1:
  39 0010 13FF2FE1 		bx	r3
  40              	.LVL2:
  41              	.L7:
 132:../src/tensorflow_lite/tensorflow/lite/micro/kernels/activations.cc ****   TFLITE_DCHECK(context->AllocatePersistentBuffer != nullptr);
  42              		.loc 1 132 0 discriminator 1
  43 0014 10402DE9 		push	{r4, lr}
  44              		.save {r4, lr}
  45              		.cfi_def_cfa_offset 8
  46              		.cfi_offset 4, -8
  47              		.cfi_offset 14, -4
 133:../src/tensorflow_lite/tensorflow/lite/micro/kernels/activations.cc ****   TFLITE_DCHECK(context->AllocatePersistentBuffer != nullptr);
  48              		.loc 1 133 0 discriminator 1
  49 0018 FEFFFFEB 		bl	abort
  50              	.LVL3:
  51              		.cfi_endproc
  52              	.LFE4179:
  53              		.fnend
  55              		.section	.text._ZN6tflite3ops5micro11activations9Relu6InitEP13TfLiteContextPKcj,"ax",%progbits
  56              		.align	2
  57              		.global	_ZN6tflite3ops5micro11activations9Relu6InitEP13TfLiteContextPKcj
  58              		.syntax unified
  59              		.arm
  60              		.fpu neon
  62              	_ZN6tflite3ops5micro11activations9Relu6InitEP13TfLiteContextPKcj:
  63              		.fnstart
  64              	.LFB4182:
 135:../src/tensorflow_lite/tensorflow/lite/micro/kernels/activations.cc **** }
 136:../src/tensorflow_lite/tensorflow/lite/micro/kernels/activations.cc **** 
 137:../src/tensorflow_lite/tensorflow/lite/micro/kernels/activations.cc **** TfLiteStatus ReluPrepare(TfLiteContext* context, TfLiteNode* node) {
 138:../src/tensorflow_lite/tensorflow/lite/micro/kernels/activations.cc ****   TFLITE_DCHECK(node->user_data != nullptr);
 139:../src/tensorflow_lite/tensorflow/lite/micro/kernels/activations.cc ****   ReluOpData* data = static_cast<ReluOpData*>(node->user_data);
 140:../src/tensorflow_lite/tensorflow/lite/micro/kernels/activations.cc **** 
 141:../src/tensorflow_lite/tensorflow/lite/micro/kernels/activations.cc ****   const TfLiteTensor* input = GetInput(context, node, kInputTensor);
 142:../src/tensorflow_lite/tensorflow/lite/micro/kernels/activations.cc ****   TF_LITE_ENSURE(context, input != nullptr);
 143:../src/tensorflow_lite/tensorflow/lite/micro/kernels/activations.cc ****   TfLiteTensor* output = GetOutput(context, node, kOutputTensor);
 144:../src/tensorflow_lite/tensorflow/lite/micro/kernels/activations.cc ****   TF_LITE_ENSURE(context, output != nullptr);
 145:../src/tensorflow_lite/tensorflow/lite/micro/kernels/activations.cc **** 
 146:../src/tensorflow_lite/tensorflow/lite/micro/kernels/activations.cc ****   if (input->type == kTfLiteInt8) {
 147:../src/tensorflow_lite/tensorflow/lite/micro/kernels/activations.cc ****     CalculateReluOpData<int8_t>(input, output, data);
 148:../src/tensorflow_lite/tensorflow/lite/micro/kernels/activations.cc ****   } else if (input->type == kTfLiteUInt8) {
 149:../src/tensorflow_lite/tensorflow/lite/micro/kernels/activations.cc ****     CalculateReluOpData<uint8_t>(input, output, data);
 150:../src/tensorflow_lite/tensorflow/lite/micro/kernels/activations.cc ****   }
 151:../src/tensorflow_lite/tensorflow/lite/micro/kernels/activations.cc **** 
 152:../src/tensorflow_lite/tensorflow/lite/micro/kernels/activations.cc ****   return kTfLiteOk;
 153:../src/tensorflow_lite/tensorflow/lite/micro/kernels/activations.cc **** }
 154:../src/tensorflow_lite/tensorflow/lite/micro/kernels/activations.cc **** 
 155:../src/tensorflow_lite/tensorflow/lite/micro/kernels/activations.cc **** TfLiteStatus ReluEval(TfLiteContext* context, TfLiteNode* node) {
 156:../src/tensorflow_lite/tensorflow/lite/micro/kernels/activations.cc ****   TFLITE_DCHECK(node->user_data != nullptr);
 157:../src/tensorflow_lite/tensorflow/lite/micro/kernels/activations.cc ****   const ReluOpData& data = *(static_cast<const ReluOpData*>(node->user_data));
 158:../src/tensorflow_lite/tensorflow/lite/micro/kernels/activations.cc **** 
 159:../src/tensorflow_lite/tensorflow/lite/micro/kernels/activations.cc ****   const TfLiteEvalTensor* input =
 160:../src/tensorflow_lite/tensorflow/lite/micro/kernels/activations.cc ****       tflite::micro::GetEvalInput(context, node, kInputTensor);
 161:../src/tensorflow_lite/tensorflow/lite/micro/kernels/activations.cc ****   TfLiteEvalTensor* output =
 162:../src/tensorflow_lite/tensorflow/lite/micro/kernels/activations.cc ****       tflite::micro::GetEvalOutput(context, node, kOutputTensor);
 163:../src/tensorflow_lite/tensorflow/lite/micro/kernels/activations.cc **** 
 164:../src/tensorflow_lite/tensorflow/lite/micro/kernels/activations.cc ****   switch (input->type) {
 165:../src/tensorflow_lite/tensorflow/lite/micro/kernels/activations.cc ****     case kTfLiteFloat32: {
 166:../src/tensorflow_lite/tensorflow/lite/micro/kernels/activations.cc ****       ReluFloat(tflite::micro::GetTensorShape(input),
 167:../src/tensorflow_lite/tensorflow/lite/micro/kernels/activations.cc ****                 tflite::micro::GetTensorData<float>(input),
 168:../src/tensorflow_lite/tensorflow/lite/micro/kernels/activations.cc ****                 tflite::micro::GetTensorShape(output),
 169:../src/tensorflow_lite/tensorflow/lite/micro/kernels/activations.cc ****                 tflite::micro::GetTensorData<float>(output));
 170:../src/tensorflow_lite/tensorflow/lite/micro/kernels/activations.cc **** 
 171:../src/tensorflow_lite/tensorflow/lite/micro/kernels/activations.cc ****       return kTfLiteOk;
 172:../src/tensorflow_lite/tensorflow/lite/micro/kernels/activations.cc ****     }
 173:../src/tensorflow_lite/tensorflow/lite/micro/kernels/activations.cc ****     case kTfLiteInt8: {
 174:../src/tensorflow_lite/tensorflow/lite/micro/kernels/activations.cc ****       ReluQuantized<int8_t>(data, tflite::micro::GetTensorShape(input),
 175:../src/tensorflow_lite/tensorflow/lite/micro/kernels/activations.cc ****                             tflite::micro::GetTensorShape(output),
 176:../src/tensorflow_lite/tensorflow/lite/micro/kernels/activations.cc ****                             tflite::micro::GetTensorData<int8_t>(input),
 177:../src/tensorflow_lite/tensorflow/lite/micro/kernels/activations.cc ****                             tflite::micro::GetTensorData<int8_t>(output));
 178:../src/tensorflow_lite/tensorflow/lite/micro/kernels/activations.cc ****       return kTfLiteOk;
 179:../src/tensorflow_lite/tensorflow/lite/micro/kernels/activations.cc ****     }
 180:../src/tensorflow_lite/tensorflow/lite/micro/kernels/activations.cc ****     case kTfLiteUInt8: {
 181:../src/tensorflow_lite/tensorflow/lite/micro/kernels/activations.cc ****       ReluQuantized<uint8_t>(data, tflite::micro::GetTensorShape(input),
 182:../src/tensorflow_lite/tensorflow/lite/micro/kernels/activations.cc ****                              tflite::micro::GetTensorShape(output),
 183:../src/tensorflow_lite/tensorflow/lite/micro/kernels/activations.cc ****                              tflite::micro::GetTensorData<uint8_t>(input),
 184:../src/tensorflow_lite/tensorflow/lite/micro/kernels/activations.cc ****                              tflite::micro::GetTensorData<uint8_t>(output));
 185:../src/tensorflow_lite/tensorflow/lite/micro/kernels/activations.cc ****       return kTfLiteOk;
 186:../src/tensorflow_lite/tensorflow/lite/micro/kernels/activations.cc ****     }
 187:../src/tensorflow_lite/tensorflow/lite/micro/kernels/activations.cc ****     default: {
 188:../src/tensorflow_lite/tensorflow/lite/micro/kernels/activations.cc ****       TF_LITE_KERNEL_LOG(context, "Only float32 is supported currently, got %s",
 189:../src/tensorflow_lite/tensorflow/lite/micro/kernels/activations.cc ****                          TfLiteTypeGetName(input->type));
 190:../src/tensorflow_lite/tensorflow/lite/micro/kernels/activations.cc ****       return kTfLiteError;
 191:../src/tensorflow_lite/tensorflow/lite/micro/kernels/activations.cc ****     }
 192:../src/tensorflow_lite/tensorflow/lite/micro/kernels/activations.cc ****   }
 193:../src/tensorflow_lite/tensorflow/lite/micro/kernels/activations.cc **** }
 194:../src/tensorflow_lite/tensorflow/lite/micro/kernels/activations.cc **** 
 195:../src/tensorflow_lite/tensorflow/lite/micro/kernels/activations.cc **** void* Relu6Init(TfLiteContext* context, const char* buffer, size_t length) {
  65              		.loc 1 195 0
  66              		.cfi_startproc
  67              		@ args = 0, pretend = 0, frame = 0
  68              		@ frame_needed = 0, uses_anonymous_args = 0
  69              	.LVL4:
 196:../src/tensorflow_lite/tensorflow/lite/micro/kernels/activations.cc ****   TFLITE_DCHECK(context->AllocatePersistentBuffer != nullptr);
  70              		.loc 1 196 0
  71 0000 383090E5 		ldr	r3, [r0, #56]
  72 0004 000053E3 		cmp	r3, #0
  73 0008 0100000A 		beq	.L13
 197:../src/tensorflow_lite/tensorflow/lite/micro/kernels/activations.cc ****   return context->AllocatePersistentBuffer(context, sizeof(Relu6OpData));
  74              		.loc 1 197 0
  75 000c 0410A0E3 		mov	r1, #4
  76              	.LVL5:
  77 0010 13FF2FE1 		bx	r3
  78              	.LVL6:
  79              	.L13:
 195:../src/tensorflow_lite/tensorflow/lite/micro/kernels/activations.cc ****   TFLITE_DCHECK(context->AllocatePersistentBuffer != nullptr);
  80              		.loc 1 195 0 discriminator 1
  81 0014 10402DE9 		push	{r4, lr}
  82              		.save {r4, lr}
  83              		.cfi_def_cfa_offset 8
  84              		.cfi_offset 4, -8
  85              		.cfi_offset 14, -4
 196:../src/tensorflow_lite/tensorflow/lite/micro/kernels/activations.cc ****   TFLITE_DCHECK(context->AllocatePersistentBuffer != nullptr);
  86              		.loc 1 196 0 discriminator 1
  87 0018 FEFFFFEB 		bl	abort
  88              	.LVL7:
  89              		.cfi_endproc
  90              	.LFE4182:
  91              		.fnend
  93              		.section	.text._ZN6tflite3ops5micro11activations12Relu6PrepareEP13TfLiteContextP10TfLiteNode,"ax",
  94              		.align	2
  95              		.global	_ZN6tflite3ops5micro11activations12Relu6PrepareEP13TfLiteContextP10TfLiteNode
  96              		.syntax unified
  97              		.arm
  98              		.fpu neon
 100              	_ZN6tflite3ops5micro11activations12Relu6PrepareEP13TfLiteContextP10TfLiteNode:
 101              		.fnstart
 102              	.LFB4183:
 198:../src/tensorflow_lite/tensorflow/lite/micro/kernels/activations.cc **** }
 199:../src/tensorflow_lite/tensorflow/lite/micro/kernels/activations.cc **** 
 200:../src/tensorflow_lite/tensorflow/lite/micro/kernels/activations.cc **** TfLiteStatus Relu6Prepare(TfLiteContext* context, TfLiteNode* node) {
 103              		.loc 1 200 0
 104              		.cfi_startproc
 105              		@ args = 0, pretend = 0, frame = 0
 106              		@ frame_needed = 0, uses_anonymous_args = 0
 107              	.LVL8:
 108 0000 30402DE9 		push	{r4, r5, lr}
 109              		.save {r4, r5, lr}
 110              		.cfi_def_cfa_offset 12
 111              		.cfi_offset 4, -12
 112              		.cfi_offset 5, -8
 113              		.cfi_offset 14, -4
 114              		.pad #12
 115 0004 0CD04DE2 		sub	sp, sp, #12
 116              		.cfi_def_cfa_offset 24
 201:../src/tensorflow_lite/tensorflow/lite/micro/kernels/activations.cc ****   TFLITE_DCHECK(node->user_data != nullptr);
 117              		.loc 1 201 0
 118 0008 104091E5 		ldr	r4, [r1, #16]
 119 000c 000054E3 		cmp	r4, #0
 120 0010 4500000A 		beq	.L27
 121              	.LVL9:
 202:../src/tensorflow_lite/tensorflow/lite/micro/kernels/activations.cc ****   Relu6OpData* data = static_cast<Relu6OpData*>(node->user_data);
 203:../src/tensorflow_lite/tensorflow/lite/micro/kernels/activations.cc **** 
 204:../src/tensorflow_lite/tensorflow/lite/micro/kernels/activations.cc ****   const TfLiteTensor* input = GetInput(context, node, kInputTensor);
 122              		.loc 1 204 0
 123 0014 0020A0E3 		mov	r2, #0
 124 0018 0050A0E1 		mov	r5, r0
 125 001c FEFFFFEB 		bl	_ZN6tflite8GetInputEPK13TfLiteContextPK10TfLiteNodei
 126              	.LVL10:
 205:../src/tensorflow_lite/tensorflow/lite/micro/kernels/activations.cc ****   TF_LITE_ENSURE(context, input != nullptr);
 127              		.loc 1 205 0
 128 0020 000050E3 		cmp	r0, #0
 129 0024 3300000A 		beq	.L28
 206:../src/tensorflow_lite/tensorflow/lite/micro/kernels/activations.cc **** 
 207:../src/tensorflow_lite/tensorflow/lite/micro/kernels/activations.cc ****   if (input->type == kTfLiteInt8) {
 130              		.loc 1 207 0
 131 0028 0030D0E5 		ldrb	r3, [r0]	@ zero_extendqisi2
 132 002c 090053E3 		cmp	r3, #9
 133 0030 1A00000A 		beq	.L29
 208:../src/tensorflow_lite/tensorflow/lite/micro/kernels/activations.cc ****     data->six_int8 = FloatToQuantizedType<int8_t>(6.0f, input->params.scale,
 209:../src/tensorflow_lite/tensorflow/lite/micro/kernels/activations.cc ****                                                   input->params.zero_point);
 210:../src/tensorflow_lite/tensorflow/lite/micro/kernels/activations.cc ****     data->zero_int8 = input->params.zero_point;
 211:../src/tensorflow_lite/tensorflow/lite/micro/kernels/activations.cc ****   } else if (input->type == kTfLiteUInt8) {
 134              		.loc 1 211 0
 135 0034 030053E3 		cmp	r3, #3
 212:../src/tensorflow_lite/tensorflow/lite/micro/kernels/activations.cc ****     data->six_uint8 = FloatToQuantizedType<uint8_t>(6.0f, input->params.scale,
 213:../src/tensorflow_lite/tensorflow/lite/micro/kernels/activations.cc ****                                                     input->params.zero_point);
 214:../src/tensorflow_lite/tensorflow/lite/micro/kernels/activations.cc ****     data->zero_uint8 = input->params.zero_point;
 215:../src/tensorflow_lite/tensorflow/lite/micro/kernels/activations.cc ****   }
 216:../src/tensorflow_lite/tensorflow/lite/micro/kernels/activations.cc **** 
 217:../src/tensorflow_lite/tensorflow/lite/micro/kernels/activations.cc ****   return kTfLiteOk;
 136              		.loc 1 217 0
 137 0038 0000A013 		movne	r0, #0
 138              	.LVL11:
 211:../src/tensorflow_lite/tensorflow/lite/micro/kernels/activations.cc ****     data->six_uint8 = FloatToQuantizedType<uint8_t>(6.0f, input->params.scale,
 139              		.loc 1 211 0
 140 003c 0100000A 		beq	.L30
 141              	.LVL12:
 142              	.L17:
 218:../src/tensorflow_lite/tensorflow/lite/micro/kernels/activations.cc **** }
 143              		.loc 1 218 0
 144 0040 0CD08DE2 		add	sp, sp, #12
 145              		.cfi_remember_state
 146              		.cfi_def_cfa_offset 12
 147              		@ sp needed
 148 0044 3080BDE8 		pop	{r4, r5, pc}
 149              	.LVL13:
 150              	.L30:
 151              		.cfi_restore_state
 152              	.LBB253:
 153              	.LBB254:
 154              		.file 2 "C:/Renesas/e2studio_2021_01_workspace_RZA2M_ANPR/ANPR_RZA2M_EBK/src/tensorflow_lite/tenso
   1:C:/Renesas/e2studio_2021_01_workspace_RZA2M_ANPR/ANPR_RZA2M_EBK/src/tensorflow_lite/tensorflow/lite/micro\micro_utils.h **** /* Copyright 2019 The TensorFlow Authors. All Rights Reserved.
   2:C:/Renesas/e2studio_2021_01_workspace_RZA2M_ANPR/ANPR_RZA2M_EBK/src/tensorflow_lite/tensorflow/lite/micro\micro_utils.h **** 
   3:C:/Renesas/e2studio_2021_01_workspace_RZA2M_ANPR/ANPR_RZA2M_EBK/src/tensorflow_lite/tensorflow/lite/micro\micro_utils.h **** Licensed under the Apache License, Version 2.0 (the "License");
   4:C:/Renesas/e2studio_2021_01_workspace_RZA2M_ANPR/ANPR_RZA2M_EBK/src/tensorflow_lite/tensorflow/lite/micro\micro_utils.h **** you may not use this file except in compliance with the License.
   5:C:/Renesas/e2studio_2021_01_workspace_RZA2M_ANPR/ANPR_RZA2M_EBK/src/tensorflow_lite/tensorflow/lite/micro\micro_utils.h **** You may obtain a copy of the License at
   6:C:/Renesas/e2studio_2021_01_workspace_RZA2M_ANPR/ANPR_RZA2M_EBK/src/tensorflow_lite/tensorflow/lite/micro\micro_utils.h **** 
   7:C:/Renesas/e2studio_2021_01_workspace_RZA2M_ANPR/ANPR_RZA2M_EBK/src/tensorflow_lite/tensorflow/lite/micro\micro_utils.h ****     http://www.apache.org/licenses/LICENSE-2.0
   8:C:/Renesas/e2studio_2021_01_workspace_RZA2M_ANPR/ANPR_RZA2M_EBK/src/tensorflow_lite/tensorflow/lite/micro\micro_utils.h **** 
   9:C:/Renesas/e2studio_2021_01_workspace_RZA2M_ANPR/ANPR_RZA2M_EBK/src/tensorflow_lite/tensorflow/lite/micro\micro_utils.h **** Unless required by applicable law or agreed to in writing, software
  10:C:/Renesas/e2studio_2021_01_workspace_RZA2M_ANPR/ANPR_RZA2M_EBK/src/tensorflow_lite/tensorflow/lite/micro\micro_utils.h **** distributed under the License is distributed on an "AS IS" BASIS,
  11:C:/Renesas/e2studio_2021_01_workspace_RZA2M_ANPR/ANPR_RZA2M_EBK/src/tensorflow_lite/tensorflow/lite/micro\micro_utils.h **** WITHOUT WARRANTIES OR CONDITIONS OF ANY KIND, either express or implied.
  12:C:/Renesas/e2studio_2021_01_workspace_RZA2M_ANPR/ANPR_RZA2M_EBK/src/tensorflow_lite/tensorflow/lite/micro\micro_utils.h **** See the License for the specific language governing permissions and
  13:C:/Renesas/e2studio_2021_01_workspace_RZA2M_ANPR/ANPR_RZA2M_EBK/src/tensorflow_lite/tensorflow/lite/micro\micro_utils.h **** limitations under the License.
  14:C:/Renesas/e2studio_2021_01_workspace_RZA2M_ANPR/ANPR_RZA2M_EBK/src/tensorflow_lite/tensorflow/lite/micro\micro_utils.h **** ==============================================================================*/
  15:C:/Renesas/e2studio_2021_01_workspace_RZA2M_ANPR/ANPR_RZA2M_EBK/src/tensorflow_lite/tensorflow/lite/micro\micro_utils.h **** 
  16:C:/Renesas/e2studio_2021_01_workspace_RZA2M_ANPR/ANPR_RZA2M_EBK/src/tensorflow_lite/tensorflow/lite/micro\micro_utils.h **** #ifndef TENSORFLOW_LITE_MICRO_MICRO_UTILS_H_
  17:C:/Renesas/e2studio_2021_01_workspace_RZA2M_ANPR/ANPR_RZA2M_EBK/src/tensorflow_lite/tensorflow/lite/micro\micro_utils.h **** #define TENSORFLOW_LITE_MICRO_MICRO_UTILS_H_
  18:C:/Renesas/e2studio_2021_01_workspace_RZA2M_ANPR/ANPR_RZA2M_EBK/src/tensorflow_lite/tensorflow/lite/micro\micro_utils.h **** 
  19:C:/Renesas/e2studio_2021_01_workspace_RZA2M_ANPR/ANPR_RZA2M_EBK/src/tensorflow_lite/tensorflow/lite/micro\micro_utils.h **** #include <algorithm>
  20:C:/Renesas/e2studio_2021_01_workspace_RZA2M_ANPR/ANPR_RZA2M_EBK/src/tensorflow_lite/tensorflow/lite/micro\micro_utils.h **** #include <cmath>
  21:C:/Renesas/e2studio_2021_01_workspace_RZA2M_ANPR/ANPR_RZA2M_EBK/src/tensorflow_lite/tensorflow/lite/micro\micro_utils.h **** #include <cstdint>
  22:C:/Renesas/e2studio_2021_01_workspace_RZA2M_ANPR/ANPR_RZA2M_EBK/src/tensorflow_lite/tensorflow/lite/micro\micro_utils.h **** #include <limits>
  23:C:/Renesas/e2studio_2021_01_workspace_RZA2M_ANPR/ANPR_RZA2M_EBK/src/tensorflow_lite/tensorflow/lite/micro\micro_utils.h **** 
  24:C:/Renesas/e2studio_2021_01_workspace_RZA2M_ANPR/ANPR_RZA2M_EBK/src/tensorflow_lite/tensorflow/lite/micro\micro_utils.h **** #include "tensorflow/lite/c/common.h"
  25:C:/Renesas/e2studio_2021_01_workspace_RZA2M_ANPR/ANPR_RZA2M_EBK/src/tensorflow_lite/tensorflow/lite/micro\micro_utils.h **** 
  26:C:/Renesas/e2studio_2021_01_workspace_RZA2M_ANPR/ANPR_RZA2M_EBK/src/tensorflow_lite/tensorflow/lite/micro\micro_utils.h **** namespace tflite {
  27:C:/Renesas/e2studio_2021_01_workspace_RZA2M_ANPR/ANPR_RZA2M_EBK/src/tensorflow_lite/tensorflow/lite/micro\micro_utils.h **** 
  28:C:/Renesas/e2studio_2021_01_workspace_RZA2M_ANPR/ANPR_RZA2M_EBK/src/tensorflow_lite/tensorflow/lite/micro\micro_utils.h **** // Returns number of elements in the shape array.
  29:C:/Renesas/e2studio_2021_01_workspace_RZA2M_ANPR/ANPR_RZA2M_EBK/src/tensorflow_lite/tensorflow/lite/micro\micro_utils.h **** 
  30:C:/Renesas/e2studio_2021_01_workspace_RZA2M_ANPR/ANPR_RZA2M_EBK/src/tensorflow_lite/tensorflow/lite/micro\micro_utils.h **** int ElementCount(const TfLiteIntArray& dims);
  31:C:/Renesas/e2studio_2021_01_workspace_RZA2M_ANPR/ANPR_RZA2M_EBK/src/tensorflow_lite/tensorflow/lite/micro\micro_utils.h **** 
  32:C:/Renesas/e2studio_2021_01_workspace_RZA2M_ANPR/ANPR_RZA2M_EBK/src/tensorflow_lite/tensorflow/lite/micro\micro_utils.h **** // Converts a float value into a quantized value.  Note that large values (close
  33:C:/Renesas/e2studio_2021_01_workspace_RZA2M_ANPR/ANPR_RZA2M_EBK/src/tensorflow_lite/tensorflow/lite/micro\micro_utils.h **** // to max int and min int) may see significant error due to a lack of floating
  34:C:/Renesas/e2studio_2021_01_workspace_RZA2M_ANPR/ANPR_RZA2M_EBK/src/tensorflow_lite/tensorflow/lite/micro\micro_utils.h **** // point granularity for large values.
  35:C:/Renesas/e2studio_2021_01_workspace_RZA2M_ANPR/ANPR_RZA2M_EBK/src/tensorflow_lite/tensorflow/lite/micro\micro_utils.h **** template <typename T>
  36:C:/Renesas/e2studio_2021_01_workspace_RZA2M_ANPR/ANPR_RZA2M_EBK/src/tensorflow_lite/tensorflow/lite/micro\micro_utils.h **** T FloatToQuantizedType(const float value, const float scale, int zero_point) {
  37:C:/Renesas/e2studio_2021_01_workspace_RZA2M_ANPR/ANPR_RZA2M_EBK/src/tensorflow_lite/tensorflow/lite/micro\micro_utils.h ****   int32_t result = round(value / scale) + zero_point;
 155              		.loc 2 37 0
 156 0048 037AD0ED 		vldr.32	s15, [r0, #12]
 157 004c 087AB1EE 		vmov.f32	s14, #6.0e+0
 158              	.LBE254:
 159              	.LBE253:
 213:../src/tensorflow_lite/tensorflow/lite/micro/kernels/activations.cc ****     data->zero_uint8 = input->params.zero_point;
 160              		.loc 1 213 0
 161 0050 105090E5 		ldr	r5, [r0, #16]
 162              	.LVL14:
 163              	.LBB260:
 164              	.LBB259:
 165              		.loc 2 37 0
 166 0054 270A87EE 		vdiv.f32	s0, s14, s15
 167 0058 C00AB7EE 		vcvt.f64.f32	d0, s0
 168 005c FEFFFFEB 		bl	round
 169              	.LVL15:
 170 0060 905A07EE 		vmov	s15, r5	@ int
 171 0064 E70BF8EE 		vcvt.f64.s32	d16, s15
 172 0068 800B30EE 		vadd.f64	d0, d16, d0
 173 006c C07BFDEE 		vcvt.s32.f64	s15, d0
 174 0070 903A17EE 		vmov	r3, s15	@ int
 175              	.LVL16:
 176              	.LBB255:
 177              	.LBB256:
 178              		.file 3 "c:\\program files (x86)\\gnu tools arm embedded\\6 2017-q2-update\\arm-none-eabi\\include
   1:c:\program files (x86)\gnu tools arm embedded\6 2017-q2-update\arm-none-eabi\include\c++\6.3.1\bits\stl_algobase.h **** // Core algorithmic facilities -*- C++ -*-
   2:c:\program files (x86)\gnu tools arm embedded\6 2017-q2-update\arm-none-eabi\include\c++\6.3.1\bits\stl_algobase.h **** 
   3:c:\program files (x86)\gnu tools arm embedded\6 2017-q2-update\arm-none-eabi\include\c++\6.3.1\bits\stl_algobase.h **** // Copyright (C) 2001-2016 Free Software Foundation, Inc.
   4:c:\program files (x86)\gnu tools arm embedded\6 2017-q2-update\arm-none-eabi\include\c++\6.3.1\bits\stl_algobase.h **** //
   5:c:\program files (x86)\gnu tools arm embedded\6 2017-q2-update\arm-none-eabi\include\c++\6.3.1\bits\stl_algobase.h **** // This file is part of the GNU ISO C++ Library.  This library is free
   6:c:\program files (x86)\gnu tools arm embedded\6 2017-q2-update\arm-none-eabi\include\c++\6.3.1\bits\stl_algobase.h **** // software; you can redistribute it and/or modify it under the
   7:c:\program files (x86)\gnu tools arm embedded\6 2017-q2-update\arm-none-eabi\include\c++\6.3.1\bits\stl_algobase.h **** // terms of the GNU General Public License as published by the
   8:c:\program files (x86)\gnu tools arm embedded\6 2017-q2-update\arm-none-eabi\include\c++\6.3.1\bits\stl_algobase.h **** // Free Software Foundation; either version 3, or (at your option)
   9:c:\program files (x86)\gnu tools arm embedded\6 2017-q2-update\arm-none-eabi\include\c++\6.3.1\bits\stl_algobase.h **** // any later version.
  10:c:\program files (x86)\gnu tools arm embedded\6 2017-q2-update\arm-none-eabi\include\c++\6.3.1\bits\stl_algobase.h **** 
  11:c:\program files (x86)\gnu tools arm embedded\6 2017-q2-update\arm-none-eabi\include\c++\6.3.1\bits\stl_algobase.h **** // This library is distributed in the hope that it will be useful,
  12:c:\program files (x86)\gnu tools arm embedded\6 2017-q2-update\arm-none-eabi\include\c++\6.3.1\bits\stl_algobase.h **** // but WITHOUT ANY WARRANTY; without even the implied warranty of
  13:c:\program files (x86)\gnu tools arm embedded\6 2017-q2-update\arm-none-eabi\include\c++\6.3.1\bits\stl_algobase.h **** // MERCHANTABILITY or FITNESS FOR A PARTICULAR PURPOSE.  See the
  14:c:\program files (x86)\gnu tools arm embedded\6 2017-q2-update\arm-none-eabi\include\c++\6.3.1\bits\stl_algobase.h **** // GNU General Public License for more details.
  15:c:\program files (x86)\gnu tools arm embedded\6 2017-q2-update\arm-none-eabi\include\c++\6.3.1\bits\stl_algobase.h **** 
  16:c:\program files (x86)\gnu tools arm embedded\6 2017-q2-update\arm-none-eabi\include\c++\6.3.1\bits\stl_algobase.h **** // Under Section 7 of GPL version 3, you are granted additional
  17:c:\program files (x86)\gnu tools arm embedded\6 2017-q2-update\arm-none-eabi\include\c++\6.3.1\bits\stl_algobase.h **** // permissions described in the GCC Runtime Library Exception, version
  18:c:\program files (x86)\gnu tools arm embedded\6 2017-q2-update\arm-none-eabi\include\c++\6.3.1\bits\stl_algobase.h **** // 3.1, as published by the Free Software Foundation.
  19:c:\program files (x86)\gnu tools arm embedded\6 2017-q2-update\arm-none-eabi\include\c++\6.3.1\bits\stl_algobase.h **** 
  20:c:\program files (x86)\gnu tools arm embedded\6 2017-q2-update\arm-none-eabi\include\c++\6.3.1\bits\stl_algobase.h **** // You should have received a copy of the GNU General Public License and
  21:c:\program files (x86)\gnu tools arm embedded\6 2017-q2-update\arm-none-eabi\include\c++\6.3.1\bits\stl_algobase.h **** // a copy of the GCC Runtime Library Exception along with this program;
  22:c:\program files (x86)\gnu tools arm embedded\6 2017-q2-update\arm-none-eabi\include\c++\6.3.1\bits\stl_algobase.h **** // see the files COPYING3 and COPYING.RUNTIME respectively.  If not, see
  23:c:\program files (x86)\gnu tools arm embedded\6 2017-q2-update\arm-none-eabi\include\c++\6.3.1\bits\stl_algobase.h **** // <http://www.gnu.org/licenses/>.
  24:c:\program files (x86)\gnu tools arm embedded\6 2017-q2-update\arm-none-eabi\include\c++\6.3.1\bits\stl_algobase.h **** 
  25:c:\program files (x86)\gnu tools arm embedded\6 2017-q2-update\arm-none-eabi\include\c++\6.3.1\bits\stl_algobase.h **** /*
  26:c:\program files (x86)\gnu tools arm embedded\6 2017-q2-update\arm-none-eabi\include\c++\6.3.1\bits\stl_algobase.h ****  *
  27:c:\program files (x86)\gnu tools arm embedded\6 2017-q2-update\arm-none-eabi\include\c++\6.3.1\bits\stl_algobase.h ****  * Copyright (c) 1994
  28:c:\program files (x86)\gnu tools arm embedded\6 2017-q2-update\arm-none-eabi\include\c++\6.3.1\bits\stl_algobase.h ****  * Hewlett-Packard Company
  29:c:\program files (x86)\gnu tools arm embedded\6 2017-q2-update\arm-none-eabi\include\c++\6.3.1\bits\stl_algobase.h ****  *
  30:c:\program files (x86)\gnu tools arm embedded\6 2017-q2-update\arm-none-eabi\include\c++\6.3.1\bits\stl_algobase.h ****  * Permission to use, copy, modify, distribute and sell this software
  31:c:\program files (x86)\gnu tools arm embedded\6 2017-q2-update\arm-none-eabi\include\c++\6.3.1\bits\stl_algobase.h ****  * and its documentation for any purpose is hereby granted without fee,
  32:c:\program files (x86)\gnu tools arm embedded\6 2017-q2-update\arm-none-eabi\include\c++\6.3.1\bits\stl_algobase.h ****  * provided that the above copyright notice appear in all copies and
  33:c:\program files (x86)\gnu tools arm embedded\6 2017-q2-update\arm-none-eabi\include\c++\6.3.1\bits\stl_algobase.h ****  * that both that copyright notice and this permission notice appear
  34:c:\program files (x86)\gnu tools arm embedded\6 2017-q2-update\arm-none-eabi\include\c++\6.3.1\bits\stl_algobase.h ****  * in supporting documentation.  Hewlett-Packard Company makes no
  35:c:\program files (x86)\gnu tools arm embedded\6 2017-q2-update\arm-none-eabi\include\c++\6.3.1\bits\stl_algobase.h ****  * representations about the suitability of this software for any
  36:c:\program files (x86)\gnu tools arm embedded\6 2017-q2-update\arm-none-eabi\include\c++\6.3.1\bits\stl_algobase.h ****  * purpose.  It is provided "as is" without express or implied warranty.
  37:c:\program files (x86)\gnu tools arm embedded\6 2017-q2-update\arm-none-eabi\include\c++\6.3.1\bits\stl_algobase.h ****  *
  38:c:\program files (x86)\gnu tools arm embedded\6 2017-q2-update\arm-none-eabi\include\c++\6.3.1\bits\stl_algobase.h ****  *
  39:c:\program files (x86)\gnu tools arm embedded\6 2017-q2-update\arm-none-eabi\include\c++\6.3.1\bits\stl_algobase.h ****  * Copyright (c) 1996-1998
  40:c:\program files (x86)\gnu tools arm embedded\6 2017-q2-update\arm-none-eabi\include\c++\6.3.1\bits\stl_algobase.h ****  * Silicon Graphics Computer Systems, Inc.
  41:c:\program files (x86)\gnu tools arm embedded\6 2017-q2-update\arm-none-eabi\include\c++\6.3.1\bits\stl_algobase.h ****  *
  42:c:\program files (x86)\gnu tools arm embedded\6 2017-q2-update\arm-none-eabi\include\c++\6.3.1\bits\stl_algobase.h ****  * Permission to use, copy, modify, distribute and sell this software
  43:c:\program files (x86)\gnu tools arm embedded\6 2017-q2-update\arm-none-eabi\include\c++\6.3.1\bits\stl_algobase.h ****  * and its documentation for any purpose is hereby granted without fee,
  44:c:\program files (x86)\gnu tools arm embedded\6 2017-q2-update\arm-none-eabi\include\c++\6.3.1\bits\stl_algobase.h ****  * provided that the above copyright notice appear in all copies and
  45:c:\program files (x86)\gnu tools arm embedded\6 2017-q2-update\arm-none-eabi\include\c++\6.3.1\bits\stl_algobase.h ****  * that both that copyright notice and this permission notice appear
  46:c:\program files (x86)\gnu tools arm embedded\6 2017-q2-update\arm-none-eabi\include\c++\6.3.1\bits\stl_algobase.h ****  * in supporting documentation.  Silicon Graphics makes no
  47:c:\program files (x86)\gnu tools arm embedded\6 2017-q2-update\arm-none-eabi\include\c++\6.3.1\bits\stl_algobase.h ****  * representations about the suitability of this software for any
  48:c:\program files (x86)\gnu tools arm embedded\6 2017-q2-update\arm-none-eabi\include\c++\6.3.1\bits\stl_algobase.h ****  * purpose.  It is provided "as is" without express or implied warranty.
  49:c:\program files (x86)\gnu tools arm embedded\6 2017-q2-update\arm-none-eabi\include\c++\6.3.1\bits\stl_algobase.h ****  */
  50:c:\program files (x86)\gnu tools arm embedded\6 2017-q2-update\arm-none-eabi\include\c++\6.3.1\bits\stl_algobase.h **** 
  51:c:\program files (x86)\gnu tools arm embedded\6 2017-q2-update\arm-none-eabi\include\c++\6.3.1\bits\stl_algobase.h **** /** @file bits/stl_algobase.h
  52:c:\program files (x86)\gnu tools arm embedded\6 2017-q2-update\arm-none-eabi\include\c++\6.3.1\bits\stl_algobase.h ****  *  This is an internal header file, included by other library headers.
  53:c:\program files (x86)\gnu tools arm embedded\6 2017-q2-update\arm-none-eabi\include\c++\6.3.1\bits\stl_algobase.h ****  *  Do not attempt to use it directly. @headername{algorithm}
  54:c:\program files (x86)\gnu tools arm embedded\6 2017-q2-update\arm-none-eabi\include\c++\6.3.1\bits\stl_algobase.h ****  */
  55:c:\program files (x86)\gnu tools arm embedded\6 2017-q2-update\arm-none-eabi\include\c++\6.3.1\bits\stl_algobase.h **** 
  56:c:\program files (x86)\gnu tools arm embedded\6 2017-q2-update\arm-none-eabi\include\c++\6.3.1\bits\stl_algobase.h **** #ifndef _STL_ALGOBASE_H
  57:c:\program files (x86)\gnu tools arm embedded\6 2017-q2-update\arm-none-eabi\include\c++\6.3.1\bits\stl_algobase.h **** #define _STL_ALGOBASE_H 1
  58:c:\program files (x86)\gnu tools arm embedded\6 2017-q2-update\arm-none-eabi\include\c++\6.3.1\bits\stl_algobase.h **** 
  59:c:\program files (x86)\gnu tools arm embedded\6 2017-q2-update\arm-none-eabi\include\c++\6.3.1\bits\stl_algobase.h **** #include <bits/c++config.h>
  60:c:\program files (x86)\gnu tools arm embedded\6 2017-q2-update\arm-none-eabi\include\c++\6.3.1\bits\stl_algobase.h **** #include <bits/functexcept.h>
  61:c:\program files (x86)\gnu tools arm embedded\6 2017-q2-update\arm-none-eabi\include\c++\6.3.1\bits\stl_algobase.h **** #include <bits/cpp_type_traits.h>
  62:c:\program files (x86)\gnu tools arm embedded\6 2017-q2-update\arm-none-eabi\include\c++\6.3.1\bits\stl_algobase.h **** #include <ext/type_traits.h>
  63:c:\program files (x86)\gnu tools arm embedded\6 2017-q2-update\arm-none-eabi\include\c++\6.3.1\bits\stl_algobase.h **** #include <ext/numeric_traits.h>
  64:c:\program files (x86)\gnu tools arm embedded\6 2017-q2-update\arm-none-eabi\include\c++\6.3.1\bits\stl_algobase.h **** #include <bits/stl_pair.h>
  65:c:\program files (x86)\gnu tools arm embedded\6 2017-q2-update\arm-none-eabi\include\c++\6.3.1\bits\stl_algobase.h **** #include <bits/stl_iterator_base_types.h>
  66:c:\program files (x86)\gnu tools arm embedded\6 2017-q2-update\arm-none-eabi\include\c++\6.3.1\bits\stl_algobase.h **** #include <bits/stl_iterator_base_funcs.h>
  67:c:\program files (x86)\gnu tools arm embedded\6 2017-q2-update\arm-none-eabi\include\c++\6.3.1\bits\stl_algobase.h **** #include <bits/stl_iterator.h>
  68:c:\program files (x86)\gnu tools arm embedded\6 2017-q2-update\arm-none-eabi\include\c++\6.3.1\bits\stl_algobase.h **** #include <bits/concept_check.h>
  69:c:\program files (x86)\gnu tools arm embedded\6 2017-q2-update\arm-none-eabi\include\c++\6.3.1\bits\stl_algobase.h **** #include <debug/debug.h>
  70:c:\program files (x86)\gnu tools arm embedded\6 2017-q2-update\arm-none-eabi\include\c++\6.3.1\bits\stl_algobase.h **** #include <bits/move.h> // For std::swap and _GLIBCXX_MOVE
  71:c:\program files (x86)\gnu tools arm embedded\6 2017-q2-update\arm-none-eabi\include\c++\6.3.1\bits\stl_algobase.h **** #include <bits/predefined_ops.h>
  72:c:\program files (x86)\gnu tools arm embedded\6 2017-q2-update\arm-none-eabi\include\c++\6.3.1\bits\stl_algobase.h **** 
  73:c:\program files (x86)\gnu tools arm embedded\6 2017-q2-update\arm-none-eabi\include\c++\6.3.1\bits\stl_algobase.h **** namespace std _GLIBCXX_VISIBILITY(default)
  74:c:\program files (x86)\gnu tools arm embedded\6 2017-q2-update\arm-none-eabi\include\c++\6.3.1\bits\stl_algobase.h **** {
  75:c:\program files (x86)\gnu tools arm embedded\6 2017-q2-update\arm-none-eabi\include\c++\6.3.1\bits\stl_algobase.h **** _GLIBCXX_BEGIN_NAMESPACE_VERSION
  76:c:\program files (x86)\gnu tools arm embedded\6 2017-q2-update\arm-none-eabi\include\c++\6.3.1\bits\stl_algobase.h **** 
  77:c:\program files (x86)\gnu tools arm embedded\6 2017-q2-update\arm-none-eabi\include\c++\6.3.1\bits\stl_algobase.h **** #if __cplusplus < 201103L
  78:c:\program files (x86)\gnu tools arm embedded\6 2017-q2-update\arm-none-eabi\include\c++\6.3.1\bits\stl_algobase.h ****   // See http://gcc.gnu.org/ml/libstdc++/2004-08/msg00167.html: in a
  79:c:\program files (x86)\gnu tools arm embedded\6 2017-q2-update\arm-none-eabi\include\c++\6.3.1\bits\stl_algobase.h ****   // nutshell, we are partially implementing the resolution of DR 187,
  80:c:\program files (x86)\gnu tools arm embedded\6 2017-q2-update\arm-none-eabi\include\c++\6.3.1\bits\stl_algobase.h ****   // when it's safe, i.e., the value_types are equal.
  81:c:\program files (x86)\gnu tools arm embedded\6 2017-q2-update\arm-none-eabi\include\c++\6.3.1\bits\stl_algobase.h ****   template<bool _BoolType>
  82:c:\program files (x86)\gnu tools arm embedded\6 2017-q2-update\arm-none-eabi\include\c++\6.3.1\bits\stl_algobase.h ****     struct __iter_swap
  83:c:\program files (x86)\gnu tools arm embedded\6 2017-q2-update\arm-none-eabi\include\c++\6.3.1\bits\stl_algobase.h ****     {
  84:c:\program files (x86)\gnu tools arm embedded\6 2017-q2-update\arm-none-eabi\include\c++\6.3.1\bits\stl_algobase.h ****       template<typename _ForwardIterator1, typename _ForwardIterator2>
  85:c:\program files (x86)\gnu tools arm embedded\6 2017-q2-update\arm-none-eabi\include\c++\6.3.1\bits\stl_algobase.h ****         static void
  86:c:\program files (x86)\gnu tools arm embedded\6 2017-q2-update\arm-none-eabi\include\c++\6.3.1\bits\stl_algobase.h ****         iter_swap(_ForwardIterator1 __a, _ForwardIterator2 __b)
  87:c:\program files (x86)\gnu tools arm embedded\6 2017-q2-update\arm-none-eabi\include\c++\6.3.1\bits\stl_algobase.h ****         {
  88:c:\program files (x86)\gnu tools arm embedded\6 2017-q2-update\arm-none-eabi\include\c++\6.3.1\bits\stl_algobase.h ****           typedef typename iterator_traits<_ForwardIterator1>::value_type
  89:c:\program files (x86)\gnu tools arm embedded\6 2017-q2-update\arm-none-eabi\include\c++\6.3.1\bits\stl_algobase.h ****             _ValueType1;
  90:c:\program files (x86)\gnu tools arm embedded\6 2017-q2-update\arm-none-eabi\include\c++\6.3.1\bits\stl_algobase.h ****           _ValueType1 __tmp = _GLIBCXX_MOVE(*__a);
  91:c:\program files (x86)\gnu tools arm embedded\6 2017-q2-update\arm-none-eabi\include\c++\6.3.1\bits\stl_algobase.h ****           *__a = _GLIBCXX_MOVE(*__b);
  92:c:\program files (x86)\gnu tools arm embedded\6 2017-q2-update\arm-none-eabi\include\c++\6.3.1\bits\stl_algobase.h ****           *__b = _GLIBCXX_MOVE(__tmp);
  93:c:\program files (x86)\gnu tools arm embedded\6 2017-q2-update\arm-none-eabi\include\c++\6.3.1\bits\stl_algobase.h **** 	}
  94:c:\program files (x86)\gnu tools arm embedded\6 2017-q2-update\arm-none-eabi\include\c++\6.3.1\bits\stl_algobase.h ****     };
  95:c:\program files (x86)\gnu tools arm embedded\6 2017-q2-update\arm-none-eabi\include\c++\6.3.1\bits\stl_algobase.h **** 
  96:c:\program files (x86)\gnu tools arm embedded\6 2017-q2-update\arm-none-eabi\include\c++\6.3.1\bits\stl_algobase.h ****   template<>
  97:c:\program files (x86)\gnu tools arm embedded\6 2017-q2-update\arm-none-eabi\include\c++\6.3.1\bits\stl_algobase.h ****     struct __iter_swap<true>
  98:c:\program files (x86)\gnu tools arm embedded\6 2017-q2-update\arm-none-eabi\include\c++\6.3.1\bits\stl_algobase.h ****     {
  99:c:\program files (x86)\gnu tools arm embedded\6 2017-q2-update\arm-none-eabi\include\c++\6.3.1\bits\stl_algobase.h ****       template<typename _ForwardIterator1, typename _ForwardIterator2>
 100:c:\program files (x86)\gnu tools arm embedded\6 2017-q2-update\arm-none-eabi\include\c++\6.3.1\bits\stl_algobase.h ****         static void 
 101:c:\program files (x86)\gnu tools arm embedded\6 2017-q2-update\arm-none-eabi\include\c++\6.3.1\bits\stl_algobase.h ****         iter_swap(_ForwardIterator1 __a, _ForwardIterator2 __b)
 102:c:\program files (x86)\gnu tools arm embedded\6 2017-q2-update\arm-none-eabi\include\c++\6.3.1\bits\stl_algobase.h ****         {
 103:c:\program files (x86)\gnu tools arm embedded\6 2017-q2-update\arm-none-eabi\include\c++\6.3.1\bits\stl_algobase.h ****           swap(*__a, *__b);
 104:c:\program files (x86)\gnu tools arm embedded\6 2017-q2-update\arm-none-eabi\include\c++\6.3.1\bits\stl_algobase.h ****         }
 105:c:\program files (x86)\gnu tools arm embedded\6 2017-q2-update\arm-none-eabi\include\c++\6.3.1\bits\stl_algobase.h ****     };
 106:c:\program files (x86)\gnu tools arm embedded\6 2017-q2-update\arm-none-eabi\include\c++\6.3.1\bits\stl_algobase.h **** #endif
 107:c:\program files (x86)\gnu tools arm embedded\6 2017-q2-update\arm-none-eabi\include\c++\6.3.1\bits\stl_algobase.h **** 
 108:c:\program files (x86)\gnu tools arm embedded\6 2017-q2-update\arm-none-eabi\include\c++\6.3.1\bits\stl_algobase.h ****   /**
 109:c:\program files (x86)\gnu tools arm embedded\6 2017-q2-update\arm-none-eabi\include\c++\6.3.1\bits\stl_algobase.h ****    *  @brief Swaps the contents of two iterators.
 110:c:\program files (x86)\gnu tools arm embedded\6 2017-q2-update\arm-none-eabi\include\c++\6.3.1\bits\stl_algobase.h ****    *  @ingroup mutating_algorithms
 111:c:\program files (x86)\gnu tools arm embedded\6 2017-q2-update\arm-none-eabi\include\c++\6.3.1\bits\stl_algobase.h ****    *  @param  __a  An iterator.
 112:c:\program files (x86)\gnu tools arm embedded\6 2017-q2-update\arm-none-eabi\include\c++\6.3.1\bits\stl_algobase.h ****    *  @param  __b  Another iterator.
 113:c:\program files (x86)\gnu tools arm embedded\6 2017-q2-update\arm-none-eabi\include\c++\6.3.1\bits\stl_algobase.h ****    *  @return   Nothing.
 114:c:\program files (x86)\gnu tools arm embedded\6 2017-q2-update\arm-none-eabi\include\c++\6.3.1\bits\stl_algobase.h ****    *
 115:c:\program files (x86)\gnu tools arm embedded\6 2017-q2-update\arm-none-eabi\include\c++\6.3.1\bits\stl_algobase.h ****    *  This function swaps the values pointed to by two iterators, not the
 116:c:\program files (x86)\gnu tools arm embedded\6 2017-q2-update\arm-none-eabi\include\c++\6.3.1\bits\stl_algobase.h ****    *  iterators themselves.
 117:c:\program files (x86)\gnu tools arm embedded\6 2017-q2-update\arm-none-eabi\include\c++\6.3.1\bits\stl_algobase.h ****   */
 118:c:\program files (x86)\gnu tools arm embedded\6 2017-q2-update\arm-none-eabi\include\c++\6.3.1\bits\stl_algobase.h ****   template<typename _ForwardIterator1, typename _ForwardIterator2>
 119:c:\program files (x86)\gnu tools arm embedded\6 2017-q2-update\arm-none-eabi\include\c++\6.3.1\bits\stl_algobase.h ****     inline void
 120:c:\program files (x86)\gnu tools arm embedded\6 2017-q2-update\arm-none-eabi\include\c++\6.3.1\bits\stl_algobase.h ****     iter_swap(_ForwardIterator1 __a, _ForwardIterator2 __b)
 121:c:\program files (x86)\gnu tools arm embedded\6 2017-q2-update\arm-none-eabi\include\c++\6.3.1\bits\stl_algobase.h ****     {
 122:c:\program files (x86)\gnu tools arm embedded\6 2017-q2-update\arm-none-eabi\include\c++\6.3.1\bits\stl_algobase.h ****       // concept requirements
 123:c:\program files (x86)\gnu tools arm embedded\6 2017-q2-update\arm-none-eabi\include\c++\6.3.1\bits\stl_algobase.h ****       __glibcxx_function_requires(_Mutable_ForwardIteratorConcept<
 124:c:\program files (x86)\gnu tools arm embedded\6 2017-q2-update\arm-none-eabi\include\c++\6.3.1\bits\stl_algobase.h **** 				  _ForwardIterator1>)
 125:c:\program files (x86)\gnu tools arm embedded\6 2017-q2-update\arm-none-eabi\include\c++\6.3.1\bits\stl_algobase.h ****       __glibcxx_function_requires(_Mutable_ForwardIteratorConcept<
 126:c:\program files (x86)\gnu tools arm embedded\6 2017-q2-update\arm-none-eabi\include\c++\6.3.1\bits\stl_algobase.h **** 				  _ForwardIterator2>)
 127:c:\program files (x86)\gnu tools arm embedded\6 2017-q2-update\arm-none-eabi\include\c++\6.3.1\bits\stl_algobase.h **** 
 128:c:\program files (x86)\gnu tools arm embedded\6 2017-q2-update\arm-none-eabi\include\c++\6.3.1\bits\stl_algobase.h **** #if __cplusplus < 201103L
 129:c:\program files (x86)\gnu tools arm embedded\6 2017-q2-update\arm-none-eabi\include\c++\6.3.1\bits\stl_algobase.h ****       typedef typename iterator_traits<_ForwardIterator1>::value_type
 130:c:\program files (x86)\gnu tools arm embedded\6 2017-q2-update\arm-none-eabi\include\c++\6.3.1\bits\stl_algobase.h **** 	_ValueType1;
 131:c:\program files (x86)\gnu tools arm embedded\6 2017-q2-update\arm-none-eabi\include\c++\6.3.1\bits\stl_algobase.h ****       typedef typename iterator_traits<_ForwardIterator2>::value_type
 132:c:\program files (x86)\gnu tools arm embedded\6 2017-q2-update\arm-none-eabi\include\c++\6.3.1\bits\stl_algobase.h **** 	_ValueType2;
 133:c:\program files (x86)\gnu tools arm embedded\6 2017-q2-update\arm-none-eabi\include\c++\6.3.1\bits\stl_algobase.h **** 
 134:c:\program files (x86)\gnu tools arm embedded\6 2017-q2-update\arm-none-eabi\include\c++\6.3.1\bits\stl_algobase.h ****       __glibcxx_function_requires(_ConvertibleConcept<_ValueType1,
 135:c:\program files (x86)\gnu tools arm embedded\6 2017-q2-update\arm-none-eabi\include\c++\6.3.1\bits\stl_algobase.h **** 				  _ValueType2>)
 136:c:\program files (x86)\gnu tools arm embedded\6 2017-q2-update\arm-none-eabi\include\c++\6.3.1\bits\stl_algobase.h ****       __glibcxx_function_requires(_ConvertibleConcept<_ValueType2,
 137:c:\program files (x86)\gnu tools arm embedded\6 2017-q2-update\arm-none-eabi\include\c++\6.3.1\bits\stl_algobase.h **** 				  _ValueType1>)
 138:c:\program files (x86)\gnu tools arm embedded\6 2017-q2-update\arm-none-eabi\include\c++\6.3.1\bits\stl_algobase.h **** 
 139:c:\program files (x86)\gnu tools arm embedded\6 2017-q2-update\arm-none-eabi\include\c++\6.3.1\bits\stl_algobase.h ****       typedef typename iterator_traits<_ForwardIterator1>::reference
 140:c:\program files (x86)\gnu tools arm embedded\6 2017-q2-update\arm-none-eabi\include\c++\6.3.1\bits\stl_algobase.h **** 	_ReferenceType1;
 141:c:\program files (x86)\gnu tools arm embedded\6 2017-q2-update\arm-none-eabi\include\c++\6.3.1\bits\stl_algobase.h ****       typedef typename iterator_traits<_ForwardIterator2>::reference
 142:c:\program files (x86)\gnu tools arm embedded\6 2017-q2-update\arm-none-eabi\include\c++\6.3.1\bits\stl_algobase.h **** 	_ReferenceType2;
 143:c:\program files (x86)\gnu tools arm embedded\6 2017-q2-update\arm-none-eabi\include\c++\6.3.1\bits\stl_algobase.h ****       std::__iter_swap<__are_same<_ValueType1, _ValueType2>::__value
 144:c:\program files (x86)\gnu tools arm embedded\6 2017-q2-update\arm-none-eabi\include\c++\6.3.1\bits\stl_algobase.h **** 	&& __are_same<_ValueType1&, _ReferenceType1>::__value
 145:c:\program files (x86)\gnu tools arm embedded\6 2017-q2-update\arm-none-eabi\include\c++\6.3.1\bits\stl_algobase.h **** 	&& __are_same<_ValueType2&, _ReferenceType2>::__value>::
 146:c:\program files (x86)\gnu tools arm embedded\6 2017-q2-update\arm-none-eabi\include\c++\6.3.1\bits\stl_algobase.h **** 	iter_swap(__a, __b);
 147:c:\program files (x86)\gnu tools arm embedded\6 2017-q2-update\arm-none-eabi\include\c++\6.3.1\bits\stl_algobase.h **** #else
 148:c:\program files (x86)\gnu tools arm embedded\6 2017-q2-update\arm-none-eabi\include\c++\6.3.1\bits\stl_algobase.h ****       swap(*__a, *__b);
 149:c:\program files (x86)\gnu tools arm embedded\6 2017-q2-update\arm-none-eabi\include\c++\6.3.1\bits\stl_algobase.h **** #endif
 150:c:\program files (x86)\gnu tools arm embedded\6 2017-q2-update\arm-none-eabi\include\c++\6.3.1\bits\stl_algobase.h ****     }
 151:c:\program files (x86)\gnu tools arm embedded\6 2017-q2-update\arm-none-eabi\include\c++\6.3.1\bits\stl_algobase.h **** 
 152:c:\program files (x86)\gnu tools arm embedded\6 2017-q2-update\arm-none-eabi\include\c++\6.3.1\bits\stl_algobase.h ****   /**
 153:c:\program files (x86)\gnu tools arm embedded\6 2017-q2-update\arm-none-eabi\include\c++\6.3.1\bits\stl_algobase.h ****    *  @brief Swap the elements of two sequences.
 154:c:\program files (x86)\gnu tools arm embedded\6 2017-q2-update\arm-none-eabi\include\c++\6.3.1\bits\stl_algobase.h ****    *  @ingroup mutating_algorithms
 155:c:\program files (x86)\gnu tools arm embedded\6 2017-q2-update\arm-none-eabi\include\c++\6.3.1\bits\stl_algobase.h ****    *  @param  __first1  A forward iterator.
 156:c:\program files (x86)\gnu tools arm embedded\6 2017-q2-update\arm-none-eabi\include\c++\6.3.1\bits\stl_algobase.h ****    *  @param  __last1   A forward iterator.
 157:c:\program files (x86)\gnu tools arm embedded\6 2017-q2-update\arm-none-eabi\include\c++\6.3.1\bits\stl_algobase.h ****    *  @param  __first2  A forward iterator.
 158:c:\program files (x86)\gnu tools arm embedded\6 2017-q2-update\arm-none-eabi\include\c++\6.3.1\bits\stl_algobase.h ****    *  @return   An iterator equal to @p first2+(last1-first1).
 159:c:\program files (x86)\gnu tools arm embedded\6 2017-q2-update\arm-none-eabi\include\c++\6.3.1\bits\stl_algobase.h ****    *
 160:c:\program files (x86)\gnu tools arm embedded\6 2017-q2-update\arm-none-eabi\include\c++\6.3.1\bits\stl_algobase.h ****    *  Swaps each element in the range @p [first1,last1) with the
 161:c:\program files (x86)\gnu tools arm embedded\6 2017-q2-update\arm-none-eabi\include\c++\6.3.1\bits\stl_algobase.h ****    *  corresponding element in the range @p [first2,(last1-first1)).
 162:c:\program files (x86)\gnu tools arm embedded\6 2017-q2-update\arm-none-eabi\include\c++\6.3.1\bits\stl_algobase.h ****    *  The ranges must not overlap.
 163:c:\program files (x86)\gnu tools arm embedded\6 2017-q2-update\arm-none-eabi\include\c++\6.3.1\bits\stl_algobase.h ****   */
 164:c:\program files (x86)\gnu tools arm embedded\6 2017-q2-update\arm-none-eabi\include\c++\6.3.1\bits\stl_algobase.h ****   template<typename _ForwardIterator1, typename _ForwardIterator2>
 165:c:\program files (x86)\gnu tools arm embedded\6 2017-q2-update\arm-none-eabi\include\c++\6.3.1\bits\stl_algobase.h ****     _ForwardIterator2
 166:c:\program files (x86)\gnu tools arm embedded\6 2017-q2-update\arm-none-eabi\include\c++\6.3.1\bits\stl_algobase.h ****     swap_ranges(_ForwardIterator1 __first1, _ForwardIterator1 __last1,
 167:c:\program files (x86)\gnu tools arm embedded\6 2017-q2-update\arm-none-eabi\include\c++\6.3.1\bits\stl_algobase.h **** 		_ForwardIterator2 __first2)
 168:c:\program files (x86)\gnu tools arm embedded\6 2017-q2-update\arm-none-eabi\include\c++\6.3.1\bits\stl_algobase.h ****     {
 169:c:\program files (x86)\gnu tools arm embedded\6 2017-q2-update\arm-none-eabi\include\c++\6.3.1\bits\stl_algobase.h ****       // concept requirements
 170:c:\program files (x86)\gnu tools arm embedded\6 2017-q2-update\arm-none-eabi\include\c++\6.3.1\bits\stl_algobase.h ****       __glibcxx_function_requires(_Mutable_ForwardIteratorConcept<
 171:c:\program files (x86)\gnu tools arm embedded\6 2017-q2-update\arm-none-eabi\include\c++\6.3.1\bits\stl_algobase.h **** 				  _ForwardIterator1>)
 172:c:\program files (x86)\gnu tools arm embedded\6 2017-q2-update\arm-none-eabi\include\c++\6.3.1\bits\stl_algobase.h ****       __glibcxx_function_requires(_Mutable_ForwardIteratorConcept<
 173:c:\program files (x86)\gnu tools arm embedded\6 2017-q2-update\arm-none-eabi\include\c++\6.3.1\bits\stl_algobase.h **** 				  _ForwardIterator2>)
 174:c:\program files (x86)\gnu tools arm embedded\6 2017-q2-update\arm-none-eabi\include\c++\6.3.1\bits\stl_algobase.h ****       __glibcxx_requires_valid_range(__first1, __last1);
 175:c:\program files (x86)\gnu tools arm embedded\6 2017-q2-update\arm-none-eabi\include\c++\6.3.1\bits\stl_algobase.h **** 
 176:c:\program files (x86)\gnu tools arm embedded\6 2017-q2-update\arm-none-eabi\include\c++\6.3.1\bits\stl_algobase.h ****       for (; __first1 != __last1; ++__first1, (void)++__first2)
 177:c:\program files (x86)\gnu tools arm embedded\6 2017-q2-update\arm-none-eabi\include\c++\6.3.1\bits\stl_algobase.h **** 	std::iter_swap(__first1, __first2);
 178:c:\program files (x86)\gnu tools arm embedded\6 2017-q2-update\arm-none-eabi\include\c++\6.3.1\bits\stl_algobase.h ****       return __first2;
 179:c:\program files (x86)\gnu tools arm embedded\6 2017-q2-update\arm-none-eabi\include\c++\6.3.1\bits\stl_algobase.h ****     }
 180:c:\program files (x86)\gnu tools arm embedded\6 2017-q2-update\arm-none-eabi\include\c++\6.3.1\bits\stl_algobase.h **** 
 181:c:\program files (x86)\gnu tools arm embedded\6 2017-q2-update\arm-none-eabi\include\c++\6.3.1\bits\stl_algobase.h ****   /**
 182:c:\program files (x86)\gnu tools arm embedded\6 2017-q2-update\arm-none-eabi\include\c++\6.3.1\bits\stl_algobase.h ****    *  @brief This does what you think it does.
 183:c:\program files (x86)\gnu tools arm embedded\6 2017-q2-update\arm-none-eabi\include\c++\6.3.1\bits\stl_algobase.h ****    *  @ingroup sorting_algorithms
 184:c:\program files (x86)\gnu tools arm embedded\6 2017-q2-update\arm-none-eabi\include\c++\6.3.1\bits\stl_algobase.h ****    *  @param  __a  A thing of arbitrary type.
 185:c:\program files (x86)\gnu tools arm embedded\6 2017-q2-update\arm-none-eabi\include\c++\6.3.1\bits\stl_algobase.h ****    *  @param  __b  Another thing of arbitrary type.
 186:c:\program files (x86)\gnu tools arm embedded\6 2017-q2-update\arm-none-eabi\include\c++\6.3.1\bits\stl_algobase.h ****    *  @return   The lesser of the parameters.
 187:c:\program files (x86)\gnu tools arm embedded\6 2017-q2-update\arm-none-eabi\include\c++\6.3.1\bits\stl_algobase.h ****    *
 188:c:\program files (x86)\gnu tools arm embedded\6 2017-q2-update\arm-none-eabi\include\c++\6.3.1\bits\stl_algobase.h ****    *  This is the simple classic generic implementation.  It will work on
 189:c:\program files (x86)\gnu tools arm embedded\6 2017-q2-update\arm-none-eabi\include\c++\6.3.1\bits\stl_algobase.h ****    *  temporary expressions, since they are only evaluated once, unlike a
 190:c:\program files (x86)\gnu tools arm embedded\6 2017-q2-update\arm-none-eabi\include\c++\6.3.1\bits\stl_algobase.h ****    *  preprocessor macro.
 191:c:\program files (x86)\gnu tools arm embedded\6 2017-q2-update\arm-none-eabi\include\c++\6.3.1\bits\stl_algobase.h ****   */
 192:c:\program files (x86)\gnu tools arm embedded\6 2017-q2-update\arm-none-eabi\include\c++\6.3.1\bits\stl_algobase.h ****   template<typename _Tp>
 193:c:\program files (x86)\gnu tools arm embedded\6 2017-q2-update\arm-none-eabi\include\c++\6.3.1\bits\stl_algobase.h ****     _GLIBCXX14_CONSTEXPR
 194:c:\program files (x86)\gnu tools arm embedded\6 2017-q2-update\arm-none-eabi\include\c++\6.3.1\bits\stl_algobase.h ****     inline const _Tp&
 195:c:\program files (x86)\gnu tools arm embedded\6 2017-q2-update\arm-none-eabi\include\c++\6.3.1\bits\stl_algobase.h ****     min(const _Tp& __a, const _Tp& __b)
 196:c:\program files (x86)\gnu tools arm embedded\6 2017-q2-update\arm-none-eabi\include\c++\6.3.1\bits\stl_algobase.h ****     {
 197:c:\program files (x86)\gnu tools arm embedded\6 2017-q2-update\arm-none-eabi\include\c++\6.3.1\bits\stl_algobase.h ****       // concept requirements
 198:c:\program files (x86)\gnu tools arm embedded\6 2017-q2-update\arm-none-eabi\include\c++\6.3.1\bits\stl_algobase.h ****       __glibcxx_function_requires(_LessThanComparableConcept<_Tp>)
 199:c:\program files (x86)\gnu tools arm embedded\6 2017-q2-update\arm-none-eabi\include\c++\6.3.1\bits\stl_algobase.h ****       //return __b < __a ? __b : __a;
 200:c:\program files (x86)\gnu tools arm embedded\6 2017-q2-update\arm-none-eabi\include\c++\6.3.1\bits\stl_algobase.h ****       if (__b < __a)
 201:c:\program files (x86)\gnu tools arm embedded\6 2017-q2-update\arm-none-eabi\include\c++\6.3.1\bits\stl_algobase.h **** 	return __b;
 202:c:\program files (x86)\gnu tools arm embedded\6 2017-q2-update\arm-none-eabi\include\c++\6.3.1\bits\stl_algobase.h ****       return __a;
 203:c:\program files (x86)\gnu tools arm embedded\6 2017-q2-update\arm-none-eabi\include\c++\6.3.1\bits\stl_algobase.h ****     }
 204:c:\program files (x86)\gnu tools arm embedded\6 2017-q2-update\arm-none-eabi\include\c++\6.3.1\bits\stl_algobase.h **** 
 205:c:\program files (x86)\gnu tools arm embedded\6 2017-q2-update\arm-none-eabi\include\c++\6.3.1\bits\stl_algobase.h ****   /**
 206:c:\program files (x86)\gnu tools arm embedded\6 2017-q2-update\arm-none-eabi\include\c++\6.3.1\bits\stl_algobase.h ****    *  @brief This does what you think it does.
 207:c:\program files (x86)\gnu tools arm embedded\6 2017-q2-update\arm-none-eabi\include\c++\6.3.1\bits\stl_algobase.h ****    *  @ingroup sorting_algorithms
 208:c:\program files (x86)\gnu tools arm embedded\6 2017-q2-update\arm-none-eabi\include\c++\6.3.1\bits\stl_algobase.h ****    *  @param  __a  A thing of arbitrary type.
 209:c:\program files (x86)\gnu tools arm embedded\6 2017-q2-update\arm-none-eabi\include\c++\6.3.1\bits\stl_algobase.h ****    *  @param  __b  Another thing of arbitrary type.
 210:c:\program files (x86)\gnu tools arm embedded\6 2017-q2-update\arm-none-eabi\include\c++\6.3.1\bits\stl_algobase.h ****    *  @return   The greater of the parameters.
 211:c:\program files (x86)\gnu tools arm embedded\6 2017-q2-update\arm-none-eabi\include\c++\6.3.1\bits\stl_algobase.h ****    *
 212:c:\program files (x86)\gnu tools arm embedded\6 2017-q2-update\arm-none-eabi\include\c++\6.3.1\bits\stl_algobase.h ****    *  This is the simple classic generic implementation.  It will work on
 213:c:\program files (x86)\gnu tools arm embedded\6 2017-q2-update\arm-none-eabi\include\c++\6.3.1\bits\stl_algobase.h ****    *  temporary expressions, since they are only evaluated once, unlike a
 214:c:\program files (x86)\gnu tools arm embedded\6 2017-q2-update\arm-none-eabi\include\c++\6.3.1\bits\stl_algobase.h ****    *  preprocessor macro.
 215:c:\program files (x86)\gnu tools arm embedded\6 2017-q2-update\arm-none-eabi\include\c++\6.3.1\bits\stl_algobase.h ****   */
 216:c:\program files (x86)\gnu tools arm embedded\6 2017-q2-update\arm-none-eabi\include\c++\6.3.1\bits\stl_algobase.h ****   template<typename _Tp>
 217:c:\program files (x86)\gnu tools arm embedded\6 2017-q2-update\arm-none-eabi\include\c++\6.3.1\bits\stl_algobase.h ****     _GLIBCXX14_CONSTEXPR
 218:c:\program files (x86)\gnu tools arm embedded\6 2017-q2-update\arm-none-eabi\include\c++\6.3.1\bits\stl_algobase.h ****     inline const _Tp&
 219:c:\program files (x86)\gnu tools arm embedded\6 2017-q2-update\arm-none-eabi\include\c++\6.3.1\bits\stl_algobase.h ****     max(const _Tp& __a, const _Tp& __b)
 220:c:\program files (x86)\gnu tools arm embedded\6 2017-q2-update\arm-none-eabi\include\c++\6.3.1\bits\stl_algobase.h ****     {
 221:c:\program files (x86)\gnu tools arm embedded\6 2017-q2-update\arm-none-eabi\include\c++\6.3.1\bits\stl_algobase.h ****       // concept requirements
 222:c:\program files (x86)\gnu tools arm embedded\6 2017-q2-update\arm-none-eabi\include\c++\6.3.1\bits\stl_algobase.h ****       __glibcxx_function_requires(_LessThanComparableConcept<_Tp>)
 223:c:\program files (x86)\gnu tools arm embedded\6 2017-q2-update\arm-none-eabi\include\c++\6.3.1\bits\stl_algobase.h ****       //return  __a < __b ? __b : __a;
 224:c:\program files (x86)\gnu tools arm embedded\6 2017-q2-update\arm-none-eabi\include\c++\6.3.1\bits\stl_algobase.h ****       if (__a < __b)
 179              		.loc 3 224 0
 180 0074 000053E3 		cmp	r3, #0
 181 0078 0030A0D3 		movle	r3, #0
 182              	.LVL17:
 183 007c 020000DA 		ble	.L20
 184              	.LVL18:
 185              	.LBE256:
 186              	.LBE255:
 187              	.LBB257:
 188              	.LBB258:
 200:c:\program files (x86)\gnu tools arm embedded\6 2017-q2-update\arm-none-eabi\include\c++\6.3.1\bits\stl_algobase.h **** 	return __b;
 189              		.loc 3 200 0
 190 0080 FE0053E3 		cmp	r3, #254
 191 0084 7330EFD6 		uxtble	r3, r3
 192              	.LVL19:
 193 0088 FF30A0C3 		movgt	r3, #255
 194              	.LVL20:
 195              	.L20:
 196              	.LBE258:
 197              	.LBE257:
 198              	.LBE259:
 199              	.LBE260:
 217:../src/tensorflow_lite/tensorflow/lite/micro/kernels/activations.cc **** }
 200              		.loc 1 217 0
 201 008c 0000A0E3 		mov	r0, #0
 212:../src/tensorflow_lite/tensorflow/lite/micro/kernels/activations.cc ****                                                     input->params.zero_point);
 202              		.loc 1 212 0
 203 0090 0230C4E5 		strb	r3, [r4, #2]
 214:../src/tensorflow_lite/tensorflow/lite/micro/kernels/activations.cc ****   }
 204              		.loc 1 214 0
 205 0094 0350C4E5 		strb	r5, [r4, #3]
 206              		.loc 1 218 0
 207 0098 0CD08DE2 		add	sp, sp, #12
 208              		.cfi_remember_state
 209              		.cfi_def_cfa_offset 12
 210              		@ sp needed
 211 009c 3080BDE8 		pop	{r4, r5, pc}
 212              	.LVL21:
 213              	.L29:
 214              		.cfi_restore_state
 215              	.LBB261:
 216              	.LBB262:
 217              		.loc 2 37 0
 218 00a0 037AD0ED 		vldr.32	s15, [r0, #12]
 219 00a4 087AB1EE 		vmov.f32	s14, #6.0e+0
 220              	.LBE262:
 221              	.LBE261:
 209:../src/tensorflow_lite/tensorflow/lite/micro/kernels/activations.cc ****     data->zero_int8 = input->params.zero_point;
 222              		.loc 1 209 0
 223 00a8 105090E5 		ldr	r5, [r0, #16]
 224              	.LVL22:
 225              	.LBB268:
 226              	.LBB267:
 227              		.loc 2 37 0
 228 00ac 270A87EE 		vdiv.f32	s0, s14, s15
 229 00b0 C00AB7EE 		vcvt.f64.f32	d0, s0
 230 00b4 FEFFFFEB 		bl	round
 231              	.LVL23:
 232 00b8 905A07EE 		vmov	s15, r5	@ int
 233 00bc E70BF8EE 		vcvt.f64.s32	d16, s15
 234 00c0 800B30EE 		vadd.f64	d0, d16, d0
 235 00c4 C07BFDEE 		vcvt.s32.f64	s15, d0
 236 00c8 903A17EE 		vmov	r3, s15	@ int
 237              	.LVL24:
 238              	.LBB263:
 239              	.LBB264:
 240              		.loc 3 224 0
 241 00cc 7F0073E3 		cmn	r3, #127
 242 00d0 7F30E0B3 		mvnlt	r3, #127
 243              	.LVL25:
 244 00d4 020000BA 		blt	.L19
 245              	.LVL26:
 246              	.LBE264:
 247              	.LBE263:
 248              	.LBB265:
 249              	.LBB266:
 200:c:\program files (x86)\gnu tools arm embedded\6 2017-q2-update\arm-none-eabi\include\c++\6.3.1\bits\stl_algobase.h **** 	return __b;
 250              		.loc 3 200 0
 251 00d8 7E0053E3 		cmp	r3, #126
 252 00dc 7330AFD6 		sxtble	r3, r3
 253              	.LVL27:
 254 00e0 7F30A0C3 		movgt	r3, #127
 255              	.LVL28:
 256              	.L19:
 257              	.LBE266:
 258              	.LBE265:
 259              	.LBE267:
 260              	.LBE268:
 217:../src/tensorflow_lite/tensorflow/lite/micro/kernels/activations.cc **** }
 261              		.loc 1 217 0
 262 00e4 0000A0E3 		mov	r0, #0
 208:../src/tensorflow_lite/tensorflow/lite/micro/kernels/activations.cc ****                                                   input->params.zero_point);
 263              		.loc 1 208 0
 264 00e8 0030C4E5 		strb	r3, [r4]
 210:../src/tensorflow_lite/tensorflow/lite/micro/kernels/activations.cc ****   } else if (input->type == kTfLiteUInt8) {
 265              		.loc 1 210 0
 266 00ec 0150C4E5 		strb	r5, [r4, #1]
 267              		.loc 1 218 0
 268 00f0 0CD08DE2 		add	sp, sp, #12
 269              		.cfi_remember_state
 270              		.cfi_def_cfa_offset 12
 271              		@ sp needed
 272 00f4 3080BDE8 		pop	{r4, r5, pc}
 273              	.LVL29:
 274              	.L28:
 275              		.cfi_restore_state
 276              	.LBB269:
 277              	.LBB270:
 205:../src/tensorflow_lite/tensorflow/lite/micro/kernels/activations.cc **** 
 278              		.loc 1 205 0
 279 00f8 003000E3 		movw	r3, #:lower16:.LC4
 280 00fc 002000E3 		movw	r2, #:lower16:.LC2
 281 0100 003040E3 		movt	r3, #:upper16:.LC4
 282 0104 001000E3 		movw	r1, #:lower16:.LC3
 283 0108 00308DE5 		str	r3, [sp]
 284 010c 0500A0E1 		mov	r0, r5
 285              	.LVL30:
 286 0110 002040E3 		movt	r2, #:upper16:.LC2
 287 0114 001040E3 		movt	r1, #:upper16:.LC3
 288 0118 144095E5 		ldr	r4, [r5, #20]
 289              	.LVL31:
 290 011c CD30A0E3 		mov	r3, #205
 291 0120 34FF2FE1 		blx	r4
 292              	.LVL32:
 293 0124 0100A0E3 		mov	r0, #1
 294 0128 C4FFFFEA 		b	.L17
 295              	.LVL33:
 296              	.L27:
 297              	.LBE270:
 298              	.LBE269:
 201:../src/tensorflow_lite/tensorflow/lite/micro/kernels/activations.cc ****   Relu6OpData* data = static_cast<Relu6OpData*>(node->user_data);
 299              		.loc 1 201 0 discriminator 1
 300 012c FEFFFFEB 		bl	abort
 301              	.LVL34:
 302              		.cfi_endproc
 303              	.LFE4183:
 304              		.fnend
 306              		.section	.text._ZN6tflite3ops5micro11activations11ReluPrepareEP13TfLiteContextP10TfLiteNode,"ax",%
 307              		.align	2
 308              		.global	_ZN6tflite3ops5micro11activations11ReluPrepareEP13TfLiteContextP10TfLiteNode
 309              		.syntax unified
 310              		.arm
 311              		.fpu neon
 313              	_ZN6tflite3ops5micro11activations11ReluPrepareEP13TfLiteContextP10TfLiteNode:
 314              		.fnstart
 315              	.LFB4180:
 137:../src/tensorflow_lite/tensorflow/lite/micro/kernels/activations.cc ****   TFLITE_DCHECK(node->user_data != nullptr);
 316              		.loc 1 137 0
 317              		.cfi_startproc
 318              		.cfi_personality 0,__gxx_personality_v0
 319              		.cfi_lsda 0,.LLSDA4180
 320              		@ args = 0, pretend = 0, frame = 72
 321              		@ frame_needed = 0, uses_anonymous_args = 0
 322              	.LVL35:
 323 0000 F0412DE9 		push	{r4, r5, r6, r7, r8, lr}
 324              		.save {r4, r5, r6, r7, r8, lr}
 325              		.cfi_def_cfa_offset 24
 326              		.cfi_offset 4, -24
 327              		.cfi_offset 5, -20
 328              		.cfi_offset 6, -16
 329              		.cfi_offset 7, -12
 330              		.cfi_offset 8, -8
 331              		.cfi_offset 14, -4
 138:../src/tensorflow_lite/tensorflow/lite/micro/kernels/activations.cc ****   ReluOpData* data = static_cast<ReluOpData*>(node->user_data);
 332              		.loc 1 138 0
 333 0004 105091E5 		ldr	r5, [r1, #16]
 137:../src/tensorflow_lite/tensorflow/lite/micro/kernels/activations.cc ****   TFLITE_DCHECK(node->user_data != nullptr);
 334              		.loc 1 137 0
 335 0008 028B2DED 		vpush.64	{d8}
 336              		.vsave {d8}
 337              		.cfi_def_cfa_offset 32
 338              		.cfi_offset 80, -32
 339              		.cfi_offset 81, -28
 340              		.pad #80
 341 000c 50D04DE2 		sub	sp, sp, #80
 342              		.cfi_def_cfa_offset 112
 138:../src/tensorflow_lite/tensorflow/lite/micro/kernels/activations.cc ****   ReluOpData* data = static_cast<ReluOpData*>(node->user_data);
 343              		.loc 1 138 0
 344 0010 000055E3 		cmp	r5, #0
 345 0014 BF00000A 		beq	.L92
 346              	.LVL36:
 141:../src/tensorflow_lite/tensorflow/lite/micro/kernels/activations.cc ****   TF_LITE_ENSURE(context, input != nullptr);
 347              		.loc 1 141 0
 348 0018 0020A0E3 		mov	r2, #0
 349 001c 0140A0E1 		mov	r4, r1
 350 0020 0070A0E1 		mov	r7, r0
 351              	.LEHB0:
 352 0024 FEFFFFEB 		bl	_ZN6tflite8GetInputEPK13TfLiteContextPK10TfLiteNodei
 353              	.LVL37:
 142:../src/tensorflow_lite/tensorflow/lite/micro/kernels/activations.cc ****   TfLiteTensor* output = GetOutput(context, node, kOutputTensor);
 354              		.loc 1 142 0
 355 0028 006050E2 		subs	r6, r0, #0
 356 002c 1C00000A 		beq	.L93
 143:../src/tensorflow_lite/tensorflow/lite/micro/kernels/activations.cc ****   TF_LITE_ENSURE(context, output != nullptr);
 357              		.loc 1 143 0
 358 0030 0410A0E1 		mov	r1, r4
 359 0034 0020A0E3 		mov	r2, #0
 360 0038 0700A0E1 		mov	r0, r7
 361              	.LVL38:
 362 003c FEFFFFEB 		bl	_ZN6tflite9GetOutputEP13TfLiteContextPK10TfLiteNodei
 363              	.LVL39:
 144:../src/tensorflow_lite/tensorflow/lite/micro/kernels/activations.cc **** 
 364              		.loc 1 144 0
 365 0040 004050E2 		subs	r4, r0, #0
 366              	.LVL40:
 367 0044 A300000A 		beq	.L94
 146:../src/tensorflow_lite/tensorflow/lite/micro/kernels/activations.cc ****     CalculateReluOpData<int8_t>(input, output, data);
 368              		.loc 1 146 0
 369 0048 0030D6E5 		ldrb	r3, [r6]	@ zero_extendqisi2
 370 004c 090053E3 		cmp	r3, #9
 371 0050 2200000A 		beq	.L95
 148:../src/tensorflow_lite/tensorflow/lite/micro/kernels/activations.cc ****     CalculateReluOpData<uint8_t>(input, output, data);
 372              		.loc 1 148 0
 373 0054 030053E3 		cmp	r3, #3
 374 0058 0300000A 		beq	.L96
 375              	.LVL41:
 376              	.L60:
 152:../src/tensorflow_lite/tensorflow/lite/micro/kernels/activations.cc **** }
 377              		.loc 1 152 0
 378 005c 0000A0E3 		mov	r0, #0
 379              	.L34:
 153:../src/tensorflow_lite/tensorflow/lite/micro/kernels/activations.cc **** 
 380              		.loc 1 153 0
 381 0060 50D08DE2 		add	sp, sp, #80
 382              		.cfi_remember_state
 383              		.cfi_def_cfa_offset 32
 384              		@ sp needed
 385 0064 028BBDEC 		vldm	sp!, {d8}
 386              		.cfi_restore 80
 387              		.cfi_restore 81
 388              		.cfi_def_cfa_offset 24
 389 0068 F081BDE8 		pop	{r4, r5, r6, r7, r8, pc}
 390              	.LVL42:
 391              	.L96:
 392              		.cfi_restore_state
 393              	.LBB343:
 394              	.LBB344:
 395              	.LBB345:
 396              	.LBB346:
 397              		.file 4 "C:/Renesas/e2studio_2021_01_workspace_RZA2M_ANPR/ANPR_RZA2M_EBK/src/tensorflow_lite/tenso
   1:C:/Renesas/e2studio_2021_01_workspace_RZA2M_ANPR/ANPR_RZA2M_EBK/src/tensorflow_lite/tensorflow/lite/kernels/internal\tensor_ctypes.h **** /* Copyright 2017 The TensorFlow Authors. All Rights Reserved.
   2:C:/Renesas/e2studio_2021_01_workspace_RZA2M_ANPR/ANPR_RZA2M_EBK/src/tensorflow_lite/tensorflow/lite/kernels/internal\tensor_ctypes.h **** 
   3:C:/Renesas/e2studio_2021_01_workspace_RZA2M_ANPR/ANPR_RZA2M_EBK/src/tensorflow_lite/tensorflow/lite/kernels/internal\tensor_ctypes.h **** Licensed under the Apache License, Version 2.0 (the "License");
   4:C:/Renesas/e2studio_2021_01_workspace_RZA2M_ANPR/ANPR_RZA2M_EBK/src/tensorflow_lite/tensorflow/lite/kernels/internal\tensor_ctypes.h **** you may not use this file except in compliance with the License.
   5:C:/Renesas/e2studio_2021_01_workspace_RZA2M_ANPR/ANPR_RZA2M_EBK/src/tensorflow_lite/tensorflow/lite/kernels/internal\tensor_ctypes.h **** You may obtain a copy of the License at
   6:C:/Renesas/e2studio_2021_01_workspace_RZA2M_ANPR/ANPR_RZA2M_EBK/src/tensorflow_lite/tensorflow/lite/kernels/internal\tensor_ctypes.h **** 
   7:C:/Renesas/e2studio_2021_01_workspace_RZA2M_ANPR/ANPR_RZA2M_EBK/src/tensorflow_lite/tensorflow/lite/kernels/internal\tensor_ctypes.h ****     http://www.apache.org/licenses/LICENSE-2.0
   8:C:/Renesas/e2studio_2021_01_workspace_RZA2M_ANPR/ANPR_RZA2M_EBK/src/tensorflow_lite/tensorflow/lite/kernels/internal\tensor_ctypes.h **** 
   9:C:/Renesas/e2studio_2021_01_workspace_RZA2M_ANPR/ANPR_RZA2M_EBK/src/tensorflow_lite/tensorflow/lite/kernels/internal\tensor_ctypes.h **** Unless required by applicable law or agreed to in writing, software
  10:C:/Renesas/e2studio_2021_01_workspace_RZA2M_ANPR/ANPR_RZA2M_EBK/src/tensorflow_lite/tensorflow/lite/kernels/internal\tensor_ctypes.h **** distributed under the License is distributed on an "AS IS" BASIS,
  11:C:/Renesas/e2studio_2021_01_workspace_RZA2M_ANPR/ANPR_RZA2M_EBK/src/tensorflow_lite/tensorflow/lite/kernels/internal\tensor_ctypes.h **** WITHOUT WARRANTIES OR CONDITIONS OF ANY KIND, either express or implied.
  12:C:/Renesas/e2studio_2021_01_workspace_RZA2M_ANPR/ANPR_RZA2M_EBK/src/tensorflow_lite/tensorflow/lite/kernels/internal\tensor_ctypes.h **** See the License for the specific language governing permissions and
  13:C:/Renesas/e2studio_2021_01_workspace_RZA2M_ANPR/ANPR_RZA2M_EBK/src/tensorflow_lite/tensorflow/lite/kernels/internal\tensor_ctypes.h **** limitations under the License.
  14:C:/Renesas/e2studio_2021_01_workspace_RZA2M_ANPR/ANPR_RZA2M_EBK/src/tensorflow_lite/tensorflow/lite/kernels/internal\tensor_ctypes.h **** ==============================================================================*/
  15:C:/Renesas/e2studio_2021_01_workspace_RZA2M_ANPR/ANPR_RZA2M_EBK/src/tensorflow_lite/tensorflow/lite/kernels/internal\tensor_ctypes.h **** #ifndef TENSORFLOW_LITE_KERNELS_INTERNAL_TENSOR_CTYPES_H_
  16:C:/Renesas/e2studio_2021_01_workspace_RZA2M_ANPR/ANPR_RZA2M_EBK/src/tensorflow_lite/tensorflow/lite/kernels/internal\tensor_ctypes.h **** #define TENSORFLOW_LITE_KERNELS_INTERNAL_TENSOR_CTYPES_H_
  17:C:/Renesas/e2studio_2021_01_workspace_RZA2M_ANPR/ANPR_RZA2M_EBK/src/tensorflow_lite/tensorflow/lite/kernels/internal\tensor_ctypes.h **** 
  18:C:/Renesas/e2studio_2021_01_workspace_RZA2M_ANPR/ANPR_RZA2M_EBK/src/tensorflow_lite/tensorflow/lite/kernels/internal\tensor_ctypes.h **** #include "tensorflow/lite/c/common.h"
  19:C:/Renesas/e2studio_2021_01_workspace_RZA2M_ANPR/ANPR_RZA2M_EBK/src/tensorflow_lite/tensorflow/lite/kernels/internal\tensor_ctypes.h **** #include "tensorflow/lite/kernels/internal/types.h"
  20:C:/Renesas/e2studio_2021_01_workspace_RZA2M_ANPR/ANPR_RZA2M_EBK/src/tensorflow_lite/tensorflow/lite/kernels/internal\tensor_ctypes.h **** 
  21:C:/Renesas/e2studio_2021_01_workspace_RZA2M_ANPR/ANPR_RZA2M_EBK/src/tensorflow_lite/tensorflow/lite/kernels/internal\tensor_ctypes.h **** namespace tflite {
  22:C:/Renesas/e2studio_2021_01_workspace_RZA2M_ANPR/ANPR_RZA2M_EBK/src/tensorflow_lite/tensorflow/lite/kernels/internal\tensor_ctypes.h **** 
  23:C:/Renesas/e2studio_2021_01_workspace_RZA2M_ANPR/ANPR_RZA2M_EBK/src/tensorflow_lite/tensorflow/lite/kernels/internal\tensor_ctypes.h **** template <typename T>
  24:C:/Renesas/e2studio_2021_01_workspace_RZA2M_ANPR/ANPR_RZA2M_EBK/src/tensorflow_lite/tensorflow/lite/kernels/internal\tensor_ctypes.h **** inline T* GetTensorData(TfLiteTensor* tensor) {
  25:C:/Renesas/e2studio_2021_01_workspace_RZA2M_ANPR/ANPR_RZA2M_EBK/src/tensorflow_lite/tensorflow/lite/kernels/internal\tensor_ctypes.h ****   return tensor != nullptr ? reinterpret_cast<T*>(tensor->data.raw) : nullptr;
  26:C:/Renesas/e2studio_2021_01_workspace_RZA2M_ANPR/ANPR_RZA2M_EBK/src/tensorflow_lite/tensorflow/lite/kernels/internal\tensor_ctypes.h **** }
  27:C:/Renesas/e2studio_2021_01_workspace_RZA2M_ANPR/ANPR_RZA2M_EBK/src/tensorflow_lite/tensorflow/lite/kernels/internal\tensor_ctypes.h **** 
  28:C:/Renesas/e2studio_2021_01_workspace_RZA2M_ANPR/ANPR_RZA2M_EBK/src/tensorflow_lite/tensorflow/lite/kernels/internal\tensor_ctypes.h **** template <typename T>
  29:C:/Renesas/e2studio_2021_01_workspace_RZA2M_ANPR/ANPR_RZA2M_EBK/src/tensorflow_lite/tensorflow/lite/kernels/internal\tensor_ctypes.h **** inline const T* GetTensorData(const TfLiteTensor* tensor) {
  30:C:/Renesas/e2studio_2021_01_workspace_RZA2M_ANPR/ANPR_RZA2M_EBK/src/tensorflow_lite/tensorflow/lite/kernels/internal\tensor_ctypes.h ****   return tensor != nullptr ? reinterpret_cast<const T*>(tensor->data.raw)
  31:C:/Renesas/e2studio_2021_01_workspace_RZA2M_ANPR/ANPR_RZA2M_EBK/src/tensorflow_lite/tensorflow/lite/kernels/internal\tensor_ctypes.h ****                            : nullptr;
  32:C:/Renesas/e2studio_2021_01_workspace_RZA2M_ANPR/ANPR_RZA2M_EBK/src/tensorflow_lite/tensorflow/lite/kernels/internal\tensor_ctypes.h **** }
  33:C:/Renesas/e2studio_2021_01_workspace_RZA2M_ANPR/ANPR_RZA2M_EBK/src/tensorflow_lite/tensorflow/lite/kernels/internal\tensor_ctypes.h **** 
  34:C:/Renesas/e2studio_2021_01_workspace_RZA2M_ANPR/ANPR_RZA2M_EBK/src/tensorflow_lite/tensorflow/lite/kernels/internal\tensor_ctypes.h **** inline RuntimeShape GetTensorShape(const TfLiteTensor* tensor) {
  35:C:/Renesas/e2studio_2021_01_workspace_RZA2M_ANPR/ANPR_RZA2M_EBK/src/tensorflow_lite/tensorflow/lite/kernels/internal\tensor_ctypes.h ****   if (tensor == nullptr) {
  36:C:/Renesas/e2studio_2021_01_workspace_RZA2M_ANPR/ANPR_RZA2M_EBK/src/tensorflow_lite/tensorflow/lite/kernels/internal\tensor_ctypes.h ****     return RuntimeShape();
  37:C:/Renesas/e2studio_2021_01_workspace_RZA2M_ANPR/ANPR_RZA2M_EBK/src/tensorflow_lite/tensorflow/lite/kernels/internal\tensor_ctypes.h ****   }
  38:C:/Renesas/e2studio_2021_01_workspace_RZA2M_ANPR/ANPR_RZA2M_EBK/src/tensorflow_lite/tensorflow/lite/kernels/internal\tensor_ctypes.h **** 
  39:C:/Renesas/e2studio_2021_01_workspace_RZA2M_ANPR/ANPR_RZA2M_EBK/src/tensorflow_lite/tensorflow/lite/kernels/internal\tensor_ctypes.h ****   TfLiteIntArray* dims = tensor->dims;
  40:C:/Renesas/e2studio_2021_01_workspace_RZA2M_ANPR/ANPR_RZA2M_EBK/src/tensorflow_lite/tensorflow/lite/kernels/internal\tensor_ctypes.h ****   const int dims_size = dims->size;
 398              		.loc 4 40 0
 399 006c 088096E5 		ldr	r8, [r6, #8]
 400              	.LBE346:
 401              	.LBE345:
  74:../src/tensorflow_lite/tensorflow/lite/micro/kernels/activations.cc **** 
 402              		.loc 1 74 0
 403 0070 038AD6ED 		vldr.32	s17, [r6, #12]
 404 0074 038A94ED 		vldr.32	s16, [r4, #12]
 405              	.LVL43:
 406              	.LBB359:
 407              	.LBB357:
 408              		.loc 4 40 0
 409 0078 042098E4 		ldr	r2, [r8], #4
 410              	.LVL44:
 411              	.LBB347:
 412              	.LBB348:
 413              	.LBB349:
 414              	.LBB350:
 415              	.LBB351:
 416              		.file 5 "C:/Renesas/e2studio_2021_01_workspace_RZA2M_ANPR/ANPR_RZA2M_EBK/src/tensorflow_lite/tenso
   1:C:/Renesas/e2studio_2021_01_workspace_RZA2M_ANPR/ANPR_RZA2M_EBK/src/tensorflow_lite/tensorflow/lite/kernels/internal\types.h **** /* Copyright 2018 The TensorFlow Authors. All Rights Reserved.
   2:C:/Renesas/e2studio_2021_01_workspace_RZA2M_ANPR/ANPR_RZA2M_EBK/src/tensorflow_lite/tensorflow/lite/kernels/internal\types.h **** 
   3:C:/Renesas/e2studio_2021_01_workspace_RZA2M_ANPR/ANPR_RZA2M_EBK/src/tensorflow_lite/tensorflow/lite/kernels/internal\types.h **** Licensed under the Apache License, Version 2.0 (the "License");
   4:C:/Renesas/e2studio_2021_01_workspace_RZA2M_ANPR/ANPR_RZA2M_EBK/src/tensorflow_lite/tensorflow/lite/kernels/internal\types.h **** you may not use this file except in compliance with the License.
   5:C:/Renesas/e2studio_2021_01_workspace_RZA2M_ANPR/ANPR_RZA2M_EBK/src/tensorflow_lite/tensorflow/lite/kernels/internal\types.h **** You may obtain a copy of the License at
   6:C:/Renesas/e2studio_2021_01_workspace_RZA2M_ANPR/ANPR_RZA2M_EBK/src/tensorflow_lite/tensorflow/lite/kernels/internal\types.h **** 
   7:C:/Renesas/e2studio_2021_01_workspace_RZA2M_ANPR/ANPR_RZA2M_EBK/src/tensorflow_lite/tensorflow/lite/kernels/internal\types.h ****     http://www.apache.org/licenses/LICENSE-2.0
   8:C:/Renesas/e2studio_2021_01_workspace_RZA2M_ANPR/ANPR_RZA2M_EBK/src/tensorflow_lite/tensorflow/lite/kernels/internal\types.h **** 
   9:C:/Renesas/e2studio_2021_01_workspace_RZA2M_ANPR/ANPR_RZA2M_EBK/src/tensorflow_lite/tensorflow/lite/kernels/internal\types.h **** Unless required by applicable law or agreed to in writing, software
  10:C:/Renesas/e2studio_2021_01_workspace_RZA2M_ANPR/ANPR_RZA2M_EBK/src/tensorflow_lite/tensorflow/lite/kernels/internal\types.h **** distributed under the License is distributed on an "AS IS" BASIS,
  11:C:/Renesas/e2studio_2021_01_workspace_RZA2M_ANPR/ANPR_RZA2M_EBK/src/tensorflow_lite/tensorflow/lite/kernels/internal\types.h **** WITHOUT WARRANTIES OR CONDITIONS OF ANY KIND, either express or implied.
  12:C:/Renesas/e2studio_2021_01_workspace_RZA2M_ANPR/ANPR_RZA2M_EBK/src/tensorflow_lite/tensorflow/lite/kernels/internal\types.h **** See the License for the specific language governing permissions and
  13:C:/Renesas/e2studio_2021_01_workspace_RZA2M_ANPR/ANPR_RZA2M_EBK/src/tensorflow_lite/tensorflow/lite/kernels/internal\types.h **** limitations under the License.
  14:C:/Renesas/e2studio_2021_01_workspace_RZA2M_ANPR/ANPR_RZA2M_EBK/src/tensorflow_lite/tensorflow/lite/kernels/internal\types.h **** ==============================================================================*/
  15:C:/Renesas/e2studio_2021_01_workspace_RZA2M_ANPR/ANPR_RZA2M_EBK/src/tensorflow_lite/tensorflow/lite/kernels/internal\types.h **** #ifndef TENSORFLOW_LITE_KERNELS_INTERNAL_TYPES_H_
  16:C:/Renesas/e2studio_2021_01_workspace_RZA2M_ANPR/ANPR_RZA2M_EBK/src/tensorflow_lite/tensorflow/lite/kernels/internal\types.h **** #define TENSORFLOW_LITE_KERNELS_INTERNAL_TYPES_H_
  17:C:/Renesas/e2studio_2021_01_workspace_RZA2M_ANPR/ANPR_RZA2M_EBK/src/tensorflow_lite/tensorflow/lite/kernels/internal\types.h **** 
  18:C:/Renesas/e2studio_2021_01_workspace_RZA2M_ANPR/ANPR_RZA2M_EBK/src/tensorflow_lite/tensorflow/lite/kernels/internal\types.h **** #include <algorithm>
  19:C:/Renesas/e2studio_2021_01_workspace_RZA2M_ANPR/ANPR_RZA2M_EBK/src/tensorflow_lite/tensorflow/lite/kernels/internal\types.h **** #include <cstdint>
  20:C:/Renesas/e2studio_2021_01_workspace_RZA2M_ANPR/ANPR_RZA2M_EBK/src/tensorflow_lite/tensorflow/lite/kernels/internal\types.h **** #include <cstring>
  21:C:/Renesas/e2studio_2021_01_workspace_RZA2M_ANPR/ANPR_RZA2M_EBK/src/tensorflow_lite/tensorflow/lite/kernels/internal\types.h **** #include <initializer_list>
  22:C:/Renesas/e2studio_2021_01_workspace_RZA2M_ANPR/ANPR_RZA2M_EBK/src/tensorflow_lite/tensorflow/lite/kernels/internal\types.h **** 
  23:C:/Renesas/e2studio_2021_01_workspace_RZA2M_ANPR/ANPR_RZA2M_EBK/src/tensorflow_lite/tensorflow/lite/kernels/internal\types.h **** #include "tensorflow/lite/kernels/internal/compatibility.h"
  24:C:/Renesas/e2studio_2021_01_workspace_RZA2M_ANPR/ANPR_RZA2M_EBK/src/tensorflow_lite/tensorflow/lite/kernels/internal\types.h **** 
  25:C:/Renesas/e2studio_2021_01_workspace_RZA2M_ANPR/ANPR_RZA2M_EBK/src/tensorflow_lite/tensorflow/lite/kernels/internal\types.h **** namespace tflite {
  26:C:/Renesas/e2studio_2021_01_workspace_RZA2M_ANPR/ANPR_RZA2M_EBK/src/tensorflow_lite/tensorflow/lite/kernels/internal\types.h **** 
  27:C:/Renesas/e2studio_2021_01_workspace_RZA2M_ANPR/ANPR_RZA2M_EBK/src/tensorflow_lite/tensorflow/lite/kernels/internal\types.h **** enum class FusedActivationFunctionType : uint8_t {
  28:C:/Renesas/e2studio_2021_01_workspace_RZA2M_ANPR/ANPR_RZA2M_EBK/src/tensorflow_lite/tensorflow/lite/kernels/internal\types.h ****   kNone,
  29:C:/Renesas/e2studio_2021_01_workspace_RZA2M_ANPR/ANPR_RZA2M_EBK/src/tensorflow_lite/tensorflow/lite/kernels/internal\types.h ****   kRelu6,
  30:C:/Renesas/e2studio_2021_01_workspace_RZA2M_ANPR/ANPR_RZA2M_EBK/src/tensorflow_lite/tensorflow/lite/kernels/internal\types.h ****   kRelu1,
  31:C:/Renesas/e2studio_2021_01_workspace_RZA2M_ANPR/ANPR_RZA2M_EBK/src/tensorflow_lite/tensorflow/lite/kernels/internal\types.h ****   kRelu
  32:C:/Renesas/e2studio_2021_01_workspace_RZA2M_ANPR/ANPR_RZA2M_EBK/src/tensorflow_lite/tensorflow/lite/kernels/internal\types.h **** };
  33:C:/Renesas/e2studio_2021_01_workspace_RZA2M_ANPR/ANPR_RZA2M_EBK/src/tensorflow_lite/tensorflow/lite/kernels/internal\types.h **** enum class PaddingType : uint8_t { kNone, kSame, kValid };
  34:C:/Renesas/e2studio_2021_01_workspace_RZA2M_ANPR/ANPR_RZA2M_EBK/src/tensorflow_lite/tensorflow/lite/kernels/internal\types.h **** 
  35:C:/Renesas/e2studio_2021_01_workspace_RZA2M_ANPR/ANPR_RZA2M_EBK/src/tensorflow_lite/tensorflow/lite/kernels/internal\types.h **** struct PaddingValues {
  36:C:/Renesas/e2studio_2021_01_workspace_RZA2M_ANPR/ANPR_RZA2M_EBK/src/tensorflow_lite/tensorflow/lite/kernels/internal\types.h ****   int16_t width;
  37:C:/Renesas/e2studio_2021_01_workspace_RZA2M_ANPR/ANPR_RZA2M_EBK/src/tensorflow_lite/tensorflow/lite/kernels/internal\types.h ****   int16_t height;
  38:C:/Renesas/e2studio_2021_01_workspace_RZA2M_ANPR/ANPR_RZA2M_EBK/src/tensorflow_lite/tensorflow/lite/kernels/internal\types.h ****   // offset is used for calculating "remaining" padding, for example, `width`
  39:C:/Renesas/e2studio_2021_01_workspace_RZA2M_ANPR/ANPR_RZA2M_EBK/src/tensorflow_lite/tensorflow/lite/kernels/internal\types.h ****   // is 1 and `width_offset` is 1, so padding_left is 1 while padding_right is
  40:C:/Renesas/e2studio_2021_01_workspace_RZA2M_ANPR/ANPR_RZA2M_EBK/src/tensorflow_lite/tensorflow/lite/kernels/internal\types.h ****   // 1 + 1 = 2.
  41:C:/Renesas/e2studio_2021_01_workspace_RZA2M_ANPR/ANPR_RZA2M_EBK/src/tensorflow_lite/tensorflow/lite/kernels/internal\types.h ****   int16_t width_offset;
  42:C:/Renesas/e2studio_2021_01_workspace_RZA2M_ANPR/ANPR_RZA2M_EBK/src/tensorflow_lite/tensorflow/lite/kernels/internal\types.h ****   // Same as width_offset except it's over the height dimension.
  43:C:/Renesas/e2studio_2021_01_workspace_RZA2M_ANPR/ANPR_RZA2M_EBK/src/tensorflow_lite/tensorflow/lite/kernels/internal\types.h ****   int16_t height_offset;
  44:C:/Renesas/e2studio_2021_01_workspace_RZA2M_ANPR/ANPR_RZA2M_EBK/src/tensorflow_lite/tensorflow/lite/kernels/internal\types.h **** };
  45:C:/Renesas/e2studio_2021_01_workspace_RZA2M_ANPR/ANPR_RZA2M_EBK/src/tensorflow_lite/tensorflow/lite/kernels/internal\types.h **** 
  46:C:/Renesas/e2studio_2021_01_workspace_RZA2M_ANPR/ANPR_RZA2M_EBK/src/tensorflow_lite/tensorflow/lite/kernels/internal\types.h **** struct Padding3DValues {
  47:C:/Renesas/e2studio_2021_01_workspace_RZA2M_ANPR/ANPR_RZA2M_EBK/src/tensorflow_lite/tensorflow/lite/kernels/internal\types.h ****   int16_t width;
  48:C:/Renesas/e2studio_2021_01_workspace_RZA2M_ANPR/ANPR_RZA2M_EBK/src/tensorflow_lite/tensorflow/lite/kernels/internal\types.h ****   int16_t height;
  49:C:/Renesas/e2studio_2021_01_workspace_RZA2M_ANPR/ANPR_RZA2M_EBK/src/tensorflow_lite/tensorflow/lite/kernels/internal\types.h ****   int16_t depth;
  50:C:/Renesas/e2studio_2021_01_workspace_RZA2M_ANPR/ANPR_RZA2M_EBK/src/tensorflow_lite/tensorflow/lite/kernels/internal\types.h ****   // offset is used for calculating "remaining" padding, for example, `width`
  51:C:/Renesas/e2studio_2021_01_workspace_RZA2M_ANPR/ANPR_RZA2M_EBK/src/tensorflow_lite/tensorflow/lite/kernels/internal\types.h ****   // is 1 and `width_offset` is 1, so padding_left is 1 while padding_right is
  52:C:/Renesas/e2studio_2021_01_workspace_RZA2M_ANPR/ANPR_RZA2M_EBK/src/tensorflow_lite/tensorflow/lite/kernels/internal\types.h ****   // 1 + 1 = 2.
  53:C:/Renesas/e2studio_2021_01_workspace_RZA2M_ANPR/ANPR_RZA2M_EBK/src/tensorflow_lite/tensorflow/lite/kernels/internal\types.h ****   int16_t width_offset;
  54:C:/Renesas/e2studio_2021_01_workspace_RZA2M_ANPR/ANPR_RZA2M_EBK/src/tensorflow_lite/tensorflow/lite/kernels/internal\types.h ****   // Same as width_offset except it's over the height dimension.
  55:C:/Renesas/e2studio_2021_01_workspace_RZA2M_ANPR/ANPR_RZA2M_EBK/src/tensorflow_lite/tensorflow/lite/kernels/internal\types.h ****   int16_t height_offset;
  56:C:/Renesas/e2studio_2021_01_workspace_RZA2M_ANPR/ANPR_RZA2M_EBK/src/tensorflow_lite/tensorflow/lite/kernels/internal\types.h ****   // Same as width_offset except it's over the depth dimension.
  57:C:/Renesas/e2studio_2021_01_workspace_RZA2M_ANPR/ANPR_RZA2M_EBK/src/tensorflow_lite/tensorflow/lite/kernels/internal\types.h ****   int16_t depth_offset;
  58:C:/Renesas/e2studio_2021_01_workspace_RZA2M_ANPR/ANPR_RZA2M_EBK/src/tensorflow_lite/tensorflow/lite/kernels/internal\types.h **** };
  59:C:/Renesas/e2studio_2021_01_workspace_RZA2M_ANPR/ANPR_RZA2M_EBK/src/tensorflow_lite/tensorflow/lite/kernels/internal\types.h **** 
  60:C:/Renesas/e2studio_2021_01_workspace_RZA2M_ANPR/ANPR_RZA2M_EBK/src/tensorflow_lite/tensorflow/lite/kernels/internal\types.h **** // This enumeration allows for non-default formats for the weights array
  61:C:/Renesas/e2studio_2021_01_workspace_RZA2M_ANPR/ANPR_RZA2M_EBK/src/tensorflow_lite/tensorflow/lite/kernels/internal\types.h **** // of a fully-connected operator, allowing the use of special optimized
  62:C:/Renesas/e2studio_2021_01_workspace_RZA2M_ANPR/ANPR_RZA2M_EBK/src/tensorflow_lite/tensorflow/lite/kernels/internal\types.h **** // runtime paths.
  63:C:/Renesas/e2studio_2021_01_workspace_RZA2M_ANPR/ANPR_RZA2M_EBK/src/tensorflow_lite/tensorflow/lite/kernels/internal\types.h **** enum class FullyConnectedWeightsFormat : uint8_t {
  64:C:/Renesas/e2studio_2021_01_workspace_RZA2M_ANPR/ANPR_RZA2M_EBK/src/tensorflow_lite/tensorflow/lite/kernels/internal\types.h ****   // Default format (flat 2D layout, the inner contiguous dimension
  65:C:/Renesas/e2studio_2021_01_workspace_RZA2M_ANPR/ANPR_RZA2M_EBK/src/tensorflow_lite/tensorflow/lite/kernels/internal\types.h ****   // is input_depth, the outer non-contiguous dimension is output_depth)
  66:C:/Renesas/e2studio_2021_01_workspace_RZA2M_ANPR/ANPR_RZA2M_EBK/src/tensorflow_lite/tensorflow/lite/kernels/internal\types.h ****   kDefault,
  67:C:/Renesas/e2studio_2021_01_workspace_RZA2M_ANPR/ANPR_RZA2M_EBK/src/tensorflow_lite/tensorflow/lite/kernels/internal\types.h ****   // Summary: optimized layout for fast CPU runtime implementation,
  68:C:/Renesas/e2studio_2021_01_workspace_RZA2M_ANPR/ANPR_RZA2M_EBK/src/tensorflow_lite/tensorflow/lite/kernels/internal\types.h ****   // aimed specifically at ARM CPUs at the moment, and specialized for
  69:C:/Renesas/e2studio_2021_01_workspace_RZA2M_ANPR/ANPR_RZA2M_EBK/src/tensorflow_lite/tensorflow/lite/kernels/internal\types.h ****   // 8-bit quantized layers.
  70:C:/Renesas/e2studio_2021_01_workspace_RZA2M_ANPR/ANPR_RZA2M_EBK/src/tensorflow_lite/tensorflow/lite/kernels/internal\types.h ****   //
  71:C:/Renesas/e2studio_2021_01_workspace_RZA2M_ANPR/ANPR_RZA2M_EBK/src/tensorflow_lite/tensorflow/lite/kernels/internal\types.h ****   // The use case we're concerned with here is: 8-bit quantization,
  72:C:/Renesas/e2studio_2021_01_workspace_RZA2M_ANPR/ANPR_RZA2M_EBK/src/tensorflow_lite/tensorflow/lite/kernels/internal\types.h ****   // large weights matrix that doesn't fit in cache (e.g. 4096x2048 in
  73:C:/Renesas/e2studio_2021_01_workspace_RZA2M_ANPR/ANPR_RZA2M_EBK/src/tensorflow_lite/tensorflow/lite/kernels/internal\types.h ****   // a key application that drove this), very small batch size (e.g. 1 -- 4).
  74:C:/Renesas/e2studio_2021_01_workspace_RZA2M_ANPR/ANPR_RZA2M_EBK/src/tensorflow_lite/tensorflow/lite/kernels/internal\types.h ****   //
  75:C:/Renesas/e2studio_2021_01_workspace_RZA2M_ANPR/ANPR_RZA2M_EBK/src/tensorflow_lite/tensorflow/lite/kernels/internal\types.h ****   // Even with 8-bit quantization of weights, the performance of memory
  76:C:/Renesas/e2studio_2021_01_workspace_RZA2M_ANPR/ANPR_RZA2M_EBK/src/tensorflow_lite/tensorflow/lite/kernels/internal\types.h ****   // accesses to the weights can become the dominant issue when
  77:C:/Renesas/e2studio_2021_01_workspace_RZA2M_ANPR/ANPR_RZA2M_EBK/src/tensorflow_lite/tensorflow/lite/kernels/internal\types.h ****   // the batch size is small, so each weight value is used in only a few
  78:C:/Renesas/e2studio_2021_01_workspace_RZA2M_ANPR/ANPR_RZA2M_EBK/src/tensorflow_lite/tensorflow/lite/kernels/internal\types.h ****   // arithmetic ops, i.e. the fully-connected node has a low arithmetic
  79:C:/Renesas/e2studio_2021_01_workspace_RZA2M_ANPR/ANPR_RZA2M_EBK/src/tensorflow_lite/tensorflow/lite/kernels/internal\types.h ****   // intensity. The specific issues that arise are of three kinds:
  80:C:/Renesas/e2studio_2021_01_workspace_RZA2M_ANPR/ANPR_RZA2M_EBK/src/tensorflow_lite/tensorflow/lite/kernels/internal\types.h ****   // (1) One may, ideally, max out DRAM bandwidth, i.e. be truly memory
  81:C:/Renesas/e2studio_2021_01_workspace_RZA2M_ANPR/ANPR_RZA2M_EBK/src/tensorflow_lite/tensorflow/lite/kernels/internal\types.h ****   //     bound. That's the "good" issue to run into.
  82:C:/Renesas/e2studio_2021_01_workspace_RZA2M_ANPR/ANPR_RZA2M_EBK/src/tensorflow_lite/tensorflow/lite/kernels/internal\types.h ****   // (2) One may run into sub-optimal pre-fetching: the data hasn't been
  83:C:/Renesas/e2studio_2021_01_workspace_RZA2M_ANPR/ANPR_RZA2M_EBK/src/tensorflow_lite/tensorflow/lite/kernels/internal\types.h ****   //     prefetched into the cache by the time we need it.
  84:C:/Renesas/e2studio_2021_01_workspace_RZA2M_ANPR/ANPR_RZA2M_EBK/src/tensorflow_lite/tensorflow/lite/kernels/internal\types.h ****   // (3) One may run into cache aliasing: multiple values that are
  85:C:/Renesas/e2studio_2021_01_workspace_RZA2M_ANPR/ANPR_RZA2M_EBK/src/tensorflow_lite/tensorflow/lite/kernels/internal\types.h ****   //     pre-fetched, alias each other in the L1 cache (which typically
  86:C:/Renesas/e2studio_2021_01_workspace_RZA2M_ANPR/ANPR_RZA2M_EBK/src/tensorflow_lite/tensorflow/lite/kernels/internal\types.h ****   //     has only 4-way set associativity in ARM CPUs) and thus evict
  87:C:/Renesas/e2studio_2021_01_workspace_RZA2M_ANPR/ANPR_RZA2M_EBK/src/tensorflow_lite/tensorflow/lite/kernels/internal\types.h ****   //     each other before we get to using them.
  88:C:/Renesas/e2studio_2021_01_workspace_RZA2M_ANPR/ANPR_RZA2M_EBK/src/tensorflow_lite/tensorflow/lite/kernels/internal\types.h ****   //
  89:C:/Renesas/e2studio_2021_01_workspace_RZA2M_ANPR/ANPR_RZA2M_EBK/src/tensorflow_lite/tensorflow/lite/kernels/internal\types.h ****   // The point of this shuffling is to avoid issues (2) and (3) so that
  90:C:/Renesas/e2studio_2021_01_workspace_RZA2M_ANPR/ANPR_RZA2M_EBK/src/tensorflow_lite/tensorflow/lite/kernels/internal\types.h ****   // we get as fast as possible given only the hard constraint (1).
  91:C:/Renesas/e2studio_2021_01_workspace_RZA2M_ANPR/ANPR_RZA2M_EBK/src/tensorflow_lite/tensorflow/lite/kernels/internal\types.h ****   // This is achieved by turning the difficulty into a solution: the
  92:C:/Renesas/e2studio_2021_01_workspace_RZA2M_ANPR/ANPR_RZA2M_EBK/src/tensorflow_lite/tensorflow/lite/kernels/internal\types.h ****   // difficulty, that each value loaded from memory is used only in
  93:C:/Renesas/e2studio_2021_01_workspace_RZA2M_ANPR/ANPR_RZA2M_EBK/src/tensorflow_lite/tensorflow/lite/kernels/internal\types.h ****   // one kernel iteration, making this operation memory-intensive, hints at
  94:C:/Renesas/e2studio_2021_01_workspace_RZA2M_ANPR/ANPR_RZA2M_EBK/src/tensorflow_lite/tensorflow/lite/kernels/internal\types.h ****   // the solution, of shuffling the weights so that they are stored in the
  95:C:/Renesas/e2studio_2021_01_workspace_RZA2M_ANPR/ANPR_RZA2M_EBK/src/tensorflow_lite/tensorflow/lite/kernels/internal\types.h ****   // exact order as the kernel needs to load them, so that the memory
  96:C:/Renesas/e2studio_2021_01_workspace_RZA2M_ANPR/ANPR_RZA2M_EBK/src/tensorflow_lite/tensorflow/lite/kernels/internal\types.h ****   // accesses made by the kernel are trivial. This solves (2) because the
  97:C:/Renesas/e2studio_2021_01_workspace_RZA2M_ANPR/ANPR_RZA2M_EBK/src/tensorflow_lite/tensorflow/lite/kernels/internal\types.h ****   // trivial memory access pattern allows the CPU's automatic prefetching
  98:C:/Renesas/e2studio_2021_01_workspace_RZA2M_ANPR/ANPR_RZA2M_EBK/src/tensorflow_lite/tensorflow/lite/kernels/internal\types.h ****   // to perform very well (no need even for preload instructions), and this
  99:C:/Renesas/e2studio_2021_01_workspace_RZA2M_ANPR/ANPR_RZA2M_EBK/src/tensorflow_lite/tensorflow/lite/kernels/internal\types.h ****   // solves (3) because the values being loaded concurrently are now
 100:C:/Renesas/e2studio_2021_01_workspace_RZA2M_ANPR/ANPR_RZA2M_EBK/src/tensorflow_lite/tensorflow/lite/kernels/internal\types.h ****   // contiguous in the address space, thus don't alias each other in the cache.
 101:C:/Renesas/e2studio_2021_01_workspace_RZA2M_ANPR/ANPR_RZA2M_EBK/src/tensorflow_lite/tensorflow/lite/kernels/internal\types.h ****   //
 102:C:/Renesas/e2studio_2021_01_workspace_RZA2M_ANPR/ANPR_RZA2M_EBK/src/tensorflow_lite/tensorflow/lite/kernels/internal\types.h ****   // On ARM, we typically want our kernel to process a 4x16 block of weights
 103:C:/Renesas/e2studio_2021_01_workspace_RZA2M_ANPR/ANPR_RZA2M_EBK/src/tensorflow_lite/tensorflow/lite/kernels/internal\types.h ****   // at a time, because:
 104:C:/Renesas/e2studio_2021_01_workspace_RZA2M_ANPR/ANPR_RZA2M_EBK/src/tensorflow_lite/tensorflow/lite/kernels/internal\types.h ****   //   - 16 is the number of bytes in a NEON register.
 105:C:/Renesas/e2studio_2021_01_workspace_RZA2M_ANPR/ANPR_RZA2M_EBK/src/tensorflow_lite/tensorflow/lite/kernels/internal\types.h ****   //   - 4 is how many rows we need to handle concurrently in the kernel in
 106:C:/Renesas/e2studio_2021_01_workspace_RZA2M_ANPR/ANPR_RZA2M_EBK/src/tensorflow_lite/tensorflow/lite/kernels/internal\types.h ****   //     order to have sufficient mutual independence of instructions to
 107:C:/Renesas/e2studio_2021_01_workspace_RZA2M_ANPR/ANPR_RZA2M_EBK/src/tensorflow_lite/tensorflow/lite/kernels/internal\types.h ****   //     maximize arithmetic throughput.
 108:C:/Renesas/e2studio_2021_01_workspace_RZA2M_ANPR/ANPR_RZA2M_EBK/src/tensorflow_lite/tensorflow/lite/kernels/internal\types.h ****   //
 109:C:/Renesas/e2studio_2021_01_workspace_RZA2M_ANPR/ANPR_RZA2M_EBK/src/tensorflow_lite/tensorflow/lite/kernels/internal\types.h ****   // Finally, the 'Int8' part in the name refers to the fact that this
 110:C:/Renesas/e2studio_2021_01_workspace_RZA2M_ANPR/ANPR_RZA2M_EBK/src/tensorflow_lite/tensorflow/lite/kernels/internal\types.h ****   // weights format has each weights value encoded as a signed int8_t value,
 111:C:/Renesas/e2studio_2021_01_workspace_RZA2M_ANPR/ANPR_RZA2M_EBK/src/tensorflow_lite/tensorflow/lite/kernels/internal\types.h ****   // even if the data type of the weights buffer is uint8_t.  This is intended
 112:C:/Renesas/e2studio_2021_01_workspace_RZA2M_ANPR/ANPR_RZA2M_EBK/src/tensorflow_lite/tensorflow/lite/kernels/internal\types.h ****   // to save runtime kernels the effort to have to XOR the top bit of these
 113:C:/Renesas/e2studio_2021_01_workspace_RZA2M_ANPR/ANPR_RZA2M_EBK/src/tensorflow_lite/tensorflow/lite/kernels/internal\types.h ****   // bytes before using them in signed arithmetic, see this file for more
 114:C:/Renesas/e2studio_2021_01_workspace_RZA2M_ANPR/ANPR_RZA2M_EBK/src/tensorflow_lite/tensorflow/lite/kernels/internal\types.h ****   // explanations on the 'signed int8_t trick' in matrix multiplication kernels:
 115:C:/Renesas/e2studio_2021_01_workspace_RZA2M_ANPR/ANPR_RZA2M_EBK/src/tensorflow_lite/tensorflow/lite/kernels/internal\types.h ****   //
 116:C:/Renesas/e2studio_2021_01_workspace_RZA2M_ANPR/ANPR_RZA2M_EBK/src/tensorflow_lite/tensorflow/lite/kernels/internal\types.h ****   //   tensorflow/lite/toco/graph_transformations/ensure_uint8_weights_safe_for_fast_int8_kernels.c
 117:C:/Renesas/e2studio_2021_01_workspace_RZA2M_ANPR/ANPR_RZA2M_EBK/src/tensorflow_lite/tensorflow/lite/kernels/internal\types.h ****   //
 118:C:/Renesas/e2studio_2021_01_workspace_RZA2M_ANPR/ANPR_RZA2M_EBK/src/tensorflow_lite/tensorflow/lite/kernels/internal\types.h ****   kShuffled4x16Int8,
 119:C:/Renesas/e2studio_2021_01_workspace_RZA2M_ANPR/ANPR_RZA2M_EBK/src/tensorflow_lite/tensorflow/lite/kernels/internal\types.h **** };
 120:C:/Renesas/e2studio_2021_01_workspace_RZA2M_ANPR/ANPR_RZA2M_EBK/src/tensorflow_lite/tensorflow/lite/kernels/internal\types.h **** 
 121:C:/Renesas/e2studio_2021_01_workspace_RZA2M_ANPR/ANPR_RZA2M_EBK/src/tensorflow_lite/tensorflow/lite/kernels/internal\types.h **** // Quantization parameters, determining the mapping of quantized values
 122:C:/Renesas/e2studio_2021_01_workspace_RZA2M_ANPR/ANPR_RZA2M_EBK/src/tensorflow_lite/tensorflow/lite/kernels/internal\types.h **** // to real values (i.e. determining how quantized values are mathematically
 123:C:/Renesas/e2studio_2021_01_workspace_RZA2M_ANPR/ANPR_RZA2M_EBK/src/tensorflow_lite/tensorflow/lite/kernels/internal\types.h **** // interpreted).
 124:C:/Renesas/e2studio_2021_01_workspace_RZA2M_ANPR/ANPR_RZA2M_EBK/src/tensorflow_lite/tensorflow/lite/kernels/internal\types.h **** //
 125:C:/Renesas/e2studio_2021_01_workspace_RZA2M_ANPR/ANPR_RZA2M_EBK/src/tensorflow_lite/tensorflow/lite/kernels/internal\types.h **** // The correspondence is as follows:
 126:C:/Renesas/e2studio_2021_01_workspace_RZA2M_ANPR/ANPR_RZA2M_EBK/src/tensorflow_lite/tensorflow/lite/kernels/internal\types.h **** //
 127:C:/Renesas/e2studio_2021_01_workspace_RZA2M_ANPR/ANPR_RZA2M_EBK/src/tensorflow_lite/tensorflow/lite/kernels/internal\types.h **** //   real_value = scale * (quantized_value - zero_point);
 128:C:/Renesas/e2studio_2021_01_workspace_RZA2M_ANPR/ANPR_RZA2M_EBK/src/tensorflow_lite/tensorflow/lite/kernels/internal\types.h **** //
 129:C:/Renesas/e2studio_2021_01_workspace_RZA2M_ANPR/ANPR_RZA2M_EBK/src/tensorflow_lite/tensorflow/lite/kernels/internal\types.h **** // In other words, zero_point designates which quantized value corresponds to
 130:C:/Renesas/e2studio_2021_01_workspace_RZA2M_ANPR/ANPR_RZA2M_EBK/src/tensorflow_lite/tensorflow/lite/kernels/internal\types.h **** // the real 0 value, and scale designates the difference between the real values
 131:C:/Renesas/e2studio_2021_01_workspace_RZA2M_ANPR/ANPR_RZA2M_EBK/src/tensorflow_lite/tensorflow/lite/kernels/internal\types.h **** // corresponding to consecutive quantized values differing by 1.
 132:C:/Renesas/e2studio_2021_01_workspace_RZA2M_ANPR/ANPR_RZA2M_EBK/src/tensorflow_lite/tensorflow/lite/kernels/internal\types.h **** struct QuantizationParams {
 133:C:/Renesas/e2studio_2021_01_workspace_RZA2M_ANPR/ANPR_RZA2M_EBK/src/tensorflow_lite/tensorflow/lite/kernels/internal\types.h ****   int32_t zero_point = 0;
 134:C:/Renesas/e2studio_2021_01_workspace_RZA2M_ANPR/ANPR_RZA2M_EBK/src/tensorflow_lite/tensorflow/lite/kernels/internal\types.h ****   double scale = 0.0;
 135:C:/Renesas/e2studio_2021_01_workspace_RZA2M_ANPR/ANPR_RZA2M_EBK/src/tensorflow_lite/tensorflow/lite/kernels/internal\types.h **** };
 136:C:/Renesas/e2studio_2021_01_workspace_RZA2M_ANPR/ANPR_RZA2M_EBK/src/tensorflow_lite/tensorflow/lite/kernels/internal\types.h **** 
 137:C:/Renesas/e2studio_2021_01_workspace_RZA2M_ANPR/ANPR_RZA2M_EBK/src/tensorflow_lite/tensorflow/lite/kernels/internal\types.h **** inline bool operator==(const QuantizationParams& qp1,
 138:C:/Renesas/e2studio_2021_01_workspace_RZA2M_ANPR/ANPR_RZA2M_EBK/src/tensorflow_lite/tensorflow/lite/kernels/internal\types.h ****                        const QuantizationParams& qp2) {
 139:C:/Renesas/e2studio_2021_01_workspace_RZA2M_ANPR/ANPR_RZA2M_EBK/src/tensorflow_lite/tensorflow/lite/kernels/internal\types.h ****   return qp1.zero_point == qp2.zero_point && qp1.scale == qp2.scale;
 140:C:/Renesas/e2studio_2021_01_workspace_RZA2M_ANPR/ANPR_RZA2M_EBK/src/tensorflow_lite/tensorflow/lite/kernels/internal\types.h **** }
 141:C:/Renesas/e2studio_2021_01_workspace_RZA2M_ANPR/ANPR_RZA2M_EBK/src/tensorflow_lite/tensorflow/lite/kernels/internal\types.h **** 
 142:C:/Renesas/e2studio_2021_01_workspace_RZA2M_ANPR/ANPR_RZA2M_EBK/src/tensorflow_lite/tensorflow/lite/kernels/internal\types.h **** template <int N>
 143:C:/Renesas/e2studio_2021_01_workspace_RZA2M_ANPR/ANPR_RZA2M_EBK/src/tensorflow_lite/tensorflow/lite/kernels/internal\types.h **** struct Dims {
 144:C:/Renesas/e2studio_2021_01_workspace_RZA2M_ANPR/ANPR_RZA2M_EBK/src/tensorflow_lite/tensorflow/lite/kernels/internal\types.h ****   int sizes[N];
 145:C:/Renesas/e2studio_2021_01_workspace_RZA2M_ANPR/ANPR_RZA2M_EBK/src/tensorflow_lite/tensorflow/lite/kernels/internal\types.h ****   int strides[N];
 146:C:/Renesas/e2studio_2021_01_workspace_RZA2M_ANPR/ANPR_RZA2M_EBK/src/tensorflow_lite/tensorflow/lite/kernels/internal\types.h **** };
 147:C:/Renesas/e2studio_2021_01_workspace_RZA2M_ANPR/ANPR_RZA2M_EBK/src/tensorflow_lite/tensorflow/lite/kernels/internal\types.h **** 
 148:C:/Renesas/e2studio_2021_01_workspace_RZA2M_ANPR/ANPR_RZA2M_EBK/src/tensorflow_lite/tensorflow/lite/kernels/internal\types.h **** class RuntimeShape {
 149:C:/Renesas/e2studio_2021_01_workspace_RZA2M_ANPR/ANPR_RZA2M_EBK/src/tensorflow_lite/tensorflow/lite/kernels/internal\types.h ****  public:
 150:C:/Renesas/e2studio_2021_01_workspace_RZA2M_ANPR/ANPR_RZA2M_EBK/src/tensorflow_lite/tensorflow/lite/kernels/internal\types.h ****   // Shapes with dimensions up to 5 are stored directly in the structure, while
 151:C:/Renesas/e2studio_2021_01_workspace_RZA2M_ANPR/ANPR_RZA2M_EBK/src/tensorflow_lite/tensorflow/lite/kernels/internal\types.h ****   // larger shapes are separately allocated.
 152:C:/Renesas/e2studio_2021_01_workspace_RZA2M_ANPR/ANPR_RZA2M_EBK/src/tensorflow_lite/tensorflow/lite/kernels/internal\types.h ****   static constexpr int kMaxSmallSize = 5;
 153:C:/Renesas/e2studio_2021_01_workspace_RZA2M_ANPR/ANPR_RZA2M_EBK/src/tensorflow_lite/tensorflow/lite/kernels/internal\types.h **** 
 154:C:/Renesas/e2studio_2021_01_workspace_RZA2M_ANPR/ANPR_RZA2M_EBK/src/tensorflow_lite/tensorflow/lite/kernels/internal\types.h ****   RuntimeShape& operator=(RuntimeShape const&) = delete;
 155:C:/Renesas/e2studio_2021_01_workspace_RZA2M_ANPR/ANPR_RZA2M_EBK/src/tensorflow_lite/tensorflow/lite/kernels/internal\types.h **** 
 156:C:/Renesas/e2studio_2021_01_workspace_RZA2M_ANPR/ANPR_RZA2M_EBK/src/tensorflow_lite/tensorflow/lite/kernels/internal\types.h ****   RuntimeShape() : size_(0) {}
 157:C:/Renesas/e2studio_2021_01_workspace_RZA2M_ANPR/ANPR_RZA2M_EBK/src/tensorflow_lite/tensorflow/lite/kernels/internal\types.h **** 
 158:C:/Renesas/e2studio_2021_01_workspace_RZA2M_ANPR/ANPR_RZA2M_EBK/src/tensorflow_lite/tensorflow/lite/kernels/internal\types.h ****   explicit RuntimeShape(int dimensions_count) : size_(dimensions_count) {
 159:C:/Renesas/e2studio_2021_01_workspace_RZA2M_ANPR/ANPR_RZA2M_EBK/src/tensorflow_lite/tensorflow/lite/kernels/internal\types.h ****     if (dimensions_count > kMaxSmallSize) {
 160:C:/Renesas/e2studio_2021_01_workspace_RZA2M_ANPR/ANPR_RZA2M_EBK/src/tensorflow_lite/tensorflow/lite/kernels/internal\types.h **** #ifdef TF_LITE_STATIC_MEMORY
 161:C:/Renesas/e2studio_2021_01_workspace_RZA2M_ANPR/ANPR_RZA2M_EBK/src/tensorflow_lite/tensorflow/lite/kernels/internal\types.h ****       TFLITE_CHECK(false && "No shape resizing supported on this platform");
 162:C:/Renesas/e2studio_2021_01_workspace_RZA2M_ANPR/ANPR_RZA2M_EBK/src/tensorflow_lite/tensorflow/lite/kernels/internal\types.h **** #else  // TF_LITE_STATIC_MEMORY
 163:C:/Renesas/e2studio_2021_01_workspace_RZA2M_ANPR/ANPR_RZA2M_EBK/src/tensorflow_lite/tensorflow/lite/kernels/internal\types.h ****       dims_pointer_ = new int32_t[dimensions_count];
 164:C:/Renesas/e2studio_2021_01_workspace_RZA2M_ANPR/ANPR_RZA2M_EBK/src/tensorflow_lite/tensorflow/lite/kernels/internal\types.h **** #endif  // TF_LITE_STATIC_MEMORY
 165:C:/Renesas/e2studio_2021_01_workspace_RZA2M_ANPR/ANPR_RZA2M_EBK/src/tensorflow_lite/tensorflow/lite/kernels/internal\types.h ****     }
 166:C:/Renesas/e2studio_2021_01_workspace_RZA2M_ANPR/ANPR_RZA2M_EBK/src/tensorflow_lite/tensorflow/lite/kernels/internal\types.h ****   }
 167:C:/Renesas/e2studio_2021_01_workspace_RZA2M_ANPR/ANPR_RZA2M_EBK/src/tensorflow_lite/tensorflow/lite/kernels/internal\types.h **** 
 168:C:/Renesas/e2studio_2021_01_workspace_RZA2M_ANPR/ANPR_RZA2M_EBK/src/tensorflow_lite/tensorflow/lite/kernels/internal\types.h ****   RuntimeShape(int shape_size, int32_t value) : size_(0) {
 169:C:/Renesas/e2studio_2021_01_workspace_RZA2M_ANPR/ANPR_RZA2M_EBK/src/tensorflow_lite/tensorflow/lite/kernels/internal\types.h ****     Resize(shape_size);
 170:C:/Renesas/e2studio_2021_01_workspace_RZA2M_ANPR/ANPR_RZA2M_EBK/src/tensorflow_lite/tensorflow/lite/kernels/internal\types.h ****     for (int i = 0; i < shape_size; ++i) {
 171:C:/Renesas/e2studio_2021_01_workspace_RZA2M_ANPR/ANPR_RZA2M_EBK/src/tensorflow_lite/tensorflow/lite/kernels/internal\types.h ****       SetDim(i, value);
 172:C:/Renesas/e2studio_2021_01_workspace_RZA2M_ANPR/ANPR_RZA2M_EBK/src/tensorflow_lite/tensorflow/lite/kernels/internal\types.h ****     }
 173:C:/Renesas/e2studio_2021_01_workspace_RZA2M_ANPR/ANPR_RZA2M_EBK/src/tensorflow_lite/tensorflow/lite/kernels/internal\types.h ****   }
 174:C:/Renesas/e2studio_2021_01_workspace_RZA2M_ANPR/ANPR_RZA2M_EBK/src/tensorflow_lite/tensorflow/lite/kernels/internal\types.h **** 
 175:C:/Renesas/e2studio_2021_01_workspace_RZA2M_ANPR/ANPR_RZA2M_EBK/src/tensorflow_lite/tensorflow/lite/kernels/internal\types.h ****   RuntimeShape(int dimensions_count, const int32_t* dims_data) : size_(0) {
 176:C:/Renesas/e2studio_2021_01_workspace_RZA2M_ANPR/ANPR_RZA2M_EBK/src/tensorflow_lite/tensorflow/lite/kernels/internal\types.h ****     ReplaceWith(dimensions_count, dims_data);
 177:C:/Renesas/e2studio_2021_01_workspace_RZA2M_ANPR/ANPR_RZA2M_EBK/src/tensorflow_lite/tensorflow/lite/kernels/internal\types.h ****   }
 178:C:/Renesas/e2studio_2021_01_workspace_RZA2M_ANPR/ANPR_RZA2M_EBK/src/tensorflow_lite/tensorflow/lite/kernels/internal\types.h **** 
 179:C:/Renesas/e2studio_2021_01_workspace_RZA2M_ANPR/ANPR_RZA2M_EBK/src/tensorflow_lite/tensorflow/lite/kernels/internal\types.h ****   RuntimeShape(const std::initializer_list<int> init_list) : size_(0) {
 180:C:/Renesas/e2studio_2021_01_workspace_RZA2M_ANPR/ANPR_RZA2M_EBK/src/tensorflow_lite/tensorflow/lite/kernels/internal\types.h ****     BuildFrom(init_list);
 181:C:/Renesas/e2studio_2021_01_workspace_RZA2M_ANPR/ANPR_RZA2M_EBK/src/tensorflow_lite/tensorflow/lite/kernels/internal\types.h ****   }
 182:C:/Renesas/e2studio_2021_01_workspace_RZA2M_ANPR/ANPR_RZA2M_EBK/src/tensorflow_lite/tensorflow/lite/kernels/internal\types.h **** 
 183:C:/Renesas/e2studio_2021_01_workspace_RZA2M_ANPR/ANPR_RZA2M_EBK/src/tensorflow_lite/tensorflow/lite/kernels/internal\types.h ****   // Avoid using this constructor.  We should be able to delete it when C++17
 184:C:/Renesas/e2studio_2021_01_workspace_RZA2M_ANPR/ANPR_RZA2M_EBK/src/tensorflow_lite/tensorflow/lite/kernels/internal\types.h ****   // rolls out.
 185:C:/Renesas/e2studio_2021_01_workspace_RZA2M_ANPR/ANPR_RZA2M_EBK/src/tensorflow_lite/tensorflow/lite/kernels/internal\types.h ****   RuntimeShape(RuntimeShape const& other) : size_(other.DimensionsCount()) {
 186:C:/Renesas/e2studio_2021_01_workspace_RZA2M_ANPR/ANPR_RZA2M_EBK/src/tensorflow_lite/tensorflow/lite/kernels/internal\types.h ****     if (size_ > kMaxSmallSize) {
 187:C:/Renesas/e2studio_2021_01_workspace_RZA2M_ANPR/ANPR_RZA2M_EBK/src/tensorflow_lite/tensorflow/lite/kernels/internal\types.h **** #ifdef TF_LITE_STATIC_MEMORY
 188:C:/Renesas/e2studio_2021_01_workspace_RZA2M_ANPR/ANPR_RZA2M_EBK/src/tensorflow_lite/tensorflow/lite/kernels/internal\types.h ****       TFLITE_CHECK(false && "No shape resizing supported on this platform");
 189:C:/Renesas/e2studio_2021_01_workspace_RZA2M_ANPR/ANPR_RZA2M_EBK/src/tensorflow_lite/tensorflow/lite/kernels/internal\types.h **** #else
 190:C:/Renesas/e2studio_2021_01_workspace_RZA2M_ANPR/ANPR_RZA2M_EBK/src/tensorflow_lite/tensorflow/lite/kernels/internal\types.h ****       dims_pointer_ = new int32_t[size_];
 191:C:/Renesas/e2studio_2021_01_workspace_RZA2M_ANPR/ANPR_RZA2M_EBK/src/tensorflow_lite/tensorflow/lite/kernels/internal\types.h **** #endif
 192:C:/Renesas/e2studio_2021_01_workspace_RZA2M_ANPR/ANPR_RZA2M_EBK/src/tensorflow_lite/tensorflow/lite/kernels/internal\types.h ****     }
 193:C:/Renesas/e2studio_2021_01_workspace_RZA2M_ANPR/ANPR_RZA2M_EBK/src/tensorflow_lite/tensorflow/lite/kernels/internal\types.h ****     std::memcpy(DimsData(), other.DimsData(), sizeof(int32_t) * size_);
 194:C:/Renesas/e2studio_2021_01_workspace_RZA2M_ANPR/ANPR_RZA2M_EBK/src/tensorflow_lite/tensorflow/lite/kernels/internal\types.h ****   }
 195:C:/Renesas/e2studio_2021_01_workspace_RZA2M_ANPR/ANPR_RZA2M_EBK/src/tensorflow_lite/tensorflow/lite/kernels/internal\types.h **** 
 196:C:/Renesas/e2studio_2021_01_workspace_RZA2M_ANPR/ANPR_RZA2M_EBK/src/tensorflow_lite/tensorflow/lite/kernels/internal\types.h ****   bool operator==(const RuntimeShape& comp) const {
 197:C:/Renesas/e2studio_2021_01_workspace_RZA2M_ANPR/ANPR_RZA2M_EBK/src/tensorflow_lite/tensorflow/lite/kernels/internal\types.h ****     return this->size_ == comp.size_ &&
 198:C:/Renesas/e2studio_2021_01_workspace_RZA2M_ANPR/ANPR_RZA2M_EBK/src/tensorflow_lite/tensorflow/lite/kernels/internal\types.h ****            std::memcmp(DimsData(), comp.DimsData(), size_ * sizeof(int32_t)) ==
 199:C:/Renesas/e2studio_2021_01_workspace_RZA2M_ANPR/ANPR_RZA2M_EBK/src/tensorflow_lite/tensorflow/lite/kernels/internal\types.h ****                0;
 200:C:/Renesas/e2studio_2021_01_workspace_RZA2M_ANPR/ANPR_RZA2M_EBK/src/tensorflow_lite/tensorflow/lite/kernels/internal\types.h ****   }
 201:C:/Renesas/e2studio_2021_01_workspace_RZA2M_ANPR/ANPR_RZA2M_EBK/src/tensorflow_lite/tensorflow/lite/kernels/internal\types.h **** 
 202:C:/Renesas/e2studio_2021_01_workspace_RZA2M_ANPR/ANPR_RZA2M_EBK/src/tensorflow_lite/tensorflow/lite/kernels/internal\types.h ****   ~RuntimeShape() {
 203:C:/Renesas/e2studio_2021_01_workspace_RZA2M_ANPR/ANPR_RZA2M_EBK/src/tensorflow_lite/tensorflow/lite/kernels/internal\types.h ****     if (size_ > kMaxSmallSize) {
 204:C:/Renesas/e2studio_2021_01_workspace_RZA2M_ANPR/ANPR_RZA2M_EBK/src/tensorflow_lite/tensorflow/lite/kernels/internal\types.h **** #ifdef TF_LITE_STATIC_MEMORY
 205:C:/Renesas/e2studio_2021_01_workspace_RZA2M_ANPR/ANPR_RZA2M_EBK/src/tensorflow_lite/tensorflow/lite/kernels/internal\types.h ****       TFLITE_CHECK(false && "No shape resizing supported on this platform");
 206:C:/Renesas/e2studio_2021_01_workspace_RZA2M_ANPR/ANPR_RZA2M_EBK/src/tensorflow_lite/tensorflow/lite/kernels/internal\types.h **** #else  // TF_LITE_STATIC_MEMORY
 207:C:/Renesas/e2studio_2021_01_workspace_RZA2M_ANPR/ANPR_RZA2M_EBK/src/tensorflow_lite/tensorflow/lite/kernels/internal\types.h ****       delete[] dims_pointer_;
 208:C:/Renesas/e2studio_2021_01_workspace_RZA2M_ANPR/ANPR_RZA2M_EBK/src/tensorflow_lite/tensorflow/lite/kernels/internal\types.h **** #endif  // TF_LITE_STATIC_MEMORY
 209:C:/Renesas/e2studio_2021_01_workspace_RZA2M_ANPR/ANPR_RZA2M_EBK/src/tensorflow_lite/tensorflow/lite/kernels/internal\types.h ****     }
 210:C:/Renesas/e2studio_2021_01_workspace_RZA2M_ANPR/ANPR_RZA2M_EBK/src/tensorflow_lite/tensorflow/lite/kernels/internal\types.h ****   }
 211:C:/Renesas/e2studio_2021_01_workspace_RZA2M_ANPR/ANPR_RZA2M_EBK/src/tensorflow_lite/tensorflow/lite/kernels/internal\types.h **** 
 212:C:/Renesas/e2studio_2021_01_workspace_RZA2M_ANPR/ANPR_RZA2M_EBK/src/tensorflow_lite/tensorflow/lite/kernels/internal\types.h ****   inline int32_t DimensionsCount() const { return size_; }
 213:C:/Renesas/e2studio_2021_01_workspace_RZA2M_ANPR/ANPR_RZA2M_EBK/src/tensorflow_lite/tensorflow/lite/kernels/internal\types.h ****   inline int32_t Dims(int i) const {
 214:C:/Renesas/e2studio_2021_01_workspace_RZA2M_ANPR/ANPR_RZA2M_EBK/src/tensorflow_lite/tensorflow/lite/kernels/internal\types.h ****     TFLITE_DCHECK_GE(i, 0);
 215:C:/Renesas/e2studio_2021_01_workspace_RZA2M_ANPR/ANPR_RZA2M_EBK/src/tensorflow_lite/tensorflow/lite/kernels/internal\types.h ****     TFLITE_DCHECK_LT(i, size_);
 216:C:/Renesas/e2studio_2021_01_workspace_RZA2M_ANPR/ANPR_RZA2M_EBK/src/tensorflow_lite/tensorflow/lite/kernels/internal\types.h ****     return size_ > kMaxSmallSize ? dims_pointer_[i] : dims_[i];
 217:C:/Renesas/e2studio_2021_01_workspace_RZA2M_ANPR/ANPR_RZA2M_EBK/src/tensorflow_lite/tensorflow/lite/kernels/internal\types.h ****   }
 218:C:/Renesas/e2studio_2021_01_workspace_RZA2M_ANPR/ANPR_RZA2M_EBK/src/tensorflow_lite/tensorflow/lite/kernels/internal\types.h ****   inline void SetDim(int i, int32_t val) {
 219:C:/Renesas/e2studio_2021_01_workspace_RZA2M_ANPR/ANPR_RZA2M_EBK/src/tensorflow_lite/tensorflow/lite/kernels/internal\types.h ****     TFLITE_DCHECK_GE(i, 0);
 220:C:/Renesas/e2studio_2021_01_workspace_RZA2M_ANPR/ANPR_RZA2M_EBK/src/tensorflow_lite/tensorflow/lite/kernels/internal\types.h ****     TFLITE_DCHECK_LT(i, size_);
 221:C:/Renesas/e2studio_2021_01_workspace_RZA2M_ANPR/ANPR_RZA2M_EBK/src/tensorflow_lite/tensorflow/lite/kernels/internal\types.h ****     if (size_ > kMaxSmallSize) {
 222:C:/Renesas/e2studio_2021_01_workspace_RZA2M_ANPR/ANPR_RZA2M_EBK/src/tensorflow_lite/tensorflow/lite/kernels/internal\types.h ****       dims_pointer_[i] = val;
 223:C:/Renesas/e2studio_2021_01_workspace_RZA2M_ANPR/ANPR_RZA2M_EBK/src/tensorflow_lite/tensorflow/lite/kernels/internal\types.h ****     } else {
 224:C:/Renesas/e2studio_2021_01_workspace_RZA2M_ANPR/ANPR_RZA2M_EBK/src/tensorflow_lite/tensorflow/lite/kernels/internal\types.h ****       dims_[i] = val;
 225:C:/Renesas/e2studio_2021_01_workspace_RZA2M_ANPR/ANPR_RZA2M_EBK/src/tensorflow_lite/tensorflow/lite/kernels/internal\types.h ****     }
 226:C:/Renesas/e2studio_2021_01_workspace_RZA2M_ANPR/ANPR_RZA2M_EBK/src/tensorflow_lite/tensorflow/lite/kernels/internal\types.h ****   }
 227:C:/Renesas/e2studio_2021_01_workspace_RZA2M_ANPR/ANPR_RZA2M_EBK/src/tensorflow_lite/tensorflow/lite/kernels/internal\types.h **** 
 228:C:/Renesas/e2studio_2021_01_workspace_RZA2M_ANPR/ANPR_RZA2M_EBK/src/tensorflow_lite/tensorflow/lite/kernels/internal\types.h ****   inline int32_t* DimsData() {
 229:C:/Renesas/e2studio_2021_01_workspace_RZA2M_ANPR/ANPR_RZA2M_EBK/src/tensorflow_lite/tensorflow/lite/kernels/internal\types.h ****     return size_ > kMaxSmallSize ? dims_pointer_ : dims_;
 230:C:/Renesas/e2studio_2021_01_workspace_RZA2M_ANPR/ANPR_RZA2M_EBK/src/tensorflow_lite/tensorflow/lite/kernels/internal\types.h ****   }
 231:C:/Renesas/e2studio_2021_01_workspace_RZA2M_ANPR/ANPR_RZA2M_EBK/src/tensorflow_lite/tensorflow/lite/kernels/internal\types.h ****   inline const int32_t* DimsData() const {
 232:C:/Renesas/e2studio_2021_01_workspace_RZA2M_ANPR/ANPR_RZA2M_EBK/src/tensorflow_lite/tensorflow/lite/kernels/internal\types.h ****     return size_ > kMaxSmallSize ? dims_pointer_ : dims_;
 233:C:/Renesas/e2studio_2021_01_workspace_RZA2M_ANPR/ANPR_RZA2M_EBK/src/tensorflow_lite/tensorflow/lite/kernels/internal\types.h ****   }
 234:C:/Renesas/e2studio_2021_01_workspace_RZA2M_ANPR/ANPR_RZA2M_EBK/src/tensorflow_lite/tensorflow/lite/kernels/internal\types.h ****   // The caller must ensure that the shape is no bigger than 5-D.
 235:C:/Renesas/e2studio_2021_01_workspace_RZA2M_ANPR/ANPR_RZA2M_EBK/src/tensorflow_lite/tensorflow/lite/kernels/internal\types.h ****   inline const int32_t* DimsDataUpTo5D() const { return dims_; }
 236:C:/Renesas/e2studio_2021_01_workspace_RZA2M_ANPR/ANPR_RZA2M_EBK/src/tensorflow_lite/tensorflow/lite/kernels/internal\types.h **** 
 237:C:/Renesas/e2studio_2021_01_workspace_RZA2M_ANPR/ANPR_RZA2M_EBK/src/tensorflow_lite/tensorflow/lite/kernels/internal\types.h ****   inline void Resize(int dimensions_count) {
 238:C:/Renesas/e2studio_2021_01_workspace_RZA2M_ANPR/ANPR_RZA2M_EBK/src/tensorflow_lite/tensorflow/lite/kernels/internal\types.h ****     if (size_ > kMaxSmallSize) {
 239:C:/Renesas/e2studio_2021_01_workspace_RZA2M_ANPR/ANPR_RZA2M_EBK/src/tensorflow_lite/tensorflow/lite/kernels/internal\types.h **** #ifdef TF_LITE_STATIC_MEMORY
 240:C:/Renesas/e2studio_2021_01_workspace_RZA2M_ANPR/ANPR_RZA2M_EBK/src/tensorflow_lite/tensorflow/lite/kernels/internal\types.h ****       TFLITE_CHECK(false && "No shape resizing supported on this platform");
 241:C:/Renesas/e2studio_2021_01_workspace_RZA2M_ANPR/ANPR_RZA2M_EBK/src/tensorflow_lite/tensorflow/lite/kernels/internal\types.h **** #else  // TF_LITE_STATIC_MEMORY
 242:C:/Renesas/e2studio_2021_01_workspace_RZA2M_ANPR/ANPR_RZA2M_EBK/src/tensorflow_lite/tensorflow/lite/kernels/internal\types.h ****       delete[] dims_pointer_;
 243:C:/Renesas/e2studio_2021_01_workspace_RZA2M_ANPR/ANPR_RZA2M_EBK/src/tensorflow_lite/tensorflow/lite/kernels/internal\types.h **** #endif  // TF_LITE_STATIC_MEMORY
 244:C:/Renesas/e2studio_2021_01_workspace_RZA2M_ANPR/ANPR_RZA2M_EBK/src/tensorflow_lite/tensorflow/lite/kernels/internal\types.h ****     }
 245:C:/Renesas/e2studio_2021_01_workspace_RZA2M_ANPR/ANPR_RZA2M_EBK/src/tensorflow_lite/tensorflow/lite/kernels/internal\types.h ****     size_ = dimensions_count;
 246:C:/Renesas/e2studio_2021_01_workspace_RZA2M_ANPR/ANPR_RZA2M_EBK/src/tensorflow_lite/tensorflow/lite/kernels/internal\types.h ****     if (dimensions_count > kMaxSmallSize) {
 417              		.loc 5 246 0
 418 007c 050052E3 		cmp	r2, #5
 245:C:/Renesas/e2studio_2021_01_workspace_RZA2M_ANPR/ANPR_RZA2M_EBK/src/tensorflow_lite/tensorflow/lite/kernels/internal\types.h ****     if (dimensions_count > kMaxSmallSize) {
 419              		.loc 5 245 0
 420 0080 20208DE5 		str	r2, [sp, #32]
 421              		.loc 5 246 0
 422 0084 580000DA 		ble	.L49
 247:C:/Renesas/e2studio_2021_01_workspace_RZA2M_ANPR/ANPR_RZA2M_EBK/src/tensorflow_lite/tensorflow/lite/kernels/internal\types.h **** #ifdef TF_LITE_STATIC_MEMORY
 248:C:/Renesas/e2studio_2021_01_workspace_RZA2M_ANPR/ANPR_RZA2M_EBK/src/tensorflow_lite/tensorflow/lite/kernels/internal\types.h ****       TFLITE_CHECK(false && "No shape resizing supported on this platform");
 249:C:/Renesas/e2studio_2021_01_workspace_RZA2M_ANPR/ANPR_RZA2M_EBK/src/tensorflow_lite/tensorflow/lite/kernels/internal\types.h **** #else  // TF_LITE_STATIC_MEMORY
 250:C:/Renesas/e2studio_2021_01_workspace_RZA2M_ANPR/ANPR_RZA2M_EBK/src/tensorflow_lite/tensorflow/lite/kernels/internal\types.h ****       dims_pointer_ = new int32_t[dimensions_count];
 423              		.loc 5 250 0
 424 0088 2E0272E3 		cmn	r2, #-536870910
 425 008c B30000CA 		bgt	.L38
 426 0090 0271A0E1 		lsl	r7, r2, #2
 427              	.LVL45:
 428 0094 0700A0E1 		mov	r0, r7
 429              	.LVL46:
 430 0098 FEFFFFEB 		bl	_Znaj
 431              	.LVL47:
 432 009c 24008DE5 		str	r0, [sp, #36]
 433              	.LVL48:
 434 00a0 530000EA 		b	.L50
 435              	.LVL49:
 436              	.L93:
 437              	.LBE351:
 438              	.LBE350:
 439              	.LBE349:
 440              	.LBE348:
 441              	.LBE347:
 442              	.LBE357:
 443              	.LBE359:
 444              	.LBE344:
 445              	.LBE343:
 142:../src/tensorflow_lite/tensorflow/lite/micro/kernels/activations.cc ****   TfLiteTensor* output = GetOutput(context, node, kOutputTensor);
 446              		.loc 1 142 0 discriminator 1
 447 00a4 003000E3 		movw	r3, #:lower16:.LC4
 448 00a8 002000E3 		movw	r2, #:lower16:.LC2
 449 00ac 003040E3 		movt	r3, #:upper16:.LC4
 450 00b0 001000E3 		movw	r1, #:lower16:.LC3
 451 00b4 00308DE5 		str	r3, [sp]
 452 00b8 0700A0E1 		mov	r0, r7
 453              	.LVL50:
 454 00bc 002040E3 		movt	r2, #:upper16:.LC2
 455 00c0 001040E3 		movt	r1, #:upper16:.LC3
 456 00c4 144097E5 		ldr	r4, [r7, #20]
 457              	.LVL51:
 458 00c8 8E30A0E3 		mov	r3, #142
 459 00cc 34FF2FE1 		blx	r4
 460              	.LVL52:
 461 00d0 0100A0E3 		mov	r0, #1
 153:../src/tensorflow_lite/tensorflow/lite/micro/kernels/activations.cc **** 
 462              		.loc 1 153 0 discriminator 1
 463 00d4 50D08DE2 		add	sp, sp, #80
 464              		.cfi_remember_state
 465              		.cfi_def_cfa_offset 32
 466              		@ sp needed
 467 00d8 028BBDEC 		vldm	sp!, {d8}
 468              		.cfi_restore 80
 469              		.cfi_restore 81
 470              		.cfi_def_cfa_offset 24
 471 00dc F081BDE8 		pop	{r4, r5, r6, r7, r8, pc}
 472              	.LVL53:
 473              	.L95:
 474              		.cfi_restore_state
 475              	.LBB402:
 476              	.LBB403:
 477              	.LBB404:
 478              	.LBB405:
 479              		.loc 4 40 0
 480 00e0 088096E5 		ldr	r8, [r6, #8]
 481              	.LBE405:
 482              	.LBE404:
  74:../src/tensorflow_lite/tensorflow/lite/micro/kernels/activations.cc **** 
 483              		.loc 1 74 0
 484 00e4 038AD6ED 		vldr.32	s17, [r6, #12]
 485 00e8 038A94ED 		vldr.32	s16, [r4, #12]
 486              	.LVL54:
 487              	.LBB424:
 488              	.LBB421:
 489              		.loc 4 40 0
 490 00ec 042098E4 		ldr	r2, [r8], #4
 491              	.LVL55:
 492              	.LBB406:
 493              	.LBB407:
 494              	.LBB408:
 495              	.LBB409:
 496              	.LBB410:
 246:C:/Renesas/e2studio_2021_01_workspace_RZA2M_ANPR/ANPR_RZA2M_EBK/src/tensorflow_lite/tensorflow/lite/kernels/internal\types.h **** #ifdef TF_LITE_STATIC_MEMORY
 497              		.loc 5 246 0
 498 00f0 050052E3 		cmp	r2, #5
 245:C:/Renesas/e2studio_2021_01_workspace_RZA2M_ANPR/ANPR_RZA2M_EBK/src/tensorflow_lite/tensorflow/lite/kernels/internal\types.h ****     if (dimensions_count > kMaxSmallSize) {
 499              		.loc 5 245 0
 500 00f4 08208DE5 		str	r2, [sp, #8]
 246:C:/Renesas/e2studio_2021_01_workspace_RZA2M_ANPR/ANPR_RZA2M_EBK/src/tensorflow_lite/tensorflow/lite/kernels/internal\types.h **** #ifdef TF_LITE_STATIC_MEMORY
 501              		.loc 5 246 0
 502 00f8 700000DA 		ble	.L37
 503              		.loc 5 250 0
 504 00fc 2E0272E3 		cmn	r2, #-536870910
 505 0100 960000CA 		bgt	.L38
 506 0104 0271A0E1 		lsl	r7, r2, #2
 507              	.LVL56:
 508 0108 0700A0E1 		mov	r0, r7
 509              	.LVL57:
 510 010c FEFFFFEB 		bl	_Znaj
 511              	.LVL58:
 512              	.LEHE0:
 513 0110 0C008DE5 		str	r0, [sp, #12]
 514              	.LVL59:
 515              	.L39:
 516              	.LBE410:
 517              	.LBE409:
 251:C:/Renesas/e2studio_2021_01_workspace_RZA2M_ANPR/ANPR_RZA2M_EBK/src/tensorflow_lite/tensorflow/lite/kernels/internal\types.h **** #endif  // TF_LITE_STATIC_MEMORY
 252:C:/Renesas/e2studio_2021_01_workspace_RZA2M_ANPR/ANPR_RZA2M_EBK/src/tensorflow_lite/tensorflow/lite/kernels/internal\types.h ****     }
 253:C:/Renesas/e2studio_2021_01_workspace_RZA2M_ANPR/ANPR_RZA2M_EBK/src/tensorflow_lite/tensorflow/lite/kernels/internal\types.h ****   }
 254:C:/Renesas/e2studio_2021_01_workspace_RZA2M_ANPR/ANPR_RZA2M_EBK/src/tensorflow_lite/tensorflow/lite/kernels/internal\types.h **** 
 255:C:/Renesas/e2studio_2021_01_workspace_RZA2M_ANPR/ANPR_RZA2M_EBK/src/tensorflow_lite/tensorflow/lite/kernels/internal\types.h ****   inline void ReplaceWith(int dimensions_count, const int32_t* dims_data) {
 256:C:/Renesas/e2studio_2021_01_workspace_RZA2M_ANPR/ANPR_RZA2M_EBK/src/tensorflow_lite/tensorflow/lite/kernels/internal\types.h ****     Resize(dimensions_count);
 257:C:/Renesas/e2studio_2021_01_workspace_RZA2M_ANPR/ANPR_RZA2M_EBK/src/tensorflow_lite/tensorflow/lite/kernels/internal\types.h ****     int32_t* dst_dims = DimsData();
 258:C:/Renesas/e2studio_2021_01_workspace_RZA2M_ANPR/ANPR_RZA2M_EBK/src/tensorflow_lite/tensorflow/lite/kernels/internal\types.h ****     std::memcpy(dst_dims, dims_data, dimensions_count * sizeof(int32_t));
 518              		.loc 5 258 0
 519 0114 0720A0E1 		mov	r2, r7
 520 0118 0810A0E1 		mov	r1, r8
 521 011c FEFFFFEB 		bl	memcpy
 522              	.LVL60:
 523              	.LBE408:
 524              	.LBE407:
 525              	.LBE406:
 526              	.LBE421:
 527              	.LBE424:
 528              	.LBB425:
 529              	.LBB426:
 530              		.loc 4 40 0
 531 0120 088094E5 		ldr	r8, [r4, #8]
 532              	.LVL61:
 533 0124 042098E4 		ldr	r2, [r8], #4
 534              	.LVL62:
 535              	.LBB427:
 536              	.LBB428:
 537              	.LBB429:
 538              	.LBB430:
 539              	.LBB431:
 246:C:/Renesas/e2studio_2021_01_workspace_RZA2M_ANPR/ANPR_RZA2M_EBK/src/tensorflow_lite/tensorflow/lite/kernels/internal\types.h **** #ifdef TF_LITE_STATIC_MEMORY
 540              		.loc 5 246 0
 541 0128 050052E3 		cmp	r2, #5
 245:C:/Renesas/e2studio_2021_01_workspace_RZA2M_ANPR/ANPR_RZA2M_EBK/src/tensorflow_lite/tensorflow/lite/kernels/internal\types.h ****     if (dimensions_count > kMaxSmallSize) {
 542              		.loc 5 245 0
 543 012c 38208DE5 		str	r2, [sp, #56]
 246:C:/Renesas/e2studio_2021_01_workspace_RZA2M_ANPR/ANPR_RZA2M_EBK/src/tensorflow_lite/tensorflow/lite/kernels/internal\types.h **** #ifdef TF_LITE_STATIC_MEMORY
 544              		.loc 5 246 0
 545 0130 750000DA 		ble	.L40
 250:C:/Renesas/e2studio_2021_01_workspace_RZA2M_ANPR/ANPR_RZA2M_EBK/src/tensorflow_lite/tensorflow/lite/kernels/internal\types.h **** #endif  // TF_LITE_STATIC_MEMORY
 546              		.loc 5 250 0
 547 0134 2E0272E3 		cmn	r2, #-536870910
 548 0138 770000CA 		bgt	.L41
 549 013c 0271A0E1 		lsl	r7, r2, #2
 550 0140 0700A0E1 		mov	r0, r7
 551              	.LEHB1:
 552 0144 FEFFFFEB 		bl	_Znaj
 553              	.LVL63:
 554              	.LEHE1:
 555 0148 3C008DE5 		str	r0, [sp, #60]
 556              	.LVL64:
 557              	.L42:
 558              	.LBE431:
 559              	.LBE430:
 560              		.loc 5 258 0
 561 014c 0810A0E1 		mov	r1, r8
 562 0150 0720A0E1 		mov	r2, r7
 563 0154 FEFFFFEB 		bl	memcpy
 564              	.LVL65:
 565              	.LBE429:
 566              	.LBE428:
 567              	.LBE427:
 568              	.LBE426:
 569              	.LBE425:
  74:../src/tensorflow_lite/tensorflow/lite/micro/kernels/activations.cc **** 
 570              		.loc 1 74 0
 571 0158 880A88EE 		vdiv.f32	s0, s17, s16
  79:../src/tensorflow_lite/tensorflow/lite/micro/kernels/activations.cc ****                      &data->params.output_shift);
 572              		.loc 1 79 0
 573 015c 181085E2 		add	r1, r5, #24
 574 0160 140085E2 		add	r0, r5, #20
 575 0164 C00AB7EE 		vcvt.f64.f32	d0, s0
 576              	.LEHB2:
 577 0168 FEFFFFEB 		bl	_ZN6tflite18QuantizeMultiplierEdPlPi
 578              	.LVL66:
  85:../src/tensorflow_lite/tensorflow/lite/micro/kernels/activations.cc ****   data->params.quantized_activation_max =
 579              		.loc 1 85 0
 580 016c 037AD4ED 		vldr.32	s15, [r4, #12]
 581 0170 8B0A9FED 		vldr.32	s0, .L97
  84:../src/tensorflow_lite/tensorflow/lite/micro/kernels/activations.cc ****           static_cast<int32_t>(roundf(act_min / output->params.scale)));
 582              		.loc 1 84 0
 583 0174 104094E5 		ldr	r4, [r4, #16]
 584              	.LVL67:
  85:../src/tensorflow_lite/tensorflow/lite/micro/kernels/activations.cc ****   data->params.quantized_activation_max =
 585              		.loc 1 85 0
 586 0178 270A80EE 		vdiv.f32	s0, s0, s15
 587 017c FEFFFFEB 		bl	roundf
 588              	.LVL68:
 589              	.LEHE2:
  84:../src/tensorflow_lite/tensorflow/lite/micro/kernels/activations.cc ****           static_cast<int32_t>(roundf(act_min / output->params.scale)));
 590              		.loc 1 84 0
 591 0180 C00ABDEE 		vcvt.s32.f32	s0, s0
  86:../src/tensorflow_lite/tensorflow/lite/micro/kernels/activations.cc ****       act_max == std::numeric_limits<float>::infinity()
 592              		.loc 1 86 0
 593 0184 7F30A0E3 		mov	r3, #127
  93:../src/tensorflow_lite/tensorflow/lite/micro/kernels/activations.cc ****   data->params.output_offset = output->params.zero_point;
 594              		.loc 1 93 0
 595 0188 100096E5 		ldr	r0, [r6, #16]
  82:../src/tensorflow_lite/tensorflow/lite/micro/kernels/activations.cc ****       static_cast<int32_t>(std::numeric_limits<T>::min()),
 596              		.loc 1 82 0
 597 018c 7F20E0E3 		mvn	r2, #127
 598              	.LBB444:
 599              	.LBB445:
 203:C:/Renesas/e2studio_2021_01_workspace_RZA2M_ANPR/ANPR_RZA2M_EBK/src/tensorflow_lite/tensorflow/lite/kernels/internal\types.h **** #ifdef TF_LITE_STATIC_MEMORY
 600              		.loc 5 203 0
 601 0190 38109DE5 		ldr	r1, [sp, #56]
 602              	.LBE445:
 603              	.LBE444:
  86:../src/tensorflow_lite/tensorflow/lite/micro/kernels/activations.cc ****       act_max == std::numeric_limits<float>::infinity()
 604              		.loc 1 86 0
 605 0194 083085E5 		str	r3, [r5, #8]
  84:../src/tensorflow_lite/tensorflow/lite/micro/kernels/activations.cc ****           static_cast<int32_t>(roundf(act_min / output->params.scale)));
 606              		.loc 1 84 0
 607 0198 103A10EE 		vmov	r3, s0	@ int
 608 019c 043083E0 		add	r3, r3, r4
  94:../src/tensorflow_lite/tensorflow/lite/micro/kernels/activations.cc **** }
 609              		.loc 1 94 0
 610 01a0 104085E5 		str	r4, [r5, #16]
 611              	.LVL69:
  82:../src/tensorflow_lite/tensorflow/lite/micro/kernels/activations.cc ****       static_cast<int32_t>(std::numeric_limits<T>::min()),
 612              		.loc 1 82 0
 613 01a4 020053E1 		cmp	r3, r2
  93:../src/tensorflow_lite/tensorflow/lite/micro/kernels/activations.cc ****   data->params.output_offset = output->params.zero_point;
 614              		.loc 1 93 0
 615 01a8 0C0085E5 		str	r0, [r5, #12]
  82:../src/tensorflow_lite/tensorflow/lite/micro/kernels/activations.cc ****       static_cast<int32_t>(std::numeric_limits<T>::min()),
 616              		.loc 1 82 0
 617 01ac 0230A0B1 		movlt	r3, r2
 618              	.LBB448:
 619              	.LBB446:
 203:C:/Renesas/e2studio_2021_01_workspace_RZA2M_ANPR/ANPR_RZA2M_EBK/src/tensorflow_lite/tensorflow/lite/kernels/internal\types.h **** #ifdef TF_LITE_STATIC_MEMORY
 620              		.loc 5 203 0
 621 01b0 050051E3 		cmp	r1, #5
 622              	.LBE446:
 623              	.LBE448:
  82:../src/tensorflow_lite/tensorflow/lite/micro/kernels/activations.cc ****       static_cast<int32_t>(std::numeric_limits<T>::min()),
 624              		.loc 1 82 0
 625 01b4 043085E5 		str	r3, [r5, #4]
 626              	.LBB449:
 627              	.LBB447:
 203:C:/Renesas/e2studio_2021_01_workspace_RZA2M_ANPR/ANPR_RZA2M_EBK/src/tensorflow_lite/tensorflow/lite/kernels/internal\types.h **** #ifdef TF_LITE_STATIC_MEMORY
 628              		.loc 5 203 0
 629 01b8 030000DA 		ble	.L43
 207:C:/Renesas/e2studio_2021_01_workspace_RZA2M_ANPR/ANPR_RZA2M_EBK/src/tensorflow_lite/tensorflow/lite/kernels/internal\types.h **** #endif  // TF_LITE_STATIC_MEMORY
 630              		.loc 5 207 0
 631 01bc 3C009DE5 		ldr	r0, [sp, #60]
 632 01c0 000050E3 		cmp	r0, #0
 633 01c4 0000000A 		beq	.L43
 634 01c8 FEFFFFEB 		bl	_ZdaPv
 635              	.LVL70:
 636              	.L43:
 637              	.LBE447:
 638              	.LBE449:
 639              	.LBB450:
 640              	.LBB451:
 203:C:/Renesas/e2studio_2021_01_workspace_RZA2M_ANPR/ANPR_RZA2M_EBK/src/tensorflow_lite/tensorflow/lite/kernels/internal\types.h **** #ifdef TF_LITE_STATIC_MEMORY
 641              		.loc 5 203 0
 642 01cc 08309DE5 		ldr	r3, [sp, #8]
 643 01d0 050053E3 		cmp	r3, #5
 644 01d4 A0FFFFDA 		ble	.L60
 207:C:/Renesas/e2studio_2021_01_workspace_RZA2M_ANPR/ANPR_RZA2M_EBK/src/tensorflow_lite/tensorflow/lite/kernels/internal\types.h **** #endif  // TF_LITE_STATIC_MEMORY
 645              		.loc 5 207 0
 646 01d8 0C009DE5 		ldr	r0, [sp, #12]
 647 01dc 000050E3 		cmp	r0, #0
 648 01e0 9DFFFF0A 		beq	.L60
 649              	.LVL71:
 650              	.L91:
 651              	.LBE451:
 652              	.LBE450:
 653              	.LBE403:
 654              	.LBE402:
 655              	.LBB464:
 656              	.LBB398:
 657              	.LBB360:
 658              	.LBB361:
 659 01e4 FEFFFFEB 		bl	_ZdaPv
 660              	.LVL72:
 661 01e8 9BFFFFEA 		b	.L60
 662              	.LVL73:
 663              	.L49:
 664 01ec 0271A0E1 		lsl	r7, r2, #2
 665              	.LVL74:
 666              	.LBE361:
 667              	.LBE360:
 668              	.LBB363:
 669              	.LBB358:
 670              	.LBB356:
 671              	.LBB355:
 672              	.LBB354:
 673              	.LBB352:
 674              	.LBB353:
 229:C:/Renesas/e2studio_2021_01_workspace_RZA2M_ANPR/ANPR_RZA2M_EBK/src/tensorflow_lite/tensorflow/lite/kernels/internal\types.h ****   }
 675              		.loc 5 229 0
 676 01f0 24008DE2 		add	r0, sp, #36
 677              	.LVL75:
 678              	.L50:
 679              	.LBE353:
 680              	.LBE352:
 681              		.loc 5 258 0
 682 01f4 0720A0E1 		mov	r2, r7
 683 01f8 0810A0E1 		mov	r1, r8
 684 01fc FEFFFFEB 		bl	memcpy
 685              	.LVL76:
 686              	.LBE354:
 687              	.LBE355:
 688              	.LBE356:
 689              	.LBE358:
 690              	.LBE363:
 691              	.LBB364:
 692              	.LBB365:
 693              		.loc 4 40 0
 694 0200 088094E5 		ldr	r8, [r4, #8]
 695              	.LVL77:
 696 0204 042098E4 		ldr	r2, [r8], #4
 697              	.LVL78:
 698              	.LBB366:
 699              	.LBB367:
 700              	.LBB368:
 701              	.LBB369:
 702              	.LBB370:
 246:C:/Renesas/e2studio_2021_01_workspace_RZA2M_ANPR/ANPR_RZA2M_EBK/src/tensorflow_lite/tensorflow/lite/kernels/internal\types.h **** #ifdef TF_LITE_STATIC_MEMORY
 703              		.loc 5 246 0
 704 0208 050052E3 		cmp	r2, #5
 245:C:/Renesas/e2studio_2021_01_workspace_RZA2M_ANPR/ANPR_RZA2M_EBK/src/tensorflow_lite/tensorflow/lite/kernels/internal\types.h ****     if (dimensions_count > kMaxSmallSize) {
 705              		.loc 5 245 0
 706 020c 38208DE5 		str	r2, [sp, #56]
 246:C:/Renesas/e2studio_2021_01_workspace_RZA2M_ANPR/ANPR_RZA2M_EBK/src/tensorflow_lite/tensorflow/lite/kernels/internal\types.h **** #ifdef TF_LITE_STATIC_MEMORY
 707              		.loc 5 246 0
 708 0210 2D0000DA 		ble	.L51
 250:C:/Renesas/e2studio_2021_01_workspace_RZA2M_ANPR/ANPR_RZA2M_EBK/src/tensorflow_lite/tensorflow/lite/kernels/internal\types.h **** #endif  // TF_LITE_STATIC_MEMORY
 709              		.loc 5 250 0
 710 0214 2E0272E3 		cmn	r2, #-536870910
 711 0218 510000CA 		bgt	.L52
 712 021c 0271A0E1 		lsl	r7, r2, #2
 713 0220 0700A0E1 		mov	r0, r7
 714              	.LEHB3:
 715 0224 FEFFFFEB 		bl	_Znaj
 716              	.LVL79:
 717              	.LEHE3:
 718 0228 3C008DE5 		str	r0, [sp, #60]
 719              	.LVL80:
 720              	.L53:
 721              	.LBE370:
 722              	.LBE369:
 723              		.loc 5 258 0
 724 022c 0810A0E1 		mov	r1, r8
 725 0230 0720A0E1 		mov	r2, r7
 726 0234 FEFFFFEB 		bl	memcpy
 727              	.LVL81:
 728              	.LBE368:
 729              	.LBE367:
 730              	.LBE366:
 731              	.LBE365:
 732              	.LBE364:
  74:../src/tensorflow_lite/tensorflow/lite/micro/kernels/activations.cc **** 
 733              		.loc 1 74 0
 734 0238 880A88EE 		vdiv.f32	s0, s17, s16
  79:../src/tensorflow_lite/tensorflow/lite/micro/kernels/activations.cc ****                      &data->params.output_shift);
 735              		.loc 1 79 0
 736 023c 181085E2 		add	r1, r5, #24
 737 0240 140085E2 		add	r0, r5, #20
 738 0244 C00AB7EE 		vcvt.f64.f32	d0, s0
 739              	.LEHB4:
 740 0248 FEFFFFEB 		bl	_ZN6tflite18QuantizeMultiplierEdPlPi
 741              	.LVL82:
  85:../src/tensorflow_lite/tensorflow/lite/micro/kernels/activations.cc ****   data->params.quantized_activation_max =
 742              		.loc 1 85 0
 743 024c 037AD4ED 		vldr.32	s15, [r4, #12]
 744 0250 530A9FED 		vldr.32	s0, .L97
  84:../src/tensorflow_lite/tensorflow/lite/micro/kernels/activations.cc ****           static_cast<int32_t>(roundf(act_min / output->params.scale)));
 745              		.loc 1 84 0
 746 0254 104094E5 		ldr	r4, [r4, #16]
 747              	.LVL83:
  85:../src/tensorflow_lite/tensorflow/lite/micro/kernels/activations.cc ****   data->params.quantized_activation_max =
 748              		.loc 1 85 0
 749 0258 270A80EE 		vdiv.f32	s0, s0, s15
 750 025c FEFFFFEB 		bl	roundf
 751              	.LVL84:
 752              	.LEHE4:
  84:../src/tensorflow_lite/tensorflow/lite/micro/kernels/activations.cc ****           static_cast<int32_t>(roundf(act_min / output->params.scale)));
 753              		.loc 1 84 0
 754 0260 C00ABDEE 		vcvt.s32.f32	s0, s0
  86:../src/tensorflow_lite/tensorflow/lite/micro/kernels/activations.cc ****       act_max == std::numeric_limits<float>::infinity()
 755              		.loc 1 86 0
 756 0264 FF00A0E3 		mov	r0, #255
 757              	.LBB383:
 758              	.LBB384:
 203:C:/Renesas/e2studio_2021_01_workspace_RZA2M_ANPR/ANPR_RZA2M_EBK/src/tensorflow_lite/tensorflow/lite/kernels/internal\types.h **** #ifdef TF_LITE_STATIC_MEMORY
 759              		.loc 5 203 0
 760 0268 38109DE5 		ldr	r1, [sp, #56]
 761              	.LBE384:
 762              	.LBE383:
  93:../src/tensorflow_lite/tensorflow/lite/micro/kernels/activations.cc ****   data->params.output_offset = output->params.zero_point;
 763              		.loc 1 93 0
 764 026c 102096E5 		ldr	r2, [r6, #16]
  86:../src/tensorflow_lite/tensorflow/lite/micro/kernels/activations.cc ****       act_max == std::numeric_limits<float>::infinity()
 765              		.loc 1 86 0
 766 0270 080085E5 		str	r0, [r5, #8]
  84:../src/tensorflow_lite/tensorflow/lite/micro/kernels/activations.cc ****           static_cast<int32_t>(roundf(act_min / output->params.scale)));
 767              		.loc 1 84 0
 768 0274 103A10EE 		vmov	r3, s0	@ int
 769              	.LBB387:
 770              	.LBB385:
 203:C:/Renesas/e2studio_2021_01_workspace_RZA2M_ANPR/ANPR_RZA2M_EBK/src/tensorflow_lite/tensorflow/lite/kernels/internal\types.h **** #ifdef TF_LITE_STATIC_MEMORY
 771              		.loc 5 203 0
 772 0278 050051E3 		cmp	r1, #5
 773              	.LBE385:
 774              	.LBE387:
  84:../src/tensorflow_lite/tensorflow/lite/micro/kernels/activations.cc ****           static_cast<int32_t>(roundf(act_min / output->params.scale)));
 775              		.loc 1 84 0
 776 027c 043083E0 		add	r3, r3, r4
  93:../src/tensorflow_lite/tensorflow/lite/micro/kernels/activations.cc ****   data->params.output_offset = output->params.zero_point;
 777              		.loc 1 93 0
 778 0280 0C2085E5 		str	r2, [r5, #12]
  82:../src/tensorflow_lite/tensorflow/lite/micro/kernels/activations.cc ****       static_cast<int32_t>(std::numeric_limits<T>::min()),
 779              		.loc 1 82 0
 780 0284 C33FC3E1 		bic	r3, r3, r3, asr #31
  94:../src/tensorflow_lite/tensorflow/lite/micro/kernels/activations.cc **** }
 781              		.loc 1 94 0
 782 0288 104085E5 		str	r4, [r5, #16]
 783              	.LVL85:
  82:../src/tensorflow_lite/tensorflow/lite/micro/kernels/activations.cc ****       static_cast<int32_t>(std::numeric_limits<T>::min()),
 784              		.loc 1 82 0
 785 028c 043085E5 		str	r3, [r5, #4]
 786              	.LBB388:
 787              	.LBB386:
 203:C:/Renesas/e2studio_2021_01_workspace_RZA2M_ANPR/ANPR_RZA2M_EBK/src/tensorflow_lite/tensorflow/lite/kernels/internal\types.h **** #ifdef TF_LITE_STATIC_MEMORY
 788              		.loc 5 203 0
 789 0290 030000DA 		ble	.L54
 207:C:/Renesas/e2studio_2021_01_workspace_RZA2M_ANPR/ANPR_RZA2M_EBK/src/tensorflow_lite/tensorflow/lite/kernels/internal\types.h **** #endif  // TF_LITE_STATIC_MEMORY
 790              		.loc 5 207 0
 791 0294 3C009DE5 		ldr	r0, [sp, #60]
 792 0298 000050E3 		cmp	r0, #0
 793 029c 0000000A 		beq	.L54
 794 02a0 FEFFFFEB 		bl	_ZdaPv
 795              	.LVL86:
 796              	.L54:
 797              	.LBE386:
 798              	.LBE388:
 799              	.LBB389:
 800              	.LBB362:
 203:C:/Renesas/e2studio_2021_01_workspace_RZA2M_ANPR/ANPR_RZA2M_EBK/src/tensorflow_lite/tensorflow/lite/kernels/internal\types.h **** #ifdef TF_LITE_STATIC_MEMORY
 801              		.loc 5 203 0
 802 02a4 20309DE5 		ldr	r3, [sp, #32]
 803 02a8 050053E3 		cmp	r3, #5
 804 02ac 6AFFFFDA 		ble	.L60
 207:C:/Renesas/e2studio_2021_01_workspace_RZA2M_ANPR/ANPR_RZA2M_EBK/src/tensorflow_lite/tensorflow/lite/kernels/internal\types.h **** #endif  // TF_LITE_STATIC_MEMORY
 805              		.loc 5 207 0
 806 02b0 24009DE5 		ldr	r0, [sp, #36]
 807 02b4 000050E3 		cmp	r0, #0
 808 02b8 C9FFFF1A 		bne	.L91
 809 02bc 66FFFFEA 		b	.L60
 810              	.LVL87:
 811              	.L37:
 812 02c0 0271A0E1 		lsl	r7, r2, #2
 813              	.LVL88:
 814              	.LBE362:
 815              	.LBE389:
 816              	.LBE398:
 817              	.LBE464:
 818              	.LBB465:
 819              	.LBB460:
 820              	.LBB452:
 821              	.LBB422:
 822              	.LBB419:
 823              	.LBB417:
 824              	.LBB415:
 825              	.LBB412:
 826              	.LBB413:
 229:C:/Renesas/e2studio_2021_01_workspace_RZA2M_ANPR/ANPR_RZA2M_EBK/src/tensorflow_lite/tensorflow/lite/kernels/internal\types.h ****   }
 827              		.loc 5 229 0
 828 02c4 0C008DE2 		add	r0, sp, #12
 829              	.LVL89:
 830 02c8 91FFFFEA 		b	.L39
 831              	.LVL90:
 832              	.L51:
 833 02cc 0271A0E1 		lsl	r7, r2, #2
 834              	.LBE413:
 835              	.LBE412:
 836              	.LBE415:
 837              	.LBE417:
 838              	.LBE419:
 839              	.LBE422:
 840              	.LBE452:
 841              	.LBE460:
 842              	.LBE465:
 843              	.LBB466:
 844              	.LBB399:
 845              	.LBB390:
 846              	.LBB381:
 847              	.LBB379:
 848              	.LBB377:
 849              	.LBB375:
 850              	.LBB372:
 851              	.LBB373:
 852 02d0 3C008DE2 		add	r0, sp, #60
 853 02d4 D4FFFFEA 		b	.L53
 854              	.LVL91:
 855              	.L94:
 856              	.LBE373:
 857              	.LBE372:
 858              	.LBE375:
 859              	.LBE377:
 860              	.LBE379:
 861              	.LBE381:
 862              	.LBE390:
 863              	.LBE399:
 864              	.LBE466:
 144:../src/tensorflow_lite/tensorflow/lite/micro/kernels/activations.cc **** 
 865              		.loc 1 144 0 discriminator 1
 866 02d8 003000E3 		movw	r3, #:lower16:.LC5
 867 02dc 002000E3 		movw	r2, #:lower16:.LC2
 868 02e0 003040E3 		movt	r3, #:upper16:.LC5
 869 02e4 001000E3 		movw	r1, #:lower16:.LC3
 870 02e8 00308DE5 		str	r3, [sp]
 871 02ec 0700A0E1 		mov	r0, r7
 872              	.LVL92:
 873 02f0 002040E3 		movt	r2, #:upper16:.LC2
 874 02f4 001040E3 		movt	r1, #:upper16:.LC3
 875 02f8 144097E5 		ldr	r4, [r7, #20]
 876              	.LVL93:
 877 02fc 9030A0E3 		mov	r3, #144
 878              	.LEHB5:
 879 0300 34FF2FE1 		blx	r4
 880              	.LVL94:
 881 0304 0100A0E3 		mov	r0, #1
 882 0308 54FFFFEA 		b	.L34
 883              	.LVL95:
 884              	.L40:
 885 030c 0271A0E1 		lsl	r7, r2, #2
 886              	.LBB467:
 887              	.LBB461:
 888              	.LBB453:
 889              	.LBB442:
 890              	.LBB440:
 891              	.LBB438:
 892              	.LBB436:
 893              	.LBB433:
 894              	.LBB434:
 229:C:/Renesas/e2studio_2021_01_workspace_RZA2M_ANPR/ANPR_RZA2M_EBK/src/tensorflow_lite/tensorflow/lite/kernels/internal\types.h ****   }
 895              		.loc 5 229 0
 896 0310 3C008DE2 		add	r0, sp, #60
 897 0314 8CFFFFEA 		b	.L42
 898              	.LVL96:
 899              	.L92:
 900              	.LBE434:
 901              	.LBE433:
 902              	.LBE436:
 903              	.LBE438:
 904              	.LBE440:
 905              	.LBE442:
 906              	.LBE453:
 907              	.LBE461:
 908              	.LBE467:
 138:../src/tensorflow_lite/tensorflow/lite/micro/kernels/activations.cc ****   ReluOpData* data = static_cast<ReluOpData*>(node->user_data);
 909              		.loc 1 138 0 discriminator 1
 910 0318 FEFFFFEB 		bl	abort
 911              	.LVL97:
 912              	.LEHE5:
 913              	.L41:
 914              	.LEHB6:
 915              	.LBB468:
 916              	.LBB462:
 917              	.LBB454:
 918              	.LBB443:
 919              	.LBB441:
 920              	.LBB439:
 921              	.LBB437:
 922              	.LBB435:
 923              	.LBB432:
 250:C:/Renesas/e2studio_2021_01_workspace_RZA2M_ANPR/ANPR_RZA2M_EBK/src/tensorflow_lite/tensorflow/lite/kernels/internal\types.h **** #endif  // TF_LITE_STATIC_MEMORY
 924              		.loc 5 250 0
 925 031c FEFFFFEB 		bl	__cxa_throw_bad_array_new_length
 926              	.LVL98:
 927              	.LEHE6:
 928              	.L62:
 929              	.LBE432:
 930              	.LBE435:
 931              	.LBE437:
 932              	.LBE439:
 933              	.LBE441:
 934              	.LBE443:
 935              	.LBE454:
 936              	.LBB455:
 937              	.LBB456:
 203:C:/Renesas/e2studio_2021_01_workspace_RZA2M_ANPR/ANPR_RZA2M_EBK/src/tensorflow_lite/tensorflow/lite/kernels/internal\types.h **** #ifdef TF_LITE_STATIC_MEMORY
 938              		.loc 5 203 0
 939 0320 38309DE5 		ldr	r3, [sp, #56]
 940 0324 050053E3 		cmp	r3, #5
 941 0328 030000DA 		ble	.L47
 207:C:/Renesas/e2studio_2021_01_workspace_RZA2M_ANPR/ANPR_RZA2M_EBK/src/tensorflow_lite/tensorflow/lite/kernels/internal\types.h **** #endif  // TF_LITE_STATIC_MEMORY
 942              		.loc 5 207 0
 943 032c 3C009DE5 		ldr	r0, [sp, #60]
 944 0330 000050E3 		cmp	r0, #0
 945 0334 0000000A 		beq	.L47
 946 0338 FEFFFFEB 		bl	_ZdaPv
 947              	.LVL99:
 948              	.L47:
 949              	.LBE456:
 950              	.LBE455:
 951              	.LBB457:
 952              	.LBB458:
 203:C:/Renesas/e2studio_2021_01_workspace_RZA2M_ANPR/ANPR_RZA2M_EBK/src/tensorflow_lite/tensorflow/lite/kernels/internal\types.h **** #ifdef TF_LITE_STATIC_MEMORY
 953              		.loc 5 203 0
 954 033c 08309DE5 		ldr	r3, [sp, #8]
 955 0340 050053E3 		cmp	r3, #5
 956 0344 030000DA 		ble	.L59
 207:C:/Renesas/e2studio_2021_01_workspace_RZA2M_ANPR/ANPR_RZA2M_EBK/src/tensorflow_lite/tensorflow/lite/kernels/internal\types.h **** #endif  // TF_LITE_STATIC_MEMORY
 957              		.loc 5 207 0
 958 0348 0C009DE5 		ldr	r0, [sp, #12]
 959 034c 000050E3 		cmp	r0, #0
 960 0350 0000000A 		beq	.L59
 961              	.LVL100:
 962              	.L90:
 963              	.LBE458:
 964              	.LBE457:
 965              	.LBE462:
 966              	.LBE468:
 967              	.LBB469:
 968              	.LBB400:
 969              	.LBB391:
 970              	.LBB392:
 971 0354 FEFFFFEB 		bl	_ZdaPv
 972              	.LVL101:
 973              	.L59:
 974              	.LEHB7:
 975 0358 FEFFFFEB 		bl	__cxa_end_cleanup
 976              	.LVL102:
 977              	.L61:
 978 035c F6FFFFEA 		b	.L47
 979              	.LVL103:
 980              	.L38:
 981              	.LBE392:
 982              	.LBE391:
 983              	.LBE400:
 984              	.LBE469:
 985              	.LBB470:
 986              	.LBB463:
 987              	.LBB459:
 988              	.LBB423:
 989              	.LBB420:
 990              	.LBB418:
 991              	.LBB416:
 992              	.LBB414:
 993              	.LBB411:
 250:C:/Renesas/e2studio_2021_01_workspace_RZA2M_ANPR/ANPR_RZA2M_EBK/src/tensorflow_lite/tensorflow/lite/kernels/internal\types.h **** #endif  // TF_LITE_STATIC_MEMORY
 994              		.loc 5 250 0
 995 0360 FEFFFFEB 		bl	__cxa_throw_bad_array_new_length
 996              	.LVL104:
 997              	.LEHE7:
 998              	.L52:
 999              	.LEHB8:
 1000              	.LBE411:
 1001              	.LBE414:
 1002              	.LBE416:
 1003              	.LBE418:
 1004              	.LBE420:
 1005              	.LBE423:
 1006              	.LBE459:
 1007              	.LBE463:
 1008              	.LBE470:
 1009              	.LBB471:
 1010              	.LBB401:
 1011              	.LBB394:
 1012              	.LBB382:
 1013              	.LBB380:
 1014              	.LBB378:
 1015              	.LBB376:
 1016              	.LBB374:
 1017              	.LBB371:
 1018 0364 FEFFFFEB 		bl	__cxa_throw_bad_array_new_length
 1019              	.LVL105:
 1020              	.LEHE8:
 1021              	.L64:
 1022              	.LBE371:
 1023              	.LBE374:
 1024              	.LBE376:
 1025              	.LBE378:
 1026              	.LBE380:
 1027              	.LBE382:
 1028              	.LBE394:
 1029              	.LBB395:
 1030              	.LBB396:
 203:C:/Renesas/e2studio_2021_01_workspace_RZA2M_ANPR/ANPR_RZA2M_EBK/src/tensorflow_lite/tensorflow/lite/kernels/internal\types.h **** #ifdef TF_LITE_STATIC_MEMORY
 1031              		.loc 5 203 0
 1032 0368 38309DE5 		ldr	r3, [sp, #56]
 1033 036c 050053E3 		cmp	r3, #5
 1034 0370 030000DA 		ble	.L58
 207:C:/Renesas/e2studio_2021_01_workspace_RZA2M_ANPR/ANPR_RZA2M_EBK/src/tensorflow_lite/tensorflow/lite/kernels/internal\types.h **** #endif  // TF_LITE_STATIC_MEMORY
 1035              		.loc 5 207 0
 1036 0374 3C009DE5 		ldr	r0, [sp, #60]
 1037 0378 000050E3 		cmp	r0, #0
 1038 037c 0000000A 		beq	.L58
 1039 0380 FEFFFFEB 		bl	_ZdaPv
 1040              	.LVL106:
 1041              	.L58:
 1042              	.LBE396:
 1043              	.LBE395:
 1044              	.LBB397:
 1045              	.LBB393:
 203:C:/Renesas/e2studio_2021_01_workspace_RZA2M_ANPR/ANPR_RZA2M_EBK/src/tensorflow_lite/tensorflow/lite/kernels/internal\types.h **** #ifdef TF_LITE_STATIC_MEMORY
 1046              		.loc 5 203 0
 1047 0384 20309DE5 		ldr	r3, [sp, #32]
 1048 0388 050053E3 		cmp	r3, #5
 1049 038c F1FFFFDA 		ble	.L59
 207:C:/Renesas/e2studio_2021_01_workspace_RZA2M_ANPR/ANPR_RZA2M_EBK/src/tensorflow_lite/tensorflow/lite/kernels/internal\types.h **** #endif  // TF_LITE_STATIC_MEMORY
 1050              		.loc 5 207 0
 1051 0390 24009DE5 		ldr	r0, [sp, #36]
 1052 0394 000050E3 		cmp	r0, #0
 1053 0398 EDFFFF1A 		bne	.L90
 1054 039c EDFFFFEA 		b	.L59
 1055              	.LVL107:
 1056              	.L63:
 1057 03a0 F7FFFFEA 		b	.L58
 1058              	.L98:
 1059              		.align	2
 1060              	.L97:
 1061 03a4 00000000 		.word	0
 1062              	.LBE393:
 1063              	.LBE397:
 1064              	.LBE401:
 1065              	.LBE471:
 1066              		.cfi_endproc
 1067              	.LFE4180:
 1068              		.global	__gxx_personality_v0
 1069              		.personality	__gxx_personality_v0
 1070              		.handlerdata
 1071              	.LLSDA4180:
 1072 000c FF       		.byte	0xff
 1073 000d FF       		.byte	0xff
 1074 000e 01       		.byte	0x1
 1075 000f 33       		.uleb128 .LLSDACSE4180-.LLSDACSB4180
 1076              	.LLSDACSB4180:
 1077 0010 24       		.uleb128 .LEHB0-.LFB4180
 1078 0011 EC01     		.uleb128 .LEHE0-.LEHB0
 1079 0013 00       		.uleb128 0
 1080 0014 00       		.uleb128 0
 1081 0015 C402     		.uleb128 .LEHB1-.LFB4180
 1082 0017 04       		.uleb128 .LEHE1-.LEHB1
 1083 0018 DC06     		.uleb128 .L61-.LFB4180
 1084 001a 00       		.uleb128 0
 1085 001b E802     		.uleb128 .LEHB2-.LFB4180
 1086 001d 18       		.uleb128 .LEHE2-.LEHB2
 1087 001e A006     		.uleb128 .L62-.LFB4180
 1088 0020 00       		.uleb128 0
 1089 0021 A404     		.uleb128 .LEHB3-.LFB4180
 1090 0023 04       		.uleb128 .LEHE3-.LEHB3
 1091 0024 A007     		.uleb128 .L63-.LFB4180
 1092 0026 00       		.uleb128 0
 1093 0027 C804     		.uleb128 .LEHB4-.LFB4180
 1094 0029 18       		.uleb128 .LEHE4-.LEHB4
 1095 002a E806     		.uleb128 .L64-.LFB4180
 1096 002c 00       		.uleb128 0
 1097 002d 8006     		.uleb128 .LEHB5-.LFB4180
 1098 002f 1C       		.uleb128 .LEHE5-.LEHB5
 1099 0030 00       		.uleb128 0
 1100 0031 00       		.uleb128 0
 1101 0032 9C06     		.uleb128 .LEHB6-.LFB4180
 1102 0034 04       		.uleb128 .LEHE6-.LEHB6
 1103 0035 DC06     		.uleb128 .L61-.LFB4180
 1104 0037 00       		.uleb128 0
 1105 0038 D806     		.uleb128 .LEHB7-.LFB4180
 1106 003a 0C       		.uleb128 .LEHE7-.LEHB7
 1107 003b 00       		.uleb128 0
 1108 003c 00       		.uleb128 0
 1109 003d E406     		.uleb128 .LEHB8-.LFB4180
 1110 003f 04       		.uleb128 .LEHE8-.LEHB8
 1111 0040 A007     		.uleb128 .L63-.LFB4180
 1112 0042 00       		.uleb128 0
 1113              	.LLSDACSE4180:
 1114              		.section	.text._ZN6tflite3ops5micro11activations11ReluPrepareEP13TfLiteContextP10TfLiteNode
 1115              		.fnend
 1117              		.section	.text._ZN6tflite3ops5micro11activations8ReluEvalEP13TfLiteContextP10TfLiteNode,"ax",%prog
 1118              		.align	2
 1119              		.global	_ZN6tflite3ops5micro11activations8ReluEvalEP13TfLiteContextP10TfLiteNode
 1120              		.syntax unified
 1121              		.arm
 1122              		.fpu neon
 1124              	_ZN6tflite3ops5micro11activations8ReluEvalEP13TfLiteContextP10TfLiteNode:
 1125              		.fnstart
 1126              	.LFB4181:
 155:../src/tensorflow_lite/tensorflow/lite/micro/kernels/activations.cc ****   TFLITE_DCHECK(node->user_data != nullptr);
 1127              		.loc 1 155 0
 1128              		.cfi_startproc
 1129              		.cfi_personality 0,__gxx_personality_v0
 1130              		.cfi_lsda 0,.LLSDA4181
 1131              		@ args = 0, pretend = 0, frame = 48
 1132              		@ frame_needed = 0, uses_anonymous_args = 0
 1133              	.LVL108:
 1134 0000 F0432DE9 		push	{r4, r5, r6, r7, r8, r9, lr}
 1135              		.save {r4, r5, r6, r7, r8, r9, lr}
 1136              		.cfi_def_cfa_offset 28
 1137              		.cfi_offset 4, -28
 1138              		.cfi_offset 5, -24
 1139              		.cfi_offset 6, -20
 1140              		.cfi_offset 7, -16
 1141              		.cfi_offset 8, -12
 1142              		.cfi_offset 9, -8
 1143              		.cfi_offset 14, -4
 1144              		.pad #52
 1145 0004 34D04DE2 		sub	sp, sp, #52
 1146              		.cfi_def_cfa_offset 80
 156:../src/tensorflow_lite/tensorflow/lite/micro/kernels/activations.cc ****   const ReluOpData& data = *(static_cast<const ReluOpData*>(node->user_data));
 1147              		.loc 1 156 0
 1148 0008 104091E5 		ldr	r4, [r1, #16]
 1149 000c 000054E3 		cmp	r4, #0
 1150 0010 0503000A 		beq	.L101
 1151              	.LBB622:
 1152              	.LBB623:
 1153              	.LBB624:
 1154              		.file 6 "C:/Renesas/e2studio_2021_01_workspace_RZA2M_ANPR/ANPR_RZA2M_EBK/src/tensorflow_lite/tenso
   1:C:/Renesas/e2studio_2021_01_workspace_RZA2M_ANPR/ANPR_RZA2M_EBK/src/tensorflow_lite/tensorflow/lite/micro/kernels\kernel_util.h **** /* Copyright 2020 The TensorFlow Authors. All Rights Reserved.
   2:C:/Renesas/e2studio_2021_01_workspace_RZA2M_ANPR/ANPR_RZA2M_EBK/src/tensorflow_lite/tensorflow/lite/micro/kernels\kernel_util.h **** 
   3:C:/Renesas/e2studio_2021_01_workspace_RZA2M_ANPR/ANPR_RZA2M_EBK/src/tensorflow_lite/tensorflow/lite/micro/kernels\kernel_util.h **** Licensed under the Apache License, Version 2.0 (the "License");
   4:C:/Renesas/e2studio_2021_01_workspace_RZA2M_ANPR/ANPR_RZA2M_EBK/src/tensorflow_lite/tensorflow/lite/micro/kernels\kernel_util.h **** you may not use this file except in compliance with the License.
   5:C:/Renesas/e2studio_2021_01_workspace_RZA2M_ANPR/ANPR_RZA2M_EBK/src/tensorflow_lite/tensorflow/lite/micro/kernels\kernel_util.h **** You may obtain a copy of the License at
   6:C:/Renesas/e2studio_2021_01_workspace_RZA2M_ANPR/ANPR_RZA2M_EBK/src/tensorflow_lite/tensorflow/lite/micro/kernels\kernel_util.h **** 
   7:C:/Renesas/e2studio_2021_01_workspace_RZA2M_ANPR/ANPR_RZA2M_EBK/src/tensorflow_lite/tensorflow/lite/micro/kernels\kernel_util.h ****     http://www.apache.org/licenses/LICENSE-2.0
   8:C:/Renesas/e2studio_2021_01_workspace_RZA2M_ANPR/ANPR_RZA2M_EBK/src/tensorflow_lite/tensorflow/lite/micro/kernels\kernel_util.h **** 
   9:C:/Renesas/e2studio_2021_01_workspace_RZA2M_ANPR/ANPR_RZA2M_EBK/src/tensorflow_lite/tensorflow/lite/micro/kernels\kernel_util.h **** Unless required by applicable law or agreed to in writing, software
  10:C:/Renesas/e2studio_2021_01_workspace_RZA2M_ANPR/ANPR_RZA2M_EBK/src/tensorflow_lite/tensorflow/lite/micro/kernels\kernel_util.h **** distributed under the License is distributed on an "AS IS" BASIS,
  11:C:/Renesas/e2studio_2021_01_workspace_RZA2M_ANPR/ANPR_RZA2M_EBK/src/tensorflow_lite/tensorflow/lite/micro/kernels\kernel_util.h **** WITHOUT WARRANTIES OR CONDITIONS OF ANY KIND, either express or implied.
  12:C:/Renesas/e2studio_2021_01_workspace_RZA2M_ANPR/ANPR_RZA2M_EBK/src/tensorflow_lite/tensorflow/lite/micro/kernels\kernel_util.h **** See the License for the specific language governing permissions and
  13:C:/Renesas/e2studio_2021_01_workspace_RZA2M_ANPR/ANPR_RZA2M_EBK/src/tensorflow_lite/tensorflow/lite/micro/kernels\kernel_util.h **** limitations under the License.
  14:C:/Renesas/e2studio_2021_01_workspace_RZA2M_ANPR/ANPR_RZA2M_EBK/src/tensorflow_lite/tensorflow/lite/micro/kernels\kernel_util.h **** ==============================================================================*/
  15:C:/Renesas/e2studio_2021_01_workspace_RZA2M_ANPR/ANPR_RZA2M_EBK/src/tensorflow_lite/tensorflow/lite/micro/kernels\kernel_util.h **** 
  16:C:/Renesas/e2studio_2021_01_workspace_RZA2M_ANPR/ANPR_RZA2M_EBK/src/tensorflow_lite/tensorflow/lite/micro/kernels\kernel_util.h **** #ifndef TENSORFLOW_LITE_MICRO_KERNELS_KERNEL_UTIL_H_
  17:C:/Renesas/e2studio_2021_01_workspace_RZA2M_ANPR/ANPR_RZA2M_EBK/src/tensorflow_lite/tensorflow/lite/micro/kernels\kernel_util.h **** #define TENSORFLOW_LITE_MICRO_KERNELS_KERNEL_UTIL_H_
  18:C:/Renesas/e2studio_2021_01_workspace_RZA2M_ANPR/ANPR_RZA2M_EBK/src/tensorflow_lite/tensorflow/lite/micro/kernels\kernel_util.h **** 
  19:C:/Renesas/e2studio_2021_01_workspace_RZA2M_ANPR/ANPR_RZA2M_EBK/src/tensorflow_lite/tensorflow/lite/micro/kernels\kernel_util.h **** #include <cstdint>
  20:C:/Renesas/e2studio_2021_01_workspace_RZA2M_ANPR/ANPR_RZA2M_EBK/src/tensorflow_lite/tensorflow/lite/micro/kernels\kernel_util.h **** 
  21:C:/Renesas/e2studio_2021_01_workspace_RZA2M_ANPR/ANPR_RZA2M_EBK/src/tensorflow_lite/tensorflow/lite/micro/kernels\kernel_util.h **** #include "tensorflow/lite/c/builtin_op_data.h"
  22:C:/Renesas/e2studio_2021_01_workspace_RZA2M_ANPR/ANPR_RZA2M_EBK/src/tensorflow_lite/tensorflow/lite/micro/kernels\kernel_util.h **** #include "tensorflow/lite/c/common.h"
  23:C:/Renesas/e2studio_2021_01_workspace_RZA2M_ANPR/ANPR_RZA2M_EBK/src/tensorflow_lite/tensorflow/lite/micro/kernels\kernel_util.h **** #include "tensorflow/lite/kernels/internal/compatibility.h"
  24:C:/Renesas/e2studio_2021_01_workspace_RZA2M_ANPR/ANPR_RZA2M_EBK/src/tensorflow_lite/tensorflow/lite/micro/kernels\kernel_util.h **** #include "tensorflow/lite/kernels/internal/types.h"
  25:C:/Renesas/e2studio_2021_01_workspace_RZA2M_ANPR/ANPR_RZA2M_EBK/src/tensorflow_lite/tensorflow/lite/micro/kernels\kernel_util.h **** 
  26:C:/Renesas/e2studio_2021_01_workspace_RZA2M_ANPR/ANPR_RZA2M_EBK/src/tensorflow_lite/tensorflow/lite/micro/kernels\kernel_util.h **** namespace tflite {
  27:C:/Renesas/e2studio_2021_01_workspace_RZA2M_ANPR/ANPR_RZA2M_EBK/src/tensorflow_lite/tensorflow/lite/micro/kernels\kernel_util.h **** namespace micro {
  28:C:/Renesas/e2studio_2021_01_workspace_RZA2M_ANPR/ANPR_RZA2M_EBK/src/tensorflow_lite/tensorflow/lite/micro/kernels\kernel_util.h **** 
  29:C:/Renesas/e2studio_2021_01_workspace_RZA2M_ANPR/ANPR_RZA2M_EBK/src/tensorflow_lite/tensorflow/lite/micro/kernels\kernel_util.h **** // Returns a mutable tensor for a given input index. is_variable must be checked
  30:C:/Renesas/e2studio_2021_01_workspace_RZA2M_ANPR/ANPR_RZA2M_EBK/src/tensorflow_lite/tensorflow/lite/micro/kernels\kernel_util.h **** // during prepare when the full TfLiteTensor is available.
  31:C:/Renesas/e2studio_2021_01_workspace_RZA2M_ANPR/ANPR_RZA2M_EBK/src/tensorflow_lite/tensorflow/lite/micro/kernels\kernel_util.h **** inline TfLiteEvalTensor* GetMutableEvalInput(const TfLiteContext* context,
  32:C:/Renesas/e2studio_2021_01_workspace_RZA2M_ANPR/ANPR_RZA2M_EBK/src/tensorflow_lite/tensorflow/lite/micro/kernels\kernel_util.h ****                                              const TfLiteNode* node,
  33:C:/Renesas/e2studio_2021_01_workspace_RZA2M_ANPR/ANPR_RZA2M_EBK/src/tensorflow_lite/tensorflow/lite/micro/kernels\kernel_util.h ****                                              int index) {
  34:C:/Renesas/e2studio_2021_01_workspace_RZA2M_ANPR/ANPR_RZA2M_EBK/src/tensorflow_lite/tensorflow/lite/micro/kernels\kernel_util.h ****   TFLITE_DCHECK(context != nullptr);
 1155              		.loc 6 34 0
 1156 0014 000050E3 		cmp	r0, #0
 1157 0018 0060A0E1 		mov	r6, r0
 1158              	.LVL109:
 1159 001c 0203000A 		beq	.L101
  35:C:/Renesas/e2studio_2021_01_workspace_RZA2M_ANPR/ANPR_RZA2M_EBK/src/tensorflow_lite/tensorflow/lite/micro/kernels\kernel_util.h ****   TFLITE_DCHECK(node != nullptr);
  36:C:/Renesas/e2studio_2021_01_workspace_RZA2M_ANPR/ANPR_RZA2M_EBK/src/tensorflow_lite/tensorflow/lite/micro/kernels\kernel_util.h ****   return context->GetEvalTensor(context, node->inputs->data[index]);
 1160              		.loc 6 36 0
 1161 0020 002091E5 		ldr	r2, [r1]
 1162 0024 0150A0E1 		mov	r5, r1
 1163 0028 543090E5 		ldr	r3, [r0, #84]
 1164 002c 041092E5 		ldr	r1, [r2, #4]
 1165              	.LVL110:
 1166              	.LEHB9:
 1167 0030 33FF2FE1 		blx	r3
 1168              	.LVL111:
 1169              	.LBE624:
 1170              	.LBE623:
 1171              	.LBE622:
 1172              	.LBB627:
 1173              	.LBB628:
  37:C:/Renesas/e2studio_2021_01_workspace_RZA2M_ANPR/ANPR_RZA2M_EBK/src/tensorflow_lite/tensorflow/lite/micro/kernels\kernel_util.h **** }
  38:C:/Renesas/e2studio_2021_01_workspace_RZA2M_ANPR/ANPR_RZA2M_EBK/src/tensorflow_lite/tensorflow/lite/micro/kernels\kernel_util.h **** 
  39:C:/Renesas/e2studio_2021_01_workspace_RZA2M_ANPR/ANPR_RZA2M_EBK/src/tensorflow_lite/tensorflow/lite/micro/kernels\kernel_util.h **** // Returns the TfLiteEvalTensor struct for a given input index in a node.
  40:C:/Renesas/e2studio_2021_01_workspace_RZA2M_ANPR/ANPR_RZA2M_EBK/src/tensorflow_lite/tensorflow/lite/micro/kernels\kernel_util.h **** inline const TfLiteEvalTensor* GetEvalInput(const TfLiteContext* context,
  41:C:/Renesas/e2studio_2021_01_workspace_RZA2M_ANPR/ANPR_RZA2M_EBK/src/tensorflow_lite/tensorflow/lite/micro/kernels\kernel_util.h ****                                             const TfLiteNode* node, int index) {
  42:C:/Renesas/e2studio_2021_01_workspace_RZA2M_ANPR/ANPR_RZA2M_EBK/src/tensorflow_lite/tensorflow/lite/micro/kernels\kernel_util.h ****   return GetMutableEvalInput(context, node, index);
  43:C:/Renesas/e2studio_2021_01_workspace_RZA2M_ANPR/ANPR_RZA2M_EBK/src/tensorflow_lite/tensorflow/lite/micro/kernels\kernel_util.h **** }
  44:C:/Renesas/e2studio_2021_01_workspace_RZA2M_ANPR/ANPR_RZA2M_EBK/src/tensorflow_lite/tensorflow/lite/micro/kernels\kernel_util.h **** 
  45:C:/Renesas/e2studio_2021_01_workspace_RZA2M_ANPR/ANPR_RZA2M_EBK/src/tensorflow_lite/tensorflow/lite/micro/kernels\kernel_util.h **** // Returns the TfLiteEvalTensor struct for a given output index in a node.
  46:C:/Renesas/e2studio_2021_01_workspace_RZA2M_ANPR/ANPR_RZA2M_EBK/src/tensorflow_lite/tensorflow/lite/micro/kernels\kernel_util.h **** inline TfLiteEvalTensor* GetEvalOutput(const TfLiteContext* context,
  47:C:/Renesas/e2studio_2021_01_workspace_RZA2M_ANPR/ANPR_RZA2M_EBK/src/tensorflow_lite/tensorflow/lite/micro/kernels\kernel_util.h ****                                        const TfLiteNode* node, int index) {
  48:C:/Renesas/e2studio_2021_01_workspace_RZA2M_ANPR/ANPR_RZA2M_EBK/src/tensorflow_lite/tensorflow/lite/micro/kernels\kernel_util.h ****   TFLITE_DCHECK(context != nullptr);
  49:C:/Renesas/e2studio_2021_01_workspace_RZA2M_ANPR/ANPR_RZA2M_EBK/src/tensorflow_lite/tensorflow/lite/micro/kernels\kernel_util.h ****   TFLITE_DCHECK(node != nullptr);
  50:C:/Renesas/e2studio_2021_01_workspace_RZA2M_ANPR/ANPR_RZA2M_EBK/src/tensorflow_lite/tensorflow/lite/micro/kernels\kernel_util.h ****   return context->GetEvalTensor(context, node->outputs->data[index]);
 1174              		.loc 6 50 0
 1175 0034 042095E5 		ldr	r2, [r5, #4]
 1176              	.LBE628:
 1177              	.LBE627:
 1178              	.LBB630:
 1179              	.LBB626:
 1180              	.LBB625:
  36:C:/Renesas/e2studio_2021_01_workspace_RZA2M_ANPR/ANPR_RZA2M_EBK/src/tensorflow_lite/tensorflow/lite/micro/kernels\kernel_util.h **** }
 1181              		.loc 6 36 0
 1182 0038 0070A0E1 		mov	r7, r0
 1183              	.LVL112:
 1184              	.LBE625:
 1185              	.LBE626:
 1186              	.LBE630:
 1187              	.LBB631:
 1188              	.LBB629:
 1189              		.loc 6 50 0
 1190 003c 543096E5 		ldr	r3, [r6, #84]
 1191 0040 0600A0E1 		mov	r0, r6
 1192 0044 041092E5 		ldr	r1, [r2, #4]
 1193 0048 33FF2FE1 		blx	r3
 1194              	.LVL113:
 1195 004c 0050A0E1 		mov	r5, r0
 1196              	.LVL114:
 1197              	.LBE629:
 1198              	.LBE631:
 164:../src/tensorflow_lite/tensorflow/lite/micro/kernels/activations.cc ****     case kTfLiteFloat32: {
 1199              		.loc 1 164 0
 1200 0050 0800D7E5 		ldrb	r0, [r7, #8]	@ zero_extendqisi2
 1201 0054 030050E3 		cmp	r0, #3
 1202 0058 B201000A 		beq	.L103
 1203 005c 090050E3 		cmp	r0, #9
 1204 0060 0B00000A 		beq	.L104
 1205 0064 010050E3 		cmp	r0, #1
 1206 0068 D300000A 		beq	.L380
 188:../src/tensorflow_lite/tensorflow/lite/micro/kernels/activations.cc ****                          TfLiteTypeGetName(input->type));
 1207              		.loc 1 188 0
 1208 006c 144096E5 		ldr	r4, [r6, #20]
 1209              	.LVL115:
 1210 0070 FEFFFFEB 		bl	TfLiteTypeGetName
 1211              	.LVL116:
 1212 0074 001000E3 		movw	r1, #:lower16:.LC8
 1213 0078 0020A0E1 		mov	r2, r0
 1214 007c 001040E3 		movt	r1, #:upper16:.LC8
 1215 0080 0600A0E1 		mov	r0, r6
 1216 0084 34FF2FE1 		blx	r4
 1217              	.LVL117:
 190:../src/tensorflow_lite/tensorflow/lite/micro/kernels/activations.cc ****     }
 1218              		.loc 1 190 0
 1219 0088 0100A0E3 		mov	r0, #1
 193:../src/tensorflow_lite/tensorflow/lite/micro/kernels/activations.cc **** 
 1220              		.loc 1 193 0
 1221 008c 34D08DE2 		add	sp, sp, #52
 1222              		.cfi_remember_state
 1223              		.cfi_def_cfa_offset 28
 1224              		@ sp needed
 1225 0090 F083BDE8 		pop	{r4, r5, r6, r7, r8, r9, pc}
 1226              	.LVL118:
 1227              	.L104:
 1228              		.cfi_restore_state
 174:../src/tensorflow_lite/tensorflow/lite/micro/kernels/activations.cc ****                             tflite::micro::GetTensorShape(output),
 1229              		.loc 1 174 0
 1230 0094 0710A0E1 		mov	r1, r7
 1231 0098 0D00A0E1 		mov	r0, sp
 1232 009c FEFFFFEB 		bl	_ZN6tflite5micro14GetTensorShapeEPK16TfLiteEvalTensor
 1233              	.LVL119:
 1234              	.LEHE9:
 175:../src/tensorflow_lite/tensorflow/lite/micro/kernels/activations.cc ****                             tflite::micro::GetTensorData<int8_t>(input),
 1235              		.loc 1 175 0
 1236 00a0 0510A0E1 		mov	r1, r5
 1237 00a4 18008DE2 		add	r0, sp, #24
 1238              	.LEHB10:
 1239 00a8 FEFFFFEB 		bl	_ZN6tflite5micro14GetTensorShapeEPK16TfLiteEvalTensor
 1240              	.LVL120:
 1241              	.LEHE10:
 1242              	.LBB632:
 1243              	.LBB633:
  51:C:/Renesas/e2studio_2021_01_workspace_RZA2M_ANPR/ANPR_RZA2M_EBK/src/tensorflow_lite/tensorflow/lite/micro/kernels\kernel_util.h **** }
  52:C:/Renesas/e2studio_2021_01_workspace_RZA2M_ANPR/ANPR_RZA2M_EBK/src/tensorflow_lite/tensorflow/lite/micro/kernels\kernel_util.h **** 
  53:C:/Renesas/e2studio_2021_01_workspace_RZA2M_ANPR/ANPR_RZA2M_EBK/src/tensorflow_lite/tensorflow/lite/micro/kernels\kernel_util.h **** // Returns data for a TfLiteEvalTensor struct.
  54:C:/Renesas/e2studio_2021_01_workspace_RZA2M_ANPR/ANPR_RZA2M_EBK/src/tensorflow_lite/tensorflow/lite/micro/kernels\kernel_util.h **** template <typename T>
  55:C:/Renesas/e2studio_2021_01_workspace_RZA2M_ANPR/ANPR_RZA2M_EBK/src/tensorflow_lite/tensorflow/lite/micro/kernels\kernel_util.h **** T* GetTensorData(TfLiteEvalTensor* tensor) {
  56:C:/Renesas/e2studio_2021_01_workspace_RZA2M_ANPR/ANPR_RZA2M_EBK/src/tensorflow_lite/tensorflow/lite/micro/kernels\kernel_util.h ****   return tensor != nullptr ? reinterpret_cast<T*>(tensor->data.raw) : nullptr;
  57:C:/Renesas/e2studio_2021_01_workspace_RZA2M_ANPR/ANPR_RZA2M_EBK/src/tensorflow_lite/tensorflow/lite/micro/kernels\kernel_util.h **** }
  58:C:/Renesas/e2studio_2021_01_workspace_RZA2M_ANPR/ANPR_RZA2M_EBK/src/tensorflow_lite/tensorflow/lite/micro/kernels\kernel_util.h **** 
  59:C:/Renesas/e2studio_2021_01_workspace_RZA2M_ANPR/ANPR_RZA2M_EBK/src/tensorflow_lite/tensorflow/lite/micro/kernels\kernel_util.h **** // Returns const data for a TfLiteEvalTensor struct.
  60:C:/Renesas/e2studio_2021_01_workspace_RZA2M_ANPR/ANPR_RZA2M_EBK/src/tensorflow_lite/tensorflow/lite/micro/kernels\kernel_util.h **** template <typename T>
  61:C:/Renesas/e2studio_2021_01_workspace_RZA2M_ANPR/ANPR_RZA2M_EBK/src/tensorflow_lite/tensorflow/lite/micro/kernels\kernel_util.h **** const T* GetTensorData(const TfLiteEvalTensor* tensor) {
  62:C:/Renesas/e2studio_2021_01_workspace_RZA2M_ANPR/ANPR_RZA2M_EBK/src/tensorflow_lite/tensorflow/lite/micro/kernels\kernel_util.h ****   TFLITE_DCHECK(tensor != nullptr);
  63:C:/Renesas/e2studio_2021_01_workspace_RZA2M_ANPR/ANPR_RZA2M_EBK/src/tensorflow_lite/tensorflow/lite/micro/kernels\kernel_util.h ****   return reinterpret_cast<const T*>(tensor->data.raw);
 1244              		.loc 6 63 0
 1245 00ac 00E097E5 		ldr	lr, [r7]
 1246              	.LBE633:
 1247              	.LBE632:
 1248              	.LBB634:
 1249              	.LBB635:
  56:C:/Renesas/e2studio_2021_01_workspace_RZA2M_ANPR/ANPR_RZA2M_EBK/src/tensorflow_lite/tensorflow/lite/micro/kernels\kernel_util.h **** }
 1250              		.loc 6 56 0
 1251 00b0 000055E3 		cmp	r5, #0
 1252 00b4 00209DE5 		ldr	r2, [sp]
 1253 00b8 18709DE5 		ldr	r7, [sp, #24]
 1254 00bc 00509515 		ldrne	r5, [r5]
 1255              	.LVL121:
 1256              	.LBE635:
 1257              	.LBE634:
 1258              	.LBB636:
 1259              	.LBB637:
 1260              	.LBB638:
 1261              	.LBB639:
 259:C:/Renesas/e2studio_2021_01_workspace_RZA2M_ANPR/ANPR_RZA2M_EBK/src/tensorflow_lite/tensorflow/lite/kernels/internal\types.h ****   }
 260:C:/Renesas/e2studio_2021_01_workspace_RZA2M_ANPR/ANPR_RZA2M_EBK/src/tensorflow_lite/tensorflow/lite/kernels/internal\types.h **** 
 261:C:/Renesas/e2studio_2021_01_workspace_RZA2M_ANPR/ANPR_RZA2M_EBK/src/tensorflow_lite/tensorflow/lite/kernels/internal\types.h ****   template <typename T>
 262:C:/Renesas/e2studio_2021_01_workspace_RZA2M_ANPR/ANPR_RZA2M_EBK/src/tensorflow_lite/tensorflow/lite/kernels/internal\types.h ****   inline void BuildFrom(const T& src_iterable) {
 263:C:/Renesas/e2studio_2021_01_workspace_RZA2M_ANPR/ANPR_RZA2M_EBK/src/tensorflow_lite/tensorflow/lite/kernels/internal\types.h ****     const int dimensions_count =
 264:C:/Renesas/e2studio_2021_01_workspace_RZA2M_ANPR/ANPR_RZA2M_EBK/src/tensorflow_lite/tensorflow/lite/kernels/internal\types.h ****         std::distance(src_iterable.begin(), src_iterable.end());
 265:C:/Renesas/e2studio_2021_01_workspace_RZA2M_ANPR/ANPR_RZA2M_EBK/src/tensorflow_lite/tensorflow/lite/kernels/internal\types.h ****     Resize(dimensions_count);
 266:C:/Renesas/e2studio_2021_01_workspace_RZA2M_ANPR/ANPR_RZA2M_EBK/src/tensorflow_lite/tensorflow/lite/kernels/internal\types.h ****     int32_t* data = DimsData();
 267:C:/Renesas/e2studio_2021_01_workspace_RZA2M_ANPR/ANPR_RZA2M_EBK/src/tensorflow_lite/tensorflow/lite/kernels/internal\types.h ****     for (auto it : src_iterable) {
 268:C:/Renesas/e2studio_2021_01_workspace_RZA2M_ANPR/ANPR_RZA2M_EBK/src/tensorflow_lite/tensorflow/lite/kernels/internal\types.h ****       *data = it;
 269:C:/Renesas/e2studio_2021_01_workspace_RZA2M_ANPR/ANPR_RZA2M_EBK/src/tensorflow_lite/tensorflow/lite/kernels/internal\types.h ****       ++data;
 270:C:/Renesas/e2studio_2021_01_workspace_RZA2M_ANPR/ANPR_RZA2M_EBK/src/tensorflow_lite/tensorflow/lite/kernels/internal\types.h ****     }
 271:C:/Renesas/e2studio_2021_01_workspace_RZA2M_ANPR/ANPR_RZA2M_EBK/src/tensorflow_lite/tensorflow/lite/kernels/internal\types.h ****   }
 272:C:/Renesas/e2studio_2021_01_workspace_RZA2M_ANPR/ANPR_RZA2M_EBK/src/tensorflow_lite/tensorflow/lite/kernels/internal\types.h **** 
 273:C:/Renesas/e2studio_2021_01_workspace_RZA2M_ANPR/ANPR_RZA2M_EBK/src/tensorflow_lite/tensorflow/lite/kernels/internal\types.h ****   // This will probably be factored out. Old code made substantial use of 4-D
 274:C:/Renesas/e2studio_2021_01_workspace_RZA2M_ANPR/ANPR_RZA2M_EBK/src/tensorflow_lite/tensorflow/lite/kernels/internal\types.h ****   // shapes, and so this function is used to extend smaller shapes. Note that
 275:C:/Renesas/e2studio_2021_01_workspace_RZA2M_ANPR/ANPR_RZA2M_EBK/src/tensorflow_lite/tensorflow/lite/kernels/internal\types.h ****   // (a) as Dims<4>-dependent code is eliminated, the reliance on this should be
 276:C:/Renesas/e2studio_2021_01_workspace_RZA2M_ANPR/ANPR_RZA2M_EBK/src/tensorflow_lite/tensorflow/lite/kernels/internal\types.h ****   // reduced, and (b) some kernels are stricly 4-D, but then the shapes of their
 277:C:/Renesas/e2studio_2021_01_workspace_RZA2M_ANPR/ANPR_RZA2M_EBK/src/tensorflow_lite/tensorflow/lite/kernels/internal\types.h ****   // inputs should already be 4-D, so this function should not be needed.
 278:C:/Renesas/e2studio_2021_01_workspace_RZA2M_ANPR/ANPR_RZA2M_EBK/src/tensorflow_lite/tensorflow/lite/kernels/internal\types.h ****   inline static RuntimeShape ExtendedShape(int new_shape_size,
 279:C:/Renesas/e2studio_2021_01_workspace_RZA2M_ANPR/ANPR_RZA2M_EBK/src/tensorflow_lite/tensorflow/lite/kernels/internal\types.h ****                                            const RuntimeShape& shape) {
 280:C:/Renesas/e2studio_2021_01_workspace_RZA2M_ANPR/ANPR_RZA2M_EBK/src/tensorflow_lite/tensorflow/lite/kernels/internal\types.h ****     return RuntimeShape(new_shape_size, shape, 1);
 281:C:/Renesas/e2studio_2021_01_workspace_RZA2M_ANPR/ANPR_RZA2M_EBK/src/tensorflow_lite/tensorflow/lite/kernels/internal\types.h ****   }
 282:C:/Renesas/e2studio_2021_01_workspace_RZA2M_ANPR/ANPR_RZA2M_EBK/src/tensorflow_lite/tensorflow/lite/kernels/internal\types.h **** 
 283:C:/Renesas/e2studio_2021_01_workspace_RZA2M_ANPR/ANPR_RZA2M_EBK/src/tensorflow_lite/tensorflow/lite/kernels/internal\types.h ****   inline void BuildFrom(const std::initializer_list<int> init_list) {
 284:C:/Renesas/e2studio_2021_01_workspace_RZA2M_ANPR/ANPR_RZA2M_EBK/src/tensorflow_lite/tensorflow/lite/kernels/internal\types.h ****     BuildFrom<const std::initializer_list<int>>(init_list);
 285:C:/Renesas/e2studio_2021_01_workspace_RZA2M_ANPR/ANPR_RZA2M_EBK/src/tensorflow_lite/tensorflow/lite/kernels/internal\types.h ****   }
 286:C:/Renesas/e2studio_2021_01_workspace_RZA2M_ANPR/ANPR_RZA2M_EBK/src/tensorflow_lite/tensorflow/lite/kernels/internal\types.h **** 
 287:C:/Renesas/e2studio_2021_01_workspace_RZA2M_ANPR/ANPR_RZA2M_EBK/src/tensorflow_lite/tensorflow/lite/kernels/internal\types.h ****   // Returns the total count of elements, that is the size when flattened into a
 288:C:/Renesas/e2studio_2021_01_workspace_RZA2M_ANPR/ANPR_RZA2M_EBK/src/tensorflow_lite/tensorflow/lite/kernels/internal\types.h ****   // vector.
 289:C:/Renesas/e2studio_2021_01_workspace_RZA2M_ANPR/ANPR_RZA2M_EBK/src/tensorflow_lite/tensorflow/lite/kernels/internal\types.h ****   inline int FlatSize() const {
 290:C:/Renesas/e2studio_2021_01_workspace_RZA2M_ANPR/ANPR_RZA2M_EBK/src/tensorflow_lite/tensorflow/lite/kernels/internal\types.h ****     int buffer_size = 1;
 291:C:/Renesas/e2studio_2021_01_workspace_RZA2M_ANPR/ANPR_RZA2M_EBK/src/tensorflow_lite/tensorflow/lite/kernels/internal\types.h ****     const int* dims_data = reinterpret_cast<const int*>(DimsData());
 292:C:/Renesas/e2studio_2021_01_workspace_RZA2M_ANPR/ANPR_RZA2M_EBK/src/tensorflow_lite/tensorflow/lite/kernels/internal\types.h ****     for (int i = 0; i < size_; i++) {
 293:C:/Renesas/e2studio_2021_01_workspace_RZA2M_ANPR/ANPR_RZA2M_EBK/src/tensorflow_lite/tensorflow/lite/kernels/internal\types.h ****       buffer_size *= dims_data[i];
 294:C:/Renesas/e2studio_2021_01_workspace_RZA2M_ANPR/ANPR_RZA2M_EBK/src/tensorflow_lite/tensorflow/lite/kernels/internal\types.h ****     }
 295:C:/Renesas/e2studio_2021_01_workspace_RZA2M_ANPR/ANPR_RZA2M_EBK/src/tensorflow_lite/tensorflow/lite/kernels/internal\types.h ****     return buffer_size;
 296:C:/Renesas/e2studio_2021_01_workspace_RZA2M_ANPR/ANPR_RZA2M_EBK/src/tensorflow_lite/tensorflow/lite/kernels/internal\types.h ****   }
 297:C:/Renesas/e2studio_2021_01_workspace_RZA2M_ANPR/ANPR_RZA2M_EBK/src/tensorflow_lite/tensorflow/lite/kernels/internal\types.h **** 
 298:C:/Renesas/e2studio_2021_01_workspace_RZA2M_ANPR/ANPR_RZA2M_EBK/src/tensorflow_lite/tensorflow/lite/kernels/internal\types.h ****   bool operator!=(const RuntimeShape& comp) const { return !((*this) == comp); }
 299:C:/Renesas/e2studio_2021_01_workspace_RZA2M_ANPR/ANPR_RZA2M_EBK/src/tensorflow_lite/tensorflow/lite/kernels/internal\types.h **** 
 300:C:/Renesas/e2studio_2021_01_workspace_RZA2M_ANPR/ANPR_RZA2M_EBK/src/tensorflow_lite/tensorflow/lite/kernels/internal\types.h ****  private:
 301:C:/Renesas/e2studio_2021_01_workspace_RZA2M_ANPR/ANPR_RZA2M_EBK/src/tensorflow_lite/tensorflow/lite/kernels/internal\types.h ****   // For use only by ExtendedShape(), written to guarantee (return-value) copy
 302:C:/Renesas/e2studio_2021_01_workspace_RZA2M_ANPR/ANPR_RZA2M_EBK/src/tensorflow_lite/tensorflow/lite/kernels/internal\types.h ****   // elision in C++17.
 303:C:/Renesas/e2studio_2021_01_workspace_RZA2M_ANPR/ANPR_RZA2M_EBK/src/tensorflow_lite/tensorflow/lite/kernels/internal\types.h ****   // This creates a shape padded to the desired size with the specified value.
 304:C:/Renesas/e2studio_2021_01_workspace_RZA2M_ANPR/ANPR_RZA2M_EBK/src/tensorflow_lite/tensorflow/lite/kernels/internal\types.h ****   RuntimeShape(int new_shape_size, const RuntimeShape& shape, int pad_value)
 305:C:/Renesas/e2studio_2021_01_workspace_RZA2M_ANPR/ANPR_RZA2M_EBK/src/tensorflow_lite/tensorflow/lite/kernels/internal\types.h ****       : size_(0) {
 306:C:/Renesas/e2studio_2021_01_workspace_RZA2M_ANPR/ANPR_RZA2M_EBK/src/tensorflow_lite/tensorflow/lite/kernels/internal\types.h ****     // If the following check fails, it is likely because a 4D-only kernel is
 307:C:/Renesas/e2studio_2021_01_workspace_RZA2M_ANPR/ANPR_RZA2M_EBK/src/tensorflow_lite/tensorflow/lite/kernels/internal\types.h ****     // being used with an array of larger dimension count.
 308:C:/Renesas/e2studio_2021_01_workspace_RZA2M_ANPR/ANPR_RZA2M_EBK/src/tensorflow_lite/tensorflow/lite/kernels/internal\types.h ****     TFLITE_CHECK_GE(new_shape_size, shape.DimensionsCount());
 309:C:/Renesas/e2studio_2021_01_workspace_RZA2M_ANPR/ANPR_RZA2M_EBK/src/tensorflow_lite/tensorflow/lite/kernels/internal\types.h ****     Resize(new_shape_size);
 310:C:/Renesas/e2studio_2021_01_workspace_RZA2M_ANPR/ANPR_RZA2M_EBK/src/tensorflow_lite/tensorflow/lite/kernels/internal\types.h ****     const int size_increase = new_shape_size - shape.DimensionsCount();
 311:C:/Renesas/e2studio_2021_01_workspace_RZA2M_ANPR/ANPR_RZA2M_EBK/src/tensorflow_lite/tensorflow/lite/kernels/internal\types.h ****     for (int i = 0; i < size_increase; ++i) {
 312:C:/Renesas/e2studio_2021_01_workspace_RZA2M_ANPR/ANPR_RZA2M_EBK/src/tensorflow_lite/tensorflow/lite/kernels/internal\types.h ****       SetDim(i, pad_value);
 313:C:/Renesas/e2studio_2021_01_workspace_RZA2M_ANPR/ANPR_RZA2M_EBK/src/tensorflow_lite/tensorflow/lite/kernels/internal\types.h ****     }
 314:C:/Renesas/e2studio_2021_01_workspace_RZA2M_ANPR/ANPR_RZA2M_EBK/src/tensorflow_lite/tensorflow/lite/kernels/internal\types.h ****     std::memcpy(DimsData() + size_increase, shape.DimsData(),
 315:C:/Renesas/e2studio_2021_01_workspace_RZA2M_ANPR/ANPR_RZA2M_EBK/src/tensorflow_lite/tensorflow/lite/kernels/internal\types.h ****                 sizeof(int32_t) * shape.DimensionsCount());
 316:C:/Renesas/e2studio_2021_01_workspace_RZA2M_ANPR/ANPR_RZA2M_EBK/src/tensorflow_lite/tensorflow/lite/kernels/internal\types.h ****   }
 317:C:/Renesas/e2studio_2021_01_workspace_RZA2M_ANPR/ANPR_RZA2M_EBK/src/tensorflow_lite/tensorflow/lite/kernels/internal\types.h **** 
 318:C:/Renesas/e2studio_2021_01_workspace_RZA2M_ANPR/ANPR_RZA2M_EBK/src/tensorflow_lite/tensorflow/lite/kernels/internal\types.h ****   int32_t size_;
 319:C:/Renesas/e2studio_2021_01_workspace_RZA2M_ANPR/ANPR_RZA2M_EBK/src/tensorflow_lite/tensorflow/lite/kernels/internal\types.h ****   union {
 320:C:/Renesas/e2studio_2021_01_workspace_RZA2M_ANPR/ANPR_RZA2M_EBK/src/tensorflow_lite/tensorflow/lite/kernels/internal\types.h ****     int32_t dims_[kMaxSmallSize];
 321:C:/Renesas/e2studio_2021_01_workspace_RZA2M_ANPR/ANPR_RZA2M_EBK/src/tensorflow_lite/tensorflow/lite/kernels/internal\types.h ****     int32_t* dims_pointer_;
 322:C:/Renesas/e2studio_2021_01_workspace_RZA2M_ANPR/ANPR_RZA2M_EBK/src/tensorflow_lite/tensorflow/lite/kernels/internal\types.h ****   };
 323:C:/Renesas/e2studio_2021_01_workspace_RZA2M_ANPR/ANPR_RZA2M_EBK/src/tensorflow_lite/tensorflow/lite/kernels/internal\types.h **** };
 324:C:/Renesas/e2studio_2021_01_workspace_RZA2M_ANPR/ANPR_RZA2M_EBK/src/tensorflow_lite/tensorflow/lite/kernels/internal\types.h **** 
 325:C:/Renesas/e2studio_2021_01_workspace_RZA2M_ANPR/ANPR_RZA2M_EBK/src/tensorflow_lite/tensorflow/lite/kernels/internal\types.h **** // Converts inference-style shape to legacy tflite::Dims<4>.
 326:C:/Renesas/e2studio_2021_01_workspace_RZA2M_ANPR/ANPR_RZA2M_EBK/src/tensorflow_lite/tensorflow/lite/kernels/internal\types.h **** inline tflite::Dims<4> ToRuntimeDims(const tflite::RuntimeShape& array_shape) {
 327:C:/Renesas/e2studio_2021_01_workspace_RZA2M_ANPR/ANPR_RZA2M_EBK/src/tensorflow_lite/tensorflow/lite/kernels/internal\types.h ****   tflite::Dims<4> result;
 328:C:/Renesas/e2studio_2021_01_workspace_RZA2M_ANPR/ANPR_RZA2M_EBK/src/tensorflow_lite/tensorflow/lite/kernels/internal\types.h ****   const int dimensions_count = array_shape.DimensionsCount();
 329:C:/Renesas/e2studio_2021_01_workspace_RZA2M_ANPR/ANPR_RZA2M_EBK/src/tensorflow_lite/tensorflow/lite/kernels/internal\types.h ****   TFLITE_CHECK_LE(dimensions_count, 4);
 330:C:/Renesas/e2studio_2021_01_workspace_RZA2M_ANPR/ANPR_RZA2M_EBK/src/tensorflow_lite/tensorflow/lite/kernels/internal\types.h ****   int cum_prod = 1;
 331:C:/Renesas/e2studio_2021_01_workspace_RZA2M_ANPR/ANPR_RZA2M_EBK/src/tensorflow_lite/tensorflow/lite/kernels/internal\types.h ****   for (int i = 0; i < 4; i++) {
 332:C:/Renesas/e2studio_2021_01_workspace_RZA2M_ANPR/ANPR_RZA2M_EBK/src/tensorflow_lite/tensorflow/lite/kernels/internal\types.h ****     const int new_dim =
 333:C:/Renesas/e2studio_2021_01_workspace_RZA2M_ANPR/ANPR_RZA2M_EBK/src/tensorflow_lite/tensorflow/lite/kernels/internal\types.h ****         (i < dimensions_count) ? array_shape.Dims(dimensions_count - 1 - i) : 1;
 334:C:/Renesas/e2studio_2021_01_workspace_RZA2M_ANPR/ANPR_RZA2M_EBK/src/tensorflow_lite/tensorflow/lite/kernels/internal\types.h ****     result.sizes[i] = new_dim;
 335:C:/Renesas/e2studio_2021_01_workspace_RZA2M_ANPR/ANPR_RZA2M_EBK/src/tensorflow_lite/tensorflow/lite/kernels/internal\types.h ****     result.strides[i] = cum_prod;
 336:C:/Renesas/e2studio_2021_01_workspace_RZA2M_ANPR/ANPR_RZA2M_EBK/src/tensorflow_lite/tensorflow/lite/kernels/internal\types.h ****     cum_prod *= new_dim;
 337:C:/Renesas/e2studio_2021_01_workspace_RZA2M_ANPR/ANPR_RZA2M_EBK/src/tensorflow_lite/tensorflow/lite/kernels/internal\types.h ****   }
 338:C:/Renesas/e2studio_2021_01_workspace_RZA2M_ANPR/ANPR_RZA2M_EBK/src/tensorflow_lite/tensorflow/lite/kernels/internal\types.h ****   return result;
 339:C:/Renesas/e2studio_2021_01_workspace_RZA2M_ANPR/ANPR_RZA2M_EBK/src/tensorflow_lite/tensorflow/lite/kernels/internal\types.h **** }
 340:C:/Renesas/e2studio_2021_01_workspace_RZA2M_ANPR/ANPR_RZA2M_EBK/src/tensorflow_lite/tensorflow/lite/kernels/internal\types.h **** 
 341:C:/Renesas/e2studio_2021_01_workspace_RZA2M_ANPR/ANPR_RZA2M_EBK/src/tensorflow_lite/tensorflow/lite/kernels/internal\types.h **** // TODO(b/80418076): Move to legacy ops file, update invocations.
 342:C:/Renesas/e2studio_2021_01_workspace_RZA2M_ANPR/ANPR_RZA2M_EBK/src/tensorflow_lite/tensorflow/lite/kernels/internal\types.h **** inline RuntimeShape DimsToShape(const tflite::Dims<4>& dims) {
 343:C:/Renesas/e2studio_2021_01_workspace_RZA2M_ANPR/ANPR_RZA2M_EBK/src/tensorflow_lite/tensorflow/lite/kernels/internal\types.h ****   return RuntimeShape(
 344:C:/Renesas/e2studio_2021_01_workspace_RZA2M_ANPR/ANPR_RZA2M_EBK/src/tensorflow_lite/tensorflow/lite/kernels/internal\types.h ****       {dims.sizes[3], dims.sizes[2], dims.sizes[1], dims.sizes[0]});
 345:C:/Renesas/e2studio_2021_01_workspace_RZA2M_ANPR/ANPR_RZA2M_EBK/src/tensorflow_lite/tensorflow/lite/kernels/internal\types.h **** }
 346:C:/Renesas/e2studio_2021_01_workspace_RZA2M_ANPR/ANPR_RZA2M_EBK/src/tensorflow_lite/tensorflow/lite/kernels/internal\types.h **** 
 347:C:/Renesas/e2studio_2021_01_workspace_RZA2M_ANPR/ANPR_RZA2M_EBK/src/tensorflow_lite/tensorflow/lite/kernels/internal\types.h **** // Gets next index to iterate through a multidimensional array.
 348:C:/Renesas/e2studio_2021_01_workspace_RZA2M_ANPR/ANPR_RZA2M_EBK/src/tensorflow_lite/tensorflow/lite/kernels/internal\types.h **** inline bool NextIndex(const int num_dims, const int* dims, int* current) {
 349:C:/Renesas/e2studio_2021_01_workspace_RZA2M_ANPR/ANPR_RZA2M_EBK/src/tensorflow_lite/tensorflow/lite/kernels/internal\types.h ****   if (num_dims == 0) {
 350:C:/Renesas/e2studio_2021_01_workspace_RZA2M_ANPR/ANPR_RZA2M_EBK/src/tensorflow_lite/tensorflow/lite/kernels/internal\types.h ****     return false;
 351:C:/Renesas/e2studio_2021_01_workspace_RZA2M_ANPR/ANPR_RZA2M_EBK/src/tensorflow_lite/tensorflow/lite/kernels/internal\types.h ****   }
 352:C:/Renesas/e2studio_2021_01_workspace_RZA2M_ANPR/ANPR_RZA2M_EBK/src/tensorflow_lite/tensorflow/lite/kernels/internal\types.h ****   TFLITE_DCHECK(dims != nullptr);
 353:C:/Renesas/e2studio_2021_01_workspace_RZA2M_ANPR/ANPR_RZA2M_EBK/src/tensorflow_lite/tensorflow/lite/kernels/internal\types.h ****   TFLITE_DCHECK(current != nullptr);
 354:C:/Renesas/e2studio_2021_01_workspace_RZA2M_ANPR/ANPR_RZA2M_EBK/src/tensorflow_lite/tensorflow/lite/kernels/internal\types.h ****   int carry = 1;
 355:C:/Renesas/e2studio_2021_01_workspace_RZA2M_ANPR/ANPR_RZA2M_EBK/src/tensorflow_lite/tensorflow/lite/kernels/internal\types.h ****   for (int idx = num_dims - 1; idx >= 0; --idx) {
 356:C:/Renesas/e2studio_2021_01_workspace_RZA2M_ANPR/ANPR_RZA2M_EBK/src/tensorflow_lite/tensorflow/lite/kernels/internal\types.h ****     int current_val = current[idx] + carry;
 357:C:/Renesas/e2studio_2021_01_workspace_RZA2M_ANPR/ANPR_RZA2M_EBK/src/tensorflow_lite/tensorflow/lite/kernels/internal\types.h ****     TFLITE_DCHECK_GE(dims[idx], current_val);
 358:C:/Renesas/e2studio_2021_01_workspace_RZA2M_ANPR/ANPR_RZA2M_EBK/src/tensorflow_lite/tensorflow/lite/kernels/internal\types.h ****     if (dims[idx] == current_val) {
 359:C:/Renesas/e2studio_2021_01_workspace_RZA2M_ANPR/ANPR_RZA2M_EBK/src/tensorflow_lite/tensorflow/lite/kernels/internal\types.h ****       current[idx] = 0;
 360:C:/Renesas/e2studio_2021_01_workspace_RZA2M_ANPR/ANPR_RZA2M_EBK/src/tensorflow_lite/tensorflow/lite/kernels/internal\types.h ****     } else {
 361:C:/Renesas/e2studio_2021_01_workspace_RZA2M_ANPR/ANPR_RZA2M_EBK/src/tensorflow_lite/tensorflow/lite/kernels/internal\types.h ****       current[idx] = current_val;
 362:C:/Renesas/e2studio_2021_01_workspace_RZA2M_ANPR/ANPR_RZA2M_EBK/src/tensorflow_lite/tensorflow/lite/kernels/internal\types.h ****       carry = 0;
 363:C:/Renesas/e2studio_2021_01_workspace_RZA2M_ANPR/ANPR_RZA2M_EBK/src/tensorflow_lite/tensorflow/lite/kernels/internal\types.h ****       break;
 364:C:/Renesas/e2studio_2021_01_workspace_RZA2M_ANPR/ANPR_RZA2M_EBK/src/tensorflow_lite/tensorflow/lite/kernels/internal\types.h ****     }
 365:C:/Renesas/e2studio_2021_01_workspace_RZA2M_ANPR/ANPR_RZA2M_EBK/src/tensorflow_lite/tensorflow/lite/kernels/internal\types.h ****   }
 366:C:/Renesas/e2studio_2021_01_workspace_RZA2M_ANPR/ANPR_RZA2M_EBK/src/tensorflow_lite/tensorflow/lite/kernels/internal\types.h ****   return (carry == 0);
 367:C:/Renesas/e2studio_2021_01_workspace_RZA2M_ANPR/ANPR_RZA2M_EBK/src/tensorflow_lite/tensorflow/lite/kernels/internal\types.h **** }
 368:C:/Renesas/e2studio_2021_01_workspace_RZA2M_ANPR/ANPR_RZA2M_EBK/src/tensorflow_lite/tensorflow/lite/kernels/internal\types.h **** 
 369:C:/Renesas/e2studio_2021_01_workspace_RZA2M_ANPR/ANPR_RZA2M_EBK/src/tensorflow_lite/tensorflow/lite/kernels/internal\types.h **** // Gets offset of index if reducing on axis. When reducing, the flattened offset
 370:C:/Renesas/e2studio_2021_01_workspace_RZA2M_ANPR/ANPR_RZA2M_EBK/src/tensorflow_lite/tensorflow/lite/kernels/internal\types.h **** // will not change, if the input index changes on the given axis. For example,
 371:C:/Renesas/e2studio_2021_01_workspace_RZA2M_ANPR/ANPR_RZA2M_EBK/src/tensorflow_lite/tensorflow/lite/kernels/internal\types.h **** // if you have a 3D tensor and you are reducing to 2D by eliminating axis 0,
 372:C:/Renesas/e2studio_2021_01_workspace_RZA2M_ANPR/ANPR_RZA2M_EBK/src/tensorflow_lite/tensorflow/lite/kernels/internal\types.h **** // then index (0, 1, 2) and index (1, 1, 2) will map to the same flattened
 373:C:/Renesas/e2studio_2021_01_workspace_RZA2M_ANPR/ANPR_RZA2M_EBK/src/tensorflow_lite/tensorflow/lite/kernels/internal\types.h **** // offset.
 374:C:/Renesas/e2studio_2021_01_workspace_RZA2M_ANPR/ANPR_RZA2M_EBK/src/tensorflow_lite/tensorflow/lite/kernels/internal\types.h **** // TODO(kanlig): uses Dims to represent dimensions.
 375:C:/Renesas/e2studio_2021_01_workspace_RZA2M_ANPR/ANPR_RZA2M_EBK/src/tensorflow_lite/tensorflow/lite/kernels/internal\types.h **** inline size_t ReducedOutputOffset(const int num_dims, const int* dims,
 376:C:/Renesas/e2studio_2021_01_workspace_RZA2M_ANPR/ANPR_RZA2M_EBK/src/tensorflow_lite/tensorflow/lite/kernels/internal\types.h ****                                   const int* index, const int num_axis,
 377:C:/Renesas/e2studio_2021_01_workspace_RZA2M_ANPR/ANPR_RZA2M_EBK/src/tensorflow_lite/tensorflow/lite/kernels/internal\types.h ****                                   const int* axis) {
 378:C:/Renesas/e2studio_2021_01_workspace_RZA2M_ANPR/ANPR_RZA2M_EBK/src/tensorflow_lite/tensorflow/lite/kernels/internal\types.h ****   if (num_dims == 0) {
 379:C:/Renesas/e2studio_2021_01_workspace_RZA2M_ANPR/ANPR_RZA2M_EBK/src/tensorflow_lite/tensorflow/lite/kernels/internal\types.h ****     return 0;
 380:C:/Renesas/e2studio_2021_01_workspace_RZA2M_ANPR/ANPR_RZA2M_EBK/src/tensorflow_lite/tensorflow/lite/kernels/internal\types.h ****   }
 381:C:/Renesas/e2studio_2021_01_workspace_RZA2M_ANPR/ANPR_RZA2M_EBK/src/tensorflow_lite/tensorflow/lite/kernels/internal\types.h ****   TFLITE_DCHECK(dims != nullptr);
 382:C:/Renesas/e2studio_2021_01_workspace_RZA2M_ANPR/ANPR_RZA2M_EBK/src/tensorflow_lite/tensorflow/lite/kernels/internal\types.h ****   TFLITE_DCHECK(index != nullptr);
 383:C:/Renesas/e2studio_2021_01_workspace_RZA2M_ANPR/ANPR_RZA2M_EBK/src/tensorflow_lite/tensorflow/lite/kernels/internal\types.h ****   size_t offset = 0;
 384:C:/Renesas/e2studio_2021_01_workspace_RZA2M_ANPR/ANPR_RZA2M_EBK/src/tensorflow_lite/tensorflow/lite/kernels/internal\types.h ****   for (int idx = 0; idx < num_dims; ++idx) {
 385:C:/Renesas/e2studio_2021_01_workspace_RZA2M_ANPR/ANPR_RZA2M_EBK/src/tensorflow_lite/tensorflow/lite/kernels/internal\types.h ****     // if we need to skip this axis
 386:C:/Renesas/e2studio_2021_01_workspace_RZA2M_ANPR/ANPR_RZA2M_EBK/src/tensorflow_lite/tensorflow/lite/kernels/internal\types.h ****     bool is_axis = false;
 387:C:/Renesas/e2studio_2021_01_workspace_RZA2M_ANPR/ANPR_RZA2M_EBK/src/tensorflow_lite/tensorflow/lite/kernels/internal\types.h ****     if (axis != nullptr) {
 388:C:/Renesas/e2studio_2021_01_workspace_RZA2M_ANPR/ANPR_RZA2M_EBK/src/tensorflow_lite/tensorflow/lite/kernels/internal\types.h ****       for (int axis_idx = 0; axis_idx < num_axis; ++axis_idx) {
 389:C:/Renesas/e2studio_2021_01_workspace_RZA2M_ANPR/ANPR_RZA2M_EBK/src/tensorflow_lite/tensorflow/lite/kernels/internal\types.h ****         if (idx == axis[axis_idx]) {
 390:C:/Renesas/e2studio_2021_01_workspace_RZA2M_ANPR/ANPR_RZA2M_EBK/src/tensorflow_lite/tensorflow/lite/kernels/internal\types.h ****           is_axis = true;
 391:C:/Renesas/e2studio_2021_01_workspace_RZA2M_ANPR/ANPR_RZA2M_EBK/src/tensorflow_lite/tensorflow/lite/kernels/internal\types.h ****           break;
 392:C:/Renesas/e2studio_2021_01_workspace_RZA2M_ANPR/ANPR_RZA2M_EBK/src/tensorflow_lite/tensorflow/lite/kernels/internal\types.h ****         }
 393:C:/Renesas/e2studio_2021_01_workspace_RZA2M_ANPR/ANPR_RZA2M_EBK/src/tensorflow_lite/tensorflow/lite/kernels/internal\types.h ****       }
 394:C:/Renesas/e2studio_2021_01_workspace_RZA2M_ANPR/ANPR_RZA2M_EBK/src/tensorflow_lite/tensorflow/lite/kernels/internal\types.h ****     }
 395:C:/Renesas/e2studio_2021_01_workspace_RZA2M_ANPR/ANPR_RZA2M_EBK/src/tensorflow_lite/tensorflow/lite/kernels/internal\types.h ****     if (!is_axis) {
 396:C:/Renesas/e2studio_2021_01_workspace_RZA2M_ANPR/ANPR_RZA2M_EBK/src/tensorflow_lite/tensorflow/lite/kernels/internal\types.h ****       offset = offset * static_cast<size_t>(dims[idx]) +
 397:C:/Renesas/e2studio_2021_01_workspace_RZA2M_ANPR/ANPR_RZA2M_EBK/src/tensorflow_lite/tensorflow/lite/kernels/internal\types.h ****                static_cast<size_t>(index[idx]);
 398:C:/Renesas/e2studio_2021_01_workspace_RZA2M_ANPR/ANPR_RZA2M_EBK/src/tensorflow_lite/tensorflow/lite/kernels/internal\types.h ****     }
 399:C:/Renesas/e2studio_2021_01_workspace_RZA2M_ANPR/ANPR_RZA2M_EBK/src/tensorflow_lite/tensorflow/lite/kernels/internal\types.h ****   }
 400:C:/Renesas/e2studio_2021_01_workspace_RZA2M_ANPR/ANPR_RZA2M_EBK/src/tensorflow_lite/tensorflow/lite/kernels/internal\types.h ****   return offset;
 401:C:/Renesas/e2studio_2021_01_workspace_RZA2M_ANPR/ANPR_RZA2M_EBK/src/tensorflow_lite/tensorflow/lite/kernels/internal\types.h **** }
 402:C:/Renesas/e2studio_2021_01_workspace_RZA2M_ANPR/ANPR_RZA2M_EBK/src/tensorflow_lite/tensorflow/lite/kernels/internal\types.h **** 
 403:C:/Renesas/e2studio_2021_01_workspace_RZA2M_ANPR/ANPR_RZA2M_EBK/src/tensorflow_lite/tensorflow/lite/kernels/internal\types.h **** inline int Offset(const RuntimeShape& shape, int i0, int i1, int i2, int i3) {
 404:C:/Renesas/e2studio_2021_01_workspace_RZA2M_ANPR/ANPR_RZA2M_EBK/src/tensorflow_lite/tensorflow/lite/kernels/internal\types.h ****   TFLITE_DCHECK_EQ(shape.DimensionsCount(), 4);
 405:C:/Renesas/e2studio_2021_01_workspace_RZA2M_ANPR/ANPR_RZA2M_EBK/src/tensorflow_lite/tensorflow/lite/kernels/internal\types.h ****   const int* dims_data = reinterpret_cast<const int*>(shape.DimsDataUpTo5D());
 406:C:/Renesas/e2studio_2021_01_workspace_RZA2M_ANPR/ANPR_RZA2M_EBK/src/tensorflow_lite/tensorflow/lite/kernels/internal\types.h ****   TFLITE_DCHECK(i0 >= 0 && i0 < dims_data[0]);
 407:C:/Renesas/e2studio_2021_01_workspace_RZA2M_ANPR/ANPR_RZA2M_EBK/src/tensorflow_lite/tensorflow/lite/kernels/internal\types.h ****   TFLITE_DCHECK(i1 >= 0 && i1 < dims_data[1]);
 408:C:/Renesas/e2studio_2021_01_workspace_RZA2M_ANPR/ANPR_RZA2M_EBK/src/tensorflow_lite/tensorflow/lite/kernels/internal\types.h ****   TFLITE_DCHECK(i2 >= 0 && i2 < dims_data[2]);
 409:C:/Renesas/e2studio_2021_01_workspace_RZA2M_ANPR/ANPR_RZA2M_EBK/src/tensorflow_lite/tensorflow/lite/kernels/internal\types.h ****   TFLITE_DCHECK(i3 >= 0 && i3 < dims_data[3]);
 410:C:/Renesas/e2studio_2021_01_workspace_RZA2M_ANPR/ANPR_RZA2M_EBK/src/tensorflow_lite/tensorflow/lite/kernels/internal\types.h ****   return ((i0 * dims_data[1] + i1) * dims_data[2] + i2) * dims_data[3] + i3;
 411:C:/Renesas/e2studio_2021_01_workspace_RZA2M_ANPR/ANPR_RZA2M_EBK/src/tensorflow_lite/tensorflow/lite/kernels/internal\types.h **** }
 412:C:/Renesas/e2studio_2021_01_workspace_RZA2M_ANPR/ANPR_RZA2M_EBK/src/tensorflow_lite/tensorflow/lite/kernels/internal\types.h **** 
 413:C:/Renesas/e2studio_2021_01_workspace_RZA2M_ANPR/ANPR_RZA2M_EBK/src/tensorflow_lite/tensorflow/lite/kernels/internal\types.h **** inline int Offset(const RuntimeShape& shape, int i0, int i1, int i2, int i3,
 414:C:/Renesas/e2studio_2021_01_workspace_RZA2M_ANPR/ANPR_RZA2M_EBK/src/tensorflow_lite/tensorflow/lite/kernels/internal\types.h ****                   int i4) {
 415:C:/Renesas/e2studio_2021_01_workspace_RZA2M_ANPR/ANPR_RZA2M_EBK/src/tensorflow_lite/tensorflow/lite/kernels/internal\types.h ****   TFLITE_DCHECK_EQ(shape.DimensionsCount(), 5);
 416:C:/Renesas/e2studio_2021_01_workspace_RZA2M_ANPR/ANPR_RZA2M_EBK/src/tensorflow_lite/tensorflow/lite/kernels/internal\types.h ****   const int* dims_data = reinterpret_cast<const int*>(shape.DimsDataUpTo5D());
 417:C:/Renesas/e2studio_2021_01_workspace_RZA2M_ANPR/ANPR_RZA2M_EBK/src/tensorflow_lite/tensorflow/lite/kernels/internal\types.h ****   TFLITE_DCHECK(i0 >= 0 && i0 < dims_data[0]);
 418:C:/Renesas/e2studio_2021_01_workspace_RZA2M_ANPR/ANPR_RZA2M_EBK/src/tensorflow_lite/tensorflow/lite/kernels/internal\types.h ****   TFLITE_DCHECK(i1 >= 0 && i1 < dims_data[1]);
 419:C:/Renesas/e2studio_2021_01_workspace_RZA2M_ANPR/ANPR_RZA2M_EBK/src/tensorflow_lite/tensorflow/lite/kernels/internal\types.h ****   TFLITE_DCHECK(i2 >= 0 && i2 < dims_data[2]);
 420:C:/Renesas/e2studio_2021_01_workspace_RZA2M_ANPR/ANPR_RZA2M_EBK/src/tensorflow_lite/tensorflow/lite/kernels/internal\types.h ****   TFLITE_DCHECK(i3 >= 0 && i3 < dims_data[3]);
 421:C:/Renesas/e2studio_2021_01_workspace_RZA2M_ANPR/ANPR_RZA2M_EBK/src/tensorflow_lite/tensorflow/lite/kernels/internal\types.h ****   TFLITE_DCHECK(i4 >= 0 && i4 < dims_data[4]);
 422:C:/Renesas/e2studio_2021_01_workspace_RZA2M_ANPR/ANPR_RZA2M_EBK/src/tensorflow_lite/tensorflow/lite/kernels/internal\types.h ****   return (((i0 * dims_data[1] + i1) * dims_data[2] + i2) * dims_data[3] + i3) *
 423:C:/Renesas/e2studio_2021_01_workspace_RZA2M_ANPR/ANPR_RZA2M_EBK/src/tensorflow_lite/tensorflow/lite/kernels/internal\types.h ****              dims_data[4] +
 424:C:/Renesas/e2studio_2021_01_workspace_RZA2M_ANPR/ANPR_RZA2M_EBK/src/tensorflow_lite/tensorflow/lite/kernels/internal\types.h ****          i4;
 425:C:/Renesas/e2studio_2021_01_workspace_RZA2M_ANPR/ANPR_RZA2M_EBK/src/tensorflow_lite/tensorflow/lite/kernels/internal\types.h **** }
 426:C:/Renesas/e2studio_2021_01_workspace_RZA2M_ANPR/ANPR_RZA2M_EBK/src/tensorflow_lite/tensorflow/lite/kernels/internal\types.h **** 
 427:C:/Renesas/e2studio_2021_01_workspace_RZA2M_ANPR/ANPR_RZA2M_EBK/src/tensorflow_lite/tensorflow/lite/kernels/internal\types.h **** inline int Offset(const Dims<4>& dims, int i0, int i1, int i2, int i3) {
 428:C:/Renesas/e2studio_2021_01_workspace_RZA2M_ANPR/ANPR_RZA2M_EBK/src/tensorflow_lite/tensorflow/lite/kernels/internal\types.h ****   TFLITE_DCHECK(i0 >= 0 && i0 < dims.sizes[0]);
 429:C:/Renesas/e2studio_2021_01_workspace_RZA2M_ANPR/ANPR_RZA2M_EBK/src/tensorflow_lite/tensorflow/lite/kernels/internal\types.h ****   TFLITE_DCHECK(i1 >= 0 && i1 < dims.sizes[1]);
 430:C:/Renesas/e2studio_2021_01_workspace_RZA2M_ANPR/ANPR_RZA2M_EBK/src/tensorflow_lite/tensorflow/lite/kernels/internal\types.h ****   TFLITE_DCHECK(i2 >= 0 && i2 < dims.sizes[2]);
 431:C:/Renesas/e2studio_2021_01_workspace_RZA2M_ANPR/ANPR_RZA2M_EBK/src/tensorflow_lite/tensorflow/lite/kernels/internal\types.h ****   TFLITE_DCHECK(i3 >= 0 && i3 < dims.sizes[3]);
 432:C:/Renesas/e2studio_2021_01_workspace_RZA2M_ANPR/ANPR_RZA2M_EBK/src/tensorflow_lite/tensorflow/lite/kernels/internal\types.h ****   return i0 * dims.strides[0] + i1 * dims.strides[1] + i2 * dims.strides[2] +
 433:C:/Renesas/e2studio_2021_01_workspace_RZA2M_ANPR/ANPR_RZA2M_EBK/src/tensorflow_lite/tensorflow/lite/kernels/internal\types.h ****          i3 * dims.strides[3];
 434:C:/Renesas/e2studio_2021_01_workspace_RZA2M_ANPR/ANPR_RZA2M_EBK/src/tensorflow_lite/tensorflow/lite/kernels/internal\types.h **** }
 435:C:/Renesas/e2studio_2021_01_workspace_RZA2M_ANPR/ANPR_RZA2M_EBK/src/tensorflow_lite/tensorflow/lite/kernels/internal\types.h **** 
 436:C:/Renesas/e2studio_2021_01_workspace_RZA2M_ANPR/ANPR_RZA2M_EBK/src/tensorflow_lite/tensorflow/lite/kernels/internal\types.h **** inline int Offset(const Dims<4>& dims, int* index) {
 437:C:/Renesas/e2studio_2021_01_workspace_RZA2M_ANPR/ANPR_RZA2M_EBK/src/tensorflow_lite/tensorflow/lite/kernels/internal\types.h ****   return Offset(dims, index[0], index[1], index[2], index[3]);
 438:C:/Renesas/e2studio_2021_01_workspace_RZA2M_ANPR/ANPR_RZA2M_EBK/src/tensorflow_lite/tensorflow/lite/kernels/internal\types.h **** }
 439:C:/Renesas/e2studio_2021_01_workspace_RZA2M_ANPR/ANPR_RZA2M_EBK/src/tensorflow_lite/tensorflow/lite/kernels/internal\types.h **** 
 440:C:/Renesas/e2studio_2021_01_workspace_RZA2M_ANPR/ANPR_RZA2M_EBK/src/tensorflow_lite/tensorflow/lite/kernels/internal\types.h **** inline int Offset(const RuntimeShape& shape, int* index) {
 441:C:/Renesas/e2studio_2021_01_workspace_RZA2M_ANPR/ANPR_RZA2M_EBK/src/tensorflow_lite/tensorflow/lite/kernels/internal\types.h ****   return Offset(shape, index[0], index[1], index[2], index[3]);
 442:C:/Renesas/e2studio_2021_01_workspace_RZA2M_ANPR/ANPR_RZA2M_EBK/src/tensorflow_lite/tensorflow/lite/kernels/internal\types.h **** }
 443:C:/Renesas/e2studio_2021_01_workspace_RZA2M_ANPR/ANPR_RZA2M_EBK/src/tensorflow_lite/tensorflow/lite/kernels/internal\types.h **** 
 444:C:/Renesas/e2studio_2021_01_workspace_RZA2M_ANPR/ANPR_RZA2M_EBK/src/tensorflow_lite/tensorflow/lite/kernels/internal\types.h **** // Get array size, DCHECKing that the dim index is in range.
 445:C:/Renesas/e2studio_2021_01_workspace_RZA2M_ANPR/ANPR_RZA2M_EBK/src/tensorflow_lite/tensorflow/lite/kernels/internal\types.h **** //
 446:C:/Renesas/e2studio_2021_01_workspace_RZA2M_ANPR/ANPR_RZA2M_EBK/src/tensorflow_lite/tensorflow/lite/kernels/internal\types.h **** // Note that this will be phased out with Dims<4>, since RuntimeShape::Dims()
 447:C:/Renesas/e2studio_2021_01_workspace_RZA2M_ANPR/ANPR_RZA2M_EBK/src/tensorflow_lite/tensorflow/lite/kernels/internal\types.h **** // already performs this check.
 448:C:/Renesas/e2studio_2021_01_workspace_RZA2M_ANPR/ANPR_RZA2M_EBK/src/tensorflow_lite/tensorflow/lite/kernels/internal\types.h **** template <int N>
 449:C:/Renesas/e2studio_2021_01_workspace_RZA2M_ANPR/ANPR_RZA2M_EBK/src/tensorflow_lite/tensorflow/lite/kernels/internal\types.h **** int ArraySize(const Dims<N>& array, int index) {
 450:C:/Renesas/e2studio_2021_01_workspace_RZA2M_ANPR/ANPR_RZA2M_EBK/src/tensorflow_lite/tensorflow/lite/kernels/internal\types.h ****   TFLITE_DCHECK(index >= 0 && index < N);
 451:C:/Renesas/e2studio_2021_01_workspace_RZA2M_ANPR/ANPR_RZA2M_EBK/src/tensorflow_lite/tensorflow/lite/kernels/internal\types.h ****   return array.sizes[index];
 452:C:/Renesas/e2studio_2021_01_workspace_RZA2M_ANPR/ANPR_RZA2M_EBK/src/tensorflow_lite/tensorflow/lite/kernels/internal\types.h **** }
 453:C:/Renesas/e2studio_2021_01_workspace_RZA2M_ANPR/ANPR_RZA2M_EBK/src/tensorflow_lite/tensorflow/lite/kernels/internal\types.h **** 
 454:C:/Renesas/e2studio_2021_01_workspace_RZA2M_ANPR/ANPR_RZA2M_EBK/src/tensorflow_lite/tensorflow/lite/kernels/internal\types.h **** // Get common array size, DCHECKing that they all agree.
 455:C:/Renesas/e2studio_2021_01_workspace_RZA2M_ANPR/ANPR_RZA2M_EBK/src/tensorflow_lite/tensorflow/lite/kernels/internal\types.h **** template <typename ArrayType1, typename ArrayType2>
 456:C:/Renesas/e2studio_2021_01_workspace_RZA2M_ANPR/ANPR_RZA2M_EBK/src/tensorflow_lite/tensorflow/lite/kernels/internal\types.h **** int MatchingArraySize(const ArrayType1& array1, int index1,
 457:C:/Renesas/e2studio_2021_01_workspace_RZA2M_ANPR/ANPR_RZA2M_EBK/src/tensorflow_lite/tensorflow/lite/kernels/internal\types.h ****                       const ArrayType2& array2, int index2) {
 458:C:/Renesas/e2studio_2021_01_workspace_RZA2M_ANPR/ANPR_RZA2M_EBK/src/tensorflow_lite/tensorflow/lite/kernels/internal\types.h ****   TFLITE_DCHECK_EQ(ArraySize(array1, index1), ArraySize(array2, index2));
 459:C:/Renesas/e2studio_2021_01_workspace_RZA2M_ANPR/ANPR_RZA2M_EBK/src/tensorflow_lite/tensorflow/lite/kernels/internal\types.h ****   return ArraySize(array1, index1);
 460:C:/Renesas/e2studio_2021_01_workspace_RZA2M_ANPR/ANPR_RZA2M_EBK/src/tensorflow_lite/tensorflow/lite/kernels/internal\types.h **** }
 461:C:/Renesas/e2studio_2021_01_workspace_RZA2M_ANPR/ANPR_RZA2M_EBK/src/tensorflow_lite/tensorflow/lite/kernels/internal\types.h **** 
 462:C:/Renesas/e2studio_2021_01_workspace_RZA2M_ANPR/ANPR_RZA2M_EBK/src/tensorflow_lite/tensorflow/lite/kernels/internal\types.h **** template <typename ArrayType1, typename ArrayType2, typename... Args>
 463:C:/Renesas/e2studio_2021_01_workspace_RZA2M_ANPR/ANPR_RZA2M_EBK/src/tensorflow_lite/tensorflow/lite/kernels/internal\types.h **** int MatchingArraySize(const ArrayType1& array1, int index1,
 464:C:/Renesas/e2studio_2021_01_workspace_RZA2M_ANPR/ANPR_RZA2M_EBK/src/tensorflow_lite/tensorflow/lite/kernels/internal\types.h ****                       const ArrayType2& array2, int index2, Args... args) {
 465:C:/Renesas/e2studio_2021_01_workspace_RZA2M_ANPR/ANPR_RZA2M_EBK/src/tensorflow_lite/tensorflow/lite/kernels/internal\types.h ****   TFLITE_DCHECK_EQ(ArraySize(array1, index1), ArraySize(array2, index2));
 466:C:/Renesas/e2studio_2021_01_workspace_RZA2M_ANPR/ANPR_RZA2M_EBK/src/tensorflow_lite/tensorflow/lite/kernels/internal\types.h ****   return MatchingArraySize(array1, index1, args...);
 467:C:/Renesas/e2studio_2021_01_workspace_RZA2M_ANPR/ANPR_RZA2M_EBK/src/tensorflow_lite/tensorflow/lite/kernels/internal\types.h **** }
 468:C:/Renesas/e2studio_2021_01_workspace_RZA2M_ANPR/ANPR_RZA2M_EBK/src/tensorflow_lite/tensorflow/lite/kernels/internal\types.h **** 
 469:C:/Renesas/e2studio_2021_01_workspace_RZA2M_ANPR/ANPR_RZA2M_EBK/src/tensorflow_lite/tensorflow/lite/kernels/internal\types.h **** // Get common shape dim, DCHECKing that they all agree.
 470:C:/Renesas/e2studio_2021_01_workspace_RZA2M_ANPR/ANPR_RZA2M_EBK/src/tensorflow_lite/tensorflow/lite/kernels/internal\types.h **** inline int MatchingDim(const RuntimeShape& shape1, int index1,
 471:C:/Renesas/e2studio_2021_01_workspace_RZA2M_ANPR/ANPR_RZA2M_EBK/src/tensorflow_lite/tensorflow/lite/kernels/internal\types.h ****                        const RuntimeShape& shape2, int index2) {
 472:C:/Renesas/e2studio_2021_01_workspace_RZA2M_ANPR/ANPR_RZA2M_EBK/src/tensorflow_lite/tensorflow/lite/kernels/internal\types.h ****   TFLITE_DCHECK_EQ(shape1.Dims(index1), shape2.Dims(index2));
 473:C:/Renesas/e2studio_2021_01_workspace_RZA2M_ANPR/ANPR_RZA2M_EBK/src/tensorflow_lite/tensorflow/lite/kernels/internal\types.h ****   return std::min(shape1.Dims(index1), shape2.Dims(index2));
 474:C:/Renesas/e2studio_2021_01_workspace_RZA2M_ANPR/ANPR_RZA2M_EBK/src/tensorflow_lite/tensorflow/lite/kernels/internal\types.h **** }
 475:C:/Renesas/e2studio_2021_01_workspace_RZA2M_ANPR/ANPR_RZA2M_EBK/src/tensorflow_lite/tensorflow/lite/kernels/internal\types.h **** 
 476:C:/Renesas/e2studio_2021_01_workspace_RZA2M_ANPR/ANPR_RZA2M_EBK/src/tensorflow_lite/tensorflow/lite/kernels/internal\types.h **** template <typename... Args>
 477:C:/Renesas/e2studio_2021_01_workspace_RZA2M_ANPR/ANPR_RZA2M_EBK/src/tensorflow_lite/tensorflow/lite/kernels/internal\types.h **** int MatchingDim(const RuntimeShape& shape1, int index1,
 478:C:/Renesas/e2studio_2021_01_workspace_RZA2M_ANPR/ANPR_RZA2M_EBK/src/tensorflow_lite/tensorflow/lite/kernels/internal\types.h ****                 const RuntimeShape& shape2, int index2, Args... args) {
 479:C:/Renesas/e2studio_2021_01_workspace_RZA2M_ANPR/ANPR_RZA2M_EBK/src/tensorflow_lite/tensorflow/lite/kernels/internal\types.h ****   TFLITE_DCHECK_EQ(shape1.Dims(index1), shape2.Dims(index2));
 480:C:/Renesas/e2studio_2021_01_workspace_RZA2M_ANPR/ANPR_RZA2M_EBK/src/tensorflow_lite/tensorflow/lite/kernels/internal\types.h ****   return MatchingDim(shape1, index1, args...);
 481:C:/Renesas/e2studio_2021_01_workspace_RZA2M_ANPR/ANPR_RZA2M_EBK/src/tensorflow_lite/tensorflow/lite/kernels/internal\types.h **** }
 482:C:/Renesas/e2studio_2021_01_workspace_RZA2M_ANPR/ANPR_RZA2M_EBK/src/tensorflow_lite/tensorflow/lite/kernels/internal\types.h **** 
 483:C:/Renesas/e2studio_2021_01_workspace_RZA2M_ANPR/ANPR_RZA2M_EBK/src/tensorflow_lite/tensorflow/lite/kernels/internal\types.h **** // Will be phased out with Dims<4>, replaced by RuntimeShape::FlatSize().
 484:C:/Renesas/e2studio_2021_01_workspace_RZA2M_ANPR/ANPR_RZA2M_EBK/src/tensorflow_lite/tensorflow/lite/kernels/internal\types.h **** template <int N>
 485:C:/Renesas/e2studio_2021_01_workspace_RZA2M_ANPR/ANPR_RZA2M_EBK/src/tensorflow_lite/tensorflow/lite/kernels/internal\types.h **** inline int FlatSize(const Dims<N>& dims) {
 486:C:/Renesas/e2studio_2021_01_workspace_RZA2M_ANPR/ANPR_RZA2M_EBK/src/tensorflow_lite/tensorflow/lite/kernels/internal\types.h ****   int flat_size = 1;
 487:C:/Renesas/e2studio_2021_01_workspace_RZA2M_ANPR/ANPR_RZA2M_EBK/src/tensorflow_lite/tensorflow/lite/kernels/internal\types.h ****   for (int i = 0; i < N; ++i) {
 488:C:/Renesas/e2studio_2021_01_workspace_RZA2M_ANPR/ANPR_RZA2M_EBK/src/tensorflow_lite/tensorflow/lite/kernels/internal\types.h ****     flat_size *= dims.sizes[i];
 489:C:/Renesas/e2studio_2021_01_workspace_RZA2M_ANPR/ANPR_RZA2M_EBK/src/tensorflow_lite/tensorflow/lite/kernels/internal\types.h ****   }
 490:C:/Renesas/e2studio_2021_01_workspace_RZA2M_ANPR/ANPR_RZA2M_EBK/src/tensorflow_lite/tensorflow/lite/kernels/internal\types.h ****   return flat_size;
 491:C:/Renesas/e2studio_2021_01_workspace_RZA2M_ANPR/ANPR_RZA2M_EBK/src/tensorflow_lite/tensorflow/lite/kernels/internal\types.h **** }
 492:C:/Renesas/e2studio_2021_01_workspace_RZA2M_ANPR/ANPR_RZA2M_EBK/src/tensorflow_lite/tensorflow/lite/kernels/internal\types.h **** 
 493:C:/Renesas/e2studio_2021_01_workspace_RZA2M_ANPR/ANPR_RZA2M_EBK/src/tensorflow_lite/tensorflow/lite/kernels/internal\types.h **** TFLITE_DEPRECATED("Prefer FlatSize.")
 494:C:/Renesas/e2studio_2021_01_workspace_RZA2M_ANPR/ANPR_RZA2M_EBK/src/tensorflow_lite/tensorflow/lite/kernels/internal\types.h **** inline int RequiredBufferSizeForDims(const Dims<4>& dims) {
 495:C:/Renesas/e2studio_2021_01_workspace_RZA2M_ANPR/ANPR_RZA2M_EBK/src/tensorflow_lite/tensorflow/lite/kernels/internal\types.h ****   return FlatSize(dims);
 496:C:/Renesas/e2studio_2021_01_workspace_RZA2M_ANPR/ANPR_RZA2M_EBK/src/tensorflow_lite/tensorflow/lite/kernels/internal\types.h **** }
 497:C:/Renesas/e2studio_2021_01_workspace_RZA2M_ANPR/ANPR_RZA2M_EBK/src/tensorflow_lite/tensorflow/lite/kernels/internal\types.h **** 
 498:C:/Renesas/e2studio_2021_01_workspace_RZA2M_ANPR/ANPR_RZA2M_EBK/src/tensorflow_lite/tensorflow/lite/kernels/internal\types.h **** inline int MatchingElementsSize(const RuntimeShape& shape,
 499:C:/Renesas/e2studio_2021_01_workspace_RZA2M_ANPR/ANPR_RZA2M_EBK/src/tensorflow_lite/tensorflow/lite/kernels/internal\types.h ****                                 const RuntimeShape& check_shape_0) {
 500:C:/Renesas/e2studio_2021_01_workspace_RZA2M_ANPR/ANPR_RZA2M_EBK/src/tensorflow_lite/tensorflow/lite/kernels/internal\types.h ****   const int size_1 = shape.FlatSize();
 501:C:/Renesas/e2studio_2021_01_workspace_RZA2M_ANPR/ANPR_RZA2M_EBK/src/tensorflow_lite/tensorflow/lite/kernels/internal\types.h ****   const int size_2 = check_shape_0.FlatSize();
 502:C:/Renesas/e2studio_2021_01_workspace_RZA2M_ANPR/ANPR_RZA2M_EBK/src/tensorflow_lite/tensorflow/lite/kernels/internal\types.h ****   TFLITE_CHECK_EQ(size_1, size_2);
 503:C:/Renesas/e2studio_2021_01_workspace_RZA2M_ANPR/ANPR_RZA2M_EBK/src/tensorflow_lite/tensorflow/lite/kernels/internal\types.h ****   return size_1;
 504:C:/Renesas/e2studio_2021_01_workspace_RZA2M_ANPR/ANPR_RZA2M_EBK/src/tensorflow_lite/tensorflow/lite/kernels/internal\types.h **** }
 505:C:/Renesas/e2studio_2021_01_workspace_RZA2M_ANPR/ANPR_RZA2M_EBK/src/tensorflow_lite/tensorflow/lite/kernels/internal\types.h **** 
 506:C:/Renesas/e2studio_2021_01_workspace_RZA2M_ANPR/ANPR_RZA2M_EBK/src/tensorflow_lite/tensorflow/lite/kernels/internal\types.h **** inline int MatchingElementsSize(const RuntimeShape& shape,
 507:C:/Renesas/e2studio_2021_01_workspace_RZA2M_ANPR/ANPR_RZA2M_EBK/src/tensorflow_lite/tensorflow/lite/kernels/internal\types.h ****                                 const RuntimeShape& check_shape_0,
 508:C:/Renesas/e2studio_2021_01_workspace_RZA2M_ANPR/ANPR_RZA2M_EBK/src/tensorflow_lite/tensorflow/lite/kernels/internal\types.h ****                                 const RuntimeShape& check_shape_1) {
 509:C:/Renesas/e2studio_2021_01_workspace_RZA2M_ANPR/ANPR_RZA2M_EBK/src/tensorflow_lite/tensorflow/lite/kernels/internal\types.h ****   const int size_1 = shape.FlatSize();
 510:C:/Renesas/e2studio_2021_01_workspace_RZA2M_ANPR/ANPR_RZA2M_EBK/src/tensorflow_lite/tensorflow/lite/kernels/internal\types.h ****   const int size_2 = check_shape_0.FlatSize();
 511:C:/Renesas/e2studio_2021_01_workspace_RZA2M_ANPR/ANPR_RZA2M_EBK/src/tensorflow_lite/tensorflow/lite/kernels/internal\types.h ****   const int size_3 = check_shape_1.FlatSize();
 512:C:/Renesas/e2studio_2021_01_workspace_RZA2M_ANPR/ANPR_RZA2M_EBK/src/tensorflow_lite/tensorflow/lite/kernels/internal\types.h ****   TFLITE_CHECK_EQ(size_1, size_2);
 513:C:/Renesas/e2studio_2021_01_workspace_RZA2M_ANPR/ANPR_RZA2M_EBK/src/tensorflow_lite/tensorflow/lite/kernels/internal\types.h ****   TFLITE_CHECK_EQ(size_2, size_3);
 514:C:/Renesas/e2studio_2021_01_workspace_RZA2M_ANPR/ANPR_RZA2M_EBK/src/tensorflow_lite/tensorflow/lite/kernels/internal\types.h ****   return size_1;
 515:C:/Renesas/e2studio_2021_01_workspace_RZA2M_ANPR/ANPR_RZA2M_EBK/src/tensorflow_lite/tensorflow/lite/kernels/internal\types.h **** }
 516:C:/Renesas/e2studio_2021_01_workspace_RZA2M_ANPR/ANPR_RZA2M_EBK/src/tensorflow_lite/tensorflow/lite/kernels/internal\types.h **** 
 517:C:/Renesas/e2studio_2021_01_workspace_RZA2M_ANPR/ANPR_RZA2M_EBK/src/tensorflow_lite/tensorflow/lite/kernels/internal\types.h **** // Flat size calculation, checking that dimensions match with one or more other
 518:C:/Renesas/e2studio_2021_01_workspace_RZA2M_ANPR/ANPR_RZA2M_EBK/src/tensorflow_lite/tensorflow/lite/kernels/internal\types.h **** // arrays.
 519:C:/Renesas/e2studio_2021_01_workspace_RZA2M_ANPR/ANPR_RZA2M_EBK/src/tensorflow_lite/tensorflow/lite/kernels/internal\types.h **** inline int MatchingFlatSize(const RuntimeShape& shape,
 520:C:/Renesas/e2studio_2021_01_workspace_RZA2M_ANPR/ANPR_RZA2M_EBK/src/tensorflow_lite/tensorflow/lite/kernels/internal\types.h ****                             const RuntimeShape& check_shape_0) {
 521:C:/Renesas/e2studio_2021_01_workspace_RZA2M_ANPR/ANPR_RZA2M_EBK/src/tensorflow_lite/tensorflow/lite/kernels/internal\types.h ****   TFLITE_DCHECK_EQ(shape.DimensionsCount(), check_shape_0.DimensionsCount());
 1262              		.loc 5 521 0
 1263 00c0 070052E1 		cmp	r2, r7
 1264 00c4 DF02001A 		bne	.L139
 1265              	.LVL122:
 1266              	.LBB640:
 522:C:/Renesas/e2studio_2021_01_workspace_RZA2M_ANPR/ANPR_RZA2M_EBK/src/tensorflow_lite/tensorflow/lite/kernels/internal\types.h ****   const int dims_count = shape.DimensionsCount();
 523:C:/Renesas/e2studio_2021_01_workspace_RZA2M_ANPR/ANPR_RZA2M_EBK/src/tensorflow_lite/tensorflow/lite/kernels/internal\types.h ****   for (int i = 0; i < dims_count; ++i) {
 1267              		.loc 5 523 0
 1268 00c8 000052E3 		cmp	r2, #0
 1269 00cc 780200DA 		ble	.L230
 1270 00d0 050052E3 		cmp	r2, #5
 1271              	.LBB641:
 1272              	.LBB642:
 216:C:/Renesas/e2studio_2021_01_workspace_RZA2M_ANPR/ANPR_RZA2M_EBK/src/tensorflow_lite/tensorflow/lite/kernels/internal\types.h ****   }
 1273              		.loc 5 216 0
 1274 00d4 04809DE5 		ldr	r8, [sp, #4]
 1275              	.LBE642:
 1276              	.LBE641:
 1277              	.LBB648:
 1278              	.LBB649:
 1279 00d8 1C109DE5 		ldr	r1, [sp, #28]
 1280 00dc 650200CA 		bgt	.L142
 1281              	.LVL123:
 215:C:/Renesas/e2studio_2021_01_workspace_RZA2M_ANPR/ANPR_RZA2M_EBK/src/tensorflow_lite/tensorflow/lite/kernels/internal\types.h ****     return size_ > kMaxSmallSize ? dims_pointer_[i] : dims_[i];
 1282              		.loc 5 215 0
 1283 00e0 000052E3 		cmp	r2, #0
 1284 00e4 BA0200DA 		ble	.L143
 1285              	.LVL124:
 1286              	.LBE649:
 1287              	.LBE648:
 524:C:/Renesas/e2studio_2021_01_workspace_RZA2M_ANPR/ANPR_RZA2M_EBK/src/tensorflow_lite/tensorflow/lite/kernels/internal\types.h ****     TFLITE_DCHECK_EQ(shape.Dims(i), check_shape_0.Dims(i));
 1288              		.loc 5 524 0
 1289 00e8 010058E1 		cmp	r8, r1
 1290 00ec BD02001A 		bne	.L144
 1291              	.LVL125:
 523:C:/Renesas/e2studio_2021_01_workspace_RZA2M_ANPR/ANPR_RZA2M_EBK/src/tensorflow_lite/tensorflow/lite/kernels/internal\types.h ****     TFLITE_DCHECK_EQ(shape.Dims(i), check_shape_0.Dims(i));
 1292              		.loc 5 523 0
 1293 00f0 010052E3 		cmp	r2, #1
 1294 00f4 1900000A 		beq	.L229
 1295              	.LVL126:
 1296              	.LBB657:
 1297              	.LBB643:
 216:C:/Renesas/e2studio_2021_01_workspace_RZA2M_ANPR/ANPR_RZA2M_EBK/src/tensorflow_lite/tensorflow/lite/kernels/internal\types.h ****   }
 1298              		.loc 5 216 0
 1299 00f8 08109DE5 		ldr	r1, [sp, #8]
 1300              	.LVL127:
 1301              	.LBE643:
 1302              	.LBE657:
 1303              		.loc 5 524 0
 1304 00fc 20309DE5 		ldr	r3, [sp, #32]
 1305 0100 030051E1 		cmp	r1, r3
 1306 0104 B702001A 		bne	.L144
 1307              	.LVL128:
 523:C:/Renesas/e2studio_2021_01_workspace_RZA2M_ANPR/ANPR_RZA2M_EBK/src/tensorflow_lite/tensorflow/lite/kernels/internal\types.h ****     TFLITE_DCHECK_EQ(shape.Dims(i), check_shape_0.Dims(i));
 1308              		.loc 5 523 0
 1309 0108 020052E3 		cmp	r2, #2
 1310 010c 1300000A 		beq	.L229
 1311              	.LVL129:
 1312              	.LBB658:
 1313              	.LBB644:
 216:C:/Renesas/e2studio_2021_01_workspace_RZA2M_ANPR/ANPR_RZA2M_EBK/src/tensorflow_lite/tensorflow/lite/kernels/internal\types.h ****   }
 1314              		.loc 5 216 0
 1315 0110 0C109DE5 		ldr	r1, [sp, #12]
 1316              	.LVL130:
 1317              	.LBE644:
 1318              	.LBE658:
 1319              		.loc 5 524 0
 1320 0114 24309DE5 		ldr	r3, [sp, #36]
 1321 0118 030051E1 		cmp	r1, r3
 1322 011c B102001A 		bne	.L144
 1323              	.LVL131:
 523:C:/Renesas/e2studio_2021_01_workspace_RZA2M_ANPR/ANPR_RZA2M_EBK/src/tensorflow_lite/tensorflow/lite/kernels/internal\types.h ****     TFLITE_DCHECK_EQ(shape.Dims(i), check_shape_0.Dims(i));
 1324              		.loc 5 523 0
 1325 0120 030052E3 		cmp	r2, #3
 1326 0124 0D00000A 		beq	.L229
 1327              	.LVL132:
 1328              	.LBB659:
 1329              	.LBB650:
 215:C:/Renesas/e2studio_2021_01_workspace_RZA2M_ANPR/ANPR_RZA2M_EBK/src/tensorflow_lite/tensorflow/lite/kernels/internal\types.h ****     return size_ > kMaxSmallSize ? dims_pointer_[i] : dims_[i];
 1330              		.loc 5 215 0
 1331 0128 030057E3 		cmp	r7, #3
 1332              	.LBE650:
 1333              	.LBE659:
 1334              	.LBB660:
 1335              	.LBB645:
 216:C:/Renesas/e2studio_2021_01_workspace_RZA2M_ANPR/ANPR_RZA2M_EBK/src/tensorflow_lite/tensorflow/lite/kernels/internal\types.h ****   }
 1336              		.loc 5 216 0
 1337 012c 10109DE5 		ldr	r1, [sp, #16]
 1338              	.LVL133:
 1339              	.LBE645:
 1340              	.LBE660:
 1341              	.LBB661:
 1342              	.LBB651:
 215:C:/Renesas/e2studio_2021_01_workspace_RZA2M_ANPR/ANPR_RZA2M_EBK/src/tensorflow_lite/tensorflow/lite/kernels/internal\types.h ****     return size_ > kMaxSmallSize ? dims_pointer_[i] : dims_[i];
 1343              		.loc 5 215 0
 1344 0130 A702000A 		beq	.L143
 1345              	.LVL134:
 1346              	.LBE651:
 1347              	.LBE661:
 1348              		.loc 5 524 0
 1349 0134 28309DE5 		ldr	r3, [sp, #40]
 1350 0138 030051E1 		cmp	r1, r3
 1351 013c A902001A 		bne	.L144
 1352              	.LVL135:
 523:C:/Renesas/e2studio_2021_01_workspace_RZA2M_ANPR/ANPR_RZA2M_EBK/src/tensorflow_lite/tensorflow/lite/kernels/internal\types.h ****     TFLITE_DCHECK_EQ(shape.Dims(i), check_shape_0.Dims(i));
 1353              		.loc 5 523 0
 1354 0140 040052E3 		cmp	r2, #4
 1355 0144 0500000A 		beq	.L229
 1356              	.LVL136:
 1357              	.LBB662:
 1358              	.LBB652:
 215:C:/Renesas/e2studio_2021_01_workspace_RZA2M_ANPR/ANPR_RZA2M_EBK/src/tensorflow_lite/tensorflow/lite/kernels/internal\types.h ****     return size_ > kMaxSmallSize ? dims_pointer_[i] : dims_[i];
 1359              		.loc 5 215 0
 1360 0148 040057E3 		cmp	r7, #4
 1361              	.LBE652:
 1362              	.LBE662:
 1363              	.LBB663:
 1364              	.LBB646:
 216:C:/Renesas/e2studio_2021_01_workspace_RZA2M_ANPR/ANPR_RZA2M_EBK/src/tensorflow_lite/tensorflow/lite/kernels/internal\types.h ****   }
 1365              		.loc 5 216 0
 1366 014c 14309DE5 		ldr	r3, [sp, #20]
 1367              	.LVL137:
 1368              	.LBE646:
 1369              	.LBE663:
 1370              	.LBB664:
 1371              	.LBB653:
 215:C:/Renesas/e2studio_2021_01_workspace_RZA2M_ANPR/ANPR_RZA2M_EBK/src/tensorflow_lite/tensorflow/lite/kernels/internal\types.h ****     return size_ > kMaxSmallSize ? dims_pointer_[i] : dims_[i];
 1372              		.loc 5 215 0
 1373 0150 9F02000A 		beq	.L143
 1374              	.LVL138:
 1375              	.LBE653:
 1376              	.LBE664:
 1377              		.loc 5 524 0
 1378 0154 2C109DE5 		ldr	r1, [sp, #44]
 1379 0158 030051E1 		cmp	r1, r3
 1380 015c A102001A 		bne	.L144
 1381              	.LVL139:
 1382              	.L229:
 1383              	.LBE640:
 1384              	.LBB669:
 1385              	.LBB670:
 1386              	.LBB671:
 1387              	.LBB672:
 232:C:/Renesas/e2studio_2021_01_workspace_RZA2M_ANPR/ANPR_RZA2M_EBK/src/tensorflow_lite/tensorflow/lite/kernels/internal\types.h ****   }
 1388              		.loc 5 232 0
 1389 0160 04608DE2 		add	r6, sp, #4
 1390              	.LVL140:
 1391              	.L145:
 1392 0164 5631A0E7 		sbfx	r3, r6, #2, #1
 1393 0168 033003E2 		and	r3, r3, #3
 1394 016c 020053E1 		cmp	r3, r2
 1395 0170 0230A021 		movcs	r3, r2
 1396 0174 080052E3 		cmp	r2, #8
 1397 0178 0230A091 		movls	r3, r2
 1398 017c 000053E3 		cmp	r3, #0
 1399 0180 7502000A 		beq	.L231
 1400 0184 010053E3 		cmp	r3, #1
 1401              	.LBE672:
 1402              	.LBE671:
 1403              	.LBB674:
 293:C:/Renesas/e2studio_2021_01_workspace_RZA2M_ANPR/ANPR_RZA2M_EBK/src/tensorflow_lite/tensorflow/lite/kernels/internal\types.h ****     }
 1404              		.loc 5 293 0
 1405 0188 00C096E5 		ldr	ip, [r6]
 1406              	.LVL141:
 1407 018c 6C02000A 		beq	.L238
 1408 0190 041096E5 		ldr	r1, [r6, #4]
 1409 0194 020053E3 		cmp	r3, #2
 1410 0198 910C0CE0 		mul	ip, r1, ip
 1411              	.LVL142:
 1412 019c 6802000A 		beq	.L238
 1413 01a0 081096E5 		ldr	r1, [r6, #8]
 1414 01a4 030053E3 		cmp	r3, #3
 1415 01a8 910C0CE0 		mul	ip, r1, ip
 1416              	.LVL143:
 1417 01ac 6402000A 		beq	.L238
 1418 01b0 0C1096E5 		ldr	r1, [r6, #12]
 1419 01b4 040053E3 		cmp	r3, #4
 1420 01b8 910C0CE0 		mul	ip, r1, ip
 1421              	.LVL144:
 1422 01bc 6002000A 		beq	.L238
 1423 01c0 101096E5 		ldr	r1, [r6, #16]
 1424 01c4 050053E3 		cmp	r3, #5
 1425 01c8 910C0CE0 		mul	ip, r1, ip
 1426              	.LVL145:
 1427 01cc 5C02000A 		beq	.L238
 1428 01d0 141096E5 		ldr	r1, [r6, #20]
 1429 01d4 060053E3 		cmp	r3, #6
 1430 01d8 910C0CE0 		mul	ip, r1, ip
 1431              	.LVL146:
 1432 01dc 5802000A 		beq	.L238
 1433 01e0 181096E5 		ldr	r1, [r6, #24]
 1434 01e4 070053E3 		cmp	r3, #7
 1435 01e8 910C0CE0 		mul	ip, r1, ip
 1436              	.LVL147:
 1437 01ec 5402000A 		beq	.L238
 1438 01f0 1C1096E5 		ldr	r1, [r6, #28]
 292:C:/Renesas/e2studio_2021_01_workspace_RZA2M_ANPR/ANPR_RZA2M_EBK/src/tensorflow_lite/tensorflow/lite/kernels/internal\types.h ****       buffer_size *= dims_data[i];
 1439              		.loc 5 292 0
 1440 01f4 0870A0E3 		mov	r7, #8
 293:C:/Renesas/e2studio_2021_01_workspace_RZA2M_ANPR/ANPR_RZA2M_EBK/src/tensorflow_lite/tensorflow/lite/kernels/internal\types.h ****     }
 1441              		.loc 5 293 0
 1442 01f8 910C0CE0 		mul	ip, r1, ip
 1443              	.LVL148:
 1444              	.L152:
 1445 01fc 030052E1 		cmp	r2, r3
 1446 0200 2800000A 		beq	.L153
 1447              	.LVL149:
 1448              	.L151:
 1449 0204 038042E0 		sub	r8, r2, r3
 1450 0208 011042E2 		sub	r1, r2, #1
 1451 020c 040048E2 		sub	r0, r8, #4
 1452 0210 031041E0 		sub	r1, r1, r3
 1453 0214 2001A0E1 		lsr	r0, r0, #2
 1454 0218 020051E3 		cmp	r1, #2
 1455 021c 010080E2 		add	r0, r0, #1
 1456 0220 0091A0E1 		lsl	r9, r0, #2
 1457 0224 1200009A 		bls	.L154
 1458 0228 033186E0 		add	r3, r6, r3, lsl #2
 292:C:/Renesas/e2studio_2021_01_workspace_RZA2M_ANPR/ANPR_RZA2M_EBK/src/tensorflow_lite/tensorflow/lite/kernels/internal\types.h ****       buffer_size *= dims_data[i];
 1459              		.loc 5 292 0
 1460 022c 5100C0F2 		vmov.i32	q8, #1  @ v4si
 1461 0230 0010A0E3 		mov	r1, #0
 1462              	.L156:
 1463 0234 011081E2 		add	r1, r1, #1
 293:C:/Renesas/e2studio_2021_01_workspace_RZA2M_ANPR/ANPR_RZA2M_EBK/src/tensorflow_lite/tensorflow/lite/kernels/internal\types.h ****     }
 1464              		.loc 5 293 0
 1465 0238 DF2A63F4 		vld1.64	{d18-d19}, [r3:64]
 1466 023c 010050E1 		cmp	r0, r1
 1467 0240 103083E2 		add	r3, r3, #16
 1468 0244 F20960F2 		vmul.i32	q8, q8, q9
 1469 0248 F9FFFF8A 		bhi	.L156
 1470 024c 090058E1 		cmp	r8, r9
 1471 0250 097087E0 		add	r7, r7, r9
 1472 0254 5020C0F2 		vmov.i32	q9, #0  @ v4si
 1473 0258 E248F0F2 		vext.32	q10, q8, q9, #2
 1474 025c F40960F2 		vmul.i32	q8, q8, q10
 1475 0260 E224F0F2 		vext.32	q9, q8, q9, #1
 1476 0264 F20960F2 		vmul.i32	q8, q8, q9
 1477 0268 901B10EE 		vmov.32	r1, d16[0]
 1478 026c 910C0CE0 		mul	ip, r1, ip
 1479 0270 0C00000A 		beq	.L153
 1480              	.L154:
 1481              	.LVL150:
 1482 0274 071196E7 		ldr	r1, [r6, r7, lsl #2]
 292:C:/Renesas/e2studio_2021_01_workspace_RZA2M_ANPR/ANPR_RZA2M_EBK/src/tensorflow_lite/tensorflow/lite/kernels/internal\types.h ****       buffer_size *= dims_data[i];
 1483              		.loc 5 292 0
 1484 0278 013087E2 		add	r3, r7, #1
 1485 027c 030052E1 		cmp	r2, r3
 293:C:/Renesas/e2studio_2021_01_workspace_RZA2M_ANPR/ANPR_RZA2M_EBK/src/tensorflow_lite/tensorflow/lite/kernels/internal\types.h ****     }
 1486              		.loc 5 293 0
 1487 0280 0731A0E1 		lsl	r3, r7, #2
 1488 0284 910C0CE0 		mul	ip, r1, ip
 1489              	.LVL151:
 292:C:/Renesas/e2studio_2021_01_workspace_RZA2M_ANPR/ANPR_RZA2M_EBK/src/tensorflow_lite/tensorflow/lite/kernels/internal\types.h ****       buffer_size *= dims_data[i];
 1490              		.loc 5 292 0
 1491 0288 060000DA 		ble	.L153
 293:C:/Renesas/e2studio_2021_01_workspace_RZA2M_ANPR/ANPR_RZA2M_EBK/src/tensorflow_lite/tensorflow/lite/kernels/internal\types.h ****     }
 1492              		.loc 5 293 0
 1493 028c 033086E0 		add	r3, r6, r3
 292:C:/Renesas/e2studio_2021_01_workspace_RZA2M_ANPR/ANPR_RZA2M_EBK/src/tensorflow_lite/tensorflow/lite/kernels/internal\types.h ****       buffer_size *= dims_data[i];
 1494              		.loc 5 292 0
 1495 0290 021087E2 		add	r1, r7, #2
 293:C:/Renesas/e2studio_2021_01_workspace_RZA2M_ANPR/ANPR_RZA2M_EBK/src/tensorflow_lite/tensorflow/lite/kernels/internal\types.h ****     }
 1496              		.loc 5 293 0
 1497 0294 040093E5 		ldr	r0, [r3, #4]
 292:C:/Renesas/e2studio_2021_01_workspace_RZA2M_ANPR/ANPR_RZA2M_EBK/src/tensorflow_lite/tensorflow/lite/kernels/internal\types.h ****       buffer_size *= dims_data[i];
 1498              		.loc 5 292 0
 1499 0298 010052E1 		cmp	r2, r1
 293:C:/Renesas/e2studio_2021_01_workspace_RZA2M_ANPR/ANPR_RZA2M_EBK/src/tensorflow_lite/tensorflow/lite/kernels/internal\types.h ****     }
 1500              		.loc 5 293 0
 1501 029c 900C0CE0 		mul	ip, r0, ip
 1502              	.LVL152:
 292:C:/Renesas/e2studio_2021_01_workspace_RZA2M_ANPR/ANPR_RZA2M_EBK/src/tensorflow_lite/tensorflow/lite/kernels/internal\types.h ****       buffer_size *= dims_data[i];
 1503              		.loc 5 292 0
