   1              		.cpu cortex-a9
   2              		.eabi_attribute 28, 1
   3              		.eabi_attribute 20, 1
   4              		.eabi_attribute 21, 1
   5              		.eabi_attribute 23, 3
   6              		.eabi_attribute 24, 1
   7              		.eabi_attribute 25, 1
   8              		.eabi_attribute 26, 1
   9              		.eabi_attribute 30, 2
  10              		.eabi_attribute 34, 0
  11              		.eabi_attribute 18, 4
  12              		.file	"activations.cc"
  13              		.text
  14              	.Ltext0:
  15              		.cfi_sections	.debug_frame
  16              		.section	.text._ZN6tflite3ops5micro11activations8ReluInitEP13TfLiteContextPKcj,"ax",%progbits
  17              		.align	2
  18              		.global	_ZN6tflite3ops5micro11activations8ReluInitEP13TfLiteContextPKcj
  19              		.syntax unified
  20              		.arm
  21              		.fpu neon
  23              	_ZN6tflite3ops5micro11activations8ReluInitEP13TfLiteContextPKcj:
  24              		.fnstart
  25              	.LFB4179:
  26              		.file 1 "../src/tensorflow_lite/tensorflow/lite/micro/kernels/activations.cc"
   1:../src/tensorflow_lite/tensorflow/lite/micro/kernels/activations.cc **** /* Copyright 2019 The TensorFlow Authors. All Rights Reserved.
   2:../src/tensorflow_lite/tensorflow/lite/micro/kernels/activations.cc **** 
   3:../src/tensorflow_lite/tensorflow/lite/micro/kernels/activations.cc **** Licensed under the Apache License, Version 2.0 (the "License");
   4:../src/tensorflow_lite/tensorflow/lite/micro/kernels/activations.cc **** you may not use this file except in compliance with the License.
   5:../src/tensorflow_lite/tensorflow/lite/micro/kernels/activations.cc **** You may obtain a copy of the License at
   6:../src/tensorflow_lite/tensorflow/lite/micro/kernels/activations.cc **** 
   7:../src/tensorflow_lite/tensorflow/lite/micro/kernels/activations.cc ****     http://www.apache.org/licenses/LICENSE-2.0
   8:../src/tensorflow_lite/tensorflow/lite/micro/kernels/activations.cc **** 
   9:../src/tensorflow_lite/tensorflow/lite/micro/kernels/activations.cc **** Unless required by applicable law or agreed to in writing, software
  10:../src/tensorflow_lite/tensorflow/lite/micro/kernels/activations.cc **** distributed under the License is distributed on an "AS IS" BASIS,
  11:../src/tensorflow_lite/tensorflow/lite/micro/kernels/activations.cc **** WITHOUT WARRANTIES OR CONDITIONS OF ANY KIND, either express or implied.
  12:../src/tensorflow_lite/tensorflow/lite/micro/kernels/activations.cc **** See the License for the specific language governing permissions and
  13:../src/tensorflow_lite/tensorflow/lite/micro/kernels/activations.cc **** limitations under the License.
  14:../src/tensorflow_lite/tensorflow/lite/micro/kernels/activations.cc **** ==============================================================================*/
  15:../src/tensorflow_lite/tensorflow/lite/micro/kernels/activations.cc **** 
  16:../src/tensorflow_lite/tensorflow/lite/micro/kernels/activations.cc **** #include "tensorflow/lite/c/builtin_op_data.h"
  17:../src/tensorflow_lite/tensorflow/lite/micro/kernels/activations.cc **** #include "tensorflow/lite/c/common.h"
  18:../src/tensorflow_lite/tensorflow/lite/micro/kernels/activations.cc **** #include "tensorflow/lite/kernels/internal/common.h"
  19:../src/tensorflow_lite/tensorflow/lite/micro/kernels/activations.cc **** #include "tensorflow/lite/kernels/internal/quantization_util.h"
  20:../src/tensorflow_lite/tensorflow/lite/micro/kernels/activations.cc **** #include "tensorflow/lite/kernels/internal/tensor_ctypes.h"
  21:../src/tensorflow_lite/tensorflow/lite/micro/kernels/activations.cc **** #include "tensorflow/lite/kernels/internal/types.h"
  22:../src/tensorflow_lite/tensorflow/lite/micro/kernels/activations.cc **** #include "tensorflow/lite/kernels/kernel_util.h"
  23:../src/tensorflow_lite/tensorflow/lite/micro/kernels/activations.cc **** #include "tensorflow/lite/kernels/op_macros.h"
  24:../src/tensorflow_lite/tensorflow/lite/micro/kernels/activations.cc **** #include "tensorflow/lite/micro/kernels/kernel_util.h"
  25:../src/tensorflow_lite/tensorflow/lite/micro/kernels/activations.cc **** #include "tensorflow/lite/micro/micro_utils.h"
  26:../src/tensorflow_lite/tensorflow/lite/micro/kernels/activations.cc **** 
  27:../src/tensorflow_lite/tensorflow/lite/micro/kernels/activations.cc **** namespace tflite {
  28:../src/tensorflow_lite/tensorflow/lite/micro/kernels/activations.cc **** namespace ops {
  29:../src/tensorflow_lite/tensorflow/lite/micro/kernels/activations.cc **** namespace micro {
  30:../src/tensorflow_lite/tensorflow/lite/micro/kernels/activations.cc **** namespace activations {
  31:../src/tensorflow_lite/tensorflow/lite/micro/kernels/activations.cc **** namespace {
  32:../src/tensorflow_lite/tensorflow/lite/micro/kernels/activations.cc **** 
  33:../src/tensorflow_lite/tensorflow/lite/micro/kernels/activations.cc **** struct ReluOpData {
  34:../src/tensorflow_lite/tensorflow/lite/micro/kernels/activations.cc ****   ReluParams params;
  35:../src/tensorflow_lite/tensorflow/lite/micro/kernels/activations.cc **** };
  36:../src/tensorflow_lite/tensorflow/lite/micro/kernels/activations.cc **** 
  37:../src/tensorflow_lite/tensorflow/lite/micro/kernels/activations.cc **** struct Relu6OpData {
  38:../src/tensorflow_lite/tensorflow/lite/micro/kernels/activations.cc ****   int8_t six_int8;
  39:../src/tensorflow_lite/tensorflow/lite/micro/kernels/activations.cc ****   int8_t zero_int8;
  40:../src/tensorflow_lite/tensorflow/lite/micro/kernels/activations.cc ****   uint8_t six_uint8;
  41:../src/tensorflow_lite/tensorflow/lite/micro/kernels/activations.cc ****   uint8_t zero_uint8;
  42:../src/tensorflow_lite/tensorflow/lite/micro/kernels/activations.cc **** };
  43:../src/tensorflow_lite/tensorflow/lite/micro/kernels/activations.cc **** 
  44:../src/tensorflow_lite/tensorflow/lite/micro/kernels/activations.cc **** }  // namespace
  45:../src/tensorflow_lite/tensorflow/lite/micro/kernels/activations.cc **** 
  46:../src/tensorflow_lite/tensorflow/lite/micro/kernels/activations.cc **** constexpr int kInputTensor = 0;
  47:../src/tensorflow_lite/tensorflow/lite/micro/kernels/activations.cc **** constexpr int kOutputTensor = 0;
  48:../src/tensorflow_lite/tensorflow/lite/micro/kernels/activations.cc **** 
  49:../src/tensorflow_lite/tensorflow/lite/micro/kernels/activations.cc **** template <typename T>
  50:../src/tensorflow_lite/tensorflow/lite/micro/kernels/activations.cc **** inline void ReluQuantized(const ReluOpData& data,
  51:../src/tensorflow_lite/tensorflow/lite/micro/kernels/activations.cc ****                           const RuntimeShape& input_shape,
  52:../src/tensorflow_lite/tensorflow/lite/micro/kernels/activations.cc ****                           const RuntimeShape& output_shape, const T* input_data,
  53:../src/tensorflow_lite/tensorflow/lite/micro/kernels/activations.cc ****                           T* output_data) {
  54:../src/tensorflow_lite/tensorflow/lite/micro/kernels/activations.cc ****   const int flat_size = MatchingFlatSize(input_shape, output_shape);
  55:../src/tensorflow_lite/tensorflow/lite/micro/kernels/activations.cc ****   for (int i = 0; i < flat_size; ++i) {
  56:../src/tensorflow_lite/tensorflow/lite/micro/kernels/activations.cc ****     const int32_t val = static_cast<int32_t>(input_data[i]);
  57:../src/tensorflow_lite/tensorflow/lite/micro/kernels/activations.cc ****     int32_t clamped =
  58:../src/tensorflow_lite/tensorflow/lite/micro/kernels/activations.cc ****         data.params.output_offset +
  59:../src/tensorflow_lite/tensorflow/lite/micro/kernels/activations.cc ****         MultiplyByQuantizedMultiplier(val - data.params.input_offset,
  60:../src/tensorflow_lite/tensorflow/lite/micro/kernels/activations.cc ****                                       data.params.output_multiplier,
  61:../src/tensorflow_lite/tensorflow/lite/micro/kernels/activations.cc ****                                       data.params.output_shift);
  62:../src/tensorflow_lite/tensorflow/lite/micro/kernels/activations.cc ****     clamped = std::max(data.params.quantized_activation_min, clamped);
  63:../src/tensorflow_lite/tensorflow/lite/micro/kernels/activations.cc ****     clamped = std::min(data.params.quantized_activation_max, clamped);
  64:../src/tensorflow_lite/tensorflow/lite/micro/kernels/activations.cc ****     output_data[i] = static_cast<T>(clamped);
  65:../src/tensorflow_lite/tensorflow/lite/micro/kernels/activations.cc ****   }
  66:../src/tensorflow_lite/tensorflow/lite/micro/kernels/activations.cc **** }
  67:../src/tensorflow_lite/tensorflow/lite/micro/kernels/activations.cc **** 
  68:../src/tensorflow_lite/tensorflow/lite/micro/kernels/activations.cc **** template <typename T>
  69:../src/tensorflow_lite/tensorflow/lite/micro/kernels/activations.cc **** inline void CalculateReluOpData(const TfLiteTensor* input, TfLiteTensor* output,
  70:../src/tensorflow_lite/tensorflow/lite/micro/kernels/activations.cc ****                                 ReluOpData* data) {
  71:../src/tensorflow_lite/tensorflow/lite/micro/kernels/activations.cc ****   float act_min = 0.0;
  72:../src/tensorflow_lite/tensorflow/lite/micro/kernels/activations.cc ****   float act_max = std::numeric_limits<float>::infinity();
  73:../src/tensorflow_lite/tensorflow/lite/micro/kernels/activations.cc ****   double real_multiplier =
  74:../src/tensorflow_lite/tensorflow/lite/micro/kernels/activations.cc ****       static_cast<double>(input->params.scale / output->params.scale);
  75:../src/tensorflow_lite/tensorflow/lite/micro/kernels/activations.cc **** 
  76:../src/tensorflow_lite/tensorflow/lite/micro/kernels/activations.cc ****   const RuntimeShape input_shape = GetTensorShape(input);
  77:../src/tensorflow_lite/tensorflow/lite/micro/kernels/activations.cc ****   const RuntimeShape output_shape = GetTensorShape(output);
  78:../src/tensorflow_lite/tensorflow/lite/micro/kernels/activations.cc **** 
  79:../src/tensorflow_lite/tensorflow/lite/micro/kernels/activations.cc ****   QuantizeMultiplier(real_multiplier, &data->params.output_multiplier,
  80:../src/tensorflow_lite/tensorflow/lite/micro/kernels/activations.cc ****                      &data->params.output_shift);
  81:../src/tensorflow_lite/tensorflow/lite/micro/kernels/activations.cc **** 
  82:../src/tensorflow_lite/tensorflow/lite/micro/kernels/activations.cc ****   data->params.quantized_activation_min = std::max(
  83:../src/tensorflow_lite/tensorflow/lite/micro/kernels/activations.cc ****       static_cast<int32_t>(std::numeric_limits<T>::min()),
  84:../src/tensorflow_lite/tensorflow/lite/micro/kernels/activations.cc ****       output->params.zero_point +
  85:../src/tensorflow_lite/tensorflow/lite/micro/kernels/activations.cc ****           static_cast<int32_t>(roundf(act_min / output->params.scale)));
  86:../src/tensorflow_lite/tensorflow/lite/micro/kernels/activations.cc ****   data->params.quantized_activation_max =
  87:../src/tensorflow_lite/tensorflow/lite/micro/kernels/activations.cc ****       act_max == std::numeric_limits<float>::infinity()
  88:../src/tensorflow_lite/tensorflow/lite/micro/kernels/activations.cc ****           ? static_cast<int32_t>(std::numeric_limits<T>::max())
  89:../src/tensorflow_lite/tensorflow/lite/micro/kernels/activations.cc ****           : std::min(static_cast<int32_t>(std::numeric_limits<T>::max()),
  90:../src/tensorflow_lite/tensorflow/lite/micro/kernels/activations.cc ****                      output->params.zero_point +
  91:../src/tensorflow_lite/tensorflow/lite/micro/kernels/activations.cc ****                          static_cast<int32_t>(
  92:../src/tensorflow_lite/tensorflow/lite/micro/kernels/activations.cc ****                              roundf(act_max / output->params.scale)));
  93:../src/tensorflow_lite/tensorflow/lite/micro/kernels/activations.cc ****   data->params.input_offset = input->params.zero_point;
  94:../src/tensorflow_lite/tensorflow/lite/micro/kernels/activations.cc ****   data->params.output_offset = output->params.zero_point;
  95:../src/tensorflow_lite/tensorflow/lite/micro/kernels/activations.cc **** }
  96:../src/tensorflow_lite/tensorflow/lite/micro/kernels/activations.cc **** 
  97:../src/tensorflow_lite/tensorflow/lite/micro/kernels/activations.cc **** inline void ReluFloat(const RuntimeShape& input_shape, const float* input_data,
  98:../src/tensorflow_lite/tensorflow/lite/micro/kernels/activations.cc ****                       const RuntimeShape& output_shape, float* output_data) {
  99:../src/tensorflow_lite/tensorflow/lite/micro/kernels/activations.cc ****   const int flat_size = MatchingFlatSize(input_shape, output_shape);
 100:../src/tensorflow_lite/tensorflow/lite/micro/kernels/activations.cc ****   for (int i = 0; i < flat_size; ++i) {
 101:../src/tensorflow_lite/tensorflow/lite/micro/kernels/activations.cc ****     const float val = input_data[i];
 102:../src/tensorflow_lite/tensorflow/lite/micro/kernels/activations.cc ****     const float lower = 0.0f;
 103:../src/tensorflow_lite/tensorflow/lite/micro/kernels/activations.cc ****     const float clamped = val < lower ? lower : val;
 104:../src/tensorflow_lite/tensorflow/lite/micro/kernels/activations.cc ****     output_data[i] = clamped;
 105:../src/tensorflow_lite/tensorflow/lite/micro/kernels/activations.cc ****   }
 106:../src/tensorflow_lite/tensorflow/lite/micro/kernels/activations.cc **** }
 107:../src/tensorflow_lite/tensorflow/lite/micro/kernels/activations.cc **** 
 108:../src/tensorflow_lite/tensorflow/lite/micro/kernels/activations.cc **** inline void Relu6Float(const RuntimeShape& input_shape, const float* input_data,
 109:../src/tensorflow_lite/tensorflow/lite/micro/kernels/activations.cc ****                        const RuntimeShape& output_shape, float* output_data) {
 110:../src/tensorflow_lite/tensorflow/lite/micro/kernels/activations.cc ****   const int flat_size = MatchingFlatSize(input_shape, output_shape);
 111:../src/tensorflow_lite/tensorflow/lite/micro/kernels/activations.cc ****   for (int i = 0; i < flat_size; ++i) {
 112:../src/tensorflow_lite/tensorflow/lite/micro/kernels/activations.cc ****     const float val = input_data[i];
 113:../src/tensorflow_lite/tensorflow/lite/micro/kernels/activations.cc ****     const float upper = 6.0f;
 114:../src/tensorflow_lite/tensorflow/lite/micro/kernels/activations.cc ****     const float lower = 0.0f;
 115:../src/tensorflow_lite/tensorflow/lite/micro/kernels/activations.cc ****     const float clamped = val > upper ? upper : val < lower ? lower : val;
 116:../src/tensorflow_lite/tensorflow/lite/micro/kernels/activations.cc ****     output_data[i] = clamped;
 117:../src/tensorflow_lite/tensorflow/lite/micro/kernels/activations.cc ****   }
 118:../src/tensorflow_lite/tensorflow/lite/micro/kernels/activations.cc **** }
 119:../src/tensorflow_lite/tensorflow/lite/micro/kernels/activations.cc **** 
 120:../src/tensorflow_lite/tensorflow/lite/micro/kernels/activations.cc **** template <typename Q>
 121:../src/tensorflow_lite/tensorflow/lite/micro/kernels/activations.cc **** inline void Relu6Quantized(Q lower, Q upper, const RuntimeShape& input_shape,
 122:../src/tensorflow_lite/tensorflow/lite/micro/kernels/activations.cc ****                            const Q* input_data,
 123:../src/tensorflow_lite/tensorflow/lite/micro/kernels/activations.cc ****                            const RuntimeShape& output_shape, Q* output_data) {
 124:../src/tensorflow_lite/tensorflow/lite/micro/kernels/activations.cc ****   const int flat_size = MatchingFlatSize(input_shape, output_shape);
 125:../src/tensorflow_lite/tensorflow/lite/micro/kernels/activations.cc ****   for (int i = 0; i < flat_size; ++i) {
 126:../src/tensorflow_lite/tensorflow/lite/micro/kernels/activations.cc ****     const Q val = input_data[i];
 127:../src/tensorflow_lite/tensorflow/lite/micro/kernels/activations.cc ****     const Q clamped = val > upper ? upper : val < lower ? lower : val;
 128:../src/tensorflow_lite/tensorflow/lite/micro/kernels/activations.cc ****     output_data[i] = clamped;
 129:../src/tensorflow_lite/tensorflow/lite/micro/kernels/activations.cc ****   }
 130:../src/tensorflow_lite/tensorflow/lite/micro/kernels/activations.cc **** }
 131:../src/tensorflow_lite/tensorflow/lite/micro/kernels/activations.cc **** 
 132:../src/tensorflow_lite/tensorflow/lite/micro/kernels/activations.cc **** void* ReluInit(TfLiteContext* context, const char* buffer, size_t length) {
  27              		.loc 1 132 0
  28              		.cfi_startproc
  29              		@ args = 0, pretend = 0, frame = 0
  30              		@ frame_needed = 0, uses_anonymous_args = 0
  31              	.LVL0:
 133:../src/tensorflow_lite/tensorflow/lite/micro/kernels/activations.cc ****   TFLITE_DCHECK(context->AllocatePersistentBuffer != nullptr);
  32              		.loc 1 133 0
  33 0000 383090E5 		ldr	r3, [r0, #56]
  34 0004 000053E3 		cmp	r3, #0
  35 0008 0100000A 		beq	.L7
 134:../src/tensorflow_lite/tensorflow/lite/micro/kernels/activations.cc ****   return context->AllocatePersistentBuffer(context, sizeof(ReluOpData));
  36              		.loc 1 134 0
  37 000c 1C10A0E3 		mov	r1, #28
  38              	.LVL1:
  39 0010 13FF2FE1 		bx	r3
  40              	.LVL2:
  41              	.L7:
 132:../src/tensorflow_lite/tensorflow/lite/micro/kernels/activations.cc ****   TFLITE_DCHECK(context->AllocatePersistentBuffer != nullptr);
  42              		.loc 1 132 0 discriminator 1
  43 0014 10402DE9 		push	{r4, lr}
  44              		.save {r4, lr}
  45              		.cfi_def_cfa_offset 8
  46              		.cfi_offset 4, -8
  47              		.cfi_offset 14, -4
 133:../src/tensorflow_lite/tensorflow/lite/micro/kernels/activations.cc ****   TFLITE_DCHECK(context->AllocatePersistentBuffer != nullptr);
  48              		.loc 1 133 0 discriminator 1
  49 0018 FEFFFFEB 		bl	abort
  50              	.LVL3:
  51              		.cfi_endproc
  52              	.LFE4179:
  53              		.fnend
  55              		.section	.text._ZN6tflite3ops5micro11activations9Relu6InitEP13TfLiteContextPKcj,"ax",%progbits
  56              		.align	2
  57              		.global	_ZN6tflite3ops5micro11activations9Relu6InitEP13TfLiteContextPKcj
  58              		.syntax unified
  59              		.arm
  60              		.fpu neon
  62              	_ZN6tflite3ops5micro11activations9Relu6InitEP13TfLiteContextPKcj:
  63              		.fnstart
  64              	.LFB4182:
 135:../src/tensorflow_lite/tensorflow/lite/micro/kernels/activations.cc **** }
 136:../src/tensorflow_lite/tensorflow/lite/micro/kernels/activations.cc **** 
 137:../src/tensorflow_lite/tensorflow/lite/micro/kernels/activations.cc **** TfLiteStatus ReluPrepare(TfLiteContext* context, TfLiteNode* node) {
 138:../src/tensorflow_lite/tensorflow/lite/micro/kernels/activations.cc ****   TFLITE_DCHECK(node->user_data != nullptr);
 139:../src/tensorflow_lite/tensorflow/lite/micro/kernels/activations.cc ****   ReluOpData* data = static_cast<ReluOpData*>(node->user_data);
 140:../src/tensorflow_lite/tensorflow/lite/micro/kernels/activations.cc **** 
 141:../src/tensorflow_lite/tensorflow/lite/micro/kernels/activations.cc ****   const TfLiteTensor* input = GetInput(context, node, kInputTensor);
 142:../src/tensorflow_lite/tensorflow/lite/micro/kernels/activations.cc ****   TF_LITE_ENSURE(context, input != nullptr);
 143:../src/tensorflow_lite/tensorflow/lite/micro/kernels/activations.cc ****   TfLiteTensor* output = GetOutput(context, node, kOutputTensor);
 144:../src/tensorflow_lite/tensorflow/lite/micro/kernels/activations.cc ****   TF_LITE_ENSURE(context, output != nullptr);
 145:../src/tensorflow_lite/tensorflow/lite/micro/kernels/activations.cc **** 
 146:../src/tensorflow_lite/tensorflow/lite/micro/kernels/activations.cc ****   if (input->type == kTfLiteInt8) {
 147:../src/tensorflow_lite/tensorflow/lite/micro/kernels/activations.cc ****     CalculateReluOpData<int8_t>(input, output, data);
 148:../src/tensorflow_lite/tensorflow/lite/micro/kernels/activations.cc ****   } else if (input->type == kTfLiteUInt8) {
 149:../src/tensorflow_lite/tensorflow/lite/micro/kernels/activations.cc ****     CalculateReluOpData<uint8_t>(input, output, data);
 150:../src/tensorflow_lite/tensorflow/lite/micro/kernels/activations.cc ****   }
 151:../src/tensorflow_lite/tensorflow/lite/micro/kernels/activations.cc **** 
 152:../src/tensorflow_lite/tensorflow/lite/micro/kernels/activations.cc ****   return kTfLiteOk;
 153:../src/tensorflow_lite/tensorflow/lite/micro/kernels/activations.cc **** }
 154:../src/tensorflow_lite/tensorflow/lite/micro/kernels/activations.cc **** 
 155:../src/tensorflow_lite/tensorflow/lite/micro/kernels/activations.cc **** TfLiteStatus ReluEval(TfLiteContext* context, TfLiteNode* node) {
 156:../src/tensorflow_lite/tensorflow/lite/micro/kernels/activations.cc ****   TFLITE_DCHECK(node->user_data != nullptr);
 157:../src/tensorflow_lite/tensorflow/lite/micro/kernels/activations.cc ****   const ReluOpData& data = *(static_cast<const ReluOpData*>(node->user_data));
 158:../src/tensorflow_lite/tensorflow/lite/micro/kernels/activations.cc **** 
 159:../src/tensorflow_lite/tensorflow/lite/micro/kernels/activations.cc ****   const TfLiteEvalTensor* input =
 160:../src/tensorflow_lite/tensorflow/lite/micro/kernels/activations.cc ****       tflite::micro::GetEvalInput(context, node, kInputTensor);
 161:../src/tensorflow_lite/tensorflow/lite/micro/kernels/activations.cc ****   TfLiteEvalTensor* output =
 162:../src/tensorflow_lite/tensorflow/lite/micro/kernels/activations.cc ****       tflite::micro::GetEvalOutput(context, node, kOutputTensor);
 163:../src/tensorflow_lite/tensorflow/lite/micro/kernels/activations.cc **** 
 164:../src/tensorflow_lite/tensorflow/lite/micro/kernels/activations.cc ****   switch (input->type) {
 165:../src/tensorflow_lite/tensorflow/lite/micro/kernels/activations.cc ****     case kTfLiteFloat32: {
 166:../src/tensorflow_lite/tensorflow/lite/micro/kernels/activations.cc ****       ReluFloat(tflite::micro::GetTensorShape(input),
 167:../src/tensorflow_lite/tensorflow/lite/micro/kernels/activations.cc ****                 tflite::micro::GetTensorData<float>(input),
 168:../src/tensorflow_lite/tensorflow/lite/micro/kernels/activations.cc ****                 tflite::micro::GetTensorShape(output),
 169:../src/tensorflow_lite/tensorflow/lite/micro/kernels/activations.cc ****                 tflite::micro::GetTensorData<float>(output));
 170:../src/tensorflow_lite/tensorflow/lite/micro/kernels/activations.cc **** 
 171:../src/tensorflow_lite/tensorflow/lite/micro/kernels/activations.cc ****       return kTfLiteOk;
 172:../src/tensorflow_lite/tensorflow/lite/micro/kernels/activations.cc ****     }
 173:../src/tensorflow_lite/tensorflow/lite/micro/kernels/activations.cc ****     case kTfLiteInt8: {
 174:../src/tensorflow_lite/tensorflow/lite/micro/kernels/activations.cc ****       ReluQuantized<int8_t>(data, tflite::micro::GetTensorShape(input),
 175:../src/tensorflow_lite/tensorflow/lite/micro/kernels/activations.cc ****                             tflite::micro::GetTensorShape(output),
 176:../src/tensorflow_lite/tensorflow/lite/micro/kernels/activations.cc ****                             tflite::micro::GetTensorData<int8_t>(input),
 177:../src/tensorflow_lite/tensorflow/lite/micro/kernels/activations.cc ****                             tflite::micro::GetTensorData<int8_t>(output));
 178:../src/tensorflow_lite/tensorflow/lite/micro/kernels/activations.cc ****       return kTfLiteOk;
 179:../src/tensorflow_lite/tensorflow/lite/micro/kernels/activations.cc ****     }
 180:../src/tensorflow_lite/tensorflow/lite/micro/kernels/activations.cc ****     case kTfLiteUInt8: {
 181:../src/tensorflow_lite/tensorflow/lite/micro/kernels/activations.cc ****       ReluQuantized<uint8_t>(data, tflite::micro::GetTensorShape(input),
 182:../src/tensorflow_lite/tensorflow/lite/micro/kernels/activations.cc ****                              tflite::micro::GetTensorShape(output),
 183:../src/tensorflow_lite/tensorflow/lite/micro/kernels/activations.cc ****                              tflite::micro::GetTensorData<uint8_t>(input),
 184:../src/tensorflow_lite/tensorflow/lite/micro/kernels/activations.cc ****                              tflite::micro::GetTensorData<uint8_t>(output));
 185:../src/tensorflow_lite/tensorflow/lite/micro/kernels/activations.cc ****       return kTfLiteOk;
 186:../src/tensorflow_lite/tensorflow/lite/micro/kernels/activations.cc ****     }
 187:../src/tensorflow_lite/tensorflow/lite/micro/kernels/activations.cc ****     default: {
 188:../src/tensorflow_lite/tensorflow/lite/micro/kernels/activations.cc ****       TF_LITE_KERNEL_LOG(context, "Only float32 is supported currently, got %s",
 189:../src/tensorflow_lite/tensorflow/lite/micro/kernels/activations.cc ****                          TfLiteTypeGetName(input->type));
 190:../src/tensorflow_lite/tensorflow/lite/micro/kernels/activations.cc ****       return kTfLiteError;
 191:../src/tensorflow_lite/tensorflow/lite/micro/kernels/activations.cc ****     }
 192:../src/tensorflow_lite/tensorflow/lite/micro/kernels/activations.cc ****   }
 193:../src/tensorflow_lite/tensorflow/lite/micro/kernels/activations.cc **** }
 194:../src/tensorflow_lite/tensorflow/lite/micro/kernels/activations.cc **** 
 195:../src/tensorflow_lite/tensorflow/lite/micro/kernels/activations.cc **** void* Relu6Init(TfLiteContext* context, const char* buffer, size_t length) {
  65              		.loc 1 195 0
  66              		.cfi_startproc
  67              		@ args = 0, pretend = 0, frame = 0
  68              		@ frame_needed = 0, uses_anonymous_args = 0
  69              	.LVL4:
 196:../src/tensorflow_lite/tensorflow/lite/micro/kernels/activations.cc ****   TFLITE_DCHECK(context->AllocatePersistentBuffer != nullptr);
  70              		.loc 1 196 0
  71 0000 383090E5 		ldr	r3, [r0, #56]
  72 0004 000053E3 		cmp	r3, #0
  73 0008 0100000A 		beq	.L13
 197:../src/tensorflow_lite/tensorflow/lite/micro/kernels/activations.cc ****   return context->AllocatePersistentBuffer(context, sizeof(Relu6OpData));
  74              		.loc 1 197 0
  75 000c 0410A0E3 		mov	r1, #4
  76              	.LVL5:
  77 0010 13FF2FE1 		bx	r3
  78              	.LVL6:
  79              	.L13:
 195:../src/tensorflow_lite/tensorflow/lite/micro/kernels/activations.cc ****   TFLITE_DCHECK(context->AllocatePersistentBuffer != nullptr);
  80              		.loc 1 195 0 discriminator 1
  81 0014 10402DE9 		push	{r4, lr}
  82              		.save {r4, lr}
  83              		.cfi_def_cfa_offset 8
  84              		.cfi_offset 4, -8
  85              		.cfi_offset 14, -4
 196:../src/tensorflow_lite/tensorflow/lite/micro/kernels/activations.cc ****   TFLITE_DCHECK(context->AllocatePersistentBuffer != nullptr);
  86              		.loc 1 196 0 discriminator 1
  87 0018 FEFFFFEB 		bl	abort
  88              	.LVL7:
  89              		.cfi_endproc
  90              	.LFE4182:
  91              		.fnend
  93              		.section	.text._ZN6tflite3ops5micro11activations12Relu6PrepareEP13TfLiteContextP10TfLiteNode,"ax",
  94              		.align	2
  95              		.global	_ZN6tflite3ops5micro11activations12Relu6PrepareEP13TfLiteContextP10TfLiteNode
  96              		.syntax unified
  97              		.arm
  98              		.fpu neon
 100              	_ZN6tflite3ops5micro11activations12Relu6PrepareEP13TfLiteContextP10TfLiteNode:
 101              		.fnstart
 102              	.LFB4183:
 198:../src/tensorflow_lite/tensorflow/lite/micro/kernels/activations.cc **** }
 199:../src/tensorflow_lite/tensorflow/lite/micro/kernels/activations.cc **** 
 200:../src/tensorflow_lite/tensorflow/lite/micro/kernels/activations.cc **** TfLiteStatus Relu6Prepare(TfLiteContext* context, TfLiteNode* node) {
 103              		.loc 1 200 0
 104              		.cfi_startproc
 105              		@ args = 0, pretend = 0, frame = 0
 106              		@ frame_needed = 0, uses_anonymous_args = 0
 107              	.LVL8:
 108 0000 30402DE9 		push	{r4, r5, lr}
 109              		.save {r4, r5, lr}
 110              		.cfi_def_cfa_offset 12
 111              		.cfi_offset 4, -12
 112              		.cfi_offset 5, -8
 113              		.cfi_offset 14, -4
 114              		.pad #12
 115 0004 0CD04DE2 		sub	sp, sp, #12
 116              		.cfi_def_cfa_offset 24
 201:../src/tensorflow_lite/tensorflow/lite/micro/kernels/activations.cc ****   TFLITE_DCHECK(node->user_data != nullptr);
 117              		.loc 1 201 0
 118 0008 104091E5 		ldr	r4, [r1, #16]
 119 000c 000054E3 		cmp	r4, #0
 120 0010 4500000A 		beq	.L27
 121              	.LVL9:
 202:../src/tensorflow_lite/tensorflow/lite/micro/kernels/activations.cc ****   Relu6OpData* data = static_cast<Relu6OpData*>(node->user_data);
 203:../src/tensorflow_lite/tensorflow/lite/micro/kernels/activations.cc **** 
 204:../src/tensorflow_lite/tensorflow/lite/micro/kernels/activations.cc ****   const TfLiteTensor* input = GetInput(context, node, kInputTensor);
 122              		.loc 1 204 0
 123 0014 0020A0E3 		mov	r2, #0
 124 0018 0050A0E1 		mov	r5, r0
 125 001c FEFFFFEB 		bl	_ZN6tflite8GetInputEPK13TfLiteContextPK10TfLiteNodei
 126              	.LVL10:
 205:../src/tensorflow_lite/tensorflow/lite/micro/kernels/activations.cc ****   TF_LITE_ENSURE(context, input != nullptr);
 127              		.loc 1 205 0
 128 0020 000050E3 		cmp	r0, #0
 129 0024 3300000A 		beq	.L28
 206:../src/tensorflow_lite/tensorflow/lite/micro/kernels/activations.cc **** 
 207:../src/tensorflow_lite/tensorflow/lite/micro/kernels/activations.cc ****   if (input->type == kTfLiteInt8) {
 130              		.loc 1 207 0
 131 0028 0030D0E5 		ldrb	r3, [r0]	@ zero_extendqisi2
 132 002c 090053E3 		cmp	r3, #9
 133 0030 1A00000A 		beq	.L29
 208:../src/tensorflow_lite/tensorflow/lite/micro/kernels/activations.cc ****     data->six_int8 = FloatToQuantizedType<int8_t>(6.0f, input->params.scale,
 209:../src/tensorflow_lite/tensorflow/lite/micro/kernels/activations.cc ****                                                   input->params.zero_point);
 210:../src/tensorflow_lite/tensorflow/lite/micro/kernels/activations.cc ****     data->zero_int8 = input->params.zero_point;
 211:../src/tensorflow_lite/tensorflow/lite/micro/kernels/activations.cc ****   } else if (input->type == kTfLiteUInt8) {
 134              		.loc 1 211 0
 135 0034 030053E3 		cmp	r3, #3
 212:../src/tensorflow_lite/tensorflow/lite/micro/kernels/activations.cc ****     data->six_uint8 = FloatToQuantizedType<uint8_t>(6.0f, input->params.scale,
 213:../src/tensorflow_lite/tensorflow/lite/micro/kernels/activations.cc ****                                                     input->params.zero_point);
 214:../src/tensorflow_lite/tensorflow/lite/micro/kernels/activations.cc ****     data->zero_uint8 = input->params.zero_point;
 215:../src/tensorflow_lite/tensorflow/lite/micro/kernels/activations.cc ****   }
 216:../src/tensorflow_lite/tensorflow/lite/micro/kernels/activations.cc **** 
 217:../src/tensorflow_lite/tensorflow/lite/micro/kernels/activations.cc ****   return kTfLiteOk;
 136              		.loc 1 217 0
 137 0038 0000A013 		movne	r0, #0
 138              	.LVL11:
 211:../src/tensorflow_lite/tensorflow/lite/micro/kernels/activations.cc ****     data->six_uint8 = FloatToQuantizedType<uint8_t>(6.0f, input->params.scale,
 139              		.loc 1 211 0
 140 003c 0100000A 		beq	.L30
 141              	.LVL12:
 142              	.L17:
 218:../src/tensorflow_lite/tensorflow/lite/micro/kernels/activations.cc **** }
 143              		.loc 1 218 0
 144 0040 0CD08DE2 		add	sp, sp, #12
 145              		.cfi_remember_state
 146              		.cfi_def_cfa_offset 12
 147              		@ sp needed
 148 0044 3080BDE8 		pop	{r4, r5, pc}
 149              	.LVL13:
 150              	.L30:
 151              		.cfi_restore_state
 152              	.LBB253:
 153              	.LBB254:
 154              		.file 2 "C:/Renesas/e2studio_2021_01_workspace_RZA2M_ANPR/ANPR_RZA2M_EBK/src/tensorflow_lite/tenso
   1:C:/Renesas/e2studio_2021_01_workspace_RZA2M_ANPR/ANPR_RZA2M_EBK/src/tensorflow_lite/tensorflow/lite/micro\micro_utils.h **** /* Copyright 2019 The TensorFlow Authors. All Rights Reserved.
   2:C:/Renesas/e2studio_2021_01_workspace_RZA2M_ANPR/ANPR_RZA2M_EBK/src/tensorflow_lite/tensorflow/lite/micro\micro_utils.h **** 
   3:C:/Renesas/e2studio_2021_01_workspace_RZA2M_ANPR/ANPR_RZA2M_EBK/src/tensorflow_lite/tensorflow/lite/micro\micro_utils.h **** Licensed under the Apache License, Version 2.0 (the "License");
   4:C:/Renesas/e2studio_2021_01_workspace_RZA2M_ANPR/ANPR_RZA2M_EBK/src/tensorflow_lite/tensorflow/lite/micro\micro_utils.h **** you may not use this file except in compliance with the License.
   5:C:/Renesas/e2studio_2021_01_workspace_RZA2M_ANPR/ANPR_RZA2M_EBK/src/tensorflow_lite/tensorflow/lite/micro\micro_utils.h **** You may obtain a copy of the License at
   6:C:/Renesas/e2studio_2021_01_workspace_RZA2M_ANPR/ANPR_RZA2M_EBK/src/tensorflow_lite/tensorflow/lite/micro\micro_utils.h **** 
   7:C:/Renesas/e2studio_2021_01_workspace_RZA2M_ANPR/ANPR_RZA2M_EBK/src/tensorflow_lite/tensorflow/lite/micro\micro_utils.h ****     http://www.apache.org/licenses/LICENSE-2.0
   8:C:/Renesas/e2studio_2021_01_workspace_RZA2M_ANPR/ANPR_RZA2M_EBK/src/tensorflow_lite/tensorflow/lite/micro\micro_utils.h **** 
   9:C:/Renesas/e2studio_2021_01_workspace_RZA2M_ANPR/ANPR_RZA2M_EBK/src/tensorflow_lite/tensorflow/lite/micro\micro_utils.h **** Unless required by applicable law or agreed to in writing, software
  10:C:/Renesas/e2studio_2021_01_workspace_RZA2M_ANPR/ANPR_RZA2M_EBK/src/tensorflow_lite/tensorflow/lite/micro\micro_utils.h **** distributed under the License is distributed on an "AS IS" BASIS,
  11:C:/Renesas/e2studio_2021_01_workspace_RZA2M_ANPR/ANPR_RZA2M_EBK/src/tensorflow_lite/tensorflow/lite/micro\micro_utils.h **** WITHOUT WARRANTIES OR CONDITIONS OF ANY KIND, either express or implied.
  12:C:/Renesas/e2studio_2021_01_workspace_RZA2M_ANPR/ANPR_RZA2M_EBK/src/tensorflow_lite/tensorflow/lite/micro\micro_utils.h **** See the License for the specific language governing permissions and
  13:C:/Renesas/e2studio_2021_01_workspace_RZA2M_ANPR/ANPR_RZA2M_EBK/src/tensorflow_lite/tensorflow/lite/micro\micro_utils.h **** limitations under the License.
  14:C:/Renesas/e2studio_2021_01_workspace_RZA2M_ANPR/ANPR_RZA2M_EBK/src/tensorflow_lite/tensorflow/lite/micro\micro_utils.h **** ==============================================================================*/
  15:C:/Renesas/e2studio_2021_01_workspace_RZA2M_ANPR/ANPR_RZA2M_EBK/src/tensorflow_lite/tensorflow/lite/micro\micro_utils.h **** 
  16:C:/Renesas/e2studio_2021_01_workspace_RZA2M_ANPR/ANPR_RZA2M_EBK/src/tensorflow_lite/tensorflow/lite/micro\micro_utils.h **** #ifndef TENSORFLOW_LITE_MICRO_MICRO_UTILS_H_
  17:C:/Renesas/e2studio_2021_01_workspace_RZA2M_ANPR/ANPR_RZA2M_EBK/src/tensorflow_lite/tensorflow/lite/micro\micro_utils.h **** #define TENSORFLOW_LITE_MICRO_MICRO_UTILS_H_
  18:C:/Renesas/e2studio_2021_01_workspace_RZA2M_ANPR/ANPR_RZA2M_EBK/src/tensorflow_lite/tensorflow/lite/micro\micro_utils.h **** 
  19:C:/Renesas/e2studio_2021_01_workspace_RZA2M_ANPR/ANPR_RZA2M_EBK/src/tensorflow_lite/tensorflow/lite/micro\micro_utils.h **** #include <algorithm>
  20:C:/Renesas/e2studio_2021_01_workspace_RZA2M_ANPR/ANPR_RZA2M_EBK/src/tensorflow_lite/tensorflow/lite/micro\micro_utils.h **** #include <cmath>
  21:C:/Renesas/e2studio_2021_01_workspace_RZA2M_ANPR/ANPR_RZA2M_EBK/src/tensorflow_lite/tensorflow/lite/micro\micro_utils.h **** #include <cstdint>
  22:C:/Renesas/e2studio_2021_01_workspace_RZA2M_ANPR/ANPR_RZA2M_EBK/src/tensorflow_lite/tensorflow/lite/micro\micro_utils.h **** #include <limits>
  23:C:/Renesas/e2studio_2021_01_workspace_RZA2M_ANPR/ANPR_RZA2M_EBK/src/tensorflow_lite/tensorflow/lite/micro\micro_utils.h **** 
  24:C:/Renesas/e2studio_2021_01_workspace_RZA2M_ANPR/ANPR_RZA2M_EBK/src/tensorflow_lite/tensorflow/lite/micro\micro_utils.h **** #include "tensorflow/lite/c/common.h"
  25:C:/Renesas/e2studio_2021_01_workspace_RZA2M_ANPR/ANPR_RZA2M_EBK/src/tensorflow_lite/tensorflow/lite/micro\micro_utils.h **** 
  26:C:/Renesas/e2studio_2021_01_workspace_RZA2M_ANPR/ANPR_RZA2M_EBK/src/tensorflow_lite/tensorflow/lite/micro\micro_utils.h **** namespace tflite {
  27:C:/Renesas/e2studio_2021_01_workspace_RZA2M_ANPR/ANPR_RZA2M_EBK/src/tensorflow_lite/tensorflow/lite/micro\micro_utils.h **** 
  28:C:/Renesas/e2studio_2021_01_workspace_RZA2M_ANPR/ANPR_RZA2M_EBK/src/tensorflow_lite/tensorflow/lite/micro\micro_utils.h **** // Returns number of elements in the shape array.
  29:C:/Renesas/e2studio_2021_01_workspace_RZA2M_ANPR/ANPR_RZA2M_EBK/src/tensorflow_lite/tensorflow/lite/micro\micro_utils.h **** 
  30:C:/Renesas/e2studio_2021_01_workspace_RZA2M_ANPR/ANPR_RZA2M_EBK/src/tensorflow_lite/tensorflow/lite/micro\micro_utils.h **** int ElementCount(const TfLiteIntArray& dims);
  31:C:/Renesas/e2studio_2021_01_workspace_RZA2M_ANPR/ANPR_RZA2M_EBK/src/tensorflow_lite/tensorflow/lite/micro\micro_utils.h **** 
  32:C:/Renesas/e2studio_2021_01_workspace_RZA2M_ANPR/ANPR_RZA2M_EBK/src/tensorflow_lite/tensorflow/lite/micro\micro_utils.h **** // Converts a float value into a quantized value.  Note that large values (close
  33:C:/Renesas/e2studio_2021_01_workspace_RZA2M_ANPR/ANPR_RZA2M_EBK/src/tensorflow_lite/tensorflow/lite/micro\micro_utils.h **** // to max int and min int) may see significant error due to a lack of floating
  34:C:/Renesas/e2studio_2021_01_workspace_RZA2M_ANPR/ANPR_RZA2M_EBK/src/tensorflow_lite/tensorflow/lite/micro\micro_utils.h **** // point granularity for large values.
  35:C:/Renesas/e2studio_2021_01_workspace_RZA2M_ANPR/ANPR_RZA2M_EBK/src/tensorflow_lite/tensorflow/lite/micro\micro_utils.h **** template <typename T>
  36:C:/Renesas/e2studio_2021_01_workspace_RZA2M_ANPR/ANPR_RZA2M_EBK/src/tensorflow_lite/tensorflow/lite/micro\micro_utils.h **** T FloatToQuantizedType(const float value, const float scale, int zero_point) {
  37:C:/Renesas/e2studio_2021_01_workspace_RZA2M_ANPR/ANPR_RZA2M_EBK/src/tensorflow_lite/tensorflow/lite/micro\micro_utils.h ****   int32_t result = round(value / scale) + zero_point;
 155              		.loc 2 37 0
 156 0048 037AD0ED 		vldr.32	s15, [r0, #12]
 157 004c 087AB1EE 		vmov.f32	s14, #6.0e+0
 158              	.LBE254:
 159              	.LBE253:
 213:../src/tensorflow_lite/tensorflow/lite/micro/kernels/activations.cc ****     data->zero_uint8 = input->params.zero_point;
 160              		.loc 1 213 0
 161 0050 105090E5 		ldr	r5, [r0, #16]
 162              	.LVL14:
 163              	.LBB260:
 164              	.LBB259:
 165              		.loc 2 37 0
 166 0054 270A87EE 		vdiv.f32	s0, s14, s15
 167 0058 C00AB7EE 		vcvt.f64.f32	d0, s0
 168 005c FEFFFFEB 		bl	round
 169              	.LVL15:
 170 0060 905A07EE 		vmov	s15, r5	@ int
 171 0064 E70BF8EE 		vcvt.f64.s32	d16, s15
 172 0068 800B30EE 		vadd.f64	d0, d16, d0
 173 006c C07BFDEE 		vcvt.s32.f64	s15, d0
 174 0070 903A17EE 		vmov	r3, s15	@ int
 175              	.LVL16:
 176              	.LBB255:
 177              	.LBB256:
 178              		.file 3 "c:\\program files (x86)\\gnu tools arm embedded\\6 2017-q2-update\\arm-none-eabi\\include
   1:c:\program files (x86)\gnu tools arm embedded\6 2017-q2-update\arm-none-eabi\include\c++\6.3.1\bits\stl_algobase.h **** // Core algorithmic facilities -*- C++ -*-
   2:c:\program files (x86)\gnu tools arm embedded\6 2017-q2-update\arm-none-eabi\include\c++\6.3.1\bits\stl_algobase.h **** 
   3:c:\program files (x86)\gnu tools arm embedded\6 2017-q2-update\arm-none-eabi\include\c++\6.3.1\bits\stl_algobase.h **** // Copyright (C) 2001-2016 Free Software Foundation, Inc.
   4:c:\program files (x86)\gnu tools arm embedded\6 2017-q2-update\arm-none-eabi\include\c++\6.3.1\bits\stl_algobase.h **** //
   5:c:\program files (x86)\gnu tools arm embedded\6 2017-q2-update\arm-none-eabi\include\c++\6.3.1\bits\stl_algobase.h **** // This file is part of the GNU ISO C++ Library.  This library is free
   6:c:\program files (x86)\gnu tools arm embedded\6 2017-q2-update\arm-none-eabi\include\c++\6.3.1\bits\stl_algobase.h **** // software; you can redistribute it and/or modify it under the
   7:c:\program files (x86)\gnu tools arm embedded\6 2017-q2-update\arm-none-eabi\include\c++\6.3.1\bits\stl_algobase.h **** // terms of the GNU General Public License as published by the
   8:c:\program files (x86)\gnu tools arm embedded\6 2017-q2-update\arm-none-eabi\include\c++\6.3.1\bits\stl_algobase.h **** // Free Software Foundation; either version 3, or (at your option)
   9:c:\program files (x86)\gnu tools arm embedded\6 2017-q2-update\arm-none-eabi\include\c++\6.3.1\bits\stl_algobase.h **** // any later version.
  10:c:\program files (x86)\gnu tools arm embedded\6 2017-q2-update\arm-none-eabi\include\c++\6.3.1\bits\stl_algobase.h **** 
  11:c:\program files (x86)\gnu tools arm embedded\6 2017-q2-update\arm-none-eabi\include\c++\6.3.1\bits\stl_algobase.h **** // This library is distributed in the hope that it will be useful,
  12:c:\program files (x86)\gnu tools arm embedded\6 2017-q2-update\arm-none-eabi\include\c++\6.3.1\bits\stl_algobase.h **** // but WITHOUT ANY WARRANTY; without even the implied warranty of
  13:c:\program files (x86)\gnu tools arm embedded\6 2017-q2-update\arm-none-eabi\include\c++\6.3.1\bits\stl_algobase.h **** // MERCHANTABILITY or FITNESS FOR A PARTICULAR PURPOSE.  See the
  14:c:\program files (x86)\gnu tools arm embedded\6 2017-q2-update\arm-none-eabi\include\c++\6.3.1\bits\stl_algobase.h **** // GNU General Public License for more details.
  15:c:\program files (x86)\gnu tools arm embedded\6 2017-q2-update\arm-none-eabi\include\c++\6.3.1\bits\stl_algobase.h **** 
  16:c:\program files (x86)\gnu tools arm embedded\6 2017-q2-update\arm-none-eabi\include\c++\6.3.1\bits\stl_algobase.h **** // Under Section 7 of GPL version 3, you are granted additional
  17:c:\program files (x86)\gnu tools arm embedded\6 2017-q2-update\arm-none-eabi\include\c++\6.3.1\bits\stl_algobase.h **** // permissions described in the GCC Runtime Library Exception, version
  18:c:\program files (x86)\gnu tools arm embedded\6 2017-q2-update\arm-none-eabi\include\c++\6.3.1\bits\stl_algobase.h **** // 3.1, as published by the Free Software Foundation.
  19:c:\program files (x86)\gnu tools arm embedded\6 2017-q2-update\arm-none-eabi\include\c++\6.3.1\bits\stl_algobase.h **** 
  20:c:\program files (x86)\gnu tools arm embedded\6 2017-q2-update\arm-none-eabi\include\c++\6.3.1\bits\stl_algobase.h **** // You should have received a copy of the GNU General Public License and
  21:c:\program files (x86)\gnu tools arm embedded\6 2017-q2-update\arm-none-eabi\include\c++\6.3.1\bits\stl_algobase.h **** // a copy of the GCC Runtime Library Exception along with this program;
  22:c:\program files (x86)\gnu tools arm embedded\6 2017-q2-update\arm-none-eabi\include\c++\6.3.1\bits\stl_algobase.h **** // see the files COPYING3 and COPYING.RUNTIME respectively.  If not, see
  23:c:\program files (x86)\gnu tools arm embedded\6 2017-q2-update\arm-none-eabi\include\c++\6.3.1\bits\stl_algobase.h **** // <http://www.gnu.org/licenses/>.
  24:c:\program files (x86)\gnu tools arm embedded\6 2017-q2-update\arm-none-eabi\include\c++\6.3.1\bits\stl_algobase.h **** 
  25:c:\program files (x86)\gnu tools arm embedded\6 2017-q2-update\arm-none-eabi\include\c++\6.3.1\bits\stl_algobase.h **** /*
  26:c:\program files (x86)\gnu tools arm embedded\6 2017-q2-update\arm-none-eabi\include\c++\6.3.1\bits\stl_algobase.h ****  *
  27:c:\program files (x86)\gnu tools arm embedded\6 2017-q2-update\arm-none-eabi\include\c++\6.3.1\bits\stl_algobase.h ****  * Copyright (c) 1994
  28:c:\program files (x86)\gnu tools arm embedded\6 2017-q2-update\arm-none-eabi\include\c++\6.3.1\bits\stl_algobase.h ****  * Hewlett-Packard Company
  29:c:\program files (x86)\gnu tools arm embedded\6 2017-q2-update\arm-none-eabi\include\c++\6.3.1\bits\stl_algobase.h ****  *
  30:c:\program files (x86)\gnu tools arm embedded\6 2017-q2-update\arm-none-eabi\include\c++\6.3.1\bits\stl_algobase.h ****  * Permission to use, copy, modify, distribute and sell this software
  31:c:\program files (x86)\gnu tools arm embedded\6 2017-q2-update\arm-none-eabi\include\c++\6.3.1\bits\stl_algobase.h ****  * and its documentation for any purpose is hereby granted without fee,
  32:c:\program files (x86)\gnu tools arm embedded\6 2017-q2-update\arm-none-eabi\include\c++\6.3.1\bits\stl_algobase.h ****  * provided that the above copyright notice appear in all copies and
  33:c:\program files (x86)\gnu tools arm embedded\6 2017-q2-update\arm-none-eabi\include\c++\6.3.1\bits\stl_algobase.h ****  * that both that copyright notice and this permission notice appear
  34:c:\program files (x86)\gnu tools arm embedded\6 2017-q2-update\arm-none-eabi\include\c++\6.3.1\bits\stl_algobase.h ****  * in supporting documentation.  Hewlett-Packard Company makes no
  35:c:\program files (x86)\gnu tools arm embedded\6 2017-q2-update\arm-none-eabi\include\c++\6.3.1\bits\stl_algobase.h ****  * representations about the suitability of this software for any
  36:c:\program files (x86)\gnu tools arm embedded\6 2017-q2-update\arm-none-eabi\include\c++\6.3.1\bits\stl_algobase.h ****  * purpose.  It is provided "as is" without express or implied warranty.
  37:c:\program files (x86)\gnu tools arm embedded\6 2017-q2-update\arm-none-eabi\include\c++\6.3.1\bits\stl_algobase.h ****  *
  38:c:\program files (x86)\gnu tools arm embedded\6 2017-q2-update\arm-none-eabi\include\c++\6.3.1\bits\stl_algobase.h ****  *
  39:c:\program files (x86)\gnu tools arm embedded\6 2017-q2-update\arm-none-eabi\include\c++\6.3.1\bits\stl_algobase.h ****  * Copyright (c) 1996-1998
  40:c:\program files (x86)\gnu tools arm embedded\6 2017-q2-update\arm-none-eabi\include\c++\6.3.1\bits\stl_algobase.h ****  * Silicon Graphics Computer Systems, Inc.
  41:c:\program files (x86)\gnu tools arm embedded\6 2017-q2-update\arm-none-eabi\include\c++\6.3.1\bits\stl_algobase.h ****  *
  42:c:\program files (x86)\gnu tools arm embedded\6 2017-q2-update\arm-none-eabi\include\c++\6.3.1\bits\stl_algobase.h ****  * Permission to use, copy, modify, distribute and sell this software
  43:c:\program files (x86)\gnu tools arm embedded\6 2017-q2-update\arm-none-eabi\include\c++\6.3.1\bits\stl_algobase.h ****  * and its documentation for any purpose is hereby granted without fee,
  44:c:\program files (x86)\gnu tools arm embedded\6 2017-q2-update\arm-none-eabi\include\c++\6.3.1\bits\stl_algobase.h ****  * provided that the above copyright notice appear in all copies and
  45:c:\program files (x86)\gnu tools arm embedded\6 2017-q2-update\arm-none-eabi\include\c++\6.3.1\bits\stl_algobase.h ****  * that both that copyright notice and this permission notice appear
  46:c:\program files (x86)\gnu tools arm embedded\6 2017-q2-update\arm-none-eabi\include\c++\6.3.1\bits\stl_algobase.h ****  * in supporting documentation.  Silicon Graphics makes no
  47:c:\program files (x86)\gnu tools arm embedded\6 2017-q2-update\arm-none-eabi\include\c++\6.3.1\bits\stl_algobase.h ****  * representations about the suitability of this software for any
  48:c:\program files (x86)\gnu tools arm embedded\6 2017-q2-update\arm-none-eabi\include\c++\6.3.1\bits\stl_algobase.h ****  * purpose.  It is provided "as is" without express or implied warranty.
  49:c:\program files (x86)\gnu tools arm embedded\6 2017-q2-update\arm-none-eabi\include\c++\6.3.1\bits\stl_algobase.h ****  */
  50:c:\program files (x86)\gnu tools arm embedded\6 2017-q2-update\arm-none-eabi\include\c++\6.3.1\bits\stl_algobase.h **** 
  51:c:\program files (x86)\gnu tools arm embedded\6 2017-q2-update\arm-none-eabi\include\c++\6.3.1\bits\stl_algobase.h **** /** @file bits/stl_algobase.h
  52:c:\program files (x86)\gnu tools arm embedded\6 2017-q2-update\arm-none-eabi\include\c++\6.3.1\bits\stl_algobase.h ****  *  This is an internal header file, included by other library headers.
  53:c:\program files (x86)\gnu tools arm embedded\6 2017-q2-update\arm-none-eabi\include\c++\6.3.1\bits\stl_algobase.h ****  *  Do not attempt to use it directly. @headername{algorithm}
  54:c:\program files (x86)\gnu tools arm embedded\6 2017-q2-update\arm-none-eabi\include\c++\6.3.1\bits\stl_algobase.h ****  */
  55:c:\program files (x86)\gnu tools arm embedded\6 2017-q2-update\arm-none-eabi\include\c++\6.3.1\bits\stl_algobase.h **** 
  56:c:\program files (x86)\gnu tools arm embedded\6 2017-q2-update\arm-none-eabi\include\c++\6.3.1\bits\stl_algobase.h **** #ifndef _STL_ALGOBASE_H
  57:c:\program files (x86)\gnu tools arm embedded\6 2017-q2-update\arm-none-eabi\include\c++\6.3.1\bits\stl_algobase.h **** #define _STL_ALGOBASE_H 1
  58:c:\program files (x86)\gnu tools arm embedded\6 2017-q2-update\arm-none-eabi\include\c++\6.3.1\bits\stl_algobase.h **** 
  59:c:\program files (x86)\gnu tools arm embedded\6 2017-q2-update\arm-none-eabi\include\c++\6.3.1\bits\stl_algobase.h **** #include <bits/c++config.h>
  60:c:\program files (x86)\gnu tools arm embedded\6 2017-q2-update\arm-none-eabi\include\c++\6.3.1\bits\stl_algobase.h **** #include <bits/functexcept.h>
  61:c:\program files (x86)\gnu tools arm embedded\6 2017-q2-update\arm-none-eabi\include\c++\6.3.1\bits\stl_algobase.h **** #include <bits/cpp_type_traits.h>
  62:c:\program files (x86)\gnu tools arm embedded\6 2017-q2-update\arm-none-eabi\include\c++\6.3.1\bits\stl_algobase.h **** #include <ext/type_traits.h>
  63:c:\program files (x86)\gnu tools arm embedded\6 2017-q2-update\arm-none-eabi\include\c++\6.3.1\bits\stl_algobase.h **** #include <ext/numeric_traits.h>
  64:c:\program files (x86)\gnu tools arm embedded\6 2017-q2-update\arm-none-eabi\include\c++\6.3.1\bits\stl_algobase.h **** #include <bits/stl_pair.h>
  65:c:\program files (x86)\gnu tools arm embedded\6 2017-q2-update\arm-none-eabi\include\c++\6.3.1\bits\stl_algobase.h **** #include <bits/stl_iterator_base_types.h>
  66:c:\program files (x86)\gnu tools arm embedded\6 2017-q2-update\arm-none-eabi\include\c++\6.3.1\bits\stl_algobase.h **** #include <bits/stl_iterator_base_funcs.h>
  67:c:\program files (x86)\gnu tools arm embedded\6 2017-q2-update\arm-none-eabi\include\c++\6.3.1\bits\stl_algobase.h **** #include <bits/stl_iterator.h>
  68:c:\program files (x86)\gnu tools arm embedded\6 2017-q2-update\arm-none-eabi\include\c++\6.3.1\bits\stl_algobase.h **** #include <bits/concept_check.h>
  69:c:\program files (x86)\gnu tools arm embedded\6 2017-q2-update\arm-none-eabi\include\c++\6.3.1\bits\stl_algobase.h **** #include <debug/debug.h>
  70:c:\program files (x86)\gnu tools arm embedded\6 2017-q2-update\arm-none-eabi\include\c++\6.3.1\bits\stl_algobase.h **** #include <bits/move.h> // For std::swap and _GLIBCXX_MOVE
  71:c:\program files (x86)\gnu tools arm embedded\6 2017-q2-update\arm-none-eabi\include\c++\6.3.1\bits\stl_algobase.h **** #include <bits/predefined_ops.h>
  72:c:\program files (x86)\gnu tools arm embedded\6 2017-q2-update\arm-none-eabi\include\c++\6.3.1\bits\stl_algobase.h **** 
  73:c:\program files (x86)\gnu tools arm embedded\6 2017-q2-update\arm-none-eabi\include\c++\6.3.1\bits\stl_algobase.h **** namespace std _GLIBCXX_VISIBILITY(default)
  74:c:\program files (x86)\gnu tools arm embedded\6 2017-q2-update\arm-none-eabi\include\c++\6.3.1\bits\stl_algobase.h **** {
  75:c:\program files (x86)\gnu tools arm embedded\6 2017-q2-update\arm-none-eabi\include\c++\6.3.1\bits\stl_algobase.h **** _GLIBCXX_BEGIN_NAMESPACE_VERSION
  76:c:\program files (x86)\gnu tools arm embedded\6 2017-q2-update\arm-none-eabi\include\c++\6.3.1\bits\stl_algobase.h **** 
  77:c:\program files (x86)\gnu tools arm embedded\6 2017-q2-update\arm-none-eabi\include\c++\6.3.1\bits\stl_algobase.h **** #if __cplusplus < 201103L
  78:c:\program files (x86)\gnu tools arm embedded\6 2017-q2-update\arm-none-eabi\include\c++\6.3.1\bits\stl_algobase.h ****   // See http://gcc.gnu.org/ml/libstdc++/2004-08/msg00167.html: in a
  79:c:\program files (x86)\gnu tools arm embedded\6 2017-q2-update\arm-none-eabi\include\c++\6.3.1\bits\stl_algobase.h ****   // nutshell, we are partially implementing the resolution of DR 187,
  80:c:\program files (x86)\gnu tools arm embedded\6 2017-q2-update\arm-none-eabi\include\c++\6.3.1\bits\stl_algobase.h ****   // when it's safe, i.e., the value_types are equal.
  81:c:\program files (x86)\gnu tools arm embedded\6 2017-q2-update\arm-none-eabi\include\c++\6.3.1\bits\stl_algobase.h ****   template<bool _BoolType>
  82:c:\program files (x86)\gnu tools arm embedded\6 2017-q2-update\arm-none-eabi\include\c++\6.3.1\bits\stl_algobase.h ****     struct __iter_swap
  83:c:\program files (x86)\gnu tools arm embedded\6 2017-q2-update\arm-none-eabi\include\c++\6.3.1\bits\stl_algobase.h ****     {
  84:c:\program files (x86)\gnu tools arm embedded\6 2017-q2-update\arm-none-eabi\include\c++\6.3.1\bits\stl_algobase.h ****       template<typename _ForwardIterator1, typename _ForwardIterator2>
  85:c:\program files (x86)\gnu tools arm embedded\6 2017-q2-update\arm-none-eabi\include\c++\6.3.1\bits\stl_algobase.h ****         static void
  86:c:\program files (x86)\gnu tools arm embedded\6 2017-q2-update\arm-none-eabi\include\c++\6.3.1\bits\stl_algobase.h ****         iter_swap(_ForwardIterator1 __a, _ForwardIterator2 __b)
  87:c:\program files (x86)\gnu tools arm embedded\6 2017-q2-update\arm-none-eabi\include\c++\6.3.1\bits\stl_algobase.h ****         {
  88:c:\program files (x86)\gnu tools arm embedded\6 2017-q2-update\arm-none-eabi\include\c++\6.3.1\bits\stl_algobase.h ****           typedef typename iterator_traits<_ForwardIterator1>::value_type
  89:c:\program files (x86)\gnu tools arm embedded\6 2017-q2-update\arm-none-eabi\include\c++\6.3.1\bits\stl_algobase.h ****             _ValueType1;
  90:c:\program files (x86)\gnu tools arm embedded\6 2017-q2-update\arm-none-eabi\include\c++\6.3.1\bits\stl_algobase.h ****           _ValueType1 __tmp = _GLIBCXX_MOVE(*__a);
  91:c:\program files (x86)\gnu tools arm embedded\6 2017-q2-update\arm-none-eabi\include\c++\6.3.1\bits\stl_algobase.h ****           *__a = _GLIBCXX_MOVE(*__b);
  92:c:\program files (x86)\gnu tools arm embedded\6 2017-q2-update\arm-none-eabi\include\c++\6.3.1\bits\stl_algobase.h ****           *__b = _GLIBCXX_MOVE(__tmp);
  93:c:\program files (x86)\gnu tools arm embedded\6 2017-q2-update\arm-none-eabi\include\c++\6.3.1\bits\stl_algobase.h **** 	}
  94:c:\program files (x86)\gnu tools arm embedded\6 2017-q2-update\arm-none-eabi\include\c++\6.3.1\bits\stl_algobase.h ****     };
  95:c:\program files (x86)\gnu tools arm embedded\6 2017-q2-update\arm-none-eabi\include\c++\6.3.1\bits\stl_algobase.h **** 
  96:c:\program files (x86)\gnu tools arm embedded\6 2017-q2-update\arm-none-eabi\include\c++\6.3.1\bits\stl_algobase.h ****   template<>
  97:c:\program files (x86)\gnu tools arm embedded\6 2017-q2-update\arm-none-eabi\include\c++\6.3.1\bits\stl_algobase.h ****     struct __iter_swap<true>
  98:c:\program files (x86)\gnu tools arm embedded\6 2017-q2-update\arm-none-eabi\include\c++\6.3.1\bits\stl_algobase.h ****     {
  99:c:\program files (x86)\gnu tools arm embedded\6 2017-q2-update\arm-none-eabi\include\c++\6.3.1\bits\stl_algobase.h ****       template<typename _ForwardIterator1, typename _ForwardIterator2>
 100:c:\program files (x86)\gnu tools arm embedded\6 2017-q2-update\arm-none-eabi\include\c++\6.3.1\bits\stl_algobase.h ****         static void 
 101:c:\program files (x86)\gnu tools arm embedded\6 2017-q2-update\arm-none-eabi\include\c++\6.3.1\bits\stl_algobase.h ****         iter_swap(_ForwardIterator1 __a, _ForwardIterator2 __b)
 102:c:\program files (x86)\gnu tools arm embedded\6 2017-q2-update\arm-none-eabi\include\c++\6.3.1\bits\stl_algobase.h ****         {
 103:c:\program files (x86)\gnu tools arm embedded\6 2017-q2-update\arm-none-eabi\include\c++\6.3.1\bits\stl_algobase.h ****           swap(*__a, *__b);
 104:c:\program files (x86)\gnu tools arm embedded\6 2017-q2-update\arm-none-eabi\include\c++\6.3.1\bits\stl_algobase.h ****         }
 105:c:\program files (x86)\gnu tools arm embedded\6 2017-q2-update\arm-none-eabi\include\c++\6.3.1\bits\stl_algobase.h ****     };
 106:c:\program files (x86)\gnu tools arm embedded\6 2017-q2-update\arm-none-eabi\include\c++\6.3.1\bits\stl_algobase.h **** #endif
 107:c:\program files (x86)\gnu tools arm embedded\6 2017-q2-update\arm-none-eabi\include\c++\6.3.1\bits\stl_algobase.h **** 
 108:c:\program files (x86)\gnu tools arm embedded\6 2017-q2-update\arm-none-eabi\include\c++\6.3.1\bits\stl_algobase.h ****   /**
 109:c:\program files (x86)\gnu tools arm embedded\6 2017-q2-update\arm-none-eabi\include\c++\6.3.1\bits\stl_algobase.h ****    *  @brief Swaps the contents of two iterators.
 110:c:\program files (x86)\gnu tools arm embedded\6 2017-q2-update\arm-none-eabi\include\c++\6.3.1\bits\stl_algobase.h ****    *  @ingroup mutating_algorithms
 111:c:\program files (x86)\gnu tools arm embedded\6 2017-q2-update\arm-none-eabi\include\c++\6.3.1\bits\stl_algobase.h ****    *  @param  __a  An iterator.
 112:c:\program files (x86)\gnu tools arm embedded\6 2017-q2-update\arm-none-eabi\include\c++\6.3.1\bits\stl_algobase.h ****    *  @param  __b  Another iterator.
 113:c:\program files (x86)\gnu tools arm embedded\6 2017-q2-update\arm-none-eabi\include\c++\6.3.1\bits\stl_algobase.h ****    *  @return   Nothing.
 114:c:\program files (x86)\gnu tools arm embedded\6 2017-q2-update\arm-none-eabi\include\c++\6.3.1\bits\stl_algobase.h ****    *
 115:c:\program files (x86)\gnu tools arm embedded\6 2017-q2-update\arm-none-eabi\include\c++\6.3.1\bits\stl_algobase.h ****    *  This function swaps the values pointed to by two iterators, not the
 116:c:\program files (x86)\gnu tools arm embedded\6 2017-q2-update\arm-none-eabi\include\c++\6.3.1\bits\stl_algobase.h ****    *  iterators themselves.
 117:c:\program files (x86)\gnu tools arm embedded\6 2017-q2-update\arm-none-eabi\include\c++\6.3.1\bits\stl_algobase.h ****   */
 118:c:\program files (x86)\gnu tools arm embedded\6 2017-q2-update\arm-none-eabi\include\c++\6.3.1\bits\stl_algobase.h ****   template<typename _ForwardIterator1, typename _ForwardIterator2>
 119:c:\program files (x86)\gnu tools arm embedded\6 2017-q2-update\arm-none-eabi\include\c++\6.3.1\bits\stl_algobase.h ****     inline void
 120:c:\program files (x86)\gnu tools arm embedded\6 2017-q2-update\arm-none-eabi\include\c++\6.3.1\bits\stl_algobase.h ****     iter_swap(_ForwardIterator1 __a, _ForwardIterator2 __b)
 121:c:\program files (x86)\gnu tools arm embedded\6 2017-q2-update\arm-none-eabi\include\c++\6.3.1\bits\stl_algobase.h ****     {
 122:c:\program files (x86)\gnu tools arm embedded\6 2017-q2-update\arm-none-eabi\include\c++\6.3.1\bits\stl_algobase.h ****       // concept requirements
 123:c:\program files (x86)\gnu tools arm embedded\6 2017-q2-update\arm-none-eabi\include\c++\6.3.1\bits\stl_algobase.h ****       __glibcxx_function_requires(_Mutable_ForwardIteratorConcept<
 124:c:\program files (x86)\gnu tools arm embedded\6 2017-q2-update\arm-none-eabi\include\c++\6.3.1\bits\stl_algobase.h **** 				  _ForwardIterator1>)
 125:c:\program files (x86)\gnu tools arm embedded\6 2017-q2-update\arm-none-eabi\include\c++\6.3.1\bits\stl_algobase.h ****       __glibcxx_function_requires(_Mutable_ForwardIteratorConcept<
 126:c:\program files (x86)\gnu tools arm embedded\6 2017-q2-update\arm-none-eabi\include\c++\6.3.1\bits\stl_algobase.h **** 				  _ForwardIterator2>)
 127:c:\program files (x86)\gnu tools arm embedded\6 2017-q2-update\arm-none-eabi\include\c++\6.3.1\bits\stl_algobase.h **** 
 128:c:\program files (x86)\gnu tools arm embedded\6 2017-q2-update\arm-none-eabi\include\c++\6.3.1\bits\stl_algobase.h **** #if __cplusplus < 201103L
 129:c:\program files (x86)\gnu tools arm embedded\6 2017-q2-update\arm-none-eabi\include\c++\6.3.1\bits\stl_algobase.h ****       typedef typename iterator_traits<_ForwardIterator1>::value_type
 130:c:\program files (x86)\gnu tools arm embedded\6 2017-q2-update\arm-none-eabi\include\c++\6.3.1\bits\stl_algobase.h **** 	_ValueType1;
 131:c:\program files (x86)\gnu tools arm embedded\6 2017-q2-update\arm-none-eabi\include\c++\6.3.1\bits\stl_algobase.h ****       typedef typename iterator_traits<_ForwardIterator2>::value_type
 132:c:\program files (x86)\gnu tools arm embedded\6 2017-q2-update\arm-none-eabi\include\c++\6.3.1\bits\stl_algobase.h **** 	_ValueType2;
 133:c:\program files (x86)\gnu tools arm embedded\6 2017-q2-update\arm-none-eabi\include\c++\6.3.1\bits\stl_algobase.h **** 
 134:c:\program files (x86)\gnu tools arm embedded\6 2017-q2-update\arm-none-eabi\include\c++\6.3.1\bits\stl_algobase.h ****       __glibcxx_function_requires(_ConvertibleConcept<_ValueType1,
 135:c:\program files (x86)\gnu tools arm embedded\6 2017-q2-update\arm-none-eabi\include\c++\6.3.1\bits\stl_algobase.h **** 				  _ValueType2>)
 136:c:\program files (x86)\gnu tools arm embedded\6 2017-q2-update\arm-none-eabi\include\c++\6.3.1\bits\stl_algobase.h ****       __glibcxx_function_requires(_ConvertibleConcept<_ValueType2,
 137:c:\program files (x86)\gnu tools arm embedded\6 2017-q2-update\arm-none-eabi\include\c++\6.3.1\bits\stl_algobase.h **** 				  _ValueType1>)
 138:c:\program files (x86)\gnu tools arm embedded\6 2017-q2-update\arm-none-eabi\include\c++\6.3.1\bits\stl_algobase.h **** 
 139:c:\program files (x86)\gnu tools arm embedded\6 2017-q2-update\arm-none-eabi\include\c++\6.3.1\bits\stl_algobase.h ****       typedef typename iterator_traits<_ForwardIterator1>::reference
 140:c:\program files (x86)\gnu tools arm embedded\6 2017-q2-update\arm-none-eabi\include\c++\6.3.1\bits\stl_algobase.h **** 	_ReferenceType1;
 141:c:\program files (x86)\gnu tools arm embedded\6 2017-q2-update\arm-none-eabi\include\c++\6.3.1\bits\stl_algobase.h ****       typedef typename iterator_traits<_ForwardIterator2>::reference
 142:c:\program files (x86)\gnu tools arm embedded\6 2017-q2-update\arm-none-eabi\include\c++\6.3.1\bits\stl_algobase.h **** 	_ReferenceType2;
 143:c:\program files (x86)\gnu tools arm embedded\6 2017-q2-update\arm-none-eabi\include\c++\6.3.1\bits\stl_algobase.h ****       std::__iter_swap<__are_same<_ValueType1, _ValueType2>::__value
 144:c:\program files (x86)\gnu tools arm embedded\6 2017-q2-update\arm-none-eabi\include\c++\6.3.1\bits\stl_algobase.h **** 	&& __are_same<_ValueType1&, _ReferenceType1>::__value
 145:c:\program files (x86)\gnu tools arm embedded\6 2017-q2-update\arm-none-eabi\include\c++\6.3.1\bits\stl_algobase.h **** 	&& __are_same<_ValueType2&, _ReferenceType2>::__value>::
 146:c:\program files (x86)\gnu tools arm embedded\6 2017-q2-update\arm-none-eabi\include\c++\6.3.1\bits\stl_algobase.h **** 	iter_swap(__a, __b);
 147:c:\program files (x86)\gnu tools arm embedded\6 2017-q2-update\arm-none-eabi\include\c++\6.3.1\bits\stl_algobase.h **** #else
 148:c:\program files (x86)\gnu tools arm embedded\6 2017-q2-update\arm-none-eabi\include\c++\6.3.1\bits\stl_algobase.h ****       swap(*__a, *__b);
 149:c:\program files (x86)\gnu tools arm embedded\6 2017-q2-update\arm-none-eabi\include\c++\6.3.1\bits\stl_algobase.h **** #endif
 150:c:\program files (x86)\gnu tools arm embedded\6 2017-q2-update\arm-none-eabi\include\c++\6.3.1\bits\stl_algobase.h ****     }
 151:c:\program files (x86)\gnu tools arm embedded\6 2017-q2-update\arm-none-eabi\include\c++\6.3.1\bits\stl_algobase.h **** 
 152:c:\program files (x86)\gnu tools arm embedded\6 2017-q2-update\arm-none-eabi\include\c++\6.3.1\bits\stl_algobase.h ****   /**
 153:c:\program files (x86)\gnu tools arm embedded\6 2017-q2-update\arm-none-eabi\include\c++\6.3.1\bits\stl_algobase.h ****    *  @brief Swap the elements of two sequences.
 154:c:\program files (x86)\gnu tools arm embedded\6 2017-q2-update\arm-none-eabi\include\c++\6.3.1\bits\stl_algobase.h ****    *  @ingroup mutating_algorithms
 155:c:\program files (x86)\gnu tools arm embedded\6 2017-q2-update\arm-none-eabi\include\c++\6.3.1\bits\stl_algobase.h ****    *  @param  __first1  A forward iterator.
 156:c:\program files (x86)\gnu tools arm embedded\6 2017-q2-update\arm-none-eabi\include\c++\6.3.1\bits\stl_algobase.h ****    *  @param  __last1   A forward iterator.
 157:c:\program files (x86)\gnu tools arm embedded\6 2017-q2-update\arm-none-eabi\include\c++\6.3.1\bits\stl_algobase.h ****    *  @param  __first2  A forward iterator.
 158:c:\program files (x86)\gnu tools arm embedded\6 2017-q2-update\arm-none-eabi\include\c++\6.3.1\bits\stl_algobase.h ****    *  @return   An iterator equal to @p first2+(last1-first1).
 159:c:\program files (x86)\gnu tools arm embedded\6 2017-q2-update\arm-none-eabi\include\c++\6.3.1\bits\stl_algobase.h ****    *
 160:c:\program files (x86)\gnu tools arm embedded\6 2017-q2-update\arm-none-eabi\include\c++\6.3.1\bits\stl_algobase.h ****    *  Swaps each element in the range @p [first1,last1) with the
 161:c:\program files (x86)\gnu tools arm embedded\6 2017-q2-update\arm-none-eabi\include\c++\6.3.1\bits\stl_algobase.h ****    *  corresponding element in the range @p [first2,(last1-first1)).
 162:c:\program files (x86)\gnu tools arm embedded\6 2017-q2-update\arm-none-eabi\include\c++\6.3.1\bits\stl_algobase.h ****    *  The ranges must not overlap.
 163:c:\program files (x86)\gnu tools arm embedded\6 2017-q2-update\arm-none-eabi\include\c++\6.3.1\bits\stl_algobase.h ****   */
 164:c:\program files (x86)\gnu tools arm embedded\6 2017-q2-update\arm-none-eabi\include\c++\6.3.1\bits\stl_algobase.h ****   template<typename _ForwardIterator1, typename _ForwardIterator2>
 165:c:\program files (x86)\gnu tools arm embedded\6 2017-q2-update\arm-none-eabi\include\c++\6.3.1\bits\stl_algobase.h ****     _ForwardIterator2
 166:c:\program files (x86)\gnu tools arm embedded\6 2017-q2-update\arm-none-eabi\include\c++\6.3.1\bits\stl_algobase.h ****     swap_ranges(_ForwardIterator1 __first1, _ForwardIterator1 __last1,
 167:c:\program files (x86)\gnu tools arm embedded\6 2017-q2-update\arm-none-eabi\include\c++\6.3.1\bits\stl_algobase.h **** 		_ForwardIterator2 __first2)
 168:c:\program files (x86)\gnu tools arm embedded\6 2017-q2-update\arm-none-eabi\include\c++\6.3.1\bits\stl_algobase.h ****     {
 169:c:\program files (x86)\gnu tools arm embedded\6 2017-q2-update\arm-none-eabi\include\c++\6.3.1\bits\stl_algobase.h ****       // concept requirements
 170:c:\program files (x86)\gnu tools arm embedded\6 2017-q2-update\arm-none-eabi\include\c++\6.3.1\bits\stl_algobase.h ****       __glibcxx_function_requires(_Mutable_ForwardIteratorConcept<
 171:c:\program files (x86)\gnu tools arm embedded\6 2017-q2-update\arm-none-eabi\include\c++\6.3.1\bits\stl_algobase.h **** 				  _ForwardIterator1>)
 172:c:\program files (x86)\gnu tools arm embedded\6 2017-q2-update\arm-none-eabi\include\c++\6.3.1\bits\stl_algobase.h ****       __glibcxx_function_requires(_Mutable_ForwardIteratorConcept<
 173:c:\program files (x86)\gnu tools arm embedded\6 2017-q2-update\arm-none-eabi\include\c++\6.3.1\bits\stl_algobase.h **** 				  _ForwardIterator2>)
 174:c:\program files (x86)\gnu tools arm embedded\6 2017-q2-update\arm-none-eabi\include\c++\6.3.1\bits\stl_algobase.h ****       __glibcxx_requires_valid_range(__first1, __last1);
 175:c:\program files (x86)\gnu tools arm embedded\6 2017-q2-update\arm-none-eabi\include\c++\6.3.1\bits\stl_algobase.h **** 
 176:c:\program files (x86)\gnu tools arm embedded\6 2017-q2-update\arm-none-eabi\include\c++\6.3.1\bits\stl_algobase.h ****       for (; __first1 != __last1; ++__first1, (void)++__first2)
 177:c:\program files (x86)\gnu tools arm embedded\6 2017-q2-update\arm-none-eabi\include\c++\6.3.1\bits\stl_algobase.h **** 	std::iter_swap(__first1, __first2);
 178:c:\program files (x86)\gnu tools arm embedded\6 2017-q2-update\arm-none-eabi\include\c++\6.3.1\bits\stl_algobase.h ****       return __first2;
 179:c:\program files (x86)\gnu tools arm embedded\6 2017-q2-update\arm-none-eabi\include\c++\6.3.1\bits\stl_algobase.h ****     }
 180:c:\program files (x86)\gnu tools arm embedded\6 2017-q2-update\arm-none-eabi\include\c++\6.3.1\bits\stl_algobase.h **** 
 181:c:\program files (x86)\gnu tools arm embedded\6 2017-q2-update\arm-none-eabi\include\c++\6.3.1\bits\stl_algobase.h ****   /**
 182:c:\program files (x86)\gnu tools arm embedded\6 2017-q2-update\arm-none-eabi\include\c++\6.3.1\bits\stl_algobase.h ****    *  @brief This does what you think it does.
 183:c:\program files (x86)\gnu tools arm embedded\6 2017-q2-update\arm-none-eabi\include\c++\6.3.1\bits\stl_algobase.h ****    *  @ingroup sorting_algorithms
 184:c:\program files (x86)\gnu tools arm embedded\6 2017-q2-update\arm-none-eabi\include\c++\6.3.1\bits\stl_algobase.h ****    *  @param  __a  A thing of arbitrary type.
 185:c:\program files (x86)\gnu tools arm embedded\6 2017-q2-update\arm-none-eabi\include\c++\6.3.1\bits\stl_algobase.h ****    *  @param  __b  Another thing of arbitrary type.
 186:c:\program files (x86)\gnu tools arm embedded\6 2017-q2-update\arm-none-eabi\include\c++\6.3.1\bits\stl_algobase.h ****    *  @return   The lesser of the parameters.
 187:c:\program files (x86)\gnu tools arm embedded\6 2017-q2-update\arm-none-eabi\include\c++\6.3.1\bits\stl_algobase.h ****    *
 188:c:\program files (x86)\gnu tools arm embedded\6 2017-q2-update\arm-none-eabi\include\c++\6.3.1\bits\stl_algobase.h ****    *  This is the simple classic generic implementation.  It will work on
 189:c:\program files (x86)\gnu tools arm embedded\6 2017-q2-update\arm-none-eabi\include\c++\6.3.1\bits\stl_algobase.h ****    *  temporary expressions, since they are only evaluated once, unlike a
 190:c:\program files (x86)\gnu tools arm embedded\6 2017-q2-update\arm-none-eabi\include\c++\6.3.1\bits\stl_algobase.h ****    *  preprocessor macro.
 191:c:\program files (x86)\gnu tools arm embedded\6 2017-q2-update\arm-none-eabi\include\c++\6.3.1\bits\stl_algobase.h ****   */
 192:c:\program files (x86)\gnu tools arm embedded\6 2017-q2-update\arm-none-eabi\include\c++\6.3.1\bits\stl_algobase.h ****   template<typename _Tp>
 193:c:\program files (x86)\gnu tools arm embedded\6 2017-q2-update\arm-none-eabi\include\c++\6.3.1\bits\stl_algobase.h ****     _GLIBCXX14_CONSTEXPR
 194:c:\program files (x86)\gnu tools arm embedded\6 2017-q2-update\arm-none-eabi\include\c++\6.3.1\bits\stl_algobase.h ****     inline const _Tp&
 195:c:\program files (x86)\gnu tools arm embedded\6 2017-q2-update\arm-none-eabi\include\c++\6.3.1\bits\stl_algobase.h ****     min(const _Tp& __a, const _Tp& __b)
 196:c:\program files (x86)\gnu tools arm embedded\6 2017-q2-update\arm-none-eabi\include\c++\6.3.1\bits\stl_algobase.h ****     {
 197:c:\program files (x86)\gnu tools arm embedded\6 2017-q2-update\arm-none-eabi\include\c++\6.3.1\bits\stl_algobase.h ****       // concept requirements
 198:c:\program files (x86)\gnu tools arm embedded\6 2017-q2-update\arm-none-eabi\include\c++\6.3.1\bits\stl_algobase.h ****       __glibcxx_function_requires(_LessThanComparableConcept<_Tp>)
 199:c:\program files (x86)\gnu tools arm embedded\6 2017-q2-update\arm-none-eabi\include\c++\6.3.1\bits\stl_algobase.h ****       //return __b < __a ? __b : __a;
 200:c:\program files (x86)\gnu tools arm embedded\6 2017-q2-update\arm-none-eabi\include\c++\6.3.1\bits\stl_algobase.h ****       if (__b < __a)
 201:c:\program files (x86)\gnu tools arm embedded\6 2017-q2-update\arm-none-eabi\include\c++\6.3.1\bits\stl_algobase.h **** 	return __b;
 202:c:\program files (x86)\gnu tools arm embedded\6 2017-q2-update\arm-none-eabi\include\c++\6.3.1\bits\stl_algobase.h ****       return __a;
 203:c:\program files (x86)\gnu tools arm embedded\6 2017-q2-update\arm-none-eabi\include\c++\6.3.1\bits\stl_algobase.h ****     }
 204:c:\program files (x86)\gnu tools arm embedded\6 2017-q2-update\arm-none-eabi\include\c++\6.3.1\bits\stl_algobase.h **** 
 205:c:\program files (x86)\gnu tools arm embedded\6 2017-q2-update\arm-none-eabi\include\c++\6.3.1\bits\stl_algobase.h ****   /**
 206:c:\program files (x86)\gnu tools arm embedded\6 2017-q2-update\arm-none-eabi\include\c++\6.3.1\bits\stl_algobase.h ****    *  @brief This does what you think it does.
 207:c:\program files (x86)\gnu tools arm embedded\6 2017-q2-update\arm-none-eabi\include\c++\6.3.1\bits\stl_algobase.h ****    *  @ingroup sorting_algorithms
 208:c:\program files (x86)\gnu tools arm embedded\6 2017-q2-update\arm-none-eabi\include\c++\6.3.1\bits\stl_algobase.h ****    *  @param  __a  A thing of arbitrary type.
 209:c:\program files (x86)\gnu tools arm embedded\6 2017-q2-update\arm-none-eabi\include\c++\6.3.1\bits\stl_algobase.h ****    *  @param  __b  Another thing of arbitrary type.
 210:c:\program files (x86)\gnu tools arm embedded\6 2017-q2-update\arm-none-eabi\include\c++\6.3.1\bits\stl_algobase.h ****    *  @return   The greater of the parameters.
 211:c:\program files (x86)\gnu tools arm embedded\6 2017-q2-update\arm-none-eabi\include\c++\6.3.1\bits\stl_algobase.h ****    *
 212:c:\program files (x86)\gnu tools arm embedded\6 2017-q2-update\arm-none-eabi\include\c++\6.3.1\bits\stl_algobase.h ****    *  This is the simple classic generic implementation.  It will work on
 213:c:\program files (x86)\gnu tools arm embedded\6 2017-q2-update\arm-none-eabi\include\c++\6.3.1\bits\stl_algobase.h ****    *  temporary expressions, since they are only evaluated once, unlike a
 214:c:\program files (x86)\gnu tools arm embedded\6 2017-q2-update\arm-none-eabi\include\c++\6.3.1\bits\stl_algobase.h ****    *  preprocessor macro.
 215:c:\program files (x86)\gnu tools arm embedded\6 2017-q2-update\arm-none-eabi\include\c++\6.3.1\bits\stl_algobase.h ****   */
 216:c:\program files (x86)\gnu tools arm embedded\6 2017-q2-update\arm-none-eabi\include\c++\6.3.1\bits\stl_algobase.h ****   template<typename _Tp>
 217:c:\program files (x86)\gnu tools arm embedded\6 2017-q2-update\arm-none-eabi\include\c++\6.3.1\bits\stl_algobase.h ****     _GLIBCXX14_CONSTEXPR
 218:c:\program files (x86)\gnu tools arm embedded\6 2017-q2-update\arm-none-eabi\include\c++\6.3.1\bits\stl_algobase.h ****     inline const _Tp&
 219:c:\program files (x86)\gnu tools arm embedded\6 2017-q2-update\arm-none-eabi\include\c++\6.3.1\bits\stl_algobase.h ****     max(const _Tp& __a, const _Tp& __b)
 220:c:\program files (x86)\gnu tools arm embedded\6 2017-q2-update\arm-none-eabi\include\c++\6.3.1\bits\stl_algobase.h ****     {
 221:c:\program files (x86)\gnu tools arm embedded\6 2017-q2-update\arm-none-eabi\include\c++\6.3.1\bits\stl_algobase.h ****       // concept requirements
 222:c:\program files (x86)\gnu tools arm embedded\6 2017-q2-update\arm-none-eabi\include\c++\6.3.1\bits\stl_algobase.h ****       __glibcxx_function_requires(_LessThanComparableConcept<_Tp>)
 223:c:\program files (x86)\gnu tools arm embedded\6 2017-q2-update\arm-none-eabi\include\c++\6.3.1\bits\stl_algobase.h ****       //return  __a < __b ? __b : __a;
 224:c:\program files (x86)\gnu tools arm embedded\6 2017-q2-update\arm-none-eabi\include\c++\6.3.1\bits\stl_algobase.h ****       if (__a < __b)
 179              		.loc 3 224 0
 180 0074 000053E3 		cmp	r3, #0
 181 0078 0030A0D3 		movle	r3, #0
 182              	.LVL17:
 183 007c 020000DA 		ble	.L20
 184              	.LVL18:
 185              	.LBE256:
 186              	.LBE255:
 187              	.LBB257:
 188              	.LBB258:
 200:c:\program files (x86)\gnu tools arm embedded\6 2017-q2-update\arm-none-eabi\include\c++\6.3.1\bits\stl_algobase.h **** 	return __b;
 189              		.loc 3 200 0
 190 0080 FE0053E3 		cmp	r3, #254
 191 0084 7330EFD6 		uxtble	r3, r3
 192              	.LVL19:
 193 0088 FF30A0C3 		movgt	r3, #255
 194              	.LVL20:
 195              	.L20:
 196              	.LBE258:
 197              	.LBE257:
 198              	.LBE259:
 199              	.LBE260:
 217:../src/tensorflow_lite/tensorflow/lite/micro/kernels/activations.cc **** }
 200              		.loc 1 217 0
 201 008c 0000A0E3 		mov	r0, #0
 212:../src/tensorflow_lite/tensorflow/lite/micro/kernels/activations.cc ****                                                     input->params.zero_point);
 202              		.loc 1 212 0
 203 0090 0230C4E5 		strb	r3, [r4, #2]
 214:../src/tensorflow_lite/tensorflow/lite/micro/kernels/activations.cc ****   }
 204              		.loc 1 214 0
 205 0094 0350C4E5 		strb	r5, [r4, #3]
 206              		.loc 1 218 0
 207 0098 0CD08DE2 		add	sp, sp, #12
 208              		.cfi_remember_state
 209              		.cfi_def_cfa_offset 12
 210              		@ sp needed
 211 009c 3080BDE8 		pop	{r4, r5, pc}
 212              	.LVL21:
 213              	.L29:
 214              		.cfi_restore_state
 215              	.LBB261:
 216              	.LBB262:
 217              		.loc 2 37 0
 218 00a0 037AD0ED 		vldr.32	s15, [r0, #12]
 219 00a4 087AB1EE 		vmov.f32	s14, #6.0e+0
 220              	.LBE262:
 221              	.LBE261:
 209:../src/tensorflow_lite/tensorflow/lite/micro/kernels/activations.cc ****     data->zero_int8 = input->params.zero_point;
 222              		.loc 1 209 0
 223 00a8 105090E5 		ldr	r5, [r0, #16]
 224              	.LVL22:
 225              	.LBB268:
 226              	.LBB267:
 227              		.loc 2 37 0
 228 00ac 270A87EE 		vdiv.f32	s0, s14, s15
 229 00b0 C00AB7EE 		vcvt.f64.f32	d0, s0
 230 00b4 FEFFFFEB 		bl	round
 231              	.LVL23:
 232 00b8 905A07EE 		vmov	s15, r5	@ int
 233 00bc E70BF8EE 		vcvt.f64.s32	d16, s15
 234 00c0 800B30EE 		vadd.f64	d0, d16, d0
 235 00c4 C07BFDEE 		vcvt.s32.f64	s15, d0
 236 00c8 903A17EE 		vmov	r3, s15	@ int
 237              	.LVL24:
 238              	.LBB263:
 239              	.LBB264:
 240              		.loc 3 224 0
 241 00cc 7F0073E3 		cmn	r3, #127
 242 00d0 7F30E0B3 		mvnlt	r3, #127
 243              	.LVL25:
 244 00d4 020000BA 		blt	.L19
 245              	.LVL26:
 246              	.LBE264:
 247              	.LBE263:
 248              	.LBB265:
 249              	.LBB266:
 200:c:\program files (x86)\gnu tools arm embedded\6 2017-q2-update\arm-none-eabi\include\c++\6.3.1\bits\stl_algobase.h **** 	return __b;
 250              		.loc 3 200 0
 251 00d8 7E0053E3 		cmp	r3, #126
 252 00dc 7330AFD6 		sxtble	r3, r3
 253              	.LVL27:
 254 00e0 7F30A0C3 		movgt	r3, #127
 255              	.LVL28:
 256              	.L19:
 257              	.LBE266:
 258              	.LBE265:
 259              	.LBE267:
 260              	.LBE268:
 217:../src/tensorflow_lite/tensorflow/lite/micro/kernels/activations.cc **** }
 261              		.loc 1 217 0
 262 00e4 0000A0E3 		mov	r0, #0
 208:../src/tensorflow_lite/tensorflow/lite/micro/kernels/activations.cc ****                                                   input->params.zero_point);
 263              		.loc 1 208 0
 264 00e8 0030C4E5 		strb	r3, [r4]
 210:../src/tensorflow_lite/tensorflow/lite/micro/kernels/activations.cc ****   } else if (input->type == kTfLiteUInt8) {
 265              		.loc 1 210 0
 266 00ec 0150C4E5 		strb	r5, [r4, #1]
 267              		.loc 1 218 0
 268 00f0 0CD08DE2 		add	sp, sp, #12
 269              		.cfi_remember_state
 270              		.cfi_def_cfa_offset 12
 271              		@ sp needed
 272 00f4 3080BDE8 		pop	{r4, r5, pc}
 273              	.LVL29:
 274              	.L28:
 275              		.cfi_restore_state
 276              	.LBB269:
 277              	.LBB270:
 205:../src/tensorflow_lite/tensorflow/lite/micro/kernels/activations.cc **** 
 278              		.loc 1 205 0
 279 00f8 003000E3 		movw	r3, #:lower16:.LC4
 280 00fc 002000E3 		movw	r2, #:lower16:.LC2
 281 0100 003040E3 		movt	r3, #:upper16:.LC4
 282 0104 001000E3 		movw	r1, #:lower16:.LC3
 283 0108 00308DE5 		str	r3, [sp]
 284 010c 0500A0E1 		mov	r0, r5
 285              	.LVL30:
 286 0110 002040E3 		movt	r2, #:upper16:.LC2
 287 0114 001040E3 		movt	r1, #:upper16:.LC3
 288 0118 144095E5 		ldr	r4, [r5, #20]
 289              	.LVL31:
 290 011c CD30A0E3 		mov	r3, #205
 291 0120 34FF2FE1 		blx	r4
 292              	.LVL32:
 293 0124 0100A0E3 		mov	r0, #1
 294 0128 C4FFFFEA 		b	.L17
 295              	.LVL33:
 296              	.L27:
 297              	.LBE270:
 298              	.LBE269:
 201:../src/tensorflow_lite/tensorflow/lite/micro/kernels/activations.cc ****   Relu6OpData* data = static_cast<Relu6OpData*>(node->user_data);
 299              		.loc 1 201 0 discriminator 1
 300 012c FEFFFFEB 		bl	abort
 301              	.LVL34:
 302              		.cfi_endproc
 303              	.LFE4183:
 304              		.fnend
 306              		.section	.text._ZN6tflite3ops5micro11activations11ReluPrepareEP13TfLiteContextP10TfLiteNode,"ax",%
 307              		.align	2
 308              		.global	_ZN6tflite3ops5micro11activations11ReluPrepareEP13TfLiteContextP10TfLiteNode
 309              		.syntax unified
 310              		.arm
 311              		.fpu neon
 313              	_ZN6tflite3ops5micro11activations11ReluPrepareEP13TfLiteContextP10TfLiteNode:
 314              		.fnstart
 315              	.LFB4180:
 137:../src/tensorflow_lite/tensorflow/lite/micro/kernels/activations.cc ****   TFLITE_DCHECK(node->user_data != nullptr);
 316              		.loc 1 137 0
 317              		.cfi_startproc
 318              		.cfi_personality 0,__gxx_personality_v0
 319              		.cfi_lsda 0,.LLSDA4180
 320              		@ args = 0, pretend = 0, frame = 72
 321              		@ frame_needed = 0, uses_anonymous_args = 0
 322              	.LVL35:
 323 0000 F0412DE9 		push	{r4, r5, r6, r7, r8, lr}
 324              		.save {r4, r5, r6, r7, r8, lr}
 325              		.cfi_def_cfa_offset 24
 326              		.cfi_offset 4, -24
 327              		.cfi_offset 5, -20
 328              		.cfi_offset 6, -16
 329              		.cfi_offset 7, -12
 330              		.cfi_offset 8, -8
 331              		.cfi_offset 14, -4
 138:../src/tensorflow_lite/tensorflow/lite/micro/kernels/activations.cc ****   ReluOpData* data = static_cast<ReluOpData*>(node->user_data);
 332              		.loc 1 138 0
 333 0004 105091E5 		ldr	r5, [r1, #16]
 137:../src/tensorflow_lite/tensorflow/lite/micro/kernels/activations.cc ****   TFLITE_DCHECK(node->user_data != nullptr);
 334              		.loc 1 137 0
 335 0008 028B2DED 		vpush.64	{d8}
 336              		.vsave {d8}
 337              		.cfi_def_cfa_offset 32
 338              		.cfi_offset 80, -32
 339              		.cfi_offset 81, -28
 340              		.pad #80
 341 000c 50D04DE2 		sub	sp, sp, #80
 342              		.cfi_def_cfa_offset 112
 138:../src/tensorflow_lite/tensorflow/lite/micro/kernels/activations.cc ****   ReluOpData* data = static_cast<ReluOpData*>(node->user_data);
 343              		.loc 1 138 0
 344 0010 000055E3 		cmp	r5, #0
 345 0014 BF00000A 		beq	.L92
 346              	.LVL36:
 141:../src/tensorflow_lite/tensorflow/lite/micro/kernels/activations.cc ****   TF_LITE_ENSURE(context, input != nullptr);
 347              		.loc 1 141 0
 348 0018 0020A0E3 		mov	r2, #0
 349 001c 0140A0E1 		mov	r4, r1
 350 0020 0070A0E1 		mov	r7, r0
 351              	.LEHB0:
 352 0024 FEFFFFEB 		bl	_ZN6tflite8GetInputEPK13TfLiteContextPK10TfLiteNodei
 353              	.LVL37:
 142:../src/tensorflow_lite/tensorflow/lite/micro/kernels/activations.cc ****   TfLiteTensor* output = GetOutput(context, node, kOutputTensor);
 354              		.loc 1 142 0
 355 0028 006050E2 		subs	r6, r0, #0
 356 002c 1C00000A 		beq	.L93
 143:../src/tensorflow_lite/tensorflow/lite/micro/kernels/activations.cc ****   TF_LITE_ENSURE(context, output != nullptr);
 357              		.loc 1 143 0
 358 0030 0410A0E1 		mov	r1, r4
 359 0034 0020A0E3 		mov	r2, #0
 360 0038 0700A0E1 		mov	r0, r7
 361              	.LVL38:
 362 003c FEFFFFEB 		bl	_ZN6tflite9GetOutputEP13TfLiteContextPK10TfLiteNodei
 363              	.LVL39:
 144:../src/tensorflow_lite/tensorflow/lite/micro/kernels/activations.cc **** 
 364              		.loc 1 144 0
 365 0040 004050E2 		subs	r4, r0, #0
 366              	.LVL40:
 367 0044 A300000A 		beq	.L94
 146:../src/tensorflow_lite/tensorflow/lite/micro/kernels/activations.cc ****     CalculateReluOpData<int8_t>(input, output, data);
 368              		.loc 1 146 0
 369 0048 0030D6E5 		ldrb	r3, [r6]	@ zero_extendqisi2
 370 004c 090053E3 		cmp	r3, #9
 371 0050 2200000A 		beq	.L95
 148:../src/tensorflow_lite/tensorflow/lite/micro/kernels/activations.cc ****     CalculateReluOpData<uint8_t>(input, output, data);
 372              		.loc 1 148 0
 373 0054 030053E3 		cmp	r3, #3
 374 0058 0300000A 		beq	.L96
 375              	.LVL41:
 376              	.L60:
 152:../src/tensorflow_lite/tensorflow/lite/micro/kernels/activations.cc **** }
 377              		.loc 1 152 0
 378 005c 0000A0E3 		mov	r0, #0
 379              	.L34:
 153:../src/tensorflow_lite/tensorflow/lite/micro/kernels/activations.cc **** 
 380              		.loc 1 153 0
 381 0060 50D08DE2 		add	sp, sp, #80
 382              		.cfi_remember_state
 383              		.cfi_def_cfa_offset 32
 384              		@ sp needed
 385 0064 028BBDEC 		vldm	sp!, {d8}
 386              		.cfi_restore 80
 387              		.cfi_restore 81
 388              		.cfi_def_cfa_offset 24
 389 0068 F081BDE8 		pop	{r4, r5, r6, r7, r8, pc}
 390              	.LVL42:
 391              	.L96:
 392              		.cfi_restore_state
 393              	.LBB343:
 394              	.LBB344:
 395              	.LBB345:
 396              	.LBB346:
 397              		.file 4 "C:/Renesas/e2studio_2021_01_workspace_RZA2M_ANPR/ANPR_RZA2M_EBK/src/tensorflow_lite/tenso
   1:C:/Renesas/e2studio_2021_01_workspace_RZA2M_ANPR/ANPR_RZA2M_EBK/src/tensorflow_lite/tensorflow/lite/kernels/internal\tensor_ctypes.h **** /* Copyright 2017 The TensorFlow Authors. All Rights Reserved.
   2:C:/Renesas/e2studio_2021_01_workspace_RZA2M_ANPR/ANPR_RZA2M_EBK/src/tensorflow_lite/tensorflow/lite/kernels/internal\tensor_ctypes.h **** 
   3:C:/Renesas/e2studio_2021_01_workspace_RZA2M_ANPR/ANPR_RZA2M_EBK/src/tensorflow_lite/tensorflow/lite/kernels/internal\tensor_ctypes.h **** Licensed under the Apache License, Version 2.0 (the "License");
   4:C:/Renesas/e2studio_2021_01_workspace_RZA2M_ANPR/ANPR_RZA2M_EBK/src/tensorflow_lite/tensorflow/lite/kernels/internal\tensor_ctypes.h **** you may not use this file except in compliance with the License.
   5:C:/Renesas/e2studio_2021_01_workspace_RZA2M_ANPR/ANPR_RZA2M_EBK/src/tensorflow_lite/tensorflow/lite/kernels/internal\tensor_ctypes.h **** You may obtain a copy of the License at
   6:C:/Renesas/e2studio_2021_01_workspace_RZA2M_ANPR/ANPR_RZA2M_EBK/src/tensorflow_lite/tensorflow/lite/kernels/internal\tensor_ctypes.h **** 
   7:C:/Renesas/e2studio_2021_01_workspace_RZA2M_ANPR/ANPR_RZA2M_EBK/src/tensorflow_lite/tensorflow/lite/kernels/internal\tensor_ctypes.h ****     http://www.apache.org/licenses/LICENSE-2.0
   8:C:/Renesas/e2studio_2021_01_workspace_RZA2M_ANPR/ANPR_RZA2M_EBK/src/tensorflow_lite/tensorflow/lite/kernels/internal\tensor_ctypes.h **** 
   9:C:/Renesas/e2studio_2021_01_workspace_RZA2M_ANPR/ANPR_RZA2M_EBK/src/tensorflow_lite/tensorflow/lite/kernels/internal\tensor_ctypes.h **** Unless required by applicable law or agreed to in writing, software
  10:C:/Renesas/e2studio_2021_01_workspace_RZA2M_ANPR/ANPR_RZA2M_EBK/src/tensorflow_lite/tensorflow/lite/kernels/internal\tensor_ctypes.h **** distributed under the License is distributed on an "AS IS" BASIS,
  11:C:/Renesas/e2studio_2021_01_workspace_RZA2M_ANPR/ANPR_RZA2M_EBK/src/tensorflow_lite/tensorflow/lite/kernels/internal\tensor_ctypes.h **** WITHOUT WARRANTIES OR CONDITIONS OF ANY KIND, either express or implied.
  12:C:/Renesas/e2studio_2021_01_workspace_RZA2M_ANPR/ANPR_RZA2M_EBK/src/tensorflow_lite/tensorflow/lite/kernels/internal\tensor_ctypes.h **** See the License for the specific language governing permissions and
  13:C:/Renesas/e2studio_2021_01_workspace_RZA2M_ANPR/ANPR_RZA2M_EBK/src/tensorflow_lite/tensorflow/lite/kernels/internal\tensor_ctypes.h **** limitations under the License.
  14:C:/Renesas/e2studio_2021_01_workspace_RZA2M_ANPR/ANPR_RZA2M_EBK/src/tensorflow_lite/tensorflow/lite/kernels/internal\tensor_ctypes.h **** ==============================================================================*/
  15:C:/Renesas/e2studio_2021_01_workspace_RZA2M_ANPR/ANPR_RZA2M_EBK/src/tensorflow_lite/tensorflow/lite/kernels/internal\tensor_ctypes.h **** #ifndef TENSORFLOW_LITE_KERNELS_INTERNAL_TENSOR_CTYPES_H_
  16:C:/Renesas/e2studio_2021_01_workspace_RZA2M_ANPR/ANPR_RZA2M_EBK/src/tensorflow_lite/tensorflow/lite/kernels/internal\tensor_ctypes.h **** #define TENSORFLOW_LITE_KERNELS_INTERNAL_TENSOR_CTYPES_H_
  17:C:/Renesas/e2studio_2021_01_workspace_RZA2M_ANPR/ANPR_RZA2M_EBK/src/tensorflow_lite/tensorflow/lite/kernels/internal\tensor_ctypes.h **** 
  18:C:/Renesas/e2studio_2021_01_workspace_RZA2M_ANPR/ANPR_RZA2M_EBK/src/tensorflow_lite/tensorflow/lite/kernels/internal\tensor_ctypes.h **** #include "tensorflow/lite/c/common.h"
  19:C:/Renesas/e2studio_2021_01_workspace_RZA2M_ANPR/ANPR_RZA2M_EBK/src/tensorflow_lite/tensorflow/lite/kernels/internal\tensor_ctypes.h **** #include "tensorflow/lite/kernels/internal/types.h"
  20:C:/Renesas/e2studio_2021_01_workspace_RZA2M_ANPR/ANPR_RZA2M_EBK/src/tensorflow_lite/tensorflow/lite/kernels/internal\tensor_ctypes.h **** 
  21:C:/Renesas/e2studio_2021_01_workspace_RZA2M_ANPR/ANPR_RZA2M_EBK/src/tensorflow_lite/tensorflow/lite/kernels/internal\tensor_ctypes.h **** namespace tflite {
  22:C:/Renesas/e2studio_2021_01_workspace_RZA2M_ANPR/ANPR_RZA2M_EBK/src/tensorflow_lite/tensorflow/lite/kernels/internal\tensor_ctypes.h **** 
  23:C:/Renesas/e2studio_2021_01_workspace_RZA2M_ANPR/ANPR_RZA2M_EBK/src/tensorflow_lite/tensorflow/lite/kernels/internal\tensor_ctypes.h **** template <typename T>
  24:C:/Renesas/e2studio_2021_01_workspace_RZA2M_ANPR/ANPR_RZA2M_EBK/src/tensorflow_lite/tensorflow/lite/kernels/internal\tensor_ctypes.h **** inline T* GetTensorData(TfLiteTensor* tensor) {
  25:C:/Renesas/e2studio_2021_01_workspace_RZA2M_ANPR/ANPR_RZA2M_EBK/src/tensorflow_lite/tensorflow/lite/kernels/internal\tensor_ctypes.h ****   return tensor != nullptr ? reinterpret_cast<T*>(tensor->data.raw) : nullptr;
  26:C:/Renesas/e2studio_2021_01_workspace_RZA2M_ANPR/ANPR_RZA2M_EBK/src/tensorflow_lite/tensorflow/lite/kernels/internal\tensor_ctypes.h **** }
  27:C:/Renesas/e2studio_2021_01_workspace_RZA2M_ANPR/ANPR_RZA2M_EBK/src/tensorflow_lite/tensorflow/lite/kernels/internal\tensor_ctypes.h **** 
  28:C:/Renesas/e2studio_2021_01_workspace_RZA2M_ANPR/ANPR_RZA2M_EBK/src/tensorflow_lite/tensorflow/lite/kernels/internal\tensor_ctypes.h **** template <typename T>
  29:C:/Renesas/e2studio_2021_01_workspace_RZA2M_ANPR/ANPR_RZA2M_EBK/src/tensorflow_lite/tensorflow/lite/kernels/internal\tensor_ctypes.h **** inline const T* GetTensorData(const TfLiteTensor* tensor) {
  30:C:/Renesas/e2studio_2021_01_workspace_RZA2M_ANPR/ANPR_RZA2M_EBK/src/tensorflow_lite/tensorflow/lite/kernels/internal\tensor_ctypes.h ****   return tensor != nullptr ? reinterpret_cast<const T*>(tensor->data.raw)
  31:C:/Renesas/e2studio_2021_01_workspace_RZA2M_ANPR/ANPR_RZA2M_EBK/src/tensorflow_lite/tensorflow/lite/kernels/internal\tensor_ctypes.h ****                            : nullptr;
  32:C:/Renesas/e2studio_2021_01_workspace_RZA2M_ANPR/ANPR_RZA2M_EBK/src/tensorflow_lite/tensorflow/lite/kernels/internal\tensor_ctypes.h **** }
  33:C:/Renesas/e2studio_2021_01_workspace_RZA2M_ANPR/ANPR_RZA2M_EBK/src/tensorflow_lite/tensorflow/lite/kernels/internal\tensor_ctypes.h **** 
  34:C:/Renesas/e2studio_2021_01_workspace_RZA2M_ANPR/ANPR_RZA2M_EBK/src/tensorflow_lite/tensorflow/lite/kernels/internal\tensor_ctypes.h **** inline RuntimeShape GetTensorShape(const TfLiteTensor* tensor) {
  35:C:/Renesas/e2studio_2021_01_workspace_RZA2M_ANPR/ANPR_RZA2M_EBK/src/tensorflow_lite/tensorflow/lite/kernels/internal\tensor_ctypes.h ****   if (tensor == nullptr) {
  36:C:/Renesas/e2studio_2021_01_workspace_RZA2M_ANPR/ANPR_RZA2M_EBK/src/tensorflow_lite/tensorflow/lite/kernels/internal\tensor_ctypes.h ****     return RuntimeShape();
  37:C:/Renesas/e2studio_2021_01_workspace_RZA2M_ANPR/ANPR_RZA2M_EBK/src/tensorflow_lite/tensorflow/lite/kernels/internal\tensor_ctypes.h ****   }
  38:C:/Renesas/e2studio_2021_01_workspace_RZA2M_ANPR/ANPR_RZA2M_EBK/src/tensorflow_lite/tensorflow/lite/kernels/internal\tensor_ctypes.h **** 
  39:C:/Renesas/e2studio_2021_01_workspace_RZA2M_ANPR/ANPR_RZA2M_EBK/src/tensorflow_lite/tensorflow/lite/kernels/internal\tensor_ctypes.h ****   TfLiteIntArray* dims = tensor->dims;
  40:C:/Renesas/e2studio_2021_01_workspace_RZA2M_ANPR/ANPR_RZA2M_EBK/src/tensorflow_lite/tensorflow/lite/kernels/internal\tensor_ctypes.h ****   const int dims_size = dims->size;
 398              		.loc 4 40 0
 399 006c 088096E5 		ldr	r8, [r6, #8]
 400              	.LBE346:
 401              	.LBE345:
  74:../src/tensorflow_lite/tensorflow/lite/micro/kernels/activations.cc **** 
 402              		.loc 1 74 0
 403 0070 038AD6ED 		vldr.32	s17, [r6, #12]
 404 0074 038A94ED 		vldr.32	s16, [r4, #12]
 405              	.LVL43:
 406              	.LBB359:
 407              	.LBB357:
 408              		.loc 4 40 0
 409 0078 042098E4 		ldr	r2, [r8], #4
 410              	.LVL44:
 411              	.LBB347:
 412              	.LBB348:
 413              	.LBB349:
 414              	.LBB350:
 415              	.LBB351:
 416              		.file 5 "C:/Renesas/e2studio_2021_01_workspace_RZA2M_ANPR/ANPR_RZA2M_EBK/src/tensorflow_lite/tenso
   1:C:/Renesas/e2studio_2021_01_workspace_RZA2M_ANPR/ANPR_RZA2M_EBK/src/tensorflow_lite/tensorflow/lite/kernels/internal\types.h **** /* Copyright 2018 The TensorFlow Authors. All Rights Reserved.
   2:C:/Renesas/e2studio_2021_01_workspace_RZA2M_ANPR/ANPR_RZA2M_EBK/src/tensorflow_lite/tensorflow/lite/kernels/internal\types.h **** 
   3:C:/Renesas/e2studio_2021_01_workspace_RZA2M_ANPR/ANPR_RZA2M_EBK/src/tensorflow_lite/tensorflow/lite/kernels/internal\types.h **** Licensed under the Apache License, Version 2.0 (the "License");
   4:C:/Renesas/e2studio_2021_01_workspace_RZA2M_ANPR/ANPR_RZA2M_EBK/src/tensorflow_lite/tensorflow/lite/kernels/internal\types.h **** you may not use this file except in compliance with the License.
   5:C:/Renesas/e2studio_2021_01_workspace_RZA2M_ANPR/ANPR_RZA2M_EBK/src/tensorflow_lite/tensorflow/lite/kernels/internal\types.h **** You may obtain a copy of the License at
   6:C:/Renesas/e2studio_2021_01_workspace_RZA2M_ANPR/ANPR_RZA2M_EBK/src/tensorflow_lite/tensorflow/lite/kernels/internal\types.h **** 
   7:C:/Renesas/e2studio_2021_01_workspace_RZA2M_ANPR/ANPR_RZA2M_EBK/src/tensorflow_lite/tensorflow/lite/kernels/internal\types.h ****     http://www.apache.org/licenses/LICENSE-2.0
   8:C:/Renesas/e2studio_2021_01_workspace_RZA2M_ANPR/ANPR_RZA2M_EBK/src/tensorflow_lite/tensorflow/lite/kernels/internal\types.h **** 
   9:C:/Renesas/e2studio_2021_01_workspace_RZA2M_ANPR/ANPR_RZA2M_EBK/src/tensorflow_lite/tensorflow/lite/kernels/internal\types.h **** Unless required by applicable law or agreed to in writing, software
  10:C:/Renesas/e2studio_2021_01_workspace_RZA2M_ANPR/ANPR_RZA2M_EBK/src/tensorflow_lite/tensorflow/lite/kernels/internal\types.h **** distributed under the License is distributed on an "AS IS" BASIS,
  11:C:/Renesas/e2studio_2021_01_workspace_RZA2M_ANPR/ANPR_RZA2M_EBK/src/tensorflow_lite/tensorflow/lite/kernels/internal\types.h **** WITHOUT WARRANTIES OR CONDITIONS OF ANY KIND, either express or implied.
  12:C:/Renesas/e2studio_2021_01_workspace_RZA2M_ANPR/ANPR_RZA2M_EBK/src/tensorflow_lite/tensorflow/lite/kernels/internal\types.h **** See the License for the specific language governing permissions and
  13:C:/Renesas/e2studio_2021_01_workspace_RZA2M_ANPR/ANPR_RZA2M_EBK/src/tensorflow_lite/tensorflow/lite/kernels/internal\types.h **** limitations under the License.
  14:C:/Renesas/e2studio_2021_01_workspace_RZA2M_ANPR/ANPR_RZA2M_EBK/src/tensorflow_lite/tensorflow/lite/kernels/internal\types.h **** ==============================================================================*/
  15:C:/Renesas/e2studio_2021_01_workspace_RZA2M_ANPR/ANPR_RZA2M_EBK/src/tensorflow_lite/tensorflow/lite/kernels/internal\types.h **** #ifndef TENSORFLOW_LITE_KERNELS_INTERNAL_TYPES_H_
  16:C:/Renesas/e2studio_2021_01_workspace_RZA2M_ANPR/ANPR_RZA2M_EBK/src/tensorflow_lite/tensorflow/lite/kernels/internal\types.h **** #define TENSORFLOW_LITE_KERNELS_INTERNAL_TYPES_H_
  17:C:/Renesas/e2studio_2021_01_workspace_RZA2M_ANPR/ANPR_RZA2M_EBK/src/tensorflow_lite/tensorflow/lite/kernels/internal\types.h **** 
  18:C:/Renesas/e2studio_2021_01_workspace_RZA2M_ANPR/ANPR_RZA2M_EBK/src/tensorflow_lite/tensorflow/lite/kernels/internal\types.h **** #include <algorithm>
  19:C:/Renesas/e2studio_2021_01_workspace_RZA2M_ANPR/ANPR_RZA2M_EBK/src/tensorflow_lite/tensorflow/lite/kernels/internal\types.h **** #include <cstdint>
  20:C:/Renesas/e2studio_2021_01_workspace_RZA2M_ANPR/ANPR_RZA2M_EBK/src/tensorflow_lite/tensorflow/lite/kernels/internal\types.h **** #include <cstring>
  21:C:/Renesas/e2studio_2021_01_workspace_RZA2M_ANPR/ANPR_RZA2M_EBK/src/tensorflow_lite/tensorflow/lite/kernels/internal\types.h **** #include <initializer_list>
  22:C:/Renesas/e2studio_2021_01_workspace_RZA2M_ANPR/ANPR_RZA2M_EBK/src/tensorflow_lite/tensorflow/lite/kernels/internal\types.h **** 
  23:C:/Renesas/e2studio_2021_01_workspace_RZA2M_ANPR/ANPR_RZA2M_EBK/src/tensorflow_lite/tensorflow/lite/kernels/internal\types.h **** #include "tensorflow/lite/kernels/internal/compatibility.h"
  24:C:/Renesas/e2studio_2021_01_workspace_RZA2M_ANPR/ANPR_RZA2M_EBK/src/tensorflow_lite/tensorflow/lite/kernels/internal\types.h **** 
  25:C:/Renesas/e2studio_2021_01_workspace_RZA2M_ANPR/ANPR_RZA2M_EBK/src/tensorflow_lite/tensorflow/lite/kernels/internal\types.h **** namespace tflite {
  26:C:/Renesas/e2studio_2021_01_workspace_RZA2M_ANPR/ANPR_RZA2M_EBK/src/tensorflow_lite/tensorflow/lite/kernels/internal\types.h **** 
  27:C:/Renesas/e2studio_2021_01_workspace_RZA2M_ANPR/ANPR_RZA2M_EBK/src/tensorflow_lite/tensorflow/lite/kernels/internal\types.h **** enum class FusedActivationFunctionType : uint8_t {
  28:C:/Renesas/e2studio_2021_01_workspace_RZA2M_ANPR/ANPR_RZA2M_EBK/src/tensorflow_lite/tensorflow/lite/kernels/internal\types.h ****   kNone,
  29:C:/Renesas/e2studio_2021_01_workspace_RZA2M_ANPR/ANPR_RZA2M_EBK/src/tensorflow_lite/tensorflow/lite/kernels/internal\types.h ****   kRelu6,
  30:C:/Renesas/e2studio_2021_01_workspace_RZA2M_ANPR/ANPR_RZA2M_EBK/src/tensorflow_lite/tensorflow/lite/kernels/internal\types.h ****   kRelu1,
  31:C:/Renesas/e2studio_2021_01_workspace_RZA2M_ANPR/ANPR_RZA2M_EBK/src/tensorflow_lite/tensorflow/lite/kernels/internal\types.h ****   kRelu
  32:C:/Renesas/e2studio_2021_01_workspace_RZA2M_ANPR/ANPR_RZA2M_EBK/src/tensorflow_lite/tensorflow/lite/kernels/internal\types.h **** };
  33:C:/Renesas/e2studio_2021_01_workspace_RZA2M_ANPR/ANPR_RZA2M_EBK/src/tensorflow_lite/tensorflow/lite/kernels/internal\types.h **** enum class PaddingType : uint8_t { kNone, kSame, kValid };
  34:C:/Renesas/e2studio_2021_01_workspace_RZA2M_ANPR/ANPR_RZA2M_EBK/src/tensorflow_lite/tensorflow/lite/kernels/internal\types.h **** 
  35:C:/Renesas/e2studio_2021_01_workspace_RZA2M_ANPR/ANPR_RZA2M_EBK/src/tensorflow_lite/tensorflow/lite/kernels/internal\types.h **** struct PaddingValues {
  36:C:/Renesas/e2studio_2021_01_workspace_RZA2M_ANPR/ANPR_RZA2M_EBK/src/tensorflow_lite/tensorflow/lite/kernels/internal\types.h ****   int16_t width;
  37:C:/Renesas/e2studio_2021_01_workspace_RZA2M_ANPR/ANPR_RZA2M_EBK/src/tensorflow_lite/tensorflow/lite/kernels/internal\types.h ****   int16_t height;
  38:C:/Renesas/e2studio_2021_01_workspace_RZA2M_ANPR/ANPR_RZA2M_EBK/src/tensorflow_lite/tensorflow/lite/kernels/internal\types.h ****   // offset is used for calculating "remaining" padding, for example, `width`
  39:C:/Renesas/e2studio_2021_01_workspace_RZA2M_ANPR/ANPR_RZA2M_EBK/src/tensorflow_lite/tensorflow/lite/kernels/internal\types.h ****   // is 1 and `width_offset` is 1, so padding_left is 1 while padding_right is
  40:C:/Renesas/e2studio_2021_01_workspace_RZA2M_ANPR/ANPR_RZA2M_EBK/src/tensorflow_lite/tensorflow/lite/kernels/internal\types.h ****   // 1 + 1 = 2.
  41:C:/Renesas/e2studio_2021_01_workspace_RZA2M_ANPR/ANPR_RZA2M_EBK/src/tensorflow_lite/tensorflow/lite/kernels/internal\types.h ****   int16_t width_offset;
  42:C:/Renesas/e2studio_2021_01_workspace_RZA2M_ANPR/ANPR_RZA2M_EBK/src/tensorflow_lite/tensorflow/lite/kernels/internal\types.h ****   // Same as width_offset except it's over the height dimension.
  43:C:/Renesas/e2studio_2021_01_workspace_RZA2M_ANPR/ANPR_RZA2M_EBK/src/tensorflow_lite/tensorflow/lite/kernels/internal\types.h ****   int16_t height_offset;
  44:C:/Renesas/e2studio_2021_01_workspace_RZA2M_ANPR/ANPR_RZA2M_EBK/src/tensorflow_lite/tensorflow/lite/kernels/internal\types.h **** };
  45:C:/Renesas/e2studio_2021_01_workspace_RZA2M_ANPR/ANPR_RZA2M_EBK/src/tensorflow_lite/tensorflow/lite/kernels/internal\types.h **** 
  46:C:/Renesas/e2studio_2021_01_workspace_RZA2M_ANPR/ANPR_RZA2M_EBK/src/tensorflow_lite/tensorflow/lite/kernels/internal\types.h **** struct Padding3DValues {
  47:C:/Renesas/e2studio_2021_01_workspace_RZA2M_ANPR/ANPR_RZA2M_EBK/src/tensorflow_lite/tensorflow/lite/kernels/internal\types.h ****   int16_t width;
  48:C:/Renesas/e2studio_2021_01_workspace_RZA2M_ANPR/ANPR_RZA2M_EBK/src/tensorflow_lite/tensorflow/lite/kernels/internal\types.h ****   int16_t height;
  49:C:/Renesas/e2studio_2021_01_workspace_RZA2M_ANPR/ANPR_RZA2M_EBK/src/tensorflow_lite/tensorflow/lite/kernels/internal\types.h ****   int16_t depth;
  50:C:/Renesas/e2studio_2021_01_workspace_RZA2M_ANPR/ANPR_RZA2M_EBK/src/tensorflow_lite/tensorflow/lite/kernels/internal\types.h ****   // offset is used for calculating "remaining" padding, for example, `width`
  51:C:/Renesas/e2studio_2021_01_workspace_RZA2M_ANPR/ANPR_RZA2M_EBK/src/tensorflow_lite/tensorflow/lite/kernels/internal\types.h ****   // is 1 and `width_offset` is 1, so padding_left is 1 while padding_right is
  52:C:/Renesas/e2studio_2021_01_workspace_RZA2M_ANPR/ANPR_RZA2M_EBK/src/tensorflow_lite/tensorflow/lite/kernels/internal\types.h ****   // 1 + 1 = 2.
  53:C:/Renesas/e2studio_2021_01_workspace_RZA2M_ANPR/ANPR_RZA2M_EBK/src/tensorflow_lite/tensorflow/lite/kernels/internal\types.h ****   int16_t width_offset;
  54:C:/Renesas/e2studio_2021_01_workspace_RZA2M_ANPR/ANPR_RZA2M_EBK/src/tensorflow_lite/tensorflow/lite/kernels/internal\types.h ****   // Same as width_offset except it's over the height dimension.
  55:C:/Renesas/e2studio_2021_01_workspace_RZA2M_ANPR/ANPR_RZA2M_EBK/src/tensorflow_lite/tensorflow/lite/kernels/internal\types.h ****   int16_t height_offset;
  56:C:/Renesas/e2studio_2021_01_workspace_RZA2M_ANPR/ANPR_RZA2M_EBK/src/tensorflow_lite/tensorflow/lite/kernels/internal\types.h ****   // Same as width_offset except it's over the depth dimension.
  57:C:/Renesas/e2studio_2021_01_workspace_RZA2M_ANPR/ANPR_RZA2M_EBK/src/tensorflow_lite/tensorflow/lite/kernels/internal\types.h ****   int16_t depth_offset;
  58:C:/Renesas/e2studio_2021_01_workspace_RZA2M_ANPR/ANPR_RZA2M_EBK/src/tensorflow_lite/tensorflow/lite/kernels/internal\types.h **** };
  59:C:/Renesas/e2studio_2021_01_workspace_RZA2M_ANPR/ANPR_RZA2M_EBK/src/tensorflow_lite/tensorflow/lite/kernels/internal\types.h **** 
  60:C:/Renesas/e2studio_2021_01_workspace_RZA2M_ANPR/ANPR_RZA2M_EBK/src/tensorflow_lite/tensorflow/lite/kernels/internal\types.h **** // This enumeration allows for non-default formats for the weights array
  61:C:/Renesas/e2studio_2021_01_workspace_RZA2M_ANPR/ANPR_RZA2M_EBK/src/tensorflow_lite/tensorflow/lite/kernels/internal\types.h **** // of a fully-connected operator, allowing the use of special optimized
  62:C:/Renesas/e2studio_2021_01_workspace_RZA2M_ANPR/ANPR_RZA2M_EBK/src/tensorflow_lite/tensorflow/lite/kernels/internal\types.h **** // runtime paths.
  63:C:/Renesas/e2studio_2021_01_workspace_RZA2M_ANPR/ANPR_RZA2M_EBK/src/tensorflow_lite/tensorflow/lite/kernels/internal\types.h **** enum class FullyConnectedWeightsFormat : uint8_t {
  64:C:/Renesas/e2studio_2021_01_workspace_RZA2M_ANPR/ANPR_RZA2M_EBK/src/tensorflow_lite/tensorflow/lite/kernels/internal\types.h ****   // Default format (flat 2D layout, the inner contiguous dimension
  65:C:/Renesas/e2studio_2021_01_workspace_RZA2M_ANPR/ANPR_RZA2M_EBK/src/tensorflow_lite/tensorflow/lite/kernels/internal\types.h ****   // is input_depth, the outer non-contiguous dimension is output_depth)
  66:C:/Renesas/e2studio_2021_01_workspace_RZA2M_ANPR/ANPR_RZA2M_EBK/src/tensorflow_lite/tensorflow/lite/kernels/internal\types.h ****   kDefault,
  67:C:/Renesas/e2studio_2021_01_workspace_RZA2M_ANPR/ANPR_RZA2M_EBK/src/tensorflow_lite/tensorflow/lite/kernels/internal\types.h ****   // Summary: optimized layout for fast CPU runtime implementation,
  68:C:/Renesas/e2studio_2021_01_workspace_RZA2M_ANPR/ANPR_RZA2M_EBK/src/tensorflow_lite/tensorflow/lite/kernels/internal\types.h ****   // aimed specifically at ARM CPUs at the moment, and specialized for
  69:C:/Renesas/e2studio_2021_01_workspace_RZA2M_ANPR/ANPR_RZA2M_EBK/src/tensorflow_lite/tensorflow/lite/kernels/internal\types.h ****   // 8-bit quantized layers.
  70:C:/Renesas/e2studio_2021_01_workspace_RZA2M_ANPR/ANPR_RZA2M_EBK/src/tensorflow_lite/tensorflow/lite/kernels/internal\types.h ****   //
  71:C:/Renesas/e2studio_2021_01_workspace_RZA2M_ANPR/ANPR_RZA2M_EBK/src/tensorflow_lite/tensorflow/lite/kernels/internal\types.h ****   // The use case we're concerned with here is: 8-bit quantization,
  72:C:/Renesas/e2studio_2021_01_workspace_RZA2M_ANPR/ANPR_RZA2M_EBK/src/tensorflow_lite/tensorflow/lite/kernels/internal\types.h ****   // large weights matrix that doesn't fit in cache (e.g. 4096x2048 in
  73:C:/Renesas/e2studio_2021_01_workspace_RZA2M_ANPR/ANPR_RZA2M_EBK/src/tensorflow_lite/tensorflow/lite/kernels/internal\types.h ****   // a key application that drove this), very small batch size (e.g. 1 -- 4).
  74:C:/Renesas/e2studio_2021_01_workspace_RZA2M_ANPR/ANPR_RZA2M_EBK/src/tensorflow_lite/tensorflow/lite/kernels/internal\types.h ****   //
  75:C:/Renesas/e2studio_2021_01_workspace_RZA2M_ANPR/ANPR_RZA2M_EBK/src/tensorflow_lite/tensorflow/lite/kernels/internal\types.h ****   // Even with 8-bit quantization of weights, the performance of memory
  76:C:/Renesas/e2studio_2021_01_workspace_RZA2M_ANPR/ANPR_RZA2M_EBK/src/tensorflow_lite/tensorflow/lite/kernels/internal\types.h ****   // accesses to the weights can become the dominant issue when
  77:C:/Renesas/e2studio_2021_01_workspace_RZA2M_ANPR/ANPR_RZA2M_EBK/src/tensorflow_lite/tensorflow/lite/kernels/internal\types.h ****   // the batch size is small, so each weight value is used in only a few
  78:C:/Renesas/e2studio_2021_01_workspace_RZA2M_ANPR/ANPR_RZA2M_EBK/src/tensorflow_lite/tensorflow/lite/kernels/internal\types.h ****   // arithmetic ops, i.e. the fully-connected node has a low arithmetic
  79:C:/Renesas/e2studio_2021_01_workspace_RZA2M_ANPR/ANPR_RZA2M_EBK/src/tensorflow_lite/tensorflow/lite/kernels/internal\types.h ****   // intensity. The specific issues that arise are of three kinds:
  80:C:/Renesas/e2studio_2021_01_workspace_RZA2M_ANPR/ANPR_RZA2M_EBK/src/tensorflow_lite/tensorflow/lite/kernels/internal\types.h ****   // (1) One may, ideally, max out DRAM bandwidth, i.e. be truly memory
  81:C:/Renesas/e2studio_2021_01_workspace_RZA2M_ANPR/ANPR_RZA2M_EBK/src/tensorflow_lite/tensorflow/lite/kernels/internal\types.h ****   //     bound. That's the "good" issue to run into.
  82:C:/Renesas/e2studio_2021_01_workspace_RZA2M_ANPR/ANPR_RZA2M_EBK/src/tensorflow_lite/tensorflow/lite/kernels/internal\types.h ****   // (2) One may run into sub-optimal pre-fetching: the data hasn't been
  83:C:/Renesas/e2studio_2021_01_workspace_RZA2M_ANPR/ANPR_RZA2M_EBK/src/tensorflow_lite/tensorflow/lite/kernels/internal\types.h ****   //     prefetched into the cache by the time we need it.
  84:C:/Renesas/e2studio_2021_01_workspace_RZA2M_ANPR/ANPR_RZA2M_EBK/src/tensorflow_lite/tensorflow/lite/kernels/internal\types.h ****   // (3) One may run into cache aliasing: multiple values that are
  85:C:/Renesas/e2studio_2021_01_workspace_RZA2M_ANPR/ANPR_RZA2M_EBK/src/tensorflow_lite/tensorflow/lite/kernels/internal\types.h ****   //     pre-fetched, alias each other in the L1 cache (which typically
  86:C:/Renesas/e2studio_2021_01_workspace_RZA2M_ANPR/ANPR_RZA2M_EBK/src/tensorflow_lite/tensorflow/lite/kernels/internal\types.h ****   //     has only 4-way set associativity in ARM CPUs) and thus evict
  87:C:/Renesas/e2studio_2021_01_workspace_RZA2M_ANPR/ANPR_RZA2M_EBK/src/tensorflow_lite/tensorflow/lite/kernels/internal\types.h ****   //     each other before we get to using them.
  88:C:/Renesas/e2studio_2021_01_workspace_RZA2M_ANPR/ANPR_RZA2M_EBK/src/tensorflow_lite/tensorflow/lite/kernels/internal\types.h ****   //
  89:C:/Renesas/e2studio_2021_01_workspace_RZA2M_ANPR/ANPR_RZA2M_EBK/src/tensorflow_lite/tensorflow/lite/kernels/internal\types.h ****   // The point of this shuffling is to avoid issues (2) and (3) so that
  90:C:/Renesas/e2studio_2021_01_workspace_RZA2M_ANPR/ANPR_RZA2M_EBK/src/tensorflow_lite/tensorflow/lite/kernels/internal\types.h ****   // we get as fast as possible given only the hard constraint (1).
  91:C:/Renesas/e2studio_2021_01_workspace_RZA2M_ANPR/ANPR_RZA2M_EBK/src/tensorflow_lite/tensorflow/lite/kernels/internal\types.h ****   // This is achieved by turning the difficulty into a solution: the
  92:C:/Renesas/e2studio_2021_01_workspace_RZA2M_ANPR/ANPR_RZA2M_EBK/src/tensorflow_lite/tensorflow/lite/kernels/internal\types.h ****   // difficulty, that each value loaded from memory is used only in
  93:C:/Renesas/e2studio_2021_01_workspace_RZA2M_ANPR/ANPR_RZA2M_EBK/src/tensorflow_lite/tensorflow/lite/kernels/internal\types.h ****   // one kernel iteration, making this operation memory-intensive, hints at
  94:C:/Renesas/e2studio_2021_01_workspace_RZA2M_ANPR/ANPR_RZA2M_EBK/src/tensorflow_lite/tensorflow/lite/kernels/internal\types.h ****   // the solution, of shuffling the weights so that they are stored in the
  95:C:/Renesas/e2studio_2021_01_workspace_RZA2M_ANPR/ANPR_RZA2M_EBK/src/tensorflow_lite/tensorflow/lite/kernels/internal\types.h ****   // exact order as the kernel needs to load them, so that the memory
  96:C:/Renesas/e2studio_2021_01_workspace_RZA2M_ANPR/ANPR_RZA2M_EBK/src/tensorflow_lite/tensorflow/lite/kernels/internal\types.h ****   // accesses made by the kernel are trivial. This solves (2) because the
  97:C:/Renesas/e2studio_2021_01_workspace_RZA2M_ANPR/ANPR_RZA2M_EBK/src/tensorflow_lite/tensorflow/lite/kernels/internal\types.h ****   // trivial memory access pattern allows the CPU's automatic prefetching
  98:C:/Renesas/e2studio_2021_01_workspace_RZA2M_ANPR/ANPR_RZA2M_EBK/src/tensorflow_lite/tensorflow/lite/kernels/internal\types.h ****   // to perform very well (no need even for preload instructions), and this
  99:C:/Renesas/e2studio_2021_01_workspace_RZA2M_ANPR/ANPR_RZA2M_EBK/src/tensorflow_lite/tensorflow/lite/kernels/internal\types.h ****   // solves (3) because the values being loaded concurrently are now
 100:C:/Renesas/e2studio_2021_01_workspace_RZA2M_ANPR/ANPR_RZA2M_EBK/src/tensorflow_lite/tensorflow/lite/kernels/internal\types.h ****   // contiguous in the address space, thus don't alias each other in the cache.
 101:C:/Renesas/e2studio_2021_01_workspace_RZA2M_ANPR/ANPR_RZA2M_EBK/src/tensorflow_lite/tensorflow/lite/kernels/internal\types.h ****   //
 102:C:/Renesas/e2studio_2021_01_workspace_RZA2M_ANPR/ANPR_RZA2M_EBK/src/tensorflow_lite/tensorflow/lite/kernels/internal\types.h ****   // On ARM, we typically want our kernel to process a 4x16 block of weights
 103:C:/Renesas/e2studio_2021_01_workspace_RZA2M_ANPR/ANPR_RZA2M_EBK/src/tensorflow_lite/tensorflow/lite/kernels/internal\types.h ****   // at a time, because:
 104:C:/Renesas/e2studio_2021_01_workspace_RZA2M_ANPR/ANPR_RZA2M_EBK/src/tensorflow_lite/tensorflow/lite/kernels/internal\types.h ****   //   - 16 is the number of bytes in a NEON register.
 105:C:/Renesas/e2studio_2021_01_workspace_RZA2M_ANPR/ANPR_RZA2M_EBK/src/tensorflow_lite/tensorflow/lite/kernels/internal\types.h ****   //   - 4 is how many rows we need to handle concurrently in the kernel in
 106:C:/Renesas/e2studio_2021_01_workspace_RZA2M_ANPR/ANPR_RZA2M_EBK/src/tensorflow_lite/tensorflow/lite/kernels/internal\types.h ****   //     order to have sufficient mutual independence of instructions to
 107:C:/Renesas/e2studio_2021_01_workspace_RZA2M_ANPR/ANPR_RZA2M_EBK/src/tensorflow_lite/tensorflow/lite/kernels/internal\types.h ****   //     maximize arithmetic throughput.
 108:C:/Renesas/e2studio_2021_01_workspace_RZA2M_ANPR/ANPR_RZA2M_EBK/src/tensorflow_lite/tensorflow/lite/kernels/internal\types.h ****   //
 109:C:/Renesas/e2studio_2021_01_workspace_RZA2M_ANPR/ANPR_RZA2M_EBK/src/tensorflow_lite/tensorflow/lite/kernels/internal\types.h ****   // Finally, the 'Int8' part in the name refers to the fact that this
 110:C:/Renesas/e2studio_2021_01_workspace_RZA2M_ANPR/ANPR_RZA2M_EBK/src/tensorflow_lite/tensorflow/lite/kernels/internal\types.h ****   // weights format has each weights value encoded as a signed int8_t value,
 111:C:/Renesas/e2studio_2021_01_workspace_RZA2M_ANPR/ANPR_RZA2M_EBK/src/tensorflow_lite/tensorflow/lite/kernels/internal\types.h ****   // even if the data type of the weights buffer is uint8_t.  This is intended
 112:C:/Renesas/e2studio_2021_01_workspace_RZA2M_ANPR/ANPR_RZA2M_EBK/src/tensorflow_lite/tensorflow/lite/kernels/internal\types.h ****   // to save runtime kernels the effort to have to XOR the top bit of these
 113:C:/Renesas/e2studio_2021_01_workspace_RZA2M_ANPR/ANPR_RZA2M_EBK/src/tensorflow_lite/tensorflow/lite/kernels/internal\types.h ****   // bytes before using them in signed arithmetic, see this file for more
 114:C:/Renesas/e2studio_2021_01_workspace_RZA2M_ANPR/ANPR_RZA2M_EBK/src/tensorflow_lite/tensorflow/lite/kernels/internal\types.h ****   // explanations on the 'signed int8_t trick' in matrix multiplication kernels:
 115:C:/Renesas/e2studio_2021_01_workspace_RZA2M_ANPR/ANPR_RZA2M_EBK/src/tensorflow_lite/tensorflow/lite/kernels/internal\types.h ****   //
 116:C:/Renesas/e2studio_2021_01_workspace_RZA2M_ANPR/ANPR_RZA2M_EBK/src/tensorflow_lite/tensorflow/lite/kernels/internal\types.h ****   //   tensorflow/lite/toco/graph_transformations/ensure_uint8_weights_safe_for_fast_int8_kernels.c
 117:C:/Renesas/e2studio_2021_01_workspace_RZA2M_ANPR/ANPR_RZA2M_EBK/src/tensorflow_lite/tensorflow/lite/kernels/internal\types.h ****   //
 118:C:/Renesas/e2studio_2021_01_workspace_RZA2M_ANPR/ANPR_RZA2M_EBK/src/tensorflow_lite/tensorflow/lite/kernels/internal\types.h ****   kShuffled4x16Int8,
 119:C:/Renesas/e2studio_2021_01_workspace_RZA2M_ANPR/ANPR_RZA2M_EBK/src/tensorflow_lite/tensorflow/lite/kernels/internal\types.h **** };
 120:C:/Renesas/e2studio_2021_01_workspace_RZA2M_ANPR/ANPR_RZA2M_EBK/src/tensorflow_lite/tensorflow/lite/kernels/internal\types.h **** 
 121:C:/Renesas/e2studio_2021_01_workspace_RZA2M_ANPR/ANPR_RZA2M_EBK/src/tensorflow_lite/tensorflow/lite/kernels/internal\types.h **** // Quantization parameters, determining the mapping of quantized values
 122:C:/Renesas/e2studio_2021_01_workspace_RZA2M_ANPR/ANPR_RZA2M_EBK/src/tensorflow_lite/tensorflow/lite/kernels/internal\types.h **** // to real values (i.e. determining how quantized values are mathematically
 123:C:/Renesas/e2studio_2021_01_workspace_RZA2M_ANPR/ANPR_RZA2M_EBK/src/tensorflow_lite/tensorflow/lite/kernels/internal\types.h **** // interpreted).
 124:C:/Renesas/e2studio_2021_01_workspace_RZA2M_ANPR/ANPR_RZA2M_EBK/src/tensorflow_lite/tensorflow/lite/kernels/internal\types.h **** //
 125:C:/Renesas/e2studio_2021_01_workspace_RZA2M_ANPR/ANPR_RZA2M_EBK/src/tensorflow_lite/tensorflow/lite/kernels/internal\types.h **** // The correspondence is as follows:
 126:C:/Renesas/e2studio_2021_01_workspace_RZA2M_ANPR/ANPR_RZA2M_EBK/src/tensorflow_lite/tensorflow/lite/kernels/internal\types.h **** //
 127:C:/Renesas/e2studio_2021_01_workspace_RZA2M_ANPR/ANPR_RZA2M_EBK/src/tensorflow_lite/tensorflow/lite/kernels/internal\types.h **** //   real_value = scale * (quantized_value - zero_point);
 128:C:/Renesas/e2studio_2021_01_workspace_RZA2M_ANPR/ANPR_RZA2M_EBK/src/tensorflow_lite/tensorflow/lite/kernels/internal\types.h **** //
 129:C:/Renesas/e2studio_2021_01_workspace_RZA2M_ANPR/ANPR_RZA2M_EBK/src/tensorflow_lite/tensorflow/lite/kernels/internal\types.h **** // In other words, zero_point designates which quantized value corresponds to
 130:C:/Renesas/e2studio_2021_01_workspace_RZA2M_ANPR/ANPR_RZA2M_EBK/src/tensorflow_lite/tensorflow/lite/kernels/internal\types.h **** // the real 0 value, and scale designates the difference between the real values
 131:C:/Renesas/e2studio_2021_01_workspace_RZA2M_ANPR/ANPR_RZA2M_EBK/src/tensorflow_lite/tensorflow/lite/kernels/internal\types.h **** // corresponding to consecutive quantized values differing by 1.
 132:C:/Renesas/e2studio_2021_01_workspace_RZA2M_ANPR/ANPR_RZA2M_EBK/src/tensorflow_lite/tensorflow/lite/kernels/internal\types.h **** struct QuantizationParams {
 133:C:/Renesas/e2studio_2021_01_workspace_RZA2M_ANPR/ANPR_RZA2M_EBK/src/tensorflow_lite/tensorflow/lite/kernels/internal\types.h ****   int32_t zero_point = 0;
 134:C:/Renesas/e2studio_2021_01_workspace_RZA2M_ANPR/ANPR_RZA2M_EBK/src/tensorflow_lite/tensorflow/lite/kernels/internal\types.h ****   double scale = 0.0;
 135:C:/Renesas/e2studio_2021_01_workspace_RZA2M_ANPR/ANPR_RZA2M_EBK/src/tensorflow_lite/tensorflow/lite/kernels/internal\types.h **** };
 136:C:/Renesas/e2studio_2021_01_workspace_RZA2M_ANPR/ANPR_RZA2M_EBK/src/tensorflow_lite/tensorflow/lite/kernels/internal\types.h **** 
 137:C:/Renesas/e2studio_2021_01_workspace_RZA2M_ANPR/ANPR_RZA2M_EBK/src/tensorflow_lite/tensorflow/lite/kernels/internal\types.h **** inline bool operator==(const QuantizationParams& qp1,
 138:C:/Renesas/e2studio_2021_01_workspace_RZA2M_ANPR/ANPR_RZA2M_EBK/src/tensorflow_lite/tensorflow/lite/kernels/internal\types.h ****                        const QuantizationParams& qp2) {
 139:C:/Renesas/e2studio_2021_01_workspace_RZA2M_ANPR/ANPR_RZA2M_EBK/src/tensorflow_lite/tensorflow/lite/kernels/internal\types.h ****   return qp1.zero_point == qp2.zero_point && qp1.scale == qp2.scale;
 140:C:/Renesas/e2studio_2021_01_workspace_RZA2M_ANPR/ANPR_RZA2M_EBK/src/tensorflow_lite/tensorflow/lite/kernels/internal\types.h **** }
 141:C:/Renesas/e2studio_2021_01_workspace_RZA2M_ANPR/ANPR_RZA2M_EBK/src/tensorflow_lite/tensorflow/lite/kernels/internal\types.h **** 
 142:C:/Renesas/e2studio_2021_01_workspace_RZA2M_ANPR/ANPR_RZA2M_EBK/src/tensorflow_lite/tensorflow/lite/kernels/internal\types.h **** template <int N>
 143:C:/Renesas/e2studio_2021_01_workspace_RZA2M_ANPR/ANPR_RZA2M_EBK/src/tensorflow_lite/tensorflow/lite/kernels/internal\types.h **** struct Dims {
 144:C:/Renesas/e2studio_2021_01_workspace_RZA2M_ANPR/ANPR_RZA2M_EBK/src/tensorflow_lite/tensorflow/lite/kernels/internal\types.h ****   int sizes[N];
 145:C:/Renesas/e2studio_2021_01_workspace_RZA2M_ANPR/ANPR_RZA2M_EBK/src/tensorflow_lite/tensorflow/lite/kernels/internal\types.h ****   int strides[N];
 146:C:/Renesas/e2studio_2021_01_workspace_RZA2M_ANPR/ANPR_RZA2M_EBK/src/tensorflow_lite/tensorflow/lite/kernels/internal\types.h **** };
 147:C:/Renesas/e2studio_2021_01_workspace_RZA2M_ANPR/ANPR_RZA2M_EBK/src/tensorflow_lite/tensorflow/lite/kernels/internal\types.h **** 
 148:C:/Renesas/e2studio_2021_01_workspace_RZA2M_ANPR/ANPR_RZA2M_EBK/src/tensorflow_lite/tensorflow/lite/kernels/internal\types.h **** class RuntimeShape {
 149:C:/Renesas/e2studio_2021_01_workspace_RZA2M_ANPR/ANPR_RZA2M_EBK/src/tensorflow_lite/tensorflow/lite/kernels/internal\types.h ****  public:
 150:C:/Renesas/e2studio_2021_01_workspace_RZA2M_ANPR/ANPR_RZA2M_EBK/src/tensorflow_lite/tensorflow/lite/kernels/internal\types.h ****   // Shapes with dimensions up to 5 are stored directly in the structure, while
 151:C:/Renesas/e2studio_2021_01_workspace_RZA2M_ANPR/ANPR_RZA2M_EBK/src/tensorflow_lite/tensorflow/lite/kernels/internal\types.h ****   // larger shapes are separately allocated.
 152:C:/Renesas/e2studio_2021_01_workspace_RZA2M_ANPR/ANPR_RZA2M_EBK/src/tensorflow_lite/tensorflow/lite/kernels/internal\types.h ****   static constexpr int kMaxSmallSize = 5;
 153:C:/Renesas/e2studio_2021_01_workspace_RZA2M_ANPR/ANPR_RZA2M_EBK/src/tensorflow_lite/tensorflow/lite/kernels/internal\types.h **** 
 154:C:/Renesas/e2studio_2021_01_workspace_RZA2M_ANPR/ANPR_RZA2M_EBK/src/tensorflow_lite/tensorflow/lite/kernels/internal\types.h ****   RuntimeShape& operator=(RuntimeShape const&) = delete;
 155:C:/Renesas/e2studio_2021_01_workspace_RZA2M_ANPR/ANPR_RZA2M_EBK/src/tensorflow_lite/tensorflow/lite/kernels/internal\types.h **** 
 156:C:/Renesas/e2studio_2021_01_workspace_RZA2M_ANPR/ANPR_RZA2M_EBK/src/tensorflow_lite/tensorflow/lite/kernels/internal\types.h ****   RuntimeShape() : size_(0) {}
 157:C:/Renesas/e2studio_2021_01_workspace_RZA2M_ANPR/ANPR_RZA2M_EBK/src/tensorflow_lite/tensorflow/lite/kernels/internal\types.h **** 
 158:C:/Renesas/e2studio_2021_01_workspace_RZA2M_ANPR/ANPR_RZA2M_EBK/src/tensorflow_lite/tensorflow/lite/kernels/internal\types.h ****   explicit RuntimeShape(int dimensions_count) : size_(dimensions_count) {
 159:C:/Renesas/e2studio_2021_01_workspace_RZA2M_ANPR/ANPR_RZA2M_EBK/src/tensorflow_lite/tensorflow/lite/kernels/internal\types.h ****     if (dimensions_count > kMaxSmallSize) {
 160:C:/Renesas/e2studio_2021_01_workspace_RZA2M_ANPR/ANPR_RZA2M_EBK/src/tensorflow_lite/tensorflow/lite/kernels/internal\types.h **** #ifdef TF_LITE_STATIC_MEMORY
 161:C:/Renesas/e2studio_2021_01_workspace_RZA2M_ANPR/ANPR_RZA2M_EBK/src/tensorflow_lite/tensorflow/lite/kernels/internal\types.h ****       TFLITE_CHECK(false && "No shape resizing supported on this platform");
 162:C:/Renesas/e2studio_2021_01_workspace_RZA2M_ANPR/ANPR_RZA2M_EBK/src/tensorflow_lite/tensorflow/lite/kernels/internal\types.h **** #else  // TF_LITE_STATIC_MEMORY
 163:C:/Renesas/e2studio_2021_01_workspace_RZA2M_ANPR/ANPR_RZA2M_EBK/src/tensorflow_lite/tensorflow/lite/kernels/internal\types.h ****       dims_pointer_ = new int32_t[dimensions_count];
 164:C:/Renesas/e2studio_2021_01_workspace_RZA2M_ANPR/ANPR_RZA2M_EBK/src/tensorflow_lite/tensorflow/lite/kernels/internal\types.h **** #endif  // TF_LITE_STATIC_MEMORY
 165:C:/Renesas/e2studio_2021_01_workspace_RZA2M_ANPR/ANPR_RZA2M_EBK/src/tensorflow_lite/tensorflow/lite/kernels/internal\types.h ****     }
 166:C:/Renesas/e2studio_2021_01_workspace_RZA2M_ANPR/ANPR_RZA2M_EBK/src/tensorflow_lite/tensorflow/lite/kernels/internal\types.h ****   }
 167:C:/Renesas/e2studio_2021_01_workspace_RZA2M_ANPR/ANPR_RZA2M_EBK/src/tensorflow_lite/tensorflow/lite/kernels/internal\types.h **** 
 168:C:/Renesas/e2studio_2021_01_workspace_RZA2M_ANPR/ANPR_RZA2M_EBK/src/tensorflow_lite/tensorflow/lite/kernels/internal\types.h ****   RuntimeShape(int shape_size, int32_t value) : size_(0) {
 169:C:/Renesas/e2studio_2021_01_workspace_RZA2M_ANPR/ANPR_RZA2M_EBK/src/tensorflow_lite/tensorflow/lite/kernels/internal\types.h ****     Resize(shape_size);
 170:C:/Renesas/e2studio_2021_01_workspace_RZA2M_ANPR/ANPR_RZA2M_EBK/src/tensorflow_lite/tensorflow/lite/kernels/internal\types.h ****     for (int i = 0; i < shape_size; ++i) {
 171:C:/Renesas/e2studio_2021_01_workspace_RZA2M_ANPR/ANPR_RZA2M_EBK/src/tensorflow_lite/tensorflow/lite/kernels/internal\types.h ****       SetDim(i, value);
 172:C:/Renesas/e2studio_2021_01_workspace_RZA2M_ANPR/ANPR_RZA2M_EBK/src/tensorflow_lite/tensorflow/lite/kernels/internal\types.h ****     }
 173:C:/Renesas/e2studio_2021_01_workspace_RZA2M_ANPR/ANPR_RZA2M_EBK/src/tensorflow_lite/tensorflow/lite/kernels/internal\types.h ****   }
 174:C:/Renesas/e2studio_2021_01_workspace_RZA2M_ANPR/ANPR_RZA2M_EBK/src/tensorflow_lite/tensorflow/lite/kernels/internal\types.h **** 
 175:C:/Renesas/e2studio_2021_01_workspace_RZA2M_ANPR/ANPR_RZA2M_EBK/src/tensorflow_lite/tensorflow/lite/kernels/internal\types.h ****   RuntimeShape(int dimensions_count, const int32_t* dims_data) : size_(0) {
 176:C:/Renesas/e2studio_2021_01_workspace_RZA2M_ANPR/ANPR_RZA2M_EBK/src/tensorflow_lite/tensorflow/lite/kernels/internal\types.h ****     ReplaceWith(dimensions_count, dims_data);
 177:C:/Renesas/e2studio_2021_01_workspace_RZA2M_ANPR/ANPR_RZA2M_EBK/src/tensorflow_lite/tensorflow/lite/kernels/internal\types.h ****   }
 178:C:/Renesas/e2studio_2021_01_workspace_RZA2M_ANPR/ANPR_RZA2M_EBK/src/tensorflow_lite/tensorflow/lite/kernels/internal\types.h **** 
 179:C:/Renesas/e2studio_2021_01_workspace_RZA2M_ANPR/ANPR_RZA2M_EBK/src/tensorflow_lite/tensorflow/lite/kernels/internal\types.h ****   RuntimeShape(const std::initializer_list<int> init_list) : size_(0) {
 180:C:/Renesas/e2studio_2021_01_workspace_RZA2M_ANPR/ANPR_RZA2M_EBK/src/tensorflow_lite/tensorflow/lite/kernels/internal\types.h ****     BuildFrom(init_list);
 181:C:/Renesas/e2studio_2021_01_workspace_RZA2M_ANPR/ANPR_RZA2M_EBK/src/tensorflow_lite/tensorflow/lite/kernels/internal\types.h ****   }
 182:C:/Renesas/e2studio_2021_01_workspace_RZA2M_ANPR/ANPR_RZA2M_EBK/src/tensorflow_lite/tensorflow/lite/kernels/internal\types.h **** 
 183:C:/Renesas/e2studio_2021_01_workspace_RZA2M_ANPR/ANPR_RZA2M_EBK/src/tensorflow_lite/tensorflow/lite/kernels/internal\types.h ****   // Avoid using this constructor.  We should be able to delete it when C++17
 184:C:/Renesas/e2studio_2021_01_workspace_RZA2M_ANPR/ANPR_RZA2M_EBK/src/tensorflow_lite/tensorflow/lite/kernels/internal\types.h ****   // rolls out.
 185:C:/Renesas/e2studio_2021_01_workspace_RZA2M_ANPR/ANPR_RZA2M_EBK/src/tensorflow_lite/tensorflow/lite/kernels/internal\types.h ****   RuntimeShape(RuntimeShape const& other) : size_(other.DimensionsCount()) {
 186:C:/Renesas/e2studio_2021_01_workspace_RZA2M_ANPR/ANPR_RZA2M_EBK/src/tensorflow_lite/tensorflow/lite/kernels/internal\types.h ****     if (size_ > kMaxSmallSize) {
 187:C:/Renesas/e2studio_2021_01_workspace_RZA2M_ANPR/ANPR_RZA2M_EBK/src/tensorflow_lite/tensorflow/lite/kernels/internal\types.h **** #ifdef TF_LITE_STATIC_MEMORY
 188:C:/Renesas/e2studio_2021_01_workspace_RZA2M_ANPR/ANPR_RZA2M_EBK/src/tensorflow_lite/tensorflow/lite/kernels/internal\types.h ****       TFLITE_CHECK(false && "No shape resizing supported on this platform");
 189:C:/Renesas/e2studio_2021_01_workspace_RZA2M_ANPR/ANPR_RZA2M_EBK/src/tensorflow_lite/tensorflow/lite/kernels/internal\types.h **** #else
 190:C:/Renesas/e2studio_2021_01_workspace_RZA2M_ANPR/ANPR_RZA2M_EBK/src/tensorflow_lite/tensorflow/lite/kernels/internal\types.h ****       dims_pointer_ = new int32_t[size_];
 191:C:/Renesas/e2studio_2021_01_workspace_RZA2M_ANPR/ANPR_RZA2M_EBK/src/tensorflow_lite/tensorflow/lite/kernels/internal\types.h **** #endif
 192:C:/Renesas/e2studio_2021_01_workspace_RZA2M_ANPR/ANPR_RZA2M_EBK/src/tensorflow_lite/tensorflow/lite/kernels/internal\types.h ****     }
 193:C:/Renesas/e2studio_2021_01_workspace_RZA2M_ANPR/ANPR_RZA2M_EBK/src/tensorflow_lite/tensorflow/lite/kernels/internal\types.h ****     std::memcpy(DimsData(), other.DimsData(), sizeof(int32_t) * size_);
 194:C:/Renesas/e2studio_2021_01_workspace_RZA2M_ANPR/ANPR_RZA2M_EBK/src/tensorflow_lite/tensorflow/lite/kernels/internal\types.h ****   }
 195:C:/Renesas/e2studio_2021_01_workspace_RZA2M_ANPR/ANPR_RZA2M_EBK/src/tensorflow_lite/tensorflow/lite/kernels/internal\types.h **** 
 196:C:/Renesas/e2studio_2021_01_workspace_RZA2M_ANPR/ANPR_RZA2M_EBK/src/tensorflow_lite/tensorflow/lite/kernels/internal\types.h ****   bool operator==(const RuntimeShape& comp) const {
 197:C:/Renesas/e2studio_2021_01_workspace_RZA2M_ANPR/ANPR_RZA2M_EBK/src/tensorflow_lite/tensorflow/lite/kernels/internal\types.h ****     return this->size_ == comp.size_ &&
 198:C:/Renesas/e2studio_2021_01_workspace_RZA2M_ANPR/ANPR_RZA2M_EBK/src/tensorflow_lite/tensorflow/lite/kernels/internal\types.h ****            std::memcmp(DimsData(), comp.DimsData(), size_ * sizeof(int32_t)) ==
 199:C:/Renesas/e2studio_2021_01_workspace_RZA2M_ANPR/ANPR_RZA2M_EBK/src/tensorflow_lite/tensorflow/lite/kernels/internal\types.h ****                0;
 200:C:/Renesas/e2studio_2021_01_workspace_RZA2M_ANPR/ANPR_RZA2M_EBK/src/tensorflow_lite/tensorflow/lite/kernels/internal\types.h ****   }
 201:C:/Renesas/e2studio_2021_01_workspace_RZA2M_ANPR/ANPR_RZA2M_EBK/src/tensorflow_lite/tensorflow/lite/kernels/internal\types.h **** 
 202:C:/Renesas/e2studio_2021_01_workspace_RZA2M_ANPR/ANPR_RZA2M_EBK/src/tensorflow_lite/tensorflow/lite/kernels/internal\types.h ****   ~RuntimeShape() {
 203:C:/Renesas/e2studio_2021_01_workspace_RZA2M_ANPR/ANPR_RZA2M_EBK/src/tensorflow_lite/tensorflow/lite/kernels/internal\types.h ****     if (size_ > kMaxSmallSize) {
 204:C:/Renesas/e2studio_2021_01_workspace_RZA2M_ANPR/ANPR_RZA2M_EBK/src/tensorflow_lite/tensorflow/lite/kernels/internal\types.h **** #ifdef TF_LITE_STATIC_MEMORY
 205:C:/Renesas/e2studio_2021_01_workspace_RZA2M_ANPR/ANPR_RZA2M_EBK/src/tensorflow_lite/tensorflow/lite/kernels/internal\types.h ****       TFLITE_CHECK(false && "No shape resizing supported on this platform");
 206:C:/Renesas/e2studio_2021_01_workspace_RZA2M_ANPR/ANPR_RZA2M_EBK/src/tensorflow_lite/tensorflow/lite/kernels/internal\types.h **** #else  // TF_LITE_STATIC_MEMORY
 207:C:/Renesas/e2studio_2021_01_workspace_RZA2M_ANPR/ANPR_RZA2M_EBK/src/tensorflow_lite/tensorflow/lite/kernels/internal\types.h ****       delete[] dims_pointer_;
 208:C:/Renesas/e2studio_2021_01_workspace_RZA2M_ANPR/ANPR_RZA2M_EBK/src/tensorflow_lite/tensorflow/lite/kernels/internal\types.h **** #endif  // TF_LITE_STATIC_MEMORY
 209:C:/Renesas/e2studio_2021_01_workspace_RZA2M_ANPR/ANPR_RZA2M_EBK/src/tensorflow_lite/tensorflow/lite/kernels/internal\types.h ****     }
 210:C:/Renesas/e2studio_2021_01_workspace_RZA2M_ANPR/ANPR_RZA2M_EBK/src/tensorflow_lite/tensorflow/lite/kernels/internal\types.h ****   }
 211:C:/Renesas/e2studio_2021_01_workspace_RZA2M_ANPR/ANPR_RZA2M_EBK/src/tensorflow_lite/tensorflow/lite/kernels/internal\types.h **** 
 212:C:/Renesas/e2studio_2021_01_workspace_RZA2M_ANPR/ANPR_RZA2M_EBK/src/tensorflow_lite/tensorflow/lite/kernels/internal\types.h ****   inline int32_t DimensionsCount() const { return size_; }
 213:C:/Renesas/e2studio_2021_01_workspace_RZA2M_ANPR/ANPR_RZA2M_EBK/src/tensorflow_lite/tensorflow/lite/kernels/internal\types.h ****   inline int32_t Dims(int i) const {
 214:C:/Renesas/e2studio_2021_01_workspace_RZA2M_ANPR/ANPR_RZA2M_EBK/src/tensorflow_lite/tensorflow/lite/kernels/internal\types.h ****     TFLITE_DCHECK_GE(i, 0);
 215:C:/Renesas/e2studio_2021_01_workspace_RZA2M_ANPR/ANPR_RZA2M_EBK/src/tensorflow_lite/tensorflow/lite/kernels/internal\types.h ****     TFLITE_DCHECK_LT(i, size_);
 216:C:/Renesas/e2studio_2021_01_workspace_RZA2M_ANPR/ANPR_RZA2M_EBK/src/tensorflow_lite/tensorflow/lite/kernels/internal\types.h ****     return size_ > kMaxSmallSize ? dims_pointer_[i] : dims_[i];
 217:C:/Renesas/e2studio_2021_01_workspace_RZA2M_ANPR/ANPR_RZA2M_EBK/src/tensorflow_lite/tensorflow/lite/kernels/internal\types.h ****   }
 218:C:/Renesas/e2studio_2021_01_workspace_RZA2M_ANPR/ANPR_RZA2M_EBK/src/tensorflow_lite/tensorflow/lite/kernels/internal\types.h ****   inline void SetDim(int i, int32_t val) {
 219:C:/Renesas/e2studio_2021_01_workspace_RZA2M_ANPR/ANPR_RZA2M_EBK/src/tensorflow_lite/tensorflow/lite/kernels/internal\types.h ****     TFLITE_DCHECK_GE(i, 0);
 220:C:/Renesas/e2studio_2021_01_workspace_RZA2M_ANPR/ANPR_RZA2M_EBK/src/tensorflow_lite/tensorflow/lite/kernels/internal\types.h ****     TFLITE_DCHECK_LT(i, size_);
 221:C:/Renesas/e2studio_2021_01_workspace_RZA2M_ANPR/ANPR_RZA2M_EBK/src/tensorflow_lite/tensorflow/lite/kernels/internal\types.h ****     if (size_ > kMaxSmallSize) {
 222:C:/Renesas/e2studio_2021_01_workspace_RZA2M_ANPR/ANPR_RZA2M_EBK/src/tensorflow_lite/tensorflow/lite/kernels/internal\types.h ****       dims_pointer_[i] = val;
 223:C:/Renesas/e2studio_2021_01_workspace_RZA2M_ANPR/ANPR_RZA2M_EBK/src/tensorflow_lite/tensorflow/lite/kernels/internal\types.h ****     } else {
 224:C:/Renesas/e2studio_2021_01_workspace_RZA2M_ANPR/ANPR_RZA2M_EBK/src/tensorflow_lite/tensorflow/lite/kernels/internal\types.h ****       dims_[i] = val;
 225:C:/Renesas/e2studio_2021_01_workspace_RZA2M_ANPR/ANPR_RZA2M_EBK/src/tensorflow_lite/tensorflow/lite/kernels/internal\types.h ****     }
 226:C:/Renesas/e2studio_2021_01_workspace_RZA2M_ANPR/ANPR_RZA2M_EBK/src/tensorflow_lite/tensorflow/lite/kernels/internal\types.h ****   }
 227:C:/Renesas/e2studio_2021_01_workspace_RZA2M_ANPR/ANPR_RZA2M_EBK/src/tensorflow_lite/tensorflow/lite/kernels/internal\types.h **** 
 228:C:/Renesas/e2studio_2021_01_workspace_RZA2M_ANPR/ANPR_RZA2M_EBK/src/tensorflow_lite/tensorflow/lite/kernels/internal\types.h ****   inline int32_t* DimsData() {
 229:C:/Renesas/e2studio_2021_01_workspace_RZA2M_ANPR/ANPR_RZA2M_EBK/src/tensorflow_lite/tensorflow/lite/kernels/internal\types.h ****     return size_ > kMaxSmallSize ? dims_pointer_ : dims_;
 230:C:/Renesas/e2studio_2021_01_workspace_RZA2M_ANPR/ANPR_RZA2M_EBK/src/tensorflow_lite/tensorflow/lite/kernels/internal\types.h ****   }
 231:C:/Renesas/e2studio_2021_01_workspace_RZA2M_ANPR/ANPR_RZA2M_EBK/src/tensorflow_lite/tensorflow/lite/kernels/internal\types.h ****   inline const int32_t* DimsData() const {
 232:C:/Renesas/e2studio_2021_01_workspace_RZA2M_ANPR/ANPR_RZA2M_EBK/src/tensorflow_lite/tensorflow/lite/kernels/internal\types.h ****     return size_ > kMaxSmallSize ? dims_pointer_ : dims_;
 233:C:/Renesas/e2studio_2021_01_workspace_RZA2M_ANPR/ANPR_RZA2M_EBK/src/tensorflow_lite/tensorflow/lite/kernels/internal\types.h ****   }
 234:C:/Renesas/e2studio_2021_01_workspace_RZA2M_ANPR/ANPR_RZA2M_EBK/src/tensorflow_lite/tensorflow/lite/kernels/internal\types.h ****   // The caller must ensure that the shape is no bigger than 5-D.
 235:C:/Renesas/e2studio_2021_01_workspace_RZA2M_ANPR/ANPR_RZA2M_EBK/src/tensorflow_lite/tensorflow/lite/kernels/internal\types.h ****   inline const int32_t* DimsDataUpTo5D() const { return dims_; }
 236:C:/Renesas/e2studio_2021_01_workspace_RZA2M_ANPR/ANPR_RZA2M_EBK/src/tensorflow_lite/tensorflow/lite/kernels/internal\types.h **** 
 237:C:/Renesas/e2studio_2021_01_workspace_RZA2M_ANPR/ANPR_RZA2M_EBK/src/tensorflow_lite/tensorflow/lite/kernels/internal\types.h ****   inline void Resize(int dimensions_count) {
 238:C:/Renesas/e2studio_2021_01_workspace_RZA2M_ANPR/ANPR_RZA2M_EBK/src/tensorflow_lite/tensorflow/lite/kernels/internal\types.h ****     if (size_ > kMaxSmallSize) {
 239:C:/Renesas/e2studio_2021_01_workspace_RZA2M_ANPR/ANPR_RZA2M_EBK/src/tensorflow_lite/tensorflow/lite/kernels/internal\types.h **** #ifdef TF_LITE_STATIC_MEMORY
 240:C:/Renesas/e2studio_2021_01_workspace_RZA2M_ANPR/ANPR_RZA2M_EBK/src/tensorflow_lite/tensorflow/lite/kernels/internal\types.h ****       TFLITE_CHECK(false && "No shape resizing supported on this platform");
 241:C:/Renesas/e2studio_2021_01_workspace_RZA2M_ANPR/ANPR_RZA2M_EBK/src/tensorflow_lite/tensorflow/lite/kernels/internal\types.h **** #else  // TF_LITE_STATIC_MEMORY
 242:C:/Renesas/e2studio_2021_01_workspace_RZA2M_ANPR/ANPR_RZA2M_EBK/src/tensorflow_lite/tensorflow/lite/kernels/internal\types.h ****       delete[] dims_pointer_;
 243:C:/Renesas/e2studio_2021_01_workspace_RZA2M_ANPR/ANPR_RZA2M_EBK/src/tensorflow_lite/tensorflow/lite/kernels/internal\types.h **** #endif  // TF_LITE_STATIC_MEMORY
 244:C:/Renesas/e2studio_2021_01_workspace_RZA2M_ANPR/ANPR_RZA2M_EBK/src/tensorflow_lite/tensorflow/lite/kernels/internal\types.h ****     }
 245:C:/Renesas/e2studio_2021_01_workspace_RZA2M_ANPR/ANPR_RZA2M_EBK/src/tensorflow_lite/tensorflow/lite/kernels/internal\types.h ****     size_ = dimensions_count;
 246:C:/Renesas/e2studio_2021_01_workspace_RZA2M_ANPR/ANPR_RZA2M_EBK/src/tensorflow_lite/tensorflow/lite/kernels/internal\types.h ****     if (dimensions_count > kMaxSmallSize) {
 417              		.loc 5 246 0
 418 007c 050052E3 		cmp	r2, #5
 245:C:/Renesas/e2studio_2021_01_workspace_RZA2M_ANPR/ANPR_RZA2M_EBK/src/tensorflow_lite/tensorflow/lite/kernels/internal\types.h ****     if (dimensions_count > kMaxSmallSize) {
 419              		.loc 5 245 0
 420 0080 20208DE5 		str	r2, [sp, #32]
 421              		.loc 5 246 0
 422 0084 580000DA 		ble	.L49
 247:C:/Renesas/e2studio_2021_01_workspace_RZA2M_ANPR/ANPR_RZA2M_EBK/src/tensorflow_lite/tensorflow/lite/kernels/internal\types.h **** #ifdef TF_LITE_STATIC_MEMORY
 248:C:/Renesas/e2studio_2021_01_workspace_RZA2M_ANPR/ANPR_RZA2M_EBK/src/tensorflow_lite/tensorflow/lite/kernels/internal\types.h ****       TFLITE_CHECK(false && "No shape resizing supported on this platform");
 249:C:/Renesas/e2studio_2021_01_workspace_RZA2M_ANPR/ANPR_RZA2M_EBK/src/tensorflow_lite/tensorflow/lite/kernels/internal\types.h **** #else  // TF_LITE_STATIC_MEMORY
 250:C:/Renesas/e2studio_2021_01_workspace_RZA2M_ANPR/ANPR_RZA2M_EBK/src/tensorflow_lite/tensorflow/lite/kernels/internal\types.h ****       dims_pointer_ = new int32_t[dimensions_count];
 423              		.loc 5 250 0
 424 0088 2E0272E3 		cmn	r2, #-536870910
 425 008c B30000CA 		bgt	.L38
 426 0090 0271A0E1 		lsl	r7, r2, #2
 427              	.LVL45:
 428 0094 0700A0E1 		mov	r0, r7
 429              	.LVL46:
 430 0098 FEFFFFEB 		bl	_Znaj
 431              	.LVL47:
 432 009c 24008DE5 		str	r0, [sp, #36]
 433              	.LVL48:
 434 00a0 530000EA 		b	.L50
 435              	.LVL49:
 436              	.L93:
 437              	.LBE351:
 438              	.LBE350:
 439              	.LBE349:
 440              	.LBE348:
 441              	.LBE347:
 442              	.LBE357:
 443              	.LBE359:
 444              	.LBE344:
 445              	.LBE343:
 142:../src/tensorflow_lite/tensorflow/lite/micro/kernels/activations.cc ****   TfLiteTensor* output = GetOutput(context, node, kOutputTensor);
 446              		.loc 1 142 0 discriminator 1
 447 00a4 003000E3 		movw	r3, #:lower16:.LC4
 448 00a8 002000E3 		movw	r2, #:lower16:.LC2
 449 00ac 003040E3 		movt	r3, #:upper16:.LC4
 450 00b0 001000E3 		movw	r1, #:lower16:.LC3
 451 00b4 00308DE5 		str	r3, [sp]
 452 00b8 0700A0E1 		mov	r0, r7
 453              	.LVL50:
 454 00bc 002040E3 		movt	r2, #:upper16:.LC2
 455 00c0 001040E3 		movt	r1, #:upper16:.LC3
 456 00c4 144097E5 		ldr	r4, [r7, #20]
 457              	.LVL51:
 458 00c8 8E30A0E3 		mov	r3, #142
 459 00cc 34FF2FE1 		blx	r4
 460              	.LVL52:
 461 00d0 0100A0E3 		mov	r0, #1
 153:../src/tensorflow_lite/tensorflow/lite/micro/kernels/activations.cc **** 
 462              		.loc 1 153 0 discriminator 1
 463 00d4 50D08DE2 		add	sp, sp, #80
 464              		.cfi_remember_state
 465              		.cfi_def_cfa_offset 32
 466              		@ sp needed
 467 00d8 028BBDEC 		vldm	sp!, {d8}
 468              		.cfi_restore 80
 469              		.cfi_restore 81
 470              		.cfi_def_cfa_offset 24
 471 00dc F081BDE8 		pop	{r4, r5, r6, r7, r8, pc}
 472              	.LVL53:
 473              	.L95:
 474              		.cfi_restore_state
 475              	.LBB402:
 476              	.LBB403:
 477              	.LBB404:
 478              	.LBB405:
 479              		.loc 4 40 0
 480 00e0 088096E5 		ldr	r8, [r6, #8]
 481              	.LBE405:
 482              	.LBE404:
  74:../src/tensorflow_lite/tensorflow/lite/micro/kernels/activations.cc **** 
 483              		.loc 1 74 0
 484 00e4 038AD6ED 		vldr.32	s17, [r6, #12]
 485 00e8 038A94ED 		vldr.32	s16, [r4, #12]
 486              	.LVL54:
 487              	.LBB424:
 488              	.LBB421:
 489              		.loc 4 40 0
 490 00ec 042098E4 		ldr	r2, [r8], #4
 491              	.LVL55:
 492              	.LBB406:
 493              	.LBB407:
 494              	.LBB408:
 495              	.LBB409:
 496              	.LBB410:
 246:C:/Renesas/e2studio_2021_01_workspace_RZA2M_ANPR/ANPR_RZA2M_EBK/src/tensorflow_lite/tensorflow/lite/kernels/internal\types.h **** #ifdef TF_LITE_STATIC_MEMORY
 497              		.loc 5 246 0
 498 00f0 050052E3 		cmp	r2, #5
 245:C:/Renesas/e2studio_2021_01_workspace_RZA2M_ANPR/ANPR_RZA2M_EBK/src/tensorflow_lite/tensorflow/lite/kernels/internal\types.h ****     if (dimensions_count > kMaxSmallSize) {
 499              		.loc 5 245 0
 500 00f4 08208DE5 		str	r2, [sp, #8]
 246:C:/Renesas/e2studio_2021_01_workspace_RZA2M_ANPR/ANPR_RZA2M_EBK/src/tensorflow_lite/tensorflow/lite/kernels/internal\types.h **** #ifdef TF_LITE_STATIC_MEMORY
 501              		.loc 5 246 0
 502 00f8 700000DA 		ble	.L37
 503              		.loc 5 250 0
 504 00fc 2E0272E3 		cmn	r2, #-536870910
 505 0100 960000CA 		bgt	.L38
 506 0104 0271A0E1 		lsl	r7, r2, #2
 507              	.LVL56:
 508 0108 0700A0E1 		mov	r0, r7
 509              	.LVL57:
 510 010c FEFFFFEB 		bl	_Znaj
 511              	.LVL58:
 512              	.LEHE0:
 513 0110 0C008DE5 		str	r0, [sp, #12]
 514              	.LVL59:
 515              	.L39:
 516              	.LBE410:
 517              	.LBE409:
 251:C:/Renesas/e2studio_2021_01_workspace_RZA2M_ANPR/ANPR_RZA2M_EBK/src/tensorflow_lite/tensorflow/lite/kernels/internal\types.h **** #endif  // TF_LITE_STATIC_MEMORY
 252:C:/Renesas/e2studio_2021_01_workspace_RZA2M_ANPR/ANPR_RZA2M_EBK/src/tensorflow_lite/tensorflow/lite/kernels/internal\types.h ****     }
 253:C:/Renesas/e2studio_2021_01_workspace_RZA2M_ANPR/ANPR_RZA2M_EBK/src/tensorflow_lite/tensorflow/lite/kernels/internal\types.h ****   }
 254:C:/Renesas/e2studio_2021_01_workspace_RZA2M_ANPR/ANPR_RZA2M_EBK/src/tensorflow_lite/tensorflow/lite/kernels/internal\types.h **** 
 255:C:/Renesas/e2studio_2021_01_workspace_RZA2M_ANPR/ANPR_RZA2M_EBK/src/tensorflow_lite/tensorflow/lite/kernels/internal\types.h ****   inline void ReplaceWith(int dimensions_count, const int32_t* dims_data) {
 256:C:/Renesas/e2studio_2021_01_workspace_RZA2M_ANPR/ANPR_RZA2M_EBK/src/tensorflow_lite/tensorflow/lite/kernels/internal\types.h ****     Resize(dimensions_count);
 257:C:/Renesas/e2studio_2021_01_workspace_RZA2M_ANPR/ANPR_RZA2M_EBK/src/tensorflow_lite/tensorflow/lite/kernels/internal\types.h ****     int32_t* dst_dims = DimsData();
 258:C:/Renesas/e2studio_2021_01_workspace_RZA2M_ANPR/ANPR_RZA2M_EBK/src/tensorflow_lite/tensorflow/lite/kernels/internal\types.h ****     std::memcpy(dst_dims, dims_data, dimensions_count * sizeof(int32_t));
 518              		.loc 5 258 0
 519 0114 0720A0E1 		mov	r2, r7
 520 0118 0810A0E1 		mov	r1, r8
 521 011c FEFFFFEB 		bl	memcpy
 522              	.LVL60:
 523              	.LBE408:
 524              	.LBE407:
 525              	.LBE406:
 526              	.LBE421:
 527              	.LBE424:
 528              	.LBB425:
 529              	.LBB426:
 530              		.loc 4 40 0
 531 0120 088094E5 		ldr	r8, [r4, #8]
 532              	.LVL61:
 533 0124 042098E4 		ldr	r2, [r8], #4
 534              	.LVL62:
 535              	.LBB427:
 536              	.LBB428:
 537              	.LBB429:
 538              	.LBB430:
 539              	.LBB431:
 246:C:/Renesas/e2studio_2021_01_workspace_RZA2M_ANPR/ANPR_RZA2M_EBK/src/tensorflow_lite/tensorflow/lite/kernels/internal\types.h **** #ifdef TF_LITE_STATIC_MEMORY
 540              		.loc 5 246 0
 541 0128 050052E3 		cmp	r2, #5
 245:C:/Renesas/e2studio_2021_01_workspace_RZA2M_ANPR/ANPR_RZA2M_EBK/src/tensorflow_lite/tensorflow/lite/kernels/internal\types.h ****     if (dimensions_count > kMaxSmallSize) {
 542              		.loc 5 245 0
 543 012c 38208DE5 		str	r2, [sp, #56]
 246:C:/Renesas/e2studio_2021_01_workspace_RZA2M_ANPR/ANPR_RZA2M_EBK/src/tensorflow_lite/tensorflow/lite/kernels/internal\types.h **** #ifdef TF_LITE_STATIC_MEMORY
 544              		.loc 5 246 0
 545 0130 750000DA 		ble	.L40
 250:C:/Renesas/e2studio_2021_01_workspace_RZA2M_ANPR/ANPR_RZA2M_EBK/src/tensorflow_lite/tensorflow/lite/kernels/internal\types.h **** #endif  // TF_LITE_STATIC_MEMORY
 546              		.loc 5 250 0
 547 0134 2E0272E3 		cmn	r2, #-536870910
 548 0138 770000CA 		bgt	.L41
 549 013c 0271A0E1 		lsl	r7, r2, #2
 550 0140 0700A0E1 		mov	r0, r7
 551              	.LEHB1:
 552 0144 FEFFFFEB 		bl	_Znaj
 553              	.LVL63:
 554              	.LEHE1:
 555 0148 3C008DE5 		str	r0, [sp, #60]
 556              	.LVL64:
 557              	.L42:
 558              	.LBE431:
 559              	.LBE430:
 560              		.loc 5 258 0
 561 014c 0810A0E1 		mov	r1, r8
 562 0150 0720A0E1 		mov	r2, r7
 563 0154 FEFFFFEB 		bl	memcpy
 564              	.LVL65:
 565              	.LBE429:
 566              	.LBE428:
 567              	.LBE427:
 568              	.LBE426:
 569              	.LBE425:
  74:../src/tensorflow_lite/tensorflow/lite/micro/kernels/activations.cc **** 
 570              		.loc 1 74 0
 571 0158 880A88EE 		vdiv.f32	s0, s17, s16
  79:../src/tensorflow_lite/tensorflow/lite/micro/kernels/activations.cc ****                      &data->params.output_shift);
 572              		.loc 1 79 0
 573 015c 181085E2 		add	r1, r5, #24
 574 0160 140085E2 		add	r0, r5, #20
 575 0164 C00AB7EE 		vcvt.f64.f32	d0, s0
 576              	.LEHB2:
 577 0168 FEFFFFEB 		bl	_ZN6tflite18QuantizeMultiplierEdPlPi
 578              	.LVL66:
  85:../src/tensorflow_lite/tensorflow/lite/micro/kernels/activations.cc ****   data->params.quantized_activation_max =
 579              		.loc 1 85 0
 580 016c 037AD4ED 		vldr.32	s15, [r4, #12]
 581 0170 8B0A9FED 		vldr.32	s0, .L97
  84:../src/tensorflow_lite/tensorflow/lite/micro/kernels/activations.cc ****           static_cast<int32_t>(roundf(act_min / output->params.scale)));
 582              		.loc 1 84 0
 583 0174 104094E5 		ldr	r4, [r4, #16]
 584              	.LVL67:
  85:../src/tensorflow_lite/tensorflow/lite/micro/kernels/activations.cc ****   data->params.quantized_activation_max =
 585              		.loc 1 85 0
 586 0178 270A80EE 		vdiv.f32	s0, s0, s15
 587 017c FEFFFFEB 		bl	roundf
 588              	.LVL68:
 589              	.LEHE2:
  84:../src/tensorflow_lite/tensorflow/lite/micro/kernels/activations.cc ****           static_cast<int32_t>(roundf(act_min / output->params.scale)));
 590              		.loc 1 84 0
 591 0180 C00ABDEE 		vcvt.s32.f32	s0, s0
  86:../src/tensorflow_lite/tensorflow/lite/micro/kernels/activations.cc ****       act_max == std::numeric_limits<float>::infinity()
 592              		.loc 1 86 0
 593 0184 7F30A0E3 		mov	r3, #127
  93:../src/tensorflow_lite/tensorflow/lite/micro/kernels/activations.cc ****   data->params.output_offset = output->params.zero_point;
 594              		.loc 1 93 0
 595 0188 100096E5 		ldr	r0, [r6, #16]
  82:../src/tensorflow_lite/tensorflow/lite/micro/kernels/activations.cc ****       static_cast<int32_t>(std::numeric_limits<T>::min()),
 596              		.loc 1 82 0
 597 018c 7F20E0E3 		mvn	r2, #127
 598              	.LBB444:
 599              	.LBB445:
 203:C:/Renesas/e2studio_2021_01_workspace_RZA2M_ANPR/ANPR_RZA2M_EBK/src/tensorflow_lite/tensorflow/lite/kernels/internal\types.h **** #ifdef TF_LITE_STATIC_MEMORY
 600              		.loc 5 203 0
 601 0190 38109DE5 		ldr	r1, [sp, #56]
 602              	.LBE445:
 603              	.LBE444:
  86:../src/tensorflow_lite/tensorflow/lite/micro/kernels/activations.cc ****       act_max == std::numeric_limits<float>::infinity()
 604              		.loc 1 86 0
 605 0194 083085E5 		str	r3, [r5, #8]
  84:../src/tensorflow_lite/tensorflow/lite/micro/kernels/activations.cc ****           static_cast<int32_t>(roundf(act_min / output->params.scale)));
 606              		.loc 1 84 0
 607 0198 103A10EE 		vmov	r3, s0	@ int
 608 019c 043083E0 		add	r3, r3, r4
  94:../src/tensorflow_lite/tensorflow/lite/micro/kernels/activations.cc **** }
 609              		.loc 1 94 0
 610 01a0 104085E5 		str	r4, [r5, #16]
 611              	.LVL69:
  82:../src/tensorflow_lite/tensorflow/lite/micro/kernels/activations.cc ****       static_cast<int32_t>(std::numeric_limits<T>::min()),
 612              		.loc 1 82 0
 613 01a4 020053E1 		cmp	r3, r2
  93:../src/tensorflow_lite/tensorflow/lite/micro/kernels/activations.cc ****   data->params.output_offset = output->params.zero_point;
 614              		.loc 1 93 0
 615 01a8 0C0085E5 		str	r0, [r5, #12]
  82:../src/tensorflow_lite/tensorflow/lite/micro/kernels/activations.cc ****       static_cast<int32_t>(std::numeric_limits<T>::min()),
 616              		.loc 1 82 0
 617 01ac 0230A0B1 		movlt	r3, r2
 618              	.LBB448:
 619              	.LBB446:
 203:C:/Renesas/e2studio_2021_01_workspace_RZA2M_ANPR/ANPR_RZA2M_EBK/src/tensorflow_lite/tensorflow/lite/kernels/internal\types.h **** #ifdef TF_LITE_STATIC_MEMORY
 620              		.loc 5 203 0
 621 01b0 050051E3 		cmp	r1, #5
 622              	.LBE446:
 623              	.LBE448:
  82:../src/tensorflow_lite/tensorflow/lite/micro/kernels/activations.cc ****       static_cast<int32_t>(std::numeric_limits<T>::min()),
 624              		.loc 1 82 0
 625 01b4 043085E5 		str	r3, [r5, #4]
 626              	.LBB449:
 627              	.LBB447:
 203:C:/Renesas/e2studio_2021_01_workspace_RZA2M_ANPR/ANPR_RZA2M_EBK/src/tensorflow_lite/tensorflow/lite/kernels/internal\types.h **** #ifdef TF_LITE_STATIC_MEMORY
 628              		.loc 5 203 0
 629 01b8 030000DA 		ble	.L43
 207:C:/Renesas/e2studio_2021_01_workspace_RZA2M_ANPR/ANPR_RZA2M_EBK/src/tensorflow_lite/tensorflow/lite/kernels/internal\types.h **** #endif  // TF_LITE_STATIC_MEMORY
 630              		.loc 5 207 0
 631 01bc 3C009DE5 		ldr	r0, [sp, #60]
 632 01c0 000050E3 		cmp	r0, #0
 633 01c4 0000000A 		beq	.L43
 634 01c8 FEFFFFEB 		bl	_ZdaPv
 635              	.LVL70:
 636              	.L43:
 637              	.LBE447:
 638              	.LBE449:
 639              	.LBB450:
 640              	.LBB451:
 203:C:/Renesas/e2studio_2021_01_workspace_RZA2M_ANPR/ANPR_RZA2M_EBK/src/tensorflow_lite/tensorflow/lite/kernels/internal\types.h **** #ifdef TF_LITE_STATIC_MEMORY
 641              		.loc 5 203 0
 642 01cc 08309DE5 		ldr	r3, [sp, #8]
 643 01d0 050053E3 		cmp	r3, #5
 644 01d4 A0FFFFDA 		ble	.L60
 207:C:/Renesas/e2studio_2021_01_workspace_RZA2M_ANPR/ANPR_RZA2M_EBK/src/tensorflow_lite/tensorflow/lite/kernels/internal\types.h **** #endif  // TF_LITE_STATIC_MEMORY
 645              		.loc 5 207 0
 646 01d8 0C009DE5 		ldr	r0, [sp, #12]
 647 01dc 000050E3 		cmp	r0, #0
 648 01e0 9DFFFF0A 		beq	.L60
 649              	.LVL71:
 650              	.L91:
 651              	.LBE451:
 652              	.LBE450:
 653              	.LBE403:
 654              	.LBE402:
 655              	.LBB464:
 656              	.LBB398:
 657              	.LBB360:
 658              	.LBB361:
 659 01e4 FEFFFFEB 		bl	_ZdaPv
 660              	.LVL72:
 661 01e8 9BFFFFEA 		b	.L60
 662              	.LVL73:
 663              	.L49:
 664 01ec 0271A0E1 		lsl	r7, r2, #2
 665              	.LVL74:
 666              	.LBE361:
 667              	.LBE360:
 668              	.LBB363:
 669              	.LBB358:
 670              	.LBB356:
 671              	.LBB355:
 672              	.LBB354:
 673              	.LBB352:
 674              	.LBB353:
 229:C:/Renesas/e2studio_2021_01_workspace_RZA2M_ANPR/ANPR_RZA2M_EBK/src/tensorflow_lite/tensorflow/lite/kernels/internal\types.h ****   }
 675              		.loc 5 229 0
 676 01f0 24008DE2 		add	r0, sp, #36
 677              	.LVL75:
 678              	.L50:
 679              	.LBE353:
 680              	.LBE352:
 681              		.loc 5 258 0
 682 01f4 0720A0E1 		mov	r2, r7
 683 01f8 0810A0E1 		mov	r1, r8
 684 01fc FEFFFFEB 		bl	memcpy
 685              	.LVL76:
 686              	.LBE354:
 687              	.LBE355:
 688              	.LBE356:
 689              	.LBE358:
 690              	.LBE363:
 691              	.LBB364:
 692              	.LBB365:
 693              		.loc 4 40 0
 694 0200 088094E5 		ldr	r8, [r4, #8]
 695              	.LVL77:
 696 0204 042098E4 		ldr	r2, [r8], #4
 697              	.LVL78:
 698              	.LBB366:
 699              	.LBB367:
 700              	.LBB368:
 701              	.LBB369:
 702              	.LBB370:
 246:C:/Renesas/e2studio_2021_01_workspace_RZA2M_ANPR/ANPR_RZA2M_EBK/src/tensorflow_lite/tensorflow/lite/kernels/internal\types.h **** #ifdef TF_LITE_STATIC_MEMORY
 703              		.loc 5 246 0
 704 0208 050052E3 		cmp	r2, #5
 245:C:/Renesas/e2studio_2021_01_workspace_RZA2M_ANPR/ANPR_RZA2M_EBK/src/tensorflow_lite/tensorflow/lite/kernels/internal\types.h ****     if (dimensions_count > kMaxSmallSize) {
 705              		.loc 5 245 0
 706 020c 38208DE5 		str	r2, [sp, #56]
 246:C:/Renesas/e2studio_2021_01_workspace_RZA2M_ANPR/ANPR_RZA2M_EBK/src/tensorflow_lite/tensorflow/lite/kernels/internal\types.h **** #ifdef TF_LITE_STATIC_MEMORY
 707              		.loc 5 246 0
 708 0210 2D0000DA 		ble	.L51
 250:C:/Renesas/e2studio_2021_01_workspace_RZA2M_ANPR/ANPR_RZA2M_EBK/src/tensorflow_lite/tensorflow/lite/kernels/internal\types.h **** #endif  // TF_LITE_STATIC_MEMORY
 709              		.loc 5 250 0
 710 0214 2E0272E3 		cmn	r2, #-536870910
 711 0218 510000CA 		bgt	.L52
 712 021c 0271A0E1 		lsl	r7, r2, #2
 713 0220 0700A0E1 		mov	r0, r7
 714              	.LEHB3:
 715 0224 FEFFFFEB 		bl	_Znaj
 716              	.LVL79:
 717              	.LEHE3:
 718 0228 3C008DE5 		str	r0, [sp, #60]
 719              	.LVL80:
 720              	.L53:
 721              	.LBE370:
 722              	.LBE369:
 723              		.loc 5 258 0
 724 022c 0810A0E1 		mov	r1, r8
 725 0230 0720A0E1 		mov	r2, r7
 726 0234 FEFFFFEB 		bl	memcpy
 727              	.LVL81:
 728              	.LBE368:
 729              	.LBE367:
 730              	.LBE366:
 731              	.LBE365:
 732              	.LBE364:
  74:../src/tensorflow_lite/tensorflow/lite/micro/kernels/activations.cc **** 
 733              		.loc 1 74 0
 734 0238 880A88EE 		vdiv.f32	s0, s17, s16
  79:../src/tensorflow_lite/tensorflow/lite/micro/kernels/activations.cc ****                      &data->params.output_shift);
 735              		.loc 1 79 0
 736 023c 181085E2 		add	r1, r5, #24
 737 0240 140085E2 		add	r0, r5, #20
 738 0244 C00AB7EE 		vcvt.f64.f32	d0, s0
 739              	.LEHB4:
 740 0248 FEFFFFEB 		bl	_ZN6tflite18QuantizeMultiplierEdPlPi
 741              	.LVL82:
  85:../src/tensorflow_lite/tensorflow/lite/micro/kernels/activations.cc ****   data->params.quantized_activation_max =
 742              		.loc 1 85 0
 743 024c 037AD4ED 		vldr.32	s15, [r4, #12]
 744 0250 530A9FED 		vldr.32	s0, .L97
  84:../src/tensorflow_lite/tensorflow/lite/micro/kernels/activations.cc ****           static_cast<int32_t>(roundf(act_min / output->params.scale)));
 745              		.loc 1 84 0
 746 0254 104094E5 		ldr	r4, [r4, #16]
 747              	.LVL83:
  85:../src/tensorflow_lite/tensorflow/lite/micro/kernels/activations.cc ****   data->params.quantized_activation_max =
 748              		.loc 1 85 0
 749 0258 270A80EE 		vdiv.f32	s0, s0, s15
 750 025c FEFFFFEB 		bl	roundf
 751              	.LVL84:
 752              	.LEHE4:
  84:../src/tensorflow_lite/tensorflow/lite/micro/kernels/activations.cc ****           static_cast<int32_t>(roundf(act_min / output->params.scale)));
 753              		.loc 1 84 0
 754 0260 C00ABDEE 		vcvt.s32.f32	s0, s0
  86:../src/tensorflow_lite/tensorflow/lite/micro/kernels/activations.cc ****       act_max == std::numeric_limits<float>::infinity()
 755              		.loc 1 86 0
 756 0264 FF00A0E3 		mov	r0, #255
 757              	.LBB383:
 758              	.LBB384:
 203:C:/Renesas/e2studio_2021_01_workspace_RZA2M_ANPR/ANPR_RZA2M_EBK/src/tensorflow_lite/tensorflow/lite/kernels/internal\types.h **** #ifdef TF_LITE_STATIC_MEMORY
 759              		.loc 5 203 0
 760 0268 38109DE5 		ldr	r1, [sp, #56]
 761              	.LBE384:
 762              	.LBE383:
  93:../src/tensorflow_lite/tensorflow/lite/micro/kernels/activations.cc ****   data->params.output_offset = output->params.zero_point;
 763              		.loc 1 93 0
 764 026c 102096E5 		ldr	r2, [r6, #16]
  86:../src/tensorflow_lite/tensorflow/lite/micro/kernels/activations.cc ****       act_max == std::numeric_limits<float>::infinity()
 765              		.loc 1 86 0
 766 0270 080085E5 		str	r0, [r5, #8]
  84:../src/tensorflow_lite/tensorflow/lite/micro/kernels/activations.cc ****           static_cast<int32_t>(roundf(act_min / output->params.scale)));
 767              		.loc 1 84 0
 768 0274 103A10EE 		vmov	r3, s0	@ int
 769              	.LBB387:
 770              	.LBB385:
 203:C:/Renesas/e2studio_2021_01_workspace_RZA2M_ANPR/ANPR_RZA2M_EBK/src/tensorflow_lite/tensorflow/lite/kernels/internal\types.h **** #ifdef TF_LITE_STATIC_MEMORY
 771              		.loc 5 203 0
 772 0278 050051E3 		cmp	r1, #5
 773              	.LBE385:
 774              	.LBE387:
  84:../src/tensorflow_lite/tensorflow/lite/micro/kernels/activations.cc ****           static_cast<int32_t>(roundf(act_min / output->params.scale)));
 775              		.loc 1 84 0
 776 027c 043083E0 		add	r3, r3, r4
  93:../src/tensorflow_lite/tensorflow/lite/micro/kernels/activations.cc ****   data->params.output_offset = output->params.zero_point;
 777              		.loc 1 93 0
 778 0280 0C2085E5 		str	r2, [r5, #12]
  82:../src/tensorflow_lite/tensorflow/lite/micro/kernels/activations.cc ****       static_cast<int32_t>(std::numeric_limits<T>::min()),
 779              		.loc 1 82 0
 780 0284 C33FC3E1 		bic	r3, r3, r3, asr #31
  94:../src/tensorflow_lite/tensorflow/lite/micro/kernels/activations.cc **** }
 781              		.loc 1 94 0
 782 0288 104085E5 		str	r4, [r5, #16]
 783              	.LVL85:
  82:../src/tensorflow_lite/tensorflow/lite/micro/kernels/activations.cc ****       static_cast<int32_t>(std::numeric_limits<T>::min()),
 784              		.loc 1 82 0
 785 028c 043085E5 		str	r3, [r5, #4]
 786              	.LBB388:
 787              	.LBB386:
 203:C:/Renesas/e2studio_2021_01_workspace_RZA2M_ANPR/ANPR_RZA2M_EBK/src/tensorflow_lite/tensorflow/lite/kernels/internal\types.h **** #ifdef TF_LITE_STATIC_MEMORY
 788              		.loc 5 203 0
 789 0290 030000DA 		ble	.L54
 207:C:/Renesas/e2studio_2021_01_workspace_RZA2M_ANPR/ANPR_RZA2M_EBK/src/tensorflow_lite/tensorflow/lite/kernels/internal\types.h **** #endif  // TF_LITE_STATIC_MEMORY
 790              		.loc 5 207 0
 791 0294 3C009DE5 		ldr	r0, [sp, #60]
 792 0298 000050E3 		cmp	r0, #0
 793 029c 0000000A 		beq	.L54
 794 02a0 FEFFFFEB 		bl	_ZdaPv
 795              	.LVL86:
 796              	.L54:
 797              	.LBE386:
 798              	.LBE388:
 799              	.LBB389:
 800              	.LBB362:
 203:C:/Renesas/e2studio_2021_01_workspace_RZA2M_ANPR/ANPR_RZA2M_EBK/src/tensorflow_lite/tensorflow/lite/kernels/internal\types.h **** #ifdef TF_LITE_STATIC_MEMORY
 801              		.loc 5 203 0
 802 02a4 20309DE5 		ldr	r3, [sp, #32]
 803 02a8 050053E3 		cmp	r3, #5
 804 02ac 6AFFFFDA 		ble	.L60
 207:C:/Renesas/e2studio_2021_01_workspace_RZA2M_ANPR/ANPR_RZA2M_EBK/src/tensorflow_lite/tensorflow/lite/kernels/internal\types.h **** #endif  // TF_LITE_STATIC_MEMORY
 805              		.loc 5 207 0
 806 02b0 24009DE5 		ldr	r0, [sp, #36]
 807 02b4 000050E3 		cmp	r0, #0
 808 02b8 C9FFFF1A 		bne	.L91
 809 02bc 66FFFFEA 		b	.L60
 810              	.LVL87:
 811              	.L37:
 812 02c0 0271A0E1 		lsl	r7, r2, #2
 813              	.LVL88:
 814              	.LBE362:
 815              	.LBE389:
 816              	.LBE398:
 817              	.LBE464:
 818              	.LBB465:
 819              	.LBB460:
 820              	.LBB452:
 821              	.LBB422:
 822              	.LBB419:
 823              	.LBB417:
 824              	.LBB415:
 825              	.LBB412:
 826              	.LBB413:
 229:C:/Renesas/e2studio_2021_01_workspace_RZA2M_ANPR/ANPR_RZA2M_EBK/src/tensorflow_lite/tensorflow/lite/kernels/internal\types.h ****   }
 827              		.loc 5 229 0
 828 02c4 0C008DE2 		add	r0, sp, #12
 829              	.LVL89:
 830 02c8 91FFFFEA 		b	.L39
 831              	.LVL90:
 832              	.L51:
 833 02cc 0271A0E1 		lsl	r7, r2, #2
 834              	.LBE413:
 835              	.LBE412:
 836              	.LBE415:
 837              	.LBE417:
 838              	.LBE419:
 839              	.LBE422:
 840              	.LBE452:
 841              	.LBE460:
 842              	.LBE465:
 843              	.LBB466:
 844              	.LBB399:
 845              	.LBB390:
 846              	.LBB381:
 847              	.LBB379:
 848              	.LBB377:
 849              	.LBB375:
 850              	.LBB372:
 851              	.LBB373:
 852 02d0 3C008DE2 		add	r0, sp, #60
 853 02d4 D4FFFFEA 		b	.L53
 854              	.LVL91:
 855              	.L94:
 856              	.LBE373:
 857              	.LBE372:
 858              	.LBE375:
 859              	.LBE377:
 860              	.LBE379:
 861              	.LBE381:
 862              	.LBE390:
 863              	.LBE399:
 864              	.LBE466:
 144:../src/tensorflow_lite/tensorflow/lite/micro/kernels/activations.cc **** 
 865              		.loc 1 144 0 discriminator 1
 866 02d8 003000E3 		movw	r3, #:lower16:.LC5
 867 02dc 002000E3 		movw	r2, #:lower16:.LC2
 868 02e0 003040E3 		movt	r3, #:upper16:.LC5
 869 02e4 001000E3 		movw	r1, #:lower16:.LC3
 870 02e8 00308DE5 		str	r3, [sp]
 871 02ec 0700A0E1 		mov	r0, r7
 872              	.LVL92:
 873 02f0 002040E3 		movt	r2, #:upper16:.LC2
 874 02f4 001040E3 		movt	r1, #:upper16:.LC3
 875 02f8 144097E5 		ldr	r4, [r7, #20]
 876              	.LVL93:
 877 02fc 9030A0E3 		mov	r3, #144
 878              	.LEHB5:
 879 0300 34FF2FE1 		blx	r4
 880              	.LVL94:
 881 0304 0100A0E3 		mov	r0, #1
 882 0308 54FFFFEA 		b	.L34
 883              	.LVL95:
 884              	.L40:
 885 030c 0271A0E1 		lsl	r7, r2, #2
 886              	.LBB467:
 887              	.LBB461:
 888              	.LBB453:
 889              	.LBB442:
 890              	.LBB440:
 891              	.LBB438:
 892              	.LBB436:
 893              	.LBB433:
 894              	.LBB434:
 229:C:/Renesas/e2studio_2021_01_workspace_RZA2M_ANPR/ANPR_RZA2M_EBK/src/tensorflow_lite/tensorflow/lite/kernels/internal\types.h ****   }
 895              		.loc 5 229 0
 896 0310 3C008DE2 		add	r0, sp, #60
 897 0314 8CFFFFEA 		b	.L42
 898              	.LVL96:
 899              	.L92:
 900              	.LBE434:
 901              	.LBE433:
 902              	.LBE436:
 903              	.LBE438:
 904              	.LBE440:
 905              	.LBE442:
 906              	.LBE453:
 907              	.LBE461:
 908              	.LBE467:
 138:../src/tensorflow_lite/tensorflow/lite/micro/kernels/activations.cc ****   ReluOpData* data = static_cast<ReluOpData*>(node->user_data);
 909              		.loc 1 138 0 discriminator 1
 910 0318 FEFFFFEB 		bl	abort
 911              	.LVL97:
 912              	.LEHE5:
 913              	.L41:
 914              	.LEHB6:
 915              	.LBB468:
 916              	.LBB462:
 917              	.LBB454:
 918              	.LBB443:
 919              	.LBB441:
 920              	.LBB439:
 921              	.LBB437:
 922              	.LBB435:
 923              	.LBB432:
 250:C:/Renesas/e2studio_2021_01_workspace_RZA2M_ANPR/ANPR_RZA2M_EBK/src/tensorflow_lite/tensorflow/lite/kernels/internal\types.h **** #endif  // TF_LITE_STATIC_MEMORY
 924              		.loc 5 250 0
 925 031c FEFFFFEB 		bl	__cxa_throw_bad_array_new_length
 926              	.LVL98:
 927              	.LEHE6:
 928              	.L62:
 929              	.LBE432:
 930              	.LBE435:
 931              	.LBE437:
 932              	.LBE439:
 933              	.LBE441:
 934              	.LBE443:
 935              	.LBE454:
 936              	.LBB455:
 937              	.LBB456:
 203:C:/Renesas/e2studio_2021_01_workspace_RZA2M_ANPR/ANPR_RZA2M_EBK/src/tensorflow_lite/tensorflow/lite/kernels/internal\types.h **** #ifdef TF_LITE_STATIC_MEMORY
 938              		.loc 5 203 0
 939 0320 38309DE5 		ldr	r3, [sp, #56]
 940 0324 050053E3 		cmp	r3, #5
 941 0328 030000DA 		ble	.L47
 207:C:/Renesas/e2studio_2021_01_workspace_RZA2M_ANPR/ANPR_RZA2M_EBK/src/tensorflow_lite/tensorflow/lite/kernels/internal\types.h **** #endif  // TF_LITE_STATIC_MEMORY
 942              		.loc 5 207 0
 943 032c 3C009DE5 		ldr	r0, [sp, #60]
 944 0330 000050E3 		cmp	r0, #0
 945 0334 0000000A 		beq	.L47
 946 0338 FEFFFFEB 		bl	_ZdaPv
 947              	.LVL99:
 948              	.L47:
 949              	.LBE456:
 950              	.LBE455:
 951              	.LBB457:
 952              	.LBB458:
 203:C:/Renesas/e2studio_2021_01_workspace_RZA2M_ANPR/ANPR_RZA2M_EBK/src/tensorflow_lite/tensorflow/lite/kernels/internal\types.h **** #ifdef TF_LITE_STATIC_MEMORY
 953              		.loc 5 203 0
 954 033c 08309DE5 		ldr	r3, [sp, #8]
 955 0340 050053E3 		cmp	r3, #5
 956 0344 030000DA 		ble	.L59
 207:C:/Renesas/e2studio_2021_01_workspace_RZA2M_ANPR/ANPR_RZA2M_EBK/src/tensorflow_lite/tensorflow/lite/kernels/internal\types.h **** #endif  // TF_LITE_STATIC_MEMORY
 957              		.loc 5 207 0
 958 0348 0C009DE5 		ldr	r0, [sp, #12]
 959 034c 000050E3 		cmp	r0, #0
 960 0350 0000000A 		beq	.L59
 961              	.LVL100:
 962              	.L90:
 963              	.LBE458:
 964              	.LBE457:
 965              	.LBE462:
 966              	.LBE468:
 967              	.LBB469:
 968              	.LBB400:
 969              	.LBB391:
 970              	.LBB392:
 971 0354 FEFFFFEB 		bl	_ZdaPv
 972              	.LVL101:
 973              	.L59:
 974              	.LEHB7:
 975 0358 FEFFFFEB 		bl	__cxa_end_cleanup
 976              	.LVL102:
 977              	.L61:
 978 035c F6FFFFEA 		b	.L47
 979              	.LVL103:
 980              	.L38:
 981              	.LBE392:
 982              	.LBE391:
 983              	.LBE400:
 984              	.LBE469:
 985              	.LBB470:
 986              	.LBB463:
 987              	.LBB459:
 988              	.LBB423:
 989              	.LBB420:
 990              	.LBB418:
 991              	.LBB416:
 992              	.LBB414:
 993              	.LBB411:
 250:C:/Renesas/e2studio_2021_01_workspace_RZA2M_ANPR/ANPR_RZA2M_EBK/src/tensorflow_lite/tensorflow/lite/kernels/internal\types.h **** #endif  // TF_LITE_STATIC_MEMORY
 994              		.loc 5 250 0
 995 0360 FEFFFFEB 		bl	__cxa_throw_bad_array_new_length
 996              	.LVL104:
 997              	.LEHE7:
 998              	.L52:
 999              	.LEHB8:
 1000              	.LBE411:
 1001              	.LBE414:
 1002              	.LBE416:
 1003              	.LBE418:
 1004              	.LBE420:
 1005              	.LBE423:
 1006              	.LBE459:
 1007              	.LBE463:
 1008              	.LBE470:
 1009              	.LBB471:
 1010              	.LBB401:
 1011              	.LBB394:
 1012              	.LBB382:
 1013              	.LBB380:
 1014              	.LBB378:
 1015              	.LBB376:
 1016              	.LBB374:
 1017              	.LBB371:
 1018 0364 FEFFFFEB 		bl	__cxa_throw_bad_array_new_length
 1019              	.LVL105:
 1020              	.LEHE8:
 1021              	.L64:
 1022              	.LBE371:
 1023              	.LBE374:
 1024              	.LBE376:
 1025              	.LBE378:
 1026              	.LBE380:
 1027              	.LBE382:
 1028              	.LBE394:
 1029              	.LBB395:
 1030              	.LBB396:
 203:C:/Renesas/e2studio_2021_01_workspace_RZA2M_ANPR/ANPR_RZA2M_EBK/src/tensorflow_lite/tensorflow/lite/kernels/internal\types.h **** #ifdef TF_LITE_STATIC_MEMORY
 1031              		.loc 5 203 0
 1032 0368 38309DE5 		ldr	r3, [sp, #56]
 1033 036c 050053E3 		cmp	r3, #5
 1034 0370 030000DA 		ble	.L58
 207:C:/Renesas/e2studio_2021_01_workspace_RZA2M_ANPR/ANPR_RZA2M_EBK/src/tensorflow_lite/tensorflow/lite/kernels/internal\types.h **** #endif  // TF_LITE_STATIC_MEMORY
 1035              		.loc 5 207 0
 1036 0374 3C009DE5 		ldr	r0, [sp, #60]
 1037 0378 000050E3 		cmp	r0, #0
 1038 037c 0000000A 		beq	.L58
 1039 0380 FEFFFFEB 		bl	_ZdaPv
 1040              	.LVL106:
 1041              	.L58:
 1042              	.LBE396:
 1043              	.LBE395:
 1044              	.LBB397:
 1045              	.LBB393:
 203:C:/Renesas/e2studio_2021_01_workspace_RZA2M_ANPR/ANPR_RZA2M_EBK/src/tensorflow_lite/tensorflow/lite/kernels/internal\types.h **** #ifdef TF_LITE_STATIC_MEMORY
 1046              		.loc 5 203 0
 1047 0384 20309DE5 		ldr	r3, [sp, #32]
 1048 0388 050053E3 		cmp	r3, #5
 1049 038c F1FFFFDA 		ble	.L59
 207:C:/Renesas/e2studio_2021_01_workspace_RZA2M_ANPR/ANPR_RZA2M_EBK/src/tensorflow_lite/tensorflow/lite/kernels/internal\types.h **** #endif  // TF_LITE_STATIC_MEMORY
 1050              		.loc 5 207 0
 1051 0390 24009DE5 		ldr	r0, [sp, #36]
 1052 0394 000050E3 		cmp	r0, #0
 1053 0398 EDFFFF1A 		bne	.L90
 1054 039c EDFFFFEA 		b	.L59
 1055              	.LVL107:
 1056              	.L63:
 1057 03a0 F7FFFFEA 		b	.L58
 1058              	.L98:
 1059              		.align	2
 1060              	.L97:
 1061 03a4 00000000 		.word	0
 1062              	.LBE393:
 1063              	.LBE397:
 1064              	.LBE401:
 1065              	.LBE471:
 1066              		.cfi_endproc
 1067              	.LFE4180:
 1068              		.global	__gxx_personality_v0
 1069              		.personality	__gxx_personality_v0
 1070              		.handlerdata
 1071              	.LLSDA4180:
 1072 000c FF       		.byte	0xff
 1073 000d FF       		.byte	0xff
 1074 000e 01       		.byte	0x1
 1075 000f 33       		.uleb128 .LLSDACSE4180-.LLSDACSB4180
 1076              	.LLSDACSB4180:
 1077 0010 24       		.uleb128 .LEHB0-.LFB4180
 1078 0011 EC01     		.uleb128 .LEHE0-.LEHB0
 1079 0013 00       		.uleb128 0
 1080 0014 00       		.uleb128 0
 1081 0015 C402     		.uleb128 .LEHB1-.LFB4180
 1082 0017 04       		.uleb128 .LEHE1-.LEHB1
 1083 0018 DC06     		.uleb128 .L61-.LFB4180
 1084 001a 00       		.uleb128 0
 1085 001b E802     		.uleb128 .LEHB2-.LFB4180
 1086 001d 18       		.uleb128 .LEHE2-.LEHB2
 1087 001e A006     		.uleb128 .L62-.LFB4180
 1088 0020 00       		.uleb128 0
 1089 0021 A404     		.uleb128 .LEHB3-.LFB4180
 1090 0023 04       		.uleb128 .LEHE3-.LEHB3
 1091 0024 A007     		.uleb128 .L63-.LFB4180
 1092 0026 00       		.uleb128 0
 1093 0027 C804     		.uleb128 .LEHB4-.LFB4180
 1094 0029 18       		.uleb128 .LEHE4-.LEHB4
 1095 002a E806     		.uleb128 .L64-.LFB4180
 1096 002c 00       		.uleb128 0
 1097 002d 8006     		.uleb128 .LEHB5-.LFB4180
 1098 002f 1C       		.uleb128 .LEHE5-.LEHB5
 1099 0030 00       		.uleb128 0
 1100 0031 00       		.uleb128 0
 1101 0032 9C06     		.uleb128 .LEHB6-.LFB4180
 1102 0034 04       		.uleb128 .LEHE6-.LEHB6
 1103 0035 DC06     		.uleb128 .L61-.LFB4180
 1104 0037 00       		.uleb128 0
 1105 0038 D806     		.uleb128 .LEHB7-.LFB4180
 1106 003a 0C       		.uleb128 .LEHE7-.LEHB7
 1107 003b 00       		.uleb128 0
 1108 003c 00       		.uleb128 0
 1109 003d E406     		.uleb128 .LEHB8-.LFB4180
 1110 003f 04       		.uleb128 .LEHE8-.LEHB8
 1111 0040 A007     		.uleb128 .L63-.LFB4180
 1112 0042 00       		.uleb128 0
 1113              	.LLSDACSE4180:
 1114              		.section	.text._ZN6tflite3ops5micro11activations11ReluPrepareEP13TfLiteContextP10TfLiteNode
 1115              		.fnend
 1117              		.section	.text._ZN6tflite3ops5micro11activations8ReluEvalEP13TfLiteContextP10TfLiteNode,"ax",%prog
 1118              		.align	2
 1119              		.global	_ZN6tflite3ops5micro11activations8ReluEvalEP13TfLiteContextP10TfLiteNode
 1120              		.syntax unified
 1121              		.arm
 1122              		.fpu neon
 1124              	_ZN6tflite3ops5micro11activations8ReluEvalEP13TfLiteContextP10TfLiteNode:
 1125              		.fnstart
 1126              	.LFB4181:
 155:../src/tensorflow_lite/tensorflow/lite/micro/kernels/activations.cc ****   TFLITE_DCHECK(node->user_data != nullptr);
 1127              		.loc 1 155 0
 1128              		.cfi_startproc
 1129              		.cfi_personality 0,__gxx_personality_v0
 1130              		.cfi_lsda 0,.LLSDA4181
 1131              		@ args = 0, pretend = 0, frame = 48
 1132              		@ frame_needed = 0, uses_anonymous_args = 0
 1133              	.LVL108:
 1134 0000 F0432DE9 		push	{r4, r5, r6, r7, r8, r9, lr}
 1135              		.save {r4, r5, r6, r7, r8, r9, lr}
 1136              		.cfi_def_cfa_offset 28
 1137              		.cfi_offset 4, -28
 1138              		.cfi_offset 5, -24
 1139              		.cfi_offset 6, -20
 1140              		.cfi_offset 7, -16
 1141              		.cfi_offset 8, -12
 1142              		.cfi_offset 9, -8
 1143              		.cfi_offset 14, -4
 1144              		.pad #52
 1145 0004 34D04DE2 		sub	sp, sp, #52
 1146              		.cfi_def_cfa_offset 80
 156:../src/tensorflow_lite/tensorflow/lite/micro/kernels/activations.cc ****   const ReluOpData& data = *(static_cast<const ReluOpData*>(node->user_data));
 1147              		.loc 1 156 0
 1148 0008 104091E5 		ldr	r4, [r1, #16]
 1149 000c 000054E3 		cmp	r4, #0
 1150 0010 0503000A 		beq	.L101
 1151              	.LBB622:
 1152              	.LBB623:
 1153              	.LBB624:
 1154              		.file 6 "C:/Renesas/e2studio_2021_01_workspace_RZA2M_ANPR/ANPR_RZA2M_EBK/src/tensorflow_lite/tenso
   1:C:/Renesas/e2studio_2021_01_workspace_RZA2M_ANPR/ANPR_RZA2M_EBK/src/tensorflow_lite/tensorflow/lite/micro/kernels\kernel_util.h **** /* Copyright 2020 The TensorFlow Authors. All Rights Reserved.
   2:C:/Renesas/e2studio_2021_01_workspace_RZA2M_ANPR/ANPR_RZA2M_EBK/src/tensorflow_lite/tensorflow/lite/micro/kernels\kernel_util.h **** 
   3:C:/Renesas/e2studio_2021_01_workspace_RZA2M_ANPR/ANPR_RZA2M_EBK/src/tensorflow_lite/tensorflow/lite/micro/kernels\kernel_util.h **** Licensed under the Apache License, Version 2.0 (the "License");
   4:C:/Renesas/e2studio_2021_01_workspace_RZA2M_ANPR/ANPR_RZA2M_EBK/src/tensorflow_lite/tensorflow/lite/micro/kernels\kernel_util.h **** you may not use this file except in compliance with the License.
   5:C:/Renesas/e2studio_2021_01_workspace_RZA2M_ANPR/ANPR_RZA2M_EBK/src/tensorflow_lite/tensorflow/lite/micro/kernels\kernel_util.h **** You may obtain a copy of the License at
   6:C:/Renesas/e2studio_2021_01_workspace_RZA2M_ANPR/ANPR_RZA2M_EBK/src/tensorflow_lite/tensorflow/lite/micro/kernels\kernel_util.h **** 
   7:C:/Renesas/e2studio_2021_01_workspace_RZA2M_ANPR/ANPR_RZA2M_EBK/src/tensorflow_lite/tensorflow/lite/micro/kernels\kernel_util.h ****     http://www.apache.org/licenses/LICENSE-2.0
   8:C:/Renesas/e2studio_2021_01_workspace_RZA2M_ANPR/ANPR_RZA2M_EBK/src/tensorflow_lite/tensorflow/lite/micro/kernels\kernel_util.h **** 
   9:C:/Renesas/e2studio_2021_01_workspace_RZA2M_ANPR/ANPR_RZA2M_EBK/src/tensorflow_lite/tensorflow/lite/micro/kernels\kernel_util.h **** Unless required by applicable law or agreed to in writing, software
  10:C:/Renesas/e2studio_2021_01_workspace_RZA2M_ANPR/ANPR_RZA2M_EBK/src/tensorflow_lite/tensorflow/lite/micro/kernels\kernel_util.h **** distributed under the License is distributed on an "AS IS" BASIS,
  11:C:/Renesas/e2studio_2021_01_workspace_RZA2M_ANPR/ANPR_RZA2M_EBK/src/tensorflow_lite/tensorflow/lite/micro/kernels\kernel_util.h **** WITHOUT WARRANTIES OR CONDITIONS OF ANY KIND, either express or implied.
  12:C:/Renesas/e2studio_2021_01_workspace_RZA2M_ANPR/ANPR_RZA2M_EBK/src/tensorflow_lite/tensorflow/lite/micro/kernels\kernel_util.h **** See the License for the specific language governing permissions and
  13:C:/Renesas/e2studio_2021_01_workspace_RZA2M_ANPR/ANPR_RZA2M_EBK/src/tensorflow_lite/tensorflow/lite/micro/kernels\kernel_util.h **** limitations under the License.
  14:C:/Renesas/e2studio_2021_01_workspace_RZA2M_ANPR/ANPR_RZA2M_EBK/src/tensorflow_lite/tensorflow/lite/micro/kernels\kernel_util.h **** ==============================================================================*/
  15:C:/Renesas/e2studio_2021_01_workspace_RZA2M_ANPR/ANPR_RZA2M_EBK/src/tensorflow_lite/tensorflow/lite/micro/kernels\kernel_util.h **** 
  16:C:/Renesas/e2studio_2021_01_workspace_RZA2M_ANPR/ANPR_RZA2M_EBK/src/tensorflow_lite/tensorflow/lite/micro/kernels\kernel_util.h **** #ifndef TENSORFLOW_LITE_MICRO_KERNELS_KERNEL_UTIL_H_
  17:C:/Renesas/e2studio_2021_01_workspace_RZA2M_ANPR/ANPR_RZA2M_EBK/src/tensorflow_lite/tensorflow/lite/micro/kernels\kernel_util.h **** #define TENSORFLOW_LITE_MICRO_KERNELS_KERNEL_UTIL_H_
  18:C:/Renesas/e2studio_2021_01_workspace_RZA2M_ANPR/ANPR_RZA2M_EBK/src/tensorflow_lite/tensorflow/lite/micro/kernels\kernel_util.h **** 
  19:C:/Renesas/e2studio_2021_01_workspace_RZA2M_ANPR/ANPR_RZA2M_EBK/src/tensorflow_lite/tensorflow/lite/micro/kernels\kernel_util.h **** #include <cstdint>
  20:C:/Renesas/e2studio_2021_01_workspace_RZA2M_ANPR/ANPR_RZA2M_EBK/src/tensorflow_lite/tensorflow/lite/micro/kernels\kernel_util.h **** 
  21:C:/Renesas/e2studio_2021_01_workspace_RZA2M_ANPR/ANPR_RZA2M_EBK/src/tensorflow_lite/tensorflow/lite/micro/kernels\kernel_util.h **** #include "tensorflow/lite/c/builtin_op_data.h"
  22:C:/Renesas/e2studio_2021_01_workspace_RZA2M_ANPR/ANPR_RZA2M_EBK/src/tensorflow_lite/tensorflow/lite/micro/kernels\kernel_util.h **** #include "tensorflow/lite/c/common.h"
  23:C:/Renesas/e2studio_2021_01_workspace_RZA2M_ANPR/ANPR_RZA2M_EBK/src/tensorflow_lite/tensorflow/lite/micro/kernels\kernel_util.h **** #include "tensorflow/lite/kernels/internal/compatibility.h"
  24:C:/Renesas/e2studio_2021_01_workspace_RZA2M_ANPR/ANPR_RZA2M_EBK/src/tensorflow_lite/tensorflow/lite/micro/kernels\kernel_util.h **** #include "tensorflow/lite/kernels/internal/types.h"
  25:C:/Renesas/e2studio_2021_01_workspace_RZA2M_ANPR/ANPR_RZA2M_EBK/src/tensorflow_lite/tensorflow/lite/micro/kernels\kernel_util.h **** 
  26:C:/Renesas/e2studio_2021_01_workspace_RZA2M_ANPR/ANPR_RZA2M_EBK/src/tensorflow_lite/tensorflow/lite/micro/kernels\kernel_util.h **** namespace tflite {
  27:C:/Renesas/e2studio_2021_01_workspace_RZA2M_ANPR/ANPR_RZA2M_EBK/src/tensorflow_lite/tensorflow/lite/micro/kernels\kernel_util.h **** namespace micro {
  28:C:/Renesas/e2studio_2021_01_workspace_RZA2M_ANPR/ANPR_RZA2M_EBK/src/tensorflow_lite/tensorflow/lite/micro/kernels\kernel_util.h **** 
  29:C:/Renesas/e2studio_2021_01_workspace_RZA2M_ANPR/ANPR_RZA2M_EBK/src/tensorflow_lite/tensorflow/lite/micro/kernels\kernel_util.h **** // Returns a mutable tensor for a given input index. is_variable must be checked
  30:C:/Renesas/e2studio_2021_01_workspace_RZA2M_ANPR/ANPR_RZA2M_EBK/src/tensorflow_lite/tensorflow/lite/micro/kernels\kernel_util.h **** // during prepare when the full TfLiteTensor is available.
  31:C:/Renesas/e2studio_2021_01_workspace_RZA2M_ANPR/ANPR_RZA2M_EBK/src/tensorflow_lite/tensorflow/lite/micro/kernels\kernel_util.h **** inline TfLiteEvalTensor* GetMutableEvalInput(const TfLiteContext* context,
  32:C:/Renesas/e2studio_2021_01_workspace_RZA2M_ANPR/ANPR_RZA2M_EBK/src/tensorflow_lite/tensorflow/lite/micro/kernels\kernel_util.h ****                                              const TfLiteNode* node,
  33:C:/Renesas/e2studio_2021_01_workspace_RZA2M_ANPR/ANPR_RZA2M_EBK/src/tensorflow_lite/tensorflow/lite/micro/kernels\kernel_util.h ****                                              int index) {
  34:C:/Renesas/e2studio_2021_01_workspace_RZA2M_ANPR/ANPR_RZA2M_EBK/src/tensorflow_lite/tensorflow/lite/micro/kernels\kernel_util.h ****   TFLITE_DCHECK(context != nullptr);
 1155              		.loc 6 34 0
 1156 0014 000050E3 		cmp	r0, #0
 1157 0018 0060A0E1 		mov	r6, r0
 1158              	.LVL109:
 1159 001c 0203000A 		beq	.L101
  35:C:/Renesas/e2studio_2021_01_workspace_RZA2M_ANPR/ANPR_RZA2M_EBK/src/tensorflow_lite/tensorflow/lite/micro/kernels\kernel_util.h ****   TFLITE_DCHECK(node != nullptr);
  36:C:/Renesas/e2studio_2021_01_workspace_RZA2M_ANPR/ANPR_RZA2M_EBK/src/tensorflow_lite/tensorflow/lite/micro/kernels\kernel_util.h ****   return context->GetEvalTensor(context, node->inputs->data[index]);
 1160              		.loc 6 36 0
 1161 0020 002091E5 		ldr	r2, [r1]
 1162 0024 0150A0E1 		mov	r5, r1
 1163 0028 543090E5 		ldr	r3, [r0, #84]
 1164 002c 041092E5 		ldr	r1, [r2, #4]
 1165              	.LVL110:
 1166              	.LEHB9:
 1167 0030 33FF2FE1 		blx	r3
 1168              	.LVL111:
 1169              	.LBE624:
 1170              	.LBE623:
 1171              	.LBE622:
 1172              	.LBB627:
 1173              	.LBB628:
  37:C:/Renesas/e2studio_2021_01_workspace_RZA2M_ANPR/ANPR_RZA2M_EBK/src/tensorflow_lite/tensorflow/lite/micro/kernels\kernel_util.h **** }
  38:C:/Renesas/e2studio_2021_01_workspace_RZA2M_ANPR/ANPR_RZA2M_EBK/src/tensorflow_lite/tensorflow/lite/micro/kernels\kernel_util.h **** 
  39:C:/Renesas/e2studio_2021_01_workspace_RZA2M_ANPR/ANPR_RZA2M_EBK/src/tensorflow_lite/tensorflow/lite/micro/kernels\kernel_util.h **** // Returns the TfLiteEvalTensor struct for a given input index in a node.
  40:C:/Renesas/e2studio_2021_01_workspace_RZA2M_ANPR/ANPR_RZA2M_EBK/src/tensorflow_lite/tensorflow/lite/micro/kernels\kernel_util.h **** inline const TfLiteEvalTensor* GetEvalInput(const TfLiteContext* context,
  41:C:/Renesas/e2studio_2021_01_workspace_RZA2M_ANPR/ANPR_RZA2M_EBK/src/tensorflow_lite/tensorflow/lite/micro/kernels\kernel_util.h ****                                             const TfLiteNode* node, int index) {
  42:C:/Renesas/e2studio_2021_01_workspace_RZA2M_ANPR/ANPR_RZA2M_EBK/src/tensorflow_lite/tensorflow/lite/micro/kernels\kernel_util.h ****   return GetMutableEvalInput(context, node, index);
  43:C:/Renesas/e2studio_2021_01_workspace_RZA2M_ANPR/ANPR_RZA2M_EBK/src/tensorflow_lite/tensorflow/lite/micro/kernels\kernel_util.h **** }
  44:C:/Renesas/e2studio_2021_01_workspace_RZA2M_ANPR/ANPR_RZA2M_EBK/src/tensorflow_lite/tensorflow/lite/micro/kernels\kernel_util.h **** 
  45:C:/Renesas/e2studio_2021_01_workspace_RZA2M_ANPR/ANPR_RZA2M_EBK/src/tensorflow_lite/tensorflow/lite/micro/kernels\kernel_util.h **** // Returns the TfLiteEvalTensor struct for a given output index in a node.
  46:C:/Renesas/e2studio_2021_01_workspace_RZA2M_ANPR/ANPR_RZA2M_EBK/src/tensorflow_lite/tensorflow/lite/micro/kernels\kernel_util.h **** inline TfLiteEvalTensor* GetEvalOutput(const TfLiteContext* context,
  47:C:/Renesas/e2studio_2021_01_workspace_RZA2M_ANPR/ANPR_RZA2M_EBK/src/tensorflow_lite/tensorflow/lite/micro/kernels\kernel_util.h ****                                        const TfLiteNode* node, int index) {
  48:C:/Renesas/e2studio_2021_01_workspace_RZA2M_ANPR/ANPR_RZA2M_EBK/src/tensorflow_lite/tensorflow/lite/micro/kernels\kernel_util.h ****   TFLITE_DCHECK(context != nullptr);
  49:C:/Renesas/e2studio_2021_01_workspace_RZA2M_ANPR/ANPR_RZA2M_EBK/src/tensorflow_lite/tensorflow/lite/micro/kernels\kernel_util.h ****   TFLITE_DCHECK(node != nullptr);
  50:C:/Renesas/e2studio_2021_01_workspace_RZA2M_ANPR/ANPR_RZA2M_EBK/src/tensorflow_lite/tensorflow/lite/micro/kernels\kernel_util.h ****   return context->GetEvalTensor(context, node->outputs->data[index]);
 1174              		.loc 6 50 0
 1175 0034 042095E5 		ldr	r2, [r5, #4]
 1176              	.LBE628:
 1177              	.LBE627:
 1178              	.LBB630:
 1179              	.LBB626:
 1180              	.LBB625:
  36:C:/Renesas/e2studio_2021_01_workspace_RZA2M_ANPR/ANPR_RZA2M_EBK/src/tensorflow_lite/tensorflow/lite/micro/kernels\kernel_util.h **** }
 1181              		.loc 6 36 0
 1182 0038 0070A0E1 		mov	r7, r0
 1183              	.LVL112:
 1184              	.LBE625:
 1185              	.LBE626:
 1186              	.LBE630:
 1187              	.LBB631:
 1188              	.LBB629:
 1189              		.loc 6 50 0
 1190 003c 543096E5 		ldr	r3, [r6, #84]
 1191 0040 0600A0E1 		mov	r0, r6
 1192 0044 041092E5 		ldr	r1, [r2, #4]
 1193 0048 33FF2FE1 		blx	r3
 1194              	.LVL113:
 1195 004c 0050A0E1 		mov	r5, r0
 1196              	.LVL114:
 1197              	.LBE629:
 1198              	.LBE631:
 164:../src/tensorflow_lite/tensorflow/lite/micro/kernels/activations.cc ****     case kTfLiteFloat32: {
 1199              		.loc 1 164 0
 1200 0050 0800D7E5 		ldrb	r0, [r7, #8]	@ zero_extendqisi2
 1201 0054 030050E3 		cmp	r0, #3
 1202 0058 B201000A 		beq	.L103
 1203 005c 090050E3 		cmp	r0, #9
 1204 0060 0B00000A 		beq	.L104
 1205 0064 010050E3 		cmp	r0, #1
 1206 0068 D300000A 		beq	.L380
 188:../src/tensorflow_lite/tensorflow/lite/micro/kernels/activations.cc ****                          TfLiteTypeGetName(input->type));
 1207              		.loc 1 188 0
 1208 006c 144096E5 		ldr	r4, [r6, #20]
 1209              	.LVL115:
 1210 0070 FEFFFFEB 		bl	TfLiteTypeGetName
 1211              	.LVL116:
 1212 0074 001000E3 		movw	r1, #:lower16:.LC8
 1213 0078 0020A0E1 		mov	r2, r0
 1214 007c 001040E3 		movt	r1, #:upper16:.LC8
 1215 0080 0600A0E1 		mov	r0, r6
 1216 0084 34FF2FE1 		blx	r4
 1217              	.LVL117:
 190:../src/tensorflow_lite/tensorflow/lite/micro/kernels/activations.cc ****     }
 1218              		.loc 1 190 0
 1219 0088 0100A0E3 		mov	r0, #1
 193:../src/tensorflow_lite/tensorflow/lite/micro/kernels/activations.cc **** 
 1220              		.loc 1 193 0
 1221 008c 34D08DE2 		add	sp, sp, #52
 1222              		.cfi_remember_state
 1223              		.cfi_def_cfa_offset 28
 1224              		@ sp needed
 1225 0090 F083BDE8 		pop	{r4, r5, r6, r7, r8, r9, pc}
 1226              	.LVL118:
 1227              	.L104:
 1228              		.cfi_restore_state
 174:../src/tensorflow_lite/tensorflow/lite/micro/kernels/activations.cc ****                             tflite::micro::GetTensorShape(output),
 1229              		.loc 1 174 0
 1230 0094 0710A0E1 		mov	r1, r7
 1231 0098 0D00A0E1 		mov	r0, sp
 1232 009c FEFFFFEB 		bl	_ZN6tflite5micro14GetTensorShapeEPK16TfLiteEvalTensor
 1233              	.LVL119:
 1234              	.LEHE9:
 175:../src/tensorflow_lite/tensorflow/lite/micro/kernels/activations.cc ****                             tflite::micro::GetTensorData<int8_t>(input),
 1235              		.loc 1 175 0
 1236 00a0 0510A0E1 		mov	r1, r5
 1237 00a4 18008DE2 		add	r0, sp, #24
 1238              	.LEHB10:
 1239 00a8 FEFFFFEB 		bl	_ZN6tflite5micro14GetTensorShapeEPK16TfLiteEvalTensor
 1240              	.LVL120:
 1241              	.LEHE10:
 1242              	.LBB632:
 1243              	.LBB633:
  51:C:/Renesas/e2studio_2021_01_workspace_RZA2M_ANPR/ANPR_RZA2M_EBK/src/tensorflow_lite/tensorflow/lite/micro/kernels\kernel_util.h **** }
  52:C:/Renesas/e2studio_2021_01_workspace_RZA2M_ANPR/ANPR_RZA2M_EBK/src/tensorflow_lite/tensorflow/lite/micro/kernels\kernel_util.h **** 
  53:C:/Renesas/e2studio_2021_01_workspace_RZA2M_ANPR/ANPR_RZA2M_EBK/src/tensorflow_lite/tensorflow/lite/micro/kernels\kernel_util.h **** // Returns data for a TfLiteEvalTensor struct.
  54:C:/Renesas/e2studio_2021_01_workspace_RZA2M_ANPR/ANPR_RZA2M_EBK/src/tensorflow_lite/tensorflow/lite/micro/kernels\kernel_util.h **** template <typename T>
  55:C:/Renesas/e2studio_2021_01_workspace_RZA2M_ANPR/ANPR_RZA2M_EBK/src/tensorflow_lite/tensorflow/lite/micro/kernels\kernel_util.h **** T* GetTensorData(TfLiteEvalTensor* tensor) {
  56:C:/Renesas/e2studio_2021_01_workspace_RZA2M_ANPR/ANPR_RZA2M_EBK/src/tensorflow_lite/tensorflow/lite/micro/kernels\kernel_util.h ****   return tensor != nullptr ? reinterpret_cast<T*>(tensor->data.raw) : nullptr;
  57:C:/Renesas/e2studio_2021_01_workspace_RZA2M_ANPR/ANPR_RZA2M_EBK/src/tensorflow_lite/tensorflow/lite/micro/kernels\kernel_util.h **** }
  58:C:/Renesas/e2studio_2021_01_workspace_RZA2M_ANPR/ANPR_RZA2M_EBK/src/tensorflow_lite/tensorflow/lite/micro/kernels\kernel_util.h **** 
  59:C:/Renesas/e2studio_2021_01_workspace_RZA2M_ANPR/ANPR_RZA2M_EBK/src/tensorflow_lite/tensorflow/lite/micro/kernels\kernel_util.h **** // Returns const data for a TfLiteEvalTensor struct.
  60:C:/Renesas/e2studio_2021_01_workspace_RZA2M_ANPR/ANPR_RZA2M_EBK/src/tensorflow_lite/tensorflow/lite/micro/kernels\kernel_util.h **** template <typename T>
  61:C:/Renesas/e2studio_2021_01_workspace_RZA2M_ANPR/ANPR_RZA2M_EBK/src/tensorflow_lite/tensorflow/lite/micro/kernels\kernel_util.h **** const T* GetTensorData(const TfLiteEvalTensor* tensor) {
  62:C:/Renesas/e2studio_2021_01_workspace_RZA2M_ANPR/ANPR_RZA2M_EBK/src/tensorflow_lite/tensorflow/lite/micro/kernels\kernel_util.h ****   TFLITE_DCHECK(tensor != nullptr);
  63:C:/Renesas/e2studio_2021_01_workspace_RZA2M_ANPR/ANPR_RZA2M_EBK/src/tensorflow_lite/tensorflow/lite/micro/kernels\kernel_util.h ****   return reinterpret_cast<const T*>(tensor->data.raw);
 1244              		.loc 6 63 0
 1245 00ac 00E097E5 		ldr	lr, [r7]
 1246              	.LBE633:
 1247              	.LBE632:
 1248              	.LBB634:
 1249              	.LBB635:
  56:C:/Renesas/e2studio_2021_01_workspace_RZA2M_ANPR/ANPR_RZA2M_EBK/src/tensorflow_lite/tensorflow/lite/micro/kernels\kernel_util.h **** }
 1250              		.loc 6 56 0
 1251 00b0 000055E3 		cmp	r5, #0
 1252 00b4 00209DE5 		ldr	r2, [sp]
 1253 00b8 18709DE5 		ldr	r7, [sp, #24]
 1254 00bc 00509515 		ldrne	r5, [r5]
 1255              	.LVL121:
 1256              	.LBE635:
 1257              	.LBE634:
 1258              	.LBB636:
 1259              	.LBB637:
 1260              	.LBB638:
 1261              	.LBB639:
 259:C:/Renesas/e2studio_2021_01_workspace_RZA2M_ANPR/ANPR_RZA2M_EBK/src/tensorflow_lite/tensorflow/lite/kernels/internal\types.h ****   }
 260:C:/Renesas/e2studio_2021_01_workspace_RZA2M_ANPR/ANPR_RZA2M_EBK/src/tensorflow_lite/tensorflow/lite/kernels/internal\types.h **** 
 261:C:/Renesas/e2studio_2021_01_workspace_RZA2M_ANPR/ANPR_RZA2M_EBK/src/tensorflow_lite/tensorflow/lite/kernels/internal\types.h ****   template <typename T>
 262:C:/Renesas/e2studio_2021_01_workspace_RZA2M_ANPR/ANPR_RZA2M_EBK/src/tensorflow_lite/tensorflow/lite/kernels/internal\types.h ****   inline void BuildFrom(const T& src_iterable) {
 263:C:/Renesas/e2studio_2021_01_workspace_RZA2M_ANPR/ANPR_RZA2M_EBK/src/tensorflow_lite/tensorflow/lite/kernels/internal\types.h ****     const int dimensions_count =
 264:C:/Renesas/e2studio_2021_01_workspace_RZA2M_ANPR/ANPR_RZA2M_EBK/src/tensorflow_lite/tensorflow/lite/kernels/internal\types.h ****         std::distance(src_iterable.begin(), src_iterable.end());
 265:C:/Renesas/e2studio_2021_01_workspace_RZA2M_ANPR/ANPR_RZA2M_EBK/src/tensorflow_lite/tensorflow/lite/kernels/internal\types.h ****     Resize(dimensions_count);
 266:C:/Renesas/e2studio_2021_01_workspace_RZA2M_ANPR/ANPR_RZA2M_EBK/src/tensorflow_lite/tensorflow/lite/kernels/internal\types.h ****     int32_t* data = DimsData();
 267:C:/Renesas/e2studio_2021_01_workspace_RZA2M_ANPR/ANPR_RZA2M_EBK/src/tensorflow_lite/tensorflow/lite/kernels/internal\types.h ****     for (auto it : src_iterable) {
 268:C:/Renesas/e2studio_2021_01_workspace_RZA2M_ANPR/ANPR_RZA2M_EBK/src/tensorflow_lite/tensorflow/lite/kernels/internal\types.h ****       *data = it;
 269:C:/Renesas/e2studio_2021_01_workspace_RZA2M_ANPR/ANPR_RZA2M_EBK/src/tensorflow_lite/tensorflow/lite/kernels/internal\types.h ****       ++data;
 270:C:/Renesas/e2studio_2021_01_workspace_RZA2M_ANPR/ANPR_RZA2M_EBK/src/tensorflow_lite/tensorflow/lite/kernels/internal\types.h ****     }
 271:C:/Renesas/e2studio_2021_01_workspace_RZA2M_ANPR/ANPR_RZA2M_EBK/src/tensorflow_lite/tensorflow/lite/kernels/internal\types.h ****   }
 272:C:/Renesas/e2studio_2021_01_workspace_RZA2M_ANPR/ANPR_RZA2M_EBK/src/tensorflow_lite/tensorflow/lite/kernels/internal\types.h **** 
 273:C:/Renesas/e2studio_2021_01_workspace_RZA2M_ANPR/ANPR_RZA2M_EBK/src/tensorflow_lite/tensorflow/lite/kernels/internal\types.h ****   // This will probably be factored out. Old code made substantial use of 4-D
 274:C:/Renesas/e2studio_2021_01_workspace_RZA2M_ANPR/ANPR_RZA2M_EBK/src/tensorflow_lite/tensorflow/lite/kernels/internal\types.h ****   // shapes, and so this function is used to extend smaller shapes. Note that
 275:C:/Renesas/e2studio_2021_01_workspace_RZA2M_ANPR/ANPR_RZA2M_EBK/src/tensorflow_lite/tensorflow/lite/kernels/internal\types.h ****   // (a) as Dims<4>-dependent code is eliminated, the reliance on this should be
 276:C:/Renesas/e2studio_2021_01_workspace_RZA2M_ANPR/ANPR_RZA2M_EBK/src/tensorflow_lite/tensorflow/lite/kernels/internal\types.h ****   // reduced, and (b) some kernels are stricly 4-D, but then the shapes of their
 277:C:/Renesas/e2studio_2021_01_workspace_RZA2M_ANPR/ANPR_RZA2M_EBK/src/tensorflow_lite/tensorflow/lite/kernels/internal\types.h ****   // inputs should already be 4-D, so this function should not be needed.
 278:C:/Renesas/e2studio_2021_01_workspace_RZA2M_ANPR/ANPR_RZA2M_EBK/src/tensorflow_lite/tensorflow/lite/kernels/internal\types.h ****   inline static RuntimeShape ExtendedShape(int new_shape_size,
 279:C:/Renesas/e2studio_2021_01_workspace_RZA2M_ANPR/ANPR_RZA2M_EBK/src/tensorflow_lite/tensorflow/lite/kernels/internal\types.h ****                                            const RuntimeShape& shape) {
 280:C:/Renesas/e2studio_2021_01_workspace_RZA2M_ANPR/ANPR_RZA2M_EBK/src/tensorflow_lite/tensorflow/lite/kernels/internal\types.h ****     return RuntimeShape(new_shape_size, shape, 1);
 281:C:/Renesas/e2studio_2021_01_workspace_RZA2M_ANPR/ANPR_RZA2M_EBK/src/tensorflow_lite/tensorflow/lite/kernels/internal\types.h ****   }
 282:C:/Renesas/e2studio_2021_01_workspace_RZA2M_ANPR/ANPR_RZA2M_EBK/src/tensorflow_lite/tensorflow/lite/kernels/internal\types.h **** 
 283:C:/Renesas/e2studio_2021_01_workspace_RZA2M_ANPR/ANPR_RZA2M_EBK/src/tensorflow_lite/tensorflow/lite/kernels/internal\types.h ****   inline void BuildFrom(const std::initializer_list<int> init_list) {
 284:C:/Renesas/e2studio_2021_01_workspace_RZA2M_ANPR/ANPR_RZA2M_EBK/src/tensorflow_lite/tensorflow/lite/kernels/internal\types.h ****     BuildFrom<const std::initializer_list<int>>(init_list);
 285:C:/Renesas/e2studio_2021_01_workspace_RZA2M_ANPR/ANPR_RZA2M_EBK/src/tensorflow_lite/tensorflow/lite/kernels/internal\types.h ****   }
 286:C:/Renesas/e2studio_2021_01_workspace_RZA2M_ANPR/ANPR_RZA2M_EBK/src/tensorflow_lite/tensorflow/lite/kernels/internal\types.h **** 
 287:C:/Renesas/e2studio_2021_01_workspace_RZA2M_ANPR/ANPR_RZA2M_EBK/src/tensorflow_lite/tensorflow/lite/kernels/internal\types.h ****   // Returns the total count of elements, that is the size when flattened into a
 288:C:/Renesas/e2studio_2021_01_workspace_RZA2M_ANPR/ANPR_RZA2M_EBK/src/tensorflow_lite/tensorflow/lite/kernels/internal\types.h ****   // vector.
 289:C:/Renesas/e2studio_2021_01_workspace_RZA2M_ANPR/ANPR_RZA2M_EBK/src/tensorflow_lite/tensorflow/lite/kernels/internal\types.h ****   inline int FlatSize() const {
 290:C:/Renesas/e2studio_2021_01_workspace_RZA2M_ANPR/ANPR_RZA2M_EBK/src/tensorflow_lite/tensorflow/lite/kernels/internal\types.h ****     int buffer_size = 1;
 291:C:/Renesas/e2studio_2021_01_workspace_RZA2M_ANPR/ANPR_RZA2M_EBK/src/tensorflow_lite/tensorflow/lite/kernels/internal\types.h ****     const int* dims_data = reinterpret_cast<const int*>(DimsData());
 292:C:/Renesas/e2studio_2021_01_workspace_RZA2M_ANPR/ANPR_RZA2M_EBK/src/tensorflow_lite/tensorflow/lite/kernels/internal\types.h ****     for (int i = 0; i < size_; i++) {
 293:C:/Renesas/e2studio_2021_01_workspace_RZA2M_ANPR/ANPR_RZA2M_EBK/src/tensorflow_lite/tensorflow/lite/kernels/internal\types.h ****       buffer_size *= dims_data[i];
 294:C:/Renesas/e2studio_2021_01_workspace_RZA2M_ANPR/ANPR_RZA2M_EBK/src/tensorflow_lite/tensorflow/lite/kernels/internal\types.h ****     }
 295:C:/Renesas/e2studio_2021_01_workspace_RZA2M_ANPR/ANPR_RZA2M_EBK/src/tensorflow_lite/tensorflow/lite/kernels/internal\types.h ****     return buffer_size;
 296:C:/Renesas/e2studio_2021_01_workspace_RZA2M_ANPR/ANPR_RZA2M_EBK/src/tensorflow_lite/tensorflow/lite/kernels/internal\types.h ****   }
 297:C:/Renesas/e2studio_2021_01_workspace_RZA2M_ANPR/ANPR_RZA2M_EBK/src/tensorflow_lite/tensorflow/lite/kernels/internal\types.h **** 
 298:C:/Renesas/e2studio_2021_01_workspace_RZA2M_ANPR/ANPR_RZA2M_EBK/src/tensorflow_lite/tensorflow/lite/kernels/internal\types.h ****   bool operator!=(const RuntimeShape& comp) const { return !((*this) == comp); }
 299:C:/Renesas/e2studio_2021_01_workspace_RZA2M_ANPR/ANPR_RZA2M_EBK/src/tensorflow_lite/tensorflow/lite/kernels/internal\types.h **** 
 300:C:/Renesas/e2studio_2021_01_workspace_RZA2M_ANPR/ANPR_RZA2M_EBK/src/tensorflow_lite/tensorflow/lite/kernels/internal\types.h ****  private:
 301:C:/Renesas/e2studio_2021_01_workspace_RZA2M_ANPR/ANPR_RZA2M_EBK/src/tensorflow_lite/tensorflow/lite/kernels/internal\types.h ****   // For use only by ExtendedShape(), written to guarantee (return-value) copy
 302:C:/Renesas/e2studio_2021_01_workspace_RZA2M_ANPR/ANPR_RZA2M_EBK/src/tensorflow_lite/tensorflow/lite/kernels/internal\types.h ****   // elision in C++17.
 303:C:/Renesas/e2studio_2021_01_workspace_RZA2M_ANPR/ANPR_RZA2M_EBK/src/tensorflow_lite/tensorflow/lite/kernels/internal\types.h ****   // This creates a shape padded to the desired size with the specified value.
 304:C:/Renesas/e2studio_2021_01_workspace_RZA2M_ANPR/ANPR_RZA2M_EBK/src/tensorflow_lite/tensorflow/lite/kernels/internal\types.h ****   RuntimeShape(int new_shape_size, const RuntimeShape& shape, int pad_value)
 305:C:/Renesas/e2studio_2021_01_workspace_RZA2M_ANPR/ANPR_RZA2M_EBK/src/tensorflow_lite/tensorflow/lite/kernels/internal\types.h ****       : size_(0) {
 306:C:/Renesas/e2studio_2021_01_workspace_RZA2M_ANPR/ANPR_RZA2M_EBK/src/tensorflow_lite/tensorflow/lite/kernels/internal\types.h ****     // If the following check fails, it is likely because a 4D-only kernel is
 307:C:/Renesas/e2studio_2021_01_workspace_RZA2M_ANPR/ANPR_RZA2M_EBK/src/tensorflow_lite/tensorflow/lite/kernels/internal\types.h ****     // being used with an array of larger dimension count.
 308:C:/Renesas/e2studio_2021_01_workspace_RZA2M_ANPR/ANPR_RZA2M_EBK/src/tensorflow_lite/tensorflow/lite/kernels/internal\types.h ****     TFLITE_CHECK_GE(new_shape_size, shape.DimensionsCount());
 309:C:/Renesas/e2studio_2021_01_workspace_RZA2M_ANPR/ANPR_RZA2M_EBK/src/tensorflow_lite/tensorflow/lite/kernels/internal\types.h ****     Resize(new_shape_size);
 310:C:/Renesas/e2studio_2021_01_workspace_RZA2M_ANPR/ANPR_RZA2M_EBK/src/tensorflow_lite/tensorflow/lite/kernels/internal\types.h ****     const int size_increase = new_shape_size - shape.DimensionsCount();
 311:C:/Renesas/e2studio_2021_01_workspace_RZA2M_ANPR/ANPR_RZA2M_EBK/src/tensorflow_lite/tensorflow/lite/kernels/internal\types.h ****     for (int i = 0; i < size_increase; ++i) {
 312:C:/Renesas/e2studio_2021_01_workspace_RZA2M_ANPR/ANPR_RZA2M_EBK/src/tensorflow_lite/tensorflow/lite/kernels/internal\types.h ****       SetDim(i, pad_value);
 313:C:/Renesas/e2studio_2021_01_workspace_RZA2M_ANPR/ANPR_RZA2M_EBK/src/tensorflow_lite/tensorflow/lite/kernels/internal\types.h ****     }
 314:C:/Renesas/e2studio_2021_01_workspace_RZA2M_ANPR/ANPR_RZA2M_EBK/src/tensorflow_lite/tensorflow/lite/kernels/internal\types.h ****     std::memcpy(DimsData() + size_increase, shape.DimsData(),
 315:C:/Renesas/e2studio_2021_01_workspace_RZA2M_ANPR/ANPR_RZA2M_EBK/src/tensorflow_lite/tensorflow/lite/kernels/internal\types.h ****                 sizeof(int32_t) * shape.DimensionsCount());
 316:C:/Renesas/e2studio_2021_01_workspace_RZA2M_ANPR/ANPR_RZA2M_EBK/src/tensorflow_lite/tensorflow/lite/kernels/internal\types.h ****   }
 317:C:/Renesas/e2studio_2021_01_workspace_RZA2M_ANPR/ANPR_RZA2M_EBK/src/tensorflow_lite/tensorflow/lite/kernels/internal\types.h **** 
 318:C:/Renesas/e2studio_2021_01_workspace_RZA2M_ANPR/ANPR_RZA2M_EBK/src/tensorflow_lite/tensorflow/lite/kernels/internal\types.h ****   int32_t size_;
 319:C:/Renesas/e2studio_2021_01_workspace_RZA2M_ANPR/ANPR_RZA2M_EBK/src/tensorflow_lite/tensorflow/lite/kernels/internal\types.h ****   union {
 320:C:/Renesas/e2studio_2021_01_workspace_RZA2M_ANPR/ANPR_RZA2M_EBK/src/tensorflow_lite/tensorflow/lite/kernels/internal\types.h ****     int32_t dims_[kMaxSmallSize];
 321:C:/Renesas/e2studio_2021_01_workspace_RZA2M_ANPR/ANPR_RZA2M_EBK/src/tensorflow_lite/tensorflow/lite/kernels/internal\types.h ****     int32_t* dims_pointer_;
 322:C:/Renesas/e2studio_2021_01_workspace_RZA2M_ANPR/ANPR_RZA2M_EBK/src/tensorflow_lite/tensorflow/lite/kernels/internal\types.h ****   };
 323:C:/Renesas/e2studio_2021_01_workspace_RZA2M_ANPR/ANPR_RZA2M_EBK/src/tensorflow_lite/tensorflow/lite/kernels/internal\types.h **** };
 324:C:/Renesas/e2studio_2021_01_workspace_RZA2M_ANPR/ANPR_RZA2M_EBK/src/tensorflow_lite/tensorflow/lite/kernels/internal\types.h **** 
 325:C:/Renesas/e2studio_2021_01_workspace_RZA2M_ANPR/ANPR_RZA2M_EBK/src/tensorflow_lite/tensorflow/lite/kernels/internal\types.h **** // Converts inference-style shape to legacy tflite::Dims<4>.
 326:C:/Renesas/e2studio_2021_01_workspace_RZA2M_ANPR/ANPR_RZA2M_EBK/src/tensorflow_lite/tensorflow/lite/kernels/internal\types.h **** inline tflite::Dims<4> ToRuntimeDims(const tflite::RuntimeShape& array_shape) {
 327:C:/Renesas/e2studio_2021_01_workspace_RZA2M_ANPR/ANPR_RZA2M_EBK/src/tensorflow_lite/tensorflow/lite/kernels/internal\types.h ****   tflite::Dims<4> result;
 328:C:/Renesas/e2studio_2021_01_workspace_RZA2M_ANPR/ANPR_RZA2M_EBK/src/tensorflow_lite/tensorflow/lite/kernels/internal\types.h ****   const int dimensions_count = array_shape.DimensionsCount();
 329:C:/Renesas/e2studio_2021_01_workspace_RZA2M_ANPR/ANPR_RZA2M_EBK/src/tensorflow_lite/tensorflow/lite/kernels/internal\types.h ****   TFLITE_CHECK_LE(dimensions_count, 4);
 330:C:/Renesas/e2studio_2021_01_workspace_RZA2M_ANPR/ANPR_RZA2M_EBK/src/tensorflow_lite/tensorflow/lite/kernels/internal\types.h ****   int cum_prod = 1;
 331:C:/Renesas/e2studio_2021_01_workspace_RZA2M_ANPR/ANPR_RZA2M_EBK/src/tensorflow_lite/tensorflow/lite/kernels/internal\types.h ****   for (int i = 0; i < 4; i++) {
 332:C:/Renesas/e2studio_2021_01_workspace_RZA2M_ANPR/ANPR_RZA2M_EBK/src/tensorflow_lite/tensorflow/lite/kernels/internal\types.h ****     const int new_dim =
 333:C:/Renesas/e2studio_2021_01_workspace_RZA2M_ANPR/ANPR_RZA2M_EBK/src/tensorflow_lite/tensorflow/lite/kernels/internal\types.h ****         (i < dimensions_count) ? array_shape.Dims(dimensions_count - 1 - i) : 1;
 334:C:/Renesas/e2studio_2021_01_workspace_RZA2M_ANPR/ANPR_RZA2M_EBK/src/tensorflow_lite/tensorflow/lite/kernels/internal\types.h ****     result.sizes[i] = new_dim;
 335:C:/Renesas/e2studio_2021_01_workspace_RZA2M_ANPR/ANPR_RZA2M_EBK/src/tensorflow_lite/tensorflow/lite/kernels/internal\types.h ****     result.strides[i] = cum_prod;
 336:C:/Renesas/e2studio_2021_01_workspace_RZA2M_ANPR/ANPR_RZA2M_EBK/src/tensorflow_lite/tensorflow/lite/kernels/internal\types.h ****     cum_prod *= new_dim;
 337:C:/Renesas/e2studio_2021_01_workspace_RZA2M_ANPR/ANPR_RZA2M_EBK/src/tensorflow_lite/tensorflow/lite/kernels/internal\types.h ****   }
 338:C:/Renesas/e2studio_2021_01_workspace_RZA2M_ANPR/ANPR_RZA2M_EBK/src/tensorflow_lite/tensorflow/lite/kernels/internal\types.h ****   return result;
 339:C:/Renesas/e2studio_2021_01_workspace_RZA2M_ANPR/ANPR_RZA2M_EBK/src/tensorflow_lite/tensorflow/lite/kernels/internal\types.h **** }
 340:C:/Renesas/e2studio_2021_01_workspace_RZA2M_ANPR/ANPR_RZA2M_EBK/src/tensorflow_lite/tensorflow/lite/kernels/internal\types.h **** 
 341:C:/Renesas/e2studio_2021_01_workspace_RZA2M_ANPR/ANPR_RZA2M_EBK/src/tensorflow_lite/tensorflow/lite/kernels/internal\types.h **** // TODO(b/80418076): Move to legacy ops file, update invocations.
 342:C:/Renesas/e2studio_2021_01_workspace_RZA2M_ANPR/ANPR_RZA2M_EBK/src/tensorflow_lite/tensorflow/lite/kernels/internal\types.h **** inline RuntimeShape DimsToShape(const tflite::Dims<4>& dims) {
 343:C:/Renesas/e2studio_2021_01_workspace_RZA2M_ANPR/ANPR_RZA2M_EBK/src/tensorflow_lite/tensorflow/lite/kernels/internal\types.h ****   return RuntimeShape(
 344:C:/Renesas/e2studio_2021_01_workspace_RZA2M_ANPR/ANPR_RZA2M_EBK/src/tensorflow_lite/tensorflow/lite/kernels/internal\types.h ****       {dims.sizes[3], dims.sizes[2], dims.sizes[1], dims.sizes[0]});
 345:C:/Renesas/e2studio_2021_01_workspace_RZA2M_ANPR/ANPR_RZA2M_EBK/src/tensorflow_lite/tensorflow/lite/kernels/internal\types.h **** }
 346:C:/Renesas/e2studio_2021_01_workspace_RZA2M_ANPR/ANPR_RZA2M_EBK/src/tensorflow_lite/tensorflow/lite/kernels/internal\types.h **** 
 347:C:/Renesas/e2studio_2021_01_workspace_RZA2M_ANPR/ANPR_RZA2M_EBK/src/tensorflow_lite/tensorflow/lite/kernels/internal\types.h **** // Gets next index to iterate through a multidimensional array.
 348:C:/Renesas/e2studio_2021_01_workspace_RZA2M_ANPR/ANPR_RZA2M_EBK/src/tensorflow_lite/tensorflow/lite/kernels/internal\types.h **** inline bool NextIndex(const int num_dims, const int* dims, int* current) {
 349:C:/Renesas/e2studio_2021_01_workspace_RZA2M_ANPR/ANPR_RZA2M_EBK/src/tensorflow_lite/tensorflow/lite/kernels/internal\types.h ****   if (num_dims == 0) {
 350:C:/Renesas/e2studio_2021_01_workspace_RZA2M_ANPR/ANPR_RZA2M_EBK/src/tensorflow_lite/tensorflow/lite/kernels/internal\types.h ****     return false;
 351:C:/Renesas/e2studio_2021_01_workspace_RZA2M_ANPR/ANPR_RZA2M_EBK/src/tensorflow_lite/tensorflow/lite/kernels/internal\types.h ****   }
 352:C:/Renesas/e2studio_2021_01_workspace_RZA2M_ANPR/ANPR_RZA2M_EBK/src/tensorflow_lite/tensorflow/lite/kernels/internal\types.h ****   TFLITE_DCHECK(dims != nullptr);
 353:C:/Renesas/e2studio_2021_01_workspace_RZA2M_ANPR/ANPR_RZA2M_EBK/src/tensorflow_lite/tensorflow/lite/kernels/internal\types.h ****   TFLITE_DCHECK(current != nullptr);
 354:C:/Renesas/e2studio_2021_01_workspace_RZA2M_ANPR/ANPR_RZA2M_EBK/src/tensorflow_lite/tensorflow/lite/kernels/internal\types.h ****   int carry = 1;
 355:C:/Renesas/e2studio_2021_01_workspace_RZA2M_ANPR/ANPR_RZA2M_EBK/src/tensorflow_lite/tensorflow/lite/kernels/internal\types.h ****   for (int idx = num_dims - 1; idx >= 0; --idx) {
 356:C:/Renesas/e2studio_2021_01_workspace_RZA2M_ANPR/ANPR_RZA2M_EBK/src/tensorflow_lite/tensorflow/lite/kernels/internal\types.h ****     int current_val = current[idx] + carry;
 357:C:/Renesas/e2studio_2021_01_workspace_RZA2M_ANPR/ANPR_RZA2M_EBK/src/tensorflow_lite/tensorflow/lite/kernels/internal\types.h ****     TFLITE_DCHECK_GE(dims[idx], current_val);
 358:C:/Renesas/e2studio_2021_01_workspace_RZA2M_ANPR/ANPR_RZA2M_EBK/src/tensorflow_lite/tensorflow/lite/kernels/internal\types.h ****     if (dims[idx] == current_val) {
 359:C:/Renesas/e2studio_2021_01_workspace_RZA2M_ANPR/ANPR_RZA2M_EBK/src/tensorflow_lite/tensorflow/lite/kernels/internal\types.h ****       current[idx] = 0;
 360:C:/Renesas/e2studio_2021_01_workspace_RZA2M_ANPR/ANPR_RZA2M_EBK/src/tensorflow_lite/tensorflow/lite/kernels/internal\types.h ****     } else {
 361:C:/Renesas/e2studio_2021_01_workspace_RZA2M_ANPR/ANPR_RZA2M_EBK/src/tensorflow_lite/tensorflow/lite/kernels/internal\types.h ****       current[idx] = current_val;
 362:C:/Renesas/e2studio_2021_01_workspace_RZA2M_ANPR/ANPR_RZA2M_EBK/src/tensorflow_lite/tensorflow/lite/kernels/internal\types.h ****       carry = 0;
 363:C:/Renesas/e2studio_2021_01_workspace_RZA2M_ANPR/ANPR_RZA2M_EBK/src/tensorflow_lite/tensorflow/lite/kernels/internal\types.h ****       break;
 364:C:/Renesas/e2studio_2021_01_workspace_RZA2M_ANPR/ANPR_RZA2M_EBK/src/tensorflow_lite/tensorflow/lite/kernels/internal\types.h ****     }
 365:C:/Renesas/e2studio_2021_01_workspace_RZA2M_ANPR/ANPR_RZA2M_EBK/src/tensorflow_lite/tensorflow/lite/kernels/internal\types.h ****   }
 366:C:/Renesas/e2studio_2021_01_workspace_RZA2M_ANPR/ANPR_RZA2M_EBK/src/tensorflow_lite/tensorflow/lite/kernels/internal\types.h ****   return (carry == 0);
 367:C:/Renesas/e2studio_2021_01_workspace_RZA2M_ANPR/ANPR_RZA2M_EBK/src/tensorflow_lite/tensorflow/lite/kernels/internal\types.h **** }
 368:C:/Renesas/e2studio_2021_01_workspace_RZA2M_ANPR/ANPR_RZA2M_EBK/src/tensorflow_lite/tensorflow/lite/kernels/internal\types.h **** 
 369:C:/Renesas/e2studio_2021_01_workspace_RZA2M_ANPR/ANPR_RZA2M_EBK/src/tensorflow_lite/tensorflow/lite/kernels/internal\types.h **** // Gets offset of index if reducing on axis. When reducing, the flattened offset
 370:C:/Renesas/e2studio_2021_01_workspace_RZA2M_ANPR/ANPR_RZA2M_EBK/src/tensorflow_lite/tensorflow/lite/kernels/internal\types.h **** // will not change, if the input index changes on the given axis. For example,
 371:C:/Renesas/e2studio_2021_01_workspace_RZA2M_ANPR/ANPR_RZA2M_EBK/src/tensorflow_lite/tensorflow/lite/kernels/internal\types.h **** // if you have a 3D tensor and you are reducing to 2D by eliminating axis 0,
 372:C:/Renesas/e2studio_2021_01_workspace_RZA2M_ANPR/ANPR_RZA2M_EBK/src/tensorflow_lite/tensorflow/lite/kernels/internal\types.h **** // then index (0, 1, 2) and index (1, 1, 2) will map to the same flattened
 373:C:/Renesas/e2studio_2021_01_workspace_RZA2M_ANPR/ANPR_RZA2M_EBK/src/tensorflow_lite/tensorflow/lite/kernels/internal\types.h **** // offset.
 374:C:/Renesas/e2studio_2021_01_workspace_RZA2M_ANPR/ANPR_RZA2M_EBK/src/tensorflow_lite/tensorflow/lite/kernels/internal\types.h **** // TODO(kanlig): uses Dims to represent dimensions.
 375:C:/Renesas/e2studio_2021_01_workspace_RZA2M_ANPR/ANPR_RZA2M_EBK/src/tensorflow_lite/tensorflow/lite/kernels/internal\types.h **** inline size_t ReducedOutputOffset(const int num_dims, const int* dims,
 376:C:/Renesas/e2studio_2021_01_workspace_RZA2M_ANPR/ANPR_RZA2M_EBK/src/tensorflow_lite/tensorflow/lite/kernels/internal\types.h ****                                   const int* index, const int num_axis,
 377:C:/Renesas/e2studio_2021_01_workspace_RZA2M_ANPR/ANPR_RZA2M_EBK/src/tensorflow_lite/tensorflow/lite/kernels/internal\types.h ****                                   const int* axis) {
 378:C:/Renesas/e2studio_2021_01_workspace_RZA2M_ANPR/ANPR_RZA2M_EBK/src/tensorflow_lite/tensorflow/lite/kernels/internal\types.h ****   if (num_dims == 0) {
 379:C:/Renesas/e2studio_2021_01_workspace_RZA2M_ANPR/ANPR_RZA2M_EBK/src/tensorflow_lite/tensorflow/lite/kernels/internal\types.h ****     return 0;
 380:C:/Renesas/e2studio_2021_01_workspace_RZA2M_ANPR/ANPR_RZA2M_EBK/src/tensorflow_lite/tensorflow/lite/kernels/internal\types.h ****   }
 381:C:/Renesas/e2studio_2021_01_workspace_RZA2M_ANPR/ANPR_RZA2M_EBK/src/tensorflow_lite/tensorflow/lite/kernels/internal\types.h ****   TFLITE_DCHECK(dims != nullptr);
 382:C:/Renesas/e2studio_2021_01_workspace_RZA2M_ANPR/ANPR_RZA2M_EBK/src/tensorflow_lite/tensorflow/lite/kernels/internal\types.h ****   TFLITE_DCHECK(index != nullptr);
 383:C:/Renesas/e2studio_2021_01_workspace_RZA2M_ANPR/ANPR_RZA2M_EBK/src/tensorflow_lite/tensorflow/lite/kernels/internal\types.h ****   size_t offset = 0;
 384:C:/Renesas/e2studio_2021_01_workspace_RZA2M_ANPR/ANPR_RZA2M_EBK/src/tensorflow_lite/tensorflow/lite/kernels/internal\types.h ****   for (int idx = 0; idx < num_dims; ++idx) {
 385:C:/Renesas/e2studio_2021_01_workspace_RZA2M_ANPR/ANPR_RZA2M_EBK/src/tensorflow_lite/tensorflow/lite/kernels/internal\types.h ****     // if we need to skip this axis
 386:C:/Renesas/e2studio_2021_01_workspace_RZA2M_ANPR/ANPR_RZA2M_EBK/src/tensorflow_lite/tensorflow/lite/kernels/internal\types.h ****     bool is_axis = false;
 387:C:/Renesas/e2studio_2021_01_workspace_RZA2M_ANPR/ANPR_RZA2M_EBK/src/tensorflow_lite/tensorflow/lite/kernels/internal\types.h ****     if (axis != nullptr) {
 388:C:/Renesas/e2studio_2021_01_workspace_RZA2M_ANPR/ANPR_RZA2M_EBK/src/tensorflow_lite/tensorflow/lite/kernels/internal\types.h ****       for (int axis_idx = 0; axis_idx < num_axis; ++axis_idx) {
 389:C:/Renesas/e2studio_2021_01_workspace_RZA2M_ANPR/ANPR_RZA2M_EBK/src/tensorflow_lite/tensorflow/lite/kernels/internal\types.h ****         if (idx == axis[axis_idx]) {
 390:C:/Renesas/e2studio_2021_01_workspace_RZA2M_ANPR/ANPR_RZA2M_EBK/src/tensorflow_lite/tensorflow/lite/kernels/internal\types.h ****           is_axis = true;
 391:C:/Renesas/e2studio_2021_01_workspace_RZA2M_ANPR/ANPR_RZA2M_EBK/src/tensorflow_lite/tensorflow/lite/kernels/internal\types.h ****           break;
 392:C:/Renesas/e2studio_2021_01_workspace_RZA2M_ANPR/ANPR_RZA2M_EBK/src/tensorflow_lite/tensorflow/lite/kernels/internal\types.h ****         }
 393:C:/Renesas/e2studio_2021_01_workspace_RZA2M_ANPR/ANPR_RZA2M_EBK/src/tensorflow_lite/tensorflow/lite/kernels/internal\types.h ****       }
 394:C:/Renesas/e2studio_2021_01_workspace_RZA2M_ANPR/ANPR_RZA2M_EBK/src/tensorflow_lite/tensorflow/lite/kernels/internal\types.h ****     }
 395:C:/Renesas/e2studio_2021_01_workspace_RZA2M_ANPR/ANPR_RZA2M_EBK/src/tensorflow_lite/tensorflow/lite/kernels/internal\types.h ****     if (!is_axis) {
 396:C:/Renesas/e2studio_2021_01_workspace_RZA2M_ANPR/ANPR_RZA2M_EBK/src/tensorflow_lite/tensorflow/lite/kernels/internal\types.h ****       offset = offset * static_cast<size_t>(dims[idx]) +
 397:C:/Renesas/e2studio_2021_01_workspace_RZA2M_ANPR/ANPR_RZA2M_EBK/src/tensorflow_lite/tensorflow/lite/kernels/internal\types.h ****                static_cast<size_t>(index[idx]);
 398:C:/Renesas/e2studio_2021_01_workspace_RZA2M_ANPR/ANPR_RZA2M_EBK/src/tensorflow_lite/tensorflow/lite/kernels/internal\types.h ****     }
 399:C:/Renesas/e2studio_2021_01_workspace_RZA2M_ANPR/ANPR_RZA2M_EBK/src/tensorflow_lite/tensorflow/lite/kernels/internal\types.h ****   }
 400:C:/Renesas/e2studio_2021_01_workspace_RZA2M_ANPR/ANPR_RZA2M_EBK/src/tensorflow_lite/tensorflow/lite/kernels/internal\types.h ****   return offset;
 401:C:/Renesas/e2studio_2021_01_workspace_RZA2M_ANPR/ANPR_RZA2M_EBK/src/tensorflow_lite/tensorflow/lite/kernels/internal\types.h **** }
 402:C:/Renesas/e2studio_2021_01_workspace_RZA2M_ANPR/ANPR_RZA2M_EBK/src/tensorflow_lite/tensorflow/lite/kernels/internal\types.h **** 
 403:C:/Renesas/e2studio_2021_01_workspace_RZA2M_ANPR/ANPR_RZA2M_EBK/src/tensorflow_lite/tensorflow/lite/kernels/internal\types.h **** inline int Offset(const RuntimeShape& shape, int i0, int i1, int i2, int i3) {
 404:C:/Renesas/e2studio_2021_01_workspace_RZA2M_ANPR/ANPR_RZA2M_EBK/src/tensorflow_lite/tensorflow/lite/kernels/internal\types.h ****   TFLITE_DCHECK_EQ(shape.DimensionsCount(), 4);
 405:C:/Renesas/e2studio_2021_01_workspace_RZA2M_ANPR/ANPR_RZA2M_EBK/src/tensorflow_lite/tensorflow/lite/kernels/internal\types.h ****   const int* dims_data = reinterpret_cast<const int*>(shape.DimsDataUpTo5D());
 406:C:/Renesas/e2studio_2021_01_workspace_RZA2M_ANPR/ANPR_RZA2M_EBK/src/tensorflow_lite/tensorflow/lite/kernels/internal\types.h ****   TFLITE_DCHECK(i0 >= 0 && i0 < dims_data[0]);
 407:C:/Renesas/e2studio_2021_01_workspace_RZA2M_ANPR/ANPR_RZA2M_EBK/src/tensorflow_lite/tensorflow/lite/kernels/internal\types.h ****   TFLITE_DCHECK(i1 >= 0 && i1 < dims_data[1]);
 408:C:/Renesas/e2studio_2021_01_workspace_RZA2M_ANPR/ANPR_RZA2M_EBK/src/tensorflow_lite/tensorflow/lite/kernels/internal\types.h ****   TFLITE_DCHECK(i2 >= 0 && i2 < dims_data[2]);
 409:C:/Renesas/e2studio_2021_01_workspace_RZA2M_ANPR/ANPR_RZA2M_EBK/src/tensorflow_lite/tensorflow/lite/kernels/internal\types.h ****   TFLITE_DCHECK(i3 >= 0 && i3 < dims_data[3]);
 410:C:/Renesas/e2studio_2021_01_workspace_RZA2M_ANPR/ANPR_RZA2M_EBK/src/tensorflow_lite/tensorflow/lite/kernels/internal\types.h ****   return ((i0 * dims_data[1] + i1) * dims_data[2] + i2) * dims_data[3] + i3;
 411:C:/Renesas/e2studio_2021_01_workspace_RZA2M_ANPR/ANPR_RZA2M_EBK/src/tensorflow_lite/tensorflow/lite/kernels/internal\types.h **** }
 412:C:/Renesas/e2studio_2021_01_workspace_RZA2M_ANPR/ANPR_RZA2M_EBK/src/tensorflow_lite/tensorflow/lite/kernels/internal\types.h **** 
 413:C:/Renesas/e2studio_2021_01_workspace_RZA2M_ANPR/ANPR_RZA2M_EBK/src/tensorflow_lite/tensorflow/lite/kernels/internal\types.h **** inline int Offset(const RuntimeShape& shape, int i0, int i1, int i2, int i3,
 414:C:/Renesas/e2studio_2021_01_workspace_RZA2M_ANPR/ANPR_RZA2M_EBK/src/tensorflow_lite/tensorflow/lite/kernels/internal\types.h ****                   int i4) {
 415:C:/Renesas/e2studio_2021_01_workspace_RZA2M_ANPR/ANPR_RZA2M_EBK/src/tensorflow_lite/tensorflow/lite/kernels/internal\types.h ****   TFLITE_DCHECK_EQ(shape.DimensionsCount(), 5);
 416:C:/Renesas/e2studio_2021_01_workspace_RZA2M_ANPR/ANPR_RZA2M_EBK/src/tensorflow_lite/tensorflow/lite/kernels/internal\types.h ****   const int* dims_data = reinterpret_cast<const int*>(shape.DimsDataUpTo5D());
 417:C:/Renesas/e2studio_2021_01_workspace_RZA2M_ANPR/ANPR_RZA2M_EBK/src/tensorflow_lite/tensorflow/lite/kernels/internal\types.h ****   TFLITE_DCHECK(i0 >= 0 && i0 < dims_data[0]);
 418:C:/Renesas/e2studio_2021_01_workspace_RZA2M_ANPR/ANPR_RZA2M_EBK/src/tensorflow_lite/tensorflow/lite/kernels/internal\types.h ****   TFLITE_DCHECK(i1 >= 0 && i1 < dims_data[1]);
 419:C:/Renesas/e2studio_2021_01_workspace_RZA2M_ANPR/ANPR_RZA2M_EBK/src/tensorflow_lite/tensorflow/lite/kernels/internal\types.h ****   TFLITE_DCHECK(i2 >= 0 && i2 < dims_data[2]);
 420:C:/Renesas/e2studio_2021_01_workspace_RZA2M_ANPR/ANPR_RZA2M_EBK/src/tensorflow_lite/tensorflow/lite/kernels/internal\types.h ****   TFLITE_DCHECK(i3 >= 0 && i3 < dims_data[3]);
 421:C:/Renesas/e2studio_2021_01_workspace_RZA2M_ANPR/ANPR_RZA2M_EBK/src/tensorflow_lite/tensorflow/lite/kernels/internal\types.h ****   TFLITE_DCHECK(i4 >= 0 && i4 < dims_data[4]);
 422:C:/Renesas/e2studio_2021_01_workspace_RZA2M_ANPR/ANPR_RZA2M_EBK/src/tensorflow_lite/tensorflow/lite/kernels/internal\types.h ****   return (((i0 * dims_data[1] + i1) * dims_data[2] + i2) * dims_data[3] + i3) *
 423:C:/Renesas/e2studio_2021_01_workspace_RZA2M_ANPR/ANPR_RZA2M_EBK/src/tensorflow_lite/tensorflow/lite/kernels/internal\types.h ****              dims_data[4] +
 424:C:/Renesas/e2studio_2021_01_workspace_RZA2M_ANPR/ANPR_RZA2M_EBK/src/tensorflow_lite/tensorflow/lite/kernels/internal\types.h ****          i4;
 425:C:/Renesas/e2studio_2021_01_workspace_RZA2M_ANPR/ANPR_RZA2M_EBK/src/tensorflow_lite/tensorflow/lite/kernels/internal\types.h **** }
 426:C:/Renesas/e2studio_2021_01_workspace_RZA2M_ANPR/ANPR_RZA2M_EBK/src/tensorflow_lite/tensorflow/lite/kernels/internal\types.h **** 
 427:C:/Renesas/e2studio_2021_01_workspace_RZA2M_ANPR/ANPR_RZA2M_EBK/src/tensorflow_lite/tensorflow/lite/kernels/internal\types.h **** inline int Offset(const Dims<4>& dims, int i0, int i1, int i2, int i3) {
 428:C:/Renesas/e2studio_2021_01_workspace_RZA2M_ANPR/ANPR_RZA2M_EBK/src/tensorflow_lite/tensorflow/lite/kernels/internal\types.h ****   TFLITE_DCHECK(i0 >= 0 && i0 < dims.sizes[0]);
 429:C:/Renesas/e2studio_2021_01_workspace_RZA2M_ANPR/ANPR_RZA2M_EBK/src/tensorflow_lite/tensorflow/lite/kernels/internal\types.h ****   TFLITE_DCHECK(i1 >= 0 && i1 < dims.sizes[1]);
 430:C:/Renesas/e2studio_2021_01_workspace_RZA2M_ANPR/ANPR_RZA2M_EBK/src/tensorflow_lite/tensorflow/lite/kernels/internal\types.h ****   TFLITE_DCHECK(i2 >= 0 && i2 < dims.sizes[2]);
 431:C:/Renesas/e2studio_2021_01_workspace_RZA2M_ANPR/ANPR_RZA2M_EBK/src/tensorflow_lite/tensorflow/lite/kernels/internal\types.h ****   TFLITE_DCHECK(i3 >= 0 && i3 < dims.sizes[3]);
 432:C:/Renesas/e2studio_2021_01_workspace_RZA2M_ANPR/ANPR_RZA2M_EBK/src/tensorflow_lite/tensorflow/lite/kernels/internal\types.h ****   return i0 * dims.strides[0] + i1 * dims.strides[1] + i2 * dims.strides[2] +
 433:C:/Renesas/e2studio_2021_01_workspace_RZA2M_ANPR/ANPR_RZA2M_EBK/src/tensorflow_lite/tensorflow/lite/kernels/internal\types.h ****          i3 * dims.strides[3];
 434:C:/Renesas/e2studio_2021_01_workspace_RZA2M_ANPR/ANPR_RZA2M_EBK/src/tensorflow_lite/tensorflow/lite/kernels/internal\types.h **** }
 435:C:/Renesas/e2studio_2021_01_workspace_RZA2M_ANPR/ANPR_RZA2M_EBK/src/tensorflow_lite/tensorflow/lite/kernels/internal\types.h **** 
 436:C:/Renesas/e2studio_2021_01_workspace_RZA2M_ANPR/ANPR_RZA2M_EBK/src/tensorflow_lite/tensorflow/lite/kernels/internal\types.h **** inline int Offset(const Dims<4>& dims, int* index) {
 437:C:/Renesas/e2studio_2021_01_workspace_RZA2M_ANPR/ANPR_RZA2M_EBK/src/tensorflow_lite/tensorflow/lite/kernels/internal\types.h ****   return Offset(dims, index[0], index[1], index[2], index[3]);
 438:C:/Renesas/e2studio_2021_01_workspace_RZA2M_ANPR/ANPR_RZA2M_EBK/src/tensorflow_lite/tensorflow/lite/kernels/internal\types.h **** }
 439:C:/Renesas/e2studio_2021_01_workspace_RZA2M_ANPR/ANPR_RZA2M_EBK/src/tensorflow_lite/tensorflow/lite/kernels/internal\types.h **** 
 440:C:/Renesas/e2studio_2021_01_workspace_RZA2M_ANPR/ANPR_RZA2M_EBK/src/tensorflow_lite/tensorflow/lite/kernels/internal\types.h **** inline int Offset(const RuntimeShape& shape, int* index) {
 441:C:/Renesas/e2studio_2021_01_workspace_RZA2M_ANPR/ANPR_RZA2M_EBK/src/tensorflow_lite/tensorflow/lite/kernels/internal\types.h ****   return Offset(shape, index[0], index[1], index[2], index[3]);
 442:C:/Renesas/e2studio_2021_01_workspace_RZA2M_ANPR/ANPR_RZA2M_EBK/src/tensorflow_lite/tensorflow/lite/kernels/internal\types.h **** }
 443:C:/Renesas/e2studio_2021_01_workspace_RZA2M_ANPR/ANPR_RZA2M_EBK/src/tensorflow_lite/tensorflow/lite/kernels/internal\types.h **** 
 444:C:/Renesas/e2studio_2021_01_workspace_RZA2M_ANPR/ANPR_RZA2M_EBK/src/tensorflow_lite/tensorflow/lite/kernels/internal\types.h **** // Get array size, DCHECKing that the dim index is in range.
 445:C:/Renesas/e2studio_2021_01_workspace_RZA2M_ANPR/ANPR_RZA2M_EBK/src/tensorflow_lite/tensorflow/lite/kernels/internal\types.h **** //
 446:C:/Renesas/e2studio_2021_01_workspace_RZA2M_ANPR/ANPR_RZA2M_EBK/src/tensorflow_lite/tensorflow/lite/kernels/internal\types.h **** // Note that this will be phased out with Dims<4>, since RuntimeShape::Dims()
 447:C:/Renesas/e2studio_2021_01_workspace_RZA2M_ANPR/ANPR_RZA2M_EBK/src/tensorflow_lite/tensorflow/lite/kernels/internal\types.h **** // already performs this check.
 448:C:/Renesas/e2studio_2021_01_workspace_RZA2M_ANPR/ANPR_RZA2M_EBK/src/tensorflow_lite/tensorflow/lite/kernels/internal\types.h **** template <int N>
 449:C:/Renesas/e2studio_2021_01_workspace_RZA2M_ANPR/ANPR_RZA2M_EBK/src/tensorflow_lite/tensorflow/lite/kernels/internal\types.h **** int ArraySize(const Dims<N>& array, int index) {
 450:C:/Renesas/e2studio_2021_01_workspace_RZA2M_ANPR/ANPR_RZA2M_EBK/src/tensorflow_lite/tensorflow/lite/kernels/internal\types.h ****   TFLITE_DCHECK(index >= 0 && index < N);
 451:C:/Renesas/e2studio_2021_01_workspace_RZA2M_ANPR/ANPR_RZA2M_EBK/src/tensorflow_lite/tensorflow/lite/kernels/internal\types.h ****   return array.sizes[index];
 452:C:/Renesas/e2studio_2021_01_workspace_RZA2M_ANPR/ANPR_RZA2M_EBK/src/tensorflow_lite/tensorflow/lite/kernels/internal\types.h **** }
 453:C:/Renesas/e2studio_2021_01_workspace_RZA2M_ANPR/ANPR_RZA2M_EBK/src/tensorflow_lite/tensorflow/lite/kernels/internal\types.h **** 
 454:C:/Renesas/e2studio_2021_01_workspace_RZA2M_ANPR/ANPR_RZA2M_EBK/src/tensorflow_lite/tensorflow/lite/kernels/internal\types.h **** // Get common array size, DCHECKing that they all agree.
 455:C:/Renesas/e2studio_2021_01_workspace_RZA2M_ANPR/ANPR_RZA2M_EBK/src/tensorflow_lite/tensorflow/lite/kernels/internal\types.h **** template <typename ArrayType1, typename ArrayType2>
 456:C:/Renesas/e2studio_2021_01_workspace_RZA2M_ANPR/ANPR_RZA2M_EBK/src/tensorflow_lite/tensorflow/lite/kernels/internal\types.h **** int MatchingArraySize(const ArrayType1& array1, int index1,
 457:C:/Renesas/e2studio_2021_01_workspace_RZA2M_ANPR/ANPR_RZA2M_EBK/src/tensorflow_lite/tensorflow/lite/kernels/internal\types.h ****                       const ArrayType2& array2, int index2) {
 458:C:/Renesas/e2studio_2021_01_workspace_RZA2M_ANPR/ANPR_RZA2M_EBK/src/tensorflow_lite/tensorflow/lite/kernels/internal\types.h ****   TFLITE_DCHECK_EQ(ArraySize(array1, index1), ArraySize(array2, index2));
 459:C:/Renesas/e2studio_2021_01_workspace_RZA2M_ANPR/ANPR_RZA2M_EBK/src/tensorflow_lite/tensorflow/lite/kernels/internal\types.h ****   return ArraySize(array1, index1);
 460:C:/Renesas/e2studio_2021_01_workspace_RZA2M_ANPR/ANPR_RZA2M_EBK/src/tensorflow_lite/tensorflow/lite/kernels/internal\types.h **** }
 461:C:/Renesas/e2studio_2021_01_workspace_RZA2M_ANPR/ANPR_RZA2M_EBK/src/tensorflow_lite/tensorflow/lite/kernels/internal\types.h **** 
 462:C:/Renesas/e2studio_2021_01_workspace_RZA2M_ANPR/ANPR_RZA2M_EBK/src/tensorflow_lite/tensorflow/lite/kernels/internal\types.h **** template <typename ArrayType1, typename ArrayType2, typename... Args>
 463:C:/Renesas/e2studio_2021_01_workspace_RZA2M_ANPR/ANPR_RZA2M_EBK/src/tensorflow_lite/tensorflow/lite/kernels/internal\types.h **** int MatchingArraySize(const ArrayType1& array1, int index1,
 464:C:/Renesas/e2studio_2021_01_workspace_RZA2M_ANPR/ANPR_RZA2M_EBK/src/tensorflow_lite/tensorflow/lite/kernels/internal\types.h ****                       const ArrayType2& array2, int index2, Args... args) {
 465:C:/Renesas/e2studio_2021_01_workspace_RZA2M_ANPR/ANPR_RZA2M_EBK/src/tensorflow_lite/tensorflow/lite/kernels/internal\types.h ****   TFLITE_DCHECK_EQ(ArraySize(array1, index1), ArraySize(array2, index2));
 466:C:/Renesas/e2studio_2021_01_workspace_RZA2M_ANPR/ANPR_RZA2M_EBK/src/tensorflow_lite/tensorflow/lite/kernels/internal\types.h ****   return MatchingArraySize(array1, index1, args...);
 467:C:/Renesas/e2studio_2021_01_workspace_RZA2M_ANPR/ANPR_RZA2M_EBK/src/tensorflow_lite/tensorflow/lite/kernels/internal\types.h **** }
 468:C:/Renesas/e2studio_2021_01_workspace_RZA2M_ANPR/ANPR_RZA2M_EBK/src/tensorflow_lite/tensorflow/lite/kernels/internal\types.h **** 
 469:C:/Renesas/e2studio_2021_01_workspace_RZA2M_ANPR/ANPR_RZA2M_EBK/src/tensorflow_lite/tensorflow/lite/kernels/internal\types.h **** // Get common shape dim, DCHECKing that they all agree.
 470:C:/Renesas/e2studio_2021_01_workspace_RZA2M_ANPR/ANPR_RZA2M_EBK/src/tensorflow_lite/tensorflow/lite/kernels/internal\types.h **** inline int MatchingDim(const RuntimeShape& shape1, int index1,
 471:C:/Renesas/e2studio_2021_01_workspace_RZA2M_ANPR/ANPR_RZA2M_EBK/src/tensorflow_lite/tensorflow/lite/kernels/internal\types.h ****                        const RuntimeShape& shape2, int index2) {
 472:C:/Renesas/e2studio_2021_01_workspace_RZA2M_ANPR/ANPR_RZA2M_EBK/src/tensorflow_lite/tensorflow/lite/kernels/internal\types.h ****   TFLITE_DCHECK_EQ(shape1.Dims(index1), shape2.Dims(index2));
 473:C:/Renesas/e2studio_2021_01_workspace_RZA2M_ANPR/ANPR_RZA2M_EBK/src/tensorflow_lite/tensorflow/lite/kernels/internal\types.h ****   return std::min(shape1.Dims(index1), shape2.Dims(index2));
 474:C:/Renesas/e2studio_2021_01_workspace_RZA2M_ANPR/ANPR_RZA2M_EBK/src/tensorflow_lite/tensorflow/lite/kernels/internal\types.h **** }
 475:C:/Renesas/e2studio_2021_01_workspace_RZA2M_ANPR/ANPR_RZA2M_EBK/src/tensorflow_lite/tensorflow/lite/kernels/internal\types.h **** 
 476:C:/Renesas/e2studio_2021_01_workspace_RZA2M_ANPR/ANPR_RZA2M_EBK/src/tensorflow_lite/tensorflow/lite/kernels/internal\types.h **** template <typename... Args>
 477:C:/Renesas/e2studio_2021_01_workspace_RZA2M_ANPR/ANPR_RZA2M_EBK/src/tensorflow_lite/tensorflow/lite/kernels/internal\types.h **** int MatchingDim(const RuntimeShape& shape1, int index1,
 478:C:/Renesas/e2studio_2021_01_workspace_RZA2M_ANPR/ANPR_RZA2M_EBK/src/tensorflow_lite/tensorflow/lite/kernels/internal\types.h ****                 const RuntimeShape& shape2, int index2, Args... args) {
 479:C:/Renesas/e2studio_2021_01_workspace_RZA2M_ANPR/ANPR_RZA2M_EBK/src/tensorflow_lite/tensorflow/lite/kernels/internal\types.h ****   TFLITE_DCHECK_EQ(shape1.Dims(index1), shape2.Dims(index2));
 480:C:/Renesas/e2studio_2021_01_workspace_RZA2M_ANPR/ANPR_RZA2M_EBK/src/tensorflow_lite/tensorflow/lite/kernels/internal\types.h ****   return MatchingDim(shape1, index1, args...);
 481:C:/Renesas/e2studio_2021_01_workspace_RZA2M_ANPR/ANPR_RZA2M_EBK/src/tensorflow_lite/tensorflow/lite/kernels/internal\types.h **** }
 482:C:/Renesas/e2studio_2021_01_workspace_RZA2M_ANPR/ANPR_RZA2M_EBK/src/tensorflow_lite/tensorflow/lite/kernels/internal\types.h **** 
 483:C:/Renesas/e2studio_2021_01_workspace_RZA2M_ANPR/ANPR_RZA2M_EBK/src/tensorflow_lite/tensorflow/lite/kernels/internal\types.h **** // Will be phased out with Dims<4>, replaced by RuntimeShape::FlatSize().
 484:C:/Renesas/e2studio_2021_01_workspace_RZA2M_ANPR/ANPR_RZA2M_EBK/src/tensorflow_lite/tensorflow/lite/kernels/internal\types.h **** template <int N>
 485:C:/Renesas/e2studio_2021_01_workspace_RZA2M_ANPR/ANPR_RZA2M_EBK/src/tensorflow_lite/tensorflow/lite/kernels/internal\types.h **** inline int FlatSize(const Dims<N>& dims) {
 486:C:/Renesas/e2studio_2021_01_workspace_RZA2M_ANPR/ANPR_RZA2M_EBK/src/tensorflow_lite/tensorflow/lite/kernels/internal\types.h ****   int flat_size = 1;
 487:C:/Renesas/e2studio_2021_01_workspace_RZA2M_ANPR/ANPR_RZA2M_EBK/src/tensorflow_lite/tensorflow/lite/kernels/internal\types.h ****   for (int i = 0; i < N; ++i) {
 488:C:/Renesas/e2studio_2021_01_workspace_RZA2M_ANPR/ANPR_RZA2M_EBK/src/tensorflow_lite/tensorflow/lite/kernels/internal\types.h ****     flat_size *= dims.sizes[i];
 489:C:/Renesas/e2studio_2021_01_workspace_RZA2M_ANPR/ANPR_RZA2M_EBK/src/tensorflow_lite/tensorflow/lite/kernels/internal\types.h ****   }
 490:C:/Renesas/e2studio_2021_01_workspace_RZA2M_ANPR/ANPR_RZA2M_EBK/src/tensorflow_lite/tensorflow/lite/kernels/internal\types.h ****   return flat_size;
 491:C:/Renesas/e2studio_2021_01_workspace_RZA2M_ANPR/ANPR_RZA2M_EBK/src/tensorflow_lite/tensorflow/lite/kernels/internal\types.h **** }
 492:C:/Renesas/e2studio_2021_01_workspace_RZA2M_ANPR/ANPR_RZA2M_EBK/src/tensorflow_lite/tensorflow/lite/kernels/internal\types.h **** 
 493:C:/Renesas/e2studio_2021_01_workspace_RZA2M_ANPR/ANPR_RZA2M_EBK/src/tensorflow_lite/tensorflow/lite/kernels/internal\types.h **** TFLITE_DEPRECATED("Prefer FlatSize.")
 494:C:/Renesas/e2studio_2021_01_workspace_RZA2M_ANPR/ANPR_RZA2M_EBK/src/tensorflow_lite/tensorflow/lite/kernels/internal\types.h **** inline int RequiredBufferSizeForDims(const Dims<4>& dims) {
 495:C:/Renesas/e2studio_2021_01_workspace_RZA2M_ANPR/ANPR_RZA2M_EBK/src/tensorflow_lite/tensorflow/lite/kernels/internal\types.h ****   return FlatSize(dims);
 496:C:/Renesas/e2studio_2021_01_workspace_RZA2M_ANPR/ANPR_RZA2M_EBK/src/tensorflow_lite/tensorflow/lite/kernels/internal\types.h **** }
 497:C:/Renesas/e2studio_2021_01_workspace_RZA2M_ANPR/ANPR_RZA2M_EBK/src/tensorflow_lite/tensorflow/lite/kernels/internal\types.h **** 
 498:C:/Renesas/e2studio_2021_01_workspace_RZA2M_ANPR/ANPR_RZA2M_EBK/src/tensorflow_lite/tensorflow/lite/kernels/internal\types.h **** inline int MatchingElementsSize(const RuntimeShape& shape,
 499:C:/Renesas/e2studio_2021_01_workspace_RZA2M_ANPR/ANPR_RZA2M_EBK/src/tensorflow_lite/tensorflow/lite/kernels/internal\types.h ****                                 const RuntimeShape& check_shape_0) {
 500:C:/Renesas/e2studio_2021_01_workspace_RZA2M_ANPR/ANPR_RZA2M_EBK/src/tensorflow_lite/tensorflow/lite/kernels/internal\types.h ****   const int size_1 = shape.FlatSize();
 501:C:/Renesas/e2studio_2021_01_workspace_RZA2M_ANPR/ANPR_RZA2M_EBK/src/tensorflow_lite/tensorflow/lite/kernels/internal\types.h ****   const int size_2 = check_shape_0.FlatSize();
 502:C:/Renesas/e2studio_2021_01_workspace_RZA2M_ANPR/ANPR_RZA2M_EBK/src/tensorflow_lite/tensorflow/lite/kernels/internal\types.h ****   TFLITE_CHECK_EQ(size_1, size_2);
 503:C:/Renesas/e2studio_2021_01_workspace_RZA2M_ANPR/ANPR_RZA2M_EBK/src/tensorflow_lite/tensorflow/lite/kernels/internal\types.h ****   return size_1;
 504:C:/Renesas/e2studio_2021_01_workspace_RZA2M_ANPR/ANPR_RZA2M_EBK/src/tensorflow_lite/tensorflow/lite/kernels/internal\types.h **** }
 505:C:/Renesas/e2studio_2021_01_workspace_RZA2M_ANPR/ANPR_RZA2M_EBK/src/tensorflow_lite/tensorflow/lite/kernels/internal\types.h **** 
 506:C:/Renesas/e2studio_2021_01_workspace_RZA2M_ANPR/ANPR_RZA2M_EBK/src/tensorflow_lite/tensorflow/lite/kernels/internal\types.h **** inline int MatchingElementsSize(const RuntimeShape& shape,
 507:C:/Renesas/e2studio_2021_01_workspace_RZA2M_ANPR/ANPR_RZA2M_EBK/src/tensorflow_lite/tensorflow/lite/kernels/internal\types.h ****                                 const RuntimeShape& check_shape_0,
 508:C:/Renesas/e2studio_2021_01_workspace_RZA2M_ANPR/ANPR_RZA2M_EBK/src/tensorflow_lite/tensorflow/lite/kernels/internal\types.h ****                                 const RuntimeShape& check_shape_1) {
 509:C:/Renesas/e2studio_2021_01_workspace_RZA2M_ANPR/ANPR_RZA2M_EBK/src/tensorflow_lite/tensorflow/lite/kernels/internal\types.h ****   const int size_1 = shape.FlatSize();
 510:C:/Renesas/e2studio_2021_01_workspace_RZA2M_ANPR/ANPR_RZA2M_EBK/src/tensorflow_lite/tensorflow/lite/kernels/internal\types.h ****   const int size_2 = check_shape_0.FlatSize();
 511:C:/Renesas/e2studio_2021_01_workspace_RZA2M_ANPR/ANPR_RZA2M_EBK/src/tensorflow_lite/tensorflow/lite/kernels/internal\types.h ****   const int size_3 = check_shape_1.FlatSize();
 512:C:/Renesas/e2studio_2021_01_workspace_RZA2M_ANPR/ANPR_RZA2M_EBK/src/tensorflow_lite/tensorflow/lite/kernels/internal\types.h ****   TFLITE_CHECK_EQ(size_1, size_2);
 513:C:/Renesas/e2studio_2021_01_workspace_RZA2M_ANPR/ANPR_RZA2M_EBK/src/tensorflow_lite/tensorflow/lite/kernels/internal\types.h ****   TFLITE_CHECK_EQ(size_2, size_3);
 514:C:/Renesas/e2studio_2021_01_workspace_RZA2M_ANPR/ANPR_RZA2M_EBK/src/tensorflow_lite/tensorflow/lite/kernels/internal\types.h ****   return size_1;
 515:C:/Renesas/e2studio_2021_01_workspace_RZA2M_ANPR/ANPR_RZA2M_EBK/src/tensorflow_lite/tensorflow/lite/kernels/internal\types.h **** }
 516:C:/Renesas/e2studio_2021_01_workspace_RZA2M_ANPR/ANPR_RZA2M_EBK/src/tensorflow_lite/tensorflow/lite/kernels/internal\types.h **** 
 517:C:/Renesas/e2studio_2021_01_workspace_RZA2M_ANPR/ANPR_RZA2M_EBK/src/tensorflow_lite/tensorflow/lite/kernels/internal\types.h **** // Flat size calculation, checking that dimensions match with one or more other
 518:C:/Renesas/e2studio_2021_01_workspace_RZA2M_ANPR/ANPR_RZA2M_EBK/src/tensorflow_lite/tensorflow/lite/kernels/internal\types.h **** // arrays.
 519:C:/Renesas/e2studio_2021_01_workspace_RZA2M_ANPR/ANPR_RZA2M_EBK/src/tensorflow_lite/tensorflow/lite/kernels/internal\types.h **** inline int MatchingFlatSize(const RuntimeShape& shape,
 520:C:/Renesas/e2studio_2021_01_workspace_RZA2M_ANPR/ANPR_RZA2M_EBK/src/tensorflow_lite/tensorflow/lite/kernels/internal\types.h ****                             const RuntimeShape& check_shape_0) {
 521:C:/Renesas/e2studio_2021_01_workspace_RZA2M_ANPR/ANPR_RZA2M_EBK/src/tensorflow_lite/tensorflow/lite/kernels/internal\types.h ****   TFLITE_DCHECK_EQ(shape.DimensionsCount(), check_shape_0.DimensionsCount());
 1262              		.loc 5 521 0
 1263 00c0 070052E1 		cmp	r2, r7
 1264 00c4 DF02001A 		bne	.L139
 1265              	.LVL122:
 1266              	.LBB640:
 522:C:/Renesas/e2studio_2021_01_workspace_RZA2M_ANPR/ANPR_RZA2M_EBK/src/tensorflow_lite/tensorflow/lite/kernels/internal\types.h ****   const int dims_count = shape.DimensionsCount();
 523:C:/Renesas/e2studio_2021_01_workspace_RZA2M_ANPR/ANPR_RZA2M_EBK/src/tensorflow_lite/tensorflow/lite/kernels/internal\types.h ****   for (int i = 0; i < dims_count; ++i) {
 1267              		.loc 5 523 0
 1268 00c8 000052E3 		cmp	r2, #0
 1269 00cc 780200DA 		ble	.L230
 1270 00d0 050052E3 		cmp	r2, #5
 1271              	.LBB641:
 1272              	.LBB642:
 216:C:/Renesas/e2studio_2021_01_workspace_RZA2M_ANPR/ANPR_RZA2M_EBK/src/tensorflow_lite/tensorflow/lite/kernels/internal\types.h ****   }
 1273              		.loc 5 216 0
 1274 00d4 04809DE5 		ldr	r8, [sp, #4]
 1275              	.LBE642:
 1276              	.LBE641:
 1277              	.LBB648:
 1278              	.LBB649:
 1279 00d8 1C109DE5 		ldr	r1, [sp, #28]
 1280 00dc 650200CA 		bgt	.L142
 1281              	.LVL123:
 215:C:/Renesas/e2studio_2021_01_workspace_RZA2M_ANPR/ANPR_RZA2M_EBK/src/tensorflow_lite/tensorflow/lite/kernels/internal\types.h ****     return size_ > kMaxSmallSize ? dims_pointer_[i] : dims_[i];
 1282              		.loc 5 215 0
 1283 00e0 000052E3 		cmp	r2, #0
 1284 00e4 BA0200DA 		ble	.L143
 1285              	.LVL124:
 1286              	.LBE649:
 1287              	.LBE648:
 524:C:/Renesas/e2studio_2021_01_workspace_RZA2M_ANPR/ANPR_RZA2M_EBK/src/tensorflow_lite/tensorflow/lite/kernels/internal\types.h ****     TFLITE_DCHECK_EQ(shape.Dims(i), check_shape_0.Dims(i));
 1288              		.loc 5 524 0
 1289 00e8 010058E1 		cmp	r8, r1
 1290 00ec BD02001A 		bne	.L144
 1291              	.LVL125:
 523:C:/Renesas/e2studio_2021_01_workspace_RZA2M_ANPR/ANPR_RZA2M_EBK/src/tensorflow_lite/tensorflow/lite/kernels/internal\types.h ****     TFLITE_DCHECK_EQ(shape.Dims(i), check_shape_0.Dims(i));
 1292              		.loc 5 523 0
 1293 00f0 010052E3 		cmp	r2, #1
 1294 00f4 1900000A 		beq	.L229
 1295              	.LVL126:
 1296              	.LBB657:
 1297              	.LBB643:
 216:C:/Renesas/e2studio_2021_01_workspace_RZA2M_ANPR/ANPR_RZA2M_EBK/src/tensorflow_lite/tensorflow/lite/kernels/internal\types.h ****   }
 1298              		.loc 5 216 0
 1299 00f8 08109DE5 		ldr	r1, [sp, #8]
 1300              	.LVL127:
 1301              	.LBE643:
 1302              	.LBE657:
 1303              		.loc 5 524 0
 1304 00fc 20309DE5 		ldr	r3, [sp, #32]
 1305 0100 030051E1 		cmp	r1, r3
 1306 0104 B702001A 		bne	.L144
 1307              	.LVL128:
 523:C:/Renesas/e2studio_2021_01_workspace_RZA2M_ANPR/ANPR_RZA2M_EBK/src/tensorflow_lite/tensorflow/lite/kernels/internal\types.h ****     TFLITE_DCHECK_EQ(shape.Dims(i), check_shape_0.Dims(i));
 1308              		.loc 5 523 0
 1309 0108 020052E3 		cmp	r2, #2
 1310 010c 1300000A 		beq	.L229
 1311              	.LVL129:
 1312              	.LBB658:
 1313              	.LBB644:
 216:C:/Renesas/e2studio_2021_01_workspace_RZA2M_ANPR/ANPR_RZA2M_EBK/src/tensorflow_lite/tensorflow/lite/kernels/internal\types.h ****   }
 1314              		.loc 5 216 0
 1315 0110 0C109DE5 		ldr	r1, [sp, #12]
 1316              	.LVL130:
 1317              	.LBE644:
 1318              	.LBE658:
 1319              		.loc 5 524 0
 1320 0114 24309DE5 		ldr	r3, [sp, #36]
 1321 0118 030051E1 		cmp	r1, r3
 1322 011c B102001A 		bne	.L144
 1323              	.LVL131:
 523:C:/Renesas/e2studio_2021_01_workspace_RZA2M_ANPR/ANPR_RZA2M_EBK/src/tensorflow_lite/tensorflow/lite/kernels/internal\types.h ****     TFLITE_DCHECK_EQ(shape.Dims(i), check_shape_0.Dims(i));
 1324              		.loc 5 523 0
 1325 0120 030052E3 		cmp	r2, #3
 1326 0124 0D00000A 		beq	.L229
 1327              	.LVL132:
 1328              	.LBB659:
 1329              	.LBB650:
 215:C:/Renesas/e2studio_2021_01_workspace_RZA2M_ANPR/ANPR_RZA2M_EBK/src/tensorflow_lite/tensorflow/lite/kernels/internal\types.h ****     return size_ > kMaxSmallSize ? dims_pointer_[i] : dims_[i];
 1330              		.loc 5 215 0
 1331 0128 030057E3 		cmp	r7, #3
 1332              	.LBE650:
 1333              	.LBE659:
 1334              	.LBB660:
 1335              	.LBB645:
 216:C:/Renesas/e2studio_2021_01_workspace_RZA2M_ANPR/ANPR_RZA2M_EBK/src/tensorflow_lite/tensorflow/lite/kernels/internal\types.h ****   }
 1336              		.loc 5 216 0
 1337 012c 10109DE5 		ldr	r1, [sp, #16]
 1338              	.LVL133:
 1339              	.LBE645:
 1340              	.LBE660:
 1341              	.LBB661:
 1342              	.LBB651:
 215:C:/Renesas/e2studio_2021_01_workspace_RZA2M_ANPR/ANPR_RZA2M_EBK/src/tensorflow_lite/tensorflow/lite/kernels/internal\types.h ****     return size_ > kMaxSmallSize ? dims_pointer_[i] : dims_[i];
 1343              		.loc 5 215 0
 1344 0130 A702000A 		beq	.L143
 1345              	.LVL134:
 1346              	.LBE651:
 1347              	.LBE661:
 1348              		.loc 5 524 0
 1349 0134 28309DE5 		ldr	r3, [sp, #40]
 1350 0138 030051E1 		cmp	r1, r3
 1351 013c A902001A 		bne	.L144
 1352              	.LVL135:
 523:C:/Renesas/e2studio_2021_01_workspace_RZA2M_ANPR/ANPR_RZA2M_EBK/src/tensorflow_lite/tensorflow/lite/kernels/internal\types.h ****     TFLITE_DCHECK_EQ(shape.Dims(i), check_shape_0.Dims(i));
 1353              		.loc 5 523 0
 1354 0140 040052E3 		cmp	r2, #4
 1355 0144 0500000A 		beq	.L229
 1356              	.LVL136:
 1357              	.LBB662:
 1358              	.LBB652:
 215:C:/Renesas/e2studio_2021_01_workspace_RZA2M_ANPR/ANPR_RZA2M_EBK/src/tensorflow_lite/tensorflow/lite/kernels/internal\types.h ****     return size_ > kMaxSmallSize ? dims_pointer_[i] : dims_[i];
 1359              		.loc 5 215 0
 1360 0148 040057E3 		cmp	r7, #4
 1361              	.LBE652:
 1362              	.LBE662:
 1363              	.LBB663:
 1364              	.LBB646:
 216:C:/Renesas/e2studio_2021_01_workspace_RZA2M_ANPR/ANPR_RZA2M_EBK/src/tensorflow_lite/tensorflow/lite/kernels/internal\types.h ****   }
 1365              		.loc 5 216 0
 1366 014c 14309DE5 		ldr	r3, [sp, #20]
 1367              	.LVL137:
 1368              	.LBE646:
 1369              	.LBE663:
 1370              	.LBB664:
 1371              	.LBB653:
 215:C:/Renesas/e2studio_2021_01_workspace_RZA2M_ANPR/ANPR_RZA2M_EBK/src/tensorflow_lite/tensorflow/lite/kernels/internal\types.h ****     return size_ > kMaxSmallSize ? dims_pointer_[i] : dims_[i];
 1372              		.loc 5 215 0
 1373 0150 9F02000A 		beq	.L143
 1374              	.LVL138:
 1375              	.LBE653:
 1376              	.LBE664:
 1377              		.loc 5 524 0
 1378 0154 2C109DE5 		ldr	r1, [sp, #44]
 1379 0158 030051E1 		cmp	r1, r3
 1380 015c A102001A 		bne	.L144
 1381              	.LVL139:
 1382              	.L229:
 1383              	.LBE640:
 1384              	.LBB669:
 1385              	.LBB670:
 1386              	.LBB671:
 1387              	.LBB672:
 232:C:/Renesas/e2studio_2021_01_workspace_RZA2M_ANPR/ANPR_RZA2M_EBK/src/tensorflow_lite/tensorflow/lite/kernels/internal\types.h ****   }
 1388              		.loc 5 232 0
 1389 0160 04608DE2 		add	r6, sp, #4
 1390              	.LVL140:
 1391              	.L145:
 1392 0164 5631A0E7 		sbfx	r3, r6, #2, #1
 1393 0168 033003E2 		and	r3, r3, #3
 1394 016c 020053E1 		cmp	r3, r2
 1395 0170 0230A021 		movcs	r3, r2
 1396 0174 080052E3 		cmp	r2, #8
 1397 0178 0230A091 		movls	r3, r2
 1398 017c 000053E3 		cmp	r3, #0
 1399 0180 7502000A 		beq	.L231
 1400 0184 010053E3 		cmp	r3, #1
 1401              	.LBE672:
 1402              	.LBE671:
 1403              	.LBB674:
 293:C:/Renesas/e2studio_2021_01_workspace_RZA2M_ANPR/ANPR_RZA2M_EBK/src/tensorflow_lite/tensorflow/lite/kernels/internal\types.h ****     }
 1404              		.loc 5 293 0
 1405 0188 00C096E5 		ldr	ip, [r6]
 1406              	.LVL141:
 1407 018c 6C02000A 		beq	.L238
 1408 0190 041096E5 		ldr	r1, [r6, #4]
 1409 0194 020053E3 		cmp	r3, #2
 1410 0198 910C0CE0 		mul	ip, r1, ip
 1411              	.LVL142:
 1412 019c 6802000A 		beq	.L238
 1413 01a0 081096E5 		ldr	r1, [r6, #8]
 1414 01a4 030053E3 		cmp	r3, #3
 1415 01a8 910C0CE0 		mul	ip, r1, ip
 1416              	.LVL143:
 1417 01ac 6402000A 		beq	.L238
 1418 01b0 0C1096E5 		ldr	r1, [r6, #12]
 1419 01b4 040053E3 		cmp	r3, #4
 1420 01b8 910C0CE0 		mul	ip, r1, ip
 1421              	.LVL144:
 1422 01bc 6002000A 		beq	.L238
 1423 01c0 101096E5 		ldr	r1, [r6, #16]
 1424 01c4 050053E3 		cmp	r3, #5
 1425 01c8 910C0CE0 		mul	ip, r1, ip
 1426              	.LVL145:
 1427 01cc 5C02000A 		beq	.L238
 1428 01d0 141096E5 		ldr	r1, [r6, #20]
 1429 01d4 060053E3 		cmp	r3, #6
 1430 01d8 910C0CE0 		mul	ip, r1, ip
 1431              	.LVL146:
 1432 01dc 5802000A 		beq	.L238
 1433 01e0 181096E5 		ldr	r1, [r6, #24]
 1434 01e4 070053E3 		cmp	r3, #7
 1435 01e8 910C0CE0 		mul	ip, r1, ip
 1436              	.LVL147:
 1437 01ec 5402000A 		beq	.L238
 1438 01f0 1C1096E5 		ldr	r1, [r6, #28]
 292:C:/Renesas/e2studio_2021_01_workspace_RZA2M_ANPR/ANPR_RZA2M_EBK/src/tensorflow_lite/tensorflow/lite/kernels/internal\types.h ****       buffer_size *= dims_data[i];
 1439              		.loc 5 292 0
 1440 01f4 0870A0E3 		mov	r7, #8
 293:C:/Renesas/e2studio_2021_01_workspace_RZA2M_ANPR/ANPR_RZA2M_EBK/src/tensorflow_lite/tensorflow/lite/kernels/internal\types.h ****     }
 1441              		.loc 5 293 0
 1442 01f8 910C0CE0 		mul	ip, r1, ip
 1443              	.LVL148:
 1444              	.L152:
 1445 01fc 030052E1 		cmp	r2, r3
 1446 0200 2800000A 		beq	.L153
 1447              	.LVL149:
 1448              	.L151:
 1449 0204 038042E0 		sub	r8, r2, r3
 1450 0208 011042E2 		sub	r1, r2, #1
 1451 020c 040048E2 		sub	r0, r8, #4
 1452 0210 031041E0 		sub	r1, r1, r3
 1453 0214 2001A0E1 		lsr	r0, r0, #2
 1454 0218 020051E3 		cmp	r1, #2
 1455 021c 010080E2 		add	r0, r0, #1
 1456 0220 0091A0E1 		lsl	r9, r0, #2
 1457 0224 1200009A 		bls	.L154
 1458 0228 033186E0 		add	r3, r6, r3, lsl #2
 292:C:/Renesas/e2studio_2021_01_workspace_RZA2M_ANPR/ANPR_RZA2M_EBK/src/tensorflow_lite/tensorflow/lite/kernels/internal\types.h ****       buffer_size *= dims_data[i];
 1459              		.loc 5 292 0
 1460 022c 5100C0F2 		vmov.i32	q8, #1  @ v4si
 1461 0230 0010A0E3 		mov	r1, #0
 1462              	.L156:
 1463 0234 011081E2 		add	r1, r1, #1
 293:C:/Renesas/e2studio_2021_01_workspace_RZA2M_ANPR/ANPR_RZA2M_EBK/src/tensorflow_lite/tensorflow/lite/kernels/internal\types.h ****     }
 1464              		.loc 5 293 0
 1465 0238 DF2A63F4 		vld1.64	{d18-d19}, [r3:64]
 1466 023c 010050E1 		cmp	r0, r1
 1467 0240 103083E2 		add	r3, r3, #16
 1468 0244 F20960F2 		vmul.i32	q8, q8, q9
 1469 0248 F9FFFF8A 		bhi	.L156
 1470 024c 090058E1 		cmp	r8, r9
 1471 0250 097087E0 		add	r7, r7, r9
 1472 0254 5020C0F2 		vmov.i32	q9, #0  @ v4si
 1473 0258 E248F0F2 		vext.32	q10, q8, q9, #2
 1474 025c F40960F2 		vmul.i32	q8, q8, q10
 1475 0260 E224F0F2 		vext.32	q9, q8, q9, #1
 1476 0264 F20960F2 		vmul.i32	q8, q8, q9
 1477 0268 901B10EE 		vmov.32	r1, d16[0]
 1478 026c 910C0CE0 		mul	ip, r1, ip
 1479 0270 0C00000A 		beq	.L153
 1480              	.L154:
 1481              	.LVL150:
 1482 0274 071196E7 		ldr	r1, [r6, r7, lsl #2]
 292:C:/Renesas/e2studio_2021_01_workspace_RZA2M_ANPR/ANPR_RZA2M_EBK/src/tensorflow_lite/tensorflow/lite/kernels/internal\types.h ****       buffer_size *= dims_data[i];
 1483              		.loc 5 292 0
 1484 0278 013087E2 		add	r3, r7, #1
 1485 027c 030052E1 		cmp	r2, r3
 293:C:/Renesas/e2studio_2021_01_workspace_RZA2M_ANPR/ANPR_RZA2M_EBK/src/tensorflow_lite/tensorflow/lite/kernels/internal\types.h ****     }
 1486              		.loc 5 293 0
 1487 0280 0731A0E1 		lsl	r3, r7, #2
 1488 0284 910C0CE0 		mul	ip, r1, ip
 1489              	.LVL151:
 292:C:/Renesas/e2studio_2021_01_workspace_RZA2M_ANPR/ANPR_RZA2M_EBK/src/tensorflow_lite/tensorflow/lite/kernels/internal\types.h ****       buffer_size *= dims_data[i];
 1490              		.loc 5 292 0
 1491 0288 060000DA 		ble	.L153
 293:C:/Renesas/e2studio_2021_01_workspace_RZA2M_ANPR/ANPR_RZA2M_EBK/src/tensorflow_lite/tensorflow/lite/kernels/internal\types.h ****     }
 1492              		.loc 5 293 0
 1493 028c 033086E0 		add	r3, r6, r3
 292:C:/Renesas/e2studio_2021_01_workspace_RZA2M_ANPR/ANPR_RZA2M_EBK/src/tensorflow_lite/tensorflow/lite/kernels/internal\types.h ****       buffer_size *= dims_data[i];
 1494              		.loc 5 292 0
 1495 0290 021087E2 		add	r1, r7, #2
 293:C:/Renesas/e2studio_2021_01_workspace_RZA2M_ANPR/ANPR_RZA2M_EBK/src/tensorflow_lite/tensorflow/lite/kernels/internal\types.h ****     }
 1496              		.loc 5 293 0
 1497 0294 040093E5 		ldr	r0, [r3, #4]
 292:C:/Renesas/e2studio_2021_01_workspace_RZA2M_ANPR/ANPR_RZA2M_EBK/src/tensorflow_lite/tensorflow/lite/kernels/internal\types.h ****       buffer_size *= dims_data[i];
 1498              		.loc 5 292 0
 1499 0298 010052E1 		cmp	r2, r1
 293:C:/Renesas/e2studio_2021_01_workspace_RZA2M_ANPR/ANPR_RZA2M_EBK/src/tensorflow_lite/tensorflow/lite/kernels/internal\types.h ****     }
 1500              		.loc 5 293 0
 1501 029c 900C0CE0 		mul	ip, r0, ip
 1502              	.LVL152:
 292:C:/Renesas/e2studio_2021_01_workspace_RZA2M_ANPR/ANPR_RZA2M_EBK/src/tensorflow_lite/tensorflow/lite/kernels/internal\types.h ****       buffer_size *= dims_data[i];
 1503              		.loc 5 292 0
 293:C:/Renesas/e2studio_2021_01_workspace_RZA2M_ANPR/ANPR_RZA2M_EBK/src/tensorflow_lite/tensorflow/lite/kernels/internal\types.h ****     }
 1504              		.loc 5 293 0
 1505 02a0 083093C5 		ldrgt	r3, [r3, #8]
 1506 02a4 930C0CC0 		mulgt	ip, r3, ip
 1507              	.LVL153:
 1508              	.L153:
 1509              	.LBE674:
 1510              	.LBE670:
 1511              	.LBE669:
 1512              	.LBE639:
 1513              	.LBE638:
 1514              	.LBB698:
  55:../src/tensorflow_lite/tensorflow/lite/micro/kernels/activations.cc ****     const int32_t val = static_cast<int32_t>(input_data[i]);
 1515              		.loc 1 55 0
 1516 02a8 00005CE3 		cmp	ip, #0
 1517 02ac 1A0200DA 		ble	.L177
 1518              	.LVL154:
 1519              	.L140:
 1520 02b0 01E04EE2 		sub	lr, lr, #1
 1521              	.LVL155:
 1522 02b4 015045E2 		sub	r5, r5, #1
 1523              	.LVL156:
 1524              	.LBE698:
 1525              	.LBB745:
 1526              	.LBB691:
 1527              	.LBB684:
 1528              	.LBB680:
 290:C:/Renesas/e2studio_2021_01_workspace_RZA2M_ANPR/ANPR_RZA2M_EBK/src/tensorflow_lite/tensorflow/lite/kernels/internal\types.h ****     const int* dims_data = reinterpret_cast<const int*>(DimsData());
 1529              		.loc 5 290 0
 1530 02b8 0020A0E3 		mov	r2, #0
 1531              	.LBE680:
 1532              	.LBE684:
 1533              	.LBE691:
 1534              	.LBE745:
 1535              	.LBB746:
 1536              	.LBB699:
 1537              	.LBB700:
 1538              	.LBB701:
 1539              	.LBB702:
 1540              	.LBB703:
 1541              		.file 7 "C:/Renesas/e2studio_2021_01_workspace_RZA2M_ANPR/ANPR_RZA2M_EBK/src/tensorflow_lite/third
   1:C:/Renesas/e2studio_2021_01_workspace_RZA2M_ANPR/ANPR_RZA2M_EBK/src/tensorflow_lite/third_party/gemmlowp/fixedpoint\fixedpoint.h **** // Copyright 2015 The Gemmlowp Authors. All Rights Reserved.
   2:C:/Renesas/e2studio_2021_01_workspace_RZA2M_ANPR/ANPR_RZA2M_EBK/src/tensorflow_lite/third_party/gemmlowp/fixedpoint\fixedpoint.h **** //
   3:C:/Renesas/e2studio_2021_01_workspace_RZA2M_ANPR/ANPR_RZA2M_EBK/src/tensorflow_lite/third_party/gemmlowp/fixedpoint\fixedpoint.h **** // Licensed under the Apache License, Version 2.0 (the "License");
   4:C:/Renesas/e2studio_2021_01_workspace_RZA2M_ANPR/ANPR_RZA2M_EBK/src/tensorflow_lite/third_party/gemmlowp/fixedpoint\fixedpoint.h **** // you may not use this file except in compliance with the License.
   5:C:/Renesas/e2studio_2021_01_workspace_RZA2M_ANPR/ANPR_RZA2M_EBK/src/tensorflow_lite/third_party/gemmlowp/fixedpoint\fixedpoint.h **** // You may obtain a copy of the License at
   6:C:/Renesas/e2studio_2021_01_workspace_RZA2M_ANPR/ANPR_RZA2M_EBK/src/tensorflow_lite/third_party/gemmlowp/fixedpoint\fixedpoint.h **** //
   7:C:/Renesas/e2studio_2021_01_workspace_RZA2M_ANPR/ANPR_RZA2M_EBK/src/tensorflow_lite/third_party/gemmlowp/fixedpoint\fixedpoint.h **** //     http://www.apache.org/licenses/LICENSE-2.0
   8:C:/Renesas/e2studio_2021_01_workspace_RZA2M_ANPR/ANPR_RZA2M_EBK/src/tensorflow_lite/third_party/gemmlowp/fixedpoint\fixedpoint.h **** //
   9:C:/Renesas/e2studio_2021_01_workspace_RZA2M_ANPR/ANPR_RZA2M_EBK/src/tensorflow_lite/third_party/gemmlowp/fixedpoint\fixedpoint.h **** // Unless required by applicable law or agreed to in writing, software
  10:C:/Renesas/e2studio_2021_01_workspace_RZA2M_ANPR/ANPR_RZA2M_EBK/src/tensorflow_lite/third_party/gemmlowp/fixedpoint\fixedpoint.h **** // distributed under the License is distributed on an "AS IS" BASIS,
  11:C:/Renesas/e2studio_2021_01_workspace_RZA2M_ANPR/ANPR_RZA2M_EBK/src/tensorflow_lite/third_party/gemmlowp/fixedpoint\fixedpoint.h **** // WITHOUT WARRANTIES OR CONDITIONS OF ANY KIND, either express or implied.
  12:C:/Renesas/e2studio_2021_01_workspace_RZA2M_ANPR/ANPR_RZA2M_EBK/src/tensorflow_lite/third_party/gemmlowp/fixedpoint\fixedpoint.h **** // See the License for the specific language governing permissions and
  13:C:/Renesas/e2studio_2021_01_workspace_RZA2M_ANPR/ANPR_RZA2M_EBK/src/tensorflow_lite/third_party/gemmlowp/fixedpoint\fixedpoint.h **** // limitations under the License.
  14:C:/Renesas/e2studio_2021_01_workspace_RZA2M_ANPR/ANPR_RZA2M_EBK/src/tensorflow_lite/third_party/gemmlowp/fixedpoint\fixedpoint.h **** 
  15:C:/Renesas/e2studio_2021_01_workspace_RZA2M_ANPR/ANPR_RZA2M_EBK/src/tensorflow_lite/third_party/gemmlowp/fixedpoint\fixedpoint.h **** // fixedpoint.h: fixed-point arithmetic, with basic operations and
  16:C:/Renesas/e2studio_2021_01_workspace_RZA2M_ANPR/ANPR_RZA2M_EBK/src/tensorflow_lite/third_party/gemmlowp/fixedpoint\fixedpoint.h **** // a few math functions such as tanh.
  17:C:/Renesas/e2studio_2021_01_workspace_RZA2M_ANPR/ANPR_RZA2M_EBK/src/tensorflow_lite/third_party/gemmlowp/fixedpoint\fixedpoint.h **** 
  18:C:/Renesas/e2studio_2021_01_workspace_RZA2M_ANPR/ANPR_RZA2M_EBK/src/tensorflow_lite/third_party/gemmlowp/fixedpoint\fixedpoint.h **** #ifndef GEMMLOWP_INTERNAL_FIXEDPOINT_H_
  19:C:/Renesas/e2studio_2021_01_workspace_RZA2M_ANPR/ANPR_RZA2M_EBK/src/tensorflow_lite/third_party/gemmlowp/fixedpoint\fixedpoint.h **** #define GEMMLOWP_INTERNAL_FIXEDPOINT_H_
  20:C:/Renesas/e2studio_2021_01_workspace_RZA2M_ANPR/ANPR_RZA2M_EBK/src/tensorflow_lite/third_party/gemmlowp/fixedpoint\fixedpoint.h **** 
  21:C:/Renesas/e2studio_2021_01_workspace_RZA2M_ANPR/ANPR_RZA2M_EBK/src/tensorflow_lite/third_party/gemmlowp/fixedpoint\fixedpoint.h **** #include <algorithm>
  22:C:/Renesas/e2studio_2021_01_workspace_RZA2M_ANPR/ANPR_RZA2M_EBK/src/tensorflow_lite/third_party/gemmlowp/fixedpoint\fixedpoint.h **** #include <cassert>
  23:C:/Renesas/e2studio_2021_01_workspace_RZA2M_ANPR/ANPR_RZA2M_EBK/src/tensorflow_lite/third_party/gemmlowp/fixedpoint\fixedpoint.h **** #include <cmath>
  24:C:/Renesas/e2studio_2021_01_workspace_RZA2M_ANPR/ANPR_RZA2M_EBK/src/tensorflow_lite/third_party/gemmlowp/fixedpoint\fixedpoint.h **** #include <cstdint>
  25:C:/Renesas/e2studio_2021_01_workspace_RZA2M_ANPR/ANPR_RZA2M_EBK/src/tensorflow_lite/third_party/gemmlowp/fixedpoint\fixedpoint.h **** #include <limits>
  26:C:/Renesas/e2studio_2021_01_workspace_RZA2M_ANPR/ANPR_RZA2M_EBK/src/tensorflow_lite/third_party/gemmlowp/fixedpoint\fixedpoint.h **** 
  27:C:/Renesas/e2studio_2021_01_workspace_RZA2M_ANPR/ANPR_RZA2M_EBK/src/tensorflow_lite/third_party/gemmlowp/fixedpoint\fixedpoint.h **** #include "../internal/detect_platform.h"
  28:C:/Renesas/e2studio_2021_01_workspace_RZA2M_ANPR/ANPR_RZA2M_EBK/src/tensorflow_lite/third_party/gemmlowp/fixedpoint\fixedpoint.h **** 
  29:C:/Renesas/e2studio_2021_01_workspace_RZA2M_ANPR/ANPR_RZA2M_EBK/src/tensorflow_lite/third_party/gemmlowp/fixedpoint\fixedpoint.h **** namespace gemmlowp {
  30:C:/Renesas/e2studio_2021_01_workspace_RZA2M_ANPR/ANPR_RZA2M_EBK/src/tensorflow_lite/third_party/gemmlowp/fixedpoint\fixedpoint.h **** 
  31:C:/Renesas/e2studio_2021_01_workspace_RZA2M_ANPR/ANPR_RZA2M_EBK/src/tensorflow_lite/third_party/gemmlowp/fixedpoint\fixedpoint.h **** // Part 1: Low-level integer-arithmetic primitives.
  32:C:/Renesas/e2studio_2021_01_workspace_RZA2M_ANPR/ANPR_RZA2M_EBK/src/tensorflow_lite/third_party/gemmlowp/fixedpoint\fixedpoint.h **** // The implementations here are generic implementations valid for
  33:C:/Renesas/e2studio_2021_01_workspace_RZA2M_ANPR/ANPR_RZA2M_EBK/src/tensorflow_lite/third_party/gemmlowp/fixedpoint\fixedpoint.h **** // scalar types (e.g. std::int32_t). Architecture-specific SIMD types
  34:C:/Renesas/e2studio_2021_01_workspace_RZA2M_ANPR/ANPR_RZA2M_EBK/src/tensorflow_lite/third_party/gemmlowp/fixedpoint\fixedpoint.h **** // (e.g. NEON int32x4_t) may be supported by providing
  35:C:/Renesas/e2studio_2021_01_workspace_RZA2M_ANPR/ANPR_RZA2M_EBK/src/tensorflow_lite/third_party/gemmlowp/fixedpoint\fixedpoint.h **** // specializations for them in separate files.
  36:C:/Renesas/e2studio_2021_01_workspace_RZA2M_ANPR/ANPR_RZA2M_EBK/src/tensorflow_lite/third_party/gemmlowp/fixedpoint\fixedpoint.h **** //
  37:C:/Renesas/e2studio_2021_01_workspace_RZA2M_ANPR/ANPR_RZA2M_EBK/src/tensorflow_lite/third_party/gemmlowp/fixedpoint\fixedpoint.h **** // The purpose of these primitives is two-fold:
  38:C:/Renesas/e2studio_2021_01_workspace_RZA2M_ANPR/ANPR_RZA2M_EBK/src/tensorflow_lite/third_party/gemmlowp/fixedpoint\fixedpoint.h **** //  - They will be used to implement higher-level fixed-point
  39:C:/Renesas/e2studio_2021_01_workspace_RZA2M_ANPR/ANPR_RZA2M_EBK/src/tensorflow_lite/third_party/gemmlowp/fixedpoint\fixedpoint.h **** //    abstractions, namely the FixedPoint class and its arithmetic
  40:C:/Renesas/e2studio_2021_01_workspace_RZA2M_ANPR/ANPR_RZA2M_EBK/src/tensorflow_lite/third_party/gemmlowp/fixedpoint\fixedpoint.h **** //    operators.
  41:C:/Renesas/e2studio_2021_01_workspace_RZA2M_ANPR/ANPR_RZA2M_EBK/src/tensorflow_lite/third_party/gemmlowp/fixedpoint\fixedpoint.h **** //  - They will be directly used to implement some more involved
  42:C:/Renesas/e2studio_2021_01_workspace_RZA2M_ANPR/ANPR_RZA2M_EBK/src/tensorflow_lite/third_party/gemmlowp/fixedpoint\fixedpoint.h **** //    fixed-point computations, e.g. the fixed-point implementation
  43:C:/Renesas/e2studio_2021_01_workspace_RZA2M_ANPR/ANPR_RZA2M_EBK/src/tensorflow_lite/third_party/gemmlowp/fixedpoint\fixedpoint.h **** //    of math functions such as tanh.
  44:C:/Renesas/e2studio_2021_01_workspace_RZA2M_ANPR/ANPR_RZA2M_EBK/src/tensorflow_lite/third_party/gemmlowp/fixedpoint\fixedpoint.h **** 
  45:C:/Renesas/e2studio_2021_01_workspace_RZA2M_ANPR/ANPR_RZA2M_EBK/src/tensorflow_lite/third_party/gemmlowp/fixedpoint\fixedpoint.h **** // Some compile-time traits around raw types to handle SIMD aspects:
  46:C:/Renesas/e2studio_2021_01_workspace_RZA2M_ANPR/ANPR_RZA2M_EBK/src/tensorflow_lite/third_party/gemmlowp/fixedpoint\fixedpoint.h **** // number of lanes, underlying scalar type.
  47:C:/Renesas/e2studio_2021_01_workspace_RZA2M_ANPR/ANPR_RZA2M_EBK/src/tensorflow_lite/third_party/gemmlowp/fixedpoint\fixedpoint.h **** template <typename tIntegerType>
  48:C:/Renesas/e2studio_2021_01_workspace_RZA2M_ANPR/ANPR_RZA2M_EBK/src/tensorflow_lite/third_party/gemmlowp/fixedpoint\fixedpoint.h **** struct FixedPointRawTypeTraits {};
  49:C:/Renesas/e2studio_2021_01_workspace_RZA2M_ANPR/ANPR_RZA2M_EBK/src/tensorflow_lite/third_party/gemmlowp/fixedpoint\fixedpoint.h **** 
  50:C:/Renesas/e2studio_2021_01_workspace_RZA2M_ANPR/ANPR_RZA2M_EBK/src/tensorflow_lite/third_party/gemmlowp/fixedpoint\fixedpoint.h **** template <>
  51:C:/Renesas/e2studio_2021_01_workspace_RZA2M_ANPR/ANPR_RZA2M_EBK/src/tensorflow_lite/third_party/gemmlowp/fixedpoint\fixedpoint.h **** struct FixedPointRawTypeTraits<std::int32_t> {
  52:C:/Renesas/e2studio_2021_01_workspace_RZA2M_ANPR/ANPR_RZA2M_EBK/src/tensorflow_lite/third_party/gemmlowp/fixedpoint\fixedpoint.h ****   typedef std::int32_t ScalarRawType;
  53:C:/Renesas/e2studio_2021_01_workspace_RZA2M_ANPR/ANPR_RZA2M_EBK/src/tensorflow_lite/third_party/gemmlowp/fixedpoint\fixedpoint.h ****   static constexpr int kLanes = 1;
  54:C:/Renesas/e2studio_2021_01_workspace_RZA2M_ANPR/ANPR_RZA2M_EBK/src/tensorflow_lite/third_party/gemmlowp/fixedpoint\fixedpoint.h **** };
  55:C:/Renesas/e2studio_2021_01_workspace_RZA2M_ANPR/ANPR_RZA2M_EBK/src/tensorflow_lite/third_party/gemmlowp/fixedpoint\fixedpoint.h **** 
  56:C:/Renesas/e2studio_2021_01_workspace_RZA2M_ANPR/ANPR_RZA2M_EBK/src/tensorflow_lite/third_party/gemmlowp/fixedpoint\fixedpoint.h **** template <>
  57:C:/Renesas/e2studio_2021_01_workspace_RZA2M_ANPR/ANPR_RZA2M_EBK/src/tensorflow_lite/third_party/gemmlowp/fixedpoint\fixedpoint.h **** struct FixedPointRawTypeTraits<std::int16_t> {
  58:C:/Renesas/e2studio_2021_01_workspace_RZA2M_ANPR/ANPR_RZA2M_EBK/src/tensorflow_lite/third_party/gemmlowp/fixedpoint\fixedpoint.h ****   typedef std::int16_t ScalarRawType;
  59:C:/Renesas/e2studio_2021_01_workspace_RZA2M_ANPR/ANPR_RZA2M_EBK/src/tensorflow_lite/third_party/gemmlowp/fixedpoint\fixedpoint.h ****   static constexpr int kLanes = 1;
  60:C:/Renesas/e2studio_2021_01_workspace_RZA2M_ANPR/ANPR_RZA2M_EBK/src/tensorflow_lite/third_party/gemmlowp/fixedpoint\fixedpoint.h **** };
  61:C:/Renesas/e2studio_2021_01_workspace_RZA2M_ANPR/ANPR_RZA2M_EBK/src/tensorflow_lite/third_party/gemmlowp/fixedpoint\fixedpoint.h **** 
  62:C:/Renesas/e2studio_2021_01_workspace_RZA2M_ANPR/ANPR_RZA2M_EBK/src/tensorflow_lite/third_party/gemmlowp/fixedpoint\fixedpoint.h **** // Returns a SIMD value duplicating a scalar value across all lanes.
  63:C:/Renesas/e2studio_2021_01_workspace_RZA2M_ANPR/ANPR_RZA2M_EBK/src/tensorflow_lite/third_party/gemmlowp/fixedpoint\fixedpoint.h **** template <typename tRawType>
  64:C:/Renesas/e2studio_2021_01_workspace_RZA2M_ANPR/ANPR_RZA2M_EBK/src/tensorflow_lite/third_party/gemmlowp/fixedpoint\fixedpoint.h **** tRawType Dup(typename FixedPointRawTypeTraits<tRawType>::ScalarRawType x) {
  65:C:/Renesas/e2studio_2021_01_workspace_RZA2M_ANPR/ANPR_RZA2M_EBK/src/tensorflow_lite/third_party/gemmlowp/fixedpoint\fixedpoint.h ****   return x;
  66:C:/Renesas/e2studio_2021_01_workspace_RZA2M_ANPR/ANPR_RZA2M_EBK/src/tensorflow_lite/third_party/gemmlowp/fixedpoint\fixedpoint.h **** }
  67:C:/Renesas/e2studio_2021_01_workspace_RZA2M_ANPR/ANPR_RZA2M_EBK/src/tensorflow_lite/third_party/gemmlowp/fixedpoint\fixedpoint.h **** 
  68:C:/Renesas/e2studio_2021_01_workspace_RZA2M_ANPR/ANPR_RZA2M_EBK/src/tensorflow_lite/third_party/gemmlowp/fixedpoint\fixedpoint.h **** // Plain bit-wise AND
  69:C:/Renesas/e2studio_2021_01_workspace_RZA2M_ANPR/ANPR_RZA2M_EBK/src/tensorflow_lite/third_party/gemmlowp/fixedpoint\fixedpoint.h **** template <typename tIntegerType>
  70:C:/Renesas/e2studio_2021_01_workspace_RZA2M_ANPR/ANPR_RZA2M_EBK/src/tensorflow_lite/third_party/gemmlowp/fixedpoint\fixedpoint.h **** tIntegerType BitAnd(tIntegerType a, tIntegerType b) {
  71:C:/Renesas/e2studio_2021_01_workspace_RZA2M_ANPR/ANPR_RZA2M_EBK/src/tensorflow_lite/third_party/gemmlowp/fixedpoint\fixedpoint.h ****   return a & b;
  72:C:/Renesas/e2studio_2021_01_workspace_RZA2M_ANPR/ANPR_RZA2M_EBK/src/tensorflow_lite/third_party/gemmlowp/fixedpoint\fixedpoint.h **** }
  73:C:/Renesas/e2studio_2021_01_workspace_RZA2M_ANPR/ANPR_RZA2M_EBK/src/tensorflow_lite/third_party/gemmlowp/fixedpoint\fixedpoint.h **** 
  74:C:/Renesas/e2studio_2021_01_workspace_RZA2M_ANPR/ANPR_RZA2M_EBK/src/tensorflow_lite/third_party/gemmlowp/fixedpoint\fixedpoint.h **** // Plain bit-wise OR
  75:C:/Renesas/e2studio_2021_01_workspace_RZA2M_ANPR/ANPR_RZA2M_EBK/src/tensorflow_lite/third_party/gemmlowp/fixedpoint\fixedpoint.h **** template <typename tIntegerType>
  76:C:/Renesas/e2studio_2021_01_workspace_RZA2M_ANPR/ANPR_RZA2M_EBK/src/tensorflow_lite/third_party/gemmlowp/fixedpoint\fixedpoint.h **** tIntegerType BitOr(tIntegerType a, tIntegerType b) {
  77:C:/Renesas/e2studio_2021_01_workspace_RZA2M_ANPR/ANPR_RZA2M_EBK/src/tensorflow_lite/third_party/gemmlowp/fixedpoint\fixedpoint.h ****   return a | b;
  78:C:/Renesas/e2studio_2021_01_workspace_RZA2M_ANPR/ANPR_RZA2M_EBK/src/tensorflow_lite/third_party/gemmlowp/fixedpoint\fixedpoint.h **** }
  79:C:/Renesas/e2studio_2021_01_workspace_RZA2M_ANPR/ANPR_RZA2M_EBK/src/tensorflow_lite/third_party/gemmlowp/fixedpoint\fixedpoint.h **** 
  80:C:/Renesas/e2studio_2021_01_workspace_RZA2M_ANPR/ANPR_RZA2M_EBK/src/tensorflow_lite/third_party/gemmlowp/fixedpoint\fixedpoint.h **** // Plain bit-wise XOR
  81:C:/Renesas/e2studio_2021_01_workspace_RZA2M_ANPR/ANPR_RZA2M_EBK/src/tensorflow_lite/third_party/gemmlowp/fixedpoint\fixedpoint.h **** template <typename tIntegerType>
  82:C:/Renesas/e2studio_2021_01_workspace_RZA2M_ANPR/ANPR_RZA2M_EBK/src/tensorflow_lite/third_party/gemmlowp/fixedpoint\fixedpoint.h **** tIntegerType BitXor(tIntegerType a, tIntegerType b) {
  83:C:/Renesas/e2studio_2021_01_workspace_RZA2M_ANPR/ANPR_RZA2M_EBK/src/tensorflow_lite/third_party/gemmlowp/fixedpoint\fixedpoint.h ****   return a ^ b;
  84:C:/Renesas/e2studio_2021_01_workspace_RZA2M_ANPR/ANPR_RZA2M_EBK/src/tensorflow_lite/third_party/gemmlowp/fixedpoint\fixedpoint.h **** }
  85:C:/Renesas/e2studio_2021_01_workspace_RZA2M_ANPR/ANPR_RZA2M_EBK/src/tensorflow_lite/third_party/gemmlowp/fixedpoint\fixedpoint.h **** 
  86:C:/Renesas/e2studio_2021_01_workspace_RZA2M_ANPR/ANPR_RZA2M_EBK/src/tensorflow_lite/third_party/gemmlowp/fixedpoint\fixedpoint.h **** // Plain bit-wise NOT
  87:C:/Renesas/e2studio_2021_01_workspace_RZA2M_ANPR/ANPR_RZA2M_EBK/src/tensorflow_lite/third_party/gemmlowp/fixedpoint\fixedpoint.h **** template <typename tIntegerType>
  88:C:/Renesas/e2studio_2021_01_workspace_RZA2M_ANPR/ANPR_RZA2M_EBK/src/tensorflow_lite/third_party/gemmlowp/fixedpoint\fixedpoint.h **** tIntegerType BitNot(tIntegerType a) {
  89:C:/Renesas/e2studio_2021_01_workspace_RZA2M_ANPR/ANPR_RZA2M_EBK/src/tensorflow_lite/third_party/gemmlowp/fixedpoint\fixedpoint.h ****   return ~a;
  90:C:/Renesas/e2studio_2021_01_workspace_RZA2M_ANPR/ANPR_RZA2M_EBK/src/tensorflow_lite/third_party/gemmlowp/fixedpoint\fixedpoint.h **** }
  91:C:/Renesas/e2studio_2021_01_workspace_RZA2M_ANPR/ANPR_RZA2M_EBK/src/tensorflow_lite/third_party/gemmlowp/fixedpoint\fixedpoint.h **** 
  92:C:/Renesas/e2studio_2021_01_workspace_RZA2M_ANPR/ANPR_RZA2M_EBK/src/tensorflow_lite/third_party/gemmlowp/fixedpoint\fixedpoint.h **** // Integer addition. Not saturating. Overflow is undefined behavior.
  93:C:/Renesas/e2studio_2021_01_workspace_RZA2M_ANPR/ANPR_RZA2M_EBK/src/tensorflow_lite/third_party/gemmlowp/fixedpoint\fixedpoint.h **** template <typename tIntegerType>
  94:C:/Renesas/e2studio_2021_01_workspace_RZA2M_ANPR/ANPR_RZA2M_EBK/src/tensorflow_lite/third_party/gemmlowp/fixedpoint\fixedpoint.h **** tIntegerType Add(tIntegerType a, tIntegerType b) {
  95:C:/Renesas/e2studio_2021_01_workspace_RZA2M_ANPR/ANPR_RZA2M_EBK/src/tensorflow_lite/third_party/gemmlowp/fixedpoint\fixedpoint.h ****   return a + b;
  96:C:/Renesas/e2studio_2021_01_workspace_RZA2M_ANPR/ANPR_RZA2M_EBK/src/tensorflow_lite/third_party/gemmlowp/fixedpoint\fixedpoint.h **** }
  97:C:/Renesas/e2studio_2021_01_workspace_RZA2M_ANPR/ANPR_RZA2M_EBK/src/tensorflow_lite/third_party/gemmlowp/fixedpoint\fixedpoint.h **** 
  98:C:/Renesas/e2studio_2021_01_workspace_RZA2M_ANPR/ANPR_RZA2M_EBK/src/tensorflow_lite/third_party/gemmlowp/fixedpoint\fixedpoint.h **** // Integer subtraction. Not saturating. Overflow is undefined behavior.
  99:C:/Renesas/e2studio_2021_01_workspace_RZA2M_ANPR/ANPR_RZA2M_EBK/src/tensorflow_lite/third_party/gemmlowp/fixedpoint\fixedpoint.h **** template <typename tIntegerType>
 100:C:/Renesas/e2studio_2021_01_workspace_RZA2M_ANPR/ANPR_RZA2M_EBK/src/tensorflow_lite/third_party/gemmlowp/fixedpoint\fixedpoint.h **** tIntegerType Mul(tIntegerType a, tIntegerType b) {
 101:C:/Renesas/e2studio_2021_01_workspace_RZA2M_ANPR/ANPR_RZA2M_EBK/src/tensorflow_lite/third_party/gemmlowp/fixedpoint\fixedpoint.h ****   return a * b;
 102:C:/Renesas/e2studio_2021_01_workspace_RZA2M_ANPR/ANPR_RZA2M_EBK/src/tensorflow_lite/third_party/gemmlowp/fixedpoint\fixedpoint.h **** }
 103:C:/Renesas/e2studio_2021_01_workspace_RZA2M_ANPR/ANPR_RZA2M_EBK/src/tensorflow_lite/third_party/gemmlowp/fixedpoint\fixedpoint.h **** 
 104:C:/Renesas/e2studio_2021_01_workspace_RZA2M_ANPR/ANPR_RZA2M_EBK/src/tensorflow_lite/third_party/gemmlowp/fixedpoint\fixedpoint.h **** template <typename tIntegerType>
 105:C:/Renesas/e2studio_2021_01_workspace_RZA2M_ANPR/ANPR_RZA2M_EBK/src/tensorflow_lite/third_party/gemmlowp/fixedpoint\fixedpoint.h **** tIntegerType Sub(tIntegerType a, tIntegerType b) {
 106:C:/Renesas/e2studio_2021_01_workspace_RZA2M_ANPR/ANPR_RZA2M_EBK/src/tensorflow_lite/third_party/gemmlowp/fixedpoint\fixedpoint.h ****   return a - b;
 107:C:/Renesas/e2studio_2021_01_workspace_RZA2M_ANPR/ANPR_RZA2M_EBK/src/tensorflow_lite/third_party/gemmlowp/fixedpoint\fixedpoint.h **** }
 108:C:/Renesas/e2studio_2021_01_workspace_RZA2M_ANPR/ANPR_RZA2M_EBK/src/tensorflow_lite/third_party/gemmlowp/fixedpoint\fixedpoint.h **** 
 109:C:/Renesas/e2studio_2021_01_workspace_RZA2M_ANPR/ANPR_RZA2M_EBK/src/tensorflow_lite/third_party/gemmlowp/fixedpoint\fixedpoint.h **** // Integer unary negative. Not saturating. Overflow is undefined behavior.
 110:C:/Renesas/e2studio_2021_01_workspace_RZA2M_ANPR/ANPR_RZA2M_EBK/src/tensorflow_lite/third_party/gemmlowp/fixedpoint\fixedpoint.h **** template <typename tIntegerType>
 111:C:/Renesas/e2studio_2021_01_workspace_RZA2M_ANPR/ANPR_RZA2M_EBK/src/tensorflow_lite/third_party/gemmlowp/fixedpoint\fixedpoint.h **** tIntegerType Neg(tIntegerType a) {
 112:C:/Renesas/e2studio_2021_01_workspace_RZA2M_ANPR/ANPR_RZA2M_EBK/src/tensorflow_lite/third_party/gemmlowp/fixedpoint\fixedpoint.h ****   return -a;
 113:C:/Renesas/e2studio_2021_01_workspace_RZA2M_ANPR/ANPR_RZA2M_EBK/src/tensorflow_lite/third_party/gemmlowp/fixedpoint\fixedpoint.h **** }
 114:C:/Renesas/e2studio_2021_01_workspace_RZA2M_ANPR/ANPR_RZA2M_EBK/src/tensorflow_lite/third_party/gemmlowp/fixedpoint\fixedpoint.h **** 
 115:C:/Renesas/e2studio_2021_01_workspace_RZA2M_ANPR/ANPR_RZA2M_EBK/src/tensorflow_lite/third_party/gemmlowp/fixedpoint\fixedpoint.h **** // Integer arithmetic left-shift, equivalent to multiplying with a power of two.
 116:C:/Renesas/e2studio_2021_01_workspace_RZA2M_ANPR/ANPR_RZA2M_EBK/src/tensorflow_lite/third_party/gemmlowp/fixedpoint\fixedpoint.h **** // Negative values are OK. In case of overflow, no Undefined
 117:C:/Renesas/e2studio_2021_01_workspace_RZA2M_ANPR/ANPR_RZA2M_EBK/src/tensorflow_lite/third_party/gemmlowp/fixedpoint\fixedpoint.h **** // Behavior, but the results are implementation-defined (in practice,
 118:C:/Renesas/e2studio_2021_01_workspace_RZA2M_ANPR/ANPR_RZA2M_EBK/src/tensorflow_lite/third_party/gemmlowp/fixedpoint\fixedpoint.h **** // they currently are saturated, but we make no commitment to that). The idea
 119:C:/Renesas/e2studio_2021_01_workspace_RZA2M_ANPR/ANPR_RZA2M_EBK/src/tensorflow_lite/third_party/gemmlowp/fixedpoint\fixedpoint.h **** // is that the caller will want to implement the overflowing cases with
 120:C:/Renesas/e2studio_2021_01_workspace_RZA2M_ANPR/ANPR_RZA2M_EBK/src/tensorflow_lite/third_party/gemmlowp/fixedpoint\fixedpoint.h **** // saturation with compare-and-mask, so we don't care about the results
 121:C:/Renesas/e2studio_2021_01_workspace_RZA2M_ANPR/ANPR_RZA2M_EBK/src/tensorflow_lite/third_party/gemmlowp/fixedpoint\fixedpoint.h **** // in the overflow case, we just want to avoid undefined behavior.
 122:C:/Renesas/e2studio_2021_01_workspace_RZA2M_ANPR/ANPR_RZA2M_EBK/src/tensorflow_lite/third_party/gemmlowp/fixedpoint\fixedpoint.h **** //
 123:C:/Renesas/e2studio_2021_01_workspace_RZA2M_ANPR/ANPR_RZA2M_EBK/src/tensorflow_lite/third_party/gemmlowp/fixedpoint\fixedpoint.h **** // tIntegerType may be int32 or any narrower signed type.
 124:C:/Renesas/e2studio_2021_01_workspace_RZA2M_ANPR/ANPR_RZA2M_EBK/src/tensorflow_lite/third_party/gemmlowp/fixedpoint\fixedpoint.h **** template <typename tIntegerType>
 125:C:/Renesas/e2studio_2021_01_workspace_RZA2M_ANPR/ANPR_RZA2M_EBK/src/tensorflow_lite/third_party/gemmlowp/fixedpoint\fixedpoint.h **** tIntegerType ShiftLeft(tIntegerType a, int offset) {
 126:C:/Renesas/e2studio_2021_01_workspace_RZA2M_ANPR/ANPR_RZA2M_EBK/src/tensorflow_lite/third_party/gemmlowp/fixedpoint\fixedpoint.h ****   const std::int64_t wide_a = static_cast<std::int64_t>(a);
 127:C:/Renesas/e2studio_2021_01_workspace_RZA2M_ANPR/ANPR_RZA2M_EBK/src/tensorflow_lite/third_party/gemmlowp/fixedpoint\fixedpoint.h ****   const std::int64_t wide_shifted = wide_a * (1 << offset);
 128:C:/Renesas/e2studio_2021_01_workspace_RZA2M_ANPR/ANPR_RZA2M_EBK/src/tensorflow_lite/third_party/gemmlowp/fixedpoint\fixedpoint.h ****   const auto min = std::numeric_limits<tIntegerType>::min();
 129:C:/Renesas/e2studio_2021_01_workspace_RZA2M_ANPR/ANPR_RZA2M_EBK/src/tensorflow_lite/third_party/gemmlowp/fixedpoint\fixedpoint.h ****   const auto max = std::numeric_limits<tIntegerType>::max();
 130:C:/Renesas/e2studio_2021_01_workspace_RZA2M_ANPR/ANPR_RZA2M_EBK/src/tensorflow_lite/third_party/gemmlowp/fixedpoint\fixedpoint.h ****   return wide_shifted < min
 131:C:/Renesas/e2studio_2021_01_workspace_RZA2M_ANPR/ANPR_RZA2M_EBK/src/tensorflow_lite/third_party/gemmlowp/fixedpoint\fixedpoint.h ****              ? min
 132:C:/Renesas/e2studio_2021_01_workspace_RZA2M_ANPR/ANPR_RZA2M_EBK/src/tensorflow_lite/third_party/gemmlowp/fixedpoint\fixedpoint.h ****              : wide_shifted > max ? max
 133:C:/Renesas/e2studio_2021_01_workspace_RZA2M_ANPR/ANPR_RZA2M_EBK/src/tensorflow_lite/third_party/gemmlowp/fixedpoint\fixedpoint.h ****                                   : static_cast<tIntegerType>(wide_shifted);
 134:C:/Renesas/e2studio_2021_01_workspace_RZA2M_ANPR/ANPR_RZA2M_EBK/src/tensorflow_lite/third_party/gemmlowp/fixedpoint\fixedpoint.h **** }
 135:C:/Renesas/e2studio_2021_01_workspace_RZA2M_ANPR/ANPR_RZA2M_EBK/src/tensorflow_lite/third_party/gemmlowp/fixedpoint\fixedpoint.h **** 
 136:C:/Renesas/e2studio_2021_01_workspace_RZA2M_ANPR/ANPR_RZA2M_EBK/src/tensorflow_lite/third_party/gemmlowp/fixedpoint\fixedpoint.h **** // Integer arithmetic right-shift. Not rounding.
 137:C:/Renesas/e2studio_2021_01_workspace_RZA2M_ANPR/ANPR_RZA2M_EBK/src/tensorflow_lite/third_party/gemmlowp/fixedpoint\fixedpoint.h **** // Relying on implementation-defined, but in-practice-consistent,
 138:C:/Renesas/e2studio_2021_01_workspace_RZA2M_ANPR/ANPR_RZA2M_EBK/src/tensorflow_lite/third_party/gemmlowp/fixedpoint\fixedpoint.h **** // C++ compiler behavior.
 139:C:/Renesas/e2studio_2021_01_workspace_RZA2M_ANPR/ANPR_RZA2M_EBK/src/tensorflow_lite/third_party/gemmlowp/fixedpoint\fixedpoint.h **** template <typename tIntegerType>
 140:C:/Renesas/e2studio_2021_01_workspace_RZA2M_ANPR/ANPR_RZA2M_EBK/src/tensorflow_lite/third_party/gemmlowp/fixedpoint\fixedpoint.h **** tIntegerType ShiftRight(tIntegerType a, int offset) {
 141:C:/Renesas/e2studio_2021_01_workspace_RZA2M_ANPR/ANPR_RZA2M_EBK/src/tensorflow_lite/third_party/gemmlowp/fixedpoint\fixedpoint.h ****   return a >> offset;
 142:C:/Renesas/e2studio_2021_01_workspace_RZA2M_ANPR/ANPR_RZA2M_EBK/src/tensorflow_lite/third_party/gemmlowp/fixedpoint\fixedpoint.h **** }
 143:C:/Renesas/e2studio_2021_01_workspace_RZA2M_ANPR/ANPR_RZA2M_EBK/src/tensorflow_lite/third_party/gemmlowp/fixedpoint\fixedpoint.h **** 
 144:C:/Renesas/e2studio_2021_01_workspace_RZA2M_ANPR/ANPR_RZA2M_EBK/src/tensorflow_lite/third_party/gemmlowp/fixedpoint\fixedpoint.h **** // Each bit of the result is set to the corresponding bit of either then_val or
 145:C:/Renesas/e2studio_2021_01_workspace_RZA2M_ANPR/ANPR_RZA2M_EBK/src/tensorflow_lite/third_party/gemmlowp/fixedpoint\fixedpoint.h **** // else_val depending on whether the corresponding bit of if_mask is set.
 146:C:/Renesas/e2studio_2021_01_workspace_RZA2M_ANPR/ANPR_RZA2M_EBK/src/tensorflow_lite/third_party/gemmlowp/fixedpoint\fixedpoint.h **** // Equivalent to the VBSL instruction in ARM NEON.
 147:C:/Renesas/e2studio_2021_01_workspace_RZA2M_ANPR/ANPR_RZA2M_EBK/src/tensorflow_lite/third_party/gemmlowp/fixedpoint\fixedpoint.h **** template <typename tIntegerType>
 148:C:/Renesas/e2studio_2021_01_workspace_RZA2M_ANPR/ANPR_RZA2M_EBK/src/tensorflow_lite/third_party/gemmlowp/fixedpoint\fixedpoint.h **** tIntegerType SelectUsingMask(tIntegerType if_mask, tIntegerType then_val,
 149:C:/Renesas/e2studio_2021_01_workspace_RZA2M_ANPR/ANPR_RZA2M_EBK/src/tensorflow_lite/third_party/gemmlowp/fixedpoint\fixedpoint.h ****                              tIntegerType else_val) {
 150:C:/Renesas/e2studio_2021_01_workspace_RZA2M_ANPR/ANPR_RZA2M_EBK/src/tensorflow_lite/third_party/gemmlowp/fixedpoint\fixedpoint.h ****   return BitXor(BitAnd(if_mask, then_val), BitAnd(BitNot(if_mask), else_val));
 151:C:/Renesas/e2studio_2021_01_workspace_RZA2M_ANPR/ANPR_RZA2M_EBK/src/tensorflow_lite/third_party/gemmlowp/fixedpoint\fixedpoint.h **** }
 152:C:/Renesas/e2studio_2021_01_workspace_RZA2M_ANPR/ANPR_RZA2M_EBK/src/tensorflow_lite/third_party/gemmlowp/fixedpoint\fixedpoint.h **** 
 153:C:/Renesas/e2studio_2021_01_workspace_RZA2M_ANPR/ANPR_RZA2M_EBK/src/tensorflow_lite/third_party/gemmlowp/fixedpoint\fixedpoint.h **** // For each input scalar, the corresponding bits of the result are set if the
 154:C:/Renesas/e2studio_2021_01_workspace_RZA2M_ANPR/ANPR_RZA2M_EBK/src/tensorflow_lite/third_party/gemmlowp/fixedpoint\fixedpoint.h **** // input scalar is non-zero.
 155:C:/Renesas/e2studio_2021_01_workspace_RZA2M_ANPR/ANPR_RZA2M_EBK/src/tensorflow_lite/third_party/gemmlowp/fixedpoint\fixedpoint.h **** template <typename tIntegerType>
 156:C:/Renesas/e2studio_2021_01_workspace_RZA2M_ANPR/ANPR_RZA2M_EBK/src/tensorflow_lite/third_party/gemmlowp/fixedpoint\fixedpoint.h **** tIntegerType MaskIfNonZero(tIntegerType a) {
 157:C:/Renesas/e2studio_2021_01_workspace_RZA2M_ANPR/ANPR_RZA2M_EBK/src/tensorflow_lite/third_party/gemmlowp/fixedpoint\fixedpoint.h ****   static constexpr tIntegerType zero = 0;
 158:C:/Renesas/e2studio_2021_01_workspace_RZA2M_ANPR/ANPR_RZA2M_EBK/src/tensorflow_lite/third_party/gemmlowp/fixedpoint\fixedpoint.h ****   return a ? BitNot(zero) : zero;
 159:C:/Renesas/e2studio_2021_01_workspace_RZA2M_ANPR/ANPR_RZA2M_EBK/src/tensorflow_lite/third_party/gemmlowp/fixedpoint\fixedpoint.h **** }
 160:C:/Renesas/e2studio_2021_01_workspace_RZA2M_ANPR/ANPR_RZA2M_EBK/src/tensorflow_lite/third_party/gemmlowp/fixedpoint\fixedpoint.h **** 
 161:C:/Renesas/e2studio_2021_01_workspace_RZA2M_ANPR/ANPR_RZA2M_EBK/src/tensorflow_lite/third_party/gemmlowp/fixedpoint\fixedpoint.h **** // For each input scalar, the corresponding bits of the result are set if the
 162:C:/Renesas/e2studio_2021_01_workspace_RZA2M_ANPR/ANPR_RZA2M_EBK/src/tensorflow_lite/third_party/gemmlowp/fixedpoint\fixedpoint.h **** // input scalar is zero.
 163:C:/Renesas/e2studio_2021_01_workspace_RZA2M_ANPR/ANPR_RZA2M_EBK/src/tensorflow_lite/third_party/gemmlowp/fixedpoint\fixedpoint.h **** template <typename tIntegerType>
 164:C:/Renesas/e2studio_2021_01_workspace_RZA2M_ANPR/ANPR_RZA2M_EBK/src/tensorflow_lite/third_party/gemmlowp/fixedpoint\fixedpoint.h **** tIntegerType MaskIfZero(tIntegerType a) {
 165:C:/Renesas/e2studio_2021_01_workspace_RZA2M_ANPR/ANPR_RZA2M_EBK/src/tensorflow_lite/third_party/gemmlowp/fixedpoint\fixedpoint.h ****   return MaskIfNonZero<tIntegerType>(!a);
 166:C:/Renesas/e2studio_2021_01_workspace_RZA2M_ANPR/ANPR_RZA2M_EBK/src/tensorflow_lite/third_party/gemmlowp/fixedpoint\fixedpoint.h **** }
 167:C:/Renesas/e2studio_2021_01_workspace_RZA2M_ANPR/ANPR_RZA2M_EBK/src/tensorflow_lite/third_party/gemmlowp/fixedpoint\fixedpoint.h **** 
 168:C:/Renesas/e2studio_2021_01_workspace_RZA2M_ANPR/ANPR_RZA2M_EBK/src/tensorflow_lite/third_party/gemmlowp/fixedpoint\fixedpoint.h **** // For each pair of input scalars, the corresponding bits of the result are
 169:C:/Renesas/e2studio_2021_01_workspace_RZA2M_ANPR/ANPR_RZA2M_EBK/src/tensorflow_lite/third_party/gemmlowp/fixedpoint\fixedpoint.h **** // set if the input scalars are equal.
 170:C:/Renesas/e2studio_2021_01_workspace_RZA2M_ANPR/ANPR_RZA2M_EBK/src/tensorflow_lite/third_party/gemmlowp/fixedpoint\fixedpoint.h **** template <typename tIntegerType>
 171:C:/Renesas/e2studio_2021_01_workspace_RZA2M_ANPR/ANPR_RZA2M_EBK/src/tensorflow_lite/third_party/gemmlowp/fixedpoint\fixedpoint.h **** tIntegerType MaskIfEqual(tIntegerType a, tIntegerType b) {
 172:C:/Renesas/e2studio_2021_01_workspace_RZA2M_ANPR/ANPR_RZA2M_EBK/src/tensorflow_lite/third_party/gemmlowp/fixedpoint\fixedpoint.h ****   return MaskIfNonZero<tIntegerType>(a == b);
 173:C:/Renesas/e2studio_2021_01_workspace_RZA2M_ANPR/ANPR_RZA2M_EBK/src/tensorflow_lite/third_party/gemmlowp/fixedpoint\fixedpoint.h **** }
 174:C:/Renesas/e2studio_2021_01_workspace_RZA2M_ANPR/ANPR_RZA2M_EBK/src/tensorflow_lite/third_party/gemmlowp/fixedpoint\fixedpoint.h **** 
 175:C:/Renesas/e2studio_2021_01_workspace_RZA2M_ANPR/ANPR_RZA2M_EBK/src/tensorflow_lite/third_party/gemmlowp/fixedpoint\fixedpoint.h **** // For each pair of input scalars, the corresponding bits of the result are
 176:C:/Renesas/e2studio_2021_01_workspace_RZA2M_ANPR/ANPR_RZA2M_EBK/src/tensorflow_lite/third_party/gemmlowp/fixedpoint\fixedpoint.h **** // set if the input scalars are not equal.
 177:C:/Renesas/e2studio_2021_01_workspace_RZA2M_ANPR/ANPR_RZA2M_EBK/src/tensorflow_lite/third_party/gemmlowp/fixedpoint\fixedpoint.h **** template <typename tIntegerType>
 178:C:/Renesas/e2studio_2021_01_workspace_RZA2M_ANPR/ANPR_RZA2M_EBK/src/tensorflow_lite/third_party/gemmlowp/fixedpoint\fixedpoint.h **** tIntegerType MaskIfNotEqual(tIntegerType a, tIntegerType b) {
 179:C:/Renesas/e2studio_2021_01_workspace_RZA2M_ANPR/ANPR_RZA2M_EBK/src/tensorflow_lite/third_party/gemmlowp/fixedpoint\fixedpoint.h ****   return MaskIfNonZero<tIntegerType>(a != b);
 180:C:/Renesas/e2studio_2021_01_workspace_RZA2M_ANPR/ANPR_RZA2M_EBK/src/tensorflow_lite/third_party/gemmlowp/fixedpoint\fixedpoint.h **** }
 181:C:/Renesas/e2studio_2021_01_workspace_RZA2M_ANPR/ANPR_RZA2M_EBK/src/tensorflow_lite/third_party/gemmlowp/fixedpoint\fixedpoint.h **** 
 182:C:/Renesas/e2studio_2021_01_workspace_RZA2M_ANPR/ANPR_RZA2M_EBK/src/tensorflow_lite/third_party/gemmlowp/fixedpoint\fixedpoint.h **** // For each pair of input scalars, the corresponding bits of the result are
 183:C:/Renesas/e2studio_2021_01_workspace_RZA2M_ANPR/ANPR_RZA2M_EBK/src/tensorflow_lite/third_party/gemmlowp/fixedpoint\fixedpoint.h **** // set if the input scalars a, b satisfy a > b.
 184:C:/Renesas/e2studio_2021_01_workspace_RZA2M_ANPR/ANPR_RZA2M_EBK/src/tensorflow_lite/third_party/gemmlowp/fixedpoint\fixedpoint.h **** template <typename tIntegerType>
 185:C:/Renesas/e2studio_2021_01_workspace_RZA2M_ANPR/ANPR_RZA2M_EBK/src/tensorflow_lite/third_party/gemmlowp/fixedpoint\fixedpoint.h **** tIntegerType MaskIfGreaterThan(tIntegerType a, tIntegerType b) {
 186:C:/Renesas/e2studio_2021_01_workspace_RZA2M_ANPR/ANPR_RZA2M_EBK/src/tensorflow_lite/third_party/gemmlowp/fixedpoint\fixedpoint.h ****   return MaskIfNonZero<tIntegerType>(a > b);
 187:C:/Renesas/e2studio_2021_01_workspace_RZA2M_ANPR/ANPR_RZA2M_EBK/src/tensorflow_lite/third_party/gemmlowp/fixedpoint\fixedpoint.h **** }
 188:C:/Renesas/e2studio_2021_01_workspace_RZA2M_ANPR/ANPR_RZA2M_EBK/src/tensorflow_lite/third_party/gemmlowp/fixedpoint\fixedpoint.h **** 
 189:C:/Renesas/e2studio_2021_01_workspace_RZA2M_ANPR/ANPR_RZA2M_EBK/src/tensorflow_lite/third_party/gemmlowp/fixedpoint\fixedpoint.h **** // For each pair of input scalars, the corresponding bits of the result are
 190:C:/Renesas/e2studio_2021_01_workspace_RZA2M_ANPR/ANPR_RZA2M_EBK/src/tensorflow_lite/third_party/gemmlowp/fixedpoint\fixedpoint.h **** // set if the input scalars a, b satisfy a >= b.
 191:C:/Renesas/e2studio_2021_01_workspace_RZA2M_ANPR/ANPR_RZA2M_EBK/src/tensorflow_lite/third_party/gemmlowp/fixedpoint\fixedpoint.h **** template <typename tIntegerType>
 192:C:/Renesas/e2studio_2021_01_workspace_RZA2M_ANPR/ANPR_RZA2M_EBK/src/tensorflow_lite/third_party/gemmlowp/fixedpoint\fixedpoint.h **** tIntegerType MaskIfGreaterThanOrEqual(tIntegerType a, tIntegerType b) {
 193:C:/Renesas/e2studio_2021_01_workspace_RZA2M_ANPR/ANPR_RZA2M_EBK/src/tensorflow_lite/third_party/gemmlowp/fixedpoint\fixedpoint.h ****   return MaskIfNonZero<tIntegerType>(a >= b);
 194:C:/Renesas/e2studio_2021_01_workspace_RZA2M_ANPR/ANPR_RZA2M_EBK/src/tensorflow_lite/third_party/gemmlowp/fixedpoint\fixedpoint.h **** }
 195:C:/Renesas/e2studio_2021_01_workspace_RZA2M_ANPR/ANPR_RZA2M_EBK/src/tensorflow_lite/third_party/gemmlowp/fixedpoint\fixedpoint.h **** 
 196:C:/Renesas/e2studio_2021_01_workspace_RZA2M_ANPR/ANPR_RZA2M_EBK/src/tensorflow_lite/third_party/gemmlowp/fixedpoint\fixedpoint.h **** // For each pair of input scalars, the corresponding bits of the result are
 197:C:/Renesas/e2studio_2021_01_workspace_RZA2M_ANPR/ANPR_RZA2M_EBK/src/tensorflow_lite/third_party/gemmlowp/fixedpoint\fixedpoint.h **** // set if the input scalars a, b satisfy a < b.
 198:C:/Renesas/e2studio_2021_01_workspace_RZA2M_ANPR/ANPR_RZA2M_EBK/src/tensorflow_lite/third_party/gemmlowp/fixedpoint\fixedpoint.h **** template <typename tIntegerType>
 199:C:/Renesas/e2studio_2021_01_workspace_RZA2M_ANPR/ANPR_RZA2M_EBK/src/tensorflow_lite/third_party/gemmlowp/fixedpoint\fixedpoint.h **** tIntegerType MaskIfLessThan(tIntegerType a, tIntegerType b) {
 200:C:/Renesas/e2studio_2021_01_workspace_RZA2M_ANPR/ANPR_RZA2M_EBK/src/tensorflow_lite/third_party/gemmlowp/fixedpoint\fixedpoint.h ****   return MaskIfNonZero<tIntegerType>(a < b);
 201:C:/Renesas/e2studio_2021_01_workspace_RZA2M_ANPR/ANPR_RZA2M_EBK/src/tensorflow_lite/third_party/gemmlowp/fixedpoint\fixedpoint.h **** }
 202:C:/Renesas/e2studio_2021_01_workspace_RZA2M_ANPR/ANPR_RZA2M_EBK/src/tensorflow_lite/third_party/gemmlowp/fixedpoint\fixedpoint.h **** 
 203:C:/Renesas/e2studio_2021_01_workspace_RZA2M_ANPR/ANPR_RZA2M_EBK/src/tensorflow_lite/third_party/gemmlowp/fixedpoint\fixedpoint.h **** // For each pair of input scalars, the corresponding bits of the result are
 204:C:/Renesas/e2studio_2021_01_workspace_RZA2M_ANPR/ANPR_RZA2M_EBK/src/tensorflow_lite/third_party/gemmlowp/fixedpoint\fixedpoint.h **** // set if the input scalars a, b satisfy a <= b.
 205:C:/Renesas/e2studio_2021_01_workspace_RZA2M_ANPR/ANPR_RZA2M_EBK/src/tensorflow_lite/third_party/gemmlowp/fixedpoint\fixedpoint.h **** template <typename tIntegerType>
 206:C:/Renesas/e2studio_2021_01_workspace_RZA2M_ANPR/ANPR_RZA2M_EBK/src/tensorflow_lite/third_party/gemmlowp/fixedpoint\fixedpoint.h **** tIntegerType MaskIfLessThanOrEqual(tIntegerType a, tIntegerType b) {
 207:C:/Renesas/e2studio_2021_01_workspace_RZA2M_ANPR/ANPR_RZA2M_EBK/src/tensorflow_lite/third_party/gemmlowp/fixedpoint\fixedpoint.h ****   return MaskIfNonZero<tIntegerType>(a <= b);
 208:C:/Renesas/e2studio_2021_01_workspace_RZA2M_ANPR/ANPR_RZA2M_EBK/src/tensorflow_lite/third_party/gemmlowp/fixedpoint\fixedpoint.h **** }
 209:C:/Renesas/e2studio_2021_01_workspace_RZA2M_ANPR/ANPR_RZA2M_EBK/src/tensorflow_lite/third_party/gemmlowp/fixedpoint\fixedpoint.h **** 
 210:C:/Renesas/e2studio_2021_01_workspace_RZA2M_ANPR/ANPR_RZA2M_EBK/src/tensorflow_lite/third_party/gemmlowp/fixedpoint\fixedpoint.h **** // Returns true if all of the input scalars are nonzero.
 211:C:/Renesas/e2studio_2021_01_workspace_RZA2M_ANPR/ANPR_RZA2M_EBK/src/tensorflow_lite/third_party/gemmlowp/fixedpoint\fixedpoint.h **** // This function may currently assume that each of the input scalars has either
 212:C:/Renesas/e2studio_2021_01_workspace_RZA2M_ANPR/ANPR_RZA2M_EBK/src/tensorflow_lite/third_party/gemmlowp/fixedpoint\fixedpoint.h **** // all or none of its bits set. Otherwise, its behavior is currently undefined.
 213:C:/Renesas/e2studio_2021_01_workspace_RZA2M_ANPR/ANPR_RZA2M_EBK/src/tensorflow_lite/third_party/gemmlowp/fixedpoint\fixedpoint.h **** template <typename tIntegerType>
 214:C:/Renesas/e2studio_2021_01_workspace_RZA2M_ANPR/ANPR_RZA2M_EBK/src/tensorflow_lite/third_party/gemmlowp/fixedpoint\fixedpoint.h **** bool All(tIntegerType a) {
 215:C:/Renesas/e2studio_2021_01_workspace_RZA2M_ANPR/ANPR_RZA2M_EBK/src/tensorflow_lite/third_party/gemmlowp/fixedpoint\fixedpoint.h ****   return a;
 216:C:/Renesas/e2studio_2021_01_workspace_RZA2M_ANPR/ANPR_RZA2M_EBK/src/tensorflow_lite/third_party/gemmlowp/fixedpoint\fixedpoint.h **** }
 217:C:/Renesas/e2studio_2021_01_workspace_RZA2M_ANPR/ANPR_RZA2M_EBK/src/tensorflow_lite/third_party/gemmlowp/fixedpoint\fixedpoint.h **** 
 218:C:/Renesas/e2studio_2021_01_workspace_RZA2M_ANPR/ANPR_RZA2M_EBK/src/tensorflow_lite/third_party/gemmlowp/fixedpoint\fixedpoint.h **** // Returns true if any of the input scalars are nonzero.
 219:C:/Renesas/e2studio_2021_01_workspace_RZA2M_ANPR/ANPR_RZA2M_EBK/src/tensorflow_lite/third_party/gemmlowp/fixedpoint\fixedpoint.h **** // This function may currently assume that each of the input scalars has either
 220:C:/Renesas/e2studio_2021_01_workspace_RZA2M_ANPR/ANPR_RZA2M_EBK/src/tensorflow_lite/third_party/gemmlowp/fixedpoint\fixedpoint.h **** // all or none of its bits set. Otherwise, its behavior is currently undefined.
 221:C:/Renesas/e2studio_2021_01_workspace_RZA2M_ANPR/ANPR_RZA2M_EBK/src/tensorflow_lite/third_party/gemmlowp/fixedpoint\fixedpoint.h **** template <typename tIntegerType>
 222:C:/Renesas/e2studio_2021_01_workspace_RZA2M_ANPR/ANPR_RZA2M_EBK/src/tensorflow_lite/third_party/gemmlowp/fixedpoint\fixedpoint.h **** bool Any(tIntegerType a) {
 223:C:/Renesas/e2studio_2021_01_workspace_RZA2M_ANPR/ANPR_RZA2M_EBK/src/tensorflow_lite/third_party/gemmlowp/fixedpoint\fixedpoint.h ****   return a;
 224:C:/Renesas/e2studio_2021_01_workspace_RZA2M_ANPR/ANPR_RZA2M_EBK/src/tensorflow_lite/third_party/gemmlowp/fixedpoint\fixedpoint.h **** }
 225:C:/Renesas/e2studio_2021_01_workspace_RZA2M_ANPR/ANPR_RZA2M_EBK/src/tensorflow_lite/third_party/gemmlowp/fixedpoint\fixedpoint.h **** 
 226:C:/Renesas/e2studio_2021_01_workspace_RZA2M_ANPR/ANPR_RZA2M_EBK/src/tensorflow_lite/third_party/gemmlowp/fixedpoint\fixedpoint.h **** // Returns (a+b)/2, rounded to the nearest integer.
 227:C:/Renesas/e2studio_2021_01_workspace_RZA2M_ANPR/ANPR_RZA2M_EBK/src/tensorflow_lite/third_party/gemmlowp/fixedpoint\fixedpoint.h **** // Equivalent to VRHADD in the ARM NEON instruction set.
 228:C:/Renesas/e2studio_2021_01_workspace_RZA2M_ANPR/ANPR_RZA2M_EBK/src/tensorflow_lite/third_party/gemmlowp/fixedpoint\fixedpoint.h **** template <typename IntegerType>
 229:C:/Renesas/e2studio_2021_01_workspace_RZA2M_ANPR/ANPR_RZA2M_EBK/src/tensorflow_lite/third_party/gemmlowp/fixedpoint\fixedpoint.h **** IntegerType RoundingHalfSum(IntegerType a, IntegerType b) {
 230:C:/Renesas/e2studio_2021_01_workspace_RZA2M_ANPR/ANPR_RZA2M_EBK/src/tensorflow_lite/third_party/gemmlowp/fixedpoint\fixedpoint.h ****   static_assert(std::is_same<IntegerType, void>::value, "unimplemented");
 231:C:/Renesas/e2studio_2021_01_workspace_RZA2M_ANPR/ANPR_RZA2M_EBK/src/tensorflow_lite/third_party/gemmlowp/fixedpoint\fixedpoint.h ****   (void)b;
 232:C:/Renesas/e2studio_2021_01_workspace_RZA2M_ANPR/ANPR_RZA2M_EBK/src/tensorflow_lite/third_party/gemmlowp/fixedpoint\fixedpoint.h ****   return a;
 233:C:/Renesas/e2studio_2021_01_workspace_RZA2M_ANPR/ANPR_RZA2M_EBK/src/tensorflow_lite/third_party/gemmlowp/fixedpoint\fixedpoint.h **** }
 234:C:/Renesas/e2studio_2021_01_workspace_RZA2M_ANPR/ANPR_RZA2M_EBK/src/tensorflow_lite/third_party/gemmlowp/fixedpoint\fixedpoint.h **** 
 235:C:/Renesas/e2studio_2021_01_workspace_RZA2M_ANPR/ANPR_RZA2M_EBK/src/tensorflow_lite/third_party/gemmlowp/fixedpoint\fixedpoint.h **** template <>
 236:C:/Renesas/e2studio_2021_01_workspace_RZA2M_ANPR/ANPR_RZA2M_EBK/src/tensorflow_lite/third_party/gemmlowp/fixedpoint\fixedpoint.h **** inline std::int32_t RoundingHalfSum(std::int32_t a, std::int32_t b) {
 237:C:/Renesas/e2studio_2021_01_workspace_RZA2M_ANPR/ANPR_RZA2M_EBK/src/tensorflow_lite/third_party/gemmlowp/fixedpoint\fixedpoint.h ****   std::int64_t a64 = a;
 238:C:/Renesas/e2studio_2021_01_workspace_RZA2M_ANPR/ANPR_RZA2M_EBK/src/tensorflow_lite/third_party/gemmlowp/fixedpoint\fixedpoint.h ****   std::int64_t b64 = b;
 239:C:/Renesas/e2studio_2021_01_workspace_RZA2M_ANPR/ANPR_RZA2M_EBK/src/tensorflow_lite/third_party/gemmlowp/fixedpoint\fixedpoint.h ****   std::int64_t sum = a64 + b64;
 240:C:/Renesas/e2studio_2021_01_workspace_RZA2M_ANPR/ANPR_RZA2M_EBK/src/tensorflow_lite/third_party/gemmlowp/fixedpoint\fixedpoint.h ****   std::int64_t sign = sum >= 0 ? 1 : -1;
 241:C:/Renesas/e2studio_2021_01_workspace_RZA2M_ANPR/ANPR_RZA2M_EBK/src/tensorflow_lite/third_party/gemmlowp/fixedpoint\fixedpoint.h ****   return static_cast<std::int32_t>((sum + sign) / 2);
 242:C:/Renesas/e2studio_2021_01_workspace_RZA2M_ANPR/ANPR_RZA2M_EBK/src/tensorflow_lite/third_party/gemmlowp/fixedpoint\fixedpoint.h **** }
 243:C:/Renesas/e2studio_2021_01_workspace_RZA2M_ANPR/ANPR_RZA2M_EBK/src/tensorflow_lite/third_party/gemmlowp/fixedpoint\fixedpoint.h **** 
 244:C:/Renesas/e2studio_2021_01_workspace_RZA2M_ANPR/ANPR_RZA2M_EBK/src/tensorflow_lite/third_party/gemmlowp/fixedpoint\fixedpoint.h **** template <>
 245:C:/Renesas/e2studio_2021_01_workspace_RZA2M_ANPR/ANPR_RZA2M_EBK/src/tensorflow_lite/third_party/gemmlowp/fixedpoint\fixedpoint.h **** inline std::int16_t RoundingHalfSum(std::int16_t a, std::int16_t b) {
 246:C:/Renesas/e2studio_2021_01_workspace_RZA2M_ANPR/ANPR_RZA2M_EBK/src/tensorflow_lite/third_party/gemmlowp/fixedpoint\fixedpoint.h ****   std::int32_t a32 = a;
 247:C:/Renesas/e2studio_2021_01_workspace_RZA2M_ANPR/ANPR_RZA2M_EBK/src/tensorflow_lite/third_party/gemmlowp/fixedpoint\fixedpoint.h ****   std::int32_t b32 = b;
 248:C:/Renesas/e2studio_2021_01_workspace_RZA2M_ANPR/ANPR_RZA2M_EBK/src/tensorflow_lite/third_party/gemmlowp/fixedpoint\fixedpoint.h ****   std::int32_t sum = a32 + b32;
 249:C:/Renesas/e2studio_2021_01_workspace_RZA2M_ANPR/ANPR_RZA2M_EBK/src/tensorflow_lite/third_party/gemmlowp/fixedpoint\fixedpoint.h ****   std::int32_t sign = sum >= 0 ? 1 : -1;
 250:C:/Renesas/e2studio_2021_01_workspace_RZA2M_ANPR/ANPR_RZA2M_EBK/src/tensorflow_lite/third_party/gemmlowp/fixedpoint\fixedpoint.h ****   return static_cast<std::int16_t>((sum + sign) / 2);
 251:C:/Renesas/e2studio_2021_01_workspace_RZA2M_ANPR/ANPR_RZA2M_EBK/src/tensorflow_lite/third_party/gemmlowp/fixedpoint\fixedpoint.h **** }
 252:C:/Renesas/e2studio_2021_01_workspace_RZA2M_ANPR/ANPR_RZA2M_EBK/src/tensorflow_lite/third_party/gemmlowp/fixedpoint\fixedpoint.h **** 
 253:C:/Renesas/e2studio_2021_01_workspace_RZA2M_ANPR/ANPR_RZA2M_EBK/src/tensorflow_lite/third_party/gemmlowp/fixedpoint\fixedpoint.h **** template <typename IntegerType>
 254:C:/Renesas/e2studio_2021_01_workspace_RZA2M_ANPR/ANPR_RZA2M_EBK/src/tensorflow_lite/third_party/gemmlowp/fixedpoint\fixedpoint.h **** IntegerType SaturatingAdd(IntegerType a, IntegerType b) {
 255:C:/Renesas/e2studio_2021_01_workspace_RZA2M_ANPR/ANPR_RZA2M_EBK/src/tensorflow_lite/third_party/gemmlowp/fixedpoint\fixedpoint.h ****   static_assert(std::is_same<IntegerType, void>::value, "unimplemented");
 256:C:/Renesas/e2studio_2021_01_workspace_RZA2M_ANPR/ANPR_RZA2M_EBK/src/tensorflow_lite/third_party/gemmlowp/fixedpoint\fixedpoint.h ****   (void)b;
 257:C:/Renesas/e2studio_2021_01_workspace_RZA2M_ANPR/ANPR_RZA2M_EBK/src/tensorflow_lite/third_party/gemmlowp/fixedpoint\fixedpoint.h ****   return a;
 258:C:/Renesas/e2studio_2021_01_workspace_RZA2M_ANPR/ANPR_RZA2M_EBK/src/tensorflow_lite/third_party/gemmlowp/fixedpoint\fixedpoint.h **** }
 259:C:/Renesas/e2studio_2021_01_workspace_RZA2M_ANPR/ANPR_RZA2M_EBK/src/tensorflow_lite/third_party/gemmlowp/fixedpoint\fixedpoint.h **** 
 260:C:/Renesas/e2studio_2021_01_workspace_RZA2M_ANPR/ANPR_RZA2M_EBK/src/tensorflow_lite/third_party/gemmlowp/fixedpoint\fixedpoint.h **** // So far this is only needed for int16.
 261:C:/Renesas/e2studio_2021_01_workspace_RZA2M_ANPR/ANPR_RZA2M_EBK/src/tensorflow_lite/third_party/gemmlowp/fixedpoint\fixedpoint.h **** template <>
 262:C:/Renesas/e2studio_2021_01_workspace_RZA2M_ANPR/ANPR_RZA2M_EBK/src/tensorflow_lite/third_party/gemmlowp/fixedpoint\fixedpoint.h **** inline std::int16_t SaturatingAdd(std::int16_t a, std::int16_t b) {
 263:C:/Renesas/e2studio_2021_01_workspace_RZA2M_ANPR/ANPR_RZA2M_EBK/src/tensorflow_lite/third_party/gemmlowp/fixedpoint\fixedpoint.h ****   std::int32_t a32 = a;
 264:C:/Renesas/e2studio_2021_01_workspace_RZA2M_ANPR/ANPR_RZA2M_EBK/src/tensorflow_lite/third_party/gemmlowp/fixedpoint\fixedpoint.h ****   std::int32_t b32 = b;
 265:C:/Renesas/e2studio_2021_01_workspace_RZA2M_ANPR/ANPR_RZA2M_EBK/src/tensorflow_lite/third_party/gemmlowp/fixedpoint\fixedpoint.h ****   std::int32_t sum = a32 + b32;
 266:C:/Renesas/e2studio_2021_01_workspace_RZA2M_ANPR/ANPR_RZA2M_EBK/src/tensorflow_lite/third_party/gemmlowp/fixedpoint\fixedpoint.h ****   return static_cast<std::int16_t>(
 267:C:/Renesas/e2studio_2021_01_workspace_RZA2M_ANPR/ANPR_RZA2M_EBK/src/tensorflow_lite/third_party/gemmlowp/fixedpoint\fixedpoint.h ****       std::min(static_cast<std::int32_t>(32767),
 268:C:/Renesas/e2studio_2021_01_workspace_RZA2M_ANPR/ANPR_RZA2M_EBK/src/tensorflow_lite/third_party/gemmlowp/fixedpoint\fixedpoint.h ****                std::max(static_cast<std::int32_t>(-32768), sum)));
 269:C:/Renesas/e2studio_2021_01_workspace_RZA2M_ANPR/ANPR_RZA2M_EBK/src/tensorflow_lite/third_party/gemmlowp/fixedpoint\fixedpoint.h **** }
 270:C:/Renesas/e2studio_2021_01_workspace_RZA2M_ANPR/ANPR_RZA2M_EBK/src/tensorflow_lite/third_party/gemmlowp/fixedpoint\fixedpoint.h **** 
 271:C:/Renesas/e2studio_2021_01_workspace_RZA2M_ANPR/ANPR_RZA2M_EBK/src/tensorflow_lite/third_party/gemmlowp/fixedpoint\fixedpoint.h **** // Returns a+b, saturating if the integers are 16bit or narrower,
 272:C:/Renesas/e2studio_2021_01_workspace_RZA2M_ANPR/ANPR_RZA2M_EBK/src/tensorflow_lite/third_party/gemmlowp/fixedpoint\fixedpoint.h **** // otherwise just a plain addition.
 273:C:/Renesas/e2studio_2021_01_workspace_RZA2M_ANPR/ANPR_RZA2M_EBK/src/tensorflow_lite/third_party/gemmlowp/fixedpoint\fixedpoint.h **** template <typename IntegerType, bool Is16Bit>
 274:C:/Renesas/e2studio_2021_01_workspace_RZA2M_ANPR/ANPR_RZA2M_EBK/src/tensorflow_lite/third_party/gemmlowp/fixedpoint\fixedpoint.h **** struct AddSaturatingIf16BitImpl {
 275:C:/Renesas/e2studio_2021_01_workspace_RZA2M_ANPR/ANPR_RZA2M_EBK/src/tensorflow_lite/third_party/gemmlowp/fixedpoint\fixedpoint.h ****   static IntegerType Run(IntegerType a, IntegerType b) { return Add(a, b); }
 276:C:/Renesas/e2studio_2021_01_workspace_RZA2M_ANPR/ANPR_RZA2M_EBK/src/tensorflow_lite/third_party/gemmlowp/fixedpoint\fixedpoint.h **** };
 277:C:/Renesas/e2studio_2021_01_workspace_RZA2M_ANPR/ANPR_RZA2M_EBK/src/tensorflow_lite/third_party/gemmlowp/fixedpoint\fixedpoint.h **** template <typename IntegerType>
 278:C:/Renesas/e2studio_2021_01_workspace_RZA2M_ANPR/ANPR_RZA2M_EBK/src/tensorflow_lite/third_party/gemmlowp/fixedpoint\fixedpoint.h **** struct AddSaturatingIf16BitImpl<IntegerType, true> {
 279:C:/Renesas/e2studio_2021_01_workspace_RZA2M_ANPR/ANPR_RZA2M_EBK/src/tensorflow_lite/third_party/gemmlowp/fixedpoint\fixedpoint.h ****   static IntegerType Run(IntegerType a, IntegerType b) {
 280:C:/Renesas/e2studio_2021_01_workspace_RZA2M_ANPR/ANPR_RZA2M_EBK/src/tensorflow_lite/third_party/gemmlowp/fixedpoint\fixedpoint.h ****     return SaturatingAdd(a, b);
 281:C:/Renesas/e2studio_2021_01_workspace_RZA2M_ANPR/ANPR_RZA2M_EBK/src/tensorflow_lite/third_party/gemmlowp/fixedpoint\fixedpoint.h ****   }
 282:C:/Renesas/e2studio_2021_01_workspace_RZA2M_ANPR/ANPR_RZA2M_EBK/src/tensorflow_lite/third_party/gemmlowp/fixedpoint\fixedpoint.h **** };
 283:C:/Renesas/e2studio_2021_01_workspace_RZA2M_ANPR/ANPR_RZA2M_EBK/src/tensorflow_lite/third_party/gemmlowp/fixedpoint\fixedpoint.h **** template <typename IntegerType>
 284:C:/Renesas/e2studio_2021_01_workspace_RZA2M_ANPR/ANPR_RZA2M_EBK/src/tensorflow_lite/third_party/gemmlowp/fixedpoint\fixedpoint.h **** IntegerType AddSaturatingIf16Bit(IntegerType a, IntegerType b) {
 285:C:/Renesas/e2studio_2021_01_workspace_RZA2M_ANPR/ANPR_RZA2M_EBK/src/tensorflow_lite/third_party/gemmlowp/fixedpoint\fixedpoint.h ****   using ScalarType =
 286:C:/Renesas/e2studio_2021_01_workspace_RZA2M_ANPR/ANPR_RZA2M_EBK/src/tensorflow_lite/third_party/gemmlowp/fixedpoint\fixedpoint.h ****       typename FixedPointRawTypeTraits<IntegerType>::ScalarRawType;
 287:C:/Renesas/e2studio_2021_01_workspace_RZA2M_ANPR/ANPR_RZA2M_EBK/src/tensorflow_lite/third_party/gemmlowp/fixedpoint\fixedpoint.h ****   return AddSaturatingIf16BitImpl<IntegerType, sizeof(ScalarType) == 2>::Run(a,
 288:C:/Renesas/e2studio_2021_01_workspace_RZA2M_ANPR/ANPR_RZA2M_EBK/src/tensorflow_lite/third_party/gemmlowp/fixedpoint\fixedpoint.h ****                                                                              b);
 289:C:/Renesas/e2studio_2021_01_workspace_RZA2M_ANPR/ANPR_RZA2M_EBK/src/tensorflow_lite/third_party/gemmlowp/fixedpoint\fixedpoint.h **** }
 290:C:/Renesas/e2studio_2021_01_workspace_RZA2M_ANPR/ANPR_RZA2M_EBK/src/tensorflow_lite/third_party/gemmlowp/fixedpoint\fixedpoint.h **** 
 291:C:/Renesas/e2studio_2021_01_workspace_RZA2M_ANPR/ANPR_RZA2M_EBK/src/tensorflow_lite/third_party/gemmlowp/fixedpoint\fixedpoint.h **** // Returns the integer that represents the product of two fixed-point
 292:C:/Renesas/e2studio_2021_01_workspace_RZA2M_ANPR/ANPR_RZA2M_EBK/src/tensorflow_lite/third_party/gemmlowp/fixedpoint\fixedpoint.h **** // numbers, interpreting all integers as fixed-point values in the
 293:C:/Renesas/e2studio_2021_01_workspace_RZA2M_ANPR/ANPR_RZA2M_EBK/src/tensorflow_lite/third_party/gemmlowp/fixedpoint\fixedpoint.h **** // interval [-1, 1), rounding to the nearest value, and saturating
 294:C:/Renesas/e2studio_2021_01_workspace_RZA2M_ANPR/ANPR_RZA2M_EBK/src/tensorflow_lite/third_party/gemmlowp/fixedpoint\fixedpoint.h **** // -1 * -1 to the maximum value (since 1 is not in the half-open
 295:C:/Renesas/e2studio_2021_01_workspace_RZA2M_ANPR/ANPR_RZA2M_EBK/src/tensorflow_lite/third_party/gemmlowp/fixedpoint\fixedpoint.h **** // interval [-1, 1)).
 296:C:/Renesas/e2studio_2021_01_workspace_RZA2M_ANPR/ANPR_RZA2M_EBK/src/tensorflow_lite/third_party/gemmlowp/fixedpoint\fixedpoint.h **** //
 297:C:/Renesas/e2studio_2021_01_workspace_RZA2M_ANPR/ANPR_RZA2M_EBK/src/tensorflow_lite/third_party/gemmlowp/fixedpoint\fixedpoint.h **** // [The explanation below specializes to std::int32_t for example purpose.]
 298:C:/Renesas/e2studio_2021_01_workspace_RZA2M_ANPR/ANPR_RZA2M_EBK/src/tensorflow_lite/third_party/gemmlowp/fixedpoint\fixedpoint.h **** //
 299:C:/Renesas/e2studio_2021_01_workspace_RZA2M_ANPR/ANPR_RZA2M_EBK/src/tensorflow_lite/third_party/gemmlowp/fixedpoint\fixedpoint.h **** // The mapping between IntegerType and the interval [-1, 1) is unique and
 300:C:/Renesas/e2studio_2021_01_workspace_RZA2M_ANPR/ANPR_RZA2M_EBK/src/tensorflow_lite/third_party/gemmlowp/fixedpoint\fixedpoint.h **** // implied by IntegerType, which is assumed to be signed. For example,
 301:C:/Renesas/e2studio_2021_01_workspace_RZA2M_ANPR/ANPR_RZA2M_EBK/src/tensorflow_lite/third_party/gemmlowp/fixedpoint\fixedpoint.h **** // for IntegerType==std::int32_t, the mapping is
 302:C:/Renesas/e2studio_2021_01_workspace_RZA2M_ANPR/ANPR_RZA2M_EBK/src/tensorflow_lite/third_party/gemmlowp/fixedpoint\fixedpoint.h **** //   real_value = integer_value / 2^31.
 303:C:/Renesas/e2studio_2021_01_workspace_RZA2M_ANPR/ANPR_RZA2M_EBK/src/tensorflow_lite/third_party/gemmlowp/fixedpoint\fixedpoint.h **** // So in this case, and leaving aside rounding and saturating, this
 304:C:/Renesas/e2studio_2021_01_workspace_RZA2M_ANPR/ANPR_RZA2M_EBK/src/tensorflow_lite/third_party/gemmlowp/fixedpoint\fixedpoint.h **** // function computes ((a / 2^31) * (b / 2^31)) * 2^31, which simplifies to
 305:C:/Renesas/e2studio_2021_01_workspace_RZA2M_ANPR/ANPR_RZA2M_EBK/src/tensorflow_lite/third_party/gemmlowp/fixedpoint\fixedpoint.h **** //   (a * b) / 2^31.
 306:C:/Renesas/e2studio_2021_01_workspace_RZA2M_ANPR/ANPR_RZA2M_EBK/src/tensorflow_lite/third_party/gemmlowp/fixedpoint\fixedpoint.h **** //
 307:C:/Renesas/e2studio_2021_01_workspace_RZA2M_ANPR/ANPR_RZA2M_EBK/src/tensorflow_lite/third_party/gemmlowp/fixedpoint\fixedpoint.h **** // The 'doubling' part in the name of this function comes from the fact that
 308:C:/Renesas/e2studio_2021_01_workspace_RZA2M_ANPR/ANPR_RZA2M_EBK/src/tensorflow_lite/third_party/gemmlowp/fixedpoint\fixedpoint.h **** // this operation is very close to a "multiply-high" operation, keeping only
 309:C:/Renesas/e2studio_2021_01_workspace_RZA2M_ANPR/ANPR_RZA2M_EBK/src/tensorflow_lite/third_party/gemmlowp/fixedpoint\fixedpoint.h **** // the top half bits, except that that would be effectively computing
 310:C:/Renesas/e2studio_2021_01_workspace_RZA2M_ANPR/ANPR_RZA2M_EBK/src/tensorflow_lite/third_party/gemmlowp/fixedpoint\fixedpoint.h **** //   (a * b) / 2^32,
 311:C:/Renesas/e2studio_2021_01_workspace_RZA2M_ANPR/ANPR_RZA2M_EBK/src/tensorflow_lite/third_party/gemmlowp/fixedpoint\fixedpoint.h **** // so here we are computing 2x that, since
 312:C:/Renesas/e2studio_2021_01_workspace_RZA2M_ANPR/ANPR_RZA2M_EBK/src/tensorflow_lite/third_party/gemmlowp/fixedpoint\fixedpoint.h **** //   1/2^31 = 2 * 1/2^32.
 313:C:/Renesas/e2studio_2021_01_workspace_RZA2M_ANPR/ANPR_RZA2M_EBK/src/tensorflow_lite/third_party/gemmlowp/fixedpoint\fixedpoint.h **** // The idea is to use all of the available 32 bits in the destination int32
 314:C:/Renesas/e2studio_2021_01_workspace_RZA2M_ANPR/ANPR_RZA2M_EBK/src/tensorflow_lite/third_party/gemmlowp/fixedpoint\fixedpoint.h **** // value.
 315:C:/Renesas/e2studio_2021_01_workspace_RZA2M_ANPR/ANPR_RZA2M_EBK/src/tensorflow_lite/third_party/gemmlowp/fixedpoint\fixedpoint.h **** //
 316:C:/Renesas/e2studio_2021_01_workspace_RZA2M_ANPR/ANPR_RZA2M_EBK/src/tensorflow_lite/third_party/gemmlowp/fixedpoint\fixedpoint.h **** // [End of the explanation specializing to int32.]
 317:C:/Renesas/e2studio_2021_01_workspace_RZA2M_ANPR/ANPR_RZA2M_EBK/src/tensorflow_lite/third_party/gemmlowp/fixedpoint\fixedpoint.h **** //
 318:C:/Renesas/e2studio_2021_01_workspace_RZA2M_ANPR/ANPR_RZA2M_EBK/src/tensorflow_lite/third_party/gemmlowp/fixedpoint\fixedpoint.h **** // This is equivalent to the VQRDMULH instruction in ARM NEON.
 319:C:/Renesas/e2studio_2021_01_workspace_RZA2M_ANPR/ANPR_RZA2M_EBK/src/tensorflow_lite/third_party/gemmlowp/fixedpoint\fixedpoint.h **** template <typename IntegerType>
 320:C:/Renesas/e2studio_2021_01_workspace_RZA2M_ANPR/ANPR_RZA2M_EBK/src/tensorflow_lite/third_party/gemmlowp/fixedpoint\fixedpoint.h **** IntegerType SaturatingRoundingDoublingHighMul(IntegerType a, IntegerType b) {
 321:C:/Renesas/e2studio_2021_01_workspace_RZA2M_ANPR/ANPR_RZA2M_EBK/src/tensorflow_lite/third_party/gemmlowp/fixedpoint\fixedpoint.h ****   static_assert(std::is_same<IntegerType, void>::value, "unimplemented");
 322:C:/Renesas/e2studio_2021_01_workspace_RZA2M_ANPR/ANPR_RZA2M_EBK/src/tensorflow_lite/third_party/gemmlowp/fixedpoint\fixedpoint.h ****   (void)b;
 323:C:/Renesas/e2studio_2021_01_workspace_RZA2M_ANPR/ANPR_RZA2M_EBK/src/tensorflow_lite/third_party/gemmlowp/fixedpoint\fixedpoint.h ****   return a;
 324:C:/Renesas/e2studio_2021_01_workspace_RZA2M_ANPR/ANPR_RZA2M_EBK/src/tensorflow_lite/third_party/gemmlowp/fixedpoint\fixedpoint.h **** }
 325:C:/Renesas/e2studio_2021_01_workspace_RZA2M_ANPR/ANPR_RZA2M_EBK/src/tensorflow_lite/third_party/gemmlowp/fixedpoint\fixedpoint.h **** 
 326:C:/Renesas/e2studio_2021_01_workspace_RZA2M_ANPR/ANPR_RZA2M_EBK/src/tensorflow_lite/third_party/gemmlowp/fixedpoint\fixedpoint.h **** // This function implements the same computation as the ARMv7 NEON VQRDMULH
 327:C:/Renesas/e2studio_2021_01_workspace_RZA2M_ANPR/ANPR_RZA2M_EBK/src/tensorflow_lite/third_party/gemmlowp/fixedpoint\fixedpoint.h **** // instruction.
 328:C:/Renesas/e2studio_2021_01_workspace_RZA2M_ANPR/ANPR_RZA2M_EBK/src/tensorflow_lite/third_party/gemmlowp/fixedpoint\fixedpoint.h **** template <>
 329:C:/Renesas/e2studio_2021_01_workspace_RZA2M_ANPR/ANPR_RZA2M_EBK/src/tensorflow_lite/third_party/gemmlowp/fixedpoint\fixedpoint.h **** inline std::int32_t SaturatingRoundingDoublingHighMul(std::int32_t a,
 330:C:/Renesas/e2studio_2021_01_workspace_RZA2M_ANPR/ANPR_RZA2M_EBK/src/tensorflow_lite/third_party/gemmlowp/fixedpoint\fixedpoint.h ****                                                       std::int32_t b) {
 331:C:/Renesas/e2studio_2021_01_workspace_RZA2M_ANPR/ANPR_RZA2M_EBK/src/tensorflow_lite/third_party/gemmlowp/fixedpoint\fixedpoint.h ****   bool overflow = a == b && a == std::numeric_limits<std::int32_t>::min();
 332:C:/Renesas/e2studio_2021_01_workspace_RZA2M_ANPR/ANPR_RZA2M_EBK/src/tensorflow_lite/third_party/gemmlowp/fixedpoint\fixedpoint.h ****   std::int64_t a_64(a);
 333:C:/Renesas/e2studio_2021_01_workspace_RZA2M_ANPR/ANPR_RZA2M_EBK/src/tensorflow_lite/third_party/gemmlowp/fixedpoint\fixedpoint.h ****   std::int64_t b_64(b);
 334:C:/Renesas/e2studio_2021_01_workspace_RZA2M_ANPR/ANPR_RZA2M_EBK/src/tensorflow_lite/third_party/gemmlowp/fixedpoint\fixedpoint.h ****   std::int64_t ab_64 = a_64 * b_64;
 335:C:/Renesas/e2studio_2021_01_workspace_RZA2M_ANPR/ANPR_RZA2M_EBK/src/tensorflow_lite/third_party/gemmlowp/fixedpoint\fixedpoint.h ****   std::int32_t nudge = ab_64 >= 0 ? (1 << 30) : (1 - (1 << 30));
 336:C:/Renesas/e2studio_2021_01_workspace_RZA2M_ANPR/ANPR_RZA2M_EBK/src/tensorflow_lite/third_party/gemmlowp/fixedpoint\fixedpoint.h ****   std::int32_t ab_x2_high32 =
 337:C:/Renesas/e2studio_2021_01_workspace_RZA2M_ANPR/ANPR_RZA2M_EBK/src/tensorflow_lite/third_party/gemmlowp/fixedpoint\fixedpoint.h ****       static_cast<std::int32_t>((ab_64 + nudge) / (1ll << 31));
 338:C:/Renesas/e2studio_2021_01_workspace_RZA2M_ANPR/ANPR_RZA2M_EBK/src/tensorflow_lite/third_party/gemmlowp/fixedpoint\fixedpoint.h ****   return overflow ? std::numeric_limits<std::int32_t>::max() : ab_x2_high32;
 339:C:/Renesas/e2studio_2021_01_workspace_RZA2M_ANPR/ANPR_RZA2M_EBK/src/tensorflow_lite/third_party/gemmlowp/fixedpoint\fixedpoint.h **** }
 340:C:/Renesas/e2studio_2021_01_workspace_RZA2M_ANPR/ANPR_RZA2M_EBK/src/tensorflow_lite/third_party/gemmlowp/fixedpoint\fixedpoint.h **** 
 341:C:/Renesas/e2studio_2021_01_workspace_RZA2M_ANPR/ANPR_RZA2M_EBK/src/tensorflow_lite/third_party/gemmlowp/fixedpoint\fixedpoint.h **** template <>
 342:C:/Renesas/e2studio_2021_01_workspace_RZA2M_ANPR/ANPR_RZA2M_EBK/src/tensorflow_lite/third_party/gemmlowp/fixedpoint\fixedpoint.h **** inline std::int16_t SaturatingRoundingDoublingHighMul(std::int16_t a,
 343:C:/Renesas/e2studio_2021_01_workspace_RZA2M_ANPR/ANPR_RZA2M_EBK/src/tensorflow_lite/third_party/gemmlowp/fixedpoint\fixedpoint.h ****                                                       std::int16_t b) {
 344:C:/Renesas/e2studio_2021_01_workspace_RZA2M_ANPR/ANPR_RZA2M_EBK/src/tensorflow_lite/third_party/gemmlowp/fixedpoint\fixedpoint.h ****   bool overflow = a == b && a == std::numeric_limits<std::int16_t>::min();
 345:C:/Renesas/e2studio_2021_01_workspace_RZA2M_ANPR/ANPR_RZA2M_EBK/src/tensorflow_lite/third_party/gemmlowp/fixedpoint\fixedpoint.h ****   std::int32_t a_32(a);
 346:C:/Renesas/e2studio_2021_01_workspace_RZA2M_ANPR/ANPR_RZA2M_EBK/src/tensorflow_lite/third_party/gemmlowp/fixedpoint\fixedpoint.h ****   std::int32_t b_32(b);
 347:C:/Renesas/e2studio_2021_01_workspace_RZA2M_ANPR/ANPR_RZA2M_EBK/src/tensorflow_lite/third_party/gemmlowp/fixedpoint\fixedpoint.h ****   std::int32_t ab_32 = a_32 * b_32;
 348:C:/Renesas/e2studio_2021_01_workspace_RZA2M_ANPR/ANPR_RZA2M_EBK/src/tensorflow_lite/third_party/gemmlowp/fixedpoint\fixedpoint.h ****   std::int16_t nudge = ab_32 >= 0 ? (1 << 14) : (1 - (1 << 14));
 349:C:/Renesas/e2studio_2021_01_workspace_RZA2M_ANPR/ANPR_RZA2M_EBK/src/tensorflow_lite/third_party/gemmlowp/fixedpoint\fixedpoint.h ****   std::int16_t ab_x2_high16 =
 350:C:/Renesas/e2studio_2021_01_workspace_RZA2M_ANPR/ANPR_RZA2M_EBK/src/tensorflow_lite/third_party/gemmlowp/fixedpoint\fixedpoint.h ****       static_cast<std::int16_t>((ab_32 + nudge) / (1 << 15));
 351:C:/Renesas/e2studio_2021_01_workspace_RZA2M_ANPR/ANPR_RZA2M_EBK/src/tensorflow_lite/third_party/gemmlowp/fixedpoint\fixedpoint.h ****   return overflow ? std::numeric_limits<std::int16_t>::max() : ab_x2_high16;
 352:C:/Renesas/e2studio_2021_01_workspace_RZA2M_ANPR/ANPR_RZA2M_EBK/src/tensorflow_lite/third_party/gemmlowp/fixedpoint\fixedpoint.h **** }
 353:C:/Renesas/e2studio_2021_01_workspace_RZA2M_ANPR/ANPR_RZA2M_EBK/src/tensorflow_lite/third_party/gemmlowp/fixedpoint\fixedpoint.h **** 
 354:C:/Renesas/e2studio_2021_01_workspace_RZA2M_ANPR/ANPR_RZA2M_EBK/src/tensorflow_lite/third_party/gemmlowp/fixedpoint\fixedpoint.h **** // Correctly-rounded-to-nearest division by a power-of-two.
 355:C:/Renesas/e2studio_2021_01_workspace_RZA2M_ANPR/ANPR_RZA2M_EBK/src/tensorflow_lite/third_party/gemmlowp/fixedpoint\fixedpoint.h **** // Also known as a rounding arithmetic right shift.
 356:C:/Renesas/e2studio_2021_01_workspace_RZA2M_ANPR/ANPR_RZA2M_EBK/src/tensorflow_lite/third_party/gemmlowp/fixedpoint\fixedpoint.h **** template <typename IntegerType>
 357:C:/Renesas/e2studio_2021_01_workspace_RZA2M_ANPR/ANPR_RZA2M_EBK/src/tensorflow_lite/third_party/gemmlowp/fixedpoint\fixedpoint.h **** inline IntegerType RoundingDivideByPOT(IntegerType x, int exponent) {
 358:C:/Renesas/e2studio_2021_01_workspace_RZA2M_ANPR/ANPR_RZA2M_EBK/src/tensorflow_lite/third_party/gemmlowp/fixedpoint\fixedpoint.h ****   assert(exponent >= 0);
 359:C:/Renesas/e2studio_2021_01_workspace_RZA2M_ANPR/ANPR_RZA2M_EBK/src/tensorflow_lite/third_party/gemmlowp/fixedpoint\fixedpoint.h ****   assert(exponent <= 31);
 360:C:/Renesas/e2studio_2021_01_workspace_RZA2M_ANPR/ANPR_RZA2M_EBK/src/tensorflow_lite/third_party/gemmlowp/fixedpoint\fixedpoint.h ****   const IntegerType mask = Dup<IntegerType>((1ll << exponent) - 1);
 1542              		.loc 7 360 0
 1543 02bc 3B0BDFED 		vldr.64	d16, .L385	@ int
 1544 02c0 200000EA 		b	.L163
 1545              	.LVL157:
 1546              	.L351:
 1547              	.LBE703:
 1548              	.LBE702:
 1549              	.LBB718:
 1550              	.LBB719:
 337:C:/Renesas/e2studio_2021_01_workspace_RZA2M_ANPR/ANPR_RZA2M_EBK/src/tensorflow_lite/third_party/gemmlowp/fixedpoint\fixedpoint.h ****   return overflow ? std::numeric_limits<std::int32_t>::max() : ab_x2_high32;
 1551              		.loc 7 337 0
 1552 02c4 006096E0 		adds	r6, r6, r0
 1553              	.LVL158:
 1554 02c8 0170A7E0 		adc	r7, r7, r1
 1555 02cc 0010A0E3 		mov	r1, #0
 1556              	.LVL159:
 1557 02d0 C70FA0E1 		asr	r0, r7, #31
 1558              	.LVL160:
 1559 02d4 0201C0E3 		bic	r0, r0, #-2147483648
 1560 02d8 060090E0 		adds	r0, r0, r6
 1561 02dc A00FA0E1 		lsr	r0, r0, #31
 1562 02e0 0710A1E0 		adc	r1, r1, r7
 1563 02e4 810080E1 		orr	r0, r0, r1, lsl #1
 1564              	.L206:
 1565              	.LVL161:
 1566              	.LBE719:
 1567              	.LBE718:
 1568              	.LBB722:
 1569              	.LBB714:
 359:C:/Renesas/e2studio_2021_01_workspace_RZA2M_ANPR/ANPR_RZA2M_EBK/src/tensorflow_lite/third_party/gemmlowp/fixedpoint\fixedpoint.h ****   const IntegerType mask = Dup<IntegerType>((1ll << exponent) - 1);
 1570              		.loc 7 359 0
 1571 02e8 1F0053E3 		cmp	r3, #31
 1572 02ec 460200CA 		bgt	.L381
 1573              		.loc 7 360 0
 1574 02f0 903B02EE 		vmov.32	d18[0], r3
 1575              	.LBB704:
 1576              	.LBB705:
 141:C:/Renesas/e2studio_2021_01_workspace_RZA2M_ANPR/ANPR_RZA2M_EBK/src/tensorflow_lite/third_party/gemmlowp/fixedpoint\fixedpoint.h **** }
 1577              		.loc 7 141 0
 1578 02f4 5013A0E1 		asr	r1, r0, r3
 1579              	.LBE705:
 1580              	.LBE704:
 1581              	.LBE714:
 1582              	.LBE722:
 1583              	.LBE701:
 1584              	.LBE700:
  64:../src/tensorflow_lite/tensorflow/lite/micro/kernels/activations.cc ****   }
 1585              		.loc 1 64 0
 1586 02f8 049094E5 		ldr	r9, [r4, #4]
 1587              	.LBE699:
  55:../src/tensorflow_lite/tensorflow/lite/micro/kernels/activations.cc ****     const int32_t val = static_cast<int32_t>(input_data[i]);
 1588              		.loc 1 55 0
 1589 02fc 012082E2 		add	r2, r2, #1
 1590              	.LVL162:
 1591              	.LBB740:
 1592              	.LBB734:
 1593              	.LBB728:
 1594              	.LBB723:
 1595              	.LBB715:
 1596              		.loc 7 360 0
 1597 0300 A01472F3 		vshl.u64	d17, d16, d18
 1598 0304 316B57EC 		vmov	r6, r7, d17	@ int
 1599 0308 016046E2 		sub	r6, r6, #1
 1600              	.LVL163:
 1601              	.LBE715:
 1602              	.LBE723:
 1603              	.LBE728:
 1604              	.LBE734:
  64:../src/tensorflow_lite/tensorflow/lite/micro/kernels/activations.cc ****   }
 1605              		.loc 1 64 0
 1606 030c 087094E5 		ldr	r7, [r4, #8]
 1607              	.LBB735:
 1608              	.LBB729:
 1609              	.LBB724:
 1610              	.LBB716:
 1611              	.LBB706:
 1612              	.LBB707:
 141:C:/Renesas/e2studio_2021_01_workspace_RZA2M_ANPR/ANPR_RZA2M_EBK/src/tensorflow_lite/third_party/gemmlowp/fixedpoint\fixedpoint.h **** }
 1613              		.loc 7 141 0
 1614 0310 C630A0E1 		asr	r3, r6, #1
 1615              	.LVL164:
 1616              	.LBE707:
 1617              	.LBE706:
 1618              	.LBB708:
 1619              	.LBB709:
  71:C:/Renesas/e2studio_2021_01_workspace_RZA2M_ANPR/ANPR_RZA2M_EBK/src/tensorflow_lite/third_party/gemmlowp/fixedpoint\fixedpoint.h **** }
 1620              		.loc 7 71 0
 1621 0314 006006E0 		and	r6, r6, r0
 1622              	.LVL165:
 1623              	.LBE709:
 1624              	.LBE708:
 1625              	.LBB710:
 1626              	.LBB711:
  95:C:/Renesas/e2studio_2021_01_workspace_RZA2M_ANPR/ANPR_RZA2M_EBK/src/tensorflow_lite/third_party/gemmlowp/fixedpoint\fixedpoint.h **** }
 1627              		.loc 7 95 0
 1628 0318 A00F83E0 		add	r0, r3, r0, lsr #31
 1629              	.LVL166:
 1630              	.LBE711:
 1631              	.LBE710:
 1632              	.LBB712:
 1633              	.LBB713:
 1634 031c 000056E1 		cmp	r6, r0
 1635 0320 0130A0D1 		movle	r3, r1
 1636 0324 013081C2 		addgt	r3, r1, #1
 1637              	.LBE713:
 1638              	.LBE712:
 1639              	.LBE716:
 1640              	.LBE724:
 1641              	.LBE729:
 1642              	.LBE735:
  58:../src/tensorflow_lite/tensorflow/lite/micro/kernels/activations.cc ****         MultiplyByQuantizedMultiplier(val - data.params.input_offset,
 1643              		.loc 1 58 0
 1644 0328 088083E0 		add	r8, r3, r8
  64:../src/tensorflow_lite/tensorflow/lite/micro/kernels/activations.cc ****   }
 1645              		.loc 1 64 0
 1646 032c 090058E1 		cmp	r8, r9
 1647 0330 0980A0B1 		movlt	r8, r9
 1648 0334 070058E1 		cmp	r8, r7
 1649 0338 0780A0A1 		movge	r8, r7
 1650              	.LBE740:
  55:../src/tensorflow_lite/tensorflow/lite/micro/kernels/activations.cc ****     const int32_t val = static_cast<int32_t>(input_data[i]);
 1651              		.loc 1 55 0
 1652 033c 0C0052E1 		cmp	r2, ip
 1653              	.LBB741:
  64:../src/tensorflow_lite/tensorflow/lite/micro/kernels/activations.cc ****   }
 1654              		.loc 1 64 0
 1655 0340 0180E5E5 		strb	r8, [r5, #1]!
 1656              	.LVL167:
 1657              	.LBE741:
  55:../src/tensorflow_lite/tensorflow/lite/micro/kernels/activations.cc ****     const int32_t val = static_cast<int32_t>(input_data[i]);
 1658              		.loc 1 55 0
 1659 0344 F30100AA 		bge	.L377
 1660              	.LVL168:
 1661              	.L163:
 1662              	.LBB742:
  61:../src/tensorflow_lite/tensorflow/lite/micro/kernels/activations.cc ****     clamped = std::max(data.params.quantized_activation_min, clamped);
 1663              		.loc 1 61 0
 1664 0348 183094E5 		ldr	r3, [r4, #24]
  59:../src/tensorflow_lite/tensorflow/lite/micro/kernels/activations.cc ****                                       data.params.output_multiplier,
 1665              		.loc 1 59 0
 1666 034c 0C0094E5 		ldr	r0, [r4, #12]
  56:../src/tensorflow_lite/tensorflow/lite/micro/kernels/activations.cc ****     int32_t clamped =
 1667              		.loc 1 56 0
 1668 0350 D160FEE1 		ldrsb	r6, [lr, #1]!
 1669              	.LVL169:
  60:../src/tensorflow_lite/tensorflow/lite/micro/kernels/activations.cc ****                                       data.params.output_shift);
 1670              		.loc 1 60 0
 1671 0354 149094E5 		ldr	r9, [r4, #20]
 1672              	.LBB736:
 1673              	.LBB730:
 1674              		.file 8 "C:/Renesas/e2studio_2021_01_workspace_RZA2M_ANPR/ANPR_RZA2M_EBK/src/tensorflow_lite/tenso
   1:C:/Renesas/e2studio_2021_01_workspace_RZA2M_ANPR/ANPR_RZA2M_EBK/src/tensorflow_lite/tensorflow/lite/kernels/internal\common.h **** /* Copyright 2017 The TensorFlow Authors. All Rights Reserved.
   2:C:/Renesas/e2studio_2021_01_workspace_RZA2M_ANPR/ANPR_RZA2M_EBK/src/tensorflow_lite/tensorflow/lite/kernels/internal\common.h **** 
   3:C:/Renesas/e2studio_2021_01_workspace_RZA2M_ANPR/ANPR_RZA2M_EBK/src/tensorflow_lite/tensorflow/lite/kernels/internal\common.h **** Licensed under the Apache License, Version 2.0 (the "License");
   4:C:/Renesas/e2studio_2021_01_workspace_RZA2M_ANPR/ANPR_RZA2M_EBK/src/tensorflow_lite/tensorflow/lite/kernels/internal\common.h **** you may not use this file except in compliance with the License.
   5:C:/Renesas/e2studio_2021_01_workspace_RZA2M_ANPR/ANPR_RZA2M_EBK/src/tensorflow_lite/tensorflow/lite/kernels/internal\common.h **** You may obtain a copy of the License at
   6:C:/Renesas/e2studio_2021_01_workspace_RZA2M_ANPR/ANPR_RZA2M_EBK/src/tensorflow_lite/tensorflow/lite/kernels/internal\common.h **** 
   7:C:/Renesas/e2studio_2021_01_workspace_RZA2M_ANPR/ANPR_RZA2M_EBK/src/tensorflow_lite/tensorflow/lite/kernels/internal\common.h ****     http://www.apache.org/licenses/LICENSE-2.0
   8:C:/Renesas/e2studio_2021_01_workspace_RZA2M_ANPR/ANPR_RZA2M_EBK/src/tensorflow_lite/tensorflow/lite/kernels/internal\common.h **** 
   9:C:/Renesas/e2studio_2021_01_workspace_RZA2M_ANPR/ANPR_RZA2M_EBK/src/tensorflow_lite/tensorflow/lite/kernels/internal\common.h **** Unless required by applicable law or agreed to in writing, software
  10:C:/Renesas/e2studio_2021_01_workspace_RZA2M_ANPR/ANPR_RZA2M_EBK/src/tensorflow_lite/tensorflow/lite/kernels/internal\common.h **** distributed under the License is distributed on an "AS IS" BASIS,
  11:C:/Renesas/e2studio_2021_01_workspace_RZA2M_ANPR/ANPR_RZA2M_EBK/src/tensorflow_lite/tensorflow/lite/kernels/internal\common.h **** WITHOUT WARRANTIES OR CONDITIONS OF ANY KIND, either express or implied.
  12:C:/Renesas/e2studio_2021_01_workspace_RZA2M_ANPR/ANPR_RZA2M_EBK/src/tensorflow_lite/tensorflow/lite/kernels/internal\common.h **** See the License for the specific language governing permissions and
  13:C:/Renesas/e2studio_2021_01_workspace_RZA2M_ANPR/ANPR_RZA2M_EBK/src/tensorflow_lite/tensorflow/lite/kernels/internal\common.h **** limitations under the License.
  14:C:/Renesas/e2studio_2021_01_workspace_RZA2M_ANPR/ANPR_RZA2M_EBK/src/tensorflow_lite/tensorflow/lite/kernels/internal\common.h **** ==============================================================================*/
  15:C:/Renesas/e2studio_2021_01_workspace_RZA2M_ANPR/ANPR_RZA2M_EBK/src/tensorflow_lite/tensorflow/lite/kernels/internal\common.h **** #ifndef TENSORFLOW_LITE_KERNELS_INTERNAL_COMMON_H_
  16:C:/Renesas/e2studio_2021_01_workspace_RZA2M_ANPR/ANPR_RZA2M_EBK/src/tensorflow_lite/tensorflow/lite/kernels/internal\common.h **** #define TENSORFLOW_LITE_KERNELS_INTERNAL_COMMON_H_
  17:C:/Renesas/e2studio_2021_01_workspace_RZA2M_ANPR/ANPR_RZA2M_EBK/src/tensorflow_lite/tensorflow/lite/kernels/internal\common.h **** 
  18:C:/Renesas/e2studio_2021_01_workspace_RZA2M_ANPR/ANPR_RZA2M_EBK/src/tensorflow_lite/tensorflow/lite/kernels/internal\common.h **** #ifndef ALLOW_SLOW_GENERIC_DEPTHWISECONV_FALLBACK
  19:C:/Renesas/e2studio_2021_01_workspace_RZA2M_ANPR/ANPR_RZA2M_EBK/src/tensorflow_lite/tensorflow/lite/kernels/internal\common.h **** #ifdef GEMMLOWP_ALLOW_SLOW_SCALAR_FALLBACK
  20:C:/Renesas/e2studio_2021_01_workspace_RZA2M_ANPR/ANPR_RZA2M_EBK/src/tensorflow_lite/tensorflow/lite/kernels/internal\common.h **** #define ALLOW_SLOW_GENERIC_DEPTHWISECONV_FALLBACK
  21:C:/Renesas/e2studio_2021_01_workspace_RZA2M_ANPR/ANPR_RZA2M_EBK/src/tensorflow_lite/tensorflow/lite/kernels/internal\common.h **** #endif
  22:C:/Renesas/e2studio_2021_01_workspace_RZA2M_ANPR/ANPR_RZA2M_EBK/src/tensorflow_lite/tensorflow/lite/kernels/internal\common.h **** #endif
  23:C:/Renesas/e2studio_2021_01_workspace_RZA2M_ANPR/ANPR_RZA2M_EBK/src/tensorflow_lite/tensorflow/lite/kernels/internal\common.h **** 
  24:C:/Renesas/e2studio_2021_01_workspace_RZA2M_ANPR/ANPR_RZA2M_EBK/src/tensorflow_lite/tensorflow/lite/kernels/internal\common.h **** #include <functional>
  25:C:/Renesas/e2studio_2021_01_workspace_RZA2M_ANPR/ANPR_RZA2M_EBK/src/tensorflow_lite/tensorflow/lite/kernels/internal\common.h **** 
  26:C:/Renesas/e2studio_2021_01_workspace_RZA2M_ANPR/ANPR_RZA2M_EBK/src/tensorflow_lite/tensorflow/lite/kernels/internal\common.h **** #include "fixedpoint/fixedpoint.h"
  27:C:/Renesas/e2studio_2021_01_workspace_RZA2M_ANPR/ANPR_RZA2M_EBK/src/tensorflow_lite/tensorflow/lite/kernels/internal\common.h **** #include "tensorflow/lite/kernels/internal/cppmath.h"
  28:C:/Renesas/e2studio_2021_01_workspace_RZA2M_ANPR/ANPR_RZA2M_EBK/src/tensorflow_lite/tensorflow/lite/kernels/internal\common.h **** #include "tensorflow/lite/kernels/internal/optimized/neon_check.h"
  29:C:/Renesas/e2studio_2021_01_workspace_RZA2M_ANPR/ANPR_RZA2M_EBK/src/tensorflow_lite/tensorflow/lite/kernels/internal\common.h **** #include "tensorflow/lite/kernels/internal/types.h"
  30:C:/Renesas/e2studio_2021_01_workspace_RZA2M_ANPR/ANPR_RZA2M_EBK/src/tensorflow_lite/tensorflow/lite/kernels/internal\common.h **** 
  31:C:/Renesas/e2studio_2021_01_workspace_RZA2M_ANPR/ANPR_RZA2M_EBK/src/tensorflow_lite/tensorflow/lite/kernels/internal\common.h **** namespace tflite {
  32:C:/Renesas/e2studio_2021_01_workspace_RZA2M_ANPR/ANPR_RZA2M_EBK/src/tensorflow_lite/tensorflow/lite/kernels/internal\common.h **** 
  33:C:/Renesas/e2studio_2021_01_workspace_RZA2M_ANPR/ANPR_RZA2M_EBK/src/tensorflow_lite/tensorflow/lite/kernels/internal\common.h **** constexpr int kReverseShift = -1;
  34:C:/Renesas/e2studio_2021_01_workspace_RZA2M_ANPR/ANPR_RZA2M_EBK/src/tensorflow_lite/tensorflow/lite/kernels/internal\common.h **** 
  35:C:/Renesas/e2studio_2021_01_workspace_RZA2M_ANPR/ANPR_RZA2M_EBK/src/tensorflow_lite/tensorflow/lite/kernels/internal\common.h **** inline void GetActivationMinMax(FusedActivationFunctionType ac,
  36:C:/Renesas/e2studio_2021_01_workspace_RZA2M_ANPR/ANPR_RZA2M_EBK/src/tensorflow_lite/tensorflow/lite/kernels/internal\common.h ****                                 float* output_activation_min,
  37:C:/Renesas/e2studio_2021_01_workspace_RZA2M_ANPR/ANPR_RZA2M_EBK/src/tensorflow_lite/tensorflow/lite/kernels/internal\common.h ****                                 float* output_activation_max) {
  38:C:/Renesas/e2studio_2021_01_workspace_RZA2M_ANPR/ANPR_RZA2M_EBK/src/tensorflow_lite/tensorflow/lite/kernels/internal\common.h ****   switch (ac) {
  39:C:/Renesas/e2studio_2021_01_workspace_RZA2M_ANPR/ANPR_RZA2M_EBK/src/tensorflow_lite/tensorflow/lite/kernels/internal\common.h ****     case FusedActivationFunctionType::kNone:
  40:C:/Renesas/e2studio_2021_01_workspace_RZA2M_ANPR/ANPR_RZA2M_EBK/src/tensorflow_lite/tensorflow/lite/kernels/internal\common.h ****       *output_activation_min = std::numeric_limits<float>::lowest();
  41:C:/Renesas/e2studio_2021_01_workspace_RZA2M_ANPR/ANPR_RZA2M_EBK/src/tensorflow_lite/tensorflow/lite/kernels/internal\common.h ****       *output_activation_max = std::numeric_limits<float>::max();
  42:C:/Renesas/e2studio_2021_01_workspace_RZA2M_ANPR/ANPR_RZA2M_EBK/src/tensorflow_lite/tensorflow/lite/kernels/internal\common.h ****       break;
  43:C:/Renesas/e2studio_2021_01_workspace_RZA2M_ANPR/ANPR_RZA2M_EBK/src/tensorflow_lite/tensorflow/lite/kernels/internal\common.h ****     case FusedActivationFunctionType::kRelu:
  44:C:/Renesas/e2studio_2021_01_workspace_RZA2M_ANPR/ANPR_RZA2M_EBK/src/tensorflow_lite/tensorflow/lite/kernels/internal\common.h ****       *output_activation_min = 0.f;
  45:C:/Renesas/e2studio_2021_01_workspace_RZA2M_ANPR/ANPR_RZA2M_EBK/src/tensorflow_lite/tensorflow/lite/kernels/internal\common.h ****       *output_activation_max = std::numeric_limits<float>::max();
  46:C:/Renesas/e2studio_2021_01_workspace_RZA2M_ANPR/ANPR_RZA2M_EBK/src/tensorflow_lite/tensorflow/lite/kernels/internal\common.h ****       break;
  47:C:/Renesas/e2studio_2021_01_workspace_RZA2M_ANPR/ANPR_RZA2M_EBK/src/tensorflow_lite/tensorflow/lite/kernels/internal\common.h ****     case FusedActivationFunctionType::kRelu1:
  48:C:/Renesas/e2studio_2021_01_workspace_RZA2M_ANPR/ANPR_RZA2M_EBK/src/tensorflow_lite/tensorflow/lite/kernels/internal\common.h ****       *output_activation_min = -1.f;
  49:C:/Renesas/e2studio_2021_01_workspace_RZA2M_ANPR/ANPR_RZA2M_EBK/src/tensorflow_lite/tensorflow/lite/kernels/internal\common.h ****       *output_activation_max = 1.f;
  50:C:/Renesas/e2studio_2021_01_workspace_RZA2M_ANPR/ANPR_RZA2M_EBK/src/tensorflow_lite/tensorflow/lite/kernels/internal\common.h ****       break;
  51:C:/Renesas/e2studio_2021_01_workspace_RZA2M_ANPR/ANPR_RZA2M_EBK/src/tensorflow_lite/tensorflow/lite/kernels/internal\common.h ****     case FusedActivationFunctionType::kRelu6:
  52:C:/Renesas/e2studio_2021_01_workspace_RZA2M_ANPR/ANPR_RZA2M_EBK/src/tensorflow_lite/tensorflow/lite/kernels/internal\common.h ****       *output_activation_min = 0.f;
  53:C:/Renesas/e2studio_2021_01_workspace_RZA2M_ANPR/ANPR_RZA2M_EBK/src/tensorflow_lite/tensorflow/lite/kernels/internal\common.h ****       *output_activation_max = 6.f;
  54:C:/Renesas/e2studio_2021_01_workspace_RZA2M_ANPR/ANPR_RZA2M_EBK/src/tensorflow_lite/tensorflow/lite/kernels/internal\common.h ****       break;
  55:C:/Renesas/e2studio_2021_01_workspace_RZA2M_ANPR/ANPR_RZA2M_EBK/src/tensorflow_lite/tensorflow/lite/kernels/internal\common.h ****   }
  56:C:/Renesas/e2studio_2021_01_workspace_RZA2M_ANPR/ANPR_RZA2M_EBK/src/tensorflow_lite/tensorflow/lite/kernels/internal\common.h **** }
  57:C:/Renesas/e2studio_2021_01_workspace_RZA2M_ANPR/ANPR_RZA2M_EBK/src/tensorflow_lite/tensorflow/lite/kernels/internal\common.h **** 
  58:C:/Renesas/e2studio_2021_01_workspace_RZA2M_ANPR/ANPR_RZA2M_EBK/src/tensorflow_lite/tensorflow/lite/kernels/internal\common.h **** template <typename T>
  59:C:/Renesas/e2studio_2021_01_workspace_RZA2M_ANPR/ANPR_RZA2M_EBK/src/tensorflow_lite/tensorflow/lite/kernels/internal\common.h **** inline T ActivationFunctionWithMinMax(T x, T output_activation_min,
  60:C:/Renesas/e2studio_2021_01_workspace_RZA2M_ANPR/ANPR_RZA2M_EBK/src/tensorflow_lite/tensorflow/lite/kernels/internal\common.h ****                                       T output_activation_max) {
  61:C:/Renesas/e2studio_2021_01_workspace_RZA2M_ANPR/ANPR_RZA2M_EBK/src/tensorflow_lite/tensorflow/lite/kernels/internal\common.h ****   using std::max;
  62:C:/Renesas/e2studio_2021_01_workspace_RZA2M_ANPR/ANPR_RZA2M_EBK/src/tensorflow_lite/tensorflow/lite/kernels/internal\common.h ****   using std::min;
  63:C:/Renesas/e2studio_2021_01_workspace_RZA2M_ANPR/ANPR_RZA2M_EBK/src/tensorflow_lite/tensorflow/lite/kernels/internal\common.h ****   return min(max(x, output_activation_min), output_activation_max);
  64:C:/Renesas/e2studio_2021_01_workspace_RZA2M_ANPR/ANPR_RZA2M_EBK/src/tensorflow_lite/tensorflow/lite/kernels/internal\common.h **** }
  65:C:/Renesas/e2studio_2021_01_workspace_RZA2M_ANPR/ANPR_RZA2M_EBK/src/tensorflow_lite/tensorflow/lite/kernels/internal\common.h **** 
  66:C:/Renesas/e2studio_2021_01_workspace_RZA2M_ANPR/ANPR_RZA2M_EBK/src/tensorflow_lite/tensorflow/lite/kernels/internal\common.h **** // Legacy function, left for compatibility only.
  67:C:/Renesas/e2studio_2021_01_workspace_RZA2M_ANPR/ANPR_RZA2M_EBK/src/tensorflow_lite/tensorflow/lite/kernels/internal\common.h **** template <FusedActivationFunctionType Ac>
  68:C:/Renesas/e2studio_2021_01_workspace_RZA2M_ANPR/ANPR_RZA2M_EBK/src/tensorflow_lite/tensorflow/lite/kernels/internal\common.h **** float ActivationFunction(float x) {
  69:C:/Renesas/e2studio_2021_01_workspace_RZA2M_ANPR/ANPR_RZA2M_EBK/src/tensorflow_lite/tensorflow/lite/kernels/internal\common.h ****   float output_activation_min, output_activation_max;
  70:C:/Renesas/e2studio_2021_01_workspace_RZA2M_ANPR/ANPR_RZA2M_EBK/src/tensorflow_lite/tensorflow/lite/kernels/internal\common.h ****   GetActivationMinMax(Ac, &output_activation_min, &output_activation_max);
  71:C:/Renesas/e2studio_2021_01_workspace_RZA2M_ANPR/ANPR_RZA2M_EBK/src/tensorflow_lite/tensorflow/lite/kernels/internal\common.h ****   return ActivationFunctionWithMinMax(x, output_activation_min,
  72:C:/Renesas/e2studio_2021_01_workspace_RZA2M_ANPR/ANPR_RZA2M_EBK/src/tensorflow_lite/tensorflow/lite/kernels/internal\common.h ****                                       output_activation_max);
  73:C:/Renesas/e2studio_2021_01_workspace_RZA2M_ANPR/ANPR_RZA2M_EBK/src/tensorflow_lite/tensorflow/lite/kernels/internal\common.h **** }
  74:C:/Renesas/e2studio_2021_01_workspace_RZA2M_ANPR/ANPR_RZA2M_EBK/src/tensorflow_lite/tensorflow/lite/kernels/internal\common.h **** 
  75:C:/Renesas/e2studio_2021_01_workspace_RZA2M_ANPR/ANPR_RZA2M_EBK/src/tensorflow_lite/tensorflow/lite/kernels/internal\common.h **** inline void BiasAndClamp(float clamp_min, float clamp_max, int bias_size,
  76:C:/Renesas/e2studio_2021_01_workspace_RZA2M_ANPR/ANPR_RZA2M_EBK/src/tensorflow_lite/tensorflow/lite/kernels/internal\common.h ****                          const float* bias_data, int array_size,
  77:C:/Renesas/e2studio_2021_01_workspace_RZA2M_ANPR/ANPR_RZA2M_EBK/src/tensorflow_lite/tensorflow/lite/kernels/internal\common.h ****                          float* array_data) {
  78:C:/Renesas/e2studio_2021_01_workspace_RZA2M_ANPR/ANPR_RZA2M_EBK/src/tensorflow_lite/tensorflow/lite/kernels/internal\common.h ****   // Note: see b/132215220: in May 2019 we thought it would be OK to replace
  79:C:/Renesas/e2studio_2021_01_workspace_RZA2M_ANPR/ANPR_RZA2M_EBK/src/tensorflow_lite/tensorflow/lite/kernels/internal\common.h ****   // this with the Eigen one-liner:
  80:C:/Renesas/e2studio_2021_01_workspace_RZA2M_ANPR/ANPR_RZA2M_EBK/src/tensorflow_lite/tensorflow/lite/kernels/internal\common.h ****   //   return (array.colwise() + bias).cwiseMin(clamp_max).cwiseMin(clamp_max).
  81:C:/Renesas/e2studio_2021_01_workspace_RZA2M_ANPR/ANPR_RZA2M_EBK/src/tensorflow_lite/tensorflow/lite/kernels/internal\common.h ****   // This turned out to severely regress performance: +4ms (i.e. 8%) on
  82:C:/Renesas/e2studio_2021_01_workspace_RZA2M_ANPR/ANPR_RZA2M_EBK/src/tensorflow_lite/tensorflow/lite/kernels/internal\common.h ****   // MobileNet v2 / 1.0 / 224. So we keep custom NEON code for now.
  83:C:/Renesas/e2studio_2021_01_workspace_RZA2M_ANPR/ANPR_RZA2M_EBK/src/tensorflow_lite/tensorflow/lite/kernels/internal\common.h ****   TFLITE_DCHECK_EQ((array_size % bias_size), 0);
  84:C:/Renesas/e2studio_2021_01_workspace_RZA2M_ANPR/ANPR_RZA2M_EBK/src/tensorflow_lite/tensorflow/lite/kernels/internal\common.h **** #ifdef USE_NEON
  85:C:/Renesas/e2studio_2021_01_workspace_RZA2M_ANPR/ANPR_RZA2M_EBK/src/tensorflow_lite/tensorflow/lite/kernels/internal\common.h ****   float* array_ptr = array_data;
  86:C:/Renesas/e2studio_2021_01_workspace_RZA2M_ANPR/ANPR_RZA2M_EBK/src/tensorflow_lite/tensorflow/lite/kernels/internal\common.h ****   float* array_end_ptr = array_ptr + array_size;
  87:C:/Renesas/e2studio_2021_01_workspace_RZA2M_ANPR/ANPR_RZA2M_EBK/src/tensorflow_lite/tensorflow/lite/kernels/internal\common.h ****   const auto clamp_min_vec = vdupq_n_f32(clamp_min);
  88:C:/Renesas/e2studio_2021_01_workspace_RZA2M_ANPR/ANPR_RZA2M_EBK/src/tensorflow_lite/tensorflow/lite/kernels/internal\common.h ****   const auto clamp_max_vec = vdupq_n_f32(clamp_max);
  89:C:/Renesas/e2studio_2021_01_workspace_RZA2M_ANPR/ANPR_RZA2M_EBK/src/tensorflow_lite/tensorflow/lite/kernels/internal\common.h ****   for (; array_ptr != array_end_ptr; array_ptr += bias_size) {
  90:C:/Renesas/e2studio_2021_01_workspace_RZA2M_ANPR/ANPR_RZA2M_EBK/src/tensorflow_lite/tensorflow/lite/kernels/internal\common.h ****     int i = 0;
  91:C:/Renesas/e2studio_2021_01_workspace_RZA2M_ANPR/ANPR_RZA2M_EBK/src/tensorflow_lite/tensorflow/lite/kernels/internal\common.h ****     for (; i <= bias_size - 16; i += 16) {
  92:C:/Renesas/e2studio_2021_01_workspace_RZA2M_ANPR/ANPR_RZA2M_EBK/src/tensorflow_lite/tensorflow/lite/kernels/internal\common.h ****       auto b0 = vld1q_f32(bias_data + i);
  93:C:/Renesas/e2studio_2021_01_workspace_RZA2M_ANPR/ANPR_RZA2M_EBK/src/tensorflow_lite/tensorflow/lite/kernels/internal\common.h ****       auto b1 = vld1q_f32(bias_data + i + 4);
  94:C:/Renesas/e2studio_2021_01_workspace_RZA2M_ANPR/ANPR_RZA2M_EBK/src/tensorflow_lite/tensorflow/lite/kernels/internal\common.h ****       auto b2 = vld1q_f32(bias_data + i + 8);
  95:C:/Renesas/e2studio_2021_01_workspace_RZA2M_ANPR/ANPR_RZA2M_EBK/src/tensorflow_lite/tensorflow/lite/kernels/internal\common.h ****       auto b3 = vld1q_f32(bias_data + i + 12);
  96:C:/Renesas/e2studio_2021_01_workspace_RZA2M_ANPR/ANPR_RZA2M_EBK/src/tensorflow_lite/tensorflow/lite/kernels/internal\common.h ****       auto a0 = vld1q_f32(array_ptr + i);
  97:C:/Renesas/e2studio_2021_01_workspace_RZA2M_ANPR/ANPR_RZA2M_EBK/src/tensorflow_lite/tensorflow/lite/kernels/internal\common.h ****       auto a1 = vld1q_f32(array_ptr + i + 4);
  98:C:/Renesas/e2studio_2021_01_workspace_RZA2M_ANPR/ANPR_RZA2M_EBK/src/tensorflow_lite/tensorflow/lite/kernels/internal\common.h ****       auto a2 = vld1q_f32(array_ptr + i + 8);
  99:C:/Renesas/e2studio_2021_01_workspace_RZA2M_ANPR/ANPR_RZA2M_EBK/src/tensorflow_lite/tensorflow/lite/kernels/internal\common.h ****       auto a3 = vld1q_f32(array_ptr + i + 12);
 100:C:/Renesas/e2studio_2021_01_workspace_RZA2M_ANPR/ANPR_RZA2M_EBK/src/tensorflow_lite/tensorflow/lite/kernels/internal\common.h ****       auto x0 = vaddq_f32(a0, b0);
 101:C:/Renesas/e2studio_2021_01_workspace_RZA2M_ANPR/ANPR_RZA2M_EBK/src/tensorflow_lite/tensorflow/lite/kernels/internal\common.h ****       auto x1 = vaddq_f32(a1, b1);
 102:C:/Renesas/e2studio_2021_01_workspace_RZA2M_ANPR/ANPR_RZA2M_EBK/src/tensorflow_lite/tensorflow/lite/kernels/internal\common.h ****       auto x2 = vaddq_f32(a2, b2);
 103:C:/Renesas/e2studio_2021_01_workspace_RZA2M_ANPR/ANPR_RZA2M_EBK/src/tensorflow_lite/tensorflow/lite/kernels/internal\common.h ****       auto x3 = vaddq_f32(a3, b3);
 104:C:/Renesas/e2studio_2021_01_workspace_RZA2M_ANPR/ANPR_RZA2M_EBK/src/tensorflow_lite/tensorflow/lite/kernels/internal\common.h ****       x0 = vmaxq_f32(clamp_min_vec, x0);
 105:C:/Renesas/e2studio_2021_01_workspace_RZA2M_ANPR/ANPR_RZA2M_EBK/src/tensorflow_lite/tensorflow/lite/kernels/internal\common.h ****       x1 = vmaxq_f32(clamp_min_vec, x1);
 106:C:/Renesas/e2studio_2021_01_workspace_RZA2M_ANPR/ANPR_RZA2M_EBK/src/tensorflow_lite/tensorflow/lite/kernels/internal\common.h ****       x2 = vmaxq_f32(clamp_min_vec, x2);
 107:C:/Renesas/e2studio_2021_01_workspace_RZA2M_ANPR/ANPR_RZA2M_EBK/src/tensorflow_lite/tensorflow/lite/kernels/internal\common.h ****       x3 = vmaxq_f32(clamp_min_vec, x3);
 108:C:/Renesas/e2studio_2021_01_workspace_RZA2M_ANPR/ANPR_RZA2M_EBK/src/tensorflow_lite/tensorflow/lite/kernels/internal\common.h ****       x0 = vminq_f32(clamp_max_vec, x0);
 109:C:/Renesas/e2studio_2021_01_workspace_RZA2M_ANPR/ANPR_RZA2M_EBK/src/tensorflow_lite/tensorflow/lite/kernels/internal\common.h ****       x1 = vminq_f32(clamp_max_vec, x1);
 110:C:/Renesas/e2studio_2021_01_workspace_RZA2M_ANPR/ANPR_RZA2M_EBK/src/tensorflow_lite/tensorflow/lite/kernels/internal\common.h ****       x2 = vminq_f32(clamp_max_vec, x2);
 111:C:/Renesas/e2studio_2021_01_workspace_RZA2M_ANPR/ANPR_RZA2M_EBK/src/tensorflow_lite/tensorflow/lite/kernels/internal\common.h ****       x3 = vminq_f32(clamp_max_vec, x3);
 112:C:/Renesas/e2studio_2021_01_workspace_RZA2M_ANPR/ANPR_RZA2M_EBK/src/tensorflow_lite/tensorflow/lite/kernels/internal\common.h ****       vst1q_f32(array_ptr + i, x0);
 113:C:/Renesas/e2studio_2021_01_workspace_RZA2M_ANPR/ANPR_RZA2M_EBK/src/tensorflow_lite/tensorflow/lite/kernels/internal\common.h ****       vst1q_f32(array_ptr + i + 4, x1);
 114:C:/Renesas/e2studio_2021_01_workspace_RZA2M_ANPR/ANPR_RZA2M_EBK/src/tensorflow_lite/tensorflow/lite/kernels/internal\common.h ****       vst1q_f32(array_ptr + i + 8, x2);
 115:C:/Renesas/e2studio_2021_01_workspace_RZA2M_ANPR/ANPR_RZA2M_EBK/src/tensorflow_lite/tensorflow/lite/kernels/internal\common.h ****       vst1q_f32(array_ptr + i + 12, x3);
 116:C:/Renesas/e2studio_2021_01_workspace_RZA2M_ANPR/ANPR_RZA2M_EBK/src/tensorflow_lite/tensorflow/lite/kernels/internal\common.h ****     }
 117:C:/Renesas/e2studio_2021_01_workspace_RZA2M_ANPR/ANPR_RZA2M_EBK/src/tensorflow_lite/tensorflow/lite/kernels/internal\common.h ****     for (; i <= bias_size - 4; i += 4) {
 118:C:/Renesas/e2studio_2021_01_workspace_RZA2M_ANPR/ANPR_RZA2M_EBK/src/tensorflow_lite/tensorflow/lite/kernels/internal\common.h ****       auto b = vld1q_f32(bias_data + i);
 119:C:/Renesas/e2studio_2021_01_workspace_RZA2M_ANPR/ANPR_RZA2M_EBK/src/tensorflow_lite/tensorflow/lite/kernels/internal\common.h ****       auto a = vld1q_f32(array_ptr + i);
 120:C:/Renesas/e2studio_2021_01_workspace_RZA2M_ANPR/ANPR_RZA2M_EBK/src/tensorflow_lite/tensorflow/lite/kernels/internal\common.h ****       auto x = vaddq_f32(a, b);
 121:C:/Renesas/e2studio_2021_01_workspace_RZA2M_ANPR/ANPR_RZA2M_EBK/src/tensorflow_lite/tensorflow/lite/kernels/internal\common.h ****       x = vmaxq_f32(clamp_min_vec, x);
 122:C:/Renesas/e2studio_2021_01_workspace_RZA2M_ANPR/ANPR_RZA2M_EBK/src/tensorflow_lite/tensorflow/lite/kernels/internal\common.h ****       x = vminq_f32(clamp_max_vec, x);
 123:C:/Renesas/e2studio_2021_01_workspace_RZA2M_ANPR/ANPR_RZA2M_EBK/src/tensorflow_lite/tensorflow/lite/kernels/internal\common.h ****       vst1q_f32(array_ptr + i, x);
 124:C:/Renesas/e2studio_2021_01_workspace_RZA2M_ANPR/ANPR_RZA2M_EBK/src/tensorflow_lite/tensorflow/lite/kernels/internal\common.h ****     }
 125:C:/Renesas/e2studio_2021_01_workspace_RZA2M_ANPR/ANPR_RZA2M_EBK/src/tensorflow_lite/tensorflow/lite/kernels/internal\common.h ****     for (; i < bias_size; i++) {
 126:C:/Renesas/e2studio_2021_01_workspace_RZA2M_ANPR/ANPR_RZA2M_EBK/src/tensorflow_lite/tensorflow/lite/kernels/internal\common.h ****       array_ptr[i] = ActivationFunctionWithMinMax(array_ptr[i] + bias_data[i],
 127:C:/Renesas/e2studio_2021_01_workspace_RZA2M_ANPR/ANPR_RZA2M_EBK/src/tensorflow_lite/tensorflow/lite/kernels/internal\common.h ****                                                   clamp_min, clamp_max);
 128:C:/Renesas/e2studio_2021_01_workspace_RZA2M_ANPR/ANPR_RZA2M_EBK/src/tensorflow_lite/tensorflow/lite/kernels/internal\common.h ****     }
 129:C:/Renesas/e2studio_2021_01_workspace_RZA2M_ANPR/ANPR_RZA2M_EBK/src/tensorflow_lite/tensorflow/lite/kernels/internal\common.h ****   }
 130:C:/Renesas/e2studio_2021_01_workspace_RZA2M_ANPR/ANPR_RZA2M_EBK/src/tensorflow_lite/tensorflow/lite/kernels/internal\common.h **** #else  // not NEON
 131:C:/Renesas/e2studio_2021_01_workspace_RZA2M_ANPR/ANPR_RZA2M_EBK/src/tensorflow_lite/tensorflow/lite/kernels/internal\common.h ****   for (int array_offset = 0; array_offset < array_size;
 132:C:/Renesas/e2studio_2021_01_workspace_RZA2M_ANPR/ANPR_RZA2M_EBK/src/tensorflow_lite/tensorflow/lite/kernels/internal\common.h ****        array_offset += bias_size) {
 133:C:/Renesas/e2studio_2021_01_workspace_RZA2M_ANPR/ANPR_RZA2M_EBK/src/tensorflow_lite/tensorflow/lite/kernels/internal\common.h ****     for (int i = 0; i < bias_size; i++) {
 134:C:/Renesas/e2studio_2021_01_workspace_RZA2M_ANPR/ANPR_RZA2M_EBK/src/tensorflow_lite/tensorflow/lite/kernels/internal\common.h ****       array_data[array_offset + i] = ActivationFunctionWithMinMax(
 135:C:/Renesas/e2studio_2021_01_workspace_RZA2M_ANPR/ANPR_RZA2M_EBK/src/tensorflow_lite/tensorflow/lite/kernels/internal\common.h ****           array_data[array_offset + i] + bias_data[i], clamp_min, clamp_max);
 136:C:/Renesas/e2studio_2021_01_workspace_RZA2M_ANPR/ANPR_RZA2M_EBK/src/tensorflow_lite/tensorflow/lite/kernels/internal\common.h ****     }
 137:C:/Renesas/e2studio_2021_01_workspace_RZA2M_ANPR/ANPR_RZA2M_EBK/src/tensorflow_lite/tensorflow/lite/kernels/internal\common.h ****   }
 138:C:/Renesas/e2studio_2021_01_workspace_RZA2M_ANPR/ANPR_RZA2M_EBK/src/tensorflow_lite/tensorflow/lite/kernels/internal\common.h **** #endif
 139:C:/Renesas/e2studio_2021_01_workspace_RZA2M_ANPR/ANPR_RZA2M_EBK/src/tensorflow_lite/tensorflow/lite/kernels/internal\common.h **** }
 140:C:/Renesas/e2studio_2021_01_workspace_RZA2M_ANPR/ANPR_RZA2M_EBK/src/tensorflow_lite/tensorflow/lite/kernels/internal\common.h **** 
 141:C:/Renesas/e2studio_2021_01_workspace_RZA2M_ANPR/ANPR_RZA2M_EBK/src/tensorflow_lite/tensorflow/lite/kernels/internal\common.h **** inline int32_t MultiplyByQuantizedMultiplierSmallerThanOneExp(
 142:C:/Renesas/e2studio_2021_01_workspace_RZA2M_ANPR/ANPR_RZA2M_EBK/src/tensorflow_lite/tensorflow/lite/kernels/internal\common.h ****     int32_t x, int32_t quantized_multiplier, int left_shift) {
 143:C:/Renesas/e2studio_2021_01_workspace_RZA2M_ANPR/ANPR_RZA2M_EBK/src/tensorflow_lite/tensorflow/lite/kernels/internal\common.h ****   using gemmlowp::RoundingDivideByPOT;
 144:C:/Renesas/e2studio_2021_01_workspace_RZA2M_ANPR/ANPR_RZA2M_EBK/src/tensorflow_lite/tensorflow/lite/kernels/internal\common.h ****   using gemmlowp::SaturatingRoundingDoublingHighMul;
 145:C:/Renesas/e2studio_2021_01_workspace_RZA2M_ANPR/ANPR_RZA2M_EBK/src/tensorflow_lite/tensorflow/lite/kernels/internal\common.h ****   return RoundingDivideByPOT(
 146:C:/Renesas/e2studio_2021_01_workspace_RZA2M_ANPR/ANPR_RZA2M_EBK/src/tensorflow_lite/tensorflow/lite/kernels/internal\common.h ****       SaturatingRoundingDoublingHighMul(x, quantized_multiplier), -left_shift);
 147:C:/Renesas/e2studio_2021_01_workspace_RZA2M_ANPR/ANPR_RZA2M_EBK/src/tensorflow_lite/tensorflow/lite/kernels/internal\common.h **** }
 148:C:/Renesas/e2studio_2021_01_workspace_RZA2M_ANPR/ANPR_RZA2M_EBK/src/tensorflow_lite/tensorflow/lite/kernels/internal\common.h **** 
 149:C:/Renesas/e2studio_2021_01_workspace_RZA2M_ANPR/ANPR_RZA2M_EBK/src/tensorflow_lite/tensorflow/lite/kernels/internal\common.h **** inline int32_t MultiplyByQuantizedMultiplierGreaterThanOne(
 150:C:/Renesas/e2studio_2021_01_workspace_RZA2M_ANPR/ANPR_RZA2M_EBK/src/tensorflow_lite/tensorflow/lite/kernels/internal\common.h ****     int32_t x, int32_t quantized_multiplier, int left_shift) {
 151:C:/Renesas/e2studio_2021_01_workspace_RZA2M_ANPR/ANPR_RZA2M_EBK/src/tensorflow_lite/tensorflow/lite/kernels/internal\common.h ****   using gemmlowp::SaturatingRoundingDoublingHighMul;
 152:C:/Renesas/e2studio_2021_01_workspace_RZA2M_ANPR/ANPR_RZA2M_EBK/src/tensorflow_lite/tensorflow/lite/kernels/internal\common.h ****   return SaturatingRoundingDoublingHighMul(x * (1 << left_shift),
 153:C:/Renesas/e2studio_2021_01_workspace_RZA2M_ANPR/ANPR_RZA2M_EBK/src/tensorflow_lite/tensorflow/lite/kernels/internal\common.h ****                                            quantized_multiplier);
 154:C:/Renesas/e2studio_2021_01_workspace_RZA2M_ANPR/ANPR_RZA2M_EBK/src/tensorflow_lite/tensorflow/lite/kernels/internal\common.h **** }
 155:C:/Renesas/e2studio_2021_01_workspace_RZA2M_ANPR/ANPR_RZA2M_EBK/src/tensorflow_lite/tensorflow/lite/kernels/internal\common.h **** 
 156:C:/Renesas/e2studio_2021_01_workspace_RZA2M_ANPR/ANPR_RZA2M_EBK/src/tensorflow_lite/tensorflow/lite/kernels/internal\common.h **** inline int32_t MultiplyByQuantizedMultiplier(int32_t x,
 157:C:/Renesas/e2studio_2021_01_workspace_RZA2M_ANPR/ANPR_RZA2M_EBK/src/tensorflow_lite/tensorflow/lite/kernels/internal\common.h ****                                              int32_t quantized_multiplier,
 158:C:/Renesas/e2studio_2021_01_workspace_RZA2M_ANPR/ANPR_RZA2M_EBK/src/tensorflow_lite/tensorflow/lite/kernels/internal\common.h ****                                              int shift) {
 159:C:/Renesas/e2studio_2021_01_workspace_RZA2M_ANPR/ANPR_RZA2M_EBK/src/tensorflow_lite/tensorflow/lite/kernels/internal\common.h ****   using gemmlowp::RoundingDivideByPOT;
 160:C:/Renesas/e2studio_2021_01_workspace_RZA2M_ANPR/ANPR_RZA2M_EBK/src/tensorflow_lite/tensorflow/lite/kernels/internal\common.h ****   using gemmlowp::SaturatingRoundingDoublingHighMul;
 161:C:/Renesas/e2studio_2021_01_workspace_RZA2M_ANPR/ANPR_RZA2M_EBK/src/tensorflow_lite/tensorflow/lite/kernels/internal\common.h ****   int left_shift = shift > 0 ? shift : 0;
 162:C:/Renesas/e2studio_2021_01_workspace_RZA2M_ANPR/ANPR_RZA2M_EBK/src/tensorflow_lite/tensorflow/lite/kernels/internal\common.h ****   int right_shift = shift > 0 ? 0 : -shift;
 1675              		.loc 8 162 0
 1676 0358 000053E3 		cmp	r3, #0
 161:C:/Renesas/e2studio_2021_01_workspace_RZA2M_ANPR/ANPR_RZA2M_EBK/src/tensorflow_lite/tensorflow/lite/kernels/internal\common.h ****   int right_shift = shift > 0 ? 0 : -shift;
 1677              		.loc 8 161 0
 1678 035c C31FC3E1 		bic	r1, r3, r3, asr #31
 1679              		.loc 8 162 0
 1680 0360 003063D2 		rsble	r3, r3, #0
 1681              	.LBE730:
 1682              	.LBE736:
  59:../src/tensorflow_lite/tensorflow/lite/micro/kernels/activations.cc ****                                       data.params.output_multiplier,
 1683              		.loc 1 59 0
 1684 0364 006046E0 		sub	r6, r6, r0
 1685              	.LVL170:
  58:../src/tensorflow_lite/tensorflow/lite/micro/kernels/activations.cc ****         MultiplyByQuantizedMultiplier(val - data.params.input_offset,
 1686              		.loc 1 58 0
 1687 0368 108094E5 		ldr	r8, [r4, #16]
 1688              	.LBB737:
 1689              	.LBB731:
 163:C:/Renesas/e2studio_2021_01_workspace_RZA2M_ANPR/ANPR_RZA2M_EBK/src/tensorflow_lite/tensorflow/lite/kernels/internal\common.h ****   return RoundingDivideByPOT(SaturatingRoundingDoublingHighMul(
 1690              		.loc 8 163 0
 1691 036c 1661A0E1 		lsl	r6, r6, r1
 1692              	.LVL171:
 162:C:/Renesas/e2studio_2021_01_workspace_RZA2M_ANPR/ANPR_RZA2M_EBK/src/tensorflow_lite/tensorflow/lite/kernels/internal\common.h ****   return RoundingDivideByPOT(SaturatingRoundingDoublingHighMul(
 1693              		.loc 8 162 0
 1694 0370 0030A0C3 		movgt	r3, #0
 1695              	.LVL172:
 1696              	.LBB725:
 1697              	.LBB720:
 334:C:/Renesas/e2studio_2021_01_workspace_RZA2M_ANPR/ANPR_RZA2M_EBK/src/tensorflow_lite/third_party/gemmlowp/fixedpoint\fixedpoint.h ****   std::int32_t nudge = ab_64 >= 0 ? (1 << 30) : (1 - (1 << 30));
 1698              		.loc 7 334 0
 1699 0374 9609C1E0 		smull	r0, r1, r6, r9
 1700              	.LVL173:
 331:C:/Renesas/e2studio_2021_01_workspace_RZA2M_ANPR/ANPR_RZA2M_EBK/src/tensorflow_lite/third_party/gemmlowp/fixedpoint\fixedpoint.h ****   std::int64_t a_64(a);
 1701              		.loc 7 331 0
 1702 0378 060059E1 		cmp	r9, r6
 1703 037c 02015603 		cmpeq	r6, #-2147483648
 1704 0380 0190A003 		moveq	r9, #1
 1705              	.LVL174:
 1706 0384 0090A013 		movne	r9, #0
 1707              	.LVL175:
 335:C:/Renesas/e2studio_2021_01_workspace_RZA2M_ANPR/ANPR_RZA2M_EBK/src/tensorflow_lite/third_party/gemmlowp/fixedpoint\fixedpoint.h ****   std::int32_t ab_x2_high32 =
 1708              		.loc 7 335 0
 1709 0388 000050E3 		cmp	r0, #0
 1710 038c 0060D1E2 		sbcs	r6, r1, #0
 1711              	.LVL176:
 1712 0390 DA0100BA 		blt	.L240
 1713 0394 0161A0E3 		mov	r6, #1073741824
 1714 0398 0070A0E3 		mov	r7, #0
 1715              	.L161:
 1716              	.LVL177:
 338:C:/Renesas/e2studio_2021_01_workspace_RZA2M_ANPR/ANPR_RZA2M_EBK/src/tensorflow_lite/third_party/gemmlowp/fixedpoint\fixedpoint.h **** }
 1717              		.loc 7 338 0
 1718 039c 000059E3 		cmp	r9, #0
 1719 03a0 C7FFFF0A 		beq	.L351
 1720 03a4 0201E0E3 		mvn	r0, #-2147483648
 1721              	.LVL178:
 1722 03a8 CEFFFFEA 		b	.L206
 1723              	.L386:
 1724 03ac 00F020E3 		.align	3
 1725              	.L385:
 1726 03b0 01000000 		.word	1
 1727 03b4 00000000 		.word	0
 1728 03b8 00000000 		.word	0
 1729              	.LVL179:
 1730              	.L380:
 1731              	.LBE720:
 1732              	.LBE725:
 1733              	.LBE731:
 1734              	.LBE737:
 1735              	.LBE742:
 1736              	.LBE746:
 1737              	.LBE637:
 1738              	.LBE636:
 166:../src/tensorflow_lite/tensorflow/lite/micro/kernels/activations.cc ****                 tflite::micro::GetTensorData<float>(input),
 1739              		.loc 1 166 0
 1740 03bc 0710A0E1 		mov	r1, r7
 1741 03c0 0D00A0E1 		mov	r0, sp
 1742              	.LEHB11:
 1743 03c4 FEFFFFEB 		bl	_ZN6tflite5micro14GetTensorShapeEPK16TfLiteEvalTensor
 1744              	.LVL180:
 1745              	.LEHE11:
 168:../src/tensorflow_lite/tensorflow/lite/micro/kernels/activations.cc ****                 tflite::micro::GetTensorData<float>(output));
 1746              		.loc 1 168 0
 1747 03c8 0510A0E1 		mov	r1, r5
 1748 03cc 18008DE2 		add	r0, sp, #24
 1749              	.LBB763:
 1750              	.LBB764:
 1751              		.loc 6 63 0
 1752 03d0 004097E5 		ldr	r4, [r7]
 1753              	.LVL181:
 1754              	.LEHB12:
 1755              	.LBE764:
 1756              	.LBE763:
 168:../src/tensorflow_lite/tensorflow/lite/micro/kernels/activations.cc ****                 tflite::micro::GetTensorData<float>(output));
 1757              		.loc 1 168 0
 1758 03d4 FEFFFFEB 		bl	_ZN6tflite5micro14GetTensorShapeEPK16TfLiteEvalTensor
 1759              	.LVL182:
 1760              	.LEHE12:
 1761 03d8 00209DE5 		ldr	r2, [sp]
 1762              	.LBB765:
 1763              	.LBB766:
  56:C:/Renesas/e2studio_2021_01_workspace_RZA2M_ANPR/ANPR_RZA2M_EBK/src/tensorflow_lite/tensorflow/lite/micro/kernels\kernel_util.h **** }
 1764              		.loc 6 56 0
 1765 03dc 000055E3 		cmp	r5, #0
 1766 03e0 18C09DE5 		ldr	ip, [sp, #24]
 1767 03e4 00509515 		ldrne	r5, [r5]
 1768              	.LVL183:
 1769              	.LBE766:
 1770              	.LBE765:
 1771              	.LBB767:
 1772              	.LBB768:
 1773              	.LBB769:
 1774              	.LBB770:
 521:C:/Renesas/e2studio_2021_01_workspace_RZA2M_ANPR/ANPR_RZA2M_EBK/src/tensorflow_lite/tensorflow/lite/kernels/internal\types.h ****   const int dims_count = shape.DimensionsCount();
 1775              		.loc 5 521 0
 1776 03e8 0C0052E1 		cmp	r2, ip
 1777 03ec 1102001A 		bne	.L107
 1778              	.LVL184:
 1779              	.LBB771:
 523:C:/Renesas/e2studio_2021_01_workspace_RZA2M_ANPR/ANPR_RZA2M_EBK/src/tensorflow_lite/tensorflow/lite/kernels/internal\types.h ****     TFLITE_DCHECK_EQ(shape.Dims(i), check_shape_0.Dims(i));
 1780              		.loc 5 523 0
 1781 03f0 000052E3 		cmp	r2, #0
 1782 03f4 F20100DA 		ble	.L212
 1783 03f8 050052E3 		cmp	r2, #5
 1784              	.LBB772:
 1785              	.LBB773:
 216:C:/Renesas/e2studio_2021_01_workspace_RZA2M_ANPR/ANPR_RZA2M_EBK/src/tensorflow_lite/tensorflow/lite/kernels/internal\types.h ****   }
 1786              		.loc 5 216 0
 1787 03fc 04709DE5 		ldr	r7, [sp, #4]
 1788              	.LBE773:
 1789              	.LBE772:
 1790              	.LBB779:
 1791              	.LBB780:
 1792 0400 1C109DE5 		ldr	r1, [sp, #28]
 1793 0404 8D0100CA 		bgt	.L110
 1794              	.LVL185:
 215:C:/Renesas/e2studio_2021_01_workspace_RZA2M_ANPR/ANPR_RZA2M_EBK/src/tensorflow_lite/tensorflow/lite/kernels/internal\types.h ****     return size_ > kMaxSmallSize ? dims_pointer_[i] : dims_[i];
 1795              		.loc 5 215 0
 1796 0408 000052E3 		cmp	r2, #0
 1797 040c 980100DA 		ble	.L111
 1798              	.LVL186:
 1799              	.LBE780:
 1800              	.LBE779:
 1801              		.loc 5 524 0
 1802 0410 010057E1 		cmp	r7, r1
 1803 0414 ED01001A 		bne	.L112
 1804              	.LVL187:
 523:C:/Renesas/e2studio_2021_01_workspace_RZA2M_ANPR/ANPR_RZA2M_EBK/src/tensorflow_lite/tensorflow/lite/kernels/internal\types.h ****     TFLITE_DCHECK_EQ(shape.Dims(i), check_shape_0.Dims(i));
 1805              		.loc 5 523 0
 1806 0418 010052E3 		cmp	r2, #1
 1807 041c CC01000A 		beq	.L309
 1808              	.LVL188:
 1809              	.LBB788:
 1810              	.LBB774:
 216:C:/Renesas/e2studio_2021_01_workspace_RZA2M_ANPR/ANPR_RZA2M_EBK/src/tensorflow_lite/tensorflow/lite/kernels/internal\types.h ****   }
 1811              		.loc 5 216 0
 1812 0420 08109DE5 		ldr	r1, [sp, #8]
 1813              	.LVL189:
 1814              	.LBE774:
 1815              	.LBE788:
 1816              		.loc 5 524 0
 1817 0424 20309DE5 		ldr	r3, [sp, #32]
 1818 0428 030051E1 		cmp	r1, r3
 1819 042c E701001A 		bne	.L112
 1820              	.LVL190:
 523:C:/Renesas/e2studio_2021_01_workspace_RZA2M_ANPR/ANPR_RZA2M_EBK/src/tensorflow_lite/tensorflow/lite/kernels/internal\types.h ****     TFLITE_DCHECK_EQ(shape.Dims(i), check_shape_0.Dims(i));
 1821              		.loc 5 523 0
 1822 0430 020052E3 		cmp	r2, #2
 1823 0434 C601000A 		beq	.L309
 1824              	.LVL191:
 1825              	.LBB789:
 1826              	.LBB775:
 216:C:/Renesas/e2studio_2021_01_workspace_RZA2M_ANPR/ANPR_RZA2M_EBK/src/tensorflow_lite/tensorflow/lite/kernels/internal\types.h ****   }
 1827              		.loc 5 216 0
 1828 0438 0C109DE5 		ldr	r1, [sp, #12]
 1829              	.LVL192:
 1830              	.LBE775:
 1831              	.LBE789:
 1832              		.loc 5 524 0
 1833 043c 24309DE5 		ldr	r3, [sp, #36]
 1834 0440 030051E1 		cmp	r1, r3
 1835 0444 E101001A 		bne	.L112
 1836              	.LVL193:
 523:C:/Renesas/e2studio_2021_01_workspace_RZA2M_ANPR/ANPR_RZA2M_EBK/src/tensorflow_lite/tensorflow/lite/kernels/internal\types.h ****     TFLITE_DCHECK_EQ(shape.Dims(i), check_shape_0.Dims(i));
 1837              		.loc 5 523 0
 1838 0448 030052E3 		cmp	r2, #3
 1839 044c C001000A 		beq	.L309
 1840              	.LVL194:
 1841              	.LBB790:
 1842              	.LBB781:
 215:C:/Renesas/e2studio_2021_01_workspace_RZA2M_ANPR/ANPR_RZA2M_EBK/src/tensorflow_lite/tensorflow/lite/kernels/internal\types.h ****     return size_ > kMaxSmallSize ? dims_pointer_[i] : dims_[i];
 1843              		.loc 5 215 0
 1844 0450 03005CE3 		cmp	ip, #3
 1845              	.LBE781:
 1846              	.LBE790:
 1847              	.LBB791:
 1848              	.LBB776:
 216:C:/Renesas/e2studio_2021_01_workspace_RZA2M_ANPR/ANPR_RZA2M_EBK/src/tensorflow_lite/tensorflow/lite/kernels/internal\types.h ****   }
 1849              		.loc 5 216 0
 1850 0454 10109DE5 		ldr	r1, [sp, #16]
 1851              	.LVL195:
 1852              	.LBE776:
 1853              	.LBE791:
 1854              	.LBB792:
 1855              	.LBB782:
 215:C:/Renesas/e2studio_2021_01_workspace_RZA2M_ANPR/ANPR_RZA2M_EBK/src/tensorflow_lite/tensorflow/lite/kernels/internal\types.h ****     return size_ > kMaxSmallSize ? dims_pointer_[i] : dims_[i];
 1856              		.loc 5 215 0
 1857 0458 8501000A 		beq	.L111
 1858              	.LVL196:
 1859              	.LBE782:
 1860              	.LBE792:
 1861              		.loc 5 524 0
 1862 045c 28309DE5 		ldr	r3, [sp, #40]
 1863 0460 030051E1 		cmp	r1, r3
 1864 0464 D901001A 		bne	.L112
 1865              	.LVL197:
 523:C:/Renesas/e2studio_2021_01_workspace_RZA2M_ANPR/ANPR_RZA2M_EBK/src/tensorflow_lite/tensorflow/lite/kernels/internal\types.h ****     TFLITE_DCHECK_EQ(shape.Dims(i), check_shape_0.Dims(i));
 1866              		.loc 5 523 0
 1867 0468 040052E3 		cmp	r2, #4
 1868 046c B801000A 		beq	.L309
 1869              	.LVL198:
 1870              	.LBB793:
 1871              	.LBB783:
 215:C:/Renesas/e2studio_2021_01_workspace_RZA2M_ANPR/ANPR_RZA2M_EBK/src/tensorflow_lite/tensorflow/lite/kernels/internal\types.h ****     return size_ > kMaxSmallSize ? dims_pointer_[i] : dims_[i];
 1872              		.loc 5 215 0
 1873 0470 04005CE3 		cmp	ip, #4
 1874              	.LBE783:
 1875              	.LBE793:
 1876              	.LBB794:
 1877              	.LBB777:
 216:C:/Renesas/e2studio_2021_01_workspace_RZA2M_ANPR/ANPR_RZA2M_EBK/src/tensorflow_lite/tensorflow/lite/kernels/internal\types.h ****   }
 1878              		.loc 5 216 0
 1879 0474 14109DE5 		ldr	r1, [sp, #20]
 1880              	.LVL199:
 1881              	.LBE777:
 1882              	.LBE794:
 1883              	.LBB795:
 1884              	.LBB784:
 215:C:/Renesas/e2studio_2021_01_workspace_RZA2M_ANPR/ANPR_RZA2M_EBK/src/tensorflow_lite/tensorflow/lite/kernels/internal\types.h ****     return size_ > kMaxSmallSize ? dims_pointer_[i] : dims_[i];
 1885              		.loc 5 215 0
 1886 0478 7D01000A 		beq	.L111
 1887              	.LVL200:
 1888              	.LBE784:
 1889              	.LBE795:
 1890              		.loc 5 524 0
 1891 047c 2C309DE5 		ldr	r3, [sp, #44]
 1892 0480 030051E1 		cmp	r1, r3
 1893 0484 D101001A 		bne	.L112
 1894              	.LVL201:
 1895              	.L113:
 1896              	.LBE771:
 1897              	.LBB800:
 1898              	.LBB801:
 1899              	.LBB802:
 1900              	.LBB803:
 232:C:/Renesas/e2studio_2021_01_workspace_RZA2M_ANPR/ANPR_RZA2M_EBK/src/tensorflow_lite/tensorflow/lite/kernels/internal\types.h ****   }
 1901              		.loc 5 232 0
 1902 0488 050052E3 		cmp	r2, #5
 1903 048c 0760A0C1 		movgt	r6, r7
 1904 0490 AD0100DA 		ble	.L382
 1905              	.LVL202:
 1906              	.L117:
 1907 0494 5631A0E7 		sbfx	r3, r6, #2, #1
 1908 0498 033003E2 		and	r3, r3, #3
 1909 049c 020053E1 		cmp	r3, r2
 1910 04a0 0230A021 		movcs	r3, r2
 1911 04a4 080052E3 		cmp	r2, #8
 1912              	.LBE803:
 1913              	.LBE802:
 1914              	.LBB804:
 292:C:/Renesas/e2studio_2021_01_workspace_RZA2M_ANPR/ANPR_RZA2M_EBK/src/tensorflow_lite/tensorflow/lite/kernels/internal\types.h ****       buffer_size *= dims_data[i];
 1915              		.loc 5 292 0
 1916 04a8 0230A0D1 		movle	r3, r2
 1917 04ac AD0100CA 		bgt	.L383
 1918              	.L122:
 1919 04b0 010053E3 		cmp	r3, #1
 293:C:/Renesas/e2studio_2021_01_workspace_RZA2M_ANPR/ANPR_RZA2M_EBK/src/tensorflow_lite/tensorflow/lite/kernels/internal\types.h ****     }
 1920              		.loc 5 293 0
 1921 04b4 000096E5 		ldr	r0, [r6]
 1922              	.LVL203:
 1923 04b8 9F01000A 		beq	.L221
 1924 04bc 041096E5 		ldr	r1, [r6, #4]
 1925 04c0 020053E3 		cmp	r3, #2
 1926 04c4 910000E0 		mul	r0, r1, r0
 1927              	.LVL204:
 1928 04c8 9B01000A 		beq	.L221
 1929 04cc 081096E5 		ldr	r1, [r6, #8]
 1930 04d0 030053E3 		cmp	r3, #3
 1931 04d4 910000E0 		mul	r0, r1, r0
 1932              	.LVL205:
 1933 04d8 9701000A 		beq	.L221
 1934 04dc 0C1096E5 		ldr	r1, [r6, #12]
 1935 04e0 040053E3 		cmp	r3, #4
 1936 04e4 910000E0 		mul	r0, r1, r0
 1937              	.LVL206:
 1938 04e8 9301000A 		beq	.L221
 1939 04ec 101096E5 		ldr	r1, [r6, #16]
 1940 04f0 050053E3 		cmp	r3, #5
 1941 04f4 910000E0 		mul	r0, r1, r0
 1942              	.LVL207:
 1943 04f8 8F01000A 		beq	.L221
 1944 04fc 141096E5 		ldr	r1, [r6, #20]
 1945 0500 060053E3 		cmp	r3, #6
 1946 0504 910000E0 		mul	r0, r1, r0
 1947              	.LVL208:
 1948 0508 8B01000A 		beq	.L221
 1949 050c 181096E5 		ldr	r1, [r6, #24]
 1950 0510 070053E3 		cmp	r3, #7
 1951 0514 910000E0 		mul	r0, r1, r0
 1952              	.LVL209:
 1953 0518 8701000A 		beq	.L221
 1954 051c 1CE096E5 		ldr	lr, [r6, #28]
 292:C:/Renesas/e2studio_2021_01_workspace_RZA2M_ANPR/ANPR_RZA2M_EBK/src/tensorflow_lite/tensorflow/lite/kernels/internal\types.h ****       buffer_size *= dims_data[i];
 1955              		.loc 5 292 0
 1956 0520 0810A0E3 		mov	r1, #8
 293:C:/Renesas/e2studio_2021_01_workspace_RZA2M_ANPR/ANPR_RZA2M_EBK/src/tensorflow_lite/tensorflow/lite/kernels/internal\types.h ****     }
 1957              		.loc 5 293 0
 1958 0524 9E0000E0 		mul	r0, lr, r0
 1959              	.LVL210:
 1960              	.L124:
 1961 0528 030052E1 		cmp	r2, r3
 1962 052c 2800000A 		beq	.L125
 1963              	.LVL211:
 1964              	.L123:
 1965 0530 038042E0 		sub	r8, r2, r3
 1966 0534 017042E2 		sub	r7, r2, #1
 1967 0538 04E048E2 		sub	lr, r8, #4
 1968 053c 037047E0 		sub	r7, r7, r3
 1969 0540 2EE1A0E1 		lsr	lr, lr, #2
 1970 0544 020057E3 		cmp	r7, #2
 1971 0548 01E08EE2 		add	lr, lr, #1
 1972 054c 0E91A0E1 		lsl	r9, lr, #2
 1973 0550 1200009A 		bls	.L126
 1974 0554 033186E0 		add	r3, r6, r3, lsl #2
 292:C:/Renesas/e2studio_2021_01_workspace_RZA2M_ANPR/ANPR_RZA2M_EBK/src/tensorflow_lite/tensorflow/lite/kernels/internal\types.h ****       buffer_size *= dims_data[i];
 1975              		.loc 5 292 0
 1976 0558 5120C0F2 		vmov.i32	q9, #1  @ v4si
 1977 055c 0070A0E3 		mov	r7, #0
 1978              	.L128:
 1979 0560 017087E2 		add	r7, r7, #1
 293:C:/Renesas/e2studio_2021_01_workspace_RZA2M_ANPR/ANPR_RZA2M_EBK/src/tensorflow_lite/tensorflow/lite/kernels/internal\types.h ****     }
 1980              		.loc 5 293 0
 1981 0564 DF0A63F4 		vld1.64	{d16-d17}, [r3:64]
 1982 0568 07005EE1 		cmp	lr, r7
 1983 056c 103083E2 		add	r3, r3, #16
 1984 0570 F02962F2 		vmul.i32	q9, q9, q8
 1985 0574 F9FFFF8A 		bhi	.L128
 1986 0578 090058E1 		cmp	r8, r9
 1987 057c 091081E0 		add	r1, r1, r9
 1988 0580 5000C0F2 		vmov.i32	q8, #0  @ v4si
 1989 0584 E048F2F2 		vext.32	q10, q9, q8, #2
 1990 0588 F22964F2 		vmul.i32	q9, q10, q9
 1991 058c E004F2F2 		vext.32	q8, q9, q8, #1
 1992 0590 F20960F2 		vmul.i32	q8, q8, q9
 1993 0594 903B10EE 		vmov.32	r3, d16[0]
 1994 0598 930000E0 		mul	r0, r3, r0
 1995 059c 0C00000A 		beq	.L125
 1996              	.L126:
 1997              	.LVL212:
 1998 05a0 01E196E7 		ldr	lr, [r6, r1, lsl #2]
 292:C:/Renesas/e2studio_2021_01_workspace_RZA2M_ANPR/ANPR_RZA2M_EBK/src/tensorflow_lite/tensorflow/lite/kernels/internal\types.h ****       buffer_size *= dims_data[i];
 1999              		.loc 5 292 0
 2000 05a4 013081E2 		add	r3, r1, #1
 2001 05a8 020053E1 		cmp	r3, r2
 293:C:/Renesas/e2studio_2021_01_workspace_RZA2M_ANPR/ANPR_RZA2M_EBK/src/tensorflow_lite/tensorflow/lite/kernels/internal\types.h ****     }
 2002              		.loc 5 293 0
 2003 05ac 0131A0E1 		lsl	r3, r1, #2
 2004 05b0 9E0000E0 		mul	r0, lr, r0
 2005              	.LVL213:
 292:C:/Renesas/e2studio_2021_01_workspace_RZA2M_ANPR/ANPR_RZA2M_EBK/src/tensorflow_lite/tensorflow/lite/kernels/internal\types.h ****       buffer_size *= dims_data[i];
 2006              		.loc 5 292 0
 2007 05b4 060000AA 		bge	.L125
 293:C:/Renesas/e2studio_2021_01_workspace_RZA2M_ANPR/ANPR_RZA2M_EBK/src/tensorflow_lite/tensorflow/lite/kernels/internal\types.h ****     }
 2008              		.loc 5 293 0
 2009 05b8 033086E0 		add	r3, r6, r3
 292:C:/Renesas/e2studio_2021_01_workspace_RZA2M_ANPR/ANPR_RZA2M_EBK/src/tensorflow_lite/tensorflow/lite/kernels/internal\types.h ****       buffer_size *= dims_data[i];
 2010              		.loc 5 292 0
 2011 05bc 021081E2 		add	r1, r1, #2
 293:C:/Renesas/e2studio_2021_01_workspace_RZA2M_ANPR/ANPR_RZA2M_EBK/src/tensorflow_lite/tensorflow/lite/kernels/internal\types.h ****     }
 2012              		.loc 5 293 0
 2013 05c0 04E093E5 		ldr	lr, [r3, #4]
 292:C:/Renesas/e2studio_2021_01_workspace_RZA2M_ANPR/ANPR_RZA2M_EBK/src/tensorflow_lite/tensorflow/lite/kernels/internal\types.h ****       buffer_size *= dims_data[i];
 2014              		.loc 5 292 0
 2015 05c4 010052E1 		cmp	r2, r1
 293:C:/Renesas/e2studio_2021_01_workspace_RZA2M_ANPR/ANPR_RZA2M_EBK/src/tensorflow_lite/tensorflow/lite/kernels/internal\types.h ****     }
 2016              		.loc 5 293 0
 2017 05c8 9E0000E0 		mul	r0, lr, r0
 2018              	.LVL214:
 292:C:/Renesas/e2studio_2021_01_workspace_RZA2M_ANPR/ANPR_RZA2M_EBK/src/tensorflow_lite/tensorflow/lite/kernels/internal\types.h ****       buffer_size *= dims_data[i];
 2019              		.loc 5 292 0
 293:C:/Renesas/e2studio_2021_01_workspace_RZA2M_ANPR/ANPR_RZA2M_EBK/src/tensorflow_lite/tensorflow/lite/kernels/internal\types.h ****     }
 2020              		.loc 5 293 0
 2021 05cc 083093C5 		ldrgt	r3, [r3, #8]
 2022 05d0 930000C0 		mulgt	r0, r3, r0
 2023              	.LVL215:
 2024              	.L125:
 2025              	.LBE804:
 2026              	.LBE801:
 2027              	.LBE800:
 2028              	.LBE770:
 2029              	.LBE769:
 2030              	.LBB825:
 100:../src/tensorflow_lite/tensorflow/lite/micro/kernels/activations.cc ****     const float val = input_data[i];
 2031              		.loc 1 100 0
 2032 05d4 000050E3 		cmp	r0, #0
 2033 05d8 420000DA 		ble	.L133
 2034 05dc 080050E3 		cmp	r0, #8
 2035 05e0 920100DA 		ble	.L222
 2036 05e4 09E040E2 		sub	lr, r0, #9
 2037              	.LBB826:
 104:../src/tensorflow_lite/tensorflow/lite/micro/kernels/activations.cc ****   }
 2038              		.loc 1 104 0
 2039 05e8 8E7A5FED 		vldr.32	s15, .L385+8
 2040 05ec 07E0CEE3 		bic	lr, lr, #7
 2041 05f0 5C3084E2 		add	r3, r4, #92
 2042 05f4 08E08EE2 		add	lr, lr, #8
 2043 05f8 0520A0E1 		mov	r2, r5
 2044              	.LBE826:
 100:../src/tensorflow_lite/tensorflow/lite/micro/kernels/activations.cc ****     const float val = input_data[i];
 2045              		.loc 1 100 0
 2046 05fc 0010A0E3 		mov	r1, #0
 2047              	.LVL216:
 2048              	.L132:
 2049              	.LBB827:
 101:../src/tensorflow_lite/tensorflow/lite/micro/kernels/activations.cc ****     const float lower = 0.0f;
 2050              		.loc 1 101 0
 2051 0600 177A13ED 		vldr.32	s14, [r3, #-92]
 2052              	.LVL217:
 2053 0604 081081E2 		add	r1, r1, #8
 2054 0608 00F0D3F5 		pld	[r3]
 2055 060c 202082E2 		add	r2, r2, #32
 2056 0610 203083E2 		add	r3, r3, #32
 104:../src/tensorflow_lite/tensorflow/lite/micro/kernels/activations.cc ****   }
 2057              		.loc 1 104 0
 2058 0614 C07AB5EE 		vcmpe.f32	s14, #0
 2059 0618 10FAF1EE 		vmrs	APSR_nzcv, FPSCR
 2060 061c 677AB04E 		vmovmi.f32	s14, s15
 2061              	.LVL218:
 2062 0620 087A02ED 		vstr.32	s14, [r2, #-32]
 2063              	.LVL219:
 101:../src/tensorflow_lite/tensorflow/lite/micro/kernels/activations.cc ****     const float lower = 0.0f;
 2064              		.loc 1 101 0
 2065 0624 1E7A13ED 		vldr.32	s14, [r3, #-120]
 2066              	.LVL220:
 104:../src/tensorflow_lite/tensorflow/lite/micro/kernels/activations.cc ****   }
 2067              		.loc 1 104 0
 2068 0628 C07AB5EE 		vcmpe.f32	s14, #0
 2069 062c 10FAF1EE 		vmrs	APSR_nzcv, FPSCR
 2070 0630 677AB04E 		vmovmi.f32	s14, s15
 2071              	.LVL221:
 2072 0634 077A02ED 		vstr.32	s14, [r2, #-28]
 2073              	.LVL222:
 101:../src/tensorflow_lite/tensorflow/lite/micro/kernels/activations.cc ****     const float lower = 0.0f;
 2074              		.loc 1 101 0
 2075 0638 1D7A13ED 		vldr.32	s14, [r3, #-116]
 2076              	.LVL223:
 104:../src/tensorflow_lite/tensorflow/lite/micro/kernels/activations.cc ****   }
 2077              		.loc 1 104 0
 2078 063c C07AB5EE 		vcmpe.f32	s14, #0
 2079 0640 10FAF1EE 		vmrs	APSR_nzcv, FPSCR
 2080 0644 677AB04E 		vmovmi.f32	s14, s15
 2081              	.LVL224:
 2082 0648 067A02ED 		vstr.32	s14, [r2, #-24]
 2083              	.LVL225:
 101:../src/tensorflow_lite/tensorflow/lite/micro/kernels/activations.cc ****     const float lower = 0.0f;
 2084              		.loc 1 101 0
 2085 064c 1C7A13ED 		vldr.32	s14, [r3, #-112]
 2086              	.LVL226:
 104:../src/tensorflow_lite/tensorflow/lite/micro/kernels/activations.cc ****   }
 2087              		.loc 1 104 0
 2088 0650 C07AB5EE 		vcmpe.f32	s14, #0
 2089 0654 10FAF1EE 		vmrs	APSR_nzcv, FPSCR
 2090 0658 677AB04E 		vmovmi.f32	s14, s15
 2091              	.LVL227:
 2092 065c 057A02ED 		vstr.32	s14, [r2, #-20]
 2093              	.LVL228:
 101:../src/tensorflow_lite/tensorflow/lite/micro/kernels/activations.cc ****     const float lower = 0.0f;
 2094              		.loc 1 101 0
 2095 0660 1B7A13ED 		vldr.32	s14, [r3, #-108]
 2096              	.LVL229:
 104:../src/tensorflow_lite/tensorflow/lite/micro/kernels/activations.cc ****   }
 2097              		.loc 1 104 0
 2098 0664 C07AB5EE 		vcmpe.f32	s14, #0
 2099 0668 10FAF1EE 		vmrs	APSR_nzcv, FPSCR
 2100 066c 677AB04E 		vmovmi.f32	s14, s15
 2101              	.LVL230:
 2102 0670 047A02ED 		vstr.32	s14, [r2, #-16]
 2103              	.LVL231:
 101:../src/tensorflow_lite/tensorflow/lite/micro/kernels/activations.cc ****     const float lower = 0.0f;
 2104              		.loc 1 101 0
 2105 0674 1A7A13ED 		vldr.32	s14, [r3, #-104]
 2106              	.LVL232:
 104:../src/tensorflow_lite/tensorflow/lite/micro/kernels/activations.cc ****   }
 2107              		.loc 1 104 0
 2108 0678 C07AB5EE 		vcmpe.f32	s14, #0
 2109 067c 10FAF1EE 		vmrs	APSR_nzcv, FPSCR
 2110 0680 677AB04E 		vmovmi.f32	s14, s15
 2111              	.LVL233:
 2112 0684 037A02ED 		vstr.32	s14, [r2, #-12]
 2113              	.LVL234:
 101:../src/tensorflow_lite/tensorflow/lite/micro/kernels/activations.cc ****     const float lower = 0.0f;
 2114              		.loc 1 101 0
 2115 0688 197A13ED 		vldr.32	s14, [r3, #-100]
 2116              	.LVL235:
 104:../src/tensorflow_lite/tensorflow/lite/micro/kernels/activations.cc ****   }
 2117              		.loc 1 104 0
 2118 068c C07AB5EE 		vcmpe.f32	s14, #0
 2119 0690 10FAF1EE 		vmrs	APSR_nzcv, FPSCR
 2120 0694 677AB04E 		vmovmi.f32	s14, s15
 2121              	.LVL236:
 2122 0698 027A02ED 		vstr.32	s14, [r2, #-8]
 2123              	.LVL237:
 101:../src/tensorflow_lite/tensorflow/lite/micro/kernels/activations.cc ****     const float lower = 0.0f;
 2124              		.loc 1 101 0
 2125 069c 187A13ED 		vldr.32	s14, [r3, #-96]
 2126              	.LVL238:
 104:../src/tensorflow_lite/tensorflow/lite/micro/kernels/activations.cc ****   }
 2127              		.loc 1 104 0
 2128 06a0 C07AB5EE 		vcmpe.f32	s14, #0
 2129 06a4 10FAF1EE 		vmrs	APSR_nzcv, FPSCR
 2130 06a8 677AB04E 		vmovmi.f32	s14, s15
 2131              	.LVL239:
 2132 06ac 0E0051E1 		cmp	r1, lr
 2133 06b0 017A02ED 		vstr.32	s14, [r2, #-4]
 2134              	.LVL240:
 2135 06b4 D1FFFF1A 		bne	.L132
 2136              	.LVL241:
 2137              	.L118:
 2138 06b8 0131A0E1 		lsl	r3, r1, #2
 2139 06bc C37A1FED 		vldr.32	s14, .L385+8
 2140 06c0 032084E0 		add	r2, r4, r3
 2141 06c4 033085E0 		add	r3, r5, r3
 2142              	.L134:
 101:../src/tensorflow_lite/tensorflow/lite/micro/kernels/activations.cc ****     const float lower = 0.0f;
 2143              		.loc 1 101 0
 2144 06c8 017AF2EC 		vldmia.32	r2!, {s15}
 2145              	.LVL242:
 2146              	.LBE827:
 100:../src/tensorflow_lite/tensorflow/lite/micro/kernels/activations.cc ****     const float val = input_data[i];
 2147              		.loc 1 100 0
 2148 06cc 011081E2 		add	r1, r1, #1
 2149              	.LVL243:
 2150              	.LBB828:
 104:../src/tensorflow_lite/tensorflow/lite/micro/kernels/activations.cc ****   }
 2151              		.loc 1 104 0
 2152 06d0 C07AF5EE 		vcmpe.f32	s15, #0
 2153 06d4 10FAF1EE 		vmrs	APSR_nzcv, FPSCR
 2154 06d8 477AF04E 		vmovmi.f32	s15, s14
 2155              	.LVL244:
 2156              	.LBE828:
 100:../src/tensorflow_lite/tensorflow/lite/micro/kernels/activations.cc ****     const float val = input_data[i];
 2157              		.loc 1 100 0
 2158 06dc 000051E1 		cmp	r1, r0
 2159              	.LBB829:
 104:../src/tensorflow_lite/tensorflow/lite/micro/kernels/activations.cc ****   }
 2160              		.loc 1 104 0
 2161 06e0 017AE3EC 		vstmia.32	r3!, {s15}
 2162              	.LVL245:
 2163              	.LBE829:
 100:../src/tensorflow_lite/tensorflow/lite/micro/kernels/activations.cc ****     const float val = input_data[i];
 2164              		.loc 1 100 0
 2165 06e4 F7FFFFBA 		blt	.L134
 2166              	.LVL246:
 2167              	.L133:
 2168              	.LBE825:
 2169              	.LBE768:
 2170              	.LBE767:
 2171              	.LBB843:
 2172              	.LBB844:
 203:C:/Renesas/e2studio_2021_01_workspace_RZA2M_ANPR/ANPR_RZA2M_EBK/src/tensorflow_lite/tensorflow/lite/kernels/internal\types.h **** #ifdef TF_LITE_STATIC_MEMORY
 2173              		.loc 5 203 0
 2174 06e8 05005CE3 		cmp	ip, #5
 2175 06ec 0A0000DA 		ble	.L193
 207:C:/Renesas/e2studio_2021_01_workspace_RZA2M_ANPR/ANPR_RZA2M_EBK/src/tensorflow_lite/tensorflow/lite/kernels/internal\types.h **** #endif  // TF_LITE_STATIC_MEMORY
 2176              		.loc 5 207 0
 2177 06f0 1C009DE5 		ldr	r0, [sp, #28]
 2178 06f4 000050E3 		cmp	r0, #0
 2179 06f8 0300000A 		beq	.L357
 2180              	.LVL247:
 2181              	.L364:
 2182              	.LBE844:
 2183              	.LBE843:
 2184              	.LBB845:
 2185              	.LBB846:
 2186 06fc FEFFFFEB 		bl	_ZdaPv
 2187              	.LVL248:
 2188              	.L192:
 2189              	.LBE846:
 2190              	.LBE845:
 2191              	.LBB848:
 2192              	.LBB849:
 203:C:/Renesas/e2studio_2021_01_workspace_RZA2M_ANPR/ANPR_RZA2M_EBK/src/tensorflow_lite/tensorflow/lite/kernels/internal\types.h **** #ifdef TF_LITE_STATIC_MEMORY
 2193              		.loc 5 203 0
 2194 0700 00309DE5 		ldr	r3, [sp]
 2195 0704 050053E3 		cmp	r3, #5
 2196 0708 030000DA 		ble	.L193
 2197              	.LVL249:
 2198              	.L357:
 207:C:/Renesas/e2studio_2021_01_workspace_RZA2M_ANPR/ANPR_RZA2M_EBK/src/tensorflow_lite/tensorflow/lite/kernels/internal\types.h **** #endif  // TF_LITE_STATIC_MEMORY
 2199              		.loc 5 207 0
 2200 070c 04009DE5 		ldr	r0, [sp, #4]
 2201 0710 000050E3 		cmp	r0, #0
 2202 0714 0000000A 		beq	.L193
 2203 0718 FEFFFFEB 		bl	_ZdaPv
 2204              	.LVL250:
 2205              	.L193:
 2206              	.LBE849:
 2207              	.LBE848:
 185:../src/tensorflow_lite/tensorflow/lite/micro/kernels/activations.cc ****     }
 2208              		.loc 1 185 0
 2209 071c 0000A0E3 		mov	r0, #0
 193:../src/tensorflow_lite/tensorflow/lite/micro/kernels/activations.cc **** 
 2210              		.loc 1 193 0
 2211 0720 34D08DE2 		add	sp, sp, #52
 2212              		.cfi_remember_state
 2213              		.cfi_def_cfa_offset 28
 2214              		@ sp needed
 2215 0724 F083BDE8 		pop	{r4, r5, r6, r7, r8, r9, pc}
 2216              	.LVL251:
 2217              	.L103:
 2218              		.cfi_restore_state
 181:../src/tensorflow_lite/tensorflow/lite/micro/kernels/activations.cc ****                              tflite::micro::GetTensorShape(output),
 2219              		.loc 1 181 0
 2220 0728 0710A0E1 		mov	r1, r7
 2221 072c 0D00A0E1 		mov	r0, sp
 2222              	.LEHB13:
 2223 0730 FEFFFFEB 		bl	_ZN6tflite5micro14GetTensorShapeEPK16TfLiteEvalTensor
 2224              	.LVL252:
 2225              	.LEHE13:
 182:../src/tensorflow_lite/tensorflow/lite/micro/kernels/activations.cc ****                              tflite::micro::GetTensorData<uint8_t>(input),
 2226              		.loc 1 182 0
 2227 0734 0510A0E1 		mov	r1, r5
 2228 0738 18008DE2 		add	r0, sp, #24
 2229              	.LEHB14:
 2230 073c FEFFFFEB 		bl	_ZN6tflite5micro14GetTensorShapeEPK16TfLiteEvalTensor
 2231              	.LVL253:
 2232              	.LEHE14:
 2233              	.LBB850:
 2234              	.LBB851:
 2235              		.loc 6 63 0
 2236 0740 00E097E5 		ldr	lr, [r7]
 2237              	.LBE851:
 2238              	.LBE850:
 2239              	.LBB852:
 2240              	.LBB853:
  56:C:/Renesas/e2studio_2021_01_workspace_RZA2M_ANPR/ANPR_RZA2M_EBK/src/tensorflow_lite/tensorflow/lite/micro/kernels\kernel_util.h **** }
 2241              		.loc 6 56 0
 2242 0744 000055E3 		cmp	r5, #0
 2243 0748 00209DE5 		ldr	r2, [sp]
 2244 074c 18709DE5 		ldr	r7, [sp, #24]
 2245 0750 00509515 		ldrne	r5, [r5]
 2246              	.LVL254:
 2247              	.LBE853:
 2248              	.LBE852:
 2249              	.LBB854:
 2250              	.LBB855:
 2251              	.LBB856:
 2252              	.LBB857:
 521:C:/Renesas/e2studio_2021_01_workspace_RZA2M_ANPR/ANPR_RZA2M_EBK/src/tensorflow_lite/tensorflow/lite/kernels/internal\types.h ****   const int dims_count = shape.DimensionsCount();
 2253              		.loc 5 521 0
 2254 0754 070052E1 		cmp	r2, r7
 2255 0758 3801001A 		bne	.L167
 2256              	.LVL255:
 2257              	.LBB858:
 523:C:/Renesas/e2studio_2021_01_workspace_RZA2M_ANPR/ANPR_RZA2M_EBK/src/tensorflow_lite/tensorflow/lite/kernels/internal\types.h ****     TFLITE_DCHECK_EQ(shape.Dims(i), check_shape_0.Dims(i));
 2258              		.loc 5 523 0
 2259 075c 000052E3 		cmp	r2, #0
 2260 0760 E40000DA 		ble	.L248
 2261 0764 050052E3 		cmp	r2, #5
 2262              	.LBB859:
 2263              	.LBB860:
 216:C:/Renesas/e2studio_2021_01_workspace_RZA2M_ANPR/ANPR_RZA2M_EBK/src/tensorflow_lite/tensorflow/lite/kernels/internal\types.h ****   }
 2264              		.loc 5 216 0
 2265 0768 04809DE5 		ldr	r8, [sp, #4]
 2266              	.LBE860:
 2267              	.LBE859:
 2268              	.LBB866:
 2269              	.LBB867:
 2270 076c 1C109DE5 		ldr	r1, [sp, #28]
 2271 0770 D10000CA 		bgt	.L170
 2272              	.LVL256:
 215:C:/Renesas/e2studio_2021_01_workspace_RZA2M_ANPR/ANPR_RZA2M_EBK/src/tensorflow_lite/tensorflow/lite/kernels/internal\types.h ****     return size_ > kMaxSmallSize ? dims_pointer_[i] : dims_[i];
 2273              		.loc 5 215 0
 2274 0774 000052E3 		cmp	r2, #0
 2275 0778 190100DA 		ble	.L171
 2276              	.LVL257:
 2277              	.LBE867:
 2278              	.LBE866:
 2279              		.loc 5 524 0
 2280 077c 010058E1 		cmp	r8, r1
 2281 0780 1501001A 		bne	.L172
 2282              	.LVL258:
 523:C:/Renesas/e2studio_2021_01_workspace_RZA2M_ANPR/ANPR_RZA2M_EBK/src/tensorflow_lite/tensorflow/lite/kernels/internal\types.h ****     TFLITE_DCHECK_EQ(shape.Dims(i), check_shape_0.Dims(i));
 2283              		.loc 5 523 0
 2284 0784 010052E3 		cmp	r2, #1
 2285 0788 1900000A 		beq	.L247
 2286              	.LVL259:
 2287              	.LBB875:
 2288              	.LBB861:
 216:C:/Renesas/e2studio_2021_01_workspace_RZA2M_ANPR/ANPR_RZA2M_EBK/src/tensorflow_lite/tensorflow/lite/kernels/internal\types.h ****   }
 2289              		.loc 5 216 0
 2290 078c 08109DE5 		ldr	r1, [sp, #8]
 2291              	.LVL260:
 2292              	.LBE861:
 2293              	.LBE875:
 2294              		.loc 5 524 0
 2295 0790 20309DE5 		ldr	r3, [sp, #32]
 2296 0794 030051E1 		cmp	r1, r3
 2297 0798 0F01001A 		bne	.L172
 2298              	.LVL261:
 523:C:/Renesas/e2studio_2021_01_workspace_RZA2M_ANPR/ANPR_RZA2M_EBK/src/tensorflow_lite/tensorflow/lite/kernels/internal\types.h ****     TFLITE_DCHECK_EQ(shape.Dims(i), check_shape_0.Dims(i));
 2299              		.loc 5 523 0
 2300 079c 020052E3 		cmp	r2, #2
 2301 07a0 1300000A 		beq	.L247
 2302              	.LVL262:
 2303              	.LBB876:
 2304              	.LBB862:
 216:C:/Renesas/e2studio_2021_01_workspace_RZA2M_ANPR/ANPR_RZA2M_EBK/src/tensorflow_lite/tensorflow/lite/kernels/internal\types.h ****   }
 2305              		.loc 5 216 0
 2306 07a4 0C109DE5 		ldr	r1, [sp, #12]
 2307              	.LVL263:
 2308              	.LBE862:
 2309              	.LBE876:
 2310              		.loc 5 524 0
 2311 07a8 24309DE5 		ldr	r3, [sp, #36]
 2312 07ac 030051E1 		cmp	r1, r3
 2313 07b0 0901001A 		bne	.L172
 2314              	.LVL264:
 523:C:/Renesas/e2studio_2021_01_workspace_RZA2M_ANPR/ANPR_RZA2M_EBK/src/tensorflow_lite/tensorflow/lite/kernels/internal\types.h ****     TFLITE_DCHECK_EQ(shape.Dims(i), check_shape_0.Dims(i));
 2315              		.loc 5 523 0
 2316 07b4 030052E3 		cmp	r2, #3
 2317 07b8 0D00000A 		beq	.L247
 2318              	.LVL265:
 2319              	.LBB877:
 2320              	.LBB868:
 215:C:/Renesas/e2studio_2021_01_workspace_RZA2M_ANPR/ANPR_RZA2M_EBK/src/tensorflow_lite/tensorflow/lite/kernels/internal\types.h ****     return size_ > kMaxSmallSize ? dims_pointer_[i] : dims_[i];
 2321              		.loc 5 215 0
 2322 07bc 030057E3 		cmp	r7, #3
 2323              	.LBE868:
 2324              	.LBE877:
 2325              	.LBB878:
 2326              	.LBB863:
 216:C:/Renesas/e2studio_2021_01_workspace_RZA2M_ANPR/ANPR_RZA2M_EBK/src/tensorflow_lite/tensorflow/lite/kernels/internal\types.h ****   }
 2327              		.loc 5 216 0
 2328 07c0 10109DE5 		ldr	r1, [sp, #16]
 2329              	.LVL266:
 2330              	.LBE863:
 2331              	.LBE878:
 2332              	.LBB879:
 2333              	.LBB869:
 215:C:/Renesas/e2studio_2021_01_workspace_RZA2M_ANPR/ANPR_RZA2M_EBK/src/tensorflow_lite/tensorflow/lite/kernels/internal\types.h ****     return size_ > kMaxSmallSize ? dims_pointer_[i] : dims_[i];
 2334              		.loc 5 215 0
 2335 07c4 0601000A 		beq	.L171
 2336              	.LVL267:
 2337              	.LBE869:
 2338              	.LBE879:
 2339              		.loc 5 524 0
 2340 07c8 28309DE5 		ldr	r3, [sp, #40]
 2341 07cc 030051E1 		cmp	r1, r3
 2342 07d0 0101001A 		bne	.L172
 2343              	.LVL268:
 523:C:/Renesas/e2studio_2021_01_workspace_RZA2M_ANPR/ANPR_RZA2M_EBK/src/tensorflow_lite/tensorflow/lite/kernels/internal\types.h ****     TFLITE_DCHECK_EQ(shape.Dims(i), check_shape_0.Dims(i));
 2344              		.loc 5 523 0
 2345 07d4 040052E3 		cmp	r2, #4
 2346 07d8 0500000A 		beq	.L247
 2347              	.LVL269:
 2348              	.LBB880:
 2349              	.LBB870:
 215:C:/Renesas/e2studio_2021_01_workspace_RZA2M_ANPR/ANPR_RZA2M_EBK/src/tensorflow_lite/tensorflow/lite/kernels/internal\types.h ****     return size_ > kMaxSmallSize ? dims_pointer_[i] : dims_[i];
 2350              		.loc 5 215 0
 2351 07dc 040057E3 		cmp	r7, #4
 2352              	.LBE870:
 2353              	.LBE880:
 2354              	.LBB881:
 2355              	.LBB864:
 216:C:/Renesas/e2studio_2021_01_workspace_RZA2M_ANPR/ANPR_RZA2M_EBK/src/tensorflow_lite/tensorflow/lite/kernels/internal\types.h ****   }
 2356              		.loc 5 216 0
 2357 07e0 14309DE5 		ldr	r3, [sp, #20]
 2358              	.LVL270:
 2359              	.LBE864:
 2360              	.LBE881:
 2361              	.LBB882:
 2362              	.LBB871:
 215:C:/Renesas/e2studio_2021_01_workspace_RZA2M_ANPR/ANPR_RZA2M_EBK/src/tensorflow_lite/tensorflow/lite/kernels/internal\types.h ****     return size_ > kMaxSmallSize ? dims_pointer_[i] : dims_[i];
 2363              		.loc 5 215 0
 2364 07e4 FE00000A 		beq	.L171
 2365              	.LVL271:
 2366              	.LBE871:
 2367              	.LBE882:
 2368              		.loc 5 524 0
 2369 07e8 2C109DE5 		ldr	r1, [sp, #44]
 2370 07ec 030051E1 		cmp	r1, r3
 2371 07f0 F900001A 		bne	.L172
 2372              	.LVL272:
 2373              	.L247:
 2374              	.LBE858:
 2375              	.LBB887:
 2376              	.LBB888:
 2377              	.LBB889:
 2378              	.LBB890:
 232:C:/Renesas/e2studio_2021_01_workspace_RZA2M_ANPR/ANPR_RZA2M_EBK/src/tensorflow_lite/tensorflow/lite/kernels/internal\types.h ****   }
 2379              		.loc 5 232 0
 2380 07f4 04608DE2 		add	r6, sp, #4
 2381              	.LVL273:
 2382              	.L173:
 2383 07f8 5631A0E7 		sbfx	r3, r6, #2, #1
 2384 07fc 033003E2 		and	r3, r3, #3
 2385 0800 020053E1 		cmp	r3, r2
 2386 0804 0230A021 		movcs	r3, r2
 2387 0808 080052E3 		cmp	r2, #8
 2388 080c 0230A091 		movls	r3, r2
 2389 0810 000053E3 		cmp	r3, #0
 2390 0814 D800000A 		beq	.L249
 2391 0818 010053E3 		cmp	r3, #1
 2392              	.LBE890:
 2393              	.LBE889:
 2394              	.LBB892:
 293:C:/Renesas/e2studio_2021_01_workspace_RZA2M_ANPR/ANPR_RZA2M_EBK/src/tensorflow_lite/tensorflow/lite/kernels/internal\types.h ****     }
 2395              		.loc 5 293 0
 2396 081c 00C096E5 		ldr	ip, [r6]
 2397              	.LVL274:
 2398 0820 C300000A 		beq	.L256
 2399 0824 041096E5 		ldr	r1, [r6, #4]
 2400 0828 020053E3 		cmp	r3, #2
 2401 082c 910C0CE0 		mul	ip, r1, ip
 2402              	.LVL275:
 2403 0830 BF00000A 		beq	.L256
 2404 0834 081096E5 		ldr	r1, [r6, #8]
 2405 0838 030053E3 		cmp	r3, #3
 2406 083c 910C0CE0 		mul	ip, r1, ip
 2407              	.LVL276:
 2408 0840 BB00000A 		beq	.L256
 2409 0844 0C1096E5 		ldr	r1, [r6, #12]
 2410 0848 040053E3 		cmp	r3, #4
 2411 084c 910C0CE0 		mul	ip, r1, ip
 2412              	.LVL277:
 2413 0850 B700000A 		beq	.L256
 2414 0854 101096E5 		ldr	r1, [r6, #16]
 2415 0858 050053E3 		cmp	r3, #5
 2416 085c 910C0CE0 		mul	ip, r1, ip
 2417              	.LVL278:
 2418 0860 B300000A 		beq	.L256
 2419 0864 141096E5 		ldr	r1, [r6, #20]
 2420 0868 060053E3 		cmp	r3, #6
 2421 086c 910C0CE0 		mul	ip, r1, ip
 2422              	.LVL279:
 2423 0870 AF00000A 		beq	.L256
 2424 0874 181096E5 		ldr	r1, [r6, #24]
 2425 0878 070053E3 		cmp	r3, #7
 2426 087c 910C0CE0 		mul	ip, r1, ip
 2427              	.LVL280:
 2428 0880 AB00000A 		beq	.L256
 2429 0884 1C0096E5 		ldr	r0, [r6, #28]
 292:C:/Renesas/e2studio_2021_01_workspace_RZA2M_ANPR/ANPR_RZA2M_EBK/src/tensorflow_lite/tensorflow/lite/kernels/internal\types.h ****       buffer_size *= dims_data[i];
 2430              		.loc 5 292 0
 2431 0888 0810A0E3 		mov	r1, #8
 293:C:/Renesas/e2studio_2021_01_workspace_RZA2M_ANPR/ANPR_RZA2M_EBK/src/tensorflow_lite/tensorflow/lite/kernels/internal\types.h ****     }
 2432              		.loc 5 293 0
 2433 088c 900C0CE0 		mul	ip, r0, ip
 2434              	.LVL281:
 2435              	.L180:
 2436 0890 020053E1 		cmp	r3, r2
 2437 0894 2800000A 		beq	.L181
 2438              	.LVL282:
 2439              	.L179:
 2440 0898 038042E0 		sub	r8, r2, r3
 2441 089c 017042E2 		sub	r7, r2, #1
 2442 08a0 040048E2 		sub	r0, r8, #4
 2443 08a4 037047E0 		sub	r7, r7, r3
 2444 08a8 2001A0E1 		lsr	r0, r0, #2
 2445 08ac 020057E3 		cmp	r7, #2
 2446 08b0 010080E2 		add	r0, r0, #1
 2447 08b4 0091A0E1 		lsl	r9, r0, #2
 2448 08b8 1200009A 		bls	.L182
 2449 08bc 033186E0 		add	r3, r6, r3, lsl #2
 292:C:/Renesas/e2studio_2021_01_workspace_RZA2M_ANPR/ANPR_RZA2M_EBK/src/tensorflow_lite/tensorflow/lite/kernels/internal\types.h ****       buffer_size *= dims_data[i];
 2450              		.loc 5 292 0
 2451 08c0 5120C0F2 		vmov.i32	q9, #1  @ v4si
 2452 08c4 0070A0E3 		mov	r7, #0
 2453              	.L184:
 2454 08c8 017087E2 		add	r7, r7, #1
 293:C:/Renesas/e2studio_2021_01_workspace_RZA2M_ANPR/ANPR_RZA2M_EBK/src/tensorflow_lite/tensorflow/lite/kernels/internal\types.h ****     }
 2455              		.loc 5 293 0
 2456 08cc DF0A63F4 		vld1.64	{d16-d17}, [r3:64]
 2457 08d0 070050E1 		cmp	r0, r7
 2458 08d4 103083E2 		add	r3, r3, #16
 2459 08d8 F02962F2 		vmul.i32	q9, q9, q8
 2460 08dc F9FFFF8A 		bhi	.L184
 2461 08e0 080059E1 		cmp	r9, r8
 2462 08e4 091081E0 		add	r1, r1, r9
 2463 08e8 5000C0F2 		vmov.i32	q8, #0  @ v4si
 2464 08ec E048F2F2 		vext.32	q10, q9, q8, #2
 2465 08f0 F22964F2 		vmul.i32	q9, q10, q9
 2466 08f4 E004F2F2 		vext.32	q8, q9, q8, #1
 2467 08f8 F20960F2 		vmul.i32	q8, q8, q9
 2468 08fc 903B10EE 		vmov.32	r3, d16[0]
 2469 0900 930C0CE0 		mul	ip, r3, ip
 2470 0904 0C00000A 		beq	.L181
 2471              	.L182:
 2472              	.LVL283:
 2473 0908 010196E7 		ldr	r0, [r6, r1, lsl #2]
 292:C:/Renesas/e2studio_2021_01_workspace_RZA2M_ANPR/ANPR_RZA2M_EBK/src/tensorflow_lite/tensorflow/lite/kernels/internal\types.h ****       buffer_size *= dims_data[i];
 2474              		.loc 5 292 0
 2475 090c 013081E2 		add	r3, r1, #1
 2476 0910 030052E1 		cmp	r2, r3
 293:C:/Renesas/e2studio_2021_01_workspace_RZA2M_ANPR/ANPR_RZA2M_EBK/src/tensorflow_lite/tensorflow/lite/kernels/internal\types.h ****     }
 2477              		.loc 5 293 0
 2478 0914 0131A0E1 		lsl	r3, r1, #2
 2479 0918 900C0CE0 		mul	ip, r0, ip
 2480              	.LVL284:
 292:C:/Renesas/e2studio_2021_01_workspace_RZA2M_ANPR/ANPR_RZA2M_EBK/src/tensorflow_lite/tensorflow/lite/kernels/internal\types.h ****       buffer_size *= dims_data[i];
 2481              		.loc 5 292 0
 2482 091c 060000DA 		ble	.L181
 293:C:/Renesas/e2studio_2021_01_workspace_RZA2M_ANPR/ANPR_RZA2M_EBK/src/tensorflow_lite/tensorflow/lite/kernels/internal\types.h ****     }
 2483              		.loc 5 293 0
 2484 0920 033086E0 		add	r3, r6, r3
 292:C:/Renesas/e2studio_2021_01_workspace_RZA2M_ANPR/ANPR_RZA2M_EBK/src/tensorflow_lite/tensorflow/lite/kernels/internal\types.h ****       buffer_size *= dims_data[i];
 2485              		.loc 5 292 0
 2486 0924 021081E2 		add	r1, r1, #2
 293:C:/Renesas/e2studio_2021_01_workspace_RZA2M_ANPR/ANPR_RZA2M_EBK/src/tensorflow_lite/tensorflow/lite/kernels/internal\types.h ****     }
 2487              		.loc 5 293 0
 2488 0928 040093E5 		ldr	r0, [r3, #4]
 292:C:/Renesas/e2studio_2021_01_workspace_RZA2M_ANPR/ANPR_RZA2M_EBK/src/tensorflow_lite/tensorflow/lite/kernels/internal\types.h ****       buffer_size *= dims_data[i];
 2489              		.loc 5 292 0
 2490 092c 010052E1 		cmp	r2, r1
 293:C:/Renesas/e2studio_2021_01_workspace_RZA2M_ANPR/ANPR_RZA2M_EBK/src/tensorflow_lite/tensorflow/lite/kernels/internal\types.h ****     }
 2491              		.loc 5 293 0
 2492 0930 900C0CE0 		mul	ip, r0, ip
 2493              	.LVL285:
 292:C:/Renesas/e2studio_2021_01_workspace_RZA2M_ANPR/ANPR_RZA2M_EBK/src/tensorflow_lite/tensorflow/lite/kernels/internal\types.h ****       buffer_size *= dims_data[i];
 2494              		.loc 5 292 0
 293:C:/Renesas/e2studio_2021_01_workspace_RZA2M_ANPR/ANPR_RZA2M_EBK/src/tensorflow_lite/tensorflow/lite/kernels/internal\types.h ****     }
 2495              		.loc 5 293 0
 2496 0934 083093C5 		ldrgt	r3, [r3, #8]
 2497 0938 930C0CC0 		mulgt	ip, r3, ip
 2498              	.LVL286:
 2499              	.L181:
 2500              	.LBE892:
 2501              	.LBE888:
 2502              	.LBE887:
 2503              	.LBE857:
 2504              	.LBE856:
 2505              	.LBB914:
  55:../src/tensorflow_lite/tensorflow/lite/micro/kernels/activations.cc ****     const int32_t val = static_cast<int32_t>(input_data[i]);
 2506              		.loc 1 55 0
 2507 093c 00005CE3 		cmp	ip, #0
 2508 0940 750000DA 		ble	.L177
 2509              	.LVL287:
 2510              	.L168:
 2511 0944 01E04EE2 		sub	lr, lr, #1
 2512              	.LVL288:
 2513 0948 015045E2 		sub	r5, r5, #1
 2514              	.LVL289:
 2515              	.LBE914:
 2516              	.LBB961:
 2517              	.LBB908:
 2518              	.LBB902:
 2519              	.LBB898:
 290:C:/Renesas/e2studio_2021_01_workspace_RZA2M_ANPR/ANPR_RZA2M_EBK/src/tensorflow_lite/tensorflow/lite/kernels/internal\types.h ****     const int* dims_data = reinterpret_cast<const int*>(DimsData());
 2520              		.loc 5 290 0
 2521 094c 0020A0E3 		mov	r2, #0
 2522              	.LBE898:
 2523              	.LBE902:
 2524              	.LBE908:
 2525              	.LBE961:
 2526              	.LBB962:
 2527              	.LBB915:
 2528              	.LBB916:
 2529              	.LBB917:
 2530              	.LBB918:
 2531              	.LBB919:
 2532              		.loc 7 360 0
 2533 0950 BE0BDFED 		vldr.64	d16, .L387	@ int
 2534 0954 200000EA 		b	.L191
 2535              	.LVL290:
 2536              	.L352:
 2537              	.LBE919:
 2538              	.LBE918:
 2539              	.LBB934:
 2540              	.LBB935:
 337:C:/Renesas/e2studio_2021_01_workspace_RZA2M_ANPR/ANPR_RZA2M_EBK/src/tensorflow_lite/third_party/gemmlowp/fixedpoint\fixedpoint.h ****   return overflow ? std::numeric_limits<std::int32_t>::max() : ab_x2_high32;
 2541              		.loc 7 337 0
 2542 0958 006096E0 		adds	r6, r6, r0
 2543              	.LVL291:
 2544 095c 0170A7E0 		adc	r7, r7, r1
 2545 0960 0010A0E3 		mov	r1, #0
 2546              	.LVL292:
 2547 0964 C70FA0E1 		asr	r0, r7, #31
 2548              	.LVL293:
 2549 0968 0201C0E3 		bic	r0, r0, #-2147483648
 2550 096c 060090E0 		adds	r0, r0, r6
 2551 0970 A00FA0E1 		lsr	r0, r0, #31
 2552 0974 0710A1E0 		adc	r1, r1, r7
 2553 0978 810080E1 		orr	r0, r0, r1, lsl #1
 2554              	.LVL294:
 2555              	.L208:
 2556              	.LBE935:
 2557              	.LBE934:
 2558              	.LBB938:
 2559              	.LBB930:
 359:C:/Renesas/e2studio_2021_01_workspace_RZA2M_ANPR/ANPR_RZA2M_EBK/src/tensorflow_lite/third_party/gemmlowp/fixedpoint\fixedpoint.h ****   const IntegerType mask = Dup<IntegerType>((1ll << exponent) - 1);
 2560              		.loc 7 359 0
 2561 097c 1F0053E3 		cmp	r3, #31
 2562 0980 990000CA 		bgt	.L384
 2563              		.loc 7 360 0
 2564 0984 903B02EE 		vmov.32	d18[0], r3
 2565              	.LBB920:
 2566              	.LBB921:
 141:C:/Renesas/e2studio_2021_01_workspace_RZA2M_ANPR/ANPR_RZA2M_EBK/src/tensorflow_lite/third_party/gemmlowp/fixedpoint\fixedpoint.h **** }
 2567              		.loc 7 141 0
 2568 0988 5013A0E1 		asr	r1, r0, r3
 2569              	.LBE921:
 2570              	.LBE920:
 2571              	.LBE930:
 2572              	.LBE938:
 2573              	.LBE917:
 2574              	.LBE916:
  64:../src/tensorflow_lite/tensorflow/lite/micro/kernels/activations.cc ****   }
 2575              		.loc 1 64 0
 2576 098c 049094E5 		ldr	r9, [r4, #4]
 2577              	.LBE915:
  55:../src/tensorflow_lite/tensorflow/lite/micro/kernels/activations.cc ****     const int32_t val = static_cast<int32_t>(input_data[i]);
 2578              		.loc 1 55 0
 2579 0990 012082E2 		add	r2, r2, #1
 2580              	.LVL295:
 2581              	.LBB956:
 2582              	.LBB950:
 2583              	.LBB944:
 2584              	.LBB939:
 2585              	.LBB931:
 2586              		.loc 7 360 0
 2587 0994 A01472F3 		vshl.u64	d17, d16, d18
 2588 0998 316B57EC 		vmov	r6, r7, d17	@ int
 2589 099c 016046E2 		sub	r6, r6, #1
 2590              	.LVL296:
 2591              	.LBE931:
 2592              	.LBE939:
 2593              	.LBE944:
 2594              	.LBE950:
  64:../src/tensorflow_lite/tensorflow/lite/micro/kernels/activations.cc ****   }
 2595              		.loc 1 64 0
 2596 09a0 087094E5 		ldr	r7, [r4, #8]
 2597              	.LBB951:
 2598              	.LBB945:
 2599              	.LBB940:
 2600              	.LBB932:
 2601              	.LBB922:
 2602              	.LBB923:
 141:C:/Renesas/e2studio_2021_01_workspace_RZA2M_ANPR/ANPR_RZA2M_EBK/src/tensorflow_lite/third_party/gemmlowp/fixedpoint\fixedpoint.h **** }
 2603              		.loc 7 141 0
 2604 09a4 C630A0E1 		asr	r3, r6, #1
 2605              	.LVL297:
 2606              	.LBE923:
 2607              	.LBE922:
 2608              	.LBB924:
 2609              	.LBB925:
  71:C:/Renesas/e2studio_2021_01_workspace_RZA2M_ANPR/ANPR_RZA2M_EBK/src/tensorflow_lite/third_party/gemmlowp/fixedpoint\fixedpoint.h **** }
 2610              		.loc 7 71 0
 2611 09a8 006006E0 		and	r6, r6, r0
 2612              	.LVL298:
 2613              	.LBE925:
 2614              	.LBE924:
 2615              	.LBB926:
 2616              	.LBB927:
  95:C:/Renesas/e2studio_2021_01_workspace_RZA2M_ANPR/ANPR_RZA2M_EBK/src/tensorflow_lite/third_party/gemmlowp/fixedpoint\fixedpoint.h **** }
 2617              		.loc 7 95 0
 2618 09ac A00F83E0 		add	r0, r3, r0, lsr #31
 2619              	.LVL299:
 2620              	.LBE927:
 2621              	.LBE926:
 2622              	.LBB928:
 2623              	.LBB929:
 2624 09b0 000056E1 		cmp	r6, r0
 2625 09b4 0130A0D1 		movle	r3, r1
 2626 09b8 013081C2 		addgt	r3, r1, #1
 2627              	.LBE929:
 2628              	.LBE928:
 2629              	.LBE932:
 2630              	.LBE940:
 2631              	.LBE945:
 2632              	.LBE951:
  58:../src/tensorflow_lite/tensorflow/lite/micro/kernels/activations.cc ****         MultiplyByQuantizedMultiplier(val - data.params.input_offset,
 2633              		.loc 1 58 0
 2634 09bc 088083E0 		add	r8, r3, r8
  64:../src/tensorflow_lite/tensorflow/lite/micro/kernels/activations.cc ****   }
 2635              		.loc 1 64 0
 2636 09c0 090058E1 		cmp	r8, r9
 2637 09c4 0980A0B1 		movlt	r8, r9
 2638 09c8 070058E1 		cmp	r8, r7
 2639 09cc 0780A0A1 		movge	r8, r7
 2640              	.LBE956:
  55:../src/tensorflow_lite/tensorflow/lite/micro/kernels/activations.cc ****     const int32_t val = static_cast<int32_t>(input_data[i]);
 2641              		.loc 1 55 0
 2642 09d0 0C0052E1 		cmp	r2, ip
 2643              	.LBB957:
  64:../src/tensorflow_lite/tensorflow/lite/micro/kernels/activations.cc ****   }
 2644              		.loc 1 64 0
 2645 09d4 0180E5E5 		strb	r8, [r5, #1]!
 2646              	.LVL300:
 2647              	.LBE957:
  55:../src/tensorflow_lite/tensorflow/lite/micro/kernels/activations.cc ****     const int32_t val = static_cast<int32_t>(input_data[i]);
 2648              		.loc 1 55 0
 2649 09d8 4E0000AA 		bge	.L377
 2650              	.LVL301:
 2651              	.L191:
 2652              	.LBB958:
  61:../src/tensorflow_lite/tensorflow/lite/micro/kernels/activations.cc ****     clamped = std::max(data.params.quantized_activation_min, clamped);
 2653              		.loc 1 61 0
 2654 09dc 183094E5 		ldr	r3, [r4, #24]
  59:../src/tensorflow_lite/tensorflow/lite/micro/kernels/activations.cc ****                                       data.params.output_multiplier,
 2655              		.loc 1 59 0
 2656 09e0 0C0094E5 		ldr	r0, [r4, #12]
  56:../src/tensorflow_lite/tensorflow/lite/micro/kernels/activations.cc ****     int32_t clamped =
 2657              		.loc 1 56 0
 2658 09e4 0160FEE5 		ldrb	r6, [lr, #1]!	@ zero_extendqisi2
 2659              	.LVL302:
  60:../src/tensorflow_lite/tensorflow/lite/micro/kernels/activations.cc ****                                       data.params.output_shift);
 2660              		.loc 1 60 0
 2661 09e8 149094E5 		ldr	r9, [r4, #20]
 2662              	.LBB952:
 2663              	.LBB946:
 162:C:/Renesas/e2studio_2021_01_workspace_RZA2M_ANPR/ANPR_RZA2M_EBK/src/tensorflow_lite/tensorflow/lite/kernels/internal\common.h ****   return RoundingDivideByPOT(SaturatingRoundingDoublingHighMul(
 2664              		.loc 8 162 0
 2665 09ec 000053E3 		cmp	r3, #0
 161:C:/Renesas/e2studio_2021_01_workspace_RZA2M_ANPR/ANPR_RZA2M_EBK/src/tensorflow_lite/tensorflow/lite/kernels/internal\common.h ****   int right_shift = shift > 0 ? 0 : -shift;
 2666              		.loc 8 161 0
 2667 09f0 C31FC3E1 		bic	r1, r3, r3, asr #31
 162:C:/Renesas/e2studio_2021_01_workspace_RZA2M_ANPR/ANPR_RZA2M_EBK/src/tensorflow_lite/tensorflow/lite/kernels/internal\common.h ****   return RoundingDivideByPOT(SaturatingRoundingDoublingHighMul(
 2668              		.loc 8 162 0
 2669 09f4 003063D2 		rsble	r3, r3, #0
 2670              	.LBE946:
 2671              	.LBE952:
  59:../src/tensorflow_lite/tensorflow/lite/micro/kernels/activations.cc ****                                       data.params.output_multiplier,
 2672              		.loc 1 59 0
 2673 09f8 006046E0 		sub	r6, r6, r0
 2674              	.LVL303:
  58:../src/tensorflow_lite/tensorflow/lite/micro/kernels/activations.cc ****         MultiplyByQuantizedMultiplier(val - data.params.input_offset,
 2675              		.loc 1 58 0
 2676 09fc 108094E5 		ldr	r8, [r4, #16]
 2677              	.LBB953:
 2678              	.LBB947:
 2679              		.loc 8 163 0
 2680 0a00 1661A0E1 		lsl	r6, r6, r1
 2681              	.LVL304:
 162:C:/Renesas/e2studio_2021_01_workspace_RZA2M_ANPR/ANPR_RZA2M_EBK/src/tensorflow_lite/tensorflow/lite/kernels/internal\common.h ****   return RoundingDivideByPOT(SaturatingRoundingDoublingHighMul(
 2682              		.loc 8 162 0
 2683 0a04 0030A0C3 		movgt	r3, #0
 2684              	.LVL305:
 2685              	.LBB941:
 2686              	.LBB936:
 334:C:/Renesas/e2studio_2021_01_workspace_RZA2M_ANPR/ANPR_RZA2M_EBK/src/tensorflow_lite/third_party/gemmlowp/fixedpoint\fixedpoint.h ****   std::int32_t nudge = ab_64 >= 0 ? (1 << 30) : (1 - (1 << 30));
 2687              		.loc 7 334 0
 2688 0a08 9609C1E0 		smull	r0, r1, r6, r9
 2689              	.LVL306:
 331:C:/Renesas/e2studio_2021_01_workspace_RZA2M_ANPR/ANPR_RZA2M_EBK/src/tensorflow_lite/third_party/gemmlowp/fixedpoint\fixedpoint.h ****   std::int64_t a_64(a);
 2690              		.loc 7 331 0
 2691 0a0c 060059E1 		cmp	r9, r6
 2692 0a10 02015603 		cmpeq	r6, #-2147483648
 2693 0a14 0190A003 		moveq	r9, #1
 2694              	.LVL307:
 2695 0a18 0090A013 		movne	r9, #0
 2696              	.LVL308:
 335:C:/Renesas/e2studio_2021_01_workspace_RZA2M_ANPR/ANPR_RZA2M_EBK/src/tensorflow_lite/third_party/gemmlowp/fixedpoint\fixedpoint.h ****   std::int32_t ab_x2_high32 =
 2697              		.loc 7 335 0
 2698 0a1c 000050E3 		cmp	r0, #0
 2699 0a20 0060D1E2 		sbcs	r6, r1, #0
 2700              	.LVL309:
 2701 0a24 380000BA 		blt	.L258
 2702 0a28 0161A0E3 		mov	r6, #1073741824
 2703 0a2c 0070A0E3 		mov	r7, #0
 2704              	.L189:
 2705              	.LVL310:
 338:C:/Renesas/e2studio_2021_01_workspace_RZA2M_ANPR/ANPR_RZA2M_EBK/src/tensorflow_lite/third_party/gemmlowp/fixedpoint\fixedpoint.h **** }
 2706              		.loc 7 338 0
 2707 0a30 000059E3 		cmp	r9, #0
 2708 0a34 C7FFFF0A 		beq	.L352
 2709 0a38 0201E0E3 		mvn	r0, #-2147483648
 2710              	.LVL311:
 2711 0a3c CEFFFFEA 		b	.L208
 2712              	.LVL312:
 2713              	.L110:
 2714 0a40 041041E2 		sub	r1, r1, #4
 2715 0a44 040047E2 		sub	r0, r7, #4
 2716              	.LBE936:
 2717              	.LBE941:
 2718              	.LBE947:
 2719              	.LBE953:
 2720              	.LBE958:
 2721              	.LBE962:
 2722              	.LBE855:
 2723              	.LBE854:
 2724              	.LBB977:
 2725              	.LBB837:
 2726              	.LBB830:
 2727              	.LBB819:
 2728              	.LBB813:
 2729              	.LBB796:
 2730              	.LBB785:
 216:C:/Renesas/e2studio_2021_01_workspace_RZA2M_ANPR/ANPR_RZA2M_EBK/src/tensorflow_lite/tensorflow/lite/kernels/internal\types.h ****   }
 2731              		.loc 5 216 0
 2732 0a48 0030A0E3 		mov	r3, #0
 2733 0a4c 050000EA 		b	.L116
 2734              	.LVL313:
 2735              	.L114:
 2736              	.LBE785:
 2737              	.LBE796:
 2738              		.loc 5 524 0
 2739 0a50 0460B1E5 		ldr	r6, [r1, #4]!
 2740 0a54 06005EE1 		cmp	lr, r6
 2741 0a58 5C00001A 		bne	.L112
 523:C:/Renesas/e2studio_2021_01_workspace_RZA2M_ANPR/ANPR_RZA2M_EBK/src/tensorflow_lite/tensorflow/lite/kernels/internal\types.h ****     TFLITE_DCHECK_EQ(shape.Dims(i), check_shape_0.Dims(i));
 2742              		.loc 5 523 0
 2743 0a5c 013083E2 		add	r3, r3, #1
 2744              	.LVL314:
 2745 0a60 030052E1 		cmp	r2, r3
 2746 0a64 87FEFF0A 		beq	.L113
 2747              	.LVL315:
 2748              	.L116:
 2749              	.LBB797:
 2750              	.LBB786:
 215:C:/Renesas/e2studio_2021_01_workspace_RZA2M_ANPR/ANPR_RZA2M_EBK/src/tensorflow_lite/tensorflow/lite/kernels/internal\types.h ****     return size_ > kMaxSmallSize ? dims_pointer_[i] : dims_[i];
 2751              		.loc 5 215 0
 2752 0a68 03005CE1 		cmp	ip, r3
 2753              	.LBE786:
 2754              	.LBE797:
 2755              	.LBB798:
 2756              	.LBB778:
 216:C:/Renesas/e2studio_2021_01_workspace_RZA2M_ANPR/ANPR_RZA2M_EBK/src/tensorflow_lite/tensorflow/lite/kernels/internal\types.h ****   }
 2757              		.loc 5 216 0
 2758 0a6c 04E0B0E5 		ldr	lr, [r0, #4]!
 2759              	.LVL316:
 2760              	.LBE778:
 2761              	.LBE798:
 2762              	.LBB799:
 2763              	.LBB787:
 215:C:/Renesas/e2studio_2021_01_workspace_RZA2M_ANPR/ANPR_RZA2M_EBK/src/tensorflow_lite/tensorflow/lite/kernels/internal\types.h ****     return size_ > kMaxSmallSize ? dims_pointer_[i] : dims_[i];
 2764              		.loc 5 215 0
 2765 0a70 F6FFFFCA 		bgt	.L114
 2766              	.LVL317:
 2767              	.L111:
 2768              	.LEHB15:
 2769 0a74 FEFFFFEB 		bl	abort
 2770              	.LVL318:
 2771              	.LEHE15:
 2772              	.L142:
 2773 0a78 041041E2 		sub	r1, r1, #4
 2774 0a7c 040048E2 		sub	r0, r8, #4
 2775              	.LBE787:
 2776              	.LBE799:
 2777              	.LBE813:
 2778              	.LBE819:
 2779              	.LBE830:
 2780              	.LBE837:
 2781              	.LBE977:
 2782              	.LBB978:
 2783              	.LBB755:
 2784              	.LBB747:
 2785              	.LBB692:
 2786              	.LBB685:
 2787              	.LBB665:
 2788              	.LBB654:
 216:C:/Renesas/e2studio_2021_01_workspace_RZA2M_ANPR/ANPR_RZA2M_EBK/src/tensorflow_lite/tensorflow/lite/kernels/internal\types.h ****   }
 2789              		.loc 5 216 0
 2790 0a80 0030A0E3 		mov	r3, #0
 2791              	.LVL319:
 2792              	.L148:
 215:C:/Renesas/e2studio_2021_01_workspace_RZA2M_ANPR/ANPR_RZA2M_EBK/src/tensorflow_lite/tensorflow/lite/kernels/internal\types.h ****     return size_ > kMaxSmallSize ? dims_pointer_[i] : dims_[i];
 2793              		.loc 5 215 0
 2794 0a84 030057E1 		cmp	r7, r3
 2795              	.LBE654:
 2796              	.LBE665:
 2797              	.LBB666:
 2798              	.LBB647:
 216:C:/Renesas/e2studio_2021_01_workspace_RZA2M_ANPR/ANPR_RZA2M_EBK/src/tensorflow_lite/tensorflow/lite/kernels/internal\types.h ****   }
 2799              		.loc 5 216 0
 2800 0a88 04C0B0E5 		ldr	ip, [r0, #4]!
 2801              	.LVL320:
 2802              	.LBE647:
 2803              	.LBE666:
 2804              	.LBB667:
 2805              	.LBB655:
 215:C:/Renesas/e2studio_2021_01_workspace_RZA2M_ANPR/ANPR_RZA2M_EBK/src/tensorflow_lite/tensorflow/lite/kernels/internal\types.h ****     return size_ > kMaxSmallSize ? dims_pointer_[i] : dims_[i];
 2806              		.loc 5 215 0
 2807 0a8c 500000DA 		ble	.L143
 2808              	.LVL321:
 2809              	.LBE655:
 2810              	.LBE667:
 2811              		.loc 5 524 0
 2812 0a90 0460B1E5 		ldr	r6, [r1, #4]!
 2813 0a94 06005CE1 		cmp	ip, r6
 2814 0a98 5200001A 		bne	.L144
 523:C:/Renesas/e2studio_2021_01_workspace_RZA2M_ANPR/ANPR_RZA2M_EBK/src/tensorflow_lite/tensorflow/lite/kernels/internal\types.h ****     TFLITE_DCHECK_EQ(shape.Dims(i), check_shape_0.Dims(i));
 2815              		.loc 5 523 0
 2816 0a9c 013083E2 		add	r3, r3, #1
 2817              	.LVL322:
 2818 0aa0 030052E1 		cmp	r2, r3
 2819 0aa4 F6FFFF1A 		bne	.L148
 2820              	.LVL323:
 2821              	.LBE685:
 2822              	.LBB686:
 2823              	.LBB681:
 2824              	.LBB675:
 292:C:/Renesas/e2studio_2021_01_workspace_RZA2M_ANPR/ANPR_RZA2M_EBK/src/tensorflow_lite/tensorflow/lite/kernels/internal\types.h ****       buffer_size *= dims_data[i];
 2825              		.loc 5 292 0
 2826 0aa8 000052E3 		cmp	r2, #0
 2827              	.LBE675:
 2828              	.LBB676:
 2829              	.LBB673:
 232:C:/Renesas/e2studio_2021_01_workspace_RZA2M_ANPR/ANPR_RZA2M_EBK/src/tensorflow_lite/tensorflow/lite/kernels/internal\types.h ****   }
 2830              		.loc 5 232 0
 2831 0aac 0860A0E1 		mov	r6, r8
 2832              	.LVL324:
 2833              	.LBE673:
 2834              	.LBE676:
 2835              	.LBB677:
 292:C:/Renesas/e2studio_2021_01_workspace_RZA2M_ANPR/ANPR_RZA2M_EBK/src/tensorflow_lite/tensorflow/lite/kernels/internal\types.h ****       buffer_size *= dims_data[i];
 2836              		.loc 5 292 0
 2837 0ab0 ABFDFFCA 		bgt	.L145
 2838              	.LVL325:
 2839              	.L230:
 2840              	.LBE677:
 290:C:/Renesas/e2studio_2021_01_workspace_RZA2M_ANPR/ANPR_RZA2M_EBK/src/tensorflow_lite/tensorflow/lite/kernels/internal\types.h ****     const int* dims_data = reinterpret_cast<const int*>(DimsData());
 2841              		.loc 5 290 0
 2842 0ab4 01C0A0E3 		mov	ip, #1
 2843 0ab8 FCFDFFEA 		b	.L140
 2844              	.LVL326:
 2845              	.L170:
 2846 0abc 041041E2 		sub	r1, r1, #4
 2847 0ac0 040048E2 		sub	r0, r8, #4
 2848              	.LBE681:
 2849              	.LBE686:
 2850              	.LBE692:
 2851              	.LBE747:
 2852              	.LBE755:
 2853              	.LBE978:
 2854              	.LBB979:
 2855              	.LBB970:
 2856              	.LBB963:
 2857              	.LBB909:
 2858              	.LBB903:
 2859              	.LBB883:
 2860              	.LBB872:
 216:C:/Renesas/e2studio_2021_01_workspace_RZA2M_ANPR/ANPR_RZA2M_EBK/src/tensorflow_lite/tensorflow/lite/kernels/internal\types.h ****   }
 2861              		.loc 5 216 0
 2862 0ac4 0030A0E3 		mov	r3, #0
 2863              	.LVL327:
 2864              	.L176:
 215:C:/Renesas/e2studio_2021_01_workspace_RZA2M_ANPR/ANPR_RZA2M_EBK/src/tensorflow_lite/tensorflow/lite/kernels/internal\types.h ****     return size_ > kMaxSmallSize ? dims_pointer_[i] : dims_[i];
 2865              		.loc 5 215 0
 2866 0ac8 030057E1 		cmp	r7, r3
 2867              	.LBE872:
 2868              	.LBE883:
 2869              	.LBB884:
 2870              	.LBB865:
 216:C:/Renesas/e2studio_2021_01_workspace_RZA2M_ANPR/ANPR_RZA2M_EBK/src/tensorflow_lite/tensorflow/lite/kernels/internal\types.h ****   }
 2871              		.loc 5 216 0
 2872 0acc 04C0B0E5 		ldr	ip, [r0, #4]!
 2873              	.LVL328:
 2874              	.LBE865:
 2875              	.LBE884:
 2876              	.LBB885:
 2877              	.LBB873:
 215:C:/Renesas/e2studio_2021_01_workspace_RZA2M_ANPR/ANPR_RZA2M_EBK/src/tensorflow_lite/tensorflow/lite/kernels/internal\types.h ****     return size_ > kMaxSmallSize ? dims_pointer_[i] : dims_[i];
 2878              		.loc 5 215 0
 2879 0ad0 430000DA 		ble	.L171
 2880              	.LVL329:
 2881              	.LBE873:
 2882              	.LBE885:
 2883              		.loc 5 524 0
 2884 0ad4 0460B1E5 		ldr	r6, [r1, #4]!
 2885 0ad8 06005CE1 		cmp	ip, r6
 2886 0adc 3E00001A 		bne	.L172
 523:C:/Renesas/e2studio_2021_01_workspace_RZA2M_ANPR/ANPR_RZA2M_EBK/src/tensorflow_lite/tensorflow/lite/kernels/internal\types.h ****     TFLITE_DCHECK_EQ(shape.Dims(i), check_shape_0.Dims(i));
 2887              		.loc 5 523 0
 2888 0ae0 013083E2 		add	r3, r3, #1
 2889              	.LVL330:
 2890 0ae4 030052E1 		cmp	r2, r3
 2891 0ae8 F6FFFF1A 		bne	.L176
 2892              	.LVL331:
 2893              	.LBE903:
 2894              	.LBB904:
 2895              	.LBB899:
 2896              	.LBB893:
 292:C:/Renesas/e2studio_2021_01_workspace_RZA2M_ANPR/ANPR_RZA2M_EBK/src/tensorflow_lite/tensorflow/lite/kernels/internal\types.h ****       buffer_size *= dims_data[i];
 2897              		.loc 5 292 0
 2898 0aec 000052E3 		cmp	r2, #0
 2899              	.LBE893:
 2900              	.LBB894:
 2901              	.LBB891:
 232:C:/Renesas/e2studio_2021_01_workspace_RZA2M_ANPR/ANPR_RZA2M_EBK/src/tensorflow_lite/tensorflow/lite/kernels/internal\types.h ****   }
 2902              		.loc 5 232 0
 2903 0af0 0860A0E1 		mov	r6, r8
 2904              	.LVL332:
 2905              	.LBE891:
 2906              	.LBE894:
 2907              	.LBB895:
 292:C:/Renesas/e2studio_2021_01_workspace_RZA2M_ANPR/ANPR_RZA2M_EBK/src/tensorflow_lite/tensorflow/lite/kernels/internal\types.h ****       buffer_size *= dims_data[i];
 2908              		.loc 5 292 0
 2909 0af4 3FFFFFCA 		bgt	.L173
 2910              	.LVL333:
 2911              	.L248:
 2912              	.LBE895:
 290:C:/Renesas/e2studio_2021_01_workspace_RZA2M_ANPR/ANPR_RZA2M_EBK/src/tensorflow_lite/tensorflow/lite/kernels/internal\types.h ****     const int* dims_data = reinterpret_cast<const int*>(DimsData());
 2913              		.loc 5 290 0
 2914 0af8 01C0A0E3 		mov	ip, #1
 2915 0afc 90FFFFEA 		b	.L168
 2916              	.LVL334:
 2917              	.L240:
 2918              	.LBE899:
 2919              	.LBE904:
 2920              	.LBE909:
 2921              	.LBE963:
 2922              	.LBE970:
 2923              	.LBE979:
 2924              	.LBB980:
 2925              	.LBB756:
 2926              	.LBB748:
 2927              	.LBB743:
 2928              	.LBB738:
 2929              	.LBB732:
 2930              	.LBB726:
 2931              	.LBB721:
 335:C:/Renesas/e2studio_2021_01_workspace_RZA2M_ANPR/ANPR_RZA2M_EBK/src/tensorflow_lite/third_party/gemmlowp/fixedpoint\fixedpoint.h ****   std::int32_t ab_x2_high32 =
 2932              		.loc 7 335 0
 2933 0b00 0761A0E3 		mov	r6, #-1073741823
 2934 0b04 0070E0E3 		mvn	r7, #0
 2935 0b08 23FEFFEA 		b	.L161
 2936              	.LVL335:
 2937              	.L258:
 2938              	.LBE721:
 2939              	.LBE726:
 2940              	.LBE732:
 2941              	.LBE738:
 2942              	.LBE743:
 2943              	.LBE748:
 2944              	.LBE756:
 2945              	.LBE980:
 2946              	.LBB981:
 2947              	.LBB971:
 2948              	.LBB964:
 2949              	.LBB959:
 2950              	.LBB954:
 2951              	.LBB948:
 2952              	.LBB942:
 2953              	.LBB937:
 2954 0b0c 0761A0E3 		mov	r6, #-1073741823
 2955 0b10 0070E0E3 		mvn	r7, #0
 2956 0b14 C5FFFFEA 		b	.L189
 2957              	.LVL336:
 2958              	.L377:
 2959 0b18 18209DE5 		ldr	r2, [sp, #24]
 2960              	.L177:
 2961              	.LVL337:
 2962              	.LBE937:
 2963              	.LBE942:
 2964              	.LBE948:
 2965              	.LBE954:
 2966              	.LBE959:
 2967              	.LBE964:
 2968              	.LBE971:
 2969              	.LBE981:
 2970              	.LBB982:
 2971              	.LBB847:
 203:C:/Renesas/e2studio_2021_01_workspace_RZA2M_ANPR/ANPR_RZA2M_EBK/src/tensorflow_lite/tensorflow/lite/kernels/internal\types.h **** #ifdef TF_LITE_STATIC_MEMORY
 2972              		.loc 5 203 0
 2973 0b1c 050052E3 		cmp	r2, #5
 2974 0b20 F6FEFFDA 		ble	.L192
 207:C:/Renesas/e2studio_2021_01_workspace_RZA2M_ANPR/ANPR_RZA2M_EBK/src/tensorflow_lite/tensorflow/lite/kernels/internal\types.h **** #endif  // TF_LITE_STATIC_MEMORY
 2975              		.loc 5 207 0
 2976 0b24 1C009DE5 		ldr	r0, [sp, #28]
 2977 0b28 000050E3 		cmp	r0, #0
 2978 0b2c F2FEFF1A 		bne	.L364
 2979 0b30 F2FEFFEA 		b	.L192
 2980              	.LVL338:
 2981              	.L256:
 2982              	.LBE847:
 2983              	.LBE982:
 2984              	.LBB983:
 2985              	.LBB972:
 2986              	.LBB965:
 2987              	.LBB910:
 2988              	.LBB905:
 2989              	.LBB900:
 2990              	.LBB896:
 292:C:/Renesas/e2studio_2021_01_workspace_RZA2M_ANPR/ANPR_RZA2M_EBK/src/tensorflow_lite/tensorflow/lite/kernels/internal\types.h ****       buffer_size *= dims_data[i];
 2991              		.loc 5 292 0
 2992 0b34 0310A0E1 		mov	r1, r3
 2993 0b38 54FFFFEA 		b	.L180
 2994              	.LVL339:
 2995              	.L221:
 2996              	.LBE896:
 2997              	.LBE900:
 2998              	.LBE905:
 2999              	.LBE910:
 3000              	.LBE965:
 3001              	.LBE972:
 3002              	.LBE983:
 3003              	.LBB984:
 3004              	.LBB838:
 3005              	.LBB831:
 3006              	.LBB820:
 3007              	.LBB814:
 3008              	.LBB809:
 3009              	.LBB805:
 3010 0b3c 0310A0E1 		mov	r1, r3
 3011 0b40 78FEFFEA 		b	.L124
 3012              	.LVL340:
 3013              	.L238:
 3014              	.LBE805:
 3015              	.LBE809:
 3016              	.LBE814:
 3017              	.LBE820:
 3018              	.LBE831:
 3019              	.LBE838:
 3020              	.LBE984:
 3021              	.LBB985:
 3022              	.LBB757:
 3023              	.LBB749:
 3024              	.LBB693:
 3025              	.LBB687:
 3026              	.LBB682:
 3027              	.LBB678:
 3028 0b44 0370A0E1 		mov	r7, r3
 3029 0b48 ABFDFFEA 		b	.L152
 3030              	.LVL341:
 3031              	.L382:
 3032              	.LBE678:
 3033              	.LBE682:
 3034              	.LBE687:
 3035              	.LBE693:
 3036              	.LBE749:
 3037              	.LBE757:
 3038              	.LBE985:
 3039              	.LBB986:
 3040              	.LBB839:
 3041              	.LBB832:
 3042              	.LBB821:
 3043              	.LBB815:
 3044              	.LBB810:
 3045              	.LBB806:
 3046 0b4c 000052E3 		cmp	r2, #0
 3047 0b50 1B0000DA 		ble	.L212
 3048              	.LVL342:
 3049              	.L309:
 3050 0b54 04608DE2 		add	r6, sp, #4
 3051 0b58 4DFEFFEA 		b	.L117
 3052              	.LVL343:
 3053              	.L231:
 3054              	.LBE806:
 3055              	.LBE810:
 3056              	.LBE815:
 3057              	.LBE821:
 3058              	.LBE832:
 3059              	.LBE839:
 3060              	.LBE986:
 3061              	.LBB987:
 3062              	.LBB758:
 3063              	.LBB750:
 3064              	.LBB694:
 3065              	.LBB688:
 3066              	.LBB683:
 3067              	.LBB679:
 3068 0b5c 01C0A0E3 		mov	ip, #1
 3069 0b60 0370A0E1 		mov	r7, r3
 3070 0b64 A6FDFFEA 		b	.L151
 3071              	.LVL344:
 3072              	.L383:
 3073 0b68 000053E3 		cmp	r3, #0
 3074              	.LBE679:
 3075              	.LBE683:
 3076              	.LBE688:
 3077              	.LBE694:
 3078              	.LBE750:
 3079              	.LBE758:
 3080              	.LBE987:
 3081              	.LBB988:
 3082              	.LBB840:
 3083              	.LBB833:
 3084              	.LBB822:
 3085              	.LBB816:
 3086              	.LBB811:
 3087              	.LBB807:
 3088 0b6c 0100A003 		moveq	r0, #1
 3089 0b70 0310A001 		moveq	r1, r3
 3090 0b74 6DFEFF0A 		beq	.L123
 3091 0b78 4CFEFFEA 		b	.L122
 3092              	.LVL345:
 3093              	.L249:
 3094              	.LBE807:
 3095              	.LBE811:
 3096              	.LBE816:
 3097              	.LBE822:
 3098              	.LBE833:
 3099              	.LBE840:
 3100              	.LBE988:
 3101              	.LBB989:
 3102              	.LBB973:
 3103              	.LBB966:
 3104              	.LBB911:
 3105              	.LBB906:
 3106              	.LBB901:
 3107              	.LBB897:
 3108 0b7c 01C0A0E3 		mov	ip, #1
 3109 0b80 0310A0E1 		mov	r1, r3
 3110 0b84 43FFFFEA 		b	.L179
 3111              	.LVL346:
 3112              	.L262:
 3113              	.L375:
 3114              	.LBE897:
 3115              	.LBE901:
 3116              	.LBE906:
 3117              	.LBE911:
 3118              	.LBE966:
 3119              	.LBE973:
 3120              	.LBE989:
 3121              	.LBB990:
 3122              	.LBB991:
 203:C:/Renesas/e2studio_2021_01_workspace_RZA2M_ANPR/ANPR_RZA2M_EBK/src/tensorflow_lite/tensorflow/lite/kernels/internal\types.h **** #ifdef TF_LITE_STATIC_MEMORY
 3123              		.loc 5 203 0
 3124 0b88 18309DE5 		ldr	r3, [sp, #24]
 3125 0b8c 050053E3 		cmp	r3, #5
 3126 0b90 030000DA 		ble	.L204
 207:C:/Renesas/e2studio_2021_01_workspace_RZA2M_ANPR/ANPR_RZA2M_EBK/src/tensorflow_lite/tensorflow/lite/kernels/internal\types.h **** #endif  // TF_LITE_STATIC_MEMORY
 3127              		.loc 5 207 0
 3128 0b94 1C009DE5 		ldr	r0, [sp, #28]
 3129 0b98 000050E3 		cmp	r0, #0
 3130 0b9c 0000000A 		beq	.L204
 3131 0ba0 FEFFFFEB 		bl	_ZdaPv
 3132              	.LVL347:
 3133              	.L204:
 3134              	.LBE991:
 3135              	.LBE990:
 3136              	.LBB992:
 3137              	.LBB993:
 203:C:/Renesas/e2studio_2021_01_workspace_RZA2M_ANPR/ANPR_RZA2M_EBK/src/tensorflow_lite/tensorflow/lite/kernels/internal\types.h **** #ifdef TF_LITE_STATIC_MEMORY
 3138              		.loc 5 203 0
 3139 0ba4 00309DE5 		ldr	r3, [sp]
 3140 0ba8 050053E3 		cmp	r3, #5
 3141 0bac 030000DA 		ble	.L205
 207:C:/Renesas/e2studio_2021_01_workspace_RZA2M_ANPR/ANPR_RZA2M_EBK/src/tensorflow_lite/tensorflow/lite/kernels/internal\types.h **** #endif  // TF_LITE_STATIC_MEMORY
 3142              		.loc 5 207 0
 3143 0bb0 04009DE5 		ldr	r0, [sp, #4]
 3144 0bb4 000050E3 		cmp	r0, #0
 3145 0bb8 0000000A 		beq	.L205
 3146 0bbc FEFFFFEB 		bl	_ZdaPv
 3147              	.LVL348:
 3148              	.L205:
 3149              	.LEHB16:
 3150 0bc0 FEFFFFEB 		bl	__cxa_end_cleanup
 3151              	.LVL349:
 3152              	.LEHE16:
 3153              	.L212:
 3154              	.LBE993:
 3155              	.LBE992:
 3156              	.LBB994:
 3157              	.LBB841:
 3158              	.LBB834:
 3159              	.LBB823:
 3160              	.LBB817:
 3161              	.LBB812:
 290:C:/Renesas/e2studio_2021_01_workspace_RZA2M_ANPR/ANPR_RZA2M_EBK/src/tensorflow_lite/tensorflow/lite/kernels/internal\types.h ****     const int* dims_data = reinterpret_cast<const int*>(DimsData());
 3162              		.loc 5 290 0
 3163 0bc4 0100A0E3 		mov	r0, #1
 3164              	.LBB808:
 292:C:/Renesas/e2studio_2021_01_workspace_RZA2M_ANPR/ANPR_RZA2M_EBK/src/tensorflow_lite/tensorflow/lite/kernels/internal\types.h ****       buffer_size *= dims_data[i];
 3165              		.loc 5 292 0
 3166 0bc8 0010A0E3 		mov	r1, #0
 3167 0bcc B9FEFFEA 		b	.L118
 3168              	.L112:
 3169              	.LEHB17:
 3170              	.LBE808:
 3171              	.LBE812:
 3172              	.LBE817:
 3173              	.LBB818:
 3174              		.loc 5 524 0
 3175 0bd0 FEFFFFEB 		bl	abort
 3176              	.LVL350:
 3177              	.LEHE17:
 3178              	.L143:
 3179              	.LEHB18:
 3180              	.LBE818:
 3181              	.LBE823:
 3182              	.LBE834:
 3183              	.LBE841:
 3184              	.LBE994:
 3185              	.LBB995:
 3186              	.LBB759:
 3187              	.LBB751:
 3188              	.LBB695:
 3189              	.LBB689:
 3190              	.LBB668:
 3191              	.LBB656:
 215:C:/Renesas/e2studio_2021_01_workspace_RZA2M_ANPR/ANPR_RZA2M_EBK/src/tensorflow_lite/tensorflow/lite/kernels/internal\types.h ****     return size_ > kMaxSmallSize ? dims_pointer_[i] : dims_[i];
 3192              		.loc 5 215 0
 3193 0bd4 FEFFFFEB 		bl	abort
 3194              	.LVL351:
 3195              	.LEHE18:
 3196              	.L264:
 3197 0bd8 EAFFFFEA 		b	.L375
 3198              	.LVL352:
 3199              	.L172:
 3200              	.LEHB19:
 3201              	.LBE656:
 3202              	.LBE668:
 3203              	.LBE689:
 3204              	.LBE695:
 3205              	.LBE751:
 3206              	.LBE759:
 3207              	.LBE995:
 3208              	.LBB996:
 3209              	.LBB974:
 3210              	.LBB967:
 3211              	.LBB912:
 3212              	.LBB907:
 3213              		.loc 5 524 0
 3214 0bdc FEFFFFEB 		bl	abort
 3215              	.LVL353:
 3216              	.L266:
 3217 0be0 E8FFFFEA 		b	.L375
 3218              	.LVL354:
 3219              	.L171:
 3220              	.LBB886:
 3221              	.LBB874:
 215:C:/Renesas/e2studio_2021_01_workspace_RZA2M_ANPR/ANPR_RZA2M_EBK/src/tensorflow_lite/tensorflow/lite/kernels/internal\types.h ****     return size_ > kMaxSmallSize ? dims_pointer_[i] : dims_[i];
 3222              		.loc 5 215 0
 3223 0be4 FEFFFFEB 		bl	abort
 3224              	.LVL355:
 3225              	.LEHE19:
 3226              	.L144:
 3227              	.LEHB20:
 3228              	.LBE874:
 3229              	.LBE886:
 3230              	.LBE907:
 3231              	.LBE912:
 3232              	.LBE967:
 3233              	.LBE974:
 3234              	.LBE996:
 3235              	.LBB997:
 3236              	.LBB760:
 3237              	.LBB752:
 3238              	.LBB696:
 3239              	.LBB690:
 3240              		.loc 5 524 0
 3241 0be8 FEFFFFEB 		bl	abort
 3242              	.LVL356:
 3243              	.LEHE20:
 3244              	.L384:
 3245              	.LBE690:
 3246              	.LBE696:
 3247              	.LBE752:
 3248              	.LBE760:
 3249              	.LBE997:
 3250              	.LBB998:
 3251              	.LBB975:
 3252              	.LBB968:
 3253              	.LBB960:
 3254              	.LBB955:
 3255              	.LBB949:
 3256              	.LBB943:
 3257              	.LBB933:
 359:C:/Renesas/e2studio_2021_01_workspace_RZA2M_ANPR/ANPR_RZA2M_EBK/src/tensorflow_lite/third_party/gemmlowp/fixedpoint\fixedpoint.h ****   const IntegerType mask = Dup<IntegerType>((1ll << exponent) - 1);
 3258              		.loc 7 359 0
 3259 0bec 003000E3 		movw	r3, #:lower16:.LC6
 3260              	.LVL357:
 3261 0bf0 002000E3 		movw	r2, #:lower16:.LANCHOR0
 3262              	.LVL358:
 3263 0bf4 000000E3 		movw	r0, #:lower16:.LC7
 3264 0bf8 003040E3 		movt	r3, #:upper16:.LC6
 3265 0bfc 002040E3 		movt	r2, #:upper16:.LANCHOR0
 3266 0c00 000040E3 		movt	r0, #:upper16:.LC7
 3267 0c04 671100E3 		movw	r1, #359
 3268              	.LEHB21:
 3269 0c08 FEFFFFEB 		bl	__assert_func
 3270              	.LVL359:
 3271              	.LEHE21:
 3272              	.L381:
 3273              	.LBE933:
 3274              	.LBE943:
 3275              	.LBE949:
 3276              	.LBE955:
 3277              	.LBE960:
 3278              	.LBE968:
 3279              	.LBE975:
 3280              	.LBE998:
 3281              	.LBB999:
 3282              	.LBB761:
 3283              	.LBB753:
 3284              	.LBB744:
 3285              	.LBB739:
 3286              	.LBB733:
 3287              	.LBB727:
 3288              	.LBB717:
 3289 0c0c 003000E3 		movw	r3, #:lower16:.LC6
 3290              	.LVL360:
 3291 0c10 002000E3 		movw	r2, #:lower16:.LANCHOR0
 3292              	.LVL361:
 3293 0c14 000000E3 		movw	r0, #:lower16:.LC7
 3294 0c18 003040E3 		movt	r3, #:upper16:.LC6
 3295 0c1c 002040E3 		movt	r2, #:upper16:.LANCHOR0
 3296 0c20 000040E3 		movt	r0, #:upper16:.LC7
 3297 0c24 671100E3 		movw	r1, #359
 3298              	.LEHB22:
 3299 0c28 FEFFFFEB 		bl	__assert_func
 3300              	.LVL362:
 3301              	.LEHE22:
 3302              	.L101:
 3303              	.LEHB23:
 3304              	.LBE717:
 3305              	.LBE727:
 3306              	.LBE733:
 3307              	.LBE739:
 3308              	.LBE744:
 3309              	.LBE753:
 3310              	.LBE761:
 3311              	.LBE999:
 156:../src/tensorflow_lite/tensorflow/lite/micro/kernels/activations.cc ****   const ReluOpData& data = *(static_cast<const ReluOpData*>(node->user_data));
 3312              		.loc 1 156 0 discriminator 1
 3313 0c2c FEFFFFEB 		bl	abort
 3314              	.LVL363:
 3315              	.LEHE23:
 3316              	.L222:
 3317              	.LBB1000:
 3318              	.LBB842:
 3319              	.LBB835:
 100:../src/tensorflow_lite/tensorflow/lite/micro/kernels/activations.cc ****     const float val = input_data[i];
 3320              		.loc 1 100 0
 3321 0c30 0010A0E3 		mov	r1, #0
 3322 0c34 9FFEFFEA 		b	.L118
 3323              	.LVL364:
 3324              	.L107:
 3325              	.LEHB24:
 3326              	.LBE835:
 3327              	.LBB836:
 3328              	.LBB824:
 521:C:/Renesas/e2studio_2021_01_workspace_RZA2M_ANPR/ANPR_RZA2M_EBK/src/tensorflow_lite/tensorflow/lite/kernels/internal\types.h ****   const int dims_count = shape.DimensionsCount();
 3329              		.loc 5 521 0
 3330 0c38 FEFFFFEB 		bl	abort
 3331              	.LVL365:
 3332              	.LEHE24:
 3333              	.L265:
 3334 0c3c D8FFFFEA 		b	.L204
 3335              	.LVL366:
 3336              	.L167:
 3337              	.LEHB25:
 3338              	.LBE824:
 3339              	.LBE836:
 3340              	.LBE842:
 3341              	.LBE1000:
 3342              	.LBB1001:
 3343              	.LBB976:
 3344              	.LBB969:
 3345              	.LBB913:
 3346 0c40 FEFFFFEB 		bl	abort
 3347              	.LVL367:
 3348              	.LEHE25:
 3349              	.L263:
 3350 0c44 D6FFFFEA 		b	.L204
 3351              	.LVL368:
 3352              	.L139:
 3353              	.LEHB26:
 3354              	.LBE913:
 3355              	.LBE969:
 3356              	.LBE976:
 3357              	.LBE1001:
 3358              	.LBB1002:
 3359              	.LBB762:
 3360              	.LBB754:
 3361              	.LBB697:
 3362 0c48 FEFFFFEB 		bl	abort
 3363              	.LVL369:
 3364              	.LEHE26:
 3365              	.L261:
 3366 0c4c D4FFFFEA 		b	.L204
 3367              	.L388:
 3368              		.align	3
 3369              	.L387:
 3370 0c50 01000000 		.word	1
 3371 0c54 00000000 		.word	0
 3372              	.LBE697:
 3373              	.LBE754:
 3374              	.LBE762:
 3375              	.LBE1002:
 3376              		.cfi_endproc
 3377              	.LFE4181:
 3378              		.personality	__gxx_personality_v0
 3379              		.handlerdata
 3380              	.LLSDA4181:
 3381 0008 FF       		.byte	0xff
 3382 0009 FF       		.byte	0xff
 3383 000a 01       		.byte	0x1
 3384 000b 66       		.uleb128 .LLSDACSE4181-.LLSDACSB4181
 3385              	.LLSDACSB4181:
 3386 000c 30       		.uleb128 .LEHB9-.LFB4181
 3387 000d 70       		.uleb128 .LEHE9-.LEHB9
 3388 000e 00       		.uleb128 0
 3389 000f 00       		.uleb128 0
 3390 0010 A801     		.uleb128 .LEHB10-.LFB4181
 3391 0012 04       		.uleb128 .LEHE10-.LEHB10
 3392 0013 C418     		.uleb128 .L263-.LFB4181
 3393 0015 00       		.uleb128 0
 3394 0016 C407     		.uleb128 .LEHB11-.LFB4181
 3395 0018 04       		.uleb128 .LEHE11-.LEHB11
 3396 0019 00       		.uleb128 0
 3397 001a 00       		.uleb128 0
 3398 001b D407     		.uleb128 .LEHB12-.LFB4181
 3399 001d 04       		.uleb128 .LEHE12-.LEHB12
 3400 001e CC18     		.uleb128 .L261-.LFB4181
 3401 0020 00       		.uleb128 0
 3402 0021 B00E     		.uleb128 .LEHB13-.LFB4181
 3403 0023 04       		.uleb128 .LEHE13-.LEHB13
 3404 0024 00       		.uleb128 0
 3405 0025 00       		.uleb128 0
 3406 0026 BC0E     		.uleb128 .LEHB14-.LFB4181
 3407 0028 04       		.uleb128 .LEHE14-.LEHB14
 3408 0029 BC18     		.uleb128 .L265-.LFB4181
 3409 002b 00       		.uleb128 0
 3410 002c F414     		.uleb128 .LEHB15-.LFB4181
 3411 002e 04       		.uleb128 .LEHE15-.LEHB15
 3412 002f 8817     		.uleb128 .L262-.LFB4181
 3413 0031 00       		.uleb128 0
 3414 0032 C017     		.uleb128 .LEHB16-.LFB4181
 3415 0034 04       		.uleb128 .LEHE16-.LEHB16
 3416 0035 00       		.uleb128 0
 3417 0036 00       		.uleb128 0
 3418 0037 D017     		.uleb128 .LEHB17-.LFB4181
 3419 0039 04       		.uleb128 .LEHE17-.LEHB17
 3420 003a 8817     		.uleb128 .L262-.LFB4181
 3421 003c 00       		.uleb128 0
 3422 003d D417     		.uleb128 .LEHB18-.LFB4181
 3423 003f 04       		.uleb128 .LEHE18-.LEHB18
 3424 0040 D817     		.uleb128 .L264-.LFB4181
 3425 0042 00       		.uleb128 0
 3426 0043 DC17     		.uleb128 .LEHB19-.LFB4181
 3427 0045 0C       		.uleb128 .LEHE19-.LEHB19
 3428 0046 E017     		.uleb128 .L266-.LFB4181
 3429 0048 00       		.uleb128 0
 3430 0049 E817     		.uleb128 .LEHB20-.LFB4181
 3431 004b 04       		.uleb128 .LEHE20-.LEHB20
 3432 004c D817     		.uleb128 .L264-.LFB4181
 3433 004e 00       		.uleb128 0
 3434 004f 8818     		.uleb128 .LEHB21-.LFB4181
 3435 0051 04       		.uleb128 .LEHE21-.LEHB21
 3436 0052 E017     		.uleb128 .L266-.LFB4181
 3437 0054 00       		.uleb128 0
 3438 0055 A818     		.uleb128 .LEHB22-.LFB4181
 3439 0057 04       		.uleb128 .LEHE22-.LEHB22
 3440 0058 D817     		.uleb128 .L264-.LFB4181
 3441 005a 00       		.uleb128 0
 3442 005b AC18     		.uleb128 .LEHB23-.LFB4181
 3443 005d 04       		.uleb128 .LEHE23-.LEHB23
 3444 005e 00       		.uleb128 0
 3445 005f 00       		.uleb128 0
 3446 0060 B818     		.uleb128 .LEHB24-.LFB4181
 3447 0062 04       		.uleb128 .LEHE24-.LEHB24
 3448 0063 8817     		.uleb128 .L262-.LFB4181
 3449 0065 00       		.uleb128 0
 3450 0066 C018     		.uleb128 .LEHB25-.LFB4181
 3451 0068 04       		.uleb128 .LEHE25-.LEHB25
 3452 0069 E017     		.uleb128 .L266-.LFB4181
 3453 006b 00       		.uleb128 0
 3454 006c C818     		.uleb128 .LEHB26-.LFB4181
 3455 006e 04       		.uleb128 .LEHE26-.LEHB26
 3456 006f D817     		.uleb128 .L264-.LFB4181
 3457 0071 00       		.uleb128 0
 3458              	.LLSDACSE4181:
 3459              		.section	.text._ZN6tflite3ops5micro11activations8ReluEvalEP13TfLiteContextP10TfLiteNode
 3460              		.fnend
 3462              		.section	.text._ZN6tflite3ops5micro11activations9Relu6EvalEP13TfLiteContextP10TfLiteNode,"ax",%pro
 3463              		.align	2
 3464              		.global	_ZN6tflite3ops5micro11activations9Relu6EvalEP13TfLiteContextP10TfLiteNode
 3465              		.syntax unified
 3466              		.arm
 3467              		.fpu neon
 3469              	_ZN6tflite3ops5micro11activations9Relu6EvalEP13TfLiteContextP10TfLiteNode:
 3470              		.fnstart
 3471              	.LFB4184:
 219:../src/tensorflow_lite/tensorflow/lite/micro/kernels/activations.cc **** 
 220:../src/tensorflow_lite/tensorflow/lite/micro/kernels/activations.cc **** TfLiteStatus Relu6Eval(TfLiteContext* context, TfLiteNode* node) {
 3472              		.loc 1 220 0
 3473              		.cfi_startproc
 3474              		.cfi_personality 0,__gxx_personality_v0
 3475              		.cfi_lsda 0,.LLSDA4184
 3476              		@ args = 0, pretend = 0, frame = 48
 3477              		@ frame_needed = 0, uses_anonymous_args = 0
 3478              	.LVL370:
 3479 0000 F0472DE9 		push	{r4, r5, r6, r7, r8, r9, r10, lr}
 3480              		.save {r4, r5, r6, r7, r8, r9, r10, lr}
 3481              		.cfi_def_cfa_offset 32
 3482              		.cfi_offset 4, -32
 3483              		.cfi_offset 5, -28
 3484              		.cfi_offset 6, -24
 3485              		.cfi_offset 7, -20
 3486              		.cfi_offset 8, -16
 3487              		.cfi_offset 9, -12
 3488              		.cfi_offset 10, -8
 3489              		.cfi_offset 14, -4
 3490              		.pad #48
 3491 0004 30D04DE2 		sub	sp, sp, #48
 3492              		.cfi_def_cfa_offset 80
 221:../src/tensorflow_lite/tensorflow/lite/micro/kernels/activations.cc ****   TFLITE_DCHECK(node->user_data != nullptr);
 3493              		.loc 1 221 0
 3494 0008 108091E5 		ldr	r8, [r1, #16]
 3495 000c 000058E3 		cmp	r8, #0
 3496 0010 1603000A 		beq	.L391
 3497              	.LBB1093:
 3498              	.LBB1094:
 3499              	.LBB1095:
  34:C:/Renesas/e2studio_2021_01_workspace_RZA2M_ANPR/ANPR_RZA2M_EBK/src/tensorflow_lite/tensorflow/lite/micro/kernels\kernel_util.h ****   TFLITE_DCHECK(node != nullptr);
 3500              		.loc 6 34 0
 3501 0014 000050E3 		cmp	r0, #0
 3502 0018 0040A0E1 		mov	r4, r0
 3503              	.LVL371:
 3504 001c 1303000A 		beq	.L391
  36:C:/Renesas/e2studio_2021_01_workspace_RZA2M_ANPR/ANPR_RZA2M_EBK/src/tensorflow_lite/tensorflow/lite/micro/kernels\kernel_util.h **** }
 3505              		.loc 6 36 0
 3506 0020 002091E5 		ldr	r2, [r1]
 3507 0024 0150A0E1 		mov	r5, r1
 3508 0028 543090E5 		ldr	r3, [r0, #84]
 3509 002c 041092E5 		ldr	r1, [r2, #4]
 3510              	.LVL372:
 3511              	.LEHB27:
 3512 0030 33FF2FE1 		blx	r3
 3513              	.LVL373:
 3514              	.LBE1095:
 3515              	.LBE1094:
 3516              	.LBE1093:
 3517              	.LBB1098:
 3518              	.LBB1099:
  50:C:/Renesas/e2studio_2021_01_workspace_RZA2M_ANPR/ANPR_RZA2M_EBK/src/tensorflow_lite/tensorflow/lite/micro/kernels\kernel_util.h **** }
 3519              		.loc 6 50 0
 3520 0034 042095E5 		ldr	r2, [r5, #4]
 3521              	.LBE1099:
 3522              	.LBE1098:
 3523              	.LBB1101:
 3524              	.LBB1097:
 3525              	.LBB1096:
  36:C:/Renesas/e2studio_2021_01_workspace_RZA2M_ANPR/ANPR_RZA2M_EBK/src/tensorflow_lite/tensorflow/lite/micro/kernels\kernel_util.h **** }
 3526              		.loc 6 36 0
 3527 0038 0070A0E1 		mov	r7, r0
 3528              	.LVL374:
 3529              	.LBE1096:
 3530              	.LBE1097:
 3531              	.LBE1101:
 3532              	.LBB1102:
 3533              	.LBB1100:
  50:C:/Renesas/e2studio_2021_01_workspace_RZA2M_ANPR/ANPR_RZA2M_EBK/src/tensorflow_lite/tensorflow/lite/micro/kernels\kernel_util.h **** }
 3534              		.loc 6 50 0
 3535 003c 543094E5 		ldr	r3, [r4, #84]
 3536 0040 0400A0E1 		mov	r0, r4
 3537 0044 041092E5 		ldr	r1, [r2, #4]
 3538 0048 33FF2FE1 		blx	r3
 3539              	.LVL375:
 3540 004c 0060A0E1 		mov	r6, r0
 3541              	.LVL376:
 3542              	.LBE1100:
 3543              	.LBE1102:
 222:../src/tensorflow_lite/tensorflow/lite/micro/kernels/activations.cc ****   const Relu6OpData& data = *(static_cast<const Relu6OpData*>(node->user_data));
 223:../src/tensorflow_lite/tensorflow/lite/micro/kernels/activations.cc **** 
 224:../src/tensorflow_lite/tensorflow/lite/micro/kernels/activations.cc ****   const TfLiteEvalTensor* input =
 225:../src/tensorflow_lite/tensorflow/lite/micro/kernels/activations.cc ****       tflite::micro::GetEvalInput(context, node, kInputTensor);
 226:../src/tensorflow_lite/tensorflow/lite/micro/kernels/activations.cc ****   TfLiteEvalTensor* output =
 227:../src/tensorflow_lite/tensorflow/lite/micro/kernels/activations.cc ****       tflite::micro::GetEvalOutput(context, node, kOutputTensor);
 228:../src/tensorflow_lite/tensorflow/lite/micro/kernels/activations.cc **** 
 229:../src/tensorflow_lite/tensorflow/lite/micro/kernels/activations.cc ****   switch (input->type) {
 3544              		.loc 1 229 0
 3545 0050 0800D7E5 		ldrb	r0, [r7, #8]	@ zero_extendqisi2
 3546 0054 030050E3 		cmp	r0, #3
 3547 0058 0302000A 		beq	.L393
 3548 005c 090050E3 		cmp	r0, #9
 3549 0060 0B00000A 		beq	.L394
 3550 0064 010050E3 		cmp	r0, #1
 3551 0068 6101000A 		beq	.L659
 230:../src/tensorflow_lite/tensorflow/lite/micro/kernels/activations.cc ****     case kTfLiteFloat32: {
 231:../src/tensorflow_lite/tensorflow/lite/micro/kernels/activations.cc ****       Relu6Float(tflite::micro::GetTensorShape(input),
 232:../src/tensorflow_lite/tensorflow/lite/micro/kernels/activations.cc ****                  tflite::micro::GetTensorData<float>(input),
 233:../src/tensorflow_lite/tensorflow/lite/micro/kernels/activations.cc ****                  tflite::micro::GetTensorShape(output),
 234:../src/tensorflow_lite/tensorflow/lite/micro/kernels/activations.cc ****                  tflite::micro::GetTensorData<float>(output));
 235:../src/tensorflow_lite/tensorflow/lite/micro/kernels/activations.cc **** 
 236:../src/tensorflow_lite/tensorflow/lite/micro/kernels/activations.cc ****       return kTfLiteOk;
 237:../src/tensorflow_lite/tensorflow/lite/micro/kernels/activations.cc ****     }
 238:../src/tensorflow_lite/tensorflow/lite/micro/kernels/activations.cc ****     case kTfLiteInt8: {
 239:../src/tensorflow_lite/tensorflow/lite/micro/kernels/activations.cc ****       Relu6Quantized<int8_t>(data.zero_int8, data.six_int8,
 240:../src/tensorflow_lite/tensorflow/lite/micro/kernels/activations.cc ****                              tflite::micro::GetTensorShape(input),
 241:../src/tensorflow_lite/tensorflow/lite/micro/kernels/activations.cc ****                              tflite::micro::GetTensorData<int8_t>(input),
 242:../src/tensorflow_lite/tensorflow/lite/micro/kernels/activations.cc ****                              tflite::micro::GetTensorShape(output),
 243:../src/tensorflow_lite/tensorflow/lite/micro/kernels/activations.cc ****                              tflite::micro::GetTensorData<int8_t>(output));
 244:../src/tensorflow_lite/tensorflow/lite/micro/kernels/activations.cc ****       return kTfLiteOk;
 245:../src/tensorflow_lite/tensorflow/lite/micro/kernels/activations.cc ****     }
 246:../src/tensorflow_lite/tensorflow/lite/micro/kernels/activations.cc ****     case kTfLiteUInt8: {
 247:../src/tensorflow_lite/tensorflow/lite/micro/kernels/activations.cc ****       Relu6Quantized<uint8_t>(data.zero_uint8, data.six_uint8,
 248:../src/tensorflow_lite/tensorflow/lite/micro/kernels/activations.cc ****                               tflite::micro::GetTensorShape(input),
 249:../src/tensorflow_lite/tensorflow/lite/micro/kernels/activations.cc ****                               tflite::micro::GetTensorData<uint8_t>(input),
 250:../src/tensorflow_lite/tensorflow/lite/micro/kernels/activations.cc ****                               tflite::micro::GetTensorShape(output),
 251:../src/tensorflow_lite/tensorflow/lite/micro/kernels/activations.cc ****                               tflite::micro::GetTensorData<uint8_t>(output));
 252:../src/tensorflow_lite/tensorflow/lite/micro/kernels/activations.cc ****       return kTfLiteOk;
 253:../src/tensorflow_lite/tensorflow/lite/micro/kernels/activations.cc ****     }
 254:../src/tensorflow_lite/tensorflow/lite/micro/kernels/activations.cc ****     default: {
 255:../src/tensorflow_lite/tensorflow/lite/micro/kernels/activations.cc ****       TF_LITE_KERNEL_LOG(context, "Only float32 is supported currently, got %s",
 3552              		.loc 1 255 0
 3553 006c 145094E5 		ldr	r5, [r4, #20]
 3554              	.LVL377:
 3555 0070 FEFFFFEB 		bl	TfLiteTypeGetName
 3556              	.LVL378:
 3557 0074 001000E3 		movw	r1, #:lower16:.LC8
 3558 0078 0020A0E1 		mov	r2, r0
 3559 007c 001040E3 		movt	r1, #:upper16:.LC8
 3560 0080 0400A0E1 		mov	r0, r4
 3561 0084 35FF2FE1 		blx	r5
 3562              	.LVL379:
 256:../src/tensorflow_lite/tensorflow/lite/micro/kernels/activations.cc ****                          TfLiteTypeGetName(input->type));
 257:../src/tensorflow_lite/tensorflow/lite/micro/kernels/activations.cc ****       return kTfLiteError;
 3563              		.loc 1 257 0
 3564 0088 0100A0E3 		mov	r0, #1
 258:../src/tensorflow_lite/tensorflow/lite/micro/kernels/activations.cc ****     }
 259:../src/tensorflow_lite/tensorflow/lite/micro/kernels/activations.cc ****   }
 260:../src/tensorflow_lite/tensorflow/lite/micro/kernels/activations.cc **** }
 3565              		.loc 1 260 0
 3566 008c 30D08DE2 		add	sp, sp, #48
 3567              		.cfi_remember_state
 3568              		.cfi_def_cfa_offset 32
 3569              		@ sp needed
 3570 0090 F087BDE8 		pop	{r4, r5, r6, r7, r8, r9, r10, pc}
 3571              	.LVL380:
 3572              	.L394:
 3573              		.cfi_restore_state
 240:../src/tensorflow_lite/tensorflow/lite/micro/kernels/activations.cc ****                              tflite::micro::GetTensorData<int8_t>(input),
 3574              		.loc 1 240 0
 3575 0094 0710A0E1 		mov	r1, r7
 3576 0098 0D00A0E1 		mov	r0, sp
 239:../src/tensorflow_lite/tensorflow/lite/micro/kernels/activations.cc ****                              tflite::micro::GetTensorShape(input),
 3577              		.loc 1 239 0
 3578 009c D140D8E1 		ldrsb	r4, [r8, #1]
 3579              	.LVL381:
 3580 00a0 D050D8E1 		ldrsb	r5, [r8]
 3581              	.LVL382:
 240:../src/tensorflow_lite/tensorflow/lite/micro/kernels/activations.cc ****                              tflite::micro::GetTensorData<int8_t>(input),
 3582              		.loc 1 240 0
 3583 00a4 FEFFFFEB 		bl	_ZN6tflite5micro14GetTensorShapeEPK16TfLiteEvalTensor
 3584              	.LVL383:
 3585              	.LEHE27:
 242:../src/tensorflow_lite/tensorflow/lite/micro/kernels/activations.cc ****                              tflite::micro::GetTensorData<int8_t>(output));
 3586              		.loc 1 242 0
 3587 00a8 0610A0E1 		mov	r1, r6
 3588 00ac 18008DE2 		add	r0, sp, #24
 3589              	.LBB1103:
 3590              	.LBB1104:
 3591              		.loc 6 63 0
 3592 00b0 007097E5 		ldr	r7, [r7]
 3593              	.LEHB28:
 3594              	.LBE1104:
 3595              	.LBE1103:
 242:../src/tensorflow_lite/tensorflow/lite/micro/kernels/activations.cc ****                              tflite::micro::GetTensorData<int8_t>(output));
 3596              		.loc 1 242 0
 3597 00b4 FEFFFFEB 		bl	_ZN6tflite5micro14GetTensorShapeEPK16TfLiteEvalTensor
 3598              	.LVL384:
 3599              	.LEHE28:
 3600 00b8 00209DE5 		ldr	r2, [sp]
 3601              	.LBB1105:
 3602              	.LBB1106:
  56:C:/Renesas/e2studio_2021_01_workspace_RZA2M_ANPR/ANPR_RZA2M_EBK/src/tensorflow_lite/tensorflow/lite/micro/kernels\kernel_util.h **** }
 3603              		.loc 6 56 0
 3604 00bc 000056E3 		cmp	r6, #0
 3605 00c0 18809DE5 		ldr	r8, [sp, #24]
 3606              	.LVL385:
 3607 00c4 0600A001 		moveq	r0, r6
 3608              	.LVL386:
 3609 00c8 00009615 		ldrne	r0, [r6]
 3610              	.LVL387:
 3611              	.LBE1106:
 3612              	.LBE1105:
 3613              	.LBB1107:
 3614              	.LBB1108:
 3615              	.LBB1109:
 3616              	.LBB1110:
 521:C:/Renesas/e2studio_2021_01_workspace_RZA2M_ANPR/ANPR_RZA2M_EBK/src/tensorflow_lite/tensorflow/lite/kernels/internal\types.h ****   const int dims_count = shape.DimensionsCount();
 3617              		.loc 5 521 0
 3618 00cc 080052E1 		cmp	r2, r8
 3619 00d0 E802001A 		bne	.L427
 3620              	.LVL388:
 3621              	.LBB1111:
 523:C:/Renesas/e2studio_2021_01_workspace_RZA2M_ANPR/ANPR_RZA2M_EBK/src/tensorflow_lite/tensorflow/lite/kernels/internal\types.h ****     TFLITE_DCHECK_EQ(shape.Dims(i), check_shape_0.Dims(i));
 3622              		.loc 5 523 0
 3623 00d4 000052E3 		cmp	r2, #0
 3624 00d8 8A0200DA 		ble	.L522
 3625 00dc 050052E3 		cmp	r2, #5
 3626              	.LBB1112:
 3627              	.LBB1113:
 216:C:/Renesas/e2studio_2021_01_workspace_RZA2M_ANPR/ANPR_RZA2M_EBK/src/tensorflow_lite/tensorflow/lite/kernels/internal\types.h ****   }
 3628              		.loc 5 216 0
 3629 00e0 04909DE5 		ldr	r9, [sp, #4]
 3630              	.LBE1113:
 3631              	.LBE1112:
 3632              	.LBB1119:
 3633              	.LBB1120:
 3634 00e4 1C109DE5 		ldr	r1, [sp, #28]
 3635 00e8 770200CA 		bgt	.L430
 3636              	.LVL389:
 215:C:/Renesas/e2studio_2021_01_workspace_RZA2M_ANPR/ANPR_RZA2M_EBK/src/tensorflow_lite/tensorflow/lite/kernels/internal\types.h ****     return size_ > kMaxSmallSize ? dims_pointer_[i] : dims_[i];
 3637              		.loc 5 215 0
 3638 00ec 000052E3 		cmp	r2, #0
 3639 00f0 D70200DA 		ble	.L431
 3640              	.LVL390:
 3641              	.LBE1120:
 3642              	.LBE1119:
 3643              		.loc 5 524 0
 3644 00f4 010059E1 		cmp	r9, r1
 3645 00f8 C502001A 		bne	.L432
 3646              	.LVL391:
 523:C:/Renesas/e2studio_2021_01_workspace_RZA2M_ANPR/ANPR_RZA2M_EBK/src/tensorflow_lite/tensorflow/lite/kernels/internal\types.h ****     TFLITE_DCHECK_EQ(shape.Dims(i), check_shape_0.Dims(i));
 3647              		.loc 5 523 0
 3648 00fc 010052E3 		cmp	r2, #1
 3649 0100 1900000A 		beq	.L521
 3650              	.LVL392:
 3651              	.LBB1128:
 3652              	.LBB1114:
 216:C:/Renesas/e2studio_2021_01_workspace_RZA2M_ANPR/ANPR_RZA2M_EBK/src/tensorflow_lite/tensorflow/lite/kernels/internal\types.h ****   }
 3653              		.loc 5 216 0
 3654 0104 08109DE5 		ldr	r1, [sp, #8]
 3655              	.LVL393:
 3656              	.LBE1114:
 3657              	.LBE1128:
 3658              		.loc 5 524 0
 3659 0108 20309DE5 		ldr	r3, [sp, #32]
 3660 010c 030051E1 		cmp	r1, r3
 3661 0110 BF02001A 		bne	.L432
 3662              	.LVL394:
 523:C:/Renesas/e2studio_2021_01_workspace_RZA2M_ANPR/ANPR_RZA2M_EBK/src/tensorflow_lite/tensorflow/lite/kernels/internal\types.h ****     TFLITE_DCHECK_EQ(shape.Dims(i), check_shape_0.Dims(i));
 3663              		.loc 5 523 0
 3664 0114 020052E3 		cmp	r2, #2
 3665 0118 1300000A 		beq	.L521
 3666              	.LVL395:
 3667              	.LBB1129:
 3668              	.LBB1115:
 216:C:/Renesas/e2studio_2021_01_workspace_RZA2M_ANPR/ANPR_RZA2M_EBK/src/tensorflow_lite/tensorflow/lite/kernels/internal\types.h ****   }
 3669              		.loc 5 216 0
 3670 011c 0C109DE5 		ldr	r1, [sp, #12]
 3671              	.LVL396:
 3672              	.LBE1115:
 3673              	.LBE1129:
 3674              		.loc 5 524 0
 3675 0120 24309DE5 		ldr	r3, [sp, #36]
 3676 0124 030051E1 		cmp	r1, r3
 3677 0128 B902001A 		bne	.L432
 3678              	.LVL397:
 523:C:/Renesas/e2studio_2021_01_workspace_RZA2M_ANPR/ANPR_RZA2M_EBK/src/tensorflow_lite/tensorflow/lite/kernels/internal\types.h ****     TFLITE_DCHECK_EQ(shape.Dims(i), check_shape_0.Dims(i));
 3679              		.loc 5 523 0
 3680 012c 030052E3 		cmp	r2, #3
 3681 0130 0D00000A 		beq	.L521
 3682              	.LVL398:
 3683              	.LBB1130:
 3684              	.LBB1121:
 215:C:/Renesas/e2studio_2021_01_workspace_RZA2M_ANPR/ANPR_RZA2M_EBK/src/tensorflow_lite/tensorflow/lite/kernels/internal\types.h ****     return size_ > kMaxSmallSize ? dims_pointer_[i] : dims_[i];
 3685              		.loc 5 215 0
 3686 0134 030058E3 		cmp	r8, #3
 3687              	.LBE1121:
 3688              	.LBE1130:
 3689              	.LBB1131:
 3690              	.LBB1116:
 216:C:/Renesas/e2studio_2021_01_workspace_RZA2M_ANPR/ANPR_RZA2M_EBK/src/tensorflow_lite/tensorflow/lite/kernels/internal\types.h ****   }
 3691              		.loc 5 216 0
 3692 0138 10109DE5 		ldr	r1, [sp, #16]
 3693              	.LVL399:
 3694              	.LBE1116:
 3695              	.LBE1131:
 3696              	.LBB1132:
 3697              	.LBB1122:
 215:C:/Renesas/e2studio_2021_01_workspace_RZA2M_ANPR/ANPR_RZA2M_EBK/src/tensorflow_lite/tensorflow/lite/kernels/internal\types.h ****     return size_ > kMaxSmallSize ? dims_pointer_[i] : dims_[i];
 3698              		.loc 5 215 0
 3699 013c C402000A 		beq	.L431
 3700              	.LVL400:
 3701              	.LBE1122:
 3702              	.LBE1132:
 3703              		.loc 5 524 0
 3704 0140 28309DE5 		ldr	r3, [sp, #40]
 3705 0144 030051E1 		cmp	r1, r3
 3706 0148 B102001A 		bne	.L432
 3707              	.LVL401:
 523:C:/Renesas/e2studio_2021_01_workspace_RZA2M_ANPR/ANPR_RZA2M_EBK/src/tensorflow_lite/tensorflow/lite/kernels/internal\types.h ****     TFLITE_DCHECK_EQ(shape.Dims(i), check_shape_0.Dims(i));
 3708              		.loc 5 523 0
 3709 014c 040052E3 		cmp	r2, #4
 3710 0150 0500000A 		beq	.L521
 3711              	.LVL402:
 3712              	.LBB1133:
 3713              	.LBB1123:
 215:C:/Renesas/e2studio_2021_01_workspace_RZA2M_ANPR/ANPR_RZA2M_EBK/src/tensorflow_lite/tensorflow/lite/kernels/internal\types.h ****     return size_ > kMaxSmallSize ? dims_pointer_[i] : dims_[i];
 3714              		.loc 5 215 0
 3715 0154 040058E3 		cmp	r8, #4
 3716              	.LBE1123:
 3717              	.LBE1133:
 3718              	.LBB1134:
 3719              	.LBB1117:
 216:C:/Renesas/e2studio_2021_01_workspace_RZA2M_ANPR/ANPR_RZA2M_EBK/src/tensorflow_lite/tensorflow/lite/kernels/internal\types.h ****   }
 3720              		.loc 5 216 0
 3721 0158 14309DE5 		ldr	r3, [sp, #20]
 3722              	.LVL403:
 3723              	.LBE1117:
 3724              	.LBE1134:
 3725              	.LBB1135:
 3726              	.LBB1124:
 215:C:/Renesas/e2studio_2021_01_workspace_RZA2M_ANPR/ANPR_RZA2M_EBK/src/tensorflow_lite/tensorflow/lite/kernels/internal\types.h ****     return size_ > kMaxSmallSize ? dims_pointer_[i] : dims_[i];
 3727              		.loc 5 215 0
 3728 015c BC02000A 		beq	.L431
 3729              	.LVL404:
 3730              	.LBE1124:
 3731              	.LBE1135:
 3732              		.loc 5 524 0
 3733 0160 2C109DE5 		ldr	r1, [sp, #44]
 3734 0164 030051E1 		cmp	r1, r3
 3735 0168 A902001A 		bne	.L432
 3736              	.LVL405:
 3737              	.L521:
 3738              	.LBE1111:
 3739              	.LBB1140:
 3740              	.LBB1141:
 3741              	.LBB1142:
 3742              	.LBB1143:
 232:C:/Renesas/e2studio_2021_01_workspace_RZA2M_ANPR/ANPR_RZA2M_EBK/src/tensorflow_lite/tensorflow/lite/kernels/internal\types.h ****   }
 3743              		.loc 5 232 0
 3744 016c 04808DE2 		add	r8, sp, #4
 3745              	.L433:
 3746              	.LVL406:
 3747 0170 5811A0E7 		sbfx	r1, r8, #2, #1
 3748 0174 031001E2 		and	r1, r1, #3
 3749 0178 020051E1 		cmp	r1, r2
 3750 017c 0210A021 		movcs	r1, r2
 3751 0180 080052E3 		cmp	r2, #8
 3752 0184 0210A091 		movls	r1, r2
 3753 0188 000051E3 		cmp	r1, #0
 3754 018c 8D02000A 		beq	.L523
 3755 0190 010051E3 		cmp	r1, #1
 3756              	.LBE1143:
 3757              	.LBE1142:
 3758              	.LBB1145:
 293:C:/Renesas/e2studio_2021_01_workspace_RZA2M_ANPR/ANPR_RZA2M_EBK/src/tensorflow_lite/tensorflow/lite/kernels/internal\types.h ****     }
 3759              		.loc 5 293 0
 3760 0194 003098E5 		ldr	r3, [r8]
 3761              	.LVL407:
 3762 0198 7E02000A 		beq	.L530
 3763 019c 04C098E5 		ldr	ip, [r8, #4]
 3764 01a0 020051E3 		cmp	r1, #2
 3765 01a4 9C0303E0 		mul	r3, ip, r3
 3766              	.LVL408:
 3767 01a8 7A02000A 		beq	.L530
 3768 01ac 08C098E5 		ldr	ip, [r8, #8]
 3769 01b0 030051E3 		cmp	r1, #3
 3770 01b4 9C0303E0 		mul	r3, ip, r3
 3771              	.LVL409:
 3772 01b8 7602000A 		beq	.L530
 3773 01bc 0CC098E5 		ldr	ip, [r8, #12]
 3774 01c0 040051E3 		cmp	r1, #4
 3775 01c4 9C0303E0 		mul	r3, ip, r3
 3776              	.LVL410:
 3777 01c8 7202000A 		beq	.L530
 3778 01cc 10C098E5 		ldr	ip, [r8, #16]
 3779 01d0 050051E3 		cmp	r1, #5
 3780 01d4 9C0303E0 		mul	r3, ip, r3
 3781              	.LVL411:
 3782 01d8 6E02000A 		beq	.L530
 3783 01dc 14C098E5 		ldr	ip, [r8, #20]
 3784 01e0 060051E3 		cmp	r1, #6
 3785 01e4 9C0303E0 		mul	r3, ip, r3
 3786              	.LVL412:
 3787 01e8 6A02000A 		beq	.L530
 3788 01ec 18C098E5 		ldr	ip, [r8, #24]
 3789 01f0 070051E3 		cmp	r1, #7
 3790 01f4 9C0303E0 		mul	r3, ip, r3
 3791              	.LVL413:
 3792 01f8 6602000A 		beq	.L530
 3793 01fc 1CC098E5 		ldr	ip, [r8, #28]
 292:C:/Renesas/e2studio_2021_01_workspace_RZA2M_ANPR/ANPR_RZA2M_EBK/src/tensorflow_lite/tensorflow/lite/kernels/internal\types.h ****       buffer_size *= dims_data[i];
 3794              		.loc 5 292 0
 3795 0200 0860A0E3 		mov	r6, #8
 293:C:/Renesas/e2studio_2021_01_workspace_RZA2M_ANPR/ANPR_RZA2M_EBK/src/tensorflow_lite/tensorflow/lite/kernels/internal\types.h ****     }
 3796              		.loc 5 293 0
 3797 0204 9C0303E0 		mul	r3, ip, r3
 3798              	.LVL414:
 3799              	.L440:
 3800 0208 010052E1 		cmp	r2, r1
 3801 020c 2800000A 		beq	.L441
 3802              	.LVL415:
 3803              	.L439:
 3804 0210 01C042E0 		sub	ip, r2, r1
 3805 0214 019042E2 		sub	r9, r2, #1
 3806 0218 04E04CE2 		sub	lr, ip, #4
 3807 021c 019049E0 		sub	r9, r9, r1
 3808 0220 2EE1A0E1 		lsr	lr, lr, #2
 3809 0224 020059E3 		cmp	r9, #2
 3810 0228 01E08EE2 		add	lr, lr, #1
 3811 022c 0EA1A0E1 		lsl	r10, lr, #2
 3812 0230 1200009A 		bls	.L442
 3813 0234 011188E0 		add	r1, r8, r1, lsl #2
 292:C:/Renesas/e2studio_2021_01_workspace_RZA2M_ANPR/ANPR_RZA2M_EBK/src/tensorflow_lite/tensorflow/lite/kernels/internal\types.h ****       buffer_size *= dims_data[i];
 3814              		.loc 5 292 0
 3815 0238 5100C0F2 		vmov.i32	q8, #1  @ v4si
 3816 023c 0090A0E3 		mov	r9, #0
 3817              	.L444:
 3818 0240 019089E2 		add	r9, r9, #1
 293:C:/Renesas/e2studio_2021_01_workspace_RZA2M_ANPR/ANPR_RZA2M_EBK/src/tensorflow_lite/tensorflow/lite/kernels/internal\types.h ****     }
 3819              		.loc 5 293 0
 3820 0244 DF2A61F4 		vld1.64	{d18-d19}, [r1:64]
 3821 0248 09005EE1 		cmp	lr, r9
 3822 024c 101081E2 		add	r1, r1, #16
 3823 0250 F20960F2 		vmul.i32	q8, q8, q9
 3824 0254 F9FFFF8A 		bhi	.L444
 3825 0258 0A005CE1 		cmp	ip, r10
 3826 025c 0A6086E0 		add	r6, r6, r10
 3827 0260 5020C0F2 		vmov.i32	q9, #0  @ v4si
 3828 0264 E248F0F2 		vext.32	q10, q8, q9, #2
 3829 0268 F40960F2 		vmul.i32	q8, q8, q10
 3830 026c E224F0F2 		vext.32	q9, q8, q9, #1
 3831 0270 F20960F2 		vmul.i32	q8, q8, q9
 3832 0274 90CB10EE 		vmov.32	ip, d16[0]
 3833 0278 9C0303E0 		mul	r3, ip, r3
 3834 027c 0C00000A 		beq	.L441
 3835              	.L442:
 3836              	.LVL416:
 3837 0280 06C198E7 		ldr	ip, [r8, r6, lsl #2]
 292:C:/Renesas/e2studio_2021_01_workspace_RZA2M_ANPR/ANPR_RZA2M_EBK/src/tensorflow_lite/tensorflow/lite/kernels/internal\types.h ****       buffer_size *= dims_data[i];
 3838              		.loc 5 292 0
 3839 0284 011086E2 		add	r1, r6, #1
 3840 0288 010052E1 		cmp	r2, r1
 293:C:/Renesas/e2studio_2021_01_workspace_RZA2M_ANPR/ANPR_RZA2M_EBK/src/tensorflow_lite/tensorflow/lite/kernels/internal\types.h ****     }
 3841              		.loc 5 293 0
 3842 028c 0611A0E1 		lsl	r1, r6, #2
 3843 0290 9C0303E0 		mul	r3, ip, r3
 3844              	.LVL417:
 292:C:/Renesas/e2studio_2021_01_workspace_RZA2M_ANPR/ANPR_RZA2M_EBK/src/tensorflow_lite/tensorflow/lite/kernels/internal\types.h ****       buffer_size *= dims_data[i];
 3845              		.loc 5 292 0
 3846 0294 060000DA 		ble	.L441
 293:C:/Renesas/e2studio_2021_01_workspace_RZA2M_ANPR/ANPR_RZA2M_EBK/src/tensorflow_lite/tensorflow/lite/kernels/internal\types.h ****     }
 3847              		.loc 5 293 0
 3848 0298 011088E0 		add	r1, r8, r1
 292:C:/Renesas/e2studio_2021_01_workspace_RZA2M_ANPR/ANPR_RZA2M_EBK/src/tensorflow_lite/tensorflow/lite/kernels/internal\types.h ****       buffer_size *= dims_data[i];
 3849              		.loc 5 292 0
 3850 029c 02C086E2 		add	ip, r6, #2
 293:C:/Renesas/e2studio_2021_01_workspace_RZA2M_ANPR/ANPR_RZA2M_EBK/src/tensorflow_lite/tensorflow/lite/kernels/internal\types.h ****     }
 3851              		.loc 5 293 0
 3852 02a0 04E091E5 		ldr	lr, [r1, #4]
 292:C:/Renesas/e2studio_2021_01_workspace_RZA2M_ANPR/ANPR_RZA2M_EBK/src/tensorflow_lite/tensorflow/lite/kernels/internal\types.h ****       buffer_size *= dims_data[i];
 3853              		.loc 5 292 0
 3854 02a4 0C0052E1 		cmp	r2, ip
 293:C:/Renesas/e2studio_2021_01_workspace_RZA2M_ANPR/ANPR_RZA2M_EBK/src/tensorflow_lite/tensorflow/lite/kernels/internal\types.h ****     }
 3855              		.loc 5 293 0
 3856 02a8 9E0303E0 		mul	r3, lr, r3
 3857              	.LVL418:
 292:C:/Renesas/e2studio_2021_01_workspace_RZA2M_ANPR/ANPR_RZA2M_EBK/src/tensorflow_lite/tensorflow/lite/kernels/internal\types.h ****       buffer_size *= dims_data[i];
 3858              		.loc 5 292 0
 293:C:/Renesas/e2studio_2021_01_workspace_RZA2M_ANPR/ANPR_RZA2M_EBK/src/tensorflow_lite/tensorflow/lite/kernels/internal\types.h ****     }
 3859              		.loc 5 293 0
 3860 02ac 081091C5 		ldrgt	r1, [r1, #8]
 3861 02b0 910303C0 		mulgt	r3, r1, r3
 3862              	.LVL419:
 3863              	.L441:
 3864              	.LBE1145:
 3865              	.LBE1141:
 3866              	.LBE1140:
 3867              	.LBE1110:
 3868              	.LBE1109:
 3869              	.LBB1169:
 125:../src/tensorflow_lite/tensorflow/lite/micro/kernels/activations.cc ****     const Q val = input_data[i];
 3870              		.loc 1 125 0
 3871 02b4 000053E3 		cmp	r3, #0
 3872 02b8 BD0000DA 		ble	.L469
 3873              	.LVL420:
 3874              	.L428:
 3875 02bc 102087E2 		add	r2, r7, #16
 3876 02c0 10E080E2 		add	lr, r0, #16
 3877 02c4 0210A0E1 		mov	r1, r2
 3878 02c8 00C087E1 		orr	ip, r7, r0
 3879 02cc 0E0057E1 		cmp	r7, lr
 3880 02d0 01005031 		cmpcc	r0, r1
 3881 02d4 0E20A0E1 		mov	r2, lr
 3882 02d8 0120A023 		movcs	r2, #1
 3883 02dc 0020A033 		movcc	r2, #0
 3884 02e0 0F001CE3 		tst	ip, #15
 3885 02e4 0C10A0E1 		mov	r1, ip
 3886 02e8 0020A013 		movne	r2, #0
 3887 02ec 01200202 		andeq	r2, r2, #1
 3888 02f0 0F0053E3 		cmp	r3, #15
 3889 02f4 0020A093 		movls	r2, #0
 3890 02f8 01200282 		andhi	r2, r2, #1
 3891 02fc 000052E3 		cmp	r2, #0
 3892 0300 3602000A 		beq	.L448
 3893 0304 101043E2 		sub	r1, r3, #16
 3894 0308 0F0053E3 		cmp	r3, #15
 3895 030c 2112A0E1 		lsr	r1, r1, #4
 3896 0310 011081E2 		add	r1, r1, #1
 3897 0314 0122A0E1 		lsl	r2, r1, #4
 3898 0318 2D0200DA 		ble	.L531
 3899 031c 904BE4EE 		vdup.8	q10, r4
 3900 0320 0760A0E1 		mov	r6, r7
 3901              	.LBE1169:
 3902              	.LBB1216:
 3903              	.LBB1162:
 3904              	.LBB1155:
 3905              	.LBB1151:
 290:C:/Renesas/e2studio_2021_01_workspace_RZA2M_ANPR/ANPR_RZA2M_EBK/src/tensorflow_lite/tensorflow/lite/kernels/internal\types.h ****     const int* dims_data = reinterpret_cast<const int*>(DimsData());
 3906              		.loc 5 290 0
 3907 0324 00E0A0E1 		mov	lr, r0
 3908 0328 00C0A0E3 		mov	ip, #0
 3909 032c 905BE2EE 		vdup.8	q9, r5
 3910              	.LVL421:
 3911              	.L451:
 3912 0330 01C08CE2 		add	ip, ip, #1
 3913 0334 106086E2 		add	r6, r6, #16
 3914              	.LBE1151:
 3915              	.LBE1155:
 3916              	.LBE1162:
 3917              	.LBE1216:
 3918              	.LBB1217:
 3919              	.LBB1170:
 126:../src/tensorflow_lite/tensorflow/lite/micro/kernels/activations.cc ****     const Q clamped = val > upper ? upper : val < lower ? lower : val;
 3920              		.loc 1 126 0
 3921 0338 040B56ED 		vldr	d16, [r6, #-16]
 3922 033c 021B56ED 		vldr	d17, [r6, #-8]
 3923 0340 0C0051E1 		cmp	r1, ip
 3924 0344 10E08EE2 		add	lr, lr, #16
 128:../src/tensorflow_lite/tensorflow/lite/micro/kernels/activations.cc ****   }
 3925              		.loc 1 128 0
 3926 0348 E46640F2 		vmax.s8	q11, q8, q10
 3927 034c F00342F2 		vcge.s8	q8, q9, q8
 3928 0350 F20156F3 		vbsl	q8, q11, q9
 3929 0354 040B4EED 		vstr	d16, [lr, #-16]
 3930 0358 021B4EED 		vstr	d17, [lr, #-8]
 3931 035c F3FFFF8A 		bhi	.L451
 3932 0360 020053E1 		cmp	r3, r2
 3933 0364 9100000A 		beq	.L657
 3934              	.L449:
 126:../src/tensorflow_lite/tensorflow/lite/micro/kernels/activations.cc ****     const Q clamped = val > upper ? upper : val < lower ? lower : val;
 3935              		.loc 1 126 0
 3936 0368 D2E097E1 		ldrsb	lr, [r7, r2]
 3937              	.LVL422:
 3938              	.LBE1170:
 125:../src/tensorflow_lite/tensorflow/lite/micro/kernels/activations.cc ****     const Q val = input_data[i];
 3939              		.loc 1 125 0
 3940 036c 011082E2 		add	r1, r2, #1
 3941              	.LVL423:
 3942              	.LBB1171:
 128:../src/tensorflow_lite/tensorflow/lite/micro/kernels/activations.cc ****   }
 3943              		.loc 1 128 0
 3944 0370 0E0054E1 		cmp	r4, lr
 3945 0374 0EC0A0B1 		movlt	ip, lr
 3946 0378 04C0A0A1 		movge	ip, r4
 3947 037c 0E0055E1 		cmp	r5, lr
 3948 0380 05C0A0B1 		movlt	ip, r5
 3949              	.LBE1171:
 125:../src/tensorflow_lite/tensorflow/lite/micro/kernels/activations.cc ****     const Q val = input_data[i];
 3950              		.loc 1 125 0
 3951 0384 010053E1 		cmp	r3, r1
 3952              	.LBB1172:
 128:../src/tensorflow_lite/tensorflow/lite/micro/kernels/activations.cc ****   }
 3953              		.loc 1 128 0
 3954 0388 02C0C0E7 		strb	ip, [r0, r2]
 3955              	.LBE1172:
 125:../src/tensorflow_lite/tensorflow/lite/micro/kernels/activations.cc ****     const Q val = input_data[i];
 3956              		.loc 1 125 0
 3957 038c 870000DA 		ble	.L657
 3958              	.LVL424:
 3959              	.LBB1173:
 126:../src/tensorflow_lite/tensorflow/lite/micro/kernels/activations.cc ****     const Q clamped = val > upper ? upper : val < lower ? lower : val;
 3960              		.loc 1 126 0
 3961 0390 D16097E1 		ldrsb	r6, [r7, r1]
 3962              	.LVL425:
 3963              	.LBE1173:
 125:../src/tensorflow_lite/tensorflow/lite/micro/kernels/activations.cc ****     const Q val = input_data[i];
 3964              		.loc 1 125 0
 3965 0394 02C082E2 		add	ip, r2, #2
 3966              	.LVL426:
 3967              	.LBB1174:
 128:../src/tensorflow_lite/tensorflow/lite/micro/kernels/activations.cc ****   }
 3968              		.loc 1 128 0
 3969 0398 060054E1 		cmp	r4, r6
 3970 039c 06E0A0B1 		movlt	lr, r6
 3971 03a0 04E0A0A1 		movge	lr, r4
 3972 03a4 060055E1 		cmp	r5, r6
 3973 03a8 05E0A0B1 		movlt	lr, r5
 3974              	.LBE1174:
 125:../src/tensorflow_lite/tensorflow/lite/micro/kernels/activations.cc ****     const Q val = input_data[i];
 3975              		.loc 1 125 0
 3976 03ac 0C0053E1 		cmp	r3, ip
 3977              	.LBB1175:
 128:../src/tensorflow_lite/tensorflow/lite/micro/kernels/activations.cc ****   }
 3978              		.loc 1 128 0
 3979 03b0 01E0C0E7 		strb	lr, [r0, r1]
 3980              	.LBE1175:
 125:../src/tensorflow_lite/tensorflow/lite/micro/kernels/activations.cc ****     const Q val = input_data[i];
 3981              		.loc 1 125 0
 3982 03b4 7D0000DA 		ble	.L657
 3983              	.LVL427:
 3984              	.LBB1176:
 126:../src/tensorflow_lite/tensorflow/lite/micro/kernels/activations.cc ****     const Q clamped = val > upper ? upper : val < lower ? lower : val;
 3985              		.loc 1 126 0
 3986 03b8 DC6097E1 		ldrsb	r6, [r7, ip]
 3987              	.LVL428:
 3988              	.LBE1176:
 125:../src/tensorflow_lite/tensorflow/lite/micro/kernels/activations.cc ****     const Q val = input_data[i];
 3989              		.loc 1 125 0
 3990 03bc 031082E2 		add	r1, r2, #3
 3991              	.LVL429:
 3992              	.LBB1177:
 128:../src/tensorflow_lite/tensorflow/lite/micro/kernels/activations.cc ****   }
 3993              		.loc 1 128 0
 3994 03c0 060054E1 		cmp	r4, r6
 3995 03c4 06E0A0B1 		movlt	lr, r6
 3996 03c8 04E0A0A1 		movge	lr, r4
 3997 03cc 060055E1 		cmp	r5, r6
 3998 03d0 05E0A0B1 		movlt	lr, r5
 3999              	.LBE1177:
 125:../src/tensorflow_lite/tensorflow/lite/micro/kernels/activations.cc ****     const Q val = input_data[i];
 4000              		.loc 1 125 0
 4001 03d4 010053E1 		cmp	r3, r1
 4002              	.LBB1178:
 128:../src/tensorflow_lite/tensorflow/lite/micro/kernels/activations.cc ****   }
 4003              		.loc 1 128 0
 4004 03d8 0CE0C0E7 		strb	lr, [r0, ip]
 4005              	.LBE1178:
 125:../src/tensorflow_lite/tensorflow/lite/micro/kernels/activations.cc ****     const Q val = input_data[i];
 4006              		.loc 1 125 0
 4007 03dc 730000DA 		ble	.L657
 4008              	.LVL430:
 4009              	.LBB1179:
 126:../src/tensorflow_lite/tensorflow/lite/micro/kernels/activations.cc ****     const Q clamped = val > upper ? upper : val < lower ? lower : val;
 4010              		.loc 1 126 0
 4011 03e0 D16097E1 		ldrsb	r6, [r7, r1]
 4012              	.LVL431:
 4013              	.LBE1179:
 125:../src/tensorflow_lite/tensorflow/lite/micro/kernels/activations.cc ****     const Q val = input_data[i];
 4014              		.loc 1 125 0
 4015 03e4 04C082E2 		add	ip, r2, #4
 4016              	.LVL432:
 4017              	.LBB1180:
 128:../src/tensorflow_lite/tensorflow/lite/micro/kernels/activations.cc ****   }
 4018              		.loc 1 128 0
 4019 03e8 060054E1 		cmp	r4, r6
 4020 03ec 06E0A0B1 		movlt	lr, r6
 4021 03f0 04E0A0A1 		movge	lr, r4
 4022 03f4 060055E1 		cmp	r5, r6
 4023 03f8 05E0A0B1 		movlt	lr, r5
 4024              	.LBE1180:
 125:../src/tensorflow_lite/tensorflow/lite/micro/kernels/activations.cc ****     const Q val = input_data[i];
 4025              		.loc 1 125 0
 4026 03fc 0C0053E1 		cmp	r3, ip
 4027              	.LBB1181:
 128:../src/tensorflow_lite/tensorflow/lite/micro/kernels/activations.cc ****   }
 4028              		.loc 1 128 0
 4029 0400 01E0C0E7 		strb	lr, [r0, r1]
 4030              	.LBE1181:
 125:../src/tensorflow_lite/tensorflow/lite/micro/kernels/activations.cc ****     const Q val = input_data[i];
 4031              		.loc 1 125 0
 4032 0404 690000DA 		ble	.L657
 4033              	.LVL433:
 4034              	.LBB1182:
 126:../src/tensorflow_lite/tensorflow/lite/micro/kernels/activations.cc ****     const Q clamped = val > upper ? upper : val < lower ? lower : val;
 4035              		.loc 1 126 0
 4036 0408 DC6097E1 		ldrsb	r6, [r7, ip]
 4037              	.LVL434:
 4038              	.LBE1182:
 125:../src/tensorflow_lite/tensorflow/lite/micro/kernels/activations.cc ****     const Q val = input_data[i];
 4039              		.loc 1 125 0
 4040 040c 051082E2 		add	r1, r2, #5
 4041              	.LVL435:
 4042              	.LBB1183:
 128:../src/tensorflow_lite/tensorflow/lite/micro/kernels/activations.cc ****   }
 4043              		.loc 1 128 0
 4044 0410 060054E1 		cmp	r4, r6
 4045 0414 06E0A0B1 		movlt	lr, r6
 4046 0418 04E0A0A1 		movge	lr, r4
 4047 041c 060055E1 		cmp	r5, r6
 4048 0420 05E0A0B1 		movlt	lr, r5
 4049              	.LBE1183:
 125:../src/tensorflow_lite/tensorflow/lite/micro/kernels/activations.cc ****     const Q val = input_data[i];
 4050              		.loc 1 125 0
 4051 0424 010053E1 		cmp	r3, r1
 4052              	.LBB1184:
 128:../src/tensorflow_lite/tensorflow/lite/micro/kernels/activations.cc ****   }
 4053              		.loc 1 128 0
 4054 0428 0CE0C0E7 		strb	lr, [r0, ip]
 4055              	.LBE1184:
 125:../src/tensorflow_lite/tensorflow/lite/micro/kernels/activations.cc ****     const Q val = input_data[i];
 4056              		.loc 1 125 0
 4057 042c 5F0000DA 		ble	.L657
 4058              	.LVL436:
 4059              	.LBB1185:
 126:../src/tensorflow_lite/tensorflow/lite/micro/kernels/activations.cc ****     const Q clamped = val > upper ? upper : val < lower ? lower : val;
 4060              		.loc 1 126 0
 4061 0430 D16097E1 		ldrsb	r6, [r7, r1]
 4062              	.LVL437:
 4063              	.LBE1185:
 125:../src/tensorflow_lite/tensorflow/lite/micro/kernels/activations.cc ****     const Q val = input_data[i];
 4064              		.loc 1 125 0
 4065 0434 06C082E2 		add	ip, r2, #6
 4066              	.LVL438:
 4067              	.LBB1186:
 128:../src/tensorflow_lite/tensorflow/lite/micro/kernels/activations.cc ****   }
 4068              		.loc 1 128 0
 4069 0438 060054E1 		cmp	r4, r6
 4070 043c 06E0A0B1 		movlt	lr, r6
 4071 0440 04E0A0A1 		movge	lr, r4
 4072 0444 060055E1 		cmp	r5, r6
 4073 0448 05E0A0B1 		movlt	lr, r5
 4074              	.LBE1186:
 125:../src/tensorflow_lite/tensorflow/lite/micro/kernels/activations.cc ****     const Q val = input_data[i];
 4075              		.loc 1 125 0
 4076 044c 0C0053E1 		cmp	r3, ip
 4077              	.LBB1187:
 128:../src/tensorflow_lite/tensorflow/lite/micro/kernels/activations.cc ****   }
 4078              		.loc 1 128 0
 4079 0450 01E0C0E7 		strb	lr, [r0, r1]
 4080              	.LBE1187:
 125:../src/tensorflow_lite/tensorflow/lite/micro/kernels/activations.cc ****     const Q val = input_data[i];
 4081              		.loc 1 125 0
 4082 0454 550000DA 		ble	.L657
 4083              	.LVL439:
 4084              	.LBB1188:
 126:../src/tensorflow_lite/tensorflow/lite/micro/kernels/activations.cc ****     const Q clamped = val > upper ? upper : val < lower ? lower : val;
 4085              		.loc 1 126 0
 4086 0458 DC6097E1 		ldrsb	r6, [r7, ip]
 4087              	.LVL440:
 4088              	.LBE1188:
 125:../src/tensorflow_lite/tensorflow/lite/micro/kernels/activations.cc ****     const Q val = input_data[i];
 4089              		.loc 1 125 0
 4090 045c 071082E2 		add	r1, r2, #7
 4091              	.LVL441:
 4092              	.LBB1189:
 128:../src/tensorflow_lite/tensorflow/lite/micro/kernels/activations.cc ****   }
 4093              		.loc 1 128 0
 4094 0460 060054E1 		cmp	r4, r6
 4095 0464 06E0A0B1 		movlt	lr, r6
 4096 0468 04E0A0A1 		movge	lr, r4
 4097 046c 060055E1 		cmp	r5, r6
 4098 0470 05E0A0B1 		movlt	lr, r5
 4099              	.LBE1189:
 125:../src/tensorflow_lite/tensorflow/lite/micro/kernels/activations.cc ****     const Q val = input_data[i];
 4100              		.loc 1 125 0
 4101 0474 010053E1 		cmp	r3, r1
 4102              	.LBB1190:
 128:../src/tensorflow_lite/tensorflow/lite/micro/kernels/activations.cc ****   }
 4103              		.loc 1 128 0
 4104 0478 0CE0C0E7 		strb	lr, [r0, ip]
 4105              	.LBE1190:
 125:../src/tensorflow_lite/tensorflow/lite/micro/kernels/activations.cc ****     const Q val = input_data[i];
 4106              		.loc 1 125 0
 4107 047c 4B0000DA 		ble	.L657
 4108              	.LVL442:
 4109              	.LBB1191:
 126:../src/tensorflow_lite/tensorflow/lite/micro/kernels/activations.cc ****     const Q clamped = val > upper ? upper : val < lower ? lower : val;
 4110              		.loc 1 126 0
 4111 0480 D16097E1 		ldrsb	r6, [r7, r1]
 4112              	.LVL443:
 4113              	.LBE1191:
 125:../src/tensorflow_lite/tensorflow/lite/micro/kernels/activations.cc ****     const Q val = input_data[i];
 4114              		.loc 1 125 0
 4115 0484 08C082E2 		add	ip, r2, #8
 4116              	.LVL444:
 4117              	.LBB1192:
 128:../src/tensorflow_lite/tensorflow/lite/micro/kernels/activations.cc ****   }
 4118              		.loc 1 128 0
 4119 0488 060054E1 		cmp	r4, r6
 4120 048c 06E0A0B1 		movlt	lr, r6
 4121 0490 04E0A0A1 		movge	lr, r4
 4122 0494 060055E1 		cmp	r5, r6
 4123 0498 05E0A0B1 		movlt	lr, r5
 4124              	.LBE1192:
 125:../src/tensorflow_lite/tensorflow/lite/micro/kernels/activations.cc ****     const Q val = input_data[i];
 4125              		.loc 1 125 0
 4126 049c 0C0053E1 		cmp	r3, ip
 4127              	.LBB1193:
 128:../src/tensorflow_lite/tensorflow/lite/micro/kernels/activations.cc ****   }
 4128              		.loc 1 128 0
 4129 04a0 01E0C0E7 		strb	lr, [r0, r1]
 4130              	.LBE1193:
 125:../src/tensorflow_lite/tensorflow/lite/micro/kernels/activations.cc ****     const Q val = input_data[i];
 4131              		.loc 1 125 0
 4132 04a4 410000DA 		ble	.L657
 4133              	.LVL445:
 4134              	.LBB1194:
 126:../src/tensorflow_lite/tensorflow/lite/micro/kernels/activations.cc ****     const Q clamped = val > upper ? upper : val < lower ? lower : val;
 4135              		.loc 1 126 0
 4136 04a8 DC6097E1 		ldrsb	r6, [r7, ip]
 4137              	.LVL446:
 4138              	.LBE1194:
 125:../src/tensorflow_lite/tensorflow/lite/micro/kernels/activations.cc ****     const Q val = input_data[i];
 4139              		.loc 1 125 0
 4140 04ac 091082E2 		add	r1, r2, #9
 4141              	.LVL447:
 4142              	.LBB1195:
 128:../src/tensorflow_lite/tensorflow/lite/micro/kernels/activations.cc ****   }
 4143              		.loc 1 128 0
 4144 04b0 060054E1 		cmp	r4, r6
 4145 04b4 06E0A0B1 		movlt	lr, r6
 4146 04b8 04E0A0A1 		movge	lr, r4
 4147 04bc 060055E1 		cmp	r5, r6
 4148 04c0 05E0A0B1 		movlt	lr, r5
 4149              	.LBE1195:
 125:../src/tensorflow_lite/tensorflow/lite/micro/kernels/activations.cc ****     const Q val = input_data[i];
 4150              		.loc 1 125 0
 4151 04c4 010053E1 		cmp	r3, r1
 4152              	.LBB1196:
 128:../src/tensorflow_lite/tensorflow/lite/micro/kernels/activations.cc ****   }
 4153              		.loc 1 128 0
 4154 04c8 0CE0C0E7 		strb	lr, [r0, ip]
 4155              	.LBE1196:
 125:../src/tensorflow_lite/tensorflow/lite/micro/kernels/activations.cc ****     const Q val = input_data[i];
 4156              		.loc 1 125 0
 4157 04cc 370000DA 		ble	.L657
 4158              	.LVL448:
 4159              	.LBB1197:
 126:../src/tensorflow_lite/tensorflow/lite/micro/kernels/activations.cc ****     const Q clamped = val > upper ? upper : val < lower ? lower : val;
 4160              		.loc 1 126 0
 4161 04d0 D16097E1 		ldrsb	r6, [r7, r1]
 4162              	.LVL449:
 4163              	.LBE1197:
 125:../src/tensorflow_lite/tensorflow/lite/micro/kernels/activations.cc ****     const Q val = input_data[i];
 4164              		.loc 1 125 0
 4165 04d4 0AC082E2 		add	ip, r2, #10
 4166              	.LVL450:
 4167              	.LBB1198:
 128:../src/tensorflow_lite/tensorflow/lite/micro/kernels/activations.cc ****   }
 4168              		.loc 1 128 0
 4169 04d8 060054E1 		cmp	r4, r6
 4170 04dc 06E0A0B1 		movlt	lr, r6
 4171 04e0 04E0A0A1 		movge	lr, r4
 4172 04e4 060055E1 		cmp	r5, r6
 4173 04e8 05E0A0B1 		movlt	lr, r5
 4174              	.LBE1198:
 125:../src/tensorflow_lite/tensorflow/lite/micro/kernels/activations.cc ****     const Q val = input_data[i];
 4175              		.loc 1 125 0
 4176 04ec 0C0053E1 		cmp	r3, ip
 4177              	.LBB1199:
 128:../src/tensorflow_lite/tensorflow/lite/micro/kernels/activations.cc ****   }
 4178              		.loc 1 128 0
 4179 04f0 01E0C0E7 		strb	lr, [r0, r1]
 4180              	.LBE1199:
 125:../src/tensorflow_lite/tensorflow/lite/micro/kernels/activations.cc ****     const Q val = input_data[i];
 4181              		.loc 1 125 0
 4182 04f4 2D0000DA 		ble	.L657
 4183              	.LVL451:
 4184              	.LBB1200:
 126:../src/tensorflow_lite/tensorflow/lite/micro/kernels/activations.cc ****     const Q clamped = val > upper ? upper : val < lower ? lower : val;
 4185              		.loc 1 126 0
 4186 04f8 DC6097E1 		ldrsb	r6, [r7, ip]
 4187              	.LVL452:
 4188              	.LBE1200:
 125:../src/tensorflow_lite/tensorflow/lite/micro/kernels/activations.cc ****     const Q val = input_data[i];
 4189              		.loc 1 125 0
 4190 04fc 0B1082E2 		add	r1, r2, #11
 4191              	.LVL453:
 4192              	.LBB1201:
 128:../src/tensorflow_lite/tensorflow/lite/micro/kernels/activations.cc ****   }
 4193              		.loc 1 128 0
 4194 0500 060054E1 		cmp	r4, r6
 4195 0504 06E0A0B1 		movlt	lr, r6
 4196 0508 04E0A0A1 		movge	lr, r4
 4197 050c 060055E1 		cmp	r5, r6
 4198 0510 05E0A0B1 		movlt	lr, r5
 4199              	.LBE1201:
 125:../src/tensorflow_lite/tensorflow/lite/micro/kernels/activations.cc ****     const Q val = input_data[i];
 4200              		.loc 1 125 0
 4201 0514 010053E1 		cmp	r3, r1
 4202              	.LBB1202:
 128:../src/tensorflow_lite/tensorflow/lite/micro/kernels/activations.cc ****   }
 4203              		.loc 1 128 0
 4204 0518 0CE0C0E7 		strb	lr, [r0, ip]
 4205              	.LBE1202:
 125:../src/tensorflow_lite/tensorflow/lite/micro/kernels/activations.cc ****     const Q val = input_data[i];
 4206              		.loc 1 125 0
 4207 051c 230000DA 		ble	.L657
 4208              	.LVL454:
 4209              	.LBB1203:
 126:../src/tensorflow_lite/tensorflow/lite/micro/kernels/activations.cc ****     const Q clamped = val > upper ? upper : val < lower ? lower : val;
 4210              		.loc 1 126 0
 4211 0520 D16097E1 		ldrsb	r6, [r7, r1]
 4212              	.LVL455:
 4213              	.LBE1203:
 125:../src/tensorflow_lite/tensorflow/lite/micro/kernels/activations.cc ****     const Q val = input_data[i];
 4214              		.loc 1 125 0
 4215 0524 0CC082E2 		add	ip, r2, #12
 4216              	.LVL456:
 4217              	.LBB1204:
 128:../src/tensorflow_lite/tensorflow/lite/micro/kernels/activations.cc ****   }
 4218              		.loc 1 128 0
 4219 0528 060054E1 		cmp	r4, r6
 4220 052c 06E0A0B1 		movlt	lr, r6
 4221 0530 04E0A0A1 		movge	lr, r4
 4222 0534 060055E1 		cmp	r5, r6
 4223 0538 05E0A0B1 		movlt	lr, r5
 4224              	.LBE1204:
 125:../src/tensorflow_lite/tensorflow/lite/micro/kernels/activations.cc ****     const Q val = input_data[i];
 4225              		.loc 1 125 0
 4226 053c 0C0053E1 		cmp	r3, ip
 4227              	.LBB1205:
 128:../src/tensorflow_lite/tensorflow/lite/micro/kernels/activations.cc ****   }
 4228              		.loc 1 128 0
 4229 0540 01E0C0E7 		strb	lr, [r0, r1]
 4230              	.LBE1205:
 125:../src/tensorflow_lite/tensorflow/lite/micro/kernels/activations.cc ****     const Q val = input_data[i];
 4231              		.loc 1 125 0
 4232 0544 190000DA 		ble	.L657
 4233              	.LVL457:
 4234              	.LBB1206:
 126:../src/tensorflow_lite/tensorflow/lite/micro/kernels/activations.cc ****     const Q clamped = val > upper ? upper : val < lower ? lower : val;
 4235              		.loc 1 126 0
 4236 0548 DC6097E1 		ldrsb	r6, [r7, ip]
 4237              	.LVL458:
 4238              	.LBE1206:
 125:../src/tensorflow_lite/tensorflow/lite/micro/kernels/activations.cc ****     const Q val = input_data[i];
 4239              		.loc 1 125 0
 4240 054c 0D1082E2 		add	r1, r2, #13
 4241              	.LVL459:
 4242              	.LBB1207:
 128:../src/tensorflow_lite/tensorflow/lite/micro/kernels/activations.cc ****   }
 4243              		.loc 1 128 0
 4244 0550 060054E1 		cmp	r4, r6
 4245 0554 06E0A0B1 		movlt	lr, r6
 4246 0558 04E0A0A1 		movge	lr, r4
 4247 055c 060055E1 		cmp	r5, r6
 4248 0560 05E0A0B1 		movlt	lr, r5
 4249              	.LBE1207:
 125:../src/tensorflow_lite/tensorflow/lite/micro/kernels/activations.cc ****     const Q val = input_data[i];
 4250              		.loc 1 125 0
 4251 0564 010053E1 		cmp	r3, r1
 4252              	.LBB1208:
 128:../src/tensorflow_lite/tensorflow/lite/micro/kernels/activations.cc ****   }
 4253              		.loc 1 128 0
 4254 0568 0CE0C0E7 		strb	lr, [r0, ip]
 4255              	.LBE1208:
 125:../src/tensorflow_lite/tensorflow/lite/micro/kernels/activations.cc ****     const Q val = input_data[i];
 4256              		.loc 1 125 0
 4257 056c 0F0000DA 		ble	.L657
 4258              	.LVL460:
 4259              	.LBB1209:
 126:../src/tensorflow_lite/tensorflow/lite/micro/kernels/activations.cc ****     const Q clamped = val > upper ? upper : val < lower ? lower : val;
 4260              		.loc 1 126 0
 4261 0570 D1E097E1 		ldrsb	lr, [r7, r1]
 4262              	.LVL461:
 4263              	.LBE1209:
 125:../src/tensorflow_lite/tensorflow/lite/micro/kernels/activations.cc ****     const Q val = input_data[i];
 4264              		.loc 1 125 0
 4265 0574 0E2082E2 		add	r2, r2, #14
 4266              	.LBB1210:
 128:../src/tensorflow_lite/tensorflow/lite/micro/kernels/activations.cc ****   }
 4267              		.loc 1 128 0
 4268 0578 0E0054E1 		cmp	r4, lr
 4269 057c 0EC0A0B1 		movlt	ip, lr
 4270 0580 04C0A0A1 		movge	ip, r4
 4271 0584 0E0055E1 		cmp	r5, lr
 4272 0588 05C0A0B1 		movlt	ip, r5
 4273              	.LBE1210:
 125:../src/tensorflow_lite/tensorflow/lite/micro/kernels/activations.cc ****     const Q val = input_data[i];
 4274              		.loc 1 125 0
 4275 058c 020053E1 		cmp	r3, r2
 4276              	.LBB1211:
 128:../src/tensorflow_lite/tensorflow/lite/micro/kernels/activations.cc ****   }
 4277              		.loc 1 128 0
 4278 0590 01C0C0E7 		strb	ip, [r0, r1]
 4279              	.LVL462:
 4280              	.LBE1211:
 125:../src/tensorflow_lite/tensorflow/lite/micro/kernels/activations.cc ****     const Q val = input_data[i];
 4281              		.loc 1 125 0
 4282 0594 050000DA 		ble	.L657
 4283              	.LVL463:
 4284              	.LBB1212:
 126:../src/tensorflow_lite/tensorflow/lite/micro/kernels/activations.cc ****     const Q clamped = val > upper ? upper : val < lower ? lower : val;
 4285              		.loc 1 126 0
 4286 0598 D23097E1 		ldrsb	r3, [r7, r2]
 4287              	.LVL464:
 128:../src/tensorflow_lite/tensorflow/lite/micro/kernels/activations.cc ****   }
 4288              		.loc 1 128 0
 4289 059c 030054E1 		cmp	r4, r3
 4290 05a0 0340A0B1 		movlt	r4, r3
 4291              	.LVL465:
 4292 05a4 030055E1 		cmp	r5, r3
 4293 05a8 0450A0A1 		movge	r5, r4
 4294              	.LVL466:
 4295 05ac 0250C0E7 		strb	r5, [r0, r2]
 4296              	.LVL467:
 4297              	.L657:
 4298 05b0 18209DE5 		ldr	r2, [sp, #24]
 4299              	.L469:
 4300              	.LVL468:
 4301              	.LBE1212:
 4302              	.LBE1217:
 4303              	.LBE1108:
 4304              	.LBE1107:
 4305              	.LBB1230:
 4306              	.LBB1231:
 203:C:/Renesas/e2studio_2021_01_workspace_RZA2M_ANPR/ANPR_RZA2M_EBK/src/tensorflow_lite/tensorflow/lite/kernels/internal\types.h **** #ifdef TF_LITE_STATIC_MEMORY
 4307              		.loc 5 203 0
 4308 05b4 050052E3 		cmp	r2, #5
 4309 05b8 030000DA 		ble	.L482
 207:C:/Renesas/e2studio_2021_01_workspace_RZA2M_ANPR/ANPR_RZA2M_EBK/src/tensorflow_lite/tensorflow/lite/kernels/internal\types.h **** #endif  // TF_LITE_STATIC_MEMORY
 4310              		.loc 5 207 0
 4311 05bc 1C009DE5 		ldr	r0, [sp, #28]
 4312 05c0 000050E3 		cmp	r0, #0
 4313 05c4 0000000A 		beq	.L482
 4314              	.LVL469:
 4315              	.L644:
 4316 05c8 FEFFFFEB 		bl	_ZdaPv
 4317              	.LVL470:
 4318              	.L482:
 4319              	.LBE1231:
 4320              	.LBE1230:
 4321              	.LBB1232:
 4322              	.LBB1233:
 203:C:/Renesas/e2studio_2021_01_workspace_RZA2M_ANPR/ANPR_RZA2M_EBK/src/tensorflow_lite/tensorflow/lite/kernels/internal\types.h **** #ifdef TF_LITE_STATIC_MEMORY
 4323              		.loc 5 203 0
 4324 05cc 00309DE5 		ldr	r3, [sp]
 4325 05d0 050053E3 		cmp	r3, #5
 4326 05d4 030000DA 		ble	.L483
 4327              	.LVL471:
 4328              	.L637:
 207:C:/Renesas/e2studio_2021_01_workspace_RZA2M_ANPR/ANPR_RZA2M_EBK/src/tensorflow_lite/tensorflow/lite/kernels/internal\types.h **** #endif  // TF_LITE_STATIC_MEMORY
 4329              		.loc 5 207 0
 4330 05d8 04009DE5 		ldr	r0, [sp, #4]
 4331 05dc 000050E3 		cmp	r0, #0
 4332 05e0 0000000A 		beq	.L483
 4333 05e4 FEFFFFEB 		bl	_ZdaPv
 4334              	.LVL472:
 4335              	.L483:
 4336              	.LBE1233:
 4337              	.LBE1232:
 252:../src/tensorflow_lite/tensorflow/lite/micro/kernels/activations.cc ****     }
 4338              		.loc 1 252 0
 4339 05e8 0000A0E3 		mov	r0, #0
 4340              		.loc 1 260 0
 4341 05ec 30D08DE2 		add	sp, sp, #48
 4342              		.cfi_remember_state
 4343              		.cfi_def_cfa_offset 32
 4344              		@ sp needed
 4345 05f0 F087BDE8 		pop	{r4, r5, r6, r7, r8, r9, r10, pc}
 4346              	.LVL473:
 4347              	.L659:
 4348              		.cfi_restore_state
 231:../src/tensorflow_lite/tensorflow/lite/micro/kernels/activations.cc ****                  tflite::micro::GetTensorData<float>(input),
 4349              		.loc 1 231 0
 4350 05f4 0710A0E1 		mov	r1, r7
 4351 05f8 0D00A0E1 		mov	r0, sp
 4352              	.LEHB29:
 4353 05fc FEFFFFEB 		bl	_ZN6tflite5micro14GetTensorShapeEPK16TfLiteEvalTensor
 4354              	.LVL474:
 4355              	.LEHE29:
 233:../src/tensorflow_lite/tensorflow/lite/micro/kernels/activations.cc ****                  tflite::micro::GetTensorData<float>(output));
 4356              		.loc 1 233 0
 4357 0600 0610A0E1 		mov	r1, r6
 4358 0604 18008DE2 		add	r0, sp, #24
 4359              	.LBB1234:
 4360              	.LBB1235:
 4361              		.loc 6 63 0
 4362 0608 004097E5 		ldr	r4, [r7]
 4363              	.LVL475:
 4364              	.LEHB30:
 4365              	.LBE1235:
 4366              	.LBE1234:
 233:../src/tensorflow_lite/tensorflow/lite/micro/kernels/activations.cc ****                  tflite::micro::GetTensorData<float>(output));
 4367              		.loc 1 233 0
 4368 060c FEFFFFEB 		bl	_ZN6tflite5micro14GetTensorShapeEPK16TfLiteEvalTensor
 4369              	.LVL476:
 4370              	.LEHE30:
 4371 0610 00109DE5 		ldr	r1, [sp]
 4372              	.LBB1236:
 4373              	.LBB1237:
  56:C:/Renesas/e2studio_2021_01_workspace_RZA2M_ANPR/ANPR_RZA2M_EBK/src/tensorflow_lite/tensorflow/lite/micro/kernels\kernel_util.h **** }
 4374              		.loc 6 56 0
 4375 0614 000056E3 		cmp	r6, #0
 4376 0618 18509DE5 		ldr	r5, [sp, #24]
 4377              	.LVL477:
 4378 061c 0600A001 		moveq	r0, r6
 4379              	.LVL478:
 4380 0620 00009615 		ldrne	r0, [r6]
 4381              	.LVL479:
 4382              	.LBE1237:
 4383              	.LBE1236:
 4384              	.LBB1238:
 4385              	.LBB1239:
 4386              	.LBB1240:
 4387              	.LBB1241:
 521:C:/Renesas/e2studio_2021_01_workspace_RZA2M_ANPR/ANPR_RZA2M_EBK/src/tensorflow_lite/tensorflow/lite/kernels/internal\types.h ****   const int dims_count = shape.DimensionsCount();
 4388              		.loc 5 521 0
 4389 0624 050051E1 		cmp	r1, r5
 4390 0628 9501001A 		bne	.L397
 4391              	.LVL480:
 4392              	.LBB1242:
 523:C:/Renesas/e2studio_2021_01_workspace_RZA2M_ANPR/ANPR_RZA2M_EBK/src/tensorflow_lite/tensorflow/lite/kernels/internal\types.h ****     TFLITE_DCHECK_EQ(shape.Dims(i), check_shape_0.Dims(i));
 4393              		.loc 5 523 0
 4394 062c 000051E3 		cmp	r1, #0
 4395 0630 450100DA 		ble	.L504
 4396 0634 050051E3 		cmp	r1, #5
 4397              	.LBB1243:
 4398              	.LBB1244:
 216:C:/Renesas/e2studio_2021_01_workspace_RZA2M_ANPR/ANPR_RZA2M_EBK/src/tensorflow_lite/tensorflow/lite/kernels/internal\types.h ****   }
 4399              		.loc 5 216 0
 4400 0638 04709DE5 		ldr	r7, [sp, #4]
 4401              	.LBE1244:
 4402              	.LBE1243:
 4403              	.LBB1250:
 4404              	.LBB1251:
 4405 063c 1C209DE5 		ldr	r2, [sp, #28]
 4406 0640 320100CA 		bgt	.L400
 4407              	.LVL481:
 215:C:/Renesas/e2studio_2021_01_workspace_RZA2M_ANPR/ANPR_RZA2M_EBK/src/tensorflow_lite/tensorflow/lite/kernels/internal\types.h ****     return size_ > kMaxSmallSize ? dims_pointer_[i] : dims_[i];
 4408              		.loc 5 215 0
 4409 0644 000051E3 		cmp	r1, #0
 4410 0648 840100DA 		ble	.L401
 4411              	.LVL482:
 4412              	.LBE1251:
 4413              	.LBE1250:
 4414              		.loc 5 524 0
 4415 064c 020057E1 		cmp	r7, r2
 4416 0650 8001001A 		bne	.L402
 4417              	.LVL483:
 523:C:/Renesas/e2studio_2021_01_workspace_RZA2M_ANPR/ANPR_RZA2M_EBK/src/tensorflow_lite/tensorflow/lite/kernels/internal\types.h ****     TFLITE_DCHECK_EQ(shape.Dims(i), check_shape_0.Dims(i));
 4418              		.loc 5 523 0
 4419 0654 010051E3 		cmp	r1, #1
 4420 0658 1900000A 		beq	.L503
 4421              	.LVL484:
 4422              	.LBB1259:
 4423              	.LBB1245:
 216:C:/Renesas/e2studio_2021_01_workspace_RZA2M_ANPR/ANPR_RZA2M_EBK/src/tensorflow_lite/tensorflow/lite/kernels/internal\types.h ****   }
 4424              		.loc 5 216 0
 4425 065c 08209DE5 		ldr	r2, [sp, #8]
 4426              	.LVL485:
 4427              	.LBE1245:
 4428              	.LBE1259:
 4429              		.loc 5 524 0
 4430 0660 20309DE5 		ldr	r3, [sp, #32]
 4431 0664 030052E1 		cmp	r2, r3
 4432 0668 7A01001A 		bne	.L402
 4433              	.LVL486:
 523:C:/Renesas/e2studio_2021_01_workspace_RZA2M_ANPR/ANPR_RZA2M_EBK/src/tensorflow_lite/tensorflow/lite/kernels/internal\types.h ****     TFLITE_DCHECK_EQ(shape.Dims(i), check_shape_0.Dims(i));
 4434              		.loc 5 523 0
 4435 066c 020051E3 		cmp	r1, #2
 4436 0670 1300000A 		beq	.L503
 4437              	.LVL487:
 4438              	.LBB1260:
 4439              	.LBB1246:
 216:C:/Renesas/e2studio_2021_01_workspace_RZA2M_ANPR/ANPR_RZA2M_EBK/src/tensorflow_lite/tensorflow/lite/kernels/internal\types.h ****   }
 4440              		.loc 5 216 0
 4441 0674 0C209DE5 		ldr	r2, [sp, #12]
 4442              	.LVL488:
 4443              	.LBE1246:
 4444              	.LBE1260:
 4445              		.loc 5 524 0
 4446 0678 24309DE5 		ldr	r3, [sp, #36]
 4447 067c 030052E1 		cmp	r2, r3
 4448 0680 7401001A 		bne	.L402
 4449              	.LVL489:
 523:C:/Renesas/e2studio_2021_01_workspace_RZA2M_ANPR/ANPR_RZA2M_EBK/src/tensorflow_lite/tensorflow/lite/kernels/internal\types.h ****     TFLITE_DCHECK_EQ(shape.Dims(i), check_shape_0.Dims(i));
 4450              		.loc 5 523 0
 4451 0684 030051E3 		cmp	r1, #3
 4452 0688 0D00000A 		beq	.L503
 4453              	.LVL490:
 4454              	.LBB1261:
 4455              	.LBB1252:
 215:C:/Renesas/e2studio_2021_01_workspace_RZA2M_ANPR/ANPR_RZA2M_EBK/src/tensorflow_lite/tensorflow/lite/kernels/internal\types.h ****     return size_ > kMaxSmallSize ? dims_pointer_[i] : dims_[i];
 4456              		.loc 5 215 0
 4457 068c 030055E3 		cmp	r5, #3
 4458              	.LBE1252:
 4459              	.LBE1261:
 4460              	.LBB1262:
 4461              	.LBB1247:
 216:C:/Renesas/e2studio_2021_01_workspace_RZA2M_ANPR/ANPR_RZA2M_EBK/src/tensorflow_lite/tensorflow/lite/kernels/internal\types.h ****   }
 4462              		.loc 5 216 0
 4463 0690 10209DE5 		ldr	r2, [sp, #16]
 4464              	.LVL491:
 4465              	.LBE1247:
 4466              	.LBE1262:
 4467              	.LBB1263:
 4468              	.LBB1253:
 215:C:/Renesas/e2studio_2021_01_workspace_RZA2M_ANPR/ANPR_RZA2M_EBK/src/tensorflow_lite/tensorflow/lite/kernels/internal\types.h ****     return size_ > kMaxSmallSize ? dims_pointer_[i] : dims_[i];
 4469              		.loc 5 215 0
 4470 0694 7101000A 		beq	.L401
 4471              	.LVL492:
 4472              	.LBE1253:
 4473              	.LBE1263:
 4474              		.loc 5 524 0
 4475 0698 28309DE5 		ldr	r3, [sp, #40]
 4476 069c 030052E1 		cmp	r2, r3
 4477 06a0 6C01001A 		bne	.L402
 4478              	.LVL493:
 523:C:/Renesas/e2studio_2021_01_workspace_RZA2M_ANPR/ANPR_RZA2M_EBK/src/tensorflow_lite/tensorflow/lite/kernels/internal\types.h ****     TFLITE_DCHECK_EQ(shape.Dims(i), check_shape_0.Dims(i));
 4479              		.loc 5 523 0
 4480 06a4 040051E3 		cmp	r1, #4
 4481 06a8 0500000A 		beq	.L503
 4482              	.LVL494:
 4483              	.LBB1264:
 4484              	.LBB1254:
 215:C:/Renesas/e2studio_2021_01_workspace_RZA2M_ANPR/ANPR_RZA2M_EBK/src/tensorflow_lite/tensorflow/lite/kernels/internal\types.h ****     return size_ > kMaxSmallSize ? dims_pointer_[i] : dims_[i];
 4485              		.loc 5 215 0
 4486 06ac 040055E3 		cmp	r5, #4
 4487              	.LBE1254:
 4488              	.LBE1264:
 4489              	.LBB1265:
 4490              	.LBB1248:
 216:C:/Renesas/e2studio_2021_01_workspace_RZA2M_ANPR/ANPR_RZA2M_EBK/src/tensorflow_lite/tensorflow/lite/kernels/internal\types.h ****   }
 4491              		.loc 5 216 0
 4492 06b0 14309DE5 		ldr	r3, [sp, #20]
 4493              	.LVL495:
 4494              	.LBE1248:
 4495              	.LBE1265:
 4496              	.LBB1266:
 4497              	.LBB1255:
 215:C:/Renesas/e2studio_2021_01_workspace_RZA2M_ANPR/ANPR_RZA2M_EBK/src/tensorflow_lite/tensorflow/lite/kernels/internal\types.h ****     return size_ > kMaxSmallSize ? dims_pointer_[i] : dims_[i];
 4498              		.loc 5 215 0
 4499 06b4 6901000A 		beq	.L401
 4500              	.LVL496:
 4501              	.LBE1255:
 4502              	.LBE1266:
 4503              		.loc 5 524 0
 4504 06b8 2C209DE5 		ldr	r2, [sp, #44]
 4505 06bc 030052E1 		cmp	r2, r3
 4506 06c0 6401001A 		bne	.L402
 4507              	.LVL497:
 4508              	.L503:
 4509              	.LBE1242:
 4510              	.LBB1271:
 4511              	.LBB1272:
 4512              	.LBB1273:
 4513              	.LBB1274:
 232:C:/Renesas/e2studio_2021_01_workspace_RZA2M_ANPR/ANPR_RZA2M_EBK/src/tensorflow_lite/tensorflow/lite/kernels/internal\types.h ****   }
 4514              		.loc 5 232 0
 4515 06c4 04608DE2 		add	r6, sp, #4
 4516              	.L403:
 4517              	.LVL498:
 4518 06c8 5631A0E7 		sbfx	r3, r6, #2, #1
 4519 06cc 033003E2 		and	r3, r3, #3
 4520 06d0 010053E1 		cmp	r3, r1
 4521 06d4 0130A021 		movcs	r3, r1
 4522 06d8 080051E3 		cmp	r1, #8
 4523 06dc 0130A091 		movls	r3, r1
 4524 06e0 000053E3 		cmp	r3, #0
 4525 06e4 3101000A 		beq	.L505
 4526 06e8 010053E3 		cmp	r3, #1
 4527              	.LBE1274:
 4528              	.LBE1273:
 4529              	.LBB1276:
 293:C:/Renesas/e2studio_2021_01_workspace_RZA2M_ANPR/ANPR_RZA2M_EBK/src/tensorflow_lite/tensorflow/lite/kernels/internal\types.h ****     }
 4530              		.loc 5 293 0
 4531 06ec 002096E5 		ldr	r2, [r6]
 4532              	.LVL499:
 4533 06f0 2A01000A 		beq	.L512
 4534 06f4 04C096E5 		ldr	ip, [r6, #4]
 4535 06f8 020053E3 		cmp	r3, #2
 4536 06fc 9C0202E0 		mul	r2, ip, r2
 4537              	.LVL500:
 4538 0700 2601000A 		beq	.L512
 4539 0704 08C096E5 		ldr	ip, [r6, #8]
 4540 0708 030053E3 		cmp	r3, #3
 4541 070c 9C0202E0 		mul	r2, ip, r2
 4542              	.LVL501:
 4543 0710 2201000A 		beq	.L512
 4544 0714 0CC096E5 		ldr	ip, [r6, #12]
 4545 0718 040053E3 		cmp	r3, #4
 4546 071c 9C0202E0 		mul	r2, ip, r2
 4547              	.LVL502:
 4548 0720 1E01000A 		beq	.L512
 4549 0724 10C096E5 		ldr	ip, [r6, #16]
 4550 0728 050053E3 		cmp	r3, #5
 4551 072c 9C0202E0 		mul	r2, ip, r2
 4552              	.LVL503:
 4553 0730 1A01000A 		beq	.L512
 4554 0734 14C096E5 		ldr	ip, [r6, #20]
 4555 0738 060053E3 		cmp	r3, #6
 4556 073c 9C0202E0 		mul	r2, ip, r2
 4557              	.LVL504:
 4558 0740 1601000A 		beq	.L512
 4559 0744 18C096E5 		ldr	ip, [r6, #24]
 4560 0748 070053E3 		cmp	r3, #7
 4561 074c 9C0202E0 		mul	r2, ip, r2
 4562              	.LVL505:
 4563 0750 1201000A 		beq	.L512
 4564 0754 1CE096E5 		ldr	lr, [r6, #28]
 292:C:/Renesas/e2studio_2021_01_workspace_RZA2M_ANPR/ANPR_RZA2M_EBK/src/tensorflow_lite/tensorflow/lite/kernels/internal\types.h ****       buffer_size *= dims_data[i];
 4565              		.loc 5 292 0
 4566 0758 08C0A0E3 		mov	ip, #8
 293:C:/Renesas/e2studio_2021_01_workspace_RZA2M_ANPR/ANPR_RZA2M_EBK/src/tensorflow_lite/tensorflow/lite/kernels/internal\types.h ****     }
 4567              		.loc 5 293 0
 4568 075c 9E0202E0 		mul	r2, lr, r2
 4569              	.LVL506:
 4570              	.L411:
 4571 0760 030051E1 		cmp	r1, r3
 4572 0764 2800000A 		beq	.L412
 4573              	.LVL507:
 4574              	.L410:
 4575 0768 038041E0 		sub	r8, r1, r3
 4576              	.LVL508:
 4577 076c 017041E2 		sub	r7, r1, #1
 4578 0770 04E048E2 		sub	lr, r8, #4
 4579 0774 037047E0 		sub	r7, r7, r3
 4580 0778 2EE1A0E1 		lsr	lr, lr, #2
 4581 077c 020057E3 		cmp	r7, #2
 4582 0780 01E08EE2 		add	lr, lr, #1
 4583 0784 0E91A0E1 		lsl	r9, lr, #2
 4584 0788 1200009A 		bls	.L413
 4585 078c 033186E0 		add	r3, r6, r3, lsl #2
 292:C:/Renesas/e2studio_2021_01_workspace_RZA2M_ANPR/ANPR_RZA2M_EBK/src/tensorflow_lite/tensorflow/lite/kernels/internal\types.h ****       buffer_size *= dims_data[i];
 4586              		.loc 5 292 0
 4587 0790 5120C0F2 		vmov.i32	q9, #1  @ v4si
 4588 0794 0070A0E3 		mov	r7, #0
 4589              	.L415:
 4590 0798 017087E2 		add	r7, r7, #1
 293:C:/Renesas/e2studio_2021_01_workspace_RZA2M_ANPR/ANPR_RZA2M_EBK/src/tensorflow_lite/tensorflow/lite/kernels/internal\types.h ****     }
 4591              		.loc 5 293 0
 4592 079c DF0A63F4 		vld1.64	{d16-d17}, [r3:64]
 4593 07a0 07005EE1 		cmp	lr, r7
 4594 07a4 103083E2 		add	r3, r3, #16
 4595 07a8 F02962F2 		vmul.i32	q9, q9, q8
 4596 07ac F9FFFF8A 		bhi	.L415
 4597 07b0 080059E1 		cmp	r9, r8
 4598 07b4 09C08CE0 		add	ip, ip, r9
 4599 07b8 5000C0F2 		vmov.i32	q8, #0  @ v4si
 4600 07bc E048F2F2 		vext.32	q10, q9, q8, #2
 4601 07c0 F22964F2 		vmul.i32	q9, q10, q9
 4602 07c4 E004F2F2 		vext.32	q8, q9, q8, #1
 4603 07c8 F20960F2 		vmul.i32	q8, q8, q9
 4604 07cc 903B10EE 		vmov.32	r3, d16[0]
 4605 07d0 930202E0 		mul	r2, r3, r2
 4606 07d4 0C00000A 		beq	.L412
 4607              	.L413:
 4608              	.LVL509:
 4609 07d8 0CE196E7 		ldr	lr, [r6, ip, lsl #2]
 292:C:/Renesas/e2studio_2021_01_workspace_RZA2M_ANPR/ANPR_RZA2M_EBK/src/tensorflow_lite/tensorflow/lite/kernels/internal\types.h ****       buffer_size *= dims_data[i];
 4610              		.loc 5 292 0
 4611 07dc 01308CE2 		add	r3, ip, #1
 4612 07e0 030051E1 		cmp	r1, r3
 293:C:/Renesas/e2studio_2021_01_workspace_RZA2M_ANPR/ANPR_RZA2M_EBK/src/tensorflow_lite/tensorflow/lite/kernels/internal\types.h ****     }
 4613              		.loc 5 293 0
 4614 07e4 0C31A0E1 		lsl	r3, ip, #2
 4615 07e8 9E0202E0 		mul	r2, lr, r2
 4616              	.LVL510:
 292:C:/Renesas/e2studio_2021_01_workspace_RZA2M_ANPR/ANPR_RZA2M_EBK/src/tensorflow_lite/tensorflow/lite/kernels/internal\types.h ****       buffer_size *= dims_data[i];
 4617              		.loc 5 292 0
 4618 07ec 060000DA 		ble	.L412
 293:C:/Renesas/e2studio_2021_01_workspace_RZA2M_ANPR/ANPR_RZA2M_EBK/src/tensorflow_lite/tensorflow/lite/kernels/internal\types.h ****     }
 4619              		.loc 5 293 0
 4620 07f0 033086E0 		add	r3, r6, r3
 292:C:/Renesas/e2studio_2021_01_workspace_RZA2M_ANPR/ANPR_RZA2M_EBK/src/tensorflow_lite/tensorflow/lite/kernels/internal\types.h ****       buffer_size *= dims_data[i];
 4621              		.loc 5 292 0
 4622 07f4 02C08CE2 		add	ip, ip, #2
 293:C:/Renesas/e2studio_2021_01_workspace_RZA2M_ANPR/ANPR_RZA2M_EBK/src/tensorflow_lite/tensorflow/lite/kernels/internal\types.h ****     }
 4623              		.loc 5 293 0
 4624 07f8 04E093E5 		ldr	lr, [r3, #4]
 292:C:/Renesas/e2studio_2021_01_workspace_RZA2M_ANPR/ANPR_RZA2M_EBK/src/tensorflow_lite/tensorflow/lite/kernels/internal\types.h ****       buffer_size *= dims_data[i];
 4625              		.loc 5 292 0
 4626 07fc 0C0051E1 		cmp	r1, ip
 293:C:/Renesas/e2studio_2021_01_workspace_RZA2M_ANPR/ANPR_RZA2M_EBK/src/tensorflow_lite/tensorflow/lite/kernels/internal\types.h ****     }
 4627              		.loc 5 293 0
 4628 0800 9E0202E0 		mul	r2, lr, r2
 4629              	.LVL511:
 292:C:/Renesas/e2studio_2021_01_workspace_RZA2M_ANPR/ANPR_RZA2M_EBK/src/tensorflow_lite/tensorflow/lite/kernels/internal\types.h ****       buffer_size *= dims_data[i];
 4630              		.loc 5 292 0
 293:C:/Renesas/e2studio_2021_01_workspace_RZA2M_ANPR/ANPR_RZA2M_EBK/src/tensorflow_lite/tensorflow/lite/kernels/internal\types.h ****     }
 4631              		.loc 5 293 0
 4632 0804 083093C5 		ldrgt	r3, [r3, #8]
 4633 0808 930202C0 		mulgt	r2, r3, r2
 4634              	.LVL512:
 4635              	.L412:
 4636              	.LBE1276:
 4637              	.LBE1272:
 4638              	.LBE1271:
 4639              	.LBE1241:
 4640              	.LBE1240:
 4641              	.LBB1298:
 111:../src/tensorflow_lite/tensorflow/lite/micro/kernels/activations.cc ****     const float val = input_data[i];
 4642              		.loc 1 111 0
 4643 080c 000052E3 		cmp	r2, #0
 4644 0810 0F0000DA 		ble	.L421
 4645              	.LVL513:
 4646              	.L398:
 4647              	.LBB1299:
 115:../src/tensorflow_lite/tensorflow/lite/micro/kernels/activations.cc ****     output_data[i] = clamped;
 4648              		.loc 1 115 0
 4649 0814 F06ADFED 		vldr.32	s13, .L660
 4650 0818 0410A0E1 		mov	r1, r4
 4651              	.LBE1299:
 4652              	.LBE1298:
 4653              	.LBB1302:
 4654              	.LBB1292:
 4655              	.LBB1286:
 4656              	.LBB1282:
 290:C:/Renesas/e2studio_2021_01_workspace_RZA2M_ANPR/ANPR_RZA2M_EBK/src/tensorflow_lite/tensorflow/lite/kernels/internal\types.h ****     const int* dims_data = reinterpret_cast<const int*>(DimsData());
 4657              		.loc 5 290 0
 4658 081c 0030A0E3 		mov	r3, #0
 4659              	.LBE1282:
 4660              	.LBE1286:
 4661              	.LBE1292:
 4662              	.LBE1302:
 4663              	.LBB1303:
 4664              	.LBB1300:
 115:../src/tensorflow_lite/tensorflow/lite/micro/kernels/activations.cc ****     output_data[i] = clamped;
 4665              		.loc 1 115 0
 4666 0820 087AB1EE 		vmov.f32	s14, #6.0e+0
 4667              	.LVL514:
 4668              	.L422:
 112:../src/tensorflow_lite/tensorflow/lite/micro/kernels/activations.cc ****     const float upper = 6.0f;
 4669              		.loc 1 112 0
 4670 0824 017AF1EC 		vldmia.32	r1!, {s15}
 4671              	.LVL515:
 115:../src/tensorflow_lite/tensorflow/lite/micro/kernels/activations.cc ****     output_data[i] = clamped;
 4672              		.loc 1 115 0
 4673 0828 C77AF4EE 		vcmpe.f32	s15, s14
 4674 082c 10FAF1EE 		vmrs	APSR_nzcv, FPSCR
 4675 0830 477AF0CE 		vmovgt.f32	s15, s14
 4676              	.LVL516:
 4677 0834 020000CA 		bgt	.L419
 4678 0838 C07AF5EE 		vcmpe.f32	s15, #0
 4679 083c 10FAF1EE 		vmrs	APSR_nzcv, FPSCR
 4680 0840 667AF04E 		vmovmi.f32	s15, s13
 4681              	.L419:
 4682              	.LVL517:
 4683              	.LBE1300:
 111:../src/tensorflow_lite/tensorflow/lite/micro/kernels/activations.cc ****     const float val = input_data[i];
 4684              		.loc 1 111 0
 4685 0844 013083E2 		add	r3, r3, #1
 4686              	.LVL518:
 4687              	.LBB1301:
 116:../src/tensorflow_lite/tensorflow/lite/micro/kernels/activations.cc ****   }
 4688              		.loc 1 116 0
 4689 0848 017AE0EC 		vstmia.32	r0!, {s15}
 4690              	.LVL519:
 4691              	.LBE1301:
 111:../src/tensorflow_lite/tensorflow/lite/micro/kernels/activations.cc ****     const float val = input_data[i];
 4692              		.loc 1 111 0
 4693 084c 020053E1 		cmp	r3, r2
 4694 0850 F3FFFFBA 		blt	.L422
 4695              	.LVL520:
 4696              	.L421:
 4697              	.LBE1303:
 4698              	.LBE1239:
 4699              	.LBE1238:
 4700              	.LBB1314:
 4701              	.LBB1315:
 203:C:/Renesas/e2studio_2021_01_workspace_RZA2M_ANPR/ANPR_RZA2M_EBK/src/tensorflow_lite/tensorflow/lite/kernels/internal\types.h **** #ifdef TF_LITE_STATIC_MEMORY
 4702              		.loc 5 203 0
 4703 0854 050055E3 		cmp	r5, #5
 4704 0858 62FFFFDA 		ble	.L483
 207:C:/Renesas/e2studio_2021_01_workspace_RZA2M_ANPR/ANPR_RZA2M_EBK/src/tensorflow_lite/tensorflow/lite/kernels/internal\types.h **** #endif  // TF_LITE_STATIC_MEMORY
 4705              		.loc 5 207 0
 4706 085c 1C009DE5 		ldr	r0, [sp, #28]
 4707 0860 000050E3 		cmp	r0, #0
 4708 0864 57FFFF1A 		bne	.L644
 4709 0868 5AFFFFEA 		b	.L637
 4710              	.LVL521:
 4711              	.L393:
 4712              	.LBE1315:
 4713              	.LBE1314:
 248:../src/tensorflow_lite/tensorflow/lite/micro/kernels/activations.cc ****                               tflite::micro::GetTensorData<uint8_t>(input),
 4714              		.loc 1 248 0
 4715 086c 0710A0E1 		mov	r1, r7
 4716 0870 0D00A0E1 		mov	r0, sp
 247:../src/tensorflow_lite/tensorflow/lite/micro/kernels/activations.cc ****                               tflite::micro::GetTensorShape(input),
 4717              		.loc 1 247 0
 4718 0874 0350D8E5 		ldrb	r5, [r8, #3]	@ zero_extendqisi2
 4719              	.LVL522:
 4720 0878 0240D8E5 		ldrb	r4, [r8, #2]	@ zero_extendqisi2
 4721              	.LVL523:
 4722              	.LEHB31:
 248:../src/tensorflow_lite/tensorflow/lite/micro/kernels/activations.cc ****                               tflite::micro::GetTensorData<uint8_t>(input),
 4723              		.loc 1 248 0
 4724 087c FEFFFFEB 		bl	_ZN6tflite5micro14GetTensorShapeEPK16TfLiteEvalTensor
 4725              	.LVL524:
 4726              	.LEHE31:
 250:../src/tensorflow_lite/tensorflow/lite/micro/kernels/activations.cc ****                               tflite::micro::GetTensorData<uint8_t>(output));
 4727              		.loc 1 250 0
 4728 0880 0610A0E1 		mov	r1, r6
 4729 0884 18008DE2 		add	r0, sp, #24
 4730              	.LBB1316:
 4731              	.LBB1317:
 4732              		.loc 6 63 0
 4733 0888 007097E5 		ldr	r7, [r7]
 4734              	.LEHB32:
 4735              	.LBE1317:
 4736              	.LBE1316:
 250:../src/tensorflow_lite/tensorflow/lite/micro/kernels/activations.cc ****                               tflite::micro::GetTensorData<uint8_t>(output));
 4737              		.loc 1 250 0
 4738 088c FEFFFFEB 		bl	_ZN6tflite5micro14GetTensorShapeEPK16TfLiteEvalTensor
 4739              	.LVL525:
 4740              	.LEHE32:
 4741 0890 00209DE5 		ldr	r2, [sp]
 4742              	.LBB1318:
 4743              	.LBB1319:
  56:C:/Renesas/e2studio_2021_01_workspace_RZA2M_ANPR/ANPR_RZA2M_EBK/src/tensorflow_lite/tensorflow/lite/micro/kernels\kernel_util.h **** }
 4744              		.loc 6 56 0
 4745 0894 000056E3 		cmp	r6, #0
 4746 0898 18809DE5 		ldr	r8, [sp, #24]
 4747              	.LVL526:
 4748 089c 0600A001 		moveq	r0, r6
 4749              	.LVL527:
 4750 08a0 00009615 		ldrne	r0, [r6]
 4751              	.LVL528:
 4752              	.LBE1319:
 4753              	.LBE1318:
 4754              	.LBB1320:
 4755              	.LBB1321:
 4756              	.LBB1322:
 4757              	.LBB1323:
 521:C:/Renesas/e2studio_2021_01_workspace_RZA2M_ANPR/ANPR_RZA2M_EBK/src/tensorflow_lite/tensorflow/lite/kernels/internal\types.h ****   const int dims_count = shape.DimensionsCount();
 4758              		.loc 5 521 0
 4759 08a4 080052E1 		cmp	r2, r8
 4760 08a8 F300001A 		bne	.L459
 4761              	.LVL529:
 4762              	.LBB1324:
 523:C:/Renesas/e2studio_2021_01_workspace_RZA2M_ANPR/ANPR_RZA2M_EBK/src/tensorflow_lite/tensorflow/lite/kernels/internal\types.h ****     TFLITE_DCHECK_EQ(shape.Dims(i), check_shape_0.Dims(i));
 4763              		.loc 5 523 0
 4764 08ac 000052E3 		cmp	r2, #0
 4765 08b0 B60000DA 		ble	.L539
 4766 08b4 050052E3 		cmp	r2, #5
 4767              	.LBB1325:
 4768              	.LBB1326:
 216:C:/Renesas/e2studio_2021_01_workspace_RZA2M_ANPR/ANPR_RZA2M_EBK/src/tensorflow_lite/tensorflow/lite/kernels/internal\types.h ****   }
 4769              		.loc 5 216 0
 4770 08b8 04909DE5 		ldr	r9, [sp, #4]
 4771              	.LBE1326:
 4772              	.LBE1325:
 4773              	.LBB1332:
 4774              	.LBB1333:
 4775 08bc 1C109DE5 		ldr	r1, [sp, #28]
 4776 08c0 A30000CA 		bgt	.L462
 4777              	.LVL530:
 215:C:/Renesas/e2studio_2021_01_workspace_RZA2M_ANPR/ANPR_RZA2M_EBK/src/tensorflow_lite/tensorflow/lite/kernels/internal\types.h ****     return size_ > kMaxSmallSize ? dims_pointer_[i] : dims_[i];
 4778              		.loc 5 215 0
 4779 08c4 000052E3 		cmp	r2, #0
 4780 08c8 E70000DA 		ble	.L463
 4781              	.LVL531:
 4782              	.LBE1333:
 4783              	.LBE1332:
 4784              		.loc 5 524 0
 4785 08cc 010059E1 		cmp	r9, r1
 4786 08d0 E300001A 		bne	.L464
 4787              	.LVL532:
 523:C:/Renesas/e2studio_2021_01_workspace_RZA2M_ANPR/ANPR_RZA2M_EBK/src/tensorflow_lite/tensorflow/lite/kernels/internal\types.h ****     TFLITE_DCHECK_EQ(shape.Dims(i), check_shape_0.Dims(i));
 4788              		.loc 5 523 0
 4789 08d4 010052E3 		cmp	r2, #1
 4790 08d8 1900000A 		beq	.L538
 4791              	.LVL533:
 4792              	.LBB1341:
 4793              	.LBB1327:
 216:C:/Renesas/e2studio_2021_01_workspace_RZA2M_ANPR/ANPR_RZA2M_EBK/src/tensorflow_lite/tensorflow/lite/kernels/internal\types.h ****   }
 4794              		.loc 5 216 0
 4795 08dc 08109DE5 		ldr	r1, [sp, #8]
 4796              	.LVL534:
 4797              	.LBE1327:
 4798              	.LBE1341:
 4799              		.loc 5 524 0
 4800 08e0 20309DE5 		ldr	r3, [sp, #32]
 4801 08e4 030051E1 		cmp	r1, r3
 4802 08e8 DD00001A 		bne	.L464
 4803              	.LVL535:
 523:C:/Renesas/e2studio_2021_01_workspace_RZA2M_ANPR/ANPR_RZA2M_EBK/src/tensorflow_lite/tensorflow/lite/kernels/internal\types.h ****     TFLITE_DCHECK_EQ(shape.Dims(i), check_shape_0.Dims(i));
 4804              		.loc 5 523 0
 4805 08ec 020052E3 		cmp	r2, #2
 4806 08f0 1300000A 		beq	.L538
 4807              	.LVL536:
 4808              	.LBB1342:
 4809              	.LBB1328:
 216:C:/Renesas/e2studio_2021_01_workspace_RZA2M_ANPR/ANPR_RZA2M_EBK/src/tensorflow_lite/tensorflow/lite/kernels/internal\types.h ****   }
 4810              		.loc 5 216 0
 4811 08f4 0C109DE5 		ldr	r1, [sp, #12]
 4812              	.LVL537:
 4813              	.LBE1328:
 4814              	.LBE1342:
 4815              		.loc 5 524 0
 4816 08f8 24309DE5 		ldr	r3, [sp, #36]
 4817 08fc 030051E1 		cmp	r1, r3
 4818 0900 D700001A 		bne	.L464
 4819              	.LVL538:
 523:C:/Renesas/e2studio_2021_01_workspace_RZA2M_ANPR/ANPR_RZA2M_EBK/src/tensorflow_lite/tensorflow/lite/kernels/internal\types.h ****     TFLITE_DCHECK_EQ(shape.Dims(i), check_shape_0.Dims(i));
 4820              		.loc 5 523 0
 4821 0904 030052E3 		cmp	r2, #3
 4822 0908 0D00000A 		beq	.L538
 4823              	.LVL539:
 4824              	.LBB1343:
 4825              	.LBB1334:
 215:C:/Renesas/e2studio_2021_01_workspace_RZA2M_ANPR/ANPR_RZA2M_EBK/src/tensorflow_lite/tensorflow/lite/kernels/internal\types.h ****     return size_ > kMaxSmallSize ? dims_pointer_[i] : dims_[i];
 4826              		.loc 5 215 0
 4827 090c 030058E3 		cmp	r8, #3
 4828              	.LBE1334:
 4829              	.LBE1343:
 4830              	.LBB1344:
 4831              	.LBB1329:
 216:C:/Renesas/e2studio_2021_01_workspace_RZA2M_ANPR/ANPR_RZA2M_EBK/src/tensorflow_lite/tensorflow/lite/kernels/internal\types.h ****   }
 4832              		.loc 5 216 0
 4833 0910 10109DE5 		ldr	r1, [sp, #16]
 4834              	.LVL540:
 4835              	.LBE1329:
 4836              	.LBE1344:
 4837              	.LBB1345:
 4838              	.LBB1335:
 215:C:/Renesas/e2studio_2021_01_workspace_RZA2M_ANPR/ANPR_RZA2M_EBK/src/tensorflow_lite/tensorflow/lite/kernels/internal\types.h ****     return size_ > kMaxSmallSize ? dims_pointer_[i] : dims_[i];
 4839              		.loc 5 215 0
 4840 0914 D400000A 		beq	.L463
 4841              	.LVL541:
 4842              	.LBE1335:
 4843              	.LBE1345:
 4844              		.loc 5 524 0
 4845 0918 28309DE5 		ldr	r3, [sp, #40]
 4846 091c 030051E1 		cmp	r1, r3
 4847 0920 CF00001A 		bne	.L464
 4848              	.LVL542:
 523:C:/Renesas/e2studio_2021_01_workspace_RZA2M_ANPR/ANPR_RZA2M_EBK/src/tensorflow_lite/tensorflow/lite/kernels/internal\types.h ****     TFLITE_DCHECK_EQ(shape.Dims(i), check_shape_0.Dims(i));
 4849              		.loc 5 523 0
 4850 0924 040052E3 		cmp	r2, #4
 4851 0928 0500000A 		beq	.L538
 4852              	.LVL543:
 4853              	.LBB1346:
 4854              	.LBB1336:
 215:C:/Renesas/e2studio_2021_01_workspace_RZA2M_ANPR/ANPR_RZA2M_EBK/src/tensorflow_lite/tensorflow/lite/kernels/internal\types.h ****     return size_ > kMaxSmallSize ? dims_pointer_[i] : dims_[i];
 4855              		.loc 5 215 0
 4856 092c 040058E3 		cmp	r8, #4
 4857              	.LBE1336:
 4858              	.LBE1346:
 4859              	.LBB1347:
 4860              	.LBB1330:
 216:C:/Renesas/e2studio_2021_01_workspace_RZA2M_ANPR/ANPR_RZA2M_EBK/src/tensorflow_lite/tensorflow/lite/kernels/internal\types.h ****   }
 4861              		.loc 5 216 0
 4862 0930 14309DE5 		ldr	r3, [sp, #20]
 4863              	.LVL544:
 4864              	.LBE1330:
 4865              	.LBE1347:
 4866              	.LBB1348:
 4867              	.LBB1337:
 215:C:/Renesas/e2studio_2021_01_workspace_RZA2M_ANPR/ANPR_RZA2M_EBK/src/tensorflow_lite/tensorflow/lite/kernels/internal\types.h ****     return size_ > kMaxSmallSize ? dims_pointer_[i] : dims_[i];
 4868              		.loc 5 215 0
 4869 0934 CC00000A 		beq	.L463
 4870              	.LVL545:
 4871              	.LBE1337:
 4872              	.LBE1348:
 4873              		.loc 5 524 0
 4874 0938 2C109DE5 		ldr	r1, [sp, #44]
 4875 093c 030051E1 		cmp	r1, r3
 4876 0940 C700001A 		bne	.L464
 4877              	.LVL546:
 4878              	.L538:
 4879              	.LBE1324:
 4880              	.LBB1353:
 4881              	.LBB1354:
 4882              	.LBB1355:
 4883              	.LBB1356:
 232:C:/Renesas/e2studio_2021_01_workspace_RZA2M_ANPR/ANPR_RZA2M_EBK/src/tensorflow_lite/tensorflow/lite/kernels/internal\types.h ****   }
 4884              		.loc 5 232 0
 4885 0944 04C08DE2 		add	ip, sp, #4
 4886              	.L465:
 4887              	.LVL547:
 4888 0948 5C31A0E7 		sbfx	r3, ip, #2, #1
 4889 094c 033003E2 		and	r3, r3, #3
 4890 0950 020053E1 		cmp	r3, r2
 4891 0954 0230A021 		movcs	r3, r2
 4892 0958 080052E3 		cmp	r2, #8
 4893 095c 0230A091 		movls	r3, r2
 4894 0960 000053E3 		cmp	r3, #0
 4895 0964 9400000A 		beq	.L540
 4896 0968 010053E3 		cmp	r3, #1
 4897              	.LBE1356:
 4898              	.LBE1355:
 4899              	.LBB1358:
 293:C:/Renesas/e2studio_2021_01_workspace_RZA2M_ANPR/ANPR_RZA2M_EBK/src/tensorflow_lite/tensorflow/lite/kernels/internal\types.h ****     }
 4900              		.loc 5 293 0
 4901 096c 00109CE5 		ldr	r1, [ip]
 4902              	.LVL548:
 4903 0970 8C00000A 		beq	.L547
 4904 0974 04E09CE5 		ldr	lr, [ip, #4]
 4905 0978 020053E3 		cmp	r3, #2
 4906 097c 9E0101E0 		mul	r1, lr, r1
 4907              	.LVL549:
 4908 0980 8800000A 		beq	.L547
 4909 0984 08E09CE5 		ldr	lr, [ip, #8]
 4910 0988 030053E3 		cmp	r3, #3
 4911 098c 9E0101E0 		mul	r1, lr, r1
 4912              	.LVL550:
 4913 0990 8400000A 		beq	.L547
 4914 0994 0CE09CE5 		ldr	lr, [ip, #12]
 4915 0998 040053E3 		cmp	r3, #4
 4916 099c 9E0101E0 		mul	r1, lr, r1
 4917              	.LVL551:
 4918 09a0 8000000A 		beq	.L547
 4919 09a4 10E09CE5 		ldr	lr, [ip, #16]
 4920 09a8 050053E3 		cmp	r3, #5
 4921 09ac 9E0101E0 		mul	r1, lr, r1
 4922              	.LVL552:
 4923 09b0 7C00000A 		beq	.L547
 4924 09b4 14E09CE5 		ldr	lr, [ip, #20]
 4925 09b8 060053E3 		cmp	r3, #6
 4926 09bc 9E0101E0 		mul	r1, lr, r1
 4927              	.LVL553:
 4928 09c0 7800000A 		beq	.L547
 4929 09c4 18E09CE5 		ldr	lr, [ip, #24]
 4930 09c8 070053E3 		cmp	r3, #7
 4931 09cc 9E0101E0 		mul	r1, lr, r1
 4932              	.LVL554:
 4933 09d0 7400000A 		beq	.L547
 4934 09d4 1C609CE5 		ldr	r6, [ip, #28]
 292:C:/Renesas/e2studio_2021_01_workspace_RZA2M_ANPR/ANPR_RZA2M_EBK/src/tensorflow_lite/tensorflow/lite/kernels/internal\types.h ****       buffer_size *= dims_data[i];
 4935              		.loc 5 292 0
 4936 09d8 08E0A0E3 		mov	lr, #8
 293:C:/Renesas/e2studio_2021_01_workspace_RZA2M_ANPR/ANPR_RZA2M_EBK/src/tensorflow_lite/tensorflow/lite/kernels/internal\types.h ****     }
 4937              		.loc 5 293 0
 4938 09dc 960101E0 		mul	r1, r6, r1
 4939              	.LVL555:
 4940              	.L472:
 4941 09e0 030052E1 		cmp	r2, r3
 4942 09e4 2800000A 		beq	.L473
 4943              	.LVL556:
 4944              	.L471:
 4945 09e8 038042E0 		sub	r8, r2, r3
 4946 09ec 019042E2 		sub	r9, r2, #1
 4947 09f0 046048E2 		sub	r6, r8, #4
 4948 09f4 039049E0 		sub	r9, r9, r3
 4949 09f8 2661A0E1 		lsr	r6, r6, #2
 4950 09fc 020059E3 		cmp	r9, #2
 4951 0a00 016086E2 		add	r6, r6, #1
 4952 0a04 06A1A0E1 		lsl	r10, r6, #2
 4953 0a08 1200009A 		bls	.L474
 4954 0a0c 03318CE0 		add	r3, ip, r3, lsl #2
 292:C:/Renesas/e2studio_2021_01_workspace_RZA2M_ANPR/ANPR_RZA2M_EBK/src/tensorflow_lite/tensorflow/lite/kernels/internal\types.h ****       buffer_size *= dims_data[i];
 4955              		.loc 5 292 0
 4956 0a10 5100C0F2 		vmov.i32	q8, #1  @ v4si
 4957 0a14 0090A0E3 		mov	r9, #0
 4958              	.L476:
 4959 0a18 019089E2 		add	r9, r9, #1
 293:C:/Renesas/e2studio_2021_01_workspace_RZA2M_ANPR/ANPR_RZA2M_EBK/src/tensorflow_lite/tensorflow/lite/kernels/internal\types.h ****     }
 4960              		.loc 5 293 0
 4961 0a1c DF2A63F4 		vld1.64	{d18-d19}, [r3:64]
 4962 0a20 090056E1 		cmp	r6, r9
 4963 0a24 103083E2 		add	r3, r3, #16
 4964 0a28 F20960F2 		vmul.i32	q8, q8, q9
 4965 0a2c F9FFFF8A 		bhi	.L476
 4966 0a30 0A0058E1 		cmp	r8, r10
 4967 0a34 0AE08EE0 		add	lr, lr, r10
 4968 0a38 5020C0F2 		vmov.i32	q9, #0  @ v4si
 4969 0a3c E248F0F2 		vext.32	q10, q8, q9, #2
 4970 0a40 F40960F2 		vmul.i32	q8, q8, q10
 4971 0a44 E224F0F2 		vext.32	q9, q8, q9, #1
 4972 0a48 F20960F2 		vmul.i32	q8, q8, q9
 4973 0a4c 903B10EE 		vmov.32	r3, d16[0]
 4974 0a50 930101E0 		mul	r1, r3, r1
 4975 0a54 0C00000A 		beq	.L473
 4976              	.L474:
 4977              	.LVL557:
 4978 0a58 0E619CE7 		ldr	r6, [ip, lr, lsl #2]
 292:C:/Renesas/e2studio_2021_01_workspace_RZA2M_ANPR/ANPR_RZA2M_EBK/src/tensorflow_lite/tensorflow/lite/kernels/internal\types.h ****       buffer_size *= dims_data[i];
 4979              		.loc 5 292 0
 4980 0a5c 01308EE2 		add	r3, lr, #1
 4981 0a60 030052E1 		cmp	r2, r3
 293:C:/Renesas/e2studio_2021_01_workspace_RZA2M_ANPR/ANPR_RZA2M_EBK/src/tensorflow_lite/tensorflow/lite/kernels/internal\types.h ****     }
 4982              		.loc 5 293 0
 4983 0a64 0E31A0E1 		lsl	r3, lr, #2
 4984 0a68 960101E0 		mul	r1, r6, r1
 4985              	.LVL558:
 292:C:/Renesas/e2studio_2021_01_workspace_RZA2M_ANPR/ANPR_RZA2M_EBK/src/tensorflow_lite/tensorflow/lite/kernels/internal\types.h ****       buffer_size *= dims_data[i];
 4986              		.loc 5 292 0
 4987 0a6c 060000DA 		ble	.L473
 293:C:/Renesas/e2studio_2021_01_workspace_RZA2M_ANPR/ANPR_RZA2M_EBK/src/tensorflow_lite/tensorflow/lite/kernels/internal\types.h ****     }
 4988              		.loc 5 293 0
 4989 0a70 03C08CE0 		add	ip, ip, r3
 292:C:/Renesas/e2studio_2021_01_workspace_RZA2M_ANPR/ANPR_RZA2M_EBK/src/tensorflow_lite/tensorflow/lite/kernels/internal\types.h ****       buffer_size *= dims_data[i];
 4990              		.loc 5 292 0
 4991 0a74 02E08EE2 		add	lr, lr, #2
 293:C:/Renesas/e2studio_2021_01_workspace_RZA2M_ANPR/ANPR_RZA2M_EBK/src/tensorflow_lite/tensorflow/lite/kernels/internal\types.h ****     }
 4992              		.loc 5 293 0
 4993 0a78 04309CE5 		ldr	r3, [ip, #4]
 292:C:/Renesas/e2studio_2021_01_workspace_RZA2M_ANPR/ANPR_RZA2M_EBK/src/tensorflow_lite/tensorflow/lite/kernels/internal\types.h ****       buffer_size *= dims_data[i];
 4994              		.loc 5 292 0
 4995 0a7c 0E0052E1 		cmp	r2, lr
 293:C:/Renesas/e2studio_2021_01_workspace_RZA2M_ANPR/ANPR_RZA2M_EBK/src/tensorflow_lite/tensorflow/lite/kernels/internal\types.h ****     }
 4996              		.loc 5 293 0
 4997 0a80 930101E0 		mul	r1, r3, r1
 4998              	.LVL559:
 292:C:/Renesas/e2studio_2021_01_workspace_RZA2M_ANPR/ANPR_RZA2M_EBK/src/tensorflow_lite/tensorflow/lite/kernels/internal\types.h ****       buffer_size *= dims_data[i];
 4999              		.loc 5 292 0
 293:C:/Renesas/e2studio_2021_01_workspace_RZA2M_ANPR/ANPR_RZA2M_EBK/src/tensorflow_lite/tensorflow/lite/kernels/internal\types.h ****     }
 5000              		.loc 5 293 0
 5001 0a84 08309CC5 		ldrgt	r3, [ip, #8]
 5002 0a88 930101C0 		mulgt	r1, r3, r1
 5003              	.LVL560:
 5004              	.L473:
 5005              	.LBE1358:
 5006              	.LBE1354:
 5007              	.LBE1353:
 5008              	.LBE1323:
 5009              	.LBE1322:
 5010              	.LBB1380:
 125:../src/tensorflow_lite/tensorflow/lite/micro/kernels/activations.cc ****     const Q val = input_data[i];
 5011              		.loc 1 125 0
 5012 0a8c 000051E3 		cmp	r1, #0
 5013 0a90 C7FEFFDA 		ble	.L469
 5014              	.LVL561:
 5015              	.L460:
 5016 0a94 01C047E2 		sub	ip, r7, #1
 5017 0a98 010040E2 		sub	r0, r0, #1
 5018              	.LVL562:
 5019              	.LBE1380:
 5020              	.LBB1383:
 5021              	.LBB1374:
 5022              	.LBB1368:
 5023              	.LBB1364:
 290:C:/Renesas/e2studio_2021_01_workspace_RZA2M_ANPR/ANPR_RZA2M_EBK/src/tensorflow_lite/tensorflow/lite/kernels/internal\types.h ****     const int* dims_data = reinterpret_cast<const int*>(DimsData());
 5024              		.loc 5 290 0
 5025 0a9c 0020A0E3 		mov	r2, #0
 5026              	.LVL563:
 5027              	.L481:
 5028              	.LBE1364:
 5029              	.LBE1368:
 5030              	.LBE1374:
 5031              	.LBE1383:
 5032              	.LBB1384:
 5033              	.LBB1381:
 126:../src/tensorflow_lite/tensorflow/lite/micro/kernels/activations.cc ****     const Q clamped = val > upper ? upper : val < lower ? lower : val;
 5034              		.loc 1 126 0
 5035 0aa0 0130FCE5 		ldrb	r3, [ip, #1]!	@ zero_extendqisi2
 5036              	.LVL564:
 127:../src/tensorflow_lite/tensorflow/lite/micro/kernels/activations.cc ****     output_data[i] = clamped;
 5037              		.loc 1 127 0
 5038 0aa4 040053E1 		cmp	r3, r4
 5039 0aa8 0430A0C1 		movgt	r3, r4
 5040              	.LVL565:
 5041 0aac 010000CA 		bgt	.L480
 5042 0ab0 050053E1 		cmp	r3, r5
 5043 0ab4 0530A0B1 		movlt	r3, r5
 5044              	.L480:
 5045              	.LVL566:
 5046              	.LBE1381:
 125:../src/tensorflow_lite/tensorflow/lite/micro/kernels/activations.cc ****     const Q val = input_data[i];
 5047              		.loc 1 125 0
 5048 0ab8 012082E2 		add	r2, r2, #1
 5049              	.LVL567:
 5050              	.LBB1382:
 128:../src/tensorflow_lite/tensorflow/lite/micro/kernels/activations.cc ****   }
 5051              		.loc 1 128 0
 5052 0abc 0130E0E5 		strb	r3, [r0, #1]!
 5053              	.LVL568:
 5054              	.LBE1382:
 125:../src/tensorflow_lite/tensorflow/lite/micro/kernels/activations.cc ****     const Q val = input_data[i];
 5055              		.loc 1 125 0
 5056 0ac0 020051E1 		cmp	r1, r2
 5057 0ac4 F5FFFFCA 		bgt	.L481
 5058 0ac8 B8FEFFEA 		b	.L657
 5059              	.LVL569:
 5060              	.L430:
 5061 0acc 041041E2 		sub	r1, r1, #4
 5062 0ad0 04C049E2 		sub	ip, r9, #4
 5063              	.LBE1384:
 5064              	.LBE1321:
 5065              	.LBE1320:
 5066              	.LBB1395:
 5067              	.LBB1225:
 5068              	.LBB1218:
 5069              	.LBB1163:
 5070              	.LBB1156:
 5071              	.LBB1136:
 5072              	.LBB1125:
 216:C:/Renesas/e2studio_2021_01_workspace_RZA2M_ANPR/ANPR_RZA2M_EBK/src/tensorflow_lite/tensorflow/lite/kernels/internal\types.h ****   }
 5073              		.loc 5 216 0
 5074 0ad4 0030A0E3 		mov	r3, #0
 5075              	.LVL570:
 5076              	.L436:
 215:C:/Renesas/e2studio_2021_01_workspace_RZA2M_ANPR/ANPR_RZA2M_EBK/src/tensorflow_lite/tensorflow/lite/kernels/internal\types.h ****     return size_ > kMaxSmallSize ? dims_pointer_[i] : dims_[i];
 5077              		.loc 5 215 0
 5078 0ad8 030058E1 		cmp	r8, r3
 5079              	.LBE1125:
 5080              	.LBE1136:
 5081              	.LBB1137:
 5082              	.LBB1118:
 216:C:/Renesas/e2studio_2021_01_workspace_RZA2M_ANPR/ANPR_RZA2M_EBK/src/tensorflow_lite/tensorflow/lite/kernels/internal\types.h ****   }
 5083              		.loc 5 216 0
 5084 0adc 04E0BCE5 		ldr	lr, [ip, #4]!
 5085              	.LVL571:
 5086              	.LBE1118:
 5087              	.LBE1137:
 5088              	.LBB1138:
 5089              	.LBB1126:
 215:C:/Renesas/e2studio_2021_01_workspace_RZA2M_ANPR/ANPR_RZA2M_EBK/src/tensorflow_lite/tensorflow/lite/kernels/internal\types.h ****     return size_ > kMaxSmallSize ? dims_pointer_[i] : dims_[i];
 5090              		.loc 5 215 0
 5091 0ae0 5B0000DA 		ble	.L431
 5092              	.LVL572:
 5093              	.LBE1126:
 5094              	.LBE1138:
 5095              		.loc 5 524 0
 5096 0ae4 0460B1E5 		ldr	r6, [r1, #4]!
 5097 0ae8 06005EE1 		cmp	lr, r6
 5098 0aec 4800001A 		bne	.L432
 523:C:/Renesas/e2studio_2021_01_workspace_RZA2M_ANPR/ANPR_RZA2M_EBK/src/tensorflow_lite/tensorflow/lite/kernels/internal\types.h ****     TFLITE_DCHECK_EQ(shape.Dims(i), check_shape_0.Dims(i));
 5099              		.loc 5 523 0
 5100 0af0 013083E2 		add	r3, r3, #1
 5101              	.LVL573:
 5102 0af4 030052E1 		cmp	r2, r3
 5103 0af8 F6FFFF1A 		bne	.L436
 5104              	.LVL574:
 5105              	.LBE1156:
 5106              	.LBB1157:
 5107              	.LBB1152:
 5108              	.LBB1146:
 292:C:/Renesas/e2studio_2021_01_workspace_RZA2M_ANPR/ANPR_RZA2M_EBK/src/tensorflow_lite/tensorflow/lite/kernels/internal\types.h ****       buffer_size *= dims_data[i];
 5109              		.loc 5 292 0
 5110 0afc 000052E3 		cmp	r2, #0
 5111              	.LBE1146:
 5112              	.LBB1147:
 5113              	.LBB1144:
 232:C:/Renesas/e2studio_2021_01_workspace_RZA2M_ANPR/ANPR_RZA2M_EBK/src/tensorflow_lite/tensorflow/lite/kernels/internal\types.h ****   }
 5114              		.loc 5 232 0
 5115 0b00 0980A0E1 		mov	r8, r9
 5116              	.LVL575:
 5117              	.LBE1144:
 5118              	.LBE1147:
 5119              	.LBB1148:
 292:C:/Renesas/e2studio_2021_01_workspace_RZA2M_ANPR/ANPR_RZA2M_EBK/src/tensorflow_lite/tensorflow/lite/kernels/internal\types.h ****       buffer_size *= dims_data[i];
 5120              		.loc 5 292 0
 5121 0b04 99FDFFCA 		bgt	.L433
 5122              	.LVL576:
 5123              	.L522:
 5124              	.LBE1148:
 290:C:/Renesas/e2studio_2021_01_workspace_RZA2M_ANPR/ANPR_RZA2M_EBK/src/tensorflow_lite/tensorflow/lite/kernels/internal\types.h ****     const int* dims_data = reinterpret_cast<const int*>(DimsData());
 5125              		.loc 5 290 0
 5126 0b08 0130A0E3 		mov	r3, #1
 5127 0b0c EAFDFFEA 		b	.L428
 5128              	.LVL577:
 5129              	.L400:
 5130 0b10 042042E2 		sub	r2, r2, #4
 5131 0b14 04C047E2 		sub	ip, r7, #4
 5132              	.LBE1152:
 5133              	.LBE1157:
 5134              	.LBE1163:
 5135              	.LBE1218:
 5136              	.LBE1225:
 5137              	.LBE1395:
 5138              	.LBB1396:
 5139              	.LBB1309:
 5140              	.LBB1304:
 5141              	.LBB1293:
 5142              	.LBB1287:
 5143              	.LBB1267:
 5144              	.LBB1256:
 216:C:/Renesas/e2studio_2021_01_workspace_RZA2M_ANPR/ANPR_RZA2M_EBK/src/tensorflow_lite/tensorflow/lite/kernels/internal\types.h ****   }
 5145              		.loc 5 216 0
 5146 0b18 0030A0E3 		mov	r3, #0
 5147              	.LVL578:
 5148              	.L406:
 215:C:/Renesas/e2studio_2021_01_workspace_RZA2M_ANPR/ANPR_RZA2M_EBK/src/tensorflow_lite/tensorflow/lite/kernels/internal\types.h ****     return size_ > kMaxSmallSize ? dims_pointer_[i] : dims_[i];
 5149              		.loc 5 215 0
 5150 0b1c 030055E1 		cmp	r5, r3
 5151              	.LBE1256:
 5152              	.LBE1267:
 5153              	.LBB1268:
 5154              	.LBB1249:
 216:C:/Renesas/e2studio_2021_01_workspace_RZA2M_ANPR/ANPR_RZA2M_EBK/src/tensorflow_lite/tensorflow/lite/kernels/internal\types.h ****   }
 5155              		.loc 5 216 0
 5156 0b20 04E0BCE5 		ldr	lr, [ip, #4]!
 5157              	.LVL579:
 5158              	.LBE1249:
 5159              	.LBE1268:
 5160              	.LBB1269:
 5161              	.LBB1257:
 215:C:/Renesas/e2studio_2021_01_workspace_RZA2M_ANPR/ANPR_RZA2M_EBK/src/tensorflow_lite/tensorflow/lite/kernels/internal\types.h ****     return size_ > kMaxSmallSize ? dims_pointer_[i] : dims_[i];
 5162              		.loc 5 215 0
 5163 0b24 4D0000DA 		ble	.L401
 5164              	.LVL580:
 5165              	.LBE1257:
 5166              	.LBE1269:
 5167              		.loc 5 524 0
 5168 0b28 0460B2E5 		ldr	r6, [r2, #4]!
 5169 0b2c 06005EE1 		cmp	lr, r6
 5170 0b30 4800001A 		bne	.L402
 523:C:/Renesas/e2studio_2021_01_workspace_RZA2M_ANPR/ANPR_RZA2M_EBK/src/tensorflow_lite/tensorflow/lite/kernels/internal\types.h ****     TFLITE_DCHECK_EQ(shape.Dims(i), check_shape_0.Dims(i));
 5171              		.loc 5 523 0
 5172 0b34 013083E2 		add	r3, r3, #1
 5173              	.LVL581:
 5174 0b38 030051E1 		cmp	r1, r3
 5175 0b3c F6FFFF1A 		bne	.L406
 5176              	.LVL582:
 5177              	.LBE1287:
 5178              	.LBB1288:
 5179              	.LBB1283:
 5180              	.LBB1277:
 292:C:/Renesas/e2studio_2021_01_workspace_RZA2M_ANPR/ANPR_RZA2M_EBK/src/tensorflow_lite/tensorflow/lite/kernels/internal\types.h ****       buffer_size *= dims_data[i];
 5181              		.loc 5 292 0
 5182 0b40 000051E3 		cmp	r1, #0
 5183              	.LBE1277:
 5184              	.LBB1278:
 5185              	.LBB1275:
 232:C:/Renesas/e2studio_2021_01_workspace_RZA2M_ANPR/ANPR_RZA2M_EBK/src/tensorflow_lite/tensorflow/lite/kernels/internal\types.h ****   }
 5186              		.loc 5 232 0
 5187 0b44 0760A0E1 		mov	r6, r7
 5188              	.LVL583:
 5189              	.LBE1275:
 5190              	.LBE1278:
 5191              	.LBB1279:
 292:C:/Renesas/e2studio_2021_01_workspace_RZA2M_ANPR/ANPR_RZA2M_EBK/src/tensorflow_lite/tensorflow/lite/kernels/internal\types.h ****       buffer_size *= dims_data[i];
 5192              		.loc 5 292 0
 5193 0b48 DEFEFFCA 		bgt	.L403
 5194              	.LVL584:
 5195              	.L504:
 5196              	.LBE1279:
 290:C:/Renesas/e2studio_2021_01_workspace_RZA2M_ANPR/ANPR_RZA2M_EBK/src/tensorflow_lite/tensorflow/lite/kernels/internal\types.h ****     const int* dims_data = reinterpret_cast<const int*>(DimsData());
 5197              		.loc 5 290 0
 5198 0b4c 0120A0E3 		mov	r2, #1
 5199 0b50 2FFFFFEA 		b	.L398
 5200              	.LVL585:
 5201              	.L462:
 5202 0b54 041041E2 		sub	r1, r1, #4
 5203 0b58 04C049E2 		sub	ip, r9, #4
 5204              	.LBE1283:
 5205              	.LBE1288:
 5206              	.LBE1293:
 5207              	.LBE1304:
 5208              	.LBE1309:
 5209              	.LBE1396:
 5210              	.LBB1397:
 5211              	.LBB1390:
 5212              	.LBB1385:
 5213              	.LBB1375:
 5214              	.LBB1369:
 5215              	.LBB1349:
 5216              	.LBB1338:
 216:C:/Renesas/e2studio_2021_01_workspace_RZA2M_ANPR/ANPR_RZA2M_EBK/src/tensorflow_lite/tensorflow/lite/kernels/internal\types.h ****   }
 5217              		.loc 5 216 0
 5218 0b5c 0030A0E3 		mov	r3, #0
 5219              	.LVL586:
 5220              	.L468:
 215:C:/Renesas/e2studio_2021_01_workspace_RZA2M_ANPR/ANPR_RZA2M_EBK/src/tensorflow_lite/tensorflow/lite/kernels/internal\types.h ****     return size_ > kMaxSmallSize ? dims_pointer_[i] : dims_[i];
 5221              		.loc 5 215 0
 5222 0b60 030058E1 		cmp	r8, r3
 5223              	.LBE1338:
 5224              	.LBE1349:
 5225              	.LBB1350:
 5226              	.LBB1331:
 216:C:/Renesas/e2studio_2021_01_workspace_RZA2M_ANPR/ANPR_RZA2M_EBK/src/tensorflow_lite/tensorflow/lite/kernels/internal\types.h ****   }
 5227              		.loc 5 216 0
 5228 0b64 04E0BCE5 		ldr	lr, [ip, #4]!
 5229              	.LVL587:
 5230              	.LBE1331:
 5231              	.LBE1350:
 5232              	.LBB1351:
 5233              	.LBB1339:
 215:C:/Renesas/e2studio_2021_01_workspace_RZA2M_ANPR/ANPR_RZA2M_EBK/src/tensorflow_lite/tensorflow/lite/kernels/internal\types.h ****     return size_ > kMaxSmallSize ? dims_pointer_[i] : dims_[i];
 5234              		.loc 5 215 0
 5235 0b68 3F0000DA 		ble	.L463
 5236              	.LVL588:
 5237              	.LBE1339:
 5238              	.LBE1351:
 5239              		.loc 5 524 0
 5240 0b6c 0460B1E5 		ldr	r6, [r1, #4]!
 5241 0b70 06005EE1 		cmp	lr, r6
 5242 0b74 3A00001A 		bne	.L464
 523:C:/Renesas/e2studio_2021_01_workspace_RZA2M_ANPR/ANPR_RZA2M_EBK/src/tensorflow_lite/tensorflow/lite/kernels/internal\types.h ****     TFLITE_DCHECK_EQ(shape.Dims(i), check_shape_0.Dims(i));
 5243              		.loc 5 523 0
 5244 0b78 013083E2 		add	r3, r3, #1
 5245              	.LVL589:
 5246 0b7c 030052E1 		cmp	r2, r3
 5247 0b80 F6FFFF1A 		bne	.L468
 5248              	.LVL590:
 5249              	.LBE1369:
 5250              	.LBB1370:
 5251              	.LBB1365:
 5252              	.LBB1359:
 292:C:/Renesas/e2studio_2021_01_workspace_RZA2M_ANPR/ANPR_RZA2M_EBK/src/tensorflow_lite/tensorflow/lite/kernels/internal\types.h ****       buffer_size *= dims_data[i];
 5253              		.loc 5 292 0
 5254 0b84 000052E3 		cmp	r2, #0
 5255              	.LBE1359:
 5256              	.LBB1360:
 5257              	.LBB1357:
 232:C:/Renesas/e2studio_2021_01_workspace_RZA2M_ANPR/ANPR_RZA2M_EBK/src/tensorflow_lite/tensorflow/lite/kernels/internal\types.h ****   }
 5258              		.loc 5 232 0
 5259 0b88 09C0A0E1 		mov	ip, r9
 5260              	.LVL591:
 5261              	.LBE1357:
 5262              	.LBE1360:
 5263              	.LBB1361:
 292:C:/Renesas/e2studio_2021_01_workspace_RZA2M_ANPR/ANPR_RZA2M_EBK/src/tensorflow_lite/tensorflow/lite/kernels/internal\types.h ****       buffer_size *= dims_data[i];
 5264              		.loc 5 292 0
 5265 0b8c 6DFFFFCA 		bgt	.L465
 5266              	.LVL592:
 5267              	.L539:
 5268              	.LBE1361:
 290:C:/Renesas/e2studio_2021_01_workspace_RZA2M_ANPR/ANPR_RZA2M_EBK/src/tensorflow_lite/tensorflow/lite/kernels/internal\types.h ****     const int* dims_data = reinterpret_cast<const int*>(DimsData());
 5269              		.loc 5 290 0
 5270 0b90 0110A0E3 		mov	r1, #1
 5271 0b94 BEFFFFEA 		b	.L460
 5272              	.LVL593:
 5273              	.L530:
 5274              	.LBE1365:
 5275              	.LBE1370:
 5276              	.LBE1375:
 5277              	.LBE1385:
 5278              	.LBE1390:
 5279              	.LBE1397:
 5280              	.LBB1398:
 5281              	.LBB1226:
 5282              	.LBB1219:
 5283              	.LBB1164:
 5284              	.LBB1158:
 5285              	.LBB1153:
 5286              	.LBB1149:
 292:C:/Renesas/e2studio_2021_01_workspace_RZA2M_ANPR/ANPR_RZA2M_EBK/src/tensorflow_lite/tensorflow/lite/kernels/internal\types.h ****       buffer_size *= dims_data[i];
 5287              		.loc 5 292 0
 5288 0b98 0160A0E1 		mov	r6, r1
 5289 0b9c 99FDFFEA 		b	.L440
 5290              	.LVL594:
 5291              	.L512:
 5292              	.LBE1149:
 5293              	.LBE1153:
 5294              	.LBE1158:
 5295              	.LBE1164:
 5296              	.LBE1219:
 5297              	.LBE1226:
 5298              	.LBE1398:
 5299              	.LBB1399:
 5300              	.LBB1310:
 5301              	.LBB1305:
 5302              	.LBB1294:
 5303              	.LBB1289:
 5304              	.LBB1284:
 5305              	.LBB1280:
 5306 0ba0 03C0A0E1 		mov	ip, r3
 5307 0ba4 EDFEFFEA 		b	.L411
 5308              	.LVL595:
 5309              	.L547:
 5310              	.LBE1280:
 5311              	.LBE1284:
 5312              	.LBE1289:
 5313              	.LBE1294:
 5314              	.LBE1305:
 5315              	.LBE1310:
 5316              	.LBE1399:
 5317              	.LBB1400:
 5318              	.LBB1391:
 5319              	.LBB1386:
 5320              	.LBB1376:
 5321              	.LBB1371:
 5322              	.LBB1366:
 5323              	.LBB1362:
 5324 0ba8 03E0A0E1 		mov	lr, r3
 5325 0bac 8BFFFFEA 		b	.L472
 5326              	.LVL596:
 5327              	.L505:
 5328              	.LBE1362:
 5329              	.LBE1366:
 5330              	.LBE1371:
 5331              	.LBE1376:
 5332              	.LBE1386:
 5333              	.LBE1391:
 5334              	.LBE1400:
 5335              	.LBB1401:
 5336              	.LBB1311:
 5337              	.LBB1306:
 5338              	.LBB1295:
 5339              	.LBB1290:
 5340              	.LBB1285:
 5341              	.LBB1281:
 5342 0bb0 0120A0E3 		mov	r2, #1
 5343 0bb4 03C0A0E1 		mov	ip, r3
 5344 0bb8 EAFEFFEA 		b	.L410
 5345              	.LVL597:
 5346              	.L540:
 5347              	.LBE1281:
 5348              	.LBE1285:
 5349              	.LBE1290:
 5350              	.LBE1295:
 5351              	.LBE1306:
 5352              	.LBE1311:
 5353              	.LBE1401:
 5354              	.LBB1402:
 5355              	.LBB1392:
 5356              	.LBB1387:
 5357              	.LBB1377:
 5358              	.LBB1372:
 5359              	.LBB1367:
 5360              	.LBB1363:
 5361 0bbc 0110A0E3 		mov	r1, #1
 5362 0bc0 03E0A0E1 		mov	lr, r3
 5363 0bc4 87FFFFEA 		b	.L471
 5364              	.LVL598:
 5365              	.L523:
 5366              	.LBE1363:
 5367              	.LBE1367:
 5368              	.LBE1372:
 5369              	.LBE1377:
 5370              	.LBE1387:
 5371              	.LBE1392:
 5372              	.LBE1402:
 5373              	.LBB1403:
 5374              	.LBB1227:
 5375              	.LBB1220:
 5376              	.LBB1165:
 5377              	.LBB1159:
 5378              	.LBB1154:
 5379              	.LBB1150:
 5380 0bc8 0130A0E3 		mov	r3, #1
 5381 0bcc 0160A0E1 		mov	r6, r1
 5382 0bd0 8EFDFFEA 		b	.L439
 5383              	.LVL599:
 5384              	.L531:
 5385              	.LBE1150:
 290:C:/Renesas/e2studio_2021_01_workspace_RZA2M_ANPR/ANPR_RZA2M_EBK/src/tensorflow_lite/tensorflow/lite/kernels/internal\types.h ****     const int* dims_data = reinterpret_cast<const int*>(DimsData());
 5386              		.loc 5 290 0
 5387 0bd4 0020A0E3 		mov	r2, #0
 5388 0bd8 E2FDFFEA 		b	.L449
 5389              	.L661:
 5390              		.align	2
 5391              	.L660:
 5392 0bdc 00000000 		.word	0
 5393              	.L448:
 5394 0be0 017047E2 		sub	r7, r7, #1
 5395              	.LVL600:
 5396 0be4 010040E2 		sub	r0, r0, #1
 5397              	.LVL601:
 5398              	.L455:
 5399              	.LBE1154:
 5400              	.LBE1159:
 5401              	.LBE1165:
 5402              	.LBE1220:
 5403              	.LBB1221:
 5404              	.LBB1213:
 126:../src/tensorflow_lite/tensorflow/lite/micro/kernels/activations.cc ****     const Q clamped = val > upper ? upper : val < lower ? lower : val;
 5405              		.loc 1 126 0
 5406 0be8 D1C0F7E1 		ldrsb	ip, [r7, #1]!
 5407              	.LVL602:
 5408              	.LBE1213:
 125:../src/tensorflow_lite/tensorflow/lite/micro/kernels/activations.cc ****     const Q val = input_data[i];
 5409              		.loc 1 125 0
 5410 0bec 012082E2 		add	r2, r2, #1
 5411              	.LVL603:
 5412              	.LBB1214:
 128:../src/tensorflow_lite/tensorflow/lite/micro/kernels/activations.cc ****   }
 5413              		.loc 1 128 0
 5414 0bf0 0C0054E1 		cmp	r4, ip
 5415 0bf4 0C10A0B1 		movlt	r1, ip
 5416 0bf8 0410A0A1 		movge	r1, r4
 5417 0bfc 0C0055E1 		cmp	r5, ip
 5418 0c00 0510A0B1 		movlt	r1, r5
 5419              	.LBE1214:
 125:../src/tensorflow_lite/tensorflow/lite/micro/kernels/activations.cc ****     const Q val = input_data[i];
 5420              		.loc 1 125 0
 5421 0c04 020053E1 		cmp	r3, r2
 5422              	.LBB1215:
 128:../src/tensorflow_lite/tensorflow/lite/micro/kernels/activations.cc ****   }
 5423              		.loc 1 128 0
 5424 0c08 0110E0E5 		strb	r1, [r0, #1]!
 5425              	.LBE1215:
 125:../src/tensorflow_lite/tensorflow/lite/micro/kernels/activations.cc ****     const Q val = input_data[i];
 5426              		.loc 1 125 0
 5427 0c0c F5FFFFCA 		bgt	.L455
 5428 0c10 66FEFFEA 		b	.L657
 5429              	.LVL604:
 5430              	.L432:
 5431              	.LEHB33:
 5432              	.LBE1221:
 5433              	.LBB1222:
 5434              	.LBB1166:
 5435              	.LBB1160:
 5436              		.loc 5 524 0
 5437 0c14 FEFFFFEB 		bl	abort
 5438              	.LVL605:
 5439              	.LEHE33:
 5440              	.L553:
 5441              	.L655:
 5442              	.LBE1160:
 5443              	.LBE1166:
 5444              	.LBE1222:
 5445              	.LBE1227:
 5446              	.LBE1403:
 5447              	.LBB1404:
 5448              	.LBB1405:
 203:C:/Renesas/e2studio_2021_01_workspace_RZA2M_ANPR/ANPR_RZA2M_EBK/src/tensorflow_lite/tensorflow/lite/kernels/internal\types.h **** #ifdef TF_LITE_STATIC_MEMORY
 5449              		.loc 5 203 0
 5450 0c18 18309DE5 		ldr	r3, [sp, #24]
 5451 0c1c 050053E3 		cmp	r3, #5
 5452 0c20 030000DA 		ble	.L494
 207:C:/Renesas/e2studio_2021_01_workspace_RZA2M_ANPR/ANPR_RZA2M_EBK/src/tensorflow_lite/tensorflow/lite/kernels/internal\types.h **** #endif  // TF_LITE_STATIC_MEMORY
 5453              		.loc 5 207 0
 5454 0c24 1C009DE5 		ldr	r0, [sp, #28]
 5455 0c28 000050E3 		cmp	r0, #0
 5456 0c2c 0000000A 		beq	.L494
 5457 0c30 FEFFFFEB 		bl	_ZdaPv
 5458              	.LVL606:
 5459              	.L494:
 5460              	.LBE1405:
 5461              	.LBE1404:
 5462              	.LBB1406:
 5463              	.LBB1407:
 203:C:/Renesas/e2studio_2021_01_workspace_RZA2M_ANPR/ANPR_RZA2M_EBK/src/tensorflow_lite/tensorflow/lite/kernels/internal\types.h **** #ifdef TF_LITE_STATIC_MEMORY
 5464              		.loc 5 203 0
 5465 0c34 00309DE5 		ldr	r3, [sp]
 5466 0c38 050053E3 		cmp	r3, #5
 5467 0c3c 030000DA 		ble	.L495
 207:C:/Renesas/e2studio_2021_01_workspace_RZA2M_ANPR/ANPR_RZA2M_EBK/src/tensorflow_lite/tensorflow/lite/kernels/internal\types.h **** #endif  // TF_LITE_STATIC_MEMORY
 5468              		.loc 5 207 0
 5469 0c40 04009DE5 		ldr	r0, [sp, #4]
 5470 0c44 000050E3 		cmp	r0, #0
 5471 0c48 0000000A 		beq	.L495
 5472 0c4c FEFFFFEB 		bl	_ZdaPv
 5473              	.LVL607:
 5474              	.L495:
 5475              	.LEHB34:
 5476 0c50 FEFFFFEB 		bl	__cxa_end_cleanup
 5477              	.LVL608:
 5478              	.LEHE34:
 5479              	.L431:
 5480              	.LEHB35:
 5481              	.LBE1407:
 5482              	.LBE1406:
 5483              	.LBB1408:
 5484              	.LBB1228:
 5485              	.LBB1223:
 5486              	.LBB1167:
 5487              	.LBB1161:
 5488              	.LBB1139:
 5489              	.LBB1127:
 215:C:/Renesas/e2studio_2021_01_workspace_RZA2M_ANPR/ANPR_RZA2M_EBK/src/tensorflow_lite/tensorflow/lite/kernels/internal\types.h ****     return size_ > kMaxSmallSize ? dims_pointer_[i] : dims_[i];
 5490              		.loc 5 215 0
 5491 0c54 FEFFFFEB 		bl	abort
 5492              	.LVL609:
 5493              	.LEHE35:
 5494              	.L402:
 5495              	.LEHB36:
 5496              	.LBE1127:
 5497              	.LBE1139:
 5498              	.LBE1161:
 5499              	.LBE1167:
 5500              	.LBE1223:
 5501              	.LBE1228:
 5502              	.LBE1408:
 5503              	.LBB1409:
 5504              	.LBB1312:
 5505              	.LBB1307:
 5506              	.LBB1296:
 5507              	.LBB1291:
 5508              		.loc 5 524 0
 5509 0c58 FEFFFFEB 		bl	abort
 5510              	.LVL610:
 5511              	.L551:
 5512 0c5c EDFFFFEA 		b	.L655
 5513              	.LVL611:
 5514              	.L401:
 5515              	.LBB1270:
 5516              	.LBB1258:
 215:C:/Renesas/e2studio_2021_01_workspace_RZA2M_ANPR/ANPR_RZA2M_EBK/src/tensorflow_lite/tensorflow/lite/kernels/internal\types.h ****     return size_ > kMaxSmallSize ? dims_pointer_[i] : dims_[i];
 5517              		.loc 5 215 0
 5518 0c60 FEFFFFEB 		bl	abort
 5519              	.LVL612:
 5520              	.LEHE36:
 5521              	.L464:
 5522              	.LEHB37:
 5523              	.LBE1258:
 5524              	.LBE1270:
 5525              	.LBE1291:
 5526              	.LBE1296:
 5527              	.LBE1307:
 5528              	.LBE1312:
 5529              	.LBE1409:
 5530              	.LBB1410:
 5531              	.LBB1393:
 5532              	.LBB1388:
 5533              	.LBB1378:
 5534              	.LBB1373:
 5535              		.loc 5 524 0
 5536 0c64 FEFFFFEB 		bl	abort
 5537              	.LVL613:
 5538              	.L555:
 5539 0c68 EAFFFFEA 		b	.L655
 5540              	.LVL614:
 5541              	.L463:
 5542              	.LBB1352:
 5543              	.LBB1340:
 215:C:/Renesas/e2studio_2021_01_workspace_RZA2M_ANPR/ANPR_RZA2M_EBK/src/tensorflow_lite/tensorflow/lite/kernels/internal\types.h ****     return size_ > kMaxSmallSize ? dims_pointer_[i] : dims_[i];
 5544              		.loc 5 215 0
 5545 0c6c FEFFFFEB 		bl	abort
 5546              	.LVL615:
 5547              	.LEHE37:
 5548              	.L391:
 5549              	.LEHB38:
 5550              	.LBE1340:
 5551              	.LBE1352:
 5552              	.LBE1373:
 5553              	.LBE1378:
 5554              	.LBE1388:
 5555              	.LBE1393:
 5556              	.LBE1410:
 221:../src/tensorflow_lite/tensorflow/lite/micro/kernels/activations.cc ****   const Relu6OpData& data = *(static_cast<const Relu6OpData*>(node->user_data));
 5557              		.loc 1 221 0 discriminator 1
 5558 0c70 FEFFFFEB 		bl	abort
 5559              	.LVL616:
 5560              	.LEHE38:
 5561              	.L554:
 5562 0c74 EEFFFFEA 		b	.L494
 5563              	.LVL617:
 5564              	.L427:
 5565              	.LEHB39:
 5566              	.LBB1411:
 5567              	.LBB1229:
 5568              	.LBB1224:
 5569              	.LBB1168:
 521:C:/Renesas/e2studio_2021_01_workspace_RZA2M_ANPR/ANPR_RZA2M_EBK/src/tensorflow_lite/tensorflow/lite/kernels/internal\types.h ****   const int dims_count = shape.DimensionsCount();
 5570              		.loc 5 521 0
 5571 0c78 FEFFFFEB 		bl	abort
 5572              	.LVL618:
 5573              	.LEHE39:
 5574              	.L459:
 5575              	.LEHB40:
 5576              	.LBE1168:
 5577              	.LBE1224:
 5578              	.LBE1229:
 5579              	.LBE1411:
 5580              	.LBB1412:
 5581              	.LBB1394:
 5582              	.LBB1389:
 5583              	.LBB1379:
 5584 0c7c FEFFFFEB 		bl	abort
 5585              	.LVL619:
 5586              	.LEHE40:
 5587              	.L550:
 5588 0c80 EBFFFFEA 		b	.L494
 5589              	.LVL620:
 5590              	.L397:
 5591              	.LEHB41:
 5592              	.LBE1379:
 5593              	.LBE1389:
 5594              	.LBE1394:
 5595              	.LBE1412:
 5596              	.LBB1413:
 5597              	.LBB1313:
 5598              	.LBB1308:
 5599              	.LBB1297:
 5600 0c84 FEFFFFEB 		bl	abort
 5601              	.LVL621:
 5602              	.LEHE41:
 5603              	.L552:
 5604 0c88 E9FFFFEA 		b	.L494
 5605              	.LBE1297:
 5606              	.LBE1308:
 5607              	.LBE1313:
 5608              	.LBE1413:
 5609              		.cfi_endproc
 5610              	.LFE4184:
 5611              		.personality	__gxx_personality_v0
 5612              		.handlerdata
 5613              	.LLSDA4184:
 5614 0008 FF       		.byte	0xff
 5615 0009 FF       		.byte	0xff
 5616 000a 01       		.byte	0x1
 5617 000b 54       		.uleb128 .LLSDACSE4184-.LLSDACSB4184
 5618              	.LLSDACSB4184:
 5619 000c 30       		.uleb128 .LEHB27-.LFB4184
 5620 000d 78       		.uleb128 .LEHE27-.LEHB27
 5621 000e 00       		.uleb128 0
 5622 000f 00       		.uleb128 0
 5623 0010 B401     		.uleb128 .LEHB28-.LFB4184
 5624 0012 04       		.uleb128 .LEHE28-.LEHB28
 5625 0013 8819     		.uleb128 .L552-.LFB4184
 5626 0015 00       		.uleb128 0
 5627 0016 FC0B     		.uleb128 .LEHB29-.LFB4184
 5628 0018 04       		.uleb128 .LEHE29-.LEHB29
 5629 0019 00       		.uleb128 0
 5630 001a 00       		.uleb128 0
 5631 001b 8C0C     		.uleb128 .LEHB30-.LFB4184
 5632 001d 04       		.uleb128 .LEHE30-.LEHB30
 5633 001e 8019     		.uleb128 .L550-.LFB4184
 5634 0020 00       		.uleb128 0
 5635 0021 FC10     		.uleb128 .LEHB31-.LFB4184
 5636 0023 04       		.uleb128 .LEHE31-.LEHB31
 5637 0024 00       		.uleb128 0
 5638 0025 00       		.uleb128 0
 5639 0026 8C11     		.uleb128 .LEHB32-.LFB4184
 5640 0028 04       		.uleb128 .LEHE32-.LEHB32
 5641 0029 F418     		.uleb128 .L554-.LFB4184
 5642 002b 00       		.uleb128 0
 5643 002c 9418     		.uleb128 .LEHB33-.LFB4184
 5644 002e 04       		.uleb128 .LEHE33-.LEHB33
 5645 002f 9818     		.uleb128 .L553-.LFB4184
 5646 0031 00       		.uleb128 0
 5647 0032 D018     		.uleb128 .LEHB34-.LFB4184
 5648 0034 04       		.uleb128 .LEHE34-.LEHB34
 5649 0035 00       		.uleb128 0
 5650 0036 00       		.uleb128 0
 5651 0037 D418     		.uleb128 .LEHB35-.LFB4184
 5652 0039 04       		.uleb128 .LEHE35-.LEHB35
 5653 003a 9818     		.uleb128 .L553-.LFB4184
 5654 003c 00       		.uleb128 0
 5655 003d D818     		.uleb128 .LEHB36-.LFB4184
 5656 003f 0C       		.uleb128 .LEHE36-.LEHB36
 5657 0040 DC18     		.uleb128 .L551-.LFB4184
 5658 0042 00       		.uleb128 0
 5659 0043 E418     		.uleb128 .LEHB37-.LFB4184
 5660 0045 0C       		.uleb128 .LEHE37-.LEHB37
 5661 0046 E818     		.uleb128 .L555-.LFB4184
 5662 0048 00       		.uleb128 0
 5663 0049 F018     		.uleb128 .LEHB38-.LFB4184
 5664 004b 04       		.uleb128 .LEHE38-.LEHB38
 5665 004c 00       		.uleb128 0
 5666 004d 00       		.uleb128 0
 5667 004e F818     		.uleb128 .LEHB39-.LFB4184
 5668 0050 04       		.uleb128 .LEHE39-.LEHB39
 5669 0051 9818     		.uleb128 .L553-.LFB4184
 5670 0053 00       		.uleb128 0
 5671 0054 FC18     		.uleb128 .LEHB40-.LFB4184
 5672 0056 04       		.uleb128 .LEHE40-.LEHB40
 5673 0057 E818     		.uleb128 .L555-.LFB4184
 5674 0059 00       		.uleb128 0
 5675 005a 8419     		.uleb128 .LEHB41-.LFB4184
 5676 005c 04       		.uleb128 .LEHE41-.LEHB41
 5677 005d DC18     		.uleb128 .L551-.LFB4184
 5678 005f 00       		.uleb128 0
 5679              	.LLSDACSE4184:
 5680              		.section	.text._ZN6tflite3ops5micro11activations9Relu6EvalEP13TfLiteContextP10TfLiteNode
 5681              		.fnend
 5683              		.section	.text._ZN6tflite3ops5micro13Register_RELUEv,"ax",%progbits
 5684              		.align	2
 5685              		.global	_ZN6tflite3ops5micro13Register_RELUEv
 5686              		.syntax unified
 5687              		.arm
 5688              		.fpu neon
 5690              	_ZN6tflite3ops5micro13Register_RELUEv:
 5691              		.fnstart
 5692              	.LFB4185:
 261:../src/tensorflow_lite/tensorflow/lite/micro/kernels/activations.cc **** 
 262:../src/tensorflow_lite/tensorflow/lite/micro/kernels/activations.cc **** }  // namespace activations
 263:../src/tensorflow_lite/tensorflow/lite/micro/kernels/activations.cc **** 
 264:../src/tensorflow_lite/tensorflow/lite/micro/kernels/activations.cc **** TfLiteRegistration Register_RELU() {
 5693              		.loc 1 264 0
 5694              		.cfi_startproc
 5695              		@ args = 0, pretend = 0, frame = 0
 5696              		@ frame_needed = 0, uses_anonymous_args = 0
 5697              	.LVL622:
 265:../src/tensorflow_lite/tensorflow/lite/micro/kernels/activations.cc ****   return {/*init=*/activations::ReluInit,
 266:../src/tensorflow_lite/tensorflow/lite/micro/kernels/activations.cc ****           /*free=*/nullptr,
 267:../src/tensorflow_lite/tensorflow/lite/micro/kernels/activations.cc ****           /*prepare=*/activations::ReluPrepare,
 268:../src/tensorflow_lite/tensorflow/lite/micro/kernels/activations.cc ****           /*invoke=*/activations::ReluEval,
 269:../src/tensorflow_lite/tensorflow/lite/micro/kernels/activations.cc ****           /*profiling_string=*/nullptr,
 270:../src/tensorflow_lite/tensorflow/lite/micro/kernels/activations.cc ****           /*builtin_code=*/0,
 271:../src/tensorflow_lite/tensorflow/lite/micro/kernels/activations.cc ****           /*custom_name=*/nullptr,
 272:../src/tensorflow_lite/tensorflow/lite/micro/kernels/activations.cc ****           /*version=*/0};
 5698              		.loc 1 272 0
 5699 0000 00C000E3 		movw	ip, #:lower16:.LANCHOR1
 264:../src/tensorflow_lite/tensorflow/lite/micro/kernels/activations.cc ****   return {/*init=*/activations::ReluInit,
 5700              		.loc 1 264 0
 5701 0004 10402DE9 		push	{r4, lr}
 5702              		.cfi_def_cfa_offset 8
 5703              		.cfi_offset 4, -8
 5704              		.cfi_offset 14, -4
 5705              		.loc 1 272 0
 5706 0008 00C040E3 		movt	ip, #:upper16:.LANCHOR1
 264:../src/tensorflow_lite/tensorflow/lite/micro/kernels/activations.cc ****   return {/*init=*/activations::ReluInit,
 5707              		.loc 1 264 0
 5708 000c 0040A0E1 		mov	r4, r0
 5709              		.loc 1 272 0
 5710 0010 00E0A0E1 		mov	lr, r0
 5711 0014 0F00BCE8 		ldmia	ip!, {r0, r1, r2, r3}
 5712              	.LVL623:
 5713 0018 0F00AEE8 		stmia	lr!, {r0, r1, r2, r3}
 5714 001c 0F009CE8 		ldm	ip, {r0, r1, r2, r3}
 5715 0020 0F008EE8 		stm	lr, {r0, r1, r2, r3}
 273:../src/tensorflow_lite/tensorflow/lite/micro/kernels/activations.cc **** }
 5716              		.loc 1 273 0
 5717 0024 0400A0E1 		mov	r0, r4
 5718 0028 1080BDE8 		pop	{r4, pc}
 5719              		.cfi_endproc
 5720              	.LFE4185:
 5721              		.cantunwind
 5722              		.fnend
 5724              		.section	.text._ZN6tflite3ops5micro14Register_RELU6Ev,"ax",%progbits
 5725              		.align	2
 5726              		.global	_ZN6tflite3ops5micro14Register_RELU6Ev
 5727              		.syntax unified
 5728              		.arm
 5729              		.fpu neon
 5731              	_ZN6tflite3ops5micro14Register_RELU6Ev:
 5732              		.fnstart
 5733              	.LFB4186:
 274:../src/tensorflow_lite/tensorflow/lite/micro/kernels/activations.cc **** 
 275:../src/tensorflow_lite/tensorflow/lite/micro/kernels/activations.cc **** TfLiteRegistration Register_RELU6() {
 5734              		.loc 1 275 0
 5735              		.cfi_startproc
 5736              		@ args = 0, pretend = 0, frame = 0
 5737              		@ frame_needed = 0, uses_anonymous_args = 0
 5738              	.LVL624:
 5739 0000 10402DE9 		push	{r4, lr}
 5740              		.cfi_def_cfa_offset 8
 5741              		.cfi_offset 4, -8
 5742              		.cfi_offset 14, -4
 276:../src/tensorflow_lite/tensorflow/lite/micro/kernels/activations.cc ****   return {/*init=*/activations::Relu6Init,
 277:../src/tensorflow_lite/tensorflow/lite/micro/kernels/activations.cc ****           /*free=*/nullptr,
 278:../src/tensorflow_lite/tensorflow/lite/micro/kernels/activations.cc ****           /*prepare=*/activations::Relu6Prepare,
 279:../src/tensorflow_lite/tensorflow/lite/micro/kernels/activations.cc ****           /*invoke=*/activations::Relu6Eval,
 280:../src/tensorflow_lite/tensorflow/lite/micro/kernels/activations.cc ****           /*profiling_string=*/nullptr,
 281:../src/tensorflow_lite/tensorflow/lite/micro/kernels/activations.cc ****           /*builtin_code=*/0,
 282:../src/tensorflow_lite/tensorflow/lite/micro/kernels/activations.cc ****           /*custom_name=*/nullptr,
 283:../src/tensorflow_lite/tensorflow/lite/micro/kernels/activations.cc ****           /*version=*/0};
 5743              		.loc 1 283 0
 5744 0004 00C0A0E1 		mov	ip, r0
 5745 0008 18E09FE5 		ldr	lr, .L666
 275:../src/tensorflow_lite/tensorflow/lite/micro/kernels/activations.cc ****   return {/*init=*/activations::Relu6Init,
 5746              		.loc 1 275 0
 5747 000c 0040A0E1 		mov	r4, r0
 5748              		.loc 1 283 0
 5749 0010 0F00BEE8 		ldmia	lr!, {r0, r1, r2, r3}
 5750              	.LVL625:
 5751 0014 0F00ACE8 		stmia	ip!, {r0, r1, r2, r3}
 5752 0018 0F009EE8 		ldm	lr, {r0, r1, r2, r3}
 5753 001c 0F008CE8 		stm	ip, {r0, r1, r2, r3}
 284:../src/tensorflow_lite/tensorflow/lite/micro/kernels/activations.cc **** }
 5754              		.loc 1 284 0
 5755 0020 0400A0E1 		mov	r0, r4
 5756 0024 1080BDE8 		pop	{r4, pc}
 5757              	.L667:
 5758              		.align	2
 5759              	.L666:
 5760 0028 20000000 		.word	.LANCHOR1+32
 5761              		.cfi_endproc
 5762              	.LFE4186:
 5763              		.cantunwind
 5764              		.fnend
 5766              		.section	.rodata
 5767              		.align	2
 5768              		.set	.LANCHOR1,. + 0
 5769              	.LC0:
 5770 0000 00000000 		.word	_ZN6tflite3ops5micro11activations8ReluInitEP13TfLiteContextPKcj
 5771 0004 00000000 		.word	0
 5772 0008 00000000 		.word	_ZN6tflite3ops5micro11activations11ReluPrepareEP13TfLiteContextP10TfLiteNode
 5773 000c 00000000 		.word	_ZN6tflite3ops5micro11activations8ReluEvalEP13TfLiteContextP10TfLiteNode
 5774 0010 00000000 		.word	0
 5775 0014 00000000 		.word	0
 5776 0018 00000000 		.word	0
 5777 001c 00000000 		.word	0
 5778              	.LC1:
 5779 0020 00000000 		.word	_ZN6tflite3ops5micro11activations9Relu6InitEP13TfLiteContextPKcj
 5780 0024 00000000 		.word	0
 5781 0028 00000000 		.word	_ZN6tflite3ops5micro11activations12Relu6PrepareEP13TfLiteContextP10TfLiteNode
 5782 002c 00000000 		.word	_ZN6tflite3ops5micro11activations9Relu6EvalEP13TfLiteContextP10TfLiteNode
 5783 0030 00000000 		.word	0
 5784 0034 00000000 		.word	0
 5785 0038 00000000 		.word	0
 5786 003c 00000000 		.word	0
 5787              		.section	.rodata._ZN6tflite3ops5micro11activations11ReluPrepareEP13TfLiteContextP10TfLiteNode.str1
 5788              		.align	2
 5789              	.LC5:
 5790 0000 6F757470 		.ascii	"output != nullptr\000"
 5790      75742021 
 5790      3D206E75 
 5790      6C6C7074 
 5790      7200
 5791              		.section	.rodata._ZN6tflite3ops5micro11activations12Relu6PrepareEP13TfLiteContextP10TfLiteNode.str
 5792              		.align	2
 5793              	.LC2:
 5794 0000 2E2E2F73 		.ascii	"../src/tensorflow_lite/tensorflow/lite/micro/kernel"
 5794      72632F74 
 5794      656E736F 
 5794      72666C6F 
 5794      775F6C69 
 5795 0033 732F6163 		.ascii	"s/activations.cc\000"
 5795      74697661 
 5795      74696F6E 
 5795      732E6363 
 5795      00
 5796              	.LC3:
 5797 0044 25733A25 		.ascii	"%s:%d %s was not true.\000"
 5797      64202573 
 5797      20776173 
 5797      206E6F74 
 5797      20747275 
 5798 005b 00       		.space	1
 5799              	.LC4:
 5800 005c 696E7075 		.ascii	"input != nullptr\000"
 5800      7420213D 
 5800      206E756C 
 5800      6C707472 
 5800      00
 5801              		.section	.rodata._ZN6tflite3ops5micro11activations8ReluEvalEP13TfLiteContextP10TfLiteNode.str1.4,"
 5802              		.align	2
 5803              	.LC6:
 5804 0000 6578706F 		.ascii	"exponent <= 31\000"
 5804      6E656E74 
 5804      203C3D20 
 5804      333100
 5805 000f 00       		.space	1
 5806              	.LC7:
 5807 0010 433A2F52 		.ascii	"C:/Renesas/e2studio_2021_01_workspace_RZA2M_ANPR/AN"
 5807      656E6573 
 5807      61732F65 
 5807      32737475 
 5807      64696F5F 
 5808 0043 50525F52 		.ascii	"PR_RZA2M_EBK/src/tensorflow_lite/third_party/gemmlo"
 5808      5A41324D 
 5808      5F45424B 
 5808      2F737263 
 5808      2F74656E 
 5809 0076 77702F66 		.ascii	"wp/fixedpoint/fixedpoint.h\000"
 5809      69786564 
 5809      706F696E 
 5809      742F6669 
 5809      78656470 
 5810 0091 000000   		.space	3
 5811              	.LC8:
 5812 0094 4F6E6C79 		.ascii	"Only float32 is supported currently, got %s\000"
 5812      20666C6F 
 5812      61743332 
 5812      20697320 
 5812      73757070 
 5813              		.section	.rodata._ZZN8gemmlowp19RoundingDivideByPOTIlEET_S1_iE19__PRETTY_FUNCTION__,"a",%progbits
 5814              		.align	3
 5815              		.set	.LANCHOR0,. + 0
 5818              	_ZZN8gemmlowp19RoundingDivideByPOTIlEET_S1_iE19__PRETTY_FUNCTION__:
 5819 0000 496E7465 		.ascii	"IntegerType gemmlowp::RoundingDivideByPOT(IntegerTy"
 5819      67657254 
 5819      79706520 
 5819      67656D6D 
 5819      6C6F7770 
 5820 0033 70652C20 		.ascii	"pe, int) [with IntegerType = long int]\000"
 5820      696E7429 
 5820      205B7769 
 5820      74682049 
 5820      6E746567 
 5821              		.text
 5822              	.Letext0:
 5823              		.file 9 "c:\\program files (x86)\\gnu tools arm embedded\\6 2017-q2-update\\arm-none-eabi\\include
 5824              		.file 10 "c:\\program files (x86)\\gnu tools arm embedded\\6 2017-q2-update\\arm-none-eabi\\includ
 5825              		.file 11 "c:\\program files (x86)\\gnu tools arm embedded\\6 2017-q2-update\\arm-none-eabi\\includ
 5826              		.file 12 "c:\\program files (x86)\\gnu tools arm embedded\\6 2017-q2-update\\lib\\gcc\\arm-none-ea
 5827              		.file 13 "C:/Renesas/e2studio_2021_01_workspace_RZA2M_ANPR/ANPR_RZA2M_EBK/src/tensorflow_lite/tens
 5828              		.file 14 "C:/Renesas/e2studio_2021_01_workspace_RZA2M_ANPR/ANPR_RZA2M_EBK/src/tensorflow_lite/tens
 5829              		.file 15 "c:\\program files (x86)\\gnu tools arm embedded\\6 2017-q2-update\\arm-none-eabi\\includ
 5830              		.file 16 "c:\\program files (x86)\\gnu tools arm embedded\\6 2017-q2-update\\arm-none-eabi\\includ
 5831              		.file 17 "c:\\program files (x86)\\gnu tools arm embedded\\6 2017-q2-update\\arm-none-eabi\\includ
 5832              		.file 18 "c:\\program files (x86)\\gnu tools arm embedded\\6 2017-q2-update\\arm-none-eabi\\includ
 5833              		.file 19 "c:\\program files (x86)\\gnu tools arm embedded\\6 2017-q2-update\\arm-none-eabi\\includ
 5834              		.file 20 "c:\\program files (x86)\\gnu tools arm embedded\\6 2017-q2-update\\arm-none-eabi\\includ
 5835              		.file 21 "c:\\program files (x86)\\gnu tools arm embedded\\6 2017-q2-update\\arm-none-eabi\\includ
 5836              		.file 22 "c:\\program files (x86)\\gnu tools arm embedded\\6 2017-q2-update\\arm-none-eabi\\includ
 5837              		.file 23 "c:\\program files (x86)\\gnu tools arm embedded\\6 2017-q2-update\\arm-none-eabi\\includ
 5838              		.file 24 "c:\\program files (x86)\\gnu tools arm embedded\\6 2017-q2-update\\arm-none-eabi\\includ
 5839              		.file 25 "c:\\program files (x86)\\gnu tools arm embedded\\6 2017-q2-update\\arm-none-eabi\\includ
 5840              		.file 26 "c:\\program files (x86)\\gnu tools arm embedded\\6 2017-q2-update\\arm-none-eabi\\includ
 5841              		.file 27 "c:\\program files (x86)\\gnu tools arm embedded\\6 2017-q2-update\\arm-none-eabi\\includ
 5842              		.file 28 "c:\\program files (x86)\\gnu tools arm embedded\\6 2017-q2-update\\arm-none-eabi\\includ
 5843              		.file 29 "c:\\program files (x86)\\gnu tools arm embedded\\6 2017-q2-update\\arm-none-eabi\\includ
 5844              		.file 30 "c:\\program files (x86)\\gnu tools arm embedded\\6 2017-q2-update\\arm-none-eabi\\includ
 5845              		.file 31 "c:\\program files (x86)\\gnu tools arm embedded\\6 2017-q2-update\\arm-none-eabi\\includ
 5846              		.file 32 "c:\\program files (x86)\\gnu tools arm embedded\\6 2017-q2-update\\arm-none-eabi\\includ
 5847              		.file 33 "c:\\program files (x86)\\gnu tools arm embedded\\6 2017-q2-update\\arm-none-eabi\\includ
 5848              		.file 34 "c:\\program files (x86)\\gnu tools arm embedded\\6 2017-q2-update\\arm-none-eabi\\includ
 5849              		.file 35 "c:\\program files (x86)\\gnu tools arm embedded\\6 2017-q2-update\\arm-none-eabi\\includ
 5850              		.file 36 "c:\\program files (x86)\\gnu tools arm embedded\\6 2017-q2-update\\arm-none-eabi\\includ
 5851              		.file 37 "c:\\program files (x86)\\gnu tools arm embedded\\6 2017-q2-update\\arm-none-eabi\\includ
 5852              		.file 38 "c:\\program files (x86)\\gnu tools arm embedded\\6 2017-q2-update\\arm-none-eabi\\includ
 5853              		.file 39 "c:\\program files (x86)\\gnu tools arm embedded\\6 2017-q2-update\\arm-none-eabi\\includ
 5854              		.file 40 "c:\\program files (x86)\\gnu tools arm embedded\\6 2017-q2-update\\lib\\gcc\\arm-none-ea
 5855              		.file 41 "<built-in>"
 5856              		.file 42 "c:\\program files (x86)\\gnu tools arm embedded\\6 2017-q2-update\\arm-none-eabi\\includ
 5857              		.file 43 "c:\\program files (x86)\\gnu tools arm embedded\\6 2017-q2-update\\arm-none-eabi\\includ
 5858              		.file 44 "c:\\program files (x86)\\gnu tools arm embedded\\6 2017-q2-update\\arm-none-eabi\\includ
 5859              		.file 45 "c:\\program files (x86)\\gnu tools arm embedded\\6 2017-q2-update\\arm-none-eabi\\includ
 5860              		.file 46 "c:\\program files (x86)\\gnu tools arm embedded\\6 2017-q2-update\\arm-none-eabi\\includ
 5861              		.file 47 "c:\\program files (x86)\\gnu tools arm embedded\\6 2017-q2-update\\arm-none-eabi\\includ
 5862              		.file 48 "c:\\program files (x86)\\gnu tools arm embedded\\6 2017-q2-update\\arm-none-eabi\\includ
 5863              		.file 49 "c:\\program files (x86)\\gnu tools arm embedded\\6 2017-q2-update\\arm-none-eabi\\includ
 5864              		.file 50 "C:/Renesas/e2studio_2021_01_workspace_RZA2M_ANPR/ANPR_RZA2M_EBK/src/tensorflow_lite/tens
 5865              		.file 51 "C:/Renesas/e2studio_2021_01_workspace_RZA2M_ANPR/ANPR_RZA2M_EBK/src/tensorflow_lite/tens
 5866              		.file 52 "C:/Renesas/e2studio_2021_01_workspace_RZA2M_ANPR/ANPR_RZA2M_EBK/src/tensorflow_lite/tens
 5867              		.file 53 "c:\\program files (x86)\\gnu tools arm embedded\\6 2017-q2-update\\arm-none-eabi\\includ
DEFINED SYMBOLS
                            *ABS*:00000000 activations.cc
C:\Users\a5050395\AppData\Local\Temp\cci4an3f.s:17     .text._ZN6tflite3ops5micro11activations8ReluInitEP13TfLiteContextPKcj:00000000 $a
C:\Users\a5050395\AppData\Local\Temp\cci4an3f.s:23     .text._ZN6tflite3ops5micro11activations8ReluInitEP13TfLiteContextPKcj:00000000 _ZN6tflite3ops5micro11activations8ReluInitEP13TfLiteContextPKcj
.ARM.exidx.text._ZN6tflite3ops5micro11activations8ReluInitEP13TfLiteContextPKcj:00000000 $d
C:\Users\a5050395\AppData\Local\Temp\cci4an3f.s:56     .text._ZN6tflite3ops5micro11activations9Relu6InitEP13TfLiteContextPKcj:00000000 $a
C:\Users\a5050395\AppData\Local\Temp\cci4an3f.s:62     .text._ZN6tflite3ops5micro11activations9Relu6InitEP13TfLiteContextPKcj:00000000 _ZN6tflite3ops5micro11activations9Relu6InitEP13TfLiteContextPKcj
.ARM.exidx.text._ZN6tflite3ops5micro11activations9Relu6InitEP13TfLiteContextPKcj:00000000 $d
C:\Users\a5050395\AppData\Local\Temp\cci4an3f.s:94     .text._ZN6tflite3ops5micro11activations12Relu6PrepareEP13TfLiteContextP10TfLiteNode:00000000 $a
C:\Users\a5050395\AppData\Local\Temp\cci4an3f.s:100    .text._ZN6tflite3ops5micro11activations12Relu6PrepareEP13TfLiteContextP10TfLiteNode:00000000 _ZN6tflite3ops5micro11activations12Relu6PrepareEP13TfLiteContextP10TfLiteNode
C:\Users\a5050395\AppData\Local\Temp\cci4an3f.s:5799   .rodata._ZN6tflite3ops5micro11activations12Relu6PrepareEP13TfLiteContextP10TfLiteNode.str1.4:0000005c .LC4
C:\Users\a5050395\AppData\Local\Temp\cci4an3f.s:5793   .rodata._ZN6tflite3ops5micro11activations12Relu6PrepareEP13TfLiteContextP10TfLiteNode.str1.4:00000000 .LC2
C:\Users\a5050395\AppData\Local\Temp\cci4an3f.s:5796   .rodata._ZN6tflite3ops5micro11activations12Relu6PrepareEP13TfLiteContextP10TfLiteNode.str1.4:00000044 .LC3
.ARM.exidx.text._ZN6tflite3ops5micro11activations12Relu6PrepareEP13TfLiteContextP10TfLiteNode:00000000 $d
C:\Users\a5050395\AppData\Local\Temp\cci4an3f.s:307    .text._ZN6tflite3ops5micro11activations11ReluPrepareEP13TfLiteContextP10TfLiteNode:00000000 $a
C:\Users\a5050395\AppData\Local\Temp\cci4an3f.s:313    .text._ZN6tflite3ops5micro11activations11ReluPrepareEP13TfLiteContextP10TfLiteNode:00000000 _ZN6tflite3ops5micro11activations11ReluPrepareEP13TfLiteContextP10TfLiteNode
C:\Users\a5050395\AppData\Local\Temp\cci4an3f.s:5789   .rodata._ZN6tflite3ops5micro11activations11ReluPrepareEP13TfLiteContextP10TfLiteNode.str1.4:00000000 .LC5
C:\Users\a5050395\AppData\Local\Temp\cci4an3f.s:1061   .text._ZN6tflite3ops5micro11activations11ReluPrepareEP13TfLiteContextP10TfLiteNode:000003a4 $d
.ARM.extab.text._ZN6tflite3ops5micro11activations11ReluPrepareEP13TfLiteContextP10TfLiteNode:00000000 $d
.ARM.exidx.text._ZN6tflite3ops5micro11activations11ReluPrepareEP13TfLiteContextP10TfLiteNode:00000000 $d
C:\Users\a5050395\AppData\Local\Temp\cci4an3f.s:1118   .text._ZN6tflite3ops5micro11activations8ReluEvalEP13TfLiteContextP10TfLiteNode:00000000 $a
C:\Users\a5050395\AppData\Local\Temp\cci4an3f.s:1124   .text._ZN6tflite3ops5micro11activations8ReluEvalEP13TfLiteContextP10TfLiteNode:00000000 _ZN6tflite3ops5micro11activations8ReluEvalEP13TfLiteContextP10TfLiteNode
C:\Users\a5050395\AppData\Local\Temp\cci4an3f.s:5811   .rodata._ZN6tflite3ops5micro11activations8ReluEvalEP13TfLiteContextP10TfLiteNode.str1.4:00000094 .LC8
C:\Users\a5050395\AppData\Local\Temp\cci4an3f.s:1726   .text._ZN6tflite3ops5micro11activations8ReluEvalEP13TfLiteContextP10TfLiteNode:000003b0 $d
C:\Users\a5050395\AppData\Local\Temp\cci4an3f.s:1740   .text._ZN6tflite3ops5micro11activations8ReluEvalEP13TfLiteContextP10TfLiteNode:000003bc $a
C:\Users\a5050395\AppData\Local\Temp\cci4an3f.s:5803   .rodata._ZN6tflite3ops5micro11activations8ReluEvalEP13TfLiteContextP10TfLiteNode.str1.4:00000000 .LC6
C:\Users\a5050395\AppData\Local\Temp\cci4an3f.s:5815   .rodata._ZZN8gemmlowp19RoundingDivideByPOTIlEET_S1_iE19__PRETTY_FUNCTION__:00000000 .LANCHOR0
C:\Users\a5050395\AppData\Local\Temp\cci4an3f.s:5806   .rodata._ZN6tflite3ops5micro11activations8ReluEvalEP13TfLiteContextP10TfLiteNode.str1.4:00000010 .LC7
C:\Users\a5050395\AppData\Local\Temp\cci4an3f.s:3370   .text._ZN6tflite3ops5micro11activations8ReluEvalEP13TfLiteContextP10TfLiteNode:00000c50 $d
.ARM.extab.text._ZN6tflite3ops5micro11activations8ReluEvalEP13TfLiteContextP10TfLiteNode:00000000 $d
.ARM.exidx.text._ZN6tflite3ops5micro11activations8ReluEvalEP13TfLiteContextP10TfLiteNode:00000000 $d
C:\Users\a5050395\AppData\Local\Temp\cci4an3f.s:3463   .text._ZN6tflite3ops5micro11activations9Relu6EvalEP13TfLiteContextP10TfLiteNode:00000000 $a
C:\Users\a5050395\AppData\Local\Temp\cci4an3f.s:3469   .text._ZN6tflite3ops5micro11activations9Relu6EvalEP13TfLiteContextP10TfLiteNode:00000000 _ZN6tflite3ops5micro11activations9Relu6EvalEP13TfLiteContextP10TfLiteNode
C:\Users\a5050395\AppData\Local\Temp\cci4an3f.s:5392   .text._ZN6tflite3ops5micro11activations9Relu6EvalEP13TfLiteContextP10TfLiteNode:00000bdc $d
C:\Users\a5050395\AppData\Local\Temp\cci4an3f.s:5394   .text._ZN6tflite3ops5micro11activations9Relu6EvalEP13TfLiteContextP10TfLiteNode:00000be0 $a
.ARM.extab.text._ZN6tflite3ops5micro11activations9Relu6EvalEP13TfLiteContextP10TfLiteNode:00000000 $d
.ARM.exidx.text._ZN6tflite3ops5micro11activations9Relu6EvalEP13TfLiteContextP10TfLiteNode:00000000 $d
C:\Users\a5050395\AppData\Local\Temp\cci4an3f.s:5684   .text._ZN6tflite3ops5micro13Register_RELUEv:00000000 $a
C:\Users\a5050395\AppData\Local\Temp\cci4an3f.s:5690   .text._ZN6tflite3ops5micro13Register_RELUEv:00000000 _ZN6tflite3ops5micro13Register_RELUEv
C:\Users\a5050395\AppData\Local\Temp\cci4an3f.s:5768   .rodata:00000000 .LANCHOR1
.ARM.exidx.text._ZN6tflite3ops5micro13Register_RELUEv:00000000 $d
C:\Users\a5050395\AppData\Local\Temp\cci4an3f.s:5725   .text._ZN6tflite3ops5micro14Register_RELU6Ev:00000000 $a
C:\Users\a5050395\AppData\Local\Temp\cci4an3f.s:5731   .text._ZN6tflite3ops5micro14Register_RELU6Ev:00000000 _ZN6tflite3ops5micro14Register_RELU6Ev
C:\Users\a5050395\AppData\Local\Temp\cci4an3f.s:5760   .text._ZN6tflite3ops5micro14Register_RELU6Ev:00000028 $d
.ARM.exidx.text._ZN6tflite3ops5micro14Register_RELU6Ev:00000000 $d
C:\Users\a5050395\AppData\Local\Temp\cci4an3f.s:5767   .rodata:00000000 $d
C:\Users\a5050395\AppData\Local\Temp\cci4an3f.s:5788   .rodata._ZN6tflite3ops5micro11activations11ReluPrepareEP13TfLiteContextP10TfLiteNode.str1.4:00000000 $d
C:\Users\a5050395\AppData\Local\Temp\cci4an3f.s:5792   .rodata._ZN6tflite3ops5micro11activations12Relu6PrepareEP13TfLiteContextP10TfLiteNode.str1.4:00000000 $d
C:\Users\a5050395\AppData\Local\Temp\cci4an3f.s:5802   .rodata._ZN6tflite3ops5micro11activations8ReluEvalEP13TfLiteContextP10TfLiteNode.str1.4:00000000 $d
C:\Users\a5050395\AppData\Local\Temp\cci4an3f.s:5814   .rodata._ZZN8gemmlowp19RoundingDivideByPOTIlEET_S1_iE19__PRETTY_FUNCTION__:00000000 $d
C:\Users\a5050395\AppData\Local\Temp\cci4an3f.s:5818   .rodata._ZZN8gemmlowp19RoundingDivideByPOTIlEET_S1_iE19__PRETTY_FUNCTION__:00000000 _ZZN8gemmlowp19RoundingDivideByPOTIlEET_S1_iE19__PRETTY_FUNCTION__
                     .debug_frame:00000010 $d
                           .group:00000000 wm4.0.3e1481985cce1e923928453d8be0a65b
                           .group:00000000 wm4.stdint.h.4.659be5aa44c4ab4eb7c7cc2b24d8ceee
                           .group:00000000 wm4._newlib_version.h.4.3572908597b70d672d181fc7fc501c19
                           .group:00000000 wm4.features.h.33.7b36b8b41abe4293fbb29540b719705c
                           .group:00000000 wm4._default_types.h.15.247e5cd201eca3442cbf5404108c4935
                           .group:00000000 wm4._intsup.h.10.cce27fed8484c08a33f522034c30d2b5
                           .group:00000000 wm4._stdint.h.10.c24fa3af3bc1706662bb5593a907e841
                           .group:00000000 wm4.stdint.h.23.d53047a68f4a85177f80b422d52785ed
                           .group:00000000 wm4.stdbool.h.29.01580e438512fc255c0619569742ffd3
                           .group:00000000 wm4.stddef.h.39.fa2e86d241f4df50b9327c72832885e1
                           .group:00000000 wm4.c_api_types.h.20.9b09175981ed746180e205cc0b4b2bfd
                           .group:00000000 wm4.common.h.77.124de099ec0ac4f95ebf1618a5f42cf6
                           .group:00000000 wm4.cconfig.h.31.1472b8c7bd4952a63a52f3f4f718f872
                           .group:00000000 wm4.cpu_defines.h.31.54d44f9d3e7c42875c5a7fd49795eb93
                           .group:00000000 wm4.cconfig.h.515.5e729db314ae74226e291b4ae081e353
                           .group:00000000 wm4.atomic_lockfree_defines.h.31.d5c6334fb1e95c9462b052951f1411df
                           .group:00000000 wm4.exception_defines.h.31.ca6841b9be3287386aafc5c717935b2e
                           .group:00000000 wm4.concept_check.h.31.f19605d278e56917c68a56d378be308c
                           .group:00000000 wm4.type_traits.30.2c7323a483bcd7601e8b71d2546ae284
                           .group:00000000 wm4.move.h.152.41d7b9e6779674d169b7813982cfa003
                           .group:00000000 wm4.cpp_type_traits.h.33.9f2bfd8c4471a9a299f6da3ec24c745c
                           .group:00000000 wm4.numeric_traits.h.30.aa01a98564b7e55086aad9e53c7e5c53
                           .group:00000000 wm4.assertions.h.30.51d443923f0d242550e04246a7819b39
                           .group:00000000 wm4.stl_iterator.h.1250.45f349a262f1b0d836d8edbc4b7b98ff
                           .group:00000000 wm4.debug.h.30.5c1f223b12199e851d4d42805b788ccf
                           .group:00000000 wm4.stl_algobase.h.491.aa250b69c90aafa2a0a62b8c58cd5f30
                           .group:00000000 wm4.newlib.h.8.5f2124c7e712be65f83b91ff86a0b1c1
                           .group:00000000 wm4.config.h.219.65a553ab5bef5482f0d7880b0d33015e
                           .group:00000000 wm4._ansi.h.23.1ee1144430bedaab1a14c7b57a6c8384
                           .group:00000000 wm4.lock.h.2.1461d1fff82dffe8bfddc23307f6484f
                           .group:00000000 wm4._types.h.125.5cf8a495f1f7ef36777ad868a1e32068
                           .group:00000000 wm4.stddef.h.161.7e98c9c86da0ed2d27af2ef92af7d013
                           .group:00000000 wm4._types.h.183.c226d164ceca1f2ecb9ae9360c54a098
                           .group:00000000 wm4.reent.h.17.23b059516345f8f5abfa01ddc379570f
                           .group:00000000 wm4.wchar.h.8.acdef4366e64def8c588421024712d23
                           .group:00000000 wm4.stddef.h.161.9f48187563b2a85291a91832aa425498
                           .group:00000000 wm4.cdefs.h.47.9bc8274c84fddbf05edd550eb0bf48cd
                           .group:00000000 wm4.stdarg.h.34.3a23a216c0c293b3d2ea2e89281481e6
                           .group:00000000 wm4.wchar.h.41.2307b469886c2ca55d92707971ac50ce
                           .group:00000000 wm4.cwchar.48.c4e882638bf84f6da89479dda6fe8e17
                           .group:00000000 wm4.allocator.h.52.0ceafb36dc1b82dbfa6b05003082e3f5
                           .group:00000000 wm4.stddef.h.161.38688f2eb958a8ed58fdb61ffe554c94
                           .group:00000000 wm4.locale.h.16.524572cf3c2ed9856516685acdc598fe
                           .group:00000000 wm4.clocale.45.c36d2d5b631a875aa5273176b54fdf0f
                           .group:00000000 wm4.ctype.h.2.da310d2ad165ccf8b86542f76fdb938d
                           .group:00000000 wm4.cctype.45.0da5714876b0be7f2d816b53d9670403
                           .group:00000000 wm4.gthr.h.27.ceb1c66b926f052afcba57e8784df0d4
                           .group:00000000 wm4.gthrdefault.h.27.edc94d4398c0534988962be77dc3c2e1
                           .group:00000000 wm4.atomic_word.h.30.9e0ac69fd462d5e650933e05133b4afa
                           .group:00000000 wm4.alloc_traits.h.31.c41c7c4789404962122a4e991dfa3abf
                           .group:00000000 wm4.cstdlib.44.52c5efdfb0f3c176bd11e611a0b94959
                           .group:00000000 wm4.stdlib.h.13.4ed386f5c1a80d71e72172885d946ef2
                           .group:00000000 wm4.stdlib.h.56.b4ddaf162082f284ba35b4444af99a9a
                           .group:00000000 wm4.cstdlib.76.ae666499c8f9b0ace1b4b23fe143da2c
                           .group:00000000 wm4.stdio.h.27.3fc80220048df77954e38daec3bb9670
                           .group:00000000 wm4.types.h.40.e8c16e7ec36ba55f133d0616070e25fc
                           .group:00000000 wm4.types.h.114.fb65732f4f5f288a036a25898de2c91f
                           .group:00000000 wm4.stdio.h.2.4aa87247282eca6c8f36f9de33d8df1a
                           .group:00000000 wm4.stdio.h.81.c3e9cb15e5af2807c4650345134c1a8a
                           .group:00000000 wm4.cstdio.45.ba8d321feb18bfc8923454067605c368
                           .group:00000000 wm4.errno.h.2.ba016d646105af6cad23be83630b6a3f
                           .group:00000000 wm4.errno.h.9.1ecd7b1049497a0ab61da0f6cbd4b0c6
                           .group:00000000 wm4.functional_hash.h.31.bccc014fee6fc3f930045d809df6f486
                           .group:00000000 wm4.functional.549.0bc5b448cf999863d3841495cd6fe920
                           .group:00000000 wm4.limits.38.55aefcf041805b6211ca3649dd2ab1b5
                           .group:00000000 wm4.assert.h.11.a5d97ca77559a42890313c4941c01fd9
                           .group:00000000 wm4.math.h.13.e7cbdea54f4da98ab8f7fad4d23502b2
                           .group:00000000 wm4.cmath.46.d6e5b776115d39075860ed881d18f087
                           .group:00000000 wm4.detect_platform.h.19.a1891273c0cad215067ddb8219400136
                           .group:00000000 wm4.fixedpoint.h.567.8a6371d9452be19811601bace78b0abc
                           .group:00000000 wm4.cmath.44.b3bcbb5fe53ec6617dec8aa8eb7b03cc
                           .group:00000000 wm4.cppmath.h.27.51580d700716589df4b364298e2ef577
                           .group:00000000 wm4.neon_check.h.16.79a4dcb572cbeac06c4924f1f20cb68d
                           .group:00000000 wm4.string.h.8.c4b8571ce60dff2817f43fec8b86aecd
                           .group:00000000 wm4.cstring.45.6ab09de7fb97b576e744347688ddc8d7
                           .group:00000000 wm4.op_macros.h.42.7b718cb416a067e7bb07e7699647769b
                           .group:00000000 wm4.compatibility.h.23.702d6356326ea59aded8ef5c6c4626d5

UNDEFINED SYMBOLS
abort
__aeabi_unwind_cpp_pr0
_ZN6tflite8GetInputEPK13TfLiteContextPK10TfLiteNodei
round
__gxx_personality_v0
_ZN6tflite9GetOutputEP13TfLiteContextPK10TfLiteNodei
_Znaj
memcpy
_ZN6tflite18QuantizeMultiplierEdPlPi
roundf
_ZdaPv
__cxa_throw_bad_array_new_length
__cxa_end_cleanup
TfLiteTypeGetName
_ZN6tflite5micro14GetTensorShapeEPK16TfLiteEvalTensor
__assert_func
