   1              		.cpu cortex-a9
   2              		.eabi_attribute 28, 1
   3              		.eabi_attribute 20, 1
   4              		.eabi_attribute 21, 1
   5              		.eabi_attribute 23, 3
   6              		.eabi_attribute 24, 1
   7              		.eabi_attribute 25, 1
   8              		.eabi_attribute 26, 1
   9              		.eabi_attribute 30, 2
  10              		.eabi_attribute 34, 0
  11              		.eabi_attribute 18, 4
  12              		.file	"circular_buffer.cc"
  13              		.text
  14              	.Ltext0:
  15              		.cfi_sections	.debug_frame
  16              		.section	.text._ZN11flexbuffers10KeyCompareIyEEiPKvS2_,"axG",%progbits,_ZN11flexbuffers10KeyCompar
  17              		.align	2
  18              		.weak	_ZN11flexbuffers10KeyCompareIyEEiPKvS2_
  19              		.syntax unified
  20              		.arm
  21              		.fpu neon
  23              	_ZN11flexbuffers10KeyCompareIyEEiPKvS2_:
  24              		.fnstart
  25              	.LFB4633:
  26              		.file 1 "C:/Renesas/e2studio_2021_01_workspace_RZA2M_ANPR/ANPR_RZA2M_EBK/src/tensorflow_lite/third
   1:C:/Renesas/e2studio_2021_01_workspace_RZA2M_ANPR/ANPR_RZA2M_EBK/src/tensorflow_lite/third_party/flatbuffers/include/flatbuffers\flexbuffers.h **** /*
   2:C:/Renesas/e2studio_2021_01_workspace_RZA2M_ANPR/ANPR_RZA2M_EBK/src/tensorflow_lite/third_party/flatbuffers/include/flatbuffers\flexbuffers.h ****  * Copyright 2017 Google Inc. All rights reserved.
   3:C:/Renesas/e2studio_2021_01_workspace_RZA2M_ANPR/ANPR_RZA2M_EBK/src/tensorflow_lite/third_party/flatbuffers/include/flatbuffers\flexbuffers.h ****  *
   4:C:/Renesas/e2studio_2021_01_workspace_RZA2M_ANPR/ANPR_RZA2M_EBK/src/tensorflow_lite/third_party/flatbuffers/include/flatbuffers\flexbuffers.h ****  * Licensed under the Apache License, Version 2.0 (the "License");
   5:C:/Renesas/e2studio_2021_01_workspace_RZA2M_ANPR/ANPR_RZA2M_EBK/src/tensorflow_lite/third_party/flatbuffers/include/flatbuffers\flexbuffers.h ****  * you may not use this file except in compliance with the License.
   6:C:/Renesas/e2studio_2021_01_workspace_RZA2M_ANPR/ANPR_RZA2M_EBK/src/tensorflow_lite/third_party/flatbuffers/include/flatbuffers\flexbuffers.h ****  * You may obtain a copy of the License at
   7:C:/Renesas/e2studio_2021_01_workspace_RZA2M_ANPR/ANPR_RZA2M_EBK/src/tensorflow_lite/third_party/flatbuffers/include/flatbuffers\flexbuffers.h ****  *
   8:C:/Renesas/e2studio_2021_01_workspace_RZA2M_ANPR/ANPR_RZA2M_EBK/src/tensorflow_lite/third_party/flatbuffers/include/flatbuffers\flexbuffers.h ****  *     http://www.apache.org/licenses/LICENSE-2.0
   9:C:/Renesas/e2studio_2021_01_workspace_RZA2M_ANPR/ANPR_RZA2M_EBK/src/tensorflow_lite/third_party/flatbuffers/include/flatbuffers\flexbuffers.h ****  *
  10:C:/Renesas/e2studio_2021_01_workspace_RZA2M_ANPR/ANPR_RZA2M_EBK/src/tensorflow_lite/third_party/flatbuffers/include/flatbuffers\flexbuffers.h ****  * Unless required by applicable law or agreed to in writing, software
  11:C:/Renesas/e2studio_2021_01_workspace_RZA2M_ANPR/ANPR_RZA2M_EBK/src/tensorflow_lite/third_party/flatbuffers/include/flatbuffers\flexbuffers.h ****  * distributed under the License is distributed on an "AS IS" BASIS,
  12:C:/Renesas/e2studio_2021_01_workspace_RZA2M_ANPR/ANPR_RZA2M_EBK/src/tensorflow_lite/third_party/flatbuffers/include/flatbuffers\flexbuffers.h ****  * WITHOUT WARRANTIES OR CONDITIONS OF ANY KIND, either express or implied.
  13:C:/Renesas/e2studio_2021_01_workspace_RZA2M_ANPR/ANPR_RZA2M_EBK/src/tensorflow_lite/third_party/flatbuffers/include/flatbuffers\flexbuffers.h ****  * See the License for the specific language governing permissions and
  14:C:/Renesas/e2studio_2021_01_workspace_RZA2M_ANPR/ANPR_RZA2M_EBK/src/tensorflow_lite/third_party/flatbuffers/include/flatbuffers\flexbuffers.h ****  * limitations under the License.
  15:C:/Renesas/e2studio_2021_01_workspace_RZA2M_ANPR/ANPR_RZA2M_EBK/src/tensorflow_lite/third_party/flatbuffers/include/flatbuffers\flexbuffers.h ****  */
  16:C:/Renesas/e2studio_2021_01_workspace_RZA2M_ANPR/ANPR_RZA2M_EBK/src/tensorflow_lite/third_party/flatbuffers/include/flatbuffers\flexbuffers.h **** 
  17:C:/Renesas/e2studio_2021_01_workspace_RZA2M_ANPR/ANPR_RZA2M_EBK/src/tensorflow_lite/third_party/flatbuffers/include/flatbuffers\flexbuffers.h **** #ifndef FLATBUFFERS_FLEXBUFFERS_H_
  18:C:/Renesas/e2studio_2021_01_workspace_RZA2M_ANPR/ANPR_RZA2M_EBK/src/tensorflow_lite/third_party/flatbuffers/include/flatbuffers\flexbuffers.h **** #define FLATBUFFERS_FLEXBUFFERS_H_
  19:C:/Renesas/e2studio_2021_01_workspace_RZA2M_ANPR/ANPR_RZA2M_EBK/src/tensorflow_lite/third_party/flatbuffers/include/flatbuffers\flexbuffers.h **** 
  20:C:/Renesas/e2studio_2021_01_workspace_RZA2M_ANPR/ANPR_RZA2M_EBK/src/tensorflow_lite/third_party/flatbuffers/include/flatbuffers\flexbuffers.h **** #include <map>
  21:C:/Renesas/e2studio_2021_01_workspace_RZA2M_ANPR/ANPR_RZA2M_EBK/src/tensorflow_lite/third_party/flatbuffers/include/flatbuffers\flexbuffers.h **** // Used to select STL variant.
  22:C:/Renesas/e2studio_2021_01_workspace_RZA2M_ANPR/ANPR_RZA2M_EBK/src/tensorflow_lite/third_party/flatbuffers/include/flatbuffers\flexbuffers.h **** #include "flatbuffers/base.h"
  23:C:/Renesas/e2studio_2021_01_workspace_RZA2M_ANPR/ANPR_RZA2M_EBK/src/tensorflow_lite/third_party/flatbuffers/include/flatbuffers\flexbuffers.h **** // We use the basic binary writing functions from the regular FlatBuffers.
  24:C:/Renesas/e2studio_2021_01_workspace_RZA2M_ANPR/ANPR_RZA2M_EBK/src/tensorflow_lite/third_party/flatbuffers/include/flatbuffers\flexbuffers.h **** #include "flatbuffers/util.h"
  25:C:/Renesas/e2studio_2021_01_workspace_RZA2M_ANPR/ANPR_RZA2M_EBK/src/tensorflow_lite/third_party/flatbuffers/include/flatbuffers\flexbuffers.h **** 
  26:C:/Renesas/e2studio_2021_01_workspace_RZA2M_ANPR/ANPR_RZA2M_EBK/src/tensorflow_lite/third_party/flatbuffers/include/flatbuffers\flexbuffers.h **** #ifdef _MSC_VER
  27:C:/Renesas/e2studio_2021_01_workspace_RZA2M_ANPR/ANPR_RZA2M_EBK/src/tensorflow_lite/third_party/flatbuffers/include/flatbuffers\flexbuffers.h **** #  include <intrin.h>
  28:C:/Renesas/e2studio_2021_01_workspace_RZA2M_ANPR/ANPR_RZA2M_EBK/src/tensorflow_lite/third_party/flatbuffers/include/flatbuffers\flexbuffers.h **** #endif
  29:C:/Renesas/e2studio_2021_01_workspace_RZA2M_ANPR/ANPR_RZA2M_EBK/src/tensorflow_lite/third_party/flatbuffers/include/flatbuffers\flexbuffers.h **** 
  30:C:/Renesas/e2studio_2021_01_workspace_RZA2M_ANPR/ANPR_RZA2M_EBK/src/tensorflow_lite/third_party/flatbuffers/include/flatbuffers\flexbuffers.h **** #if defined(_MSC_VER)
  31:C:/Renesas/e2studio_2021_01_workspace_RZA2M_ANPR/ANPR_RZA2M_EBK/src/tensorflow_lite/third_party/flatbuffers/include/flatbuffers\flexbuffers.h **** #  pragma warning(push)
  32:C:/Renesas/e2studio_2021_01_workspace_RZA2M_ANPR/ANPR_RZA2M_EBK/src/tensorflow_lite/third_party/flatbuffers/include/flatbuffers\flexbuffers.h **** #  pragma warning(disable : 4127)  // C4127: conditional expression is constant
  33:C:/Renesas/e2studio_2021_01_workspace_RZA2M_ANPR/ANPR_RZA2M_EBK/src/tensorflow_lite/third_party/flatbuffers/include/flatbuffers\flexbuffers.h **** #endif
  34:C:/Renesas/e2studio_2021_01_workspace_RZA2M_ANPR/ANPR_RZA2M_EBK/src/tensorflow_lite/third_party/flatbuffers/include/flatbuffers\flexbuffers.h **** 
  35:C:/Renesas/e2studio_2021_01_workspace_RZA2M_ANPR/ANPR_RZA2M_EBK/src/tensorflow_lite/third_party/flatbuffers/include/flatbuffers\flexbuffers.h **** namespace flexbuffers {
  36:C:/Renesas/e2studio_2021_01_workspace_RZA2M_ANPR/ANPR_RZA2M_EBK/src/tensorflow_lite/third_party/flatbuffers/include/flatbuffers\flexbuffers.h **** 
  37:C:/Renesas/e2studio_2021_01_workspace_RZA2M_ANPR/ANPR_RZA2M_EBK/src/tensorflow_lite/third_party/flatbuffers/include/flatbuffers\flexbuffers.h **** class Reference;
  38:C:/Renesas/e2studio_2021_01_workspace_RZA2M_ANPR/ANPR_RZA2M_EBK/src/tensorflow_lite/third_party/flatbuffers/include/flatbuffers\flexbuffers.h **** class Map;
  39:C:/Renesas/e2studio_2021_01_workspace_RZA2M_ANPR/ANPR_RZA2M_EBK/src/tensorflow_lite/third_party/flatbuffers/include/flatbuffers\flexbuffers.h **** 
  40:C:/Renesas/e2studio_2021_01_workspace_RZA2M_ANPR/ANPR_RZA2M_EBK/src/tensorflow_lite/third_party/flatbuffers/include/flatbuffers\flexbuffers.h **** // These are used in the lower 2 bits of a type field to determine the size of
  41:C:/Renesas/e2studio_2021_01_workspace_RZA2M_ANPR/ANPR_RZA2M_EBK/src/tensorflow_lite/third_party/flatbuffers/include/flatbuffers\flexbuffers.h **** // the elements (and or size field) of the item pointed to (e.g. vector).
  42:C:/Renesas/e2studio_2021_01_workspace_RZA2M_ANPR/ANPR_RZA2M_EBK/src/tensorflow_lite/third_party/flatbuffers/include/flatbuffers\flexbuffers.h **** enum BitWidth {
  43:C:/Renesas/e2studio_2021_01_workspace_RZA2M_ANPR/ANPR_RZA2M_EBK/src/tensorflow_lite/third_party/flatbuffers/include/flatbuffers\flexbuffers.h ****   BIT_WIDTH_8 = 0,
  44:C:/Renesas/e2studio_2021_01_workspace_RZA2M_ANPR/ANPR_RZA2M_EBK/src/tensorflow_lite/third_party/flatbuffers/include/flatbuffers\flexbuffers.h ****   BIT_WIDTH_16 = 1,
  45:C:/Renesas/e2studio_2021_01_workspace_RZA2M_ANPR/ANPR_RZA2M_EBK/src/tensorflow_lite/third_party/flatbuffers/include/flatbuffers\flexbuffers.h ****   BIT_WIDTH_32 = 2,
  46:C:/Renesas/e2studio_2021_01_workspace_RZA2M_ANPR/ANPR_RZA2M_EBK/src/tensorflow_lite/third_party/flatbuffers/include/flatbuffers\flexbuffers.h ****   BIT_WIDTH_64 = 3,
  47:C:/Renesas/e2studio_2021_01_workspace_RZA2M_ANPR/ANPR_RZA2M_EBK/src/tensorflow_lite/third_party/flatbuffers/include/flatbuffers\flexbuffers.h **** };
  48:C:/Renesas/e2studio_2021_01_workspace_RZA2M_ANPR/ANPR_RZA2M_EBK/src/tensorflow_lite/third_party/flatbuffers/include/flatbuffers\flexbuffers.h **** 
  49:C:/Renesas/e2studio_2021_01_workspace_RZA2M_ANPR/ANPR_RZA2M_EBK/src/tensorflow_lite/third_party/flatbuffers/include/flatbuffers\flexbuffers.h **** // These are used as the upper 6 bits of a type field to indicate the actual
  50:C:/Renesas/e2studio_2021_01_workspace_RZA2M_ANPR/ANPR_RZA2M_EBK/src/tensorflow_lite/third_party/flatbuffers/include/flatbuffers\flexbuffers.h **** // type.
  51:C:/Renesas/e2studio_2021_01_workspace_RZA2M_ANPR/ANPR_RZA2M_EBK/src/tensorflow_lite/third_party/flatbuffers/include/flatbuffers\flexbuffers.h **** enum Type {
  52:C:/Renesas/e2studio_2021_01_workspace_RZA2M_ANPR/ANPR_RZA2M_EBK/src/tensorflow_lite/third_party/flatbuffers/include/flatbuffers\flexbuffers.h ****   FBT_NULL = 0,
  53:C:/Renesas/e2studio_2021_01_workspace_RZA2M_ANPR/ANPR_RZA2M_EBK/src/tensorflow_lite/third_party/flatbuffers/include/flatbuffers\flexbuffers.h ****   FBT_INT = 1,
  54:C:/Renesas/e2studio_2021_01_workspace_RZA2M_ANPR/ANPR_RZA2M_EBK/src/tensorflow_lite/third_party/flatbuffers/include/flatbuffers\flexbuffers.h ****   FBT_UINT = 2,
  55:C:/Renesas/e2studio_2021_01_workspace_RZA2M_ANPR/ANPR_RZA2M_EBK/src/tensorflow_lite/third_party/flatbuffers/include/flatbuffers\flexbuffers.h ****   FBT_FLOAT = 3,
  56:C:/Renesas/e2studio_2021_01_workspace_RZA2M_ANPR/ANPR_RZA2M_EBK/src/tensorflow_lite/third_party/flatbuffers/include/flatbuffers\flexbuffers.h ****   // Types above stored inline, types below store an offset.
  57:C:/Renesas/e2studio_2021_01_workspace_RZA2M_ANPR/ANPR_RZA2M_EBK/src/tensorflow_lite/third_party/flatbuffers/include/flatbuffers\flexbuffers.h ****   FBT_KEY = 4,
  58:C:/Renesas/e2studio_2021_01_workspace_RZA2M_ANPR/ANPR_RZA2M_EBK/src/tensorflow_lite/third_party/flatbuffers/include/flatbuffers\flexbuffers.h ****   FBT_STRING = 5,
  59:C:/Renesas/e2studio_2021_01_workspace_RZA2M_ANPR/ANPR_RZA2M_EBK/src/tensorflow_lite/third_party/flatbuffers/include/flatbuffers\flexbuffers.h ****   FBT_INDIRECT_INT = 6,
  60:C:/Renesas/e2studio_2021_01_workspace_RZA2M_ANPR/ANPR_RZA2M_EBK/src/tensorflow_lite/third_party/flatbuffers/include/flatbuffers\flexbuffers.h ****   FBT_INDIRECT_UINT = 7,
  61:C:/Renesas/e2studio_2021_01_workspace_RZA2M_ANPR/ANPR_RZA2M_EBK/src/tensorflow_lite/third_party/flatbuffers/include/flatbuffers\flexbuffers.h ****   FBT_INDIRECT_FLOAT = 8,
  62:C:/Renesas/e2studio_2021_01_workspace_RZA2M_ANPR/ANPR_RZA2M_EBK/src/tensorflow_lite/third_party/flatbuffers/include/flatbuffers\flexbuffers.h ****   FBT_MAP = 9,
  63:C:/Renesas/e2studio_2021_01_workspace_RZA2M_ANPR/ANPR_RZA2M_EBK/src/tensorflow_lite/third_party/flatbuffers/include/flatbuffers\flexbuffers.h ****   FBT_VECTOR = 10,      // Untyped.
  64:C:/Renesas/e2studio_2021_01_workspace_RZA2M_ANPR/ANPR_RZA2M_EBK/src/tensorflow_lite/third_party/flatbuffers/include/flatbuffers\flexbuffers.h ****   FBT_VECTOR_INT = 11,  // Typed any size (stores no type table).
  65:C:/Renesas/e2studio_2021_01_workspace_RZA2M_ANPR/ANPR_RZA2M_EBK/src/tensorflow_lite/third_party/flatbuffers/include/flatbuffers\flexbuffers.h ****   FBT_VECTOR_UINT = 12,
  66:C:/Renesas/e2studio_2021_01_workspace_RZA2M_ANPR/ANPR_RZA2M_EBK/src/tensorflow_lite/third_party/flatbuffers/include/flatbuffers\flexbuffers.h ****   FBT_VECTOR_FLOAT = 13,
  67:C:/Renesas/e2studio_2021_01_workspace_RZA2M_ANPR/ANPR_RZA2M_EBK/src/tensorflow_lite/third_party/flatbuffers/include/flatbuffers\flexbuffers.h ****   FBT_VECTOR_KEY = 14,
  68:C:/Renesas/e2studio_2021_01_workspace_RZA2M_ANPR/ANPR_RZA2M_EBK/src/tensorflow_lite/third_party/flatbuffers/include/flatbuffers\flexbuffers.h ****   // DEPRECATED, use FBT_VECTOR or FBT_VECTOR_KEY instead.
  69:C:/Renesas/e2studio_2021_01_workspace_RZA2M_ANPR/ANPR_RZA2M_EBK/src/tensorflow_lite/third_party/flatbuffers/include/flatbuffers\flexbuffers.h ****   // Read test.cpp/FlexBuffersDeprecatedTest() for details on why.
  70:C:/Renesas/e2studio_2021_01_workspace_RZA2M_ANPR/ANPR_RZA2M_EBK/src/tensorflow_lite/third_party/flatbuffers/include/flatbuffers\flexbuffers.h ****   FBT_VECTOR_STRING_DEPRECATED = 15,
  71:C:/Renesas/e2studio_2021_01_workspace_RZA2M_ANPR/ANPR_RZA2M_EBK/src/tensorflow_lite/third_party/flatbuffers/include/flatbuffers\flexbuffers.h ****   FBT_VECTOR_INT2 = 16,  // Typed tuple (no type table, no size field).
  72:C:/Renesas/e2studio_2021_01_workspace_RZA2M_ANPR/ANPR_RZA2M_EBK/src/tensorflow_lite/third_party/flatbuffers/include/flatbuffers\flexbuffers.h ****   FBT_VECTOR_UINT2 = 17,
  73:C:/Renesas/e2studio_2021_01_workspace_RZA2M_ANPR/ANPR_RZA2M_EBK/src/tensorflow_lite/third_party/flatbuffers/include/flatbuffers\flexbuffers.h ****   FBT_VECTOR_FLOAT2 = 18,
  74:C:/Renesas/e2studio_2021_01_workspace_RZA2M_ANPR/ANPR_RZA2M_EBK/src/tensorflow_lite/third_party/flatbuffers/include/flatbuffers\flexbuffers.h ****   FBT_VECTOR_INT3 = 19,  // Typed triple (no type table, no size field).
  75:C:/Renesas/e2studio_2021_01_workspace_RZA2M_ANPR/ANPR_RZA2M_EBK/src/tensorflow_lite/third_party/flatbuffers/include/flatbuffers\flexbuffers.h ****   FBT_VECTOR_UINT3 = 20,
  76:C:/Renesas/e2studio_2021_01_workspace_RZA2M_ANPR/ANPR_RZA2M_EBK/src/tensorflow_lite/third_party/flatbuffers/include/flatbuffers\flexbuffers.h ****   FBT_VECTOR_FLOAT3 = 21,
  77:C:/Renesas/e2studio_2021_01_workspace_RZA2M_ANPR/ANPR_RZA2M_EBK/src/tensorflow_lite/third_party/flatbuffers/include/flatbuffers\flexbuffers.h ****   FBT_VECTOR_INT4 = 22,  // Typed quad (no type table, no size field).
  78:C:/Renesas/e2studio_2021_01_workspace_RZA2M_ANPR/ANPR_RZA2M_EBK/src/tensorflow_lite/third_party/flatbuffers/include/flatbuffers\flexbuffers.h ****   FBT_VECTOR_UINT4 = 23,
  79:C:/Renesas/e2studio_2021_01_workspace_RZA2M_ANPR/ANPR_RZA2M_EBK/src/tensorflow_lite/third_party/flatbuffers/include/flatbuffers\flexbuffers.h ****   FBT_VECTOR_FLOAT4 = 24,
  80:C:/Renesas/e2studio_2021_01_workspace_RZA2M_ANPR/ANPR_RZA2M_EBK/src/tensorflow_lite/third_party/flatbuffers/include/flatbuffers\flexbuffers.h ****   FBT_BLOB = 25,
  81:C:/Renesas/e2studio_2021_01_workspace_RZA2M_ANPR/ANPR_RZA2M_EBK/src/tensorflow_lite/third_party/flatbuffers/include/flatbuffers\flexbuffers.h ****   FBT_BOOL = 26,
  82:C:/Renesas/e2studio_2021_01_workspace_RZA2M_ANPR/ANPR_RZA2M_EBK/src/tensorflow_lite/third_party/flatbuffers/include/flatbuffers\flexbuffers.h ****   FBT_VECTOR_BOOL =
  83:C:/Renesas/e2studio_2021_01_workspace_RZA2M_ANPR/ANPR_RZA2M_EBK/src/tensorflow_lite/third_party/flatbuffers/include/flatbuffers\flexbuffers.h ****       36,  // To Allow the same type of conversion of type to vector type
  84:C:/Renesas/e2studio_2021_01_workspace_RZA2M_ANPR/ANPR_RZA2M_EBK/src/tensorflow_lite/third_party/flatbuffers/include/flatbuffers\flexbuffers.h **** };
  85:C:/Renesas/e2studio_2021_01_workspace_RZA2M_ANPR/ANPR_RZA2M_EBK/src/tensorflow_lite/third_party/flatbuffers/include/flatbuffers\flexbuffers.h **** 
  86:C:/Renesas/e2studio_2021_01_workspace_RZA2M_ANPR/ANPR_RZA2M_EBK/src/tensorflow_lite/third_party/flatbuffers/include/flatbuffers\flexbuffers.h **** inline bool IsInline(Type t) { return t <= FBT_FLOAT || t == FBT_BOOL; }
  87:C:/Renesas/e2studio_2021_01_workspace_RZA2M_ANPR/ANPR_RZA2M_EBK/src/tensorflow_lite/third_party/flatbuffers/include/flatbuffers\flexbuffers.h **** 
  88:C:/Renesas/e2studio_2021_01_workspace_RZA2M_ANPR/ANPR_RZA2M_EBK/src/tensorflow_lite/third_party/flatbuffers/include/flatbuffers\flexbuffers.h **** inline bool IsTypedVectorElementType(Type t) {
  89:C:/Renesas/e2studio_2021_01_workspace_RZA2M_ANPR/ANPR_RZA2M_EBK/src/tensorflow_lite/third_party/flatbuffers/include/flatbuffers\flexbuffers.h ****   return (t >= FBT_INT && t <= FBT_STRING) || t == FBT_BOOL;
  90:C:/Renesas/e2studio_2021_01_workspace_RZA2M_ANPR/ANPR_RZA2M_EBK/src/tensorflow_lite/third_party/flatbuffers/include/flatbuffers\flexbuffers.h **** }
  91:C:/Renesas/e2studio_2021_01_workspace_RZA2M_ANPR/ANPR_RZA2M_EBK/src/tensorflow_lite/third_party/flatbuffers/include/flatbuffers\flexbuffers.h **** 
  92:C:/Renesas/e2studio_2021_01_workspace_RZA2M_ANPR/ANPR_RZA2M_EBK/src/tensorflow_lite/third_party/flatbuffers/include/flatbuffers\flexbuffers.h **** inline bool IsTypedVector(Type t) {
  93:C:/Renesas/e2studio_2021_01_workspace_RZA2M_ANPR/ANPR_RZA2M_EBK/src/tensorflow_lite/third_party/flatbuffers/include/flatbuffers\flexbuffers.h ****   return (t >= FBT_VECTOR_INT && t <= FBT_VECTOR_STRING_DEPRECATED) ||
  94:C:/Renesas/e2studio_2021_01_workspace_RZA2M_ANPR/ANPR_RZA2M_EBK/src/tensorflow_lite/third_party/flatbuffers/include/flatbuffers\flexbuffers.h ****          t == FBT_VECTOR_BOOL;
  95:C:/Renesas/e2studio_2021_01_workspace_RZA2M_ANPR/ANPR_RZA2M_EBK/src/tensorflow_lite/third_party/flatbuffers/include/flatbuffers\flexbuffers.h **** }
  96:C:/Renesas/e2studio_2021_01_workspace_RZA2M_ANPR/ANPR_RZA2M_EBK/src/tensorflow_lite/third_party/flatbuffers/include/flatbuffers\flexbuffers.h **** 
  97:C:/Renesas/e2studio_2021_01_workspace_RZA2M_ANPR/ANPR_RZA2M_EBK/src/tensorflow_lite/third_party/flatbuffers/include/flatbuffers\flexbuffers.h **** inline bool IsFixedTypedVector(Type t) {
  98:C:/Renesas/e2studio_2021_01_workspace_RZA2M_ANPR/ANPR_RZA2M_EBK/src/tensorflow_lite/third_party/flatbuffers/include/flatbuffers\flexbuffers.h ****   return t >= FBT_VECTOR_INT2 && t <= FBT_VECTOR_FLOAT4;
  99:C:/Renesas/e2studio_2021_01_workspace_RZA2M_ANPR/ANPR_RZA2M_EBK/src/tensorflow_lite/third_party/flatbuffers/include/flatbuffers\flexbuffers.h **** }
 100:C:/Renesas/e2studio_2021_01_workspace_RZA2M_ANPR/ANPR_RZA2M_EBK/src/tensorflow_lite/third_party/flatbuffers/include/flatbuffers\flexbuffers.h **** 
 101:C:/Renesas/e2studio_2021_01_workspace_RZA2M_ANPR/ANPR_RZA2M_EBK/src/tensorflow_lite/third_party/flatbuffers/include/flatbuffers\flexbuffers.h **** inline Type ToTypedVector(Type t, size_t fixed_len = 0) {
 102:C:/Renesas/e2studio_2021_01_workspace_RZA2M_ANPR/ANPR_RZA2M_EBK/src/tensorflow_lite/third_party/flatbuffers/include/flatbuffers\flexbuffers.h ****   FLATBUFFERS_ASSERT(IsTypedVectorElementType(t));
 103:C:/Renesas/e2studio_2021_01_workspace_RZA2M_ANPR/ANPR_RZA2M_EBK/src/tensorflow_lite/third_party/flatbuffers/include/flatbuffers\flexbuffers.h ****   switch (fixed_len) {
 104:C:/Renesas/e2studio_2021_01_workspace_RZA2M_ANPR/ANPR_RZA2M_EBK/src/tensorflow_lite/third_party/flatbuffers/include/flatbuffers\flexbuffers.h ****     case 0: return static_cast<Type>(t - FBT_INT + FBT_VECTOR_INT);
 105:C:/Renesas/e2studio_2021_01_workspace_RZA2M_ANPR/ANPR_RZA2M_EBK/src/tensorflow_lite/third_party/flatbuffers/include/flatbuffers\flexbuffers.h ****     case 2: return static_cast<Type>(t - FBT_INT + FBT_VECTOR_INT2);
 106:C:/Renesas/e2studio_2021_01_workspace_RZA2M_ANPR/ANPR_RZA2M_EBK/src/tensorflow_lite/third_party/flatbuffers/include/flatbuffers\flexbuffers.h ****     case 3: return static_cast<Type>(t - FBT_INT + FBT_VECTOR_INT3);
 107:C:/Renesas/e2studio_2021_01_workspace_RZA2M_ANPR/ANPR_RZA2M_EBK/src/tensorflow_lite/third_party/flatbuffers/include/flatbuffers\flexbuffers.h ****     case 4: return static_cast<Type>(t - FBT_INT + FBT_VECTOR_INT4);
 108:C:/Renesas/e2studio_2021_01_workspace_RZA2M_ANPR/ANPR_RZA2M_EBK/src/tensorflow_lite/third_party/flatbuffers/include/flatbuffers\flexbuffers.h ****     default: FLATBUFFERS_ASSERT(0); return FBT_NULL;
 109:C:/Renesas/e2studio_2021_01_workspace_RZA2M_ANPR/ANPR_RZA2M_EBK/src/tensorflow_lite/third_party/flatbuffers/include/flatbuffers\flexbuffers.h ****   }
 110:C:/Renesas/e2studio_2021_01_workspace_RZA2M_ANPR/ANPR_RZA2M_EBK/src/tensorflow_lite/third_party/flatbuffers/include/flatbuffers\flexbuffers.h **** }
 111:C:/Renesas/e2studio_2021_01_workspace_RZA2M_ANPR/ANPR_RZA2M_EBK/src/tensorflow_lite/third_party/flatbuffers/include/flatbuffers\flexbuffers.h **** 
 112:C:/Renesas/e2studio_2021_01_workspace_RZA2M_ANPR/ANPR_RZA2M_EBK/src/tensorflow_lite/third_party/flatbuffers/include/flatbuffers\flexbuffers.h **** inline Type ToTypedVectorElementType(Type t) {
 113:C:/Renesas/e2studio_2021_01_workspace_RZA2M_ANPR/ANPR_RZA2M_EBK/src/tensorflow_lite/third_party/flatbuffers/include/flatbuffers\flexbuffers.h ****   FLATBUFFERS_ASSERT(IsTypedVector(t));
 114:C:/Renesas/e2studio_2021_01_workspace_RZA2M_ANPR/ANPR_RZA2M_EBK/src/tensorflow_lite/third_party/flatbuffers/include/flatbuffers\flexbuffers.h ****   return static_cast<Type>(t - FBT_VECTOR_INT + FBT_INT);
 115:C:/Renesas/e2studio_2021_01_workspace_RZA2M_ANPR/ANPR_RZA2M_EBK/src/tensorflow_lite/third_party/flatbuffers/include/flatbuffers\flexbuffers.h **** }
 116:C:/Renesas/e2studio_2021_01_workspace_RZA2M_ANPR/ANPR_RZA2M_EBK/src/tensorflow_lite/third_party/flatbuffers/include/flatbuffers\flexbuffers.h **** 
 117:C:/Renesas/e2studio_2021_01_workspace_RZA2M_ANPR/ANPR_RZA2M_EBK/src/tensorflow_lite/third_party/flatbuffers/include/flatbuffers\flexbuffers.h **** inline Type ToFixedTypedVectorElementType(Type t, uint8_t *len) {
 118:C:/Renesas/e2studio_2021_01_workspace_RZA2M_ANPR/ANPR_RZA2M_EBK/src/tensorflow_lite/third_party/flatbuffers/include/flatbuffers\flexbuffers.h ****   FLATBUFFERS_ASSERT(IsFixedTypedVector(t));
 119:C:/Renesas/e2studio_2021_01_workspace_RZA2M_ANPR/ANPR_RZA2M_EBK/src/tensorflow_lite/third_party/flatbuffers/include/flatbuffers\flexbuffers.h ****   auto fixed_type = t - FBT_VECTOR_INT2;
 120:C:/Renesas/e2studio_2021_01_workspace_RZA2M_ANPR/ANPR_RZA2M_EBK/src/tensorflow_lite/third_party/flatbuffers/include/flatbuffers\flexbuffers.h ****   *len = static_cast<uint8_t>(fixed_type / 3 +
 121:C:/Renesas/e2studio_2021_01_workspace_RZA2M_ANPR/ANPR_RZA2M_EBK/src/tensorflow_lite/third_party/flatbuffers/include/flatbuffers\flexbuffers.h ****                               2);  // 3 types each, starting from length 2.
 122:C:/Renesas/e2studio_2021_01_workspace_RZA2M_ANPR/ANPR_RZA2M_EBK/src/tensorflow_lite/third_party/flatbuffers/include/flatbuffers\flexbuffers.h ****   return static_cast<Type>(fixed_type % 3 + FBT_INT);
 123:C:/Renesas/e2studio_2021_01_workspace_RZA2M_ANPR/ANPR_RZA2M_EBK/src/tensorflow_lite/third_party/flatbuffers/include/flatbuffers\flexbuffers.h **** }
 124:C:/Renesas/e2studio_2021_01_workspace_RZA2M_ANPR/ANPR_RZA2M_EBK/src/tensorflow_lite/third_party/flatbuffers/include/flatbuffers\flexbuffers.h **** 
 125:C:/Renesas/e2studio_2021_01_workspace_RZA2M_ANPR/ANPR_RZA2M_EBK/src/tensorflow_lite/third_party/flatbuffers/include/flatbuffers\flexbuffers.h **** // TODO: implement proper support for 8/16bit floats, or decide not to
 126:C:/Renesas/e2studio_2021_01_workspace_RZA2M_ANPR/ANPR_RZA2M_EBK/src/tensorflow_lite/third_party/flatbuffers/include/flatbuffers\flexbuffers.h **** // support them.
 127:C:/Renesas/e2studio_2021_01_workspace_RZA2M_ANPR/ANPR_RZA2M_EBK/src/tensorflow_lite/third_party/flatbuffers/include/flatbuffers\flexbuffers.h **** typedef int16_t half;
 128:C:/Renesas/e2studio_2021_01_workspace_RZA2M_ANPR/ANPR_RZA2M_EBK/src/tensorflow_lite/third_party/flatbuffers/include/flatbuffers\flexbuffers.h **** typedef int8_t quarter;
 129:C:/Renesas/e2studio_2021_01_workspace_RZA2M_ANPR/ANPR_RZA2M_EBK/src/tensorflow_lite/third_party/flatbuffers/include/flatbuffers\flexbuffers.h **** 
 130:C:/Renesas/e2studio_2021_01_workspace_RZA2M_ANPR/ANPR_RZA2M_EBK/src/tensorflow_lite/third_party/flatbuffers/include/flatbuffers\flexbuffers.h **** // TODO: can we do this without conditionals using intrinsics or inline asm
 131:C:/Renesas/e2studio_2021_01_workspace_RZA2M_ANPR/ANPR_RZA2M_EBK/src/tensorflow_lite/third_party/flatbuffers/include/flatbuffers\flexbuffers.h **** // on some platforms? Given branch prediction the method below should be
 132:C:/Renesas/e2studio_2021_01_workspace_RZA2M_ANPR/ANPR_RZA2M_EBK/src/tensorflow_lite/third_party/flatbuffers/include/flatbuffers\flexbuffers.h **** // decently quick, but it is the most frequently executed function.
 133:C:/Renesas/e2studio_2021_01_workspace_RZA2M_ANPR/ANPR_RZA2M_EBK/src/tensorflow_lite/third_party/flatbuffers/include/flatbuffers\flexbuffers.h **** // We could do an (unaligned) 64-bit read if we ifdef out the platforms for
 134:C:/Renesas/e2studio_2021_01_workspace_RZA2M_ANPR/ANPR_RZA2M_EBK/src/tensorflow_lite/third_party/flatbuffers/include/flatbuffers\flexbuffers.h **** // which that doesn't work (or where we'd read into un-owned memory).
 135:C:/Renesas/e2studio_2021_01_workspace_RZA2M_ANPR/ANPR_RZA2M_EBK/src/tensorflow_lite/third_party/flatbuffers/include/flatbuffers\flexbuffers.h **** template<typename R, typename T1, typename T2, typename T4, typename T8>
 136:C:/Renesas/e2studio_2021_01_workspace_RZA2M_ANPR/ANPR_RZA2M_EBK/src/tensorflow_lite/third_party/flatbuffers/include/flatbuffers\flexbuffers.h **** R ReadSizedScalar(const uint8_t *data, uint8_t byte_width) {
 137:C:/Renesas/e2studio_2021_01_workspace_RZA2M_ANPR/ANPR_RZA2M_EBK/src/tensorflow_lite/third_party/flatbuffers/include/flatbuffers\flexbuffers.h ****   return byte_width < 4
 138:C:/Renesas/e2studio_2021_01_workspace_RZA2M_ANPR/ANPR_RZA2M_EBK/src/tensorflow_lite/third_party/flatbuffers/include/flatbuffers\flexbuffers.h ****              ? (byte_width < 2
 139:C:/Renesas/e2studio_2021_01_workspace_RZA2M_ANPR/ANPR_RZA2M_EBK/src/tensorflow_lite/third_party/flatbuffers/include/flatbuffers\flexbuffers.h ****                     ? static_cast<R>(flatbuffers::ReadScalar<T1>(data))
 140:C:/Renesas/e2studio_2021_01_workspace_RZA2M_ANPR/ANPR_RZA2M_EBK/src/tensorflow_lite/third_party/flatbuffers/include/flatbuffers\flexbuffers.h ****                     : static_cast<R>(flatbuffers::ReadScalar<T2>(data)))
 141:C:/Renesas/e2studio_2021_01_workspace_RZA2M_ANPR/ANPR_RZA2M_EBK/src/tensorflow_lite/third_party/flatbuffers/include/flatbuffers\flexbuffers.h ****              : (byte_width < 8
 142:C:/Renesas/e2studio_2021_01_workspace_RZA2M_ANPR/ANPR_RZA2M_EBK/src/tensorflow_lite/third_party/flatbuffers/include/flatbuffers\flexbuffers.h ****                     ? static_cast<R>(flatbuffers::ReadScalar<T4>(data))
 143:C:/Renesas/e2studio_2021_01_workspace_RZA2M_ANPR/ANPR_RZA2M_EBK/src/tensorflow_lite/third_party/flatbuffers/include/flatbuffers\flexbuffers.h ****                     : static_cast<R>(flatbuffers::ReadScalar<T8>(data)));
 144:C:/Renesas/e2studio_2021_01_workspace_RZA2M_ANPR/ANPR_RZA2M_EBK/src/tensorflow_lite/third_party/flatbuffers/include/flatbuffers\flexbuffers.h **** }
 145:C:/Renesas/e2studio_2021_01_workspace_RZA2M_ANPR/ANPR_RZA2M_EBK/src/tensorflow_lite/third_party/flatbuffers/include/flatbuffers\flexbuffers.h **** 
 146:C:/Renesas/e2studio_2021_01_workspace_RZA2M_ANPR/ANPR_RZA2M_EBK/src/tensorflow_lite/third_party/flatbuffers/include/flatbuffers\flexbuffers.h **** inline int64_t ReadInt64(const uint8_t *data, uint8_t byte_width) {
 147:C:/Renesas/e2studio_2021_01_workspace_RZA2M_ANPR/ANPR_RZA2M_EBK/src/tensorflow_lite/third_party/flatbuffers/include/flatbuffers\flexbuffers.h ****   return ReadSizedScalar<int64_t, int8_t, int16_t, int32_t, int64_t>(
 148:C:/Renesas/e2studio_2021_01_workspace_RZA2M_ANPR/ANPR_RZA2M_EBK/src/tensorflow_lite/third_party/flatbuffers/include/flatbuffers\flexbuffers.h ****       data, byte_width);
 149:C:/Renesas/e2studio_2021_01_workspace_RZA2M_ANPR/ANPR_RZA2M_EBK/src/tensorflow_lite/third_party/flatbuffers/include/flatbuffers\flexbuffers.h **** }
 150:C:/Renesas/e2studio_2021_01_workspace_RZA2M_ANPR/ANPR_RZA2M_EBK/src/tensorflow_lite/third_party/flatbuffers/include/flatbuffers\flexbuffers.h **** 
 151:C:/Renesas/e2studio_2021_01_workspace_RZA2M_ANPR/ANPR_RZA2M_EBK/src/tensorflow_lite/third_party/flatbuffers/include/flatbuffers\flexbuffers.h **** inline uint64_t ReadUInt64(const uint8_t *data, uint8_t byte_width) {
 152:C:/Renesas/e2studio_2021_01_workspace_RZA2M_ANPR/ANPR_RZA2M_EBK/src/tensorflow_lite/third_party/flatbuffers/include/flatbuffers\flexbuffers.h ****   // This is the "hottest" function (all offset lookups use this), so worth
 153:C:/Renesas/e2studio_2021_01_workspace_RZA2M_ANPR/ANPR_RZA2M_EBK/src/tensorflow_lite/third_party/flatbuffers/include/flatbuffers\flexbuffers.h ****   // optimizing if possible.
 154:C:/Renesas/e2studio_2021_01_workspace_RZA2M_ANPR/ANPR_RZA2M_EBK/src/tensorflow_lite/third_party/flatbuffers/include/flatbuffers\flexbuffers.h ****   // TODO: GCC apparently replaces memcpy by a rep movsb, but only if count is a
 155:C:/Renesas/e2studio_2021_01_workspace_RZA2M_ANPR/ANPR_RZA2M_EBK/src/tensorflow_lite/third_party/flatbuffers/include/flatbuffers\flexbuffers.h ****   // constant, which here it isn't. Test if memcpy is still faster than
 156:C:/Renesas/e2studio_2021_01_workspace_RZA2M_ANPR/ANPR_RZA2M_EBK/src/tensorflow_lite/third_party/flatbuffers/include/flatbuffers\flexbuffers.h ****   // the conditionals in ReadSizedScalar. Can also use inline asm.
 157:C:/Renesas/e2studio_2021_01_workspace_RZA2M_ANPR/ANPR_RZA2M_EBK/src/tensorflow_lite/third_party/flatbuffers/include/flatbuffers\flexbuffers.h ****   // clang-format off
 158:C:/Renesas/e2studio_2021_01_workspace_RZA2M_ANPR/ANPR_RZA2M_EBK/src/tensorflow_lite/third_party/flatbuffers/include/flatbuffers\flexbuffers.h ****   #if defined(_MSC_VER) && (defined(_M_X64) || defined _M_IX86)
 159:C:/Renesas/e2studio_2021_01_workspace_RZA2M_ANPR/ANPR_RZA2M_EBK/src/tensorflow_lite/third_party/flatbuffers/include/flatbuffers\flexbuffers.h ****     uint64_t u = 0;
 160:C:/Renesas/e2studio_2021_01_workspace_RZA2M_ANPR/ANPR_RZA2M_EBK/src/tensorflow_lite/third_party/flatbuffers/include/flatbuffers\flexbuffers.h ****     __movsb(reinterpret_cast<uint8_t *>(&u),
 161:C:/Renesas/e2studio_2021_01_workspace_RZA2M_ANPR/ANPR_RZA2M_EBK/src/tensorflow_lite/third_party/flatbuffers/include/flatbuffers\flexbuffers.h ****             reinterpret_cast<const uint8_t *>(data), byte_width);
 162:C:/Renesas/e2studio_2021_01_workspace_RZA2M_ANPR/ANPR_RZA2M_EBK/src/tensorflow_lite/third_party/flatbuffers/include/flatbuffers\flexbuffers.h ****     return flatbuffers::EndianScalar(u);
 163:C:/Renesas/e2studio_2021_01_workspace_RZA2M_ANPR/ANPR_RZA2M_EBK/src/tensorflow_lite/third_party/flatbuffers/include/flatbuffers\flexbuffers.h ****   #else
 164:C:/Renesas/e2studio_2021_01_workspace_RZA2M_ANPR/ANPR_RZA2M_EBK/src/tensorflow_lite/third_party/flatbuffers/include/flatbuffers\flexbuffers.h ****     return ReadSizedScalar<uint64_t, uint8_t, uint16_t, uint32_t, uint64_t>(
 165:C:/Renesas/e2studio_2021_01_workspace_RZA2M_ANPR/ANPR_RZA2M_EBK/src/tensorflow_lite/third_party/flatbuffers/include/flatbuffers\flexbuffers.h ****              data, byte_width);
 166:C:/Renesas/e2studio_2021_01_workspace_RZA2M_ANPR/ANPR_RZA2M_EBK/src/tensorflow_lite/third_party/flatbuffers/include/flatbuffers\flexbuffers.h ****   #endif
 167:C:/Renesas/e2studio_2021_01_workspace_RZA2M_ANPR/ANPR_RZA2M_EBK/src/tensorflow_lite/third_party/flatbuffers/include/flatbuffers\flexbuffers.h ****   // clang-format on
 168:C:/Renesas/e2studio_2021_01_workspace_RZA2M_ANPR/ANPR_RZA2M_EBK/src/tensorflow_lite/third_party/flatbuffers/include/flatbuffers\flexbuffers.h **** }
 169:C:/Renesas/e2studio_2021_01_workspace_RZA2M_ANPR/ANPR_RZA2M_EBK/src/tensorflow_lite/third_party/flatbuffers/include/flatbuffers\flexbuffers.h **** 
 170:C:/Renesas/e2studio_2021_01_workspace_RZA2M_ANPR/ANPR_RZA2M_EBK/src/tensorflow_lite/third_party/flatbuffers/include/flatbuffers\flexbuffers.h **** inline double ReadDouble(const uint8_t *data, uint8_t byte_width) {
 171:C:/Renesas/e2studio_2021_01_workspace_RZA2M_ANPR/ANPR_RZA2M_EBK/src/tensorflow_lite/third_party/flatbuffers/include/flatbuffers\flexbuffers.h ****   return ReadSizedScalar<double, quarter, half, float, double>(data,
 172:C:/Renesas/e2studio_2021_01_workspace_RZA2M_ANPR/ANPR_RZA2M_EBK/src/tensorflow_lite/third_party/flatbuffers/include/flatbuffers\flexbuffers.h ****                                                                byte_width);
 173:C:/Renesas/e2studio_2021_01_workspace_RZA2M_ANPR/ANPR_RZA2M_EBK/src/tensorflow_lite/third_party/flatbuffers/include/flatbuffers\flexbuffers.h **** }
 174:C:/Renesas/e2studio_2021_01_workspace_RZA2M_ANPR/ANPR_RZA2M_EBK/src/tensorflow_lite/third_party/flatbuffers/include/flatbuffers\flexbuffers.h **** 
 175:C:/Renesas/e2studio_2021_01_workspace_RZA2M_ANPR/ANPR_RZA2M_EBK/src/tensorflow_lite/third_party/flatbuffers/include/flatbuffers\flexbuffers.h **** inline const uint8_t *Indirect(const uint8_t *offset, uint8_t byte_width) {
 176:C:/Renesas/e2studio_2021_01_workspace_RZA2M_ANPR/ANPR_RZA2M_EBK/src/tensorflow_lite/third_party/flatbuffers/include/flatbuffers\flexbuffers.h ****   return offset - ReadUInt64(offset, byte_width);
 177:C:/Renesas/e2studio_2021_01_workspace_RZA2M_ANPR/ANPR_RZA2M_EBK/src/tensorflow_lite/third_party/flatbuffers/include/flatbuffers\flexbuffers.h **** }
 178:C:/Renesas/e2studio_2021_01_workspace_RZA2M_ANPR/ANPR_RZA2M_EBK/src/tensorflow_lite/third_party/flatbuffers/include/flatbuffers\flexbuffers.h **** 
 179:C:/Renesas/e2studio_2021_01_workspace_RZA2M_ANPR/ANPR_RZA2M_EBK/src/tensorflow_lite/third_party/flatbuffers/include/flatbuffers\flexbuffers.h **** template<typename T> const uint8_t *Indirect(const uint8_t *offset) {
 180:C:/Renesas/e2studio_2021_01_workspace_RZA2M_ANPR/ANPR_RZA2M_EBK/src/tensorflow_lite/third_party/flatbuffers/include/flatbuffers\flexbuffers.h ****   return offset - flatbuffers::ReadScalar<T>(offset);
 181:C:/Renesas/e2studio_2021_01_workspace_RZA2M_ANPR/ANPR_RZA2M_EBK/src/tensorflow_lite/third_party/flatbuffers/include/flatbuffers\flexbuffers.h **** }
 182:C:/Renesas/e2studio_2021_01_workspace_RZA2M_ANPR/ANPR_RZA2M_EBK/src/tensorflow_lite/third_party/flatbuffers/include/flatbuffers\flexbuffers.h **** 
 183:C:/Renesas/e2studio_2021_01_workspace_RZA2M_ANPR/ANPR_RZA2M_EBK/src/tensorflow_lite/third_party/flatbuffers/include/flatbuffers\flexbuffers.h **** inline BitWidth WidthU(uint64_t u) {
 184:C:/Renesas/e2studio_2021_01_workspace_RZA2M_ANPR/ANPR_RZA2M_EBK/src/tensorflow_lite/third_party/flatbuffers/include/flatbuffers\flexbuffers.h **** #define FLATBUFFERS_GET_FIELD_BIT_WIDTH(value, width)                   \
 185:C:/Renesas/e2studio_2021_01_workspace_RZA2M_ANPR/ANPR_RZA2M_EBK/src/tensorflow_lite/third_party/flatbuffers/include/flatbuffers\flexbuffers.h ****   {                                                                     \
 186:C:/Renesas/e2studio_2021_01_workspace_RZA2M_ANPR/ANPR_RZA2M_EBK/src/tensorflow_lite/third_party/flatbuffers/include/flatbuffers\flexbuffers.h ****     if (!((u) & ~((1ULL << (width)) - 1ULL))) return BIT_WIDTH_##width; \
 187:C:/Renesas/e2studio_2021_01_workspace_RZA2M_ANPR/ANPR_RZA2M_EBK/src/tensorflow_lite/third_party/flatbuffers/include/flatbuffers\flexbuffers.h ****   }
 188:C:/Renesas/e2studio_2021_01_workspace_RZA2M_ANPR/ANPR_RZA2M_EBK/src/tensorflow_lite/third_party/flatbuffers/include/flatbuffers\flexbuffers.h ****   FLATBUFFERS_GET_FIELD_BIT_WIDTH(u, 8);
 189:C:/Renesas/e2studio_2021_01_workspace_RZA2M_ANPR/ANPR_RZA2M_EBK/src/tensorflow_lite/third_party/flatbuffers/include/flatbuffers\flexbuffers.h ****   FLATBUFFERS_GET_FIELD_BIT_WIDTH(u, 16);
 190:C:/Renesas/e2studio_2021_01_workspace_RZA2M_ANPR/ANPR_RZA2M_EBK/src/tensorflow_lite/third_party/flatbuffers/include/flatbuffers\flexbuffers.h ****   FLATBUFFERS_GET_FIELD_BIT_WIDTH(u, 32);
 191:C:/Renesas/e2studio_2021_01_workspace_RZA2M_ANPR/ANPR_RZA2M_EBK/src/tensorflow_lite/third_party/flatbuffers/include/flatbuffers\flexbuffers.h **** #undef FLATBUFFERS_GET_FIELD_BIT_WIDTH
 192:C:/Renesas/e2studio_2021_01_workspace_RZA2M_ANPR/ANPR_RZA2M_EBK/src/tensorflow_lite/third_party/flatbuffers/include/flatbuffers\flexbuffers.h ****   return BIT_WIDTH_64;
 193:C:/Renesas/e2studio_2021_01_workspace_RZA2M_ANPR/ANPR_RZA2M_EBK/src/tensorflow_lite/third_party/flatbuffers/include/flatbuffers\flexbuffers.h **** }
 194:C:/Renesas/e2studio_2021_01_workspace_RZA2M_ANPR/ANPR_RZA2M_EBK/src/tensorflow_lite/third_party/flatbuffers/include/flatbuffers\flexbuffers.h **** 
 195:C:/Renesas/e2studio_2021_01_workspace_RZA2M_ANPR/ANPR_RZA2M_EBK/src/tensorflow_lite/third_party/flatbuffers/include/flatbuffers\flexbuffers.h **** inline BitWidth WidthI(int64_t i) {
 196:C:/Renesas/e2studio_2021_01_workspace_RZA2M_ANPR/ANPR_RZA2M_EBK/src/tensorflow_lite/third_party/flatbuffers/include/flatbuffers\flexbuffers.h ****   auto u = static_cast<uint64_t>(i) << 1;
 197:C:/Renesas/e2studio_2021_01_workspace_RZA2M_ANPR/ANPR_RZA2M_EBK/src/tensorflow_lite/third_party/flatbuffers/include/flatbuffers\flexbuffers.h ****   return WidthU(i >= 0 ? u : ~u);
 198:C:/Renesas/e2studio_2021_01_workspace_RZA2M_ANPR/ANPR_RZA2M_EBK/src/tensorflow_lite/third_party/flatbuffers/include/flatbuffers\flexbuffers.h **** }
 199:C:/Renesas/e2studio_2021_01_workspace_RZA2M_ANPR/ANPR_RZA2M_EBK/src/tensorflow_lite/third_party/flatbuffers/include/flatbuffers\flexbuffers.h **** 
 200:C:/Renesas/e2studio_2021_01_workspace_RZA2M_ANPR/ANPR_RZA2M_EBK/src/tensorflow_lite/third_party/flatbuffers/include/flatbuffers\flexbuffers.h **** inline BitWidth WidthF(double f) {
 201:C:/Renesas/e2studio_2021_01_workspace_RZA2M_ANPR/ANPR_RZA2M_EBK/src/tensorflow_lite/third_party/flatbuffers/include/flatbuffers\flexbuffers.h ****   return static_cast<double>(static_cast<float>(f)) == f ? BIT_WIDTH_32
 202:C:/Renesas/e2studio_2021_01_workspace_RZA2M_ANPR/ANPR_RZA2M_EBK/src/tensorflow_lite/third_party/flatbuffers/include/flatbuffers\flexbuffers.h ****                                                          : BIT_WIDTH_64;
 203:C:/Renesas/e2studio_2021_01_workspace_RZA2M_ANPR/ANPR_RZA2M_EBK/src/tensorflow_lite/third_party/flatbuffers/include/flatbuffers\flexbuffers.h **** }
 204:C:/Renesas/e2studio_2021_01_workspace_RZA2M_ANPR/ANPR_RZA2M_EBK/src/tensorflow_lite/third_party/flatbuffers/include/flatbuffers\flexbuffers.h **** 
 205:C:/Renesas/e2studio_2021_01_workspace_RZA2M_ANPR/ANPR_RZA2M_EBK/src/tensorflow_lite/third_party/flatbuffers/include/flatbuffers\flexbuffers.h **** // Base class of all types below.
 206:C:/Renesas/e2studio_2021_01_workspace_RZA2M_ANPR/ANPR_RZA2M_EBK/src/tensorflow_lite/third_party/flatbuffers/include/flatbuffers\flexbuffers.h **** // Points into the data buffer and allows access to one type.
 207:C:/Renesas/e2studio_2021_01_workspace_RZA2M_ANPR/ANPR_RZA2M_EBK/src/tensorflow_lite/third_party/flatbuffers/include/flatbuffers\flexbuffers.h **** class Object {
 208:C:/Renesas/e2studio_2021_01_workspace_RZA2M_ANPR/ANPR_RZA2M_EBK/src/tensorflow_lite/third_party/flatbuffers/include/flatbuffers\flexbuffers.h ****  public:
 209:C:/Renesas/e2studio_2021_01_workspace_RZA2M_ANPR/ANPR_RZA2M_EBK/src/tensorflow_lite/third_party/flatbuffers/include/flatbuffers\flexbuffers.h ****   Object(const uint8_t *data, uint8_t byte_width)
 210:C:/Renesas/e2studio_2021_01_workspace_RZA2M_ANPR/ANPR_RZA2M_EBK/src/tensorflow_lite/third_party/flatbuffers/include/flatbuffers\flexbuffers.h ****       : data_(data), byte_width_(byte_width) {}
 211:C:/Renesas/e2studio_2021_01_workspace_RZA2M_ANPR/ANPR_RZA2M_EBK/src/tensorflow_lite/third_party/flatbuffers/include/flatbuffers\flexbuffers.h **** 
 212:C:/Renesas/e2studio_2021_01_workspace_RZA2M_ANPR/ANPR_RZA2M_EBK/src/tensorflow_lite/third_party/flatbuffers/include/flatbuffers\flexbuffers.h ****  protected:
 213:C:/Renesas/e2studio_2021_01_workspace_RZA2M_ANPR/ANPR_RZA2M_EBK/src/tensorflow_lite/third_party/flatbuffers/include/flatbuffers\flexbuffers.h ****   const uint8_t *data_;
 214:C:/Renesas/e2studio_2021_01_workspace_RZA2M_ANPR/ANPR_RZA2M_EBK/src/tensorflow_lite/third_party/flatbuffers/include/flatbuffers\flexbuffers.h ****   uint8_t byte_width_;
 215:C:/Renesas/e2studio_2021_01_workspace_RZA2M_ANPR/ANPR_RZA2M_EBK/src/tensorflow_lite/third_party/flatbuffers/include/flatbuffers\flexbuffers.h **** };
 216:C:/Renesas/e2studio_2021_01_workspace_RZA2M_ANPR/ANPR_RZA2M_EBK/src/tensorflow_lite/third_party/flatbuffers/include/flatbuffers\flexbuffers.h **** 
 217:C:/Renesas/e2studio_2021_01_workspace_RZA2M_ANPR/ANPR_RZA2M_EBK/src/tensorflow_lite/third_party/flatbuffers/include/flatbuffers\flexbuffers.h **** // Object that has a size, obtained either from size prefix, or elsewhere.
 218:C:/Renesas/e2studio_2021_01_workspace_RZA2M_ANPR/ANPR_RZA2M_EBK/src/tensorflow_lite/third_party/flatbuffers/include/flatbuffers\flexbuffers.h **** class Sized : public Object {
 219:C:/Renesas/e2studio_2021_01_workspace_RZA2M_ANPR/ANPR_RZA2M_EBK/src/tensorflow_lite/third_party/flatbuffers/include/flatbuffers\flexbuffers.h ****  public:
 220:C:/Renesas/e2studio_2021_01_workspace_RZA2M_ANPR/ANPR_RZA2M_EBK/src/tensorflow_lite/third_party/flatbuffers/include/flatbuffers\flexbuffers.h ****   // Size prefix.
 221:C:/Renesas/e2studio_2021_01_workspace_RZA2M_ANPR/ANPR_RZA2M_EBK/src/tensorflow_lite/third_party/flatbuffers/include/flatbuffers\flexbuffers.h ****   Sized(const uint8_t *data, uint8_t byte_width)
 222:C:/Renesas/e2studio_2021_01_workspace_RZA2M_ANPR/ANPR_RZA2M_EBK/src/tensorflow_lite/third_party/flatbuffers/include/flatbuffers\flexbuffers.h ****       : Object(data, byte_width), size_(read_size()) {}
 223:C:/Renesas/e2studio_2021_01_workspace_RZA2M_ANPR/ANPR_RZA2M_EBK/src/tensorflow_lite/third_party/flatbuffers/include/flatbuffers\flexbuffers.h ****   // Manual size.
 224:C:/Renesas/e2studio_2021_01_workspace_RZA2M_ANPR/ANPR_RZA2M_EBK/src/tensorflow_lite/third_party/flatbuffers/include/flatbuffers\flexbuffers.h ****   Sized(const uint8_t *data, uint8_t byte_width, size_t sz)
 225:C:/Renesas/e2studio_2021_01_workspace_RZA2M_ANPR/ANPR_RZA2M_EBK/src/tensorflow_lite/third_party/flatbuffers/include/flatbuffers\flexbuffers.h ****       : Object(data, byte_width), size_(sz) {}
 226:C:/Renesas/e2studio_2021_01_workspace_RZA2M_ANPR/ANPR_RZA2M_EBK/src/tensorflow_lite/third_party/flatbuffers/include/flatbuffers\flexbuffers.h ****   size_t size() const { return size_; }
 227:C:/Renesas/e2studio_2021_01_workspace_RZA2M_ANPR/ANPR_RZA2M_EBK/src/tensorflow_lite/third_party/flatbuffers/include/flatbuffers\flexbuffers.h ****   // Access size stored in `byte_width_` bytes before data_ pointer.
 228:C:/Renesas/e2studio_2021_01_workspace_RZA2M_ANPR/ANPR_RZA2M_EBK/src/tensorflow_lite/third_party/flatbuffers/include/flatbuffers\flexbuffers.h ****   size_t read_size() const {
 229:C:/Renesas/e2studio_2021_01_workspace_RZA2M_ANPR/ANPR_RZA2M_EBK/src/tensorflow_lite/third_party/flatbuffers/include/flatbuffers\flexbuffers.h ****     return static_cast<size_t>(ReadUInt64(data_ - byte_width_, byte_width_));
 230:C:/Renesas/e2studio_2021_01_workspace_RZA2M_ANPR/ANPR_RZA2M_EBK/src/tensorflow_lite/third_party/flatbuffers/include/flatbuffers\flexbuffers.h ****   }
 231:C:/Renesas/e2studio_2021_01_workspace_RZA2M_ANPR/ANPR_RZA2M_EBK/src/tensorflow_lite/third_party/flatbuffers/include/flatbuffers\flexbuffers.h **** 
 232:C:/Renesas/e2studio_2021_01_workspace_RZA2M_ANPR/ANPR_RZA2M_EBK/src/tensorflow_lite/third_party/flatbuffers/include/flatbuffers\flexbuffers.h ****  protected:
 233:C:/Renesas/e2studio_2021_01_workspace_RZA2M_ANPR/ANPR_RZA2M_EBK/src/tensorflow_lite/third_party/flatbuffers/include/flatbuffers\flexbuffers.h ****   size_t size_;
 234:C:/Renesas/e2studio_2021_01_workspace_RZA2M_ANPR/ANPR_RZA2M_EBK/src/tensorflow_lite/third_party/flatbuffers/include/flatbuffers\flexbuffers.h **** };
 235:C:/Renesas/e2studio_2021_01_workspace_RZA2M_ANPR/ANPR_RZA2M_EBK/src/tensorflow_lite/third_party/flatbuffers/include/flatbuffers\flexbuffers.h **** 
 236:C:/Renesas/e2studio_2021_01_workspace_RZA2M_ANPR/ANPR_RZA2M_EBK/src/tensorflow_lite/third_party/flatbuffers/include/flatbuffers\flexbuffers.h **** class String : public Sized {
 237:C:/Renesas/e2studio_2021_01_workspace_RZA2M_ANPR/ANPR_RZA2M_EBK/src/tensorflow_lite/third_party/flatbuffers/include/flatbuffers\flexbuffers.h ****  public:
 238:C:/Renesas/e2studio_2021_01_workspace_RZA2M_ANPR/ANPR_RZA2M_EBK/src/tensorflow_lite/third_party/flatbuffers/include/flatbuffers\flexbuffers.h ****   // Size prefix.
 239:C:/Renesas/e2studio_2021_01_workspace_RZA2M_ANPR/ANPR_RZA2M_EBK/src/tensorflow_lite/third_party/flatbuffers/include/flatbuffers\flexbuffers.h ****   String(const uint8_t *data, uint8_t byte_width) : Sized(data, byte_width) {}
 240:C:/Renesas/e2studio_2021_01_workspace_RZA2M_ANPR/ANPR_RZA2M_EBK/src/tensorflow_lite/third_party/flatbuffers/include/flatbuffers\flexbuffers.h ****   // Manual size.
 241:C:/Renesas/e2studio_2021_01_workspace_RZA2M_ANPR/ANPR_RZA2M_EBK/src/tensorflow_lite/third_party/flatbuffers/include/flatbuffers\flexbuffers.h ****   String(const uint8_t *data, uint8_t byte_width, size_t sz)
 242:C:/Renesas/e2studio_2021_01_workspace_RZA2M_ANPR/ANPR_RZA2M_EBK/src/tensorflow_lite/third_party/flatbuffers/include/flatbuffers\flexbuffers.h ****       : Sized(data, byte_width, sz) {}
 243:C:/Renesas/e2studio_2021_01_workspace_RZA2M_ANPR/ANPR_RZA2M_EBK/src/tensorflow_lite/third_party/flatbuffers/include/flatbuffers\flexbuffers.h **** 
 244:C:/Renesas/e2studio_2021_01_workspace_RZA2M_ANPR/ANPR_RZA2M_EBK/src/tensorflow_lite/third_party/flatbuffers/include/flatbuffers\flexbuffers.h ****   size_t length() const { return size(); }
 245:C:/Renesas/e2studio_2021_01_workspace_RZA2M_ANPR/ANPR_RZA2M_EBK/src/tensorflow_lite/third_party/flatbuffers/include/flatbuffers\flexbuffers.h ****   const char *c_str() const { return reinterpret_cast<const char *>(data_); }
 246:C:/Renesas/e2studio_2021_01_workspace_RZA2M_ANPR/ANPR_RZA2M_EBK/src/tensorflow_lite/third_party/flatbuffers/include/flatbuffers\flexbuffers.h ****   std::string str() const { return std::string(c_str(), size()); }
 247:C:/Renesas/e2studio_2021_01_workspace_RZA2M_ANPR/ANPR_RZA2M_EBK/src/tensorflow_lite/third_party/flatbuffers/include/flatbuffers\flexbuffers.h **** 
 248:C:/Renesas/e2studio_2021_01_workspace_RZA2M_ANPR/ANPR_RZA2M_EBK/src/tensorflow_lite/third_party/flatbuffers/include/flatbuffers\flexbuffers.h ****   static String EmptyString() {
 249:C:/Renesas/e2studio_2021_01_workspace_RZA2M_ANPR/ANPR_RZA2M_EBK/src/tensorflow_lite/third_party/flatbuffers/include/flatbuffers\flexbuffers.h ****     static const char *empty_string = "";
 250:C:/Renesas/e2studio_2021_01_workspace_RZA2M_ANPR/ANPR_RZA2M_EBK/src/tensorflow_lite/third_party/flatbuffers/include/flatbuffers\flexbuffers.h ****     return String(reinterpret_cast<const uint8_t *>(empty_string), 1, 0);
 251:C:/Renesas/e2studio_2021_01_workspace_RZA2M_ANPR/ANPR_RZA2M_EBK/src/tensorflow_lite/third_party/flatbuffers/include/flatbuffers\flexbuffers.h ****   }
 252:C:/Renesas/e2studio_2021_01_workspace_RZA2M_ANPR/ANPR_RZA2M_EBK/src/tensorflow_lite/third_party/flatbuffers/include/flatbuffers\flexbuffers.h ****   bool IsTheEmptyString() const { return data_ == EmptyString().data_; }
 253:C:/Renesas/e2studio_2021_01_workspace_RZA2M_ANPR/ANPR_RZA2M_EBK/src/tensorflow_lite/third_party/flatbuffers/include/flatbuffers\flexbuffers.h **** };
 254:C:/Renesas/e2studio_2021_01_workspace_RZA2M_ANPR/ANPR_RZA2M_EBK/src/tensorflow_lite/third_party/flatbuffers/include/flatbuffers\flexbuffers.h **** 
 255:C:/Renesas/e2studio_2021_01_workspace_RZA2M_ANPR/ANPR_RZA2M_EBK/src/tensorflow_lite/third_party/flatbuffers/include/flatbuffers\flexbuffers.h **** class Blob : public Sized {
 256:C:/Renesas/e2studio_2021_01_workspace_RZA2M_ANPR/ANPR_RZA2M_EBK/src/tensorflow_lite/third_party/flatbuffers/include/flatbuffers\flexbuffers.h ****  public:
 257:C:/Renesas/e2studio_2021_01_workspace_RZA2M_ANPR/ANPR_RZA2M_EBK/src/tensorflow_lite/third_party/flatbuffers/include/flatbuffers\flexbuffers.h ****   Blob(const uint8_t *data_buf, uint8_t byte_width)
 258:C:/Renesas/e2studio_2021_01_workspace_RZA2M_ANPR/ANPR_RZA2M_EBK/src/tensorflow_lite/third_party/flatbuffers/include/flatbuffers\flexbuffers.h ****       : Sized(data_buf, byte_width) {}
 259:C:/Renesas/e2studio_2021_01_workspace_RZA2M_ANPR/ANPR_RZA2M_EBK/src/tensorflow_lite/third_party/flatbuffers/include/flatbuffers\flexbuffers.h **** 
 260:C:/Renesas/e2studio_2021_01_workspace_RZA2M_ANPR/ANPR_RZA2M_EBK/src/tensorflow_lite/third_party/flatbuffers/include/flatbuffers\flexbuffers.h ****   static Blob EmptyBlob() {
 261:C:/Renesas/e2studio_2021_01_workspace_RZA2M_ANPR/ANPR_RZA2M_EBK/src/tensorflow_lite/third_party/flatbuffers/include/flatbuffers\flexbuffers.h ****     static const uint8_t empty_blob[] = { 0 /*len*/ };
 262:C:/Renesas/e2studio_2021_01_workspace_RZA2M_ANPR/ANPR_RZA2M_EBK/src/tensorflow_lite/third_party/flatbuffers/include/flatbuffers\flexbuffers.h ****     return Blob(empty_blob + 1, 1);
 263:C:/Renesas/e2studio_2021_01_workspace_RZA2M_ANPR/ANPR_RZA2M_EBK/src/tensorflow_lite/third_party/flatbuffers/include/flatbuffers\flexbuffers.h ****   }
 264:C:/Renesas/e2studio_2021_01_workspace_RZA2M_ANPR/ANPR_RZA2M_EBK/src/tensorflow_lite/third_party/flatbuffers/include/flatbuffers\flexbuffers.h ****   bool IsTheEmptyBlob() const { return data_ == EmptyBlob().data_; }
 265:C:/Renesas/e2studio_2021_01_workspace_RZA2M_ANPR/ANPR_RZA2M_EBK/src/tensorflow_lite/third_party/flatbuffers/include/flatbuffers\flexbuffers.h ****   const uint8_t *data() const { return data_; }
 266:C:/Renesas/e2studio_2021_01_workspace_RZA2M_ANPR/ANPR_RZA2M_EBK/src/tensorflow_lite/third_party/flatbuffers/include/flatbuffers\flexbuffers.h **** };
 267:C:/Renesas/e2studio_2021_01_workspace_RZA2M_ANPR/ANPR_RZA2M_EBK/src/tensorflow_lite/third_party/flatbuffers/include/flatbuffers\flexbuffers.h **** 
 268:C:/Renesas/e2studio_2021_01_workspace_RZA2M_ANPR/ANPR_RZA2M_EBK/src/tensorflow_lite/third_party/flatbuffers/include/flatbuffers\flexbuffers.h **** class Vector : public Sized {
 269:C:/Renesas/e2studio_2021_01_workspace_RZA2M_ANPR/ANPR_RZA2M_EBK/src/tensorflow_lite/third_party/flatbuffers/include/flatbuffers\flexbuffers.h ****  public:
 270:C:/Renesas/e2studio_2021_01_workspace_RZA2M_ANPR/ANPR_RZA2M_EBK/src/tensorflow_lite/third_party/flatbuffers/include/flatbuffers\flexbuffers.h ****   Vector(const uint8_t *data, uint8_t byte_width) : Sized(data, byte_width) {}
 271:C:/Renesas/e2studio_2021_01_workspace_RZA2M_ANPR/ANPR_RZA2M_EBK/src/tensorflow_lite/third_party/flatbuffers/include/flatbuffers\flexbuffers.h **** 
 272:C:/Renesas/e2studio_2021_01_workspace_RZA2M_ANPR/ANPR_RZA2M_EBK/src/tensorflow_lite/third_party/flatbuffers/include/flatbuffers\flexbuffers.h ****   Reference operator[](size_t i) const;
 273:C:/Renesas/e2studio_2021_01_workspace_RZA2M_ANPR/ANPR_RZA2M_EBK/src/tensorflow_lite/third_party/flatbuffers/include/flatbuffers\flexbuffers.h **** 
 274:C:/Renesas/e2studio_2021_01_workspace_RZA2M_ANPR/ANPR_RZA2M_EBK/src/tensorflow_lite/third_party/flatbuffers/include/flatbuffers\flexbuffers.h ****   static Vector EmptyVector() {
 275:C:/Renesas/e2studio_2021_01_workspace_RZA2M_ANPR/ANPR_RZA2M_EBK/src/tensorflow_lite/third_party/flatbuffers/include/flatbuffers\flexbuffers.h ****     static const uint8_t empty_vector[] = { 0 /*len*/ };
 276:C:/Renesas/e2studio_2021_01_workspace_RZA2M_ANPR/ANPR_RZA2M_EBK/src/tensorflow_lite/third_party/flatbuffers/include/flatbuffers\flexbuffers.h ****     return Vector(empty_vector + 1, 1);
 277:C:/Renesas/e2studio_2021_01_workspace_RZA2M_ANPR/ANPR_RZA2M_EBK/src/tensorflow_lite/third_party/flatbuffers/include/flatbuffers\flexbuffers.h ****   }
 278:C:/Renesas/e2studio_2021_01_workspace_RZA2M_ANPR/ANPR_RZA2M_EBK/src/tensorflow_lite/third_party/flatbuffers/include/flatbuffers\flexbuffers.h ****   bool IsTheEmptyVector() const { return data_ == EmptyVector().data_; }
 279:C:/Renesas/e2studio_2021_01_workspace_RZA2M_ANPR/ANPR_RZA2M_EBK/src/tensorflow_lite/third_party/flatbuffers/include/flatbuffers\flexbuffers.h **** };
 280:C:/Renesas/e2studio_2021_01_workspace_RZA2M_ANPR/ANPR_RZA2M_EBK/src/tensorflow_lite/third_party/flatbuffers/include/flatbuffers\flexbuffers.h **** 
 281:C:/Renesas/e2studio_2021_01_workspace_RZA2M_ANPR/ANPR_RZA2M_EBK/src/tensorflow_lite/third_party/flatbuffers/include/flatbuffers\flexbuffers.h **** class TypedVector : public Sized {
 282:C:/Renesas/e2studio_2021_01_workspace_RZA2M_ANPR/ANPR_RZA2M_EBK/src/tensorflow_lite/third_party/flatbuffers/include/flatbuffers\flexbuffers.h ****  public:
 283:C:/Renesas/e2studio_2021_01_workspace_RZA2M_ANPR/ANPR_RZA2M_EBK/src/tensorflow_lite/third_party/flatbuffers/include/flatbuffers\flexbuffers.h ****   TypedVector(const uint8_t *data, uint8_t byte_width, Type element_type)
 284:C:/Renesas/e2studio_2021_01_workspace_RZA2M_ANPR/ANPR_RZA2M_EBK/src/tensorflow_lite/third_party/flatbuffers/include/flatbuffers\flexbuffers.h ****       : Sized(data, byte_width), type_(element_type) {}
 285:C:/Renesas/e2studio_2021_01_workspace_RZA2M_ANPR/ANPR_RZA2M_EBK/src/tensorflow_lite/third_party/flatbuffers/include/flatbuffers\flexbuffers.h **** 
 286:C:/Renesas/e2studio_2021_01_workspace_RZA2M_ANPR/ANPR_RZA2M_EBK/src/tensorflow_lite/third_party/flatbuffers/include/flatbuffers\flexbuffers.h ****   Reference operator[](size_t i) const;
 287:C:/Renesas/e2studio_2021_01_workspace_RZA2M_ANPR/ANPR_RZA2M_EBK/src/tensorflow_lite/third_party/flatbuffers/include/flatbuffers\flexbuffers.h **** 
 288:C:/Renesas/e2studio_2021_01_workspace_RZA2M_ANPR/ANPR_RZA2M_EBK/src/tensorflow_lite/third_party/flatbuffers/include/flatbuffers\flexbuffers.h ****   static TypedVector EmptyTypedVector() {
 289:C:/Renesas/e2studio_2021_01_workspace_RZA2M_ANPR/ANPR_RZA2M_EBK/src/tensorflow_lite/third_party/flatbuffers/include/flatbuffers\flexbuffers.h ****     static const uint8_t empty_typed_vector[] = { 0 /*len*/ };
 290:C:/Renesas/e2studio_2021_01_workspace_RZA2M_ANPR/ANPR_RZA2M_EBK/src/tensorflow_lite/third_party/flatbuffers/include/flatbuffers\flexbuffers.h ****     return TypedVector(empty_typed_vector + 1, 1, FBT_INT);
 291:C:/Renesas/e2studio_2021_01_workspace_RZA2M_ANPR/ANPR_RZA2M_EBK/src/tensorflow_lite/third_party/flatbuffers/include/flatbuffers\flexbuffers.h ****   }
 292:C:/Renesas/e2studio_2021_01_workspace_RZA2M_ANPR/ANPR_RZA2M_EBK/src/tensorflow_lite/third_party/flatbuffers/include/flatbuffers\flexbuffers.h ****   bool IsTheEmptyVector() const {
 293:C:/Renesas/e2studio_2021_01_workspace_RZA2M_ANPR/ANPR_RZA2M_EBK/src/tensorflow_lite/third_party/flatbuffers/include/flatbuffers\flexbuffers.h ****     return data_ == TypedVector::EmptyTypedVector().data_;
 294:C:/Renesas/e2studio_2021_01_workspace_RZA2M_ANPR/ANPR_RZA2M_EBK/src/tensorflow_lite/third_party/flatbuffers/include/flatbuffers\flexbuffers.h ****   }
 295:C:/Renesas/e2studio_2021_01_workspace_RZA2M_ANPR/ANPR_RZA2M_EBK/src/tensorflow_lite/third_party/flatbuffers/include/flatbuffers\flexbuffers.h **** 
 296:C:/Renesas/e2studio_2021_01_workspace_RZA2M_ANPR/ANPR_RZA2M_EBK/src/tensorflow_lite/third_party/flatbuffers/include/flatbuffers\flexbuffers.h ****   Type ElementType() { return type_; }
 297:C:/Renesas/e2studio_2021_01_workspace_RZA2M_ANPR/ANPR_RZA2M_EBK/src/tensorflow_lite/third_party/flatbuffers/include/flatbuffers\flexbuffers.h **** 
 298:C:/Renesas/e2studio_2021_01_workspace_RZA2M_ANPR/ANPR_RZA2M_EBK/src/tensorflow_lite/third_party/flatbuffers/include/flatbuffers\flexbuffers.h ****   friend Reference;
 299:C:/Renesas/e2studio_2021_01_workspace_RZA2M_ANPR/ANPR_RZA2M_EBK/src/tensorflow_lite/third_party/flatbuffers/include/flatbuffers\flexbuffers.h **** 
 300:C:/Renesas/e2studio_2021_01_workspace_RZA2M_ANPR/ANPR_RZA2M_EBK/src/tensorflow_lite/third_party/flatbuffers/include/flatbuffers\flexbuffers.h ****  private:
 301:C:/Renesas/e2studio_2021_01_workspace_RZA2M_ANPR/ANPR_RZA2M_EBK/src/tensorflow_lite/third_party/flatbuffers/include/flatbuffers\flexbuffers.h ****   Type type_;
 302:C:/Renesas/e2studio_2021_01_workspace_RZA2M_ANPR/ANPR_RZA2M_EBK/src/tensorflow_lite/third_party/flatbuffers/include/flatbuffers\flexbuffers.h **** 
 303:C:/Renesas/e2studio_2021_01_workspace_RZA2M_ANPR/ANPR_RZA2M_EBK/src/tensorflow_lite/third_party/flatbuffers/include/flatbuffers\flexbuffers.h ****   friend Map;
 304:C:/Renesas/e2studio_2021_01_workspace_RZA2M_ANPR/ANPR_RZA2M_EBK/src/tensorflow_lite/third_party/flatbuffers/include/flatbuffers\flexbuffers.h **** };
 305:C:/Renesas/e2studio_2021_01_workspace_RZA2M_ANPR/ANPR_RZA2M_EBK/src/tensorflow_lite/third_party/flatbuffers/include/flatbuffers\flexbuffers.h **** 
 306:C:/Renesas/e2studio_2021_01_workspace_RZA2M_ANPR/ANPR_RZA2M_EBK/src/tensorflow_lite/third_party/flatbuffers/include/flatbuffers\flexbuffers.h **** class FixedTypedVector : public Object {
 307:C:/Renesas/e2studio_2021_01_workspace_RZA2M_ANPR/ANPR_RZA2M_EBK/src/tensorflow_lite/third_party/flatbuffers/include/flatbuffers\flexbuffers.h ****  public:
 308:C:/Renesas/e2studio_2021_01_workspace_RZA2M_ANPR/ANPR_RZA2M_EBK/src/tensorflow_lite/third_party/flatbuffers/include/flatbuffers\flexbuffers.h ****   FixedTypedVector(const uint8_t *data, uint8_t byte_width, Type element_type,
 309:C:/Renesas/e2studio_2021_01_workspace_RZA2M_ANPR/ANPR_RZA2M_EBK/src/tensorflow_lite/third_party/flatbuffers/include/flatbuffers\flexbuffers.h ****                    uint8_t len)
 310:C:/Renesas/e2studio_2021_01_workspace_RZA2M_ANPR/ANPR_RZA2M_EBK/src/tensorflow_lite/third_party/flatbuffers/include/flatbuffers\flexbuffers.h ****       : Object(data, byte_width), type_(element_type), len_(len) {}
 311:C:/Renesas/e2studio_2021_01_workspace_RZA2M_ANPR/ANPR_RZA2M_EBK/src/tensorflow_lite/third_party/flatbuffers/include/flatbuffers\flexbuffers.h **** 
 312:C:/Renesas/e2studio_2021_01_workspace_RZA2M_ANPR/ANPR_RZA2M_EBK/src/tensorflow_lite/third_party/flatbuffers/include/flatbuffers\flexbuffers.h ****   Reference operator[](size_t i) const;
 313:C:/Renesas/e2studio_2021_01_workspace_RZA2M_ANPR/ANPR_RZA2M_EBK/src/tensorflow_lite/third_party/flatbuffers/include/flatbuffers\flexbuffers.h **** 
 314:C:/Renesas/e2studio_2021_01_workspace_RZA2M_ANPR/ANPR_RZA2M_EBK/src/tensorflow_lite/third_party/flatbuffers/include/flatbuffers\flexbuffers.h ****   static FixedTypedVector EmptyFixedTypedVector() {
 315:C:/Renesas/e2studio_2021_01_workspace_RZA2M_ANPR/ANPR_RZA2M_EBK/src/tensorflow_lite/third_party/flatbuffers/include/flatbuffers\flexbuffers.h ****     static const uint8_t fixed_empty_vector[] = { 0 /* unused */ };
 316:C:/Renesas/e2studio_2021_01_workspace_RZA2M_ANPR/ANPR_RZA2M_EBK/src/tensorflow_lite/third_party/flatbuffers/include/flatbuffers\flexbuffers.h ****     return FixedTypedVector(fixed_empty_vector, 1, FBT_INT, 0);
 317:C:/Renesas/e2studio_2021_01_workspace_RZA2M_ANPR/ANPR_RZA2M_EBK/src/tensorflow_lite/third_party/flatbuffers/include/flatbuffers\flexbuffers.h ****   }
 318:C:/Renesas/e2studio_2021_01_workspace_RZA2M_ANPR/ANPR_RZA2M_EBK/src/tensorflow_lite/third_party/flatbuffers/include/flatbuffers\flexbuffers.h ****   bool IsTheEmptyFixedTypedVector() const {
 319:C:/Renesas/e2studio_2021_01_workspace_RZA2M_ANPR/ANPR_RZA2M_EBK/src/tensorflow_lite/third_party/flatbuffers/include/flatbuffers\flexbuffers.h ****     return data_ == FixedTypedVector::EmptyFixedTypedVector().data_;
 320:C:/Renesas/e2studio_2021_01_workspace_RZA2M_ANPR/ANPR_RZA2M_EBK/src/tensorflow_lite/third_party/flatbuffers/include/flatbuffers\flexbuffers.h ****   }
 321:C:/Renesas/e2studio_2021_01_workspace_RZA2M_ANPR/ANPR_RZA2M_EBK/src/tensorflow_lite/third_party/flatbuffers/include/flatbuffers\flexbuffers.h **** 
 322:C:/Renesas/e2studio_2021_01_workspace_RZA2M_ANPR/ANPR_RZA2M_EBK/src/tensorflow_lite/third_party/flatbuffers/include/flatbuffers\flexbuffers.h ****   Type ElementType() { return type_; }
 323:C:/Renesas/e2studio_2021_01_workspace_RZA2M_ANPR/ANPR_RZA2M_EBK/src/tensorflow_lite/third_party/flatbuffers/include/flatbuffers\flexbuffers.h ****   uint8_t size() { return len_; }
 324:C:/Renesas/e2studio_2021_01_workspace_RZA2M_ANPR/ANPR_RZA2M_EBK/src/tensorflow_lite/third_party/flatbuffers/include/flatbuffers\flexbuffers.h **** 
 325:C:/Renesas/e2studio_2021_01_workspace_RZA2M_ANPR/ANPR_RZA2M_EBK/src/tensorflow_lite/third_party/flatbuffers/include/flatbuffers\flexbuffers.h ****  private:
 326:C:/Renesas/e2studio_2021_01_workspace_RZA2M_ANPR/ANPR_RZA2M_EBK/src/tensorflow_lite/third_party/flatbuffers/include/flatbuffers\flexbuffers.h ****   Type type_;
 327:C:/Renesas/e2studio_2021_01_workspace_RZA2M_ANPR/ANPR_RZA2M_EBK/src/tensorflow_lite/third_party/flatbuffers/include/flatbuffers\flexbuffers.h ****   uint8_t len_;
 328:C:/Renesas/e2studio_2021_01_workspace_RZA2M_ANPR/ANPR_RZA2M_EBK/src/tensorflow_lite/third_party/flatbuffers/include/flatbuffers\flexbuffers.h **** };
 329:C:/Renesas/e2studio_2021_01_workspace_RZA2M_ANPR/ANPR_RZA2M_EBK/src/tensorflow_lite/third_party/flatbuffers/include/flatbuffers\flexbuffers.h **** 
 330:C:/Renesas/e2studio_2021_01_workspace_RZA2M_ANPR/ANPR_RZA2M_EBK/src/tensorflow_lite/third_party/flatbuffers/include/flatbuffers\flexbuffers.h **** class Map : public Vector {
 331:C:/Renesas/e2studio_2021_01_workspace_RZA2M_ANPR/ANPR_RZA2M_EBK/src/tensorflow_lite/third_party/flatbuffers/include/flatbuffers\flexbuffers.h ****  public:
 332:C:/Renesas/e2studio_2021_01_workspace_RZA2M_ANPR/ANPR_RZA2M_EBK/src/tensorflow_lite/third_party/flatbuffers/include/flatbuffers\flexbuffers.h ****   Map(const uint8_t *data, uint8_t byte_width) : Vector(data, byte_width) {}
 333:C:/Renesas/e2studio_2021_01_workspace_RZA2M_ANPR/ANPR_RZA2M_EBK/src/tensorflow_lite/third_party/flatbuffers/include/flatbuffers\flexbuffers.h **** 
 334:C:/Renesas/e2studio_2021_01_workspace_RZA2M_ANPR/ANPR_RZA2M_EBK/src/tensorflow_lite/third_party/flatbuffers/include/flatbuffers\flexbuffers.h ****   Reference operator[](const char *key) const;
 335:C:/Renesas/e2studio_2021_01_workspace_RZA2M_ANPR/ANPR_RZA2M_EBK/src/tensorflow_lite/third_party/flatbuffers/include/flatbuffers\flexbuffers.h ****   Reference operator[](const std::string &key) const;
 336:C:/Renesas/e2studio_2021_01_workspace_RZA2M_ANPR/ANPR_RZA2M_EBK/src/tensorflow_lite/third_party/flatbuffers/include/flatbuffers\flexbuffers.h **** 
 337:C:/Renesas/e2studio_2021_01_workspace_RZA2M_ANPR/ANPR_RZA2M_EBK/src/tensorflow_lite/third_party/flatbuffers/include/flatbuffers\flexbuffers.h ****   Vector Values() const { return Vector(data_, byte_width_); }
 338:C:/Renesas/e2studio_2021_01_workspace_RZA2M_ANPR/ANPR_RZA2M_EBK/src/tensorflow_lite/third_party/flatbuffers/include/flatbuffers\flexbuffers.h **** 
 339:C:/Renesas/e2studio_2021_01_workspace_RZA2M_ANPR/ANPR_RZA2M_EBK/src/tensorflow_lite/third_party/flatbuffers/include/flatbuffers\flexbuffers.h ****   TypedVector Keys() const {
 340:C:/Renesas/e2studio_2021_01_workspace_RZA2M_ANPR/ANPR_RZA2M_EBK/src/tensorflow_lite/third_party/flatbuffers/include/flatbuffers\flexbuffers.h ****     const size_t num_prefixed_fields = 3;
 341:C:/Renesas/e2studio_2021_01_workspace_RZA2M_ANPR/ANPR_RZA2M_EBK/src/tensorflow_lite/third_party/flatbuffers/include/flatbuffers\flexbuffers.h ****     auto keys_offset = data_ - byte_width_ * num_prefixed_fields;
 342:C:/Renesas/e2studio_2021_01_workspace_RZA2M_ANPR/ANPR_RZA2M_EBK/src/tensorflow_lite/third_party/flatbuffers/include/flatbuffers\flexbuffers.h ****     return TypedVector(Indirect(keys_offset, byte_width_),
 343:C:/Renesas/e2studio_2021_01_workspace_RZA2M_ANPR/ANPR_RZA2M_EBK/src/tensorflow_lite/third_party/flatbuffers/include/flatbuffers\flexbuffers.h ****                        static_cast<uint8_t>(
 344:C:/Renesas/e2studio_2021_01_workspace_RZA2M_ANPR/ANPR_RZA2M_EBK/src/tensorflow_lite/third_party/flatbuffers/include/flatbuffers\flexbuffers.h ****                            ReadUInt64(keys_offset + byte_width_, byte_width_)),
 345:C:/Renesas/e2studio_2021_01_workspace_RZA2M_ANPR/ANPR_RZA2M_EBK/src/tensorflow_lite/third_party/flatbuffers/include/flatbuffers\flexbuffers.h ****                        FBT_KEY);
 346:C:/Renesas/e2studio_2021_01_workspace_RZA2M_ANPR/ANPR_RZA2M_EBK/src/tensorflow_lite/third_party/flatbuffers/include/flatbuffers\flexbuffers.h ****   }
 347:C:/Renesas/e2studio_2021_01_workspace_RZA2M_ANPR/ANPR_RZA2M_EBK/src/tensorflow_lite/third_party/flatbuffers/include/flatbuffers\flexbuffers.h **** 
 348:C:/Renesas/e2studio_2021_01_workspace_RZA2M_ANPR/ANPR_RZA2M_EBK/src/tensorflow_lite/third_party/flatbuffers/include/flatbuffers\flexbuffers.h ****   static Map EmptyMap() {
 349:C:/Renesas/e2studio_2021_01_workspace_RZA2M_ANPR/ANPR_RZA2M_EBK/src/tensorflow_lite/third_party/flatbuffers/include/flatbuffers\flexbuffers.h ****     static const uint8_t empty_map[] = {
 350:C:/Renesas/e2studio_2021_01_workspace_RZA2M_ANPR/ANPR_RZA2M_EBK/src/tensorflow_lite/third_party/flatbuffers/include/flatbuffers\flexbuffers.h ****       0 /*keys_len*/, 0 /*keys_offset*/, 1 /*keys_width*/, 0 /*len*/
 351:C:/Renesas/e2studio_2021_01_workspace_RZA2M_ANPR/ANPR_RZA2M_EBK/src/tensorflow_lite/third_party/flatbuffers/include/flatbuffers\flexbuffers.h ****     };
 352:C:/Renesas/e2studio_2021_01_workspace_RZA2M_ANPR/ANPR_RZA2M_EBK/src/tensorflow_lite/third_party/flatbuffers/include/flatbuffers\flexbuffers.h ****     return Map(empty_map + 4, 1);
 353:C:/Renesas/e2studio_2021_01_workspace_RZA2M_ANPR/ANPR_RZA2M_EBK/src/tensorflow_lite/third_party/flatbuffers/include/flatbuffers\flexbuffers.h ****   }
 354:C:/Renesas/e2studio_2021_01_workspace_RZA2M_ANPR/ANPR_RZA2M_EBK/src/tensorflow_lite/third_party/flatbuffers/include/flatbuffers\flexbuffers.h **** 
 355:C:/Renesas/e2studio_2021_01_workspace_RZA2M_ANPR/ANPR_RZA2M_EBK/src/tensorflow_lite/third_party/flatbuffers/include/flatbuffers\flexbuffers.h ****   bool IsTheEmptyMap() const { return data_ == EmptyMap().data_; }
 356:C:/Renesas/e2studio_2021_01_workspace_RZA2M_ANPR/ANPR_RZA2M_EBK/src/tensorflow_lite/third_party/flatbuffers/include/flatbuffers\flexbuffers.h **** };
 357:C:/Renesas/e2studio_2021_01_workspace_RZA2M_ANPR/ANPR_RZA2M_EBK/src/tensorflow_lite/third_party/flatbuffers/include/flatbuffers\flexbuffers.h **** 
 358:C:/Renesas/e2studio_2021_01_workspace_RZA2M_ANPR/ANPR_RZA2M_EBK/src/tensorflow_lite/third_party/flatbuffers/include/flatbuffers\flexbuffers.h **** template<typename T>
 359:C:/Renesas/e2studio_2021_01_workspace_RZA2M_ANPR/ANPR_RZA2M_EBK/src/tensorflow_lite/third_party/flatbuffers/include/flatbuffers\flexbuffers.h **** void AppendToString(std::string &s, T &&v, bool keys_quoted) {
 360:C:/Renesas/e2studio_2021_01_workspace_RZA2M_ANPR/ANPR_RZA2M_EBK/src/tensorflow_lite/third_party/flatbuffers/include/flatbuffers\flexbuffers.h ****   s += "[ ";
 361:C:/Renesas/e2studio_2021_01_workspace_RZA2M_ANPR/ANPR_RZA2M_EBK/src/tensorflow_lite/third_party/flatbuffers/include/flatbuffers\flexbuffers.h ****   for (size_t i = 0; i < v.size(); i++) {
 362:C:/Renesas/e2studio_2021_01_workspace_RZA2M_ANPR/ANPR_RZA2M_EBK/src/tensorflow_lite/third_party/flatbuffers/include/flatbuffers\flexbuffers.h ****     if (i) s += ", ";
 363:C:/Renesas/e2studio_2021_01_workspace_RZA2M_ANPR/ANPR_RZA2M_EBK/src/tensorflow_lite/third_party/flatbuffers/include/flatbuffers\flexbuffers.h ****     v[i].ToString(true, keys_quoted, s);
 364:C:/Renesas/e2studio_2021_01_workspace_RZA2M_ANPR/ANPR_RZA2M_EBK/src/tensorflow_lite/third_party/flatbuffers/include/flatbuffers\flexbuffers.h ****   }
 365:C:/Renesas/e2studio_2021_01_workspace_RZA2M_ANPR/ANPR_RZA2M_EBK/src/tensorflow_lite/third_party/flatbuffers/include/flatbuffers\flexbuffers.h ****   s += " ]";
 366:C:/Renesas/e2studio_2021_01_workspace_RZA2M_ANPR/ANPR_RZA2M_EBK/src/tensorflow_lite/third_party/flatbuffers/include/flatbuffers\flexbuffers.h **** }
 367:C:/Renesas/e2studio_2021_01_workspace_RZA2M_ANPR/ANPR_RZA2M_EBK/src/tensorflow_lite/third_party/flatbuffers/include/flatbuffers\flexbuffers.h **** 
 368:C:/Renesas/e2studio_2021_01_workspace_RZA2M_ANPR/ANPR_RZA2M_EBK/src/tensorflow_lite/third_party/flatbuffers/include/flatbuffers\flexbuffers.h **** class Reference {
 369:C:/Renesas/e2studio_2021_01_workspace_RZA2M_ANPR/ANPR_RZA2M_EBK/src/tensorflow_lite/third_party/flatbuffers/include/flatbuffers\flexbuffers.h ****  public:
 370:C:/Renesas/e2studio_2021_01_workspace_RZA2M_ANPR/ANPR_RZA2M_EBK/src/tensorflow_lite/third_party/flatbuffers/include/flatbuffers\flexbuffers.h ****   Reference()
 371:C:/Renesas/e2studio_2021_01_workspace_RZA2M_ANPR/ANPR_RZA2M_EBK/src/tensorflow_lite/third_party/flatbuffers/include/flatbuffers\flexbuffers.h ****       : data_(nullptr),
 372:C:/Renesas/e2studio_2021_01_workspace_RZA2M_ANPR/ANPR_RZA2M_EBK/src/tensorflow_lite/third_party/flatbuffers/include/flatbuffers\flexbuffers.h ****         parent_width_(0),
 373:C:/Renesas/e2studio_2021_01_workspace_RZA2M_ANPR/ANPR_RZA2M_EBK/src/tensorflow_lite/third_party/flatbuffers/include/flatbuffers\flexbuffers.h ****         byte_width_(BIT_WIDTH_8),
 374:C:/Renesas/e2studio_2021_01_workspace_RZA2M_ANPR/ANPR_RZA2M_EBK/src/tensorflow_lite/third_party/flatbuffers/include/flatbuffers\flexbuffers.h ****         type_(FBT_NULL) {}
 375:C:/Renesas/e2studio_2021_01_workspace_RZA2M_ANPR/ANPR_RZA2M_EBK/src/tensorflow_lite/third_party/flatbuffers/include/flatbuffers\flexbuffers.h **** 
 376:C:/Renesas/e2studio_2021_01_workspace_RZA2M_ANPR/ANPR_RZA2M_EBK/src/tensorflow_lite/third_party/flatbuffers/include/flatbuffers\flexbuffers.h ****   Reference(const uint8_t *data, uint8_t parent_width, uint8_t byte_width,
 377:C:/Renesas/e2studio_2021_01_workspace_RZA2M_ANPR/ANPR_RZA2M_EBK/src/tensorflow_lite/third_party/flatbuffers/include/flatbuffers\flexbuffers.h ****             Type type)
 378:C:/Renesas/e2studio_2021_01_workspace_RZA2M_ANPR/ANPR_RZA2M_EBK/src/tensorflow_lite/third_party/flatbuffers/include/flatbuffers\flexbuffers.h ****       : data_(data),
 379:C:/Renesas/e2studio_2021_01_workspace_RZA2M_ANPR/ANPR_RZA2M_EBK/src/tensorflow_lite/third_party/flatbuffers/include/flatbuffers\flexbuffers.h ****         parent_width_(parent_width),
 380:C:/Renesas/e2studio_2021_01_workspace_RZA2M_ANPR/ANPR_RZA2M_EBK/src/tensorflow_lite/third_party/flatbuffers/include/flatbuffers\flexbuffers.h ****         byte_width_(byte_width),
 381:C:/Renesas/e2studio_2021_01_workspace_RZA2M_ANPR/ANPR_RZA2M_EBK/src/tensorflow_lite/third_party/flatbuffers/include/flatbuffers\flexbuffers.h ****         type_(type) {}
 382:C:/Renesas/e2studio_2021_01_workspace_RZA2M_ANPR/ANPR_RZA2M_EBK/src/tensorflow_lite/third_party/flatbuffers/include/flatbuffers\flexbuffers.h **** 
 383:C:/Renesas/e2studio_2021_01_workspace_RZA2M_ANPR/ANPR_RZA2M_EBK/src/tensorflow_lite/third_party/flatbuffers/include/flatbuffers\flexbuffers.h ****   Reference(const uint8_t *data, uint8_t parent_width, uint8_t packed_type)
 384:C:/Renesas/e2studio_2021_01_workspace_RZA2M_ANPR/ANPR_RZA2M_EBK/src/tensorflow_lite/third_party/flatbuffers/include/flatbuffers\flexbuffers.h ****       : data_(data), parent_width_(parent_width) {
 385:C:/Renesas/e2studio_2021_01_workspace_RZA2M_ANPR/ANPR_RZA2M_EBK/src/tensorflow_lite/third_party/flatbuffers/include/flatbuffers\flexbuffers.h ****     byte_width_ = 1U << static_cast<BitWidth>(packed_type & 3);
 386:C:/Renesas/e2studio_2021_01_workspace_RZA2M_ANPR/ANPR_RZA2M_EBK/src/tensorflow_lite/third_party/flatbuffers/include/flatbuffers\flexbuffers.h ****     type_ = static_cast<Type>(packed_type >> 2);
 387:C:/Renesas/e2studio_2021_01_workspace_RZA2M_ANPR/ANPR_RZA2M_EBK/src/tensorflow_lite/third_party/flatbuffers/include/flatbuffers\flexbuffers.h ****   }
 388:C:/Renesas/e2studio_2021_01_workspace_RZA2M_ANPR/ANPR_RZA2M_EBK/src/tensorflow_lite/third_party/flatbuffers/include/flatbuffers\flexbuffers.h **** 
 389:C:/Renesas/e2studio_2021_01_workspace_RZA2M_ANPR/ANPR_RZA2M_EBK/src/tensorflow_lite/third_party/flatbuffers/include/flatbuffers\flexbuffers.h ****   Type GetType() const { return type_; }
 390:C:/Renesas/e2studio_2021_01_workspace_RZA2M_ANPR/ANPR_RZA2M_EBK/src/tensorflow_lite/third_party/flatbuffers/include/flatbuffers\flexbuffers.h **** 
 391:C:/Renesas/e2studio_2021_01_workspace_RZA2M_ANPR/ANPR_RZA2M_EBK/src/tensorflow_lite/third_party/flatbuffers/include/flatbuffers\flexbuffers.h ****   bool IsNull() const { return type_ == FBT_NULL; }
 392:C:/Renesas/e2studio_2021_01_workspace_RZA2M_ANPR/ANPR_RZA2M_EBK/src/tensorflow_lite/third_party/flatbuffers/include/flatbuffers\flexbuffers.h ****   bool IsBool() const { return type_ == FBT_BOOL; }
 393:C:/Renesas/e2studio_2021_01_workspace_RZA2M_ANPR/ANPR_RZA2M_EBK/src/tensorflow_lite/third_party/flatbuffers/include/flatbuffers\flexbuffers.h ****   bool IsInt() const { return type_ == FBT_INT || type_ == FBT_INDIRECT_INT; }
 394:C:/Renesas/e2studio_2021_01_workspace_RZA2M_ANPR/ANPR_RZA2M_EBK/src/tensorflow_lite/third_party/flatbuffers/include/flatbuffers\flexbuffers.h ****   bool IsUInt() const {
 395:C:/Renesas/e2studio_2021_01_workspace_RZA2M_ANPR/ANPR_RZA2M_EBK/src/tensorflow_lite/third_party/flatbuffers/include/flatbuffers\flexbuffers.h ****     return type_ == FBT_UINT || type_ == FBT_INDIRECT_UINT;
 396:C:/Renesas/e2studio_2021_01_workspace_RZA2M_ANPR/ANPR_RZA2M_EBK/src/tensorflow_lite/third_party/flatbuffers/include/flatbuffers\flexbuffers.h ****   }
 397:C:/Renesas/e2studio_2021_01_workspace_RZA2M_ANPR/ANPR_RZA2M_EBK/src/tensorflow_lite/third_party/flatbuffers/include/flatbuffers\flexbuffers.h ****   bool IsIntOrUint() const { return IsInt() || IsUInt(); }
 398:C:/Renesas/e2studio_2021_01_workspace_RZA2M_ANPR/ANPR_RZA2M_EBK/src/tensorflow_lite/third_party/flatbuffers/include/flatbuffers\flexbuffers.h ****   bool IsFloat() const {
 399:C:/Renesas/e2studio_2021_01_workspace_RZA2M_ANPR/ANPR_RZA2M_EBK/src/tensorflow_lite/third_party/flatbuffers/include/flatbuffers\flexbuffers.h ****     return type_ == FBT_FLOAT || type_ == FBT_INDIRECT_FLOAT;
 400:C:/Renesas/e2studio_2021_01_workspace_RZA2M_ANPR/ANPR_RZA2M_EBK/src/tensorflow_lite/third_party/flatbuffers/include/flatbuffers\flexbuffers.h ****   }
 401:C:/Renesas/e2studio_2021_01_workspace_RZA2M_ANPR/ANPR_RZA2M_EBK/src/tensorflow_lite/third_party/flatbuffers/include/flatbuffers\flexbuffers.h ****   bool IsNumeric() const { return IsIntOrUint() || IsFloat(); }
 402:C:/Renesas/e2studio_2021_01_workspace_RZA2M_ANPR/ANPR_RZA2M_EBK/src/tensorflow_lite/third_party/flatbuffers/include/flatbuffers\flexbuffers.h ****   bool IsString() const { return type_ == FBT_STRING; }
 403:C:/Renesas/e2studio_2021_01_workspace_RZA2M_ANPR/ANPR_RZA2M_EBK/src/tensorflow_lite/third_party/flatbuffers/include/flatbuffers\flexbuffers.h ****   bool IsKey() const { return type_ == FBT_KEY; }
 404:C:/Renesas/e2studio_2021_01_workspace_RZA2M_ANPR/ANPR_RZA2M_EBK/src/tensorflow_lite/third_party/flatbuffers/include/flatbuffers\flexbuffers.h ****   bool IsVector() const { return type_ == FBT_VECTOR || type_ == FBT_MAP; }
 405:C:/Renesas/e2studio_2021_01_workspace_RZA2M_ANPR/ANPR_RZA2M_EBK/src/tensorflow_lite/third_party/flatbuffers/include/flatbuffers\flexbuffers.h ****   bool IsUntypedVector() const { return type_ == FBT_VECTOR; }
 406:C:/Renesas/e2studio_2021_01_workspace_RZA2M_ANPR/ANPR_RZA2M_EBK/src/tensorflow_lite/third_party/flatbuffers/include/flatbuffers\flexbuffers.h ****   bool IsTypedVector() const { return flexbuffers::IsTypedVector(type_); }
 407:C:/Renesas/e2studio_2021_01_workspace_RZA2M_ANPR/ANPR_RZA2M_EBK/src/tensorflow_lite/third_party/flatbuffers/include/flatbuffers\flexbuffers.h ****   bool IsFixedTypedVector() const {
 408:C:/Renesas/e2studio_2021_01_workspace_RZA2M_ANPR/ANPR_RZA2M_EBK/src/tensorflow_lite/third_party/flatbuffers/include/flatbuffers\flexbuffers.h ****     return flexbuffers::IsFixedTypedVector(type_);
 409:C:/Renesas/e2studio_2021_01_workspace_RZA2M_ANPR/ANPR_RZA2M_EBK/src/tensorflow_lite/third_party/flatbuffers/include/flatbuffers\flexbuffers.h ****   }
 410:C:/Renesas/e2studio_2021_01_workspace_RZA2M_ANPR/ANPR_RZA2M_EBK/src/tensorflow_lite/third_party/flatbuffers/include/flatbuffers\flexbuffers.h ****   bool IsAnyVector() const {
 411:C:/Renesas/e2studio_2021_01_workspace_RZA2M_ANPR/ANPR_RZA2M_EBK/src/tensorflow_lite/third_party/flatbuffers/include/flatbuffers\flexbuffers.h ****     return (IsTypedVector() || IsFixedTypedVector() || IsVector());
 412:C:/Renesas/e2studio_2021_01_workspace_RZA2M_ANPR/ANPR_RZA2M_EBK/src/tensorflow_lite/third_party/flatbuffers/include/flatbuffers\flexbuffers.h ****   }
 413:C:/Renesas/e2studio_2021_01_workspace_RZA2M_ANPR/ANPR_RZA2M_EBK/src/tensorflow_lite/third_party/flatbuffers/include/flatbuffers\flexbuffers.h ****   bool IsMap() const { return type_ == FBT_MAP; }
 414:C:/Renesas/e2studio_2021_01_workspace_RZA2M_ANPR/ANPR_RZA2M_EBK/src/tensorflow_lite/third_party/flatbuffers/include/flatbuffers\flexbuffers.h ****   bool IsBlob() const { return type_ == FBT_BLOB; }
 415:C:/Renesas/e2studio_2021_01_workspace_RZA2M_ANPR/ANPR_RZA2M_EBK/src/tensorflow_lite/third_party/flatbuffers/include/flatbuffers\flexbuffers.h ****   bool AsBool() const {
 416:C:/Renesas/e2studio_2021_01_workspace_RZA2M_ANPR/ANPR_RZA2M_EBK/src/tensorflow_lite/third_party/flatbuffers/include/flatbuffers\flexbuffers.h ****     return (type_ == FBT_BOOL ? ReadUInt64(data_, parent_width_)
 417:C:/Renesas/e2studio_2021_01_workspace_RZA2M_ANPR/ANPR_RZA2M_EBK/src/tensorflow_lite/third_party/flatbuffers/include/flatbuffers\flexbuffers.h ****                               : AsUInt64()) != 0;
 418:C:/Renesas/e2studio_2021_01_workspace_RZA2M_ANPR/ANPR_RZA2M_EBK/src/tensorflow_lite/third_party/flatbuffers/include/flatbuffers\flexbuffers.h ****   }
 419:C:/Renesas/e2studio_2021_01_workspace_RZA2M_ANPR/ANPR_RZA2M_EBK/src/tensorflow_lite/third_party/flatbuffers/include/flatbuffers\flexbuffers.h **** 
 420:C:/Renesas/e2studio_2021_01_workspace_RZA2M_ANPR/ANPR_RZA2M_EBK/src/tensorflow_lite/third_party/flatbuffers/include/flatbuffers\flexbuffers.h ****   // Reads any type as a int64_t. Never fails, does most sensible conversion.
 421:C:/Renesas/e2studio_2021_01_workspace_RZA2M_ANPR/ANPR_RZA2M_EBK/src/tensorflow_lite/third_party/flatbuffers/include/flatbuffers\flexbuffers.h ****   // Truncates floats, strings are attempted to be parsed for a number,
 422:C:/Renesas/e2studio_2021_01_workspace_RZA2M_ANPR/ANPR_RZA2M_EBK/src/tensorflow_lite/third_party/flatbuffers/include/flatbuffers\flexbuffers.h ****   // vectors/maps return their size. Returns 0 if all else fails.
 423:C:/Renesas/e2studio_2021_01_workspace_RZA2M_ANPR/ANPR_RZA2M_EBK/src/tensorflow_lite/third_party/flatbuffers/include/flatbuffers\flexbuffers.h ****   int64_t AsInt64() const {
 424:C:/Renesas/e2studio_2021_01_workspace_RZA2M_ANPR/ANPR_RZA2M_EBK/src/tensorflow_lite/third_party/flatbuffers/include/flatbuffers\flexbuffers.h ****     if (type_ == FBT_INT) {
 425:C:/Renesas/e2studio_2021_01_workspace_RZA2M_ANPR/ANPR_RZA2M_EBK/src/tensorflow_lite/third_party/flatbuffers/include/flatbuffers\flexbuffers.h ****       // A fast path for the common case.
 426:C:/Renesas/e2studio_2021_01_workspace_RZA2M_ANPR/ANPR_RZA2M_EBK/src/tensorflow_lite/third_party/flatbuffers/include/flatbuffers\flexbuffers.h ****       return ReadInt64(data_, parent_width_);
 427:C:/Renesas/e2studio_2021_01_workspace_RZA2M_ANPR/ANPR_RZA2M_EBK/src/tensorflow_lite/third_party/flatbuffers/include/flatbuffers\flexbuffers.h ****     } else
 428:C:/Renesas/e2studio_2021_01_workspace_RZA2M_ANPR/ANPR_RZA2M_EBK/src/tensorflow_lite/third_party/flatbuffers/include/flatbuffers\flexbuffers.h ****       switch (type_) {
 429:C:/Renesas/e2studio_2021_01_workspace_RZA2M_ANPR/ANPR_RZA2M_EBK/src/tensorflow_lite/third_party/flatbuffers/include/flatbuffers\flexbuffers.h ****         case FBT_INDIRECT_INT: return ReadInt64(Indirect(), byte_width_);
 430:C:/Renesas/e2studio_2021_01_workspace_RZA2M_ANPR/ANPR_RZA2M_EBK/src/tensorflow_lite/third_party/flatbuffers/include/flatbuffers\flexbuffers.h ****         case FBT_UINT: return ReadUInt64(data_, parent_width_);
 431:C:/Renesas/e2studio_2021_01_workspace_RZA2M_ANPR/ANPR_RZA2M_EBK/src/tensorflow_lite/third_party/flatbuffers/include/flatbuffers\flexbuffers.h ****         case FBT_INDIRECT_UINT: return ReadUInt64(Indirect(), byte_width_);
 432:C:/Renesas/e2studio_2021_01_workspace_RZA2M_ANPR/ANPR_RZA2M_EBK/src/tensorflow_lite/third_party/flatbuffers/include/flatbuffers\flexbuffers.h ****         case FBT_FLOAT:
 433:C:/Renesas/e2studio_2021_01_workspace_RZA2M_ANPR/ANPR_RZA2M_EBK/src/tensorflow_lite/third_party/flatbuffers/include/flatbuffers\flexbuffers.h ****           return static_cast<int64_t>(ReadDouble(data_, parent_width_));
 434:C:/Renesas/e2studio_2021_01_workspace_RZA2M_ANPR/ANPR_RZA2M_EBK/src/tensorflow_lite/third_party/flatbuffers/include/flatbuffers\flexbuffers.h ****         case FBT_INDIRECT_FLOAT:
 435:C:/Renesas/e2studio_2021_01_workspace_RZA2M_ANPR/ANPR_RZA2M_EBK/src/tensorflow_lite/third_party/flatbuffers/include/flatbuffers\flexbuffers.h ****           return static_cast<int64_t>(ReadDouble(Indirect(), byte_width_));
 436:C:/Renesas/e2studio_2021_01_workspace_RZA2M_ANPR/ANPR_RZA2M_EBK/src/tensorflow_lite/third_party/flatbuffers/include/flatbuffers\flexbuffers.h ****         case FBT_NULL: return 0;
 437:C:/Renesas/e2studio_2021_01_workspace_RZA2M_ANPR/ANPR_RZA2M_EBK/src/tensorflow_lite/third_party/flatbuffers/include/flatbuffers\flexbuffers.h ****         case FBT_STRING: return flatbuffers::StringToInt(AsString().c_str());
 438:C:/Renesas/e2studio_2021_01_workspace_RZA2M_ANPR/ANPR_RZA2M_EBK/src/tensorflow_lite/third_party/flatbuffers/include/flatbuffers\flexbuffers.h ****         case FBT_VECTOR: return static_cast<int64_t>(AsVector().size());
 439:C:/Renesas/e2studio_2021_01_workspace_RZA2M_ANPR/ANPR_RZA2M_EBK/src/tensorflow_lite/third_party/flatbuffers/include/flatbuffers\flexbuffers.h ****         case FBT_BOOL: return ReadInt64(data_, parent_width_);
 440:C:/Renesas/e2studio_2021_01_workspace_RZA2M_ANPR/ANPR_RZA2M_EBK/src/tensorflow_lite/third_party/flatbuffers/include/flatbuffers\flexbuffers.h ****         default:
 441:C:/Renesas/e2studio_2021_01_workspace_RZA2M_ANPR/ANPR_RZA2M_EBK/src/tensorflow_lite/third_party/flatbuffers/include/flatbuffers\flexbuffers.h ****           // Convert other things to int.
 442:C:/Renesas/e2studio_2021_01_workspace_RZA2M_ANPR/ANPR_RZA2M_EBK/src/tensorflow_lite/third_party/flatbuffers/include/flatbuffers\flexbuffers.h ****           return 0;
 443:C:/Renesas/e2studio_2021_01_workspace_RZA2M_ANPR/ANPR_RZA2M_EBK/src/tensorflow_lite/third_party/flatbuffers/include/flatbuffers\flexbuffers.h ****       }
 444:C:/Renesas/e2studio_2021_01_workspace_RZA2M_ANPR/ANPR_RZA2M_EBK/src/tensorflow_lite/third_party/flatbuffers/include/flatbuffers\flexbuffers.h ****   }
 445:C:/Renesas/e2studio_2021_01_workspace_RZA2M_ANPR/ANPR_RZA2M_EBK/src/tensorflow_lite/third_party/flatbuffers/include/flatbuffers\flexbuffers.h **** 
 446:C:/Renesas/e2studio_2021_01_workspace_RZA2M_ANPR/ANPR_RZA2M_EBK/src/tensorflow_lite/third_party/flatbuffers/include/flatbuffers\flexbuffers.h ****   // TODO: could specialize these to not use AsInt64() if that saves
 447:C:/Renesas/e2studio_2021_01_workspace_RZA2M_ANPR/ANPR_RZA2M_EBK/src/tensorflow_lite/third_party/flatbuffers/include/flatbuffers\flexbuffers.h ****   // extension ops in generated code, and use a faster op than ReadInt64.
 448:C:/Renesas/e2studio_2021_01_workspace_RZA2M_ANPR/ANPR_RZA2M_EBK/src/tensorflow_lite/third_party/flatbuffers/include/flatbuffers\flexbuffers.h ****   int32_t AsInt32() const { return static_cast<int32_t>(AsInt64()); }
 449:C:/Renesas/e2studio_2021_01_workspace_RZA2M_ANPR/ANPR_RZA2M_EBK/src/tensorflow_lite/third_party/flatbuffers/include/flatbuffers\flexbuffers.h ****   int16_t AsInt16() const { return static_cast<int16_t>(AsInt64()); }
 450:C:/Renesas/e2studio_2021_01_workspace_RZA2M_ANPR/ANPR_RZA2M_EBK/src/tensorflow_lite/third_party/flatbuffers/include/flatbuffers\flexbuffers.h ****   int8_t AsInt8() const { return static_cast<int8_t>(AsInt64()); }
 451:C:/Renesas/e2studio_2021_01_workspace_RZA2M_ANPR/ANPR_RZA2M_EBK/src/tensorflow_lite/third_party/flatbuffers/include/flatbuffers\flexbuffers.h **** 
 452:C:/Renesas/e2studio_2021_01_workspace_RZA2M_ANPR/ANPR_RZA2M_EBK/src/tensorflow_lite/third_party/flatbuffers/include/flatbuffers\flexbuffers.h ****   uint64_t AsUInt64() const {
 453:C:/Renesas/e2studio_2021_01_workspace_RZA2M_ANPR/ANPR_RZA2M_EBK/src/tensorflow_lite/third_party/flatbuffers/include/flatbuffers\flexbuffers.h ****     if (type_ == FBT_UINT) {
 454:C:/Renesas/e2studio_2021_01_workspace_RZA2M_ANPR/ANPR_RZA2M_EBK/src/tensorflow_lite/third_party/flatbuffers/include/flatbuffers\flexbuffers.h ****       // A fast path for the common case.
 455:C:/Renesas/e2studio_2021_01_workspace_RZA2M_ANPR/ANPR_RZA2M_EBK/src/tensorflow_lite/third_party/flatbuffers/include/flatbuffers\flexbuffers.h ****       return ReadUInt64(data_, parent_width_);
 456:C:/Renesas/e2studio_2021_01_workspace_RZA2M_ANPR/ANPR_RZA2M_EBK/src/tensorflow_lite/third_party/flatbuffers/include/flatbuffers\flexbuffers.h ****     } else
 457:C:/Renesas/e2studio_2021_01_workspace_RZA2M_ANPR/ANPR_RZA2M_EBK/src/tensorflow_lite/third_party/flatbuffers/include/flatbuffers\flexbuffers.h ****       switch (type_) {
 458:C:/Renesas/e2studio_2021_01_workspace_RZA2M_ANPR/ANPR_RZA2M_EBK/src/tensorflow_lite/third_party/flatbuffers/include/flatbuffers\flexbuffers.h ****         case FBT_INDIRECT_UINT: return ReadUInt64(Indirect(), byte_width_);
 459:C:/Renesas/e2studio_2021_01_workspace_RZA2M_ANPR/ANPR_RZA2M_EBK/src/tensorflow_lite/third_party/flatbuffers/include/flatbuffers\flexbuffers.h ****         case FBT_INT: return ReadInt64(data_, parent_width_);
 460:C:/Renesas/e2studio_2021_01_workspace_RZA2M_ANPR/ANPR_RZA2M_EBK/src/tensorflow_lite/third_party/flatbuffers/include/flatbuffers\flexbuffers.h ****         case FBT_INDIRECT_INT: return ReadInt64(Indirect(), byte_width_);
 461:C:/Renesas/e2studio_2021_01_workspace_RZA2M_ANPR/ANPR_RZA2M_EBK/src/tensorflow_lite/third_party/flatbuffers/include/flatbuffers\flexbuffers.h ****         case FBT_FLOAT:
 462:C:/Renesas/e2studio_2021_01_workspace_RZA2M_ANPR/ANPR_RZA2M_EBK/src/tensorflow_lite/third_party/flatbuffers/include/flatbuffers\flexbuffers.h ****           return static_cast<uint64_t>(ReadDouble(data_, parent_width_));
 463:C:/Renesas/e2studio_2021_01_workspace_RZA2M_ANPR/ANPR_RZA2M_EBK/src/tensorflow_lite/third_party/flatbuffers/include/flatbuffers\flexbuffers.h ****         case FBT_INDIRECT_FLOAT:
 464:C:/Renesas/e2studio_2021_01_workspace_RZA2M_ANPR/ANPR_RZA2M_EBK/src/tensorflow_lite/third_party/flatbuffers/include/flatbuffers\flexbuffers.h ****           return static_cast<uint64_t>(ReadDouble(Indirect(), byte_width_));
 465:C:/Renesas/e2studio_2021_01_workspace_RZA2M_ANPR/ANPR_RZA2M_EBK/src/tensorflow_lite/third_party/flatbuffers/include/flatbuffers\flexbuffers.h ****         case FBT_NULL: return 0;
 466:C:/Renesas/e2studio_2021_01_workspace_RZA2M_ANPR/ANPR_RZA2M_EBK/src/tensorflow_lite/third_party/flatbuffers/include/flatbuffers\flexbuffers.h ****         case FBT_STRING: return flatbuffers::StringToUInt(AsString().c_str());
 467:C:/Renesas/e2studio_2021_01_workspace_RZA2M_ANPR/ANPR_RZA2M_EBK/src/tensorflow_lite/third_party/flatbuffers/include/flatbuffers\flexbuffers.h ****         case FBT_VECTOR: return static_cast<uint64_t>(AsVector().size());
 468:C:/Renesas/e2studio_2021_01_workspace_RZA2M_ANPR/ANPR_RZA2M_EBK/src/tensorflow_lite/third_party/flatbuffers/include/flatbuffers\flexbuffers.h ****         case FBT_BOOL: return ReadUInt64(data_, parent_width_);
 469:C:/Renesas/e2studio_2021_01_workspace_RZA2M_ANPR/ANPR_RZA2M_EBK/src/tensorflow_lite/third_party/flatbuffers/include/flatbuffers\flexbuffers.h ****         default:
 470:C:/Renesas/e2studio_2021_01_workspace_RZA2M_ANPR/ANPR_RZA2M_EBK/src/tensorflow_lite/third_party/flatbuffers/include/flatbuffers\flexbuffers.h ****           // Convert other things to uint.
 471:C:/Renesas/e2studio_2021_01_workspace_RZA2M_ANPR/ANPR_RZA2M_EBK/src/tensorflow_lite/third_party/flatbuffers/include/flatbuffers\flexbuffers.h ****           return 0;
 472:C:/Renesas/e2studio_2021_01_workspace_RZA2M_ANPR/ANPR_RZA2M_EBK/src/tensorflow_lite/third_party/flatbuffers/include/flatbuffers\flexbuffers.h ****       }
 473:C:/Renesas/e2studio_2021_01_workspace_RZA2M_ANPR/ANPR_RZA2M_EBK/src/tensorflow_lite/third_party/flatbuffers/include/flatbuffers\flexbuffers.h ****   }
 474:C:/Renesas/e2studio_2021_01_workspace_RZA2M_ANPR/ANPR_RZA2M_EBK/src/tensorflow_lite/third_party/flatbuffers/include/flatbuffers\flexbuffers.h **** 
 475:C:/Renesas/e2studio_2021_01_workspace_RZA2M_ANPR/ANPR_RZA2M_EBK/src/tensorflow_lite/third_party/flatbuffers/include/flatbuffers\flexbuffers.h ****   uint32_t AsUInt32() const { return static_cast<uint32_t>(AsUInt64()); }
 476:C:/Renesas/e2studio_2021_01_workspace_RZA2M_ANPR/ANPR_RZA2M_EBK/src/tensorflow_lite/third_party/flatbuffers/include/flatbuffers\flexbuffers.h ****   uint16_t AsUInt16() const { return static_cast<uint16_t>(AsUInt64()); }
 477:C:/Renesas/e2studio_2021_01_workspace_RZA2M_ANPR/ANPR_RZA2M_EBK/src/tensorflow_lite/third_party/flatbuffers/include/flatbuffers\flexbuffers.h ****   uint8_t AsUInt8() const { return static_cast<uint8_t>(AsUInt64()); }
 478:C:/Renesas/e2studio_2021_01_workspace_RZA2M_ANPR/ANPR_RZA2M_EBK/src/tensorflow_lite/third_party/flatbuffers/include/flatbuffers\flexbuffers.h **** 
 479:C:/Renesas/e2studio_2021_01_workspace_RZA2M_ANPR/ANPR_RZA2M_EBK/src/tensorflow_lite/third_party/flatbuffers/include/flatbuffers\flexbuffers.h ****   double AsDouble() const {
 480:C:/Renesas/e2studio_2021_01_workspace_RZA2M_ANPR/ANPR_RZA2M_EBK/src/tensorflow_lite/third_party/flatbuffers/include/flatbuffers\flexbuffers.h ****     if (type_ == FBT_FLOAT) {
 481:C:/Renesas/e2studio_2021_01_workspace_RZA2M_ANPR/ANPR_RZA2M_EBK/src/tensorflow_lite/third_party/flatbuffers/include/flatbuffers\flexbuffers.h ****       // A fast path for the common case.
 482:C:/Renesas/e2studio_2021_01_workspace_RZA2M_ANPR/ANPR_RZA2M_EBK/src/tensorflow_lite/third_party/flatbuffers/include/flatbuffers\flexbuffers.h ****       return ReadDouble(data_, parent_width_);
 483:C:/Renesas/e2studio_2021_01_workspace_RZA2M_ANPR/ANPR_RZA2M_EBK/src/tensorflow_lite/third_party/flatbuffers/include/flatbuffers\flexbuffers.h ****     } else
 484:C:/Renesas/e2studio_2021_01_workspace_RZA2M_ANPR/ANPR_RZA2M_EBK/src/tensorflow_lite/third_party/flatbuffers/include/flatbuffers\flexbuffers.h ****       switch (type_) {
 485:C:/Renesas/e2studio_2021_01_workspace_RZA2M_ANPR/ANPR_RZA2M_EBK/src/tensorflow_lite/third_party/flatbuffers/include/flatbuffers\flexbuffers.h ****         case FBT_INDIRECT_FLOAT: return ReadDouble(Indirect(), byte_width_);
 486:C:/Renesas/e2studio_2021_01_workspace_RZA2M_ANPR/ANPR_RZA2M_EBK/src/tensorflow_lite/third_party/flatbuffers/include/flatbuffers\flexbuffers.h ****         case FBT_INT:
 487:C:/Renesas/e2studio_2021_01_workspace_RZA2M_ANPR/ANPR_RZA2M_EBK/src/tensorflow_lite/third_party/flatbuffers/include/flatbuffers\flexbuffers.h ****           return static_cast<double>(ReadInt64(data_, parent_width_));
 488:C:/Renesas/e2studio_2021_01_workspace_RZA2M_ANPR/ANPR_RZA2M_EBK/src/tensorflow_lite/third_party/flatbuffers/include/flatbuffers\flexbuffers.h ****         case FBT_UINT:
 489:C:/Renesas/e2studio_2021_01_workspace_RZA2M_ANPR/ANPR_RZA2M_EBK/src/tensorflow_lite/third_party/flatbuffers/include/flatbuffers\flexbuffers.h ****           return static_cast<double>(ReadUInt64(data_, parent_width_));
 490:C:/Renesas/e2studio_2021_01_workspace_RZA2M_ANPR/ANPR_RZA2M_EBK/src/tensorflow_lite/third_party/flatbuffers/include/flatbuffers\flexbuffers.h ****         case FBT_INDIRECT_INT:
 491:C:/Renesas/e2studio_2021_01_workspace_RZA2M_ANPR/ANPR_RZA2M_EBK/src/tensorflow_lite/third_party/flatbuffers/include/flatbuffers\flexbuffers.h ****           return static_cast<double>(ReadInt64(Indirect(), byte_width_));
 492:C:/Renesas/e2studio_2021_01_workspace_RZA2M_ANPR/ANPR_RZA2M_EBK/src/tensorflow_lite/third_party/flatbuffers/include/flatbuffers\flexbuffers.h ****         case FBT_INDIRECT_UINT:
 493:C:/Renesas/e2studio_2021_01_workspace_RZA2M_ANPR/ANPR_RZA2M_EBK/src/tensorflow_lite/third_party/flatbuffers/include/flatbuffers\flexbuffers.h ****           return static_cast<double>(ReadUInt64(Indirect(), byte_width_));
 494:C:/Renesas/e2studio_2021_01_workspace_RZA2M_ANPR/ANPR_RZA2M_EBK/src/tensorflow_lite/third_party/flatbuffers/include/flatbuffers\flexbuffers.h ****         case FBT_NULL: return 0.0;
 495:C:/Renesas/e2studio_2021_01_workspace_RZA2M_ANPR/ANPR_RZA2M_EBK/src/tensorflow_lite/third_party/flatbuffers/include/flatbuffers\flexbuffers.h ****         case FBT_STRING: {
 496:C:/Renesas/e2studio_2021_01_workspace_RZA2M_ANPR/ANPR_RZA2M_EBK/src/tensorflow_lite/third_party/flatbuffers/include/flatbuffers\flexbuffers.h **** #if 1
 497:C:/Renesas/e2studio_2021_01_workspace_RZA2M_ANPR/ANPR_RZA2M_EBK/src/tensorflow_lite/third_party/flatbuffers/include/flatbuffers\flexbuffers.h **** #pragma GCC diagnostic push
 498:C:/Renesas/e2studio_2021_01_workspace_RZA2M_ANPR/ANPR_RZA2M_EBK/src/tensorflow_lite/third_party/flatbuffers/include/flatbuffers\flexbuffers.h **** #pragma GCC diagnostic ignored "-Wnull-dereference"
 499:C:/Renesas/e2studio_2021_01_workspace_RZA2M_ANPR/ANPR_RZA2M_EBK/src/tensorflow_lite/third_party/flatbuffers/include/flatbuffers\flexbuffers.h ****           // TODO(b/173239141): Patched via micro/tools/make/flexbuffers_download.sh
 500:C:/Renesas/e2studio_2021_01_workspace_RZA2M_ANPR/ANPR_RZA2M_EBK/src/tensorflow_lite/third_party/flatbuffers/include/flatbuffers\flexbuffers.h ****           // Introduce a segfault for an unsupported code path for TFLM.
 501:C:/Renesas/e2studio_2021_01_workspace_RZA2M_ANPR/ANPR_RZA2M_EBK/src/tensorflow_lite/third_party/flatbuffers/include/flatbuffers\flexbuffers.h ****           return *(static_cast<double*>(nullptr));
 502:C:/Renesas/e2studio_2021_01_workspace_RZA2M_ANPR/ANPR_RZA2M_EBK/src/tensorflow_lite/third_party/flatbuffers/include/flatbuffers\flexbuffers.h **** #pragma GCC diagnostic pop
 503:C:/Renesas/e2studio_2021_01_workspace_RZA2M_ANPR/ANPR_RZA2M_EBK/src/tensorflow_lite/third_party/flatbuffers/include/flatbuffers\flexbuffers.h **** #else
 504:C:/Renesas/e2studio_2021_01_workspace_RZA2M_ANPR/ANPR_RZA2M_EBK/src/tensorflow_lite/third_party/flatbuffers/include/flatbuffers\flexbuffers.h ****           // This is the original code
 505:C:/Renesas/e2studio_2021_01_workspace_RZA2M_ANPR/ANPR_RZA2M_EBK/src/tensorflow_lite/third_party/flatbuffers/include/flatbuffers\flexbuffers.h ****           double d;
 506:C:/Renesas/e2studio_2021_01_workspace_RZA2M_ANPR/ANPR_RZA2M_EBK/src/tensorflow_lite/third_party/flatbuffers/include/flatbuffers\flexbuffers.h ****           flatbuffers::StringToNumber(AsString().c_str(), &d);
 507:C:/Renesas/e2studio_2021_01_workspace_RZA2M_ANPR/ANPR_RZA2M_EBK/src/tensorflow_lite/third_party/flatbuffers/include/flatbuffers\flexbuffers.h ****           return d;
 508:C:/Renesas/e2studio_2021_01_workspace_RZA2M_ANPR/ANPR_RZA2M_EBK/src/tensorflow_lite/third_party/flatbuffers/include/flatbuffers\flexbuffers.h **** #endif
 509:C:/Renesas/e2studio_2021_01_workspace_RZA2M_ANPR/ANPR_RZA2M_EBK/src/tensorflow_lite/third_party/flatbuffers/include/flatbuffers\flexbuffers.h ****         }
 510:C:/Renesas/e2studio_2021_01_workspace_RZA2M_ANPR/ANPR_RZA2M_EBK/src/tensorflow_lite/third_party/flatbuffers/include/flatbuffers\flexbuffers.h ****         case FBT_VECTOR: return static_cast<double>(AsVector().size());
 511:C:/Renesas/e2studio_2021_01_workspace_RZA2M_ANPR/ANPR_RZA2M_EBK/src/tensorflow_lite/third_party/flatbuffers/include/flatbuffers\flexbuffers.h ****         case FBT_BOOL:
 512:C:/Renesas/e2studio_2021_01_workspace_RZA2M_ANPR/ANPR_RZA2M_EBK/src/tensorflow_lite/third_party/flatbuffers/include/flatbuffers\flexbuffers.h ****           return static_cast<double>(ReadUInt64(data_, parent_width_));
 513:C:/Renesas/e2studio_2021_01_workspace_RZA2M_ANPR/ANPR_RZA2M_EBK/src/tensorflow_lite/third_party/flatbuffers/include/flatbuffers\flexbuffers.h ****         default:
 514:C:/Renesas/e2studio_2021_01_workspace_RZA2M_ANPR/ANPR_RZA2M_EBK/src/tensorflow_lite/third_party/flatbuffers/include/flatbuffers\flexbuffers.h ****           // Convert strings and other things to float.
 515:C:/Renesas/e2studio_2021_01_workspace_RZA2M_ANPR/ANPR_RZA2M_EBK/src/tensorflow_lite/third_party/flatbuffers/include/flatbuffers\flexbuffers.h ****           return 0;
 516:C:/Renesas/e2studio_2021_01_workspace_RZA2M_ANPR/ANPR_RZA2M_EBK/src/tensorflow_lite/third_party/flatbuffers/include/flatbuffers\flexbuffers.h ****       }
 517:C:/Renesas/e2studio_2021_01_workspace_RZA2M_ANPR/ANPR_RZA2M_EBK/src/tensorflow_lite/third_party/flatbuffers/include/flatbuffers\flexbuffers.h ****   }
 518:C:/Renesas/e2studio_2021_01_workspace_RZA2M_ANPR/ANPR_RZA2M_EBK/src/tensorflow_lite/third_party/flatbuffers/include/flatbuffers\flexbuffers.h **** 
 519:C:/Renesas/e2studio_2021_01_workspace_RZA2M_ANPR/ANPR_RZA2M_EBK/src/tensorflow_lite/third_party/flatbuffers/include/flatbuffers\flexbuffers.h ****   float AsFloat() const { return static_cast<float>(AsDouble()); }
 520:C:/Renesas/e2studio_2021_01_workspace_RZA2M_ANPR/ANPR_RZA2M_EBK/src/tensorflow_lite/third_party/flatbuffers/include/flatbuffers\flexbuffers.h **** 
 521:C:/Renesas/e2studio_2021_01_workspace_RZA2M_ANPR/ANPR_RZA2M_EBK/src/tensorflow_lite/third_party/flatbuffers/include/flatbuffers\flexbuffers.h ****   const char *AsKey() const {
 522:C:/Renesas/e2studio_2021_01_workspace_RZA2M_ANPR/ANPR_RZA2M_EBK/src/tensorflow_lite/third_party/flatbuffers/include/flatbuffers\flexbuffers.h ****     if (type_ == FBT_KEY || type_ == FBT_STRING) {
 523:C:/Renesas/e2studio_2021_01_workspace_RZA2M_ANPR/ANPR_RZA2M_EBK/src/tensorflow_lite/third_party/flatbuffers/include/flatbuffers\flexbuffers.h ****       return reinterpret_cast<const char *>(Indirect());
 524:C:/Renesas/e2studio_2021_01_workspace_RZA2M_ANPR/ANPR_RZA2M_EBK/src/tensorflow_lite/third_party/flatbuffers/include/flatbuffers\flexbuffers.h ****     } else {
 525:C:/Renesas/e2studio_2021_01_workspace_RZA2M_ANPR/ANPR_RZA2M_EBK/src/tensorflow_lite/third_party/flatbuffers/include/flatbuffers\flexbuffers.h ****       return "";
 526:C:/Renesas/e2studio_2021_01_workspace_RZA2M_ANPR/ANPR_RZA2M_EBK/src/tensorflow_lite/third_party/flatbuffers/include/flatbuffers\flexbuffers.h ****     }
 527:C:/Renesas/e2studio_2021_01_workspace_RZA2M_ANPR/ANPR_RZA2M_EBK/src/tensorflow_lite/third_party/flatbuffers/include/flatbuffers\flexbuffers.h ****   }
 528:C:/Renesas/e2studio_2021_01_workspace_RZA2M_ANPR/ANPR_RZA2M_EBK/src/tensorflow_lite/third_party/flatbuffers/include/flatbuffers\flexbuffers.h **** 
 529:C:/Renesas/e2studio_2021_01_workspace_RZA2M_ANPR/ANPR_RZA2M_EBK/src/tensorflow_lite/third_party/flatbuffers/include/flatbuffers\flexbuffers.h ****   // This function returns the empty string if you try to read something that
 530:C:/Renesas/e2studio_2021_01_workspace_RZA2M_ANPR/ANPR_RZA2M_EBK/src/tensorflow_lite/third_party/flatbuffers/include/flatbuffers\flexbuffers.h ****   // is not a string or key.
 531:C:/Renesas/e2studio_2021_01_workspace_RZA2M_ANPR/ANPR_RZA2M_EBK/src/tensorflow_lite/third_party/flatbuffers/include/flatbuffers\flexbuffers.h ****   String AsString() const {
 532:C:/Renesas/e2studio_2021_01_workspace_RZA2M_ANPR/ANPR_RZA2M_EBK/src/tensorflow_lite/third_party/flatbuffers/include/flatbuffers\flexbuffers.h ****     if (type_ == FBT_STRING) {
 533:C:/Renesas/e2studio_2021_01_workspace_RZA2M_ANPR/ANPR_RZA2M_EBK/src/tensorflow_lite/third_party/flatbuffers/include/flatbuffers\flexbuffers.h ****       return String(Indirect(), byte_width_);
 534:C:/Renesas/e2studio_2021_01_workspace_RZA2M_ANPR/ANPR_RZA2M_EBK/src/tensorflow_lite/third_party/flatbuffers/include/flatbuffers\flexbuffers.h ****     } else if (type_ == FBT_KEY) {
 535:C:/Renesas/e2studio_2021_01_workspace_RZA2M_ANPR/ANPR_RZA2M_EBK/src/tensorflow_lite/third_party/flatbuffers/include/flatbuffers\flexbuffers.h ****       auto key = Indirect();
 536:C:/Renesas/e2studio_2021_01_workspace_RZA2M_ANPR/ANPR_RZA2M_EBK/src/tensorflow_lite/third_party/flatbuffers/include/flatbuffers\flexbuffers.h ****       return String(key, byte_width_,
 537:C:/Renesas/e2studio_2021_01_workspace_RZA2M_ANPR/ANPR_RZA2M_EBK/src/tensorflow_lite/third_party/flatbuffers/include/flatbuffers\flexbuffers.h ****                     strlen(reinterpret_cast<const char *>(key)));
 538:C:/Renesas/e2studio_2021_01_workspace_RZA2M_ANPR/ANPR_RZA2M_EBK/src/tensorflow_lite/third_party/flatbuffers/include/flatbuffers\flexbuffers.h ****     } else {
 539:C:/Renesas/e2studio_2021_01_workspace_RZA2M_ANPR/ANPR_RZA2M_EBK/src/tensorflow_lite/third_party/flatbuffers/include/flatbuffers\flexbuffers.h ****       return String::EmptyString();
 540:C:/Renesas/e2studio_2021_01_workspace_RZA2M_ANPR/ANPR_RZA2M_EBK/src/tensorflow_lite/third_party/flatbuffers/include/flatbuffers\flexbuffers.h ****     }
 541:C:/Renesas/e2studio_2021_01_workspace_RZA2M_ANPR/ANPR_RZA2M_EBK/src/tensorflow_lite/third_party/flatbuffers/include/flatbuffers\flexbuffers.h ****   }
 542:C:/Renesas/e2studio_2021_01_workspace_RZA2M_ANPR/ANPR_RZA2M_EBK/src/tensorflow_lite/third_party/flatbuffers/include/flatbuffers\flexbuffers.h **** 
 543:C:/Renesas/e2studio_2021_01_workspace_RZA2M_ANPR/ANPR_RZA2M_EBK/src/tensorflow_lite/third_party/flatbuffers/include/flatbuffers\flexbuffers.h ****   // Unlike AsString(), this will convert any type to a std::string.
 544:C:/Renesas/e2studio_2021_01_workspace_RZA2M_ANPR/ANPR_RZA2M_EBK/src/tensorflow_lite/third_party/flatbuffers/include/flatbuffers\flexbuffers.h ****   std::string ToString() const {
 545:C:/Renesas/e2studio_2021_01_workspace_RZA2M_ANPR/ANPR_RZA2M_EBK/src/tensorflow_lite/third_party/flatbuffers/include/flatbuffers\flexbuffers.h ****     std::string s;
 546:C:/Renesas/e2studio_2021_01_workspace_RZA2M_ANPR/ANPR_RZA2M_EBK/src/tensorflow_lite/third_party/flatbuffers/include/flatbuffers\flexbuffers.h ****     ToString(false, false, s);
 547:C:/Renesas/e2studio_2021_01_workspace_RZA2M_ANPR/ANPR_RZA2M_EBK/src/tensorflow_lite/third_party/flatbuffers/include/flatbuffers\flexbuffers.h ****     return s;
 548:C:/Renesas/e2studio_2021_01_workspace_RZA2M_ANPR/ANPR_RZA2M_EBK/src/tensorflow_lite/third_party/flatbuffers/include/flatbuffers\flexbuffers.h ****   }
 549:C:/Renesas/e2studio_2021_01_workspace_RZA2M_ANPR/ANPR_RZA2M_EBK/src/tensorflow_lite/third_party/flatbuffers/include/flatbuffers\flexbuffers.h **** 
 550:C:/Renesas/e2studio_2021_01_workspace_RZA2M_ANPR/ANPR_RZA2M_EBK/src/tensorflow_lite/third_party/flatbuffers/include/flatbuffers\flexbuffers.h ****   // Convert any type to a JSON-like string. strings_quoted determines if
 551:C:/Renesas/e2studio_2021_01_workspace_RZA2M_ANPR/ANPR_RZA2M_EBK/src/tensorflow_lite/third_party/flatbuffers/include/flatbuffers\flexbuffers.h ****   // string values at the top level receive "" quotes (inside other values
 552:C:/Renesas/e2studio_2021_01_workspace_RZA2M_ANPR/ANPR_RZA2M_EBK/src/tensorflow_lite/third_party/flatbuffers/include/flatbuffers\flexbuffers.h ****   // they always do). keys_quoted determines if keys are quoted, at any level.
 553:C:/Renesas/e2studio_2021_01_workspace_RZA2M_ANPR/ANPR_RZA2M_EBK/src/tensorflow_lite/third_party/flatbuffers/include/flatbuffers\flexbuffers.h ****   // TODO(wvo): add further options to have indentation/newlines.
 554:C:/Renesas/e2studio_2021_01_workspace_RZA2M_ANPR/ANPR_RZA2M_EBK/src/tensorflow_lite/third_party/flatbuffers/include/flatbuffers\flexbuffers.h ****   void ToString(bool strings_quoted, bool keys_quoted, std::string &s) const {
 555:C:/Renesas/e2studio_2021_01_workspace_RZA2M_ANPR/ANPR_RZA2M_EBK/src/tensorflow_lite/third_party/flatbuffers/include/flatbuffers\flexbuffers.h ****     if (type_ == FBT_STRING) {
 556:C:/Renesas/e2studio_2021_01_workspace_RZA2M_ANPR/ANPR_RZA2M_EBK/src/tensorflow_lite/third_party/flatbuffers/include/flatbuffers\flexbuffers.h ****       String str(Indirect(), byte_width_);
 557:C:/Renesas/e2studio_2021_01_workspace_RZA2M_ANPR/ANPR_RZA2M_EBK/src/tensorflow_lite/third_party/flatbuffers/include/flatbuffers\flexbuffers.h ****       if (strings_quoted) {
 558:C:/Renesas/e2studio_2021_01_workspace_RZA2M_ANPR/ANPR_RZA2M_EBK/src/tensorflow_lite/third_party/flatbuffers/include/flatbuffers\flexbuffers.h ****         flatbuffers::EscapeString(str.c_str(), str.length(), &s, true, false);
 559:C:/Renesas/e2studio_2021_01_workspace_RZA2M_ANPR/ANPR_RZA2M_EBK/src/tensorflow_lite/third_party/flatbuffers/include/flatbuffers\flexbuffers.h ****       } else {
 560:C:/Renesas/e2studio_2021_01_workspace_RZA2M_ANPR/ANPR_RZA2M_EBK/src/tensorflow_lite/third_party/flatbuffers/include/flatbuffers\flexbuffers.h ****         s.append(str.c_str(), str.length());
 561:C:/Renesas/e2studio_2021_01_workspace_RZA2M_ANPR/ANPR_RZA2M_EBK/src/tensorflow_lite/third_party/flatbuffers/include/flatbuffers\flexbuffers.h ****       }
 562:C:/Renesas/e2studio_2021_01_workspace_RZA2M_ANPR/ANPR_RZA2M_EBK/src/tensorflow_lite/third_party/flatbuffers/include/flatbuffers\flexbuffers.h ****     } else if (IsKey()) {
 563:C:/Renesas/e2studio_2021_01_workspace_RZA2M_ANPR/ANPR_RZA2M_EBK/src/tensorflow_lite/third_party/flatbuffers/include/flatbuffers\flexbuffers.h ****       auto str = AsKey();
 564:C:/Renesas/e2studio_2021_01_workspace_RZA2M_ANPR/ANPR_RZA2M_EBK/src/tensorflow_lite/third_party/flatbuffers/include/flatbuffers\flexbuffers.h ****       if (keys_quoted) {
 565:C:/Renesas/e2studio_2021_01_workspace_RZA2M_ANPR/ANPR_RZA2M_EBK/src/tensorflow_lite/third_party/flatbuffers/include/flatbuffers\flexbuffers.h ****         flatbuffers::EscapeString(str, strlen(str), &s, true, false);
 566:C:/Renesas/e2studio_2021_01_workspace_RZA2M_ANPR/ANPR_RZA2M_EBK/src/tensorflow_lite/third_party/flatbuffers/include/flatbuffers\flexbuffers.h ****       } else {
 567:C:/Renesas/e2studio_2021_01_workspace_RZA2M_ANPR/ANPR_RZA2M_EBK/src/tensorflow_lite/third_party/flatbuffers/include/flatbuffers\flexbuffers.h ****         s += str;
 568:C:/Renesas/e2studio_2021_01_workspace_RZA2M_ANPR/ANPR_RZA2M_EBK/src/tensorflow_lite/third_party/flatbuffers/include/flatbuffers\flexbuffers.h ****       }
 569:C:/Renesas/e2studio_2021_01_workspace_RZA2M_ANPR/ANPR_RZA2M_EBK/src/tensorflow_lite/third_party/flatbuffers/include/flatbuffers\flexbuffers.h ****     } else if (IsInt()) {
 570:C:/Renesas/e2studio_2021_01_workspace_RZA2M_ANPR/ANPR_RZA2M_EBK/src/tensorflow_lite/third_party/flatbuffers/include/flatbuffers\flexbuffers.h ****       s += flatbuffers::NumToString(AsInt64());
 571:C:/Renesas/e2studio_2021_01_workspace_RZA2M_ANPR/ANPR_RZA2M_EBK/src/tensorflow_lite/third_party/flatbuffers/include/flatbuffers\flexbuffers.h ****     } else if (IsUInt()) {
 572:C:/Renesas/e2studio_2021_01_workspace_RZA2M_ANPR/ANPR_RZA2M_EBK/src/tensorflow_lite/third_party/flatbuffers/include/flatbuffers\flexbuffers.h ****       s += flatbuffers::NumToString(AsUInt64());
 573:C:/Renesas/e2studio_2021_01_workspace_RZA2M_ANPR/ANPR_RZA2M_EBK/src/tensorflow_lite/third_party/flatbuffers/include/flatbuffers\flexbuffers.h ****     } else if (IsFloat()) {
 574:C:/Renesas/e2studio_2021_01_workspace_RZA2M_ANPR/ANPR_RZA2M_EBK/src/tensorflow_lite/third_party/flatbuffers/include/flatbuffers\flexbuffers.h ****       s += flatbuffers::NumToString(AsDouble());
 575:C:/Renesas/e2studio_2021_01_workspace_RZA2M_ANPR/ANPR_RZA2M_EBK/src/tensorflow_lite/third_party/flatbuffers/include/flatbuffers\flexbuffers.h ****     } else if (IsNull()) {
 576:C:/Renesas/e2studio_2021_01_workspace_RZA2M_ANPR/ANPR_RZA2M_EBK/src/tensorflow_lite/third_party/flatbuffers/include/flatbuffers\flexbuffers.h ****       s += "null";
 577:C:/Renesas/e2studio_2021_01_workspace_RZA2M_ANPR/ANPR_RZA2M_EBK/src/tensorflow_lite/third_party/flatbuffers/include/flatbuffers\flexbuffers.h ****     } else if (IsBool()) {
 578:C:/Renesas/e2studio_2021_01_workspace_RZA2M_ANPR/ANPR_RZA2M_EBK/src/tensorflow_lite/third_party/flatbuffers/include/flatbuffers\flexbuffers.h ****       s += AsBool() ? "true" : "false";
 579:C:/Renesas/e2studio_2021_01_workspace_RZA2M_ANPR/ANPR_RZA2M_EBK/src/tensorflow_lite/third_party/flatbuffers/include/flatbuffers\flexbuffers.h ****     } else if (IsMap()) {
 580:C:/Renesas/e2studio_2021_01_workspace_RZA2M_ANPR/ANPR_RZA2M_EBK/src/tensorflow_lite/third_party/flatbuffers/include/flatbuffers\flexbuffers.h ****       s += "{ ";
 581:C:/Renesas/e2studio_2021_01_workspace_RZA2M_ANPR/ANPR_RZA2M_EBK/src/tensorflow_lite/third_party/flatbuffers/include/flatbuffers\flexbuffers.h ****       auto m = AsMap();
 582:C:/Renesas/e2studio_2021_01_workspace_RZA2M_ANPR/ANPR_RZA2M_EBK/src/tensorflow_lite/third_party/flatbuffers/include/flatbuffers\flexbuffers.h ****       auto keys = m.Keys();
 583:C:/Renesas/e2studio_2021_01_workspace_RZA2M_ANPR/ANPR_RZA2M_EBK/src/tensorflow_lite/third_party/flatbuffers/include/flatbuffers\flexbuffers.h ****       auto vals = m.Values();
 584:C:/Renesas/e2studio_2021_01_workspace_RZA2M_ANPR/ANPR_RZA2M_EBK/src/tensorflow_lite/third_party/flatbuffers/include/flatbuffers\flexbuffers.h ****       for (size_t i = 0; i < keys.size(); i++) {
 585:C:/Renesas/e2studio_2021_01_workspace_RZA2M_ANPR/ANPR_RZA2M_EBK/src/tensorflow_lite/third_party/flatbuffers/include/flatbuffers\flexbuffers.h ****         keys[i].ToString(true, keys_quoted, s);
 586:C:/Renesas/e2studio_2021_01_workspace_RZA2M_ANPR/ANPR_RZA2M_EBK/src/tensorflow_lite/third_party/flatbuffers/include/flatbuffers\flexbuffers.h ****         s += ": ";
 587:C:/Renesas/e2studio_2021_01_workspace_RZA2M_ANPR/ANPR_RZA2M_EBK/src/tensorflow_lite/third_party/flatbuffers/include/flatbuffers\flexbuffers.h ****         vals[i].ToString(true, keys_quoted, s);
 588:C:/Renesas/e2studio_2021_01_workspace_RZA2M_ANPR/ANPR_RZA2M_EBK/src/tensorflow_lite/third_party/flatbuffers/include/flatbuffers\flexbuffers.h ****         if (i < keys.size() - 1) s += ", ";
 589:C:/Renesas/e2studio_2021_01_workspace_RZA2M_ANPR/ANPR_RZA2M_EBK/src/tensorflow_lite/third_party/flatbuffers/include/flatbuffers\flexbuffers.h ****       }
 590:C:/Renesas/e2studio_2021_01_workspace_RZA2M_ANPR/ANPR_RZA2M_EBK/src/tensorflow_lite/third_party/flatbuffers/include/flatbuffers\flexbuffers.h ****       s += " }";
 591:C:/Renesas/e2studio_2021_01_workspace_RZA2M_ANPR/ANPR_RZA2M_EBK/src/tensorflow_lite/third_party/flatbuffers/include/flatbuffers\flexbuffers.h ****     } else if (IsVector()) {
 592:C:/Renesas/e2studio_2021_01_workspace_RZA2M_ANPR/ANPR_RZA2M_EBK/src/tensorflow_lite/third_party/flatbuffers/include/flatbuffers\flexbuffers.h ****       AppendToString<Vector>(s, AsVector(), keys_quoted);
 593:C:/Renesas/e2studio_2021_01_workspace_RZA2M_ANPR/ANPR_RZA2M_EBK/src/tensorflow_lite/third_party/flatbuffers/include/flatbuffers\flexbuffers.h ****     } else if (IsTypedVector()) {
 594:C:/Renesas/e2studio_2021_01_workspace_RZA2M_ANPR/ANPR_RZA2M_EBK/src/tensorflow_lite/third_party/flatbuffers/include/flatbuffers\flexbuffers.h ****       AppendToString<TypedVector>(s, AsTypedVector(), keys_quoted);
 595:C:/Renesas/e2studio_2021_01_workspace_RZA2M_ANPR/ANPR_RZA2M_EBK/src/tensorflow_lite/third_party/flatbuffers/include/flatbuffers\flexbuffers.h ****     } else if (IsFixedTypedVector()) {
 596:C:/Renesas/e2studio_2021_01_workspace_RZA2M_ANPR/ANPR_RZA2M_EBK/src/tensorflow_lite/third_party/flatbuffers/include/flatbuffers\flexbuffers.h ****       AppendToString<FixedTypedVector>(s, AsFixedTypedVector(), keys_quoted);
 597:C:/Renesas/e2studio_2021_01_workspace_RZA2M_ANPR/ANPR_RZA2M_EBK/src/tensorflow_lite/third_party/flatbuffers/include/flatbuffers\flexbuffers.h ****     } else if (IsBlob()) {
 598:C:/Renesas/e2studio_2021_01_workspace_RZA2M_ANPR/ANPR_RZA2M_EBK/src/tensorflow_lite/third_party/flatbuffers/include/flatbuffers\flexbuffers.h ****       auto blob = AsBlob();
 599:C:/Renesas/e2studio_2021_01_workspace_RZA2M_ANPR/ANPR_RZA2M_EBK/src/tensorflow_lite/third_party/flatbuffers/include/flatbuffers\flexbuffers.h ****       flatbuffers::EscapeString(reinterpret_cast<const char *>(blob.data()),
 600:C:/Renesas/e2studio_2021_01_workspace_RZA2M_ANPR/ANPR_RZA2M_EBK/src/tensorflow_lite/third_party/flatbuffers/include/flatbuffers\flexbuffers.h ****                                 blob.size(), &s, true, false);
 601:C:/Renesas/e2studio_2021_01_workspace_RZA2M_ANPR/ANPR_RZA2M_EBK/src/tensorflow_lite/third_party/flatbuffers/include/flatbuffers\flexbuffers.h ****     } else {
 602:C:/Renesas/e2studio_2021_01_workspace_RZA2M_ANPR/ANPR_RZA2M_EBK/src/tensorflow_lite/third_party/flatbuffers/include/flatbuffers\flexbuffers.h ****       s += "(?)";
 603:C:/Renesas/e2studio_2021_01_workspace_RZA2M_ANPR/ANPR_RZA2M_EBK/src/tensorflow_lite/third_party/flatbuffers/include/flatbuffers\flexbuffers.h ****     }
 604:C:/Renesas/e2studio_2021_01_workspace_RZA2M_ANPR/ANPR_RZA2M_EBK/src/tensorflow_lite/third_party/flatbuffers/include/flatbuffers\flexbuffers.h ****   }
 605:C:/Renesas/e2studio_2021_01_workspace_RZA2M_ANPR/ANPR_RZA2M_EBK/src/tensorflow_lite/third_party/flatbuffers/include/flatbuffers\flexbuffers.h **** 
 606:C:/Renesas/e2studio_2021_01_workspace_RZA2M_ANPR/ANPR_RZA2M_EBK/src/tensorflow_lite/third_party/flatbuffers/include/flatbuffers\flexbuffers.h ****   // This function returns the empty blob if you try to read a not-blob.
 607:C:/Renesas/e2studio_2021_01_workspace_RZA2M_ANPR/ANPR_RZA2M_EBK/src/tensorflow_lite/third_party/flatbuffers/include/flatbuffers\flexbuffers.h ****   // Strings can be viewed as blobs too.
 608:C:/Renesas/e2studio_2021_01_workspace_RZA2M_ANPR/ANPR_RZA2M_EBK/src/tensorflow_lite/third_party/flatbuffers/include/flatbuffers\flexbuffers.h ****   Blob AsBlob() const {
 609:C:/Renesas/e2studio_2021_01_workspace_RZA2M_ANPR/ANPR_RZA2M_EBK/src/tensorflow_lite/third_party/flatbuffers/include/flatbuffers\flexbuffers.h ****     if (type_ == FBT_BLOB || type_ == FBT_STRING) {
 610:C:/Renesas/e2studio_2021_01_workspace_RZA2M_ANPR/ANPR_RZA2M_EBK/src/tensorflow_lite/third_party/flatbuffers/include/flatbuffers\flexbuffers.h ****       return Blob(Indirect(), byte_width_);
 611:C:/Renesas/e2studio_2021_01_workspace_RZA2M_ANPR/ANPR_RZA2M_EBK/src/tensorflow_lite/third_party/flatbuffers/include/flatbuffers\flexbuffers.h ****     } else {
 612:C:/Renesas/e2studio_2021_01_workspace_RZA2M_ANPR/ANPR_RZA2M_EBK/src/tensorflow_lite/third_party/flatbuffers/include/flatbuffers\flexbuffers.h ****       return Blob::EmptyBlob();
 613:C:/Renesas/e2studio_2021_01_workspace_RZA2M_ANPR/ANPR_RZA2M_EBK/src/tensorflow_lite/third_party/flatbuffers/include/flatbuffers\flexbuffers.h ****     }
 614:C:/Renesas/e2studio_2021_01_workspace_RZA2M_ANPR/ANPR_RZA2M_EBK/src/tensorflow_lite/third_party/flatbuffers/include/flatbuffers\flexbuffers.h ****   }
 615:C:/Renesas/e2studio_2021_01_workspace_RZA2M_ANPR/ANPR_RZA2M_EBK/src/tensorflow_lite/third_party/flatbuffers/include/flatbuffers\flexbuffers.h **** 
 616:C:/Renesas/e2studio_2021_01_workspace_RZA2M_ANPR/ANPR_RZA2M_EBK/src/tensorflow_lite/third_party/flatbuffers/include/flatbuffers\flexbuffers.h ****   // This function returns the empty vector if you try to read a not-vector.
 617:C:/Renesas/e2studio_2021_01_workspace_RZA2M_ANPR/ANPR_RZA2M_EBK/src/tensorflow_lite/third_party/flatbuffers/include/flatbuffers\flexbuffers.h ****   // Maps can be viewed as vectors too.
 618:C:/Renesas/e2studio_2021_01_workspace_RZA2M_ANPR/ANPR_RZA2M_EBK/src/tensorflow_lite/third_party/flatbuffers/include/flatbuffers\flexbuffers.h ****   Vector AsVector() const {
 619:C:/Renesas/e2studio_2021_01_workspace_RZA2M_ANPR/ANPR_RZA2M_EBK/src/tensorflow_lite/third_party/flatbuffers/include/flatbuffers\flexbuffers.h ****     if (type_ == FBT_VECTOR || type_ == FBT_MAP) {
 620:C:/Renesas/e2studio_2021_01_workspace_RZA2M_ANPR/ANPR_RZA2M_EBK/src/tensorflow_lite/third_party/flatbuffers/include/flatbuffers\flexbuffers.h ****       return Vector(Indirect(), byte_width_);
 621:C:/Renesas/e2studio_2021_01_workspace_RZA2M_ANPR/ANPR_RZA2M_EBK/src/tensorflow_lite/third_party/flatbuffers/include/flatbuffers\flexbuffers.h ****     } else {
 622:C:/Renesas/e2studio_2021_01_workspace_RZA2M_ANPR/ANPR_RZA2M_EBK/src/tensorflow_lite/third_party/flatbuffers/include/flatbuffers\flexbuffers.h ****       return Vector::EmptyVector();
 623:C:/Renesas/e2studio_2021_01_workspace_RZA2M_ANPR/ANPR_RZA2M_EBK/src/tensorflow_lite/third_party/flatbuffers/include/flatbuffers\flexbuffers.h ****     }
 624:C:/Renesas/e2studio_2021_01_workspace_RZA2M_ANPR/ANPR_RZA2M_EBK/src/tensorflow_lite/third_party/flatbuffers/include/flatbuffers\flexbuffers.h ****   }
 625:C:/Renesas/e2studio_2021_01_workspace_RZA2M_ANPR/ANPR_RZA2M_EBK/src/tensorflow_lite/third_party/flatbuffers/include/flatbuffers\flexbuffers.h **** 
 626:C:/Renesas/e2studio_2021_01_workspace_RZA2M_ANPR/ANPR_RZA2M_EBK/src/tensorflow_lite/third_party/flatbuffers/include/flatbuffers\flexbuffers.h ****   TypedVector AsTypedVector() const {
 627:C:/Renesas/e2studio_2021_01_workspace_RZA2M_ANPR/ANPR_RZA2M_EBK/src/tensorflow_lite/third_party/flatbuffers/include/flatbuffers\flexbuffers.h ****     if (IsTypedVector()) {
 628:C:/Renesas/e2studio_2021_01_workspace_RZA2M_ANPR/ANPR_RZA2M_EBK/src/tensorflow_lite/third_party/flatbuffers/include/flatbuffers\flexbuffers.h ****       auto tv =
 629:C:/Renesas/e2studio_2021_01_workspace_RZA2M_ANPR/ANPR_RZA2M_EBK/src/tensorflow_lite/third_party/flatbuffers/include/flatbuffers\flexbuffers.h ****           TypedVector(Indirect(), byte_width_, ToTypedVectorElementType(type_));
 630:C:/Renesas/e2studio_2021_01_workspace_RZA2M_ANPR/ANPR_RZA2M_EBK/src/tensorflow_lite/third_party/flatbuffers/include/flatbuffers\flexbuffers.h ****       if (tv.type_ == FBT_STRING) {
 631:C:/Renesas/e2studio_2021_01_workspace_RZA2M_ANPR/ANPR_RZA2M_EBK/src/tensorflow_lite/third_party/flatbuffers/include/flatbuffers\flexbuffers.h ****         // These can't be accessed as strings, since we don't know the bit-width
 632:C:/Renesas/e2studio_2021_01_workspace_RZA2M_ANPR/ANPR_RZA2M_EBK/src/tensorflow_lite/third_party/flatbuffers/include/flatbuffers\flexbuffers.h ****         // of the size field, see the declaration of
 633:C:/Renesas/e2studio_2021_01_workspace_RZA2M_ANPR/ANPR_RZA2M_EBK/src/tensorflow_lite/third_party/flatbuffers/include/flatbuffers\flexbuffers.h ****         // FBT_VECTOR_STRING_DEPRECATED above for details.
 634:C:/Renesas/e2studio_2021_01_workspace_RZA2M_ANPR/ANPR_RZA2M_EBK/src/tensorflow_lite/third_party/flatbuffers/include/flatbuffers\flexbuffers.h ****         // We change the type here to be keys, which are a subtype of strings,
 635:C:/Renesas/e2studio_2021_01_workspace_RZA2M_ANPR/ANPR_RZA2M_EBK/src/tensorflow_lite/third_party/flatbuffers/include/flatbuffers\flexbuffers.h ****         // and will ignore the size field. This will truncate strings with
 636:C:/Renesas/e2studio_2021_01_workspace_RZA2M_ANPR/ANPR_RZA2M_EBK/src/tensorflow_lite/third_party/flatbuffers/include/flatbuffers\flexbuffers.h ****         // embedded nulls.
 637:C:/Renesas/e2studio_2021_01_workspace_RZA2M_ANPR/ANPR_RZA2M_EBK/src/tensorflow_lite/third_party/flatbuffers/include/flatbuffers\flexbuffers.h ****         tv.type_ = FBT_KEY;
 638:C:/Renesas/e2studio_2021_01_workspace_RZA2M_ANPR/ANPR_RZA2M_EBK/src/tensorflow_lite/third_party/flatbuffers/include/flatbuffers\flexbuffers.h ****       }
 639:C:/Renesas/e2studio_2021_01_workspace_RZA2M_ANPR/ANPR_RZA2M_EBK/src/tensorflow_lite/third_party/flatbuffers/include/flatbuffers\flexbuffers.h ****       return tv;
 640:C:/Renesas/e2studio_2021_01_workspace_RZA2M_ANPR/ANPR_RZA2M_EBK/src/tensorflow_lite/third_party/flatbuffers/include/flatbuffers\flexbuffers.h ****     } else {
 641:C:/Renesas/e2studio_2021_01_workspace_RZA2M_ANPR/ANPR_RZA2M_EBK/src/tensorflow_lite/third_party/flatbuffers/include/flatbuffers\flexbuffers.h ****       return TypedVector::EmptyTypedVector();
 642:C:/Renesas/e2studio_2021_01_workspace_RZA2M_ANPR/ANPR_RZA2M_EBK/src/tensorflow_lite/third_party/flatbuffers/include/flatbuffers\flexbuffers.h ****     }
 643:C:/Renesas/e2studio_2021_01_workspace_RZA2M_ANPR/ANPR_RZA2M_EBK/src/tensorflow_lite/third_party/flatbuffers/include/flatbuffers\flexbuffers.h ****   }
 644:C:/Renesas/e2studio_2021_01_workspace_RZA2M_ANPR/ANPR_RZA2M_EBK/src/tensorflow_lite/third_party/flatbuffers/include/flatbuffers\flexbuffers.h **** 
 645:C:/Renesas/e2studio_2021_01_workspace_RZA2M_ANPR/ANPR_RZA2M_EBK/src/tensorflow_lite/third_party/flatbuffers/include/flatbuffers\flexbuffers.h ****   FixedTypedVector AsFixedTypedVector() const {
 646:C:/Renesas/e2studio_2021_01_workspace_RZA2M_ANPR/ANPR_RZA2M_EBK/src/tensorflow_lite/third_party/flatbuffers/include/flatbuffers\flexbuffers.h ****     if (IsFixedTypedVector()) {
 647:C:/Renesas/e2studio_2021_01_workspace_RZA2M_ANPR/ANPR_RZA2M_EBK/src/tensorflow_lite/third_party/flatbuffers/include/flatbuffers\flexbuffers.h ****       uint8_t len = 0;
 648:C:/Renesas/e2studio_2021_01_workspace_RZA2M_ANPR/ANPR_RZA2M_EBK/src/tensorflow_lite/third_party/flatbuffers/include/flatbuffers\flexbuffers.h ****       auto vtype = ToFixedTypedVectorElementType(type_, &len);
 649:C:/Renesas/e2studio_2021_01_workspace_RZA2M_ANPR/ANPR_RZA2M_EBK/src/tensorflow_lite/third_party/flatbuffers/include/flatbuffers\flexbuffers.h ****       return FixedTypedVector(Indirect(), byte_width_, vtype, len);
 650:C:/Renesas/e2studio_2021_01_workspace_RZA2M_ANPR/ANPR_RZA2M_EBK/src/tensorflow_lite/third_party/flatbuffers/include/flatbuffers\flexbuffers.h ****     } else {
 651:C:/Renesas/e2studio_2021_01_workspace_RZA2M_ANPR/ANPR_RZA2M_EBK/src/tensorflow_lite/third_party/flatbuffers/include/flatbuffers\flexbuffers.h ****       return FixedTypedVector::EmptyFixedTypedVector();
 652:C:/Renesas/e2studio_2021_01_workspace_RZA2M_ANPR/ANPR_RZA2M_EBK/src/tensorflow_lite/third_party/flatbuffers/include/flatbuffers\flexbuffers.h ****     }
 653:C:/Renesas/e2studio_2021_01_workspace_RZA2M_ANPR/ANPR_RZA2M_EBK/src/tensorflow_lite/third_party/flatbuffers/include/flatbuffers\flexbuffers.h ****   }
 654:C:/Renesas/e2studio_2021_01_workspace_RZA2M_ANPR/ANPR_RZA2M_EBK/src/tensorflow_lite/third_party/flatbuffers/include/flatbuffers\flexbuffers.h **** 
 655:C:/Renesas/e2studio_2021_01_workspace_RZA2M_ANPR/ANPR_RZA2M_EBK/src/tensorflow_lite/third_party/flatbuffers/include/flatbuffers\flexbuffers.h ****   Map AsMap() const {
 656:C:/Renesas/e2studio_2021_01_workspace_RZA2M_ANPR/ANPR_RZA2M_EBK/src/tensorflow_lite/third_party/flatbuffers/include/flatbuffers\flexbuffers.h ****     if (type_ == FBT_MAP) {
 657:C:/Renesas/e2studio_2021_01_workspace_RZA2M_ANPR/ANPR_RZA2M_EBK/src/tensorflow_lite/third_party/flatbuffers/include/flatbuffers\flexbuffers.h ****       return Map(Indirect(), byte_width_);
 658:C:/Renesas/e2studio_2021_01_workspace_RZA2M_ANPR/ANPR_RZA2M_EBK/src/tensorflow_lite/third_party/flatbuffers/include/flatbuffers\flexbuffers.h ****     } else {
 659:C:/Renesas/e2studio_2021_01_workspace_RZA2M_ANPR/ANPR_RZA2M_EBK/src/tensorflow_lite/third_party/flatbuffers/include/flatbuffers\flexbuffers.h ****       return Map::EmptyMap();
 660:C:/Renesas/e2studio_2021_01_workspace_RZA2M_ANPR/ANPR_RZA2M_EBK/src/tensorflow_lite/third_party/flatbuffers/include/flatbuffers\flexbuffers.h ****     }
 661:C:/Renesas/e2studio_2021_01_workspace_RZA2M_ANPR/ANPR_RZA2M_EBK/src/tensorflow_lite/third_party/flatbuffers/include/flatbuffers\flexbuffers.h ****   }
 662:C:/Renesas/e2studio_2021_01_workspace_RZA2M_ANPR/ANPR_RZA2M_EBK/src/tensorflow_lite/third_party/flatbuffers/include/flatbuffers\flexbuffers.h **** 
 663:C:/Renesas/e2studio_2021_01_workspace_RZA2M_ANPR/ANPR_RZA2M_EBK/src/tensorflow_lite/third_party/flatbuffers/include/flatbuffers\flexbuffers.h ****   template<typename T> T As() const;
 664:C:/Renesas/e2studio_2021_01_workspace_RZA2M_ANPR/ANPR_RZA2M_EBK/src/tensorflow_lite/third_party/flatbuffers/include/flatbuffers\flexbuffers.h **** 
 665:C:/Renesas/e2studio_2021_01_workspace_RZA2M_ANPR/ANPR_RZA2M_EBK/src/tensorflow_lite/third_party/flatbuffers/include/flatbuffers\flexbuffers.h ****   // Experimental: Mutation functions.
 666:C:/Renesas/e2studio_2021_01_workspace_RZA2M_ANPR/ANPR_RZA2M_EBK/src/tensorflow_lite/third_party/flatbuffers/include/flatbuffers\flexbuffers.h ****   // These allow scalars in an already created buffer to be updated in-place.
 667:C:/Renesas/e2studio_2021_01_workspace_RZA2M_ANPR/ANPR_RZA2M_EBK/src/tensorflow_lite/third_party/flatbuffers/include/flatbuffers\flexbuffers.h ****   // Since by default scalars are stored in the smallest possible space,
 668:C:/Renesas/e2studio_2021_01_workspace_RZA2M_ANPR/ANPR_RZA2M_EBK/src/tensorflow_lite/third_party/flatbuffers/include/flatbuffers\flexbuffers.h ****   // the new value may not fit, in which case these functions return false.
 669:C:/Renesas/e2studio_2021_01_workspace_RZA2M_ANPR/ANPR_RZA2M_EBK/src/tensorflow_lite/third_party/flatbuffers/include/flatbuffers\flexbuffers.h ****   // To avoid this, you can construct the values you intend to mutate using
 670:C:/Renesas/e2studio_2021_01_workspace_RZA2M_ANPR/ANPR_RZA2M_EBK/src/tensorflow_lite/third_party/flatbuffers/include/flatbuffers\flexbuffers.h ****   // Builder::ForceMinimumBitWidth.
 671:C:/Renesas/e2studio_2021_01_workspace_RZA2M_ANPR/ANPR_RZA2M_EBK/src/tensorflow_lite/third_party/flatbuffers/include/flatbuffers\flexbuffers.h ****   bool MutateInt(int64_t i) {
 672:C:/Renesas/e2studio_2021_01_workspace_RZA2M_ANPR/ANPR_RZA2M_EBK/src/tensorflow_lite/third_party/flatbuffers/include/flatbuffers\flexbuffers.h ****     if (type_ == FBT_INT) {
 673:C:/Renesas/e2studio_2021_01_workspace_RZA2M_ANPR/ANPR_RZA2M_EBK/src/tensorflow_lite/third_party/flatbuffers/include/flatbuffers\flexbuffers.h ****       return Mutate(data_, i, parent_width_, WidthI(i));
 674:C:/Renesas/e2studio_2021_01_workspace_RZA2M_ANPR/ANPR_RZA2M_EBK/src/tensorflow_lite/third_party/flatbuffers/include/flatbuffers\flexbuffers.h ****     } else if (type_ == FBT_INDIRECT_INT) {
 675:C:/Renesas/e2studio_2021_01_workspace_RZA2M_ANPR/ANPR_RZA2M_EBK/src/tensorflow_lite/third_party/flatbuffers/include/flatbuffers\flexbuffers.h ****       return Mutate(Indirect(), i, byte_width_, WidthI(i));
 676:C:/Renesas/e2studio_2021_01_workspace_RZA2M_ANPR/ANPR_RZA2M_EBK/src/tensorflow_lite/third_party/flatbuffers/include/flatbuffers\flexbuffers.h ****     } else if (type_ == FBT_UINT) {
 677:C:/Renesas/e2studio_2021_01_workspace_RZA2M_ANPR/ANPR_RZA2M_EBK/src/tensorflow_lite/third_party/flatbuffers/include/flatbuffers\flexbuffers.h ****       auto u = static_cast<uint64_t>(i);
 678:C:/Renesas/e2studio_2021_01_workspace_RZA2M_ANPR/ANPR_RZA2M_EBK/src/tensorflow_lite/third_party/flatbuffers/include/flatbuffers\flexbuffers.h ****       return Mutate(data_, u, parent_width_, WidthU(u));
 679:C:/Renesas/e2studio_2021_01_workspace_RZA2M_ANPR/ANPR_RZA2M_EBK/src/tensorflow_lite/third_party/flatbuffers/include/flatbuffers\flexbuffers.h ****     } else if (type_ == FBT_INDIRECT_UINT) {
 680:C:/Renesas/e2studio_2021_01_workspace_RZA2M_ANPR/ANPR_RZA2M_EBK/src/tensorflow_lite/third_party/flatbuffers/include/flatbuffers\flexbuffers.h ****       auto u = static_cast<uint64_t>(i);
 681:C:/Renesas/e2studio_2021_01_workspace_RZA2M_ANPR/ANPR_RZA2M_EBK/src/tensorflow_lite/third_party/flatbuffers/include/flatbuffers\flexbuffers.h ****       return Mutate(Indirect(), u, byte_width_, WidthU(u));
 682:C:/Renesas/e2studio_2021_01_workspace_RZA2M_ANPR/ANPR_RZA2M_EBK/src/tensorflow_lite/third_party/flatbuffers/include/flatbuffers\flexbuffers.h ****     } else {
 683:C:/Renesas/e2studio_2021_01_workspace_RZA2M_ANPR/ANPR_RZA2M_EBK/src/tensorflow_lite/third_party/flatbuffers/include/flatbuffers\flexbuffers.h ****       return false;
 684:C:/Renesas/e2studio_2021_01_workspace_RZA2M_ANPR/ANPR_RZA2M_EBK/src/tensorflow_lite/third_party/flatbuffers/include/flatbuffers\flexbuffers.h ****     }
 685:C:/Renesas/e2studio_2021_01_workspace_RZA2M_ANPR/ANPR_RZA2M_EBK/src/tensorflow_lite/third_party/flatbuffers/include/flatbuffers\flexbuffers.h ****   }
 686:C:/Renesas/e2studio_2021_01_workspace_RZA2M_ANPR/ANPR_RZA2M_EBK/src/tensorflow_lite/third_party/flatbuffers/include/flatbuffers\flexbuffers.h **** 
 687:C:/Renesas/e2studio_2021_01_workspace_RZA2M_ANPR/ANPR_RZA2M_EBK/src/tensorflow_lite/third_party/flatbuffers/include/flatbuffers\flexbuffers.h ****   bool MutateBool(bool b) {
 688:C:/Renesas/e2studio_2021_01_workspace_RZA2M_ANPR/ANPR_RZA2M_EBK/src/tensorflow_lite/third_party/flatbuffers/include/flatbuffers\flexbuffers.h ****     return type_ == FBT_BOOL && Mutate(data_, b, parent_width_, BIT_WIDTH_8);
 689:C:/Renesas/e2studio_2021_01_workspace_RZA2M_ANPR/ANPR_RZA2M_EBK/src/tensorflow_lite/third_party/flatbuffers/include/flatbuffers\flexbuffers.h ****   }
 690:C:/Renesas/e2studio_2021_01_workspace_RZA2M_ANPR/ANPR_RZA2M_EBK/src/tensorflow_lite/third_party/flatbuffers/include/flatbuffers\flexbuffers.h **** 
 691:C:/Renesas/e2studio_2021_01_workspace_RZA2M_ANPR/ANPR_RZA2M_EBK/src/tensorflow_lite/third_party/flatbuffers/include/flatbuffers\flexbuffers.h ****   bool MutateUInt(uint64_t u) {
 692:C:/Renesas/e2studio_2021_01_workspace_RZA2M_ANPR/ANPR_RZA2M_EBK/src/tensorflow_lite/third_party/flatbuffers/include/flatbuffers\flexbuffers.h ****     if (type_ == FBT_UINT) {
 693:C:/Renesas/e2studio_2021_01_workspace_RZA2M_ANPR/ANPR_RZA2M_EBK/src/tensorflow_lite/third_party/flatbuffers/include/flatbuffers\flexbuffers.h ****       return Mutate(data_, u, parent_width_, WidthU(u));
 694:C:/Renesas/e2studio_2021_01_workspace_RZA2M_ANPR/ANPR_RZA2M_EBK/src/tensorflow_lite/third_party/flatbuffers/include/flatbuffers\flexbuffers.h ****     } else if (type_ == FBT_INDIRECT_UINT) {
 695:C:/Renesas/e2studio_2021_01_workspace_RZA2M_ANPR/ANPR_RZA2M_EBK/src/tensorflow_lite/third_party/flatbuffers/include/flatbuffers\flexbuffers.h ****       return Mutate(Indirect(), u, byte_width_, WidthU(u));
 696:C:/Renesas/e2studio_2021_01_workspace_RZA2M_ANPR/ANPR_RZA2M_EBK/src/tensorflow_lite/third_party/flatbuffers/include/flatbuffers\flexbuffers.h ****     } else if (type_ == FBT_INT) {
 697:C:/Renesas/e2studio_2021_01_workspace_RZA2M_ANPR/ANPR_RZA2M_EBK/src/tensorflow_lite/third_party/flatbuffers/include/flatbuffers\flexbuffers.h ****       auto i = static_cast<int64_t>(u);
 698:C:/Renesas/e2studio_2021_01_workspace_RZA2M_ANPR/ANPR_RZA2M_EBK/src/tensorflow_lite/third_party/flatbuffers/include/flatbuffers\flexbuffers.h ****       return Mutate(data_, i, parent_width_, WidthI(i));
 699:C:/Renesas/e2studio_2021_01_workspace_RZA2M_ANPR/ANPR_RZA2M_EBK/src/tensorflow_lite/third_party/flatbuffers/include/flatbuffers\flexbuffers.h ****     } else if (type_ == FBT_INDIRECT_INT) {
 700:C:/Renesas/e2studio_2021_01_workspace_RZA2M_ANPR/ANPR_RZA2M_EBK/src/tensorflow_lite/third_party/flatbuffers/include/flatbuffers\flexbuffers.h ****       auto i = static_cast<int64_t>(u);
 701:C:/Renesas/e2studio_2021_01_workspace_RZA2M_ANPR/ANPR_RZA2M_EBK/src/tensorflow_lite/third_party/flatbuffers/include/flatbuffers\flexbuffers.h ****       return Mutate(Indirect(), i, byte_width_, WidthI(i));
 702:C:/Renesas/e2studio_2021_01_workspace_RZA2M_ANPR/ANPR_RZA2M_EBK/src/tensorflow_lite/third_party/flatbuffers/include/flatbuffers\flexbuffers.h ****     } else {
 703:C:/Renesas/e2studio_2021_01_workspace_RZA2M_ANPR/ANPR_RZA2M_EBK/src/tensorflow_lite/third_party/flatbuffers/include/flatbuffers\flexbuffers.h ****       return false;
 704:C:/Renesas/e2studio_2021_01_workspace_RZA2M_ANPR/ANPR_RZA2M_EBK/src/tensorflow_lite/third_party/flatbuffers/include/flatbuffers\flexbuffers.h ****     }
 705:C:/Renesas/e2studio_2021_01_workspace_RZA2M_ANPR/ANPR_RZA2M_EBK/src/tensorflow_lite/third_party/flatbuffers/include/flatbuffers\flexbuffers.h ****   }
 706:C:/Renesas/e2studio_2021_01_workspace_RZA2M_ANPR/ANPR_RZA2M_EBK/src/tensorflow_lite/third_party/flatbuffers/include/flatbuffers\flexbuffers.h **** 
 707:C:/Renesas/e2studio_2021_01_workspace_RZA2M_ANPR/ANPR_RZA2M_EBK/src/tensorflow_lite/third_party/flatbuffers/include/flatbuffers\flexbuffers.h ****   bool MutateFloat(float f) {
 708:C:/Renesas/e2studio_2021_01_workspace_RZA2M_ANPR/ANPR_RZA2M_EBK/src/tensorflow_lite/third_party/flatbuffers/include/flatbuffers\flexbuffers.h ****     if (type_ == FBT_FLOAT) {
 709:C:/Renesas/e2studio_2021_01_workspace_RZA2M_ANPR/ANPR_RZA2M_EBK/src/tensorflow_lite/third_party/flatbuffers/include/flatbuffers\flexbuffers.h ****       return MutateF(data_, f, parent_width_, BIT_WIDTH_32);
 710:C:/Renesas/e2studio_2021_01_workspace_RZA2M_ANPR/ANPR_RZA2M_EBK/src/tensorflow_lite/third_party/flatbuffers/include/flatbuffers\flexbuffers.h ****     } else if (type_ == FBT_INDIRECT_FLOAT) {
 711:C:/Renesas/e2studio_2021_01_workspace_RZA2M_ANPR/ANPR_RZA2M_EBK/src/tensorflow_lite/third_party/flatbuffers/include/flatbuffers\flexbuffers.h ****       return MutateF(Indirect(), f, byte_width_, BIT_WIDTH_32);
 712:C:/Renesas/e2studio_2021_01_workspace_RZA2M_ANPR/ANPR_RZA2M_EBK/src/tensorflow_lite/third_party/flatbuffers/include/flatbuffers\flexbuffers.h ****     } else {
 713:C:/Renesas/e2studio_2021_01_workspace_RZA2M_ANPR/ANPR_RZA2M_EBK/src/tensorflow_lite/third_party/flatbuffers/include/flatbuffers\flexbuffers.h ****       return false;
 714:C:/Renesas/e2studio_2021_01_workspace_RZA2M_ANPR/ANPR_RZA2M_EBK/src/tensorflow_lite/third_party/flatbuffers/include/flatbuffers\flexbuffers.h ****     }
 715:C:/Renesas/e2studio_2021_01_workspace_RZA2M_ANPR/ANPR_RZA2M_EBK/src/tensorflow_lite/third_party/flatbuffers/include/flatbuffers\flexbuffers.h ****   }
 716:C:/Renesas/e2studio_2021_01_workspace_RZA2M_ANPR/ANPR_RZA2M_EBK/src/tensorflow_lite/third_party/flatbuffers/include/flatbuffers\flexbuffers.h **** 
 717:C:/Renesas/e2studio_2021_01_workspace_RZA2M_ANPR/ANPR_RZA2M_EBK/src/tensorflow_lite/third_party/flatbuffers/include/flatbuffers\flexbuffers.h ****   bool MutateFloat(double d) {
 718:C:/Renesas/e2studio_2021_01_workspace_RZA2M_ANPR/ANPR_RZA2M_EBK/src/tensorflow_lite/third_party/flatbuffers/include/flatbuffers\flexbuffers.h ****     if (type_ == FBT_FLOAT) {
 719:C:/Renesas/e2studio_2021_01_workspace_RZA2M_ANPR/ANPR_RZA2M_EBK/src/tensorflow_lite/third_party/flatbuffers/include/flatbuffers\flexbuffers.h ****       return MutateF(data_, d, parent_width_, WidthF(d));
 720:C:/Renesas/e2studio_2021_01_workspace_RZA2M_ANPR/ANPR_RZA2M_EBK/src/tensorflow_lite/third_party/flatbuffers/include/flatbuffers\flexbuffers.h ****     } else if (type_ == FBT_INDIRECT_FLOAT) {
 721:C:/Renesas/e2studio_2021_01_workspace_RZA2M_ANPR/ANPR_RZA2M_EBK/src/tensorflow_lite/third_party/flatbuffers/include/flatbuffers\flexbuffers.h ****       return MutateF(Indirect(), d, byte_width_, WidthF(d));
 722:C:/Renesas/e2studio_2021_01_workspace_RZA2M_ANPR/ANPR_RZA2M_EBK/src/tensorflow_lite/third_party/flatbuffers/include/flatbuffers\flexbuffers.h ****     } else {
 723:C:/Renesas/e2studio_2021_01_workspace_RZA2M_ANPR/ANPR_RZA2M_EBK/src/tensorflow_lite/third_party/flatbuffers/include/flatbuffers\flexbuffers.h ****       return false;
 724:C:/Renesas/e2studio_2021_01_workspace_RZA2M_ANPR/ANPR_RZA2M_EBK/src/tensorflow_lite/third_party/flatbuffers/include/flatbuffers\flexbuffers.h ****     }
 725:C:/Renesas/e2studio_2021_01_workspace_RZA2M_ANPR/ANPR_RZA2M_EBK/src/tensorflow_lite/third_party/flatbuffers/include/flatbuffers\flexbuffers.h ****   }
 726:C:/Renesas/e2studio_2021_01_workspace_RZA2M_ANPR/ANPR_RZA2M_EBK/src/tensorflow_lite/third_party/flatbuffers/include/flatbuffers\flexbuffers.h **** 
 727:C:/Renesas/e2studio_2021_01_workspace_RZA2M_ANPR/ANPR_RZA2M_EBK/src/tensorflow_lite/third_party/flatbuffers/include/flatbuffers\flexbuffers.h ****   bool MutateString(const char *str, size_t len) {
 728:C:/Renesas/e2studio_2021_01_workspace_RZA2M_ANPR/ANPR_RZA2M_EBK/src/tensorflow_lite/third_party/flatbuffers/include/flatbuffers\flexbuffers.h ****     auto s = AsString();
 729:C:/Renesas/e2studio_2021_01_workspace_RZA2M_ANPR/ANPR_RZA2M_EBK/src/tensorflow_lite/third_party/flatbuffers/include/flatbuffers\flexbuffers.h ****     if (s.IsTheEmptyString()) return false;
 730:C:/Renesas/e2studio_2021_01_workspace_RZA2M_ANPR/ANPR_RZA2M_EBK/src/tensorflow_lite/third_party/flatbuffers/include/flatbuffers\flexbuffers.h ****     // This is very strict, could allow shorter strings, but that creates
 731:C:/Renesas/e2studio_2021_01_workspace_RZA2M_ANPR/ANPR_RZA2M_EBK/src/tensorflow_lite/third_party/flatbuffers/include/flatbuffers\flexbuffers.h ****     // garbage.
 732:C:/Renesas/e2studio_2021_01_workspace_RZA2M_ANPR/ANPR_RZA2M_EBK/src/tensorflow_lite/third_party/flatbuffers/include/flatbuffers\flexbuffers.h ****     if (s.length() != len) return false;
 733:C:/Renesas/e2studio_2021_01_workspace_RZA2M_ANPR/ANPR_RZA2M_EBK/src/tensorflow_lite/third_party/flatbuffers/include/flatbuffers\flexbuffers.h ****     memcpy(const_cast<char *>(s.c_str()), str, len);
 734:C:/Renesas/e2studio_2021_01_workspace_RZA2M_ANPR/ANPR_RZA2M_EBK/src/tensorflow_lite/third_party/flatbuffers/include/flatbuffers\flexbuffers.h ****     return true;
 735:C:/Renesas/e2studio_2021_01_workspace_RZA2M_ANPR/ANPR_RZA2M_EBK/src/tensorflow_lite/third_party/flatbuffers/include/flatbuffers\flexbuffers.h ****   }
 736:C:/Renesas/e2studio_2021_01_workspace_RZA2M_ANPR/ANPR_RZA2M_EBK/src/tensorflow_lite/third_party/flatbuffers/include/flatbuffers\flexbuffers.h ****   bool MutateString(const char *str) { return MutateString(str, strlen(str)); }
 737:C:/Renesas/e2studio_2021_01_workspace_RZA2M_ANPR/ANPR_RZA2M_EBK/src/tensorflow_lite/third_party/flatbuffers/include/flatbuffers\flexbuffers.h ****   bool MutateString(const std::string &str) {
 738:C:/Renesas/e2studio_2021_01_workspace_RZA2M_ANPR/ANPR_RZA2M_EBK/src/tensorflow_lite/third_party/flatbuffers/include/flatbuffers\flexbuffers.h ****     return MutateString(str.data(), str.length());
 739:C:/Renesas/e2studio_2021_01_workspace_RZA2M_ANPR/ANPR_RZA2M_EBK/src/tensorflow_lite/third_party/flatbuffers/include/flatbuffers\flexbuffers.h ****   }
 740:C:/Renesas/e2studio_2021_01_workspace_RZA2M_ANPR/ANPR_RZA2M_EBK/src/tensorflow_lite/third_party/flatbuffers/include/flatbuffers\flexbuffers.h **** 
 741:C:/Renesas/e2studio_2021_01_workspace_RZA2M_ANPR/ANPR_RZA2M_EBK/src/tensorflow_lite/third_party/flatbuffers/include/flatbuffers\flexbuffers.h ****  private:
 742:C:/Renesas/e2studio_2021_01_workspace_RZA2M_ANPR/ANPR_RZA2M_EBK/src/tensorflow_lite/third_party/flatbuffers/include/flatbuffers\flexbuffers.h ****   const uint8_t *Indirect() const {
 743:C:/Renesas/e2studio_2021_01_workspace_RZA2M_ANPR/ANPR_RZA2M_EBK/src/tensorflow_lite/third_party/flatbuffers/include/flatbuffers\flexbuffers.h ****     return flexbuffers::Indirect(data_, parent_width_);
 744:C:/Renesas/e2studio_2021_01_workspace_RZA2M_ANPR/ANPR_RZA2M_EBK/src/tensorflow_lite/third_party/flatbuffers/include/flatbuffers\flexbuffers.h ****   }
 745:C:/Renesas/e2studio_2021_01_workspace_RZA2M_ANPR/ANPR_RZA2M_EBK/src/tensorflow_lite/third_party/flatbuffers/include/flatbuffers\flexbuffers.h **** 
 746:C:/Renesas/e2studio_2021_01_workspace_RZA2M_ANPR/ANPR_RZA2M_EBK/src/tensorflow_lite/third_party/flatbuffers/include/flatbuffers\flexbuffers.h ****   template<typename T>
 747:C:/Renesas/e2studio_2021_01_workspace_RZA2M_ANPR/ANPR_RZA2M_EBK/src/tensorflow_lite/third_party/flatbuffers/include/flatbuffers\flexbuffers.h ****   bool Mutate(const uint8_t *dest, T t, size_t byte_width,
 748:C:/Renesas/e2studio_2021_01_workspace_RZA2M_ANPR/ANPR_RZA2M_EBK/src/tensorflow_lite/third_party/flatbuffers/include/flatbuffers\flexbuffers.h ****               BitWidth value_width) {
 749:C:/Renesas/e2studio_2021_01_workspace_RZA2M_ANPR/ANPR_RZA2M_EBK/src/tensorflow_lite/third_party/flatbuffers/include/flatbuffers\flexbuffers.h ****     auto fits = static_cast<size_t>(static_cast<size_t>(1U) << value_width) <=
 750:C:/Renesas/e2studio_2021_01_workspace_RZA2M_ANPR/ANPR_RZA2M_EBK/src/tensorflow_lite/third_party/flatbuffers/include/flatbuffers\flexbuffers.h ****                 byte_width;
 751:C:/Renesas/e2studio_2021_01_workspace_RZA2M_ANPR/ANPR_RZA2M_EBK/src/tensorflow_lite/third_party/flatbuffers/include/flatbuffers\flexbuffers.h ****     if (fits) {
 752:C:/Renesas/e2studio_2021_01_workspace_RZA2M_ANPR/ANPR_RZA2M_EBK/src/tensorflow_lite/third_party/flatbuffers/include/flatbuffers\flexbuffers.h ****       t = flatbuffers::EndianScalar(t);
 753:C:/Renesas/e2studio_2021_01_workspace_RZA2M_ANPR/ANPR_RZA2M_EBK/src/tensorflow_lite/third_party/flatbuffers/include/flatbuffers\flexbuffers.h ****       memcpy(const_cast<uint8_t *>(dest), &t, byte_width);
 754:C:/Renesas/e2studio_2021_01_workspace_RZA2M_ANPR/ANPR_RZA2M_EBK/src/tensorflow_lite/third_party/flatbuffers/include/flatbuffers\flexbuffers.h ****     }
 755:C:/Renesas/e2studio_2021_01_workspace_RZA2M_ANPR/ANPR_RZA2M_EBK/src/tensorflow_lite/third_party/flatbuffers/include/flatbuffers\flexbuffers.h ****     return fits;
 756:C:/Renesas/e2studio_2021_01_workspace_RZA2M_ANPR/ANPR_RZA2M_EBK/src/tensorflow_lite/third_party/flatbuffers/include/flatbuffers\flexbuffers.h ****   }
 757:C:/Renesas/e2studio_2021_01_workspace_RZA2M_ANPR/ANPR_RZA2M_EBK/src/tensorflow_lite/third_party/flatbuffers/include/flatbuffers\flexbuffers.h **** 
 758:C:/Renesas/e2studio_2021_01_workspace_RZA2M_ANPR/ANPR_RZA2M_EBK/src/tensorflow_lite/third_party/flatbuffers/include/flatbuffers\flexbuffers.h ****   template<typename T>
 759:C:/Renesas/e2studio_2021_01_workspace_RZA2M_ANPR/ANPR_RZA2M_EBK/src/tensorflow_lite/third_party/flatbuffers/include/flatbuffers\flexbuffers.h ****   bool MutateF(const uint8_t *dest, T t, size_t byte_width,
 760:C:/Renesas/e2studio_2021_01_workspace_RZA2M_ANPR/ANPR_RZA2M_EBK/src/tensorflow_lite/third_party/flatbuffers/include/flatbuffers\flexbuffers.h ****                BitWidth value_width) {
 761:C:/Renesas/e2studio_2021_01_workspace_RZA2M_ANPR/ANPR_RZA2M_EBK/src/tensorflow_lite/third_party/flatbuffers/include/flatbuffers\flexbuffers.h ****     if (byte_width == sizeof(double))
 762:C:/Renesas/e2studio_2021_01_workspace_RZA2M_ANPR/ANPR_RZA2M_EBK/src/tensorflow_lite/third_party/flatbuffers/include/flatbuffers\flexbuffers.h ****       return Mutate(dest, static_cast<double>(t), byte_width, value_width);
 763:C:/Renesas/e2studio_2021_01_workspace_RZA2M_ANPR/ANPR_RZA2M_EBK/src/tensorflow_lite/third_party/flatbuffers/include/flatbuffers\flexbuffers.h ****     if (byte_width == sizeof(float))
 764:C:/Renesas/e2studio_2021_01_workspace_RZA2M_ANPR/ANPR_RZA2M_EBK/src/tensorflow_lite/third_party/flatbuffers/include/flatbuffers\flexbuffers.h ****       return Mutate(dest, static_cast<float>(t), byte_width, value_width);
 765:C:/Renesas/e2studio_2021_01_workspace_RZA2M_ANPR/ANPR_RZA2M_EBK/src/tensorflow_lite/third_party/flatbuffers/include/flatbuffers\flexbuffers.h ****     FLATBUFFERS_ASSERT(false);
 766:C:/Renesas/e2studio_2021_01_workspace_RZA2M_ANPR/ANPR_RZA2M_EBK/src/tensorflow_lite/third_party/flatbuffers/include/flatbuffers\flexbuffers.h ****     return false;
 767:C:/Renesas/e2studio_2021_01_workspace_RZA2M_ANPR/ANPR_RZA2M_EBK/src/tensorflow_lite/third_party/flatbuffers/include/flatbuffers\flexbuffers.h ****   }
 768:C:/Renesas/e2studio_2021_01_workspace_RZA2M_ANPR/ANPR_RZA2M_EBK/src/tensorflow_lite/third_party/flatbuffers/include/flatbuffers\flexbuffers.h **** 
 769:C:/Renesas/e2studio_2021_01_workspace_RZA2M_ANPR/ANPR_RZA2M_EBK/src/tensorflow_lite/third_party/flatbuffers/include/flatbuffers\flexbuffers.h ****   const uint8_t *data_;
 770:C:/Renesas/e2studio_2021_01_workspace_RZA2M_ANPR/ANPR_RZA2M_EBK/src/tensorflow_lite/third_party/flatbuffers/include/flatbuffers\flexbuffers.h ****   uint8_t parent_width_;
 771:C:/Renesas/e2studio_2021_01_workspace_RZA2M_ANPR/ANPR_RZA2M_EBK/src/tensorflow_lite/third_party/flatbuffers/include/flatbuffers\flexbuffers.h ****   uint8_t byte_width_;
 772:C:/Renesas/e2studio_2021_01_workspace_RZA2M_ANPR/ANPR_RZA2M_EBK/src/tensorflow_lite/third_party/flatbuffers/include/flatbuffers\flexbuffers.h ****   Type type_;
 773:C:/Renesas/e2studio_2021_01_workspace_RZA2M_ANPR/ANPR_RZA2M_EBK/src/tensorflow_lite/third_party/flatbuffers/include/flatbuffers\flexbuffers.h **** };
 774:C:/Renesas/e2studio_2021_01_workspace_RZA2M_ANPR/ANPR_RZA2M_EBK/src/tensorflow_lite/third_party/flatbuffers/include/flatbuffers\flexbuffers.h **** 
 775:C:/Renesas/e2studio_2021_01_workspace_RZA2M_ANPR/ANPR_RZA2M_EBK/src/tensorflow_lite/third_party/flatbuffers/include/flatbuffers\flexbuffers.h **** // Template specialization for As().
 776:C:/Renesas/e2studio_2021_01_workspace_RZA2M_ANPR/ANPR_RZA2M_EBK/src/tensorflow_lite/third_party/flatbuffers/include/flatbuffers\flexbuffers.h **** template<> inline bool Reference::As<bool>() const { return AsBool(); }
 777:C:/Renesas/e2studio_2021_01_workspace_RZA2M_ANPR/ANPR_RZA2M_EBK/src/tensorflow_lite/third_party/flatbuffers/include/flatbuffers\flexbuffers.h **** 
 778:C:/Renesas/e2studio_2021_01_workspace_RZA2M_ANPR/ANPR_RZA2M_EBK/src/tensorflow_lite/third_party/flatbuffers/include/flatbuffers\flexbuffers.h **** template<> inline int8_t Reference::As<int8_t>() const { return AsInt8(); }
 779:C:/Renesas/e2studio_2021_01_workspace_RZA2M_ANPR/ANPR_RZA2M_EBK/src/tensorflow_lite/third_party/flatbuffers/include/flatbuffers\flexbuffers.h **** template<> inline int16_t Reference::As<int16_t>() const { return AsInt16(); }
 780:C:/Renesas/e2studio_2021_01_workspace_RZA2M_ANPR/ANPR_RZA2M_EBK/src/tensorflow_lite/third_party/flatbuffers/include/flatbuffers\flexbuffers.h **** template<> inline int32_t Reference::As<int32_t>() const { return AsInt32(); }
 781:C:/Renesas/e2studio_2021_01_workspace_RZA2M_ANPR/ANPR_RZA2M_EBK/src/tensorflow_lite/third_party/flatbuffers/include/flatbuffers\flexbuffers.h **** template<> inline int64_t Reference::As<int64_t>() const { return AsInt64(); }
 782:C:/Renesas/e2studio_2021_01_workspace_RZA2M_ANPR/ANPR_RZA2M_EBK/src/tensorflow_lite/third_party/flatbuffers/include/flatbuffers\flexbuffers.h **** 
 783:C:/Renesas/e2studio_2021_01_workspace_RZA2M_ANPR/ANPR_RZA2M_EBK/src/tensorflow_lite/third_party/flatbuffers/include/flatbuffers\flexbuffers.h **** template<> inline uint8_t Reference::As<uint8_t>() const { return AsUInt8(); }
 784:C:/Renesas/e2studio_2021_01_workspace_RZA2M_ANPR/ANPR_RZA2M_EBK/src/tensorflow_lite/third_party/flatbuffers/include/flatbuffers\flexbuffers.h **** template<> inline uint16_t Reference::As<uint16_t>() const {
 785:C:/Renesas/e2studio_2021_01_workspace_RZA2M_ANPR/ANPR_RZA2M_EBK/src/tensorflow_lite/third_party/flatbuffers/include/flatbuffers\flexbuffers.h ****   return AsUInt16();
 786:C:/Renesas/e2studio_2021_01_workspace_RZA2M_ANPR/ANPR_RZA2M_EBK/src/tensorflow_lite/third_party/flatbuffers/include/flatbuffers\flexbuffers.h **** }
 787:C:/Renesas/e2studio_2021_01_workspace_RZA2M_ANPR/ANPR_RZA2M_EBK/src/tensorflow_lite/third_party/flatbuffers/include/flatbuffers\flexbuffers.h **** template<> inline uint32_t Reference::As<uint32_t>() const {
 788:C:/Renesas/e2studio_2021_01_workspace_RZA2M_ANPR/ANPR_RZA2M_EBK/src/tensorflow_lite/third_party/flatbuffers/include/flatbuffers\flexbuffers.h ****   return AsUInt32();
 789:C:/Renesas/e2studio_2021_01_workspace_RZA2M_ANPR/ANPR_RZA2M_EBK/src/tensorflow_lite/third_party/flatbuffers/include/flatbuffers\flexbuffers.h **** }
 790:C:/Renesas/e2studio_2021_01_workspace_RZA2M_ANPR/ANPR_RZA2M_EBK/src/tensorflow_lite/third_party/flatbuffers/include/flatbuffers\flexbuffers.h **** template<> inline uint64_t Reference::As<uint64_t>() const {
 791:C:/Renesas/e2studio_2021_01_workspace_RZA2M_ANPR/ANPR_RZA2M_EBK/src/tensorflow_lite/third_party/flatbuffers/include/flatbuffers\flexbuffers.h ****   return AsUInt64();
 792:C:/Renesas/e2studio_2021_01_workspace_RZA2M_ANPR/ANPR_RZA2M_EBK/src/tensorflow_lite/third_party/flatbuffers/include/flatbuffers\flexbuffers.h **** }
 793:C:/Renesas/e2studio_2021_01_workspace_RZA2M_ANPR/ANPR_RZA2M_EBK/src/tensorflow_lite/third_party/flatbuffers/include/flatbuffers\flexbuffers.h **** 
 794:C:/Renesas/e2studio_2021_01_workspace_RZA2M_ANPR/ANPR_RZA2M_EBK/src/tensorflow_lite/third_party/flatbuffers/include/flatbuffers\flexbuffers.h **** template<> inline double Reference::As<double>() const { return AsDouble(); }
 795:C:/Renesas/e2studio_2021_01_workspace_RZA2M_ANPR/ANPR_RZA2M_EBK/src/tensorflow_lite/third_party/flatbuffers/include/flatbuffers\flexbuffers.h **** template<> inline float Reference::As<float>() const { return AsFloat(); }
 796:C:/Renesas/e2studio_2021_01_workspace_RZA2M_ANPR/ANPR_RZA2M_EBK/src/tensorflow_lite/third_party/flatbuffers/include/flatbuffers\flexbuffers.h **** 
 797:C:/Renesas/e2studio_2021_01_workspace_RZA2M_ANPR/ANPR_RZA2M_EBK/src/tensorflow_lite/third_party/flatbuffers/include/flatbuffers\flexbuffers.h **** template<> inline String Reference::As<String>() const { return AsString(); }
 798:C:/Renesas/e2studio_2021_01_workspace_RZA2M_ANPR/ANPR_RZA2M_EBK/src/tensorflow_lite/third_party/flatbuffers/include/flatbuffers\flexbuffers.h **** template<> inline std::string Reference::As<std::string>() const {
 799:C:/Renesas/e2studio_2021_01_workspace_RZA2M_ANPR/ANPR_RZA2M_EBK/src/tensorflow_lite/third_party/flatbuffers/include/flatbuffers\flexbuffers.h ****   return AsString().str();
 800:C:/Renesas/e2studio_2021_01_workspace_RZA2M_ANPR/ANPR_RZA2M_EBK/src/tensorflow_lite/third_party/flatbuffers/include/flatbuffers\flexbuffers.h **** }
 801:C:/Renesas/e2studio_2021_01_workspace_RZA2M_ANPR/ANPR_RZA2M_EBK/src/tensorflow_lite/third_party/flatbuffers/include/flatbuffers\flexbuffers.h **** 
 802:C:/Renesas/e2studio_2021_01_workspace_RZA2M_ANPR/ANPR_RZA2M_EBK/src/tensorflow_lite/third_party/flatbuffers/include/flatbuffers\flexbuffers.h **** template<> inline Blob Reference::As<Blob>() const { return AsBlob(); }
 803:C:/Renesas/e2studio_2021_01_workspace_RZA2M_ANPR/ANPR_RZA2M_EBK/src/tensorflow_lite/third_party/flatbuffers/include/flatbuffers\flexbuffers.h **** template<> inline Vector Reference::As<Vector>() const { return AsVector(); }
 804:C:/Renesas/e2studio_2021_01_workspace_RZA2M_ANPR/ANPR_RZA2M_EBK/src/tensorflow_lite/third_party/flatbuffers/include/flatbuffers\flexbuffers.h **** template<> inline TypedVector Reference::As<TypedVector>() const {
 805:C:/Renesas/e2studio_2021_01_workspace_RZA2M_ANPR/ANPR_RZA2M_EBK/src/tensorflow_lite/third_party/flatbuffers/include/flatbuffers\flexbuffers.h ****   return AsTypedVector();
 806:C:/Renesas/e2studio_2021_01_workspace_RZA2M_ANPR/ANPR_RZA2M_EBK/src/tensorflow_lite/third_party/flatbuffers/include/flatbuffers\flexbuffers.h **** }
 807:C:/Renesas/e2studio_2021_01_workspace_RZA2M_ANPR/ANPR_RZA2M_EBK/src/tensorflow_lite/third_party/flatbuffers/include/flatbuffers\flexbuffers.h **** template<> inline FixedTypedVector Reference::As<FixedTypedVector>() const {
 808:C:/Renesas/e2studio_2021_01_workspace_RZA2M_ANPR/ANPR_RZA2M_EBK/src/tensorflow_lite/third_party/flatbuffers/include/flatbuffers\flexbuffers.h ****   return AsFixedTypedVector();
 809:C:/Renesas/e2studio_2021_01_workspace_RZA2M_ANPR/ANPR_RZA2M_EBK/src/tensorflow_lite/third_party/flatbuffers/include/flatbuffers\flexbuffers.h **** }
 810:C:/Renesas/e2studio_2021_01_workspace_RZA2M_ANPR/ANPR_RZA2M_EBK/src/tensorflow_lite/third_party/flatbuffers/include/flatbuffers\flexbuffers.h **** template<> inline Map Reference::As<Map>() const { return AsMap(); }
 811:C:/Renesas/e2studio_2021_01_workspace_RZA2M_ANPR/ANPR_RZA2M_EBK/src/tensorflow_lite/third_party/flatbuffers/include/flatbuffers\flexbuffers.h **** 
 812:C:/Renesas/e2studio_2021_01_workspace_RZA2M_ANPR/ANPR_RZA2M_EBK/src/tensorflow_lite/third_party/flatbuffers/include/flatbuffers\flexbuffers.h **** inline uint8_t PackedType(BitWidth bit_width, Type type) {
 813:C:/Renesas/e2studio_2021_01_workspace_RZA2M_ANPR/ANPR_RZA2M_EBK/src/tensorflow_lite/third_party/flatbuffers/include/flatbuffers\flexbuffers.h ****   return static_cast<uint8_t>(bit_width | (type << 2));
 814:C:/Renesas/e2studio_2021_01_workspace_RZA2M_ANPR/ANPR_RZA2M_EBK/src/tensorflow_lite/third_party/flatbuffers/include/flatbuffers\flexbuffers.h **** }
 815:C:/Renesas/e2studio_2021_01_workspace_RZA2M_ANPR/ANPR_RZA2M_EBK/src/tensorflow_lite/third_party/flatbuffers/include/flatbuffers\flexbuffers.h **** 
 816:C:/Renesas/e2studio_2021_01_workspace_RZA2M_ANPR/ANPR_RZA2M_EBK/src/tensorflow_lite/third_party/flatbuffers/include/flatbuffers\flexbuffers.h **** inline uint8_t NullPackedType() { return PackedType(BIT_WIDTH_8, FBT_NULL); }
 817:C:/Renesas/e2studio_2021_01_workspace_RZA2M_ANPR/ANPR_RZA2M_EBK/src/tensorflow_lite/third_party/flatbuffers/include/flatbuffers\flexbuffers.h **** 
 818:C:/Renesas/e2studio_2021_01_workspace_RZA2M_ANPR/ANPR_RZA2M_EBK/src/tensorflow_lite/third_party/flatbuffers/include/flatbuffers\flexbuffers.h **** // Vector accessors.
 819:C:/Renesas/e2studio_2021_01_workspace_RZA2M_ANPR/ANPR_RZA2M_EBK/src/tensorflow_lite/third_party/flatbuffers/include/flatbuffers\flexbuffers.h **** // Note: if you try to access outside of bounds, you get a Null value back
 820:C:/Renesas/e2studio_2021_01_workspace_RZA2M_ANPR/ANPR_RZA2M_EBK/src/tensorflow_lite/third_party/flatbuffers/include/flatbuffers\flexbuffers.h **** // instead. Normally this would be an assert, but since this is "dynamically
 821:C:/Renesas/e2studio_2021_01_workspace_RZA2M_ANPR/ANPR_RZA2M_EBK/src/tensorflow_lite/third_party/flatbuffers/include/flatbuffers\flexbuffers.h **** // typed" data, you may not want that (someone sends you a 2d vector and you
 822:C:/Renesas/e2studio_2021_01_workspace_RZA2M_ANPR/ANPR_RZA2M_EBK/src/tensorflow_lite/third_party/flatbuffers/include/flatbuffers\flexbuffers.h **** // wanted 3d).
 823:C:/Renesas/e2studio_2021_01_workspace_RZA2M_ANPR/ANPR_RZA2M_EBK/src/tensorflow_lite/third_party/flatbuffers/include/flatbuffers\flexbuffers.h **** // The Null converts seamlessly into a default value for any other type.
 824:C:/Renesas/e2studio_2021_01_workspace_RZA2M_ANPR/ANPR_RZA2M_EBK/src/tensorflow_lite/third_party/flatbuffers/include/flatbuffers\flexbuffers.h **** // TODO(wvo): Could introduce an #ifdef that makes this into an assert?
 825:C:/Renesas/e2studio_2021_01_workspace_RZA2M_ANPR/ANPR_RZA2M_EBK/src/tensorflow_lite/third_party/flatbuffers/include/flatbuffers\flexbuffers.h **** inline Reference Vector::operator[](size_t i) const {
 826:C:/Renesas/e2studio_2021_01_workspace_RZA2M_ANPR/ANPR_RZA2M_EBK/src/tensorflow_lite/third_party/flatbuffers/include/flatbuffers\flexbuffers.h ****   auto len = size();
 827:C:/Renesas/e2studio_2021_01_workspace_RZA2M_ANPR/ANPR_RZA2M_EBK/src/tensorflow_lite/third_party/flatbuffers/include/flatbuffers\flexbuffers.h ****   if (i >= len) return Reference(nullptr, 1, NullPackedType());
 828:C:/Renesas/e2studio_2021_01_workspace_RZA2M_ANPR/ANPR_RZA2M_EBK/src/tensorflow_lite/third_party/flatbuffers/include/flatbuffers\flexbuffers.h ****   auto packed_type = (data_ + len * byte_width_)[i];
 829:C:/Renesas/e2studio_2021_01_workspace_RZA2M_ANPR/ANPR_RZA2M_EBK/src/tensorflow_lite/third_party/flatbuffers/include/flatbuffers\flexbuffers.h ****   auto elem = data_ + i * byte_width_;
 830:C:/Renesas/e2studio_2021_01_workspace_RZA2M_ANPR/ANPR_RZA2M_EBK/src/tensorflow_lite/third_party/flatbuffers/include/flatbuffers\flexbuffers.h ****   return Reference(elem, byte_width_, packed_type);
 831:C:/Renesas/e2studio_2021_01_workspace_RZA2M_ANPR/ANPR_RZA2M_EBK/src/tensorflow_lite/third_party/flatbuffers/include/flatbuffers\flexbuffers.h **** }
 832:C:/Renesas/e2studio_2021_01_workspace_RZA2M_ANPR/ANPR_RZA2M_EBK/src/tensorflow_lite/third_party/flatbuffers/include/flatbuffers\flexbuffers.h **** 
 833:C:/Renesas/e2studio_2021_01_workspace_RZA2M_ANPR/ANPR_RZA2M_EBK/src/tensorflow_lite/third_party/flatbuffers/include/flatbuffers\flexbuffers.h **** inline Reference TypedVector::operator[](size_t i) const {
 834:C:/Renesas/e2studio_2021_01_workspace_RZA2M_ANPR/ANPR_RZA2M_EBK/src/tensorflow_lite/third_party/flatbuffers/include/flatbuffers\flexbuffers.h ****   auto len = size();
 835:C:/Renesas/e2studio_2021_01_workspace_RZA2M_ANPR/ANPR_RZA2M_EBK/src/tensorflow_lite/third_party/flatbuffers/include/flatbuffers\flexbuffers.h ****   if (i >= len) return Reference(nullptr, 1, NullPackedType());
 836:C:/Renesas/e2studio_2021_01_workspace_RZA2M_ANPR/ANPR_RZA2M_EBK/src/tensorflow_lite/third_party/flatbuffers/include/flatbuffers\flexbuffers.h ****   auto elem = data_ + i * byte_width_;
 837:C:/Renesas/e2studio_2021_01_workspace_RZA2M_ANPR/ANPR_RZA2M_EBK/src/tensorflow_lite/third_party/flatbuffers/include/flatbuffers\flexbuffers.h ****   return Reference(elem, byte_width_, 1, type_);
 838:C:/Renesas/e2studio_2021_01_workspace_RZA2M_ANPR/ANPR_RZA2M_EBK/src/tensorflow_lite/third_party/flatbuffers/include/flatbuffers\flexbuffers.h **** }
 839:C:/Renesas/e2studio_2021_01_workspace_RZA2M_ANPR/ANPR_RZA2M_EBK/src/tensorflow_lite/third_party/flatbuffers/include/flatbuffers\flexbuffers.h **** 
 840:C:/Renesas/e2studio_2021_01_workspace_RZA2M_ANPR/ANPR_RZA2M_EBK/src/tensorflow_lite/third_party/flatbuffers/include/flatbuffers\flexbuffers.h **** inline Reference FixedTypedVector::operator[](size_t i) const {
 841:C:/Renesas/e2studio_2021_01_workspace_RZA2M_ANPR/ANPR_RZA2M_EBK/src/tensorflow_lite/third_party/flatbuffers/include/flatbuffers\flexbuffers.h ****   if (i >= len_) return Reference(nullptr, 1, NullPackedType());
 842:C:/Renesas/e2studio_2021_01_workspace_RZA2M_ANPR/ANPR_RZA2M_EBK/src/tensorflow_lite/third_party/flatbuffers/include/flatbuffers\flexbuffers.h ****   auto elem = data_ + i * byte_width_;
 843:C:/Renesas/e2studio_2021_01_workspace_RZA2M_ANPR/ANPR_RZA2M_EBK/src/tensorflow_lite/third_party/flatbuffers/include/flatbuffers\flexbuffers.h ****   return Reference(elem, byte_width_, 1, type_);
 844:C:/Renesas/e2studio_2021_01_workspace_RZA2M_ANPR/ANPR_RZA2M_EBK/src/tensorflow_lite/third_party/flatbuffers/include/flatbuffers\flexbuffers.h **** }
 845:C:/Renesas/e2studio_2021_01_workspace_RZA2M_ANPR/ANPR_RZA2M_EBK/src/tensorflow_lite/third_party/flatbuffers/include/flatbuffers\flexbuffers.h **** 
 846:C:/Renesas/e2studio_2021_01_workspace_RZA2M_ANPR/ANPR_RZA2M_EBK/src/tensorflow_lite/third_party/flatbuffers/include/flatbuffers\flexbuffers.h **** template<typename T> int KeyCompare(const void *key, const void *elem) {
  27              		.loc 1 846 0
  28              		.cfi_startproc
  29              		@ args = 0, pretend = 0, frame = 0
  30              		@ frame_needed = 0, uses_anonymous_args = 0
  31              		@ link register save eliminated.
  32              	.LVL0:
  33              	.LBB1090:
  34              	.LBB1091:
 180:C:/Renesas/e2studio_2021_01_workspace_RZA2M_ANPR/ANPR_RZA2M_EBK/src/tensorflow_lite/third_party/flatbuffers/include/flatbuffers\flexbuffers.h **** }
  35              		.loc 1 180 0
  36 0000 003091E5 		ldr	r3, [r1]
  37              	.LBE1091:
  38              	.LBE1090:
 847:C:/Renesas/e2studio_2021_01_workspace_RZA2M_ANPR/ANPR_RZA2M_EBK/src/tensorflow_lite/third_party/flatbuffers/include/flatbuffers\flexbuffers.h ****   auto str_elem = reinterpret_cast<const char *>(
 848:C:/Renesas/e2studio_2021_01_workspace_RZA2M_ANPR/ANPR_RZA2M_EBK/src/tensorflow_lite/third_party/flatbuffers/include/flatbuffers\flexbuffers.h ****       Indirect<T>(reinterpret_cast<const uint8_t *>(elem)));
 849:C:/Renesas/e2studio_2021_01_workspace_RZA2M_ANPR/ANPR_RZA2M_EBK/src/tensorflow_lite/third_party/flatbuffers/include/flatbuffers\flexbuffers.h ****   auto skey = reinterpret_cast<const char *>(key);
 850:C:/Renesas/e2studio_2021_01_workspace_RZA2M_ANPR/ANPR_RZA2M_EBK/src/tensorflow_lite/third_party/flatbuffers/include/flatbuffers\flexbuffers.h ****   return strcmp(skey, str_elem);
  39              		.loc 1 850 0
  40 0004 031041E0 		sub	r1, r1, r3
  41              	.LVL1:
  42 0008 FEFFFFEA 		b	strcmp
  43              	.LVL2:
  44              		.cfi_endproc
  45              	.LFE4633:
  46              		.cantunwind
  47              		.fnend
  49              		.section	.text._ZN11flexbuffers10KeyCompareIhEEiPKvS2_,"axG",%progbits,_ZN11flexbuffers10KeyCompar
  50              		.align	2
  51              		.weak	_ZN11flexbuffers10KeyCompareIhEEiPKvS2_
  52              		.syntax unified
  53              		.arm
  54              		.fpu neon
  56              	_ZN11flexbuffers10KeyCompareIhEEiPKvS2_:
  57              		.fnstart
  58              	.LFB4630:
 846:C:/Renesas/e2studio_2021_01_workspace_RZA2M_ANPR/ANPR_RZA2M_EBK/src/tensorflow_lite/third_party/flatbuffers/include/flatbuffers\flexbuffers.h ****   auto str_elem = reinterpret_cast<const char *>(
  59              		.loc 1 846 0
  60              		.cfi_startproc
  61              		@ args = 0, pretend = 0, frame = 0
  62              		@ frame_needed = 0, uses_anonymous_args = 0
  63              		@ link register save eliminated.
  64              	.LVL3:
  65              	.LBB1092:
  66              	.LBB1093:
 180:C:/Renesas/e2studio_2021_01_workspace_RZA2M_ANPR/ANPR_RZA2M_EBK/src/tensorflow_lite/third_party/flatbuffers/include/flatbuffers\flexbuffers.h **** }
  67              		.loc 1 180 0
  68 0000 0030D1E5 		ldrb	r3, [r1]	@ zero_extendqisi2
  69              	.LBE1093:
  70              	.LBE1092:
  71              		.loc 1 850 0
  72 0004 031041E0 		sub	r1, r1, r3
  73              	.LVL4:
  74 0008 FEFFFFEA 		b	strcmp
  75              	.LVL5:
  76              		.cfi_endproc
  77              	.LFE4630:
  78              		.cantunwind
  79              		.fnend
  81              		.section	.text._ZN11flexbuffers10KeyCompareItEEiPKvS2_,"axG",%progbits,_ZN11flexbuffers10KeyCompar
  82              		.align	2
  83              		.weak	_ZN11flexbuffers10KeyCompareItEEiPKvS2_
  84              		.syntax unified
  85              		.arm
  86              		.fpu neon
  88              	_ZN11flexbuffers10KeyCompareItEEiPKvS2_:
  89              		.fnstart
  90              	.LFB4631:
 846:C:/Renesas/e2studio_2021_01_workspace_RZA2M_ANPR/ANPR_RZA2M_EBK/src/tensorflow_lite/third_party/flatbuffers/include/flatbuffers\flexbuffers.h ****   auto str_elem = reinterpret_cast<const char *>(
  91              		.loc 1 846 0
  92              		.cfi_startproc
  93              		@ args = 0, pretend = 0, frame = 0
  94              		@ frame_needed = 0, uses_anonymous_args = 0
  95              		@ link register save eliminated.
  96              	.LVL6:
  97              	.LBB1094:
  98              	.LBB1095:
 180:C:/Renesas/e2studio_2021_01_workspace_RZA2M_ANPR/ANPR_RZA2M_EBK/src/tensorflow_lite/third_party/flatbuffers/include/flatbuffers\flexbuffers.h **** }
  99              		.loc 1 180 0
 100 0000 B030D1E1 		ldrh	r3, [r1]
 101              	.LBE1095:
 102              	.LBE1094:
 103              		.loc 1 850 0
 104 0004 031041E0 		sub	r1, r1, r3
 105              	.LVL7:
 106 0008 FEFFFFEA 		b	strcmp
 107              	.LVL8:
 108              		.cfi_endproc
 109              	.LFE4631:
 110              		.cantunwind
 111              		.fnend
 113              		.section	.text._ZN11flexbuffers10KeyCompareImEEiPKvS2_,"axG",%progbits,_ZN11flexbuffers10KeyCompar
 114              		.align	2
 115              		.weak	_ZN11flexbuffers10KeyCompareImEEiPKvS2_
 116              		.syntax unified
 117              		.arm
 118              		.fpu neon
 120              	_ZN11flexbuffers10KeyCompareImEEiPKvS2_:
 121              		.fnstart
 122              	.LFB4632:
 846:C:/Renesas/e2studio_2021_01_workspace_RZA2M_ANPR/ANPR_RZA2M_EBK/src/tensorflow_lite/third_party/flatbuffers/include/flatbuffers\flexbuffers.h ****   auto str_elem = reinterpret_cast<const char *>(
 123              		.loc 1 846 0
 124              		.cfi_startproc
 125              		@ args = 0, pretend = 0, frame = 0
 126              		@ frame_needed = 0, uses_anonymous_args = 0
 127              		@ link register save eliminated.
 128              	.LVL9:
 129              	.LBB1096:
 130              	.LBB1097:
 180:C:/Renesas/e2studio_2021_01_workspace_RZA2M_ANPR/ANPR_RZA2M_EBK/src/tensorflow_lite/third_party/flatbuffers/include/flatbuffers\flexbuffers.h **** }
 131              		.loc 1 180 0
 132 0000 003091E5 		ldr	r3, [r1]
 133              	.LBE1097:
 134              	.LBE1096:
 135              		.loc 1 850 0
 136 0004 031041E0 		sub	r1, r1, r3
 137              	.LVL10:
 138 0008 FEFFFFEA 		b	strcmp
 139              	.LVL11:
 140              		.cfi_endproc
 141              	.LFE4632:
 142              		.cantunwind
 143              		.fnend
 145              		.section	.text._ZN6tflite3ops5micro15circular_buffer7PrepareEP13TfLiteContextP10TfLiteNode,"ax",%p
 146              		.align	2
 147              		.global	_ZN6tflite3ops5micro15circular_buffer7PrepareEP13TfLiteContextP10TfLiteNode
 148              		.syntax unified
 149              		.arm
 150              		.fpu neon
 152              	_ZN6tflite3ops5micro15circular_buffer7PrepareEP13TfLiteContextP10TfLiteNode:
 153              		.fnstart
 154              	.LFB4381:
 155              		.file 2 "../src/tensorflow_lite/tensorflow/lite/micro/kernels/circular_buffer.cc"
   1:../src/tensorflow_lite/tensorflow/lite/micro/kernels/circular_buffer.cc **** /* Copyright 2020 The TensorFlow Authors. All Rights Reserved.
   2:../src/tensorflow_lite/tensorflow/lite/micro/kernels/circular_buffer.cc **** 
   3:../src/tensorflow_lite/tensorflow/lite/micro/kernels/circular_buffer.cc **** Licensed under the Apache License, Version 2.0 (the "License");
   4:../src/tensorflow_lite/tensorflow/lite/micro/kernels/circular_buffer.cc **** you may not use this file except in compliance with the License.
   5:../src/tensorflow_lite/tensorflow/lite/micro/kernels/circular_buffer.cc **** You may obtain a copy of the License at
   6:../src/tensorflow_lite/tensorflow/lite/micro/kernels/circular_buffer.cc **** 
   7:../src/tensorflow_lite/tensorflow/lite/micro/kernels/circular_buffer.cc ****     http://www.apache.org/licenses/LICENSE-2.0
   8:../src/tensorflow_lite/tensorflow/lite/micro/kernels/circular_buffer.cc **** 
   9:../src/tensorflow_lite/tensorflow/lite/micro/kernels/circular_buffer.cc **** Unless required by applicable law or agreed to in writing, software
  10:../src/tensorflow_lite/tensorflow/lite/micro/kernels/circular_buffer.cc **** distributed under the License is distributed on an "AS IS" BASIS,
  11:../src/tensorflow_lite/tensorflow/lite/micro/kernels/circular_buffer.cc **** WITHOUT WARRANTIES OR CONDITIONS OF ANY KIND, either express or implied.
  12:../src/tensorflow_lite/tensorflow/lite/micro/kernels/circular_buffer.cc **** See the License for the specific language governing permissions and
  13:../src/tensorflow_lite/tensorflow/lite/micro/kernels/circular_buffer.cc **** limitations under the License.
  14:../src/tensorflow_lite/tensorflow/lite/micro/kernels/circular_buffer.cc **** ==============================================================================*/
  15:../src/tensorflow_lite/tensorflow/lite/micro/kernels/circular_buffer.cc **** 
  16:../src/tensorflow_lite/tensorflow/lite/micro/kernels/circular_buffer.cc **** #define FLATBUFFERS_LOCALE_INDEPENDENT 0
  17:../src/tensorflow_lite/tensorflow/lite/micro/kernels/circular_buffer.cc **** #include "flatbuffers/flexbuffers.h"
  18:../src/tensorflow_lite/tensorflow/lite/micro/kernels/circular_buffer.cc **** #include "tensorflow/lite/c/builtin_op_data.h"
  19:../src/tensorflow_lite/tensorflow/lite/micro/kernels/circular_buffer.cc **** #include "tensorflow/lite/c/common.h"
  20:../src/tensorflow_lite/tensorflow/lite/micro/kernels/circular_buffer.cc **** #include "tensorflow/lite/kernels/internal/compatibility.h"
  21:../src/tensorflow_lite/tensorflow/lite/micro/kernels/circular_buffer.cc **** #include "tensorflow/lite/kernels/internal/quantization_util.h"
  22:../src/tensorflow_lite/tensorflow/lite/micro/kernels/circular_buffer.cc **** #include "tensorflow/lite/kernels/internal/tensor_ctypes.h"
  23:../src/tensorflow_lite/tensorflow/lite/micro/kernels/circular_buffer.cc **** #include "tensorflow/lite/kernels/kernel_util.h"
  24:../src/tensorflow_lite/tensorflow/lite/micro/kernels/circular_buffer.cc **** #include "tensorflow/lite/kernels/op_macros.h"
  25:../src/tensorflow_lite/tensorflow/lite/micro/kernels/circular_buffer.cc **** #include "tensorflow/lite/micro/kernels/kernel_util.h"
  26:../src/tensorflow_lite/tensorflow/lite/micro/kernels/circular_buffer.cc **** 
  27:../src/tensorflow_lite/tensorflow/lite/micro/kernels/circular_buffer.cc **** /*
  28:../src/tensorflow_lite/tensorflow/lite/micro/kernels/circular_buffer.cc ****  * The circular buffer custom operator is used to implement strided streaming
  29:../src/tensorflow_lite/tensorflow/lite/micro/kernels/circular_buffer.cc ****  * convolutions on TFLite Micro.  Each time this operator is invoked, it checks
  30:../src/tensorflow_lite/tensorflow/lite/micro/kernels/circular_buffer.cc ****  * whether or not to run, based on a predetermined stride in time.  If the op
  31:../src/tensorflow_lite/tensorflow/lite/micro/kernels/circular_buffer.cc ****  * runs, it inserts the input into the end of the output buffer and shifts the
  32:../src/tensorflow_lite/tensorflow/lite/micro/kernels/circular_buffer.cc ****  * output values towards the start of the buffer.  It discards the oldest value
  33:../src/tensorflow_lite/tensorflow/lite/micro/kernels/circular_buffer.cc ****  * in the output buffer.
  34:../src/tensorflow_lite/tensorflow/lite/micro/kernels/circular_buffer.cc ****  *
  35:../src/tensorflow_lite/tensorflow/lite/micro/kernels/circular_buffer.cc ****  * Input: [<input N+1]
  36:../src/tensorflow_lite/tensorflow/lite/micro/kernels/circular_buffer.cc ****  * Before shifting:
  37:../src/tensorflow_lite/tensorflow/lite/micro/kernels/circular_buffer.cc ****  * Output: [<input 1>, <input 2>, <input ...>, <input N>]
  38:../src/tensorflow_lite/tensorflow/lite/micro/kernels/circular_buffer.cc ****  *
  39:../src/tensorflow_lite/tensorflow/lite/micro/kernels/circular_buffer.cc ****  * After shifting:
  40:../src/tensorflow_lite/tensorflow/lite/micro/kernels/circular_buffer.cc ****  * Output: [<input 2>, <input 3>, <input ...>, <input N+1>]
  41:../src/tensorflow_lite/tensorflow/lite/micro/kernels/circular_buffer.cc ****  *
  42:../src/tensorflow_lite/tensorflow/lite/micro/kernels/circular_buffer.cc ****  * We make some assumptions in this custom operator:
  43:../src/tensorflow_lite/tensorflow/lite/micro/kernels/circular_buffer.cc ****  * - Input shape must be [1, 1, 1, depth]
  44:../src/tensorflow_lite/tensorflow/lite/micro/kernels/circular_buffer.cc ****  * - Output shape must be [1, num_slots, 1, depth]
  45:../src/tensorflow_lite/tensorflow/lite/micro/kernels/circular_buffer.cc ****  * - Input and output types must match.
  46:../src/tensorflow_lite/tensorflow/lite/micro/kernels/circular_buffer.cc ****  * - Input and output quantization params must be identical.
  47:../src/tensorflow_lite/tensorflow/lite/micro/kernels/circular_buffer.cc ****  */
  48:../src/tensorflow_lite/tensorflow/lite/micro/kernels/circular_buffer.cc **** namespace tflite {
  49:../src/tensorflow_lite/tensorflow/lite/micro/kernels/circular_buffer.cc **** namespace ops {
  50:../src/tensorflow_lite/tensorflow/lite/micro/kernels/circular_buffer.cc **** namespace micro {
  51:../src/tensorflow_lite/tensorflow/lite/micro/kernels/circular_buffer.cc **** namespace circular_buffer {
  52:../src/tensorflow_lite/tensorflow/lite/micro/kernels/circular_buffer.cc **** 
  53:../src/tensorflow_lite/tensorflow/lite/micro/kernels/circular_buffer.cc **** namespace {
  54:../src/tensorflow_lite/tensorflow/lite/micro/kernels/circular_buffer.cc **** 
  55:../src/tensorflow_lite/tensorflow/lite/micro/kernels/circular_buffer.cc **** // The CircularBuffer op has one input and one output tensor.
  56:../src/tensorflow_lite/tensorflow/lite/micro/kernels/circular_buffer.cc **** constexpr int kInputTensor = 0;
  57:../src/tensorflow_lite/tensorflow/lite/micro/kernels/circular_buffer.cc **** constexpr int kOutputTensor = 0;
  58:../src/tensorflow_lite/tensorflow/lite/micro/kernels/circular_buffer.cc **** 
  59:../src/tensorflow_lite/tensorflow/lite/micro/kernels/circular_buffer.cc **** // TODO(b/149795762): Add this to TfLiteStatus enum.
  60:../src/tensorflow_lite/tensorflow/lite/micro/kernels/circular_buffer.cc **** constexpr TfLiteStatus kTfLiteAbort = static_cast<TfLiteStatus>(-9);
  61:../src/tensorflow_lite/tensorflow/lite/micro/kernels/circular_buffer.cc **** 
  62:../src/tensorflow_lite/tensorflow/lite/micro/kernels/circular_buffer.cc **** // These fields control the stride period of a strided streaming model. This op
  63:../src/tensorflow_lite/tensorflow/lite/micro/kernels/circular_buffer.cc **** // returns kTfLiteAbort until cycles_until_run-- is zero.  At this time,
  64:../src/tensorflow_lite/tensorflow/lite/micro/kernels/circular_buffer.cc **** // cycles_until_run is reset to cycles_max.
  65:../src/tensorflow_lite/tensorflow/lite/micro/kernels/circular_buffer.cc **** struct OpData {
  66:../src/tensorflow_lite/tensorflow/lite/micro/kernels/circular_buffer.cc ****   int cycles_until_run;
  67:../src/tensorflow_lite/tensorflow/lite/micro/kernels/circular_buffer.cc ****   int cycles_max;
  68:../src/tensorflow_lite/tensorflow/lite/micro/kernels/circular_buffer.cc **** };
  69:../src/tensorflow_lite/tensorflow/lite/micro/kernels/circular_buffer.cc **** 
  70:../src/tensorflow_lite/tensorflow/lite/micro/kernels/circular_buffer.cc **** }  // namespace
  71:../src/tensorflow_lite/tensorflow/lite/micro/kernels/circular_buffer.cc **** 
  72:../src/tensorflow_lite/tensorflow/lite/micro/kernels/circular_buffer.cc **** void* Init(TfLiteContext* context, const char* buffer, size_t length) {
  73:../src/tensorflow_lite/tensorflow/lite/micro/kernels/circular_buffer.cc ****   TFLITE_DCHECK(context->AllocatePersistentBuffer != nullptr);
  74:../src/tensorflow_lite/tensorflow/lite/micro/kernels/circular_buffer.cc ****   OpData* op_data = static_cast<OpData*>(
  75:../src/tensorflow_lite/tensorflow/lite/micro/kernels/circular_buffer.cc ****       context->AllocatePersistentBuffer(context, sizeof(OpData)));
  76:../src/tensorflow_lite/tensorflow/lite/micro/kernels/circular_buffer.cc **** 
  77:../src/tensorflow_lite/tensorflow/lite/micro/kernels/circular_buffer.cc ****   if (buffer != nullptr && length > 0) {
  78:../src/tensorflow_lite/tensorflow/lite/micro/kernels/circular_buffer.cc ****     const uint8_t* buffer_t = reinterpret_cast<const uint8_t*>(buffer);
  79:../src/tensorflow_lite/tensorflow/lite/micro/kernels/circular_buffer.cc ****     const flexbuffers::Map& m = flexbuffers::GetRoot(buffer_t, length).AsMap();
  80:../src/tensorflow_lite/tensorflow/lite/micro/kernels/circular_buffer.cc ****     op_data->cycles_max = m["cycles_max"].AsInt32();
  81:../src/tensorflow_lite/tensorflow/lite/micro/kernels/circular_buffer.cc ****   } else {
  82:../src/tensorflow_lite/tensorflow/lite/micro/kernels/circular_buffer.cc ****     op_data->cycles_max = 0;
  83:../src/tensorflow_lite/tensorflow/lite/micro/kernels/circular_buffer.cc ****   }
  84:../src/tensorflow_lite/tensorflow/lite/micro/kernels/circular_buffer.cc **** 
  85:../src/tensorflow_lite/tensorflow/lite/micro/kernels/circular_buffer.cc ****   return op_data;
  86:../src/tensorflow_lite/tensorflow/lite/micro/kernels/circular_buffer.cc **** }
  87:../src/tensorflow_lite/tensorflow/lite/micro/kernels/circular_buffer.cc **** 
  88:../src/tensorflow_lite/tensorflow/lite/micro/kernels/circular_buffer.cc **** TfLiteStatus Prepare(TfLiteContext* context, TfLiteNode* node) {
 156              		.loc 2 88 0
 157              		.cfi_startproc
 158              		@ args = 0, pretend = 0, frame = 0
 159              		@ frame_needed = 0, uses_anonymous_args = 0
 160              	.LVL12:
 161 0000 F0412DE9 		push	{r4, r5, r6, r7, r8, lr}
 162              		.save {r4, r5, r6, r7, r8, lr}
 163              		.cfi_def_cfa_offset 24
 164              		.cfi_offset 4, -24
 165              		.cfi_offset 5, -20
 166              		.cfi_offset 6, -16
 167              		.cfi_offset 7, -12
 168              		.cfi_offset 8, -8
 169              		.cfi_offset 14, -4
  89:../src/tensorflow_lite/tensorflow/lite/micro/kernels/circular_buffer.cc ****   const TfLiteTensor* input = GetInput(context, node, kInputTensor);
 170              		.loc 2 89 0
 171 0004 0020A0E3 		mov	r2, #0
  88:../src/tensorflow_lite/tensorflow/lite/micro/kernels/circular_buffer.cc ****   const TfLiteTensor* input = GetInput(context, node, kInputTensor);
 172              		.loc 2 88 0
 173 0008 0150A0E1 		mov	r5, r1
 174              		.pad #16
 175 000c 10D04DE2 		sub	sp, sp, #16
 176              		.cfi_def_cfa_offset 40
  88:../src/tensorflow_lite/tensorflow/lite/micro/kernels/circular_buffer.cc ****   const TfLiteTensor* input = GetInput(context, node, kInputTensor);
 177              		.loc 2 88 0
 178 0010 0040A0E1 		mov	r4, r0
 179              		.loc 2 89 0
 180 0014 FEFFFFEB 		bl	_ZN6tflite8GetInputEPK13TfLiteContextPK10TfLiteNodei
 181              	.LVL13:
  90:../src/tensorflow_lite/tensorflow/lite/micro/kernels/circular_buffer.cc ****   TfLiteTensor* output = GetOutput(context, node, kOutputTensor);
 182              		.loc 2 90 0
 183 0018 0510A0E1 		mov	r1, r5
  89:../src/tensorflow_lite/tensorflow/lite/micro/kernels/circular_buffer.cc ****   const TfLiteTensor* input = GetInput(context, node, kInputTensor);
 184              		.loc 2 89 0
 185 001c 0070A0E1 		mov	r7, r0
 186              	.LVL14:
 187              		.loc 2 90 0
 188 0020 0020A0E3 		mov	r2, #0
 189 0024 0400A0E1 		mov	r0, r4
 190              	.LVL15:
 191 0028 FEFFFFEB 		bl	_ZN6tflite9GetOutputEP13TfLiteContextPK10TfLiteNodei
 192              	.LVL16:
  91:../src/tensorflow_lite/tensorflow/lite/micro/kernels/circular_buffer.cc **** 
  92:../src/tensorflow_lite/tensorflow/lite/micro/kernels/circular_buffer.cc ****   TFLITE_DCHECK(node->user_data != nullptr);
 193              		.loc 2 92 0
 194 002c 101095E5 		ldr	r1, [r5, #16]
 195 0030 000051E3 		cmp	r1, #0
 196 0034 CE00000A 		beq	.L24
 197              	.LVL17:
  93:../src/tensorflow_lite/tensorflow/lite/micro/kernels/circular_buffer.cc ****   OpData* op_data = static_cast<OpData*>(node->user_data);
  94:../src/tensorflow_lite/tensorflow/lite/micro/kernels/circular_buffer.cc **** 
  95:../src/tensorflow_lite/tensorflow/lite/micro/kernels/circular_buffer.cc ****   TF_LITE_ENSURE(context, input != nullptr);
 198              		.loc 2 95 0
 199 0038 000057E3 		cmp	r7, #0
 200 003c 9800000A 		beq	.L25
  96:../src/tensorflow_lite/tensorflow/lite/micro/kernels/circular_buffer.cc ****   TF_LITE_ENSURE(context, output != nullptr);
 201              		.loc 2 96 0
 202 0040 000050E3 		cmp	r0, #0
 203 0044 0060A0E1 		mov	r6, r0
 204 0048 A200000A 		beq	.L26
  97:../src/tensorflow_lite/tensorflow/lite/micro/kernels/circular_buffer.cc ****   TF_LITE_ENSURE_EQ(context, input->dims->data[0], output->dims->data[0]);
 205              		.loc 2 97 0
 206 004c 082090E5 		ldr	r2, [r0, #8]
 207 0050 083097E5 		ldr	r3, [r7, #8]
 208 0054 04C092E5 		ldr	ip, [r2, #4]
 209 0058 040093E5 		ldr	r0, [r3, #4]
 210              	.LVL18:
 211 005c 0C0050E1 		cmp	r0, ip
 212 0060 2B00001A 		bne	.L27
  98:../src/tensorflow_lite/tensorflow/lite/micro/kernels/circular_buffer.cc ****   TF_LITE_ENSURE_EQ(context, 1, input->dims->data[1]);
 213              		.loc 2 98 0
 214 0064 088093E5 		ldr	r8, [r3, #8]
 215 0068 010058E3 		cmp	r8, #1
 216 006c 1400001A 		bne	.L28
  99:../src/tensorflow_lite/tensorflow/lite/micro/kernels/circular_buffer.cc ****   TF_LITE_ENSURE_EQ(context, input->dims->data[2], output->dims->data[2]);
 217              		.loc 2 99 0
 218 0070 0C0093E5 		ldr	r0, [r3, #12]
 219 0074 0CC092E5 		ldr	ip, [r2, #12]
 220 0078 0C0050E1 		cmp	r0, ip
 221 007c 3700001A 		bne	.L29
 100:../src/tensorflow_lite/tensorflow/lite/micro/kernels/circular_buffer.cc ****   TF_LITE_ENSURE_EQ(context, output->dims->data[3], input->dims->data[3]);
 222              		.loc 2 100 0
 223 0080 100093E5 		ldr	r0, [r3, #16]
 224 0084 103092E5 		ldr	r3, [r2, #16]
 225 0088 000053E1 		cmp	r3, r0
 226 008c 4600001A 		bne	.L30
 101:../src/tensorflow_lite/tensorflow/lite/micro/kernels/circular_buffer.cc **** 
 102:../src/tensorflow_lite/tensorflow/lite/micro/kernels/circular_buffer.cc ****   TF_LITE_ENSURE_TYPES_EQ(context, input->type, output->type);
 227              		.loc 2 102 0
 228 0090 0000D7E5 		ldrb	r0, [r7]	@ zero_extendqisi2
 229 0094 00E0D6E5 		ldrb	lr, [r6]	@ zero_extendqisi2
 230 0098 00005EE1 		cmp	lr, r0
 231 009c 6B00001A 		bne	.L31
 103:../src/tensorflow_lite/tensorflow/lite/micro/kernels/circular_buffer.cc **** 
 104:../src/tensorflow_lite/tensorflow/lite/micro/kernels/circular_buffer.cc ****   // The circular buffer custom operator currently only supports int8.
 105:../src/tensorflow_lite/tensorflow/lite/micro/kernels/circular_buffer.cc ****   TF_LITE_ENSURE_TYPES_EQ(context, input->type, kTfLiteInt8);
 232              		.loc 2 105 0
 233 00a0 09005EE3 		cmp	lr, #9
 234 00a4 5200001A 		bne	.L32
 235              	.LBB1098:
 106:../src/tensorflow_lite/tensorflow/lite/micro/kernels/circular_buffer.cc **** 
 107:../src/tensorflow_lite/tensorflow/lite/micro/kernels/circular_buffer.cc ****   if (op_data->cycles_max <= 0) {
 236              		.loc 2 107 0
 237 00a8 04E091E5 		ldr	lr, [r1, #4]
 238 00ac 00005EE3 		cmp	lr, #0
 239 00b0 950000DA 		ble	.L33
 240              	.L16:
 241              	.LBE1098:
 108:../src/tensorflow_lite/tensorflow/lite/micro/kernels/circular_buffer.cc ****     // The last circular buffer layer simply accumulates outputs, and does not
 109:../src/tensorflow_lite/tensorflow/lite/micro/kernels/circular_buffer.cc ****     // run periodically.
 110:../src/tensorflow_lite/tensorflow/lite/micro/kernels/circular_buffer.cc ****     // TODO(b/150001379): Move this special case logic to the tflite flatbuffer.
 111:../src/tensorflow_lite/tensorflow/lite/micro/kernels/circular_buffer.cc ****     static int cb_prepare_count = 0;
 112:../src/tensorflow_lite/tensorflow/lite/micro/kernels/circular_buffer.cc ****     cb_prepare_count++;
 113:../src/tensorflow_lite/tensorflow/lite/micro/kernels/circular_buffer.cc ****     // These checks specifically work for the only two streaming models
 114:../src/tensorflow_lite/tensorflow/lite/micro/kernels/circular_buffer.cc ****     // supported on TFLM. They use the shape of the output tensor along with the
 115:../src/tensorflow_lite/tensorflow/lite/micro/kernels/circular_buffer.cc ****     // layer number to determine if the circular buffer period should be 1 or 2.
 116:../src/tensorflow_lite/tensorflow/lite/micro/kernels/circular_buffer.cc **** 
 117:../src/tensorflow_lite/tensorflow/lite/micro/kernels/circular_buffer.cc ****     // These models are outlined int the following documents:
 118:../src/tensorflow_lite/tensorflow/lite/micro/kernels/circular_buffer.cc ****     // https://docs.google.com/document/d/1lc_G2ZFhjiKFo02UHjBaljye1xsL0EkfybkaVELEE3Q/edit?usp=sha
 119:../src/tensorflow_lite/tensorflow/lite/micro/kernels/circular_buffer.cc ****     // https://docs.google.com/document/d/1pGc42PuWyrk-Jy1-9qeqtggvsmHr1ifz8Lmqfpr2rKA/edit?usp=sha
 120:../src/tensorflow_lite/tensorflow/lite/micro/kernels/circular_buffer.cc ****     if (output->dims->data[1] == 5 || output->dims->data[1] == 13 ||
 121:../src/tensorflow_lite/tensorflow/lite/micro/kernels/circular_buffer.cc ****         (cb_prepare_count == 5 && output->dims->data[2] == 2 &&
 122:../src/tensorflow_lite/tensorflow/lite/micro/kernels/circular_buffer.cc ****          output->dims->data[3] == 96)) {
 123:../src/tensorflow_lite/tensorflow/lite/micro/kernels/circular_buffer.cc ****       op_data->cycles_max = 1;
 124:../src/tensorflow_lite/tensorflow/lite/micro/kernels/circular_buffer.cc ****       cb_prepare_count = 0;
 125:../src/tensorflow_lite/tensorflow/lite/micro/kernels/circular_buffer.cc ****     } else {
 126:../src/tensorflow_lite/tensorflow/lite/micro/kernels/circular_buffer.cc ****       op_data->cycles_max = 2;
 127:../src/tensorflow_lite/tensorflow/lite/micro/kernels/circular_buffer.cc ****     }
 128:../src/tensorflow_lite/tensorflow/lite/micro/kernels/circular_buffer.cc ****   }
 129:../src/tensorflow_lite/tensorflow/lite/micro/kernels/circular_buffer.cc ****   op_data->cycles_until_run = op_data->cycles_max;
 242              		.loc 2 129 0
 243 00b4 00E081E5 		str	lr, [r1]
 130:../src/tensorflow_lite/tensorflow/lite/micro/kernels/circular_buffer.cc ****   node->user_data = op_data;
 131:../src/tensorflow_lite/tensorflow/lite/micro/kernels/circular_buffer.cc **** 
 132:../src/tensorflow_lite/tensorflow/lite/micro/kernels/circular_buffer.cc ****   return kTfLiteOk;
 244              		.loc 2 132 0
 245 00b8 0000A0E3 		mov	r0, #0
 130:../src/tensorflow_lite/tensorflow/lite/micro/kernels/circular_buffer.cc ****   node->user_data = op_data;
 246              		.loc 2 130 0
 247 00bc 101085E5 		str	r1, [r5, #16]
 248              		.loc 2 132 0
 249 00c0 110000EA 		b	.L8
 250              	.L28:
  98:../src/tensorflow_lite/tensorflow/lite/micro/kernels/circular_buffer.cc ****   TF_LITE_ENSURE_EQ(context, input->dims->data[2], output->dims->data[2]);
 251              		.loc 2 98 0 discriminator 1
 252 00c4 000000E3 		movw	r0, #:lower16:.LC7
 253 00c8 003000E3 		movw	r3, #:lower16:.LC8
 254 00cc 000040E3 		movt	r0, #:upper16:.LC7
 255 00d0 003040E3 		movt	r3, #:upper16:.LC8
 256 00d4 0150A0E3 		mov	r5, #1
 257              	.LVL19:
 258 00d8 002000E3 		movw	r2, #:lower16:.LC0
 259 00dc 001000E3 		movw	r1, #:lower16:.LC4
 260              	.LVL20:
 261 00e0 04008DE5 		str	r0, [sp, #4]
 262              	.LVL21:
 263 00e4 00308DE5 		str	r3, [sp]
 264 00e8 0400A0E1 		mov	r0, r4
 265 00ec 0C808DE5 		str	r8, [sp, #12]
 266 00f0 002040E3 		movt	r2, #:upper16:.LC0
 267 00f4 08508DE5 		str	r5, [sp, #8]
 268 00f8 001040E3 		movt	r1, #:upper16:.LC4
 269 00fc 144094E5 		ldr	r4, [r4, #20]
 270              	.LVL22:
 271 0100 6230A0E3 		mov	r3, #98
 272 0104 34FF2FE1 		blx	r4
 273              	.LVL23:
 274 0108 0500A0E1 		mov	r0, r5
 275              	.LVL24:
 276              	.L8:
 133:../src/tensorflow_lite/tensorflow/lite/micro/kernels/circular_buffer.cc **** }
 277              		.loc 2 133 0
 278 010c 10D08DE2 		add	sp, sp, #16
 279              		.cfi_remember_state
 280              		.cfi_def_cfa_offset 24
 281              		@ sp needed
 282 0110 F081BDE8 		pop	{r4, r5, r6, r7, r8, pc}
 283              	.LVL25:
 284              	.L27:
 285              		.cfi_restore_state
  97:../src/tensorflow_lite/tensorflow/lite/micro/kernels/circular_buffer.cc ****   TF_LITE_ENSURE_EQ(context, 1, input->dims->data[1]);
 286              		.loc 2 97 0 discriminator 1
 287 0114 00E000E3 		movw	lr, #:lower16:.LC5
 288 0118 003000E3 		movw	r3, #:lower16:.LC6
 289 011c 00E040E3 		movt	lr, #:upper16:.LC5
 290 0120 003040E3 		movt	r3, #:upper16:.LC6
 291 0124 002000E3 		movw	r2, #:lower16:.LC0
 292 0128 001000E3 		movw	r1, #:lower16:.LC4
 293              	.LVL26:
 294 012c 08008DE5 		str	r0, [sp, #8]
 295              	.LVL27:
 296 0130 002040E3 		movt	r2, #:upper16:.LC0
 297 0134 00308DE5 		str	r3, [sp]
 298 0138 0400A0E1 		mov	r0, r4
 299 013c 0CC08DE5 		str	ip, [sp, #12]
 300 0140 001040E3 		movt	r1, #:upper16:.LC4
 301 0144 04E08DE5 		str	lr, [sp, #4]
 302 0148 6130A0E3 		mov	r3, #97
 303 014c 144094E5 		ldr	r4, [r4, #20]
 304              	.LVL28:
 305 0150 34FF2FE1 		blx	r4
 306              	.LVL29:
 307 0154 0100A0E3 		mov	r0, #1
 308              		.loc 2 133 0 discriminator 1
 309 0158 10D08DE2 		add	sp, sp, #16
 310              		.cfi_remember_state
 311              		.cfi_def_cfa_offset 24
 312              		@ sp needed
 313 015c F081BDE8 		pop	{r4, r5, r6, r7, r8, pc}
 314              	.LVL30:
 315              	.L29:
 316              		.cfi_restore_state
  99:../src/tensorflow_lite/tensorflow/lite/micro/kernels/circular_buffer.cc ****   TF_LITE_ENSURE_EQ(context, output->dims->data[3], input->dims->data[3]);
 317              		.loc 2 99 0 discriminator 1
 318 0160 00E000E3 		movw	lr, #:lower16:.LC9
 319 0164 003000E3 		movw	r3, #:lower16:.LC10
 320 0168 00E040E3 		movt	lr, #:upper16:.LC9
 321 016c 003040E3 		movt	r3, #:upper16:.LC10
 322 0170 002000E3 		movw	r2, #:lower16:.LC0
 323 0174 001000E3 		movw	r1, #:lower16:.LC4
 324              	.LVL31:
 325 0178 08008DE5 		str	r0, [sp, #8]
 326              	.LVL32:
 327 017c 002040E3 		movt	r2, #:upper16:.LC0
 328 0180 00308DE5 		str	r3, [sp]
 329 0184 0400A0E1 		mov	r0, r4
 330 0188 0CC08DE5 		str	ip, [sp, #12]
 331 018c 001040E3 		movt	r1, #:upper16:.LC4
 332 0190 04E08DE5 		str	lr, [sp, #4]
 333 0194 6330A0E3 		mov	r3, #99
 334 0198 144094E5 		ldr	r4, [r4, #20]
 335              	.LVL33:
 336 019c 34FF2FE1 		blx	r4
 337              	.LVL34:
 338 01a0 0800A0E1 		mov	r0, r8
 339              		.loc 2 133 0 discriminator 1
 340 01a4 10D08DE2 		add	sp, sp, #16
 341              		.cfi_remember_state
 342              		.cfi_def_cfa_offset 24
 343              		@ sp needed
 344 01a8 F081BDE8 		pop	{r4, r5, r6, r7, r8, pc}
 345              	.LVL35:
 346              	.L30:
 347              		.cfi_restore_state
 100:../src/tensorflow_lite/tensorflow/lite/micro/kernels/circular_buffer.cc **** 
 348              		.loc 2 100 0 discriminator 1
 349 01ac 00E000E3 		movw	lr, #:lower16:.LC11
 350 01b0 00C000E3 		movw	ip, #:lower16:.LC12
 351 01b4 00E040E3 		movt	lr, #:upper16:.LC11
 352 01b8 00C040E3 		movt	ip, #:upper16:.LC12
 353 01bc 002000E3 		movw	r2, #:lower16:.LC0
 354 01c0 001000E3 		movw	r1, #:lower16:.LC4
 355              	.LVL36:
 356 01c4 0C008DE5 		str	r0, [sp, #12]
 357              	.LVL37:
 358 01c8 002040E3 		movt	r2, #:upper16:.LC0
 359 01cc 08308DE5 		str	r3, [sp, #8]
 360 01d0 0400A0E1 		mov	r0, r4
 361 01d4 04E08DE5 		str	lr, [sp, #4]
 362 01d8 001040E3 		movt	r1, #:upper16:.LC4
 363 01dc 00C08DE5 		str	ip, [sp]
 364 01e0 6430A0E3 		mov	r3, #100
 365 01e4 144094E5 		ldr	r4, [r4, #20]
 366              	.LVL38:
 367 01e8 34FF2FE1 		blx	r4
 368              	.LVL39:
 369 01ec 0800A0E1 		mov	r0, r8
 370 01f0 C5FFFFEA 		b	.L8
 371              	.LVL40:
 372              	.L32:
 105:../src/tensorflow_lite/tensorflow/lite/micro/kernels/circular_buffer.cc **** 
 373              		.loc 2 105 0 discriminator 1
 374 01f4 0E00A0E1 		mov	r0, lr
 375 01f8 145094E5 		ldr	r5, [r4, #20]
 376              	.LVL41:
 377 01fc FEFFFFEB 		bl	TfLiteTypeGetName
 378              	.LVL42:
 379 0200 0060A0E1 		mov	r6, r0
 380              	.LVL43:
 381 0204 0900A0E3 		mov	r0, #9
 382 0208 FEFFFFEB 		bl	TfLiteTypeGetName
 383              	.LVL44:
 384 020c 00C000E3 		movw	ip, #:lower16:.LC16
 385 0210 003000E3 		movw	r3, #:lower16:.LC15
 386 0214 00C040E3 		movt	ip, #:upper16:.LC16
 387 0218 003040E3 		movt	r3, #:upper16:.LC15
 388 021c 002000E3 		movw	r2, #:lower16:.LC0
 389 0220 001000E3 		movw	r1, #:lower16:.LC13
 390 0224 0C008DE5 		str	r0, [sp, #12]
 391 0228 002040E3 		movt	r2, #:upper16:.LC0
 392 022c 0400A0E1 		mov	r0, r4
 393 0230 00308DE5 		str	r3, [sp]
 394 0234 08608DE5 		str	r6, [sp, #8]
 395 0238 001040E3 		movt	r1, #:upper16:.LC13
 396 023c 04C08DE5 		str	ip, [sp, #4]
 397 0240 6930A0E3 		mov	r3, #105
 398 0244 35FF2FE1 		blx	r5
 399              	.LVL45:
 400 0248 0800A0E1 		mov	r0, r8
 401 024c AEFFFFEA 		b	.L8
 402              	.LVL46:
 403              	.L31:
 102:../src/tensorflow_lite/tensorflow/lite/micro/kernels/circular_buffer.cc **** 
 404              		.loc 2 102 0 discriminator 1
 405 0250 145094E5 		ldr	r5, [r4, #20]
 406              	.LVL47:
 407 0254 FEFFFFEB 		bl	TfLiteTypeGetName
 408              	.LVL48:
 409 0258 0070A0E1 		mov	r7, r0
 410              	.LVL49:
 411 025c 0000D6E5 		ldrb	r0, [r6]	@ zero_extendqisi2
 412 0260 FEFFFFEB 		bl	TfLiteTypeGetName
 413              	.LVL50:
 414 0264 00C000E3 		movw	ip, #:lower16:.LC14
 415 0268 003000E3 		movw	r3, #:lower16:.LC15
 416 026c 00C040E3 		movt	ip, #:upper16:.LC14
 417 0270 003040E3 		movt	r3, #:upper16:.LC15
 418 0274 002000E3 		movw	r2, #:lower16:.LC0
 419 0278 001000E3 		movw	r1, #:lower16:.LC13
 420 027c 0C008DE5 		str	r0, [sp, #12]
 421 0280 002040E3 		movt	r2, #:upper16:.LC0
 422 0284 0400A0E1 		mov	r0, r4
 423 0288 08108DE8 		stm	sp, {r3, ip}
 424 028c 08708DE5 		str	r7, [sp, #8]
 425 0290 001040E3 		movt	r1, #:upper16:.LC13
 426 0294 6630A0E3 		mov	r3, #102
 427 0298 35FF2FE1 		blx	r5
 428              	.LVL51:
 429 029c 0800A0E1 		mov	r0, r8
 430 02a0 99FFFFEA 		b	.L8
 431              	.LVL52:
 432              	.L25:
  95:../src/tensorflow_lite/tensorflow/lite/micro/kernels/circular_buffer.cc ****   TF_LITE_ENSURE(context, output != nullptr);
 433              		.loc 2 95 0 discriminator 1
 434 02a4 003000E3 		movw	r3, #:lower16:.LC2
 435 02a8 002000E3 		movw	r2, #:lower16:.LC0
 436 02ac 003040E3 		movt	r3, #:upper16:.LC2
 437 02b0 001000E3 		movw	r1, #:lower16:.LC1
 438              	.LVL53:
 439 02b4 00308DE5 		str	r3, [sp]
 440              	.LVL54:
 441 02b8 0400A0E1 		mov	r0, r4
 442              	.LVL55:
 443 02bc 002040E3 		movt	r2, #:upper16:.LC0
 444 02c0 001040E3 		movt	r1, #:upper16:.LC1
 445 02c4 145094E5 		ldr	r5, [r4, #20]
 446              	.LVL56:
 447 02c8 5F30A0E3 		mov	r3, #95
 448 02cc 35FF2FE1 		blx	r5
 449              	.LVL57:
 450 02d0 0100A0E3 		mov	r0, #1
 451 02d4 8CFFFFEA 		b	.L8
 452              	.LVL58:
 453              	.L26:
  96:../src/tensorflow_lite/tensorflow/lite/micro/kernels/circular_buffer.cc ****   TF_LITE_ENSURE_EQ(context, input->dims->data[0], output->dims->data[0]);
 454              		.loc 2 96 0 discriminator 1
 455 02d8 003000E3 		movw	r3, #:lower16:.LC3
 456 02dc 002000E3 		movw	r2, #:lower16:.LC0
 457 02e0 003040E3 		movt	r3, #:upper16:.LC3
 458 02e4 001000E3 		movw	r1, #:lower16:.LC1
 459              	.LVL59:
 460 02e8 00308DE5 		str	r3, [sp]
 461              	.LVL60:
 462 02ec 0400A0E1 		mov	r0, r4
 463              	.LVL61:
 464 02f0 002040E3 		movt	r2, #:upper16:.LC0
 465 02f4 001040E3 		movt	r1, #:upper16:.LC1
 466 02f8 145094E5 		ldr	r5, [r4, #20]
 467              	.LVL62:
 468 02fc 6030A0E3 		mov	r3, #96
 469 0300 35FF2FE1 		blx	r5
 470              	.LVL63:
 471 0304 0100A0E3 		mov	r0, #1
 472 0308 7FFFFFEA 		b	.L8
 473              	.LVL64:
 474              	.L33:
 475              	.LBB1100:
 476              	.LBB1099:
 120:../src/tensorflow_lite/tensorflow/lite/micro/kernels/circular_buffer.cc ****         (cb_prepare_count == 5 && output->dims->data[2] == 2 &&
 477              		.loc 2 120 0
 478 030c 08E092E5 		ldr	lr, [r2, #8]
 112:../src/tensorflow_lite/tensorflow/lite/micro/kernels/circular_buffer.cc ****     // These checks specifically work for the only two streaming models
 479              		.loc 2 112 0
 480 0310 002000E3 		movw	r2, #:lower16:.LANCHOR0
 481 0314 002040E3 		movt	r2, #:upper16:.LANCHOR0
 482 0318 000092E5 		ldr	r0, [r2]
 120:../src/tensorflow_lite/tensorflow/lite/micro/kernels/circular_buffer.cc ****         (cb_prepare_count == 5 && output->dims->data[2] == 2 &&
 483              		.loc 2 120 0
 484 031c 08E0CEE3 		bic	lr, lr, #8
 485 0320 05005EE3 		cmp	lr, #5
 112:../src/tensorflow_lite/tensorflow/lite/micro/kernels/circular_buffer.cc ****     // These checks specifically work for the only two streaming models
 486              		.loc 2 112 0
 487 0324 010080E2 		add	r0, r0, #1
 488 0328 000082E5 		str	r0, [r2]
 120:../src/tensorflow_lite/tensorflow/lite/micro/kernels/circular_buffer.cc ****         (cb_prepare_count == 5 && output->dims->data[2] == 2 &&
 489              		.loc 2 120 0
 490 032c 0B00000A 		beq	.L17
 121:../src/tensorflow_lite/tensorflow/lite/micro/kernels/circular_buffer.cc ****          output->dims->data[3] == 96)) {
 491              		.loc 2 121 0
 492 0330 02005CE3 		cmp	ip, #2
 493 0334 60005303 		cmpeq	r3, #96
 494 0338 0130A003 		moveq	r3, #1
 495 033c 0030A013 		movne	r3, #0
 496 0340 050050E3 		cmp	r0, #5
 497 0344 0030A013 		movne	r3, #0
 498 0348 01300302 		andeq	r3, r3, #1
 499 034c 000053E3 		cmp	r3, #0
 126:../src/tensorflow_lite/tensorflow/lite/micro/kernels/circular_buffer.cc ****     }
 500              		.loc 2 126 0
 501 0350 0230A003 		moveq	r3, #2
 502 0354 03E0A001 		moveq	lr, r3
 503 0358 04308105 		streq	r3, [r1, #4]
 121:../src/tensorflow_lite/tensorflow/lite/micro/kernels/circular_buffer.cc ****          output->dims->data[3] == 96)) {
 504              		.loc 2 121 0
 505 035c 54FFFF0A 		beq	.L16
 506              	.L17:
 123:../src/tensorflow_lite/tensorflow/lite/micro/kernels/circular_buffer.cc ****       cb_prepare_count = 0;
 507              		.loc 2 123 0
 508 0360 01E0A0E3 		mov	lr, #1
 124:../src/tensorflow_lite/tensorflow/lite/micro/kernels/circular_buffer.cc ****     } else {
 509              		.loc 2 124 0
 510 0364 0030A0E3 		mov	r3, #0
 123:../src/tensorflow_lite/tensorflow/lite/micro/kernels/circular_buffer.cc ****       cb_prepare_count = 0;
 511              		.loc 2 123 0
 512 0368 04E081E5 		str	lr, [r1, #4]
 124:../src/tensorflow_lite/tensorflow/lite/micro/kernels/circular_buffer.cc ****     } else {
 513              		.loc 2 124 0
 514 036c 003082E5 		str	r3, [r2]
 515 0370 4FFFFFEA 		b	.L16
 516              	.LVL65:
 517              	.L24:
 518              	.LBE1099:
 519              	.LBE1100:
  92:../src/tensorflow_lite/tensorflow/lite/micro/kernels/circular_buffer.cc ****   OpData* op_data = static_cast<OpData*>(node->user_data);
 520              		.loc 2 92 0 discriminator 1
 521 0374 FEFFFFEB 		bl	abort
 522              	.LVL66:
 523              		.cfi_endproc
 524              	.LFE4381:
 525              		.fnend
 527              		.section	.text._ZN6tflite3ops5micro15circular_buffer4EvalEP13TfLiteContextP10TfLiteNode,"ax",%prog
 528              		.align	2
 529              		.global	_ZN6tflite3ops5micro15circular_buffer4EvalEP13TfLiteContextP10TfLiteNode
 530              		.syntax unified
 531              		.arm
 532              		.fpu neon
 534              	_ZN6tflite3ops5micro15circular_buffer4EvalEP13TfLiteContextP10TfLiteNode:
 535              		.fnstart
 536              	.LFB4383:
 134:../src/tensorflow_lite/tensorflow/lite/micro/kernels/circular_buffer.cc **** 
 135:../src/tensorflow_lite/tensorflow/lite/micro/kernels/circular_buffer.cc **** // Shifts buffer over by the output depth, and write new input to end of buffer.
 136:../src/tensorflow_lite/tensorflow/lite/micro/kernels/circular_buffer.cc **** // num_slots is the number of samples stored in the output buffer.
 137:../src/tensorflow_lite/tensorflow/lite/micro/kernels/circular_buffer.cc **** // depth is the size of each sample.
 138:../src/tensorflow_lite/tensorflow/lite/micro/kernels/circular_buffer.cc **** void EvalInt8(const int8_t* input, int num_slots, int depth, int8_t* output) {
 139:../src/tensorflow_lite/tensorflow/lite/micro/kernels/circular_buffer.cc ****   memmove(output, &output[depth], (num_slots - 1) * depth);
 140:../src/tensorflow_lite/tensorflow/lite/micro/kernels/circular_buffer.cc ****   memcpy(&output[(num_slots - 1) * depth], input, depth);
 141:../src/tensorflow_lite/tensorflow/lite/micro/kernels/circular_buffer.cc **** }
 142:../src/tensorflow_lite/tensorflow/lite/micro/kernels/circular_buffer.cc **** 
 143:../src/tensorflow_lite/tensorflow/lite/micro/kernels/circular_buffer.cc **** TfLiteStatus Eval(TfLiteContext* context, TfLiteNode* node) {
 537              		.loc 2 143 0
 538              		.cfi_startproc
 539              		@ args = 0, pretend = 0, frame = 0
 540              		@ frame_needed = 0, uses_anonymous_args = 0
 541              	.LVL67:
 542 0000 F0412DE9 		push	{r4, r5, r6, r7, r8, lr}
 543              		.save {r4, r5, r6, r7, r8, lr}
 544              		.cfi_def_cfa_offset 24
 545              		.cfi_offset 4, -24
 546              		.cfi_offset 5, -20
 547              		.cfi_offset 6, -16
 548              		.cfi_offset 7, -12
 549              		.cfi_offset 8, -8
 550              		.cfi_offset 14, -4
 551              	.LBB1113:
 552              	.LBB1114:
 553              	.LBB1115:
 554              		.file 3 "C:/Renesas/e2studio_2021_01_workspace_RZA2M_ANPR/ANPR_RZA2M_EBK/src/tensorflow_lite/tenso
   1:C:/Renesas/e2studio_2021_01_workspace_RZA2M_ANPR/ANPR_RZA2M_EBK/src/tensorflow_lite/tensorflow/lite/micro/kernels\kernel_util.h **** /* Copyright 2020 The TensorFlow Authors. All Rights Reserved.
   2:C:/Renesas/e2studio_2021_01_workspace_RZA2M_ANPR/ANPR_RZA2M_EBK/src/tensorflow_lite/tensorflow/lite/micro/kernels\kernel_util.h **** 
   3:C:/Renesas/e2studio_2021_01_workspace_RZA2M_ANPR/ANPR_RZA2M_EBK/src/tensorflow_lite/tensorflow/lite/micro/kernels\kernel_util.h **** Licensed under the Apache License, Version 2.0 (the "License");
   4:C:/Renesas/e2studio_2021_01_workspace_RZA2M_ANPR/ANPR_RZA2M_EBK/src/tensorflow_lite/tensorflow/lite/micro/kernels\kernel_util.h **** you may not use this file except in compliance with the License.
   5:C:/Renesas/e2studio_2021_01_workspace_RZA2M_ANPR/ANPR_RZA2M_EBK/src/tensorflow_lite/tensorflow/lite/micro/kernels\kernel_util.h **** You may obtain a copy of the License at
   6:C:/Renesas/e2studio_2021_01_workspace_RZA2M_ANPR/ANPR_RZA2M_EBK/src/tensorflow_lite/tensorflow/lite/micro/kernels\kernel_util.h **** 
   7:C:/Renesas/e2studio_2021_01_workspace_RZA2M_ANPR/ANPR_RZA2M_EBK/src/tensorflow_lite/tensorflow/lite/micro/kernels\kernel_util.h ****     http://www.apache.org/licenses/LICENSE-2.0
   8:C:/Renesas/e2studio_2021_01_workspace_RZA2M_ANPR/ANPR_RZA2M_EBK/src/tensorflow_lite/tensorflow/lite/micro/kernels\kernel_util.h **** 
   9:C:/Renesas/e2studio_2021_01_workspace_RZA2M_ANPR/ANPR_RZA2M_EBK/src/tensorflow_lite/tensorflow/lite/micro/kernels\kernel_util.h **** Unless required by applicable law or agreed to in writing, software
  10:C:/Renesas/e2studio_2021_01_workspace_RZA2M_ANPR/ANPR_RZA2M_EBK/src/tensorflow_lite/tensorflow/lite/micro/kernels\kernel_util.h **** distributed under the License is distributed on an "AS IS" BASIS,
  11:C:/Renesas/e2studio_2021_01_workspace_RZA2M_ANPR/ANPR_RZA2M_EBK/src/tensorflow_lite/tensorflow/lite/micro/kernels\kernel_util.h **** WITHOUT WARRANTIES OR CONDITIONS OF ANY KIND, either express or implied.
  12:C:/Renesas/e2studio_2021_01_workspace_RZA2M_ANPR/ANPR_RZA2M_EBK/src/tensorflow_lite/tensorflow/lite/micro/kernels\kernel_util.h **** See the License for the specific language governing permissions and
  13:C:/Renesas/e2studio_2021_01_workspace_RZA2M_ANPR/ANPR_RZA2M_EBK/src/tensorflow_lite/tensorflow/lite/micro/kernels\kernel_util.h **** limitations under the License.
  14:C:/Renesas/e2studio_2021_01_workspace_RZA2M_ANPR/ANPR_RZA2M_EBK/src/tensorflow_lite/tensorflow/lite/micro/kernels\kernel_util.h **** ==============================================================================*/
  15:C:/Renesas/e2studio_2021_01_workspace_RZA2M_ANPR/ANPR_RZA2M_EBK/src/tensorflow_lite/tensorflow/lite/micro/kernels\kernel_util.h **** 
  16:C:/Renesas/e2studio_2021_01_workspace_RZA2M_ANPR/ANPR_RZA2M_EBK/src/tensorflow_lite/tensorflow/lite/micro/kernels\kernel_util.h **** #ifndef TENSORFLOW_LITE_MICRO_KERNELS_KERNEL_UTIL_H_
  17:C:/Renesas/e2studio_2021_01_workspace_RZA2M_ANPR/ANPR_RZA2M_EBK/src/tensorflow_lite/tensorflow/lite/micro/kernels\kernel_util.h **** #define TENSORFLOW_LITE_MICRO_KERNELS_KERNEL_UTIL_H_
  18:C:/Renesas/e2studio_2021_01_workspace_RZA2M_ANPR/ANPR_RZA2M_EBK/src/tensorflow_lite/tensorflow/lite/micro/kernels\kernel_util.h **** 
  19:C:/Renesas/e2studio_2021_01_workspace_RZA2M_ANPR/ANPR_RZA2M_EBK/src/tensorflow_lite/tensorflow/lite/micro/kernels\kernel_util.h **** #include <cstdint>
  20:C:/Renesas/e2studio_2021_01_workspace_RZA2M_ANPR/ANPR_RZA2M_EBK/src/tensorflow_lite/tensorflow/lite/micro/kernels\kernel_util.h **** 
  21:C:/Renesas/e2studio_2021_01_workspace_RZA2M_ANPR/ANPR_RZA2M_EBK/src/tensorflow_lite/tensorflow/lite/micro/kernels\kernel_util.h **** #include "tensorflow/lite/c/builtin_op_data.h"
  22:C:/Renesas/e2studio_2021_01_workspace_RZA2M_ANPR/ANPR_RZA2M_EBK/src/tensorflow_lite/tensorflow/lite/micro/kernels\kernel_util.h **** #include "tensorflow/lite/c/common.h"
  23:C:/Renesas/e2studio_2021_01_workspace_RZA2M_ANPR/ANPR_RZA2M_EBK/src/tensorflow_lite/tensorflow/lite/micro/kernels\kernel_util.h **** #include "tensorflow/lite/kernels/internal/compatibility.h"
  24:C:/Renesas/e2studio_2021_01_workspace_RZA2M_ANPR/ANPR_RZA2M_EBK/src/tensorflow_lite/tensorflow/lite/micro/kernels\kernel_util.h **** #include "tensorflow/lite/kernels/internal/types.h"
  25:C:/Renesas/e2studio_2021_01_workspace_RZA2M_ANPR/ANPR_RZA2M_EBK/src/tensorflow_lite/tensorflow/lite/micro/kernels\kernel_util.h **** 
  26:C:/Renesas/e2studio_2021_01_workspace_RZA2M_ANPR/ANPR_RZA2M_EBK/src/tensorflow_lite/tensorflow/lite/micro/kernels\kernel_util.h **** namespace tflite {
  27:C:/Renesas/e2studio_2021_01_workspace_RZA2M_ANPR/ANPR_RZA2M_EBK/src/tensorflow_lite/tensorflow/lite/micro/kernels\kernel_util.h **** namespace micro {
  28:C:/Renesas/e2studio_2021_01_workspace_RZA2M_ANPR/ANPR_RZA2M_EBK/src/tensorflow_lite/tensorflow/lite/micro/kernels\kernel_util.h **** 
  29:C:/Renesas/e2studio_2021_01_workspace_RZA2M_ANPR/ANPR_RZA2M_EBK/src/tensorflow_lite/tensorflow/lite/micro/kernels\kernel_util.h **** // Returns a mutable tensor for a given input index. is_variable must be checked
  30:C:/Renesas/e2studio_2021_01_workspace_RZA2M_ANPR/ANPR_RZA2M_EBK/src/tensorflow_lite/tensorflow/lite/micro/kernels\kernel_util.h **** // during prepare when the full TfLiteTensor is available.
  31:C:/Renesas/e2studio_2021_01_workspace_RZA2M_ANPR/ANPR_RZA2M_EBK/src/tensorflow_lite/tensorflow/lite/micro/kernels\kernel_util.h **** inline TfLiteEvalTensor* GetMutableEvalInput(const TfLiteContext* context,
  32:C:/Renesas/e2studio_2021_01_workspace_RZA2M_ANPR/ANPR_RZA2M_EBK/src/tensorflow_lite/tensorflow/lite/micro/kernels\kernel_util.h ****                                              const TfLiteNode* node,
  33:C:/Renesas/e2studio_2021_01_workspace_RZA2M_ANPR/ANPR_RZA2M_EBK/src/tensorflow_lite/tensorflow/lite/micro/kernels\kernel_util.h ****                                              int index) {
  34:C:/Renesas/e2studio_2021_01_workspace_RZA2M_ANPR/ANPR_RZA2M_EBK/src/tensorflow_lite/tensorflow/lite/micro/kernels\kernel_util.h ****   TFLITE_DCHECK(context != nullptr);
 555              		.loc 3 34 0
 556 0004 005050E2 		subs	r5, r0, #0
 557              	.LVL68:
 558 0008 3800000A 		beq	.L36
  35:C:/Renesas/e2studio_2021_01_workspace_RZA2M_ANPR/ANPR_RZA2M_EBK/src/tensorflow_lite/tensorflow/lite/micro/kernels\kernel_util.h ****   TFLITE_DCHECK(node != nullptr);
 559              		.loc 3 35 0
 560 000c 000051E3 		cmp	r1, #0
 561 0010 0140A0E1 		mov	r4, r1
 562 0014 3500000A 		beq	.L36
  36:C:/Renesas/e2studio_2021_01_workspace_RZA2M_ANPR/ANPR_RZA2M_EBK/src/tensorflow_lite/tensorflow/lite/micro/kernels\kernel_util.h ****   return context->GetEvalTensor(context, node->inputs->data[index]);
 563              		.loc 3 36 0
 564 0018 002091E5 		ldr	r2, [r1]
 565 001c 543095E5 		ldr	r3, [r5, #84]
 566 0020 041092E5 		ldr	r1, [r2, #4]
 567              	.LVL69:
 568 0024 33FF2FE1 		blx	r3
 569              	.LVL70:
 570              	.LBE1115:
 571              	.LBE1114:
 572              	.LBE1113:
 573              	.LBB1120:
 574              	.LBB1121:
  37:C:/Renesas/e2studio_2021_01_workspace_RZA2M_ANPR/ANPR_RZA2M_EBK/src/tensorflow_lite/tensorflow/lite/micro/kernels\kernel_util.h **** }
  38:C:/Renesas/e2studio_2021_01_workspace_RZA2M_ANPR/ANPR_RZA2M_EBK/src/tensorflow_lite/tensorflow/lite/micro/kernels\kernel_util.h **** 
  39:C:/Renesas/e2studio_2021_01_workspace_RZA2M_ANPR/ANPR_RZA2M_EBK/src/tensorflow_lite/tensorflow/lite/micro/kernels\kernel_util.h **** // Returns the TfLiteEvalTensor struct for a given input index in a node.
  40:C:/Renesas/e2studio_2021_01_workspace_RZA2M_ANPR/ANPR_RZA2M_EBK/src/tensorflow_lite/tensorflow/lite/micro/kernels\kernel_util.h **** inline const TfLiteEvalTensor* GetEvalInput(const TfLiteContext* context,
  41:C:/Renesas/e2studio_2021_01_workspace_RZA2M_ANPR/ANPR_RZA2M_EBK/src/tensorflow_lite/tensorflow/lite/micro/kernels\kernel_util.h ****                                             const TfLiteNode* node, int index) {
  42:C:/Renesas/e2studio_2021_01_workspace_RZA2M_ANPR/ANPR_RZA2M_EBK/src/tensorflow_lite/tensorflow/lite/micro/kernels\kernel_util.h ****   return GetMutableEvalInput(context, node, index);
  43:C:/Renesas/e2studio_2021_01_workspace_RZA2M_ANPR/ANPR_RZA2M_EBK/src/tensorflow_lite/tensorflow/lite/micro/kernels\kernel_util.h **** }
  44:C:/Renesas/e2studio_2021_01_workspace_RZA2M_ANPR/ANPR_RZA2M_EBK/src/tensorflow_lite/tensorflow/lite/micro/kernels\kernel_util.h **** 
  45:C:/Renesas/e2studio_2021_01_workspace_RZA2M_ANPR/ANPR_RZA2M_EBK/src/tensorflow_lite/tensorflow/lite/micro/kernels\kernel_util.h **** // Returns the TfLiteEvalTensor struct for a given output index in a node.
  46:C:/Renesas/e2studio_2021_01_workspace_RZA2M_ANPR/ANPR_RZA2M_EBK/src/tensorflow_lite/tensorflow/lite/micro/kernels\kernel_util.h **** inline TfLiteEvalTensor* GetEvalOutput(const TfLiteContext* context,
  47:C:/Renesas/e2studio_2021_01_workspace_RZA2M_ANPR/ANPR_RZA2M_EBK/src/tensorflow_lite/tensorflow/lite/micro/kernels\kernel_util.h ****                                        const TfLiteNode* node, int index) {
  48:C:/Renesas/e2studio_2021_01_workspace_RZA2M_ANPR/ANPR_RZA2M_EBK/src/tensorflow_lite/tensorflow/lite/micro/kernels\kernel_util.h ****   TFLITE_DCHECK(context != nullptr);
  49:C:/Renesas/e2studio_2021_01_workspace_RZA2M_ANPR/ANPR_RZA2M_EBK/src/tensorflow_lite/tensorflow/lite/micro/kernels\kernel_util.h ****   TFLITE_DCHECK(node != nullptr);
  50:C:/Renesas/e2studio_2021_01_workspace_RZA2M_ANPR/ANPR_RZA2M_EBK/src/tensorflow_lite/tensorflow/lite/micro/kernels\kernel_util.h ****   return context->GetEvalTensor(context, node->outputs->data[index]);
 575              		.loc 3 50 0
 576 0028 042094E5 		ldr	r2, [r4, #4]
 577              	.LBE1121:
 578              	.LBE1120:
 579              	.LBB1123:
 580              	.LBB1118:
 581              	.LBB1116:
  36:C:/Renesas/e2studio_2021_01_workspace_RZA2M_ANPR/ANPR_RZA2M_EBK/src/tensorflow_lite/tensorflow/lite/micro/kernels\kernel_util.h ****   return context->GetEvalTensor(context, node->inputs->data[index]);
 582              		.loc 3 36 0
 583 002c 0070A0E1 		mov	r7, r0
 584              	.LVL71:
 585              	.LBE1116:
 586              	.LBE1118:
 587              	.LBE1123:
 588              	.LBB1124:
 589              	.LBB1122:
 590              		.loc 3 50 0
 591 0030 543095E5 		ldr	r3, [r5, #84]
 592 0034 0500A0E1 		mov	r0, r5
 593 0038 041092E5 		ldr	r1, [r2, #4]
 594 003c 33FF2FE1 		blx	r3
 595              	.LVL72:
 596              	.LBE1122:
 597              	.LBE1124:
 144:../src/tensorflow_lite/tensorflow/lite/micro/kernels/circular_buffer.cc ****   const TfLiteEvalTensor* input =
 145:../src/tensorflow_lite/tensorflow/lite/micro/kernels/circular_buffer.cc ****       tflite::micro::GetEvalInput(context, node, kInputTensor);
 146:../src/tensorflow_lite/tensorflow/lite/micro/kernels/circular_buffer.cc ****   TfLiteEvalTensor* output =
 147:../src/tensorflow_lite/tensorflow/lite/micro/kernels/circular_buffer.cc ****       tflite::micro::GetEvalOutput(context, node, kOutputTensor);
 148:../src/tensorflow_lite/tensorflow/lite/micro/kernels/circular_buffer.cc **** 
 149:../src/tensorflow_lite/tensorflow/lite/micro/kernels/circular_buffer.cc ****   TFLITE_DCHECK(node->user_data != nullptr);
 598              		.loc 2 149 0
 599 0040 106094E5 		ldr	r6, [r4, #16]
 600 0044 000056E3 		cmp	r6, #0
 601 0048 2800000A 		beq	.L36
 602              	.LVL73:
 150:../src/tensorflow_lite/tensorflow/lite/micro/kernels/circular_buffer.cc ****   OpData* data = reinterpret_cast<OpData*>(node->user_data);
 151:../src/tensorflow_lite/tensorflow/lite/micro/kernels/circular_buffer.cc **** 
 152:../src/tensorflow_lite/tensorflow/lite/micro/kernels/circular_buffer.cc ****   int num_slots = output->dims->data[1];
 153:../src/tensorflow_lite/tensorflow/lite/micro/kernels/circular_buffer.cc ****   int depth = output->dims->data[2] * output->dims->data[3];
 154:../src/tensorflow_lite/tensorflow/lite/micro/kernels/circular_buffer.cc **** 
 155:../src/tensorflow_lite/tensorflow/lite/micro/kernels/circular_buffer.cc ****   if (input->type == kTfLiteInt8) {
 603              		.loc 2 155 0
 604 004c 0830D7E5 		ldrb	r3, [r7, #8]	@ zero_extendqisi2
 605 0050 090053E3 		cmp	r3, #9
 606 0054 1700001A 		bne	.L37
 152:../src/tensorflow_lite/tensorflow/lite/micro/kernels/circular_buffer.cc ****   int depth = output->dims->data[2] * output->dims->data[3];
 607              		.loc 2 152 0
 608 0058 042090E5 		ldr	r2, [r0, #4]
 609              	.LBB1125:
 610              	.LBB1126:
  51:C:/Renesas/e2studio_2021_01_workspace_RZA2M_ANPR/ANPR_RZA2M_EBK/src/tensorflow_lite/tensorflow/lite/micro/kernels\kernel_util.h **** }
  52:C:/Renesas/e2studio_2021_01_workspace_RZA2M_ANPR/ANPR_RZA2M_EBK/src/tensorflow_lite/tensorflow/lite/micro/kernels\kernel_util.h **** 
  53:C:/Renesas/e2studio_2021_01_workspace_RZA2M_ANPR/ANPR_RZA2M_EBK/src/tensorflow_lite/tensorflow/lite/micro/kernels\kernel_util.h **** // Returns data for a TfLiteEvalTensor struct.
  54:C:/Renesas/e2studio_2021_01_workspace_RZA2M_ANPR/ANPR_RZA2M_EBK/src/tensorflow_lite/tensorflow/lite/micro/kernels\kernel_util.h **** template <typename T>
  55:C:/Renesas/e2studio_2021_01_workspace_RZA2M_ANPR/ANPR_RZA2M_EBK/src/tensorflow_lite/tensorflow/lite/micro/kernels\kernel_util.h **** T* GetTensorData(TfLiteEvalTensor* tensor) {
  56:C:/Renesas/e2studio_2021_01_workspace_RZA2M_ANPR/ANPR_RZA2M_EBK/src/tensorflow_lite/tensorflow/lite/micro/kernels\kernel_util.h ****   return tensor != nullptr ? reinterpret_cast<T*>(tensor->data.raw) : nullptr;
 611              		.loc 3 56 0
 612 005c 003090E5 		ldr	r3, [r0]
 613              	.LBE1126:
 614              	.LBE1125:
 615              	.LBB1127:
 616              	.LBB1128:
  57:C:/Renesas/e2studio_2021_01_workspace_RZA2M_ANPR/ANPR_RZA2M_EBK/src/tensorflow_lite/tensorflow/lite/micro/kernels\kernel_util.h **** }
  58:C:/Renesas/e2studio_2021_01_workspace_RZA2M_ANPR/ANPR_RZA2M_EBK/src/tensorflow_lite/tensorflow/lite/micro/kernels\kernel_util.h **** 
  59:C:/Renesas/e2studio_2021_01_workspace_RZA2M_ANPR/ANPR_RZA2M_EBK/src/tensorflow_lite/tensorflow/lite/micro/kernels\kernel_util.h **** // Returns const data for a TfLiteEvalTensor struct.
  60:C:/Renesas/e2studio_2021_01_workspace_RZA2M_ANPR/ANPR_RZA2M_EBK/src/tensorflow_lite/tensorflow/lite/micro/kernels\kernel_util.h **** template <typename T>
  61:C:/Renesas/e2studio_2021_01_workspace_RZA2M_ANPR/ANPR_RZA2M_EBK/src/tensorflow_lite/tensorflow/lite/micro/kernels\kernel_util.h **** const T* GetTensorData(const TfLiteEvalTensor* tensor) {
  62:C:/Renesas/e2studio_2021_01_workspace_RZA2M_ANPR/ANPR_RZA2M_EBK/src/tensorflow_lite/tensorflow/lite/micro/kernels\kernel_util.h ****   TFLITE_DCHECK(tensor != nullptr);
  63:C:/Renesas/e2studio_2021_01_workspace_RZA2M_ANPR/ANPR_RZA2M_EBK/src/tensorflow_lite/tensorflow/lite/micro/kernels\kernel_util.h ****   return reinterpret_cast<const T*>(tensor->data.raw);
 617              		.loc 3 63 0
 618 0060 007097E5 		ldr	r7, [r7]
 619              	.LBE1128:
 620              	.LBE1127:
 153:../src/tensorflow_lite/tensorflow/lite/micro/kernels/circular_buffer.cc **** 
 621              		.loc 2 153 0
 622 0064 0C1092E5 		ldr	r1, [r2, #12]
 623 0068 105092E5 		ldr	r5, [r2, #16]
 624              	.LVL74:
 625              	.LBB1129:
 626              	.LBB1130:
 139:../src/tensorflow_lite/tensorflow/lite/micro/kernels/circular_buffer.cc ****   memcpy(&output[(num_slots - 1) * depth], input, depth);
 627              		.loc 2 139 0
 628 006c 0300A0E1 		mov	r0, r3
 629              	.LVL75:
 630 0070 084092E5 		ldr	r4, [r2, #8]
 631              	.LVL76:
 632              	.LBE1130:
 633              	.LBE1129:
 153:../src/tensorflow_lite/tensorflow/lite/micro/kernels/circular_buffer.cc **** 
 634              		.loc 2 153 0
 635 0074 950105E0 		mul	r5, r5, r1
 636              	.LVL77:
 637              	.LBB1132:
 638              	.LBB1131:
 139:../src/tensorflow_lite/tensorflow/lite/micro/kernels/circular_buffer.cc ****   memcpy(&output[(num_slots - 1) * depth], input, depth);
 639              		.loc 2 139 0
 640 0078 014044E2 		sub	r4, r4, #1
 641 007c 950404E0 		mul	r4, r5, r4
 642 0080 051083E0 		add	r1, r3, r5
 643 0084 0420A0E1 		mov	r2, r4
 644              	.LVL78:
 645 0088 FEFFFFEB 		bl	memmove
 646              	.LVL79:
 140:../src/tensorflow_lite/tensorflow/lite/micro/kernels/circular_buffer.cc **** }
 647              		.loc 2 140 0
 648 008c 0520A0E1 		mov	r2, r5
 649 0090 0710A0E1 		mov	r1, r7
 650 0094 040080E0 		add	r0, r0, r4
 651 0098 FEFFFFEB 		bl	memcpy
 652              	.LVL80:
 653              	.LBE1131:
 654              	.LBE1132:
 156:../src/tensorflow_lite/tensorflow/lite/micro/kernels/circular_buffer.cc ****     EvalInt8(tflite::micro::GetTensorData<int8_t>(input), num_slots, depth,
 157:../src/tensorflow_lite/tensorflow/lite/micro/kernels/circular_buffer.cc ****              tflite::micro::GetTensorData<int8_t>(output));
 158:../src/tensorflow_lite/tensorflow/lite/micro/kernels/circular_buffer.cc ****   } else {
 159:../src/tensorflow_lite/tensorflow/lite/micro/kernels/circular_buffer.cc ****     TF_LITE_KERNEL_LOG(context, "Type %s (%d) not supported.",
 160:../src/tensorflow_lite/tensorflow/lite/micro/kernels/circular_buffer.cc ****                        TfLiteTypeGetName(input->type), input->type);
 161:../src/tensorflow_lite/tensorflow/lite/micro/kernels/circular_buffer.cc ****     return kTfLiteError;
 162:../src/tensorflow_lite/tensorflow/lite/micro/kernels/circular_buffer.cc ****   }
 163:../src/tensorflow_lite/tensorflow/lite/micro/kernels/circular_buffer.cc **** 
 164:../src/tensorflow_lite/tensorflow/lite/micro/kernels/circular_buffer.cc ****   if (--data->cycles_until_run != 0) {
 655              		.loc 2 164 0
 656 009c 000096E5 		ldr	r0, [r6]
 657 00a0 010040E2 		sub	r0, r0, #1
 658 00a4 000050E3 		cmp	r0, #0
 659 00a8 000086E5 		str	r0, [r6]
 660 00ac 0C00000A 		beq	.L50
 165:../src/tensorflow_lite/tensorflow/lite/micro/kernels/circular_buffer.cc ****     // Signal the interpreter to end current run if the delay before op invoke
 166:../src/tensorflow_lite/tensorflow/lite/micro/kernels/circular_buffer.cc ****     // has not been reached.
 167:../src/tensorflow_lite/tensorflow/lite/micro/kernels/circular_buffer.cc ****     // TODO(b/149795762): Add kTfLiteAbort to TfLiteStatus enum.
 168:../src/tensorflow_lite/tensorflow/lite/micro/kernels/circular_buffer.cc ****     return static_cast<TfLiteStatus>(kTfLiteAbort);
 661              		.loc 2 168 0
 662 00b0 F700A0E3 		mov	r0, #247
 169:../src/tensorflow_lite/tensorflow/lite/micro/kernels/circular_buffer.cc ****   }
 170:../src/tensorflow_lite/tensorflow/lite/micro/kernels/circular_buffer.cc **** 
 171:../src/tensorflow_lite/tensorflow/lite/micro/kernels/circular_buffer.cc ****   data->cycles_until_run = data->cycles_max;
 172:../src/tensorflow_lite/tensorflow/lite/micro/kernels/circular_buffer.cc **** 
 173:../src/tensorflow_lite/tensorflow/lite/micro/kernels/circular_buffer.cc ****   return kTfLiteOk;
 174:../src/tensorflow_lite/tensorflow/lite/micro/kernels/circular_buffer.cc **** }
 663              		.loc 2 174 0
 664 00b4 F081BDE8 		pop	{r4, r5, r6, r7, r8, pc}
 665              	.LVL81:
 666              	.L37:
 159:../src/tensorflow_lite/tensorflow/lite/micro/kernels/circular_buffer.cc ****                        TfLiteTypeGetName(input->type), input->type);
 667              		.loc 2 159 0
 668 00b8 0300A0E1 		mov	r0, r3
 669              	.LVL82:
 670 00bc 144095E5 		ldr	r4, [r5, #20]
 671              	.LVL83:
 672 00c0 FEFFFFEB 		bl	TfLiteTypeGetName
 673              	.LVL84:
 674 00c4 001000E3 		movw	r1, #:lower16:.LC17
 675 00c8 0020A0E1 		mov	r2, r0
 676 00cc 0830D7E5 		ldrb	r3, [r7, #8]	@ zero_extendqisi2
 677 00d0 0500A0E1 		mov	r0, r5
 678 00d4 001040E3 		movt	r1, #:upper16:.LC17
 679 00d8 34FF2FE1 		blx	r4
 680              	.LVL85:
 161:../src/tensorflow_lite/tensorflow/lite/micro/kernels/circular_buffer.cc ****   }
 681              		.loc 2 161 0
 682 00dc 0100A0E3 		mov	r0, #1
 683 00e0 F081BDE8 		pop	{r4, r5, r6, r7, r8, pc}
 684              	.LVL86:
 685              	.L50:
 171:../src/tensorflow_lite/tensorflow/lite/micro/kernels/circular_buffer.cc **** 
 686              		.loc 2 171 0
 687 00e4 043096E5 		ldr	r3, [r6, #4]
 688 00e8 003086E5 		str	r3, [r6]
 173:../src/tensorflow_lite/tensorflow/lite/micro/kernels/circular_buffer.cc **** }
 689              		.loc 2 173 0
 690 00ec F081BDE8 		pop	{r4, r5, r6, r7, r8, pc}
 691              	.LVL87:
 692              	.L36:
 693              	.LBB1133:
 694              	.LBB1119:
 695              	.LBB1117:
  34:C:/Renesas/e2studio_2021_01_workspace_RZA2M_ANPR/ANPR_RZA2M_EBK/src/tensorflow_lite/tensorflow/lite/micro/kernels\kernel_util.h ****   TFLITE_DCHECK(node != nullptr);
 696              		.loc 3 34 0
 697 00f0 FEFFFFEB 		bl	abort
 698              	.LVL88:
 699              	.LBE1117:
 700              	.LBE1119:
 701              	.LBE1133:
 702              		.cfi_endproc
 703              	.LFE4383:
 704              		.fnend
 706              		.global	__aeabi_idiv
 707              		.global	__aeabi_d2lz
 708              		.section	.text._ZN6tflite3ops5micro15circular_buffer4InitEP13TfLiteContextPKcj,"ax",%progbits
 709              		.align	2
 710              		.global	_ZN6tflite3ops5micro15circular_buffer4InitEP13TfLiteContextPKcj
 711              		.syntax unified
 712              		.arm
 713              		.fpu neon
 715              	_ZN6tflite3ops5micro15circular_buffer4InitEP13TfLiteContextPKcj:
 716              		.fnstart
 717              	.LFB4380:
  72:../src/tensorflow_lite/tensorflow/lite/micro/kernels/circular_buffer.cc ****   TFLITE_DCHECK(context->AllocatePersistentBuffer != nullptr);
 718              		.loc 2 72 0
 719              		.cfi_startproc
 720              		@ args = 0, pretend = 0, frame = 8
 721              		@ frame_needed = 0, uses_anonymous_args = 0
 722              	.LVL89:
  73:../src/tensorflow_lite/tensorflow/lite/micro/kernels/circular_buffer.cc ****   OpData* op_data = static_cast<OpData*>(
 723              		.loc 2 73 0
 724 0000 383090E5 		ldr	r3, [r0, #56]
  72:../src/tensorflow_lite/tensorflow/lite/micro/kernels/circular_buffer.cc ****   TFLITE_DCHECK(context->AllocatePersistentBuffer != nullptr);
 725              		.loc 2 72 0
 726 0004 F0472DE9 		push	{r4, r5, r6, r7, r8, r9, r10, lr}
 727              		.save {r4, r5, r6, r7, r8, r9, r10, lr}
 728              		.cfi_def_cfa_offset 32
 729              		.cfi_offset 4, -32
 730              		.cfi_offset 5, -28
 731              		.cfi_offset 6, -24
 732              		.cfi_offset 7, -20
 733              		.cfi_offset 8, -16
 734              		.cfi_offset 9, -12
 735              		.cfi_offset 10, -8
 736              		.cfi_offset 14, -4
 737              		.pad #16
 738 0008 10D04DE2 		sub	sp, sp, #16
 739              		.cfi_def_cfa_offset 48
  73:../src/tensorflow_lite/tensorflow/lite/micro/kernels/circular_buffer.cc ****   OpData* op_data = static_cast<OpData*>(
 740              		.loc 2 73 0
 741 000c 000053E3 		cmp	r3, #0
 742 0010 3B01000A 		beq	.L158
 743 0014 0140A0E1 		mov	r4, r1
 744 0018 0250A0E1 		mov	r5, r2
  75:../src/tensorflow_lite/tensorflow/lite/micro/kernels/circular_buffer.cc **** 
 745              		.loc 2 75 0
 746 001c 0810A0E3 		mov	r1, #8
 747              	.LVL90:
 748 0020 33FF2FE1 		blx	r3
 749              	.LVL91:
 750              	.LBB1720:
  77:../src/tensorflow_lite/tensorflow/lite/micro/kernels/circular_buffer.cc ****     const uint8_t* buffer_t = reinterpret_cast<const uint8_t*>(buffer);
 751              		.loc 2 77 0
 752 0024 000054E3 		cmp	r4, #0
 753 0028 00005513 		cmpne	r5, #0
 754              	.LBE1720:
  75:../src/tensorflow_lite/tensorflow/lite/micro/kernels/circular_buffer.cc **** 
 755              		.loc 2 75 0
 756 002c 0070A0E1 		mov	r7, r0
 757              	.LVL92:
 758              	.LBB2243:
  77:../src/tensorflow_lite/tensorflow/lite/micro/kernels/circular_buffer.cc ****     const uint8_t* buffer_t = reinterpret_cast<const uint8_t*>(buffer);
 759              		.loc 2 77 0
 760 0030 0130A013 		movne	r3, #1
 761 0034 0030A003 		moveq	r3, #0
 762 0038 4E00000A 		beq	.L53
 763              	.LVL93:
 764              	.LBB1721:
 765              	.LBB1722:
 766              	.LBB1723:
 851:C:/Renesas/e2studio_2021_01_workspace_RZA2M_ANPR/ANPR_RZA2M_EBK/src/tensorflow_lite/third_party/flatbuffers/include/flatbuffers\flexbuffers.h **** }
 852:C:/Renesas/e2studio_2021_01_workspace_RZA2M_ANPR/ANPR_RZA2M_EBK/src/tensorflow_lite/third_party/flatbuffers/include/flatbuffers\flexbuffers.h **** 
 853:C:/Renesas/e2studio_2021_01_workspace_RZA2M_ANPR/ANPR_RZA2M_EBK/src/tensorflow_lite/third_party/flatbuffers/include/flatbuffers\flexbuffers.h **** inline Reference Map::operator[](const char *key) const {
 854:C:/Renesas/e2studio_2021_01_workspace_RZA2M_ANPR/ANPR_RZA2M_EBK/src/tensorflow_lite/third_party/flatbuffers/include/flatbuffers\flexbuffers.h ****   auto keys = Keys();
 855:C:/Renesas/e2studio_2021_01_workspace_RZA2M_ANPR/ANPR_RZA2M_EBK/src/tensorflow_lite/third_party/flatbuffers/include/flatbuffers\flexbuffers.h ****   // We can't pass keys.byte_width_ to the comparison function, so we have
 856:C:/Renesas/e2studio_2021_01_workspace_RZA2M_ANPR/ANPR_RZA2M_EBK/src/tensorflow_lite/third_party/flatbuffers/include/flatbuffers\flexbuffers.h ****   // to pick the right one ahead of time.
 857:C:/Renesas/e2studio_2021_01_workspace_RZA2M_ANPR/ANPR_RZA2M_EBK/src/tensorflow_lite/third_party/flatbuffers/include/flatbuffers\flexbuffers.h ****   int (*comp)(const void *, const void *) = nullptr;
 858:C:/Renesas/e2studio_2021_01_workspace_RZA2M_ANPR/ANPR_RZA2M_EBK/src/tensorflow_lite/third_party/flatbuffers/include/flatbuffers\flexbuffers.h ****   switch (keys.byte_width_) {
 859:C:/Renesas/e2studio_2021_01_workspace_RZA2M_ANPR/ANPR_RZA2M_EBK/src/tensorflow_lite/third_party/flatbuffers/include/flatbuffers\flexbuffers.h ****     case 1: comp = KeyCompare<uint8_t>; break;
 860:C:/Renesas/e2studio_2021_01_workspace_RZA2M_ANPR/ANPR_RZA2M_EBK/src/tensorflow_lite/third_party/flatbuffers/include/flatbuffers\flexbuffers.h ****     case 2: comp = KeyCompare<uint16_t>; break;
 861:C:/Renesas/e2studio_2021_01_workspace_RZA2M_ANPR/ANPR_RZA2M_EBK/src/tensorflow_lite/third_party/flatbuffers/include/flatbuffers\flexbuffers.h ****     case 4: comp = KeyCompare<uint32_t>; break;
 862:C:/Renesas/e2studio_2021_01_workspace_RZA2M_ANPR/ANPR_RZA2M_EBK/src/tensorflow_lite/third_party/flatbuffers/include/flatbuffers\flexbuffers.h ****     case 8: comp = KeyCompare<uint64_t>; break;
 863:C:/Renesas/e2studio_2021_01_workspace_RZA2M_ANPR/ANPR_RZA2M_EBK/src/tensorflow_lite/third_party/flatbuffers/include/flatbuffers\flexbuffers.h ****   }
 864:C:/Renesas/e2studio_2021_01_workspace_RZA2M_ANPR/ANPR_RZA2M_EBK/src/tensorflow_lite/third_party/flatbuffers/include/flatbuffers\flexbuffers.h ****   auto res = std::bsearch(key, keys.data_, keys.size(), keys.byte_width_, comp);
 865:C:/Renesas/e2studio_2021_01_workspace_RZA2M_ANPR/ANPR_RZA2M_EBK/src/tensorflow_lite/third_party/flatbuffers/include/flatbuffers\flexbuffers.h ****   if (!res) return Reference(nullptr, 1, NullPackedType());
 866:C:/Renesas/e2studio_2021_01_workspace_RZA2M_ANPR/ANPR_RZA2M_EBK/src/tensorflow_lite/third_party/flatbuffers/include/flatbuffers\flexbuffers.h ****   auto i = (reinterpret_cast<uint8_t *>(res) - keys.data_) / keys.byte_width_;
 867:C:/Renesas/e2studio_2021_01_workspace_RZA2M_ANPR/ANPR_RZA2M_EBK/src/tensorflow_lite/third_party/flatbuffers/include/flatbuffers\flexbuffers.h ****   return (*static_cast<const Vector *>(this))[i];
 868:C:/Renesas/e2studio_2021_01_workspace_RZA2M_ANPR/ANPR_RZA2M_EBK/src/tensorflow_lite/third_party/flatbuffers/include/flatbuffers\flexbuffers.h **** }
 869:C:/Renesas/e2studio_2021_01_workspace_RZA2M_ANPR/ANPR_RZA2M_EBK/src/tensorflow_lite/third_party/flatbuffers/include/flatbuffers\flexbuffers.h **** 
 870:C:/Renesas/e2studio_2021_01_workspace_RZA2M_ANPR/ANPR_RZA2M_EBK/src/tensorflow_lite/third_party/flatbuffers/include/flatbuffers\flexbuffers.h **** inline Reference Map::operator[](const std::string &key) const {
 871:C:/Renesas/e2studio_2021_01_workspace_RZA2M_ANPR/ANPR_RZA2M_EBK/src/tensorflow_lite/third_party/flatbuffers/include/flatbuffers\flexbuffers.h ****   return (*this)[key.c_str()];
 872:C:/Renesas/e2studio_2021_01_workspace_RZA2M_ANPR/ANPR_RZA2M_EBK/src/tensorflow_lite/third_party/flatbuffers/include/flatbuffers\flexbuffers.h **** }
 873:C:/Renesas/e2studio_2021_01_workspace_RZA2M_ANPR/ANPR_RZA2M_EBK/src/tensorflow_lite/third_party/flatbuffers/include/flatbuffers\flexbuffers.h **** 
 874:C:/Renesas/e2studio_2021_01_workspace_RZA2M_ANPR/ANPR_RZA2M_EBK/src/tensorflow_lite/third_party/flatbuffers/include/flatbuffers\flexbuffers.h **** inline Reference GetRoot(const uint8_t *buffer, size_t size) {
 875:C:/Renesas/e2studio_2021_01_workspace_RZA2M_ANPR/ANPR_RZA2M_EBK/src/tensorflow_lite/third_party/flatbuffers/include/flatbuffers\flexbuffers.h ****   // See Finish() below for the serialization counterpart of this.
 876:C:/Renesas/e2studio_2021_01_workspace_RZA2M_ANPR/ANPR_RZA2M_EBK/src/tensorflow_lite/third_party/flatbuffers/include/flatbuffers\flexbuffers.h ****   // The root starts at the end of the buffer, so we parse backwards from there.
 877:C:/Renesas/e2studio_2021_01_workspace_RZA2M_ANPR/ANPR_RZA2M_EBK/src/tensorflow_lite/third_party/flatbuffers/include/flatbuffers\flexbuffers.h ****   auto end = buffer + size;
 767              		.loc 1 877 0
 768 003c 054084E0 		add	r4, r4, r5
 769              	.LVL94:
 878:C:/Renesas/e2studio_2021_01_workspace_RZA2M_ANPR/ANPR_RZA2M_EBK/src/tensorflow_lite/third_party/flatbuffers/include/flatbuffers\flexbuffers.h ****   auto byte_width = *--end;
 879:C:/Renesas/e2studio_2021_01_workspace_RZA2M_ANPR/ANPR_RZA2M_EBK/src/tensorflow_lite/third_party/flatbuffers/include/flatbuffers\flexbuffers.h ****   auto packed_type = *--end;
 770              		.loc 1 879 0
 771 0040 025054E5 		ldrb	r5, [r4, #-2]	@ zero_extendqisi2
 772              	.LVL95:
 878:C:/Renesas/e2studio_2021_01_workspace_RZA2M_ANPR/ANPR_RZA2M_EBK/src/tensorflow_lite/third_party/flatbuffers/include/flatbuffers\flexbuffers.h ****   auto byte_width = *--end;
 773              		.loc 1 878 0
 774 0044 012054E5 		ldrb	r2, [r4, #-1]	@ zero_extendqisi2
 775              	.LVL96:
 776              	.LBB1724:
 777              	.LBB1725:
 386:C:/Renesas/e2studio_2021_01_workspace_RZA2M_ANPR/ANPR_RZA2M_EBK/src/tensorflow_lite/third_party/flatbuffers/include/flatbuffers\flexbuffers.h ****   }
 778              		.loc 1 386 0
 779 0048 4531A0E1 		asr	r3, r5, #2
 780              	.LBE1725:
 781              	.LBE1724:
 782              	.LBE1723:
 783              	.LBE1722:
 784              	.LBB1736:
 785              	.LBB1737:
 656:C:/Renesas/e2studio_2021_01_workspace_RZA2M_ANPR/ANPR_RZA2M_EBK/src/tensorflow_lite/third_party/flatbuffers/include/flatbuffers\flexbuffers.h ****       return Map(Indirect(), byte_width_);
 786              		.loc 1 656 0
 787 004c 090053E3 		cmp	r3, #9
 788 0050 6100000A 		beq	.L159
 789              	.LVL97:
 790 0054 D8549FE5 		ldr	r5, .L166
 791              	.LVL98:
 792              	.LBB1738:
 793              	.LBB1739:
 794              	.LBB1740:
 795              	.LBB1741:
 796              	.LBB1742:
 797              	.LBB1743:
 798              	.LBB1744:
 799              	.LBB1745:
 210:C:/Renesas/e2studio_2021_01_workspace_RZA2M_ANPR/ANPR_RZA2M_EBK/src/tensorflow_lite/third_party/flatbuffers/include/flatbuffers\flexbuffers.h **** 
 800              		.loc 1 210 0
 801 0058 01A0A0E3 		mov	r10, #1
 802              	.LBE1745:
 803              	.LBE1744:
 804              	.LBE1743:
 805              	.LBE1742:
 806              	.LBE1741:
 807              	.LBE1740:
 808              	.LBE1739:
 809              	.LBE1738:
 810              	.LBE1737:
 811              	.LBE1736:
 812              	.LBB1842:
 813              	.LBB1843:
 814              	.LBB1844:
 815              	.LBB1845:
 341:C:/Renesas/e2studio_2021_01_workspace_RZA2M_ANPR/ANPR_RZA2M_EBK/src/tensorflow_lite/third_party/flatbuffers/include/flatbuffers\flexbuffers.h ****     return TypedVector(Indirect(keys_offset, byte_width_),
 816              		.loc 1 341 0
 817 005c 0A80A0E1 		mov	r8, r10
 818              	.LBE1845:
 819              	.LBE1844:
 820              	.LBE1843:
 821              	.LBE1842:
 822              	.LBB1964:
 823              	.LBB1832:
 824              	.LBB1753:
 825              	.LBB1752:
 826              	.LBB1751:
 827              	.LBB1750:
 828              	.LBB1749:
 829              	.LBB1748:
 222:C:/Renesas/e2studio_2021_01_workspace_RZA2M_ANPR/ANPR_RZA2M_EBK/src/tensorflow_lite/third_party/flatbuffers/include/flatbuffers\flexbuffers.h ****   // Manual size.
 830              		.loc 1 222 0
 831 0060 0090A0E3 		mov	r9, #0
 832              	.LBB1747:
 833              	.LBB1746:
 210:C:/Renesas/e2studio_2021_01_workspace_RZA2M_ANPR/ANPR_RZA2M_EBK/src/tensorflow_lite/third_party/flatbuffers/include/flatbuffers\flexbuffers.h **** 
 834              		.loc 1 210 0
 835 0064 034085E2 		add	r4, r5, #3
 836              	.LBE1746:
 837              	.LBE1747:
 838              	.LBE1748:
 839              	.LBE1749:
 840              	.LBE1750:
 841              	.LBE1751:
 842              	.LBE1752:
 843              	.LBE1753:
 844              	.LBE1832:
 845              	.LBE1964:
 846              	.LBB1965:
 847              	.LBB1953:
 848              	.LBB1932:
 849              	.LBB1921:
 341:C:/Renesas/e2studio_2021_01_workspace_RZA2M_ANPR/ANPR_RZA2M_EBK/src/tensorflow_lite/third_party/flatbuffers/include/flatbuffers\flexbuffers.h ****     return TypedVector(Indirect(keys_offset, byte_width_),
 850              		.loc 1 341 0
 851 0068 0510A0E1 		mov	r1, r5
 852              	.LVL99:
 853              	.L64:
 854              	.LBB1846:
 855              	.LBB1847:
 856              	.LBB1848:
 139:C:/Renesas/e2studio_2021_01_workspace_RZA2M_ANPR/ANPR_RZA2M_EBK/src/tensorflow_lite/third_party/flatbuffers/include/flatbuffers\flexbuffers.h ****                     : static_cast<R>(flatbuffers::ReadScalar<T2>(data)))
 857              		.loc 1 139 0
 858 006c 0820D1E7 		ldrb	r2, [r1, r8]	@ zero_extendqisi2
 859              	.LVL100:
 860              	.L65:
 861              	.LBE1848:
 862              	.LBE1847:
 863              	.LBE1846:
 345:C:/Renesas/e2studio_2021_01_workspace_RZA2M_ANPR/ANPR_RZA2M_EBK/src/tensorflow_lite/third_party/flatbuffers/include/flatbuffers\flexbuffers.h ****   }
 864              		.loc 1 345 0
 865 0070 7260EFE6 		uxtb	r6, r2
 866              	.LVL101:
 867              	.LBB1859:
 868              	.LBB1860:
 869              	.LBB1861:
 870              	.LBB1862:
 871              	.LBB1863:
 872              	.LBB1864:
 873              	.LBB1865:
 138:C:/Renesas/e2studio_2021_01_workspace_RZA2M_ANPR/ANPR_RZA2M_EBK/src/tensorflow_lite/third_party/flatbuffers/include/flatbuffers\flexbuffers.h ****                     ? static_cast<R>(flatbuffers::ReadScalar<T1>(data))
 874              		.loc 1 138 0
 875 0074 030056E3 		cmp	r6, #3
 876              	.LBE1865:
 877              	.LBE1864:
 878              	.LBE1863:
 229:C:/Renesas/e2studio_2021_01_workspace_RZA2M_ANPR/ANPR_RZA2M_EBK/src/tensorflow_lite/third_party/flatbuffers/include/flatbuffers\flexbuffers.h ****   }
 879              		.loc 1 229 0
 880 0078 063045E0 		sub	r3, r5, r6
 881              	.LVL102:
 882              	.LBB1874:
 883              	.LBB1871:
 884              	.LBB1868:
 138:C:/Renesas/e2studio_2021_01_workspace_RZA2M_ANPR/ANPR_RZA2M_EBK/src/tensorflow_lite/third_party/flatbuffers/include/flatbuffers\flexbuffers.h ****                     ? static_cast<R>(flatbuffers::ReadScalar<T1>(data))
 885              		.loc 1 138 0
 886 007c 4100008A 		bhi	.L66
 139:C:/Renesas/e2studio_2021_01_workspace_RZA2M_ANPR/ANPR_RZA2M_EBK/src/tensorflow_lite/third_party/flatbuffers/include/flatbuffers\flexbuffers.h ****                     : static_cast<R>(flatbuffers::ReadScalar<T2>(data)))
 887              		.loc 1 139 0
 888 0080 010056E3 		cmp	r6, #1
 889 0084 0020D395 		ldrbls	r2, [r3]	@ zero_extendqisi2
 890 0088 B020D381 		ldrhhi	r2, [r3]
 891              	.L68:
 892              	.LVL103:
 893 008c 013046E2 		sub	r3, r6, #1
 894              	.LVL104:
 895              	.LBE1868:
 896              	.LBE1871:
 897              	.LBE1874:
 898              	.LBE1862:
 899              	.LBE1861:
 900              	.LBE1860:
 901              	.LBE1859:
 902              	.LBE1921:
 903              	.LBE1932:
 864:C:/Renesas/e2studio_2021_01_workspace_RZA2M_ANPR/ANPR_RZA2M_EBK/src/tensorflow_lite/third_party/flatbuffers/include/flatbuffers\flexbuffers.h ****   if (!res) return Reference(nullptr, 1, NullPackedType());
 904              		.loc 1 864 0
 905 0090 000000E3 		movw	r0, #:lower16:.LC18
 906 0094 7330EFE6 		uxtb	r3, r3
 907 0098 000040E3 		movt	r0, #:upper16:.LC18
 908 009c 070053E3 		cmp	r3, #7
 909 00a0 00100093 		movwls	r1, #:lower16:.LANCHOR1
 910              	.LBB1933:
 911              	.LBB1922:
 912              	.LBB1886:
 913              	.LBB1883:
 914              	.LBB1880:
 915              	.LBB1877:
 229:C:/Renesas/e2studio_2021_01_workspace_RZA2M_ANPR/ANPR_RZA2M_EBK/src/tensorflow_lite/third_party/flatbuffers/include/flatbuffers\flexbuffers.h ****   }
 916              		.loc 1 229 0
 917 00a4 0030A083 		movhi	r3, #0
 918 00a8 00104093 		movtls	r1, #:upper16:.LANCHOR1
 919 00ac 03319197 		ldrls	r3, [r1, r3, lsl #2]
 920              	.LVL105:
 921              	.LBE1877:
 922              	.LBE1880:
 923              	.LBE1883:
 924              	.LBE1886:
 925              	.LBE1922:
 926              	.LBE1933:
 864:C:/Renesas/e2studio_2021_01_workspace_RZA2M_ANPR/ANPR_RZA2M_EBK/src/tensorflow_lite/third_party/flatbuffers/include/flatbuffers\flexbuffers.h ****   if (!res) return Reference(nullptr, 1, NullPackedType());
 927              		.loc 1 864 0
 928 00b0 0510A0E1 		mov	r1, r5
 929 00b4 00308DE5 		str	r3, [sp]
 930 00b8 0630A0E1 		mov	r3, r6
 931              	.LVL106:
 932 00bc FEFFFFEB 		bl	bsearch
 933              	.LVL107:
 865:C:/Renesas/e2studio_2021_01_workspace_RZA2M_ANPR/ANPR_RZA2M_EBK/src/tensorflow_lite/third_party/flatbuffers/include/flatbuffers\flexbuffers.h ****   auto i = (reinterpret_cast<uint8_t *>(res) - keys.data_) / keys.byte_width_;
 934              		.loc 1 865 0
 935 00c0 000050E3 		cmp	r0, #0
 936 00c4 3300000A 		beq	.L141
 937              	.LVL108:
 866:C:/Renesas/e2studio_2021_01_workspace_RZA2M_ANPR/ANPR_RZA2M_EBK/src/tensorflow_lite/third_party/flatbuffers/include/flatbuffers\flexbuffers.h ****   return (*static_cast<const Vector *>(this))[i];
 938              		.loc 1 866 0
 939 00c8 0610A0E1 		mov	r1, r6
 940 00cc 050040E0 		sub	r0, r0, r5
 941              	.LVL109:
 942 00d0 FEFFFFEB 		bl	__aeabi_idiv
 943              	.LVL110:
 944              	.LBB1934:
 945              	.LBB1935:
 827:C:/Renesas/e2studio_2021_01_workspace_RZA2M_ANPR/ANPR_RZA2M_EBK/src/tensorflow_lite/third_party/flatbuffers/include/flatbuffers\flexbuffers.h ****   auto packed_type = (data_ + len * byte_width_)[i];
 946              		.loc 1 827 0
 947 00d4 090050E1 		cmp	r0, r9
 948 00d8 2E00002A 		bcs	.L141
 828:C:/Renesas/e2studio_2021_01_workspace_RZA2M_ANPR/ANPR_RZA2M_EBK/src/tensorflow_lite/third_party/flatbuffers/include/flatbuffers\flexbuffers.h ****   auto elem = data_ + i * byte_width_;
 949              		.loc 1 828 0
 950 00dc 984929E0 		mla	r9, r8, r9, r4
 951              	.LBB1936:
 952              	.LBB1937:
 385:C:/Renesas/e2studio_2021_01_workspace_RZA2M_ANPR/ANPR_RZA2M_EBK/src/tensorflow_lite/third_party/flatbuffers/include/flatbuffers\flexbuffers.h ****     type_ = static_cast<Type>(packed_type >> 2);
 953              		.loc 1 385 0
 954 00e0 0110A0E3 		mov	r1, #1
 955              	.LBE1937:
 956              	.LBE1936:
 829:C:/Renesas/e2studio_2021_01_workspace_RZA2M_ANPR/ANPR_RZA2M_EBK/src/tensorflow_lite/third_party/flatbuffers/include/flatbuffers\flexbuffers.h ****   return Reference(elem, byte_width_, packed_type);
 957              		.loc 1 829 0
 958 00e4 984024E0 		mla	r4, r8, r0, r4
 828:C:/Renesas/e2studio_2021_01_workspace_RZA2M_ANPR/ANPR_RZA2M_EBK/src/tensorflow_lite/third_party/flatbuffers/include/flatbuffers\flexbuffers.h ****   auto elem = data_ + i * byte_width_;
 959              		.loc 1 828 0
 960 00e8 0030D9E7 		ldrb	r3, [r9, r0]	@ zero_extendqisi2
 961              	.LVL111:
 962              	.LBB1940:
 963              	.LBB1938:
 385:C:/Renesas/e2studio_2021_01_workspace_RZA2M_ANPR/ANPR_RZA2M_EBK/src/tensorflow_lite/third_party/flatbuffers/include/flatbuffers\flexbuffers.h ****     type_ = static_cast<Type>(packed_type >> 2);
 964              		.loc 1 385 0
 965 00ec 032003E2 		and	r2, r3, #3
 386:C:/Renesas/e2studio_2021_01_workspace_RZA2M_ANPR/ANPR_RZA2M_EBK/src/tensorflow_lite/third_party/flatbuffers/include/flatbuffers\flexbuffers.h ****   }
 966              		.loc 1 386 0
 967 00f0 4331A0E1 		asr	r3, r3, #2
 968              	.LVL112:
 385:C:/Renesas/e2studio_2021_01_workspace_RZA2M_ANPR/ANPR_RZA2M_EBK/src/tensorflow_lite/third_party/flatbuffers/include/flatbuffers\flexbuffers.h ****     type_ = static_cast<Type>(packed_type >> 2);
 969              		.loc 1 385 0
 970 00f4 1122A0E1 		lsl	r2, r1, r2
 971              	.LBE1938:
 972              	.LBE1940:
 973              	.LBE1935:
 974              	.LBE1934:
 975              	.LBE1953:
 976              	.LBE1965:
 977              	.LBB1966:
 978              	.LBB1967:
 979              	.LBB1968:
 424:C:/Renesas/e2studio_2021_01_workspace_RZA2M_ANPR/ANPR_RZA2M_EBK/src/tensorflow_lite/third_party/flatbuffers/include/flatbuffers\flexbuffers.h ****       // A fast path for the common case.
 980              		.loc 1 424 0
 981 00f8 010053E1 		cmp	r3, r1
 982              	.LBE1968:
 983              	.LBE1967:
 984              	.LBE1966:
 985              	.LBB2210:
 986              	.LBB1954:
 987              	.LBB1943:
 988              	.LBB1942:
 989              	.LBB1941:
 990              	.LBB1939:
 386:C:/Renesas/e2studio_2021_01_workspace_RZA2M_ANPR/ANPR_RZA2M_EBK/src/tensorflow_lite/third_party/flatbuffers/include/flatbuffers\flexbuffers.h ****   }
 991              		.loc 1 386 0
 992 00fc 7330EFE6 		uxtb	r3, r3
 993              	.LVL113:
 994              	.LBE1939:
 995              	.LBE1941:
 996              	.LBE1942:
 997              	.LBE1943:
 998              	.LBE1954:
 999              	.LBE2210:
 1000              	.LBB2211:
 1001              	.LBB2203:
 1002              	.LBB2196:
 424:C:/Renesas/e2studio_2021_01_workspace_RZA2M_ANPR/ANPR_RZA2M_EBK/src/tensorflow_lite/third_party/flatbuffers/include/flatbuffers\flexbuffers.h ****       // A fast path for the common case.
 1003              		.loc 1 424 0
 1004 0100 2B00000A 		beq	.L160
 428:C:/Renesas/e2studio_2021_01_workspace_RZA2M_ANPR/ANPR_RZA2M_EBK/src/tensorflow_lite/third_party/flatbuffers/include/flatbuffers\flexbuffers.h ****         case FBT_INDIRECT_INT: return ReadInt64(Indirect(), byte_width_);
 1005              		.loc 1 428 0
 1006 0104 023043E2 		sub	r3, r3, #2
 1007 0108 180053E3 		cmp	r3, #24
 1008 010c 03F19F97 		ldrls	pc, [pc, r3, asl #2]
 1009 0110 200000EA 		b	.L141
 1010              	.L78:
 1011 0114 4C030000 		.word	.L77
 1012 0118 FC020000 		.word	.L79
 1013 011c 98010000 		.word	.L141
 1014 0120 64030000 		.word	.L80
 1015 0124 1C030000 		.word	.L81
 1016 0128 CC020000 		.word	.L82
 1017 012c 8C020000 		.word	.L83
 1018 0130 98010000 		.word	.L141
 1019 0134 58020000 		.word	.L84
 1020 0138 98010000 		.word	.L141
 1021 013c 98010000 		.word	.L141
 1022 0140 98010000 		.word	.L141
 1023 0144 98010000 		.word	.L141
 1024 0148 98010000 		.word	.L141
 1025 014c 98010000 		.word	.L141
 1026 0150 98010000 		.word	.L141
 1027 0154 98010000 		.word	.L141
 1028 0158 98010000 		.word	.L141
 1029 015c 98010000 		.word	.L141
 1030 0160 98010000 		.word	.L141
 1031 0164 98010000 		.word	.L141
 1032 0168 98010000 		.word	.L141
 1033 016c 98010000 		.word	.L141
 1034 0170 98010000 		.word	.L141
 1035 0174 E4030000 		.word	.L85
 1036              	.LVL114:
 1037              	.L53:
 1038              	.LBE2196:
 1039              	.LBE2203:
 1040              	.LBE2211:
 1041              	.LBE1721:
  82:../src/tensorflow_lite/tensorflow/lite/micro/kernels/circular_buffer.cc ****   }
 1042              		.loc 2 82 0
 1043 0178 043080E5 		str	r3, [r0, #4]
 1044              	.LBE2243:
  86:../src/tensorflow_lite/tensorflow/lite/micro/kernels/circular_buffer.cc **** 
 1045              		.loc 2 86 0
 1046 017c 0700A0E1 		mov	r0, r7
 1047              	.LVL115:
 1048 0180 10D08DE2 		add	sp, sp, #16
 1049              		.cfi_remember_state
 1050              		.cfi_def_cfa_offset 32
 1051              		@ sp needed
 1052 0184 F087BDE8 		pop	{r4, r5, r6, r7, r8, r9, r10, pc}
 1053              	.LVL116:
 1054              	.L66:
 1055              		.cfi_restore_state
 1056              	.LBB2244:
 1057              	.LBB2240:
 1058              	.LBB2212:
 1059              	.LBB1955:
 1060              	.LBB1944:
 1061              	.LBB1923:
 1062              	.LBB1887:
 1063              	.LBB1884:
 1064              	.LBB1881:
 1065              	.LBB1878:
 1066              	.LBB1875:
 1067              	.LBB1872:
 1068              	.LBB1869:
 142:C:/Renesas/e2studio_2021_01_workspace_RZA2M_ANPR/ANPR_RZA2M_EBK/src/tensorflow_lite/third_party/flatbuffers/include/flatbuffers\flexbuffers.h ****                     : static_cast<R>(flatbuffers::ReadScalar<T8>(data)));
 1069              		.loc 1 142 0
 1070 0188 070056E3 		cmp	r6, #7
 1071 018c 0600009A 		bls	.L161
 1072              	.LVL117:
 1073              	.LBB1866:
 1074              	.LBB1867:
 1075              		.file 4 "C:/Renesas/e2studio_2021_01_workspace_RZA2M_ANPR/ANPR_RZA2M_EBK/src/tensorflow_lite/third
   1:C:/Renesas/e2studio_2021_01_workspace_RZA2M_ANPR/ANPR_RZA2M_EBK/src/tensorflow_lite/third_party/flatbuffers/include/flatbuffers\base.h **** #ifndef FLATBUFFERS_BASE_H_
   2:C:/Renesas/e2studio_2021_01_workspace_RZA2M_ANPR/ANPR_RZA2M_EBK/src/tensorflow_lite/third_party/flatbuffers/include/flatbuffers\base.h **** #define FLATBUFFERS_BASE_H_
   3:C:/Renesas/e2studio_2021_01_workspace_RZA2M_ANPR/ANPR_RZA2M_EBK/src/tensorflow_lite/third_party/flatbuffers/include/flatbuffers\base.h **** 
   4:C:/Renesas/e2studio_2021_01_workspace_RZA2M_ANPR/ANPR_RZA2M_EBK/src/tensorflow_lite/third_party/flatbuffers/include/flatbuffers\base.h **** // clang-format off
   5:C:/Renesas/e2studio_2021_01_workspace_RZA2M_ANPR/ANPR_RZA2M_EBK/src/tensorflow_lite/third_party/flatbuffers/include/flatbuffers\base.h **** 
   6:C:/Renesas/e2studio_2021_01_workspace_RZA2M_ANPR/ANPR_RZA2M_EBK/src/tensorflow_lite/third_party/flatbuffers/include/flatbuffers\base.h **** // If activate should be declared and included first.
   7:C:/Renesas/e2studio_2021_01_workspace_RZA2M_ANPR/ANPR_RZA2M_EBK/src/tensorflow_lite/third_party/flatbuffers/include/flatbuffers\base.h **** #if defined(FLATBUFFERS_MEMORY_LEAK_TRACKING) && \
   8:C:/Renesas/e2studio_2021_01_workspace_RZA2M_ANPR/ANPR_RZA2M_EBK/src/tensorflow_lite/third_party/flatbuffers/include/flatbuffers\base.h ****     defined(_MSC_VER) && defined(_DEBUG)
   9:C:/Renesas/e2studio_2021_01_workspace_RZA2M_ANPR/ANPR_RZA2M_EBK/src/tensorflow_lite/third_party/flatbuffers/include/flatbuffers\base.h ****   // The _CRTDBG_MAP_ALLOC inside <crtdbg.h> will replace
  10:C:/Renesas/e2studio_2021_01_workspace_RZA2M_ANPR/ANPR_RZA2M_EBK/src/tensorflow_lite/third_party/flatbuffers/include/flatbuffers\base.h ****   // calloc/free (etc) to its debug version using #define directives.
  11:C:/Renesas/e2studio_2021_01_workspace_RZA2M_ANPR/ANPR_RZA2M_EBK/src/tensorflow_lite/third_party/flatbuffers/include/flatbuffers\base.h ****   #define _CRTDBG_MAP_ALLOC
  12:C:/Renesas/e2studio_2021_01_workspace_RZA2M_ANPR/ANPR_RZA2M_EBK/src/tensorflow_lite/third_party/flatbuffers/include/flatbuffers\base.h ****   #include <stdlib.h>
  13:C:/Renesas/e2studio_2021_01_workspace_RZA2M_ANPR/ANPR_RZA2M_EBK/src/tensorflow_lite/third_party/flatbuffers/include/flatbuffers\base.h ****   #include <crtdbg.h>
  14:C:/Renesas/e2studio_2021_01_workspace_RZA2M_ANPR/ANPR_RZA2M_EBK/src/tensorflow_lite/third_party/flatbuffers/include/flatbuffers\base.h ****   // Replace operator new by trace-enabled version.
  15:C:/Renesas/e2studio_2021_01_workspace_RZA2M_ANPR/ANPR_RZA2M_EBK/src/tensorflow_lite/third_party/flatbuffers/include/flatbuffers\base.h ****   #define DEBUG_NEW new(_NORMAL_BLOCK, __FILE__, __LINE__)
  16:C:/Renesas/e2studio_2021_01_workspace_RZA2M_ANPR/ANPR_RZA2M_EBK/src/tensorflow_lite/third_party/flatbuffers/include/flatbuffers\base.h ****   #define new DEBUG_NEW
  17:C:/Renesas/e2studio_2021_01_workspace_RZA2M_ANPR/ANPR_RZA2M_EBK/src/tensorflow_lite/third_party/flatbuffers/include/flatbuffers\base.h **** #endif
  18:C:/Renesas/e2studio_2021_01_workspace_RZA2M_ANPR/ANPR_RZA2M_EBK/src/tensorflow_lite/third_party/flatbuffers/include/flatbuffers\base.h **** 
  19:C:/Renesas/e2studio_2021_01_workspace_RZA2M_ANPR/ANPR_RZA2M_EBK/src/tensorflow_lite/third_party/flatbuffers/include/flatbuffers\base.h **** #if !defined(FLATBUFFERS_ASSERT)
  20:C:/Renesas/e2studio_2021_01_workspace_RZA2M_ANPR/ANPR_RZA2M_EBK/src/tensorflow_lite/third_party/flatbuffers/include/flatbuffers\base.h **** #include <assert.h>
  21:C:/Renesas/e2studio_2021_01_workspace_RZA2M_ANPR/ANPR_RZA2M_EBK/src/tensorflow_lite/third_party/flatbuffers/include/flatbuffers\base.h **** #define FLATBUFFERS_ASSERT assert
  22:C:/Renesas/e2studio_2021_01_workspace_RZA2M_ANPR/ANPR_RZA2M_EBK/src/tensorflow_lite/third_party/flatbuffers/include/flatbuffers\base.h **** #elif defined(FLATBUFFERS_ASSERT_INCLUDE)
  23:C:/Renesas/e2studio_2021_01_workspace_RZA2M_ANPR/ANPR_RZA2M_EBK/src/tensorflow_lite/third_party/flatbuffers/include/flatbuffers\base.h **** // Include file with forward declaration
  24:C:/Renesas/e2studio_2021_01_workspace_RZA2M_ANPR/ANPR_RZA2M_EBK/src/tensorflow_lite/third_party/flatbuffers/include/flatbuffers\base.h **** #include FLATBUFFERS_ASSERT_INCLUDE
  25:C:/Renesas/e2studio_2021_01_workspace_RZA2M_ANPR/ANPR_RZA2M_EBK/src/tensorflow_lite/third_party/flatbuffers/include/flatbuffers\base.h **** #endif
  26:C:/Renesas/e2studio_2021_01_workspace_RZA2M_ANPR/ANPR_RZA2M_EBK/src/tensorflow_lite/third_party/flatbuffers/include/flatbuffers\base.h **** 
  27:C:/Renesas/e2studio_2021_01_workspace_RZA2M_ANPR/ANPR_RZA2M_EBK/src/tensorflow_lite/third_party/flatbuffers/include/flatbuffers\base.h **** #ifndef ARDUINO
  28:C:/Renesas/e2studio_2021_01_workspace_RZA2M_ANPR/ANPR_RZA2M_EBK/src/tensorflow_lite/third_party/flatbuffers/include/flatbuffers\base.h **** #include <cstdint>
  29:C:/Renesas/e2studio_2021_01_workspace_RZA2M_ANPR/ANPR_RZA2M_EBK/src/tensorflow_lite/third_party/flatbuffers/include/flatbuffers\base.h **** #endif
  30:C:/Renesas/e2studio_2021_01_workspace_RZA2M_ANPR/ANPR_RZA2M_EBK/src/tensorflow_lite/third_party/flatbuffers/include/flatbuffers\base.h **** 
  31:C:/Renesas/e2studio_2021_01_workspace_RZA2M_ANPR/ANPR_RZA2M_EBK/src/tensorflow_lite/third_party/flatbuffers/include/flatbuffers\base.h **** #include <cstddef>
  32:C:/Renesas/e2studio_2021_01_workspace_RZA2M_ANPR/ANPR_RZA2M_EBK/src/tensorflow_lite/third_party/flatbuffers/include/flatbuffers\base.h **** #include <cstdlib>
  33:C:/Renesas/e2studio_2021_01_workspace_RZA2M_ANPR/ANPR_RZA2M_EBK/src/tensorflow_lite/third_party/flatbuffers/include/flatbuffers\base.h **** #include <cstring>
  34:C:/Renesas/e2studio_2021_01_workspace_RZA2M_ANPR/ANPR_RZA2M_EBK/src/tensorflow_lite/third_party/flatbuffers/include/flatbuffers\base.h **** 
  35:C:/Renesas/e2studio_2021_01_workspace_RZA2M_ANPR/ANPR_RZA2M_EBK/src/tensorflow_lite/third_party/flatbuffers/include/flatbuffers\base.h **** #if defined(ARDUINO) && !defined(ARDUINOSTL_M_H)
  36:C:/Renesas/e2studio_2021_01_workspace_RZA2M_ANPR/ANPR_RZA2M_EBK/src/tensorflow_lite/third_party/flatbuffers/include/flatbuffers\base.h ****   #include <utility.h>
  37:C:/Renesas/e2studio_2021_01_workspace_RZA2M_ANPR/ANPR_RZA2M_EBK/src/tensorflow_lite/third_party/flatbuffers/include/flatbuffers\base.h **** #else
  38:C:/Renesas/e2studio_2021_01_workspace_RZA2M_ANPR/ANPR_RZA2M_EBK/src/tensorflow_lite/third_party/flatbuffers/include/flatbuffers\base.h ****   #include <utility>
  39:C:/Renesas/e2studio_2021_01_workspace_RZA2M_ANPR/ANPR_RZA2M_EBK/src/tensorflow_lite/third_party/flatbuffers/include/flatbuffers\base.h **** #endif
  40:C:/Renesas/e2studio_2021_01_workspace_RZA2M_ANPR/ANPR_RZA2M_EBK/src/tensorflow_lite/third_party/flatbuffers/include/flatbuffers\base.h **** 
  41:C:/Renesas/e2studio_2021_01_workspace_RZA2M_ANPR/ANPR_RZA2M_EBK/src/tensorflow_lite/third_party/flatbuffers/include/flatbuffers\base.h **** #include <string>
  42:C:/Renesas/e2studio_2021_01_workspace_RZA2M_ANPR/ANPR_RZA2M_EBK/src/tensorflow_lite/third_party/flatbuffers/include/flatbuffers\base.h **** #include <type_traits>
  43:C:/Renesas/e2studio_2021_01_workspace_RZA2M_ANPR/ANPR_RZA2M_EBK/src/tensorflow_lite/third_party/flatbuffers/include/flatbuffers\base.h **** #include <vector>
  44:C:/Renesas/e2studio_2021_01_workspace_RZA2M_ANPR/ANPR_RZA2M_EBK/src/tensorflow_lite/third_party/flatbuffers/include/flatbuffers\base.h **** #include <set>
  45:C:/Renesas/e2studio_2021_01_workspace_RZA2M_ANPR/ANPR_RZA2M_EBK/src/tensorflow_lite/third_party/flatbuffers/include/flatbuffers\base.h **** #include <algorithm>
  46:C:/Renesas/e2studio_2021_01_workspace_RZA2M_ANPR/ANPR_RZA2M_EBK/src/tensorflow_lite/third_party/flatbuffers/include/flatbuffers\base.h **** #include <iterator>
  47:C:/Renesas/e2studio_2021_01_workspace_RZA2M_ANPR/ANPR_RZA2M_EBK/src/tensorflow_lite/third_party/flatbuffers/include/flatbuffers\base.h **** #include <memory>
  48:C:/Renesas/e2studio_2021_01_workspace_RZA2M_ANPR/ANPR_RZA2M_EBK/src/tensorflow_lite/third_party/flatbuffers/include/flatbuffers\base.h **** 
  49:C:/Renesas/e2studio_2021_01_workspace_RZA2M_ANPR/ANPR_RZA2M_EBK/src/tensorflow_lite/third_party/flatbuffers/include/flatbuffers\base.h **** #if defined(__unix__) && !defined(FLATBUFFERS_LOCALE_INDEPENDENT)
  50:C:/Renesas/e2studio_2021_01_workspace_RZA2M_ANPR/ANPR_RZA2M_EBK/src/tensorflow_lite/third_party/flatbuffers/include/flatbuffers\base.h ****   #include <unistd.h>
  51:C:/Renesas/e2studio_2021_01_workspace_RZA2M_ANPR/ANPR_RZA2M_EBK/src/tensorflow_lite/third_party/flatbuffers/include/flatbuffers\base.h **** #endif
  52:C:/Renesas/e2studio_2021_01_workspace_RZA2M_ANPR/ANPR_RZA2M_EBK/src/tensorflow_lite/third_party/flatbuffers/include/flatbuffers\base.h **** 
  53:C:/Renesas/e2studio_2021_01_workspace_RZA2M_ANPR/ANPR_RZA2M_EBK/src/tensorflow_lite/third_party/flatbuffers/include/flatbuffers\base.h **** #ifdef _STLPORT_VERSION
  54:C:/Renesas/e2studio_2021_01_workspace_RZA2M_ANPR/ANPR_RZA2M_EBK/src/tensorflow_lite/third_party/flatbuffers/include/flatbuffers\base.h ****   #define FLATBUFFERS_CPP98_STL
  55:C:/Renesas/e2studio_2021_01_workspace_RZA2M_ANPR/ANPR_RZA2M_EBK/src/tensorflow_lite/third_party/flatbuffers/include/flatbuffers\base.h **** #endif
  56:C:/Renesas/e2studio_2021_01_workspace_RZA2M_ANPR/ANPR_RZA2M_EBK/src/tensorflow_lite/third_party/flatbuffers/include/flatbuffers\base.h **** 
  57:C:/Renesas/e2studio_2021_01_workspace_RZA2M_ANPR/ANPR_RZA2M_EBK/src/tensorflow_lite/third_party/flatbuffers/include/flatbuffers\base.h **** #ifdef __ANDROID__
  58:C:/Renesas/e2studio_2021_01_workspace_RZA2M_ANPR/ANPR_RZA2M_EBK/src/tensorflow_lite/third_party/flatbuffers/include/flatbuffers\base.h ****   #include <android/api-level.h>
  59:C:/Renesas/e2studio_2021_01_workspace_RZA2M_ANPR/ANPR_RZA2M_EBK/src/tensorflow_lite/third_party/flatbuffers/include/flatbuffers\base.h **** #endif
  60:C:/Renesas/e2studio_2021_01_workspace_RZA2M_ANPR/ANPR_RZA2M_EBK/src/tensorflow_lite/third_party/flatbuffers/include/flatbuffers\base.h **** 
  61:C:/Renesas/e2studio_2021_01_workspace_RZA2M_ANPR/ANPR_RZA2M_EBK/src/tensorflow_lite/third_party/flatbuffers/include/flatbuffers\base.h **** #if defined(__ICCARM__)
  62:C:/Renesas/e2studio_2021_01_workspace_RZA2M_ANPR/ANPR_RZA2M_EBK/src/tensorflow_lite/third_party/flatbuffers/include/flatbuffers\base.h **** #include <intrinsics.h>
  63:C:/Renesas/e2studio_2021_01_workspace_RZA2M_ANPR/ANPR_RZA2M_EBK/src/tensorflow_lite/third_party/flatbuffers/include/flatbuffers\base.h **** #endif
  64:C:/Renesas/e2studio_2021_01_workspace_RZA2M_ANPR/ANPR_RZA2M_EBK/src/tensorflow_lite/third_party/flatbuffers/include/flatbuffers\base.h **** 
  65:C:/Renesas/e2studio_2021_01_workspace_RZA2M_ANPR/ANPR_RZA2M_EBK/src/tensorflow_lite/third_party/flatbuffers/include/flatbuffers\base.h **** // Note the __clang__ check is needed, because clang presents itself
  66:C:/Renesas/e2studio_2021_01_workspace_RZA2M_ANPR/ANPR_RZA2M_EBK/src/tensorflow_lite/third_party/flatbuffers/include/flatbuffers\base.h **** // as an older GNUC compiler (4.2).
  67:C:/Renesas/e2studio_2021_01_workspace_RZA2M_ANPR/ANPR_RZA2M_EBK/src/tensorflow_lite/third_party/flatbuffers/include/flatbuffers\base.h **** // Clang 3.3 and later implement all of the ISO C++ 2011 standard.
  68:C:/Renesas/e2studio_2021_01_workspace_RZA2M_ANPR/ANPR_RZA2M_EBK/src/tensorflow_lite/third_party/flatbuffers/include/flatbuffers\base.h **** // Clang 3.4 and later implement all of the ISO C++ 2014 standard.
  69:C:/Renesas/e2studio_2021_01_workspace_RZA2M_ANPR/ANPR_RZA2M_EBK/src/tensorflow_lite/third_party/flatbuffers/include/flatbuffers\base.h **** // http://clang.llvm.org/cxx_status.html
  70:C:/Renesas/e2studio_2021_01_workspace_RZA2M_ANPR/ANPR_RZA2M_EBK/src/tensorflow_lite/third_party/flatbuffers/include/flatbuffers\base.h **** 
  71:C:/Renesas/e2studio_2021_01_workspace_RZA2M_ANPR/ANPR_RZA2M_EBK/src/tensorflow_lite/third_party/flatbuffers/include/flatbuffers\base.h **** // Note the MSVC value '__cplusplus' may be incorrect:
  72:C:/Renesas/e2studio_2021_01_workspace_RZA2M_ANPR/ANPR_RZA2M_EBK/src/tensorflow_lite/third_party/flatbuffers/include/flatbuffers\base.h **** // The '__cplusplus' predefined macro in the MSVC stuck at the value 199711L,
  73:C:/Renesas/e2studio_2021_01_workspace_RZA2M_ANPR/ANPR_RZA2M_EBK/src/tensorflow_lite/third_party/flatbuffers/include/flatbuffers\base.h **** // indicating (erroneously!) that the compiler conformed to the C++98 Standard.
  74:C:/Renesas/e2studio_2021_01_workspace_RZA2M_ANPR/ANPR_RZA2M_EBK/src/tensorflow_lite/third_party/flatbuffers/include/flatbuffers\base.h **** // This value should be correct starting from MSVC2017-15.7-Preview-3.
  75:C:/Renesas/e2studio_2021_01_workspace_RZA2M_ANPR/ANPR_RZA2M_EBK/src/tensorflow_lite/third_party/flatbuffers/include/flatbuffers\base.h **** // The '__cplusplus' will be valid only if MSVC2017-15.7-P3 and the `/Zc:__cplusplus` switch is set
  76:C:/Renesas/e2studio_2021_01_workspace_RZA2M_ANPR/ANPR_RZA2M_EBK/src/tensorflow_lite/third_party/flatbuffers/include/flatbuffers\base.h **** // Workaround (for details see MSDN):
  77:C:/Renesas/e2studio_2021_01_workspace_RZA2M_ANPR/ANPR_RZA2M_EBK/src/tensorflow_lite/third_party/flatbuffers/include/flatbuffers\base.h **** // Use the _MSC_VER and _MSVC_LANG definition instead of the __cplusplus  for compatibility.
  78:C:/Renesas/e2studio_2021_01_workspace_RZA2M_ANPR/ANPR_RZA2M_EBK/src/tensorflow_lite/third_party/flatbuffers/include/flatbuffers\base.h **** // The _MSVC_LANG macro reports the Standard version regardless of the '/Zc:__cplusplus' switch.
  79:C:/Renesas/e2studio_2021_01_workspace_RZA2M_ANPR/ANPR_RZA2M_EBK/src/tensorflow_lite/third_party/flatbuffers/include/flatbuffers\base.h **** 
  80:C:/Renesas/e2studio_2021_01_workspace_RZA2M_ANPR/ANPR_RZA2M_EBK/src/tensorflow_lite/third_party/flatbuffers/include/flatbuffers\base.h **** #if defined(__GNUC__) && !defined(__clang__)
  81:C:/Renesas/e2studio_2021_01_workspace_RZA2M_ANPR/ANPR_RZA2M_EBK/src/tensorflow_lite/third_party/flatbuffers/include/flatbuffers\base.h ****   #define FLATBUFFERS_GCC (__GNUC__ * 10000 + __GNUC_MINOR__ * 100 + __GNUC_PATCHLEVEL__)
  82:C:/Renesas/e2studio_2021_01_workspace_RZA2M_ANPR/ANPR_RZA2M_EBK/src/tensorflow_lite/third_party/flatbuffers/include/flatbuffers\base.h **** #else
  83:C:/Renesas/e2studio_2021_01_workspace_RZA2M_ANPR/ANPR_RZA2M_EBK/src/tensorflow_lite/third_party/flatbuffers/include/flatbuffers\base.h ****   #define FLATBUFFERS_GCC 0
  84:C:/Renesas/e2studio_2021_01_workspace_RZA2M_ANPR/ANPR_RZA2M_EBK/src/tensorflow_lite/third_party/flatbuffers/include/flatbuffers\base.h **** #endif
  85:C:/Renesas/e2studio_2021_01_workspace_RZA2M_ANPR/ANPR_RZA2M_EBK/src/tensorflow_lite/third_party/flatbuffers/include/flatbuffers\base.h **** 
  86:C:/Renesas/e2studio_2021_01_workspace_RZA2M_ANPR/ANPR_RZA2M_EBK/src/tensorflow_lite/third_party/flatbuffers/include/flatbuffers\base.h **** #if defined(__clang__)
  87:C:/Renesas/e2studio_2021_01_workspace_RZA2M_ANPR/ANPR_RZA2M_EBK/src/tensorflow_lite/third_party/flatbuffers/include/flatbuffers\base.h ****   #define FLATBUFFERS_CLANG (__clang_major__ * 10000 + __clang_minor__ * 100 + __clang_patchlevel__
  88:C:/Renesas/e2studio_2021_01_workspace_RZA2M_ANPR/ANPR_RZA2M_EBK/src/tensorflow_lite/third_party/flatbuffers/include/flatbuffers\base.h **** #else
  89:C:/Renesas/e2studio_2021_01_workspace_RZA2M_ANPR/ANPR_RZA2M_EBK/src/tensorflow_lite/third_party/flatbuffers/include/flatbuffers\base.h ****   #define FLATBUFFERS_CLANG 0
  90:C:/Renesas/e2studio_2021_01_workspace_RZA2M_ANPR/ANPR_RZA2M_EBK/src/tensorflow_lite/third_party/flatbuffers/include/flatbuffers\base.h **** #endif
  91:C:/Renesas/e2studio_2021_01_workspace_RZA2M_ANPR/ANPR_RZA2M_EBK/src/tensorflow_lite/third_party/flatbuffers/include/flatbuffers\base.h **** 
  92:C:/Renesas/e2studio_2021_01_workspace_RZA2M_ANPR/ANPR_RZA2M_EBK/src/tensorflow_lite/third_party/flatbuffers/include/flatbuffers\base.h **** /// @cond FLATBUFFERS_INTERNAL
  93:C:/Renesas/e2studio_2021_01_workspace_RZA2M_ANPR/ANPR_RZA2M_EBK/src/tensorflow_lite/third_party/flatbuffers/include/flatbuffers\base.h **** #if __cplusplus <= 199711L && \
  94:C:/Renesas/e2studio_2021_01_workspace_RZA2M_ANPR/ANPR_RZA2M_EBK/src/tensorflow_lite/third_party/flatbuffers/include/flatbuffers\base.h ****     (!defined(_MSC_VER) || _MSC_VER < 1600) && \
  95:C:/Renesas/e2studio_2021_01_workspace_RZA2M_ANPR/ANPR_RZA2M_EBK/src/tensorflow_lite/third_party/flatbuffers/include/flatbuffers\base.h ****     (!defined(__GNUC__) || \
  96:C:/Renesas/e2studio_2021_01_workspace_RZA2M_ANPR/ANPR_RZA2M_EBK/src/tensorflow_lite/third_party/flatbuffers/include/flatbuffers\base.h ****       (__GNUC__ * 10000 + __GNUC_MINOR__ * 100 + __GNUC_PATCHLEVEL__ < 40400))
  97:C:/Renesas/e2studio_2021_01_workspace_RZA2M_ANPR/ANPR_RZA2M_EBK/src/tensorflow_lite/third_party/flatbuffers/include/flatbuffers\base.h ****   #error A C++11 compatible compiler with support for the auto typing is \
  98:C:/Renesas/e2studio_2021_01_workspace_RZA2M_ANPR/ANPR_RZA2M_EBK/src/tensorflow_lite/third_party/flatbuffers/include/flatbuffers\base.h ****          required for FlatBuffers.
  99:C:/Renesas/e2studio_2021_01_workspace_RZA2M_ANPR/ANPR_RZA2M_EBK/src/tensorflow_lite/third_party/flatbuffers/include/flatbuffers\base.h ****   #error __cplusplus _MSC_VER __GNUC__  __GNUC_MINOR__  __GNUC_PATCHLEVEL__
 100:C:/Renesas/e2studio_2021_01_workspace_RZA2M_ANPR/ANPR_RZA2M_EBK/src/tensorflow_lite/third_party/flatbuffers/include/flatbuffers\base.h **** #endif
 101:C:/Renesas/e2studio_2021_01_workspace_RZA2M_ANPR/ANPR_RZA2M_EBK/src/tensorflow_lite/third_party/flatbuffers/include/flatbuffers\base.h **** 
 102:C:/Renesas/e2studio_2021_01_workspace_RZA2M_ANPR/ANPR_RZA2M_EBK/src/tensorflow_lite/third_party/flatbuffers/include/flatbuffers\base.h **** #if !defined(__clang__) && \
 103:C:/Renesas/e2studio_2021_01_workspace_RZA2M_ANPR/ANPR_RZA2M_EBK/src/tensorflow_lite/third_party/flatbuffers/include/flatbuffers\base.h ****     defined(__GNUC__) && \
 104:C:/Renesas/e2studio_2021_01_workspace_RZA2M_ANPR/ANPR_RZA2M_EBK/src/tensorflow_lite/third_party/flatbuffers/include/flatbuffers\base.h ****     (__GNUC__ * 10000 + __GNUC_MINOR__ * 100 + __GNUC_PATCHLEVEL__ < 40600)
 105:C:/Renesas/e2studio_2021_01_workspace_RZA2M_ANPR/ANPR_RZA2M_EBK/src/tensorflow_lite/third_party/flatbuffers/include/flatbuffers\base.h ****   // Backwards compatibility for g++ 4.4, and 4.5 which don't have the nullptr
 106:C:/Renesas/e2studio_2021_01_workspace_RZA2M_ANPR/ANPR_RZA2M_EBK/src/tensorflow_lite/third_party/flatbuffers/include/flatbuffers\base.h ****   // and constexpr keywords. Note the __clang__ check is needed, because clang
 107:C:/Renesas/e2studio_2021_01_workspace_RZA2M_ANPR/ANPR_RZA2M_EBK/src/tensorflow_lite/third_party/flatbuffers/include/flatbuffers\base.h ****   // presents itself as an older GNUC compiler.
 108:C:/Renesas/e2studio_2021_01_workspace_RZA2M_ANPR/ANPR_RZA2M_EBK/src/tensorflow_lite/third_party/flatbuffers/include/flatbuffers\base.h ****   #ifndef nullptr_t
 109:C:/Renesas/e2studio_2021_01_workspace_RZA2M_ANPR/ANPR_RZA2M_EBK/src/tensorflow_lite/third_party/flatbuffers/include/flatbuffers\base.h ****     const class nullptr_t {
 110:C:/Renesas/e2studio_2021_01_workspace_RZA2M_ANPR/ANPR_RZA2M_EBK/src/tensorflow_lite/third_party/flatbuffers/include/flatbuffers\base.h ****     public:
 111:C:/Renesas/e2studio_2021_01_workspace_RZA2M_ANPR/ANPR_RZA2M_EBK/src/tensorflow_lite/third_party/flatbuffers/include/flatbuffers\base.h ****       template<class T> inline operator T*() const { return 0; }
 112:C:/Renesas/e2studio_2021_01_workspace_RZA2M_ANPR/ANPR_RZA2M_EBK/src/tensorflow_lite/third_party/flatbuffers/include/flatbuffers\base.h ****     private:
 113:C:/Renesas/e2studio_2021_01_workspace_RZA2M_ANPR/ANPR_RZA2M_EBK/src/tensorflow_lite/third_party/flatbuffers/include/flatbuffers\base.h ****       void operator&() const;
 114:C:/Renesas/e2studio_2021_01_workspace_RZA2M_ANPR/ANPR_RZA2M_EBK/src/tensorflow_lite/third_party/flatbuffers/include/flatbuffers\base.h ****     } nullptr = {};
 115:C:/Renesas/e2studio_2021_01_workspace_RZA2M_ANPR/ANPR_RZA2M_EBK/src/tensorflow_lite/third_party/flatbuffers/include/flatbuffers\base.h ****   #endif
 116:C:/Renesas/e2studio_2021_01_workspace_RZA2M_ANPR/ANPR_RZA2M_EBK/src/tensorflow_lite/third_party/flatbuffers/include/flatbuffers\base.h ****   #ifndef constexpr
 117:C:/Renesas/e2studio_2021_01_workspace_RZA2M_ANPR/ANPR_RZA2M_EBK/src/tensorflow_lite/third_party/flatbuffers/include/flatbuffers\base.h ****     #define constexpr const
 118:C:/Renesas/e2studio_2021_01_workspace_RZA2M_ANPR/ANPR_RZA2M_EBK/src/tensorflow_lite/third_party/flatbuffers/include/flatbuffers\base.h ****   #endif
 119:C:/Renesas/e2studio_2021_01_workspace_RZA2M_ANPR/ANPR_RZA2M_EBK/src/tensorflow_lite/third_party/flatbuffers/include/flatbuffers\base.h **** #endif
 120:C:/Renesas/e2studio_2021_01_workspace_RZA2M_ANPR/ANPR_RZA2M_EBK/src/tensorflow_lite/third_party/flatbuffers/include/flatbuffers\base.h **** 
 121:C:/Renesas/e2studio_2021_01_workspace_RZA2M_ANPR/ANPR_RZA2M_EBK/src/tensorflow_lite/third_party/flatbuffers/include/flatbuffers\base.h **** // The wire format uses a little endian encoding (since that's efficient for
 122:C:/Renesas/e2studio_2021_01_workspace_RZA2M_ANPR/ANPR_RZA2M_EBK/src/tensorflow_lite/third_party/flatbuffers/include/flatbuffers\base.h **** // the common platforms).
 123:C:/Renesas/e2studio_2021_01_workspace_RZA2M_ANPR/ANPR_RZA2M_EBK/src/tensorflow_lite/third_party/flatbuffers/include/flatbuffers\base.h **** #if defined(__s390x__)
 124:C:/Renesas/e2studio_2021_01_workspace_RZA2M_ANPR/ANPR_RZA2M_EBK/src/tensorflow_lite/third_party/flatbuffers/include/flatbuffers\base.h ****   #define FLATBUFFERS_LITTLEENDIAN 0
 125:C:/Renesas/e2studio_2021_01_workspace_RZA2M_ANPR/ANPR_RZA2M_EBK/src/tensorflow_lite/third_party/flatbuffers/include/flatbuffers\base.h **** #endif // __s390x__
 126:C:/Renesas/e2studio_2021_01_workspace_RZA2M_ANPR/ANPR_RZA2M_EBK/src/tensorflow_lite/third_party/flatbuffers/include/flatbuffers\base.h **** #if !defined(FLATBUFFERS_LITTLEENDIAN)
 127:C:/Renesas/e2studio_2021_01_workspace_RZA2M_ANPR/ANPR_RZA2M_EBK/src/tensorflow_lite/third_party/flatbuffers/include/flatbuffers\base.h ****   #if defined(__GNUC__) || defined(__clang__) || defined(__ICCARM__)
 128:C:/Renesas/e2studio_2021_01_workspace_RZA2M_ANPR/ANPR_RZA2M_EBK/src/tensorflow_lite/third_party/flatbuffers/include/flatbuffers\base.h ****     #if (defined(__BIG_ENDIAN__) || \
 129:C:/Renesas/e2studio_2021_01_workspace_RZA2M_ANPR/ANPR_RZA2M_EBK/src/tensorflow_lite/third_party/flatbuffers/include/flatbuffers\base.h ****          (defined(__BYTE_ORDER__) && __BYTE_ORDER__ == __ORDER_BIG_ENDIAN__))
 130:C:/Renesas/e2studio_2021_01_workspace_RZA2M_ANPR/ANPR_RZA2M_EBK/src/tensorflow_lite/third_party/flatbuffers/include/flatbuffers\base.h ****       #define FLATBUFFERS_LITTLEENDIAN 0
 131:C:/Renesas/e2studio_2021_01_workspace_RZA2M_ANPR/ANPR_RZA2M_EBK/src/tensorflow_lite/third_party/flatbuffers/include/flatbuffers\base.h ****     #else
 132:C:/Renesas/e2studio_2021_01_workspace_RZA2M_ANPR/ANPR_RZA2M_EBK/src/tensorflow_lite/third_party/flatbuffers/include/flatbuffers\base.h ****       #define FLATBUFFERS_LITTLEENDIAN 1
 133:C:/Renesas/e2studio_2021_01_workspace_RZA2M_ANPR/ANPR_RZA2M_EBK/src/tensorflow_lite/third_party/flatbuffers/include/flatbuffers\base.h ****     #endif // __BIG_ENDIAN__
 134:C:/Renesas/e2studio_2021_01_workspace_RZA2M_ANPR/ANPR_RZA2M_EBK/src/tensorflow_lite/third_party/flatbuffers/include/flatbuffers\base.h ****   #elif defined(_MSC_VER)
 135:C:/Renesas/e2studio_2021_01_workspace_RZA2M_ANPR/ANPR_RZA2M_EBK/src/tensorflow_lite/third_party/flatbuffers/include/flatbuffers\base.h ****     #if defined(_M_PPC)
 136:C:/Renesas/e2studio_2021_01_workspace_RZA2M_ANPR/ANPR_RZA2M_EBK/src/tensorflow_lite/third_party/flatbuffers/include/flatbuffers\base.h ****       #define FLATBUFFERS_LITTLEENDIAN 0
 137:C:/Renesas/e2studio_2021_01_workspace_RZA2M_ANPR/ANPR_RZA2M_EBK/src/tensorflow_lite/third_party/flatbuffers/include/flatbuffers\base.h ****     #else
 138:C:/Renesas/e2studio_2021_01_workspace_RZA2M_ANPR/ANPR_RZA2M_EBK/src/tensorflow_lite/third_party/flatbuffers/include/flatbuffers\base.h ****       #define FLATBUFFERS_LITTLEENDIAN 1
 139:C:/Renesas/e2studio_2021_01_workspace_RZA2M_ANPR/ANPR_RZA2M_EBK/src/tensorflow_lite/third_party/flatbuffers/include/flatbuffers\base.h ****     #endif
 140:C:/Renesas/e2studio_2021_01_workspace_RZA2M_ANPR/ANPR_RZA2M_EBK/src/tensorflow_lite/third_party/flatbuffers/include/flatbuffers\base.h ****   #else
 141:C:/Renesas/e2studio_2021_01_workspace_RZA2M_ANPR/ANPR_RZA2M_EBK/src/tensorflow_lite/third_party/flatbuffers/include/flatbuffers\base.h ****     #error Unable to determine endianness, define FLATBUFFERS_LITTLEENDIAN.
 142:C:/Renesas/e2studio_2021_01_workspace_RZA2M_ANPR/ANPR_RZA2M_EBK/src/tensorflow_lite/third_party/flatbuffers/include/flatbuffers\base.h ****   #endif
 143:C:/Renesas/e2studio_2021_01_workspace_RZA2M_ANPR/ANPR_RZA2M_EBK/src/tensorflow_lite/third_party/flatbuffers/include/flatbuffers\base.h **** #endif // !defined(FLATBUFFERS_LITTLEENDIAN)
 144:C:/Renesas/e2studio_2021_01_workspace_RZA2M_ANPR/ANPR_RZA2M_EBK/src/tensorflow_lite/third_party/flatbuffers/include/flatbuffers\base.h **** 
 145:C:/Renesas/e2studio_2021_01_workspace_RZA2M_ANPR/ANPR_RZA2M_EBK/src/tensorflow_lite/third_party/flatbuffers/include/flatbuffers\base.h **** #define FLATBUFFERS_VERSION_MAJOR 1
 146:C:/Renesas/e2studio_2021_01_workspace_RZA2M_ANPR/ANPR_RZA2M_EBK/src/tensorflow_lite/third_party/flatbuffers/include/flatbuffers\base.h **** #define FLATBUFFERS_VERSION_MINOR 12
 147:C:/Renesas/e2studio_2021_01_workspace_RZA2M_ANPR/ANPR_RZA2M_EBK/src/tensorflow_lite/third_party/flatbuffers/include/flatbuffers\base.h **** #define FLATBUFFERS_VERSION_REVISION 0
 148:C:/Renesas/e2studio_2021_01_workspace_RZA2M_ANPR/ANPR_RZA2M_EBK/src/tensorflow_lite/third_party/flatbuffers/include/flatbuffers\base.h **** #define FLATBUFFERS_STRING_EXPAND(X) #X
 149:C:/Renesas/e2studio_2021_01_workspace_RZA2M_ANPR/ANPR_RZA2M_EBK/src/tensorflow_lite/third_party/flatbuffers/include/flatbuffers\base.h **** #define FLATBUFFERS_STRING(X) FLATBUFFERS_STRING_EXPAND(X)
 150:C:/Renesas/e2studio_2021_01_workspace_RZA2M_ANPR/ANPR_RZA2M_EBK/src/tensorflow_lite/third_party/flatbuffers/include/flatbuffers\base.h **** namespace flatbuffers {
 151:C:/Renesas/e2studio_2021_01_workspace_RZA2M_ANPR/ANPR_RZA2M_EBK/src/tensorflow_lite/third_party/flatbuffers/include/flatbuffers\base.h ****   // Returns version as string  "MAJOR.MINOR.REVISION".
 152:C:/Renesas/e2studio_2021_01_workspace_RZA2M_ANPR/ANPR_RZA2M_EBK/src/tensorflow_lite/third_party/flatbuffers/include/flatbuffers\base.h ****   const char* FLATBUFFERS_VERSION();
 153:C:/Renesas/e2studio_2021_01_workspace_RZA2M_ANPR/ANPR_RZA2M_EBK/src/tensorflow_lite/third_party/flatbuffers/include/flatbuffers\base.h **** }
 154:C:/Renesas/e2studio_2021_01_workspace_RZA2M_ANPR/ANPR_RZA2M_EBK/src/tensorflow_lite/third_party/flatbuffers/include/flatbuffers\base.h **** 
 155:C:/Renesas/e2studio_2021_01_workspace_RZA2M_ANPR/ANPR_RZA2M_EBK/src/tensorflow_lite/third_party/flatbuffers/include/flatbuffers\base.h **** #if (!defined(_MSC_VER) || _MSC_VER > 1600) && \
 156:C:/Renesas/e2studio_2021_01_workspace_RZA2M_ANPR/ANPR_RZA2M_EBK/src/tensorflow_lite/third_party/flatbuffers/include/flatbuffers\base.h ****     (!defined(__GNUC__) || (__GNUC__ * 100 + __GNUC_MINOR__ >= 407)) || \
 157:C:/Renesas/e2studio_2021_01_workspace_RZA2M_ANPR/ANPR_RZA2M_EBK/src/tensorflow_lite/third_party/flatbuffers/include/flatbuffers\base.h ****     defined(__clang__)
 158:C:/Renesas/e2studio_2021_01_workspace_RZA2M_ANPR/ANPR_RZA2M_EBK/src/tensorflow_lite/third_party/flatbuffers/include/flatbuffers\base.h ****   #define FLATBUFFERS_FINAL_CLASS final
 159:C:/Renesas/e2studio_2021_01_workspace_RZA2M_ANPR/ANPR_RZA2M_EBK/src/tensorflow_lite/third_party/flatbuffers/include/flatbuffers\base.h ****   #define FLATBUFFERS_OVERRIDE override
 160:C:/Renesas/e2studio_2021_01_workspace_RZA2M_ANPR/ANPR_RZA2M_EBK/src/tensorflow_lite/third_party/flatbuffers/include/flatbuffers\base.h ****   #define FLATBUFFERS_EXPLICIT_CPP11 explicit
 161:C:/Renesas/e2studio_2021_01_workspace_RZA2M_ANPR/ANPR_RZA2M_EBK/src/tensorflow_lite/third_party/flatbuffers/include/flatbuffers\base.h ****   #define FLATBUFFERS_VTABLE_UNDERLYING_TYPE : flatbuffers::voffset_t
 162:C:/Renesas/e2studio_2021_01_workspace_RZA2M_ANPR/ANPR_RZA2M_EBK/src/tensorflow_lite/third_party/flatbuffers/include/flatbuffers\base.h **** #else
 163:C:/Renesas/e2studio_2021_01_workspace_RZA2M_ANPR/ANPR_RZA2M_EBK/src/tensorflow_lite/third_party/flatbuffers/include/flatbuffers\base.h ****   #define FLATBUFFERS_FINAL_CLASS
 164:C:/Renesas/e2studio_2021_01_workspace_RZA2M_ANPR/ANPR_RZA2M_EBK/src/tensorflow_lite/third_party/flatbuffers/include/flatbuffers\base.h ****   #define FLATBUFFERS_OVERRIDE
 165:C:/Renesas/e2studio_2021_01_workspace_RZA2M_ANPR/ANPR_RZA2M_EBK/src/tensorflow_lite/third_party/flatbuffers/include/flatbuffers\base.h ****   #define FLATBUFFERS_EXPLICIT_CPP11
 166:C:/Renesas/e2studio_2021_01_workspace_RZA2M_ANPR/ANPR_RZA2M_EBK/src/tensorflow_lite/third_party/flatbuffers/include/flatbuffers\base.h ****   #define FLATBUFFERS_VTABLE_UNDERLYING_TYPE
 167:C:/Renesas/e2studio_2021_01_workspace_RZA2M_ANPR/ANPR_RZA2M_EBK/src/tensorflow_lite/third_party/flatbuffers/include/flatbuffers\base.h **** #endif
 168:C:/Renesas/e2studio_2021_01_workspace_RZA2M_ANPR/ANPR_RZA2M_EBK/src/tensorflow_lite/third_party/flatbuffers/include/flatbuffers\base.h **** 
 169:C:/Renesas/e2studio_2021_01_workspace_RZA2M_ANPR/ANPR_RZA2M_EBK/src/tensorflow_lite/third_party/flatbuffers/include/flatbuffers\base.h **** #if (!defined(_MSC_VER) || _MSC_VER >= 1900) && \
 170:C:/Renesas/e2studio_2021_01_workspace_RZA2M_ANPR/ANPR_RZA2M_EBK/src/tensorflow_lite/third_party/flatbuffers/include/flatbuffers\base.h ****     (!defined(__GNUC__) || (__GNUC__ * 100 + __GNUC_MINOR__ >= 406)) || \
 171:C:/Renesas/e2studio_2021_01_workspace_RZA2M_ANPR/ANPR_RZA2M_EBK/src/tensorflow_lite/third_party/flatbuffers/include/flatbuffers\base.h ****     (defined(__cpp_constexpr) && __cpp_constexpr >= 200704)
 172:C:/Renesas/e2studio_2021_01_workspace_RZA2M_ANPR/ANPR_RZA2M_EBK/src/tensorflow_lite/third_party/flatbuffers/include/flatbuffers\base.h ****   #define FLATBUFFERS_CONSTEXPR constexpr
 173:C:/Renesas/e2studio_2021_01_workspace_RZA2M_ANPR/ANPR_RZA2M_EBK/src/tensorflow_lite/third_party/flatbuffers/include/flatbuffers\base.h ****   #define FLATBUFFERS_CONSTEXPR_CPP11 constexpr
 174:C:/Renesas/e2studio_2021_01_workspace_RZA2M_ANPR/ANPR_RZA2M_EBK/src/tensorflow_lite/third_party/flatbuffers/include/flatbuffers\base.h ****   #define FLATBUFFERS_CONSTEXPR_DEFINED
 175:C:/Renesas/e2studio_2021_01_workspace_RZA2M_ANPR/ANPR_RZA2M_EBK/src/tensorflow_lite/third_party/flatbuffers/include/flatbuffers\base.h **** #else
 176:C:/Renesas/e2studio_2021_01_workspace_RZA2M_ANPR/ANPR_RZA2M_EBK/src/tensorflow_lite/third_party/flatbuffers/include/flatbuffers\base.h ****   #define FLATBUFFERS_CONSTEXPR const
 177:C:/Renesas/e2studio_2021_01_workspace_RZA2M_ANPR/ANPR_RZA2M_EBK/src/tensorflow_lite/third_party/flatbuffers/include/flatbuffers\base.h ****   #define FLATBUFFERS_CONSTEXPR_CPP11
 178:C:/Renesas/e2studio_2021_01_workspace_RZA2M_ANPR/ANPR_RZA2M_EBK/src/tensorflow_lite/third_party/flatbuffers/include/flatbuffers\base.h **** #endif
 179:C:/Renesas/e2studio_2021_01_workspace_RZA2M_ANPR/ANPR_RZA2M_EBK/src/tensorflow_lite/third_party/flatbuffers/include/flatbuffers\base.h **** 
 180:C:/Renesas/e2studio_2021_01_workspace_RZA2M_ANPR/ANPR_RZA2M_EBK/src/tensorflow_lite/third_party/flatbuffers/include/flatbuffers\base.h **** // This macro is never used in code!
 181:C:/Renesas/e2studio_2021_01_workspace_RZA2M_ANPR/ANPR_RZA2M_EBK/src/tensorflow_lite/third_party/flatbuffers/include/flatbuffers\base.h **** #if (defined(__cplusplus) && __cplusplus >= 201402L) || \
 182:C:/Renesas/e2studio_2021_01_workspace_RZA2M_ANPR/ANPR_RZA2M_EBK/src/tensorflow_lite/third_party/flatbuffers/include/flatbuffers\base.h ****     (defined(__cpp_constexpr) && __cpp_constexpr >= 201304)
 183:C:/Renesas/e2studio_2021_01_workspace_RZA2M_ANPR/ANPR_RZA2M_EBK/src/tensorflow_lite/third_party/flatbuffers/include/flatbuffers\base.h ****   #define FLATBUFFERS_CONSTEXPR_CPP14 FLATBUFFERS_CONSTEXPR
 184:C:/Renesas/e2studio_2021_01_workspace_RZA2M_ANPR/ANPR_RZA2M_EBK/src/tensorflow_lite/third_party/flatbuffers/include/flatbuffers\base.h **** #else
 185:C:/Renesas/e2studio_2021_01_workspace_RZA2M_ANPR/ANPR_RZA2M_EBK/src/tensorflow_lite/third_party/flatbuffers/include/flatbuffers\base.h ****   #define FLATBUFFERS_CONSTEXPR_CPP14
 186:C:/Renesas/e2studio_2021_01_workspace_RZA2M_ANPR/ANPR_RZA2M_EBK/src/tensorflow_lite/third_party/flatbuffers/include/flatbuffers\base.h **** #endif
 187:C:/Renesas/e2studio_2021_01_workspace_RZA2M_ANPR/ANPR_RZA2M_EBK/src/tensorflow_lite/third_party/flatbuffers/include/flatbuffers\base.h **** 
 188:C:/Renesas/e2studio_2021_01_workspace_RZA2M_ANPR/ANPR_RZA2M_EBK/src/tensorflow_lite/third_party/flatbuffers/include/flatbuffers\base.h **** #if (defined(__GXX_EXPERIMENTAL_CXX0X__) && (__GNUC__ * 100 + __GNUC_MINOR__ >= 406)) || \
 189:C:/Renesas/e2studio_2021_01_workspace_RZA2M_ANPR/ANPR_RZA2M_EBK/src/tensorflow_lite/third_party/flatbuffers/include/flatbuffers\base.h ****     (defined(_MSC_FULL_VER) && (_MSC_FULL_VER >= 190023026)) || \
 190:C:/Renesas/e2studio_2021_01_workspace_RZA2M_ANPR/ANPR_RZA2M_EBK/src/tensorflow_lite/third_party/flatbuffers/include/flatbuffers\base.h ****     defined(__clang__)
 191:C:/Renesas/e2studio_2021_01_workspace_RZA2M_ANPR/ANPR_RZA2M_EBK/src/tensorflow_lite/third_party/flatbuffers/include/flatbuffers\base.h ****   #define FLATBUFFERS_NOEXCEPT noexcept
 192:C:/Renesas/e2studio_2021_01_workspace_RZA2M_ANPR/ANPR_RZA2M_EBK/src/tensorflow_lite/third_party/flatbuffers/include/flatbuffers\base.h **** #else
 193:C:/Renesas/e2studio_2021_01_workspace_RZA2M_ANPR/ANPR_RZA2M_EBK/src/tensorflow_lite/third_party/flatbuffers/include/flatbuffers\base.h ****   #define FLATBUFFERS_NOEXCEPT
 194:C:/Renesas/e2studio_2021_01_workspace_RZA2M_ANPR/ANPR_RZA2M_EBK/src/tensorflow_lite/third_party/flatbuffers/include/flatbuffers\base.h **** #endif
 195:C:/Renesas/e2studio_2021_01_workspace_RZA2M_ANPR/ANPR_RZA2M_EBK/src/tensorflow_lite/third_party/flatbuffers/include/flatbuffers\base.h **** 
 196:C:/Renesas/e2studio_2021_01_workspace_RZA2M_ANPR/ANPR_RZA2M_EBK/src/tensorflow_lite/third_party/flatbuffers/include/flatbuffers\base.h **** // NOTE: the FLATBUFFERS_DELETE_FUNC macro may change the access mode to
 197:C:/Renesas/e2studio_2021_01_workspace_RZA2M_ANPR/ANPR_RZA2M_EBK/src/tensorflow_lite/third_party/flatbuffers/include/flatbuffers\base.h **** // private, so be sure to put it at the end or reset access mode explicitly.
 198:C:/Renesas/e2studio_2021_01_workspace_RZA2M_ANPR/ANPR_RZA2M_EBK/src/tensorflow_lite/third_party/flatbuffers/include/flatbuffers\base.h **** #if (!defined(_MSC_VER) || _MSC_FULL_VER >= 180020827) && \
 199:C:/Renesas/e2studio_2021_01_workspace_RZA2M_ANPR/ANPR_RZA2M_EBK/src/tensorflow_lite/third_party/flatbuffers/include/flatbuffers\base.h ****     (!defined(__GNUC__) || (__GNUC__ * 100 + __GNUC_MINOR__ >= 404)) || \
 200:C:/Renesas/e2studio_2021_01_workspace_RZA2M_ANPR/ANPR_RZA2M_EBK/src/tensorflow_lite/third_party/flatbuffers/include/flatbuffers\base.h ****     defined(__clang__)
 201:C:/Renesas/e2studio_2021_01_workspace_RZA2M_ANPR/ANPR_RZA2M_EBK/src/tensorflow_lite/third_party/flatbuffers/include/flatbuffers\base.h ****   #define FLATBUFFERS_DELETE_FUNC(func) func = delete;
 202:C:/Renesas/e2studio_2021_01_workspace_RZA2M_ANPR/ANPR_RZA2M_EBK/src/tensorflow_lite/third_party/flatbuffers/include/flatbuffers\base.h **** #else
 203:C:/Renesas/e2studio_2021_01_workspace_RZA2M_ANPR/ANPR_RZA2M_EBK/src/tensorflow_lite/third_party/flatbuffers/include/flatbuffers\base.h ****   #define FLATBUFFERS_DELETE_FUNC(func) private: func;
 204:C:/Renesas/e2studio_2021_01_workspace_RZA2M_ANPR/ANPR_RZA2M_EBK/src/tensorflow_lite/third_party/flatbuffers/include/flatbuffers\base.h **** #endif
 205:C:/Renesas/e2studio_2021_01_workspace_RZA2M_ANPR/ANPR_RZA2M_EBK/src/tensorflow_lite/third_party/flatbuffers/include/flatbuffers\base.h **** 
 206:C:/Renesas/e2studio_2021_01_workspace_RZA2M_ANPR/ANPR_RZA2M_EBK/src/tensorflow_lite/third_party/flatbuffers/include/flatbuffers\base.h **** // Check if we can use template aliases
 207:C:/Renesas/e2studio_2021_01_workspace_RZA2M_ANPR/ANPR_RZA2M_EBK/src/tensorflow_lite/third_party/flatbuffers/include/flatbuffers\base.h **** // Not possible if Microsoft Compiler before 2012
 208:C:/Renesas/e2studio_2021_01_workspace_RZA2M_ANPR/ANPR_RZA2M_EBK/src/tensorflow_lite/third_party/flatbuffers/include/flatbuffers\base.h **** // Possible is the language feature __cpp_alias_templates is defined well
 209:C:/Renesas/e2studio_2021_01_workspace_RZA2M_ANPR/ANPR_RZA2M_EBK/src/tensorflow_lite/third_party/flatbuffers/include/flatbuffers\base.h **** // Or possible if the C++ std is C+11 or newer
 210:C:/Renesas/e2studio_2021_01_workspace_RZA2M_ANPR/ANPR_RZA2M_EBK/src/tensorflow_lite/third_party/flatbuffers/include/flatbuffers\base.h **** #if (defined(_MSC_VER) && _MSC_VER > 1700 /* MSVC2012 */) \
 211:C:/Renesas/e2studio_2021_01_workspace_RZA2M_ANPR/ANPR_RZA2M_EBK/src/tensorflow_lite/third_party/flatbuffers/include/flatbuffers\base.h ****     || (defined(__cpp_alias_templates) && __cpp_alias_templates >= 200704) \
 212:C:/Renesas/e2studio_2021_01_workspace_RZA2M_ANPR/ANPR_RZA2M_EBK/src/tensorflow_lite/third_party/flatbuffers/include/flatbuffers\base.h ****     || (defined(__cplusplus) && __cplusplus >= 201103L)
 213:C:/Renesas/e2studio_2021_01_workspace_RZA2M_ANPR/ANPR_RZA2M_EBK/src/tensorflow_lite/third_party/flatbuffers/include/flatbuffers\base.h ****   #define FLATBUFFERS_TEMPLATES_ALIASES
 214:C:/Renesas/e2studio_2021_01_workspace_RZA2M_ANPR/ANPR_RZA2M_EBK/src/tensorflow_lite/third_party/flatbuffers/include/flatbuffers\base.h **** #endif
 215:C:/Renesas/e2studio_2021_01_workspace_RZA2M_ANPR/ANPR_RZA2M_EBK/src/tensorflow_lite/third_party/flatbuffers/include/flatbuffers\base.h **** 
 216:C:/Renesas/e2studio_2021_01_workspace_RZA2M_ANPR/ANPR_RZA2M_EBK/src/tensorflow_lite/third_party/flatbuffers/include/flatbuffers\base.h **** #ifndef FLATBUFFERS_HAS_STRING_VIEW
 217:C:/Renesas/e2studio_2021_01_workspace_RZA2M_ANPR/ANPR_RZA2M_EBK/src/tensorflow_lite/third_party/flatbuffers/include/flatbuffers\base.h ****   // Only provide flatbuffers::string_view if __has_include can be used
 218:C:/Renesas/e2studio_2021_01_workspace_RZA2M_ANPR/ANPR_RZA2M_EBK/src/tensorflow_lite/third_party/flatbuffers/include/flatbuffers\base.h ****   // to detect a header that provides an implementation
 219:C:/Renesas/e2studio_2021_01_workspace_RZA2M_ANPR/ANPR_RZA2M_EBK/src/tensorflow_lite/third_party/flatbuffers/include/flatbuffers\base.h ****   #if defined(__has_include)
 220:C:/Renesas/e2studio_2021_01_workspace_RZA2M_ANPR/ANPR_RZA2M_EBK/src/tensorflow_lite/third_party/flatbuffers/include/flatbuffers\base.h ****     // Check for std::string_view (in c++17)
 221:C:/Renesas/e2studio_2021_01_workspace_RZA2M_ANPR/ANPR_RZA2M_EBK/src/tensorflow_lite/third_party/flatbuffers/include/flatbuffers\base.h ****     #if __has_include(<string_view>) && (__cplusplus >= 201606 || (defined(_HAS_CXX17) && _HAS_CXX1
 222:C:/Renesas/e2studio_2021_01_workspace_RZA2M_ANPR/ANPR_RZA2M_EBK/src/tensorflow_lite/third_party/flatbuffers/include/flatbuffers\base.h ****       #include <string_view>
 223:C:/Renesas/e2studio_2021_01_workspace_RZA2M_ANPR/ANPR_RZA2M_EBK/src/tensorflow_lite/third_party/flatbuffers/include/flatbuffers\base.h ****       namespace flatbuffers {
 224:C:/Renesas/e2studio_2021_01_workspace_RZA2M_ANPR/ANPR_RZA2M_EBK/src/tensorflow_lite/third_party/flatbuffers/include/flatbuffers\base.h ****         typedef std::string_view string_view;
 225:C:/Renesas/e2studio_2021_01_workspace_RZA2M_ANPR/ANPR_RZA2M_EBK/src/tensorflow_lite/third_party/flatbuffers/include/flatbuffers\base.h ****       }
 226:C:/Renesas/e2studio_2021_01_workspace_RZA2M_ANPR/ANPR_RZA2M_EBK/src/tensorflow_lite/third_party/flatbuffers/include/flatbuffers\base.h ****       #define FLATBUFFERS_HAS_STRING_VIEW 1
 227:C:/Renesas/e2studio_2021_01_workspace_RZA2M_ANPR/ANPR_RZA2M_EBK/src/tensorflow_lite/third_party/flatbuffers/include/flatbuffers\base.h ****     // Check for std::experimental::string_view (in c++14, compiler-dependent)
 228:C:/Renesas/e2studio_2021_01_workspace_RZA2M_ANPR/ANPR_RZA2M_EBK/src/tensorflow_lite/third_party/flatbuffers/include/flatbuffers\base.h ****     #elif __has_include(<experimental/string_view>) && (__cplusplus >= 201411)
 229:C:/Renesas/e2studio_2021_01_workspace_RZA2M_ANPR/ANPR_RZA2M_EBK/src/tensorflow_lite/third_party/flatbuffers/include/flatbuffers\base.h ****       #include <experimental/string_view>
 230:C:/Renesas/e2studio_2021_01_workspace_RZA2M_ANPR/ANPR_RZA2M_EBK/src/tensorflow_lite/third_party/flatbuffers/include/flatbuffers\base.h ****       namespace flatbuffers {
 231:C:/Renesas/e2studio_2021_01_workspace_RZA2M_ANPR/ANPR_RZA2M_EBK/src/tensorflow_lite/third_party/flatbuffers/include/flatbuffers\base.h ****         typedef std::experimental::string_view string_view;
 232:C:/Renesas/e2studio_2021_01_workspace_RZA2M_ANPR/ANPR_RZA2M_EBK/src/tensorflow_lite/third_party/flatbuffers/include/flatbuffers\base.h ****       }
 233:C:/Renesas/e2studio_2021_01_workspace_RZA2M_ANPR/ANPR_RZA2M_EBK/src/tensorflow_lite/third_party/flatbuffers/include/flatbuffers\base.h ****       #define FLATBUFFERS_HAS_STRING_VIEW 1
 234:C:/Renesas/e2studio_2021_01_workspace_RZA2M_ANPR/ANPR_RZA2M_EBK/src/tensorflow_lite/third_party/flatbuffers/include/flatbuffers\base.h ****     // Check for absl::string_view
 235:C:/Renesas/e2studio_2021_01_workspace_RZA2M_ANPR/ANPR_RZA2M_EBK/src/tensorflow_lite/third_party/flatbuffers/include/flatbuffers\base.h ****     #elif __has_include("absl/strings/string_view.h")
 236:C:/Renesas/e2studio_2021_01_workspace_RZA2M_ANPR/ANPR_RZA2M_EBK/src/tensorflow_lite/third_party/flatbuffers/include/flatbuffers\base.h ****       #include "absl/strings/string_view.h"
 237:C:/Renesas/e2studio_2021_01_workspace_RZA2M_ANPR/ANPR_RZA2M_EBK/src/tensorflow_lite/third_party/flatbuffers/include/flatbuffers\base.h ****       namespace flatbuffers {
 238:C:/Renesas/e2studio_2021_01_workspace_RZA2M_ANPR/ANPR_RZA2M_EBK/src/tensorflow_lite/third_party/flatbuffers/include/flatbuffers\base.h ****         typedef absl::string_view string_view;
 239:C:/Renesas/e2studio_2021_01_workspace_RZA2M_ANPR/ANPR_RZA2M_EBK/src/tensorflow_lite/third_party/flatbuffers/include/flatbuffers\base.h ****       }
 240:C:/Renesas/e2studio_2021_01_workspace_RZA2M_ANPR/ANPR_RZA2M_EBK/src/tensorflow_lite/third_party/flatbuffers/include/flatbuffers\base.h ****       #define FLATBUFFERS_HAS_STRING_VIEW 1
 241:C:/Renesas/e2studio_2021_01_workspace_RZA2M_ANPR/ANPR_RZA2M_EBK/src/tensorflow_lite/third_party/flatbuffers/include/flatbuffers\base.h ****     #endif
 242:C:/Renesas/e2studio_2021_01_workspace_RZA2M_ANPR/ANPR_RZA2M_EBK/src/tensorflow_lite/third_party/flatbuffers/include/flatbuffers\base.h ****   #endif // __has_include
 243:C:/Renesas/e2studio_2021_01_workspace_RZA2M_ANPR/ANPR_RZA2M_EBK/src/tensorflow_lite/third_party/flatbuffers/include/flatbuffers\base.h **** #endif // !FLATBUFFERS_HAS_STRING_VIEW
 244:C:/Renesas/e2studio_2021_01_workspace_RZA2M_ANPR/ANPR_RZA2M_EBK/src/tensorflow_lite/third_party/flatbuffers/include/flatbuffers\base.h **** 
 245:C:/Renesas/e2studio_2021_01_workspace_RZA2M_ANPR/ANPR_RZA2M_EBK/src/tensorflow_lite/third_party/flatbuffers/include/flatbuffers\base.h **** #ifndef FLATBUFFERS_HAS_NEW_STRTOD
 246:C:/Renesas/e2studio_2021_01_workspace_RZA2M_ANPR/ANPR_RZA2M_EBK/src/tensorflow_lite/third_party/flatbuffers/include/flatbuffers\base.h ****   // Modern (C++11) strtod and strtof functions are available for use.
 247:C:/Renesas/e2studio_2021_01_workspace_RZA2M_ANPR/ANPR_RZA2M_EBK/src/tensorflow_lite/third_party/flatbuffers/include/flatbuffers\base.h ****   // 1) nan/inf strings as argument of strtod;
 248:C:/Renesas/e2studio_2021_01_workspace_RZA2M_ANPR/ANPR_RZA2M_EBK/src/tensorflow_lite/third_party/flatbuffers/include/flatbuffers\base.h ****   // 2) hex-float  as argument of  strtod/strtof.
 249:C:/Renesas/e2studio_2021_01_workspace_RZA2M_ANPR/ANPR_RZA2M_EBK/src/tensorflow_lite/third_party/flatbuffers/include/flatbuffers\base.h ****   #if (defined(_MSC_VER) && _MSC_VER >= 1900) || \
 250:C:/Renesas/e2studio_2021_01_workspace_RZA2M_ANPR/ANPR_RZA2M_EBK/src/tensorflow_lite/third_party/flatbuffers/include/flatbuffers\base.h ****       (defined(__GNUC__) && (__GNUC__ * 100 + __GNUC_MINOR__ >= 409)) || \
 251:C:/Renesas/e2studio_2021_01_workspace_RZA2M_ANPR/ANPR_RZA2M_EBK/src/tensorflow_lite/third_party/flatbuffers/include/flatbuffers\base.h ****       (defined(__clang__))
 252:C:/Renesas/e2studio_2021_01_workspace_RZA2M_ANPR/ANPR_RZA2M_EBK/src/tensorflow_lite/third_party/flatbuffers/include/flatbuffers\base.h ****     #define FLATBUFFERS_HAS_NEW_STRTOD 1
 253:C:/Renesas/e2studio_2021_01_workspace_RZA2M_ANPR/ANPR_RZA2M_EBK/src/tensorflow_lite/third_party/flatbuffers/include/flatbuffers\base.h ****   #endif
 254:C:/Renesas/e2studio_2021_01_workspace_RZA2M_ANPR/ANPR_RZA2M_EBK/src/tensorflow_lite/third_party/flatbuffers/include/flatbuffers\base.h **** #endif // !FLATBUFFERS_HAS_NEW_STRTOD
 255:C:/Renesas/e2studio_2021_01_workspace_RZA2M_ANPR/ANPR_RZA2M_EBK/src/tensorflow_lite/third_party/flatbuffers/include/flatbuffers\base.h **** 
 256:C:/Renesas/e2studio_2021_01_workspace_RZA2M_ANPR/ANPR_RZA2M_EBK/src/tensorflow_lite/third_party/flatbuffers/include/flatbuffers\base.h **** #ifndef FLATBUFFERS_LOCALE_INDEPENDENT
 257:C:/Renesas/e2studio_2021_01_workspace_RZA2M_ANPR/ANPR_RZA2M_EBK/src/tensorflow_lite/third_party/flatbuffers/include/flatbuffers\base.h ****   // Enable locale independent functions {strtof_l, strtod_l,strtoll_l, strtoull_l}.
 258:C:/Renesas/e2studio_2021_01_workspace_RZA2M_ANPR/ANPR_RZA2M_EBK/src/tensorflow_lite/third_party/flatbuffers/include/flatbuffers\base.h ****   #if ((defined(_MSC_VER) && _MSC_VER >= 1800)            || \
 259:C:/Renesas/e2studio_2021_01_workspace_RZA2M_ANPR/ANPR_RZA2M_EBK/src/tensorflow_lite/third_party/flatbuffers/include/flatbuffers\base.h ****        (defined(_XOPEN_VERSION) && (_XOPEN_VERSION>=700)) && (!defined(__ANDROID_API__) || (defined
 260:C:/Renesas/e2studio_2021_01_workspace_RZA2M_ANPR/ANPR_RZA2M_EBK/src/tensorflow_lite/third_party/flatbuffers/include/flatbuffers\base.h ****     #define FLATBUFFERS_LOCALE_INDEPENDENT 1
 261:C:/Renesas/e2studio_2021_01_workspace_RZA2M_ANPR/ANPR_RZA2M_EBK/src/tensorflow_lite/third_party/flatbuffers/include/flatbuffers\base.h ****   #else
 262:C:/Renesas/e2studio_2021_01_workspace_RZA2M_ANPR/ANPR_RZA2M_EBK/src/tensorflow_lite/third_party/flatbuffers/include/flatbuffers\base.h ****     #define FLATBUFFERS_LOCALE_INDEPENDENT 0
 263:C:/Renesas/e2studio_2021_01_workspace_RZA2M_ANPR/ANPR_RZA2M_EBK/src/tensorflow_lite/third_party/flatbuffers/include/flatbuffers\base.h ****   #endif
 264:C:/Renesas/e2studio_2021_01_workspace_RZA2M_ANPR/ANPR_RZA2M_EBK/src/tensorflow_lite/third_party/flatbuffers/include/flatbuffers\base.h **** #endif  // !FLATBUFFERS_LOCALE_INDEPENDENT
 265:C:/Renesas/e2studio_2021_01_workspace_RZA2M_ANPR/ANPR_RZA2M_EBK/src/tensorflow_lite/third_party/flatbuffers/include/flatbuffers\base.h **** 
 266:C:/Renesas/e2studio_2021_01_workspace_RZA2M_ANPR/ANPR_RZA2M_EBK/src/tensorflow_lite/third_party/flatbuffers/include/flatbuffers\base.h **** // Suppress Undefined Behavior Sanitizer (recoverable only). Usage:
 267:C:/Renesas/e2studio_2021_01_workspace_RZA2M_ANPR/ANPR_RZA2M_EBK/src/tensorflow_lite/third_party/flatbuffers/include/flatbuffers\base.h **** // - __supress_ubsan__("undefined")
 268:C:/Renesas/e2studio_2021_01_workspace_RZA2M_ANPR/ANPR_RZA2M_EBK/src/tensorflow_lite/third_party/flatbuffers/include/flatbuffers\base.h **** // - __supress_ubsan__("signed-integer-overflow")
 269:C:/Renesas/e2studio_2021_01_workspace_RZA2M_ANPR/ANPR_RZA2M_EBK/src/tensorflow_lite/third_party/flatbuffers/include/flatbuffers\base.h **** #if defined(__clang__) && (__clang_major__ > 3 || (__clang_major__ == 3 && __clang_minor__ >=7))
 270:C:/Renesas/e2studio_2021_01_workspace_RZA2M_ANPR/ANPR_RZA2M_EBK/src/tensorflow_lite/third_party/flatbuffers/include/flatbuffers\base.h ****   #define __supress_ubsan__(type) __attribute__((no_sanitize(type)))
 271:C:/Renesas/e2studio_2021_01_workspace_RZA2M_ANPR/ANPR_RZA2M_EBK/src/tensorflow_lite/third_party/flatbuffers/include/flatbuffers\base.h **** #elif defined(__GNUC__) && (__GNUC__ * 100 + __GNUC_MINOR__ >= 409)
 272:C:/Renesas/e2studio_2021_01_workspace_RZA2M_ANPR/ANPR_RZA2M_EBK/src/tensorflow_lite/third_party/flatbuffers/include/flatbuffers\base.h ****   #define __supress_ubsan__(type) __attribute__((no_sanitize_undefined))
 273:C:/Renesas/e2studio_2021_01_workspace_RZA2M_ANPR/ANPR_RZA2M_EBK/src/tensorflow_lite/third_party/flatbuffers/include/flatbuffers\base.h **** #else
 274:C:/Renesas/e2studio_2021_01_workspace_RZA2M_ANPR/ANPR_RZA2M_EBK/src/tensorflow_lite/third_party/flatbuffers/include/flatbuffers\base.h ****   #define __supress_ubsan__(type)
 275:C:/Renesas/e2studio_2021_01_workspace_RZA2M_ANPR/ANPR_RZA2M_EBK/src/tensorflow_lite/third_party/flatbuffers/include/flatbuffers\base.h **** #endif
 276:C:/Renesas/e2studio_2021_01_workspace_RZA2M_ANPR/ANPR_RZA2M_EBK/src/tensorflow_lite/third_party/flatbuffers/include/flatbuffers\base.h **** 
 277:C:/Renesas/e2studio_2021_01_workspace_RZA2M_ANPR/ANPR_RZA2M_EBK/src/tensorflow_lite/third_party/flatbuffers/include/flatbuffers\base.h **** // This is constexpr function used for checking compile-time constants.
 278:C:/Renesas/e2studio_2021_01_workspace_RZA2M_ANPR/ANPR_RZA2M_EBK/src/tensorflow_lite/third_party/flatbuffers/include/flatbuffers\base.h **** // Avoid `#pragma warning(disable: 4127) // C4127: expression is constant`.
 279:C:/Renesas/e2studio_2021_01_workspace_RZA2M_ANPR/ANPR_RZA2M_EBK/src/tensorflow_lite/third_party/flatbuffers/include/flatbuffers\base.h **** template<typename T> FLATBUFFERS_CONSTEXPR inline bool IsConstTrue(T t) {
 280:C:/Renesas/e2studio_2021_01_workspace_RZA2M_ANPR/ANPR_RZA2M_EBK/src/tensorflow_lite/third_party/flatbuffers/include/flatbuffers\base.h ****   return !!t;
 281:C:/Renesas/e2studio_2021_01_workspace_RZA2M_ANPR/ANPR_RZA2M_EBK/src/tensorflow_lite/third_party/flatbuffers/include/flatbuffers\base.h **** }
 282:C:/Renesas/e2studio_2021_01_workspace_RZA2M_ANPR/ANPR_RZA2M_EBK/src/tensorflow_lite/third_party/flatbuffers/include/flatbuffers\base.h **** 
 283:C:/Renesas/e2studio_2021_01_workspace_RZA2M_ANPR/ANPR_RZA2M_EBK/src/tensorflow_lite/third_party/flatbuffers/include/flatbuffers\base.h **** // Enable C++ attribute [[]] if std:c++17 or higher.
 284:C:/Renesas/e2studio_2021_01_workspace_RZA2M_ANPR/ANPR_RZA2M_EBK/src/tensorflow_lite/third_party/flatbuffers/include/flatbuffers\base.h **** #if ((__cplusplus >= 201703L) \
 285:C:/Renesas/e2studio_2021_01_workspace_RZA2M_ANPR/ANPR_RZA2M_EBK/src/tensorflow_lite/third_party/flatbuffers/include/flatbuffers\base.h ****     || (defined(_MSVC_LANG) &&  (_MSVC_LANG >= 201703L)))
 286:C:/Renesas/e2studio_2021_01_workspace_RZA2M_ANPR/ANPR_RZA2M_EBK/src/tensorflow_lite/third_party/flatbuffers/include/flatbuffers\base.h ****   // All attributes unknown to an implementation are ignored without causing an error.
 287:C:/Renesas/e2studio_2021_01_workspace_RZA2M_ANPR/ANPR_RZA2M_EBK/src/tensorflow_lite/third_party/flatbuffers/include/flatbuffers\base.h ****   #define FLATBUFFERS_ATTRIBUTE(attr) [[attr]]
 288:C:/Renesas/e2studio_2021_01_workspace_RZA2M_ANPR/ANPR_RZA2M_EBK/src/tensorflow_lite/third_party/flatbuffers/include/flatbuffers\base.h **** 
 289:C:/Renesas/e2studio_2021_01_workspace_RZA2M_ANPR/ANPR_RZA2M_EBK/src/tensorflow_lite/third_party/flatbuffers/include/flatbuffers\base.h ****   #define FLATBUFFERS_FALLTHROUGH() [[fallthrough]]
 290:C:/Renesas/e2studio_2021_01_workspace_RZA2M_ANPR/ANPR_RZA2M_EBK/src/tensorflow_lite/third_party/flatbuffers/include/flatbuffers\base.h **** #else
 291:C:/Renesas/e2studio_2021_01_workspace_RZA2M_ANPR/ANPR_RZA2M_EBK/src/tensorflow_lite/third_party/flatbuffers/include/flatbuffers\base.h ****   #define FLATBUFFERS_ATTRIBUTE(attr)
 292:C:/Renesas/e2studio_2021_01_workspace_RZA2M_ANPR/ANPR_RZA2M_EBK/src/tensorflow_lite/third_party/flatbuffers/include/flatbuffers\base.h **** 
 293:C:/Renesas/e2studio_2021_01_workspace_RZA2M_ANPR/ANPR_RZA2M_EBK/src/tensorflow_lite/third_party/flatbuffers/include/flatbuffers\base.h ****   #if FLATBUFFERS_CLANG >= 30800
 294:C:/Renesas/e2studio_2021_01_workspace_RZA2M_ANPR/ANPR_RZA2M_EBK/src/tensorflow_lite/third_party/flatbuffers/include/flatbuffers\base.h ****     #define FLATBUFFERS_FALLTHROUGH() [[clang::fallthrough]]
 295:C:/Renesas/e2studio_2021_01_workspace_RZA2M_ANPR/ANPR_RZA2M_EBK/src/tensorflow_lite/third_party/flatbuffers/include/flatbuffers\base.h ****   #elif FLATBUFFERS_GCC >= 70300
 296:C:/Renesas/e2studio_2021_01_workspace_RZA2M_ANPR/ANPR_RZA2M_EBK/src/tensorflow_lite/third_party/flatbuffers/include/flatbuffers\base.h ****     #define FLATBUFFERS_FALLTHROUGH() [[gnu::fallthrough]]
 297:C:/Renesas/e2studio_2021_01_workspace_RZA2M_ANPR/ANPR_RZA2M_EBK/src/tensorflow_lite/third_party/flatbuffers/include/flatbuffers\base.h ****   #else
 298:C:/Renesas/e2studio_2021_01_workspace_RZA2M_ANPR/ANPR_RZA2M_EBK/src/tensorflow_lite/third_party/flatbuffers/include/flatbuffers\base.h ****     #define FLATBUFFERS_FALLTHROUGH()
 299:C:/Renesas/e2studio_2021_01_workspace_RZA2M_ANPR/ANPR_RZA2M_EBK/src/tensorflow_lite/third_party/flatbuffers/include/flatbuffers\base.h ****   #endif
 300:C:/Renesas/e2studio_2021_01_workspace_RZA2M_ANPR/ANPR_RZA2M_EBK/src/tensorflow_lite/third_party/flatbuffers/include/flatbuffers\base.h **** #endif
 301:C:/Renesas/e2studio_2021_01_workspace_RZA2M_ANPR/ANPR_RZA2M_EBK/src/tensorflow_lite/third_party/flatbuffers/include/flatbuffers\base.h **** 
 302:C:/Renesas/e2studio_2021_01_workspace_RZA2M_ANPR/ANPR_RZA2M_EBK/src/tensorflow_lite/third_party/flatbuffers/include/flatbuffers\base.h **** /// @endcond
 303:C:/Renesas/e2studio_2021_01_workspace_RZA2M_ANPR/ANPR_RZA2M_EBK/src/tensorflow_lite/third_party/flatbuffers/include/flatbuffers\base.h **** 
 304:C:/Renesas/e2studio_2021_01_workspace_RZA2M_ANPR/ANPR_RZA2M_EBK/src/tensorflow_lite/third_party/flatbuffers/include/flatbuffers\base.h **** /// @file
 305:C:/Renesas/e2studio_2021_01_workspace_RZA2M_ANPR/ANPR_RZA2M_EBK/src/tensorflow_lite/third_party/flatbuffers/include/flatbuffers\base.h **** namespace flatbuffers {
 306:C:/Renesas/e2studio_2021_01_workspace_RZA2M_ANPR/ANPR_RZA2M_EBK/src/tensorflow_lite/third_party/flatbuffers/include/flatbuffers\base.h **** 
 307:C:/Renesas/e2studio_2021_01_workspace_RZA2M_ANPR/ANPR_RZA2M_EBK/src/tensorflow_lite/third_party/flatbuffers/include/flatbuffers\base.h **** /// @cond FLATBUFFERS_INTERNAL
 308:C:/Renesas/e2studio_2021_01_workspace_RZA2M_ANPR/ANPR_RZA2M_EBK/src/tensorflow_lite/third_party/flatbuffers/include/flatbuffers\base.h **** // Our default offset / size type, 32bit on purpose on 64bit systems.
 309:C:/Renesas/e2studio_2021_01_workspace_RZA2M_ANPR/ANPR_RZA2M_EBK/src/tensorflow_lite/third_party/flatbuffers/include/flatbuffers\base.h **** // Also, using a consistent offset type maintains compatibility of serialized
 310:C:/Renesas/e2studio_2021_01_workspace_RZA2M_ANPR/ANPR_RZA2M_EBK/src/tensorflow_lite/third_party/flatbuffers/include/flatbuffers\base.h **** // offset values between 32bit and 64bit systems.
 311:C:/Renesas/e2studio_2021_01_workspace_RZA2M_ANPR/ANPR_RZA2M_EBK/src/tensorflow_lite/third_party/flatbuffers/include/flatbuffers\base.h **** typedef uint32_t uoffset_t;
 312:C:/Renesas/e2studio_2021_01_workspace_RZA2M_ANPR/ANPR_RZA2M_EBK/src/tensorflow_lite/third_party/flatbuffers/include/flatbuffers\base.h **** 
 313:C:/Renesas/e2studio_2021_01_workspace_RZA2M_ANPR/ANPR_RZA2M_EBK/src/tensorflow_lite/third_party/flatbuffers/include/flatbuffers\base.h **** // Signed offsets for references that can go in both directions.
 314:C:/Renesas/e2studio_2021_01_workspace_RZA2M_ANPR/ANPR_RZA2M_EBK/src/tensorflow_lite/third_party/flatbuffers/include/flatbuffers\base.h **** typedef int32_t soffset_t;
 315:C:/Renesas/e2studio_2021_01_workspace_RZA2M_ANPR/ANPR_RZA2M_EBK/src/tensorflow_lite/third_party/flatbuffers/include/flatbuffers\base.h **** 
 316:C:/Renesas/e2studio_2021_01_workspace_RZA2M_ANPR/ANPR_RZA2M_EBK/src/tensorflow_lite/third_party/flatbuffers/include/flatbuffers\base.h **** // Offset/index used in v-tables, can be changed to uint8_t in
 317:C:/Renesas/e2studio_2021_01_workspace_RZA2M_ANPR/ANPR_RZA2M_EBK/src/tensorflow_lite/third_party/flatbuffers/include/flatbuffers\base.h **** // format forks to save a bit of space if desired.
 318:C:/Renesas/e2studio_2021_01_workspace_RZA2M_ANPR/ANPR_RZA2M_EBK/src/tensorflow_lite/third_party/flatbuffers/include/flatbuffers\base.h **** typedef uint16_t voffset_t;
 319:C:/Renesas/e2studio_2021_01_workspace_RZA2M_ANPR/ANPR_RZA2M_EBK/src/tensorflow_lite/third_party/flatbuffers/include/flatbuffers\base.h **** 
 320:C:/Renesas/e2studio_2021_01_workspace_RZA2M_ANPR/ANPR_RZA2M_EBK/src/tensorflow_lite/third_party/flatbuffers/include/flatbuffers\base.h **** typedef uintmax_t largest_scalar_t;
 321:C:/Renesas/e2studio_2021_01_workspace_RZA2M_ANPR/ANPR_RZA2M_EBK/src/tensorflow_lite/third_party/flatbuffers/include/flatbuffers\base.h **** 
 322:C:/Renesas/e2studio_2021_01_workspace_RZA2M_ANPR/ANPR_RZA2M_EBK/src/tensorflow_lite/third_party/flatbuffers/include/flatbuffers\base.h **** // In 32bits, this evaluates to 2GB - 1
 323:C:/Renesas/e2studio_2021_01_workspace_RZA2M_ANPR/ANPR_RZA2M_EBK/src/tensorflow_lite/third_party/flatbuffers/include/flatbuffers\base.h **** #define FLATBUFFERS_MAX_BUFFER_SIZE ((1ULL << (sizeof(::flatbuffers::soffset_t) * 8 - 1)) - 1)
 324:C:/Renesas/e2studio_2021_01_workspace_RZA2M_ANPR/ANPR_RZA2M_EBK/src/tensorflow_lite/third_party/flatbuffers/include/flatbuffers\base.h **** 
 325:C:/Renesas/e2studio_2021_01_workspace_RZA2M_ANPR/ANPR_RZA2M_EBK/src/tensorflow_lite/third_party/flatbuffers/include/flatbuffers\base.h **** // We support aligning the contents of buffers up to this size.
 326:C:/Renesas/e2studio_2021_01_workspace_RZA2M_ANPR/ANPR_RZA2M_EBK/src/tensorflow_lite/third_party/flatbuffers/include/flatbuffers\base.h **** #define FLATBUFFERS_MAX_ALIGNMENT 16
 327:C:/Renesas/e2studio_2021_01_workspace_RZA2M_ANPR/ANPR_RZA2M_EBK/src/tensorflow_lite/third_party/flatbuffers/include/flatbuffers\base.h **** 
 328:C:/Renesas/e2studio_2021_01_workspace_RZA2M_ANPR/ANPR_RZA2M_EBK/src/tensorflow_lite/third_party/flatbuffers/include/flatbuffers\base.h **** #if defined(_MSC_VER)
 329:C:/Renesas/e2studio_2021_01_workspace_RZA2M_ANPR/ANPR_RZA2M_EBK/src/tensorflow_lite/third_party/flatbuffers/include/flatbuffers\base.h ****   #pragma warning(disable: 4351) // C4351: new behavior: elements of array ... will be default init
 330:C:/Renesas/e2studio_2021_01_workspace_RZA2M_ANPR/ANPR_RZA2M_EBK/src/tensorflow_lite/third_party/flatbuffers/include/flatbuffers\base.h ****   #pragma warning(push)
 331:C:/Renesas/e2studio_2021_01_workspace_RZA2M_ANPR/ANPR_RZA2M_EBK/src/tensorflow_lite/third_party/flatbuffers/include/flatbuffers\base.h ****   #pragma warning(disable: 4127) // C4127: conditional expression is constant
 332:C:/Renesas/e2studio_2021_01_workspace_RZA2M_ANPR/ANPR_RZA2M_EBK/src/tensorflow_lite/third_party/flatbuffers/include/flatbuffers\base.h **** #endif
 333:C:/Renesas/e2studio_2021_01_workspace_RZA2M_ANPR/ANPR_RZA2M_EBK/src/tensorflow_lite/third_party/flatbuffers/include/flatbuffers\base.h **** 
 334:C:/Renesas/e2studio_2021_01_workspace_RZA2M_ANPR/ANPR_RZA2M_EBK/src/tensorflow_lite/third_party/flatbuffers/include/flatbuffers\base.h **** template<typename T> T EndianSwap(T t) {
 335:C:/Renesas/e2studio_2021_01_workspace_RZA2M_ANPR/ANPR_RZA2M_EBK/src/tensorflow_lite/third_party/flatbuffers/include/flatbuffers\base.h ****   #if defined(_MSC_VER)
 336:C:/Renesas/e2studio_2021_01_workspace_RZA2M_ANPR/ANPR_RZA2M_EBK/src/tensorflow_lite/third_party/flatbuffers/include/flatbuffers\base.h ****     #define FLATBUFFERS_BYTESWAP16 _byteswap_ushort
 337:C:/Renesas/e2studio_2021_01_workspace_RZA2M_ANPR/ANPR_RZA2M_EBK/src/tensorflow_lite/third_party/flatbuffers/include/flatbuffers\base.h ****     #define FLATBUFFERS_BYTESWAP32 _byteswap_ulong
 338:C:/Renesas/e2studio_2021_01_workspace_RZA2M_ANPR/ANPR_RZA2M_EBK/src/tensorflow_lite/third_party/flatbuffers/include/flatbuffers\base.h ****     #define FLATBUFFERS_BYTESWAP64 _byteswap_uint64
 339:C:/Renesas/e2studio_2021_01_workspace_RZA2M_ANPR/ANPR_RZA2M_EBK/src/tensorflow_lite/third_party/flatbuffers/include/flatbuffers\base.h ****   #elif defined(__ICCARM__)
 340:C:/Renesas/e2studio_2021_01_workspace_RZA2M_ANPR/ANPR_RZA2M_EBK/src/tensorflow_lite/third_party/flatbuffers/include/flatbuffers\base.h ****     #define FLATBUFFERS_BYTESWAP16 __REV16
 341:C:/Renesas/e2studio_2021_01_workspace_RZA2M_ANPR/ANPR_RZA2M_EBK/src/tensorflow_lite/third_party/flatbuffers/include/flatbuffers\base.h ****     #define FLATBUFFERS_BYTESWAP32 __REV
 342:C:/Renesas/e2studio_2021_01_workspace_RZA2M_ANPR/ANPR_RZA2M_EBK/src/tensorflow_lite/third_party/flatbuffers/include/flatbuffers\base.h ****     #define FLATBUFFERS_BYTESWAP64(x) \
 343:C:/Renesas/e2studio_2021_01_workspace_RZA2M_ANPR/ANPR_RZA2M_EBK/src/tensorflow_lite/third_party/flatbuffers/include/flatbuffers\base.h ****        ((__REV(static_cast<uint32_t>(x >> 32U))) | (static_cast<uint64_t>(__REV(static_cast<uint32_
 344:C:/Renesas/e2studio_2021_01_workspace_RZA2M_ANPR/ANPR_RZA2M_EBK/src/tensorflow_lite/third_party/flatbuffers/include/flatbuffers\base.h ****   #else
 345:C:/Renesas/e2studio_2021_01_workspace_RZA2M_ANPR/ANPR_RZA2M_EBK/src/tensorflow_lite/third_party/flatbuffers/include/flatbuffers\base.h ****     #if defined(__GNUC__) && __GNUC__ * 100 + __GNUC_MINOR__ < 408 && !defined(__clang__)
 346:C:/Renesas/e2studio_2021_01_workspace_RZA2M_ANPR/ANPR_RZA2M_EBK/src/tensorflow_lite/third_party/flatbuffers/include/flatbuffers\base.h ****       // __builtin_bswap16 was missing prior to GCC 4.8.
 347:C:/Renesas/e2studio_2021_01_workspace_RZA2M_ANPR/ANPR_RZA2M_EBK/src/tensorflow_lite/third_party/flatbuffers/include/flatbuffers\base.h ****       #define FLATBUFFERS_BYTESWAP16(x) \
 348:C:/Renesas/e2studio_2021_01_workspace_RZA2M_ANPR/ANPR_RZA2M_EBK/src/tensorflow_lite/third_party/flatbuffers/include/flatbuffers\base.h ****         static_cast<uint16_t>(__builtin_bswap32(static_cast<uint32_t>(x) << 16))
 349:C:/Renesas/e2studio_2021_01_workspace_RZA2M_ANPR/ANPR_RZA2M_EBK/src/tensorflow_lite/third_party/flatbuffers/include/flatbuffers\base.h ****     #else
 350:C:/Renesas/e2studio_2021_01_workspace_RZA2M_ANPR/ANPR_RZA2M_EBK/src/tensorflow_lite/third_party/flatbuffers/include/flatbuffers\base.h ****       #define FLATBUFFERS_BYTESWAP16 __builtin_bswap16
 351:C:/Renesas/e2studio_2021_01_workspace_RZA2M_ANPR/ANPR_RZA2M_EBK/src/tensorflow_lite/third_party/flatbuffers/include/flatbuffers\base.h ****     #endif
 352:C:/Renesas/e2studio_2021_01_workspace_RZA2M_ANPR/ANPR_RZA2M_EBK/src/tensorflow_lite/third_party/flatbuffers/include/flatbuffers\base.h ****     #define FLATBUFFERS_BYTESWAP32 __builtin_bswap32
 353:C:/Renesas/e2studio_2021_01_workspace_RZA2M_ANPR/ANPR_RZA2M_EBK/src/tensorflow_lite/third_party/flatbuffers/include/flatbuffers\base.h ****     #define FLATBUFFERS_BYTESWAP64 __builtin_bswap64
 354:C:/Renesas/e2studio_2021_01_workspace_RZA2M_ANPR/ANPR_RZA2M_EBK/src/tensorflow_lite/third_party/flatbuffers/include/flatbuffers\base.h ****   #endif
 355:C:/Renesas/e2studio_2021_01_workspace_RZA2M_ANPR/ANPR_RZA2M_EBK/src/tensorflow_lite/third_party/flatbuffers/include/flatbuffers\base.h ****   if (sizeof(T) == 1) {   // Compile-time if-then's.
 356:C:/Renesas/e2studio_2021_01_workspace_RZA2M_ANPR/ANPR_RZA2M_EBK/src/tensorflow_lite/third_party/flatbuffers/include/flatbuffers\base.h ****     return t;
 357:C:/Renesas/e2studio_2021_01_workspace_RZA2M_ANPR/ANPR_RZA2M_EBK/src/tensorflow_lite/third_party/flatbuffers/include/flatbuffers\base.h ****   } else if (sizeof(T) == 2) {
 358:C:/Renesas/e2studio_2021_01_workspace_RZA2M_ANPR/ANPR_RZA2M_EBK/src/tensorflow_lite/third_party/flatbuffers/include/flatbuffers\base.h ****     union { T t; uint16_t i; } u = { t };
 359:C:/Renesas/e2studio_2021_01_workspace_RZA2M_ANPR/ANPR_RZA2M_EBK/src/tensorflow_lite/third_party/flatbuffers/include/flatbuffers\base.h ****     u.i = FLATBUFFERS_BYTESWAP16(u.i);
 360:C:/Renesas/e2studio_2021_01_workspace_RZA2M_ANPR/ANPR_RZA2M_EBK/src/tensorflow_lite/third_party/flatbuffers/include/flatbuffers\base.h ****     return u.t;
 361:C:/Renesas/e2studio_2021_01_workspace_RZA2M_ANPR/ANPR_RZA2M_EBK/src/tensorflow_lite/third_party/flatbuffers/include/flatbuffers\base.h ****   } else if (sizeof(T) == 4) {
 362:C:/Renesas/e2studio_2021_01_workspace_RZA2M_ANPR/ANPR_RZA2M_EBK/src/tensorflow_lite/third_party/flatbuffers/include/flatbuffers\base.h ****     union { T t; uint32_t i; } u = { t };
 363:C:/Renesas/e2studio_2021_01_workspace_RZA2M_ANPR/ANPR_RZA2M_EBK/src/tensorflow_lite/third_party/flatbuffers/include/flatbuffers\base.h ****     u.i = FLATBUFFERS_BYTESWAP32(u.i);
 364:C:/Renesas/e2studio_2021_01_workspace_RZA2M_ANPR/ANPR_RZA2M_EBK/src/tensorflow_lite/third_party/flatbuffers/include/flatbuffers\base.h ****     return u.t;
 365:C:/Renesas/e2studio_2021_01_workspace_RZA2M_ANPR/ANPR_RZA2M_EBK/src/tensorflow_lite/third_party/flatbuffers/include/flatbuffers\base.h ****   } else if (sizeof(T) == 8) {
 366:C:/Renesas/e2studio_2021_01_workspace_RZA2M_ANPR/ANPR_RZA2M_EBK/src/tensorflow_lite/third_party/flatbuffers/include/flatbuffers\base.h ****     union { T t; uint64_t i; } u = { t };
 367:C:/Renesas/e2studio_2021_01_workspace_RZA2M_ANPR/ANPR_RZA2M_EBK/src/tensorflow_lite/third_party/flatbuffers/include/flatbuffers\base.h ****     u.i = FLATBUFFERS_BYTESWAP64(u.i);
 368:C:/Renesas/e2studio_2021_01_workspace_RZA2M_ANPR/ANPR_RZA2M_EBK/src/tensorflow_lite/third_party/flatbuffers/include/flatbuffers\base.h ****     return u.t;
 369:C:/Renesas/e2studio_2021_01_workspace_RZA2M_ANPR/ANPR_RZA2M_EBK/src/tensorflow_lite/third_party/flatbuffers/include/flatbuffers\base.h ****   } else {
 370:C:/Renesas/e2studio_2021_01_workspace_RZA2M_ANPR/ANPR_RZA2M_EBK/src/tensorflow_lite/third_party/flatbuffers/include/flatbuffers\base.h ****     FLATBUFFERS_ASSERT(0);
 371:C:/Renesas/e2studio_2021_01_workspace_RZA2M_ANPR/ANPR_RZA2M_EBK/src/tensorflow_lite/third_party/flatbuffers/include/flatbuffers\base.h ****     return t;
 372:C:/Renesas/e2studio_2021_01_workspace_RZA2M_ANPR/ANPR_RZA2M_EBK/src/tensorflow_lite/third_party/flatbuffers/include/flatbuffers\base.h ****   }
 373:C:/Renesas/e2studio_2021_01_workspace_RZA2M_ANPR/ANPR_RZA2M_EBK/src/tensorflow_lite/third_party/flatbuffers/include/flatbuffers\base.h **** }
 374:C:/Renesas/e2studio_2021_01_workspace_RZA2M_ANPR/ANPR_RZA2M_EBK/src/tensorflow_lite/third_party/flatbuffers/include/flatbuffers\base.h **** 
 375:C:/Renesas/e2studio_2021_01_workspace_RZA2M_ANPR/ANPR_RZA2M_EBK/src/tensorflow_lite/third_party/flatbuffers/include/flatbuffers\base.h **** #if defined(_MSC_VER)
 376:C:/Renesas/e2studio_2021_01_workspace_RZA2M_ANPR/ANPR_RZA2M_EBK/src/tensorflow_lite/third_party/flatbuffers/include/flatbuffers\base.h ****   #pragma warning(pop)
 377:C:/Renesas/e2studio_2021_01_workspace_RZA2M_ANPR/ANPR_RZA2M_EBK/src/tensorflow_lite/third_party/flatbuffers/include/flatbuffers\base.h **** #endif
 378:C:/Renesas/e2studio_2021_01_workspace_RZA2M_ANPR/ANPR_RZA2M_EBK/src/tensorflow_lite/third_party/flatbuffers/include/flatbuffers\base.h **** 
 379:C:/Renesas/e2studio_2021_01_workspace_RZA2M_ANPR/ANPR_RZA2M_EBK/src/tensorflow_lite/third_party/flatbuffers/include/flatbuffers\base.h **** 
 380:C:/Renesas/e2studio_2021_01_workspace_RZA2M_ANPR/ANPR_RZA2M_EBK/src/tensorflow_lite/third_party/flatbuffers/include/flatbuffers\base.h **** template<typename T> T EndianScalar(T t) {
 381:C:/Renesas/e2studio_2021_01_workspace_RZA2M_ANPR/ANPR_RZA2M_EBK/src/tensorflow_lite/third_party/flatbuffers/include/flatbuffers\base.h ****   #if FLATBUFFERS_LITTLEENDIAN
 382:C:/Renesas/e2studio_2021_01_workspace_RZA2M_ANPR/ANPR_RZA2M_EBK/src/tensorflow_lite/third_party/flatbuffers/include/flatbuffers\base.h ****     return t;
 383:C:/Renesas/e2studio_2021_01_workspace_RZA2M_ANPR/ANPR_RZA2M_EBK/src/tensorflow_lite/third_party/flatbuffers/include/flatbuffers\base.h ****   #else
 384:C:/Renesas/e2studio_2021_01_workspace_RZA2M_ANPR/ANPR_RZA2M_EBK/src/tensorflow_lite/third_party/flatbuffers/include/flatbuffers\base.h ****     return EndianSwap(t);
 385:C:/Renesas/e2studio_2021_01_workspace_RZA2M_ANPR/ANPR_RZA2M_EBK/src/tensorflow_lite/third_party/flatbuffers/include/flatbuffers\base.h ****   #endif
 386:C:/Renesas/e2studio_2021_01_workspace_RZA2M_ANPR/ANPR_RZA2M_EBK/src/tensorflow_lite/third_party/flatbuffers/include/flatbuffers\base.h **** }
 387:C:/Renesas/e2studio_2021_01_workspace_RZA2M_ANPR/ANPR_RZA2M_EBK/src/tensorflow_lite/third_party/flatbuffers/include/flatbuffers\base.h **** 
 388:C:/Renesas/e2studio_2021_01_workspace_RZA2M_ANPR/ANPR_RZA2M_EBK/src/tensorflow_lite/third_party/flatbuffers/include/flatbuffers\base.h **** template<typename T>
 389:C:/Renesas/e2studio_2021_01_workspace_RZA2M_ANPR/ANPR_RZA2M_EBK/src/tensorflow_lite/third_party/flatbuffers/include/flatbuffers\base.h **** // UBSAN: C++ aliasing type rules, see std::bit_cast<> for details.
 390:C:/Renesas/e2studio_2021_01_workspace_RZA2M_ANPR/ANPR_RZA2M_EBK/src/tensorflow_lite/third_party/flatbuffers/include/flatbuffers\base.h **** __supress_ubsan__("alignment")
 391:C:/Renesas/e2studio_2021_01_workspace_RZA2M_ANPR/ANPR_RZA2M_EBK/src/tensorflow_lite/third_party/flatbuffers/include/flatbuffers\base.h **** T ReadScalar(const void *p) {
 392:C:/Renesas/e2studio_2021_01_workspace_RZA2M_ANPR/ANPR_RZA2M_EBK/src/tensorflow_lite/third_party/flatbuffers/include/flatbuffers\base.h ****   return EndianScalar(*reinterpret_cast<const T *>(p));
 1076              		.loc 4 392 0
 1077 0190 D020C3E1 		ldrd	r2, [r3]
 1078              	.LVL118:
 1079 0194 BCFFFFEA 		b	.L68
 1080              	.LVL119:
 1081              	.L141:
 1082              	.LBE1867:
 1083              	.LBE1866:
 1084              	.LBE1869:
 1085              	.LBE1872:
 1086              	.LBE1875:
 1087              	.LBE1878:
 1088              	.LBE1881:
 1089              	.LBE1884:
 1090              	.LBE1887:
 1091              	.LBE1923:
 1092              	.LBE1944:
 1093              	.LBE1955:
 1094              	.LBE2212:
 1095              	.LBB2213:
 1096              	.LBB2204:
 1097              	.LBB2197:
 428:C:/Renesas/e2studio_2021_01_workspace_RZA2M_ANPR/ANPR_RZA2M_EBK/src/tensorflow_lite/third_party/flatbuffers/include/flatbuffers\flexbuffers.h ****         case FBT_INDIRECT_INT: return ReadInt64(Indirect(), byte_width_);
 1098              		.loc 1 428 0
 1099 0198 0000A0E3 		mov	r0, #0
 1100              	.L75:
 1101              	.LBE2197:
 1102              	.LBE2204:
 1103              	.LBE2213:
  80:../src/tensorflow_lite/tensorflow/lite/micro/kernels/circular_buffer.cc ****   } else {
 1104              		.loc 2 80 0
 1105 019c 040087E5 		str	r0, [r7, #4]
 1106              	.LBE2240:
 1107              	.LBE2244:
  86:../src/tensorflow_lite/tensorflow/lite/micro/kernels/circular_buffer.cc **** 
 1108              		.loc 2 86 0
 1109 01a0 0700A0E1 		mov	r0, r7
 1110 01a4 10D08DE2 		add	sp, sp, #16
 1111              		.cfi_remember_state
 1112              		.cfi_def_cfa_offset 32
 1113              		@ sp needed
 1114 01a8 F087BDE8 		pop	{r4, r5, r6, r7, r8, r9, r10, pc}
 1115              	.LVL120:
 1116              	.L161:
 1117              		.cfi_restore_state
 1118              	.LBB2245:
 1119              	.LBB2241:
 1120              	.LBB2214:
 1121              	.LBB1956:
 1122              	.LBB1945:
 1123              	.LBB1924:
 1124              	.LBB1888:
 1125              	.LBB1885:
 1126              	.LBB1882:
 1127              	.LBB1879:
 1128              	.LBB1876:
 1129              	.LBB1873:
 1130              	.LBB1870:
 142:C:/Renesas/e2studio_2021_01_workspace_RZA2M_ANPR/ANPR_RZA2M_EBK/src/tensorflow_lite/third_party/flatbuffers/include/flatbuffers\flexbuffers.h ****                     : static_cast<R>(flatbuffers::ReadScalar<T8>(data)));
 1131              		.loc 1 142 0
 1132 01ac 002093E5 		ldr	r2, [r3]
 1133 01b0 B5FFFFEA 		b	.L68
 1134              	.LVL121:
 1135              	.L160:
 1136              	.LBE1870:
 1137              	.LBE1873:
 1138              	.LBE1876:
 1139              	.LBE1879:
 1140              	.LBE1882:
 1141              	.LBE1885:
 1142              	.LBE1888:
 1143              	.LBE1924:
 1144              	.LBE1945:
 1145              	.LBE1956:
 1146              	.LBE2214:
 1147              	.LBB2215:
 1148              	.LBB2205:
 1149              	.LBB2198:
 1150              	.LBB1969:
 1151              	.LBB1970:
 1152              	.LBB1971:
 138:C:/Renesas/e2studio_2021_01_workspace_RZA2M_ANPR/ANPR_RZA2M_EBK/src/tensorflow_lite/third_party/flatbuffers/include/flatbuffers\flexbuffers.h ****                     ? static_cast<R>(flatbuffers::ReadScalar<T1>(data))
 1153              		.loc 1 138 0
 1154 01b4 03005AE3 		cmp	r10, #3
 1155 01b8 0500008A 		bhi	.L132
 139:C:/Renesas/e2studio_2021_01_workspace_RZA2M_ANPR/ANPR_RZA2M_EBK/src/tensorflow_lite/third_party/flatbuffers/include/flatbuffers\flexbuffers.h ****                     : static_cast<R>(flatbuffers::ReadScalar<T2>(data)))
 1156              		.loc 1 139 0
 1157 01bc 01005AE1 		cmp	r10, r1
 1158 01c0 5F00000A 		beq	.L151
 1159              	.LVL122:
 1160              	.L133:
 1161 01c4 F000D4E1 		ldrsh	r0, [r4]
 1162              	.LVL123:
 1163 01c8 F3FFFFEA 		b	.L75
 1164              	.LVL124:
 1165              	.L101:
 1166              	.LBE1971:
 1167              	.LBE1970:
 1168              	.LBE1969:
 1169              	.LBB1972:
 1170              	.LBB1973:
 1171              	.LBB1974:
 142:C:/Renesas/e2studio_2021_01_workspace_RZA2M_ANPR/ANPR_RZA2M_EBK/src/tensorflow_lite/third_party/flatbuffers/include/flatbuffers\flexbuffers.h ****                     : static_cast<R>(flatbuffers::ReadScalar<T8>(data)));
 1172              		.loc 1 142 0
 1173 01cc 080052E3 		cmp	r2, #8
 1174 01d0 A700000A 		beq	.L104
 1175              	.LVL125:
 1176              	.L132:
 1177 01d4 000094E5 		ldr	r0, [r4]
 1178              	.LVL126:
 1179 01d8 EFFFFFEA 		b	.L75
 1180              	.LVL127:
 1181              	.L159:
 1182              	.LBE1974:
 1183              	.LBE1973:
 1184              	.LBE1972:
 1185              	.LBE2198:
 1186              	.LBE2205:
 1187              	.LBE2215:
 1188              	.LBB2216:
 1189              	.LBB1833:
 1190              	.LBB1754:
 1191              	.LBB1755:
 1192              	.LBB1756:
 1193              	.LBB1757:
 1194              	.LBB1758:
 1195              	.LBB1759:
 1196              	.LBB1760:
 138:C:/Renesas/e2studio_2021_01_workspace_RZA2M_ANPR/ANPR_RZA2M_EBK/src/tensorflow_lite/third_party/flatbuffers/include/flatbuffers\flexbuffers.h ****                     ? static_cast<R>(flatbuffers::ReadScalar<T1>(data))
 1197              		.loc 1 138 0
 1198 01dc 030052E3 		cmp	r2, #3
 1199              	.LBE1760:
 1200              	.LBE1759:
 1201              	.LBE1758:
 1202              	.LBE1757:
 1203              	.LBE1756:
 1204              	.LBE1755:
 1205              	.LBE1754:
 1206              	.LBE1833:
 1207              	.LBE2216:
 1208              	.LBB2217:
 1209              	.LBB1732:
 1210              		.loc 1 879 0
 1211 01e0 024044E2 		sub	r4, r4, #2
 880:C:/Renesas/e2studio_2021_01_workspace_RZA2M_ANPR/ANPR_RZA2M_EBK/src/tensorflow_lite/third_party/flatbuffers/include/flatbuffers\flexbuffers.h ****   end -= byte_width;  // The root data item.
 1212              		.loc 1 880 0
 1213 01e4 024044E0 		sub	r4, r4, r2
 1214              	.LVL128:
 1215              	.LBE1732:
 1216              	.LBE2217:
 1217              	.LBB2218:
 1218              	.LBB1834:
 1219              	.LBB1824:
 1220              	.LBB1780:
 1221              	.LBB1776:
 1222              	.LBB1772:
 1223              	.LBB1769:
 1224              	.LBB1766:
 1225              	.LBB1763:
 138:C:/Renesas/e2studio_2021_01_workspace_RZA2M_ANPR/ANPR_RZA2M_EBK/src/tensorflow_lite/third_party/flatbuffers/include/flatbuffers\flexbuffers.h ****                     ? static_cast<R>(flatbuffers::ReadScalar<T1>(data))
 1226              		.loc 1 138 0
 1227 01e8 160000DA 		ble	.L162
 142:C:/Renesas/e2studio_2021_01_workspace_RZA2M_ANPR/ANPR_RZA2M_EBK/src/tensorflow_lite/third_party/flatbuffers/include/flatbuffers\flexbuffers.h ****                     : static_cast<R>(flatbuffers::ReadScalar<T8>(data)));
 1228              		.loc 1 142 0
 1229 01ec 070052E3 		cmp	r2, #7
 1230 01f0 A90000CA 		bgt	.L58
 1231 01f4 002094E5 		ldr	r2, [r4]
 1232              	.LVL129:
 1233              	.L57:
 1234 01f8 033005E2 		and	r3, r5, #3
 1235              	.LBE1763:
 1236              	.LBE1766:
 1237              	.LBE1769:
 1238              	.LBE1772:
 1239              	.LBE1776:
 1240              	.LBE1780:
 1241              	.LBE1824:
 1242              	.LBE1834:
 1243              	.LBE2218:
 1244              	.LBB2219:
 1245              	.LBB1733:
 1246              	.LBB1729:
 1247              	.LBB1726:
 385:C:/Renesas/e2studio_2021_01_workspace_RZA2M_ANPR/ANPR_RZA2M_EBK/src/tensorflow_lite/third_party/flatbuffers/include/flatbuffers\flexbuffers.h ****     type_ = static_cast<Type>(packed_type >> 2);
 1248              		.loc 1 385 0
 1249 01fc 0180A0E3 		mov	r8, #1
 1250 0200 1883A0E1 		lsl	r8, r8, r3
 1251              	.LVL130:
 1252              	.LBE1726:
 1253              	.LBE1729:
 1254              	.LBE1733:
 1255              	.LBE2219:
 1256              	.LBB2220:
 1257              	.LBB1835:
 1258              	.LBB1825:
 1259              	.LBB1781:
 1260              	.LBB1777:
 1261              	.LBB1773:
 176:C:/Renesas/e2studio_2021_01_workspace_RZA2M_ANPR/ANPR_RZA2M_EBK/src/tensorflow_lite/third_party/flatbuffers/include/flatbuffers\flexbuffers.h **** }
 1262              		.loc 1 176 0
 1263 0204 024044E0 		sub	r4, r4, r2
 1264              	.LVL131:
 1265              	.LBE1773:
 1266              	.LBE1777:
 1267              	.LBE1781:
 1268              	.LBB1782:
 1269              	.LBB1783:
 1270              	.LBB1784:
 1271              	.LBB1785:
 1272              	.LBB1786:
 1273              	.LBB1787:
 1274              	.LBB1788:
 1275              	.LBB1789:
 138:C:/Renesas/e2studio_2021_01_workspace_RZA2M_ANPR/ANPR_RZA2M_EBK/src/tensorflow_lite/third_party/flatbuffers/include/flatbuffers\flexbuffers.h ****                     ? static_cast<R>(flatbuffers::ReadScalar<T1>(data))
 1276              		.loc 1 138 0
 1277 0208 030058E3 		cmp	r8, #3
 1278              	.LBE1789:
 1279              	.LBE1788:
 1280              	.LBE1787:
 229:C:/Renesas/e2studio_2021_01_workspace_RZA2M_ANPR/ANPR_RZA2M_EBK/src/tensorflow_lite/third_party/flatbuffers/include/flatbuffers\flexbuffers.h ****   }
 1281              		.loc 1 229 0
 1282 020c 082044E0 		sub	r2, r4, r8
 1283              	.LVL132:
 1284              	.LBB1798:
 1285              	.LBB1794:
 1286              	.LBB1790:
 138:C:/Renesas/e2studio_2021_01_workspace_RZA2M_ANPR/ANPR_RZA2M_EBK/src/tensorflow_lite/third_party/flatbuffers/include/flatbuffers\flexbuffers.h ****                     ? static_cast<R>(flatbuffers::ReadScalar<T1>(data))
 1287              		.loc 1 138 0
 1288 0210 7800008A 		bhi	.L59
 139:C:/Renesas/e2studio_2021_01_workspace_RZA2M_ANPR/ANPR_RZA2M_EBK/src/tensorflow_lite/third_party/flatbuffers/include/flatbuffers\flexbuffers.h ****                     : static_cast<R>(flatbuffers::ReadScalar<T2>(data)))
 1289              		.loc 1 139 0
 1290 0214 000053E3 		cmp	r3, #0
 1291              	.LBE1790:
 1292              	.LBE1794:
 1293              	.LBE1798:
 1294              	.LBE1786:
 1295              	.LBE1785:
 1296              	.LBE1784:
 1297              	.LBE1783:
 1298              	.LBE1782:
 1299              	.LBE1825:
 1300              	.LBE1835:
 1301              	.LBE2220:
 1302              	.LBB2221:
 1303              	.LBB1957:
 1304              	.LBB1946:
 1305              	.LBB1925:
 341:C:/Renesas/e2studio_2021_01_workspace_RZA2M_ANPR/ANPR_RZA2M_EBK/src/tensorflow_lite/third_party/flatbuffers/include/flatbuffers\flexbuffers.h ****     return TypedVector(Indirect(keys_offset, byte_width_),
 1306              		.loc 1 341 0
 1307 0218 0310A0E3 		mov	r1, #3
 1308              	.LBE1925:
 1309              	.LBE1946:
 1310              	.LBE1957:
 1311              	.LBE2221:
 1312              	.LBB2222:
 1313              	.LBB1836:
 1314              	.LBB1826:
 1315              	.LBB1818:
 1316              	.LBB1814:
 1317              	.LBB1810:
 1318              	.LBB1806:
 1319              	.LBB1802:
 1320              	.LBB1799:
 1321              	.LBB1795:
 1322              	.LBB1791:
 139:C:/Renesas/e2studio_2021_01_workspace_RZA2M_ANPR/ANPR_RZA2M_EBK/src/tensorflow_lite/third_party/flatbuffers/include/flatbuffers\flexbuffers.h ****                     : static_cast<R>(flatbuffers::ReadScalar<T2>(data)))
 1323              		.loc 1 139 0
 1324 021c 0000D205 		ldrbeq	r0, [r2]	@ zero_extendqisi2
 1325              	.LVL133:
 1326              	.LBE1791:
 1327              	.LBE1795:
 1328              	.LBE1799:
 1329              	.LBE1802:
 1330              	.LBE1806:
 1331              	.LBE1810:
 1332              	.LBE1814:
 1333              	.LBE1818:
 1334              	.LBE1826:
 1335              	.LBE1836:
 1336              	.LBE2222:
 1337              	.LBB2223:
 1338              	.LBB1958:
 1339              	.LBB1947:
 1340              	.LBB1926:
 341:C:/Renesas/e2studio_2021_01_workspace_RZA2M_ANPR/ANPR_RZA2M_EBK/src/tensorflow_lite/third_party/flatbuffers/include/flatbuffers\flexbuffers.h ****     return TypedVector(Indirect(keys_offset, byte_width_),
 1341              		.loc 1 341 0
 1342 0220 111344E0 		sub	r1, r4, r1, lsl r3
 1343              	.LBE1926:
 1344              	.LBE1947:
 1345              	.LBE1958:
 1346              	.LBE2223:
 1347              	.LBB2224:
 1348              	.LBB1837:
 1349              	.LBB1827:
 1350              	.LBB1819:
 1351              	.LBB1815:
 1352              	.LBB1811:
 1353              	.LBB1807:
 1354              	.LBB1803:
 1355              	.LBB1800:
 1356              	.LBB1796:
 1357              	.LBB1792:
 139:C:/Renesas/e2studio_2021_01_workspace_RZA2M_ANPR/ANPR_RZA2M_EBK/src/tensorflow_lite/third_party/flatbuffers/include/flatbuffers\flexbuffers.h ****                     : static_cast<R>(flatbuffers::ReadScalar<T2>(data)))
 1358              		.loc 1 139 0
 1359 0224 B000D211 		ldrhne	r0, [r2]
 1360              	.LBE1792:
 1361              	.LBE1796:
 1362              	.LBE1800:
 1363              	.LBE1803:
 1364              	.LBE1807:
 1365              	.LBE1811:
 1366              	.LBE1815:
 1367              	.LBE1819:
 1368              	.LBE1827:
 1369              	.LBE1837:
 1370              	.LBE2224:
 1371              	.LBB2225:
 1372              	.LBB1959:
 1373              	.LBB1948:
 1374              	.LBB1927:
 1375              	.LBB1889:
 1376              	.LBB1890:
 1377              	.LBB1891:
 1378              	.LBB1892:
 1379              	.LBB1893:
 1380 0228 010058E3 		cmp	r8, #1
 1381              	.LBE1893:
 1382              	.LBE1892:
 1383              	.LBE1891:
 1384              	.LBE1890:
 1385              	.LBE1889:
 1386              	.LBE1927:
 1387              	.LBE1948:
 1388              	.LBE1959:
 1389              	.LBE2225:
 1390              	.LBB2226:
 1391              	.LBB1734:
 1392              	.LBB1730:
 1393              	.LBB1727:
 385:C:/Renesas/e2studio_2021_01_workspace_RZA2M_ANPR/ANPR_RZA2M_EBK/src/tensorflow_lite/third_party/flatbuffers/include/flatbuffers\flexbuffers.h ****     type_ = static_cast<Type>(packed_type >> 2);
 1394              		.loc 1 385 0
 1395 022c 78A0EFE6 		uxtb	r10, r8
 1396              	.LVL134:
 1397              	.LBE1727:
 1398              	.LBE1730:
 1399              	.LBE1734:
 1400              	.LBE2226:
 1401              	.LBB2227:
 1402              	.LBB1838:
 1403              	.LBB1828:
 1404              	.LBB1820:
 1405              	.LBB1816:
 1406              	.LBB1812:
 1407              	.LBB1808:
 1408              	.LBB1804:
 229:C:/Renesas/e2studio_2021_01_workspace_RZA2M_ANPR/ANPR_RZA2M_EBK/src/tensorflow_lite/third_party/flatbuffers/include/flatbuffers\flexbuffers.h ****   }
 1409              		.loc 1 229 0
 1410 0230 0090A0E1 		mov	r9, r0
 1411              	.LBE1804:
 1412              	.LBE1808:
 1413              	.LBE1812:
 1414              	.LBE1816:
 1415              	.LBE1820:
 1416              	.LBE1828:
 1417              	.LBE1838:
 1418              	.LBE2227:
 1419              	.LBB2228:
 1420              	.LBB1960:
 1421              	.LBB1949:
 1422              	.LBB1928:
 1423              	.LBB1910:
 1424              	.LBB1903:
 1425              	.LBB1900:
 1426              	.LBB1897:
 1427              	.LBB1894:
 139:C:/Renesas/e2studio_2021_01_workspace_RZA2M_ANPR/ANPR_RZA2M_EBK/src/tensorflow_lite/third_party/flatbuffers/include/flatbuffers\flexbuffers.h ****                     : static_cast<R>(flatbuffers::ReadScalar<T2>(data)))
 1428              		.loc 1 139 0
 1429 0234 BB0000DA 		ble	.L163
 1430              	.LVL135:
 1431              	.LBE1894:
 1432              	.LBE1897:
 1433              	.LBE1900:
 176:C:/Renesas/e2studio_2021_01_workspace_RZA2M_ANPR/ANPR_RZA2M_EBK/src/tensorflow_lite/third_party/flatbuffers/include/flatbuffers\flexbuffers.h **** }
 1434              		.loc 1 176 0
 1435 0238 B050D1E1 		ldrh	r5, [r1]
 1436              	.LVL136:
 1437              	.LBE1903:
 1438              	.LBE1910:
 1439              	.LBB1911:
 1440              	.LBB1855:
 1441              	.LBB1851:
 139:C:/Renesas/e2studio_2021_01_workspace_RZA2M_ANPR/ANPR_RZA2M_EBK/src/tensorflow_lite/third_party/flatbuffers/include/flatbuffers\flexbuffers.h ****                     : static_cast<R>(flatbuffers::ReadScalar<T2>(data)))
 1442              		.loc 1 139 0
 1443 023c B82091E1 		ldrh	r2, [r1, r8]
 1444              	.LBE1851:
 1445              	.LBE1855:
 1446              	.LBE1911:
 1447              	.LBB1912:
 1448              	.LBB1904:
 176:C:/Renesas/e2studio_2021_01_workspace_RZA2M_ANPR/ANPR_RZA2M_EBK/src/tensorflow_lite/third_party/flatbuffers/include/flatbuffers\flexbuffers.h **** }
 1449              		.loc 1 176 0
 1450 0240 055041E0 		sub	r5, r1, r5
 1451              	.LVL137:
 1452 0244 89FFFFEA 		b	.L65
 1453              	.LVL138:
 1454              	.L162:
 1455              	.LBE1904:
 1456              	.LBE1912:
 1457              	.LBE1928:
 1458              	.LBE1949:
 1459              	.LBE1960:
 1460              	.LBE2228:
 1461              	.LBB2229:
 1462              	.LBB1839:
 1463              	.LBB1829:
 1464              	.LBB1821:
 1465              	.LBB1778:
 1466              	.LBB1774:
 1467              	.LBB1770:
 1468              	.LBB1767:
 1469              	.LBB1764:
 139:C:/Renesas/e2studio_2021_01_workspace_RZA2M_ANPR/ANPR_RZA2M_EBK/src/tensorflow_lite/third_party/flatbuffers/include/flatbuffers\flexbuffers.h ****                     : static_cast<R>(flatbuffers::ReadScalar<T2>(data)))
 1470              		.loc 1 139 0
 1471 0248 010052E3 		cmp	r2, #1
 1472 024c 0020D4D5 		ldrble	r2, [r4]	@ zero_extendqisi2
 1473              	.LVL139:
 1474 0250 B020D4C1 		ldrhgt	r2, [r4]
 1475 0254 E7FFFFEA 		b	.L57
 1476              	.LVL140:
 1477              	.L84:
 1478              	.LBE1764:
 1479              	.LBE1767:
 1480              	.LBE1770:
 1481              	.LBE1774:
 1482              	.LBE1778:
 1483              	.LBE1821:
 1484              	.LBE1829:
 1485              	.LBE1839:
 1486              	.LBE2229:
 1487              	.LBB2230:
 1488              	.LBB2206:
 1489              	.LBB2199:
 1490              	.LBB1985:
 1491              	.LBB1986:
 1492              	.LBB1987:
 1493              	.LBB1988:
 1494              	.LBB1989:
 1495              	.LBB1990:
 1496              	.LBB1991:
 1497              	.LBB1992:
 138:C:/Renesas/e2studio_2021_01_workspace_RZA2M_ANPR/ANPR_RZA2M_EBK/src/tensorflow_lite/third_party/flatbuffers/include/flatbuffers\flexbuffers.h ****                     ? static_cast<R>(flatbuffers::ReadScalar<T1>(data))
 1498              		.loc 1 138 0
 1499 0258 03005AE3 		cmp	r10, #3
 1500 025c 9E00008A 		bhi	.L124
 139:C:/Renesas/e2studio_2021_01_workspace_RZA2M_ANPR/ANPR_RZA2M_EBK/src/tensorflow_lite/third_party/flatbuffers/include/flatbuffers\flexbuffers.h ****                     : static_cast<R>(flatbuffers::ReadScalar<T2>(data)))
 1501              		.loc 1 139 0
 1502 0260 01005AE3 		cmp	r10, #1
 1503 0264 0000D405 		ldrbeq	r0, [r4]	@ zero_extendqisi2
 1504              	.LVL141:
 1505 0268 B000D411 		ldrhne	r0, [r4]
 1506              	.L126:
 1507              	.LVL142:
 1508              	.LBE1992:
 1509              	.LBE1991:
 1510              	.LBE1990:
 1511              	.LBE1989:
 1512              	.LBE1988:
 1513              	.LBE1987:
 1514              	.LBB2005:
 1515              	.LBB2006:
 1516              	.LBB2007:
 1517              	.LBB2008:
 1518              	.LBB2009:
 1519              	.LBB2010:
 1520              	.LBB2011:
 138:C:/Renesas/e2studio_2021_01_workspace_RZA2M_ANPR/ANPR_RZA2M_EBK/src/tensorflow_lite/third_party/flatbuffers/include/flatbuffers\flexbuffers.h ****                     ? static_cast<R>(flatbuffers::ReadScalar<T1>(data))
 1521              		.loc 1 138 0
 1522 026c 030052E3 		cmp	r2, #3
 1523              	.LBE2011:
 1524              	.LBE2010:
 1525              	.LBE2009:
 229:C:/Renesas/e2studio_2021_01_workspace_RZA2M_ANPR/ANPR_RZA2M_EBK/src/tensorflow_lite/third_party/flatbuffers/include/flatbuffers\flexbuffers.h ****   }
 1526              		.loc 1 229 0
 1527 0270 000082E0 		add	r0, r2, r0
 1528              	.LVL143:
 1529 0274 000044E0 		sub	r0, r4, r0
 1530              	.LVL144:
 1531              	.LBB2020:
 1532              	.LBB2017:
 1533              	.LBB2014:
 138:C:/Renesas/e2studio_2021_01_workspace_RZA2M_ANPR/ANPR_RZA2M_EBK/src/tensorflow_lite/third_party/flatbuffers/include/flatbuffers\flexbuffers.h ****                     ? static_cast<R>(flatbuffers::ReadScalar<T1>(data))
 1534              		.loc 1 138 0
 1535 0278 9300008A 		bhi	.L128
 139:C:/Renesas/e2studio_2021_01_workspace_RZA2M_ANPR/ANPR_RZA2M_EBK/src/tensorflow_lite/third_party/flatbuffers/include/flatbuffers\flexbuffers.h ****                     : static_cast<R>(flatbuffers::ReadScalar<T2>(data)))
 1536              		.loc 1 139 0
 1537 027c 010052E3 		cmp	r2, #1
 1538 0280 0000D0D5 		ldrble	r0, [r0]	@ zero_extendqisi2
 1539              	.LVL145:
 1540 0284 B000D0C1 		ldrhgt	r0, [r0]
 1541 0288 C3FFFFEA 		b	.L75
 1542              	.LVL146:
 1543              	.L83:
 1544              	.LBE2014:
 1545              	.LBE2017:
 1546              	.LBE2020:
 1547              	.LBE2008:
 1548              	.LBE2007:
 1549              	.LBE2006:
 1550              	.LBE2005:
 1551              	.LBE1986:
 1552              	.LBE1985:
 1553              	.LBB2035:
 1554              	.LBB2036:
 1555              	.LBB2037:
 1556              	.LBB2038:
 1557              	.LBB2039:
 1558              	.LBB2040:
 1559              	.LBB2041:
 1560              	.LBB2042:
 138:C:/Renesas/e2studio_2021_01_workspace_RZA2M_ANPR/ANPR_RZA2M_EBK/src/tensorflow_lite/third_party/flatbuffers/include/flatbuffers\flexbuffers.h ****                     ? static_cast<R>(flatbuffers::ReadScalar<T1>(data))
 1561              		.loc 1 138 0
 1562 028c 03005AE3 		cmp	r10, #3
 1563 0290 6D00008A 		bhi	.L109
 139:C:/Renesas/e2studio_2021_01_workspace_RZA2M_ANPR/ANPR_RZA2M_EBK/src/tensorflow_lite/third_party/flatbuffers/include/flatbuffers\flexbuffers.h ****                     : static_cast<R>(flatbuffers::ReadScalar<T2>(data)))
 1564              		.loc 1 139 0
 1565 0294 01005AE3 		cmp	r10, #1
 1566 0298 0080D405 		ldrbeq	r8, [r4]	@ zero_extendqisi2
 1567 029c B080D411 		ldrhne	r8, [r4]
 1568              	.L111:
 1569              	.LVL147:
 1570              	.LBE2042:
 1571              	.LBE2041:
 1572              	.LBE2040:
 1573              	.LBE2039:
 1574              	.LBE2038:
 1575              	.LBE2037:
 1576              	.LBB2057:
 1577              	.LBB2058:
 1578              	.LBB2059:
 138:C:/Renesas/e2studio_2021_01_workspace_RZA2M_ANPR/ANPR_RZA2M_EBK/src/tensorflow_lite/third_party/flatbuffers/include/flatbuffers\flexbuffers.h ****                     ? static_cast<R>(flatbuffers::ReadScalar<T1>(data))
 1579              		.loc 1 138 0
 1580 02a0 030052E3 		cmp	r2, #3
 1581              	.LBE2059:
 1582              	.LBE2058:
 1583              	.LBE2057:
 1584              	.LBB2070:
 1585              	.LBB2054:
 1586              	.LBB2051:
 176:C:/Renesas/e2studio_2021_01_workspace_RZA2M_ANPR/ANPR_RZA2M_EBK/src/tensorflow_lite/third_party/flatbuffers/include/flatbuffers\flexbuffers.h **** }
 1587              		.loc 1 176 0
 1588 02a4 084044E0 		sub	r4, r4, r8
 1589              	.LVL148:
 1590              	.LBE2051:
 1591              	.LBE2054:
 1592              	.LBE2070:
 1593              	.LBB2071:
 1594              	.LBB2066:
 1595              	.LBB2062:
 138:C:/Renesas/e2studio_2021_01_workspace_RZA2M_ANPR/ANPR_RZA2M_EBK/src/tensorflow_lite/third_party/flatbuffers/include/flatbuffers\flexbuffers.h ****                     ? static_cast<R>(flatbuffers::ReadScalar<T1>(data))
 1596              		.loc 1 138 0
 1597 02a8 6200008A 		bhi	.L113
 139:C:/Renesas/e2studio_2021_01_workspace_RZA2M_ANPR/ANPR_RZA2M_EBK/src/tensorflow_lite/third_party/flatbuffers/include/flatbuffers\flexbuffers.h ****                     : static_cast<R>(flatbuffers::ReadScalar<T2>(data)))
 1598              		.loc 1 139 0
 1599 02ac 010052E3 		cmp	r2, #1
 1600 02b0 150000DA 		ble	.L155
 1601              	.LVL149:
 1602              	.L114:
 1603 02b4 F030D4E1 		ldrsh	r3, [r4]
 1604 02b8 903A07EE 		vmov	s15, r3	@ int
 1605 02bc E70BF8EE 		vcvt.f64.s32	d16, s15
 1606              	.L115:
 1607              	.LBE2062:
 1608              	.LBE2066:
 1609              	.LBE2071:
 435:C:/Renesas/e2studio_2021_01_workspace_RZA2M_ANPR/ANPR_RZA2M_EBK/src/tensorflow_lite/third_party/flatbuffers/include/flatbuffers\flexbuffers.h ****         case FBT_NULL: return 0;
 1610              		.loc 1 435 0
 1611 02c0 300B51EC 		vmov	r0, r1, d16
 1612              	.LVL150:
 1613 02c4 FEFFFFEB 		bl	__aeabi_d2lz
 1614              	.LVL151:
 1615 02c8 B3FFFFEA 		b	.L75
 1616              	.LVL152:
 1617              	.L82:
 1618              	.LBE2036:
 1619              	.LBE2035:
 1620              	.LBB2081:
 1621              	.LBB2082:
 1622              	.LBB2083:
 1623              	.LBB2084:
 1624              	.LBB2085:
 1625              	.LBB2086:
 138:C:/Renesas/e2studio_2021_01_workspace_RZA2M_ANPR/ANPR_RZA2M_EBK/src/tensorflow_lite/third_party/flatbuffers/include/flatbuffers\flexbuffers.h ****                     ? static_cast<R>(flatbuffers::ReadScalar<T1>(data))
 1626              		.loc 1 138 0
 1627 02cc 03005AE3 		cmp	r10, #3
 1628 02d0 6D00008A 		bhi	.L97
 139:C:/Renesas/e2studio_2021_01_workspace_RZA2M_ANPR/ANPR_RZA2M_EBK/src/tensorflow_lite/third_party/flatbuffers/include/flatbuffers\flexbuffers.h ****                     : static_cast<R>(flatbuffers::ReadScalar<T2>(data)))
 1629              		.loc 1 139 0
 1630 02d4 01005AE3 		cmp	r10, #1
 1631 02d8 0080D405 		ldrbeq	r8, [r4]	@ zero_extendqisi2
 1632 02dc B080D411 		ldrhne	r8, [r4]
 1633              	.L99:
 1634              	.LVL153:
 1635              	.LBE2086:
 1636              	.LBE2085:
 1637              	.LBE2084:
 1638              	.LBE2083:
 1639              	.LBE2082:
 1640              	.LBE2081:
 1641              	.LBB2101:
 1642              	.LBB1981:
 1643              	.LBB1977:
 138:C:/Renesas/e2studio_2021_01_workspace_RZA2M_ANPR/ANPR_RZA2M_EBK/src/tensorflow_lite/third_party/flatbuffers/include/flatbuffers\flexbuffers.h ****                     ? static_cast<R>(flatbuffers::ReadScalar<T1>(data))
 1644              		.loc 1 138 0
 1645 02e0 030052E3 		cmp	r2, #3
 1646              	.LBE1977:
 1647              	.LBE1981:
 1648              	.LBE2101:
 1649              	.LBB2102:
 1650              	.LBB2098:
 1651              	.LBB2095:
 176:C:/Renesas/e2studio_2021_01_workspace_RZA2M_ANPR/ANPR_RZA2M_EBK/src/tensorflow_lite/third_party/flatbuffers/include/flatbuffers\flexbuffers.h **** }
 1652              		.loc 1 176 0
 1653 02e4 084044E0 		sub	r4, r4, r8
 1654              	.LVL154:
 1655              	.LBE2095:
 1656              	.LBE2098:
 1657              	.LBE2102:
 1658              	.LBB2103:
 1659              	.LBB1982:
 1660              	.LBB1978:
 138:C:/Renesas/e2studio_2021_01_workspace_RZA2M_ANPR/ANPR_RZA2M_EBK/src/tensorflow_lite/third_party/flatbuffers/include/flatbuffers\flexbuffers.h ****                     ? static_cast<R>(flatbuffers::ReadScalar<T1>(data))
 1661              		.loc 1 138 0
 1662 02e8 B7FFFF8A 		bhi	.L101
 139:C:/Renesas/e2studio_2021_01_workspace_RZA2M_ANPR/ANPR_RZA2M_EBK/src/tensorflow_lite/third_party/flatbuffers/include/flatbuffers\flexbuffers.h ****                     : static_cast<R>(flatbuffers::ReadScalar<T2>(data)))
 1663              		.loc 1 139 0
 1664 02ec 010052E3 		cmp	r2, #1
 1665 02f0 190000DA 		ble	.L153
 1666              	.LVL155:
 1667              	.L102:
 1668 02f4 B000D4E1 		ldrh	r0, [r4]
 1669              	.LVL156:
 1670 02f8 A7FFFFEA 		b	.L75
 1671              	.LVL157:
 1672              	.L79:
 1673              	.LBE1978:
 1674              	.LBE1982:
 1675              	.LBE2103:
 1676              	.LBB2104:
 1677              	.LBB2105:
 1678              	.LBB2106:
 138:C:/Renesas/e2studio_2021_01_workspace_RZA2M_ANPR/ANPR_RZA2M_EBK/src/tensorflow_lite/third_party/flatbuffers/include/flatbuffers\flexbuffers.h ****                     ? static_cast<R>(flatbuffers::ReadScalar<T1>(data))
 1679              		.loc 1 138 0
 1680 02fc 03005AE3 		cmp	r10, #3
 1681 0300 5500008A 		bhi	.L105
 139:C:/Renesas/e2studio_2021_01_workspace_RZA2M_ANPR/ANPR_RZA2M_EBK/src/tensorflow_lite/third_party/flatbuffers/include/flatbuffers\flexbuffers.h ****                     : static_cast<R>(flatbuffers::ReadScalar<T2>(data)))
 1682              		.loc 1 139 0
 1683 0304 01005AE3 		cmp	r10, #1
 1684 0308 E9FFFF1A 		bne	.L114
 1685              	.LVL158:
 1686              	.L155:
 1687              	.LBE2106:
 1688              	.LBE2105:
 1689              	.LBE2104:
 1690              	.LBB2109:
 1691              	.LBB2077:
 1692              	.LBB2072:
 1693              	.LBB2067:
 1694              	.LBB2063:
 1695 030c D030D4E1 		ldrsb	r3, [r4]
 1696 0310 903A07EE 		vmov	s15, r3	@ int
 1697 0314 E70BF8EE 		vcvt.f64.s32	d16, s15
 1698 0318 E8FFFFEA 		b	.L115
 1699              	.LVL159:
 1700              	.L81:
 1701              	.LBE2063:
 1702              	.LBE2067:
 1703              	.LBE2072:
 1704              	.LBE2077:
 1705              	.LBE2109:
 1706              	.LBB2110:
 1707              	.LBB2111:
 1708              	.LBB2112:
 1709              	.LBB2113:
 1710              	.LBB2114:
 1711              	.LBB2115:
 138:C:/Renesas/e2studio_2021_01_workspace_RZA2M_ANPR/ANPR_RZA2M_EBK/src/tensorflow_lite/third_party/flatbuffers/include/flatbuffers\flexbuffers.h ****                     ? static_cast<R>(flatbuffers::ReadScalar<T1>(data))
 1712              		.loc 1 138 0
 1713 031c 03005AE3 		cmp	r10, #3
 1714 0320 5500008A 		bhi	.L86
 139:C:/Renesas/e2studio_2021_01_workspace_RZA2M_ANPR/ANPR_RZA2M_EBK/src/tensorflow_lite/third_party/flatbuffers/include/flatbuffers\flexbuffers.h ****                     : static_cast<R>(flatbuffers::ReadScalar<T2>(data)))
 1715              		.loc 1 139 0
 1716 0324 01005AE3 		cmp	r10, #1
 1717 0328 0080D405 		ldrbeq	r8, [r4]	@ zero_extendqisi2
 1718 032c B080D411 		ldrhne	r8, [r4]
 1719              	.L88:
 1720              	.LVL160:
 1721              	.LBE2115:
 1722              	.LBE2114:
 1723              	.LBE2113:
 1724              	.LBE2112:
 1725              	.LBE2111:
 1726              	.LBE2110:
 1727              	.LBB2130:
 1728              	.LBB2131:
 1729              	.LBB2132:
 138:C:/Renesas/e2studio_2021_01_workspace_RZA2M_ANPR/ANPR_RZA2M_EBK/src/tensorflow_lite/third_party/flatbuffers/include/flatbuffers\flexbuffers.h ****                     ? static_cast<R>(flatbuffers::ReadScalar<T1>(data))
 1730              		.loc 1 138 0
 1731 0330 030052E3 		cmp	r2, #3
 1732              	.LBE2132:
 1733              	.LBE2131:
 1734              	.LBE2130:
 1735              	.LBB2135:
 1736              	.LBB2127:
 1737              	.LBB2124:
 176:C:/Renesas/e2studio_2021_01_workspace_RZA2M_ANPR/ANPR_RZA2M_EBK/src/tensorflow_lite/third_party/flatbuffers/include/flatbuffers\flexbuffers.h **** }
 1738              		.loc 1 176 0
 1739 0334 084044E0 		sub	r4, r4, r8
 1740              	.LVL161:
 1741              	.LBE2124:
 1742              	.LBE2127:
 1743              	.LBE2135:
 1744              	.LBB2136:
 1745              	.LBB2134:
 1746              	.LBB2133:
 138:C:/Renesas/e2studio_2021_01_workspace_RZA2M_ANPR/ANPR_RZA2M_EBK/src/tensorflow_lite/third_party/flatbuffers/include/flatbuffers\flexbuffers.h ****                     ? static_cast<R>(flatbuffers::ReadScalar<T1>(data))
 1747              		.loc 1 138 0
 1748 0338 A5FFFF8A 		bhi	.L132
 139:C:/Renesas/e2studio_2021_01_workspace_RZA2M_ANPR/ANPR_RZA2M_EBK/src/tensorflow_lite/third_party/flatbuffers/include/flatbuffers\flexbuffers.h ****                     : static_cast<R>(flatbuffers::ReadScalar<T2>(data)))
 1749              		.loc 1 139 0
 1750 033c 010052E3 		cmp	r2, #1
 1751 0340 9FFFFFCA 		bgt	.L133
 1752              	.LVL162:
 1753              	.L151:
 1754 0344 D000D4E1 		ldrsb	r0, [r4]
 1755              	.LVL163:
 1756 0348 93FFFFEA 		b	.L75
 1757              	.LVL164:
 1758              	.L77:
 1759              	.LBE2133:
 1760              	.LBE2134:
 1761              	.LBE2136:
 1762              	.LBB2137:
 1763              	.LBB2138:
 1764              	.LBB2139:
 138:C:/Renesas/e2studio_2021_01_workspace_RZA2M_ANPR/ANPR_RZA2M_EBK/src/tensorflow_lite/third_party/flatbuffers/include/flatbuffers\flexbuffers.h ****                     ? static_cast<R>(flatbuffers::ReadScalar<T1>(data))
 1765              		.loc 1 138 0
 1766 034c 03005AE3 		cmp	r10, #3
 1767 0350 4500008A 		bhi	.L93
 139:C:/Renesas/e2studio_2021_01_workspace_RZA2M_ANPR/ANPR_RZA2M_EBK/src/tensorflow_lite/third_party/flatbuffers/include/flatbuffers\flexbuffers.h ****                     : static_cast<R>(flatbuffers::ReadScalar<T2>(data)))
 1768              		.loc 1 139 0
 1769 0354 01005AE3 		cmp	r10, #1
 1770 0358 E5FFFF1A 		bne	.L102
 1771              	.LVL165:
 1772              	.L153:
 1773              	.LBE2139:
 1774              	.LBE2138:
 1775              	.LBE2137:
 1776              	.LBB2142:
 1777              	.LBB1983:
 1778              	.LBB1979:
 1779 035c 0000D4E5 		ldrb	r0, [r4]	@ zero_extendqisi2
 1780              	.LVL166:
 1781 0360 8DFFFFEA 		b	.L75
 1782              	.LVL167:
 1783              	.L80:
 1784              	.LBE1979:
 1785              	.LBE1983:
 1786              	.LBE2142:
 1787              	.LBB2143:
 1788              	.LBB2144:
 1789              	.LBB2145:
 1790              	.LBB2146:
 1791              	.LBB2147:
 1792              	.LBB2148:
 1793              	.LBB2149:
 138:C:/Renesas/e2studio_2021_01_workspace_RZA2M_ANPR/ANPR_RZA2M_EBK/src/tensorflow_lite/third_party/flatbuffers/include/flatbuffers\flexbuffers.h ****                     ? static_cast<R>(flatbuffers::ReadScalar<T1>(data))
 1794              		.loc 1 138 0
 1795 0364 03005AE3 		cmp	r10, #3
 1796 0368 5300008A 		bhi	.L117
 139:C:/Renesas/e2studio_2021_01_workspace_RZA2M_ANPR/ANPR_RZA2M_EBK/src/tensorflow_lite/third_party/flatbuffers/include/flatbuffers\flexbuffers.h ****                     : static_cast<R>(flatbuffers::ReadScalar<T2>(data)))
 1797              		.loc 1 139 0
 1798 036c 01005AE3 		cmp	r10, #1
 1799 0370 0080D405 		ldrbeq	r8, [r4]	@ zero_extendqisi2
 1800 0374 B080D411 		ldrhne	r8, [r4]
 1801              	.L119:
 1802              	.LVL168:
 1803              	.LBE2149:
 1804              	.LBE2148:
 1805              	.LBE2147:
 1806              	.LBE2146:
 1807              	.LBE2145:
 1808              	.LBE2144:
 1809              	.LBE2143:
 1810              	.LBB2164:
 1811              	.LBB2165:
 1812              	.LBB2166:
 1813              	.LBB2167:
 1814              		.file 5 "C:/Renesas/e2studio_2021_01_workspace_RZA2M_ANPR/ANPR_RZA2M_EBK/src/tensorflow_lite/third
   1:C:/Renesas/e2studio_2021_01_workspace_RZA2M_ANPR/ANPR_RZA2M_EBK/src/tensorflow_lite/third_party/flatbuffers/include/flatbuffers\util.h **** /*
   2:C:/Renesas/e2studio_2021_01_workspace_RZA2M_ANPR/ANPR_RZA2M_EBK/src/tensorflow_lite/third_party/flatbuffers/include/flatbuffers\util.h ****  * Copyright 2014 Google Inc. All rights reserved.
   3:C:/Renesas/e2studio_2021_01_workspace_RZA2M_ANPR/ANPR_RZA2M_EBK/src/tensorflow_lite/third_party/flatbuffers/include/flatbuffers\util.h ****  *
   4:C:/Renesas/e2studio_2021_01_workspace_RZA2M_ANPR/ANPR_RZA2M_EBK/src/tensorflow_lite/third_party/flatbuffers/include/flatbuffers\util.h ****  * Licensed under the Apache License, Version 2.0 (the "License");
   5:C:/Renesas/e2studio_2021_01_workspace_RZA2M_ANPR/ANPR_RZA2M_EBK/src/tensorflow_lite/third_party/flatbuffers/include/flatbuffers\util.h ****  * you may not use this file except in compliance with the License.
   6:C:/Renesas/e2studio_2021_01_workspace_RZA2M_ANPR/ANPR_RZA2M_EBK/src/tensorflow_lite/third_party/flatbuffers/include/flatbuffers\util.h ****  * You may obtain a copy of the License at
   7:C:/Renesas/e2studio_2021_01_workspace_RZA2M_ANPR/ANPR_RZA2M_EBK/src/tensorflow_lite/third_party/flatbuffers/include/flatbuffers\util.h ****  *
   8:C:/Renesas/e2studio_2021_01_workspace_RZA2M_ANPR/ANPR_RZA2M_EBK/src/tensorflow_lite/third_party/flatbuffers/include/flatbuffers\util.h ****  *     http://www.apache.org/licenses/LICENSE-2.0
   9:C:/Renesas/e2studio_2021_01_workspace_RZA2M_ANPR/ANPR_RZA2M_EBK/src/tensorflow_lite/third_party/flatbuffers/include/flatbuffers\util.h ****  *
  10:C:/Renesas/e2studio_2021_01_workspace_RZA2M_ANPR/ANPR_RZA2M_EBK/src/tensorflow_lite/third_party/flatbuffers/include/flatbuffers\util.h ****  * Unless required by applicable law or agreed to in writing, software
  11:C:/Renesas/e2studio_2021_01_workspace_RZA2M_ANPR/ANPR_RZA2M_EBK/src/tensorflow_lite/third_party/flatbuffers/include/flatbuffers\util.h ****  * distributed under the License is distributed on an "AS IS" BASIS,
  12:C:/Renesas/e2studio_2021_01_workspace_RZA2M_ANPR/ANPR_RZA2M_EBK/src/tensorflow_lite/third_party/flatbuffers/include/flatbuffers\util.h ****  * WITHOUT WARRANTIES OR CONDITIONS OF ANY KIND, either express or implied.
  13:C:/Renesas/e2studio_2021_01_workspace_RZA2M_ANPR/ANPR_RZA2M_EBK/src/tensorflow_lite/third_party/flatbuffers/include/flatbuffers\util.h ****  * See the License for the specific language governing permissions and
  14:C:/Renesas/e2studio_2021_01_workspace_RZA2M_ANPR/ANPR_RZA2M_EBK/src/tensorflow_lite/third_party/flatbuffers/include/flatbuffers\util.h ****  * limitations under the License.
  15:C:/Renesas/e2studio_2021_01_workspace_RZA2M_ANPR/ANPR_RZA2M_EBK/src/tensorflow_lite/third_party/flatbuffers/include/flatbuffers\util.h ****  */
  16:C:/Renesas/e2studio_2021_01_workspace_RZA2M_ANPR/ANPR_RZA2M_EBK/src/tensorflow_lite/third_party/flatbuffers/include/flatbuffers\util.h **** 
  17:C:/Renesas/e2studio_2021_01_workspace_RZA2M_ANPR/ANPR_RZA2M_EBK/src/tensorflow_lite/third_party/flatbuffers/include/flatbuffers\util.h **** #ifndef FLATBUFFERS_UTIL_H_
  18:C:/Renesas/e2studio_2021_01_workspace_RZA2M_ANPR/ANPR_RZA2M_EBK/src/tensorflow_lite/third_party/flatbuffers/include/flatbuffers\util.h **** #define FLATBUFFERS_UTIL_H_
  19:C:/Renesas/e2studio_2021_01_workspace_RZA2M_ANPR/ANPR_RZA2M_EBK/src/tensorflow_lite/third_party/flatbuffers/include/flatbuffers\util.h **** 
  20:C:/Renesas/e2studio_2021_01_workspace_RZA2M_ANPR/ANPR_RZA2M_EBK/src/tensorflow_lite/third_party/flatbuffers/include/flatbuffers\util.h **** #include <errno.h>
  21:C:/Renesas/e2studio_2021_01_workspace_RZA2M_ANPR/ANPR_RZA2M_EBK/src/tensorflow_lite/third_party/flatbuffers/include/flatbuffers\util.h **** 
  22:C:/Renesas/e2studio_2021_01_workspace_RZA2M_ANPR/ANPR_RZA2M_EBK/src/tensorflow_lite/third_party/flatbuffers/include/flatbuffers\util.h **** #include "flatbuffers/base.h"
  23:C:/Renesas/e2studio_2021_01_workspace_RZA2M_ANPR/ANPR_RZA2M_EBK/src/tensorflow_lite/third_party/flatbuffers/include/flatbuffers\util.h **** #include "flatbuffers/stl_emulation.h"
  24:C:/Renesas/e2studio_2021_01_workspace_RZA2M_ANPR/ANPR_RZA2M_EBK/src/tensorflow_lite/third_party/flatbuffers/include/flatbuffers\util.h **** 
  25:C:/Renesas/e2studio_2021_01_workspace_RZA2M_ANPR/ANPR_RZA2M_EBK/src/tensorflow_lite/third_party/flatbuffers/include/flatbuffers\util.h **** #ifndef FLATBUFFERS_PREFER_PRINTF
  26:C:/Renesas/e2studio_2021_01_workspace_RZA2M_ANPR/ANPR_RZA2M_EBK/src/tensorflow_lite/third_party/flatbuffers/include/flatbuffers\util.h **** #  include <sstream>
  27:C:/Renesas/e2studio_2021_01_workspace_RZA2M_ANPR/ANPR_RZA2M_EBK/src/tensorflow_lite/third_party/flatbuffers/include/flatbuffers\util.h **** #else  // FLATBUFFERS_PREFER_PRINTF
  28:C:/Renesas/e2studio_2021_01_workspace_RZA2M_ANPR/ANPR_RZA2M_EBK/src/tensorflow_lite/third_party/flatbuffers/include/flatbuffers\util.h **** #  include <float.h>
  29:C:/Renesas/e2studio_2021_01_workspace_RZA2M_ANPR/ANPR_RZA2M_EBK/src/tensorflow_lite/third_party/flatbuffers/include/flatbuffers\util.h **** #  include <stdio.h>
  30:C:/Renesas/e2studio_2021_01_workspace_RZA2M_ANPR/ANPR_RZA2M_EBK/src/tensorflow_lite/third_party/flatbuffers/include/flatbuffers\util.h **** #endif  // FLATBUFFERS_PREFER_PRINTF
  31:C:/Renesas/e2studio_2021_01_workspace_RZA2M_ANPR/ANPR_RZA2M_EBK/src/tensorflow_lite/third_party/flatbuffers/include/flatbuffers\util.h **** 
  32:C:/Renesas/e2studio_2021_01_workspace_RZA2M_ANPR/ANPR_RZA2M_EBK/src/tensorflow_lite/third_party/flatbuffers/include/flatbuffers\util.h **** #include <iomanip>
  33:C:/Renesas/e2studio_2021_01_workspace_RZA2M_ANPR/ANPR_RZA2M_EBK/src/tensorflow_lite/third_party/flatbuffers/include/flatbuffers\util.h **** #include <string>
  34:C:/Renesas/e2studio_2021_01_workspace_RZA2M_ANPR/ANPR_RZA2M_EBK/src/tensorflow_lite/third_party/flatbuffers/include/flatbuffers\util.h **** 
  35:C:/Renesas/e2studio_2021_01_workspace_RZA2M_ANPR/ANPR_RZA2M_EBK/src/tensorflow_lite/third_party/flatbuffers/include/flatbuffers\util.h **** namespace flatbuffers {
  36:C:/Renesas/e2studio_2021_01_workspace_RZA2M_ANPR/ANPR_RZA2M_EBK/src/tensorflow_lite/third_party/flatbuffers/include/flatbuffers\util.h **** 
  37:C:/Renesas/e2studio_2021_01_workspace_RZA2M_ANPR/ANPR_RZA2M_EBK/src/tensorflow_lite/third_party/flatbuffers/include/flatbuffers\util.h **** // @locale-independent functions for ASCII characters set.
  38:C:/Renesas/e2studio_2021_01_workspace_RZA2M_ANPR/ANPR_RZA2M_EBK/src/tensorflow_lite/third_party/flatbuffers/include/flatbuffers\util.h **** 
  39:C:/Renesas/e2studio_2021_01_workspace_RZA2M_ANPR/ANPR_RZA2M_EBK/src/tensorflow_lite/third_party/flatbuffers/include/flatbuffers\util.h **** // Fast checking that character lies in closed range: [a <= x <= b]
  40:C:/Renesas/e2studio_2021_01_workspace_RZA2M_ANPR/ANPR_RZA2M_EBK/src/tensorflow_lite/third_party/flatbuffers/include/flatbuffers\util.h **** // using one compare (conditional branch) operator.
  41:C:/Renesas/e2studio_2021_01_workspace_RZA2M_ANPR/ANPR_RZA2M_EBK/src/tensorflow_lite/third_party/flatbuffers/include/flatbuffers\util.h **** inline bool check_ascii_range(char x, char a, char b) {
  42:C:/Renesas/e2studio_2021_01_workspace_RZA2M_ANPR/ANPR_RZA2M_EBK/src/tensorflow_lite/third_party/flatbuffers/include/flatbuffers\util.h ****   FLATBUFFERS_ASSERT(a <= b);
  43:C:/Renesas/e2studio_2021_01_workspace_RZA2M_ANPR/ANPR_RZA2M_EBK/src/tensorflow_lite/third_party/flatbuffers/include/flatbuffers\util.h ****   // (Hacker's Delight): `a <= x <= b` <=> `(x-a) <={u} (b-a)`.
  44:C:/Renesas/e2studio_2021_01_workspace_RZA2M_ANPR/ANPR_RZA2M_EBK/src/tensorflow_lite/third_party/flatbuffers/include/flatbuffers\util.h ****   // The x, a, b will be promoted to int and subtracted without overflow.
  45:C:/Renesas/e2studio_2021_01_workspace_RZA2M_ANPR/ANPR_RZA2M_EBK/src/tensorflow_lite/third_party/flatbuffers/include/flatbuffers\util.h ****   return static_cast<unsigned int>(x - a) <= static_cast<unsigned int>(b - a);
  46:C:/Renesas/e2studio_2021_01_workspace_RZA2M_ANPR/ANPR_RZA2M_EBK/src/tensorflow_lite/third_party/flatbuffers/include/flatbuffers\util.h **** }
  47:C:/Renesas/e2studio_2021_01_workspace_RZA2M_ANPR/ANPR_RZA2M_EBK/src/tensorflow_lite/third_party/flatbuffers/include/flatbuffers\util.h **** 
  48:C:/Renesas/e2studio_2021_01_workspace_RZA2M_ANPR/ANPR_RZA2M_EBK/src/tensorflow_lite/third_party/flatbuffers/include/flatbuffers\util.h **** // Case-insensitive isalpha
  49:C:/Renesas/e2studio_2021_01_workspace_RZA2M_ANPR/ANPR_RZA2M_EBK/src/tensorflow_lite/third_party/flatbuffers/include/flatbuffers\util.h **** inline bool is_alpha(char c) {
  50:C:/Renesas/e2studio_2021_01_workspace_RZA2M_ANPR/ANPR_RZA2M_EBK/src/tensorflow_lite/third_party/flatbuffers/include/flatbuffers\util.h ****   // ASCII only: alpha to upper case => reset bit 0x20 (~0x20 = 0xDF).
  51:C:/Renesas/e2studio_2021_01_workspace_RZA2M_ANPR/ANPR_RZA2M_EBK/src/tensorflow_lite/third_party/flatbuffers/include/flatbuffers\util.h ****   return check_ascii_range(c & 0xDF, 'a' & 0xDF, 'z' & 0xDF);
  52:C:/Renesas/e2studio_2021_01_workspace_RZA2M_ANPR/ANPR_RZA2M_EBK/src/tensorflow_lite/third_party/flatbuffers/include/flatbuffers\util.h **** }
  53:C:/Renesas/e2studio_2021_01_workspace_RZA2M_ANPR/ANPR_RZA2M_EBK/src/tensorflow_lite/third_party/flatbuffers/include/flatbuffers\util.h **** 
  54:C:/Renesas/e2studio_2021_01_workspace_RZA2M_ANPR/ANPR_RZA2M_EBK/src/tensorflow_lite/third_party/flatbuffers/include/flatbuffers\util.h **** // Check (case-insensitive) that `c` is equal to alpha.
  55:C:/Renesas/e2studio_2021_01_workspace_RZA2M_ANPR/ANPR_RZA2M_EBK/src/tensorflow_lite/third_party/flatbuffers/include/flatbuffers\util.h **** inline bool is_alpha_char(char c, char alpha) {
  56:C:/Renesas/e2studio_2021_01_workspace_RZA2M_ANPR/ANPR_RZA2M_EBK/src/tensorflow_lite/third_party/flatbuffers/include/flatbuffers\util.h ****   FLATBUFFERS_ASSERT(is_alpha(alpha));
  57:C:/Renesas/e2studio_2021_01_workspace_RZA2M_ANPR/ANPR_RZA2M_EBK/src/tensorflow_lite/third_party/flatbuffers/include/flatbuffers\util.h ****   // ASCII only: alpha to upper case => reset bit 0x20 (~0x20 = 0xDF).
  58:C:/Renesas/e2studio_2021_01_workspace_RZA2M_ANPR/ANPR_RZA2M_EBK/src/tensorflow_lite/third_party/flatbuffers/include/flatbuffers\util.h ****   return ((c & 0xDF) == (alpha & 0xDF));
  59:C:/Renesas/e2studio_2021_01_workspace_RZA2M_ANPR/ANPR_RZA2M_EBK/src/tensorflow_lite/third_party/flatbuffers/include/flatbuffers\util.h **** }
  60:C:/Renesas/e2studio_2021_01_workspace_RZA2M_ANPR/ANPR_RZA2M_EBK/src/tensorflow_lite/third_party/flatbuffers/include/flatbuffers\util.h **** 
  61:C:/Renesas/e2studio_2021_01_workspace_RZA2M_ANPR/ANPR_RZA2M_EBK/src/tensorflow_lite/third_party/flatbuffers/include/flatbuffers\util.h **** // https://en.cppreference.com/w/cpp/string/byte/isxdigit
  62:C:/Renesas/e2studio_2021_01_workspace_RZA2M_ANPR/ANPR_RZA2M_EBK/src/tensorflow_lite/third_party/flatbuffers/include/flatbuffers\util.h **** // isdigit and isxdigit are the only standard narrow character classification
  63:C:/Renesas/e2studio_2021_01_workspace_RZA2M_ANPR/ANPR_RZA2M_EBK/src/tensorflow_lite/third_party/flatbuffers/include/flatbuffers\util.h **** // functions that are not affected by the currently installed C locale. although
  64:C:/Renesas/e2studio_2021_01_workspace_RZA2M_ANPR/ANPR_RZA2M_EBK/src/tensorflow_lite/third_party/flatbuffers/include/flatbuffers\util.h **** // some implementations (e.g. Microsoft in 1252 codepage) may classify
  65:C:/Renesas/e2studio_2021_01_workspace_RZA2M_ANPR/ANPR_RZA2M_EBK/src/tensorflow_lite/third_party/flatbuffers/include/flatbuffers\util.h **** // additional single-byte characters as digits.
  66:C:/Renesas/e2studio_2021_01_workspace_RZA2M_ANPR/ANPR_RZA2M_EBK/src/tensorflow_lite/third_party/flatbuffers/include/flatbuffers\util.h **** inline bool is_digit(char c) { return check_ascii_range(c, '0', '9'); }
  67:C:/Renesas/e2studio_2021_01_workspace_RZA2M_ANPR/ANPR_RZA2M_EBK/src/tensorflow_lite/third_party/flatbuffers/include/flatbuffers\util.h **** 
  68:C:/Renesas/e2studio_2021_01_workspace_RZA2M_ANPR/ANPR_RZA2M_EBK/src/tensorflow_lite/third_party/flatbuffers/include/flatbuffers\util.h **** inline bool is_xdigit(char c) {
  69:C:/Renesas/e2studio_2021_01_workspace_RZA2M_ANPR/ANPR_RZA2M_EBK/src/tensorflow_lite/third_party/flatbuffers/include/flatbuffers\util.h ****   // Replace by look-up table.
  70:C:/Renesas/e2studio_2021_01_workspace_RZA2M_ANPR/ANPR_RZA2M_EBK/src/tensorflow_lite/third_party/flatbuffers/include/flatbuffers\util.h ****   return is_digit(c) || check_ascii_range(c & 0xDF, 'a' & 0xDF, 'f' & 0xDF);
  71:C:/Renesas/e2studio_2021_01_workspace_RZA2M_ANPR/ANPR_RZA2M_EBK/src/tensorflow_lite/third_party/flatbuffers/include/flatbuffers\util.h **** }
  72:C:/Renesas/e2studio_2021_01_workspace_RZA2M_ANPR/ANPR_RZA2M_EBK/src/tensorflow_lite/third_party/flatbuffers/include/flatbuffers\util.h **** 
  73:C:/Renesas/e2studio_2021_01_workspace_RZA2M_ANPR/ANPR_RZA2M_EBK/src/tensorflow_lite/third_party/flatbuffers/include/flatbuffers\util.h **** // Case-insensitive isalnum
  74:C:/Renesas/e2studio_2021_01_workspace_RZA2M_ANPR/ANPR_RZA2M_EBK/src/tensorflow_lite/third_party/flatbuffers/include/flatbuffers\util.h **** inline bool is_alnum(char c) { return is_alpha(c) || is_digit(c); }
  75:C:/Renesas/e2studio_2021_01_workspace_RZA2M_ANPR/ANPR_RZA2M_EBK/src/tensorflow_lite/third_party/flatbuffers/include/flatbuffers\util.h **** 
  76:C:/Renesas/e2studio_2021_01_workspace_RZA2M_ANPR/ANPR_RZA2M_EBK/src/tensorflow_lite/third_party/flatbuffers/include/flatbuffers\util.h **** inline char CharToUpper(char c) {
  77:C:/Renesas/e2studio_2021_01_workspace_RZA2M_ANPR/ANPR_RZA2M_EBK/src/tensorflow_lite/third_party/flatbuffers/include/flatbuffers\util.h ****   return static_cast<char>(::toupper(static_cast<unsigned char>(c)));
  78:C:/Renesas/e2studio_2021_01_workspace_RZA2M_ANPR/ANPR_RZA2M_EBK/src/tensorflow_lite/third_party/flatbuffers/include/flatbuffers\util.h **** }
  79:C:/Renesas/e2studio_2021_01_workspace_RZA2M_ANPR/ANPR_RZA2M_EBK/src/tensorflow_lite/third_party/flatbuffers/include/flatbuffers\util.h **** 
  80:C:/Renesas/e2studio_2021_01_workspace_RZA2M_ANPR/ANPR_RZA2M_EBK/src/tensorflow_lite/third_party/flatbuffers/include/flatbuffers\util.h **** inline char CharToLower(char c) {
  81:C:/Renesas/e2studio_2021_01_workspace_RZA2M_ANPR/ANPR_RZA2M_EBK/src/tensorflow_lite/third_party/flatbuffers/include/flatbuffers\util.h ****   return static_cast<char>(::tolower(static_cast<unsigned char>(c)));
  82:C:/Renesas/e2studio_2021_01_workspace_RZA2M_ANPR/ANPR_RZA2M_EBK/src/tensorflow_lite/third_party/flatbuffers/include/flatbuffers\util.h **** }
  83:C:/Renesas/e2studio_2021_01_workspace_RZA2M_ANPR/ANPR_RZA2M_EBK/src/tensorflow_lite/third_party/flatbuffers/include/flatbuffers\util.h **** 
  84:C:/Renesas/e2studio_2021_01_workspace_RZA2M_ANPR/ANPR_RZA2M_EBK/src/tensorflow_lite/third_party/flatbuffers/include/flatbuffers\util.h **** // @end-locale-independent functions for ASCII character set
  85:C:/Renesas/e2studio_2021_01_workspace_RZA2M_ANPR/ANPR_RZA2M_EBK/src/tensorflow_lite/third_party/flatbuffers/include/flatbuffers\util.h **** 
  86:C:/Renesas/e2studio_2021_01_workspace_RZA2M_ANPR/ANPR_RZA2M_EBK/src/tensorflow_lite/third_party/flatbuffers/include/flatbuffers\util.h **** #ifdef FLATBUFFERS_PREFER_PRINTF
  87:C:/Renesas/e2studio_2021_01_workspace_RZA2M_ANPR/ANPR_RZA2M_EBK/src/tensorflow_lite/third_party/flatbuffers/include/flatbuffers\util.h **** template<typename T> size_t IntToDigitCount(T t) {
  88:C:/Renesas/e2studio_2021_01_workspace_RZA2M_ANPR/ANPR_RZA2M_EBK/src/tensorflow_lite/third_party/flatbuffers/include/flatbuffers\util.h ****   size_t digit_count = 0;
  89:C:/Renesas/e2studio_2021_01_workspace_RZA2M_ANPR/ANPR_RZA2M_EBK/src/tensorflow_lite/third_party/flatbuffers/include/flatbuffers\util.h ****   // Count the sign for negative numbers
  90:C:/Renesas/e2studio_2021_01_workspace_RZA2M_ANPR/ANPR_RZA2M_EBK/src/tensorflow_lite/third_party/flatbuffers/include/flatbuffers\util.h ****   if (t < 0) digit_count++;
  91:C:/Renesas/e2studio_2021_01_workspace_RZA2M_ANPR/ANPR_RZA2M_EBK/src/tensorflow_lite/third_party/flatbuffers/include/flatbuffers\util.h ****   // Count a single 0 left of the dot for fractional numbers
  92:C:/Renesas/e2studio_2021_01_workspace_RZA2M_ANPR/ANPR_RZA2M_EBK/src/tensorflow_lite/third_party/flatbuffers/include/flatbuffers\util.h ****   if (-1 < t && t < 1) digit_count++;
  93:C:/Renesas/e2studio_2021_01_workspace_RZA2M_ANPR/ANPR_RZA2M_EBK/src/tensorflow_lite/third_party/flatbuffers/include/flatbuffers\util.h ****   // Count digits until fractional part
  94:C:/Renesas/e2studio_2021_01_workspace_RZA2M_ANPR/ANPR_RZA2M_EBK/src/tensorflow_lite/third_party/flatbuffers/include/flatbuffers\util.h ****   T eps = std::numeric_limits<float>::epsilon();
  95:C:/Renesas/e2studio_2021_01_workspace_RZA2M_ANPR/ANPR_RZA2M_EBK/src/tensorflow_lite/third_party/flatbuffers/include/flatbuffers\util.h ****   while (t <= (-1 + eps) || (1 - eps) <= t) {
  96:C:/Renesas/e2studio_2021_01_workspace_RZA2M_ANPR/ANPR_RZA2M_EBK/src/tensorflow_lite/third_party/flatbuffers/include/flatbuffers\util.h ****     t /= 10;
  97:C:/Renesas/e2studio_2021_01_workspace_RZA2M_ANPR/ANPR_RZA2M_EBK/src/tensorflow_lite/third_party/flatbuffers/include/flatbuffers\util.h ****     digit_count++;
  98:C:/Renesas/e2studio_2021_01_workspace_RZA2M_ANPR/ANPR_RZA2M_EBK/src/tensorflow_lite/third_party/flatbuffers/include/flatbuffers\util.h ****   }
  99:C:/Renesas/e2studio_2021_01_workspace_RZA2M_ANPR/ANPR_RZA2M_EBK/src/tensorflow_lite/third_party/flatbuffers/include/flatbuffers\util.h ****   return digit_count;
 100:C:/Renesas/e2studio_2021_01_workspace_RZA2M_ANPR/ANPR_RZA2M_EBK/src/tensorflow_lite/third_party/flatbuffers/include/flatbuffers\util.h **** }
 101:C:/Renesas/e2studio_2021_01_workspace_RZA2M_ANPR/ANPR_RZA2M_EBK/src/tensorflow_lite/third_party/flatbuffers/include/flatbuffers\util.h **** 
 102:C:/Renesas/e2studio_2021_01_workspace_RZA2M_ANPR/ANPR_RZA2M_EBK/src/tensorflow_lite/third_party/flatbuffers/include/flatbuffers\util.h **** template<typename T> size_t NumToStringWidth(T t, int precision = 0) {
 103:C:/Renesas/e2studio_2021_01_workspace_RZA2M_ANPR/ANPR_RZA2M_EBK/src/tensorflow_lite/third_party/flatbuffers/include/flatbuffers\util.h ****   size_t string_width = IntToDigitCount(t);
 104:C:/Renesas/e2studio_2021_01_workspace_RZA2M_ANPR/ANPR_RZA2M_EBK/src/tensorflow_lite/third_party/flatbuffers/include/flatbuffers\util.h ****   // Count the dot for floating point numbers
 105:C:/Renesas/e2studio_2021_01_workspace_RZA2M_ANPR/ANPR_RZA2M_EBK/src/tensorflow_lite/third_party/flatbuffers/include/flatbuffers\util.h ****   if (precision) string_width += (precision + 1);
 106:C:/Renesas/e2studio_2021_01_workspace_RZA2M_ANPR/ANPR_RZA2M_EBK/src/tensorflow_lite/third_party/flatbuffers/include/flatbuffers\util.h ****   return string_width;
 107:C:/Renesas/e2studio_2021_01_workspace_RZA2M_ANPR/ANPR_RZA2M_EBK/src/tensorflow_lite/third_party/flatbuffers/include/flatbuffers\util.h **** }
 108:C:/Renesas/e2studio_2021_01_workspace_RZA2M_ANPR/ANPR_RZA2M_EBK/src/tensorflow_lite/third_party/flatbuffers/include/flatbuffers\util.h **** 
 109:C:/Renesas/e2studio_2021_01_workspace_RZA2M_ANPR/ANPR_RZA2M_EBK/src/tensorflow_lite/third_party/flatbuffers/include/flatbuffers\util.h **** template<typename T>
 110:C:/Renesas/e2studio_2021_01_workspace_RZA2M_ANPR/ANPR_RZA2M_EBK/src/tensorflow_lite/third_party/flatbuffers/include/flatbuffers\util.h **** std::string NumToStringImplWrapper(T t, const char *fmt, int precision = 0) {
 111:C:/Renesas/e2studio_2021_01_workspace_RZA2M_ANPR/ANPR_RZA2M_EBK/src/tensorflow_lite/third_party/flatbuffers/include/flatbuffers\util.h ****   size_t string_width = NumToStringWidth(t, precision);
 112:C:/Renesas/e2studio_2021_01_workspace_RZA2M_ANPR/ANPR_RZA2M_EBK/src/tensorflow_lite/third_party/flatbuffers/include/flatbuffers\util.h ****   std::string s(string_width, 0x00);
 113:C:/Renesas/e2studio_2021_01_workspace_RZA2M_ANPR/ANPR_RZA2M_EBK/src/tensorflow_lite/third_party/flatbuffers/include/flatbuffers\util.h ****   // Allow snprintf to use std::string trailing null to detect buffer overflow
 114:C:/Renesas/e2studio_2021_01_workspace_RZA2M_ANPR/ANPR_RZA2M_EBK/src/tensorflow_lite/third_party/flatbuffers/include/flatbuffers\util.h ****   snprintf(const_cast<char *>(s.data()), (s.size() + 1), fmt, string_width, t);
 115:C:/Renesas/e2studio_2021_01_workspace_RZA2M_ANPR/ANPR_RZA2M_EBK/src/tensorflow_lite/third_party/flatbuffers/include/flatbuffers\util.h ****   return s;
 116:C:/Renesas/e2studio_2021_01_workspace_RZA2M_ANPR/ANPR_RZA2M_EBK/src/tensorflow_lite/third_party/flatbuffers/include/flatbuffers\util.h **** }
 117:C:/Renesas/e2studio_2021_01_workspace_RZA2M_ANPR/ANPR_RZA2M_EBK/src/tensorflow_lite/third_party/flatbuffers/include/flatbuffers\util.h **** #endif  // FLATBUFFERS_PREFER_PRINTF
 118:C:/Renesas/e2studio_2021_01_workspace_RZA2M_ANPR/ANPR_RZA2M_EBK/src/tensorflow_lite/third_party/flatbuffers/include/flatbuffers\util.h **** 
 119:C:/Renesas/e2studio_2021_01_workspace_RZA2M_ANPR/ANPR_RZA2M_EBK/src/tensorflow_lite/third_party/flatbuffers/include/flatbuffers\util.h **** // Convert an integer or floating point value to a string.
 120:C:/Renesas/e2studio_2021_01_workspace_RZA2M_ANPR/ANPR_RZA2M_EBK/src/tensorflow_lite/third_party/flatbuffers/include/flatbuffers\util.h **** // In contrast to std::stringstream, "char" values are
 121:C:/Renesas/e2studio_2021_01_workspace_RZA2M_ANPR/ANPR_RZA2M_EBK/src/tensorflow_lite/third_party/flatbuffers/include/flatbuffers\util.h **** // converted to a string of digits, and we don't use scientific notation.
 122:C:/Renesas/e2studio_2021_01_workspace_RZA2M_ANPR/ANPR_RZA2M_EBK/src/tensorflow_lite/third_party/flatbuffers/include/flatbuffers\util.h **** template<typename T> std::string NumToString(T t) {
 123:C:/Renesas/e2studio_2021_01_workspace_RZA2M_ANPR/ANPR_RZA2M_EBK/src/tensorflow_lite/third_party/flatbuffers/include/flatbuffers\util.h ****   // clang-format off
 124:C:/Renesas/e2studio_2021_01_workspace_RZA2M_ANPR/ANPR_RZA2M_EBK/src/tensorflow_lite/third_party/flatbuffers/include/flatbuffers\util.h **** 
 125:C:/Renesas/e2studio_2021_01_workspace_RZA2M_ANPR/ANPR_RZA2M_EBK/src/tensorflow_lite/third_party/flatbuffers/include/flatbuffers\util.h ****   #ifndef FLATBUFFERS_PREFER_PRINTF
 126:C:/Renesas/e2studio_2021_01_workspace_RZA2M_ANPR/ANPR_RZA2M_EBK/src/tensorflow_lite/third_party/flatbuffers/include/flatbuffers\util.h ****     std::stringstream ss;
 127:C:/Renesas/e2studio_2021_01_workspace_RZA2M_ANPR/ANPR_RZA2M_EBK/src/tensorflow_lite/third_party/flatbuffers/include/flatbuffers\util.h ****     ss << t;
 128:C:/Renesas/e2studio_2021_01_workspace_RZA2M_ANPR/ANPR_RZA2M_EBK/src/tensorflow_lite/third_party/flatbuffers/include/flatbuffers\util.h ****     return ss.str();
 129:C:/Renesas/e2studio_2021_01_workspace_RZA2M_ANPR/ANPR_RZA2M_EBK/src/tensorflow_lite/third_party/flatbuffers/include/flatbuffers\util.h ****   #else // FLATBUFFERS_PREFER_PRINTF
 130:C:/Renesas/e2studio_2021_01_workspace_RZA2M_ANPR/ANPR_RZA2M_EBK/src/tensorflow_lite/third_party/flatbuffers/include/flatbuffers\util.h ****     auto v = static_cast<long long>(t);
 131:C:/Renesas/e2studio_2021_01_workspace_RZA2M_ANPR/ANPR_RZA2M_EBK/src/tensorflow_lite/third_party/flatbuffers/include/flatbuffers\util.h ****     return NumToStringImplWrapper(v, "%.*lld");
 132:C:/Renesas/e2studio_2021_01_workspace_RZA2M_ANPR/ANPR_RZA2M_EBK/src/tensorflow_lite/third_party/flatbuffers/include/flatbuffers\util.h ****   #endif // FLATBUFFERS_PREFER_PRINTF
 133:C:/Renesas/e2studio_2021_01_workspace_RZA2M_ANPR/ANPR_RZA2M_EBK/src/tensorflow_lite/third_party/flatbuffers/include/flatbuffers\util.h ****   // clang-format on
 134:C:/Renesas/e2studio_2021_01_workspace_RZA2M_ANPR/ANPR_RZA2M_EBK/src/tensorflow_lite/third_party/flatbuffers/include/flatbuffers\util.h **** }
 135:C:/Renesas/e2studio_2021_01_workspace_RZA2M_ANPR/ANPR_RZA2M_EBK/src/tensorflow_lite/third_party/flatbuffers/include/flatbuffers\util.h **** // Avoid char types used as character data.
 136:C:/Renesas/e2studio_2021_01_workspace_RZA2M_ANPR/ANPR_RZA2M_EBK/src/tensorflow_lite/third_party/flatbuffers/include/flatbuffers\util.h **** template<> inline std::string NumToString<signed char>(signed char t) {
 137:C:/Renesas/e2studio_2021_01_workspace_RZA2M_ANPR/ANPR_RZA2M_EBK/src/tensorflow_lite/third_party/flatbuffers/include/flatbuffers\util.h ****   return NumToString(static_cast<int>(t));
 138:C:/Renesas/e2studio_2021_01_workspace_RZA2M_ANPR/ANPR_RZA2M_EBK/src/tensorflow_lite/third_party/flatbuffers/include/flatbuffers\util.h **** }
 139:C:/Renesas/e2studio_2021_01_workspace_RZA2M_ANPR/ANPR_RZA2M_EBK/src/tensorflow_lite/third_party/flatbuffers/include/flatbuffers\util.h **** template<> inline std::string NumToString<unsigned char>(unsigned char t) {
 140:C:/Renesas/e2studio_2021_01_workspace_RZA2M_ANPR/ANPR_RZA2M_EBK/src/tensorflow_lite/third_party/flatbuffers/include/flatbuffers\util.h ****   return NumToString(static_cast<int>(t));
 141:C:/Renesas/e2studio_2021_01_workspace_RZA2M_ANPR/ANPR_RZA2M_EBK/src/tensorflow_lite/third_party/flatbuffers/include/flatbuffers\util.h **** }
 142:C:/Renesas/e2studio_2021_01_workspace_RZA2M_ANPR/ANPR_RZA2M_EBK/src/tensorflow_lite/third_party/flatbuffers/include/flatbuffers\util.h **** template<> inline std::string NumToString<char>(char t) {
 143:C:/Renesas/e2studio_2021_01_workspace_RZA2M_ANPR/ANPR_RZA2M_EBK/src/tensorflow_lite/third_party/flatbuffers/include/flatbuffers\util.h ****   return NumToString(static_cast<int>(t));
 144:C:/Renesas/e2studio_2021_01_workspace_RZA2M_ANPR/ANPR_RZA2M_EBK/src/tensorflow_lite/third_party/flatbuffers/include/flatbuffers\util.h **** }
 145:C:/Renesas/e2studio_2021_01_workspace_RZA2M_ANPR/ANPR_RZA2M_EBK/src/tensorflow_lite/third_party/flatbuffers/include/flatbuffers\util.h **** #if defined(FLATBUFFERS_CPP98_STL)
 146:C:/Renesas/e2studio_2021_01_workspace_RZA2M_ANPR/ANPR_RZA2M_EBK/src/tensorflow_lite/third_party/flatbuffers/include/flatbuffers\util.h **** template<> inline std::string NumToString<long long>(long long t) {
 147:C:/Renesas/e2studio_2021_01_workspace_RZA2M_ANPR/ANPR_RZA2M_EBK/src/tensorflow_lite/third_party/flatbuffers/include/flatbuffers\util.h ****   char buf[21];  // (log((1 << 63) - 1) / log(10)) + 2
 148:C:/Renesas/e2studio_2021_01_workspace_RZA2M_ANPR/ANPR_RZA2M_EBK/src/tensorflow_lite/third_party/flatbuffers/include/flatbuffers\util.h ****   snprintf(buf, sizeof(buf), "%lld", t);
 149:C:/Renesas/e2studio_2021_01_workspace_RZA2M_ANPR/ANPR_RZA2M_EBK/src/tensorflow_lite/third_party/flatbuffers/include/flatbuffers\util.h ****   return std::string(buf);
 150:C:/Renesas/e2studio_2021_01_workspace_RZA2M_ANPR/ANPR_RZA2M_EBK/src/tensorflow_lite/third_party/flatbuffers/include/flatbuffers\util.h **** }
 151:C:/Renesas/e2studio_2021_01_workspace_RZA2M_ANPR/ANPR_RZA2M_EBK/src/tensorflow_lite/third_party/flatbuffers/include/flatbuffers\util.h **** 
 152:C:/Renesas/e2studio_2021_01_workspace_RZA2M_ANPR/ANPR_RZA2M_EBK/src/tensorflow_lite/third_party/flatbuffers/include/flatbuffers\util.h **** template<>
 153:C:/Renesas/e2studio_2021_01_workspace_RZA2M_ANPR/ANPR_RZA2M_EBK/src/tensorflow_lite/third_party/flatbuffers/include/flatbuffers\util.h **** inline std::string NumToString<unsigned long long>(unsigned long long t) {
 154:C:/Renesas/e2studio_2021_01_workspace_RZA2M_ANPR/ANPR_RZA2M_EBK/src/tensorflow_lite/third_party/flatbuffers/include/flatbuffers\util.h ****   char buf[22];  // (log((1 << 63) - 1) / log(10)) + 1
 155:C:/Renesas/e2studio_2021_01_workspace_RZA2M_ANPR/ANPR_RZA2M_EBK/src/tensorflow_lite/third_party/flatbuffers/include/flatbuffers\util.h ****   snprintf(buf, sizeof(buf), "%llu", t);
 156:C:/Renesas/e2studio_2021_01_workspace_RZA2M_ANPR/ANPR_RZA2M_EBK/src/tensorflow_lite/third_party/flatbuffers/include/flatbuffers\util.h ****   return std::string(buf);
 157:C:/Renesas/e2studio_2021_01_workspace_RZA2M_ANPR/ANPR_RZA2M_EBK/src/tensorflow_lite/third_party/flatbuffers/include/flatbuffers\util.h **** }
 158:C:/Renesas/e2studio_2021_01_workspace_RZA2M_ANPR/ANPR_RZA2M_EBK/src/tensorflow_lite/third_party/flatbuffers/include/flatbuffers\util.h **** #endif  // defined(FLATBUFFERS_CPP98_STL)
 159:C:/Renesas/e2studio_2021_01_workspace_RZA2M_ANPR/ANPR_RZA2M_EBK/src/tensorflow_lite/third_party/flatbuffers/include/flatbuffers\util.h **** 
 160:C:/Renesas/e2studio_2021_01_workspace_RZA2M_ANPR/ANPR_RZA2M_EBK/src/tensorflow_lite/third_party/flatbuffers/include/flatbuffers\util.h **** // Special versions for floats/doubles.
 161:C:/Renesas/e2studio_2021_01_workspace_RZA2M_ANPR/ANPR_RZA2M_EBK/src/tensorflow_lite/third_party/flatbuffers/include/flatbuffers\util.h **** template<typename T> std::string FloatToString(T t, int precision) {
 162:C:/Renesas/e2studio_2021_01_workspace_RZA2M_ANPR/ANPR_RZA2M_EBK/src/tensorflow_lite/third_party/flatbuffers/include/flatbuffers\util.h ****   // clang-format off
 163:C:/Renesas/e2studio_2021_01_workspace_RZA2M_ANPR/ANPR_RZA2M_EBK/src/tensorflow_lite/third_party/flatbuffers/include/flatbuffers\util.h **** 
 164:C:/Renesas/e2studio_2021_01_workspace_RZA2M_ANPR/ANPR_RZA2M_EBK/src/tensorflow_lite/third_party/flatbuffers/include/flatbuffers\util.h ****   #ifndef FLATBUFFERS_PREFER_PRINTF
 165:C:/Renesas/e2studio_2021_01_workspace_RZA2M_ANPR/ANPR_RZA2M_EBK/src/tensorflow_lite/third_party/flatbuffers/include/flatbuffers\util.h ****     // to_string() prints different numbers of digits for floats depending on
 166:C:/Renesas/e2studio_2021_01_workspace_RZA2M_ANPR/ANPR_RZA2M_EBK/src/tensorflow_lite/third_party/flatbuffers/include/flatbuffers\util.h ****     // platform and isn't available on Android, so we use stringstream
 167:C:/Renesas/e2studio_2021_01_workspace_RZA2M_ANPR/ANPR_RZA2M_EBK/src/tensorflow_lite/third_party/flatbuffers/include/flatbuffers\util.h ****     std::stringstream ss;
 168:C:/Renesas/e2studio_2021_01_workspace_RZA2M_ANPR/ANPR_RZA2M_EBK/src/tensorflow_lite/third_party/flatbuffers/include/flatbuffers\util.h ****     // Use std::fixed to suppress scientific notation.
 169:C:/Renesas/e2studio_2021_01_workspace_RZA2M_ANPR/ANPR_RZA2M_EBK/src/tensorflow_lite/third_party/flatbuffers/include/flatbuffers\util.h ****     ss << std::fixed;
 170:C:/Renesas/e2studio_2021_01_workspace_RZA2M_ANPR/ANPR_RZA2M_EBK/src/tensorflow_lite/third_party/flatbuffers/include/flatbuffers\util.h ****     // Default precision is 6, we want that to be higher for doubles.
 171:C:/Renesas/e2studio_2021_01_workspace_RZA2M_ANPR/ANPR_RZA2M_EBK/src/tensorflow_lite/third_party/flatbuffers/include/flatbuffers\util.h ****     ss << std::setprecision(precision);
 172:C:/Renesas/e2studio_2021_01_workspace_RZA2M_ANPR/ANPR_RZA2M_EBK/src/tensorflow_lite/third_party/flatbuffers/include/flatbuffers\util.h ****     ss << t;
 173:C:/Renesas/e2studio_2021_01_workspace_RZA2M_ANPR/ANPR_RZA2M_EBK/src/tensorflow_lite/third_party/flatbuffers/include/flatbuffers\util.h ****     auto s = ss.str();
 174:C:/Renesas/e2studio_2021_01_workspace_RZA2M_ANPR/ANPR_RZA2M_EBK/src/tensorflow_lite/third_party/flatbuffers/include/flatbuffers\util.h ****   #else // FLATBUFFERS_PREFER_PRINTF
 175:C:/Renesas/e2studio_2021_01_workspace_RZA2M_ANPR/ANPR_RZA2M_EBK/src/tensorflow_lite/third_party/flatbuffers/include/flatbuffers\util.h ****     auto v = static_cast<double>(t);
 176:C:/Renesas/e2studio_2021_01_workspace_RZA2M_ANPR/ANPR_RZA2M_EBK/src/tensorflow_lite/third_party/flatbuffers/include/flatbuffers\util.h ****     auto s = NumToStringImplWrapper(v, "%0.*f", precision);
 177:C:/Renesas/e2studio_2021_01_workspace_RZA2M_ANPR/ANPR_RZA2M_EBK/src/tensorflow_lite/third_party/flatbuffers/include/flatbuffers\util.h ****   #endif // FLATBUFFERS_PREFER_PRINTF
 178:C:/Renesas/e2studio_2021_01_workspace_RZA2M_ANPR/ANPR_RZA2M_EBK/src/tensorflow_lite/third_party/flatbuffers/include/flatbuffers\util.h ****   // clang-format on
 179:C:/Renesas/e2studio_2021_01_workspace_RZA2M_ANPR/ANPR_RZA2M_EBK/src/tensorflow_lite/third_party/flatbuffers/include/flatbuffers\util.h ****   // Sadly, std::fixed turns "1" into "1.00000", so here we undo that.
 180:C:/Renesas/e2studio_2021_01_workspace_RZA2M_ANPR/ANPR_RZA2M_EBK/src/tensorflow_lite/third_party/flatbuffers/include/flatbuffers\util.h ****   auto p = s.find_last_not_of('0');
 181:C:/Renesas/e2studio_2021_01_workspace_RZA2M_ANPR/ANPR_RZA2M_EBK/src/tensorflow_lite/third_party/flatbuffers/include/flatbuffers\util.h ****   if (p != std::string::npos) {
 182:C:/Renesas/e2studio_2021_01_workspace_RZA2M_ANPR/ANPR_RZA2M_EBK/src/tensorflow_lite/third_party/flatbuffers/include/flatbuffers\util.h ****     // Strip trailing zeroes. If it is a whole number, keep one zero.
 183:C:/Renesas/e2studio_2021_01_workspace_RZA2M_ANPR/ANPR_RZA2M_EBK/src/tensorflow_lite/third_party/flatbuffers/include/flatbuffers\util.h ****     s.resize(p + (s[p] == '.' ? 2 : 1));
 184:C:/Renesas/e2studio_2021_01_workspace_RZA2M_ANPR/ANPR_RZA2M_EBK/src/tensorflow_lite/third_party/flatbuffers/include/flatbuffers\util.h ****   }
 185:C:/Renesas/e2studio_2021_01_workspace_RZA2M_ANPR/ANPR_RZA2M_EBK/src/tensorflow_lite/third_party/flatbuffers/include/flatbuffers\util.h ****   return s;
 186:C:/Renesas/e2studio_2021_01_workspace_RZA2M_ANPR/ANPR_RZA2M_EBK/src/tensorflow_lite/third_party/flatbuffers/include/flatbuffers\util.h **** }
 187:C:/Renesas/e2studio_2021_01_workspace_RZA2M_ANPR/ANPR_RZA2M_EBK/src/tensorflow_lite/third_party/flatbuffers/include/flatbuffers\util.h **** 
 188:C:/Renesas/e2studio_2021_01_workspace_RZA2M_ANPR/ANPR_RZA2M_EBK/src/tensorflow_lite/third_party/flatbuffers/include/flatbuffers\util.h **** template<> inline std::string NumToString<double>(double t) {
 189:C:/Renesas/e2studio_2021_01_workspace_RZA2M_ANPR/ANPR_RZA2M_EBK/src/tensorflow_lite/third_party/flatbuffers/include/flatbuffers\util.h ****   return FloatToString(t, 12);
 190:C:/Renesas/e2studio_2021_01_workspace_RZA2M_ANPR/ANPR_RZA2M_EBK/src/tensorflow_lite/third_party/flatbuffers/include/flatbuffers\util.h **** }
 191:C:/Renesas/e2studio_2021_01_workspace_RZA2M_ANPR/ANPR_RZA2M_EBK/src/tensorflow_lite/third_party/flatbuffers/include/flatbuffers\util.h **** template<> inline std::string NumToString<float>(float t) {
 192:C:/Renesas/e2studio_2021_01_workspace_RZA2M_ANPR/ANPR_RZA2M_EBK/src/tensorflow_lite/third_party/flatbuffers/include/flatbuffers\util.h ****   return FloatToString(t, 6);
 193:C:/Renesas/e2studio_2021_01_workspace_RZA2M_ANPR/ANPR_RZA2M_EBK/src/tensorflow_lite/third_party/flatbuffers/include/flatbuffers\util.h **** }
 194:C:/Renesas/e2studio_2021_01_workspace_RZA2M_ANPR/ANPR_RZA2M_EBK/src/tensorflow_lite/third_party/flatbuffers/include/flatbuffers\util.h **** 
 195:C:/Renesas/e2studio_2021_01_workspace_RZA2M_ANPR/ANPR_RZA2M_EBK/src/tensorflow_lite/third_party/flatbuffers/include/flatbuffers\util.h **** // Convert an integer value to a hexadecimal string.
 196:C:/Renesas/e2studio_2021_01_workspace_RZA2M_ANPR/ANPR_RZA2M_EBK/src/tensorflow_lite/third_party/flatbuffers/include/flatbuffers\util.h **** // The returned string length is always xdigits long, prefixed by 0 digits.
 197:C:/Renesas/e2studio_2021_01_workspace_RZA2M_ANPR/ANPR_RZA2M_EBK/src/tensorflow_lite/third_party/flatbuffers/include/flatbuffers\util.h **** // For example, IntToStringHex(0x23, 8) returns the string "00000023".
 198:C:/Renesas/e2studio_2021_01_workspace_RZA2M_ANPR/ANPR_RZA2M_EBK/src/tensorflow_lite/third_party/flatbuffers/include/flatbuffers\util.h **** inline std::string IntToStringHex(int i, int xdigits) {
 199:C:/Renesas/e2studio_2021_01_workspace_RZA2M_ANPR/ANPR_RZA2M_EBK/src/tensorflow_lite/third_party/flatbuffers/include/flatbuffers\util.h ****   FLATBUFFERS_ASSERT(i >= 0);
 200:C:/Renesas/e2studio_2021_01_workspace_RZA2M_ANPR/ANPR_RZA2M_EBK/src/tensorflow_lite/third_party/flatbuffers/include/flatbuffers\util.h ****   // clang-format off
 201:C:/Renesas/e2studio_2021_01_workspace_RZA2M_ANPR/ANPR_RZA2M_EBK/src/tensorflow_lite/third_party/flatbuffers/include/flatbuffers\util.h **** 
 202:C:/Renesas/e2studio_2021_01_workspace_RZA2M_ANPR/ANPR_RZA2M_EBK/src/tensorflow_lite/third_party/flatbuffers/include/flatbuffers\util.h ****   #ifndef FLATBUFFERS_PREFER_PRINTF
 203:C:/Renesas/e2studio_2021_01_workspace_RZA2M_ANPR/ANPR_RZA2M_EBK/src/tensorflow_lite/third_party/flatbuffers/include/flatbuffers\util.h ****     std::stringstream ss;
 204:C:/Renesas/e2studio_2021_01_workspace_RZA2M_ANPR/ANPR_RZA2M_EBK/src/tensorflow_lite/third_party/flatbuffers/include/flatbuffers\util.h ****     ss << std::setw(xdigits) << std::setfill('0') << std::hex << std::uppercase
 205:C:/Renesas/e2studio_2021_01_workspace_RZA2M_ANPR/ANPR_RZA2M_EBK/src/tensorflow_lite/third_party/flatbuffers/include/flatbuffers\util.h ****        << i;
 206:C:/Renesas/e2studio_2021_01_workspace_RZA2M_ANPR/ANPR_RZA2M_EBK/src/tensorflow_lite/third_party/flatbuffers/include/flatbuffers\util.h ****     return ss.str();
 207:C:/Renesas/e2studio_2021_01_workspace_RZA2M_ANPR/ANPR_RZA2M_EBK/src/tensorflow_lite/third_party/flatbuffers/include/flatbuffers\util.h ****   #else // FLATBUFFERS_PREFER_PRINTF
 208:C:/Renesas/e2studio_2021_01_workspace_RZA2M_ANPR/ANPR_RZA2M_EBK/src/tensorflow_lite/third_party/flatbuffers/include/flatbuffers\util.h ****     return NumToStringImplWrapper(i, "%.*X", xdigits);
 209:C:/Renesas/e2studio_2021_01_workspace_RZA2M_ANPR/ANPR_RZA2M_EBK/src/tensorflow_lite/third_party/flatbuffers/include/flatbuffers\util.h ****   #endif // FLATBUFFERS_PREFER_PRINTF
 210:C:/Renesas/e2studio_2021_01_workspace_RZA2M_ANPR/ANPR_RZA2M_EBK/src/tensorflow_lite/third_party/flatbuffers/include/flatbuffers\util.h ****   // clang-format on
 211:C:/Renesas/e2studio_2021_01_workspace_RZA2M_ANPR/ANPR_RZA2M_EBK/src/tensorflow_lite/third_party/flatbuffers/include/flatbuffers\util.h **** }
 212:C:/Renesas/e2studio_2021_01_workspace_RZA2M_ANPR/ANPR_RZA2M_EBK/src/tensorflow_lite/third_party/flatbuffers/include/flatbuffers\util.h **** 
 213:C:/Renesas/e2studio_2021_01_workspace_RZA2M_ANPR/ANPR_RZA2M_EBK/src/tensorflow_lite/third_party/flatbuffers/include/flatbuffers\util.h **** // clang-format off
 214:C:/Renesas/e2studio_2021_01_workspace_RZA2M_ANPR/ANPR_RZA2M_EBK/src/tensorflow_lite/third_party/flatbuffers/include/flatbuffers\util.h **** // Use locale independent functions {strtod_l, strtof_l, strtoll_l, strtoull_l}.
 215:C:/Renesas/e2studio_2021_01_workspace_RZA2M_ANPR/ANPR_RZA2M_EBK/src/tensorflow_lite/third_party/flatbuffers/include/flatbuffers\util.h **** #if defined(FLATBUFFERS_LOCALE_INDEPENDENT) && (FLATBUFFERS_LOCALE_INDEPENDENT > 0)
 216:C:/Renesas/e2studio_2021_01_workspace_RZA2M_ANPR/ANPR_RZA2M_EBK/src/tensorflow_lite/third_party/flatbuffers/include/flatbuffers\util.h ****   class ClassicLocale {
 217:C:/Renesas/e2studio_2021_01_workspace_RZA2M_ANPR/ANPR_RZA2M_EBK/src/tensorflow_lite/third_party/flatbuffers/include/flatbuffers\util.h ****     #ifdef _MSC_VER
 218:C:/Renesas/e2studio_2021_01_workspace_RZA2M_ANPR/ANPR_RZA2M_EBK/src/tensorflow_lite/third_party/flatbuffers/include/flatbuffers\util.h ****       typedef _locale_t locale_type;
 219:C:/Renesas/e2studio_2021_01_workspace_RZA2M_ANPR/ANPR_RZA2M_EBK/src/tensorflow_lite/third_party/flatbuffers/include/flatbuffers\util.h ****     #else
 220:C:/Renesas/e2studio_2021_01_workspace_RZA2M_ANPR/ANPR_RZA2M_EBK/src/tensorflow_lite/third_party/flatbuffers/include/flatbuffers\util.h ****       typedef locale_t locale_type;  // POSIX.1-2008 locale_t type
 221:C:/Renesas/e2studio_2021_01_workspace_RZA2M_ANPR/ANPR_RZA2M_EBK/src/tensorflow_lite/third_party/flatbuffers/include/flatbuffers\util.h ****     #endif
 222:C:/Renesas/e2studio_2021_01_workspace_RZA2M_ANPR/ANPR_RZA2M_EBK/src/tensorflow_lite/third_party/flatbuffers/include/flatbuffers\util.h ****     ClassicLocale();
 223:C:/Renesas/e2studio_2021_01_workspace_RZA2M_ANPR/ANPR_RZA2M_EBK/src/tensorflow_lite/third_party/flatbuffers/include/flatbuffers\util.h ****     ~ClassicLocale();
 224:C:/Renesas/e2studio_2021_01_workspace_RZA2M_ANPR/ANPR_RZA2M_EBK/src/tensorflow_lite/third_party/flatbuffers/include/flatbuffers\util.h ****     locale_type locale_;
 225:C:/Renesas/e2studio_2021_01_workspace_RZA2M_ANPR/ANPR_RZA2M_EBK/src/tensorflow_lite/third_party/flatbuffers/include/flatbuffers\util.h ****     static ClassicLocale instance_;
 226:C:/Renesas/e2studio_2021_01_workspace_RZA2M_ANPR/ANPR_RZA2M_EBK/src/tensorflow_lite/third_party/flatbuffers/include/flatbuffers\util.h ****   public:
 227:C:/Renesas/e2studio_2021_01_workspace_RZA2M_ANPR/ANPR_RZA2M_EBK/src/tensorflow_lite/third_party/flatbuffers/include/flatbuffers\util.h ****     static locale_type Get() { return instance_.locale_; }
 228:C:/Renesas/e2studio_2021_01_workspace_RZA2M_ANPR/ANPR_RZA2M_EBK/src/tensorflow_lite/third_party/flatbuffers/include/flatbuffers\util.h ****   };
 229:C:/Renesas/e2studio_2021_01_workspace_RZA2M_ANPR/ANPR_RZA2M_EBK/src/tensorflow_lite/third_party/flatbuffers/include/flatbuffers\util.h **** 
 230:C:/Renesas/e2studio_2021_01_workspace_RZA2M_ANPR/ANPR_RZA2M_EBK/src/tensorflow_lite/third_party/flatbuffers/include/flatbuffers\util.h ****   #ifdef _MSC_VER
 231:C:/Renesas/e2studio_2021_01_workspace_RZA2M_ANPR/ANPR_RZA2M_EBK/src/tensorflow_lite/third_party/flatbuffers/include/flatbuffers\util.h ****     #define __strtoull_impl(s, pe, b) _strtoui64_l(s, pe, b, ClassicLocale::Get())
 232:C:/Renesas/e2studio_2021_01_workspace_RZA2M_ANPR/ANPR_RZA2M_EBK/src/tensorflow_lite/third_party/flatbuffers/include/flatbuffers\util.h ****     #define __strtoll_impl(s, pe, b) _strtoi64_l(s, pe, b, ClassicLocale::Get())
 233:C:/Renesas/e2studio_2021_01_workspace_RZA2M_ANPR/ANPR_RZA2M_EBK/src/tensorflow_lite/third_party/flatbuffers/include/flatbuffers\util.h ****     #define __strtod_impl(s, pe) _strtod_l(s, pe, ClassicLocale::Get())
 234:C:/Renesas/e2studio_2021_01_workspace_RZA2M_ANPR/ANPR_RZA2M_EBK/src/tensorflow_lite/third_party/flatbuffers/include/flatbuffers\util.h ****     #define __strtof_impl(s, pe) _strtof_l(s, pe, ClassicLocale::Get())
 235:C:/Renesas/e2studio_2021_01_workspace_RZA2M_ANPR/ANPR_RZA2M_EBK/src/tensorflow_lite/third_party/flatbuffers/include/flatbuffers\util.h ****   #else
 236:C:/Renesas/e2studio_2021_01_workspace_RZA2M_ANPR/ANPR_RZA2M_EBK/src/tensorflow_lite/third_party/flatbuffers/include/flatbuffers\util.h ****     #define __strtoull_impl(s, pe, b) strtoull_l(s, pe, b, ClassicLocale::Get())
 237:C:/Renesas/e2studio_2021_01_workspace_RZA2M_ANPR/ANPR_RZA2M_EBK/src/tensorflow_lite/third_party/flatbuffers/include/flatbuffers\util.h ****     #define __strtoll_impl(s, pe, b) strtoll_l(s, pe, b, ClassicLocale::Get())
 238:C:/Renesas/e2studio_2021_01_workspace_RZA2M_ANPR/ANPR_RZA2M_EBK/src/tensorflow_lite/third_party/flatbuffers/include/flatbuffers\util.h ****     #define __strtod_impl(s, pe) strtod_l(s, pe, ClassicLocale::Get())
 239:C:/Renesas/e2studio_2021_01_workspace_RZA2M_ANPR/ANPR_RZA2M_EBK/src/tensorflow_lite/third_party/flatbuffers/include/flatbuffers\util.h ****     #define __strtof_impl(s, pe) strtof_l(s, pe, ClassicLocale::Get())
 240:C:/Renesas/e2studio_2021_01_workspace_RZA2M_ANPR/ANPR_RZA2M_EBK/src/tensorflow_lite/third_party/flatbuffers/include/flatbuffers\util.h ****   #endif
 241:C:/Renesas/e2studio_2021_01_workspace_RZA2M_ANPR/ANPR_RZA2M_EBK/src/tensorflow_lite/third_party/flatbuffers/include/flatbuffers\util.h **** #else
 242:C:/Renesas/e2studio_2021_01_workspace_RZA2M_ANPR/ANPR_RZA2M_EBK/src/tensorflow_lite/third_party/flatbuffers/include/flatbuffers\util.h ****   #define __strtod_impl(s, pe) strtod(s, pe)
 243:C:/Renesas/e2studio_2021_01_workspace_RZA2M_ANPR/ANPR_RZA2M_EBK/src/tensorflow_lite/third_party/flatbuffers/include/flatbuffers\util.h ****   #define __strtof_impl(s, pe) static_cast<float>(strtod(s, pe))
 244:C:/Renesas/e2studio_2021_01_workspace_RZA2M_ANPR/ANPR_RZA2M_EBK/src/tensorflow_lite/third_party/flatbuffers/include/flatbuffers\util.h ****   #ifdef _MSC_VER
 245:C:/Renesas/e2studio_2021_01_workspace_RZA2M_ANPR/ANPR_RZA2M_EBK/src/tensorflow_lite/third_party/flatbuffers/include/flatbuffers\util.h ****     #define __strtoull_impl(s, pe, b) _strtoui64(s, pe, b)
 246:C:/Renesas/e2studio_2021_01_workspace_RZA2M_ANPR/ANPR_RZA2M_EBK/src/tensorflow_lite/third_party/flatbuffers/include/flatbuffers\util.h ****     #define __strtoll_impl(s, pe, b) _strtoi64(s, pe, b)
 247:C:/Renesas/e2studio_2021_01_workspace_RZA2M_ANPR/ANPR_RZA2M_EBK/src/tensorflow_lite/third_party/flatbuffers/include/flatbuffers\util.h ****   #else
 248:C:/Renesas/e2studio_2021_01_workspace_RZA2M_ANPR/ANPR_RZA2M_EBK/src/tensorflow_lite/third_party/flatbuffers/include/flatbuffers\util.h ****     #define __strtoull_impl(s, pe, b) strtoull(s, pe, b)
 249:C:/Renesas/e2studio_2021_01_workspace_RZA2M_ANPR/ANPR_RZA2M_EBK/src/tensorflow_lite/third_party/flatbuffers/include/flatbuffers\util.h ****     #define __strtoll_impl(s, pe, b) strtoll(s, pe, b)
 250:C:/Renesas/e2studio_2021_01_workspace_RZA2M_ANPR/ANPR_RZA2M_EBK/src/tensorflow_lite/third_party/flatbuffers/include/flatbuffers\util.h ****   #endif
 251:C:/Renesas/e2studio_2021_01_workspace_RZA2M_ANPR/ANPR_RZA2M_EBK/src/tensorflow_lite/third_party/flatbuffers/include/flatbuffers\util.h **** #endif
 252:C:/Renesas/e2studio_2021_01_workspace_RZA2M_ANPR/ANPR_RZA2M_EBK/src/tensorflow_lite/third_party/flatbuffers/include/flatbuffers\util.h **** 
 253:C:/Renesas/e2studio_2021_01_workspace_RZA2M_ANPR/ANPR_RZA2M_EBK/src/tensorflow_lite/third_party/flatbuffers/include/flatbuffers\util.h **** inline void strtoval_impl(int64_t *val, const char *str, char **endptr,
 254:C:/Renesas/e2studio_2021_01_workspace_RZA2M_ANPR/ANPR_RZA2M_EBK/src/tensorflow_lite/third_party/flatbuffers/include/flatbuffers\util.h ****                                  int base) {
 255:C:/Renesas/e2studio_2021_01_workspace_RZA2M_ANPR/ANPR_RZA2M_EBK/src/tensorflow_lite/third_party/flatbuffers/include/flatbuffers\util.h ****     *val = __strtoll_impl(str, endptr, base);
 256:C:/Renesas/e2studio_2021_01_workspace_RZA2M_ANPR/ANPR_RZA2M_EBK/src/tensorflow_lite/third_party/flatbuffers/include/flatbuffers\util.h **** }
 257:C:/Renesas/e2studio_2021_01_workspace_RZA2M_ANPR/ANPR_RZA2M_EBK/src/tensorflow_lite/third_party/flatbuffers/include/flatbuffers\util.h **** 
 258:C:/Renesas/e2studio_2021_01_workspace_RZA2M_ANPR/ANPR_RZA2M_EBK/src/tensorflow_lite/third_party/flatbuffers/include/flatbuffers\util.h **** inline void strtoval_impl(uint64_t *val, const char *str, char **endptr,
 259:C:/Renesas/e2studio_2021_01_workspace_RZA2M_ANPR/ANPR_RZA2M_EBK/src/tensorflow_lite/third_party/flatbuffers/include/flatbuffers\util.h ****                                  int base) {
 260:C:/Renesas/e2studio_2021_01_workspace_RZA2M_ANPR/ANPR_RZA2M_EBK/src/tensorflow_lite/third_party/flatbuffers/include/flatbuffers\util.h ****   *val = __strtoull_impl(str, endptr, base);
 261:C:/Renesas/e2studio_2021_01_workspace_RZA2M_ANPR/ANPR_RZA2M_EBK/src/tensorflow_lite/third_party/flatbuffers/include/flatbuffers\util.h **** }
 262:C:/Renesas/e2studio_2021_01_workspace_RZA2M_ANPR/ANPR_RZA2M_EBK/src/tensorflow_lite/third_party/flatbuffers/include/flatbuffers\util.h **** 
 263:C:/Renesas/e2studio_2021_01_workspace_RZA2M_ANPR/ANPR_RZA2M_EBK/src/tensorflow_lite/third_party/flatbuffers/include/flatbuffers\util.h **** inline void strtoval_impl(double *val, const char *str, char **endptr) {
 264:C:/Renesas/e2studio_2021_01_workspace_RZA2M_ANPR/ANPR_RZA2M_EBK/src/tensorflow_lite/third_party/flatbuffers/include/flatbuffers\util.h ****   *val = __strtod_impl(str, endptr);
 265:C:/Renesas/e2studio_2021_01_workspace_RZA2M_ANPR/ANPR_RZA2M_EBK/src/tensorflow_lite/third_party/flatbuffers/include/flatbuffers\util.h **** }
 266:C:/Renesas/e2studio_2021_01_workspace_RZA2M_ANPR/ANPR_RZA2M_EBK/src/tensorflow_lite/third_party/flatbuffers/include/flatbuffers\util.h **** 
 267:C:/Renesas/e2studio_2021_01_workspace_RZA2M_ANPR/ANPR_RZA2M_EBK/src/tensorflow_lite/third_party/flatbuffers/include/flatbuffers\util.h **** // UBSAN: double to float is safe if numeric_limits<float>::is_iec559 is true.
 268:C:/Renesas/e2studio_2021_01_workspace_RZA2M_ANPR/ANPR_RZA2M_EBK/src/tensorflow_lite/third_party/flatbuffers/include/flatbuffers\util.h **** __supress_ubsan__("float-cast-overflow")
 269:C:/Renesas/e2studio_2021_01_workspace_RZA2M_ANPR/ANPR_RZA2M_EBK/src/tensorflow_lite/third_party/flatbuffers/include/flatbuffers\util.h **** inline void strtoval_impl(float *val, const char *str, char **endptr) {
 270:C:/Renesas/e2studio_2021_01_workspace_RZA2M_ANPR/ANPR_RZA2M_EBK/src/tensorflow_lite/third_party/flatbuffers/include/flatbuffers\util.h ****   *val = __strtof_impl(str, endptr);
 271:C:/Renesas/e2studio_2021_01_workspace_RZA2M_ANPR/ANPR_RZA2M_EBK/src/tensorflow_lite/third_party/flatbuffers/include/flatbuffers\util.h **** }
 272:C:/Renesas/e2studio_2021_01_workspace_RZA2M_ANPR/ANPR_RZA2M_EBK/src/tensorflow_lite/third_party/flatbuffers/include/flatbuffers\util.h **** #undef __strtoull_impl
 273:C:/Renesas/e2studio_2021_01_workspace_RZA2M_ANPR/ANPR_RZA2M_EBK/src/tensorflow_lite/third_party/flatbuffers/include/flatbuffers\util.h **** #undef __strtoll_impl
 274:C:/Renesas/e2studio_2021_01_workspace_RZA2M_ANPR/ANPR_RZA2M_EBK/src/tensorflow_lite/third_party/flatbuffers/include/flatbuffers\util.h **** #undef __strtod_impl
 275:C:/Renesas/e2studio_2021_01_workspace_RZA2M_ANPR/ANPR_RZA2M_EBK/src/tensorflow_lite/third_party/flatbuffers/include/flatbuffers\util.h **** #undef __strtof_impl
 276:C:/Renesas/e2studio_2021_01_workspace_RZA2M_ANPR/ANPR_RZA2M_EBK/src/tensorflow_lite/third_party/flatbuffers/include/flatbuffers\util.h **** // clang-format on
 277:C:/Renesas/e2studio_2021_01_workspace_RZA2M_ANPR/ANPR_RZA2M_EBK/src/tensorflow_lite/third_party/flatbuffers/include/flatbuffers\util.h **** 
 278:C:/Renesas/e2studio_2021_01_workspace_RZA2M_ANPR/ANPR_RZA2M_EBK/src/tensorflow_lite/third_party/flatbuffers/include/flatbuffers\util.h **** // Adaptor for strtoull()/strtoll().
 279:C:/Renesas/e2studio_2021_01_workspace_RZA2M_ANPR/ANPR_RZA2M_EBK/src/tensorflow_lite/third_party/flatbuffers/include/flatbuffers\util.h **** // Flatbuffers accepts numbers with any count of leading zeros (-009 is -9),
 280:C:/Renesas/e2studio_2021_01_workspace_RZA2M_ANPR/ANPR_RZA2M_EBK/src/tensorflow_lite/third_party/flatbuffers/include/flatbuffers\util.h **** // while strtoll with base=0 interprets first leading zero as octal prefix.
 281:C:/Renesas/e2studio_2021_01_workspace_RZA2M_ANPR/ANPR_RZA2M_EBK/src/tensorflow_lite/third_party/flatbuffers/include/flatbuffers\util.h **** // In future, it is possible to add prefixed 0b0101.
 282:C:/Renesas/e2studio_2021_01_workspace_RZA2M_ANPR/ANPR_RZA2M_EBK/src/tensorflow_lite/third_party/flatbuffers/include/flatbuffers\util.h **** // 1) Checks errno code for overflow condition (out of range).
 283:C:/Renesas/e2studio_2021_01_workspace_RZA2M_ANPR/ANPR_RZA2M_EBK/src/tensorflow_lite/third_party/flatbuffers/include/flatbuffers\util.h **** // 2) If base <= 0, function try to detect base of number by prefix.
 284:C:/Renesas/e2studio_2021_01_workspace_RZA2M_ANPR/ANPR_RZA2M_EBK/src/tensorflow_lite/third_party/flatbuffers/include/flatbuffers\util.h **** //
 285:C:/Renesas/e2studio_2021_01_workspace_RZA2M_ANPR/ANPR_RZA2M_EBK/src/tensorflow_lite/third_party/flatbuffers/include/flatbuffers\util.h **** // Return value (like strtoull and strtoll, but reject partial result):
 286:C:/Renesas/e2studio_2021_01_workspace_RZA2M_ANPR/ANPR_RZA2M_EBK/src/tensorflow_lite/third_party/flatbuffers/include/flatbuffers\util.h **** // - If successful, an integer value corresponding to the str is returned.
 287:C:/Renesas/e2studio_2021_01_workspace_RZA2M_ANPR/ANPR_RZA2M_EBK/src/tensorflow_lite/third_party/flatbuffers/include/flatbuffers\util.h **** // - If full string conversion can't be performed, 0 is returned.
 288:C:/Renesas/e2studio_2021_01_workspace_RZA2M_ANPR/ANPR_RZA2M_EBK/src/tensorflow_lite/third_party/flatbuffers/include/flatbuffers\util.h **** // - If the converted value falls out of range of corresponding return type, a
 289:C:/Renesas/e2studio_2021_01_workspace_RZA2M_ANPR/ANPR_RZA2M_EBK/src/tensorflow_lite/third_party/flatbuffers/include/flatbuffers\util.h **** // range error occurs. In this case value MAX(T)/MIN(T) is returned.
 290:C:/Renesas/e2studio_2021_01_workspace_RZA2M_ANPR/ANPR_RZA2M_EBK/src/tensorflow_lite/third_party/flatbuffers/include/flatbuffers\util.h **** template<typename T>
 291:C:/Renesas/e2studio_2021_01_workspace_RZA2M_ANPR/ANPR_RZA2M_EBK/src/tensorflow_lite/third_party/flatbuffers/include/flatbuffers\util.h **** inline bool StringToIntegerImpl(T *val, const char *const str,
 292:C:/Renesas/e2studio_2021_01_workspace_RZA2M_ANPR/ANPR_RZA2M_EBK/src/tensorflow_lite/third_party/flatbuffers/include/flatbuffers\util.h ****                                 const int base = 0,
 293:C:/Renesas/e2studio_2021_01_workspace_RZA2M_ANPR/ANPR_RZA2M_EBK/src/tensorflow_lite/third_party/flatbuffers/include/flatbuffers\util.h ****                                 const bool check_errno = true) {
 294:C:/Renesas/e2studio_2021_01_workspace_RZA2M_ANPR/ANPR_RZA2M_EBK/src/tensorflow_lite/third_party/flatbuffers/include/flatbuffers\util.h ****   // T is int64_t or uint64_T
 295:C:/Renesas/e2studio_2021_01_workspace_RZA2M_ANPR/ANPR_RZA2M_EBK/src/tensorflow_lite/third_party/flatbuffers/include/flatbuffers\util.h ****   FLATBUFFERS_ASSERT(str);
 1815              		.loc 5 295 0
 1816 0378 088054E0 		subs	r8, r4, r8
 1817              	.LVL169:
 1818 037c 6100000A 		beq	.L164
 1819              	.LBB2168:
 296:C:/Renesas/e2studio_2021_01_workspace_RZA2M_ANPR/ANPR_RZA2M_EBK/src/tensorflow_lite/third_party/flatbuffers/include/flatbuffers\util.h ****   if (base <= 0) {
 297:C:/Renesas/e2studio_2021_01_workspace_RZA2M_ANPR/ANPR_RZA2M_EBK/src/tensorflow_lite/third_party/flatbuffers/include/flatbuffers\util.h ****     auto s = str;
 298:C:/Renesas/e2studio_2021_01_workspace_RZA2M_ANPR/ANPR_RZA2M_EBK/src/tensorflow_lite/third_party/flatbuffers/include/flatbuffers\util.h ****     while (*s && !is_digit(*s)) s++;
 299:C:/Renesas/e2studio_2021_01_workspace_RZA2M_ANPR/ANPR_RZA2M_EBK/src/tensorflow_lite/third_party/flatbuffers/include/flatbuffers\util.h ****     if (s[0] == '0' && is_alpha_char(s[1], 'X'))
 300:C:/Renesas/e2studio_2021_01_workspace_RZA2M_ANPR/ANPR_RZA2M_EBK/src/tensorflow_lite/third_party/flatbuffers/include/flatbuffers\util.h ****       return StringToIntegerImpl(val, str, 16, check_errno);
 301:C:/Renesas/e2studio_2021_01_workspace_RZA2M_ANPR/ANPR_RZA2M_EBK/src/tensorflow_lite/third_party/flatbuffers/include/flatbuffers\util.h ****     // if a prefix not match, try base=10
 302:C:/Renesas/e2studio_2021_01_workspace_RZA2M_ANPR/ANPR_RZA2M_EBK/src/tensorflow_lite/third_party/flatbuffers/include/flatbuffers\util.h ****     return StringToIntegerImpl(val, str, 10, check_errno);
 303:C:/Renesas/e2studio_2021_01_workspace_RZA2M_ANPR/ANPR_RZA2M_EBK/src/tensorflow_lite/third_party/flatbuffers/include/flatbuffers\util.h ****   } else {
 304:C:/Renesas/e2studio_2021_01_workspace_RZA2M_ANPR/ANPR_RZA2M_EBK/src/tensorflow_lite/third_party/flatbuffers/include/flatbuffers\util.h ****     if (check_errno) errno = 0;  // clear thread-local errno
 1820              		.loc 5 304 0
 1821 0380 FEFFFFEB 		bl	__errno
 1822              	.LVL170:
 1823 0384 0040A0E3 		mov	r4, #0
 1824              	.LVL171:
 1825 0388 0030A0E1 		mov	r3, r0
 305:C:/Renesas/e2studio_2021_01_workspace_RZA2M_ANPR/ANPR_RZA2M_EBK/src/tensorflow_lite/third_party/flatbuffers/include/flatbuffers\util.h ****     auto endptr = str;
 1826              		.loc 5 305 0
 1827 038c 10108DE2 		add	r1, sp, #16
 304:C:/Renesas/e2studio_2021_01_workspace_RZA2M_ANPR/ANPR_RZA2M_EBK/src/tensorflow_lite/third_party/flatbuffers/include/flatbuffers\util.h ****     auto endptr = str;
 1828              		.loc 5 304 0
 1829 0390 004083E5 		str	r4, [r3]
 1830              	.LBB2169:
 1831              	.LBB2170:
 255:C:/Renesas/e2studio_2021_01_workspace_RZA2M_ANPR/ANPR_RZA2M_EBK/src/tensorflow_lite/third_party/flatbuffers/include/flatbuffers\util.h **** }
 1832              		.loc 5 255 0
 1833 0394 0A20A0E3 		mov	r2, #10
 1834 0398 0800A0E1 		mov	r0, r8
 1835              	.LBE2170:
 1836              	.LBE2169:
 1837              		.loc 5 305 0
 1838 039c 048021E5 		str	r8, [r1, #-4]!
 1839              	.LVL172:
 1840              	.LBB2173:
 1841              	.LBB2171:
 255:C:/Renesas/e2studio_2021_01_workspace_RZA2M_ANPR/ANPR_RZA2M_EBK/src/tensorflow_lite/third_party/flatbuffers/include/flatbuffers\util.h **** }
 1842              		.loc 5 255 0
 1843 03a0 FEFFFFEB 		bl	strtoll
 1844              	.LVL173:
 1845              	.LBE2171:
 1846              	.LBE2173:
 306:C:/Renesas/e2studio_2021_01_workspace_RZA2M_ANPR/ANPR_RZA2M_EBK/src/tensorflow_lite/third_party/flatbuffers/include/flatbuffers\util.h ****     strtoval_impl(val, str, const_cast<char **>(&endptr), base);
 307:C:/Renesas/e2studio_2021_01_workspace_RZA2M_ANPR/ANPR_RZA2M_EBK/src/tensorflow_lite/third_party/flatbuffers/include/flatbuffers\util.h ****     if ((*endptr != '\0') || (endptr == str)) {
 1847              		.loc 5 307 0
 1848 03a4 0C309DE5 		ldr	r3, [sp, #12]
 1849              	.LBB2174:
 1850              	.LBB2172:
 255:C:/Renesas/e2studio_2021_01_workspace_RZA2M_ANPR/ANPR_RZA2M_EBK/src/tensorflow_lite/third_party/flatbuffers/include/flatbuffers\util.h **** }
 1851              		.loc 5 255 0
 1852 03a8 0050A0E1 		mov	r5, r0
 1853              	.LVL174:
 1854              	.LBE2172:
 1855              	.LBE2174:
 1856              		.loc 5 307 0
 1857 03ac 0020D3E5 		ldrb	r2, [r3]	@ zero_extendqisi2
 1858 03b0 083043E0 		sub	r3, r3, r8
 1859 03b4 133F6FE1 		clz	r3, r3
 1860 03b8 A332A0E1 		lsr	r3, r3, #5
 1861 03bc 040052E1 		cmp	r2, r4
 1862 03c0 01308313 		orrne	r3, r3, #1
 1863 03c4 040053E1 		cmp	r3, r4
 1864 03c8 72FFFF1A 		bne	.L141
 308:C:/Renesas/e2studio_2021_01_workspace_RZA2M_ANPR/ANPR_RZA2M_EBK/src/tensorflow_lite/third_party/flatbuffers/include/flatbuffers\util.h ****       *val = 0;      // erase partial result
 309:C:/Renesas/e2studio_2021_01_workspace_RZA2M_ANPR/ANPR_RZA2M_EBK/src/tensorflow_lite/third_party/flatbuffers/include/flatbuffers\util.h ****       return false;  // invalid string
 310:C:/Renesas/e2studio_2021_01_workspace_RZA2M_ANPR/ANPR_RZA2M_EBK/src/tensorflow_lite/third_party/flatbuffers/include/flatbuffers\util.h ****     }
 311:C:/Renesas/e2studio_2021_01_workspace_RZA2M_ANPR/ANPR_RZA2M_EBK/src/tensorflow_lite/third_party/flatbuffers/include/flatbuffers\util.h ****     // errno is out-of-range, return MAX/MIN
 312:C:/Renesas/e2studio_2021_01_workspace_RZA2M_ANPR/ANPR_RZA2M_EBK/src/tensorflow_lite/third_party/flatbuffers/include/flatbuffers\util.h ****     if (check_errno && errno) return false;
 1865              		.loc 5 312 0
 1866 03cc FEFFFFEB 		bl	__errno
 1867              	.LVL175:
 1868 03d0 003090E5 		ldr	r3, [r0]
 1869              	.LVL176:
 1870 03d4 040053E1 		cmp	r3, r4
 1871 03d8 0500A001 		moveq	r0, r5
 1872 03dc 0400A011 		movne	r0, r4
 1873 03e0 6DFFFFEA 		b	.L75
 1874              	.LVL177:
 1875              	.L85:
 1876              	.LBE2168:
 1877              	.LBE2167:
 1878              	.LBE2166:
 1879              	.LBE2165:
 1880              	.LBE2164:
 1881              	.LBB2178:
 1882              	.LBB2179:
 1883              	.LBB2180:
 138:C:/Renesas/e2studio_2021_01_workspace_RZA2M_ANPR/ANPR_RZA2M_EBK/src/tensorflow_lite/third_party/flatbuffers/include/flatbuffers\flexbuffers.h ****                     ? static_cast<R>(flatbuffers::ReadScalar<T1>(data))
 1884              		.loc 1 138 0
 1885 03e4 03005AE3 		cmp	r10, #3
 1886 03e8 79FFFF8A 		bhi	.L132
 139:C:/Renesas/e2studio_2021_01_workspace_RZA2M_ANPR/ANPR_RZA2M_EBK/src/tensorflow_lite/third_party/flatbuffers/include/flatbuffers\flexbuffers.h ****                     : static_cast<R>(flatbuffers::ReadScalar<T2>(data)))
 1887              		.loc 1 139 0
 1888 03ec 01005AE3 		cmp	r10, #1
 1889 03f0 73FFFF1A 		bne	.L133
 1890 03f4 D2FFFFEA 		b	.L151
 1891              	.LVL178:
 1892              	.L59:
 1893              	.LBE2180:
 1894              	.LBE2179:
 1895              	.LBE2178:
 1896              	.LBE2199:
 1897              	.LBE2206:
 1898              	.LBE2230:
 1899              	.LBB2231:
 1900              	.LBB1961:
 1901              	.LBB1950:
 1902              	.LBB1929:
 1903              	.LBB1913:
 1904              	.LBB1905:
 1905              	.LBB1901:
 1906              	.LBB1898:
 1907              	.LBB1895:
 142:C:/Renesas/e2studio_2021_01_workspace_RZA2M_ANPR/ANPR_RZA2M_EBK/src/tensorflow_lite/third_party/flatbuffers/include/flatbuffers\flexbuffers.h ****                     : static_cast<R>(flatbuffers::ReadScalar<T8>(data)));
 1908              		.loc 1 142 0
 1909 03f8 030053E3 		cmp	r3, #3
 1910              	.LBE1895:
 1911              	.LBE1898:
 1912              	.LBE1901:
 1913              	.LBE1905:
 1914              	.LBE1913:
 341:C:/Renesas/e2studio_2021_01_workspace_RZA2M_ANPR/ANPR_RZA2M_EBK/src/tensorflow_lite/third_party/flatbuffers/include/flatbuffers\flexbuffers.h ****     return TypedVector(Indirect(keys_offset, byte_width_),
 1915              		.loc 1 341 0
 1916 03fc 0350A0E3 		mov	r5, #3
 1917              	.LVL179:
 1918              	.LBE1929:
 1919              	.LBE1950:
 1920              	.LBE1961:
 1921              	.LBE2231:
 1922              	.LBB2232:
 1923              	.LBB1840:
 1924              	.LBB1830:
 1925              	.LBB1822:
 1926              	.LBB1817:
 1927              	.LBB1813:
 1928              	.LBB1809:
 1929              	.LBB1805:
 1930              	.LBB1801:
 1931              	.LBB1797:
 1932              	.LBB1793:
 142:C:/Renesas/e2studio_2021_01_workspace_RZA2M_ANPR/ANPR_RZA2M_EBK/src/tensorflow_lite/third_party/flatbuffers/include/flatbuffers\flexbuffers.h ****                     : static_cast<R>(flatbuffers::ReadScalar<T8>(data)));
 1933              		.loc 1 142 0
 1934 0400 009092E5 		ldr	r9, [r2]
 1935              	.LBE1793:
 1936              	.LBE1797:
 1937              	.LBE1801:
 1938              	.LBE1805:
 1939              	.LBE1809:
 1940              	.LBE1813:
 1941              	.LBE1817:
 1942              	.LBE1822:
 1943              	.LBE1830:
 1944              	.LBE1840:
 1945              	.LBE2232:
 1946              	.LBB2233:
 1947              	.LBB1962:
 1948              	.LBB1951:
 1949              	.LBB1930:
 341:C:/Renesas/e2studio_2021_01_workspace_RZA2M_ANPR/ANPR_RZA2M_EBK/src/tensorflow_lite/third_party/flatbuffers/include/flatbuffers\flexbuffers.h ****     return TypedVector(Indirect(keys_offset, byte_width_),
 1950              		.loc 1 341 0
 1951 0404 155344E0 		sub	r5, r4, r5, lsl r3
 1952              	.LBE1930:
 1953              	.LBE1951:
 1954              	.LBE1962:
 1955              	.LBE2233:
 1956              	.LBB2234:
 1957              	.LBB1735:
 1958              	.LBB1731:
 1959              	.LBB1728:
 385:C:/Renesas/e2studio_2021_01_workspace_RZA2M_ANPR/ANPR_RZA2M_EBK/src/tensorflow_lite/third_party/flatbuffers/include/flatbuffers\flexbuffers.h ****     type_ = static_cast<Type>(packed_type >> 2);
 1960              		.loc 1 385 0
 1961 0408 78A0EFE6 		uxtb	r10, r8
 1962              	.LVL180:
 1963              	.LBE1728:
 1964              	.LBE1731:
 1965              	.LBE1735:
 1966              	.LBE2234:
 1967              	.LBB2235:
 1968              	.LBB1963:
 1969              	.LBB1952:
 1970              	.LBB1931:
 1971              	.LBB1914:
 1972              	.LBB1906:
 1973              	.LBB1902:
 1974              	.LBB1899:
 1975              	.LBB1896:
 142:C:/Renesas/e2studio_2021_01_workspace_RZA2M_ANPR/ANPR_RZA2M_EBK/src/tensorflow_lite/third_party/flatbuffers/include/flatbuffers\flexbuffers.h ****                     : static_cast<R>(flatbuffers::ReadScalar<T8>(data)));
 1976              		.loc 1 142 0
 1977 040c 0400000A 		beq	.L165
 1978              	.LVL181:
 1979              	.LBE1896:
 1980              	.LBE1899:
 1981              	.LBE1902:
 1982              	.LBE1906:
 1983              	.LBE1914:
 1984              	.LBB1915:
 1985              	.LBB1856:
 1986              	.LBB1852:
 1987 0410 086095E7 		ldr	r6, [r5, r8]
 1988              	.LBE1852:
 1989              	.LBE1856:
 1990              	.LBE1915:
 1991              	.LBB1916:
 1992              	.LBB1907:
 176:C:/Renesas/e2studio_2021_01_workspace_RZA2M_ANPR/ANPR_RZA2M_EBK/src/tensorflow_lite/third_party/flatbuffers/include/flatbuffers\flexbuffers.h **** }
 1993              		.loc 1 176 0
 1994 0414 003095E5 		ldr	r3, [r5]
 1995              	.LBE1907:
 1996              	.LBE1916:
 1997              	.LBB1917:
 1998              	.LBB1857:
 1999              	.LBB1853:
 142:C:/Renesas/e2studio_2021_01_workspace_RZA2M_ANPR/ANPR_RZA2M_EBK/src/tensorflow_lite/third_party/flatbuffers/include/flatbuffers\flexbuffers.h ****                     : static_cast<R>(flatbuffers::ReadScalar<T8>(data)));
 2000              		.loc 1 142 0
 2001 0418 0620A0E1 		mov	r2, r6
 2002              	.LBE1853:
 2003              	.LBE1857:
 2004              	.LBE1917:
 2005              	.LBB1918:
 2006              	.LBB1908:
 176:C:/Renesas/e2studio_2021_01_workspace_RZA2M_ANPR/ANPR_RZA2M_EBK/src/tensorflow_lite/third_party/flatbuffers/include/flatbuffers\flexbuffers.h **** }
 2007              		.loc 1 176 0
 2008 041c 035045E0 		sub	r5, r5, r3
 2009              	.LVL182:
 2010 0420 12FFFFEA 		b	.L65
 2011              	.LVL183:
 2012              	.L165:
 2013 0424 001095E5 		ldr	r1, [r5]
 2014              	.LBE1908:
 2015              	.LBE1918:
 2016              	.LBB1919:
 2017              	.LBB1858:
 2018              	.LBB1854:
 2019              	.LBB1849:
 2020              	.LBB1850:
 2021              		.loc 4 392 0
 2022 0428 0880A0E3 		mov	r8, #8
 2023 042c D820C5E1 		ldrd	r2, [r5, #8]
 2024              	.LBE1850:
 2025              	.LBE1849:
 2026              	.LBE1854:
 2027              	.LBE1858:
 2028              	.LBE1919:
 2029              	.LBB1920:
 2030              	.LBB1909:
 176:C:/Renesas/e2studio_2021_01_workspace_RZA2M_ANPR/ANPR_RZA2M_EBK/src/tensorflow_lite/third_party/flatbuffers/include/flatbuffers\flexbuffers.h **** }
 2031              		.loc 1 176 0
 2032 0430 015045E0 		sub	r5, r5, r1
 2033              	.LVL184:
 2034 0434 0DFFFFEA 		b	.L65
 2035              	.LVL185:
 2036              	.L113:
 2037              	.LBE1909:
 2038              	.LBE1920:
 2039              	.LBE1931:
 2040              	.LBE1952:
 2041              	.LBE1963:
 2042              	.LBE2235:
 2043              	.LBB2236:
 2044              	.LBB2207:
 2045              	.LBB2200:
 2046              	.LBB2181:
 2047              	.LBB2078:
 2048              	.LBB2073:
 2049              	.LBB2068:
 2050              	.LBB2064:
 142:C:/Renesas/e2studio_2021_01_workspace_RZA2M_ANPR/ANPR_RZA2M_EBK/src/tensorflow_lite/third_party/flatbuffers/include/flatbuffers\flexbuffers.h ****                     : static_cast<R>(flatbuffers::ReadScalar<T8>(data)));
 2051              		.loc 1 142 0
 2052 0438 080052E3 		cmp	r2, #8
 2053 043c 0800000A 		beq	.L116
 2054              	.LVL186:
 2055              	.L154:
 2056 0440 007AD4ED 		vldr.32	s15, [r4]
 2057 0444 E70AF7EE 		vcvt.f64.f32	d16, s15
 2058 0448 9CFFFFEA 		b	.L115
 2059              	.LVL187:
 2060              	.L109:
 2061              	.LBE2064:
 2062              	.LBE2068:
 2063              	.LBE2073:
 2064              	.LBB2074:
 2065              	.LBB2055:
 2066              	.LBB2052:
 2067              	.LBB2049:
 2068              	.LBB2047:
 2069              	.LBB2045:
 2070 044c 08005AE3 		cmp	r10, #8
 2071 0450 1500000A 		beq	.L112
 2072 0454 008094E5 		ldr	r8, [r4]
 2073 0458 90FFFFEA 		b	.L111
 2074              	.LVL188:
 2075              	.L105:
 2076              	.LBE2045:
 2077              	.LBE2047:
 2078              	.LBE2049:
 2079              	.LBE2052:
 2080              	.LBE2055:
 2081              	.LBE2074:
 2082              	.LBE2078:
 2083              	.LBE2181:
 2084              	.LBB2182:
 2085              	.LBB2108:
 2086              	.LBB2107:
 2087 045c 08005AE3 		cmp	r10, #8
 2088 0460 F6FFFF1A 		bne	.L154
 2089              	.LVL189:
 2090              	.L116:
 2091              	.LBE2107:
 2092              	.LBE2108:
 2093              	.LBE2182:
 2094              	.LBB2183:
 2095              	.LBB2079:
 2096              	.LBB2075:
 2097              	.LBB2069:
 2098              	.LBB2065:
 2099              	.LBB2060:
 2100              	.LBB2061:
 2101              		.loc 4 392 0
 2102 0464 000BD4ED 		vldr.64	d16, [r4]
 2103              	.LVL190:
 2104 0468 94FFFFEA 		b	.L115
 2105              	.LVL191:
 2106              	.L93:
 2107              	.LBE2061:
 2108              	.LBE2060:
 2109              	.LBE2065:
 2110              	.LBE2069:
 2111              	.LBE2075:
 2112              	.LBE2079:
 2113              	.LBE2183:
 2114              	.LBB2184:
 2115              	.LBB2141:
 2116              	.LBB2140:
 142:C:/Renesas/e2studio_2021_01_workspace_RZA2M_ANPR/ANPR_RZA2M_EBK/src/tensorflow_lite/third_party/flatbuffers/include/flatbuffers\flexbuffers.h ****                     : static_cast<R>(flatbuffers::ReadScalar<T8>(data)));
 2117              		.loc 1 142 0
 2118 046c 08005AE3 		cmp	r10, #8
 2119 0470 57FFFF1A 		bne	.L132
 2120              	.LVL192:
 2121              	.L104:
 2122              	.LBE2140:
 2123              	.LBE2141:
 2124              	.LBE2184:
 2125              	.LBB2185:
 2126              	.LBB1984:
 2127              	.LBB1980:
 2128              	.LBB1975:
 2129              	.LBB1976:
 2130              		.loc 4 392 0
 2131 0474 D000C4E1 		ldrd	r0, [r4]
 2132              	.LVL193:
 2133 0478 47FFFFEA 		b	.L75
 2134              	.LVL194:
 2135              	.L86:
 2136              	.LBE1976:
 2137              	.LBE1975:
 2138              	.LBE1980:
 2139              	.LBE1984:
 2140              	.LBE2185:
 2141              	.LBB2186:
 2142              	.LBB2128:
 2143              	.LBB2125:
 2144              	.LBB2122:
 2145              	.LBB2120:
 2146              	.LBB2118:
 142:C:/Renesas/e2studio_2021_01_workspace_RZA2M_ANPR/ANPR_RZA2M_EBK/src/tensorflow_lite/third_party/flatbuffers/include/flatbuffers\flexbuffers.h ****                     : static_cast<R>(flatbuffers::ReadScalar<T8>(data)));
 2147              		.loc 1 142 0
 2148 047c 08005AE3 		cmp	r10, #8
 2149 0480 0700000A 		beq	.L89
 2150 0484 008094E5 		ldr	r8, [r4]
 2151 0488 A8FFFFEA 		b	.L88
 2152              	.LVL195:
 2153              	.L97:
 2154              	.LBE2118:
 2155              	.LBE2120:
 2156              	.LBE2122:
 2157              	.LBE2125:
 2158              	.LBE2128:
 2159              	.LBE2186:
 2160              	.LBB2187:
 2161              	.LBB2099:
 2162              	.LBB2096:
 2163              	.LBB2093:
 2164              	.LBB2091:
 2165              	.LBB2089:
 2166 048c 08005AE3 		cmp	r10, #8
 2167 0490 0700000A 		beq	.L100
 2168 0494 008094E5 		ldr	r8, [r4]
 2169 0498 90FFFFEA 		b	.L99
 2170              	.LVL196:
 2171              	.L58:
 2172              	.LBE2089:
 2173              	.LBE2091:
 2174              	.LBE2093:
 2175              	.LBE2096:
 2176              	.LBE2099:
 2177              	.LBE2187:
 2178              	.LBE2200:
 2179              	.LBE2207:
 2180              	.LBE2236:
 2181              	.LBB2237:
 2182              	.LBB1841:
 2183              	.LBB1831:
 2184              	.LBB1823:
 2185              	.LBB1779:
 2186              	.LBB1775:
 2187              	.LBB1771:
 2188              	.LBB1768:
 2189              	.LBB1765:
 2190              	.LBB1761:
 2191              	.LBB1762:
 2192              		.loc 4 392 0
 2193 049c D020C4E1 		ldrd	r2, [r4]
 2194              	.LVL197:
 2195 04a0 54FFFFEA 		b	.L57
 2196              	.LVL198:
 2197              	.L89:
 2198              	.LBE1762:
 2199              	.LBE1761:
 2200              	.LBE1765:
 2201              	.LBE1768:
 2202              	.LBE1771:
 2203              	.LBE1775:
 2204              	.LBE1779:
 2205              	.LBE1823:
 2206              	.LBE1831:
 2207              	.LBE1841:
 2208              	.LBE2237:
 2209              	.LBB2238:
 2210              	.LBB2208:
 2211              	.LBB2201:
 2212              	.LBB2188:
 2213              	.LBB2129:
 2214              	.LBB2126:
 2215              	.LBB2123:
 2216              	.LBB2121:
 2217              	.LBB2119:
 2218              	.LBB2116:
 2219              	.LBB2117:
 2220 04a4 D080C4E1 		ldrd	r8, [r4]
 2221              	.LVL199:
 2222 04a8 A0FFFFEA 		b	.L88
 2223              	.LVL200:
 2224              	.L112:
 2225              	.LBE2117:
 2226              	.LBE2116:
 2227              	.LBE2119:
 2228              	.LBE2121:
 2229              	.LBE2123:
 2230              	.LBE2126:
 2231              	.LBE2129:
 2232              	.LBE2188:
 2233              	.LBB2189:
 2234              	.LBB2080:
 2235              	.LBB2076:
 2236              	.LBB2056:
 2237              	.LBB2053:
 2238              	.LBB2050:
 2239              	.LBB2048:
 2240              	.LBB2046:
 2241              	.LBB2043:
 2242              	.LBB2044:
 2243 04ac D080C4E1 		ldrd	r8, [r4]
 2244              	.LVL201:
 2245 04b0 7AFFFFEA 		b	.L111
 2246              	.LVL202:
 2247              	.L100:
 2248              	.LBE2044:
 2249              	.LBE2043:
 2250              	.LBE2046:
 2251              	.LBE2048:
 2252              	.LBE2050:
 2253              	.LBE2053:
 2254              	.LBE2056:
 2255              	.LBE2076:
 2256              	.LBE2080:
 2257              	.LBE2189:
 2258              	.LBB2190:
 2259              	.LBB2100:
 2260              	.LBB2097:
 2261              	.LBB2094:
 2262              	.LBB2092:
 2263              	.LBB2090:
 2264              	.LBB2087:
 2265              	.LBB2088:
 2266 04b4 D080C4E1 		ldrd	r8, [r4]
 2267              	.LVL203:
 2268 04b8 88FFFFEA 		b	.L99
 2269              	.LVL204:
 2270              	.L117:
 2271              	.LBE2088:
 2272              	.LBE2087:
 2273              	.LBE2090:
 2274              	.LBE2092:
 2275              	.LBE2094:
 2276              	.LBE2097:
 2277              	.LBE2100:
 2278              	.LBE2190:
 2279              	.LBB2191:
 2280              	.LBB2162:
 2281              	.LBB2160:
 2282              	.LBB2158:
 2283              	.LBB2156:
 2284              	.LBB2154:
 2285              	.LBB2152:
 142:C:/Renesas/e2studio_2021_01_workspace_RZA2M_ANPR/ANPR_RZA2M_EBK/src/tensorflow_lite/third_party/flatbuffers/include/flatbuffers\flexbuffers.h ****                     : static_cast<R>(flatbuffers::ReadScalar<T8>(data)));
 2286              		.loc 1 142 0
 2287 04bc 08005AE3 		cmp	r10, #8
 2288 04c0 0900000A 		beq	.L120
 2289 04c4 008094E5 		ldr	r8, [r4]
 2290 04c8 AAFFFFEA 		b	.L119
 2291              	.LVL205:
 2292              	.L128:
 2293              	.LBE2152:
 2294              	.LBE2154:
 2295              	.LBE2156:
 2296              	.LBE2158:
 2297              	.LBE2160:
 2298              	.LBE2162:
 2299              	.LBE2191:
 2300              	.LBB2192:
 2301              	.LBB2033:
 2302              	.LBB2029:
 2303              	.LBB2027:
 2304              	.LBB2025:
 2305              	.LBB2023:
 2306              	.LBB2021:
 2307              	.LBB2018:
 2308              	.LBB2015:
 2309 04cc 080052E3 		cmp	r2, #8
 2310 04d0 0700000A 		beq	.L131
 2311 04d4 000090E5 		ldr	r0, [r0]
 2312              	.LVL206:
 2313 04d8 2FFFFFEA 		b	.L75
 2314              	.LVL207:
 2315              	.L124:
 2316              	.LBE2015:
 2317              	.LBE2018:
 2318              	.LBE2021:
 2319              	.LBE2023:
 2320              	.LBE2025:
 2321              	.LBE2027:
 2322              	.LBE2029:
 2323              	.LBB2030:
 2324              	.LBB2003:
 2325              	.LBB2001:
 2326              	.LBB1999:
 2327              	.LBB1997:
 2328              	.LBB1995:
 2329 04dc 08005AE3 		cmp	r10, #8
 2330 04e0 0500000A 		beq	.L127
 2331 04e4 000094E5 		ldr	r0, [r4]
 2332              	.LVL208:
 2333 04e8 5FFFFFEA 		b	.L126
 2334              	.LVL209:
 2335              	.L120:
 2336              	.LBE1995:
 2337              	.LBE1997:
 2338              	.LBE1999:
 2339              	.LBE2001:
 2340              	.LBE2003:
 2341              	.LBE2030:
 2342              	.LBE2033:
 2343              	.LBE2192:
 2344              	.LBB2193:
 2345              	.LBB2163:
 2346              	.LBB2161:
 2347              	.LBB2159:
 2348              	.LBB2157:
 2349              	.LBB2155:
 2350              	.LBB2153:
 2351              	.LBB2150:
 2352              	.LBB2151:
 2353              		.loc 4 392 0
 2354 04ec D080C4E1 		ldrd	r8, [r4]
 2355              	.LVL210:
 2356 04f0 A0FFFFEA 		b	.L119
 2357              	.LVL211:
 2358              	.L131:
 2359              	.LBE2151:
 2360              	.LBE2150:
 2361              	.LBE2153:
 2362              	.LBE2155:
 2363              	.LBE2157:
 2364              	.LBE2159:
 2365              	.LBE2161:
 2366              	.LBE2163:
 2367              	.LBE2193:
 2368              	.LBB2194:
 2369              	.LBB2034:
 2370              	.LBB2031:
 2371              	.LBB2028:
 2372              	.LBB2026:
 2373              	.LBB2024:
 2374              	.LBB2022:
 2375              	.LBB2019:
 2376              	.LBB2016:
 2377              	.LBB2012:
 2378              	.LBB2013:
 2379 04f4 D000C0E1 		ldrd	r0, [r0]
 2380              	.LVL212:
 2381 04f8 27FFFFEA 		b	.L75
 2382              	.LVL213:
 2383              	.L127:
 2384              	.LBE2013:
 2385              	.LBE2012:
 2386              	.LBE2016:
 2387              	.LBE2019:
 2388              	.LBE2022:
 2389              	.LBE2024:
 2390              	.LBE2026:
 2391              	.LBE2028:
 2392              	.LBE2031:
 2393              	.LBB2032:
 2394              	.LBB2004:
 2395              	.LBB2002:
 2396              	.LBB2000:
 2397              	.LBB1998:
 2398              	.LBB1996:
 2399              	.LBB1993:
 2400              	.LBB1994:
 2401 04fc D000C4E1 		ldrd	r0, [r4]
 2402              	.LVL214:
 2403 0500 59FFFFEA 		b	.L126
 2404              	.LVL215:
 2405              	.L158:
 2406              	.LBE1994:
 2407              	.LBE1993:
 2408              	.LBE1996:
 2409              	.LBE1998:
 2410              	.LBE2000:
 2411              	.LBE2002:
 2412              	.LBE2004:
 2413              	.LBE2032:
 2414              	.LBE2034:
 2415              	.LBE2194:
 2416              	.LBE2201:
 2417              	.LBE2208:
 2418              	.LBE2238:
 2419              	.LBE2241:
 2420              	.LBE2245:
  73:../src/tensorflow_lite/tensorflow/lite/micro/kernels/circular_buffer.cc ****   OpData* op_data = static_cast<OpData*>(
 2421              		.loc 2 73 0 discriminator 1
 2422 0504 FEFFFFEB 		bl	abort
 2423              	.LVL216:
 2424              	.L164:
 2425              	.LBB2246:
 2426              	.LBB2242:
 2427              	.LBB2239:
 2428              	.LBB2209:
 2429              	.LBB2202:
 2430              	.LBB2195:
 2431              	.LBB2177:
 2432              	.LBB2176:
 2433              	.LBB2175:
 295:C:/Renesas/e2studio_2021_01_workspace_RZA2M_ANPR/ANPR_RZA2M_EBK/src/tensorflow_lite/third_party/flatbuffers/include/flatbuffers\util.h ****   if (base <= 0) {
 2434              		.loc 5 295 0
 2435 0508 003000E3 		movw	r3, #:lower16:.LC19
 2436 050c 002000E3 		movw	r2, #:lower16:.LANCHOR2
 2437              	.LVL217:
 2438 0510 000000E3 		movw	r0, #:lower16:.LC20
 2439              	.LVL218:
 2440 0514 003040E3 		movt	r3, #:upper16:.LC19
 2441 0518 002040E3 		movt	r2, #:upper16:.LANCHOR2
 2442 051c 000040E3 		movt	r0, #:upper16:.LC20
 2443 0520 271100E3 		movw	r1, #295
 2444 0524 FEFFFFEB 		bl	__assert_func
 2445              	.LVL219:
 2446              	.L163:
 2447 0528 0050D1E5 		ldrb	r5, [r1]	@ zero_extendqisi2
 2448              	.LVL220:
 2449 052c 055041E0 		sub	r5, r1, r5
 2450 0530 CDFEFFEA 		b	.L64
 2451              	.L167:
 2452              		.align	2
 2453              	.L166:
 2454 0534 01000000 		.word	_ZZN11flexbuffers3Map8EmptyMapEvE9empty_map+1
 2455              	.LBE2175:
 2456              	.LBE2176:
 2457              	.LBE2177:
 2458              	.LBE2195:
 2459              	.LBE2202:
 2460              	.LBE2209:
 2461              	.LBE2239:
 2462              	.LBE2242:
 2463              	.LBE2246:
 2464              		.cfi_endproc
 2465              	.LFE4380:
 2466              		.fnend
 2468              		.section	.text._ZN6tflite3ops5micro15circular_buffer8EvalInt8EPKaiiPa,"ax",%progbits
 2469              		.align	2
 2470              		.global	_ZN6tflite3ops5micro15circular_buffer8EvalInt8EPKaiiPa
 2471              		.syntax unified
 2472              		.arm
 2473              		.fpu neon
 2475              	_ZN6tflite3ops5micro15circular_buffer8EvalInt8EPKaiiPa:
 2476              		.fnstart
 2477              	.LFB4382:
 138:../src/tensorflow_lite/tensorflow/lite/micro/kernels/circular_buffer.cc ****   memmove(output, &output[depth], (num_slots - 1) * depth);
 2478              		.loc 2 138 0
 2479              		.cfi_startproc
 2480              		@ args = 0, pretend = 0, frame = 0
 2481              		@ frame_needed = 0, uses_anonymous_args = 0
 2482              	.LVL221:
 139:../src/tensorflow_lite/tensorflow/lite/micro/kernels/circular_buffer.cc ****   memcpy(&output[(num_slots - 1) * depth], input, depth);
 2483              		.loc 2 139 0
 2484 0000 011041E2 		sub	r1, r1, #1
 2485              	.LVL222:
 138:../src/tensorflow_lite/tensorflow/lite/micro/kernels/circular_buffer.cc ****   memmove(output, &output[depth], (num_slots - 1) * depth);
 2486              		.loc 2 138 0
 2487 0004 70402DE9 		push	{r4, r5, r6, lr}
 2488              		.cfi_def_cfa_offset 16
 2489              		.cfi_offset 4, -16
 2490              		.cfi_offset 5, -12
 2491              		.cfi_offset 6, -8
 2492              		.cfi_offset 14, -4
 139:../src/tensorflow_lite/tensorflow/lite/micro/kernels/circular_buffer.cc ****   memcpy(&output[(num_slots - 1) * depth], input, depth);
 2493              		.loc 2 139 0
 2494 0008 920104E0 		mul	r4, r2, r1
 138:../src/tensorflow_lite/tensorflow/lite/micro/kernels/circular_buffer.cc ****   memmove(output, &output[depth], (num_slots - 1) * depth);
 2495              		.loc 2 138 0
 2496 000c 0250A0E1 		mov	r5, r2
 2497 0010 0060A0E1 		mov	r6, r0
 139:../src/tensorflow_lite/tensorflow/lite/micro/kernels/circular_buffer.cc ****   memcpy(&output[(num_slots - 1) * depth], input, depth);
 2498              		.loc 2 139 0
 2499 0014 021083E0 		add	r1, r3, r2
 2500              	.LVL223:
 2501 0018 0300A0E1 		mov	r0, r3
 2502              	.LVL224:
 2503 001c 0420A0E1 		mov	r2, r4
 2504              	.LVL225:
 2505 0020 FEFFFFEB 		bl	memmove
 2506              	.LVL226:
 140:../src/tensorflow_lite/tensorflow/lite/micro/kernels/circular_buffer.cc **** }
 2507              		.loc 2 140 0
 2508 0024 0520A0E1 		mov	r2, r5
 2509 0028 0610A0E1 		mov	r1, r6
 2510 002c 040080E0 		add	r0, r0, r4
 141:../src/tensorflow_lite/tensorflow/lite/micro/kernels/circular_buffer.cc **** 
 2511              		.loc 2 141 0
 2512 0030 7040BDE8 		pop	{r4, r5, r6, lr}
 2513              		.cfi_restore 14
 2514              		.cfi_restore 6
 2515              		.cfi_restore 5
 2516              		.cfi_restore 4
 2517              		.cfi_def_cfa_offset 0
 2518              	.LVL227:
 140:../src/tensorflow_lite/tensorflow/lite/micro/kernels/circular_buffer.cc **** }
 2519              		.loc 2 140 0
 2520 0034 FEFFFFEA 		b	memcpy
 2521              	.LVL228:
 2522              		.cfi_endproc
 2523              	.LFE4382:
 2524              		.cantunwind
 2525              		.fnend
 2527              		.section	.text._ZN6tflite3ops5micro24Register_CIRCULAR_BUFFEREv,"ax",%progbits
 2528              		.align	2
 2529              		.global	_ZN6tflite3ops5micro24Register_CIRCULAR_BUFFEREv
 2530              		.syntax unified
 2531              		.arm
 2532              		.fpu neon
 2534              	_ZN6tflite3ops5micro24Register_CIRCULAR_BUFFEREv:
 2535              		.fnstart
 2536              	.LFB4384:
 175:../src/tensorflow_lite/tensorflow/lite/micro/kernels/circular_buffer.cc **** 
 176:../src/tensorflow_lite/tensorflow/lite/micro/kernels/circular_buffer.cc **** }  // namespace circular_buffer
 177:../src/tensorflow_lite/tensorflow/lite/micro/kernels/circular_buffer.cc **** 
 178:../src/tensorflow_lite/tensorflow/lite/micro/kernels/circular_buffer.cc **** TfLiteRegistration* Register_CIRCULAR_BUFFER() {
 2537              		.loc 2 178 0
 2538              		.cfi_startproc
 2539              		@ args = 0, pretend = 0, frame = 0
 2540              		@ frame_needed = 0, uses_anonymous_args = 0
 2541              		@ link register save eliminated.
 179:../src/tensorflow_lite/tensorflow/lite/micro/kernels/circular_buffer.cc ****   static TfLiteRegistration r = {/*init=*/circular_buffer::Init,
 180:../src/tensorflow_lite/tensorflow/lite/micro/kernels/circular_buffer.cc ****                                  /*free=*/nullptr,
 181:../src/tensorflow_lite/tensorflow/lite/micro/kernels/circular_buffer.cc ****                                  /*prepare=*/circular_buffer::Prepare,
 182:../src/tensorflow_lite/tensorflow/lite/micro/kernels/circular_buffer.cc ****                                  /*invoke=*/circular_buffer::Eval,
 183:../src/tensorflow_lite/tensorflow/lite/micro/kernels/circular_buffer.cc ****                                  /*profiling_string=*/nullptr,
 184:../src/tensorflow_lite/tensorflow/lite/micro/kernels/circular_buffer.cc ****                                  /*builtin_code=*/0,
 185:../src/tensorflow_lite/tensorflow/lite/micro/kernels/circular_buffer.cc ****                                  /*custom_name=*/nullptr,
 186:../src/tensorflow_lite/tensorflow/lite/micro/kernels/circular_buffer.cc ****                                  /*version=*/0};
 187:../src/tensorflow_lite/tensorflow/lite/micro/kernels/circular_buffer.cc ****   return &r;
 188:../src/tensorflow_lite/tensorflow/lite/micro/kernels/circular_buffer.cc **** }
 2542              		.loc 2 188 0
 2543 0000 000000E3 		movw	r0, #:lower16:.LANCHOR3
 2544 0004 000040E3 		movt	r0, #:upper16:.LANCHOR3
 2545 0008 1EFF2FE1 		bx	lr
 2546              		.cfi_endproc
 2547              	.LFE4384:
 2548              		.cantunwind
 2549              		.fnend
 2551              		.weak	_ZZN11flexbuffers3Map8EmptyMapEvE9empty_map
 2552              		.section	.rodata._ZZN11flexbuffers3Map8EmptyMapEvE9empty_map,"aG",%progbits,_ZZN11flexbuffers3Map8
 2553              		.align	2
 2556              	_ZZN11flexbuffers3Map8EmptyMapEvE9empty_map:
 2557 0000 00       		.byte	0
 2558 0001 00       		.byte	0
 2559 0002 01       		.byte	1
 2560 0003 00       		.byte	0
 2561              		.section	.bss._ZZN6tflite3ops5micro15circular_buffer7PrepareEP13TfLiteContextP10TfLiteNodeE16cb_pr
 2562              		.align	2
 2563              		.set	.LANCHOR0,. + 0
 2566              	_ZZN6tflite3ops5micro15circular_buffer7PrepareEP13TfLiteContextP10TfLiteNodeE16cb_prepare_count:
 2567 0000 00000000 		.space	4
 2568              		.section	.data._ZZN6tflite3ops5micro24Register_CIRCULAR_BUFFEREvE1r,"aw",%progbits
 2569              		.align	2
 2570              		.set	.LANCHOR3,. + 0
 2573              	_ZZN6tflite3ops5micro24Register_CIRCULAR_BUFFEREvE1r:
 2574 0000 00000000 		.word	_ZN6tflite3ops5micro15circular_buffer4InitEP13TfLiteContextPKcj
 2575 0004 00000000 		.word	0
 2576 0008 00000000 		.word	_ZN6tflite3ops5micro15circular_buffer7PrepareEP13TfLiteContextP10TfLiteNode
 2577 000c 00000000 		.word	_ZN6tflite3ops5micro15circular_buffer4EvalEP13TfLiteContextP10TfLiteNode
 2578 0010 00000000 		.word	0
 2579 0014 00000000 		.word	0
 2580 0018 00000000 		.word	0
 2581 001c 00000000 		.word	0
 2582              		.section	.rodata.CSWTCH.109,"a",%progbits
 2583              		.align	3
 2584              		.set	.LANCHOR1,. + 0
 2587              	CSWTCH.109:
 2588 0000 00000000 		.word	_ZN11flexbuffers10KeyCompareIhEEiPKvS2_
 2589 0004 00000000 		.word	_ZN11flexbuffers10KeyCompareItEEiPKvS2_
 2590 0008 00000000 		.word	0
 2591 000c 00000000 		.word	_ZN11flexbuffers10KeyCompareImEEiPKvS2_
 2592 0010 00000000 		.word	0
 2593 0014 00000000 		.word	0
 2594 0018 00000000 		.word	0
 2595 001c 00000000 		.word	_ZN11flexbuffers10KeyCompareIyEEiPKvS2_
 2596              		.section	.rodata._ZN6tflite3ops5micro15circular_buffer4EvalEP13TfLiteContextP10TfLiteNode.str1.4,"
 2597              		.align	2
 2598              	.LC17:
 2599 0000 54797065 		.ascii	"Type %s (%d) not supported.\000"
 2599      20257320 
 2599      28256429 
 2599      206E6F74 
 2599      20737570 
 2600              		.section	.rodata._ZN6tflite3ops5micro15circular_buffer4InitEP13TfLiteContextPKcj.str1.4,"aMS",%pro
 2601              		.align	2
 2602              	.LC18:
 2603 0000 6379636C 		.ascii	"cycles_max\000"
 2603      65735F6D 
 2603      617800
 2604 000b 00       		.space	1
 2605              	.LC19:
 2606 000c 73747200 		.ascii	"str\000"
 2607              	.LC20:
 2608 0010 433A2F52 		.ascii	"C:/Renesas/e2studio_2021_01_workspace_RZA2M_ANPR/AN"
 2608      656E6573 
 2608      61732F65 
 2608      32737475 
 2608      64696F5F 
 2609 0043 50525F52 		.ascii	"PR_RZA2M_EBK/src/tensorflow_lite/third_party/flatbu"
 2609      5A41324D 
 2609      5F45424B 
 2609      2F737263 
 2609      2F74656E 
 2610 0076 66666572 		.ascii	"ffers/include/flatbuffers/util.h\000"
 2610      732F696E 
 2610      636C7564 
 2610      652F666C 
 2610      61746275 
 2611              		.section	.rodata._ZN6tflite3ops5micro15circular_buffer7PrepareEP13TfLiteContextP10TfLiteNode.str1.
 2612              		.align	2
 2613              	.LC0:
 2614 0000 2E2E2F73 		.ascii	"../src/tensorflow_lite/tensorflow/lite/micro/kernel"
 2614      72632F74 
 2614      656E736F 
 2614      72666C6F 
 2614      775F6C69 
 2615 0033 732F6369 		.ascii	"s/circular_buffer.cc\000"
 2615      7263756C 
 2615      61725F62 
 2615      75666665 
 2615      722E6363 
 2616              	.LC1:
 2617 0048 25733A25 		.ascii	"%s:%d %s was not true.\000"
 2617      64202573 
 2617      20776173 
 2617      206E6F74 
 2617      20747275 
 2618 005f 00       		.space	1
 2619              	.LC2:
 2620 0060 696E7075 		.ascii	"input != nullptr\000"
 2620      7420213D 
 2620      206E756C 
 2620      6C707472 
 2620      00
 2621 0071 000000   		.space	3
 2622              	.LC3:
 2623 0074 6F757470 		.ascii	"output != nullptr\000"
 2623      75742021 
 2623      3D206E75 
 2623      6C6C7074 
 2623      7200
 2624 0086 0000     		.space	2
 2625              	.LC4:
 2626 0088 25733A25 		.ascii	"%s:%d %s != %s (%d != %d)\000"
 2626      64202573 
 2626      20213D20 
 2626      25732028 
 2626      25642021 
 2627 00a2 0000     		.space	2
 2628              	.LC5:
 2629 00a4 6F757470 		.ascii	"output->dims->data[0]\000"
 2629      75742D3E 
 2629      64696D73 
 2629      2D3E6461 
 2629      74615B30 
 2630 00ba 0000     		.space	2
 2631              	.LC6:
 2632 00bc 696E7075 		.ascii	"input->dims->data[0]\000"
 2632      742D3E64 
 2632      696D732D 
 2632      3E646174 
 2632      615B305D 
 2633 00d1 000000   		.space	3
 2634              	.LC7:
 2635 00d4 696E7075 		.ascii	"input->dims->data[1]\000"
 2635      742D3E64 
 2635      696D732D 
 2635      3E646174 
 2635      615B315D 
 2636 00e9 000000   		.space	3
 2637              	.LC8:
 2638 00ec 3100     		.ascii	"1\000"
 2639 00ee 0000     		.space	2
 2640              	.LC9:
 2641 00f0 6F757470 		.ascii	"output->dims->data[2]\000"
 2641      75742D3E 
 2641      64696D73 
 2641      2D3E6461 
 2641      74615B32 
 2642 0106 0000     		.space	2
 2643              	.LC10:
 2644 0108 696E7075 		.ascii	"input->dims->data[2]\000"
 2644      742D3E64 
 2644      696D732D 
 2644      3E646174 
 2644      615B325D 
 2645 011d 000000   		.space	3
 2646              	.LC11:
 2647 0120 696E7075 		.ascii	"input->dims->data[3]\000"
 2647      742D3E64 
 2647      696D732D 
 2647      3E646174 
 2647      615B335D 
 2648 0135 000000   		.space	3
 2649              	.LC12:
 2650 0138 6F757470 		.ascii	"output->dims->data[3]\000"
 2650      75742D3E 
 2650      64696D73 
 2650      2D3E6461 
 2650      74615B33 
 2651 014e 0000     		.space	2
 2652              	.LC13:
 2653 0150 25733A25 		.ascii	"%s:%d %s != %s (%s != %s)\000"
 2653      64202573 
 2653      20213D20 
 2653      25732028 
 2653      25732021 
 2654 016a 0000     		.space	2
 2655              	.LC14:
 2656 016c 6F757470 		.ascii	"output->type\000"
 2656      75742D3E 
 2656      74797065 
 2656      00
 2657 0179 000000   		.space	3
 2658              	.LC15:
 2659 017c 696E7075 		.ascii	"input->type\000"
 2659      742D3E74 
 2659      79706500 
 2660              	.LC16:
 2661 0188 6B54664C 		.ascii	"kTfLiteInt8\000"
 2661      69746549 
 2661      6E743800 
 2662              		.section	.rodata._ZZN11flatbuffers19StringToIntegerImplIxEEbPT_PKcibE19__PRETTY_FUNCTION__,"a",%pr
 2663              		.align	3
 2664              		.set	.LANCHOR2,. + 0
 2667              	_ZZN11flatbuffers19StringToIntegerImplIxEEbPT_PKcibE19__PRETTY_FUNCTION__:
 2668 0000 626F6F6C 		.ascii	"bool flatbuffers::StringToIntegerImpl(T*, const cha"
 2668      20666C61 
 2668      74627566 
 2668      66657273 
 2668      3A3A5374 
 2669 0033 722A2C20 		.ascii	"r*, int, bool) [with T = long long int]\000"
 2669      696E742C 
 2669      20626F6F 
 2669      6C29205B 
 2669      77697468 
 2670              		.text
 2671              	.Letext0:
 2672              		.file 6 "c:\\program files (x86)\\gnu tools arm embedded\\6 2017-q2-update\\arm-none-eabi\\include
 2673              		.file 7 "c:\\program files (x86)\\gnu tools arm embedded\\6 2017-q2-update\\arm-none-eabi\\include
 2674              		.file 8 "c:\\program files (x86)\\gnu tools arm embedded\\6 2017-q2-update\\arm-none-eabi\\include
 2675              		.file 9 "c:\\program files (x86)\\gnu tools arm embedded\\6 2017-q2-update\\arm-none-eabi\\include
 2676              		.file 10 "c:\\program files (x86)\\gnu tools arm embedded\\6 2017-q2-update\\arm-none-eabi\\includ
 2677              		.file 11 "c:\\program files (x86)\\gnu tools arm embedded\\6 2017-q2-update\\arm-none-eabi\\includ
 2678              		.file 12 "c:\\program files (x86)\\gnu tools arm embedded\\6 2017-q2-update\\arm-none-eabi\\includ
 2679              		.file 13 "c:\\program files (x86)\\gnu tools arm embedded\\6 2017-q2-update\\arm-none-eabi\\includ
 2680              		.file 14 "c:\\program files (x86)\\gnu tools arm embedded\\6 2017-q2-update\\arm-none-eabi\\includ
 2681              		.file 15 "c:\\program files (x86)\\gnu tools arm embedded\\6 2017-q2-update\\arm-none-eabi\\includ
 2682              		.file 16 "c:\\program files (x86)\\gnu tools arm embedded\\6 2017-q2-update\\arm-none-eabi\\includ
 2683              		.file 17 "c:\\program files (x86)\\gnu tools arm embedded\\6 2017-q2-update\\arm-none-eabi\\includ
 2684              		.file 18 "c:\\program files (x86)\\gnu tools arm embedded\\6 2017-q2-update\\arm-none-eabi\\includ
 2685              		.file 19 "c:\\program files (x86)\\gnu tools arm embedded\\6 2017-q2-update\\arm-none-eabi\\includ
 2686              		.file 20 "c:\\program files (x86)\\gnu tools arm embedded\\6 2017-q2-update\\arm-none-eabi\\includ
 2687              		.file 21 "c:\\program files (x86)\\gnu tools arm embedded\\6 2017-q2-update\\arm-none-eabi\\includ
 2688              		.file 22 "c:\\program files (x86)\\gnu tools arm embedded\\6 2017-q2-update\\arm-none-eabi\\includ
 2689              		.file 23 "c:\\program files (x86)\\gnu tools arm embedded\\6 2017-q2-update\\arm-none-eabi\\includ
 2690              		.file 24 "c:\\program files (x86)\\gnu tools arm embedded\\6 2017-q2-update\\arm-none-eabi\\includ
 2691              		.file 25 "c:\\program files (x86)\\gnu tools arm embedded\\6 2017-q2-update\\arm-none-eabi\\includ
 2692              		.file 26 "c:\\program files (x86)\\gnu tools arm embedded\\6 2017-q2-update\\arm-none-eabi\\includ
 2693              		.file 27 "c:\\program files (x86)\\gnu tools arm embedded\\6 2017-q2-update\\arm-none-eabi\\includ
 2694              		.file 28 "c:\\program files (x86)\\gnu tools arm embedded\\6 2017-q2-update\\arm-none-eabi\\includ
 2695              		.file 29 "c:\\program files (x86)\\gnu tools arm embedded\\6 2017-q2-update\\arm-none-eabi\\includ
 2696              		.file 30 "c:\\program files (x86)\\gnu tools arm embedded\\6 2017-q2-update\\arm-none-eabi\\includ
 2697              		.file 31 "c:\\program files (x86)\\gnu tools arm embedded\\6 2017-q2-update\\arm-none-eabi\\includ
 2698              		.file 32 "c:\\program files (x86)\\gnu tools arm embedded\\6 2017-q2-update\\arm-none-eabi\\includ
 2699              		.file 33 "c:\\program files (x86)\\gnu tools arm embedded\\6 2017-q2-update\\arm-none-eabi\\includ
 2700              		.file 34 "c:\\program files (x86)\\gnu tools arm embedded\\6 2017-q2-update\\arm-none-eabi\\includ
 2701              		.file 35 "c:\\program files (x86)\\gnu tools arm embedded\\6 2017-q2-update\\arm-none-eabi\\includ
 2702              		.file 36 "c:\\program files (x86)\\gnu tools arm embedded\\6 2017-q2-update\\arm-none-eabi\\includ
 2703              		.file 37 "c:\\program files (x86)\\gnu tools arm embedded\\6 2017-q2-update\\arm-none-eabi\\includ
 2704              		.file 38 "c:\\program files (x86)\\gnu tools arm embedded\\6 2017-q2-update\\arm-none-eabi\\includ
 2705              		.file 39 "c:\\program files (x86)\\gnu tools arm embedded\\6 2017-q2-update\\arm-none-eabi\\includ
 2706              		.file 40 "c:\\program files (x86)\\gnu tools arm embedded\\6 2017-q2-update\\arm-none-eabi\\includ
 2707              		.file 41 "c:\\program files (x86)\\gnu tools arm embedded\\6 2017-q2-update\\arm-none-eabi\\includ
 2708              		.file 42 "c:\\program files (x86)\\gnu tools arm embedded\\6 2017-q2-update\\lib\\gcc\\arm-none-ea
 2709              		.file 43 "c:\\program files (x86)\\gnu tools arm embedded\\6 2017-q2-update\\arm-none-eabi\\includ
 2710              		.file 44 "c:\\program files (x86)\\gnu tools arm embedded\\6 2017-q2-update\\arm-none-eabi\\includ
 2711              		.file 45 "c:\\program files (x86)\\gnu tools arm embedded\\6 2017-q2-update\\arm-none-eabi\\includ
 2712              		.file 46 "c:\\program files (x86)\\gnu tools arm embedded\\6 2017-q2-update\\arm-none-eabi\\includ
 2713              		.file 47 "c:\\program files (x86)\\gnu tools arm embedded\\6 2017-q2-update\\lib\\gcc\\arm-none-ea
 2714              		.file 48 "<built-in>"
 2715              		.file 49 "c:\\program files (x86)\\gnu tools arm embedded\\6 2017-q2-update\\arm-none-eabi\\includ
 2716              		.file 50 "c:\\program files (x86)\\gnu tools arm embedded\\6 2017-q2-update\\arm-none-eabi\\includ
 2717              		.file 51 "c:\\program files (x86)\\gnu tools arm embedded\\6 2017-q2-update\\arm-none-eabi\\includ
 2718              		.file 52 "c:\\program files (x86)\\gnu tools arm embedded\\6 2017-q2-update\\arm-none-eabi\\includ
 2719              		.file 53 "c:\\program files (x86)\\gnu tools arm embedded\\6 2017-q2-update\\arm-none-eabi\\includ
 2720              		.file 54 "c:\\program files (x86)\\gnu tools arm embedded\\6 2017-q2-update\\arm-none-eabi\\includ
 2721              		.file 55 "c:\\program files (x86)\\gnu tools arm embedded\\6 2017-q2-update\\arm-none-eabi\\includ
 2722              		.file 56 "c:\\program files (x86)\\gnu tools arm embedded\\6 2017-q2-update\\arm-none-eabi\\includ
 2723              		.file 57 "c:\\program files (x86)\\gnu tools arm embedded\\6 2017-q2-update\\arm-none-eabi\\includ
 2724              		.file 58 "c:\\program files (x86)\\gnu tools arm embedded\\6 2017-q2-update\\arm-none-eabi\\includ
 2725              		.file 59 "c:\\program files (x86)\\gnu tools arm embedded\\6 2017-q2-update\\arm-none-eabi\\includ
 2726              		.file 60 "c:\\program files (x86)\\gnu tools arm embedded\\6 2017-q2-update\\arm-none-eabi\\includ
 2727              		.file 61 "C:/Renesas/e2studio_2021_01_workspace_RZA2M_ANPR/ANPR_RZA2M_EBK/src/tensorflow_lite/thir
 2728              		.file 62 "C:/Renesas/e2studio_2021_01_workspace_RZA2M_ANPR/ANPR_RZA2M_EBK/src/tensorflow_lite/tens
 2729              		.file 63 "C:/Renesas/e2studio_2021_01_workspace_RZA2M_ANPR/ANPR_RZA2M_EBK/src/tensorflow_lite/tens
 2730              		.file 64 "c:\\program files (x86)\\gnu tools arm embedded\\6 2017-q2-update\\arm-none-eabi\\includ
 2731              		.file 65 "C:/Renesas/e2studio_2021_01_workspace_RZA2M_ANPR/ANPR_RZA2M_EBK/src/tensorflow_lite/tens
 2732              		.file 66 "C:/Renesas/e2studio_2021_01_workspace_RZA2M_ANPR/ANPR_RZA2M_EBK/src/tensorflow_lite/tens
 2733              		.file 67 "c:\\program files (x86)\\gnu tools arm embedded\\6 2017-q2-update\\arm-none-eabi\\includ
DEFINED SYMBOLS
                            *ABS*:00000000 circular_buffer.cc
C:\Users\a5050395\AppData\Local\Temp\ccHcLvRY.s:17     .text._ZN11flexbuffers10KeyCompareIyEEiPKvS2_:00000000 $a
C:\Users\a5050395\AppData\Local\Temp\ccHcLvRY.s:23     .text._ZN11flexbuffers10KeyCompareIyEEiPKvS2_:00000000 _ZN11flexbuffers10KeyCompareIyEEiPKvS2_
.ARM.exidx.text._ZN11flexbuffers10KeyCompareIyEEiPKvS2_:00000000 $d
C:\Users\a5050395\AppData\Local\Temp\ccHcLvRY.s:50     .text._ZN11flexbuffers10KeyCompareIhEEiPKvS2_:00000000 $a
C:\Users\a5050395\AppData\Local\Temp\ccHcLvRY.s:56     .text._ZN11flexbuffers10KeyCompareIhEEiPKvS2_:00000000 _ZN11flexbuffers10KeyCompareIhEEiPKvS2_
.ARM.exidx.text._ZN11flexbuffers10KeyCompareIhEEiPKvS2_:00000000 $d
C:\Users\a5050395\AppData\Local\Temp\ccHcLvRY.s:82     .text._ZN11flexbuffers10KeyCompareItEEiPKvS2_:00000000 $a
C:\Users\a5050395\AppData\Local\Temp\ccHcLvRY.s:88     .text._ZN11flexbuffers10KeyCompareItEEiPKvS2_:00000000 _ZN11flexbuffers10KeyCompareItEEiPKvS2_
.ARM.exidx.text._ZN11flexbuffers10KeyCompareItEEiPKvS2_:00000000 $d
C:\Users\a5050395\AppData\Local\Temp\ccHcLvRY.s:114    .text._ZN11flexbuffers10KeyCompareImEEiPKvS2_:00000000 $a
C:\Users\a5050395\AppData\Local\Temp\ccHcLvRY.s:120    .text._ZN11flexbuffers10KeyCompareImEEiPKvS2_:00000000 _ZN11flexbuffers10KeyCompareImEEiPKvS2_
.ARM.exidx.text._ZN11flexbuffers10KeyCompareImEEiPKvS2_:00000000 $d
C:\Users\a5050395\AppData\Local\Temp\ccHcLvRY.s:146    .text._ZN6tflite3ops5micro15circular_buffer7PrepareEP13TfLiteContextP10TfLiteNode:00000000 $a
C:\Users\a5050395\AppData\Local\Temp\ccHcLvRY.s:152    .text._ZN6tflite3ops5micro15circular_buffer7PrepareEP13TfLiteContextP10TfLiteNode:00000000 _ZN6tflite3ops5micro15circular_buffer7PrepareEP13TfLiteContextP10TfLiteNode
C:\Users\a5050395\AppData\Local\Temp\ccHcLvRY.s:2634   .rodata._ZN6tflite3ops5micro15circular_buffer7PrepareEP13TfLiteContextP10TfLiteNode.str1.4:000000d4 .LC7
C:\Users\a5050395\AppData\Local\Temp\ccHcLvRY.s:2637   .rodata._ZN6tflite3ops5micro15circular_buffer7PrepareEP13TfLiteContextP10TfLiteNode.str1.4:000000ec .LC8
C:\Users\a5050395\AppData\Local\Temp\ccHcLvRY.s:2613   .rodata._ZN6tflite3ops5micro15circular_buffer7PrepareEP13TfLiteContextP10TfLiteNode.str1.4:00000000 .LC0
C:\Users\a5050395\AppData\Local\Temp\ccHcLvRY.s:2625   .rodata._ZN6tflite3ops5micro15circular_buffer7PrepareEP13TfLiteContextP10TfLiteNode.str1.4:00000088 .LC4
C:\Users\a5050395\AppData\Local\Temp\ccHcLvRY.s:2628   .rodata._ZN6tflite3ops5micro15circular_buffer7PrepareEP13TfLiteContextP10TfLiteNode.str1.4:000000a4 .LC5
C:\Users\a5050395\AppData\Local\Temp\ccHcLvRY.s:2631   .rodata._ZN6tflite3ops5micro15circular_buffer7PrepareEP13TfLiteContextP10TfLiteNode.str1.4:000000bc .LC6
C:\Users\a5050395\AppData\Local\Temp\ccHcLvRY.s:2640   .rodata._ZN6tflite3ops5micro15circular_buffer7PrepareEP13TfLiteContextP10TfLiteNode.str1.4:000000f0 .LC9
C:\Users\a5050395\AppData\Local\Temp\ccHcLvRY.s:2643   .rodata._ZN6tflite3ops5micro15circular_buffer7PrepareEP13TfLiteContextP10TfLiteNode.str1.4:00000108 .LC10
C:\Users\a5050395\AppData\Local\Temp\ccHcLvRY.s:2646   .rodata._ZN6tflite3ops5micro15circular_buffer7PrepareEP13TfLiteContextP10TfLiteNode.str1.4:00000120 .LC11
C:\Users\a5050395\AppData\Local\Temp\ccHcLvRY.s:2649   .rodata._ZN6tflite3ops5micro15circular_buffer7PrepareEP13TfLiteContextP10TfLiteNode.str1.4:00000138 .LC12
C:\Users\a5050395\AppData\Local\Temp\ccHcLvRY.s:2660   .rodata._ZN6tflite3ops5micro15circular_buffer7PrepareEP13TfLiteContextP10TfLiteNode.str1.4:00000188 .LC16
C:\Users\a5050395\AppData\Local\Temp\ccHcLvRY.s:2658   .rodata._ZN6tflite3ops5micro15circular_buffer7PrepareEP13TfLiteContextP10TfLiteNode.str1.4:0000017c .LC15
C:\Users\a5050395\AppData\Local\Temp\ccHcLvRY.s:2652   .rodata._ZN6tflite3ops5micro15circular_buffer7PrepareEP13TfLiteContextP10TfLiteNode.str1.4:00000150 .LC13
C:\Users\a5050395\AppData\Local\Temp\ccHcLvRY.s:2655   .rodata._ZN6tflite3ops5micro15circular_buffer7PrepareEP13TfLiteContextP10TfLiteNode.str1.4:0000016c .LC14
C:\Users\a5050395\AppData\Local\Temp\ccHcLvRY.s:2619   .rodata._ZN6tflite3ops5micro15circular_buffer7PrepareEP13TfLiteContextP10TfLiteNode.str1.4:00000060 .LC2
C:\Users\a5050395\AppData\Local\Temp\ccHcLvRY.s:2616   .rodata._ZN6tflite3ops5micro15circular_buffer7PrepareEP13TfLiteContextP10TfLiteNode.str1.4:00000048 .LC1
C:\Users\a5050395\AppData\Local\Temp\ccHcLvRY.s:2622   .rodata._ZN6tflite3ops5micro15circular_buffer7PrepareEP13TfLiteContextP10TfLiteNode.str1.4:00000074 .LC3
C:\Users\a5050395\AppData\Local\Temp\ccHcLvRY.s:2563   .bss._ZZN6tflite3ops5micro15circular_buffer7PrepareEP13TfLiteContextP10TfLiteNodeE16cb_prepare_count:00000000 .LANCHOR0
.ARM.exidx.text._ZN6tflite3ops5micro15circular_buffer7PrepareEP13TfLiteContextP10TfLiteNode:00000000 $d
C:\Users\a5050395\AppData\Local\Temp\ccHcLvRY.s:528    .text._ZN6tflite3ops5micro15circular_buffer4EvalEP13TfLiteContextP10TfLiteNode:00000000 $a
C:\Users\a5050395\AppData\Local\Temp\ccHcLvRY.s:534    .text._ZN6tflite3ops5micro15circular_buffer4EvalEP13TfLiteContextP10TfLiteNode:00000000 _ZN6tflite3ops5micro15circular_buffer4EvalEP13TfLiteContextP10TfLiteNode
C:\Users\a5050395\AppData\Local\Temp\ccHcLvRY.s:2598   .rodata._ZN6tflite3ops5micro15circular_buffer4EvalEP13TfLiteContextP10TfLiteNode.str1.4:00000000 .LC17
.ARM.exidx.text._ZN6tflite3ops5micro15circular_buffer4EvalEP13TfLiteContextP10TfLiteNode:00000000 $d
C:\Users\a5050395\AppData\Local\Temp\ccHcLvRY.s:709    .text._ZN6tflite3ops5micro15circular_buffer4InitEP13TfLiteContextPKcj:00000000 $a
C:\Users\a5050395\AppData\Local\Temp\ccHcLvRY.s:715    .text._ZN6tflite3ops5micro15circular_buffer4InitEP13TfLiteContextPKcj:00000000 _ZN6tflite3ops5micro15circular_buffer4InitEP13TfLiteContextPKcj
C:\Users\a5050395\AppData\Local\Temp\ccHcLvRY.s:2602   .rodata._ZN6tflite3ops5micro15circular_buffer4InitEP13TfLiteContextPKcj.str1.4:00000000 .LC18
C:\Users\a5050395\AppData\Local\Temp\ccHcLvRY.s:2584   .rodata.CSWTCH.109:00000000 .LANCHOR1
C:\Users\a5050395\AppData\Local\Temp\ccHcLvRY.s:1011   .text._ZN6tflite3ops5micro15circular_buffer4InitEP13TfLiteContextPKcj:00000114 $d
C:\Users\a5050395\AppData\Local\Temp\ccHcLvRY.s:1043   .text._ZN6tflite3ops5micro15circular_buffer4InitEP13TfLiteContextPKcj:00000178 $a
C:\Users\a5050395\AppData\Local\Temp\ccHcLvRY.s:2605   .rodata._ZN6tflite3ops5micro15circular_buffer4InitEP13TfLiteContextPKcj.str1.4:0000000c .LC19
C:\Users\a5050395\AppData\Local\Temp\ccHcLvRY.s:2664   .rodata._ZZN11flatbuffers19StringToIntegerImplIxEEbPT_PKcibE19__PRETTY_FUNCTION__:00000000 .LANCHOR2
C:\Users\a5050395\AppData\Local\Temp\ccHcLvRY.s:2607   .rodata._ZN6tflite3ops5micro15circular_buffer4InitEP13TfLiteContextPKcj.str1.4:00000010 .LC20
C:\Users\a5050395\AppData\Local\Temp\ccHcLvRY.s:2454   .text._ZN6tflite3ops5micro15circular_buffer4InitEP13TfLiteContextPKcj:00000534 $d
C:\Users\a5050395\AppData\Local\Temp\ccHcLvRY.s:2556   .rodata._ZZN11flexbuffers3Map8EmptyMapEvE9empty_map:00000000 _ZZN11flexbuffers3Map8EmptyMapEvE9empty_map
.ARM.exidx.text._ZN6tflite3ops5micro15circular_buffer4InitEP13TfLiteContextPKcj:00000000 $d
C:\Users\a5050395\AppData\Local\Temp\ccHcLvRY.s:2469   .text._ZN6tflite3ops5micro15circular_buffer8EvalInt8EPKaiiPa:00000000 $a
C:\Users\a5050395\AppData\Local\Temp\ccHcLvRY.s:2475   .text._ZN6tflite3ops5micro15circular_buffer8EvalInt8EPKaiiPa:00000000 _ZN6tflite3ops5micro15circular_buffer8EvalInt8EPKaiiPa
.ARM.exidx.text._ZN6tflite3ops5micro15circular_buffer8EvalInt8EPKaiiPa:00000000 $d
C:\Users\a5050395\AppData\Local\Temp\ccHcLvRY.s:2528   .text._ZN6tflite3ops5micro24Register_CIRCULAR_BUFFEREv:00000000 $a
C:\Users\a5050395\AppData\Local\Temp\ccHcLvRY.s:2534   .text._ZN6tflite3ops5micro24Register_CIRCULAR_BUFFEREv:00000000 _ZN6tflite3ops5micro24Register_CIRCULAR_BUFFEREv
C:\Users\a5050395\AppData\Local\Temp\ccHcLvRY.s:2570   .data._ZZN6tflite3ops5micro24Register_CIRCULAR_BUFFEREvE1r:00000000 .LANCHOR3
.ARM.exidx.text._ZN6tflite3ops5micro24Register_CIRCULAR_BUFFEREv:00000000 $d
C:\Users\a5050395\AppData\Local\Temp\ccHcLvRY.s:2553   .rodata._ZZN11flexbuffers3Map8EmptyMapEvE9empty_map:00000000 $d
C:\Users\a5050395\AppData\Local\Temp\ccHcLvRY.s:2562   .bss._ZZN6tflite3ops5micro15circular_buffer7PrepareEP13TfLiteContextP10TfLiteNodeE16cb_prepare_count:00000000 $d
C:\Users\a5050395\AppData\Local\Temp\ccHcLvRY.s:2566   .bss._ZZN6tflite3ops5micro15circular_buffer7PrepareEP13TfLiteContextP10TfLiteNodeE16cb_prepare_count:00000000 _ZZN6tflite3ops5micro15circular_buffer7PrepareEP13TfLiteContextP10TfLiteNodeE16cb_prepare_count
C:\Users\a5050395\AppData\Local\Temp\ccHcLvRY.s:2569   .data._ZZN6tflite3ops5micro24Register_CIRCULAR_BUFFEREvE1r:00000000 $d
C:\Users\a5050395\AppData\Local\Temp\ccHcLvRY.s:2573   .data._ZZN6tflite3ops5micro24Register_CIRCULAR_BUFFEREvE1r:00000000 _ZZN6tflite3ops5micro24Register_CIRCULAR_BUFFEREvE1r
C:\Users\a5050395\AppData\Local\Temp\ccHcLvRY.s:2583   .rodata.CSWTCH.109:00000000 $d
C:\Users\a5050395\AppData\Local\Temp\ccHcLvRY.s:2587   .rodata.CSWTCH.109:00000000 CSWTCH.109
C:\Users\a5050395\AppData\Local\Temp\ccHcLvRY.s:2597   .rodata._ZN6tflite3ops5micro15circular_buffer4EvalEP13TfLiteContextP10TfLiteNode.str1.4:00000000 $d
C:\Users\a5050395\AppData\Local\Temp\ccHcLvRY.s:2601   .rodata._ZN6tflite3ops5micro15circular_buffer4InitEP13TfLiteContextPKcj.str1.4:00000000 $d
C:\Users\a5050395\AppData\Local\Temp\ccHcLvRY.s:2612   .rodata._ZN6tflite3ops5micro15circular_buffer7PrepareEP13TfLiteContextP10TfLiteNode.str1.4:00000000 $d
C:\Users\a5050395\AppData\Local\Temp\ccHcLvRY.s:2663   .rodata._ZZN11flatbuffers19StringToIntegerImplIxEEbPT_PKcibE19__PRETTY_FUNCTION__:00000000 $d
C:\Users\a5050395\AppData\Local\Temp\ccHcLvRY.s:2667   .rodata._ZZN11flatbuffers19StringToIntegerImplIxEEbPT_PKcibE19__PRETTY_FUNCTION__:00000000 _ZZN11flatbuffers19StringToIntegerImplIxEEbPT_PKcibE19__PRETTY_FUNCTION__
                     .debug_frame:00000010 $d
                           .group:00000000 wm4.0.3e1481985cce1e923928453d8be0a65b
                           .group:00000000 wm4.cconfig.h.31.1472b8c7bd4952a63a52f3f4f718f872
                           .group:00000000 wm4.cpu_defines.h.31.54d44f9d3e7c42875c5a7fd49795eb93
                           .group:00000000 wm4.cconfig.h.515.5e729db314ae74226e291b4ae081e353
                           .group:00000000 wm4.exception_defines.h.31.ca6841b9be3287386aafc5c717935b2e
                           .group:00000000 wm4.cpp_type_traits.h.33.9f2bfd8c4471a9a299f6da3ec24c745c
                           .group:00000000 wm4.numeric_traits.h.30.aa01a98564b7e55086aad9e53c7e5c53
                           .group:00000000 wm4.concept_check.h.31.f19605d278e56917c68a56d378be308c
                           .group:00000000 wm4.type_traits.30.2c7323a483bcd7601e8b71d2546ae284
                           .group:00000000 wm4.move.h.152.41d7b9e6779674d169b7813982cfa003
                           .group:00000000 wm4.assertions.h.30.51d443923f0d242550e04246a7819b39
                           .group:00000000 wm4.stl_iterator.h.1250.45f349a262f1b0d836d8edbc4b7b98ff
                           .group:00000000 wm4.debug.h.30.5c1f223b12199e851d4d42805b788ccf
                           .group:00000000 wm4.stl_algobase.h.491.aa250b69c90aafa2a0a62b8c58cd5f30
                           .group:00000000 wm4.atomic_lockfree_defines.h.31.d5c6334fb1e95c9462b052951f1411df
                           .group:00000000 wm4.allocator.h.52.0ceafb36dc1b82dbfa6b05003082e3f5
                           .group:00000000 wm4.alloc_traits.h.31.c41c7c4789404962122a4e991dfa3abf
                           .group:00000000 wm4._newlib_version.h.4.3572908597b70d672d181fc7fc501c19
                           .group:00000000 wm4.newlib.h.21.59901f4bf241ab46c63694665baa7297
                           .group:00000000 wm4.features.h.22.37852b648068a281464730a5a4cc748e
                           .group:00000000 wm4.config.h.219.65a553ab5bef5482f0d7880b0d33015e
                           .group:00000000 wm4._ansi.h.23.1ee1144430bedaab1a14c7b57a6c8384
                           .group:00000000 wm4.stddef.h.39.fa2e86d241f4df50b9327c72832885e1
                           .group:00000000 wm4._default_types.h.6.959254cf5f09734ea7516c89e8bb21bd
                           .group:00000000 wm4.lock.h.2.1461d1fff82dffe8bfddc23307f6484f
                           .group:00000000 wm4._types.h.125.5cf8a495f1f7ef36777ad868a1e32068
                           .group:00000000 wm4.stddef.h.161.7e98c9c86da0ed2d27af2ef92af7d013
                           .group:00000000 wm4._types.h.183.c226d164ceca1f2ecb9ae9360c54a098
                           .group:00000000 wm4.reent.h.17.23b059516345f8f5abfa01ddc379570f
                           .group:00000000 wm4.wchar.h.8.acdef4366e64def8c588421024712d23
                           .group:00000000 wm4.stddef.h.161.9f48187563b2a85291a91832aa425498
                           .group:00000000 wm4.cdefs.h.47.9bc8274c84fddbf05edd550eb0bf48cd
                           .group:00000000 wm4.stdarg.h.34.3a23a216c0c293b3d2ea2e89281481e6
                           .group:00000000 wm4.wchar.h.41.bce54f0deafe8a72ebb0005417e8a086
                           .group:00000000 wm4.cwchar.48.c4e882638bf84f6da89479dda6fe8e17
                           .group:00000000 wm4.stdint.h.4.659be5aa44c4ab4eb7c7cc2b24d8ceee
                           .group:00000000 wm4._intsup.h.10.cce27fed8484c08a33f522034c30d2b5
                           .group:00000000 wm4._stdint.h.10.c24fa3af3bc1706662bb5593a907e841
                           .group:00000000 wm4.stdint.h.23.4c107c5a20920bfc6e94fb2672bbd9ee
                           .group:00000000 wm4.stddef.h.161.38688f2eb958a8ed58fdb61ffe554c94
                           .group:00000000 wm4.locale.h.16.524572cf3c2ed9856516685acdc598fe
                           .group:00000000 wm4.clocale.45.c36d2d5b631a875aa5273176b54fdf0f
                           .group:00000000 wm4.ctype.h.2.da310d2ad165ccf8b86542f76fdb938d
                           .group:00000000 wm4.cctype.45.0da5714876b0be7f2d816b53d9670403
                           .group:00000000 wm4.gthr.h.27.ceb1c66b926f052afcba57e8784df0d4
                           .group:00000000 wm4.gthrdefault.h.27.edc94d4398c0534988962be77dc3c2e1
                           .group:00000000 wm4.atomic_word.h.30.9e0ac69fd462d5e650933e05133b4afa
                           .group:00000000 wm4.cstdlib.44.52c5efdfb0f3c176bd11e611a0b94959
                           .group:00000000 wm4.stdlib.h.13.4ed386f5c1a80d71e72172885d946ef2
                           .group:00000000 wm4.stdlib.h.56.b4ddaf162082f284ba35b4444af99a9a
                           .group:00000000 wm4.cstdlib.76.ae666499c8f9b0ace1b4b23fe143da2c
                           .group:00000000 wm4.stdio.h.27.3fc80220048df77954e38daec3bb9670
                           .group:00000000 wm4.types.h.40.e8c16e7ec36ba55f133d0616070e25fc
                           .group:00000000 wm4.types.h.114.fb65732f4f5f288a036a25898de2c91f
                           .group:00000000 wm4.stdio.h.2.4aa87247282eca6c8f36f9de33d8df1a
                           .group:00000000 wm4.stdio.h.81.c3e9cb15e5af2807c4650345134c1a8a
                           .group:00000000 wm4.cstdio.45.ba8d321feb18bfc8923454067605c368
                           .group:00000000 wm4.errno.h.2.ba016d646105af6cad23be83630b6a3f
                           .group:00000000 wm4.errno.h.9.1ecd7b1049497a0ab61da0f6cbd4b0c6
                           .group:00000000 wm4.functional_hash.h.98.3bf7680ffcc8d24d09fa83ac1339c79d
                           .group:00000000 wm4.assert.h.11.a5d97ca77559a42890313c4941c01fd9
                           .group:00000000 wm4.cstddef.40.7f59894b65c26f8fc669473914a0ef3e
                           .group:00000000 wm4.string.h.8.c4b8571ce60dff2817f43fec8b86aecd
                           .group:00000000 wm4.cstring.45.6ab09de7fb97b576e744347688ddc8d7
                           .group:00000000 wm4.limits.38.55aefcf041805b6211ca3649dd2ab1b5
                           .group:00000000 wm4.wctype.h.2.898a9b94aa35d125e245195b099726a8
                           .group:00000000 wm4.wctype.h.21.aec4d35c940c33b3f9c6f879c49edcd8
                           .group:00000000 wm4.cwctype.54.6582aca101688c1c3785d03bc15e2af6
                           .group:00000000 wm4.locale_facets.h.56.0d4bb655ce5e76ea564363ed7c5a34fc
                           .group:00000000 wm4.typeinfo.30.04014f5b1b4fb021c5662653bc27c750
                           .group:00000000 wm4.functional.44.4c34f7dfe64929d52173351e18a7e106
                           .group:00000000 wm4.atomic_base.h.31.692a6b53cef50ad728d4af54dfbd4448
                           .group:00000000 wm4.base.h.81.63366f8391ff9d1f3a76cfbd2e57f7b1
                           .group:00000000 wm4.time.h.8.db4619001f026d0b4874c029fef0e91f
                           .group:00000000 wm4.time.h.2.4581ce0ffb6627cfc02162c94bf846c9
                           .group:00000000 wm4.time.h.25.0e6a0fdbc9955f5707ed54246ed2e089
                           .group:00000000 wm4.time.h.243.a9f48603a5d5dd23632068f19327a890
                           .group:00000000 wm4.ctime.45.1de2a3f6d2be05036815a19a22f571fa
                           .group:00000000 wm4.util.h.242.03cb858e7e79ec8d5f6d72a2718ad071
                           .group:00000000 wm4.flexbuffers.h.184.22d20a827387fad7d3dd7fe41a9a32aa
                           .group:00000000 wm4.stdbool.h.29.01580e438512fc255c0619569742ffd3
                           .group:00000000 wm4.c_api_types.h.20.9b09175981ed746180e205cc0b4b2bfd
                           .group:00000000 wm4.common.h.77.124de099ec0ac4f95ebf1618a5f42cf6
                           .group:00000000 wm4.op_macros.h.42.7b718cb416a067e7bb07e7699647769b
                           .group:00000000 wm4.compatibility.h.23.702d6356326ea59aded8ef5c6c4626d5
                           .group:00000000 wm4.math.h.13.e7cbdea54f4da98ab8f7fad4d23502b2
                           .group:00000000 wm4.cmath.46.d6e5b776115d39075860ed881d18f087
                           .group:00000000 wm4.cmath.44.b3bcbb5fe53ec6617dec8aa8eb7b03cc
                           .group:00000000 wm4.cppmath.h.27.51580d700716589df4b364298e2ef577

UNDEFINED SYMBOLS
strcmp
_ZN6tflite8GetInputEPK13TfLiteContextPK10TfLiteNodei
_ZN6tflite9GetOutputEP13TfLiteContextPK10TfLiteNodei
TfLiteTypeGetName
abort
__aeabi_unwind_cpp_pr0
memmove
memcpy
__aeabi_idiv
__aeabi_d2lz
bsearch
__errno
strtoll
__assert_func
