   1              		.cpu cortex-a9
   2              		.eabi_attribute 28, 1
   3              		.eabi_attribute 20, 1
   4              		.eabi_attribute 21, 1
   5              		.eabi_attribute 23, 3
   6              		.eabi_attribute 24, 1
   7              		.eabi_attribute 25, 1
   8              		.eabi_attribute 26, 1
   9              		.eabi_attribute 30, 2
  10              		.eabi_attribute 34, 0
  11              		.eabi_attribute 18, 4
  12              		.file	"cumsum.cc"
  13              		.text
  14              	.Ltext0:
  15              		.cfi_sections	.debug_frame
  16              		.section	.text._ZN6tflite12_GLOBAL__N_17PrepareEP13TfLiteContextP10TfLiteNode,"ax",%progbits
  17              		.align	2
  18              		.syntax unified
  19              		.arm
  20              		.fpu neon
  22              	_ZN6tflite12_GLOBAL__N_17PrepareEP13TfLiteContextP10TfLiteNode:
  23              		.fnstart
  24              	.LFB4167:
  25              		.file 1 "../src/tensorflow_lite/tensorflow/lite/micro/kernels/cumsum.cc"
   1:../src/tensorflow_lite/tensorflow/lite/micro/kernels/cumsum.cc **** /* Copyright 2021 The TensorFlow Authors. All Rights Reserved.
   2:../src/tensorflow_lite/tensorflow/lite/micro/kernels/cumsum.cc **** 
   3:../src/tensorflow_lite/tensorflow/lite/micro/kernels/cumsum.cc **** Licensed under the Apache License, Version 2.0 (the "License");
   4:../src/tensorflow_lite/tensorflow/lite/micro/kernels/cumsum.cc **** you may not use this file except in compliance with the License.
   5:../src/tensorflow_lite/tensorflow/lite/micro/kernels/cumsum.cc **** You may obtain a copy of the License at
   6:../src/tensorflow_lite/tensorflow/lite/micro/kernels/cumsum.cc **** 
   7:../src/tensorflow_lite/tensorflow/lite/micro/kernels/cumsum.cc ****     http://www.apache.org/licenses/LICENSE-2.0
   8:../src/tensorflow_lite/tensorflow/lite/micro/kernels/cumsum.cc **** 
   9:../src/tensorflow_lite/tensorflow/lite/micro/kernels/cumsum.cc **** Unless required by applicable law or agreed to in writing, software
  10:../src/tensorflow_lite/tensorflow/lite/micro/kernels/cumsum.cc **** distributed under the License is distributed on an "AS IS" BASIS,
  11:../src/tensorflow_lite/tensorflow/lite/micro/kernels/cumsum.cc **** WITHOUT WARRANTIES OR CONDITIONS OF ANY KIND, either express or implied.
  12:../src/tensorflow_lite/tensorflow/lite/micro/kernels/cumsum.cc **** See the License for the specific language governing permissions and
  13:../src/tensorflow_lite/tensorflow/lite/micro/kernels/cumsum.cc **** limitations under the License.
  14:../src/tensorflow_lite/tensorflow/lite/micro/kernels/cumsum.cc **** ==============================================================================*/
  15:../src/tensorflow_lite/tensorflow/lite/micro/kernels/cumsum.cc **** 
  16:../src/tensorflow_lite/tensorflow/lite/micro/kernels/cumsum.cc **** #include "tensorflow/lite/kernels/internal/reference/cumsum.h"
  17:../src/tensorflow_lite/tensorflow/lite/micro/kernels/cumsum.cc **** 
  18:../src/tensorflow_lite/tensorflow/lite/micro/kernels/cumsum.cc **** #include "tensorflow/lite/c/common.h"
  19:../src/tensorflow_lite/tensorflow/lite/micro/kernels/cumsum.cc **** #include "tensorflow/lite/kernels/internal/quantization_util.h"
  20:../src/tensorflow_lite/tensorflow/lite/micro/kernels/cumsum.cc **** #include "tensorflow/lite/kernels/internal/types.h"
  21:../src/tensorflow_lite/tensorflow/lite/micro/kernels/cumsum.cc **** #include "tensorflow/lite/kernels/kernel_util.h"
  22:../src/tensorflow_lite/tensorflow/lite/micro/kernels/cumsum.cc **** #include "tensorflow/lite/micro/kernels/kernel_util.h"
  23:../src/tensorflow_lite/tensorflow/lite/micro/kernels/cumsum.cc **** 
  24:../src/tensorflow_lite/tensorflow/lite/micro/kernels/cumsum.cc **** namespace tflite {
  25:../src/tensorflow_lite/tensorflow/lite/micro/kernels/cumsum.cc **** namespace {
  26:../src/tensorflow_lite/tensorflow/lite/micro/kernels/cumsum.cc **** 
  27:../src/tensorflow_lite/tensorflow/lite/micro/kernels/cumsum.cc **** constexpr int kInputTensor = 0;
  28:../src/tensorflow_lite/tensorflow/lite/micro/kernels/cumsum.cc **** constexpr int kAxisTensor = 1;
  29:../src/tensorflow_lite/tensorflow/lite/micro/kernels/cumsum.cc **** constexpr int kOutputTensor = 0;
  30:../src/tensorflow_lite/tensorflow/lite/micro/kernels/cumsum.cc **** 
  31:../src/tensorflow_lite/tensorflow/lite/micro/kernels/cumsum.cc **** constexpr int kCumSumIntegerShift = 20;
  32:../src/tensorflow_lite/tensorflow/lite/micro/kernels/cumsum.cc **** 
  33:../src/tensorflow_lite/tensorflow/lite/micro/kernels/cumsum.cc **** // only used with INT8 tensors
  34:../src/tensorflow_lite/tensorflow/lite/micro/kernels/cumsum.cc **** struct OpData {
  35:../src/tensorflow_lite/tensorflow/lite/micro/kernels/cumsum.cc ****   int32_t output_activation_min;
  36:../src/tensorflow_lite/tensorflow/lite/micro/kernels/cumsum.cc ****   int32_t output_activation_max;
  37:../src/tensorflow_lite/tensorflow/lite/micro/kernels/cumsum.cc ****   int32_t input_offset;
  38:../src/tensorflow_lite/tensorflow/lite/micro/kernels/cumsum.cc ****   int32_t output_offset;
  39:../src/tensorflow_lite/tensorflow/lite/micro/kernels/cumsum.cc ****   int32_t input_multiplier;
  40:../src/tensorflow_lite/tensorflow/lite/micro/kernels/cumsum.cc ****   int32_t output_multiplier;
  41:../src/tensorflow_lite/tensorflow/lite/micro/kernels/cumsum.cc ****   int input_shift;
  42:../src/tensorflow_lite/tensorflow/lite/micro/kernels/cumsum.cc ****   int output_shift;
  43:../src/tensorflow_lite/tensorflow/lite/micro/kernels/cumsum.cc ****   int left_shift;
  44:../src/tensorflow_lite/tensorflow/lite/micro/kernels/cumsum.cc **** };
  45:../src/tensorflow_lite/tensorflow/lite/micro/kernels/cumsum.cc **** 
  46:../src/tensorflow_lite/tensorflow/lite/micro/kernels/cumsum.cc **** TfLiteStatus CalculateOpData(TfLiteContext* context, TfLiteNode* node) {
  47:../src/tensorflow_lite/tensorflow/lite/micro/kernels/cumsum.cc ****   TF_LITE_ENSURE_EQ(context, NumInputs(node), 2);
  48:../src/tensorflow_lite/tensorflow/lite/micro/kernels/cumsum.cc ****   TF_LITE_ENSURE_EQ(context, NumOutputs(node), 1);
  49:../src/tensorflow_lite/tensorflow/lite/micro/kernels/cumsum.cc **** 
  50:../src/tensorflow_lite/tensorflow/lite/micro/kernels/cumsum.cc ****   const TfLiteTensor* input = GetInput(context, node, kInputTensor);
  51:../src/tensorflow_lite/tensorflow/lite/micro/kernels/cumsum.cc ****   const TfLiteTensor* axis = GetInput(context, node, kAxisTensor);
  52:../src/tensorflow_lite/tensorflow/lite/micro/kernels/cumsum.cc **** 
  53:../src/tensorflow_lite/tensorflow/lite/micro/kernels/cumsum.cc ****   TF_LITE_ENSURE(context,
  54:../src/tensorflow_lite/tensorflow/lite/micro/kernels/cumsum.cc ****                  input->type == kTfLiteFloat32 || input->type == kTfLiteInt8);
  55:../src/tensorflow_lite/tensorflow/lite/micro/kernels/cumsum.cc ****   TF_LITE_ENSURE_EQ(context, axis->type, kTfLiteInt32);
  56:../src/tensorflow_lite/tensorflow/lite/micro/kernels/cumsum.cc **** 
  57:../src/tensorflow_lite/tensorflow/lite/micro/kernels/cumsum.cc ****   TF_LITE_ENSURE_EQ(context, NumElements(axis), 1);
  58:../src/tensorflow_lite/tensorflow/lite/micro/kernels/cumsum.cc **** 
  59:../src/tensorflow_lite/tensorflow/lite/micro/kernels/cumsum.cc ****   TF_LITE_ENSURE(context, NumDimensions(input) >= 1);
  60:../src/tensorflow_lite/tensorflow/lite/micro/kernels/cumsum.cc **** 
  61:../src/tensorflow_lite/tensorflow/lite/micro/kernels/cumsum.cc ****   TfLiteTensor* output = GetOutput(context, node, kOutputTensor);
  62:../src/tensorflow_lite/tensorflow/lite/micro/kernels/cumsum.cc **** 
  63:../src/tensorflow_lite/tensorflow/lite/micro/kernels/cumsum.cc ****   TF_LITE_ENSURE_EQ(context, input->type, output->type);
  64:../src/tensorflow_lite/tensorflow/lite/micro/kernels/cumsum.cc ****   TF_LITE_ENSURE(context, HaveSameShapes(input, output));
  65:../src/tensorflow_lite/tensorflow/lite/micro/kernels/cumsum.cc **** 
  66:../src/tensorflow_lite/tensorflow/lite/micro/kernels/cumsum.cc ****   if (output->type == kTfLiteInt8) {
  67:../src/tensorflow_lite/tensorflow/lite/micro/kernels/cumsum.cc ****     node->user_data =
  68:../src/tensorflow_lite/tensorflow/lite/micro/kernels/cumsum.cc ****         context->AllocatePersistentBuffer(context, sizeof(OpData));
  69:../src/tensorflow_lite/tensorflow/lite/micro/kernels/cumsum.cc ****     OpData* data = static_cast<OpData*>(node->user_data);
  70:../src/tensorflow_lite/tensorflow/lite/micro/kernels/cumsum.cc **** 
  71:../src/tensorflow_lite/tensorflow/lite/micro/kernels/cumsum.cc ****     // 8bit -> 8bit general quantized path, with general rescalings
  72:../src/tensorflow_lite/tensorflow/lite/micro/kernels/cumsum.cc ****     data->input_offset = -input->params.zero_point;
  73:../src/tensorflow_lite/tensorflow/lite/micro/kernels/cumsum.cc ****     data->output_offset = output->params.zero_point;
  74:../src/tensorflow_lite/tensorflow/lite/micro/kernels/cumsum.cc ****     data->left_shift = kCumSumIntegerShift;
  75:../src/tensorflow_lite/tensorflow/lite/micro/kernels/cumsum.cc ****     const double twice_max_input_scale =
  76:../src/tensorflow_lite/tensorflow/lite/micro/kernels/cumsum.cc ****         2 * static_cast<double>(input->params.scale);
  77:../src/tensorflow_lite/tensorflow/lite/micro/kernels/cumsum.cc ****     const double real_input_multiplier =
  78:../src/tensorflow_lite/tensorflow/lite/micro/kernels/cumsum.cc ****         static_cast<double>(input->params.scale) / twice_max_input_scale;
  79:../src/tensorflow_lite/tensorflow/lite/micro/kernels/cumsum.cc ****     const double real_output_multiplier =
  80:../src/tensorflow_lite/tensorflow/lite/micro/kernels/cumsum.cc ****         twice_max_input_scale /
  81:../src/tensorflow_lite/tensorflow/lite/micro/kernels/cumsum.cc ****         ((1 << data->left_shift) * static_cast<double>(output->params.scale));
  82:../src/tensorflow_lite/tensorflow/lite/micro/kernels/cumsum.cc **** 
  83:../src/tensorflow_lite/tensorflow/lite/micro/kernels/cumsum.cc ****     QuantizeMultiplierSmallerThanOneExp(
  84:../src/tensorflow_lite/tensorflow/lite/micro/kernels/cumsum.cc ****         real_input_multiplier, &data->input_multiplier, &data->input_shift);
  85:../src/tensorflow_lite/tensorflow/lite/micro/kernels/cumsum.cc **** 
  86:../src/tensorflow_lite/tensorflow/lite/micro/kernels/cumsum.cc ****     QuantizeMultiplierSmallerThanOneExp(
  87:../src/tensorflow_lite/tensorflow/lite/micro/kernels/cumsum.cc ****         real_output_multiplier, &data->output_multiplier, &data->output_shift);
  88:../src/tensorflow_lite/tensorflow/lite/micro/kernels/cumsum.cc **** 
  89:../src/tensorflow_lite/tensorflow/lite/micro/kernels/cumsum.cc ****     TF_LITE_ENSURE_STATUS(CalculateActivationRangeQuantized(
  90:../src/tensorflow_lite/tensorflow/lite/micro/kernels/cumsum.cc ****         context, kTfLiteActNone, output, &data->output_activation_min,
  91:../src/tensorflow_lite/tensorflow/lite/micro/kernels/cumsum.cc ****         &data->output_activation_max));
  92:../src/tensorflow_lite/tensorflow/lite/micro/kernels/cumsum.cc ****   }
  93:../src/tensorflow_lite/tensorflow/lite/micro/kernels/cumsum.cc **** 
  94:../src/tensorflow_lite/tensorflow/lite/micro/kernels/cumsum.cc ****   return kTfLiteOk;
  95:../src/tensorflow_lite/tensorflow/lite/micro/kernels/cumsum.cc **** }
  96:../src/tensorflow_lite/tensorflow/lite/micro/kernels/cumsum.cc **** 
  97:../src/tensorflow_lite/tensorflow/lite/micro/kernels/cumsum.cc **** TfLiteStatus Prepare(TfLiteContext* context, TfLiteNode* node) {
  26              		.loc 1 97 0
  27              		.cfi_startproc
  28              		@ args = 0, pretend = 0, frame = 16
  29              		@ frame_needed = 0, uses_anonymous_args = 0
  30              	.LVL0:
  31              	.LBB137:
  32              	.LBB138:
  33              	.LBB139:
  34              	.LBB140:
  35              		.file 2 "C:/Renesas/e2studio_2021_01_workspace_RZA2M_ANPR/ANPR_RZA2M_EBK/src/tensorflow_lite/tenso
   1:C:/Renesas/e2studio_2021_01_workspace_RZA2M_ANPR/ANPR_RZA2M_EBK/src/tensorflow_lite/tensorflow/lite/kernels\kernel_util.h **** /* Copyright 2017 The TensorFlow Authors. All Rights Reserved.
   2:C:/Renesas/e2studio_2021_01_workspace_RZA2M_ANPR/ANPR_RZA2M_EBK/src/tensorflow_lite/tensorflow/lite/kernels\kernel_util.h **** 
   3:C:/Renesas/e2studio_2021_01_workspace_RZA2M_ANPR/ANPR_RZA2M_EBK/src/tensorflow_lite/tensorflow/lite/kernels\kernel_util.h **** Licensed under the Apache License, Version 2.0 (the "License");
   4:C:/Renesas/e2studio_2021_01_workspace_RZA2M_ANPR/ANPR_RZA2M_EBK/src/tensorflow_lite/tensorflow/lite/kernels\kernel_util.h **** you may not use this file except in compliance with the License.
   5:C:/Renesas/e2studio_2021_01_workspace_RZA2M_ANPR/ANPR_RZA2M_EBK/src/tensorflow_lite/tensorflow/lite/kernels\kernel_util.h **** You may obtain a copy of the License at
   6:C:/Renesas/e2studio_2021_01_workspace_RZA2M_ANPR/ANPR_RZA2M_EBK/src/tensorflow_lite/tensorflow/lite/kernels\kernel_util.h **** 
   7:C:/Renesas/e2studio_2021_01_workspace_RZA2M_ANPR/ANPR_RZA2M_EBK/src/tensorflow_lite/tensorflow/lite/kernels\kernel_util.h ****     http://www.apache.org/licenses/LICENSE-2.0
   8:C:/Renesas/e2studio_2021_01_workspace_RZA2M_ANPR/ANPR_RZA2M_EBK/src/tensorflow_lite/tensorflow/lite/kernels\kernel_util.h **** 
   9:C:/Renesas/e2studio_2021_01_workspace_RZA2M_ANPR/ANPR_RZA2M_EBK/src/tensorflow_lite/tensorflow/lite/kernels\kernel_util.h **** Unless required by applicable law or agreed to in writing, software
  10:C:/Renesas/e2studio_2021_01_workspace_RZA2M_ANPR/ANPR_RZA2M_EBK/src/tensorflow_lite/tensorflow/lite/kernels\kernel_util.h **** distributed under the License is distributed on an "AS IS" BASIS,
  11:C:/Renesas/e2studio_2021_01_workspace_RZA2M_ANPR/ANPR_RZA2M_EBK/src/tensorflow_lite/tensorflow/lite/kernels\kernel_util.h **** WITHOUT WARRANTIES OR CONDITIONS OF ANY KIND, either express or implied.
  12:C:/Renesas/e2studio_2021_01_workspace_RZA2M_ANPR/ANPR_RZA2M_EBK/src/tensorflow_lite/tensorflow/lite/kernels\kernel_util.h **** See the License for the specific language governing permissions and
  13:C:/Renesas/e2studio_2021_01_workspace_RZA2M_ANPR/ANPR_RZA2M_EBK/src/tensorflow_lite/tensorflow/lite/kernels\kernel_util.h **** limitations under the License.
  14:C:/Renesas/e2studio_2021_01_workspace_RZA2M_ANPR/ANPR_RZA2M_EBK/src/tensorflow_lite/tensorflow/lite/kernels\kernel_util.h **** ==============================================================================*/
  15:C:/Renesas/e2studio_2021_01_workspace_RZA2M_ANPR/ANPR_RZA2M_EBK/src/tensorflow_lite/tensorflow/lite/kernels\kernel_util.h **** #ifndef TENSORFLOW_LITE_KERNELS_KERNEL_UTIL_H_
  16:C:/Renesas/e2studio_2021_01_workspace_RZA2M_ANPR/ANPR_RZA2M_EBK/src/tensorflow_lite/tensorflow/lite/kernels\kernel_util.h **** #define TENSORFLOW_LITE_KERNELS_KERNEL_UTIL_H_
  17:C:/Renesas/e2studio_2021_01_workspace_RZA2M_ANPR/ANPR_RZA2M_EBK/src/tensorflow_lite/tensorflow/lite/kernels\kernel_util.h **** 
  18:C:/Renesas/e2studio_2021_01_workspace_RZA2M_ANPR/ANPR_RZA2M_EBK/src/tensorflow_lite/tensorflow/lite/kernels\kernel_util.h **** #include <stdint.h>
  19:C:/Renesas/e2studio_2021_01_workspace_RZA2M_ANPR/ANPR_RZA2M_EBK/src/tensorflow_lite/tensorflow/lite/kernels\kernel_util.h **** 
  20:C:/Renesas/e2studio_2021_01_workspace_RZA2M_ANPR/ANPR_RZA2M_EBK/src/tensorflow_lite/tensorflow/lite/kernels\kernel_util.h **** #include <limits>
  21:C:/Renesas/e2studio_2021_01_workspace_RZA2M_ANPR/ANPR_RZA2M_EBK/src/tensorflow_lite/tensorflow/lite/kernels\kernel_util.h **** 
  22:C:/Renesas/e2studio_2021_01_workspace_RZA2M_ANPR/ANPR_RZA2M_EBK/src/tensorflow_lite/tensorflow/lite/kernels\kernel_util.h **** #include "tensorflow/lite/c/builtin_op_data.h"
  23:C:/Renesas/e2studio_2021_01_workspace_RZA2M_ANPR/ANPR_RZA2M_EBK/src/tensorflow_lite/tensorflow/lite/kernels\kernel_util.h **** #include "tensorflow/lite/c/common.h"
  24:C:/Renesas/e2studio_2021_01_workspace_RZA2M_ANPR/ANPR_RZA2M_EBK/src/tensorflow_lite/tensorflow/lite/kernels\kernel_util.h **** 
  25:C:/Renesas/e2studio_2021_01_workspace_RZA2M_ANPR/ANPR_RZA2M_EBK/src/tensorflow_lite/tensorflow/lite/kernels\kernel_util.h **** namespace tflite {
  26:C:/Renesas/e2studio_2021_01_workspace_RZA2M_ANPR/ANPR_RZA2M_EBK/src/tensorflow_lite/tensorflow/lite/kernels\kernel_util.h **** 
  27:C:/Renesas/e2studio_2021_01_workspace_RZA2M_ANPR/ANPR_RZA2M_EBK/src/tensorflow_lite/tensorflow/lite/kernels\kernel_util.h **** // A fair number of functions in this header have historically been inline.
  28:C:/Renesas/e2studio_2021_01_workspace_RZA2M_ANPR/ANPR_RZA2M_EBK/src/tensorflow_lite/tensorflow/lite/kernels\kernel_util.h **** // It is ok to change functions to not be inline if the latency with
  29:C:/Renesas/e2studio_2021_01_workspace_RZA2M_ANPR/ANPR_RZA2M_EBK/src/tensorflow_lite/tensorflow/lite/kernels\kernel_util.h **** // benchmark_model for MobileNet + MobileBERT is unaffected. If such a change is
  30:C:/Renesas/e2studio_2021_01_workspace_RZA2M_ANPR/ANPR_RZA2M_EBK/src/tensorflow_lite/tensorflow/lite/kernels\kernel_util.h **** // made, move the newly non-inlined function declarations to the top of this
  31:C:/Renesas/e2studio_2021_01_workspace_RZA2M_ANPR/ANPR_RZA2M_EBK/src/tensorflow_lite/tensorflow/lite/kernels\kernel_util.h **** // header file.
  32:C:/Renesas/e2studio_2021_01_workspace_RZA2M_ANPR/ANPR_RZA2M_EBK/src/tensorflow_lite/tensorflow/lite/kernels\kernel_util.h **** 
  33:C:/Renesas/e2studio_2021_01_workspace_RZA2M_ANPR/ANPR_RZA2M_EBK/src/tensorflow_lite/tensorflow/lite/kernels\kernel_util.h **** // Note: You must check if result is not null:
  34:C:/Renesas/e2studio_2021_01_workspace_RZA2M_ANPR/ANPR_RZA2M_EBK/src/tensorflow_lite/tensorflow/lite/kernels\kernel_util.h **** //
  35:C:/Renesas/e2studio_2021_01_workspace_RZA2M_ANPR/ANPR_RZA2M_EBK/src/tensorflow_lite/tensorflow/lite/kernels\kernel_util.h **** //   TfLiteTensor* my_tensor = GetInput(context, node, kMyTensorIdx);
  36:C:/Renesas/e2studio_2021_01_workspace_RZA2M_ANPR/ANPR_RZA2M_EBK/src/tensorflow_lite/tensorflow/lite/kernels\kernel_util.h **** //   TF_LITE_ENSURE(context, my_tensor != nullptr);
  37:C:/Renesas/e2studio_2021_01_workspace_RZA2M_ANPR/ANPR_RZA2M_EBK/src/tensorflow_lite/tensorflow/lite/kernels\kernel_util.h **** //
  38:C:/Renesas/e2studio_2021_01_workspace_RZA2M_ANPR/ANPR_RZA2M_EBK/src/tensorflow_lite/tensorflow/lite/kernels\kernel_util.h **** // This is because the index might point to the optional tensor constant
  39:C:/Renesas/e2studio_2021_01_workspace_RZA2M_ANPR/ANPR_RZA2M_EBK/src/tensorflow_lite/tensorflow/lite/kernels\kernel_util.h **** // (kTfLiteOptionalTensor) in which case there is no tensor to return.
  40:C:/Renesas/e2studio_2021_01_workspace_RZA2M_ANPR/ANPR_RZA2M_EBK/src/tensorflow_lite/tensorflow/lite/kernels\kernel_util.h **** const TfLiteTensor* GetInput(const TfLiteContext* context,
  41:C:/Renesas/e2studio_2021_01_workspace_RZA2M_ANPR/ANPR_RZA2M_EBK/src/tensorflow_lite/tensorflow/lite/kernels\kernel_util.h ****                              const TfLiteNode* node, int index);
  42:C:/Renesas/e2studio_2021_01_workspace_RZA2M_ANPR/ANPR_RZA2M_EBK/src/tensorflow_lite/tensorflow/lite/kernels\kernel_util.h **** 
  43:C:/Renesas/e2studio_2021_01_workspace_RZA2M_ANPR/ANPR_RZA2M_EBK/src/tensorflow_lite/tensorflow/lite/kernels\kernel_util.h **** // Same as `GetInput` but returns boolean and uses output argument for tensor.
  44:C:/Renesas/e2studio_2021_01_workspace_RZA2M_ANPR/ANPR_RZA2M_EBK/src/tensorflow_lite/tensorflow/lite/kernels\kernel_util.h **** //
  45:C:/Renesas/e2studio_2021_01_workspace_RZA2M_ANPR/ANPR_RZA2M_EBK/src/tensorflow_lite/tensorflow/lite/kernels\kernel_util.h **** //   TfLiteTensor* my_tensor;
  46:C:/Renesas/e2studio_2021_01_workspace_RZA2M_ANPR/ANPR_RZA2M_EBK/src/tensorflow_lite/tensorflow/lite/kernels\kernel_util.h **** //   TF_LITE_ENSURE_OK(context,
  47:C:/Renesas/e2studio_2021_01_workspace_RZA2M_ANPR/ANPR_RZA2M_EBK/src/tensorflow_lite/tensorflow/lite/kernels\kernel_util.h **** //                     GetInputSafe(context, node, kMyTensorIdx, &my_tensor));
  48:C:/Renesas/e2studio_2021_01_workspace_RZA2M_ANPR/ANPR_RZA2M_EBK/src/tensorflow_lite/tensorflow/lite/kernels\kernel_util.h **** //   // can use my_tensor directly from here onwards, it is not nullptr
  49:C:/Renesas/e2studio_2021_01_workspace_RZA2M_ANPR/ANPR_RZA2M_EBK/src/tensorflow_lite/tensorflow/lite/kernels\kernel_util.h **** //
  50:C:/Renesas/e2studio_2021_01_workspace_RZA2M_ANPR/ANPR_RZA2M_EBK/src/tensorflow_lite/tensorflow/lite/kernels\kernel_util.h **** // Should be used in cases where the binary size is too large.
  51:C:/Renesas/e2studio_2021_01_workspace_RZA2M_ANPR/ANPR_RZA2M_EBK/src/tensorflow_lite/tensorflow/lite/kernels\kernel_util.h **** TfLiteStatus GetInputSafe(const TfLiteContext* context, const TfLiteNode* node,
  52:C:/Renesas/e2studio_2021_01_workspace_RZA2M_ANPR/ANPR_RZA2M_EBK/src/tensorflow_lite/tensorflow/lite/kernels\kernel_util.h ****                           int index, const TfLiteTensor** tensor);
  53:C:/Renesas/e2studio_2021_01_workspace_RZA2M_ANPR/ANPR_RZA2M_EBK/src/tensorflow_lite/tensorflow/lite/kernels\kernel_util.h **** 
  54:C:/Renesas/e2studio_2021_01_workspace_RZA2M_ANPR/ANPR_RZA2M_EBK/src/tensorflow_lite/tensorflow/lite/kernels\kernel_util.h **** // Note: You must check if result is not null:
  55:C:/Renesas/e2studio_2021_01_workspace_RZA2M_ANPR/ANPR_RZA2M_EBK/src/tensorflow_lite/tensorflow/lite/kernels\kernel_util.h **** //
  56:C:/Renesas/e2studio_2021_01_workspace_RZA2M_ANPR/ANPR_RZA2M_EBK/src/tensorflow_lite/tensorflow/lite/kernels\kernel_util.h **** //   TfLiteTensor* my_tensor = GetVariableInput(context, node, kMyTensorIdx);
  57:C:/Renesas/e2studio_2021_01_workspace_RZA2M_ANPR/ANPR_RZA2M_EBK/src/tensorflow_lite/tensorflow/lite/kernels\kernel_util.h **** //   TF_LITE_ENSURE(context, my_tensor != nullptr);
  58:C:/Renesas/e2studio_2021_01_workspace_RZA2M_ANPR/ANPR_RZA2M_EBK/src/tensorflow_lite/tensorflow/lite/kernels\kernel_util.h **** //
  59:C:/Renesas/e2studio_2021_01_workspace_RZA2M_ANPR/ANPR_RZA2M_EBK/src/tensorflow_lite/tensorflow/lite/kernels\kernel_util.h **** // This is because the index might point to the optional tensor constant
  60:C:/Renesas/e2studio_2021_01_workspace_RZA2M_ANPR/ANPR_RZA2M_EBK/src/tensorflow_lite/tensorflow/lite/kernels\kernel_util.h **** // (kTfLiteOptionalTensor) in which case there is no tensor to return.
  61:C:/Renesas/e2studio_2021_01_workspace_RZA2M_ANPR/ANPR_RZA2M_EBK/src/tensorflow_lite/tensorflow/lite/kernels\kernel_util.h **** TfLiteTensor* GetVariableInput(TfLiteContext* context, const TfLiteNode* node,
  62:C:/Renesas/e2studio_2021_01_workspace_RZA2M_ANPR/ANPR_RZA2M_EBK/src/tensorflow_lite/tensorflow/lite/kernels\kernel_util.h ****                                int index);
  63:C:/Renesas/e2studio_2021_01_workspace_RZA2M_ANPR/ANPR_RZA2M_EBK/src/tensorflow_lite/tensorflow/lite/kernels\kernel_util.h **** 
  64:C:/Renesas/e2studio_2021_01_workspace_RZA2M_ANPR/ANPR_RZA2M_EBK/src/tensorflow_lite/tensorflow/lite/kernels\kernel_util.h **** // Note: You must check if result is not null:
  65:C:/Renesas/e2studio_2021_01_workspace_RZA2M_ANPR/ANPR_RZA2M_EBK/src/tensorflow_lite/tensorflow/lite/kernels\kernel_util.h **** //
  66:C:/Renesas/e2studio_2021_01_workspace_RZA2M_ANPR/ANPR_RZA2M_EBK/src/tensorflow_lite/tensorflow/lite/kernels\kernel_util.h **** //   TfLiteTensor* my_tensor = GetOutput(context, node, kMyTensorIdx);
  67:C:/Renesas/e2studio_2021_01_workspace_RZA2M_ANPR/ANPR_RZA2M_EBK/src/tensorflow_lite/tensorflow/lite/kernels\kernel_util.h **** //   TF_LITE_ENSURE(context, my_tensor != nullptr);
  68:C:/Renesas/e2studio_2021_01_workspace_RZA2M_ANPR/ANPR_RZA2M_EBK/src/tensorflow_lite/tensorflow/lite/kernels\kernel_util.h **** //
  69:C:/Renesas/e2studio_2021_01_workspace_RZA2M_ANPR/ANPR_RZA2M_EBK/src/tensorflow_lite/tensorflow/lite/kernels\kernel_util.h **** // This is because the index might point to the optional tensor constant
  70:C:/Renesas/e2studio_2021_01_workspace_RZA2M_ANPR/ANPR_RZA2M_EBK/src/tensorflow_lite/tensorflow/lite/kernels\kernel_util.h **** // (kTfLiteOptionalTensor) in which case there is no tensor to return.
  71:C:/Renesas/e2studio_2021_01_workspace_RZA2M_ANPR/ANPR_RZA2M_EBK/src/tensorflow_lite/tensorflow/lite/kernels\kernel_util.h **** TfLiteTensor* GetOutput(TfLiteContext* context, const TfLiteNode* node,
  72:C:/Renesas/e2studio_2021_01_workspace_RZA2M_ANPR/ANPR_RZA2M_EBK/src/tensorflow_lite/tensorflow/lite/kernels\kernel_util.h ****                         int index);
  73:C:/Renesas/e2studio_2021_01_workspace_RZA2M_ANPR/ANPR_RZA2M_EBK/src/tensorflow_lite/tensorflow/lite/kernels\kernel_util.h **** 
  74:C:/Renesas/e2studio_2021_01_workspace_RZA2M_ANPR/ANPR_RZA2M_EBK/src/tensorflow_lite/tensorflow/lite/kernels\kernel_util.h **** // Same as `GetOutput` but returns boolean and uses output argument for tensor.
  75:C:/Renesas/e2studio_2021_01_workspace_RZA2M_ANPR/ANPR_RZA2M_EBK/src/tensorflow_lite/tensorflow/lite/kernels\kernel_util.h **** //
  76:C:/Renesas/e2studio_2021_01_workspace_RZA2M_ANPR/ANPR_RZA2M_EBK/src/tensorflow_lite/tensorflow/lite/kernels\kernel_util.h **** //   TfLiteTensor* my_tensor;
  77:C:/Renesas/e2studio_2021_01_workspace_RZA2M_ANPR/ANPR_RZA2M_EBK/src/tensorflow_lite/tensorflow/lite/kernels\kernel_util.h **** //   TF_LITE_ENSURE_OK(context,
  78:C:/Renesas/e2studio_2021_01_workspace_RZA2M_ANPR/ANPR_RZA2M_EBK/src/tensorflow_lite/tensorflow/lite/kernels\kernel_util.h **** //                     GetOutputSafe(context, node, kMyTensorIdx, &my_tensor));
  79:C:/Renesas/e2studio_2021_01_workspace_RZA2M_ANPR/ANPR_RZA2M_EBK/src/tensorflow_lite/tensorflow/lite/kernels\kernel_util.h **** //   // can use my_tensor directly from here onwards, it is not nullptr
  80:C:/Renesas/e2studio_2021_01_workspace_RZA2M_ANPR/ANPR_RZA2M_EBK/src/tensorflow_lite/tensorflow/lite/kernels\kernel_util.h **** //
  81:C:/Renesas/e2studio_2021_01_workspace_RZA2M_ANPR/ANPR_RZA2M_EBK/src/tensorflow_lite/tensorflow/lite/kernels\kernel_util.h **** // Should be used in cases where the binary size is too large.
  82:C:/Renesas/e2studio_2021_01_workspace_RZA2M_ANPR/ANPR_RZA2M_EBK/src/tensorflow_lite/tensorflow/lite/kernels\kernel_util.h **** TfLiteStatus GetOutputSafe(const TfLiteContext* context, const TfLiteNode* node,
  83:C:/Renesas/e2studio_2021_01_workspace_RZA2M_ANPR/ANPR_RZA2M_EBK/src/tensorflow_lite/tensorflow/lite/kernels\kernel_util.h ****                            int index, TfLiteTensor** tensor);
  84:C:/Renesas/e2studio_2021_01_workspace_RZA2M_ANPR/ANPR_RZA2M_EBK/src/tensorflow_lite/tensorflow/lite/kernels\kernel_util.h **** 
  85:C:/Renesas/e2studio_2021_01_workspace_RZA2M_ANPR/ANPR_RZA2M_EBK/src/tensorflow_lite/tensorflow/lite/kernels\kernel_util.h **** // Note: You must check if result is not null:
  86:C:/Renesas/e2studio_2021_01_workspace_RZA2M_ANPR/ANPR_RZA2M_EBK/src/tensorflow_lite/tensorflow/lite/kernels\kernel_util.h **** //
  87:C:/Renesas/e2studio_2021_01_workspace_RZA2M_ANPR/ANPR_RZA2M_EBK/src/tensorflow_lite/tensorflow/lite/kernels\kernel_util.h **** //   TfLiteTensor* my_tensor = GetOptionalInputTensor(context, node, kIdx);
  88:C:/Renesas/e2studio_2021_01_workspace_RZA2M_ANPR/ANPR_RZA2M_EBK/src/tensorflow_lite/tensorflow/lite/kernels\kernel_util.h **** //   TF_LITE_ENSURE(context, my_tensor != nullptr);
  89:C:/Renesas/e2studio_2021_01_workspace_RZA2M_ANPR/ANPR_RZA2M_EBK/src/tensorflow_lite/tensorflow/lite/kernels\kernel_util.h **** //
  90:C:/Renesas/e2studio_2021_01_workspace_RZA2M_ANPR/ANPR_RZA2M_EBK/src/tensorflow_lite/tensorflow/lite/kernels\kernel_util.h **** // This is because the index might point to the optional tensor constant
  91:C:/Renesas/e2studio_2021_01_workspace_RZA2M_ANPR/ANPR_RZA2M_EBK/src/tensorflow_lite/tensorflow/lite/kernels\kernel_util.h **** // (kTfLiteOptionalTensor) in which case there is no tensor to return.
  92:C:/Renesas/e2studio_2021_01_workspace_RZA2M_ANPR/ANPR_RZA2M_EBK/src/tensorflow_lite/tensorflow/lite/kernels\kernel_util.h **** //
  93:C:/Renesas/e2studio_2021_01_workspace_RZA2M_ANPR/ANPR_RZA2M_EBK/src/tensorflow_lite/tensorflow/lite/kernels\kernel_util.h **** // Deprecated. GetInput has the same functionality.
  94:C:/Renesas/e2studio_2021_01_workspace_RZA2M_ANPR/ANPR_RZA2M_EBK/src/tensorflow_lite/tensorflow/lite/kernels\kernel_util.h **** const TfLiteTensor* GetOptionalInputTensor(const TfLiteContext* context,
  95:C:/Renesas/e2studio_2021_01_workspace_RZA2M_ANPR/ANPR_RZA2M_EBK/src/tensorflow_lite/tensorflow/lite/kernels\kernel_util.h ****                                            const TfLiteNode* node, int index);
  96:C:/Renesas/e2studio_2021_01_workspace_RZA2M_ANPR/ANPR_RZA2M_EBK/src/tensorflow_lite/tensorflow/lite/kernels\kernel_util.h **** 
  97:C:/Renesas/e2studio_2021_01_workspace_RZA2M_ANPR/ANPR_RZA2M_EBK/src/tensorflow_lite/tensorflow/lite/kernels\kernel_util.h **** #ifndef TF_LITE_STATIC_MEMORY
  98:C:/Renesas/e2studio_2021_01_workspace_RZA2M_ANPR/ANPR_RZA2M_EBK/src/tensorflow_lite/tensorflow/lite/kernels\kernel_util.h **** // Note: You must check if result is not null:
  99:C:/Renesas/e2studio_2021_01_workspace_RZA2M_ANPR/ANPR_RZA2M_EBK/src/tensorflow_lite/tensorflow/lite/kernels\kernel_util.h **** //
 100:C:/Renesas/e2studio_2021_01_workspace_RZA2M_ANPR/ANPR_RZA2M_EBK/src/tensorflow_lite/tensorflow/lite/kernels\kernel_util.h **** //   TfLiteTensor* my_tensor = GetTemporary(context, node, kMyTensorIdx);
 101:C:/Renesas/e2studio_2021_01_workspace_RZA2M_ANPR/ANPR_RZA2M_EBK/src/tensorflow_lite/tensorflow/lite/kernels\kernel_util.h **** //   TF_LITE_ENSURE(context, my_tensor != nullptr);
 102:C:/Renesas/e2studio_2021_01_workspace_RZA2M_ANPR/ANPR_RZA2M_EBK/src/tensorflow_lite/tensorflow/lite/kernels\kernel_util.h **** //
 103:C:/Renesas/e2studio_2021_01_workspace_RZA2M_ANPR/ANPR_RZA2M_EBK/src/tensorflow_lite/tensorflow/lite/kernels\kernel_util.h **** // This is because the index might point to the optional tensor constant
 104:C:/Renesas/e2studio_2021_01_workspace_RZA2M_ANPR/ANPR_RZA2M_EBK/src/tensorflow_lite/tensorflow/lite/kernels\kernel_util.h **** // (kTfLiteOptionalTensor) in which case there is no tensor to return.
 105:C:/Renesas/e2studio_2021_01_workspace_RZA2M_ANPR/ANPR_RZA2M_EBK/src/tensorflow_lite/tensorflow/lite/kernels\kernel_util.h **** TfLiteTensor* GetTemporary(TfLiteContext* context, const TfLiteNode* node,
 106:C:/Renesas/e2studio_2021_01_workspace_RZA2M_ANPR/ANPR_RZA2M_EBK/src/tensorflow_lite/tensorflow/lite/kernels\kernel_util.h ****                            int index);
 107:C:/Renesas/e2studio_2021_01_workspace_RZA2M_ANPR/ANPR_RZA2M_EBK/src/tensorflow_lite/tensorflow/lite/kernels\kernel_util.h **** 
 108:C:/Renesas/e2studio_2021_01_workspace_RZA2M_ANPR/ANPR_RZA2M_EBK/src/tensorflow_lite/tensorflow/lite/kernels\kernel_util.h **** // Same as `GetTemporary` but returns boolean and uses output argument for
 109:C:/Renesas/e2studio_2021_01_workspace_RZA2M_ANPR/ANPR_RZA2M_EBK/src/tensorflow_lite/tensorflow/lite/kernels\kernel_util.h **** // tensor.
 110:C:/Renesas/e2studio_2021_01_workspace_RZA2M_ANPR/ANPR_RZA2M_EBK/src/tensorflow_lite/tensorflow/lite/kernels\kernel_util.h **** //
 111:C:/Renesas/e2studio_2021_01_workspace_RZA2M_ANPR/ANPR_RZA2M_EBK/src/tensorflow_lite/tensorflow/lite/kernels\kernel_util.h **** //   TfLiteTensor* my_tensor;
 112:C:/Renesas/e2studio_2021_01_workspace_RZA2M_ANPR/ANPR_RZA2M_EBK/src/tensorflow_lite/tensorflow/lite/kernels\kernel_util.h **** //   TF_LITE_ENSURE_OK(context,
 113:C:/Renesas/e2studio_2021_01_workspace_RZA2M_ANPR/ANPR_RZA2M_EBK/src/tensorflow_lite/tensorflow/lite/kernels\kernel_util.h **** //                     GetTemporarySafe(context, node, kMyTensorIdx,
 114:C:/Renesas/e2studio_2021_01_workspace_RZA2M_ANPR/ANPR_RZA2M_EBK/src/tensorflow_lite/tensorflow/lite/kernels\kernel_util.h **** //                     &my_tensor));
 115:C:/Renesas/e2studio_2021_01_workspace_RZA2M_ANPR/ANPR_RZA2M_EBK/src/tensorflow_lite/tensorflow/lite/kernels\kernel_util.h **** //   // can use my_tensor directly from here onwards, it is not nullptr
 116:C:/Renesas/e2studio_2021_01_workspace_RZA2M_ANPR/ANPR_RZA2M_EBK/src/tensorflow_lite/tensorflow/lite/kernels\kernel_util.h **** //
 117:C:/Renesas/e2studio_2021_01_workspace_RZA2M_ANPR/ANPR_RZA2M_EBK/src/tensorflow_lite/tensorflow/lite/kernels\kernel_util.h **** // Should be used in cases where the binary size is too large.
 118:C:/Renesas/e2studio_2021_01_workspace_RZA2M_ANPR/ANPR_RZA2M_EBK/src/tensorflow_lite/tensorflow/lite/kernels\kernel_util.h **** TfLiteStatus GetTemporarySafe(const TfLiteContext* context,
 119:C:/Renesas/e2studio_2021_01_workspace_RZA2M_ANPR/ANPR_RZA2M_EBK/src/tensorflow_lite/tensorflow/lite/kernels\kernel_util.h ****                               const TfLiteNode* node, int index,
 120:C:/Renesas/e2studio_2021_01_workspace_RZA2M_ANPR/ANPR_RZA2M_EBK/src/tensorflow_lite/tensorflow/lite/kernels\kernel_util.h ****                               TfLiteTensor** tensor);
 121:C:/Renesas/e2studio_2021_01_workspace_RZA2M_ANPR/ANPR_RZA2M_EBK/src/tensorflow_lite/tensorflow/lite/kernels\kernel_util.h **** 
 122:C:/Renesas/e2studio_2021_01_workspace_RZA2M_ANPR/ANPR_RZA2M_EBK/src/tensorflow_lite/tensorflow/lite/kernels\kernel_util.h **** // Note: You must check if result is not null:
 123:C:/Renesas/e2studio_2021_01_workspace_RZA2M_ANPR/ANPR_RZA2M_EBK/src/tensorflow_lite/tensorflow/lite/kernels\kernel_util.h **** //
 124:C:/Renesas/e2studio_2021_01_workspace_RZA2M_ANPR/ANPR_RZA2M_EBK/src/tensorflow_lite/tensorflow/lite/kernels\kernel_util.h **** //   TfLiteTensor* my_tensor = GetIntermediates(context, node, kMyTensorIdx);
 125:C:/Renesas/e2studio_2021_01_workspace_RZA2M_ANPR/ANPR_RZA2M_EBK/src/tensorflow_lite/tensorflow/lite/kernels\kernel_util.h **** //   TF_LITE_ENSURE(context, my_tensor != nullptr);
 126:C:/Renesas/e2studio_2021_01_workspace_RZA2M_ANPR/ANPR_RZA2M_EBK/src/tensorflow_lite/tensorflow/lite/kernels\kernel_util.h **** //
 127:C:/Renesas/e2studio_2021_01_workspace_RZA2M_ANPR/ANPR_RZA2M_EBK/src/tensorflow_lite/tensorflow/lite/kernels\kernel_util.h **** // This is because the index might point to the optional tensor constant
 128:C:/Renesas/e2studio_2021_01_workspace_RZA2M_ANPR/ANPR_RZA2M_EBK/src/tensorflow_lite/tensorflow/lite/kernels\kernel_util.h **** // (kTfLiteOptionalTensor) in which case there is no tensor to return.
 129:C:/Renesas/e2studio_2021_01_workspace_RZA2M_ANPR/ANPR_RZA2M_EBK/src/tensorflow_lite/tensorflow/lite/kernels\kernel_util.h **** const TfLiteTensor* GetIntermediates(TfLiteContext* context,
 130:C:/Renesas/e2studio_2021_01_workspace_RZA2M_ANPR/ANPR_RZA2M_EBK/src/tensorflow_lite/tensorflow/lite/kernels\kernel_util.h ****                                      const TfLiteNode* node, int index);
 131:C:/Renesas/e2studio_2021_01_workspace_RZA2M_ANPR/ANPR_RZA2M_EBK/src/tensorflow_lite/tensorflow/lite/kernels\kernel_util.h **** 
 132:C:/Renesas/e2studio_2021_01_workspace_RZA2M_ANPR/ANPR_RZA2M_EBK/src/tensorflow_lite/tensorflow/lite/kernels\kernel_util.h **** // Same as `GetIntermediates` but returns boolean and uses output argument for
 133:C:/Renesas/e2studio_2021_01_workspace_RZA2M_ANPR/ANPR_RZA2M_EBK/src/tensorflow_lite/tensorflow/lite/kernels\kernel_util.h **** // tensor.
 134:C:/Renesas/e2studio_2021_01_workspace_RZA2M_ANPR/ANPR_RZA2M_EBK/src/tensorflow_lite/tensorflow/lite/kernels\kernel_util.h **** //
 135:C:/Renesas/e2studio_2021_01_workspace_RZA2M_ANPR/ANPR_RZA2M_EBK/src/tensorflow_lite/tensorflow/lite/kernels\kernel_util.h **** //   TfLiteTensor* my_tensor;
 136:C:/Renesas/e2studio_2021_01_workspace_RZA2M_ANPR/ANPR_RZA2M_EBK/src/tensorflow_lite/tensorflow/lite/kernels\kernel_util.h **** //   TF_LITE_ENSURE_OK(context,
 137:C:/Renesas/e2studio_2021_01_workspace_RZA2M_ANPR/ANPR_RZA2M_EBK/src/tensorflow_lite/tensorflow/lite/kernels\kernel_util.h **** //                     GetIntermediatesSafe(context, node, kMyTensorIdx,
 138:C:/Renesas/e2studio_2021_01_workspace_RZA2M_ANPR/ANPR_RZA2M_EBK/src/tensorflow_lite/tensorflow/lite/kernels\kernel_util.h **** //                     &my_tensor));
 139:C:/Renesas/e2studio_2021_01_workspace_RZA2M_ANPR/ANPR_RZA2M_EBK/src/tensorflow_lite/tensorflow/lite/kernels\kernel_util.h **** //   // can use my_tensor directly from here onwards, it is not nullptr
 140:C:/Renesas/e2studio_2021_01_workspace_RZA2M_ANPR/ANPR_RZA2M_EBK/src/tensorflow_lite/tensorflow/lite/kernels\kernel_util.h **** //
 141:C:/Renesas/e2studio_2021_01_workspace_RZA2M_ANPR/ANPR_RZA2M_EBK/src/tensorflow_lite/tensorflow/lite/kernels\kernel_util.h **** // Should be used in cases where the binary size is too large.
 142:C:/Renesas/e2studio_2021_01_workspace_RZA2M_ANPR/ANPR_RZA2M_EBK/src/tensorflow_lite/tensorflow/lite/kernels\kernel_util.h **** TfLiteStatus GetIntermediatesSafe(const TfLiteContext* context,
 143:C:/Renesas/e2studio_2021_01_workspace_RZA2M_ANPR/ANPR_RZA2M_EBK/src/tensorflow_lite/tensorflow/lite/kernels\kernel_util.h ****                                   const TfLiteNode* node, int index,
 144:C:/Renesas/e2studio_2021_01_workspace_RZA2M_ANPR/ANPR_RZA2M_EBK/src/tensorflow_lite/tensorflow/lite/kernels\kernel_util.h ****                                   TfLiteTensor** tensor);
 145:C:/Renesas/e2studio_2021_01_workspace_RZA2M_ANPR/ANPR_RZA2M_EBK/src/tensorflow_lite/tensorflow/lite/kernels\kernel_util.h **** #endif  // TF_LITE_STATIC_MEMORY
 146:C:/Renesas/e2studio_2021_01_workspace_RZA2M_ANPR/ANPR_RZA2M_EBK/src/tensorflow_lite/tensorflow/lite/kernels\kernel_util.h **** 
 147:C:/Renesas/e2studio_2021_01_workspace_RZA2M_ANPR/ANPR_RZA2M_EBK/src/tensorflow_lite/tensorflow/lite/kernels\kernel_util.h **** inline int NumDimensions(const TfLiteTensor* t) { return t->dims->size; }
 148:C:/Renesas/e2studio_2021_01_workspace_RZA2M_ANPR/ANPR_RZA2M_EBK/src/tensorflow_lite/tensorflow/lite/kernels\kernel_util.h **** inline int SizeOfDimension(const TfLiteTensor* t, int dim) {
 149:C:/Renesas/e2studio_2021_01_workspace_RZA2M_ANPR/ANPR_RZA2M_EBK/src/tensorflow_lite/tensorflow/lite/kernels\kernel_util.h ****   return t->dims->data[dim];
 150:C:/Renesas/e2studio_2021_01_workspace_RZA2M_ANPR/ANPR_RZA2M_EBK/src/tensorflow_lite/tensorflow/lite/kernels\kernel_util.h **** }
 151:C:/Renesas/e2studio_2021_01_workspace_RZA2M_ANPR/ANPR_RZA2M_EBK/src/tensorflow_lite/tensorflow/lite/kernels\kernel_util.h **** 
 152:C:/Renesas/e2studio_2021_01_workspace_RZA2M_ANPR/ANPR_RZA2M_EBK/src/tensorflow_lite/tensorflow/lite/kernels\kernel_util.h **** inline int NumInputs(const TfLiteNode* node) { return node->inputs->size; }
  36              		.loc 2 152 0
  37 0000 003091E5 		ldr	r3, [r1]
  38              	.LBE140:
  39              	.LBE139:
  40              	.LBE138:
  41              	.LBE137:
  42              		.loc 1 97 0
  43 0004 F04F2DE9 		push	{r4, r5, r6, r7, r8, r9, r10, fp, lr}
  44              		.save {r4, r5, r6, r7, r8, r9, r10, fp, lr}
  45              		.cfi_def_cfa_offset 36
  46              		.cfi_offset 4, -36
  47              		.cfi_offset 5, -32
  48              		.cfi_offset 6, -28
  49              		.cfi_offset 7, -24
  50              		.cfi_offset 8, -20
  51              		.cfi_offset 9, -16
  52              		.cfi_offset 10, -12
  53              		.cfi_offset 11, -8
  54              		.cfi_offset 14, -4
  55 0008 028B2DED 		vpush.64	{d8}
  56              		.vsave {d8}
  57              		.cfi_def_cfa_offset 44
  58              		.cfi_offset 80, -44
  59              		.cfi_offset 81, -40
  60              		.pad #44
  61 000c 2CD04DE2 		sub	sp, sp, #44
  62              		.cfi_def_cfa_offset 88
  63              	.LBB167:
  64              	.LBB163:
  65              	.LBB142:
  66              	.LBB141:
  67              		.loc 2 152 0
  68 0010 005093E5 		ldr	r5, [r3]
  69              	.LBE141:
  70              	.LBE142:
  71              	.LBE163:
  72              	.LBE167:
  73              		.loc 1 97 0
  74 0014 18008DE5 		str	r0, [sp, #24]
  75              	.LVL1:
  76              	.LBB168:
  77              	.LBB164:
  47:../src/tensorflow_lite/tensorflow/lite/micro/kernels/cumsum.cc ****   TF_LITE_ENSURE_EQ(context, NumOutputs(node), 1);
  78              		.loc 1 47 0
  79 0018 020055E3 		cmp	r5, #2
  80 001c E800001A 		bne	.L30
  81              	.LBB143:
  82              	.LBB144:
 153:C:/Renesas/e2studio_2021_01_workspace_RZA2M_ANPR/ANPR_RZA2M_EBK/src/tensorflow_lite/tensorflow/lite/kernels\kernel_util.h **** inline int NumOutputs(const TfLiteNode* node) { return node->outputs->size; }
  83              		.loc 2 153 0
  84 0020 043091E5 		ldr	r3, [r1, #4]
  85 0024 0180A0E1 		mov	r8, r1
  86              	.LVL2:
  87 0028 006093E5 		ldr	r6, [r3]
  88              	.LBE144:
  89              	.LBE143:
  48:../src/tensorflow_lite/tensorflow/lite/micro/kernels/cumsum.cc **** 
  90              		.loc 1 48 0
  91 002c 010056E3 		cmp	r6, #1
  92 0030 1300000A 		beq	.L4
  93              	.LVL3:
  94 0034 00C000E3 		movw	ip, #:lower16:.LC5
  95 0038 003000E3 		movw	r3, #:lower16:.LC6
  96 003c 00C040E3 		movt	ip, #:upper16:.LC5
  97 0040 003040E3 		movt	r3, #:upper16:.LC6
  98 0044 0140A0E3 		mov	r4, #1
  99 0048 002000E3 		movw	r2, #:lower16:.LC1
 100 004c 001000E3 		movw	r1, #:lower16:.LC2
 101              	.LVL4:
 102 0050 08608DE5 		str	r6, [sp, #8]
 103 0054 002040E3 		movt	r2, #:upper16:.LC1
 104 0058 145090E5 		ldr	r5, [r0, #20]
 105 005c 001040E3 		movt	r1, #:upper16:.LC2
 106 0060 00308DE5 		str	r3, [sp]
 107 0064 04C08DE5 		str	ip, [sp, #4]
 108 0068 3030A0E3 		mov	r3, #48
 109 006c 0C408DE5 		str	r4, [sp, #12]
 110 0070 35FF2FE1 		blx	r5
 111              	.LVL5:
 112 0074 0400A0E1 		mov	r0, r4
 113              	.LVL6:
 114              	.L27:
 115              	.LBE164:
 116              	.LBE168:
  98:../src/tensorflow_lite/tensorflow/lite/micro/kernels/cumsum.cc ****   return CalculateOpData(context, node);
  99:../src/tensorflow_lite/tensorflow/lite/micro/kernels/cumsum.cc **** }
 117              		.loc 1 99 0
 118 0078 2CD08DE2 		add	sp, sp, #44
 119              		.cfi_remember_state
 120              		.cfi_def_cfa_offset 44
 121              		@ sp needed
 122 007c 028BBDEC 		vldm	sp!, {d8}
 123              		.cfi_restore 80
 124              		.cfi_restore 81
 125              		.cfi_def_cfa_offset 36
 126 0080 F08FBDE8 		pop	{r4, r5, r6, r7, r8, r9, r10, fp, pc}
 127              	.LVL7:
 128              	.L4:
 129              		.cfi_restore_state
 130              	.LBB169:
 131              	.LBB165:
  50:../src/tensorflow_lite/tensorflow/lite/micro/kernels/cumsum.cc ****   const TfLiteTensor* axis = GetInput(context, node, kAxisTensor);
 132              		.loc 1 50 0
 133 0084 0020A0E3 		mov	r2, #0
 134 0088 FEFFFFEB 		bl	_ZN6tflite8GetInputEPK13TfLiteContextPK10TfLiteNodei
 135              	.LVL8:
  51:../src/tensorflow_lite/tensorflow/lite/micro/kernels/cumsum.cc **** 
 136              		.loc 1 51 0
 137 008c 0620A0E1 		mov	r2, r6
  50:../src/tensorflow_lite/tensorflow/lite/micro/kernels/cumsum.cc ****   const TfLiteTensor* axis = GetInput(context, node, kAxisTensor);
 138              		.loc 1 50 0
 139 0090 0040A0E1 		mov	r4, r0
 140 0094 24008DE5 		str	r0, [sp, #36]
 141              	.LVL9:
  51:../src/tensorflow_lite/tensorflow/lite/micro/kernels/cumsum.cc **** 
 142              		.loc 1 51 0
 143 0098 0810A0E1 		mov	r1, r8
 144 009c 18009DE5 		ldr	r0, [sp, #24]
 145              	.LVL10:
 146 00a0 FEFFFFEB 		bl	_ZN6tflite8GetInputEPK13TfLiteContextPK10TfLiteNodei
 147              	.LVL11:
  53:../src/tensorflow_lite/tensorflow/lite/micro/kernels/cumsum.cc ****                  input->type == kTfLiteFloat32 || input->type == kTfLiteInt8);
 148              		.loc 1 53 0
 149 00a4 0040D4E5 		ldrb	r4, [r4]	@ zero_extendqisi2
 150              	.LVL12:
 151 00a8 F74004E2 		and	r4, r4, #247
 152 00ac 010054E3 		cmp	r4, #1
 153 00b0 EA00001A 		bne	.L31
  55:../src/tensorflow_lite/tensorflow/lite/micro/kernels/cumsum.cc **** 
 154              		.loc 1 55 0
 155 00b4 0030D0E5 		ldrb	r3, [r0]	@ zero_extendqisi2
 156 00b8 020053E3 		cmp	r3, #2
 157 00bc D400001A 		bne	.L32
 158 00c0 083090E5 		ldr	r3, [r0, #8]
 159 00c4 0320A0E1 		mov	r2, r3
 160 00c8 20308DE5 		str	r3, [sp, #32]
 161              	.LVL13:
 162              	.LBB145:
 163              	.LBB146:
 164              	.LBB147:
 165              	.LBB148:
 154:C:/Renesas/e2studio_2021_01_workspace_RZA2M_ANPR/ANPR_RZA2M_EBK/src/tensorflow_lite/tensorflow/lite/kernels\kernel_util.h **** 
 155:C:/Renesas/e2studio_2021_01_workspace_RZA2M_ANPR/ANPR_RZA2M_EBK/src/tensorflow_lite/tensorflow/lite/kernels\kernel_util.h **** #ifndef TF_LITE_STATIC_MEMORY
 156:C:/Renesas/e2studio_2021_01_workspace_RZA2M_ANPR/ANPR_RZA2M_EBK/src/tensorflow_lite/tensorflow/lite/kernels\kernel_util.h **** inline int NumIntermediates(const TfLiteNode* node) {
 157:C:/Renesas/e2studio_2021_01_workspace_RZA2M_ANPR/ANPR_RZA2M_EBK/src/tensorflow_lite/tensorflow/lite/kernels\kernel_util.h ****   return node->intermediates->size;
 158:C:/Renesas/e2studio_2021_01_workspace_RZA2M_ANPR/ANPR_RZA2M_EBK/src/tensorflow_lite/tensorflow/lite/kernels\kernel_util.h **** }
 159:C:/Renesas/e2studio_2021_01_workspace_RZA2M_ANPR/ANPR_RZA2M_EBK/src/tensorflow_lite/tensorflow/lite/kernels\kernel_util.h **** #endif  // TF_LITE_STATIC_MEMORY
 160:C:/Renesas/e2studio_2021_01_workspace_RZA2M_ANPR/ANPR_RZA2M_EBK/src/tensorflow_lite/tensorflow/lite/kernels\kernel_util.h **** 
 161:C:/Renesas/e2studio_2021_01_workspace_RZA2M_ANPR/ANPR_RZA2M_EBK/src/tensorflow_lite/tensorflow/lite/kernels\kernel_util.h **** inline int64_t NumElements(const TfLiteIntArray* dims) {
 162:C:/Renesas/e2studio_2021_01_workspace_RZA2M_ANPR/ANPR_RZA2M_EBK/src/tensorflow_lite/tensorflow/lite/kernels\kernel_util.h ****   int64_t count = 1;
 163:C:/Renesas/e2studio_2021_01_workspace_RZA2M_ANPR/ANPR_RZA2M_EBK/src/tensorflow_lite/tensorflow/lite/kernels\kernel_util.h ****   for (int i = 0; i < dims->size; ++i) {
 166              		.loc 2 163 0
 167 00cc 003093E5 		ldr	r3, [r3]
 168 00d0 000053E3 		cmp	r3, #0
 169 00d4 1C308DE5 		str	r3, [sp, #28]
 170 00d8 EE0000DA 		ble	.L7
 171 00dc 080053E3 		cmp	r3, #8
 172 00e0 0E0100DA 		ble	.L21
 173 00e4 093043E2 		sub	r3, r3, #9
 174 00e8 A4E082E2 		add	lr, r2, #164
 175 00ec 0730C3E3 		bic	r3, r3, #7
 176 00f0 0020A0E3 		mov	r2, #0
 177              	.LVL14:
 178 00f4 083083E2 		add	r3, r3, #8
 179 00f8 0100A0E3 		mov	r0, #1
 180              	.LVL15:
 181 00fc 0010A0E3 		mov	r1, #0
 182 0100 02C0A0E1 		mov	ip, r2
 183 0104 03A0A0E1 		mov	r10, r3
 184 0108 08B0A0E1 		mov	fp, r8
 185              	.LVL16:
 186              	.L9:
 164:C:/Renesas/e2studio_2021_01_workspace_RZA2M_ANPR/ANPR_RZA2M_EBK/src/tensorflow_lite/tensorflow/lite/kernels\kernel_util.h ****     count *= dims->data[i];
 187              		.loc 2 164 0
 188 010c A0201EE5 		ldr	r2, [lr, #-160]
 189 0110 08C08CE2 		add	ip, ip, #8
 190 0114 9C901EE5 		ldr	r9, [lr, #-156]
 191 0118 0A005CE1 		cmp	ip, r10
 192 011c 98501EE5 		ldr	r5, [lr, #-152]
 193 0120 94401EE5 		ldr	r4, [lr, #-148]
 194 0124 920101E0 		mul	r1, r2, r1
 195 0128 C27FA0E1 		asr	r7, r2, #31
 196 012c 90801EE5 		ldr	r8, [lr, #-144]
 197 0130 922083E0 		umull	r2, r3, r2, r0
 198 0134 00F0DEF5 		pld	[lr]
 199 0138 20E08EE2 		add	lr, lr, #32
 200 013c 901721E0 		mla	r1, r0, r7, r1
 201 0140 C97FA0E1 		asr	r7, r9, #31
 202 0144 033081E0 		add	r3, r1, r3
 203              	.LVL17:
 204 0148 990281E0 		umull	r0, r1, r9, r2
 205 014c 990306E0 		mul	r6, r9, r3
 206 0150 C53FA0E1 		asr	r3, r5, #31
 207 0154 926726E0 		mla	r6, r2, r7, r6
 208 0158 AC201EE5 		ldr	r2, [lr, #-172]
 209              	.LVL18:
 210 015c C47FA0E1 		asr	r7, r4, #31
 211 0160 011086E0 		add	r1, r6, r1
 212              	.LVL19:
 213 0164 950109E0 		mul	r9, r5, r1
 214 0168 909329E0 		mla	r9, r0, r3, r9
 215 016c A8301EE5 		ldr	r3, [lr, #-168]
 216 0170 950081E0 		umull	r0, r1, r5, r0
 217              	.LVL20:
 218 0174 011089E0 		add	r1, r9, r1
 219              	.LVL21:
 220 0178 C39FA0E1 		asr	r9, r3, #31
 221 017c 940106E0 		mul	r6, r4, r1
 222 0180 C81FA0E1 		asr	r1, r8, #31
 223 0184 944085E0 		umull	r4, r5, r4, r0
 224 0188 906726E0 		mla	r6, r0, r7, r6
 225 018c A4001EE5 		ldr	r0, [lr, #-164]
 226              	.LVL22:
 227 0190 C27FA0E1 		asr	r7, r2, #31
 228 0194 055086E0 		add	r5, r6, r5
 229              	.LVL23:
 230 0198 980505E0 		mul	r5, r8, r5
 231 019c 945121E0 		mla	r1, r4, r1, r5
 232 01a0 984485E0 		umull	r4, r5, r8, r4
 233              	.LVL24:
 234 01a4 055081E0 		add	r5, r1, r5
 235              	.LVL25:
 236 01a8 920501E0 		mul	r1, r2, r5
 237 01ac 941721E0 		mla	r1, r4, r7, r1
 238 01b0 924485E0 		umull	r4, r5, r2, r4
 239              	.LVL26:
 240 01b4 C07FA0E1 		asr	r7, r0, #31
 241 01b8 055081E0 		add	r5, r1, r5
 242              	.LVL27:
 243 01bc 930502E0 		mul	r2, r3, r5
 244 01c0 942922E0 		mla	r2, r4, r9, r2
 245 01c4 934485E0 		umull	r4, r5, r3, r4
 246              	.LVL28:
 247 01c8 055082E0 		add	r5, r2, r5
 248              	.LVL29:
 249 01cc 900503E0 		mul	r3, r0, r5
 250 01d0 900481E0 		umull	r0, r1, r0, r4
 251 01d4 943724E0 		mla	r4, r4, r7, r3
 252              	.LVL30:
 253 01d8 011084E0 		add	r1, r4, r1
 254              	.LVL31:
 255 01dc CAFFFF1A 		bne	.L9
 256 01e0 0C30A0E1 		mov	r3, ip
 257 01e4 0B80A0E1 		mov	r8, fp
 258              	.LVL32:
 259              	.L8:
 260 01e8 01C083E2 		add	ip, r3, #1
 261 01ec 20309DE5 		ldr	r3, [sp, #32]
 262 01f0 1CE09DE5 		ldr	lr, [sp, #28]
 263 01f4 0C4183E0 		add	r4, r3, ip, lsl #2
 264              	.L11:
 265              	.LVL33:
 266 01f8 042094E4 		ldr	r2, [r4], #4
 163:C:/Renesas/e2studio_2021_01_workspace_RZA2M_ANPR/ANPR_RZA2M_EBK/src/tensorflow_lite/tensorflow/lite/kernels\kernel_util.h ****     count *= dims->data[i];
 267              		.loc 2 163 0
 268 01fc 0C005EE1 		cmp	lr, ip
 269 0200 01C08CE2 		add	ip, ip, #1
 270              		.loc 2 164 0
 271 0204 C27FA0E1 		asr	r7, r2, #31
 272 0208 900703E0 		mul	r3, r0, r7
 273 020c 923123E0 		mla	r3, r2, r1, r3
 274 0210 900281E0 		umull	r0, r1, r0, r2
 275              	.LVL34:
 276 0214 011083E0 		add	r1, r3, r1
 277              	.LVL35:
 163:C:/Renesas/e2studio_2021_01_workspace_RZA2M_ANPR/ANPR_RZA2M_EBK/src/tensorflow_lite/tensorflow/lite/kernels\kernel_util.h ****     count *= dims->data[i];
 278              		.loc 2 163 0
 279 0218 F6FFFFCA 		bgt	.L11
 280              	.LVL36:
 281              	.LBE148:
 282              	.LBE147:
 283              	.LBE146:
 284              	.LBE145:
  57:../src/tensorflow_lite/tensorflow/lite/micro/kernels/cumsum.cc **** 
 285              		.loc 1 57 0
 286 021c 000051E3 		cmp	r1, #0
 287 0220 01005003 		cmpeq	r0, #1
 288 0224 9B00000A 		beq	.L7
 289 0228 1C309DE5 		ldr	r3, [sp, #28]
 290 022c 080053E3 		cmp	r3, #8
 291 0230 18309DE5 		ldr	r3, [sp, #24]
 292 0234 01A0A0D3 		movle	r10, #1
 293 0238 00B0A0D3 		movle	fp, #0
 294 023c 0080A0D3 		movle	r8, #0
 295              	.LVL37:
 296 0240 143093E5 		ldr	r3, [r3, #20]
 297 0244 24308DE5 		str	r3, [sp, #36]
 298              	.LVL38:
 299 0248 3E0000DA 		ble	.L15
 300 024c 1C309DE5 		ldr	r3, [sp, #28]
 301 0250 01A0A0E3 		mov	r10, #1
 302 0254 20209DE5 		ldr	r2, [sp, #32]
 303 0258 00B0A0E3 		mov	fp, #0
 304 025c 0080A0E3 		mov	r8, #0
 305 0260 093043E2 		sub	r3, r3, #9
 306 0264 0730C3E3 		bic	r3, r3, #7
 307 0268 A4E082E2 		add	lr, r2, #164
 308 026c 083083E2 		add	r3, r3, #8
 309 0270 0390A0E1 		mov	r9, r3
 310              	.LVL39:
 311              	.L14:
 312              	.LBB152:
 313              	.LBB153:
 314              	.LBB154:
 315              	.LBB155:
 316              		.loc 2 164 0
 317 0274 A0601EE5 		ldr	r6, [lr, #-160]
 318 0278 088088E2 		add	r8, r8, #8
 319 027c 9CC01EE5 		ldr	ip, [lr, #-156]
 320 0280 090058E1 		cmp	r8, r9
 321 0284 98401EE5 		ldr	r4, [lr, #-152]
 322 0288 94001EE5 		ldr	r0, [lr, #-148]
 323 028c 960B05E0 		mul	r5, r6, fp
 324 0290 C61FA0E1 		asr	r1, r6, #31
 325 0294 CC7FA0E1 		asr	r7, ip, #31
 326 0298 00F0DEF5 		pld	[lr]
 327 029c 962A83E0 		umull	r2, r3, r6, r10
 328 02a0 20E08EE2 		add	lr, lr, #32
 329 02a4 9A5125E0 		mla	r5, r10, r1, r5
 330 02a8 B0101EE5 		ldr	r1, [lr, #-176]
 331 02ac A4A01EE5 		ldr	r10, [lr, #-164]
 332              	.LVL40:
 333 02b0 033085E0 		add	r3, r5, r3
 334              	.LVL41:
 335 02b4 9C0305E0 		mul	r5, ip, r3
 336 02b8 C43FA0E1 		asr	r3, r4, #31
 337 02bc 925725E0 		mla	r5, r2, r7, r5
 338 02c0 9C6287E0 		umull	r6, r7, ip, r2
 339 02c4 AC201EE5 		ldr	r2, [lr, #-172]
 340              	.LVL42:
 341 02c8 077085E0 		add	r7, r5, r7
 342              	.LVL43:
 343 02cc 94070CE0 		mul	ip, r4, r7
 344 02d0 C07FA0E1 		asr	r7, r0, #31
 345 02d4 944685E0 		umull	r4, r5, r4, r6
 346 02d8 96C32CE0 		mla	ip, r6, r3, ip
 347 02dc A8301EE5 		ldr	r3, [lr, #-168]
 348 02e0 05508CE0 		add	r5, ip, r5
 349              	.LVL44:
 350 02e4 90050CE0 		mul	ip, r0, r5
 351 02e8 94C72CE0 		mla	ip, r4, r7, ip
 352 02ec 904485E0 		umull	r4, r5, r0, r4
 353              	.LVL45:
 354 02f0 C17FA0E1 		asr	r7, r1, #31
 355 02f4 05508CE0 		add	r5, ip, r5
 356              	.LVL46:
 357 02f8 91050CE0 		mul	ip, r1, r5
 358 02fc C25FA0E1 		asr	r5, r2, #31
 359 0300 910481E0 		umull	r0, r1, r1, r4
 360 0304 94C72CE0 		mla	ip, r4, r7, ip
 361 0308 C37FA0E1 		asr	r7, r3, #31
 362 030c 01108CE0 		add	r1, ip, r1
 363              	.LVL47:
 364 0310 92010CE0 		mul	ip, r2, r1
 365 0314 90C52CE0 		mla	ip, r0, r5, ip
 366 0318 920081E0 		umull	r0, r1, r2, r0
 367              	.LVL48:
 368 031c CA5FA0E1 		asr	r5, r10, #31
 369 0320 01108CE0 		add	r1, ip, r1
 370              	.LVL49:
 371 0324 930102E0 		mul	r2, r3, r1
 372 0328 902722E0 		mla	r2, r0, r7, r2
 373 032c 930081E0 		umull	r0, r1, r3, r0
 374              	.LVL50:
 375 0330 011082E0 		add	r1, r2, r1
 376              	.LVL51:
 377 0334 9A0103E0 		mul	r3, r10, r1
 378 0338 9AA08BE0 		umull	r10, fp, r10, r0
 379 033c 903520E0 		mla	r0, r0, r5, r3
 380              	.LVL52:
 381 0340 0BB080E0 		add	fp, r0, fp
 382              	.LVL53:
 383 0344 CAFFFF1A 		bne	.L14
 384              	.LVL54:
 385              	.L15:
 386 0348 20309DE5 		ldr	r3, [sp, #32]
 387 034c 018088E2 		add	r8, r8, #1
 388 0350 1CE09DE5 		ldr	lr, [sp, #28]
 389 0354 08C183E0 		add	ip, r3, r8, lsl #2
 390              	.L13:
 391              	.LVL55:
 392 0358 04209CE4 		ldr	r2, [ip], #4
 163:C:/Renesas/e2studio_2021_01_workspace_RZA2M_ANPR/ANPR_RZA2M_EBK/src/tensorflow_lite/tensorflow/lite/kernels\kernel_util.h ****     count *= dims->data[i];
 393              		.loc 2 163 0
 394 035c 0E0058E1 		cmp	r8, lr
 395 0360 018088E2 		add	r8, r8, #1
 396              		.loc 2 164 0
 397 0364 C21FA0E1 		asr	r1, r2, #31
 398 0368 9A0103E0 		mul	r3, r10, r1
 399 036c 923B23E0 		mla	r3, r2, fp, r3
 400 0370 9AA28BE0 		umull	r10, fp, r10, r2
 401              	.LVL56:
 402 0374 0BB083E0 		add	fp, r3, fp
 403              	.LVL57:
 163:C:/Renesas/e2studio_2021_01_workspace_RZA2M_ANPR/ANPR_RZA2M_EBK/src/tensorflow_lite/tensorflow/lite/kernels\kernel_util.h ****     count *= dims->data[i];
 404              		.loc 2 163 0
 405 0378 F6FFFFBA 		blt	.L13
 406              	.LVL58:
 407              	.LBE155:
 408              	.LBE154:
 409              	.LBE153:
 410              	.LBE152:
  57:../src/tensorflow_lite/tensorflow/lite/micro/kernels/cumsum.cc **** 
 411              		.loc 1 57 0
 412 037c 00C000E3 		movw	ip, #:lower16:.LC5
 413 0380 003000E3 		movw	r3, #:lower16:.LC11
 414 0384 00C040E3 		movt	ip, #:upper16:.LC5
 415 0388 003040E3 		movt	r3, #:upper16:.LC11
 416 038c 0140A0E3 		mov	r4, #1
 417 0390 002000E3 		movw	r2, #:lower16:.LC1
 418 0394 001000E3 		movw	r1, #:lower16:.LC2
 419 0398 08108DE8 		stm	sp, {r3, ip}
 420 039c 18009DE5 		ldr	r0, [sp, #24]
 421 03a0 002040E3 		movt	r2, #:upper16:.LC1
 422 03a4 F8A0CDE1 		strd	r10, [sp, #8]
 423 03a8 001040E3 		movt	r1, #:upper16:.LC2
 424 03ac 10408DE5 		str	r4, [sp, #16]
 425 03b0 3930A0E3 		mov	r3, #57
 426 03b4 24C09DE5 		ldr	ip, [sp, #36]
 427 03b8 3CFF2FE1 		blx	ip
 428              	.LVL59:
 429 03bc 0400A0E1 		mov	r0, r4
 430 03c0 2CFFFFEA 		b	.L27
 431              	.LVL60:
 432              	.L30:
  47:../src/tensorflow_lite/tensorflow/lite/micro/kernels/cumsum.cc ****   TF_LITE_ENSURE_EQ(context, NumOutputs(node), 1);
 433              		.loc 1 47 0
 434 03c4 00C000E3 		movw	ip, #:lower16:.LC3
 435 03c8 003000E3 		movw	r3, #:lower16:.LC4
 436 03cc 00C040E3 		movt	ip, #:upper16:.LC3
 437 03d0 02E0A0E3 		mov	lr, #2
 438 03d4 003040E3 		movt	r3, #:upper16:.LC4
 439 03d8 002000E3 		movw	r2, #:lower16:.LC1
 440 03dc 001000E3 		movw	r1, #:lower16:.LC2
 441              	.LVL61:
 442 03e0 08508DE5 		str	r5, [sp, #8]
 443 03e4 002040E3 		movt	r2, #:upper16:.LC1
 444 03e8 144090E5 		ldr	r4, [r0, #20]
 445 03ec 001040E3 		movt	r1, #:upper16:.LC2
 446 03f0 00308DE5 		str	r3, [sp]
 447 03f4 04C08DE5 		str	ip, [sp, #4]
 448 03f8 2F30A0E3 		mov	r3, #47
 449 03fc 0CE08DE5 		str	lr, [sp, #12]
 450 0400 34FF2FE1 		blx	r4
 451              	.LVL62:
 452 0404 0100A0E3 		mov	r0, #1
 453              	.LBE165:
 454              	.LBE169:
 455              		.loc 1 99 0
 456 0408 2CD08DE2 		add	sp, sp, #44
 457              		.cfi_remember_state
 458              		.cfi_def_cfa_offset 44
 459              		@ sp needed
 460 040c 028BBDEC 		vldm	sp!, {d8}
 461              		.cfi_restore 80
 462              		.cfi_restore 81
 463              		.cfi_def_cfa_offset 36
 464 0410 F08FBDE8 		pop	{r4, r5, r6, r7, r8, r9, r10, fp, pc}
 465              	.LVL63:
 466              	.L32:
 467              		.cfi_restore_state
 468              	.LBB170:
 469              	.LBB166:
  55:../src/tensorflow_lite/tensorflow/lite/micro/kernels/cumsum.cc **** 
 470              		.loc 1 55 0
 471 0414 18E09DE5 		ldr	lr, [sp, #24]
 472 0418 000000E3 		movw	r0, #:lower16:.LC9
 473              	.LVL64:
 474 041c 00C000E3 		movw	ip, #:lower16:.LC10
 475 0420 000040E3 		movt	r0, #:upper16:.LC9
 476 0424 00C040E3 		movt	ip, #:upper16:.LC10
 477 0428 002000E3 		movw	r2, #:lower16:.LC1
 478 042c 001000E3 		movw	r1, #:lower16:.LC2
 479 0430 08308DE5 		str	r3, [sp, #8]
 480 0434 04008DE5 		str	r0, [sp, #4]
 481 0438 002040E3 		movt	r2, #:upper16:.LC1
 482 043c 0C508DE5 		str	r5, [sp, #12]
 483 0440 0E00A0E1 		mov	r0, lr
 484 0444 00C08DE5 		str	ip, [sp]
 485 0448 001040E3 		movt	r1, #:upper16:.LC2
 486 044c 3730A0E3 		mov	r3, #55
 487 0450 14509EE5 		ldr	r5, [lr, #20]
 488 0454 35FF2FE1 		blx	r5
 489              	.LVL65:
 490 0458 0400A0E1 		mov	r0, r4
 491 045c 05FFFFEA 		b	.L27
 492              	.LVL66:
 493              	.L31:
  53:../src/tensorflow_lite/tensorflow/lite/micro/kernels/cumsum.cc ****                  input->type == kTfLiteFloat32 || input->type == kTfLiteInt8);
 494              		.loc 1 53 0
 495 0460 003000E3 		movw	r3, #:lower16:.LC8
 496 0464 002000E3 		movw	r2, #:lower16:.LC1
 497 0468 003040E3 		movt	r3, #:upper16:.LC8
 498 046c 001000E3 		movw	r1, #:lower16:.LC7
 499 0470 00308DE5 		str	r3, [sp]
 500 0474 002040E3 		movt	r2, #:upper16:.LC1
 501 0478 18309DE5 		ldr	r3, [sp, #24]
 502 047c 001040E3 		movt	r1, #:upper16:.LC7
 503 0480 0300A0E1 		mov	r0, r3
 504              	.LVL67:
 505 0484 144093E5 		ldr	r4, [r3, #20]
 506 0488 3630A0E3 		mov	r3, #54
 507 048c 34FF2FE1 		blx	r4
 508              	.LVL68:
 509 0490 0600A0E1 		mov	r0, r6
 510 0494 F7FEFFEA 		b	.L27
 511              	.L7:
 512              	.LVL69:
 513              	.LBB156:
 514              	.LBB157:
 147:C:/Renesas/e2studio_2021_01_workspace_RZA2M_ANPR/ANPR_RZA2M_EBK/src/tensorflow_lite/tensorflow/lite/kernels\kernel_util.h **** inline int SizeOfDimension(const TfLiteTensor* t, int dim) {
 515              		.loc 2 147 0
 516 0498 24309DE5 		ldr	r3, [sp, #36]
 517 049c 083093E5 		ldr	r3, [r3, #8]
 518              	.LBE157:
 519              	.LBE156:
  59:../src/tensorflow_lite/tensorflow/lite/micro/kernels/cumsum.cc **** 
 520              		.loc 1 59 0
 521 04a0 003093E5 		ldr	r3, [r3]
 522 04a4 000053E3 		cmp	r3, #0
 523 04a8 500000DA 		ble	.L33
  61:../src/tensorflow_lite/tensorflow/lite/micro/kernels/cumsum.cc **** 
 524              		.loc 1 61 0
 525 04ac 18509DE5 		ldr	r5, [sp, #24]
 526 04b0 0020A0E3 		mov	r2, #0
 527 04b4 0810A0E1 		mov	r1, r8
 528 04b8 0500A0E1 		mov	r0, r5
 529 04bc FEFFFFEB 		bl	_ZN6tflite9GetOutputEP13TfLiteContextPK10TfLiteNodei
 530              	.LVL70:
  63:../src/tensorflow_lite/tensorflow/lite/micro/kernels/cumsum.cc ****   TF_LITE_ENSURE(context, HaveSameShapes(input, output));
 531              		.loc 1 63 0
 532 04c0 24309DE5 		ldr	r3, [sp, #36]
  61:../src/tensorflow_lite/tensorflow/lite/micro/kernels/cumsum.cc **** 
 533              		.loc 1 61 0
 534 04c4 0040A0E1 		mov	r4, r0
 535              	.LVL71:
  63:../src/tensorflow_lite/tensorflow/lite/micro/kernels/cumsum.cc ****   TF_LITE_ENSURE(context, HaveSameShapes(input, output));
 536              		.loc 1 63 0
 537 04c8 0000D0E5 		ldrb	r0, [r0]	@ zero_extendqisi2
 538              	.LVL72:
 539 04cc 0030D3E5 		ldrb	r3, [r3]	@ zero_extendqisi2
 540 04d0 000053E1 		cmp	r3, r0
 541 04d4 1500000A 		beq	.L17
 542 04d8 00E000E3 		movw	lr, #:lower16:.LC13
 543 04dc 00C000E3 		movw	ip, #:lower16:.LC14
 544 04e0 00E040E3 		movt	lr, #:upper16:.LC13
 545 04e4 00C040E3 		movt	ip, #:upper16:.LC14
 546 04e8 002000E3 		movw	r2, #:lower16:.LC1
 547 04ec 001000E3 		movw	r1, #:lower16:.LC2
 548 04f0 0C008DE5 		str	r0, [sp, #12]
 549 04f4 002040E3 		movt	r2, #:upper16:.LC1
 550 04f8 08308DE5 		str	r3, [sp, #8]
 551 04fc 0500A0E1 		mov	r0, r5
 552 0500 04E08DE5 		str	lr, [sp, #4]
 553 0504 001040E3 		movt	r1, #:upper16:.LC2
 554 0508 00C08DE5 		str	ip, [sp]
 555 050c 3F30A0E3 		mov	r3, #63
 556 0510 144095E5 		ldr	r4, [r5, #20]
 557              	.LVL73:
 558 0514 34FF2FE1 		blx	r4
 559              	.LVL74:
 560 0518 0100A0E3 		mov	r0, #1
 561 051c D5FEFFEA 		b	.L27
 562              	.LVL75:
 563              	.L21:
 564              	.LBB158:
 565              	.LBB151:
 566              	.LBB150:
 567              	.LBB149:
 163:C:/Renesas/e2studio_2021_01_workspace_RZA2M_ANPR/ANPR_RZA2M_EBK/src/tensorflow_lite/tensorflow/lite/kernels\kernel_util.h ****     count *= dims->data[i];
 568              		.loc 2 163 0
 569 0520 0100A0E3 		mov	r0, #1
 570              	.LVL76:
 571 0524 0010A0E3 		mov	r1, #0
 572 0528 0030A0E3 		mov	r3, #0
 573 052c 2DFFFFEA 		b	.L8
 574              	.LVL77:
 575              	.L17:
 576              	.LBE149:
 577              	.LBE150:
 578              	.LBE151:
 579              	.LBE158:
  64:../src/tensorflow_lite/tensorflow/lite/micro/kernels/cumsum.cc **** 
 580              		.loc 1 64 0
 581 0530 0410A0E1 		mov	r1, r4
 582 0534 24009DE5 		ldr	r0, [sp, #36]
 583 0538 FEFFFFEB 		bl	_ZN6tflite14HaveSameShapesEPK12TfLiteTensorS2_
 584              	.LVL78:
 585 053c 000050E3 		cmp	r0, #0
 586 0540 3800000A 		beq	.L34
 587              	.LBB159:
  66:../src/tensorflow_lite/tensorflow/lite/micro/kernels/cumsum.cc ****     node->user_data =
 588              		.loc 1 66 0
 589 0544 0030D4E5 		ldrb	r3, [r4]	@ zero_extendqisi2
 590 0548 090053E3 		cmp	r3, #9
 591              	.LBE159:
  94:../src/tensorflow_lite/tensorflow/lite/micro/kernels/cumsum.cc **** }
 592              		.loc 1 94 0
 593 054c 0000A013 		movne	r0, #0
 594              	.LBB162:
  66:../src/tensorflow_lite/tensorflow/lite/micro/kernels/cumsum.cc ****     node->user_data =
 595              		.loc 1 66 0
 596 0550 C8FEFF1A 		bne	.L27
 597              	.LBB160:
  68:../src/tensorflow_lite/tensorflow/lite/micro/kernels/cumsum.cc ****     OpData* data = static_cast<OpData*>(node->user_data);
 598              		.loc 1 68 0
 599 0554 18609DE5 		ldr	r6, [sp, #24]
 600 0558 2410A0E3 		mov	r1, #36
 601 055c 383096E5 		ldr	r3, [r6, #56]
 602 0560 0600A0E1 		mov	r0, r6
 603 0564 33FF2FE1 		blx	r3
 604              	.LVL79:
  76:../src/tensorflow_lite/tensorflow/lite/micro/kernels/cumsum.cc ****     const double real_input_multiplier =
 605              		.loc 1 76 0
 606 0568 24309DE5 		ldr	r3, [sp, #36]
  68:../src/tensorflow_lite/tensorflow/lite/micro/kernels/cumsum.cc ****     OpData* data = static_cast<OpData*>(node->user_data);
 607              		.loc 1 68 0
 608 056c 0050A0E1 		mov	r5, r0
  81:../src/tensorflow_lite/tensorflow/lite/micro/kernels/cumsum.cc **** 
 609              		.loc 1 81 0
 610 0570 037AD4ED 		vldr.32	s15, [r4, #12]
  74:../src/tensorflow_lite/tensorflow/lite/micro/kernels/cumsum.cc ****     const double twice_max_input_scale =
 611              		.loc 1 74 0
 612 0574 1420A0E3 		mov	r2, #20
  81:../src/tensorflow_lite/tensorflow/lite/micro/kernels/cumsum.cc **** 
 613              		.loc 1 81 0
 614 0578 382BDFED 		vldr.64	d18, .L35
  84:../src/tensorflow_lite/tensorflow/lite/micro/kernels/cumsum.cc **** 
 615              		.loc 1 84 0
 616 057c 181080E2 		add	r1, r0, #24
  76:../src/tensorflow_lite/tensorflow/lite/micro/kernels/cumsum.cc ****     const double real_input_multiplier =
 617              		.loc 1 76 0
 618 0580 030A93ED 		vldr.32	s0, [r3, #12]
  84:../src/tensorflow_lite/tensorflow/lite/micro/kernels/cumsum.cc **** 
 619              		.loc 1 84 0
 620 0584 100080E2 		add	r0, r0, #16
  72:../src/tensorflow_lite/tensorflow/lite/micro/kernels/cumsum.cc ****     data->output_offset = output->params.zero_point;
 621              		.loc 1 72 0
 622 0588 103093E5 		ldr	r3, [r3, #16]
  81:../src/tensorflow_lite/tensorflow/lite/micro/kernels/cumsum.cc **** 
 623              		.loc 1 81 0
 624 058c E70AF7EE 		vcvt.f64.f32	d16, s15
  67:../src/tensorflow_lite/tensorflow/lite/micro/kernels/cumsum.cc ****         context->AllocatePersistentBuffer(context, sizeof(OpData));
 625              		.loc 1 67 0
 626 0590 105088E5 		str	r5, [r8, #16]
 627              	.LVL80:
  76:../src/tensorflow_lite/tensorflow/lite/micro/kernels/cumsum.cc ****     const double real_input_multiplier =
 628              		.loc 1 76 0
 629 0594 C00AB7EE 		vcvt.f64.f32	d0, s0
  72:../src/tensorflow_lite/tensorflow/lite/micro/kernels/cumsum.cc ****     data->output_offset = output->params.zero_point;
 630              		.loc 1 72 0
 631 0598 003063E2 		rsb	r3, r3, #0
 632 059c 083085E5 		str	r3, [r5, #8]
  81:../src/tensorflow_lite/tensorflow/lite/micro/kernels/cumsum.cc **** 
 633              		.loc 1 81 0
 634 05a0 A20B60EE 		vmul.f64	d16, d16, d18
  73:../src/tensorflow_lite/tensorflow/lite/micro/kernels/cumsum.cc ****     data->left_shift = kCumSumIntegerShift;
 635              		.loc 1 73 0
 636 05a4 103094E5 		ldr	r3, [r4, #16]
  76:../src/tensorflow_lite/tensorflow/lite/micro/kernels/cumsum.cc ****     const double real_input_multiplier =
 637              		.loc 1 76 0
 638 05a8 001B70EE 		vadd.f64	d17, d0, d0
 639              	.LVL81:
  74:../src/tensorflow_lite/tensorflow/lite/micro/kernels/cumsum.cc ****     const double twice_max_input_scale =
 640              		.loc 1 74 0
 641 05ac 202085E5 		str	r2, [r5, #32]
  73:../src/tensorflow_lite/tensorflow/lite/micro/kernels/cumsum.cc ****     data->left_shift = kCumSumIntegerShift;
 642              		.loc 1 73 0
 643 05b0 0C3085E5 		str	r3, [r5, #12]
  84:../src/tensorflow_lite/tensorflow/lite/micro/kernels/cumsum.cc **** 
 644              		.loc 1 84 0
 645 05b4 210B80EE 		vdiv.f64	d0, d0, d17
 646              	.LVL82:
  81:../src/tensorflow_lite/tensorflow/lite/micro/kernels/cumsum.cc **** 
 647              		.loc 1 81 0
 648 05b8 A08B81EE 		vdiv.f64	d8, d17, d16
 649              	.LVL83:
  84:../src/tensorflow_lite/tensorflow/lite/micro/kernels/cumsum.cc **** 
 650              		.loc 1 84 0
 651 05bc FEFFFFEB 		bl	_ZN6tflite35QuantizeMultiplierSmallerThanOneExpEdPlPi
 652              	.LVL84:
  87:../src/tensorflow_lite/tensorflow/lite/micro/kernels/cumsum.cc **** 
 653              		.loc 1 87 0
 654 05c0 1C1085E2 		add	r1, r5, #28
 655 05c4 140085E2 		add	r0, r5, #20
 656 05c8 480BB0EE 		vmov.f64	d0, d8
 657 05cc FEFFFFEB 		bl	_ZN6tflite35QuantizeMultiplierSmallerThanOneExpEdPlPi
 658              	.LVL85:
 659              	.LBB161:
  89:../src/tensorflow_lite/tensorflow/lite/micro/kernels/cumsum.cc ****         context, kTfLiteActNone, output, &data->output_activation_min,
 660              		.loc 1 89 0
 661 05d0 043085E2 		add	r3, r5, #4
 662 05d4 0420A0E1 		mov	r2, r4
 663 05d8 00308DE5 		str	r3, [sp]
 664 05dc 0600A0E1 		mov	r0, r6
 665 05e0 0530A0E1 		mov	r3, r5
 666 05e4 0010A0E3 		mov	r1, #0
 667 05e8 FEFFFFEB 		bl	_ZN6tflite33CalculateActivationRangeQuantizedEP13TfLiteContext21TfLiteFusedActivationP12TfLiteT
 668              	.LVL86:
 669 05ec A1FEFFEA 		b	.L27
 670              	.LVL87:
 671              	.L33:
 672              	.LBE161:
 673              	.LBE160:
 674              	.LBE162:
  59:../src/tensorflow_lite/tensorflow/lite/micro/kernels/cumsum.cc **** 
 675              		.loc 1 59 0
 676 05f0 003000E3 		movw	r3, #:lower16:.LC12
 677 05f4 002000E3 		movw	r2, #:lower16:.LC1
 678 05f8 003040E3 		movt	r3, #:upper16:.LC12
 679 05fc 001000E3 		movw	r1, #:lower16:.LC7
 680 0600 00308DE5 		str	r3, [sp]
 681 0604 002040E3 		movt	r2, #:upper16:.LC1
 682 0608 18309DE5 		ldr	r3, [sp, #24]
 683 060c 001040E3 		movt	r1, #:upper16:.LC7
 684 0610 0300A0E1 		mov	r0, r3
 685 0614 144093E5 		ldr	r4, [r3, #20]
 686 0618 3B30A0E3 		mov	r3, #59
 687 061c 34FF2FE1 		blx	r4
 688              	.LVL88:
 689 0620 0100A0E3 		mov	r0, #1
 690 0624 93FEFFEA 		b	.L27
 691              	.LVL89:
 692              	.L34:
  64:../src/tensorflow_lite/tensorflow/lite/micro/kernels/cumsum.cc **** 
 693              		.loc 1 64 0
 694 0628 003000E3 		movw	r3, #:lower16:.LC15
 695 062c 002000E3 		movw	r2, #:lower16:.LC1
 696 0630 003040E3 		movt	r3, #:upper16:.LC15
 697 0634 001000E3 		movw	r1, #:lower16:.LC7
 698 0638 00308DE5 		str	r3, [sp]
 699 063c 002040E3 		movt	r2, #:upper16:.LC1
 700 0640 18309DE5 		ldr	r3, [sp, #24]
 701 0644 001040E3 		movt	r1, #:upper16:.LC7
 702 0648 0300A0E1 		mov	r0, r3
 703 064c 144093E5 		ldr	r4, [r3, #20]
 704              	.LVL90:
 705 0650 4030A0E3 		mov	r3, #64
 706 0654 34FF2FE1 		blx	r4
 707              	.LVL91:
 708 0658 0100A0E3 		mov	r0, #1
 709 065c 85FEFFEA 		b	.L27
 710              	.L36:
 711              		.align	3
 712              	.L35:
 713 0660 00000000 		.word	0
 714 0664 00003041 		.word	1093664768
 715              	.LBE166:
 716              	.LBE170:
 717              		.cfi_endproc
 718              	.LFE4167:
 719              		.fnend
 721              		.section	.text._ZN6tflite12_GLOBAL__N_14EvalEP13TfLiteContextP10TfLiteNode,"ax",%progbits
 722              		.align	2
 723              		.syntax unified
 724              		.arm
 725              		.fpu neon
 727              	_ZN6tflite12_GLOBAL__N_14EvalEP13TfLiteContextP10TfLiteNode:
 728              		.fnstart
 729              	.LFB4168:
 100:../src/tensorflow_lite/tensorflow/lite/micro/kernels/cumsum.cc **** 
 101:../src/tensorflow_lite/tensorflow/lite/micro/kernels/cumsum.cc **** TfLiteStatus Eval(TfLiteContext* context, TfLiteNode* node) {
 730              		.loc 1 101 0
 731              		.cfi_startproc
 732              		.cfi_personality 0,__gxx_personality_v0
 733              		.cfi_lsda 0,.LLSDA4168
 734              		@ args = 0, pretend = 0, frame = 128
 735              		@ frame_needed = 0, uses_anonymous_args = 0
 736              	.LVL92:
 737 0000 F04F2DE9 		push	{r4, r5, r6, r7, r8, r9, r10, fp, lr}
 738              		.save {r4, r5, r6, r7, r8, r9, r10, fp, lr}
 739              		.cfi_def_cfa_offset 36
 740              		.cfi_offset 4, -36
 741              		.cfi_offset 5, -32
 742              		.cfi_offset 6, -28
 743              		.cfi_offset 7, -24
 744              		.cfi_offset 8, -20
 745              		.cfi_offset 9, -16
 746              		.cfi_offset 10, -12
 747              		.cfi_offset 11, -8
 748              		.cfi_offset 14, -4
 749              	.LBB312:
 750              	.LBB313:
 751              	.LBB314:
 752              		.file 3 "C:/Renesas/e2studio_2021_01_workspace_RZA2M_ANPR/ANPR_RZA2M_EBK/src/tensorflow_lite/tenso
   1:C:/Renesas/e2studio_2021_01_workspace_RZA2M_ANPR/ANPR_RZA2M_EBK/src/tensorflow_lite/tensorflow/lite/micro/kernels\kernel_util.h **** /* Copyright 2020 The TensorFlow Authors. All Rights Reserved.
   2:C:/Renesas/e2studio_2021_01_workspace_RZA2M_ANPR/ANPR_RZA2M_EBK/src/tensorflow_lite/tensorflow/lite/micro/kernels\kernel_util.h **** 
   3:C:/Renesas/e2studio_2021_01_workspace_RZA2M_ANPR/ANPR_RZA2M_EBK/src/tensorflow_lite/tensorflow/lite/micro/kernels\kernel_util.h **** Licensed under the Apache License, Version 2.0 (the "License");
   4:C:/Renesas/e2studio_2021_01_workspace_RZA2M_ANPR/ANPR_RZA2M_EBK/src/tensorflow_lite/tensorflow/lite/micro/kernels\kernel_util.h **** you may not use this file except in compliance with the License.
   5:C:/Renesas/e2studio_2021_01_workspace_RZA2M_ANPR/ANPR_RZA2M_EBK/src/tensorflow_lite/tensorflow/lite/micro/kernels\kernel_util.h **** You may obtain a copy of the License at
   6:C:/Renesas/e2studio_2021_01_workspace_RZA2M_ANPR/ANPR_RZA2M_EBK/src/tensorflow_lite/tensorflow/lite/micro/kernels\kernel_util.h **** 
   7:C:/Renesas/e2studio_2021_01_workspace_RZA2M_ANPR/ANPR_RZA2M_EBK/src/tensorflow_lite/tensorflow/lite/micro/kernels\kernel_util.h ****     http://www.apache.org/licenses/LICENSE-2.0
   8:C:/Renesas/e2studio_2021_01_workspace_RZA2M_ANPR/ANPR_RZA2M_EBK/src/tensorflow_lite/tensorflow/lite/micro/kernels\kernel_util.h **** 
   9:C:/Renesas/e2studio_2021_01_workspace_RZA2M_ANPR/ANPR_RZA2M_EBK/src/tensorflow_lite/tensorflow/lite/micro/kernels\kernel_util.h **** Unless required by applicable law or agreed to in writing, software
  10:C:/Renesas/e2studio_2021_01_workspace_RZA2M_ANPR/ANPR_RZA2M_EBK/src/tensorflow_lite/tensorflow/lite/micro/kernels\kernel_util.h **** distributed under the License is distributed on an "AS IS" BASIS,
  11:C:/Renesas/e2studio_2021_01_workspace_RZA2M_ANPR/ANPR_RZA2M_EBK/src/tensorflow_lite/tensorflow/lite/micro/kernels\kernel_util.h **** WITHOUT WARRANTIES OR CONDITIONS OF ANY KIND, either express or implied.
  12:C:/Renesas/e2studio_2021_01_workspace_RZA2M_ANPR/ANPR_RZA2M_EBK/src/tensorflow_lite/tensorflow/lite/micro/kernels\kernel_util.h **** See the License for the specific language governing permissions and
  13:C:/Renesas/e2studio_2021_01_workspace_RZA2M_ANPR/ANPR_RZA2M_EBK/src/tensorflow_lite/tensorflow/lite/micro/kernels\kernel_util.h **** limitations under the License.
  14:C:/Renesas/e2studio_2021_01_workspace_RZA2M_ANPR/ANPR_RZA2M_EBK/src/tensorflow_lite/tensorflow/lite/micro/kernels\kernel_util.h **** ==============================================================================*/
  15:C:/Renesas/e2studio_2021_01_workspace_RZA2M_ANPR/ANPR_RZA2M_EBK/src/tensorflow_lite/tensorflow/lite/micro/kernels\kernel_util.h **** 
  16:C:/Renesas/e2studio_2021_01_workspace_RZA2M_ANPR/ANPR_RZA2M_EBK/src/tensorflow_lite/tensorflow/lite/micro/kernels\kernel_util.h **** #ifndef TENSORFLOW_LITE_MICRO_KERNELS_KERNEL_UTIL_H_
  17:C:/Renesas/e2studio_2021_01_workspace_RZA2M_ANPR/ANPR_RZA2M_EBK/src/tensorflow_lite/tensorflow/lite/micro/kernels\kernel_util.h **** #define TENSORFLOW_LITE_MICRO_KERNELS_KERNEL_UTIL_H_
  18:C:/Renesas/e2studio_2021_01_workspace_RZA2M_ANPR/ANPR_RZA2M_EBK/src/tensorflow_lite/tensorflow/lite/micro/kernels\kernel_util.h **** 
  19:C:/Renesas/e2studio_2021_01_workspace_RZA2M_ANPR/ANPR_RZA2M_EBK/src/tensorflow_lite/tensorflow/lite/micro/kernels\kernel_util.h **** #include <cstdint>
  20:C:/Renesas/e2studio_2021_01_workspace_RZA2M_ANPR/ANPR_RZA2M_EBK/src/tensorflow_lite/tensorflow/lite/micro/kernels\kernel_util.h **** 
  21:C:/Renesas/e2studio_2021_01_workspace_RZA2M_ANPR/ANPR_RZA2M_EBK/src/tensorflow_lite/tensorflow/lite/micro/kernels\kernel_util.h **** #include "tensorflow/lite/c/builtin_op_data.h"
  22:C:/Renesas/e2studio_2021_01_workspace_RZA2M_ANPR/ANPR_RZA2M_EBK/src/tensorflow_lite/tensorflow/lite/micro/kernels\kernel_util.h **** #include "tensorflow/lite/c/common.h"
  23:C:/Renesas/e2studio_2021_01_workspace_RZA2M_ANPR/ANPR_RZA2M_EBK/src/tensorflow_lite/tensorflow/lite/micro/kernels\kernel_util.h **** #include "tensorflow/lite/kernels/internal/compatibility.h"
  24:C:/Renesas/e2studio_2021_01_workspace_RZA2M_ANPR/ANPR_RZA2M_EBK/src/tensorflow_lite/tensorflow/lite/micro/kernels\kernel_util.h **** #include "tensorflow/lite/kernels/internal/types.h"
  25:C:/Renesas/e2studio_2021_01_workspace_RZA2M_ANPR/ANPR_RZA2M_EBK/src/tensorflow_lite/tensorflow/lite/micro/kernels\kernel_util.h **** 
  26:C:/Renesas/e2studio_2021_01_workspace_RZA2M_ANPR/ANPR_RZA2M_EBK/src/tensorflow_lite/tensorflow/lite/micro/kernels\kernel_util.h **** namespace tflite {
  27:C:/Renesas/e2studio_2021_01_workspace_RZA2M_ANPR/ANPR_RZA2M_EBK/src/tensorflow_lite/tensorflow/lite/micro/kernels\kernel_util.h **** namespace micro {
  28:C:/Renesas/e2studio_2021_01_workspace_RZA2M_ANPR/ANPR_RZA2M_EBK/src/tensorflow_lite/tensorflow/lite/micro/kernels\kernel_util.h **** 
  29:C:/Renesas/e2studio_2021_01_workspace_RZA2M_ANPR/ANPR_RZA2M_EBK/src/tensorflow_lite/tensorflow/lite/micro/kernels\kernel_util.h **** // Returns a mutable tensor for a given input index. is_variable must be checked
  30:C:/Renesas/e2studio_2021_01_workspace_RZA2M_ANPR/ANPR_RZA2M_EBK/src/tensorflow_lite/tensorflow/lite/micro/kernels\kernel_util.h **** // during prepare when the full TfLiteTensor is available.
  31:C:/Renesas/e2studio_2021_01_workspace_RZA2M_ANPR/ANPR_RZA2M_EBK/src/tensorflow_lite/tensorflow/lite/micro/kernels\kernel_util.h **** inline TfLiteEvalTensor* GetMutableEvalInput(const TfLiteContext* context,
  32:C:/Renesas/e2studio_2021_01_workspace_RZA2M_ANPR/ANPR_RZA2M_EBK/src/tensorflow_lite/tensorflow/lite/micro/kernels\kernel_util.h ****                                              const TfLiteNode* node,
  33:C:/Renesas/e2studio_2021_01_workspace_RZA2M_ANPR/ANPR_RZA2M_EBK/src/tensorflow_lite/tensorflow/lite/micro/kernels\kernel_util.h ****                                              int index) {
  34:C:/Renesas/e2studio_2021_01_workspace_RZA2M_ANPR/ANPR_RZA2M_EBK/src/tensorflow_lite/tensorflow/lite/micro/kernels\kernel_util.h ****   TFLITE_DCHECK(context != nullptr);
 753              		.loc 3 34 0
 754 0004 006050E2 		subs	r6, r0, #0
 755              	.LVL93:
 756              	.LBE314:
 757              	.LBE313:
 758              	.LBE312:
 759              		.loc 1 101 0
 760              		.pad #132
 761 0008 84D04DE2 		sub	sp, sp, #132
 762              		.cfi_def_cfa_offset 168
 763              	.LBB321:
 764              	.LBB318:
 765              	.LBB315:
 766              		.loc 3 34 0
 767 000c C302000A 		beq	.L39
  35:C:/Renesas/e2studio_2021_01_workspace_RZA2M_ANPR/ANPR_RZA2M_EBK/src/tensorflow_lite/tensorflow/lite/micro/kernels\kernel_util.h ****   TFLITE_DCHECK(node != nullptr);
 768              		.loc 3 35 0
 769 0010 000051E3 		cmp	r1, #0
 770 0014 0170A0E1 		mov	r7, r1
 771 0018 C002000A 		beq	.L39
  36:C:/Renesas/e2studio_2021_01_workspace_RZA2M_ANPR/ANPR_RZA2M_EBK/src/tensorflow_lite/tensorflow/lite/micro/kernels\kernel_util.h ****   return context->GetEvalTensor(context, node->inputs->data[index]);
 772              		.loc 3 36 0
 773 001c 002091E5 		ldr	r2, [r1]
 774 0020 543096E5 		ldr	r3, [r6, #84]
 775 0024 041092E5 		ldr	r1, [r2, #4]
 776              	.LVL94:
 777              	.LEHB0:
 778 0028 33FF2FE1 		blx	r3
 779              	.LVL95:
 780              	.LBE315:
 781              	.LBE318:
 782              	.LBE321:
 783              	.LBB322:
 784              	.LBB323:
 785              	.LBB324:
 786 002c 002097E5 		ldr	r2, [r7]
 787              	.LBE324:
 788              	.LBE323:
 789              	.LBE322:
 790              	.LBB329:
 791              	.LBB319:
 792              	.LBB316:
 793 0030 0080A0E1 		mov	r8, r0
 794              	.LVL96:
 795              	.LBE316:
 796              	.LBE319:
 797              	.LBE329:
 798              	.LBB330:
 799              	.LBB327:
 800              	.LBB325:
 801 0034 543096E5 		ldr	r3, [r6, #84]
 802 0038 0600A0E1 		mov	r0, r6
 803 003c 081092E5 		ldr	r1, [r2, #8]
 804 0040 33FF2FE1 		blx	r3
 805              	.LVL97:
 806              	.LBE325:
 807              	.LBE327:
 808              	.LBE330:
 809              	.LBB331:
 810              	.LBB332:
  37:C:/Renesas/e2studio_2021_01_workspace_RZA2M_ANPR/ANPR_RZA2M_EBK/src/tensorflow_lite/tensorflow/lite/micro/kernels\kernel_util.h **** }
  38:C:/Renesas/e2studio_2021_01_workspace_RZA2M_ANPR/ANPR_RZA2M_EBK/src/tensorflow_lite/tensorflow/lite/micro/kernels\kernel_util.h **** 
  39:C:/Renesas/e2studio_2021_01_workspace_RZA2M_ANPR/ANPR_RZA2M_EBK/src/tensorflow_lite/tensorflow/lite/micro/kernels\kernel_util.h **** // Returns the TfLiteEvalTensor struct for a given input index in a node.
  40:C:/Renesas/e2studio_2021_01_workspace_RZA2M_ANPR/ANPR_RZA2M_EBK/src/tensorflow_lite/tensorflow/lite/micro/kernels\kernel_util.h **** inline const TfLiteEvalTensor* GetEvalInput(const TfLiteContext* context,
  41:C:/Renesas/e2studio_2021_01_workspace_RZA2M_ANPR/ANPR_RZA2M_EBK/src/tensorflow_lite/tensorflow/lite/micro/kernels\kernel_util.h ****                                             const TfLiteNode* node, int index) {
  42:C:/Renesas/e2studio_2021_01_workspace_RZA2M_ANPR/ANPR_RZA2M_EBK/src/tensorflow_lite/tensorflow/lite/micro/kernels\kernel_util.h ****   return GetMutableEvalInput(context, node, index);
  43:C:/Renesas/e2studio_2021_01_workspace_RZA2M_ANPR/ANPR_RZA2M_EBK/src/tensorflow_lite/tensorflow/lite/micro/kernels\kernel_util.h **** }
  44:C:/Renesas/e2studio_2021_01_workspace_RZA2M_ANPR/ANPR_RZA2M_EBK/src/tensorflow_lite/tensorflow/lite/micro/kernels\kernel_util.h **** 
  45:C:/Renesas/e2studio_2021_01_workspace_RZA2M_ANPR/ANPR_RZA2M_EBK/src/tensorflow_lite/tensorflow/lite/micro/kernels\kernel_util.h **** // Returns the TfLiteEvalTensor struct for a given output index in a node.
  46:C:/Renesas/e2studio_2021_01_workspace_RZA2M_ANPR/ANPR_RZA2M_EBK/src/tensorflow_lite/tensorflow/lite/micro/kernels\kernel_util.h **** inline TfLiteEvalTensor* GetEvalOutput(const TfLiteContext* context,
  47:C:/Renesas/e2studio_2021_01_workspace_RZA2M_ANPR/ANPR_RZA2M_EBK/src/tensorflow_lite/tensorflow/lite/micro/kernels\kernel_util.h ****                                        const TfLiteNode* node, int index) {
  48:C:/Renesas/e2studio_2021_01_workspace_RZA2M_ANPR/ANPR_RZA2M_EBK/src/tensorflow_lite/tensorflow/lite/micro/kernels\kernel_util.h ****   TFLITE_DCHECK(context != nullptr);
  49:C:/Renesas/e2studio_2021_01_workspace_RZA2M_ANPR/ANPR_RZA2M_EBK/src/tensorflow_lite/tensorflow/lite/micro/kernels\kernel_util.h ****   TFLITE_DCHECK(node != nullptr);
  50:C:/Renesas/e2studio_2021_01_workspace_RZA2M_ANPR/ANPR_RZA2M_EBK/src/tensorflow_lite/tensorflow/lite/micro/kernels\kernel_util.h ****   return context->GetEvalTensor(context, node->outputs->data[index]);
 811              		.loc 3 50 0
 812 0044 042097E5 		ldr	r2, [r7, #4]
 813              	.LBE332:
 814              	.LBE331:
 815              	.LBB335:
 816              	.LBB328:
 817              	.LBB326:
  36:C:/Renesas/e2studio_2021_01_workspace_RZA2M_ANPR/ANPR_RZA2M_EBK/src/tensorflow_lite/tensorflow/lite/micro/kernels\kernel_util.h ****   return context->GetEvalTensor(context, node->inputs->data[index]);
 818              		.loc 3 36 0
 819 0048 0090A0E1 		mov	r9, r0
 820              	.LVL98:
 821              	.LBE326:
 822              	.LBE328:
 823              	.LBE335:
 824              	.LBB336:
 825              	.LBB333:
 826              		.loc 3 50 0
 827 004c 543096E5 		ldr	r3, [r6, #84]
 828 0050 0600A0E1 		mov	r0, r6
 829 0054 041092E5 		ldr	r1, [r2, #4]
 830 0058 33FF2FE1 		blx	r3
 831              	.LVL99:
 832              	.LBE333:
 833              	.LBE336:
 102:../src/tensorflow_lite/tensorflow/lite/micro/kernels/cumsum.cc ****   const TfLiteEvalTensor* input =
 103:../src/tensorflow_lite/tensorflow/lite/micro/kernels/cumsum.cc ****       tflite::micro::GetEvalInput(context, node, kInputTensor);
 104:../src/tensorflow_lite/tensorflow/lite/micro/kernels/cumsum.cc ****   const TfLiteEvalTensor* axis_tensor =
 105:../src/tensorflow_lite/tensorflow/lite/micro/kernels/cumsum.cc ****       tflite::micro::GetEvalInput(context, node, kAxisTensor);
 106:../src/tensorflow_lite/tensorflow/lite/micro/kernels/cumsum.cc **** 
 107:../src/tensorflow_lite/tensorflow/lite/micro/kernels/cumsum.cc ****   TfLiteEvalTensor* output =
 108:../src/tensorflow_lite/tensorflow/lite/micro/kernels/cumsum.cc ****       tflite::micro::GetEvalOutput(context, node, kOutputTensor);
 109:../src/tensorflow_lite/tensorflow/lite/micro/kernels/cumsum.cc **** 
 110:../src/tensorflow_lite/tensorflow/lite/micro/kernels/cumsum.cc ****   auto* cs_params = static_cast<TfLiteCumsumParams*>(node->builtin_data);
 111:../src/tensorflow_lite/tensorflow/lite/micro/kernels/cumsum.cc ****   auto input_shape = tflite::micro::GetTensorShape(input);
 834              		.loc 1 111 0
 835 005c 0810A0E1 		mov	r1, r8
 836              	.LBB337:
 837              	.LBB334:
 838              		.loc 3 50 0
 839 0060 0040A0E1 		mov	r4, r0
 840              	.LVL100:
 841              	.LBE334:
 842              	.LBE337:
 843              		.loc 1 111 0
 844 0064 68008DE2 		add	r0, sp, #104
 110:../src/tensorflow_lite/tensorflow/lite/micro/kernels/cumsum.cc ****   auto input_shape = tflite::micro::GetTensorShape(input);
 845              		.loc 1 110 0
 846 0068 145097E5 		ldr	r5, [r7, #20]
 847              	.LVL101:
 848              		.loc 1 111 0
 849 006c FEFFFFEB 		bl	_ZN6tflite5micro14GetTensorShapeEPK16TfLiteEvalTensor
 850              	.LVL102:
 851              	.LEHE0:
 852              	.LBB338:
 853              	.LBB339:
  51:C:/Renesas/e2studio_2021_01_workspace_RZA2M_ANPR/ANPR_RZA2M_EBK/src/tensorflow_lite/tensorflow/lite/micro/kernels\kernel_util.h **** }
  52:C:/Renesas/e2studio_2021_01_workspace_RZA2M_ANPR/ANPR_RZA2M_EBK/src/tensorflow_lite/tensorflow/lite/micro/kernels\kernel_util.h **** 
  53:C:/Renesas/e2studio_2021_01_workspace_RZA2M_ANPR/ANPR_RZA2M_EBK/src/tensorflow_lite/tensorflow/lite/micro/kernels\kernel_util.h **** // Returns data for a TfLiteEvalTensor struct.
  54:C:/Renesas/e2studio_2021_01_workspace_RZA2M_ANPR/ANPR_RZA2M_EBK/src/tensorflow_lite/tensorflow/lite/micro/kernels\kernel_util.h **** template <typename T>
  55:C:/Renesas/e2studio_2021_01_workspace_RZA2M_ANPR/ANPR_RZA2M_EBK/src/tensorflow_lite/tensorflow/lite/micro/kernels\kernel_util.h **** T* GetTensorData(TfLiteEvalTensor* tensor) {
  56:C:/Renesas/e2studio_2021_01_workspace_RZA2M_ANPR/ANPR_RZA2M_EBK/src/tensorflow_lite/tensorflow/lite/micro/kernels\kernel_util.h ****   return tensor != nullptr ? reinterpret_cast<T*>(tensor->data.raw) : nullptr;
  57:C:/Renesas/e2studio_2021_01_workspace_RZA2M_ANPR/ANPR_RZA2M_EBK/src/tensorflow_lite/tensorflow/lite/micro/kernels\kernel_util.h **** }
  58:C:/Renesas/e2studio_2021_01_workspace_RZA2M_ANPR/ANPR_RZA2M_EBK/src/tensorflow_lite/tensorflow/lite/micro/kernels\kernel_util.h **** 
  59:C:/Renesas/e2studio_2021_01_workspace_RZA2M_ANPR/ANPR_RZA2M_EBK/src/tensorflow_lite/tensorflow/lite/micro/kernels\kernel_util.h **** // Returns const data for a TfLiteEvalTensor struct.
  60:C:/Renesas/e2studio_2021_01_workspace_RZA2M_ANPR/ANPR_RZA2M_EBK/src/tensorflow_lite/tensorflow/lite/micro/kernels\kernel_util.h **** template <typename T>
  61:C:/Renesas/e2studio_2021_01_workspace_RZA2M_ANPR/ANPR_RZA2M_EBK/src/tensorflow_lite/tensorflow/lite/micro/kernels\kernel_util.h **** const T* GetTensorData(const TfLiteEvalTensor* tensor) {
  62:C:/Renesas/e2studio_2021_01_workspace_RZA2M_ANPR/ANPR_RZA2M_EBK/src/tensorflow_lite/tensorflow/lite/micro/kernels\kernel_util.h ****   TFLITE_DCHECK(tensor != nullptr);
 854              		.loc 3 62 0
 855 0070 000059E3 		cmp	r9, #0
 856 0074 A802000A 		beq	.L216
 857              	.LBE339:
 858              	.LBE338:
 112:../src/tensorflow_lite/tensorflow/lite/micro/kernels/cumsum.cc **** 
 113:../src/tensorflow_lite/tensorflow/lite/micro/kernels/cumsum.cc ****   int32_t axis = *tflite::micro::GetTensorData<int32_t>(axis_tensor);
 859              		.loc 1 113 0
 860 0078 003099E5 		ldr	r3, [r9]
 861 007c 00C093E5 		ldr	ip, [r3]
 862              	.LVL103:
 863 0080 68309DE5 		ldr	r3, [sp, #104]
 114:../src/tensorflow_lite/tensorflow/lite/micro/kernels/cumsum.cc ****   if (axis < 0) axis += input_shape.DimensionsCount();
 864              		.loc 1 114 0
 865 0084 00005CE3 		cmp	ip, #0
 866 0088 20308DE5 		str	r3, [sp, #32]
 867 008c B00100BA 		blt	.L217
 868              	.L42:
 869              	.LVL104:
 115:../src/tensorflow_lite/tensorflow/lite/micro/kernels/cumsum.cc **** 
 116:../src/tensorflow_lite/tensorflow/lite/micro/kernels/cumsum.cc ****   if (axis < 0 || axis >= input_shape.DimensionsCount()) {
 870              		.loc 1 116 0 discriminator 2
 871 0090 0C0053E1 		cmp	r3, ip
 872 0094 120000CA 		bgt	.L218
 873              	.LVL105:
 874              	.L43:
 117:../src/tensorflow_lite/tensorflow/lite/micro/kernels/cumsum.cc ****     TF_LITE_KERNEL_LOG(context, "CUMSUM Invalid axis: %d", axis);
 875              		.loc 1 117 0
 876 0098 001000E3 		movw	r1, #:lower16:.LC20
 877 009c 0C20A0E1 		mov	r2, ip
 878 00a0 001040E3 		movt	r1, #:upper16:.LC20
 879 00a4 143096E5 		ldr	r3, [r6, #20]
 880 00a8 0600A0E1 		mov	r0, r6
 881              	.LEHB1:
 882 00ac 33FF2FE1 		blx	r3
 883              	.LVL106:
 884              	.L209:
 885 00b0 68309DE5 		ldr	r3, [sp, #104]
 118:../src/tensorflow_lite/tensorflow/lite/micro/kernels/cumsum.cc ****     return kTfLiteError;
 886              		.loc 1 118 0
 887 00b4 01A0A0E3 		mov	r10, #1
 888 00b8 20308DE5 		str	r3, [sp, #32]
 889              	.LVL107:
 890              	.L72:
 891              	.LBB341:
 892              	.LBB342:
 893              		.file 4 "C:/Renesas/e2studio_2021_01_workspace_RZA2M_ANPR/ANPR_RZA2M_EBK/src/tensorflow_lite/tenso
   1:C:/Renesas/e2studio_2021_01_workspace_RZA2M_ANPR/ANPR_RZA2M_EBK/src/tensorflow_lite/tensorflow/lite/kernels/internal\types.h **** /* Copyright 2018 The TensorFlow Authors. All Rights Reserved.
   2:C:/Renesas/e2studio_2021_01_workspace_RZA2M_ANPR/ANPR_RZA2M_EBK/src/tensorflow_lite/tensorflow/lite/kernels/internal\types.h **** 
   3:C:/Renesas/e2studio_2021_01_workspace_RZA2M_ANPR/ANPR_RZA2M_EBK/src/tensorflow_lite/tensorflow/lite/kernels/internal\types.h **** Licensed under the Apache License, Version 2.0 (the "License");
   4:C:/Renesas/e2studio_2021_01_workspace_RZA2M_ANPR/ANPR_RZA2M_EBK/src/tensorflow_lite/tensorflow/lite/kernels/internal\types.h **** you may not use this file except in compliance with the License.
   5:C:/Renesas/e2studio_2021_01_workspace_RZA2M_ANPR/ANPR_RZA2M_EBK/src/tensorflow_lite/tensorflow/lite/kernels/internal\types.h **** You may obtain a copy of the License at
   6:C:/Renesas/e2studio_2021_01_workspace_RZA2M_ANPR/ANPR_RZA2M_EBK/src/tensorflow_lite/tensorflow/lite/kernels/internal\types.h **** 
   7:C:/Renesas/e2studio_2021_01_workspace_RZA2M_ANPR/ANPR_RZA2M_EBK/src/tensorflow_lite/tensorflow/lite/kernels/internal\types.h ****     http://www.apache.org/licenses/LICENSE-2.0
   8:C:/Renesas/e2studio_2021_01_workspace_RZA2M_ANPR/ANPR_RZA2M_EBK/src/tensorflow_lite/tensorflow/lite/kernels/internal\types.h **** 
   9:C:/Renesas/e2studio_2021_01_workspace_RZA2M_ANPR/ANPR_RZA2M_EBK/src/tensorflow_lite/tensorflow/lite/kernels/internal\types.h **** Unless required by applicable law or agreed to in writing, software
  10:C:/Renesas/e2studio_2021_01_workspace_RZA2M_ANPR/ANPR_RZA2M_EBK/src/tensorflow_lite/tensorflow/lite/kernels/internal\types.h **** distributed under the License is distributed on an "AS IS" BASIS,
  11:C:/Renesas/e2studio_2021_01_workspace_RZA2M_ANPR/ANPR_RZA2M_EBK/src/tensorflow_lite/tensorflow/lite/kernels/internal\types.h **** WITHOUT WARRANTIES OR CONDITIONS OF ANY KIND, either express or implied.
  12:C:/Renesas/e2studio_2021_01_workspace_RZA2M_ANPR/ANPR_RZA2M_EBK/src/tensorflow_lite/tensorflow/lite/kernels/internal\types.h **** See the License for the specific language governing permissions and
  13:C:/Renesas/e2studio_2021_01_workspace_RZA2M_ANPR/ANPR_RZA2M_EBK/src/tensorflow_lite/tensorflow/lite/kernels/internal\types.h **** limitations under the License.
  14:C:/Renesas/e2studio_2021_01_workspace_RZA2M_ANPR/ANPR_RZA2M_EBK/src/tensorflow_lite/tensorflow/lite/kernels/internal\types.h **** ==============================================================================*/
  15:C:/Renesas/e2studio_2021_01_workspace_RZA2M_ANPR/ANPR_RZA2M_EBK/src/tensorflow_lite/tensorflow/lite/kernels/internal\types.h **** #ifndef TENSORFLOW_LITE_KERNELS_INTERNAL_TYPES_H_
  16:C:/Renesas/e2studio_2021_01_workspace_RZA2M_ANPR/ANPR_RZA2M_EBK/src/tensorflow_lite/tensorflow/lite/kernels/internal\types.h **** #define TENSORFLOW_LITE_KERNELS_INTERNAL_TYPES_H_
  17:C:/Renesas/e2studio_2021_01_workspace_RZA2M_ANPR/ANPR_RZA2M_EBK/src/tensorflow_lite/tensorflow/lite/kernels/internal\types.h **** 
  18:C:/Renesas/e2studio_2021_01_workspace_RZA2M_ANPR/ANPR_RZA2M_EBK/src/tensorflow_lite/tensorflow/lite/kernels/internal\types.h **** #include <algorithm>
  19:C:/Renesas/e2studio_2021_01_workspace_RZA2M_ANPR/ANPR_RZA2M_EBK/src/tensorflow_lite/tensorflow/lite/kernels/internal\types.h **** #include <cstdint>
  20:C:/Renesas/e2studio_2021_01_workspace_RZA2M_ANPR/ANPR_RZA2M_EBK/src/tensorflow_lite/tensorflow/lite/kernels/internal\types.h **** #include <cstring>
  21:C:/Renesas/e2studio_2021_01_workspace_RZA2M_ANPR/ANPR_RZA2M_EBK/src/tensorflow_lite/tensorflow/lite/kernels/internal\types.h **** #include <initializer_list>
  22:C:/Renesas/e2studio_2021_01_workspace_RZA2M_ANPR/ANPR_RZA2M_EBK/src/tensorflow_lite/tensorflow/lite/kernels/internal\types.h **** 
  23:C:/Renesas/e2studio_2021_01_workspace_RZA2M_ANPR/ANPR_RZA2M_EBK/src/tensorflow_lite/tensorflow/lite/kernels/internal\types.h **** #include "tensorflow/lite/kernels/internal/compatibility.h"
  24:C:/Renesas/e2studio_2021_01_workspace_RZA2M_ANPR/ANPR_RZA2M_EBK/src/tensorflow_lite/tensorflow/lite/kernels/internal\types.h **** 
  25:C:/Renesas/e2studio_2021_01_workspace_RZA2M_ANPR/ANPR_RZA2M_EBK/src/tensorflow_lite/tensorflow/lite/kernels/internal\types.h **** namespace tflite {
  26:C:/Renesas/e2studio_2021_01_workspace_RZA2M_ANPR/ANPR_RZA2M_EBK/src/tensorflow_lite/tensorflow/lite/kernels/internal\types.h **** 
  27:C:/Renesas/e2studio_2021_01_workspace_RZA2M_ANPR/ANPR_RZA2M_EBK/src/tensorflow_lite/tensorflow/lite/kernels/internal\types.h **** enum class FusedActivationFunctionType : uint8_t {
  28:C:/Renesas/e2studio_2021_01_workspace_RZA2M_ANPR/ANPR_RZA2M_EBK/src/tensorflow_lite/tensorflow/lite/kernels/internal\types.h ****   kNone,
  29:C:/Renesas/e2studio_2021_01_workspace_RZA2M_ANPR/ANPR_RZA2M_EBK/src/tensorflow_lite/tensorflow/lite/kernels/internal\types.h ****   kRelu6,
  30:C:/Renesas/e2studio_2021_01_workspace_RZA2M_ANPR/ANPR_RZA2M_EBK/src/tensorflow_lite/tensorflow/lite/kernels/internal\types.h ****   kRelu1,
  31:C:/Renesas/e2studio_2021_01_workspace_RZA2M_ANPR/ANPR_RZA2M_EBK/src/tensorflow_lite/tensorflow/lite/kernels/internal\types.h ****   kRelu
  32:C:/Renesas/e2studio_2021_01_workspace_RZA2M_ANPR/ANPR_RZA2M_EBK/src/tensorflow_lite/tensorflow/lite/kernels/internal\types.h **** };
  33:C:/Renesas/e2studio_2021_01_workspace_RZA2M_ANPR/ANPR_RZA2M_EBK/src/tensorflow_lite/tensorflow/lite/kernels/internal\types.h **** enum class PaddingType : uint8_t { kNone, kSame, kValid };
  34:C:/Renesas/e2studio_2021_01_workspace_RZA2M_ANPR/ANPR_RZA2M_EBK/src/tensorflow_lite/tensorflow/lite/kernels/internal\types.h **** 
  35:C:/Renesas/e2studio_2021_01_workspace_RZA2M_ANPR/ANPR_RZA2M_EBK/src/tensorflow_lite/tensorflow/lite/kernels/internal\types.h **** struct PaddingValues {
  36:C:/Renesas/e2studio_2021_01_workspace_RZA2M_ANPR/ANPR_RZA2M_EBK/src/tensorflow_lite/tensorflow/lite/kernels/internal\types.h ****   int16_t width;
  37:C:/Renesas/e2studio_2021_01_workspace_RZA2M_ANPR/ANPR_RZA2M_EBK/src/tensorflow_lite/tensorflow/lite/kernels/internal\types.h ****   int16_t height;
  38:C:/Renesas/e2studio_2021_01_workspace_RZA2M_ANPR/ANPR_RZA2M_EBK/src/tensorflow_lite/tensorflow/lite/kernels/internal\types.h ****   // offset is used for calculating "remaining" padding, for example, `width`
  39:C:/Renesas/e2studio_2021_01_workspace_RZA2M_ANPR/ANPR_RZA2M_EBK/src/tensorflow_lite/tensorflow/lite/kernels/internal\types.h ****   // is 1 and `width_offset` is 1, so padding_left is 1 while padding_right is
  40:C:/Renesas/e2studio_2021_01_workspace_RZA2M_ANPR/ANPR_RZA2M_EBK/src/tensorflow_lite/tensorflow/lite/kernels/internal\types.h ****   // 1 + 1 = 2.
  41:C:/Renesas/e2studio_2021_01_workspace_RZA2M_ANPR/ANPR_RZA2M_EBK/src/tensorflow_lite/tensorflow/lite/kernels/internal\types.h ****   int16_t width_offset;
  42:C:/Renesas/e2studio_2021_01_workspace_RZA2M_ANPR/ANPR_RZA2M_EBK/src/tensorflow_lite/tensorflow/lite/kernels/internal\types.h ****   // Same as width_offset except it's over the height dimension.
  43:C:/Renesas/e2studio_2021_01_workspace_RZA2M_ANPR/ANPR_RZA2M_EBK/src/tensorflow_lite/tensorflow/lite/kernels/internal\types.h ****   int16_t height_offset;
  44:C:/Renesas/e2studio_2021_01_workspace_RZA2M_ANPR/ANPR_RZA2M_EBK/src/tensorflow_lite/tensorflow/lite/kernels/internal\types.h **** };
  45:C:/Renesas/e2studio_2021_01_workspace_RZA2M_ANPR/ANPR_RZA2M_EBK/src/tensorflow_lite/tensorflow/lite/kernels/internal\types.h **** 
  46:C:/Renesas/e2studio_2021_01_workspace_RZA2M_ANPR/ANPR_RZA2M_EBK/src/tensorflow_lite/tensorflow/lite/kernels/internal\types.h **** struct Padding3DValues {
  47:C:/Renesas/e2studio_2021_01_workspace_RZA2M_ANPR/ANPR_RZA2M_EBK/src/tensorflow_lite/tensorflow/lite/kernels/internal\types.h ****   int16_t width;
  48:C:/Renesas/e2studio_2021_01_workspace_RZA2M_ANPR/ANPR_RZA2M_EBK/src/tensorflow_lite/tensorflow/lite/kernels/internal\types.h ****   int16_t height;
  49:C:/Renesas/e2studio_2021_01_workspace_RZA2M_ANPR/ANPR_RZA2M_EBK/src/tensorflow_lite/tensorflow/lite/kernels/internal\types.h ****   int16_t depth;
  50:C:/Renesas/e2studio_2021_01_workspace_RZA2M_ANPR/ANPR_RZA2M_EBK/src/tensorflow_lite/tensorflow/lite/kernels/internal\types.h ****   // offset is used for calculating "remaining" padding, for example, `width`
  51:C:/Renesas/e2studio_2021_01_workspace_RZA2M_ANPR/ANPR_RZA2M_EBK/src/tensorflow_lite/tensorflow/lite/kernels/internal\types.h ****   // is 1 and `width_offset` is 1, so padding_left is 1 while padding_right is
  52:C:/Renesas/e2studio_2021_01_workspace_RZA2M_ANPR/ANPR_RZA2M_EBK/src/tensorflow_lite/tensorflow/lite/kernels/internal\types.h ****   // 1 + 1 = 2.
  53:C:/Renesas/e2studio_2021_01_workspace_RZA2M_ANPR/ANPR_RZA2M_EBK/src/tensorflow_lite/tensorflow/lite/kernels/internal\types.h ****   int16_t width_offset;
  54:C:/Renesas/e2studio_2021_01_workspace_RZA2M_ANPR/ANPR_RZA2M_EBK/src/tensorflow_lite/tensorflow/lite/kernels/internal\types.h ****   // Same as width_offset except it's over the height dimension.
  55:C:/Renesas/e2studio_2021_01_workspace_RZA2M_ANPR/ANPR_RZA2M_EBK/src/tensorflow_lite/tensorflow/lite/kernels/internal\types.h ****   int16_t height_offset;
  56:C:/Renesas/e2studio_2021_01_workspace_RZA2M_ANPR/ANPR_RZA2M_EBK/src/tensorflow_lite/tensorflow/lite/kernels/internal\types.h ****   // Same as width_offset except it's over the depth dimension.
  57:C:/Renesas/e2studio_2021_01_workspace_RZA2M_ANPR/ANPR_RZA2M_EBK/src/tensorflow_lite/tensorflow/lite/kernels/internal\types.h ****   int16_t depth_offset;
  58:C:/Renesas/e2studio_2021_01_workspace_RZA2M_ANPR/ANPR_RZA2M_EBK/src/tensorflow_lite/tensorflow/lite/kernels/internal\types.h **** };
  59:C:/Renesas/e2studio_2021_01_workspace_RZA2M_ANPR/ANPR_RZA2M_EBK/src/tensorflow_lite/tensorflow/lite/kernels/internal\types.h **** 
  60:C:/Renesas/e2studio_2021_01_workspace_RZA2M_ANPR/ANPR_RZA2M_EBK/src/tensorflow_lite/tensorflow/lite/kernels/internal\types.h **** // This enumeration allows for non-default formats for the weights array
  61:C:/Renesas/e2studio_2021_01_workspace_RZA2M_ANPR/ANPR_RZA2M_EBK/src/tensorflow_lite/tensorflow/lite/kernels/internal\types.h **** // of a fully-connected operator, allowing the use of special optimized
  62:C:/Renesas/e2studio_2021_01_workspace_RZA2M_ANPR/ANPR_RZA2M_EBK/src/tensorflow_lite/tensorflow/lite/kernels/internal\types.h **** // runtime paths.
  63:C:/Renesas/e2studio_2021_01_workspace_RZA2M_ANPR/ANPR_RZA2M_EBK/src/tensorflow_lite/tensorflow/lite/kernels/internal\types.h **** enum class FullyConnectedWeightsFormat : uint8_t {
  64:C:/Renesas/e2studio_2021_01_workspace_RZA2M_ANPR/ANPR_RZA2M_EBK/src/tensorflow_lite/tensorflow/lite/kernels/internal\types.h ****   // Default format (flat 2D layout, the inner contiguous dimension
  65:C:/Renesas/e2studio_2021_01_workspace_RZA2M_ANPR/ANPR_RZA2M_EBK/src/tensorflow_lite/tensorflow/lite/kernels/internal\types.h ****   // is input_depth, the outer non-contiguous dimension is output_depth)
  66:C:/Renesas/e2studio_2021_01_workspace_RZA2M_ANPR/ANPR_RZA2M_EBK/src/tensorflow_lite/tensorflow/lite/kernels/internal\types.h ****   kDefault,
  67:C:/Renesas/e2studio_2021_01_workspace_RZA2M_ANPR/ANPR_RZA2M_EBK/src/tensorflow_lite/tensorflow/lite/kernels/internal\types.h ****   // Summary: optimized layout for fast CPU runtime implementation,
  68:C:/Renesas/e2studio_2021_01_workspace_RZA2M_ANPR/ANPR_RZA2M_EBK/src/tensorflow_lite/tensorflow/lite/kernels/internal\types.h ****   // aimed specifically at ARM CPUs at the moment, and specialized for
  69:C:/Renesas/e2studio_2021_01_workspace_RZA2M_ANPR/ANPR_RZA2M_EBK/src/tensorflow_lite/tensorflow/lite/kernels/internal\types.h ****   // 8-bit quantized layers.
  70:C:/Renesas/e2studio_2021_01_workspace_RZA2M_ANPR/ANPR_RZA2M_EBK/src/tensorflow_lite/tensorflow/lite/kernels/internal\types.h ****   //
  71:C:/Renesas/e2studio_2021_01_workspace_RZA2M_ANPR/ANPR_RZA2M_EBK/src/tensorflow_lite/tensorflow/lite/kernels/internal\types.h ****   // The use case we're concerned with here is: 8-bit quantization,
  72:C:/Renesas/e2studio_2021_01_workspace_RZA2M_ANPR/ANPR_RZA2M_EBK/src/tensorflow_lite/tensorflow/lite/kernels/internal\types.h ****   // large weights matrix that doesn't fit in cache (e.g. 4096x2048 in
  73:C:/Renesas/e2studio_2021_01_workspace_RZA2M_ANPR/ANPR_RZA2M_EBK/src/tensorflow_lite/tensorflow/lite/kernels/internal\types.h ****   // a key application that drove this), very small batch size (e.g. 1 -- 4).
  74:C:/Renesas/e2studio_2021_01_workspace_RZA2M_ANPR/ANPR_RZA2M_EBK/src/tensorflow_lite/tensorflow/lite/kernels/internal\types.h ****   //
  75:C:/Renesas/e2studio_2021_01_workspace_RZA2M_ANPR/ANPR_RZA2M_EBK/src/tensorflow_lite/tensorflow/lite/kernels/internal\types.h ****   // Even with 8-bit quantization of weights, the performance of memory
  76:C:/Renesas/e2studio_2021_01_workspace_RZA2M_ANPR/ANPR_RZA2M_EBK/src/tensorflow_lite/tensorflow/lite/kernels/internal\types.h ****   // accesses to the weights can become the dominant issue when
  77:C:/Renesas/e2studio_2021_01_workspace_RZA2M_ANPR/ANPR_RZA2M_EBK/src/tensorflow_lite/tensorflow/lite/kernels/internal\types.h ****   // the batch size is small, so each weight value is used in only a few
  78:C:/Renesas/e2studio_2021_01_workspace_RZA2M_ANPR/ANPR_RZA2M_EBK/src/tensorflow_lite/tensorflow/lite/kernels/internal\types.h ****   // arithmetic ops, i.e. the fully-connected node has a low arithmetic
  79:C:/Renesas/e2studio_2021_01_workspace_RZA2M_ANPR/ANPR_RZA2M_EBK/src/tensorflow_lite/tensorflow/lite/kernels/internal\types.h ****   // intensity. The specific issues that arise are of three kinds:
  80:C:/Renesas/e2studio_2021_01_workspace_RZA2M_ANPR/ANPR_RZA2M_EBK/src/tensorflow_lite/tensorflow/lite/kernels/internal\types.h ****   // (1) One may, ideally, max out DRAM bandwidth, i.e. be truly memory
  81:C:/Renesas/e2studio_2021_01_workspace_RZA2M_ANPR/ANPR_RZA2M_EBK/src/tensorflow_lite/tensorflow/lite/kernels/internal\types.h ****   //     bound. That's the "good" issue to run into.
  82:C:/Renesas/e2studio_2021_01_workspace_RZA2M_ANPR/ANPR_RZA2M_EBK/src/tensorflow_lite/tensorflow/lite/kernels/internal\types.h ****   // (2) One may run into sub-optimal pre-fetching: the data hasn't been
  83:C:/Renesas/e2studio_2021_01_workspace_RZA2M_ANPR/ANPR_RZA2M_EBK/src/tensorflow_lite/tensorflow/lite/kernels/internal\types.h ****   //     prefetched into the cache by the time we need it.
  84:C:/Renesas/e2studio_2021_01_workspace_RZA2M_ANPR/ANPR_RZA2M_EBK/src/tensorflow_lite/tensorflow/lite/kernels/internal\types.h ****   // (3) One may run into cache aliasing: multiple values that are
  85:C:/Renesas/e2studio_2021_01_workspace_RZA2M_ANPR/ANPR_RZA2M_EBK/src/tensorflow_lite/tensorflow/lite/kernels/internal\types.h ****   //     pre-fetched, alias each other in the L1 cache (which typically
  86:C:/Renesas/e2studio_2021_01_workspace_RZA2M_ANPR/ANPR_RZA2M_EBK/src/tensorflow_lite/tensorflow/lite/kernels/internal\types.h ****   //     has only 4-way set associativity in ARM CPUs) and thus evict
  87:C:/Renesas/e2studio_2021_01_workspace_RZA2M_ANPR/ANPR_RZA2M_EBK/src/tensorflow_lite/tensorflow/lite/kernels/internal\types.h ****   //     each other before we get to using them.
  88:C:/Renesas/e2studio_2021_01_workspace_RZA2M_ANPR/ANPR_RZA2M_EBK/src/tensorflow_lite/tensorflow/lite/kernels/internal\types.h ****   //
  89:C:/Renesas/e2studio_2021_01_workspace_RZA2M_ANPR/ANPR_RZA2M_EBK/src/tensorflow_lite/tensorflow/lite/kernels/internal\types.h ****   // The point of this shuffling is to avoid issues (2) and (3) so that
  90:C:/Renesas/e2studio_2021_01_workspace_RZA2M_ANPR/ANPR_RZA2M_EBK/src/tensorflow_lite/tensorflow/lite/kernels/internal\types.h ****   // we get as fast as possible given only the hard constraint (1).
  91:C:/Renesas/e2studio_2021_01_workspace_RZA2M_ANPR/ANPR_RZA2M_EBK/src/tensorflow_lite/tensorflow/lite/kernels/internal\types.h ****   // This is achieved by turning the difficulty into a solution: the
  92:C:/Renesas/e2studio_2021_01_workspace_RZA2M_ANPR/ANPR_RZA2M_EBK/src/tensorflow_lite/tensorflow/lite/kernels/internal\types.h ****   // difficulty, that each value loaded from memory is used only in
  93:C:/Renesas/e2studio_2021_01_workspace_RZA2M_ANPR/ANPR_RZA2M_EBK/src/tensorflow_lite/tensorflow/lite/kernels/internal\types.h ****   // one kernel iteration, making this operation memory-intensive, hints at
  94:C:/Renesas/e2studio_2021_01_workspace_RZA2M_ANPR/ANPR_RZA2M_EBK/src/tensorflow_lite/tensorflow/lite/kernels/internal\types.h ****   // the solution, of shuffling the weights so that they are stored in the
  95:C:/Renesas/e2studio_2021_01_workspace_RZA2M_ANPR/ANPR_RZA2M_EBK/src/tensorflow_lite/tensorflow/lite/kernels/internal\types.h ****   // exact order as the kernel needs to load them, so that the memory
  96:C:/Renesas/e2studio_2021_01_workspace_RZA2M_ANPR/ANPR_RZA2M_EBK/src/tensorflow_lite/tensorflow/lite/kernels/internal\types.h ****   // accesses made by the kernel are trivial. This solves (2) because the
  97:C:/Renesas/e2studio_2021_01_workspace_RZA2M_ANPR/ANPR_RZA2M_EBK/src/tensorflow_lite/tensorflow/lite/kernels/internal\types.h ****   // trivial memory access pattern allows the CPU's automatic prefetching
  98:C:/Renesas/e2studio_2021_01_workspace_RZA2M_ANPR/ANPR_RZA2M_EBK/src/tensorflow_lite/tensorflow/lite/kernels/internal\types.h ****   // to perform very well (no need even for preload instructions), and this
  99:C:/Renesas/e2studio_2021_01_workspace_RZA2M_ANPR/ANPR_RZA2M_EBK/src/tensorflow_lite/tensorflow/lite/kernels/internal\types.h ****   // solves (3) because the values being loaded concurrently are now
 100:C:/Renesas/e2studio_2021_01_workspace_RZA2M_ANPR/ANPR_RZA2M_EBK/src/tensorflow_lite/tensorflow/lite/kernels/internal\types.h ****   // contiguous in the address space, thus don't alias each other in the cache.
 101:C:/Renesas/e2studio_2021_01_workspace_RZA2M_ANPR/ANPR_RZA2M_EBK/src/tensorflow_lite/tensorflow/lite/kernels/internal\types.h ****   //
 102:C:/Renesas/e2studio_2021_01_workspace_RZA2M_ANPR/ANPR_RZA2M_EBK/src/tensorflow_lite/tensorflow/lite/kernels/internal\types.h ****   // On ARM, we typically want our kernel to process a 4x16 block of weights
 103:C:/Renesas/e2studio_2021_01_workspace_RZA2M_ANPR/ANPR_RZA2M_EBK/src/tensorflow_lite/tensorflow/lite/kernels/internal\types.h ****   // at a time, because:
 104:C:/Renesas/e2studio_2021_01_workspace_RZA2M_ANPR/ANPR_RZA2M_EBK/src/tensorflow_lite/tensorflow/lite/kernels/internal\types.h ****   //   - 16 is the number of bytes in a NEON register.
 105:C:/Renesas/e2studio_2021_01_workspace_RZA2M_ANPR/ANPR_RZA2M_EBK/src/tensorflow_lite/tensorflow/lite/kernels/internal\types.h ****   //   - 4 is how many rows we need to handle concurrently in the kernel in
 106:C:/Renesas/e2studio_2021_01_workspace_RZA2M_ANPR/ANPR_RZA2M_EBK/src/tensorflow_lite/tensorflow/lite/kernels/internal\types.h ****   //     order to have sufficient mutual independence of instructions to
 107:C:/Renesas/e2studio_2021_01_workspace_RZA2M_ANPR/ANPR_RZA2M_EBK/src/tensorflow_lite/tensorflow/lite/kernels/internal\types.h ****   //     maximize arithmetic throughput.
 108:C:/Renesas/e2studio_2021_01_workspace_RZA2M_ANPR/ANPR_RZA2M_EBK/src/tensorflow_lite/tensorflow/lite/kernels/internal\types.h ****   //
 109:C:/Renesas/e2studio_2021_01_workspace_RZA2M_ANPR/ANPR_RZA2M_EBK/src/tensorflow_lite/tensorflow/lite/kernels/internal\types.h ****   // Finally, the 'Int8' part in the name refers to the fact that this
 110:C:/Renesas/e2studio_2021_01_workspace_RZA2M_ANPR/ANPR_RZA2M_EBK/src/tensorflow_lite/tensorflow/lite/kernels/internal\types.h ****   // weights format has each weights value encoded as a signed int8_t value,
 111:C:/Renesas/e2studio_2021_01_workspace_RZA2M_ANPR/ANPR_RZA2M_EBK/src/tensorflow_lite/tensorflow/lite/kernels/internal\types.h ****   // even if the data type of the weights buffer is uint8_t.  This is intended
 112:C:/Renesas/e2studio_2021_01_workspace_RZA2M_ANPR/ANPR_RZA2M_EBK/src/tensorflow_lite/tensorflow/lite/kernels/internal\types.h ****   // to save runtime kernels the effort to have to XOR the top bit of these
 113:C:/Renesas/e2studio_2021_01_workspace_RZA2M_ANPR/ANPR_RZA2M_EBK/src/tensorflow_lite/tensorflow/lite/kernels/internal\types.h ****   // bytes before using them in signed arithmetic, see this file for more
 114:C:/Renesas/e2studio_2021_01_workspace_RZA2M_ANPR/ANPR_RZA2M_EBK/src/tensorflow_lite/tensorflow/lite/kernels/internal\types.h ****   // explanations on the 'signed int8_t trick' in matrix multiplication kernels:
 115:C:/Renesas/e2studio_2021_01_workspace_RZA2M_ANPR/ANPR_RZA2M_EBK/src/tensorflow_lite/tensorflow/lite/kernels/internal\types.h ****   //
 116:C:/Renesas/e2studio_2021_01_workspace_RZA2M_ANPR/ANPR_RZA2M_EBK/src/tensorflow_lite/tensorflow/lite/kernels/internal\types.h ****   //   tensorflow/lite/toco/graph_transformations/ensure_uint8_weights_safe_for_fast_int8_kernels.c
 117:C:/Renesas/e2studio_2021_01_workspace_RZA2M_ANPR/ANPR_RZA2M_EBK/src/tensorflow_lite/tensorflow/lite/kernels/internal\types.h ****   //
 118:C:/Renesas/e2studio_2021_01_workspace_RZA2M_ANPR/ANPR_RZA2M_EBK/src/tensorflow_lite/tensorflow/lite/kernels/internal\types.h ****   kShuffled4x16Int8,
 119:C:/Renesas/e2studio_2021_01_workspace_RZA2M_ANPR/ANPR_RZA2M_EBK/src/tensorflow_lite/tensorflow/lite/kernels/internal\types.h **** };
 120:C:/Renesas/e2studio_2021_01_workspace_RZA2M_ANPR/ANPR_RZA2M_EBK/src/tensorflow_lite/tensorflow/lite/kernels/internal\types.h **** 
 121:C:/Renesas/e2studio_2021_01_workspace_RZA2M_ANPR/ANPR_RZA2M_EBK/src/tensorflow_lite/tensorflow/lite/kernels/internal\types.h **** // Quantization parameters, determining the mapping of quantized values
 122:C:/Renesas/e2studio_2021_01_workspace_RZA2M_ANPR/ANPR_RZA2M_EBK/src/tensorflow_lite/tensorflow/lite/kernels/internal\types.h **** // to real values (i.e. determining how quantized values are mathematically
 123:C:/Renesas/e2studio_2021_01_workspace_RZA2M_ANPR/ANPR_RZA2M_EBK/src/tensorflow_lite/tensorflow/lite/kernels/internal\types.h **** // interpreted).
 124:C:/Renesas/e2studio_2021_01_workspace_RZA2M_ANPR/ANPR_RZA2M_EBK/src/tensorflow_lite/tensorflow/lite/kernels/internal\types.h **** //
 125:C:/Renesas/e2studio_2021_01_workspace_RZA2M_ANPR/ANPR_RZA2M_EBK/src/tensorflow_lite/tensorflow/lite/kernels/internal\types.h **** // The correspondence is as follows:
 126:C:/Renesas/e2studio_2021_01_workspace_RZA2M_ANPR/ANPR_RZA2M_EBK/src/tensorflow_lite/tensorflow/lite/kernels/internal\types.h **** //
 127:C:/Renesas/e2studio_2021_01_workspace_RZA2M_ANPR/ANPR_RZA2M_EBK/src/tensorflow_lite/tensorflow/lite/kernels/internal\types.h **** //   real_value = scale * (quantized_value - zero_point);
 128:C:/Renesas/e2studio_2021_01_workspace_RZA2M_ANPR/ANPR_RZA2M_EBK/src/tensorflow_lite/tensorflow/lite/kernels/internal\types.h **** //
 129:C:/Renesas/e2studio_2021_01_workspace_RZA2M_ANPR/ANPR_RZA2M_EBK/src/tensorflow_lite/tensorflow/lite/kernels/internal\types.h **** // In other words, zero_point designates which quantized value corresponds to
 130:C:/Renesas/e2studio_2021_01_workspace_RZA2M_ANPR/ANPR_RZA2M_EBK/src/tensorflow_lite/tensorflow/lite/kernels/internal\types.h **** // the real 0 value, and scale designates the difference between the real values
 131:C:/Renesas/e2studio_2021_01_workspace_RZA2M_ANPR/ANPR_RZA2M_EBK/src/tensorflow_lite/tensorflow/lite/kernels/internal\types.h **** // corresponding to consecutive quantized values differing by 1.
 132:C:/Renesas/e2studio_2021_01_workspace_RZA2M_ANPR/ANPR_RZA2M_EBK/src/tensorflow_lite/tensorflow/lite/kernels/internal\types.h **** struct QuantizationParams {
 133:C:/Renesas/e2studio_2021_01_workspace_RZA2M_ANPR/ANPR_RZA2M_EBK/src/tensorflow_lite/tensorflow/lite/kernels/internal\types.h ****   int32_t zero_point = 0;
 134:C:/Renesas/e2studio_2021_01_workspace_RZA2M_ANPR/ANPR_RZA2M_EBK/src/tensorflow_lite/tensorflow/lite/kernels/internal\types.h ****   double scale = 0.0;
 135:C:/Renesas/e2studio_2021_01_workspace_RZA2M_ANPR/ANPR_RZA2M_EBK/src/tensorflow_lite/tensorflow/lite/kernels/internal\types.h **** };
 136:C:/Renesas/e2studio_2021_01_workspace_RZA2M_ANPR/ANPR_RZA2M_EBK/src/tensorflow_lite/tensorflow/lite/kernels/internal\types.h **** 
 137:C:/Renesas/e2studio_2021_01_workspace_RZA2M_ANPR/ANPR_RZA2M_EBK/src/tensorflow_lite/tensorflow/lite/kernels/internal\types.h **** inline bool operator==(const QuantizationParams& qp1,
 138:C:/Renesas/e2studio_2021_01_workspace_RZA2M_ANPR/ANPR_RZA2M_EBK/src/tensorflow_lite/tensorflow/lite/kernels/internal\types.h ****                        const QuantizationParams& qp2) {
 139:C:/Renesas/e2studio_2021_01_workspace_RZA2M_ANPR/ANPR_RZA2M_EBK/src/tensorflow_lite/tensorflow/lite/kernels/internal\types.h ****   return qp1.zero_point == qp2.zero_point && qp1.scale == qp2.scale;
 140:C:/Renesas/e2studio_2021_01_workspace_RZA2M_ANPR/ANPR_RZA2M_EBK/src/tensorflow_lite/tensorflow/lite/kernels/internal\types.h **** }
 141:C:/Renesas/e2studio_2021_01_workspace_RZA2M_ANPR/ANPR_RZA2M_EBK/src/tensorflow_lite/tensorflow/lite/kernels/internal\types.h **** 
 142:C:/Renesas/e2studio_2021_01_workspace_RZA2M_ANPR/ANPR_RZA2M_EBK/src/tensorflow_lite/tensorflow/lite/kernels/internal\types.h **** template <int N>
 143:C:/Renesas/e2studio_2021_01_workspace_RZA2M_ANPR/ANPR_RZA2M_EBK/src/tensorflow_lite/tensorflow/lite/kernels/internal\types.h **** struct Dims {
 144:C:/Renesas/e2studio_2021_01_workspace_RZA2M_ANPR/ANPR_RZA2M_EBK/src/tensorflow_lite/tensorflow/lite/kernels/internal\types.h ****   int sizes[N];
 145:C:/Renesas/e2studio_2021_01_workspace_RZA2M_ANPR/ANPR_RZA2M_EBK/src/tensorflow_lite/tensorflow/lite/kernels/internal\types.h ****   int strides[N];
 146:C:/Renesas/e2studio_2021_01_workspace_RZA2M_ANPR/ANPR_RZA2M_EBK/src/tensorflow_lite/tensorflow/lite/kernels/internal\types.h **** };
 147:C:/Renesas/e2studio_2021_01_workspace_RZA2M_ANPR/ANPR_RZA2M_EBK/src/tensorflow_lite/tensorflow/lite/kernels/internal\types.h **** 
 148:C:/Renesas/e2studio_2021_01_workspace_RZA2M_ANPR/ANPR_RZA2M_EBK/src/tensorflow_lite/tensorflow/lite/kernels/internal\types.h **** class RuntimeShape {
 149:C:/Renesas/e2studio_2021_01_workspace_RZA2M_ANPR/ANPR_RZA2M_EBK/src/tensorflow_lite/tensorflow/lite/kernels/internal\types.h ****  public:
 150:C:/Renesas/e2studio_2021_01_workspace_RZA2M_ANPR/ANPR_RZA2M_EBK/src/tensorflow_lite/tensorflow/lite/kernels/internal\types.h ****   // Shapes with dimensions up to 5 are stored directly in the structure, while
 151:C:/Renesas/e2studio_2021_01_workspace_RZA2M_ANPR/ANPR_RZA2M_EBK/src/tensorflow_lite/tensorflow/lite/kernels/internal\types.h ****   // larger shapes are separately allocated.
 152:C:/Renesas/e2studio_2021_01_workspace_RZA2M_ANPR/ANPR_RZA2M_EBK/src/tensorflow_lite/tensorflow/lite/kernels/internal\types.h ****   static constexpr int kMaxSmallSize = 5;
 153:C:/Renesas/e2studio_2021_01_workspace_RZA2M_ANPR/ANPR_RZA2M_EBK/src/tensorflow_lite/tensorflow/lite/kernels/internal\types.h **** 
 154:C:/Renesas/e2studio_2021_01_workspace_RZA2M_ANPR/ANPR_RZA2M_EBK/src/tensorflow_lite/tensorflow/lite/kernels/internal\types.h ****   RuntimeShape& operator=(RuntimeShape const&) = delete;
 155:C:/Renesas/e2studio_2021_01_workspace_RZA2M_ANPR/ANPR_RZA2M_EBK/src/tensorflow_lite/tensorflow/lite/kernels/internal\types.h **** 
 156:C:/Renesas/e2studio_2021_01_workspace_RZA2M_ANPR/ANPR_RZA2M_EBK/src/tensorflow_lite/tensorflow/lite/kernels/internal\types.h ****   RuntimeShape() : size_(0) {}
 157:C:/Renesas/e2studio_2021_01_workspace_RZA2M_ANPR/ANPR_RZA2M_EBK/src/tensorflow_lite/tensorflow/lite/kernels/internal\types.h **** 
 158:C:/Renesas/e2studio_2021_01_workspace_RZA2M_ANPR/ANPR_RZA2M_EBK/src/tensorflow_lite/tensorflow/lite/kernels/internal\types.h ****   explicit RuntimeShape(int dimensions_count) : size_(dimensions_count) {
 159:C:/Renesas/e2studio_2021_01_workspace_RZA2M_ANPR/ANPR_RZA2M_EBK/src/tensorflow_lite/tensorflow/lite/kernels/internal\types.h ****     if (dimensions_count > kMaxSmallSize) {
 160:C:/Renesas/e2studio_2021_01_workspace_RZA2M_ANPR/ANPR_RZA2M_EBK/src/tensorflow_lite/tensorflow/lite/kernels/internal\types.h **** #ifdef TF_LITE_STATIC_MEMORY
 161:C:/Renesas/e2studio_2021_01_workspace_RZA2M_ANPR/ANPR_RZA2M_EBK/src/tensorflow_lite/tensorflow/lite/kernels/internal\types.h ****       TFLITE_CHECK(false && "No shape resizing supported on this platform");
 162:C:/Renesas/e2studio_2021_01_workspace_RZA2M_ANPR/ANPR_RZA2M_EBK/src/tensorflow_lite/tensorflow/lite/kernels/internal\types.h **** #else  // TF_LITE_STATIC_MEMORY
 163:C:/Renesas/e2studio_2021_01_workspace_RZA2M_ANPR/ANPR_RZA2M_EBK/src/tensorflow_lite/tensorflow/lite/kernels/internal\types.h ****       dims_pointer_ = new int32_t[dimensions_count];
 164:C:/Renesas/e2studio_2021_01_workspace_RZA2M_ANPR/ANPR_RZA2M_EBK/src/tensorflow_lite/tensorflow/lite/kernels/internal\types.h **** #endif  // TF_LITE_STATIC_MEMORY
 165:C:/Renesas/e2studio_2021_01_workspace_RZA2M_ANPR/ANPR_RZA2M_EBK/src/tensorflow_lite/tensorflow/lite/kernels/internal\types.h ****     }
 166:C:/Renesas/e2studio_2021_01_workspace_RZA2M_ANPR/ANPR_RZA2M_EBK/src/tensorflow_lite/tensorflow/lite/kernels/internal\types.h ****   }
 167:C:/Renesas/e2studio_2021_01_workspace_RZA2M_ANPR/ANPR_RZA2M_EBK/src/tensorflow_lite/tensorflow/lite/kernels/internal\types.h **** 
 168:C:/Renesas/e2studio_2021_01_workspace_RZA2M_ANPR/ANPR_RZA2M_EBK/src/tensorflow_lite/tensorflow/lite/kernels/internal\types.h ****   RuntimeShape(int shape_size, int32_t value) : size_(0) {
 169:C:/Renesas/e2studio_2021_01_workspace_RZA2M_ANPR/ANPR_RZA2M_EBK/src/tensorflow_lite/tensorflow/lite/kernels/internal\types.h ****     Resize(shape_size);
 170:C:/Renesas/e2studio_2021_01_workspace_RZA2M_ANPR/ANPR_RZA2M_EBK/src/tensorflow_lite/tensorflow/lite/kernels/internal\types.h ****     for (int i = 0; i < shape_size; ++i) {
 171:C:/Renesas/e2studio_2021_01_workspace_RZA2M_ANPR/ANPR_RZA2M_EBK/src/tensorflow_lite/tensorflow/lite/kernels/internal\types.h ****       SetDim(i, value);
 172:C:/Renesas/e2studio_2021_01_workspace_RZA2M_ANPR/ANPR_RZA2M_EBK/src/tensorflow_lite/tensorflow/lite/kernels/internal\types.h ****     }
 173:C:/Renesas/e2studio_2021_01_workspace_RZA2M_ANPR/ANPR_RZA2M_EBK/src/tensorflow_lite/tensorflow/lite/kernels/internal\types.h ****   }
 174:C:/Renesas/e2studio_2021_01_workspace_RZA2M_ANPR/ANPR_RZA2M_EBK/src/tensorflow_lite/tensorflow/lite/kernels/internal\types.h **** 
 175:C:/Renesas/e2studio_2021_01_workspace_RZA2M_ANPR/ANPR_RZA2M_EBK/src/tensorflow_lite/tensorflow/lite/kernels/internal\types.h ****   RuntimeShape(int dimensions_count, const int32_t* dims_data) : size_(0) {
 176:C:/Renesas/e2studio_2021_01_workspace_RZA2M_ANPR/ANPR_RZA2M_EBK/src/tensorflow_lite/tensorflow/lite/kernels/internal\types.h ****     ReplaceWith(dimensions_count, dims_data);
 177:C:/Renesas/e2studio_2021_01_workspace_RZA2M_ANPR/ANPR_RZA2M_EBK/src/tensorflow_lite/tensorflow/lite/kernels/internal\types.h ****   }
 178:C:/Renesas/e2studio_2021_01_workspace_RZA2M_ANPR/ANPR_RZA2M_EBK/src/tensorflow_lite/tensorflow/lite/kernels/internal\types.h **** 
 179:C:/Renesas/e2studio_2021_01_workspace_RZA2M_ANPR/ANPR_RZA2M_EBK/src/tensorflow_lite/tensorflow/lite/kernels/internal\types.h ****   RuntimeShape(const std::initializer_list<int> init_list) : size_(0) {
 180:C:/Renesas/e2studio_2021_01_workspace_RZA2M_ANPR/ANPR_RZA2M_EBK/src/tensorflow_lite/tensorflow/lite/kernels/internal\types.h ****     BuildFrom(init_list);
 181:C:/Renesas/e2studio_2021_01_workspace_RZA2M_ANPR/ANPR_RZA2M_EBK/src/tensorflow_lite/tensorflow/lite/kernels/internal\types.h ****   }
 182:C:/Renesas/e2studio_2021_01_workspace_RZA2M_ANPR/ANPR_RZA2M_EBK/src/tensorflow_lite/tensorflow/lite/kernels/internal\types.h **** 
 183:C:/Renesas/e2studio_2021_01_workspace_RZA2M_ANPR/ANPR_RZA2M_EBK/src/tensorflow_lite/tensorflow/lite/kernels/internal\types.h ****   // Avoid using this constructor.  We should be able to delete it when C++17
 184:C:/Renesas/e2studio_2021_01_workspace_RZA2M_ANPR/ANPR_RZA2M_EBK/src/tensorflow_lite/tensorflow/lite/kernels/internal\types.h ****   // rolls out.
 185:C:/Renesas/e2studio_2021_01_workspace_RZA2M_ANPR/ANPR_RZA2M_EBK/src/tensorflow_lite/tensorflow/lite/kernels/internal\types.h ****   RuntimeShape(RuntimeShape const& other) : size_(other.DimensionsCount()) {
 186:C:/Renesas/e2studio_2021_01_workspace_RZA2M_ANPR/ANPR_RZA2M_EBK/src/tensorflow_lite/tensorflow/lite/kernels/internal\types.h ****     if (size_ > kMaxSmallSize) {
 187:C:/Renesas/e2studio_2021_01_workspace_RZA2M_ANPR/ANPR_RZA2M_EBK/src/tensorflow_lite/tensorflow/lite/kernels/internal\types.h **** #ifdef TF_LITE_STATIC_MEMORY
 188:C:/Renesas/e2studio_2021_01_workspace_RZA2M_ANPR/ANPR_RZA2M_EBK/src/tensorflow_lite/tensorflow/lite/kernels/internal\types.h ****       TFLITE_CHECK(false && "No shape resizing supported on this platform");
 189:C:/Renesas/e2studio_2021_01_workspace_RZA2M_ANPR/ANPR_RZA2M_EBK/src/tensorflow_lite/tensorflow/lite/kernels/internal\types.h **** #else
 190:C:/Renesas/e2studio_2021_01_workspace_RZA2M_ANPR/ANPR_RZA2M_EBK/src/tensorflow_lite/tensorflow/lite/kernels/internal\types.h ****       dims_pointer_ = new int32_t[size_];
 191:C:/Renesas/e2studio_2021_01_workspace_RZA2M_ANPR/ANPR_RZA2M_EBK/src/tensorflow_lite/tensorflow/lite/kernels/internal\types.h **** #endif
 192:C:/Renesas/e2studio_2021_01_workspace_RZA2M_ANPR/ANPR_RZA2M_EBK/src/tensorflow_lite/tensorflow/lite/kernels/internal\types.h ****     }
 193:C:/Renesas/e2studio_2021_01_workspace_RZA2M_ANPR/ANPR_RZA2M_EBK/src/tensorflow_lite/tensorflow/lite/kernels/internal\types.h ****     std::memcpy(DimsData(), other.DimsData(), sizeof(int32_t) * size_);
 194:C:/Renesas/e2studio_2021_01_workspace_RZA2M_ANPR/ANPR_RZA2M_EBK/src/tensorflow_lite/tensorflow/lite/kernels/internal\types.h ****   }
 195:C:/Renesas/e2studio_2021_01_workspace_RZA2M_ANPR/ANPR_RZA2M_EBK/src/tensorflow_lite/tensorflow/lite/kernels/internal\types.h **** 
 196:C:/Renesas/e2studio_2021_01_workspace_RZA2M_ANPR/ANPR_RZA2M_EBK/src/tensorflow_lite/tensorflow/lite/kernels/internal\types.h ****   bool operator==(const RuntimeShape& comp) const {
 197:C:/Renesas/e2studio_2021_01_workspace_RZA2M_ANPR/ANPR_RZA2M_EBK/src/tensorflow_lite/tensorflow/lite/kernels/internal\types.h ****     return this->size_ == comp.size_ &&
 198:C:/Renesas/e2studio_2021_01_workspace_RZA2M_ANPR/ANPR_RZA2M_EBK/src/tensorflow_lite/tensorflow/lite/kernels/internal\types.h ****            std::memcmp(DimsData(), comp.DimsData(), size_ * sizeof(int32_t)) ==
 199:C:/Renesas/e2studio_2021_01_workspace_RZA2M_ANPR/ANPR_RZA2M_EBK/src/tensorflow_lite/tensorflow/lite/kernels/internal\types.h ****                0;
 200:C:/Renesas/e2studio_2021_01_workspace_RZA2M_ANPR/ANPR_RZA2M_EBK/src/tensorflow_lite/tensorflow/lite/kernels/internal\types.h ****   }
 201:C:/Renesas/e2studio_2021_01_workspace_RZA2M_ANPR/ANPR_RZA2M_EBK/src/tensorflow_lite/tensorflow/lite/kernels/internal\types.h **** 
 202:C:/Renesas/e2studio_2021_01_workspace_RZA2M_ANPR/ANPR_RZA2M_EBK/src/tensorflow_lite/tensorflow/lite/kernels/internal\types.h ****   ~RuntimeShape() {
 203:C:/Renesas/e2studio_2021_01_workspace_RZA2M_ANPR/ANPR_RZA2M_EBK/src/tensorflow_lite/tensorflow/lite/kernels/internal\types.h ****     if (size_ > kMaxSmallSize) {
 894              		.loc 4 203 0
 895 00bc 050053E3 		cmp	r3, #5
 896 00c0 040000DA 		ble	.L161
 897 00c4 6C209DE5 		ldr	r2, [sp, #108]
 898              	.LVL108:
 899              	.L68:
 204:C:/Renesas/e2studio_2021_01_workspace_RZA2M_ANPR/ANPR_RZA2M_EBK/src/tensorflow_lite/tensorflow/lite/kernels/internal\types.h **** #ifdef TF_LITE_STATIC_MEMORY
 205:C:/Renesas/e2studio_2021_01_workspace_RZA2M_ANPR/ANPR_RZA2M_EBK/src/tensorflow_lite/tensorflow/lite/kernels/internal\types.h ****       TFLITE_CHECK(false && "No shape resizing supported on this platform");
 206:C:/Renesas/e2studio_2021_01_workspace_RZA2M_ANPR/ANPR_RZA2M_EBK/src/tensorflow_lite/tensorflow/lite/kernels/internal\types.h **** #else  // TF_LITE_STATIC_MEMORY
 207:C:/Renesas/e2studio_2021_01_workspace_RZA2M_ANPR/ANPR_RZA2M_EBK/src/tensorflow_lite/tensorflow/lite/kernels/internal\types.h ****       delete[] dims_pointer_;
 900              		.loc 4 207 0
 901 00c8 000052E3 		cmp	r2, #0
 902 00cc 0100000A 		beq	.L161
 903 00d0 0200A0E1 		mov	r0, r2
 904 00d4 FEFFFFEB 		bl	_ZdaPv
 905              	.LVL109:
 906              	.L161:
 907              	.LBE342:
 908              	.LBE341:
 119:../src/tensorflow_lite/tensorflow/lite/micro/kernels/cumsum.cc ****   }
 120:../src/tensorflow_lite/tensorflow/lite/micro/kernels/cumsum.cc **** 
 121:../src/tensorflow_lite/tensorflow/lite/micro/kernels/cumsum.cc ****   switch (input->type) {
 122:../src/tensorflow_lite/tensorflow/lite/micro/kernels/cumsum.cc ****     case kTfLiteFloat32: {
 123:../src/tensorflow_lite/tensorflow/lite/micro/kernels/cumsum.cc ****       reference_ops::CumSum(tflite::micro::GetTensorData<float>(input),
 124:../src/tensorflow_lite/tensorflow/lite/micro/kernels/cumsum.cc ****                             input_shape, axis, cs_params->exclusive,
 125:../src/tensorflow_lite/tensorflow/lite/micro/kernels/cumsum.cc ****                             cs_params->reverse,
 126:../src/tensorflow_lite/tensorflow/lite/micro/kernels/cumsum.cc ****                             tflite::micro::GetTensorData<float>(output));
 127:../src/tensorflow_lite/tensorflow/lite/micro/kernels/cumsum.cc ****       return kTfLiteOk;
 128:../src/tensorflow_lite/tensorflow/lite/micro/kernels/cumsum.cc ****     } break;
 129:../src/tensorflow_lite/tensorflow/lite/micro/kernels/cumsum.cc **** 
 130:../src/tensorflow_lite/tensorflow/lite/micro/kernels/cumsum.cc ****     case kTfLiteInt8: {
 131:../src/tensorflow_lite/tensorflow/lite/micro/kernels/cumsum.cc ****       auto* data = static_cast<OpData*>(node->user_data);
 132:../src/tensorflow_lite/tensorflow/lite/micro/kernels/cumsum.cc ****       ArithmeticParams params;
 133:../src/tensorflow_lite/tensorflow/lite/micro/kernels/cumsum.cc ****       params.left_shift = data->left_shift;
 134:../src/tensorflow_lite/tensorflow/lite/micro/kernels/cumsum.cc ****       params.input1_offset = data->input_offset;
 135:../src/tensorflow_lite/tensorflow/lite/micro/kernels/cumsum.cc ****       params.input1_multiplier = data->input_multiplier;
 136:../src/tensorflow_lite/tensorflow/lite/micro/kernels/cumsum.cc ****       params.input1_shift = data->input_shift;
 137:../src/tensorflow_lite/tensorflow/lite/micro/kernels/cumsum.cc ****       params.output_offset = data->output_offset;
 138:../src/tensorflow_lite/tensorflow/lite/micro/kernels/cumsum.cc ****       params.output_multiplier = data->output_multiplier;
 139:../src/tensorflow_lite/tensorflow/lite/micro/kernels/cumsum.cc ****       params.output_shift = data->output_shift;
 140:../src/tensorflow_lite/tensorflow/lite/micro/kernels/cumsum.cc ****       SetActivationParams(data->output_activation_min,
 141:../src/tensorflow_lite/tensorflow/lite/micro/kernels/cumsum.cc ****                           data->output_activation_max, &params);
 142:../src/tensorflow_lite/tensorflow/lite/micro/kernels/cumsum.cc ****       reference_ops::CumSum(params, tflite::micro::GetTensorData<int8_t>(input),
 143:../src/tensorflow_lite/tensorflow/lite/micro/kernels/cumsum.cc ****                             input_shape, axis, cs_params->exclusive,
 144:../src/tensorflow_lite/tensorflow/lite/micro/kernels/cumsum.cc ****                             cs_params->reverse,
 145:../src/tensorflow_lite/tensorflow/lite/micro/kernels/cumsum.cc ****                             tflite::micro::GetTensorData<int8_t>(output));
 146:../src/tensorflow_lite/tensorflow/lite/micro/kernels/cumsum.cc ****       return kTfLiteOk;
 147:../src/tensorflow_lite/tensorflow/lite/micro/kernels/cumsum.cc ****     } break;
 148:../src/tensorflow_lite/tensorflow/lite/micro/kernels/cumsum.cc **** 
 149:../src/tensorflow_lite/tensorflow/lite/micro/kernels/cumsum.cc ****     default: {
 150:../src/tensorflow_lite/tensorflow/lite/micro/kernels/cumsum.cc ****       TF_LITE_KERNEL_LOG(context,
 151:../src/tensorflow_lite/tensorflow/lite/micro/kernels/cumsum.cc ****                          "CUMSUM only supports FLOAT32 and INT8, got %s.",
 152:../src/tensorflow_lite/tensorflow/lite/micro/kernels/cumsum.cc ****                          TfLiteTypeGetName(output->type));
 153:../src/tensorflow_lite/tensorflow/lite/micro/kernels/cumsum.cc ****       return kTfLiteError;
 154:../src/tensorflow_lite/tensorflow/lite/micro/kernels/cumsum.cc ****     }
 155:../src/tensorflow_lite/tensorflow/lite/micro/kernels/cumsum.cc ****   }
 156:../src/tensorflow_lite/tensorflow/lite/micro/kernels/cumsum.cc **** 
 157:../src/tensorflow_lite/tensorflow/lite/micro/kernels/cumsum.cc ****   return kTfLiteError;
 158:../src/tensorflow_lite/tensorflow/lite/micro/kernels/cumsum.cc **** }
 909              		.loc 1 158 0
 910 00d8 0A00A0E1 		mov	r0, r10
 911 00dc 84D08DE2 		add	sp, sp, #132
 912              		.cfi_remember_state
 913              		.cfi_def_cfa_offset 36
 914              		@ sp needed
 915 00e0 F08FBDE8 		pop	{r4, r5, r6, r7, r8, r9, r10, fp, pc}
 916              	.LVL110:
 917              	.L218:
 918              		.cfi_restore_state
 919              	.LBB343:
 121:../src/tensorflow_lite/tensorflow/lite/micro/kernels/cumsum.cc ****     case kTfLiteFloat32: {
 920              		.loc 1 121 0
 921 00e4 0830D8E5 		ldrb	r3, [r8, #8]	@ zero_extendqisi2
 922 00e8 010053E3 		cmp	r3, #1
 923 00ec 2801000A 		beq	.L45
 924 00f0 090053E3 		cmp	r3, #9
 925 00f4 9901001A 		bne	.L219
 926              	.LBB344:
 927              	.LBB345:
 928              	.LBB346:
 929              	.LBB347:
  63:C:/Renesas/e2studio_2021_01_workspace_RZA2M_ANPR/ANPR_RZA2M_EBK/src/tensorflow_lite/tensorflow/lite/micro/kernels\kernel_util.h ****   return reinterpret_cast<const T*>(tensor->data.raw);
 930              		.loc 3 63 0
 931 00f8 002098E5 		ldr	r2, [r8]
 932              	.LBE347:
 933              	.LBE346:
 934              	.LBB349:
 935              	.LBB350:
  56:C:/Renesas/e2studio_2021_01_workspace_RZA2M_ANPR/ANPR_RZA2M_EBK/src/tensorflow_lite/tensorflow/lite/micro/kernels\kernel_util.h **** }
 936              		.loc 3 56 0
 937 00fc 000054E3 		cmp	r4, #0
 938              	.LBE350:
 939              	.LBE349:
 131:../src/tensorflow_lite/tensorflow/lite/micro/kernels/cumsum.cc ****       ArithmeticParams params;
 940              		.loc 1 131 0
 941 0100 103097E5 		ldr	r3, [r7, #16]
 942              	.LVL111:
 943              	.LBB353:
 944              	.LBB351:
  56:C:/Renesas/e2studio_2021_01_workspace_RZA2M_ANPR/ANPR_RZA2M_EBK/src/tensorflow_lite/tensorflow/lite/micro/kernels\kernel_util.h **** }
 945              		.loc 3 56 0
 946 0104 1C408D05 		streq	r4, [sp, #28]
 947              	.LBE351:
 948              	.LBE353:
 949              	.LBB354:
 950              	.LBB348:
 951              		.loc 3 63 0
 952 0108 2C208DE5 		str	r2, [sp, #44]
 953              	.LBE348:
 954              	.LBE354:
 142:../src/tensorflow_lite/tensorflow/lite/micro/kernels/cumsum.cc ****                             input_shape, axis, cs_params->exclusive,
 955              		.loc 1 142 0
 956 010c 0020D5E5 		ldrb	r2, [r5]	@ zero_extendqisi2
 140:../src/tensorflow_lite/tensorflow/lite/micro/kernels/cumsum.cc ****                           data->output_activation_max, &params);
 957              		.loc 1 140 0
 958 0110 008093E5 		ldr	r8, [r3]
 959 0114 046093E5 		ldr	r6, [r3, #4]
 960              	.LVL112:
 142:../src/tensorflow_lite/tensorflow/lite/micro/kernels/cumsum.cc ****                             input_shape, axis, cs_params->exclusive,
 961              		.loc 1 142 0
 962 0118 28208DE5 		str	r2, [sp, #40]
 133:../src/tensorflow_lite/tensorflow/lite/micro/kernels/cumsum.cc ****       params.input1_offset = data->input_offset;
 963              		.loc 1 133 0
 964 011c 202093E5 		ldr	r2, [r3, #32]
 135:../src/tensorflow_lite/tensorflow/lite/micro/kernels/cumsum.cc ****       params.input1_shift = data->input_shift;
 965              		.loc 1 135 0
 966 0120 10A093E5 		ldr	r10, [r3, #16]
 138:../src/tensorflow_lite/tensorflow/lite/micro/kernels/cumsum.cc ****       params.output_shift = data->output_shift;
 967              		.loc 1 138 0
 968 0124 147093E5 		ldr	r7, [r3, #20]
 969              	.LVL113:
 133:../src/tensorflow_lite/tensorflow/lite/micro/kernels/cumsum.cc ****       params.input1_offset = data->input_offset;
 970              		.loc 1 133 0
 971 0128 18208DE5 		str	r2, [sp, #24]
 972              	.LVL114:
 134:../src/tensorflow_lite/tensorflow/lite/micro/kernels/cumsum.cc ****       params.input1_multiplier = data->input_multiplier;
 973              		.loc 1 134 0
 974 012c 082093E5 		ldr	r2, [r3, #8]
 975              	.LVL115:
 139:../src/tensorflow_lite/tensorflow/lite/micro/kernels/cumsum.cc ****       SetActivationParams(data->output_activation_min,
 976              		.loc 1 139 0
 977 0130 1C9093E5 		ldr	r9, [r3, #28]
 134:../src/tensorflow_lite/tensorflow/lite/micro/kernels/cumsum.cc ****       params.input1_multiplier = data->input_multiplier;
 978              		.loc 1 134 0
 979 0134 14208DE5 		str	r2, [sp, #20]
 980              	.LVL116:
 136:../src/tensorflow_lite/tensorflow/lite/micro/kernels/cumsum.cc ****       params.output_offset = data->output_offset;
 981              		.loc 1 136 0
 982 0138 182093E5 		ldr	r2, [r3, #24]
 983              	.LVL117:
 984 013c 4C208DE5 		str	r2, [sp, #76]
 137:../src/tensorflow_lite/tensorflow/lite/micro/kernels/cumsum.cc ****       params.output_multiplier = data->output_multiplier;
 985              		.loc 1 137 0
 986 0140 0C2093E5 		ldr	r2, [r3, #12]
 142:../src/tensorflow_lite/tensorflow/lite/micro/kernels/cumsum.cc ****                             input_shape, axis, cs_params->exclusive,
 987              		.loc 1 142 0
 988 0144 0130D5E5 		ldrb	r3, [r5, #1]	@ zero_extendqisi2
 989              	.LVL118:
 137:../src/tensorflow_lite/tensorflow/lite/micro/kernels/cumsum.cc ****       params.output_multiplier = data->output_multiplier;
 990              		.loc 1 137 0
 991 0148 24208DE5 		str	r2, [sp, #36]
 992              	.LVL119:
 142:../src/tensorflow_lite/tensorflow/lite/micro/kernels/cumsum.cc ****                             input_shape, axis, cs_params->exclusive,
 993              		.loc 1 142 0
 994 014c 00308DE5 		str	r3, [sp]
 995              	.LVL120:
 996              	.LBB355:
 997              	.LBB352:
  56:C:/Renesas/e2studio_2021_01_workspace_RZA2M_ANPR/ANPR_RZA2M_EBK/src/tensorflow_lite/tensorflow/lite/micro/kernels\kernel_util.h **** }
 998              		.loc 3 56 0
 999 0150 00309415 		ldrne	r3, [r4]
 1000 0154 1C308D15 		strne	r3, [sp, #28]
 1001              	.LVL121:
 1002              	.LBE352:
 1003              	.LBE355:
 1004              	.LBB356:
 1005              	.LBB357:
 1006              		.file 5 "C:/Renesas/e2studio_2021_01_workspace_RZA2M_ANPR/ANPR_RZA2M_EBK/src/tensorflow_lite/tenso
   1:C:/Renesas/e2studio_2021_01_workspace_RZA2M_ANPR/ANPR_RZA2M_EBK/src/tensorflow_lite/tensorflow/lite/kernels/internal/reference\cumsum.h **** /* Copyright 2021 The TensorFlow Authors. All Rights Reserved.
   2:C:/Renesas/e2studio_2021_01_workspace_RZA2M_ANPR/ANPR_RZA2M_EBK/src/tensorflow_lite/tensorflow/lite/kernels/internal/reference\cumsum.h **** 
   3:C:/Renesas/e2studio_2021_01_workspace_RZA2M_ANPR/ANPR_RZA2M_EBK/src/tensorflow_lite/tensorflow/lite/kernels/internal/reference\cumsum.h **** Licensed under the Apache License, Version 2.0 (the "License");
   4:C:/Renesas/e2studio_2021_01_workspace_RZA2M_ANPR/ANPR_RZA2M_EBK/src/tensorflow_lite/tensorflow/lite/kernels/internal/reference\cumsum.h **** you may not use this file except in compliance with the License.
   5:C:/Renesas/e2studio_2021_01_workspace_RZA2M_ANPR/ANPR_RZA2M_EBK/src/tensorflow_lite/tensorflow/lite/kernels/internal/reference\cumsum.h **** You may obtain a copy of the License at
   6:C:/Renesas/e2studio_2021_01_workspace_RZA2M_ANPR/ANPR_RZA2M_EBK/src/tensorflow_lite/tensorflow/lite/kernels/internal/reference\cumsum.h **** 
   7:C:/Renesas/e2studio_2021_01_workspace_RZA2M_ANPR/ANPR_RZA2M_EBK/src/tensorflow_lite/tensorflow/lite/kernels/internal/reference\cumsum.h ****     http://www.apache.org/licenses/LICENSE-2.0
   8:C:/Renesas/e2studio_2021_01_workspace_RZA2M_ANPR/ANPR_RZA2M_EBK/src/tensorflow_lite/tensorflow/lite/kernels/internal/reference\cumsum.h **** 
   9:C:/Renesas/e2studio_2021_01_workspace_RZA2M_ANPR/ANPR_RZA2M_EBK/src/tensorflow_lite/tensorflow/lite/kernels/internal/reference\cumsum.h **** Unless required by applicable law or agreed to in writing, software
  10:C:/Renesas/e2studio_2021_01_workspace_RZA2M_ANPR/ANPR_RZA2M_EBK/src/tensorflow_lite/tensorflow/lite/kernels/internal/reference\cumsum.h **** distributed under the License is distributed on an "AS IS" BASIS,
  11:C:/Renesas/e2studio_2021_01_workspace_RZA2M_ANPR/ANPR_RZA2M_EBK/src/tensorflow_lite/tensorflow/lite/kernels/internal/reference\cumsum.h **** WITHOUT WARRANTIES OR CONDITIONS OF ANY KIND, either express or implied.
  12:C:/Renesas/e2studio_2021_01_workspace_RZA2M_ANPR/ANPR_RZA2M_EBK/src/tensorflow_lite/tensorflow/lite/kernels/internal/reference\cumsum.h **** See the License for the specific language governing permissions and
  13:C:/Renesas/e2studio_2021_01_workspace_RZA2M_ANPR/ANPR_RZA2M_EBK/src/tensorflow_lite/tensorflow/lite/kernels/internal/reference\cumsum.h **** limitations under the License.
  14:C:/Renesas/e2studio_2021_01_workspace_RZA2M_ANPR/ANPR_RZA2M_EBK/src/tensorflow_lite/tensorflow/lite/kernels/internal/reference\cumsum.h **** ==============================================================================*/
  15:C:/Renesas/e2studio_2021_01_workspace_RZA2M_ANPR/ANPR_RZA2M_EBK/src/tensorflow_lite/tensorflow/lite/kernels/internal/reference\cumsum.h **** #ifndef TENSORFLOW_LITE_KERNELS_INTERNAL_REFERENCE_CUMSUM_H_
  16:C:/Renesas/e2studio_2021_01_workspace_RZA2M_ANPR/ANPR_RZA2M_EBK/src/tensorflow_lite/tensorflow/lite/kernels/internal/reference\cumsum.h **** #define TENSORFLOW_LITE_KERNELS_INTERNAL_REFERENCE_CUMSUM_H_
  17:C:/Renesas/e2studio_2021_01_workspace_RZA2M_ANPR/ANPR_RZA2M_EBK/src/tensorflow_lite/tensorflow/lite/kernels/internal/reference\cumsum.h **** 
  18:C:/Renesas/e2studio_2021_01_workspace_RZA2M_ANPR/ANPR_RZA2M_EBK/src/tensorflow_lite/tensorflow/lite/kernels/internal/reference\cumsum.h **** #include <algorithm>
  19:C:/Renesas/e2studio_2021_01_workspace_RZA2M_ANPR/ANPR_RZA2M_EBK/src/tensorflow_lite/tensorflow/lite/kernels/internal/reference\cumsum.h **** #include <cstdint>
  20:C:/Renesas/e2studio_2021_01_workspace_RZA2M_ANPR/ANPR_RZA2M_EBK/src/tensorflow_lite/tensorflow/lite/kernels/internal/reference\cumsum.h **** #include <limits>
  21:C:/Renesas/e2studio_2021_01_workspace_RZA2M_ANPR/ANPR_RZA2M_EBK/src/tensorflow_lite/tensorflow/lite/kernels/internal/reference\cumsum.h **** 
  22:C:/Renesas/e2studio_2021_01_workspace_RZA2M_ANPR/ANPR_RZA2M_EBK/src/tensorflow_lite/tensorflow/lite/kernels/internal/reference\cumsum.h **** #include "tensorflow/lite/kernels/internal/common.h"
  23:C:/Renesas/e2studio_2021_01_workspace_RZA2M_ANPR/ANPR_RZA2M_EBK/src/tensorflow_lite/tensorflow/lite/kernels/internal/reference\cumsum.h **** #include "tensorflow/lite/kernels/internal/compatibility.h"
  24:C:/Renesas/e2studio_2021_01_workspace_RZA2M_ANPR/ANPR_RZA2M_EBK/src/tensorflow_lite/tensorflow/lite/kernels/internal/reference\cumsum.h **** 
  25:C:/Renesas/e2studio_2021_01_workspace_RZA2M_ANPR/ANPR_RZA2M_EBK/src/tensorflow_lite/tensorflow/lite/kernels/internal/reference\cumsum.h **** namespace tflite {
  26:C:/Renesas/e2studio_2021_01_workspace_RZA2M_ANPR/ANPR_RZA2M_EBK/src/tensorflow_lite/tensorflow/lite/kernels/internal/reference\cumsum.h **** namespace reference_ops {
  27:C:/Renesas/e2studio_2021_01_workspace_RZA2M_ANPR/ANPR_RZA2M_EBK/src/tensorflow_lite/tensorflow/lite/kernels/internal/reference\cumsum.h **** 
  28:C:/Renesas/e2studio_2021_01_workspace_RZA2M_ANPR/ANPR_RZA2M_EBK/src/tensorflow_lite/tensorflow/lite/kernels/internal/reference\cumsum.h **** template <typename T>
  29:C:/Renesas/e2studio_2021_01_workspace_RZA2M_ANPR/ANPR_RZA2M_EBK/src/tensorflow_lite/tensorflow/lite/kernels/internal/reference\cumsum.h **** inline void CumSum(const T* input_data, const RuntimeShape& shape, int32_t axis,
  30:C:/Renesas/e2studio_2021_01_workspace_RZA2M_ANPR/ANPR_RZA2M_EBK/src/tensorflow_lite/tensorflow/lite/kernels/internal/reference\cumsum.h ****                    bool exclusive, bool reverse, T* output_data) {
  31:C:/Renesas/e2studio_2021_01_workspace_RZA2M_ANPR/ANPR_RZA2M_EBK/src/tensorflow_lite/tensorflow/lite/kernels/internal/reference\cumsum.h ****   const int32_t rank = shape.DimensionsCount();
  32:C:/Renesas/e2studio_2021_01_workspace_RZA2M_ANPR/ANPR_RZA2M_EBK/src/tensorflow_lite/tensorflow/lite/kernels/internal/reference\cumsum.h ****   TFLITE_DCHECK_GE(rank, 1);
  33:C:/Renesas/e2studio_2021_01_workspace_RZA2M_ANPR/ANPR_RZA2M_EBK/src/tensorflow_lite/tensorflow/lite/kernels/internal/reference\cumsum.h ****   TFLITE_DCHECK_GE(axis, 0);
  34:C:/Renesas/e2studio_2021_01_workspace_RZA2M_ANPR/ANPR_RZA2M_EBK/src/tensorflow_lite/tensorflow/lite/kernels/internal/reference\cumsum.h ****   TFLITE_DCHECK_LT(axis, rank);
  35:C:/Renesas/e2studio_2021_01_workspace_RZA2M_ANPR/ANPR_RZA2M_EBK/src/tensorflow_lite/tensorflow/lite/kernels/internal/reference\cumsum.h **** 
  36:C:/Renesas/e2studio_2021_01_workspace_RZA2M_ANPR/ANPR_RZA2M_EBK/src/tensorflow_lite/tensorflow/lite/kernels/internal/reference\cumsum.h ****   size_t inner = 1;
  37:C:/Renesas/e2studio_2021_01_workspace_RZA2M_ANPR/ANPR_RZA2M_EBK/src/tensorflow_lite/tensorflow/lite/kernels/internal/reference\cumsum.h ****   size_t outer = 1;
  38:C:/Renesas/e2studio_2021_01_workspace_RZA2M_ANPR/ANPR_RZA2M_EBK/src/tensorflow_lite/tensorflow/lite/kernels/internal/reference\cumsum.h ****   size_t depth = 1;
  39:C:/Renesas/e2studio_2021_01_workspace_RZA2M_ANPR/ANPR_RZA2M_EBK/src/tensorflow_lite/tensorflow/lite/kernels/internal/reference\cumsum.h ****   for (int32_t i = 0; i < rank; i++) {
  40:C:/Renesas/e2studio_2021_01_workspace_RZA2M_ANPR/ANPR_RZA2M_EBK/src/tensorflow_lite/tensorflow/lite/kernels/internal/reference\cumsum.h ****     if (i < axis)
  41:C:/Renesas/e2studio_2021_01_workspace_RZA2M_ANPR/ANPR_RZA2M_EBK/src/tensorflow_lite/tensorflow/lite/kernels/internal/reference\cumsum.h ****       inner *= shape.Dims(i);
  42:C:/Renesas/e2studio_2021_01_workspace_RZA2M_ANPR/ANPR_RZA2M_EBK/src/tensorflow_lite/tensorflow/lite/kernels/internal/reference\cumsum.h ****     else if (i > axis)
  43:C:/Renesas/e2studio_2021_01_workspace_RZA2M_ANPR/ANPR_RZA2M_EBK/src/tensorflow_lite/tensorflow/lite/kernels/internal/reference\cumsum.h ****       outer *= shape.Dims(i);
  44:C:/Renesas/e2studio_2021_01_workspace_RZA2M_ANPR/ANPR_RZA2M_EBK/src/tensorflow_lite/tensorflow/lite/kernels/internal/reference\cumsum.h ****     else
  45:C:/Renesas/e2studio_2021_01_workspace_RZA2M_ANPR/ANPR_RZA2M_EBK/src/tensorflow_lite/tensorflow/lite/kernels/internal/reference\cumsum.h ****       depth = shape.Dims(i);
  46:C:/Renesas/e2studio_2021_01_workspace_RZA2M_ANPR/ANPR_RZA2M_EBK/src/tensorflow_lite/tensorflow/lite/kernels/internal/reference\cumsum.h ****   }
  47:C:/Renesas/e2studio_2021_01_workspace_RZA2M_ANPR/ANPR_RZA2M_EBK/src/tensorflow_lite/tensorflow/lite/kernels/internal/reference\cumsum.h **** 
  48:C:/Renesas/e2studio_2021_01_workspace_RZA2M_ANPR/ANPR_RZA2M_EBK/src/tensorflow_lite/tensorflow/lite/kernels/internal/reference\cumsum.h ****   for (size_t outer_index = 0; outer_index < outer; outer_index++) {
  49:C:/Renesas/e2studio_2021_01_workspace_RZA2M_ANPR/ANPR_RZA2M_EBK/src/tensorflow_lite/tensorflow/lite/kernels/internal/reference\cumsum.h ****     size_t outer_index_adj;
  50:C:/Renesas/e2studio_2021_01_workspace_RZA2M_ANPR/ANPR_RZA2M_EBK/src/tensorflow_lite/tensorflow/lite/kernels/internal/reference\cumsum.h ****     if (reverse)
  51:C:/Renesas/e2studio_2021_01_workspace_RZA2M_ANPR/ANPR_RZA2M_EBK/src/tensorflow_lite/tensorflow/lite/kernels/internal/reference\cumsum.h ****       outer_index_adj = (outer - 1) - outer_index;
  52:C:/Renesas/e2studio_2021_01_workspace_RZA2M_ANPR/ANPR_RZA2M_EBK/src/tensorflow_lite/tensorflow/lite/kernels/internal/reference\cumsum.h ****     else
  53:C:/Renesas/e2studio_2021_01_workspace_RZA2M_ANPR/ANPR_RZA2M_EBK/src/tensorflow_lite/tensorflow/lite/kernels/internal/reference\cumsum.h ****       outer_index_adj = outer_index;
  54:C:/Renesas/e2studio_2021_01_workspace_RZA2M_ANPR/ANPR_RZA2M_EBK/src/tensorflow_lite/tensorflow/lite/kernels/internal/reference\cumsum.h ****     for (size_t inner_index = 0; inner_index < inner; inner_index++) {
  55:C:/Renesas/e2studio_2021_01_workspace_RZA2M_ANPR/ANPR_RZA2M_EBK/src/tensorflow_lite/tensorflow/lite/kernels/internal/reference\cumsum.h ****       T accumulator = 0;
  56:C:/Renesas/e2studio_2021_01_workspace_RZA2M_ANPR/ANPR_RZA2M_EBK/src/tensorflow_lite/tensorflow/lite/kernels/internal/reference\cumsum.h ****       size_t inner_index_adj;
  57:C:/Renesas/e2studio_2021_01_workspace_RZA2M_ANPR/ANPR_RZA2M_EBK/src/tensorflow_lite/tensorflow/lite/kernels/internal/reference\cumsum.h ****       if (reverse)
  58:C:/Renesas/e2studio_2021_01_workspace_RZA2M_ANPR/ANPR_RZA2M_EBK/src/tensorflow_lite/tensorflow/lite/kernels/internal/reference\cumsum.h ****         inner_index_adj = (inner - 1) - inner_index;
  59:C:/Renesas/e2studio_2021_01_workspace_RZA2M_ANPR/ANPR_RZA2M_EBK/src/tensorflow_lite/tensorflow/lite/kernels/internal/reference\cumsum.h ****       else
  60:C:/Renesas/e2studio_2021_01_workspace_RZA2M_ANPR/ANPR_RZA2M_EBK/src/tensorflow_lite/tensorflow/lite/kernels/internal/reference\cumsum.h ****         inner_index_adj = inner_index;
  61:C:/Renesas/e2studio_2021_01_workspace_RZA2M_ANPR/ANPR_RZA2M_EBK/src/tensorflow_lite/tensorflow/lite/kernels/internal/reference\cumsum.h ****       for (size_t depth_index = 0; depth_index < depth; depth_index++) {
  62:C:/Renesas/e2studio_2021_01_workspace_RZA2M_ANPR/ANPR_RZA2M_EBK/src/tensorflow_lite/tensorflow/lite/kernels/internal/reference\cumsum.h ****         size_t depth_index_adj;
  63:C:/Renesas/e2studio_2021_01_workspace_RZA2M_ANPR/ANPR_RZA2M_EBK/src/tensorflow_lite/tensorflow/lite/kernels/internal/reference\cumsum.h ****         if (reverse)
  64:C:/Renesas/e2studio_2021_01_workspace_RZA2M_ANPR/ANPR_RZA2M_EBK/src/tensorflow_lite/tensorflow/lite/kernels/internal/reference\cumsum.h ****           depth_index_adj = (depth - 1) - depth_index;
  65:C:/Renesas/e2studio_2021_01_workspace_RZA2M_ANPR/ANPR_RZA2M_EBK/src/tensorflow_lite/tensorflow/lite/kernels/internal/reference\cumsum.h ****         else
  66:C:/Renesas/e2studio_2021_01_workspace_RZA2M_ANPR/ANPR_RZA2M_EBK/src/tensorflow_lite/tensorflow/lite/kernels/internal/reference\cumsum.h ****           depth_index_adj = depth_index;
  67:C:/Renesas/e2studio_2021_01_workspace_RZA2M_ANPR/ANPR_RZA2M_EBK/src/tensorflow_lite/tensorflow/lite/kernels/internal/reference\cumsum.h **** 
  68:C:/Renesas/e2studio_2021_01_workspace_RZA2M_ANPR/ANPR_RZA2M_EBK/src/tensorflow_lite/tensorflow/lite/kernels/internal/reference\cumsum.h ****         size_t index = outer_index_adj;
  69:C:/Renesas/e2studio_2021_01_workspace_RZA2M_ANPR/ANPR_RZA2M_EBK/src/tensorflow_lite/tensorflow/lite/kernels/internal/reference\cumsum.h ****         index += inner_index_adj * depth * outer;
  70:C:/Renesas/e2studio_2021_01_workspace_RZA2M_ANPR/ANPR_RZA2M_EBK/src/tensorflow_lite/tensorflow/lite/kernels/internal/reference\cumsum.h ****         index += depth_index_adj * outer;
  71:C:/Renesas/e2studio_2021_01_workspace_RZA2M_ANPR/ANPR_RZA2M_EBK/src/tensorflow_lite/tensorflow/lite/kernels/internal/reference\cumsum.h **** 
  72:C:/Renesas/e2studio_2021_01_workspace_RZA2M_ANPR/ANPR_RZA2M_EBK/src/tensorflow_lite/tensorflow/lite/kernels/internal/reference\cumsum.h ****         if (exclusive) {
  73:C:/Renesas/e2studio_2021_01_workspace_RZA2M_ANPR/ANPR_RZA2M_EBK/src/tensorflow_lite/tensorflow/lite/kernels/internal/reference\cumsum.h ****           output_data[index] = accumulator;
  74:C:/Renesas/e2studio_2021_01_workspace_RZA2M_ANPR/ANPR_RZA2M_EBK/src/tensorflow_lite/tensorflow/lite/kernels/internal/reference\cumsum.h ****           accumulator += input_data[index];
  75:C:/Renesas/e2studio_2021_01_workspace_RZA2M_ANPR/ANPR_RZA2M_EBK/src/tensorflow_lite/tensorflow/lite/kernels/internal/reference\cumsum.h ****         } else {
  76:C:/Renesas/e2studio_2021_01_workspace_RZA2M_ANPR/ANPR_RZA2M_EBK/src/tensorflow_lite/tensorflow/lite/kernels/internal/reference\cumsum.h ****           accumulator += input_data[index];
  77:C:/Renesas/e2studio_2021_01_workspace_RZA2M_ANPR/ANPR_RZA2M_EBK/src/tensorflow_lite/tensorflow/lite/kernels/internal/reference\cumsum.h ****           output_data[index] = accumulator;
  78:C:/Renesas/e2studio_2021_01_workspace_RZA2M_ANPR/ANPR_RZA2M_EBK/src/tensorflow_lite/tensorflow/lite/kernels/internal/reference\cumsum.h ****         }
  79:C:/Renesas/e2studio_2021_01_workspace_RZA2M_ANPR/ANPR_RZA2M_EBK/src/tensorflow_lite/tensorflow/lite/kernels/internal/reference\cumsum.h ****       }
  80:C:/Renesas/e2studio_2021_01_workspace_RZA2M_ANPR/ANPR_RZA2M_EBK/src/tensorflow_lite/tensorflow/lite/kernels/internal/reference\cumsum.h ****     }
  81:C:/Renesas/e2studio_2021_01_workspace_RZA2M_ANPR/ANPR_RZA2M_EBK/src/tensorflow_lite/tensorflow/lite/kernels/internal/reference\cumsum.h ****   }
  82:C:/Renesas/e2studio_2021_01_workspace_RZA2M_ANPR/ANPR_RZA2M_EBK/src/tensorflow_lite/tensorflow/lite/kernels/internal/reference\cumsum.h **** }
  83:C:/Renesas/e2studio_2021_01_workspace_RZA2M_ANPR/ANPR_RZA2M_EBK/src/tensorflow_lite/tensorflow/lite/kernels/internal/reference\cumsum.h **** 
  84:C:/Renesas/e2studio_2021_01_workspace_RZA2M_ANPR/ANPR_RZA2M_EBK/src/tensorflow_lite/tensorflow/lite/kernels/internal/reference\cumsum.h **** //
  85:C:/Renesas/e2studio_2021_01_workspace_RZA2M_ANPR/ANPR_RZA2M_EBK/src/tensorflow_lite/tensorflow/lite/kernels/internal/reference\cumsum.h **** // Quantized INT8 CUMSUM
  86:C:/Renesas/e2studio_2021_01_workspace_RZA2M_ANPR/ANPR_RZA2M_EBK/src/tensorflow_lite/tensorflow/lite/kernels/internal/reference\cumsum.h **** //
  87:C:/Renesas/e2studio_2021_01_workspace_RZA2M_ANPR/ANPR_RZA2M_EBK/src/tensorflow_lite/tensorflow/lite/kernels/internal/reference\cumsum.h **** inline void CumSum(const ArithmeticParams& params, const int8_t* input_data,
  88:C:/Renesas/e2studio_2021_01_workspace_RZA2M_ANPR/ANPR_RZA2M_EBK/src/tensorflow_lite/tensorflow/lite/kernels/internal/reference\cumsum.h ****                    const RuntimeShape& shape, int32_t axis, bool exclusive,
  89:C:/Renesas/e2studio_2021_01_workspace_RZA2M_ANPR/ANPR_RZA2M_EBK/src/tensorflow_lite/tensorflow/lite/kernels/internal/reference\cumsum.h ****                    bool reverse, int8_t* output_data) {
  90:C:/Renesas/e2studio_2021_01_workspace_RZA2M_ANPR/ANPR_RZA2M_EBK/src/tensorflow_lite/tensorflow/lite/kernels/internal/reference\cumsum.h ****   TFLITE_DCHECK_LE(params.quantized_activation_min,
  91:C:/Renesas/e2studio_2021_01_workspace_RZA2M_ANPR/ANPR_RZA2M_EBK/src/tensorflow_lite/tensorflow/lite/kernels/internal/reference\cumsum.h ****                    params.quantized_activation_max);
 1007              		.loc 5 91 0
 1008 0158 060058E1 		cmp	r8, r6
 1009 015c 6C0200CA 		bgt	.L220
  92:C:/Renesas/e2studio_2021_01_workspace_RZA2M_ANPR/ANPR_RZA2M_EBK/src/tensorflow_lite/tensorflow/lite/kernels/internal/reference\cumsum.h ****   // Input offset is negative input zero point. Activation tensors are
  93:C:/Renesas/e2studio_2021_01_workspace_RZA2M_ANPR/ANPR_RZA2M_EBK/src/tensorflow_lite/tensorflow/lite/kernels/internal/reference\cumsum.h ****   // asymmetric quantized so they span the full int8 range.
  94:C:/Renesas/e2studio_2021_01_workspace_RZA2M_ANPR/ANPR_RZA2M_EBK/src/tensorflow_lite/tensorflow/lite/kernels/internal/reference\cumsum.h ****   // All inputs should have same zero-point and scale, this is checked during
  95:C:/Renesas/e2studio_2021_01_workspace_RZA2M_ANPR/ANPR_RZA2M_EBK/src/tensorflow_lite/tensorflow/lite/kernels/internal/reference\cumsum.h ****   // Prepare stage.
  96:C:/Renesas/e2studio_2021_01_workspace_RZA2M_ANPR/ANPR_RZA2M_EBK/src/tensorflow_lite/tensorflow/lite/kernels/internal/reference\cumsum.h ****   TFLITE_DCHECK_GE(-params.input1_offset, std::numeric_limits<int8_t>::min());
 1010              		.loc 5 96 0
 1011 0160 14309DE5 		ldr	r3, [sp, #20]
 1012 0164 800053E3 		cmp	r3, #128
 1013 0168 6A0200CA 		bgt	.L221
  97:C:/Renesas/e2studio_2021_01_workspace_RZA2M_ANPR/ANPR_RZA2M_EBK/src/tensorflow_lite/tensorflow/lite/kernels/internal/reference\cumsum.h ****   TFLITE_DCHECK_LE(-params.input1_offset, std::numeric_limits<int8_t>::max());
 1014              		.loc 5 97 0
 1015 016c 7F0073E3 		cmn	r3, #127
 1016 0170 6B0200BA 		blt	.L222
 1017              	.LVL122:
 1018 0174 20309DE5 		ldr	r3, [sp, #32]
 1019              	.LBB358:
 1020              	.LBB359:
 1021              	.LBB360:
 208:C:/Renesas/e2studio_2021_01_workspace_RZA2M_ANPR/ANPR_RZA2M_EBK/src/tensorflow_lite/tensorflow/lite/kernels/internal\types.h **** #endif  // TF_LITE_STATIC_MEMORY
 209:C:/Renesas/e2studio_2021_01_workspace_RZA2M_ANPR/ANPR_RZA2M_EBK/src/tensorflow_lite/tensorflow/lite/kernels/internal\types.h ****     }
 210:C:/Renesas/e2studio_2021_01_workspace_RZA2M_ANPR/ANPR_RZA2M_EBK/src/tensorflow_lite/tensorflow/lite/kernels/internal\types.h ****   }
 211:C:/Renesas/e2studio_2021_01_workspace_RZA2M_ANPR/ANPR_RZA2M_EBK/src/tensorflow_lite/tensorflow/lite/kernels/internal\types.h **** 
 212:C:/Renesas/e2studio_2021_01_workspace_RZA2M_ANPR/ANPR_RZA2M_EBK/src/tensorflow_lite/tensorflow/lite/kernels/internal\types.h ****   inline int32_t DimensionsCount() const { return size_; }
 213:C:/Renesas/e2studio_2021_01_workspace_RZA2M_ANPR/ANPR_RZA2M_EBK/src/tensorflow_lite/tensorflow/lite/kernels/internal\types.h ****   inline int32_t Dims(int i) const {
 214:C:/Renesas/e2studio_2021_01_workspace_RZA2M_ANPR/ANPR_RZA2M_EBK/src/tensorflow_lite/tensorflow/lite/kernels/internal\types.h ****     TFLITE_DCHECK_GE(i, 0);
 215:C:/Renesas/e2studio_2021_01_workspace_RZA2M_ANPR/ANPR_RZA2M_EBK/src/tensorflow_lite/tensorflow/lite/kernels/internal\types.h ****     TFLITE_DCHECK_LT(i, size_);
 216:C:/Renesas/e2studio_2021_01_workspace_RZA2M_ANPR/ANPR_RZA2M_EBK/src/tensorflow_lite/tensorflow/lite/kernels/internal\types.h ****     return size_ > kMaxSmallSize ? dims_pointer_[i] : dims_[i];
 1022              		.loc 4 216 0
 1023 0178 6C209DE5 		ldr	r2, [sp, #108]
 1024              	.LVL123:
 1025 017c 050053E3 		cmp	r3, #5
 1026 0180 7F0100CA 		bgt	.L88
 1027              	.LVL124:
 1028              	.LBE360:
 1029              	.LBE359:
  98:C:/Renesas/e2studio_2021_01_workspace_RZA2M_ANPR/ANPR_RZA2M_EBK/src/tensorflow_lite/tensorflow/lite/kernels/internal/reference\cumsum.h **** 
  99:C:/Renesas/e2studio_2021_01_workspace_RZA2M_ANPR/ANPR_RZA2M_EBK/src/tensorflow_lite/tensorflow/lite/kernels/internal/reference\cumsum.h ****   const int32_t rank = shape.DimensionsCount();
 100:C:/Renesas/e2studio_2021_01_workspace_RZA2M_ANPR/ANPR_RZA2M_EBK/src/tensorflow_lite/tensorflow/lite/kernels/internal/reference\cumsum.h ****   TFLITE_DCHECK_GE(rank, 1);
 101:C:/Renesas/e2studio_2021_01_workspace_RZA2M_ANPR/ANPR_RZA2M_EBK/src/tensorflow_lite/tensorflow/lite/kernels/internal/reference\cumsum.h ****   TFLITE_DCHECK_GE(axis, 0);
 102:C:/Renesas/e2studio_2021_01_workspace_RZA2M_ANPR/ANPR_RZA2M_EBK/src/tensorflow_lite/tensorflow/lite/kernels/internal/reference\cumsum.h ****   TFLITE_DCHECK_LT(axis, rank);
 103:C:/Renesas/e2studio_2021_01_workspace_RZA2M_ANPR/ANPR_RZA2M_EBK/src/tensorflow_lite/tensorflow/lite/kernels/internal/reference\cumsum.h **** 
 104:C:/Renesas/e2studio_2021_01_workspace_RZA2M_ANPR/ANPR_RZA2M_EBK/src/tensorflow_lite/tensorflow/lite/kernels/internal/reference\cumsum.h ****   size_t inner = 1;
 105:C:/Renesas/e2studio_2021_01_workspace_RZA2M_ANPR/ANPR_RZA2M_EBK/src/tensorflow_lite/tensorflow/lite/kernels/internal/reference\cumsum.h ****   size_t outer = 1;
 106:C:/Renesas/e2studio_2021_01_workspace_RZA2M_ANPR/ANPR_RZA2M_EBK/src/tensorflow_lite/tensorflow/lite/kernels/internal/reference\cumsum.h ****   size_t depth = 1;
 107:C:/Renesas/e2studio_2021_01_workspace_RZA2M_ANPR/ANPR_RZA2M_EBK/src/tensorflow_lite/tensorflow/lite/kernels/internal/reference\cumsum.h ****   for (int32_t i = 0; i < rank; i++) {
 108:C:/Renesas/e2studio_2021_01_workspace_RZA2M_ANPR/ANPR_RZA2M_EBK/src/tensorflow_lite/tensorflow/lite/kernels/internal/reference\cumsum.h ****     if (i < axis)
 109:C:/Renesas/e2studio_2021_01_workspace_RZA2M_ANPR/ANPR_RZA2M_EBK/src/tensorflow_lite/tensorflow/lite/kernels/internal/reference\cumsum.h ****       inner *= shape.Dims(i);
 1030              		.loc 5 109 0
 1031 0184 00005CE3 		cmp	ip, #0
 1032 0188 0210A011 		movne	r1, r2
 1033 018c 0110A003 		moveq	r1, #1
 1034 0190 0250A001 		moveq	r5, r2
 1035              	.LVL125:
 1036 0194 0150A013 		movne	r5, #1
 1037              	.LVL126:
 107:C:/Renesas/e2studio_2021_01_workspace_RZA2M_ANPR/ANPR_RZA2M_EBK/src/tensorflow_lite/tensorflow/lite/kernels/internal/reference\cumsum.h ****     if (i < axis)
 1038              		.loc 5 107 0
 1039 0198 010053E3 		cmp	r3, #1
 1040              		.loc 5 109 0
 1041 019c 50108DE5 		str	r1, [sp, #80]
 1042              	.LVL127:
 107:C:/Renesas/e2studio_2021_01_workspace_RZA2M_ANPR/ANPR_RZA2M_EBK/src/tensorflow_lite/tensorflow/lite/kernels/internal/reference\cumsum.h ****     if (i < axis)
 1043              		.loc 5 107 0
 1044 01a0 5702000A 		beq	.L152
 1045              	.LVL128:
 108:C:/Renesas/e2studio_2021_01_workspace_RZA2M_ANPR/ANPR_RZA2M_EBK/src/tensorflow_lite/tensorflow/lite/kernels/internal/reference\cumsum.h ****       inner *= shape.Dims(i);
 1046              		.loc 5 108 0
 1047 01a4 01005CE3 		cmp	ip, #1
 1048 01a8 310200CA 		bgt	.L223
 110:C:/Renesas/e2studio_2021_01_workspace_RZA2M_ANPR/ANPR_RZA2M_EBK/src/tensorflow_lite/tensorflow/lite/kernels/internal/reference\cumsum.h ****     else if (i > axis)
 1049              		.loc 5 110 0
 1050 01ac 00005CE3 		cmp	ip, #0
 111:C:/Renesas/e2studio_2021_01_workspace_RZA2M_ANPR/ANPR_RZA2M_EBK/src/tensorflow_lite/tensorflow/lite/kernels/internal/reference\cumsum.h ****       outer *= shape.Dims(i);
 112:C:/Renesas/e2studio_2021_01_workspace_RZA2M_ANPR/ANPR_RZA2M_EBK/src/tensorflow_lite/tensorflow/lite/kernels/internal/reference\cumsum.h ****     else
 113:C:/Renesas/e2studio_2021_01_workspace_RZA2M_ANPR/ANPR_RZA2M_EBK/src/tensorflow_lite/tensorflow/lite/kernels/internal/reference\cumsum.h ****       depth = shape.Dims(i);
 1051              		.loc 5 113 0
 1052 01b0 70509D15 		ldrne	r5, [sp, #112]
 1053              	.LVL129:
 1054 01b4 0130A013 		movne	r3, #1
 111:C:/Renesas/e2studio_2021_01_workspace_RZA2M_ANPR/ANPR_RZA2M_EBK/src/tensorflow_lite/tensorflow/lite/kernels/internal/reference\cumsum.h ****       outer *= shape.Dims(i);
 1055              		.loc 5 111 0
 1056 01b8 70309D05 		ldreq	r3, [sp, #112]
 1057              	.LVL130:
 1058              		.loc 5 113 0
 1059 01bc 10308DE5 		str	r3, [sp, #16]
 1060              	.LVL131:
 1061              	.L93:
 107:C:/Renesas/e2studio_2021_01_workspace_RZA2M_ANPR/ANPR_RZA2M_EBK/src/tensorflow_lite/tensorflow/lite/kernels/internal/reference\cumsum.h ****     if (i < axis)
 1062              		.loc 5 107 0
 1063 01c0 20309DE5 		ldr	r3, [sp, #32]
 1064 01c4 020053E3 		cmp	r3, #2
 1065 01c8 1A00000A 		beq	.L108
 108:C:/Renesas/e2studio_2021_01_workspace_RZA2M_ANPR/ANPR_RZA2M_EBK/src/tensorflow_lite/tensorflow/lite/kernels/internal/reference\cumsum.h ****       inner *= shape.Dims(i);
 1066              		.loc 5 108 0
 1067 01cc 02005CE3 		cmp	ip, #2
 1068 01d0 050200CA 		bgt	.L224
 111:C:/Renesas/e2studio_2021_01_workspace_RZA2M_ANPR/ANPR_RZA2M_EBK/src/tensorflow_lite/tensorflow/lite/kernels/internal/reference\cumsum.h ****       outer *= shape.Dims(i);
 1069              		.loc 5 111 0
 1070 01d4 74309D15 		ldrne	r3, [sp, #116]
 1071 01d8 10209D15 		ldrne	r2, [sp, #16]
 1072              		.loc 5 113 0
 1073 01dc 74509D05 		ldreq	r5, [sp, #116]
 1074              	.LVL132:
 111:C:/Renesas/e2studio_2021_01_workspace_RZA2M_ANPR/ANPR_RZA2M_EBK/src/tensorflow_lite/tensorflow/lite/kernels/internal/reference\cumsum.h ****       outer *= shape.Dims(i);
 1075              		.loc 5 111 0
 1076 01e0 93020310 		mulne	r3, r3, r2
 1077 01e4 10308D15 		strne	r3, [sp, #16]
 1078              	.LVL133:
 1079 01e8 20309D15 		ldrne	r3, [sp, #32]
 1080              	.LVL134:
 1081              	.L97:
 107:C:/Renesas/e2studio_2021_01_workspace_RZA2M_ANPR/ANPR_RZA2M_EBK/src/tensorflow_lite/tensorflow/lite/kernels/internal/reference\cumsum.h ****     if (i < axis)
 1082              		.loc 5 107 0
 1083 01ec 030053E3 		cmp	r3, #3
 1084 01f0 1000000A 		beq	.L108
 108:C:/Renesas/e2studio_2021_01_workspace_RZA2M_ANPR/ANPR_RZA2M_EBK/src/tensorflow_lite/tensorflow/lite/kernels/internal/reference\cumsum.h ****       inner *= shape.Dims(i);
 1085              		.loc 5 108 0
 1086 01f4 03005CE3 		cmp	ip, #3
 1087 01f8 F50100CA 		bgt	.L225
 111:C:/Renesas/e2studio_2021_01_workspace_RZA2M_ANPR/ANPR_RZA2M_EBK/src/tensorflow_lite/tensorflow/lite/kernels/internal/reference\cumsum.h ****       outer *= shape.Dims(i);
 1088              		.loc 5 111 0
 1089 01fc 78309D15 		ldrne	r3, [sp, #120]
 1090 0200 10209D15 		ldrne	r2, [sp, #16]
 1091              		.loc 5 113 0
 1092 0204 78509D05 		ldreq	r5, [sp, #120]
 1093              	.LVL135:
 111:C:/Renesas/e2studio_2021_01_workspace_RZA2M_ANPR/ANPR_RZA2M_EBK/src/tensorflow_lite/tensorflow/lite/kernels/internal/reference\cumsum.h ****       outer *= shape.Dims(i);
 1094              		.loc 5 111 0
 1095 0208 93020310 		mulne	r3, r3, r2
 1096 020c 10308D15 		strne	r3, [sp, #16]
 1097              	.LVL136:
 1098 0210 20309D15 		ldrne	r3, [sp, #32]
 1099              	.LVL137:
 1100              	.L100:
 107:C:/Renesas/e2studio_2021_01_workspace_RZA2M_ANPR/ANPR_RZA2M_EBK/src/tensorflow_lite/tensorflow/lite/kernels/internal/reference\cumsum.h ****     if (i < axis)
 1101              		.loc 5 107 0
 1102 0214 040053E3 		cmp	r3, #4
 1103 0218 0600000A 		beq	.L108
 108:C:/Renesas/e2studio_2021_01_workspace_RZA2M_ANPR/ANPR_RZA2M_EBK/src/tensorflow_lite/tensorflow/lite/kernels/internal/reference\cumsum.h ****       inner *= shape.Dims(i);
 1104              		.loc 5 108 0
 1105 021c 04005CE3 		cmp	ip, #4
 1106 0220 E60100CA 		bgt	.L226
 111:C:/Renesas/e2studio_2021_01_workspace_RZA2M_ANPR/ANPR_RZA2M_EBK/src/tensorflow_lite/tensorflow/lite/kernels/internal/reference\cumsum.h ****       outer *= shape.Dims(i);
 1107              		.loc 5 111 0
 1108 0224 7C309D15 		ldrne	r3, [sp, #124]
 1109 0228 10209D15 		ldrne	r2, [sp, #16]
 1110              		.loc 5 113 0
 1111 022c 7C509D05 		ldreq	r5, [sp, #124]
 1112              	.LVL138:
 111:C:/Renesas/e2studio_2021_01_workspace_RZA2M_ANPR/ANPR_RZA2M_EBK/src/tensorflow_lite/tensorflow/lite/kernels/internal/reference\cumsum.h ****       outer *= shape.Dims(i);
 1113              		.loc 5 111 0
 1114 0230 93020310 		mulne	r3, r3, r2
 1115 0234 10308D15 		strne	r3, [sp, #16]
 1116              	.LVL139:
 1117              	.L108:
 1118              	.LBE358:
 1119              	.LBB363:
 114:C:/Renesas/e2studio_2021_01_workspace_RZA2M_ANPR/ANPR_RZA2M_EBK/src/tensorflow_lite/tensorflow/lite/kernels/internal/reference\cumsum.h ****   }
 115:C:/Renesas/e2studio_2021_01_workspace_RZA2M_ANPR/ANPR_RZA2M_EBK/src/tensorflow_lite/tensorflow/lite/kernels/internal/reference\cumsum.h **** 
 116:C:/Renesas/e2studio_2021_01_workspace_RZA2M_ANPR/ANPR_RZA2M_EBK/src/tensorflow_lite/tensorflow/lite/kernels/internal/reference\cumsum.h ****   for (size_t outer_index = 0; outer_index < outer; outer_index++) {
 1120              		.loc 5 116 0
 1121 0238 10309DE5 		ldr	r3, [sp, #16]
 1122 023c 000053E3 		cmp	r3, #0
 1123 0240 4001000A 		beq	.L150
 1124              	.LVL140:
 1125              	.L91:
 1126 0244 18209DE5 		ldr	r2, [sp, #24]
 1127 0248 00C069E2 		rsb	ip, r9, #0
 1128              	.LVL141:
 1129 024c 14309DE5 		ldr	r3, [sp, #20]
 1130              	.LBB364:
 1131              	.LBB365:
 1132              	.LBB366:
 1133              	.LBB367:
 1134              	.LBB368:
 1135              	.LBB369:
 1136              		.file 6 "C:/Renesas/e2studio_2021_01_workspace_RZA2M_ANPR/ANPR_RZA2M_EBK/src/tensorflow_lite/third
   1:C:/Renesas/e2studio_2021_01_workspace_RZA2M_ANPR/ANPR_RZA2M_EBK/src/tensorflow_lite/third_party/gemmlowp/fixedpoint\fixedpoint.h **** // Copyright 2015 The Gemmlowp Authors. All Rights Reserved.
   2:C:/Renesas/e2studio_2021_01_workspace_RZA2M_ANPR/ANPR_RZA2M_EBK/src/tensorflow_lite/third_party/gemmlowp/fixedpoint\fixedpoint.h **** //
   3:C:/Renesas/e2studio_2021_01_workspace_RZA2M_ANPR/ANPR_RZA2M_EBK/src/tensorflow_lite/third_party/gemmlowp/fixedpoint\fixedpoint.h **** // Licensed under the Apache License, Version 2.0 (the "License");
   4:C:/Renesas/e2studio_2021_01_workspace_RZA2M_ANPR/ANPR_RZA2M_EBK/src/tensorflow_lite/third_party/gemmlowp/fixedpoint\fixedpoint.h **** // you may not use this file except in compliance with the License.
   5:C:/Renesas/e2studio_2021_01_workspace_RZA2M_ANPR/ANPR_RZA2M_EBK/src/tensorflow_lite/third_party/gemmlowp/fixedpoint\fixedpoint.h **** // You may obtain a copy of the License at
   6:C:/Renesas/e2studio_2021_01_workspace_RZA2M_ANPR/ANPR_RZA2M_EBK/src/tensorflow_lite/third_party/gemmlowp/fixedpoint\fixedpoint.h **** //
   7:C:/Renesas/e2studio_2021_01_workspace_RZA2M_ANPR/ANPR_RZA2M_EBK/src/tensorflow_lite/third_party/gemmlowp/fixedpoint\fixedpoint.h **** //     http://www.apache.org/licenses/LICENSE-2.0
   8:C:/Renesas/e2studio_2021_01_workspace_RZA2M_ANPR/ANPR_RZA2M_EBK/src/tensorflow_lite/third_party/gemmlowp/fixedpoint\fixedpoint.h **** //
   9:C:/Renesas/e2studio_2021_01_workspace_RZA2M_ANPR/ANPR_RZA2M_EBK/src/tensorflow_lite/third_party/gemmlowp/fixedpoint\fixedpoint.h **** // Unless required by applicable law or agreed to in writing, software
  10:C:/Renesas/e2studio_2021_01_workspace_RZA2M_ANPR/ANPR_RZA2M_EBK/src/tensorflow_lite/third_party/gemmlowp/fixedpoint\fixedpoint.h **** // distributed under the License is distributed on an "AS IS" BASIS,
  11:C:/Renesas/e2studio_2021_01_workspace_RZA2M_ANPR/ANPR_RZA2M_EBK/src/tensorflow_lite/third_party/gemmlowp/fixedpoint\fixedpoint.h **** // WITHOUT WARRANTIES OR CONDITIONS OF ANY KIND, either express or implied.
  12:C:/Renesas/e2studio_2021_01_workspace_RZA2M_ANPR/ANPR_RZA2M_EBK/src/tensorflow_lite/third_party/gemmlowp/fixedpoint\fixedpoint.h **** // See the License for the specific language governing permissions and
  13:C:/Renesas/e2studio_2021_01_workspace_RZA2M_ANPR/ANPR_RZA2M_EBK/src/tensorflow_lite/third_party/gemmlowp/fixedpoint\fixedpoint.h **** // limitations under the License.
  14:C:/Renesas/e2studio_2021_01_workspace_RZA2M_ANPR/ANPR_RZA2M_EBK/src/tensorflow_lite/third_party/gemmlowp/fixedpoint\fixedpoint.h **** 
  15:C:/Renesas/e2studio_2021_01_workspace_RZA2M_ANPR/ANPR_RZA2M_EBK/src/tensorflow_lite/third_party/gemmlowp/fixedpoint\fixedpoint.h **** // fixedpoint.h: fixed-point arithmetic, with basic operations and
  16:C:/Renesas/e2studio_2021_01_workspace_RZA2M_ANPR/ANPR_RZA2M_EBK/src/tensorflow_lite/third_party/gemmlowp/fixedpoint\fixedpoint.h **** // a few math functions such as tanh.
  17:C:/Renesas/e2studio_2021_01_workspace_RZA2M_ANPR/ANPR_RZA2M_EBK/src/tensorflow_lite/third_party/gemmlowp/fixedpoint\fixedpoint.h **** 
  18:C:/Renesas/e2studio_2021_01_workspace_RZA2M_ANPR/ANPR_RZA2M_EBK/src/tensorflow_lite/third_party/gemmlowp/fixedpoint\fixedpoint.h **** #ifndef GEMMLOWP_INTERNAL_FIXEDPOINT_H_
  19:C:/Renesas/e2studio_2021_01_workspace_RZA2M_ANPR/ANPR_RZA2M_EBK/src/tensorflow_lite/third_party/gemmlowp/fixedpoint\fixedpoint.h **** #define GEMMLOWP_INTERNAL_FIXEDPOINT_H_
  20:C:/Renesas/e2studio_2021_01_workspace_RZA2M_ANPR/ANPR_RZA2M_EBK/src/tensorflow_lite/third_party/gemmlowp/fixedpoint\fixedpoint.h **** 
  21:C:/Renesas/e2studio_2021_01_workspace_RZA2M_ANPR/ANPR_RZA2M_EBK/src/tensorflow_lite/third_party/gemmlowp/fixedpoint\fixedpoint.h **** #include <algorithm>
  22:C:/Renesas/e2studio_2021_01_workspace_RZA2M_ANPR/ANPR_RZA2M_EBK/src/tensorflow_lite/third_party/gemmlowp/fixedpoint\fixedpoint.h **** #include <cassert>
  23:C:/Renesas/e2studio_2021_01_workspace_RZA2M_ANPR/ANPR_RZA2M_EBK/src/tensorflow_lite/third_party/gemmlowp/fixedpoint\fixedpoint.h **** #include <cmath>
  24:C:/Renesas/e2studio_2021_01_workspace_RZA2M_ANPR/ANPR_RZA2M_EBK/src/tensorflow_lite/third_party/gemmlowp/fixedpoint\fixedpoint.h **** #include <cstdint>
  25:C:/Renesas/e2studio_2021_01_workspace_RZA2M_ANPR/ANPR_RZA2M_EBK/src/tensorflow_lite/third_party/gemmlowp/fixedpoint\fixedpoint.h **** #include <limits>
  26:C:/Renesas/e2studio_2021_01_workspace_RZA2M_ANPR/ANPR_RZA2M_EBK/src/tensorflow_lite/third_party/gemmlowp/fixedpoint\fixedpoint.h **** 
  27:C:/Renesas/e2studio_2021_01_workspace_RZA2M_ANPR/ANPR_RZA2M_EBK/src/tensorflow_lite/third_party/gemmlowp/fixedpoint\fixedpoint.h **** #include "../internal/detect_platform.h"
  28:C:/Renesas/e2studio_2021_01_workspace_RZA2M_ANPR/ANPR_RZA2M_EBK/src/tensorflow_lite/third_party/gemmlowp/fixedpoint\fixedpoint.h **** 
  29:C:/Renesas/e2studio_2021_01_workspace_RZA2M_ANPR/ANPR_RZA2M_EBK/src/tensorflow_lite/third_party/gemmlowp/fixedpoint\fixedpoint.h **** namespace gemmlowp {
  30:C:/Renesas/e2studio_2021_01_workspace_RZA2M_ANPR/ANPR_RZA2M_EBK/src/tensorflow_lite/third_party/gemmlowp/fixedpoint\fixedpoint.h **** 
  31:C:/Renesas/e2studio_2021_01_workspace_RZA2M_ANPR/ANPR_RZA2M_EBK/src/tensorflow_lite/third_party/gemmlowp/fixedpoint\fixedpoint.h **** // Part 1: Low-level integer-arithmetic primitives.
  32:C:/Renesas/e2studio_2021_01_workspace_RZA2M_ANPR/ANPR_RZA2M_EBK/src/tensorflow_lite/third_party/gemmlowp/fixedpoint\fixedpoint.h **** // The implementations here are generic implementations valid for
  33:C:/Renesas/e2studio_2021_01_workspace_RZA2M_ANPR/ANPR_RZA2M_EBK/src/tensorflow_lite/third_party/gemmlowp/fixedpoint\fixedpoint.h **** // scalar types (e.g. std::int32_t). Architecture-specific SIMD types
  34:C:/Renesas/e2studio_2021_01_workspace_RZA2M_ANPR/ANPR_RZA2M_EBK/src/tensorflow_lite/third_party/gemmlowp/fixedpoint\fixedpoint.h **** // (e.g. NEON int32x4_t) may be supported by providing
  35:C:/Renesas/e2studio_2021_01_workspace_RZA2M_ANPR/ANPR_RZA2M_EBK/src/tensorflow_lite/third_party/gemmlowp/fixedpoint\fixedpoint.h **** // specializations for them in separate files.
  36:C:/Renesas/e2studio_2021_01_workspace_RZA2M_ANPR/ANPR_RZA2M_EBK/src/tensorflow_lite/third_party/gemmlowp/fixedpoint\fixedpoint.h **** //
  37:C:/Renesas/e2studio_2021_01_workspace_RZA2M_ANPR/ANPR_RZA2M_EBK/src/tensorflow_lite/third_party/gemmlowp/fixedpoint\fixedpoint.h **** // The purpose of these primitives is two-fold:
  38:C:/Renesas/e2studio_2021_01_workspace_RZA2M_ANPR/ANPR_RZA2M_EBK/src/tensorflow_lite/third_party/gemmlowp/fixedpoint\fixedpoint.h **** //  - They will be used to implement higher-level fixed-point
  39:C:/Renesas/e2studio_2021_01_workspace_RZA2M_ANPR/ANPR_RZA2M_EBK/src/tensorflow_lite/third_party/gemmlowp/fixedpoint\fixedpoint.h **** //    abstractions, namely the FixedPoint class and its arithmetic
  40:C:/Renesas/e2studio_2021_01_workspace_RZA2M_ANPR/ANPR_RZA2M_EBK/src/tensorflow_lite/third_party/gemmlowp/fixedpoint\fixedpoint.h **** //    operators.
  41:C:/Renesas/e2studio_2021_01_workspace_RZA2M_ANPR/ANPR_RZA2M_EBK/src/tensorflow_lite/third_party/gemmlowp/fixedpoint\fixedpoint.h **** //  - They will be directly used to implement some more involved
  42:C:/Renesas/e2studio_2021_01_workspace_RZA2M_ANPR/ANPR_RZA2M_EBK/src/tensorflow_lite/third_party/gemmlowp/fixedpoint\fixedpoint.h **** //    fixed-point computations, e.g. the fixed-point implementation
  43:C:/Renesas/e2studio_2021_01_workspace_RZA2M_ANPR/ANPR_RZA2M_EBK/src/tensorflow_lite/third_party/gemmlowp/fixedpoint\fixedpoint.h **** //    of math functions such as tanh.
  44:C:/Renesas/e2studio_2021_01_workspace_RZA2M_ANPR/ANPR_RZA2M_EBK/src/tensorflow_lite/third_party/gemmlowp/fixedpoint\fixedpoint.h **** 
  45:C:/Renesas/e2studio_2021_01_workspace_RZA2M_ANPR/ANPR_RZA2M_EBK/src/tensorflow_lite/third_party/gemmlowp/fixedpoint\fixedpoint.h **** // Some compile-time traits around raw types to handle SIMD aspects:
  46:C:/Renesas/e2studio_2021_01_workspace_RZA2M_ANPR/ANPR_RZA2M_EBK/src/tensorflow_lite/third_party/gemmlowp/fixedpoint\fixedpoint.h **** // number of lanes, underlying scalar type.
  47:C:/Renesas/e2studio_2021_01_workspace_RZA2M_ANPR/ANPR_RZA2M_EBK/src/tensorflow_lite/third_party/gemmlowp/fixedpoint\fixedpoint.h **** template <typename tIntegerType>
  48:C:/Renesas/e2studio_2021_01_workspace_RZA2M_ANPR/ANPR_RZA2M_EBK/src/tensorflow_lite/third_party/gemmlowp/fixedpoint\fixedpoint.h **** struct FixedPointRawTypeTraits {};
  49:C:/Renesas/e2studio_2021_01_workspace_RZA2M_ANPR/ANPR_RZA2M_EBK/src/tensorflow_lite/third_party/gemmlowp/fixedpoint\fixedpoint.h **** 
  50:C:/Renesas/e2studio_2021_01_workspace_RZA2M_ANPR/ANPR_RZA2M_EBK/src/tensorflow_lite/third_party/gemmlowp/fixedpoint\fixedpoint.h **** template <>
  51:C:/Renesas/e2studio_2021_01_workspace_RZA2M_ANPR/ANPR_RZA2M_EBK/src/tensorflow_lite/third_party/gemmlowp/fixedpoint\fixedpoint.h **** struct FixedPointRawTypeTraits<std::int32_t> {
  52:C:/Renesas/e2studio_2021_01_workspace_RZA2M_ANPR/ANPR_RZA2M_EBK/src/tensorflow_lite/third_party/gemmlowp/fixedpoint\fixedpoint.h ****   typedef std::int32_t ScalarRawType;
  53:C:/Renesas/e2studio_2021_01_workspace_RZA2M_ANPR/ANPR_RZA2M_EBK/src/tensorflow_lite/third_party/gemmlowp/fixedpoint\fixedpoint.h ****   static constexpr int kLanes = 1;
  54:C:/Renesas/e2studio_2021_01_workspace_RZA2M_ANPR/ANPR_RZA2M_EBK/src/tensorflow_lite/third_party/gemmlowp/fixedpoint\fixedpoint.h **** };
  55:C:/Renesas/e2studio_2021_01_workspace_RZA2M_ANPR/ANPR_RZA2M_EBK/src/tensorflow_lite/third_party/gemmlowp/fixedpoint\fixedpoint.h **** 
  56:C:/Renesas/e2studio_2021_01_workspace_RZA2M_ANPR/ANPR_RZA2M_EBK/src/tensorflow_lite/third_party/gemmlowp/fixedpoint\fixedpoint.h **** template <>
  57:C:/Renesas/e2studio_2021_01_workspace_RZA2M_ANPR/ANPR_RZA2M_EBK/src/tensorflow_lite/third_party/gemmlowp/fixedpoint\fixedpoint.h **** struct FixedPointRawTypeTraits<std::int16_t> {
  58:C:/Renesas/e2studio_2021_01_workspace_RZA2M_ANPR/ANPR_RZA2M_EBK/src/tensorflow_lite/third_party/gemmlowp/fixedpoint\fixedpoint.h ****   typedef std::int16_t ScalarRawType;
  59:C:/Renesas/e2studio_2021_01_workspace_RZA2M_ANPR/ANPR_RZA2M_EBK/src/tensorflow_lite/third_party/gemmlowp/fixedpoint\fixedpoint.h ****   static constexpr int kLanes = 1;
  60:C:/Renesas/e2studio_2021_01_workspace_RZA2M_ANPR/ANPR_RZA2M_EBK/src/tensorflow_lite/third_party/gemmlowp/fixedpoint\fixedpoint.h **** };
  61:C:/Renesas/e2studio_2021_01_workspace_RZA2M_ANPR/ANPR_RZA2M_EBK/src/tensorflow_lite/third_party/gemmlowp/fixedpoint\fixedpoint.h **** 
  62:C:/Renesas/e2studio_2021_01_workspace_RZA2M_ANPR/ANPR_RZA2M_EBK/src/tensorflow_lite/third_party/gemmlowp/fixedpoint\fixedpoint.h **** // Returns a SIMD value duplicating a scalar value across all lanes.
  63:C:/Renesas/e2studio_2021_01_workspace_RZA2M_ANPR/ANPR_RZA2M_EBK/src/tensorflow_lite/third_party/gemmlowp/fixedpoint\fixedpoint.h **** template <typename tRawType>
  64:C:/Renesas/e2studio_2021_01_workspace_RZA2M_ANPR/ANPR_RZA2M_EBK/src/tensorflow_lite/third_party/gemmlowp/fixedpoint\fixedpoint.h **** tRawType Dup(typename FixedPointRawTypeTraits<tRawType>::ScalarRawType x) {
  65:C:/Renesas/e2studio_2021_01_workspace_RZA2M_ANPR/ANPR_RZA2M_EBK/src/tensorflow_lite/third_party/gemmlowp/fixedpoint\fixedpoint.h ****   return x;
  66:C:/Renesas/e2studio_2021_01_workspace_RZA2M_ANPR/ANPR_RZA2M_EBK/src/tensorflow_lite/third_party/gemmlowp/fixedpoint\fixedpoint.h **** }
  67:C:/Renesas/e2studio_2021_01_workspace_RZA2M_ANPR/ANPR_RZA2M_EBK/src/tensorflow_lite/third_party/gemmlowp/fixedpoint\fixedpoint.h **** 
  68:C:/Renesas/e2studio_2021_01_workspace_RZA2M_ANPR/ANPR_RZA2M_EBK/src/tensorflow_lite/third_party/gemmlowp/fixedpoint\fixedpoint.h **** // Plain bit-wise AND
  69:C:/Renesas/e2studio_2021_01_workspace_RZA2M_ANPR/ANPR_RZA2M_EBK/src/tensorflow_lite/third_party/gemmlowp/fixedpoint\fixedpoint.h **** template <typename tIntegerType>
  70:C:/Renesas/e2studio_2021_01_workspace_RZA2M_ANPR/ANPR_RZA2M_EBK/src/tensorflow_lite/third_party/gemmlowp/fixedpoint\fixedpoint.h **** tIntegerType BitAnd(tIntegerType a, tIntegerType b) {
  71:C:/Renesas/e2studio_2021_01_workspace_RZA2M_ANPR/ANPR_RZA2M_EBK/src/tensorflow_lite/third_party/gemmlowp/fixedpoint\fixedpoint.h ****   return a & b;
  72:C:/Renesas/e2studio_2021_01_workspace_RZA2M_ANPR/ANPR_RZA2M_EBK/src/tensorflow_lite/third_party/gemmlowp/fixedpoint\fixedpoint.h **** }
  73:C:/Renesas/e2studio_2021_01_workspace_RZA2M_ANPR/ANPR_RZA2M_EBK/src/tensorflow_lite/third_party/gemmlowp/fixedpoint\fixedpoint.h **** 
  74:C:/Renesas/e2studio_2021_01_workspace_RZA2M_ANPR/ANPR_RZA2M_EBK/src/tensorflow_lite/third_party/gemmlowp/fixedpoint\fixedpoint.h **** // Plain bit-wise OR
  75:C:/Renesas/e2studio_2021_01_workspace_RZA2M_ANPR/ANPR_RZA2M_EBK/src/tensorflow_lite/third_party/gemmlowp/fixedpoint\fixedpoint.h **** template <typename tIntegerType>
  76:C:/Renesas/e2studio_2021_01_workspace_RZA2M_ANPR/ANPR_RZA2M_EBK/src/tensorflow_lite/third_party/gemmlowp/fixedpoint\fixedpoint.h **** tIntegerType BitOr(tIntegerType a, tIntegerType b) {
  77:C:/Renesas/e2studio_2021_01_workspace_RZA2M_ANPR/ANPR_RZA2M_EBK/src/tensorflow_lite/third_party/gemmlowp/fixedpoint\fixedpoint.h ****   return a | b;
  78:C:/Renesas/e2studio_2021_01_workspace_RZA2M_ANPR/ANPR_RZA2M_EBK/src/tensorflow_lite/third_party/gemmlowp/fixedpoint\fixedpoint.h **** }
  79:C:/Renesas/e2studio_2021_01_workspace_RZA2M_ANPR/ANPR_RZA2M_EBK/src/tensorflow_lite/third_party/gemmlowp/fixedpoint\fixedpoint.h **** 
  80:C:/Renesas/e2studio_2021_01_workspace_RZA2M_ANPR/ANPR_RZA2M_EBK/src/tensorflow_lite/third_party/gemmlowp/fixedpoint\fixedpoint.h **** // Plain bit-wise XOR
  81:C:/Renesas/e2studio_2021_01_workspace_RZA2M_ANPR/ANPR_RZA2M_EBK/src/tensorflow_lite/third_party/gemmlowp/fixedpoint\fixedpoint.h **** template <typename tIntegerType>
  82:C:/Renesas/e2studio_2021_01_workspace_RZA2M_ANPR/ANPR_RZA2M_EBK/src/tensorflow_lite/third_party/gemmlowp/fixedpoint\fixedpoint.h **** tIntegerType BitXor(tIntegerType a, tIntegerType b) {
  83:C:/Renesas/e2studio_2021_01_workspace_RZA2M_ANPR/ANPR_RZA2M_EBK/src/tensorflow_lite/third_party/gemmlowp/fixedpoint\fixedpoint.h ****   return a ^ b;
  84:C:/Renesas/e2studio_2021_01_workspace_RZA2M_ANPR/ANPR_RZA2M_EBK/src/tensorflow_lite/third_party/gemmlowp/fixedpoint\fixedpoint.h **** }
  85:C:/Renesas/e2studio_2021_01_workspace_RZA2M_ANPR/ANPR_RZA2M_EBK/src/tensorflow_lite/third_party/gemmlowp/fixedpoint\fixedpoint.h **** 
  86:C:/Renesas/e2studio_2021_01_workspace_RZA2M_ANPR/ANPR_RZA2M_EBK/src/tensorflow_lite/third_party/gemmlowp/fixedpoint\fixedpoint.h **** // Plain bit-wise NOT
  87:C:/Renesas/e2studio_2021_01_workspace_RZA2M_ANPR/ANPR_RZA2M_EBK/src/tensorflow_lite/third_party/gemmlowp/fixedpoint\fixedpoint.h **** template <typename tIntegerType>
  88:C:/Renesas/e2studio_2021_01_workspace_RZA2M_ANPR/ANPR_RZA2M_EBK/src/tensorflow_lite/third_party/gemmlowp/fixedpoint\fixedpoint.h **** tIntegerType BitNot(tIntegerType a) {
  89:C:/Renesas/e2studio_2021_01_workspace_RZA2M_ANPR/ANPR_RZA2M_EBK/src/tensorflow_lite/third_party/gemmlowp/fixedpoint\fixedpoint.h ****   return ~a;
  90:C:/Renesas/e2studio_2021_01_workspace_RZA2M_ANPR/ANPR_RZA2M_EBK/src/tensorflow_lite/third_party/gemmlowp/fixedpoint\fixedpoint.h **** }
  91:C:/Renesas/e2studio_2021_01_workspace_RZA2M_ANPR/ANPR_RZA2M_EBK/src/tensorflow_lite/third_party/gemmlowp/fixedpoint\fixedpoint.h **** 
  92:C:/Renesas/e2studio_2021_01_workspace_RZA2M_ANPR/ANPR_RZA2M_EBK/src/tensorflow_lite/third_party/gemmlowp/fixedpoint\fixedpoint.h **** // Integer addition. Not saturating. Overflow is undefined behavior.
  93:C:/Renesas/e2studio_2021_01_workspace_RZA2M_ANPR/ANPR_RZA2M_EBK/src/tensorflow_lite/third_party/gemmlowp/fixedpoint\fixedpoint.h **** template <typename tIntegerType>
  94:C:/Renesas/e2studio_2021_01_workspace_RZA2M_ANPR/ANPR_RZA2M_EBK/src/tensorflow_lite/third_party/gemmlowp/fixedpoint\fixedpoint.h **** tIntegerType Add(tIntegerType a, tIntegerType b) {
  95:C:/Renesas/e2studio_2021_01_workspace_RZA2M_ANPR/ANPR_RZA2M_EBK/src/tensorflow_lite/third_party/gemmlowp/fixedpoint\fixedpoint.h ****   return a + b;
  96:C:/Renesas/e2studio_2021_01_workspace_RZA2M_ANPR/ANPR_RZA2M_EBK/src/tensorflow_lite/third_party/gemmlowp/fixedpoint\fixedpoint.h **** }
  97:C:/Renesas/e2studio_2021_01_workspace_RZA2M_ANPR/ANPR_RZA2M_EBK/src/tensorflow_lite/third_party/gemmlowp/fixedpoint\fixedpoint.h **** 
  98:C:/Renesas/e2studio_2021_01_workspace_RZA2M_ANPR/ANPR_RZA2M_EBK/src/tensorflow_lite/third_party/gemmlowp/fixedpoint\fixedpoint.h **** // Integer subtraction. Not saturating. Overflow is undefined behavior.
  99:C:/Renesas/e2studio_2021_01_workspace_RZA2M_ANPR/ANPR_RZA2M_EBK/src/tensorflow_lite/third_party/gemmlowp/fixedpoint\fixedpoint.h **** template <typename tIntegerType>
 100:C:/Renesas/e2studio_2021_01_workspace_RZA2M_ANPR/ANPR_RZA2M_EBK/src/tensorflow_lite/third_party/gemmlowp/fixedpoint\fixedpoint.h **** tIntegerType Mul(tIntegerType a, tIntegerType b) {
 101:C:/Renesas/e2studio_2021_01_workspace_RZA2M_ANPR/ANPR_RZA2M_EBK/src/tensorflow_lite/third_party/gemmlowp/fixedpoint\fixedpoint.h ****   return a * b;
 102:C:/Renesas/e2studio_2021_01_workspace_RZA2M_ANPR/ANPR_RZA2M_EBK/src/tensorflow_lite/third_party/gemmlowp/fixedpoint\fixedpoint.h **** }
 103:C:/Renesas/e2studio_2021_01_workspace_RZA2M_ANPR/ANPR_RZA2M_EBK/src/tensorflow_lite/third_party/gemmlowp/fixedpoint\fixedpoint.h **** 
 104:C:/Renesas/e2studio_2021_01_workspace_RZA2M_ANPR/ANPR_RZA2M_EBK/src/tensorflow_lite/third_party/gemmlowp/fixedpoint\fixedpoint.h **** template <typename tIntegerType>
 105:C:/Renesas/e2studio_2021_01_workspace_RZA2M_ANPR/ANPR_RZA2M_EBK/src/tensorflow_lite/third_party/gemmlowp/fixedpoint\fixedpoint.h **** tIntegerType Sub(tIntegerType a, tIntegerType b) {
 106:C:/Renesas/e2studio_2021_01_workspace_RZA2M_ANPR/ANPR_RZA2M_EBK/src/tensorflow_lite/third_party/gemmlowp/fixedpoint\fixedpoint.h ****   return a - b;
 107:C:/Renesas/e2studio_2021_01_workspace_RZA2M_ANPR/ANPR_RZA2M_EBK/src/tensorflow_lite/third_party/gemmlowp/fixedpoint\fixedpoint.h **** }
 108:C:/Renesas/e2studio_2021_01_workspace_RZA2M_ANPR/ANPR_RZA2M_EBK/src/tensorflow_lite/third_party/gemmlowp/fixedpoint\fixedpoint.h **** 
 109:C:/Renesas/e2studio_2021_01_workspace_RZA2M_ANPR/ANPR_RZA2M_EBK/src/tensorflow_lite/third_party/gemmlowp/fixedpoint\fixedpoint.h **** // Integer unary negative. Not saturating. Overflow is undefined behavior.
 110:C:/Renesas/e2studio_2021_01_workspace_RZA2M_ANPR/ANPR_RZA2M_EBK/src/tensorflow_lite/third_party/gemmlowp/fixedpoint\fixedpoint.h **** template <typename tIntegerType>
 111:C:/Renesas/e2studio_2021_01_workspace_RZA2M_ANPR/ANPR_RZA2M_EBK/src/tensorflow_lite/third_party/gemmlowp/fixedpoint\fixedpoint.h **** tIntegerType Neg(tIntegerType a) {
 112:C:/Renesas/e2studio_2021_01_workspace_RZA2M_ANPR/ANPR_RZA2M_EBK/src/tensorflow_lite/third_party/gemmlowp/fixedpoint\fixedpoint.h ****   return -a;
 113:C:/Renesas/e2studio_2021_01_workspace_RZA2M_ANPR/ANPR_RZA2M_EBK/src/tensorflow_lite/third_party/gemmlowp/fixedpoint\fixedpoint.h **** }
 114:C:/Renesas/e2studio_2021_01_workspace_RZA2M_ANPR/ANPR_RZA2M_EBK/src/tensorflow_lite/third_party/gemmlowp/fixedpoint\fixedpoint.h **** 
 115:C:/Renesas/e2studio_2021_01_workspace_RZA2M_ANPR/ANPR_RZA2M_EBK/src/tensorflow_lite/third_party/gemmlowp/fixedpoint\fixedpoint.h **** // Integer arithmetic left-shift, equivalent to multiplying with a power of two.
 116:C:/Renesas/e2studio_2021_01_workspace_RZA2M_ANPR/ANPR_RZA2M_EBK/src/tensorflow_lite/third_party/gemmlowp/fixedpoint\fixedpoint.h **** // Negative values are OK. In case of overflow, no Undefined
 117:C:/Renesas/e2studio_2021_01_workspace_RZA2M_ANPR/ANPR_RZA2M_EBK/src/tensorflow_lite/third_party/gemmlowp/fixedpoint\fixedpoint.h **** // Behavior, but the results are implementation-defined (in practice,
 118:C:/Renesas/e2studio_2021_01_workspace_RZA2M_ANPR/ANPR_RZA2M_EBK/src/tensorflow_lite/third_party/gemmlowp/fixedpoint\fixedpoint.h **** // they currently are saturated, but we make no commitment to that). The idea
 119:C:/Renesas/e2studio_2021_01_workspace_RZA2M_ANPR/ANPR_RZA2M_EBK/src/tensorflow_lite/third_party/gemmlowp/fixedpoint\fixedpoint.h **** // is that the caller will want to implement the overflowing cases with
 120:C:/Renesas/e2studio_2021_01_workspace_RZA2M_ANPR/ANPR_RZA2M_EBK/src/tensorflow_lite/third_party/gemmlowp/fixedpoint\fixedpoint.h **** // saturation with compare-and-mask, so we don't care about the results
 121:C:/Renesas/e2studio_2021_01_workspace_RZA2M_ANPR/ANPR_RZA2M_EBK/src/tensorflow_lite/third_party/gemmlowp/fixedpoint\fixedpoint.h **** // in the overflow case, we just want to avoid undefined behavior.
 122:C:/Renesas/e2studio_2021_01_workspace_RZA2M_ANPR/ANPR_RZA2M_EBK/src/tensorflow_lite/third_party/gemmlowp/fixedpoint\fixedpoint.h **** //
 123:C:/Renesas/e2studio_2021_01_workspace_RZA2M_ANPR/ANPR_RZA2M_EBK/src/tensorflow_lite/third_party/gemmlowp/fixedpoint\fixedpoint.h **** // tIntegerType may be int32 or any narrower signed type.
 124:C:/Renesas/e2studio_2021_01_workspace_RZA2M_ANPR/ANPR_RZA2M_EBK/src/tensorflow_lite/third_party/gemmlowp/fixedpoint\fixedpoint.h **** template <typename tIntegerType>
 125:C:/Renesas/e2studio_2021_01_workspace_RZA2M_ANPR/ANPR_RZA2M_EBK/src/tensorflow_lite/third_party/gemmlowp/fixedpoint\fixedpoint.h **** tIntegerType ShiftLeft(tIntegerType a, int offset) {
 126:C:/Renesas/e2studio_2021_01_workspace_RZA2M_ANPR/ANPR_RZA2M_EBK/src/tensorflow_lite/third_party/gemmlowp/fixedpoint\fixedpoint.h ****   const std::int64_t wide_a = static_cast<std::int64_t>(a);
 127:C:/Renesas/e2studio_2021_01_workspace_RZA2M_ANPR/ANPR_RZA2M_EBK/src/tensorflow_lite/third_party/gemmlowp/fixedpoint\fixedpoint.h ****   const std::int64_t wide_shifted = wide_a * (1 << offset);
 128:C:/Renesas/e2studio_2021_01_workspace_RZA2M_ANPR/ANPR_RZA2M_EBK/src/tensorflow_lite/third_party/gemmlowp/fixedpoint\fixedpoint.h ****   const auto min = std::numeric_limits<tIntegerType>::min();
 129:C:/Renesas/e2studio_2021_01_workspace_RZA2M_ANPR/ANPR_RZA2M_EBK/src/tensorflow_lite/third_party/gemmlowp/fixedpoint\fixedpoint.h ****   const auto max = std::numeric_limits<tIntegerType>::max();
 130:C:/Renesas/e2studio_2021_01_workspace_RZA2M_ANPR/ANPR_RZA2M_EBK/src/tensorflow_lite/third_party/gemmlowp/fixedpoint\fixedpoint.h ****   return wide_shifted < min
 131:C:/Renesas/e2studio_2021_01_workspace_RZA2M_ANPR/ANPR_RZA2M_EBK/src/tensorflow_lite/third_party/gemmlowp/fixedpoint\fixedpoint.h ****              ? min
 132:C:/Renesas/e2studio_2021_01_workspace_RZA2M_ANPR/ANPR_RZA2M_EBK/src/tensorflow_lite/third_party/gemmlowp/fixedpoint\fixedpoint.h ****              : wide_shifted > max ? max
 133:C:/Renesas/e2studio_2021_01_workspace_RZA2M_ANPR/ANPR_RZA2M_EBK/src/tensorflow_lite/third_party/gemmlowp/fixedpoint\fixedpoint.h ****                                   : static_cast<tIntegerType>(wide_shifted);
 134:C:/Renesas/e2studio_2021_01_workspace_RZA2M_ANPR/ANPR_RZA2M_EBK/src/tensorflow_lite/third_party/gemmlowp/fixedpoint\fixedpoint.h **** }
 135:C:/Renesas/e2studio_2021_01_workspace_RZA2M_ANPR/ANPR_RZA2M_EBK/src/tensorflow_lite/third_party/gemmlowp/fixedpoint\fixedpoint.h **** 
 136:C:/Renesas/e2studio_2021_01_workspace_RZA2M_ANPR/ANPR_RZA2M_EBK/src/tensorflow_lite/third_party/gemmlowp/fixedpoint\fixedpoint.h **** // Integer arithmetic right-shift. Not rounding.
 137:C:/Renesas/e2studio_2021_01_workspace_RZA2M_ANPR/ANPR_RZA2M_EBK/src/tensorflow_lite/third_party/gemmlowp/fixedpoint\fixedpoint.h **** // Relying on implementation-defined, but in-practice-consistent,
 138:C:/Renesas/e2studio_2021_01_workspace_RZA2M_ANPR/ANPR_RZA2M_EBK/src/tensorflow_lite/third_party/gemmlowp/fixedpoint\fixedpoint.h **** // C++ compiler behavior.
 139:C:/Renesas/e2studio_2021_01_workspace_RZA2M_ANPR/ANPR_RZA2M_EBK/src/tensorflow_lite/third_party/gemmlowp/fixedpoint\fixedpoint.h **** template <typename tIntegerType>
 140:C:/Renesas/e2studio_2021_01_workspace_RZA2M_ANPR/ANPR_RZA2M_EBK/src/tensorflow_lite/third_party/gemmlowp/fixedpoint\fixedpoint.h **** tIntegerType ShiftRight(tIntegerType a, int offset) {
 141:C:/Renesas/e2studio_2021_01_workspace_RZA2M_ANPR/ANPR_RZA2M_EBK/src/tensorflow_lite/third_party/gemmlowp/fixedpoint\fixedpoint.h ****   return a >> offset;
 142:C:/Renesas/e2studio_2021_01_workspace_RZA2M_ANPR/ANPR_RZA2M_EBK/src/tensorflow_lite/third_party/gemmlowp/fixedpoint\fixedpoint.h **** }
 143:C:/Renesas/e2studio_2021_01_workspace_RZA2M_ANPR/ANPR_RZA2M_EBK/src/tensorflow_lite/third_party/gemmlowp/fixedpoint\fixedpoint.h **** 
 144:C:/Renesas/e2studio_2021_01_workspace_RZA2M_ANPR/ANPR_RZA2M_EBK/src/tensorflow_lite/third_party/gemmlowp/fixedpoint\fixedpoint.h **** // Each bit of the result is set to the corresponding bit of either then_val or
 145:C:/Renesas/e2studio_2021_01_workspace_RZA2M_ANPR/ANPR_RZA2M_EBK/src/tensorflow_lite/third_party/gemmlowp/fixedpoint\fixedpoint.h **** // else_val depending on whether the corresponding bit of if_mask is set.
 146:C:/Renesas/e2studio_2021_01_workspace_RZA2M_ANPR/ANPR_RZA2M_EBK/src/tensorflow_lite/third_party/gemmlowp/fixedpoint\fixedpoint.h **** // Equivalent to the VBSL instruction in ARM NEON.
 147:C:/Renesas/e2studio_2021_01_workspace_RZA2M_ANPR/ANPR_RZA2M_EBK/src/tensorflow_lite/third_party/gemmlowp/fixedpoint\fixedpoint.h **** template <typename tIntegerType>
 148:C:/Renesas/e2studio_2021_01_workspace_RZA2M_ANPR/ANPR_RZA2M_EBK/src/tensorflow_lite/third_party/gemmlowp/fixedpoint\fixedpoint.h **** tIntegerType SelectUsingMask(tIntegerType if_mask, tIntegerType then_val,
 149:C:/Renesas/e2studio_2021_01_workspace_RZA2M_ANPR/ANPR_RZA2M_EBK/src/tensorflow_lite/third_party/gemmlowp/fixedpoint\fixedpoint.h ****                              tIntegerType else_val) {
 150:C:/Renesas/e2studio_2021_01_workspace_RZA2M_ANPR/ANPR_RZA2M_EBK/src/tensorflow_lite/third_party/gemmlowp/fixedpoint\fixedpoint.h ****   return BitXor(BitAnd(if_mask, then_val), BitAnd(BitNot(if_mask), else_val));
 151:C:/Renesas/e2studio_2021_01_workspace_RZA2M_ANPR/ANPR_RZA2M_EBK/src/tensorflow_lite/third_party/gemmlowp/fixedpoint\fixedpoint.h **** }
 152:C:/Renesas/e2studio_2021_01_workspace_RZA2M_ANPR/ANPR_RZA2M_EBK/src/tensorflow_lite/third_party/gemmlowp/fixedpoint\fixedpoint.h **** 
 153:C:/Renesas/e2studio_2021_01_workspace_RZA2M_ANPR/ANPR_RZA2M_EBK/src/tensorflow_lite/third_party/gemmlowp/fixedpoint\fixedpoint.h **** // For each input scalar, the corresponding bits of the result are set if the
 154:C:/Renesas/e2studio_2021_01_workspace_RZA2M_ANPR/ANPR_RZA2M_EBK/src/tensorflow_lite/third_party/gemmlowp/fixedpoint\fixedpoint.h **** // input scalar is non-zero.
 155:C:/Renesas/e2studio_2021_01_workspace_RZA2M_ANPR/ANPR_RZA2M_EBK/src/tensorflow_lite/third_party/gemmlowp/fixedpoint\fixedpoint.h **** template <typename tIntegerType>
 156:C:/Renesas/e2studio_2021_01_workspace_RZA2M_ANPR/ANPR_RZA2M_EBK/src/tensorflow_lite/third_party/gemmlowp/fixedpoint\fixedpoint.h **** tIntegerType MaskIfNonZero(tIntegerType a) {
 157:C:/Renesas/e2studio_2021_01_workspace_RZA2M_ANPR/ANPR_RZA2M_EBK/src/tensorflow_lite/third_party/gemmlowp/fixedpoint\fixedpoint.h ****   static constexpr tIntegerType zero = 0;
 158:C:/Renesas/e2studio_2021_01_workspace_RZA2M_ANPR/ANPR_RZA2M_EBK/src/tensorflow_lite/third_party/gemmlowp/fixedpoint\fixedpoint.h ****   return a ? BitNot(zero) : zero;
 159:C:/Renesas/e2studio_2021_01_workspace_RZA2M_ANPR/ANPR_RZA2M_EBK/src/tensorflow_lite/third_party/gemmlowp/fixedpoint\fixedpoint.h **** }
 160:C:/Renesas/e2studio_2021_01_workspace_RZA2M_ANPR/ANPR_RZA2M_EBK/src/tensorflow_lite/third_party/gemmlowp/fixedpoint\fixedpoint.h **** 
 161:C:/Renesas/e2studio_2021_01_workspace_RZA2M_ANPR/ANPR_RZA2M_EBK/src/tensorflow_lite/third_party/gemmlowp/fixedpoint\fixedpoint.h **** // For each input scalar, the corresponding bits of the result are set if the
 162:C:/Renesas/e2studio_2021_01_workspace_RZA2M_ANPR/ANPR_RZA2M_EBK/src/tensorflow_lite/third_party/gemmlowp/fixedpoint\fixedpoint.h **** // input scalar is zero.
 163:C:/Renesas/e2studio_2021_01_workspace_RZA2M_ANPR/ANPR_RZA2M_EBK/src/tensorflow_lite/third_party/gemmlowp/fixedpoint\fixedpoint.h **** template <typename tIntegerType>
 164:C:/Renesas/e2studio_2021_01_workspace_RZA2M_ANPR/ANPR_RZA2M_EBK/src/tensorflow_lite/third_party/gemmlowp/fixedpoint\fixedpoint.h **** tIntegerType MaskIfZero(tIntegerType a) {
 165:C:/Renesas/e2studio_2021_01_workspace_RZA2M_ANPR/ANPR_RZA2M_EBK/src/tensorflow_lite/third_party/gemmlowp/fixedpoint\fixedpoint.h ****   return MaskIfNonZero<tIntegerType>(!a);
 166:C:/Renesas/e2studio_2021_01_workspace_RZA2M_ANPR/ANPR_RZA2M_EBK/src/tensorflow_lite/third_party/gemmlowp/fixedpoint\fixedpoint.h **** }
 167:C:/Renesas/e2studio_2021_01_workspace_RZA2M_ANPR/ANPR_RZA2M_EBK/src/tensorflow_lite/third_party/gemmlowp/fixedpoint\fixedpoint.h **** 
 168:C:/Renesas/e2studio_2021_01_workspace_RZA2M_ANPR/ANPR_RZA2M_EBK/src/tensorflow_lite/third_party/gemmlowp/fixedpoint\fixedpoint.h **** // For each pair of input scalars, the corresponding bits of the result are
 169:C:/Renesas/e2studio_2021_01_workspace_RZA2M_ANPR/ANPR_RZA2M_EBK/src/tensorflow_lite/third_party/gemmlowp/fixedpoint\fixedpoint.h **** // set if the input scalars are equal.
 170:C:/Renesas/e2studio_2021_01_workspace_RZA2M_ANPR/ANPR_RZA2M_EBK/src/tensorflow_lite/third_party/gemmlowp/fixedpoint\fixedpoint.h **** template <typename tIntegerType>
 171:C:/Renesas/e2studio_2021_01_workspace_RZA2M_ANPR/ANPR_RZA2M_EBK/src/tensorflow_lite/third_party/gemmlowp/fixedpoint\fixedpoint.h **** tIntegerType MaskIfEqual(tIntegerType a, tIntegerType b) {
 172:C:/Renesas/e2studio_2021_01_workspace_RZA2M_ANPR/ANPR_RZA2M_EBK/src/tensorflow_lite/third_party/gemmlowp/fixedpoint\fixedpoint.h ****   return MaskIfNonZero<tIntegerType>(a == b);
 173:C:/Renesas/e2studio_2021_01_workspace_RZA2M_ANPR/ANPR_RZA2M_EBK/src/tensorflow_lite/third_party/gemmlowp/fixedpoint\fixedpoint.h **** }
 174:C:/Renesas/e2studio_2021_01_workspace_RZA2M_ANPR/ANPR_RZA2M_EBK/src/tensorflow_lite/third_party/gemmlowp/fixedpoint\fixedpoint.h **** 
 175:C:/Renesas/e2studio_2021_01_workspace_RZA2M_ANPR/ANPR_RZA2M_EBK/src/tensorflow_lite/third_party/gemmlowp/fixedpoint\fixedpoint.h **** // For each pair of input scalars, the corresponding bits of the result are
 176:C:/Renesas/e2studio_2021_01_workspace_RZA2M_ANPR/ANPR_RZA2M_EBK/src/tensorflow_lite/third_party/gemmlowp/fixedpoint\fixedpoint.h **** // set if the input scalars are not equal.
 177:C:/Renesas/e2studio_2021_01_workspace_RZA2M_ANPR/ANPR_RZA2M_EBK/src/tensorflow_lite/third_party/gemmlowp/fixedpoint\fixedpoint.h **** template <typename tIntegerType>
 178:C:/Renesas/e2studio_2021_01_workspace_RZA2M_ANPR/ANPR_RZA2M_EBK/src/tensorflow_lite/third_party/gemmlowp/fixedpoint\fixedpoint.h **** tIntegerType MaskIfNotEqual(tIntegerType a, tIntegerType b) {
 179:C:/Renesas/e2studio_2021_01_workspace_RZA2M_ANPR/ANPR_RZA2M_EBK/src/tensorflow_lite/third_party/gemmlowp/fixedpoint\fixedpoint.h ****   return MaskIfNonZero<tIntegerType>(a != b);
 180:C:/Renesas/e2studio_2021_01_workspace_RZA2M_ANPR/ANPR_RZA2M_EBK/src/tensorflow_lite/third_party/gemmlowp/fixedpoint\fixedpoint.h **** }
 181:C:/Renesas/e2studio_2021_01_workspace_RZA2M_ANPR/ANPR_RZA2M_EBK/src/tensorflow_lite/third_party/gemmlowp/fixedpoint\fixedpoint.h **** 
 182:C:/Renesas/e2studio_2021_01_workspace_RZA2M_ANPR/ANPR_RZA2M_EBK/src/tensorflow_lite/third_party/gemmlowp/fixedpoint\fixedpoint.h **** // For each pair of input scalars, the corresponding bits of the result are
 183:C:/Renesas/e2studio_2021_01_workspace_RZA2M_ANPR/ANPR_RZA2M_EBK/src/tensorflow_lite/third_party/gemmlowp/fixedpoint\fixedpoint.h **** // set if the input scalars a, b satisfy a > b.
 184:C:/Renesas/e2studio_2021_01_workspace_RZA2M_ANPR/ANPR_RZA2M_EBK/src/tensorflow_lite/third_party/gemmlowp/fixedpoint\fixedpoint.h **** template <typename tIntegerType>
 185:C:/Renesas/e2studio_2021_01_workspace_RZA2M_ANPR/ANPR_RZA2M_EBK/src/tensorflow_lite/third_party/gemmlowp/fixedpoint\fixedpoint.h **** tIntegerType MaskIfGreaterThan(tIntegerType a, tIntegerType b) {
 186:C:/Renesas/e2studio_2021_01_workspace_RZA2M_ANPR/ANPR_RZA2M_EBK/src/tensorflow_lite/third_party/gemmlowp/fixedpoint\fixedpoint.h ****   return MaskIfNonZero<tIntegerType>(a > b);
 187:C:/Renesas/e2studio_2021_01_workspace_RZA2M_ANPR/ANPR_RZA2M_EBK/src/tensorflow_lite/third_party/gemmlowp/fixedpoint\fixedpoint.h **** }
 188:C:/Renesas/e2studio_2021_01_workspace_RZA2M_ANPR/ANPR_RZA2M_EBK/src/tensorflow_lite/third_party/gemmlowp/fixedpoint\fixedpoint.h **** 
 189:C:/Renesas/e2studio_2021_01_workspace_RZA2M_ANPR/ANPR_RZA2M_EBK/src/tensorflow_lite/third_party/gemmlowp/fixedpoint\fixedpoint.h **** // For each pair of input scalars, the corresponding bits of the result are
 190:C:/Renesas/e2studio_2021_01_workspace_RZA2M_ANPR/ANPR_RZA2M_EBK/src/tensorflow_lite/third_party/gemmlowp/fixedpoint\fixedpoint.h **** // set if the input scalars a, b satisfy a >= b.
 191:C:/Renesas/e2studio_2021_01_workspace_RZA2M_ANPR/ANPR_RZA2M_EBK/src/tensorflow_lite/third_party/gemmlowp/fixedpoint\fixedpoint.h **** template <typename tIntegerType>
 192:C:/Renesas/e2studio_2021_01_workspace_RZA2M_ANPR/ANPR_RZA2M_EBK/src/tensorflow_lite/third_party/gemmlowp/fixedpoint\fixedpoint.h **** tIntegerType MaskIfGreaterThanOrEqual(tIntegerType a, tIntegerType b) {
 193:C:/Renesas/e2studio_2021_01_workspace_RZA2M_ANPR/ANPR_RZA2M_EBK/src/tensorflow_lite/third_party/gemmlowp/fixedpoint\fixedpoint.h ****   return MaskIfNonZero<tIntegerType>(a >= b);
 194:C:/Renesas/e2studio_2021_01_workspace_RZA2M_ANPR/ANPR_RZA2M_EBK/src/tensorflow_lite/third_party/gemmlowp/fixedpoint\fixedpoint.h **** }
 195:C:/Renesas/e2studio_2021_01_workspace_RZA2M_ANPR/ANPR_RZA2M_EBK/src/tensorflow_lite/third_party/gemmlowp/fixedpoint\fixedpoint.h **** 
 196:C:/Renesas/e2studio_2021_01_workspace_RZA2M_ANPR/ANPR_RZA2M_EBK/src/tensorflow_lite/third_party/gemmlowp/fixedpoint\fixedpoint.h **** // For each pair of input scalars, the corresponding bits of the result are
 197:C:/Renesas/e2studio_2021_01_workspace_RZA2M_ANPR/ANPR_RZA2M_EBK/src/tensorflow_lite/third_party/gemmlowp/fixedpoint\fixedpoint.h **** // set if the input scalars a, b satisfy a < b.
 198:C:/Renesas/e2studio_2021_01_workspace_RZA2M_ANPR/ANPR_RZA2M_EBK/src/tensorflow_lite/third_party/gemmlowp/fixedpoint\fixedpoint.h **** template <typename tIntegerType>
 199:C:/Renesas/e2studio_2021_01_workspace_RZA2M_ANPR/ANPR_RZA2M_EBK/src/tensorflow_lite/third_party/gemmlowp/fixedpoint\fixedpoint.h **** tIntegerType MaskIfLessThan(tIntegerType a, tIntegerType b) {
 200:C:/Renesas/e2studio_2021_01_workspace_RZA2M_ANPR/ANPR_RZA2M_EBK/src/tensorflow_lite/third_party/gemmlowp/fixedpoint\fixedpoint.h ****   return MaskIfNonZero<tIntegerType>(a < b);
 201:C:/Renesas/e2studio_2021_01_workspace_RZA2M_ANPR/ANPR_RZA2M_EBK/src/tensorflow_lite/third_party/gemmlowp/fixedpoint\fixedpoint.h **** }
 202:C:/Renesas/e2studio_2021_01_workspace_RZA2M_ANPR/ANPR_RZA2M_EBK/src/tensorflow_lite/third_party/gemmlowp/fixedpoint\fixedpoint.h **** 
 203:C:/Renesas/e2studio_2021_01_workspace_RZA2M_ANPR/ANPR_RZA2M_EBK/src/tensorflow_lite/third_party/gemmlowp/fixedpoint\fixedpoint.h **** // For each pair of input scalars, the corresponding bits of the result are
 204:C:/Renesas/e2studio_2021_01_workspace_RZA2M_ANPR/ANPR_RZA2M_EBK/src/tensorflow_lite/third_party/gemmlowp/fixedpoint\fixedpoint.h **** // set if the input scalars a, b satisfy a <= b.
 205:C:/Renesas/e2studio_2021_01_workspace_RZA2M_ANPR/ANPR_RZA2M_EBK/src/tensorflow_lite/third_party/gemmlowp/fixedpoint\fixedpoint.h **** template <typename tIntegerType>
 206:C:/Renesas/e2studio_2021_01_workspace_RZA2M_ANPR/ANPR_RZA2M_EBK/src/tensorflow_lite/third_party/gemmlowp/fixedpoint\fixedpoint.h **** tIntegerType MaskIfLessThanOrEqual(tIntegerType a, tIntegerType b) {
 207:C:/Renesas/e2studio_2021_01_workspace_RZA2M_ANPR/ANPR_RZA2M_EBK/src/tensorflow_lite/third_party/gemmlowp/fixedpoint\fixedpoint.h ****   return MaskIfNonZero<tIntegerType>(a <= b);
 208:C:/Renesas/e2studio_2021_01_workspace_RZA2M_ANPR/ANPR_RZA2M_EBK/src/tensorflow_lite/third_party/gemmlowp/fixedpoint\fixedpoint.h **** }
 209:C:/Renesas/e2studio_2021_01_workspace_RZA2M_ANPR/ANPR_RZA2M_EBK/src/tensorflow_lite/third_party/gemmlowp/fixedpoint\fixedpoint.h **** 
 210:C:/Renesas/e2studio_2021_01_workspace_RZA2M_ANPR/ANPR_RZA2M_EBK/src/tensorflow_lite/third_party/gemmlowp/fixedpoint\fixedpoint.h **** // Returns true if all of the input scalars are nonzero.
 211:C:/Renesas/e2studio_2021_01_workspace_RZA2M_ANPR/ANPR_RZA2M_EBK/src/tensorflow_lite/third_party/gemmlowp/fixedpoint\fixedpoint.h **** // This function may currently assume that each of the input scalars has either
 212:C:/Renesas/e2studio_2021_01_workspace_RZA2M_ANPR/ANPR_RZA2M_EBK/src/tensorflow_lite/third_party/gemmlowp/fixedpoint\fixedpoint.h **** // all or none of its bits set. Otherwise, its behavior is currently undefined.
 213:C:/Renesas/e2studio_2021_01_workspace_RZA2M_ANPR/ANPR_RZA2M_EBK/src/tensorflow_lite/third_party/gemmlowp/fixedpoint\fixedpoint.h **** template <typename tIntegerType>
 214:C:/Renesas/e2studio_2021_01_workspace_RZA2M_ANPR/ANPR_RZA2M_EBK/src/tensorflow_lite/third_party/gemmlowp/fixedpoint\fixedpoint.h **** bool All(tIntegerType a) {
 215:C:/Renesas/e2studio_2021_01_workspace_RZA2M_ANPR/ANPR_RZA2M_EBK/src/tensorflow_lite/third_party/gemmlowp/fixedpoint\fixedpoint.h ****   return a;
 216:C:/Renesas/e2studio_2021_01_workspace_RZA2M_ANPR/ANPR_RZA2M_EBK/src/tensorflow_lite/third_party/gemmlowp/fixedpoint\fixedpoint.h **** }
 217:C:/Renesas/e2studio_2021_01_workspace_RZA2M_ANPR/ANPR_RZA2M_EBK/src/tensorflow_lite/third_party/gemmlowp/fixedpoint\fixedpoint.h **** 
 218:C:/Renesas/e2studio_2021_01_workspace_RZA2M_ANPR/ANPR_RZA2M_EBK/src/tensorflow_lite/third_party/gemmlowp/fixedpoint\fixedpoint.h **** // Returns true if any of the input scalars are nonzero.
 219:C:/Renesas/e2studio_2021_01_workspace_RZA2M_ANPR/ANPR_RZA2M_EBK/src/tensorflow_lite/third_party/gemmlowp/fixedpoint\fixedpoint.h **** // This function may currently assume that each of the input scalars has either
 220:C:/Renesas/e2studio_2021_01_workspace_RZA2M_ANPR/ANPR_RZA2M_EBK/src/tensorflow_lite/third_party/gemmlowp/fixedpoint\fixedpoint.h **** // all or none of its bits set. Otherwise, its behavior is currently undefined.
 221:C:/Renesas/e2studio_2021_01_workspace_RZA2M_ANPR/ANPR_RZA2M_EBK/src/tensorflow_lite/third_party/gemmlowp/fixedpoint\fixedpoint.h **** template <typename tIntegerType>
 222:C:/Renesas/e2studio_2021_01_workspace_RZA2M_ANPR/ANPR_RZA2M_EBK/src/tensorflow_lite/third_party/gemmlowp/fixedpoint\fixedpoint.h **** bool Any(tIntegerType a) {
 223:C:/Renesas/e2studio_2021_01_workspace_RZA2M_ANPR/ANPR_RZA2M_EBK/src/tensorflow_lite/third_party/gemmlowp/fixedpoint\fixedpoint.h ****   return a;
 224:C:/Renesas/e2studio_2021_01_workspace_RZA2M_ANPR/ANPR_RZA2M_EBK/src/tensorflow_lite/third_party/gemmlowp/fixedpoint\fixedpoint.h **** }
 225:C:/Renesas/e2studio_2021_01_workspace_RZA2M_ANPR/ANPR_RZA2M_EBK/src/tensorflow_lite/third_party/gemmlowp/fixedpoint\fixedpoint.h **** 
 226:C:/Renesas/e2studio_2021_01_workspace_RZA2M_ANPR/ANPR_RZA2M_EBK/src/tensorflow_lite/third_party/gemmlowp/fixedpoint\fixedpoint.h **** // Returns (a+b)/2, rounded to the nearest integer.
 227:C:/Renesas/e2studio_2021_01_workspace_RZA2M_ANPR/ANPR_RZA2M_EBK/src/tensorflow_lite/third_party/gemmlowp/fixedpoint\fixedpoint.h **** // Equivalent to VRHADD in the ARM NEON instruction set.
 228:C:/Renesas/e2studio_2021_01_workspace_RZA2M_ANPR/ANPR_RZA2M_EBK/src/tensorflow_lite/third_party/gemmlowp/fixedpoint\fixedpoint.h **** template <typename IntegerType>
 229:C:/Renesas/e2studio_2021_01_workspace_RZA2M_ANPR/ANPR_RZA2M_EBK/src/tensorflow_lite/third_party/gemmlowp/fixedpoint\fixedpoint.h **** IntegerType RoundingHalfSum(IntegerType a, IntegerType b) {
 230:C:/Renesas/e2studio_2021_01_workspace_RZA2M_ANPR/ANPR_RZA2M_EBK/src/tensorflow_lite/third_party/gemmlowp/fixedpoint\fixedpoint.h ****   static_assert(std::is_same<IntegerType, void>::value, "unimplemented");
 231:C:/Renesas/e2studio_2021_01_workspace_RZA2M_ANPR/ANPR_RZA2M_EBK/src/tensorflow_lite/third_party/gemmlowp/fixedpoint\fixedpoint.h ****   (void)b;
 232:C:/Renesas/e2studio_2021_01_workspace_RZA2M_ANPR/ANPR_RZA2M_EBK/src/tensorflow_lite/third_party/gemmlowp/fixedpoint\fixedpoint.h ****   return a;
 233:C:/Renesas/e2studio_2021_01_workspace_RZA2M_ANPR/ANPR_RZA2M_EBK/src/tensorflow_lite/third_party/gemmlowp/fixedpoint\fixedpoint.h **** }
 234:C:/Renesas/e2studio_2021_01_workspace_RZA2M_ANPR/ANPR_RZA2M_EBK/src/tensorflow_lite/third_party/gemmlowp/fixedpoint\fixedpoint.h **** 
 235:C:/Renesas/e2studio_2021_01_workspace_RZA2M_ANPR/ANPR_RZA2M_EBK/src/tensorflow_lite/third_party/gemmlowp/fixedpoint\fixedpoint.h **** template <>
 236:C:/Renesas/e2studio_2021_01_workspace_RZA2M_ANPR/ANPR_RZA2M_EBK/src/tensorflow_lite/third_party/gemmlowp/fixedpoint\fixedpoint.h **** inline std::int32_t RoundingHalfSum(std::int32_t a, std::int32_t b) {
 237:C:/Renesas/e2studio_2021_01_workspace_RZA2M_ANPR/ANPR_RZA2M_EBK/src/tensorflow_lite/third_party/gemmlowp/fixedpoint\fixedpoint.h ****   std::int64_t a64 = a;
 238:C:/Renesas/e2studio_2021_01_workspace_RZA2M_ANPR/ANPR_RZA2M_EBK/src/tensorflow_lite/third_party/gemmlowp/fixedpoint\fixedpoint.h ****   std::int64_t b64 = b;
 239:C:/Renesas/e2studio_2021_01_workspace_RZA2M_ANPR/ANPR_RZA2M_EBK/src/tensorflow_lite/third_party/gemmlowp/fixedpoint\fixedpoint.h ****   std::int64_t sum = a64 + b64;
 240:C:/Renesas/e2studio_2021_01_workspace_RZA2M_ANPR/ANPR_RZA2M_EBK/src/tensorflow_lite/third_party/gemmlowp/fixedpoint\fixedpoint.h ****   std::int64_t sign = sum >= 0 ? 1 : -1;
 241:C:/Renesas/e2studio_2021_01_workspace_RZA2M_ANPR/ANPR_RZA2M_EBK/src/tensorflow_lite/third_party/gemmlowp/fixedpoint\fixedpoint.h ****   return static_cast<std::int32_t>((sum + sign) / 2);
 242:C:/Renesas/e2studio_2021_01_workspace_RZA2M_ANPR/ANPR_RZA2M_EBK/src/tensorflow_lite/third_party/gemmlowp/fixedpoint\fixedpoint.h **** }
 243:C:/Renesas/e2studio_2021_01_workspace_RZA2M_ANPR/ANPR_RZA2M_EBK/src/tensorflow_lite/third_party/gemmlowp/fixedpoint\fixedpoint.h **** 
 244:C:/Renesas/e2studio_2021_01_workspace_RZA2M_ANPR/ANPR_RZA2M_EBK/src/tensorflow_lite/third_party/gemmlowp/fixedpoint\fixedpoint.h **** template <>
 245:C:/Renesas/e2studio_2021_01_workspace_RZA2M_ANPR/ANPR_RZA2M_EBK/src/tensorflow_lite/third_party/gemmlowp/fixedpoint\fixedpoint.h **** inline std::int16_t RoundingHalfSum(std::int16_t a, std::int16_t b) {
 246:C:/Renesas/e2studio_2021_01_workspace_RZA2M_ANPR/ANPR_RZA2M_EBK/src/tensorflow_lite/third_party/gemmlowp/fixedpoint\fixedpoint.h ****   std::int32_t a32 = a;
 247:C:/Renesas/e2studio_2021_01_workspace_RZA2M_ANPR/ANPR_RZA2M_EBK/src/tensorflow_lite/third_party/gemmlowp/fixedpoint\fixedpoint.h ****   std::int32_t b32 = b;
 248:C:/Renesas/e2studio_2021_01_workspace_RZA2M_ANPR/ANPR_RZA2M_EBK/src/tensorflow_lite/third_party/gemmlowp/fixedpoint\fixedpoint.h ****   std::int32_t sum = a32 + b32;
 249:C:/Renesas/e2studio_2021_01_workspace_RZA2M_ANPR/ANPR_RZA2M_EBK/src/tensorflow_lite/third_party/gemmlowp/fixedpoint\fixedpoint.h ****   std::int32_t sign = sum >= 0 ? 1 : -1;
 250:C:/Renesas/e2studio_2021_01_workspace_RZA2M_ANPR/ANPR_RZA2M_EBK/src/tensorflow_lite/third_party/gemmlowp/fixedpoint\fixedpoint.h ****   return static_cast<std::int16_t>((sum + sign) / 2);
 251:C:/Renesas/e2studio_2021_01_workspace_RZA2M_ANPR/ANPR_RZA2M_EBK/src/tensorflow_lite/third_party/gemmlowp/fixedpoint\fixedpoint.h **** }
 252:C:/Renesas/e2studio_2021_01_workspace_RZA2M_ANPR/ANPR_RZA2M_EBK/src/tensorflow_lite/third_party/gemmlowp/fixedpoint\fixedpoint.h **** 
 253:C:/Renesas/e2studio_2021_01_workspace_RZA2M_ANPR/ANPR_RZA2M_EBK/src/tensorflow_lite/third_party/gemmlowp/fixedpoint\fixedpoint.h **** template <typename IntegerType>
 254:C:/Renesas/e2studio_2021_01_workspace_RZA2M_ANPR/ANPR_RZA2M_EBK/src/tensorflow_lite/third_party/gemmlowp/fixedpoint\fixedpoint.h **** IntegerType SaturatingAdd(IntegerType a, IntegerType b) {
 255:C:/Renesas/e2studio_2021_01_workspace_RZA2M_ANPR/ANPR_RZA2M_EBK/src/tensorflow_lite/third_party/gemmlowp/fixedpoint\fixedpoint.h ****   static_assert(std::is_same<IntegerType, void>::value, "unimplemented");
 256:C:/Renesas/e2studio_2021_01_workspace_RZA2M_ANPR/ANPR_RZA2M_EBK/src/tensorflow_lite/third_party/gemmlowp/fixedpoint\fixedpoint.h ****   (void)b;
 257:C:/Renesas/e2studio_2021_01_workspace_RZA2M_ANPR/ANPR_RZA2M_EBK/src/tensorflow_lite/third_party/gemmlowp/fixedpoint\fixedpoint.h ****   return a;
 258:C:/Renesas/e2studio_2021_01_workspace_RZA2M_ANPR/ANPR_RZA2M_EBK/src/tensorflow_lite/third_party/gemmlowp/fixedpoint\fixedpoint.h **** }
 259:C:/Renesas/e2studio_2021_01_workspace_RZA2M_ANPR/ANPR_RZA2M_EBK/src/tensorflow_lite/third_party/gemmlowp/fixedpoint\fixedpoint.h **** 
 260:C:/Renesas/e2studio_2021_01_workspace_RZA2M_ANPR/ANPR_RZA2M_EBK/src/tensorflow_lite/third_party/gemmlowp/fixedpoint\fixedpoint.h **** // So far this is only needed for int16.
 261:C:/Renesas/e2studio_2021_01_workspace_RZA2M_ANPR/ANPR_RZA2M_EBK/src/tensorflow_lite/third_party/gemmlowp/fixedpoint\fixedpoint.h **** template <>
 262:C:/Renesas/e2studio_2021_01_workspace_RZA2M_ANPR/ANPR_RZA2M_EBK/src/tensorflow_lite/third_party/gemmlowp/fixedpoint\fixedpoint.h **** inline std::int16_t SaturatingAdd(std::int16_t a, std::int16_t b) {
 263:C:/Renesas/e2studio_2021_01_workspace_RZA2M_ANPR/ANPR_RZA2M_EBK/src/tensorflow_lite/third_party/gemmlowp/fixedpoint\fixedpoint.h ****   std::int32_t a32 = a;
 264:C:/Renesas/e2studio_2021_01_workspace_RZA2M_ANPR/ANPR_RZA2M_EBK/src/tensorflow_lite/third_party/gemmlowp/fixedpoint\fixedpoint.h ****   std::int32_t b32 = b;
 265:C:/Renesas/e2studio_2021_01_workspace_RZA2M_ANPR/ANPR_RZA2M_EBK/src/tensorflow_lite/third_party/gemmlowp/fixedpoint\fixedpoint.h ****   std::int32_t sum = a32 + b32;
 266:C:/Renesas/e2studio_2021_01_workspace_RZA2M_ANPR/ANPR_RZA2M_EBK/src/tensorflow_lite/third_party/gemmlowp/fixedpoint\fixedpoint.h ****   return static_cast<std::int16_t>(
 267:C:/Renesas/e2studio_2021_01_workspace_RZA2M_ANPR/ANPR_RZA2M_EBK/src/tensorflow_lite/third_party/gemmlowp/fixedpoint\fixedpoint.h ****       std::min(static_cast<std::int32_t>(32767),
 268:C:/Renesas/e2studio_2021_01_workspace_RZA2M_ANPR/ANPR_RZA2M_EBK/src/tensorflow_lite/third_party/gemmlowp/fixedpoint\fixedpoint.h ****                std::max(static_cast<std::int32_t>(-32768), sum)));
 269:C:/Renesas/e2studio_2021_01_workspace_RZA2M_ANPR/ANPR_RZA2M_EBK/src/tensorflow_lite/third_party/gemmlowp/fixedpoint\fixedpoint.h **** }
 270:C:/Renesas/e2studio_2021_01_workspace_RZA2M_ANPR/ANPR_RZA2M_EBK/src/tensorflow_lite/third_party/gemmlowp/fixedpoint\fixedpoint.h **** 
 271:C:/Renesas/e2studio_2021_01_workspace_RZA2M_ANPR/ANPR_RZA2M_EBK/src/tensorflow_lite/third_party/gemmlowp/fixedpoint\fixedpoint.h **** // Returns a+b, saturating if the integers are 16bit or narrower,
 272:C:/Renesas/e2studio_2021_01_workspace_RZA2M_ANPR/ANPR_RZA2M_EBK/src/tensorflow_lite/third_party/gemmlowp/fixedpoint\fixedpoint.h **** // otherwise just a plain addition.
 273:C:/Renesas/e2studio_2021_01_workspace_RZA2M_ANPR/ANPR_RZA2M_EBK/src/tensorflow_lite/third_party/gemmlowp/fixedpoint\fixedpoint.h **** template <typename IntegerType, bool Is16Bit>
 274:C:/Renesas/e2studio_2021_01_workspace_RZA2M_ANPR/ANPR_RZA2M_EBK/src/tensorflow_lite/third_party/gemmlowp/fixedpoint\fixedpoint.h **** struct AddSaturatingIf16BitImpl {
 275:C:/Renesas/e2studio_2021_01_workspace_RZA2M_ANPR/ANPR_RZA2M_EBK/src/tensorflow_lite/third_party/gemmlowp/fixedpoint\fixedpoint.h ****   static IntegerType Run(IntegerType a, IntegerType b) { return Add(a, b); }
 276:C:/Renesas/e2studio_2021_01_workspace_RZA2M_ANPR/ANPR_RZA2M_EBK/src/tensorflow_lite/third_party/gemmlowp/fixedpoint\fixedpoint.h **** };
 277:C:/Renesas/e2studio_2021_01_workspace_RZA2M_ANPR/ANPR_RZA2M_EBK/src/tensorflow_lite/third_party/gemmlowp/fixedpoint\fixedpoint.h **** template <typename IntegerType>
 278:C:/Renesas/e2studio_2021_01_workspace_RZA2M_ANPR/ANPR_RZA2M_EBK/src/tensorflow_lite/third_party/gemmlowp/fixedpoint\fixedpoint.h **** struct AddSaturatingIf16BitImpl<IntegerType, true> {
 279:C:/Renesas/e2studio_2021_01_workspace_RZA2M_ANPR/ANPR_RZA2M_EBK/src/tensorflow_lite/third_party/gemmlowp/fixedpoint\fixedpoint.h ****   static IntegerType Run(IntegerType a, IntegerType b) {
 280:C:/Renesas/e2studio_2021_01_workspace_RZA2M_ANPR/ANPR_RZA2M_EBK/src/tensorflow_lite/third_party/gemmlowp/fixedpoint\fixedpoint.h ****     return SaturatingAdd(a, b);
 281:C:/Renesas/e2studio_2021_01_workspace_RZA2M_ANPR/ANPR_RZA2M_EBK/src/tensorflow_lite/third_party/gemmlowp/fixedpoint\fixedpoint.h ****   }
 282:C:/Renesas/e2studio_2021_01_workspace_RZA2M_ANPR/ANPR_RZA2M_EBK/src/tensorflow_lite/third_party/gemmlowp/fixedpoint\fixedpoint.h **** };
 283:C:/Renesas/e2studio_2021_01_workspace_RZA2M_ANPR/ANPR_RZA2M_EBK/src/tensorflow_lite/third_party/gemmlowp/fixedpoint\fixedpoint.h **** template <typename IntegerType>
 284:C:/Renesas/e2studio_2021_01_workspace_RZA2M_ANPR/ANPR_RZA2M_EBK/src/tensorflow_lite/third_party/gemmlowp/fixedpoint\fixedpoint.h **** IntegerType AddSaturatingIf16Bit(IntegerType a, IntegerType b) {
 285:C:/Renesas/e2studio_2021_01_workspace_RZA2M_ANPR/ANPR_RZA2M_EBK/src/tensorflow_lite/third_party/gemmlowp/fixedpoint\fixedpoint.h ****   using ScalarType =
 286:C:/Renesas/e2studio_2021_01_workspace_RZA2M_ANPR/ANPR_RZA2M_EBK/src/tensorflow_lite/third_party/gemmlowp/fixedpoint\fixedpoint.h ****       typename FixedPointRawTypeTraits<IntegerType>::ScalarRawType;
 287:C:/Renesas/e2studio_2021_01_workspace_RZA2M_ANPR/ANPR_RZA2M_EBK/src/tensorflow_lite/third_party/gemmlowp/fixedpoint\fixedpoint.h ****   return AddSaturatingIf16BitImpl<IntegerType, sizeof(ScalarType) == 2>::Run(a,
 288:C:/Renesas/e2studio_2021_01_workspace_RZA2M_ANPR/ANPR_RZA2M_EBK/src/tensorflow_lite/third_party/gemmlowp/fixedpoint\fixedpoint.h ****                                                                              b);
 289:C:/Renesas/e2studio_2021_01_workspace_RZA2M_ANPR/ANPR_RZA2M_EBK/src/tensorflow_lite/third_party/gemmlowp/fixedpoint\fixedpoint.h **** }
 290:C:/Renesas/e2studio_2021_01_workspace_RZA2M_ANPR/ANPR_RZA2M_EBK/src/tensorflow_lite/third_party/gemmlowp/fixedpoint\fixedpoint.h **** 
 291:C:/Renesas/e2studio_2021_01_workspace_RZA2M_ANPR/ANPR_RZA2M_EBK/src/tensorflow_lite/third_party/gemmlowp/fixedpoint\fixedpoint.h **** // Returns the integer that represents the product of two fixed-point
 292:C:/Renesas/e2studio_2021_01_workspace_RZA2M_ANPR/ANPR_RZA2M_EBK/src/tensorflow_lite/third_party/gemmlowp/fixedpoint\fixedpoint.h **** // numbers, interpreting all integers as fixed-point values in the
 293:C:/Renesas/e2studio_2021_01_workspace_RZA2M_ANPR/ANPR_RZA2M_EBK/src/tensorflow_lite/third_party/gemmlowp/fixedpoint\fixedpoint.h **** // interval [-1, 1), rounding to the nearest value, and saturating
 294:C:/Renesas/e2studio_2021_01_workspace_RZA2M_ANPR/ANPR_RZA2M_EBK/src/tensorflow_lite/third_party/gemmlowp/fixedpoint\fixedpoint.h **** // -1 * -1 to the maximum value (since 1 is not in the half-open
 295:C:/Renesas/e2studio_2021_01_workspace_RZA2M_ANPR/ANPR_RZA2M_EBK/src/tensorflow_lite/third_party/gemmlowp/fixedpoint\fixedpoint.h **** // interval [-1, 1)).
 296:C:/Renesas/e2studio_2021_01_workspace_RZA2M_ANPR/ANPR_RZA2M_EBK/src/tensorflow_lite/third_party/gemmlowp/fixedpoint\fixedpoint.h **** //
 297:C:/Renesas/e2studio_2021_01_workspace_RZA2M_ANPR/ANPR_RZA2M_EBK/src/tensorflow_lite/third_party/gemmlowp/fixedpoint\fixedpoint.h **** // [The explanation below specializes to std::int32_t for example purpose.]
 298:C:/Renesas/e2studio_2021_01_workspace_RZA2M_ANPR/ANPR_RZA2M_EBK/src/tensorflow_lite/third_party/gemmlowp/fixedpoint\fixedpoint.h **** //
 299:C:/Renesas/e2studio_2021_01_workspace_RZA2M_ANPR/ANPR_RZA2M_EBK/src/tensorflow_lite/third_party/gemmlowp/fixedpoint\fixedpoint.h **** // The mapping between IntegerType and the interval [-1, 1) is unique and
 300:C:/Renesas/e2studio_2021_01_workspace_RZA2M_ANPR/ANPR_RZA2M_EBK/src/tensorflow_lite/third_party/gemmlowp/fixedpoint\fixedpoint.h **** // implied by IntegerType, which is assumed to be signed. For example,
 301:C:/Renesas/e2studio_2021_01_workspace_RZA2M_ANPR/ANPR_RZA2M_EBK/src/tensorflow_lite/third_party/gemmlowp/fixedpoint\fixedpoint.h **** // for IntegerType==std::int32_t, the mapping is
 302:C:/Renesas/e2studio_2021_01_workspace_RZA2M_ANPR/ANPR_RZA2M_EBK/src/tensorflow_lite/third_party/gemmlowp/fixedpoint\fixedpoint.h **** //   real_value = integer_value / 2^31.
 303:C:/Renesas/e2studio_2021_01_workspace_RZA2M_ANPR/ANPR_RZA2M_EBK/src/tensorflow_lite/third_party/gemmlowp/fixedpoint\fixedpoint.h **** // So in this case, and leaving aside rounding and saturating, this
 304:C:/Renesas/e2studio_2021_01_workspace_RZA2M_ANPR/ANPR_RZA2M_EBK/src/tensorflow_lite/third_party/gemmlowp/fixedpoint\fixedpoint.h **** // function computes ((a / 2^31) * (b / 2^31)) * 2^31, which simplifies to
 305:C:/Renesas/e2studio_2021_01_workspace_RZA2M_ANPR/ANPR_RZA2M_EBK/src/tensorflow_lite/third_party/gemmlowp/fixedpoint\fixedpoint.h **** //   (a * b) / 2^31.
 306:C:/Renesas/e2studio_2021_01_workspace_RZA2M_ANPR/ANPR_RZA2M_EBK/src/tensorflow_lite/third_party/gemmlowp/fixedpoint\fixedpoint.h **** //
 307:C:/Renesas/e2studio_2021_01_workspace_RZA2M_ANPR/ANPR_RZA2M_EBK/src/tensorflow_lite/third_party/gemmlowp/fixedpoint\fixedpoint.h **** // The 'doubling' part in the name of this function comes from the fact that
 308:C:/Renesas/e2studio_2021_01_workspace_RZA2M_ANPR/ANPR_RZA2M_EBK/src/tensorflow_lite/third_party/gemmlowp/fixedpoint\fixedpoint.h **** // this operation is very close to a "multiply-high" operation, keeping only
 309:C:/Renesas/e2studio_2021_01_workspace_RZA2M_ANPR/ANPR_RZA2M_EBK/src/tensorflow_lite/third_party/gemmlowp/fixedpoint\fixedpoint.h **** // the top half bits, except that that would be effectively computing
 310:C:/Renesas/e2studio_2021_01_workspace_RZA2M_ANPR/ANPR_RZA2M_EBK/src/tensorflow_lite/third_party/gemmlowp/fixedpoint\fixedpoint.h **** //   (a * b) / 2^32,
 311:C:/Renesas/e2studio_2021_01_workspace_RZA2M_ANPR/ANPR_RZA2M_EBK/src/tensorflow_lite/third_party/gemmlowp/fixedpoint\fixedpoint.h **** // so here we are computing 2x that, since
 312:C:/Renesas/e2studio_2021_01_workspace_RZA2M_ANPR/ANPR_RZA2M_EBK/src/tensorflow_lite/third_party/gemmlowp/fixedpoint\fixedpoint.h **** //   1/2^31 = 2 * 1/2^32.
 313:C:/Renesas/e2studio_2021_01_workspace_RZA2M_ANPR/ANPR_RZA2M_EBK/src/tensorflow_lite/third_party/gemmlowp/fixedpoint\fixedpoint.h **** // The idea is to use all of the available 32 bits in the destination int32
 314:C:/Renesas/e2studio_2021_01_workspace_RZA2M_ANPR/ANPR_RZA2M_EBK/src/tensorflow_lite/third_party/gemmlowp/fixedpoint\fixedpoint.h **** // value.
 315:C:/Renesas/e2studio_2021_01_workspace_RZA2M_ANPR/ANPR_RZA2M_EBK/src/tensorflow_lite/third_party/gemmlowp/fixedpoint\fixedpoint.h **** //
 316:C:/Renesas/e2studio_2021_01_workspace_RZA2M_ANPR/ANPR_RZA2M_EBK/src/tensorflow_lite/third_party/gemmlowp/fixedpoint\fixedpoint.h **** // [End of the explanation specializing to int32.]
 317:C:/Renesas/e2studio_2021_01_workspace_RZA2M_ANPR/ANPR_RZA2M_EBK/src/tensorflow_lite/third_party/gemmlowp/fixedpoint\fixedpoint.h **** //
 318:C:/Renesas/e2studio_2021_01_workspace_RZA2M_ANPR/ANPR_RZA2M_EBK/src/tensorflow_lite/third_party/gemmlowp/fixedpoint\fixedpoint.h **** // This is equivalent to the VQRDMULH instruction in ARM NEON.
 319:C:/Renesas/e2studio_2021_01_workspace_RZA2M_ANPR/ANPR_RZA2M_EBK/src/tensorflow_lite/third_party/gemmlowp/fixedpoint\fixedpoint.h **** template <typename IntegerType>
 320:C:/Renesas/e2studio_2021_01_workspace_RZA2M_ANPR/ANPR_RZA2M_EBK/src/tensorflow_lite/third_party/gemmlowp/fixedpoint\fixedpoint.h **** IntegerType SaturatingRoundingDoublingHighMul(IntegerType a, IntegerType b) {
 321:C:/Renesas/e2studio_2021_01_workspace_RZA2M_ANPR/ANPR_RZA2M_EBK/src/tensorflow_lite/third_party/gemmlowp/fixedpoint\fixedpoint.h ****   static_assert(std::is_same<IntegerType, void>::value, "unimplemented");
 322:C:/Renesas/e2studio_2021_01_workspace_RZA2M_ANPR/ANPR_RZA2M_EBK/src/tensorflow_lite/third_party/gemmlowp/fixedpoint\fixedpoint.h ****   (void)b;
 323:C:/Renesas/e2studio_2021_01_workspace_RZA2M_ANPR/ANPR_RZA2M_EBK/src/tensorflow_lite/third_party/gemmlowp/fixedpoint\fixedpoint.h ****   return a;
 324:C:/Renesas/e2studio_2021_01_workspace_RZA2M_ANPR/ANPR_RZA2M_EBK/src/tensorflow_lite/third_party/gemmlowp/fixedpoint\fixedpoint.h **** }
 325:C:/Renesas/e2studio_2021_01_workspace_RZA2M_ANPR/ANPR_RZA2M_EBK/src/tensorflow_lite/third_party/gemmlowp/fixedpoint\fixedpoint.h **** 
 326:C:/Renesas/e2studio_2021_01_workspace_RZA2M_ANPR/ANPR_RZA2M_EBK/src/tensorflow_lite/third_party/gemmlowp/fixedpoint\fixedpoint.h **** // This function implements the same computation as the ARMv7 NEON VQRDMULH
 327:C:/Renesas/e2studio_2021_01_workspace_RZA2M_ANPR/ANPR_RZA2M_EBK/src/tensorflow_lite/third_party/gemmlowp/fixedpoint\fixedpoint.h **** // instruction.
 328:C:/Renesas/e2studio_2021_01_workspace_RZA2M_ANPR/ANPR_RZA2M_EBK/src/tensorflow_lite/third_party/gemmlowp/fixedpoint\fixedpoint.h **** template <>
 329:C:/Renesas/e2studio_2021_01_workspace_RZA2M_ANPR/ANPR_RZA2M_EBK/src/tensorflow_lite/third_party/gemmlowp/fixedpoint\fixedpoint.h **** inline std::int32_t SaturatingRoundingDoublingHighMul(std::int32_t a,
 330:C:/Renesas/e2studio_2021_01_workspace_RZA2M_ANPR/ANPR_RZA2M_EBK/src/tensorflow_lite/third_party/gemmlowp/fixedpoint\fixedpoint.h ****                                                       std::int32_t b) {
 331:C:/Renesas/e2studio_2021_01_workspace_RZA2M_ANPR/ANPR_RZA2M_EBK/src/tensorflow_lite/third_party/gemmlowp/fixedpoint\fixedpoint.h ****   bool overflow = a == b && a == std::numeric_limits<std::int32_t>::min();
 332:C:/Renesas/e2studio_2021_01_workspace_RZA2M_ANPR/ANPR_RZA2M_EBK/src/tensorflow_lite/third_party/gemmlowp/fixedpoint\fixedpoint.h ****   std::int64_t a_64(a);
 333:C:/Renesas/e2studio_2021_01_workspace_RZA2M_ANPR/ANPR_RZA2M_EBK/src/tensorflow_lite/third_party/gemmlowp/fixedpoint\fixedpoint.h ****   std::int64_t b_64(b);
 334:C:/Renesas/e2studio_2021_01_workspace_RZA2M_ANPR/ANPR_RZA2M_EBK/src/tensorflow_lite/third_party/gemmlowp/fixedpoint\fixedpoint.h ****   std::int64_t ab_64 = a_64 * b_64;
 335:C:/Renesas/e2studio_2021_01_workspace_RZA2M_ANPR/ANPR_RZA2M_EBK/src/tensorflow_lite/third_party/gemmlowp/fixedpoint\fixedpoint.h ****   std::int32_t nudge = ab_64 >= 0 ? (1 << 30) : (1 - (1 << 30));
 336:C:/Renesas/e2studio_2021_01_workspace_RZA2M_ANPR/ANPR_RZA2M_EBK/src/tensorflow_lite/third_party/gemmlowp/fixedpoint\fixedpoint.h ****   std::int32_t ab_x2_high32 =
 337:C:/Renesas/e2studio_2021_01_workspace_RZA2M_ANPR/ANPR_RZA2M_EBK/src/tensorflow_lite/third_party/gemmlowp/fixedpoint\fixedpoint.h ****       static_cast<std::int32_t>((ab_64 + nudge) / (1ll << 31));
 338:C:/Renesas/e2studio_2021_01_workspace_RZA2M_ANPR/ANPR_RZA2M_EBK/src/tensorflow_lite/third_party/gemmlowp/fixedpoint\fixedpoint.h ****   return overflow ? std::numeric_limits<std::int32_t>::max() : ab_x2_high32;
 339:C:/Renesas/e2studio_2021_01_workspace_RZA2M_ANPR/ANPR_RZA2M_EBK/src/tensorflow_lite/third_party/gemmlowp/fixedpoint\fixedpoint.h **** }
 340:C:/Renesas/e2studio_2021_01_workspace_RZA2M_ANPR/ANPR_RZA2M_EBK/src/tensorflow_lite/third_party/gemmlowp/fixedpoint\fixedpoint.h **** 
 341:C:/Renesas/e2studio_2021_01_workspace_RZA2M_ANPR/ANPR_RZA2M_EBK/src/tensorflow_lite/third_party/gemmlowp/fixedpoint\fixedpoint.h **** template <>
 342:C:/Renesas/e2studio_2021_01_workspace_RZA2M_ANPR/ANPR_RZA2M_EBK/src/tensorflow_lite/third_party/gemmlowp/fixedpoint\fixedpoint.h **** inline std::int16_t SaturatingRoundingDoublingHighMul(std::int16_t a,
 343:C:/Renesas/e2studio_2021_01_workspace_RZA2M_ANPR/ANPR_RZA2M_EBK/src/tensorflow_lite/third_party/gemmlowp/fixedpoint\fixedpoint.h ****                                                       std::int16_t b) {
 344:C:/Renesas/e2studio_2021_01_workspace_RZA2M_ANPR/ANPR_RZA2M_EBK/src/tensorflow_lite/third_party/gemmlowp/fixedpoint\fixedpoint.h ****   bool overflow = a == b && a == std::numeric_limits<std::int16_t>::min();
 345:C:/Renesas/e2studio_2021_01_workspace_RZA2M_ANPR/ANPR_RZA2M_EBK/src/tensorflow_lite/third_party/gemmlowp/fixedpoint\fixedpoint.h ****   std::int32_t a_32(a);
 346:C:/Renesas/e2studio_2021_01_workspace_RZA2M_ANPR/ANPR_RZA2M_EBK/src/tensorflow_lite/third_party/gemmlowp/fixedpoint\fixedpoint.h ****   std::int32_t b_32(b);
 347:C:/Renesas/e2studio_2021_01_workspace_RZA2M_ANPR/ANPR_RZA2M_EBK/src/tensorflow_lite/third_party/gemmlowp/fixedpoint\fixedpoint.h ****   std::int32_t ab_32 = a_32 * b_32;
 348:C:/Renesas/e2studio_2021_01_workspace_RZA2M_ANPR/ANPR_RZA2M_EBK/src/tensorflow_lite/third_party/gemmlowp/fixedpoint\fixedpoint.h ****   std::int16_t nudge = ab_32 >= 0 ? (1 << 14) : (1 - (1 << 14));
 349:C:/Renesas/e2studio_2021_01_workspace_RZA2M_ANPR/ANPR_RZA2M_EBK/src/tensorflow_lite/third_party/gemmlowp/fixedpoint\fixedpoint.h ****   std::int16_t ab_x2_high16 =
 350:C:/Renesas/e2studio_2021_01_workspace_RZA2M_ANPR/ANPR_RZA2M_EBK/src/tensorflow_lite/third_party/gemmlowp/fixedpoint\fixedpoint.h ****       static_cast<std::int16_t>((ab_32 + nudge) / (1 << 15));
 351:C:/Renesas/e2studio_2021_01_workspace_RZA2M_ANPR/ANPR_RZA2M_EBK/src/tensorflow_lite/third_party/gemmlowp/fixedpoint\fixedpoint.h ****   return overflow ? std::numeric_limits<std::int16_t>::max() : ab_x2_high16;
 352:C:/Renesas/e2studio_2021_01_workspace_RZA2M_ANPR/ANPR_RZA2M_EBK/src/tensorflow_lite/third_party/gemmlowp/fixedpoint\fixedpoint.h **** }
 353:C:/Renesas/e2studio_2021_01_workspace_RZA2M_ANPR/ANPR_RZA2M_EBK/src/tensorflow_lite/third_party/gemmlowp/fixedpoint\fixedpoint.h **** 
 354:C:/Renesas/e2studio_2021_01_workspace_RZA2M_ANPR/ANPR_RZA2M_EBK/src/tensorflow_lite/third_party/gemmlowp/fixedpoint\fixedpoint.h **** // Correctly-rounded-to-nearest division by a power-of-two.
 355:C:/Renesas/e2studio_2021_01_workspace_RZA2M_ANPR/ANPR_RZA2M_EBK/src/tensorflow_lite/third_party/gemmlowp/fixedpoint\fixedpoint.h **** // Also known as a rounding arithmetic right shift.
 356:C:/Renesas/e2studio_2021_01_workspace_RZA2M_ANPR/ANPR_RZA2M_EBK/src/tensorflow_lite/third_party/gemmlowp/fixedpoint\fixedpoint.h **** template <typename IntegerType>
 357:C:/Renesas/e2studio_2021_01_workspace_RZA2M_ANPR/ANPR_RZA2M_EBK/src/tensorflow_lite/third_party/gemmlowp/fixedpoint\fixedpoint.h **** inline IntegerType RoundingDivideByPOT(IntegerType x, int exponent) {
 358:C:/Renesas/e2studio_2021_01_workspace_RZA2M_ANPR/ANPR_RZA2M_EBK/src/tensorflow_lite/third_party/gemmlowp/fixedpoint\fixedpoint.h ****   assert(exponent >= 0);
 359:C:/Renesas/e2studio_2021_01_workspace_RZA2M_ANPR/ANPR_RZA2M_EBK/src/tensorflow_lite/third_party/gemmlowp/fixedpoint\fixedpoint.h ****   assert(exponent <= 31);
 360:C:/Renesas/e2studio_2021_01_workspace_RZA2M_ANPR/ANPR_RZA2M_EBK/src/tensorflow_lite/third_party/gemmlowp/fixedpoint\fixedpoint.h ****   const IntegerType mask = Dup<IntegerType>((1ll << exponent) - 1);
 1137              		.loc 6 360 0
 1138 0250 CC7B9FED 		vldr.64	d7, .L238	@ int
 1139 0254 38C08DE5 		str	ip, [sp, #56]
 1140 0258 1332A0E1 		lsl	r3, r3, r2
 1141 025c 4C209DE5 		ldr	r2, [sp, #76]
 1142 0260 020153E3 		cmp	r3, #-2147483648
 1143 0264 03005A01 		cmpeq	r10, r3
 1144 0268 9A03C1E0 		smull	r0, r1, r10, r3
 1145 026c 002062E2 		rsb	r2, r2, #0
 1146 0270 0130A003 		moveq	r3, #1
 1147 0274 0030A013 		movne	r3, #0
 1148 0278 08208DE5 		str	r2, [sp, #8]
 1149 027c 902B00EE 		vmov.32	d16[0], r2
 1150 0280 54308DE5 		str	r3, [sp, #84]
 1151 0284 876430F3 		vshl.u64	d6, d7, d16
 1152              	.LBE369:
 1153              	.LBE368:
 1154              	.LBB393:
 1155              	.LBB394:
 337:C:/Renesas/e2studio_2021_01_workspace_RZA2M_ANPR/ANPR_RZA2M_EBK/src/tensorflow_lite/third_party/gemmlowp/fixedpoint\fixedpoint.h ****   return overflow ? std::numeric_limits<std::int32_t>::max() : ab_x2_high32;
 1156              		.loc 6 337 0
 1157 0288 000050E3 		cmp	r0, #0
 1158              	.LBE394:
 1159              	.LBE393:
 1160              	.LBE367:
 1161              	.LBB412:
 1162              	.LBB413:
 1163              	.LBB414:
 1164              	.LBB415:
 1165              	.LBB416:
 1166              		.loc 6 360 0
 1167 028c 90CB00EE 		vmov.32	d16[0], ip
 1168 0290 877430F3 		vshl.u64	d7, d7, d16
 1169              	.LBE416:
 1170              	.LBE415:
 1171              	.LBE414:
 1172              	.LBE413:
 1173              	.LBE412:
 1174              	.LBB507:
 1175              	.LBB401:
 1176              	.LBB388:
 1177 0294 103A16EE 		vmov	r3, s12	@ int
 1178 0298 013043E2 		sub	r3, r3, #1
 1179 029c 44308DE5 		str	r3, [sp, #68]
 1180              	.LBB370:
 1181              	.LBB371:
 141:C:/Renesas/e2studio_2021_01_workspace_RZA2M_ANPR/ANPR_RZA2M_EBK/src/tensorflow_lite/third_party/gemmlowp/fixedpoint\fixedpoint.h **** }
 1182              		.loc 6 141 0
 1183 02a0 C330A0E1 		asr	r3, r3, #1
 1184              	.LBE371:
 1185              	.LBE370:
 1186              	.LBE388:
 1187              	.LBE401:
 1188              	.LBE507:
 1189              	.LBB508:
 1190              	.LBB496:
 1191              	.LBB445:
 1192              	.LBB438:
 1193              	.LBB433:
 1194              		.loc 6 360 0
 1195 02a4 102A17EE 		vmov	r2, s14	@ int
 1196 02a8 012042E2 		sub	r2, r2, #1
 1197              	.LBE433:
 1198              	.LBE438:
 1199              	.LBE445:
 1200              	.LBE496:
 1201              	.LBE508:
 1202              	.LBB509:
 1203              	.LBB402:
 1204              	.LBB389:
 1205              	.LBB373:
 1206              	.LBB372:
 141:C:/Renesas/e2studio_2021_01_workspace_RZA2M_ANPR/ANPR_RZA2M_EBK/src/tensorflow_lite/third_party/gemmlowp/fixedpoint\fixedpoint.h **** }
 1207              		.loc 6 141 0
 1208 02ac 04308DE5 		str	r3, [sp, #4]
 1209              	.LBE372:
 1210              	.LBE373:
 1211              	.LBE389:
 1212              	.LBE402:
 1213              	.LBE509:
 1214              	.LBB510:
 1215              	.LBB497:
 1216              	.LBB446:
 1217              	.LBB439:
 1218              	.LBB434:
 1219              	.LBB417:
 1220              	.LBB418:
 1221 02b0 C230A0E1 		asr	r3, r2, #1
 1222              	.LBE418:
 1223              	.LBE417:
 1224              		.loc 6 360 0
 1225 02b4 30208DE5 		str	r2, [sp, #48]
 1226              	.LBB420:
 1227              	.LBB419:
 141:C:/Renesas/e2studio_2021_01_workspace_RZA2M_ANPR/ANPR_RZA2M_EBK/src/tensorflow_lite/third_party/gemmlowp/fixedpoint\fixedpoint.h **** }
 1228              		.loc 6 141 0
 1229 02b8 34308DE5 		str	r3, [sp, #52]
 1230              	.LBE419:
 1231              	.LBE420:
 1232              	.LBE434:
 1233              	.LBE439:
 1234              	.LBE446:
 1235              	.LBE497:
 1236              	.LBE510:
 1237              	.LBB511:
 1238              	.LBB403:
 1239              	.LBB395:
 337:C:/Renesas/e2studio_2021_01_workspace_RZA2M_ANPR/ANPR_RZA2M_EBK/src/tensorflow_lite/third_party/gemmlowp/fixedpoint\fixedpoint.h ****   return overflow ? std::numeric_limits<std::int32_t>::max() : ab_x2_high32;
 1240              		.loc 6 337 0
 1241 02bc 0030D1E2 		sbcs	r3, r1, #0
 1242 02c0 0121A0A3 		movge	r2, #1073741824
 1243 02c4 0721A0B3 		movlt	r2, #-1073741823
 1244 02c8 0030A0A3 		movge	r3, #0
 1245 02cc 0030E0B3 		mvnlt	r3, #0
 1246 02d0 020090E0 		adds	r0, r0, r2
 1247 02d4 0310A1E0 		adc	r1, r1, r3
 1248 02d8 0030A0E3 		mov	r3, #0
 1249 02dc 64308DE5 		str	r3, [sp, #100]
 1250 02e0 C12FA0E1 		asr	r2, r1, #31
 1251              	.LBE395:
 1252              	.LBE403:
 1253              	.LBE511:
 1254              	.LBB512:
 1255              	.LBB498:
 1256              	.LBB447:
 1257              	.LBB448:
 1258              	.LBB449:
 1259              	.LBB450:
 1260              	.LBB451:
  71:C:/Renesas/e2studio_2021_01_workspace_RZA2M_ANPR/ANPR_RZA2M_EBK/src/tensorflow_lite/third_party/gemmlowp/fixedpoint\fixedpoint.h **** }
 1261              		.loc 6 71 0
 1262 02e4 44309DE5 		ldr	r3, [sp, #68]
 1263              	.LBE451:
 1264              	.LBE450:
 1265              	.LBE449:
 1266              	.LBE448:
 1267              	.LBE447:
 1268              	.LBE498:
 1269              	.LBE512:
 1270              	.LBB513:
 1271              	.LBB404:
 1272              	.LBB396:
 337:C:/Renesas/e2studio_2021_01_workspace_RZA2M_ANPR/ANPR_RZA2M_EBK/src/tensorflow_lite/third_party/gemmlowp/fixedpoint\fixedpoint.h ****   return overflow ? std::numeric_limits<std::int32_t>::max() : ab_x2_high32;
 1273              		.loc 6 337 0
 1274 02e8 0221C2E3 		bic	r2, r2, #-2147483648
 1275 02ec 002092E0 		adds	r2, r2, r0
 1276              	.LBE396:
 1277              	.LBE404:
 1278              	.LBE513:
 1279              	.LBB514:
 1280              	.LBB499:
 1281              	.LBB488:
 1282              	.LBB473:
 1283              	.LBB468:
 1284              	.LBB457:
 1285              	.LBB452:
  71:C:/Renesas/e2studio_2021_01_workspace_RZA2M_ANPR/ANPR_RZA2M_EBK/src/tensorflow_lite/third_party/gemmlowp/fixedpoint\fixedpoint.h **** }
 1286              		.loc 6 71 0
 1287 02f0 0231C3E3 		bic	r3, r3, #-2147483648
 1288              	.LBE452:
 1289              	.LBE457:
 1290              	.LBE468:
 1291              	.LBE473:
 1292              	.LBE488:
 1293              	.LBE499:
 1294              	.LBE514:
 1295              	.LBB515:
 1296              	.LBB405:
 1297              	.LBB397:
 337:C:/Renesas/e2studio_2021_01_workspace_RZA2M_ANPR/ANPR_RZA2M_EBK/src/tensorflow_lite/third_party/gemmlowp/fixedpoint\fixedpoint.h ****   return overflow ? std::numeric_limits<std::int32_t>::max() : ab_x2_high32;
 1298              		.loc 6 337 0
 1299 02f4 A22FA0E1 		lsr	r2, r2, #31
 1300              	.LBE397:
 1301              	.LBE405:
 1302              	.LBE515:
 1303              	.LBB516:
 1304              	.LBB500:
 1305              	.LBB489:
 1306              	.LBB474:
 1307              	.LBB469:
 1308              	.LBB458:
 1309              	.LBB453:
  71:C:/Renesas/e2studio_2021_01_workspace_RZA2M_ANPR/ANPR_RZA2M_EBK/src/tensorflow_lite/third_party/gemmlowp/fixedpoint\fixedpoint.h **** }
 1310              		.loc 6 71 0
 1311 02f8 40308DE5 		str	r3, [sp, #64]
 1312              	.LBE453:
 1313              	.LBE458:
 1314              	.LBE469:
 1315              	.LBE474:
 1316              	.LBE489:
 1317              	.LBE500:
 1318              	.LBE516:
 1319              	.LBB517:
 1320              	.LBB406:
 1321              	.LBB398:
 337:C:/Renesas/e2studio_2021_01_workspace_RZA2M_ANPR/ANPR_RZA2M_EBK/src/tensorflow_lite/third_party/gemmlowp/fixedpoint\fixedpoint.h ****   return overflow ? std::numeric_limits<std::int32_t>::max() : ab_x2_high32;
 1322              		.loc 6 337 0
 1323 02fc 0030A0E3 		mov	r3, #0
 1324 0300 0130A3E0 		adc	r3, r3, r1
 1325 0304 832082E1 		orr	r2, r2, r3, lsl #1
 1326 0308 C33FA0E1 		asr	r3, r3, #31
 1327 030c F825CDE1 		strd	r2, [sp, #88]
 1328 0310 0630A0E1 		mov	r3, r6
 1329 0314 0A60A0E1 		mov	r6, r10
 1330 0318 07A0A0E1 		mov	r10, r7
 1331              	.LVL142:
 1332 031c 0370A0E1 		mov	r7, r3
 1333              	.LVL143:
 1334              	.L116:
 1335              	.LBE398:
 1336              	.LBE406:
 1337              	.LBE517:
 1338              	.LBE366:
 1339              	.LBE365:
 117:C:/Renesas/e2studio_2021_01_workspace_RZA2M_ANPR/ANPR_RZA2M_EBK/src/tensorflow_lite/tensorflow/lite/kernels/internal/reference\cumsum.h ****     size_t outer_index_adj;
 118:C:/Renesas/e2studio_2021_01_workspace_RZA2M_ANPR/ANPR_RZA2M_EBK/src/tensorflow_lite/tensorflow/lite/kernels/internal/reference\cumsum.h ****     if (reverse)
 1340              		.loc 5 118 0
 1341 0320 00309DE5 		ldr	r3, [sp]
 1342 0324 000053E3 		cmp	r3, #0
 1343 0328 10309D15 		ldrne	r3, [sp, #16]
 1344 032c 64209D15 		ldrne	r2, [sp, #100]
 1345 0330 64309D05 		ldreq	r3, [sp, #100]
 1346 0334 01304312 		subne	r3, r3, #1
 1347 0338 02304310 		subne	r3, r3, r2
 1348 033c 20308DE5 		str	r3, [sp, #32]
 1349              	.LVL144:
 1350              	.LBB527:
 119:C:/Renesas/e2studio_2021_01_workspace_RZA2M_ANPR/ANPR_RZA2M_EBK/src/tensorflow_lite/tensorflow/lite/kernels/internal/reference\cumsum.h ****       outer_index_adj = (outer - 1) - outer_index;
 120:C:/Renesas/e2studio_2021_01_workspace_RZA2M_ANPR/ANPR_RZA2M_EBK/src/tensorflow_lite/tensorflow/lite/kernels/internal/reference\cumsum.h ****     else
 121:C:/Renesas/e2studio_2021_01_workspace_RZA2M_ANPR/ANPR_RZA2M_EBK/src/tensorflow_lite/tensorflow/lite/kernels/internal/reference\cumsum.h ****       outer_index_adj = outer_index;
 122:C:/Renesas/e2studio_2021_01_workspace_RZA2M_ANPR/ANPR_RZA2M_EBK/src/tensorflow_lite/tensorflow/lite/kernels/internal/reference\cumsum.h ****     for (size_t inner_index = 0; inner_index < inner; inner_index++) {
 1351              		.loc 5 122 0
 1352 0340 50309DE5 		ldr	r3, [sp, #80]
 1353              	.LVL145:
 1354 0344 000053E3 		cmp	r3, #0
 1355 0348 5C01000A 		beq	.L122
 1356 034c 0030A0E3 		mov	r3, #0
 1357 0350 48308DE5 		str	r3, [sp, #72]
 1358 0354 50309DE5 		ldr	r3, [sp, #80]
 1359 0358 013043E2 		sub	r3, r3, #1
 1360 035c 60308DE5 		str	r3, [sp, #96]
 1361              	.LVL146:
 1362              	.L123:
 1363              	.LBB523:
 1364              	.LBB518:
 1365              	.LBB407:
 1366              	.LBB399:
 338:C:/Renesas/e2studio_2021_01_workspace_RZA2M_ANPR/ANPR_RZA2M_EBK/src/tensorflow_lite/third_party/gemmlowp/fixedpoint\fixedpoint.h **** }
 1367              		.loc 6 338 0
 1368 0360 54309DE5 		ldr	r3, [sp, #84]
 1369              	.LBE399:
 1370              	.LBE407:
 1371              	.LBB408:
 1372              	.LBB390:
 358:C:/Renesas/e2studio_2021_01_workspace_RZA2M_ANPR/ANPR_RZA2M_EBK/src/tensorflow_lite/third_party/gemmlowp/fixedpoint\fixedpoint.h ****   assert(exponent <= 31);
 1373              		.loc 6 358 0
 1374 0364 4C209DE5 		ldr	r2, [sp, #76]
 1375              	.LBE390:
 1376              	.LBE408:
 1377              	.LBB409:
 1378              	.LBB400:
 338:C:/Renesas/e2studio_2021_01_workspace_RZA2M_ANPR/ANPR_RZA2M_EBK/src/tensorflow_lite/third_party/gemmlowp/fixedpoint\fixedpoint.h **** }
 1379              		.loc 6 338 0
 1380 0368 000053E3 		cmp	r3, #0
 1381 036c 58309DE5 		ldr	r3, [sp, #88]
 1382 0370 0231E013 		mvnne	r3, #-2147483648
 1383              	.LVL147:
 1384              	.LBE400:
 1385              	.LBE409:
 1386              	.LBB410:
 1387              	.LBB391:
 358:C:/Renesas/e2studio_2021_01_workspace_RZA2M_ANPR/ANPR_RZA2M_EBK/src/tensorflow_lite/third_party/gemmlowp/fixedpoint\fixedpoint.h ****   assert(exponent <= 31);
 1388              		.loc 6 358 0
 1389 0374 000052E3 		cmp	r2, #0
 1390 0378 D90100CA 		bgt	.L227
 359:C:/Renesas/e2studio_2021_01_workspace_RZA2M_ANPR/ANPR_RZA2M_EBK/src/tensorflow_lite/third_party/gemmlowp/fixedpoint\fixedpoint.h ****   const IntegerType mask = Dup<IntegerType>((1ll << exponent) - 1);
 1391              		.loc 6 359 0
 1392 037c 1F0072E3 		cmn	r2, #31
 1393 0380 CF0100BA 		blt	.L228
 1394              	.LBB374:
 1395              	.LBB375:
 141:C:/Renesas/e2studio_2021_01_workspace_RZA2M_ANPR/ANPR_RZA2M_EBK/src/tensorflow_lite/third_party/gemmlowp/fixedpoint\fixedpoint.h **** }
 1396              		.loc 6 141 0
 1397 0384 08109DE5 		ldr	r1, [sp, #8]
 1398              	.LBE375:
 1399              	.LBE374:
 1400              	.LBB377:
 1401              	.LBB378:
  95:C:/Renesas/e2studio_2021_01_workspace_RZA2M_ANPR/ANPR_RZA2M_EBK/src/tensorflow_lite/third_party/gemmlowp/fixedpoint\fixedpoint.h **** }
 1402              		.loc 6 95 0
 1403 0388 04209DE5 		ldr	r2, [sp, #4]
 1404              	.LBE378:
 1405              	.LBE377:
 1406              	.LBB380:
 1407              	.LBB376:
 141:C:/Renesas/e2studio_2021_01_workspace_RZA2M_ANPR/ANPR_RZA2M_EBK/src/tensorflow_lite/third_party/gemmlowp/fixedpoint\fixedpoint.h **** }
 1408              		.loc 6 141 0
 1409 038c 5341A0E1 		asr	r4, r3, r1
 1410              	.LBE376:
 1411              	.LBE380:
 1412              	.LBB381:
 1413              	.LBB382:
  71:C:/Renesas/e2studio_2021_01_workspace_RZA2M_ANPR/ANPR_RZA2M_EBK/src/tensorflow_lite/third_party/gemmlowp/fixedpoint\fixedpoint.h **** }
 1414              		.loc 6 71 0
 1415 0390 44109DE5 		ldr	r1, [sp, #68]
 1416              	.LBE382:
 1417              	.LBE381:
 1418              	.LBB384:
 1419              	.LBB379:
  95:C:/Renesas/e2studio_2021_01_workspace_RZA2M_ANPR/ANPR_RZA2M_EBK/src/tensorflow_lite/third_party/gemmlowp/fixedpoint\fixedpoint.h **** }
 1420              		.loc 6 95 0
 1421 0394 A32F82E0 		add	r2, r2, r3, lsr #31
 1422              	.LBE379:
 1423              	.LBE384:
 1424              	.LBB385:
 1425              	.LBB383:
  71:C:/Renesas/e2studio_2021_01_workspace_RZA2M_ANPR/ANPR_RZA2M_EBK/src/tensorflow_lite/third_party/gemmlowp/fixedpoint\fixedpoint.h **** }
 1426              		.loc 6 71 0
 1427 0398 013003E0 		and	r3, r3, r1
 1428              	.LBE383:
 1429              	.LBE385:
 1430              	.LBB386:
 1431              	.LBB387:
  95:C:/Renesas/e2studio_2021_01_workspace_RZA2M_ANPR/ANPR_RZA2M_EBK/src/tensorflow_lite/third_party/gemmlowp/fixedpoint\fixedpoint.h **** }
 1432              		.loc 6 95 0
 1433 039c 020053E1 		cmp	r3, r2
 1434 03a0 014084C2 		addgt	r4, r4, #1
 1435              	.LVL148:
 1436              	.LBE387:
 1437              	.LBE386:
 1438              	.LBE391:
 1439              	.LBE410:
 1440              	.LBE518:
 123:C:/Renesas/e2studio_2021_01_workspace_RZA2M_ANPR/ANPR_RZA2M_EBK/src/tensorflow_lite/tensorflow/lite/kernels/internal/reference\cumsum.h ****       int32_t accumulator = params.input1_offset;  // accumulator = 0
 124:C:/Renesas/e2studio_2021_01_workspace_RZA2M_ANPR/ANPR_RZA2M_EBK/src/tensorflow_lite/tensorflow/lite/kernels/internal/reference\cumsum.h ****       accumulator *= (1 << params.left_shift);
 125:C:/Renesas/e2studio_2021_01_workspace_RZA2M_ANPR/ANPR_RZA2M_EBK/src/tensorflow_lite/tensorflow/lite/kernels/internal/reference\cumsum.h ****       accumulator = MultiplyByQuantizedMultiplierSmallerThanOneExp(
 126:C:/Renesas/e2studio_2021_01_workspace_RZA2M_ANPR/ANPR_RZA2M_EBK/src/tensorflow_lite/tensorflow/lite/kernels/internal/reference\cumsum.h ****           accumulator, params.input1_multiplier, params.input1_shift);
 127:C:/Renesas/e2studio_2021_01_workspace_RZA2M_ANPR/ANPR_RZA2M_EBK/src/tensorflow_lite/tensorflow/lite/kernels/internal/reference\cumsum.h **** 
 128:C:/Renesas/e2studio_2021_01_workspace_RZA2M_ANPR/ANPR_RZA2M_EBK/src/tensorflow_lite/tensorflow/lite/kernels/internal/reference\cumsum.h ****       size_t inner_index_adj;
 129:C:/Renesas/e2studio_2021_01_workspace_RZA2M_ANPR/ANPR_RZA2M_EBK/src/tensorflow_lite/tensorflow/lite/kernels/internal/reference\cumsum.h ****       if (reverse)
 1441              		.loc 5 129 0
 1442 03a4 00309DE5 		ldr	r3, [sp]
 1443 03a8 000053E3 		cmp	r3, #0
 1444 03ac 60309D15 		ldrne	r3, [sp, #96]
 1445 03b0 48209D15 		ldrne	r2, [sp, #72]
 1446 03b4 48309D05 		ldreq	r3, [sp, #72]
 1447 03b8 02304310 		subne	r3, r3, r2
 1448              	.LVL149:
 1449              	.LBB519:
 130:C:/Renesas/e2studio_2021_01_workspace_RZA2M_ANPR/ANPR_RZA2M_EBK/src/tensorflow_lite/tensorflow/lite/kernels/internal/reference\cumsum.h ****         inner_index_adj = (inner - 1) - inner_index;
 131:C:/Renesas/e2studio_2021_01_workspace_RZA2M_ANPR/ANPR_RZA2M_EBK/src/tensorflow_lite/tensorflow/lite/kernels/internal/reference\cumsum.h ****       else
 132:C:/Renesas/e2studio_2021_01_workspace_RZA2M_ANPR/ANPR_RZA2M_EBK/src/tensorflow_lite/tensorflow/lite/kernels/internal/reference\cumsum.h ****         inner_index_adj = inner_index;
 133:C:/Renesas/e2studio_2021_01_workspace_RZA2M_ANPR/ANPR_RZA2M_EBK/src/tensorflow_lite/tensorflow/lite/kernels/internal/reference\cumsum.h **** 
 134:C:/Renesas/e2studio_2021_01_workspace_RZA2M_ANPR/ANPR_RZA2M_EBK/src/tensorflow_lite/tensorflow/lite/kernels/internal/reference\cumsum.h ****       for (size_t depth_index = 0; depth_index < depth; depth_index++) {
 1450              		.loc 5 134 0
 1451 03bc 000055E3 		cmp	r5, #0
 1452 03c0 3801000A 		beq	.L132
 1453 03c4 950303E0 		mul	r3, r5, r3
 1454 03c8 00E0A0E3 		mov	lr, #0
 1455 03cc 06C0A0E1 		mov	ip, r6
 1456 03d0 0700A0E1 		mov	r0, r7
 1457 03d4 0C308DE5 		str	r3, [sp, #12]
 1458 03d8 013045E2 		sub	r3, r5, #1
 1459 03dc 3C308DE5 		str	r3, [sp, #60]
 1460 03e0 480000EA 		b	.L133
 1461              	.LVL150:
 1462              	.L204:
 1463              	.LBB501:
 1464              	.LBB490:
 1465              	.LBB475:
 1466              	.LBB476:
