   1              		.cpu cortex-a9
   2              		.eabi_attribute 28, 1
   3              		.eabi_attribute 20, 1
   4              		.eabi_attribute 21, 1
   5              		.eabi_attribute 23, 3
   6              		.eabi_attribute 24, 1
   7              		.eabi_attribute 25, 1
   8              		.eabi_attribute 26, 1
   9              		.eabi_attribute 30, 2
  10              		.eabi_attribute 34, 0
  11              		.eabi_attribute 18, 4
  12              		.file	"dequantize.cc"
  13              		.text
  14              	.Ltext0:
  15              		.cfi_sections	.debug_frame
  16              		.section	.text._ZN6tflite3ops5micro10dequantize4InitEP13TfLiteContextPKcj,"ax",%progbits
  17              		.align	2
  18              		.global	_ZN6tflite3ops5micro10dequantize4InitEP13TfLiteContextPKcj
  19              		.syntax unified
  20              		.arm
  21              		.fpu neon
  23              	_ZN6tflite3ops5micro10dequantize4InitEP13TfLiteContextPKcj:
  24              		.fnstart
  25              	.LFB4496:
  26              		.file 1 "../src/tensorflow_lite/tensorflow/lite/micro/kernels/dequantize.cc"
   1:../src/tensorflow_lite/tensorflow/lite/micro/kernels/dequantize.cc **** /* Copyright 2018 The TensorFlow Authors. All Rights Reserved.
   2:../src/tensorflow_lite/tensorflow/lite/micro/kernels/dequantize.cc **** 
   3:../src/tensorflow_lite/tensorflow/lite/micro/kernels/dequantize.cc **** Licensed under the Apache License, Version 2.0 (the "License");
   4:../src/tensorflow_lite/tensorflow/lite/micro/kernels/dequantize.cc **** you may not use this file except in compliance with the License.
   5:../src/tensorflow_lite/tensorflow/lite/micro/kernels/dequantize.cc **** You may obtain a copy of the License at
   6:../src/tensorflow_lite/tensorflow/lite/micro/kernels/dequantize.cc **** 
   7:../src/tensorflow_lite/tensorflow/lite/micro/kernels/dequantize.cc ****     http://www.apache.org/licenses/LICENSE-2.0
   8:../src/tensorflow_lite/tensorflow/lite/micro/kernels/dequantize.cc **** 
   9:../src/tensorflow_lite/tensorflow/lite/micro/kernels/dequantize.cc **** Unless required by applicable law or agreed to in writing, software
  10:../src/tensorflow_lite/tensorflow/lite/micro/kernels/dequantize.cc **** distributed under the License is distributed on an "AS IS" BASIS,
  11:../src/tensorflow_lite/tensorflow/lite/micro/kernels/dequantize.cc **** WITHOUT WARRANTIES OR CONDITIONS OF ANY KIND, either express or implied.
  12:../src/tensorflow_lite/tensorflow/lite/micro/kernels/dequantize.cc **** See the License for the specific language governing permissions and
  13:../src/tensorflow_lite/tensorflow/lite/micro/kernels/dequantize.cc **** limitations under the License.
  14:../src/tensorflow_lite/tensorflow/lite/micro/kernels/dequantize.cc **** ==============================================================================*/
  15:../src/tensorflow_lite/tensorflow/lite/micro/kernels/dequantize.cc **** 
  16:../src/tensorflow_lite/tensorflow/lite/micro/kernels/dequantize.cc **** #include "tensorflow/lite/kernels/internal/reference/dequantize.h"
  17:../src/tensorflow_lite/tensorflow/lite/micro/kernels/dequantize.cc **** 
  18:../src/tensorflow_lite/tensorflow/lite/micro/kernels/dequantize.cc **** #include "tensorflow/lite/c/builtin_op_data.h"
  19:../src/tensorflow_lite/tensorflow/lite/micro/kernels/dequantize.cc **** #include "tensorflow/lite/c/common.h"
  20:../src/tensorflow_lite/tensorflow/lite/micro/kernels/dequantize.cc **** #include "tensorflow/lite/kernels/internal/quantization_util.h"
  21:../src/tensorflow_lite/tensorflow/lite/micro/kernels/dequantize.cc **** #include "tensorflow/lite/kernels/internal/reference/quantize.h"
  22:../src/tensorflow_lite/tensorflow/lite/micro/kernels/dequantize.cc **** #include "tensorflow/lite/kernels/internal/reference/requantize.h"
  23:../src/tensorflow_lite/tensorflow/lite/micro/kernels/dequantize.cc **** #include "tensorflow/lite/kernels/internal/tensor_ctypes.h"
  24:../src/tensorflow_lite/tensorflow/lite/micro/kernels/dequantize.cc **** #include "tensorflow/lite/kernels/kernel_util.h"
  25:../src/tensorflow_lite/tensorflow/lite/micro/kernels/dequantize.cc **** #include "tensorflow/lite/micro/kernels/kernel_util.h"
  26:../src/tensorflow_lite/tensorflow/lite/micro/kernels/dequantize.cc **** 
  27:../src/tensorflow_lite/tensorflow/lite/micro/kernels/dequantize.cc **** namespace tflite {
  28:../src/tensorflow_lite/tensorflow/lite/micro/kernels/dequantize.cc **** namespace ops {
  29:../src/tensorflow_lite/tensorflow/lite/micro/kernels/dequantize.cc **** namespace micro {
  30:../src/tensorflow_lite/tensorflow/lite/micro/kernels/dequantize.cc **** namespace dequantize {
  31:../src/tensorflow_lite/tensorflow/lite/micro/kernels/dequantize.cc **** 
  32:../src/tensorflow_lite/tensorflow/lite/micro/kernels/dequantize.cc **** struct OpData {
  33:../src/tensorflow_lite/tensorflow/lite/micro/kernels/dequantize.cc ****   tflite::DequantizationParams quantization_params;
  34:../src/tensorflow_lite/tensorflow/lite/micro/kernels/dequantize.cc ****   // The scaling factor from input to output (aka the 'real multiplier') can
  35:../src/tensorflow_lite/tensorflow/lite/micro/kernels/dequantize.cc ****   // be represented as a fixed point multiplier plus a left shift.
  36:../src/tensorflow_lite/tensorflow/lite/micro/kernels/dequantize.cc ****   int32_t output_multiplier;
  37:../src/tensorflow_lite/tensorflow/lite/micro/kernels/dequantize.cc ****   int output_shift;
  38:../src/tensorflow_lite/tensorflow/lite/micro/kernels/dequantize.cc ****   int32_t output_zero_point;
  39:../src/tensorflow_lite/tensorflow/lite/micro/kernels/dequantize.cc **** };
  40:../src/tensorflow_lite/tensorflow/lite/micro/kernels/dequantize.cc **** 
  41:../src/tensorflow_lite/tensorflow/lite/micro/kernels/dequantize.cc **** void* Init(TfLiteContext* context, const char* buffer, size_t length) {
  27              		.loc 1 41 0
  28              		.cfi_startproc
  29              		@ args = 0, pretend = 0, frame = 0
  30              		@ frame_needed = 0, uses_anonymous_args = 0
  31              	.LVL0:
  42:../src/tensorflow_lite/tensorflow/lite/micro/kernels/dequantize.cc ****   TFLITE_DCHECK(context->AllocatePersistentBuffer != nullptr);
  32              		.loc 1 42 0
  33 0000 383090E5 		ldr	r3, [r0, #56]
  34 0004 000053E3 		cmp	r3, #0
  35 0008 0100000A 		beq	.L7
  43:../src/tensorflow_lite/tensorflow/lite/micro/kernels/dequantize.cc ****   return context->AllocatePersistentBuffer(context, sizeof(OpData));
  36              		.loc 1 43 0
  37 000c 2010A0E3 		mov	r1, #32
  38              	.LVL1:
  39 0010 13FF2FE1 		bx	r3
  40              	.LVL2:
  41              	.L7:
  41:../src/tensorflow_lite/tensorflow/lite/micro/kernels/dequantize.cc ****   TFLITE_DCHECK(context->AllocatePersistentBuffer != nullptr);
  42              		.loc 1 41 0 discriminator 1
  43 0014 10402DE9 		push	{r4, lr}
  44              		.save {r4, lr}
  45              		.cfi_def_cfa_offset 8
  46              		.cfi_offset 4, -8
  47              		.cfi_offset 14, -4
  42:../src/tensorflow_lite/tensorflow/lite/micro/kernels/dequantize.cc ****   TFLITE_DCHECK(context->AllocatePersistentBuffer != nullptr);
  48              		.loc 1 42 0 discriminator 1
  49 0018 FEFFFFEB 		bl	abort
  50              	.LVL3:
  51              		.cfi_endproc
  52              	.LFE4496:
  53              		.fnend
  55              		.section	.text._ZN6tflite3ops5micro10dequantize7PrepareEP13TfLiteContextP10TfLiteNode,"ax",%progbi
  56              		.align	2
  57              		.global	_ZN6tflite3ops5micro10dequantize7PrepareEP13TfLiteContextP10TfLiteNode
  58              		.syntax unified
  59              		.arm
  60              		.fpu neon
  62              	_ZN6tflite3ops5micro10dequantize7PrepareEP13TfLiteContextP10TfLiteNode:
  63              		.fnstart
  64              	.LFB4497:
  44:../src/tensorflow_lite/tensorflow/lite/micro/kernels/dequantize.cc **** }
  45:../src/tensorflow_lite/tensorflow/lite/micro/kernels/dequantize.cc **** 
  46:../src/tensorflow_lite/tensorflow/lite/micro/kernels/dequantize.cc **** TfLiteStatus Prepare(TfLiteContext* context, TfLiteNode* node) {
  65              		.loc 1 46 0
  66              		.cfi_startproc
  67              		@ args = 0, pretend = 0, frame = 0
  68              		@ frame_needed = 0, uses_anonymous_args = 0
  69              	.LVL4:
  70 0000 F0412DE9 		push	{r4, r5, r6, r7, r8, lr}
  71              		.save {r4, r5, r6, r7, r8, lr}
  72              		.cfi_def_cfa_offset 24
  73              		.cfi_offset 4, -24
  74              		.cfi_offset 5, -20
  75              		.cfi_offset 6, -16
  76              		.cfi_offset 7, -12
  77              		.cfi_offset 8, -8
  78              		.cfi_offset 14, -4
  79              		.pad #16
  80 0004 10D04DE2 		sub	sp, sp, #16
  81              		.cfi_def_cfa_offset 40
  47:../src/tensorflow_lite/tensorflow/lite/micro/kernels/dequantize.cc ****   TFLITE_DCHECK(node->user_data != nullptr);
  82              		.loc 1 47 0
  83 0008 106091E5 		ldr	r6, [r1, #16]
  84 000c 000056E3 		cmp	r6, #0
  85 0010 7D00000A 		beq	.L22
  86              	.LBB77:
  87              	.LBB78:
  88              		.file 2 "C:/Renesas/e2studio_2021_01_workspace_RZA2M_ANPR/ANPR_RZA2M_EBK/src/tensorflow_lite/tenso
   1:C:/Renesas/e2studio_2021_01_workspace_RZA2M_ANPR/ANPR_RZA2M_EBK/src/tensorflow_lite/tensorflow/lite/kernels\kernel_util.h **** /* Copyright 2017 The TensorFlow Authors. All Rights Reserved.
   2:C:/Renesas/e2studio_2021_01_workspace_RZA2M_ANPR/ANPR_RZA2M_EBK/src/tensorflow_lite/tensorflow/lite/kernels\kernel_util.h **** 
   3:C:/Renesas/e2studio_2021_01_workspace_RZA2M_ANPR/ANPR_RZA2M_EBK/src/tensorflow_lite/tensorflow/lite/kernels\kernel_util.h **** Licensed under the Apache License, Version 2.0 (the "License");
   4:C:/Renesas/e2studio_2021_01_workspace_RZA2M_ANPR/ANPR_RZA2M_EBK/src/tensorflow_lite/tensorflow/lite/kernels\kernel_util.h **** you may not use this file except in compliance with the License.
   5:C:/Renesas/e2studio_2021_01_workspace_RZA2M_ANPR/ANPR_RZA2M_EBK/src/tensorflow_lite/tensorflow/lite/kernels\kernel_util.h **** You may obtain a copy of the License at
   6:C:/Renesas/e2studio_2021_01_workspace_RZA2M_ANPR/ANPR_RZA2M_EBK/src/tensorflow_lite/tensorflow/lite/kernels\kernel_util.h **** 
   7:C:/Renesas/e2studio_2021_01_workspace_RZA2M_ANPR/ANPR_RZA2M_EBK/src/tensorflow_lite/tensorflow/lite/kernels\kernel_util.h ****     http://www.apache.org/licenses/LICENSE-2.0
   8:C:/Renesas/e2studio_2021_01_workspace_RZA2M_ANPR/ANPR_RZA2M_EBK/src/tensorflow_lite/tensorflow/lite/kernels\kernel_util.h **** 
   9:C:/Renesas/e2studio_2021_01_workspace_RZA2M_ANPR/ANPR_RZA2M_EBK/src/tensorflow_lite/tensorflow/lite/kernels\kernel_util.h **** Unless required by applicable law or agreed to in writing, software
  10:C:/Renesas/e2studio_2021_01_workspace_RZA2M_ANPR/ANPR_RZA2M_EBK/src/tensorflow_lite/tensorflow/lite/kernels\kernel_util.h **** distributed under the License is distributed on an "AS IS" BASIS,
  11:C:/Renesas/e2studio_2021_01_workspace_RZA2M_ANPR/ANPR_RZA2M_EBK/src/tensorflow_lite/tensorflow/lite/kernels\kernel_util.h **** WITHOUT WARRANTIES OR CONDITIONS OF ANY KIND, either express or implied.
  12:C:/Renesas/e2studio_2021_01_workspace_RZA2M_ANPR/ANPR_RZA2M_EBK/src/tensorflow_lite/tensorflow/lite/kernels\kernel_util.h **** See the License for the specific language governing permissions and
  13:C:/Renesas/e2studio_2021_01_workspace_RZA2M_ANPR/ANPR_RZA2M_EBK/src/tensorflow_lite/tensorflow/lite/kernels\kernel_util.h **** limitations under the License.
  14:C:/Renesas/e2studio_2021_01_workspace_RZA2M_ANPR/ANPR_RZA2M_EBK/src/tensorflow_lite/tensorflow/lite/kernels\kernel_util.h **** ==============================================================================*/
  15:C:/Renesas/e2studio_2021_01_workspace_RZA2M_ANPR/ANPR_RZA2M_EBK/src/tensorflow_lite/tensorflow/lite/kernels\kernel_util.h **** #ifndef TENSORFLOW_LITE_KERNELS_KERNEL_UTIL_H_
  16:C:/Renesas/e2studio_2021_01_workspace_RZA2M_ANPR/ANPR_RZA2M_EBK/src/tensorflow_lite/tensorflow/lite/kernels\kernel_util.h **** #define TENSORFLOW_LITE_KERNELS_KERNEL_UTIL_H_
  17:C:/Renesas/e2studio_2021_01_workspace_RZA2M_ANPR/ANPR_RZA2M_EBK/src/tensorflow_lite/tensorflow/lite/kernels\kernel_util.h **** 
  18:C:/Renesas/e2studio_2021_01_workspace_RZA2M_ANPR/ANPR_RZA2M_EBK/src/tensorflow_lite/tensorflow/lite/kernels\kernel_util.h **** #include <stdint.h>
  19:C:/Renesas/e2studio_2021_01_workspace_RZA2M_ANPR/ANPR_RZA2M_EBK/src/tensorflow_lite/tensorflow/lite/kernels\kernel_util.h **** 
  20:C:/Renesas/e2studio_2021_01_workspace_RZA2M_ANPR/ANPR_RZA2M_EBK/src/tensorflow_lite/tensorflow/lite/kernels\kernel_util.h **** #include <limits>
  21:C:/Renesas/e2studio_2021_01_workspace_RZA2M_ANPR/ANPR_RZA2M_EBK/src/tensorflow_lite/tensorflow/lite/kernels\kernel_util.h **** 
  22:C:/Renesas/e2studio_2021_01_workspace_RZA2M_ANPR/ANPR_RZA2M_EBK/src/tensorflow_lite/tensorflow/lite/kernels\kernel_util.h **** #include "tensorflow/lite/c/builtin_op_data.h"
  23:C:/Renesas/e2studio_2021_01_workspace_RZA2M_ANPR/ANPR_RZA2M_EBK/src/tensorflow_lite/tensorflow/lite/kernels\kernel_util.h **** #include "tensorflow/lite/c/common.h"
  24:C:/Renesas/e2studio_2021_01_workspace_RZA2M_ANPR/ANPR_RZA2M_EBK/src/tensorflow_lite/tensorflow/lite/kernels\kernel_util.h **** 
  25:C:/Renesas/e2studio_2021_01_workspace_RZA2M_ANPR/ANPR_RZA2M_EBK/src/tensorflow_lite/tensorflow/lite/kernels\kernel_util.h **** namespace tflite {
  26:C:/Renesas/e2studio_2021_01_workspace_RZA2M_ANPR/ANPR_RZA2M_EBK/src/tensorflow_lite/tensorflow/lite/kernels\kernel_util.h **** 
  27:C:/Renesas/e2studio_2021_01_workspace_RZA2M_ANPR/ANPR_RZA2M_EBK/src/tensorflow_lite/tensorflow/lite/kernels\kernel_util.h **** // A fair number of functions in this header have historically been inline.
  28:C:/Renesas/e2studio_2021_01_workspace_RZA2M_ANPR/ANPR_RZA2M_EBK/src/tensorflow_lite/tensorflow/lite/kernels\kernel_util.h **** // It is ok to change functions to not be inline if the latency with
  29:C:/Renesas/e2studio_2021_01_workspace_RZA2M_ANPR/ANPR_RZA2M_EBK/src/tensorflow_lite/tensorflow/lite/kernels\kernel_util.h **** // benchmark_model for MobileNet + MobileBERT is unaffected. If such a change is
  30:C:/Renesas/e2studio_2021_01_workspace_RZA2M_ANPR/ANPR_RZA2M_EBK/src/tensorflow_lite/tensorflow/lite/kernels\kernel_util.h **** // made, move the newly non-inlined function declarations to the top of this
  31:C:/Renesas/e2studio_2021_01_workspace_RZA2M_ANPR/ANPR_RZA2M_EBK/src/tensorflow_lite/tensorflow/lite/kernels\kernel_util.h **** // header file.
  32:C:/Renesas/e2studio_2021_01_workspace_RZA2M_ANPR/ANPR_RZA2M_EBK/src/tensorflow_lite/tensorflow/lite/kernels\kernel_util.h **** 
  33:C:/Renesas/e2studio_2021_01_workspace_RZA2M_ANPR/ANPR_RZA2M_EBK/src/tensorflow_lite/tensorflow/lite/kernels\kernel_util.h **** // Note: You must check if result is not null:
  34:C:/Renesas/e2studio_2021_01_workspace_RZA2M_ANPR/ANPR_RZA2M_EBK/src/tensorflow_lite/tensorflow/lite/kernels\kernel_util.h **** //
  35:C:/Renesas/e2studio_2021_01_workspace_RZA2M_ANPR/ANPR_RZA2M_EBK/src/tensorflow_lite/tensorflow/lite/kernels\kernel_util.h **** //   TfLiteTensor* my_tensor = GetInput(context, node, kMyTensorIdx);
  36:C:/Renesas/e2studio_2021_01_workspace_RZA2M_ANPR/ANPR_RZA2M_EBK/src/tensorflow_lite/tensorflow/lite/kernels\kernel_util.h **** //   TF_LITE_ENSURE(context, my_tensor != nullptr);
  37:C:/Renesas/e2studio_2021_01_workspace_RZA2M_ANPR/ANPR_RZA2M_EBK/src/tensorflow_lite/tensorflow/lite/kernels\kernel_util.h **** //
  38:C:/Renesas/e2studio_2021_01_workspace_RZA2M_ANPR/ANPR_RZA2M_EBK/src/tensorflow_lite/tensorflow/lite/kernels\kernel_util.h **** // This is because the index might point to the optional tensor constant
  39:C:/Renesas/e2studio_2021_01_workspace_RZA2M_ANPR/ANPR_RZA2M_EBK/src/tensorflow_lite/tensorflow/lite/kernels\kernel_util.h **** // (kTfLiteOptionalTensor) in which case there is no tensor to return.
  40:C:/Renesas/e2studio_2021_01_workspace_RZA2M_ANPR/ANPR_RZA2M_EBK/src/tensorflow_lite/tensorflow/lite/kernels\kernel_util.h **** const TfLiteTensor* GetInput(const TfLiteContext* context,
  41:C:/Renesas/e2studio_2021_01_workspace_RZA2M_ANPR/ANPR_RZA2M_EBK/src/tensorflow_lite/tensorflow/lite/kernels\kernel_util.h ****                              const TfLiteNode* node, int index);
  42:C:/Renesas/e2studio_2021_01_workspace_RZA2M_ANPR/ANPR_RZA2M_EBK/src/tensorflow_lite/tensorflow/lite/kernels\kernel_util.h **** 
  43:C:/Renesas/e2studio_2021_01_workspace_RZA2M_ANPR/ANPR_RZA2M_EBK/src/tensorflow_lite/tensorflow/lite/kernels\kernel_util.h **** // Same as `GetInput` but returns boolean and uses output argument for tensor.
  44:C:/Renesas/e2studio_2021_01_workspace_RZA2M_ANPR/ANPR_RZA2M_EBK/src/tensorflow_lite/tensorflow/lite/kernels\kernel_util.h **** //
  45:C:/Renesas/e2studio_2021_01_workspace_RZA2M_ANPR/ANPR_RZA2M_EBK/src/tensorflow_lite/tensorflow/lite/kernels\kernel_util.h **** //   TfLiteTensor* my_tensor;
  46:C:/Renesas/e2studio_2021_01_workspace_RZA2M_ANPR/ANPR_RZA2M_EBK/src/tensorflow_lite/tensorflow/lite/kernels\kernel_util.h **** //   TF_LITE_ENSURE_OK(context,
  47:C:/Renesas/e2studio_2021_01_workspace_RZA2M_ANPR/ANPR_RZA2M_EBK/src/tensorflow_lite/tensorflow/lite/kernels\kernel_util.h **** //                     GetInputSafe(context, node, kMyTensorIdx, &my_tensor));
  48:C:/Renesas/e2studio_2021_01_workspace_RZA2M_ANPR/ANPR_RZA2M_EBK/src/tensorflow_lite/tensorflow/lite/kernels\kernel_util.h **** //   // can use my_tensor directly from here onwards, it is not nullptr
  49:C:/Renesas/e2studio_2021_01_workspace_RZA2M_ANPR/ANPR_RZA2M_EBK/src/tensorflow_lite/tensorflow/lite/kernels\kernel_util.h **** //
  50:C:/Renesas/e2studio_2021_01_workspace_RZA2M_ANPR/ANPR_RZA2M_EBK/src/tensorflow_lite/tensorflow/lite/kernels\kernel_util.h **** // Should be used in cases where the binary size is too large.
  51:C:/Renesas/e2studio_2021_01_workspace_RZA2M_ANPR/ANPR_RZA2M_EBK/src/tensorflow_lite/tensorflow/lite/kernels\kernel_util.h **** TfLiteStatus GetInputSafe(const TfLiteContext* context, const TfLiteNode* node,
  52:C:/Renesas/e2studio_2021_01_workspace_RZA2M_ANPR/ANPR_RZA2M_EBK/src/tensorflow_lite/tensorflow/lite/kernels\kernel_util.h ****                           int index, const TfLiteTensor** tensor);
  53:C:/Renesas/e2studio_2021_01_workspace_RZA2M_ANPR/ANPR_RZA2M_EBK/src/tensorflow_lite/tensorflow/lite/kernels\kernel_util.h **** 
  54:C:/Renesas/e2studio_2021_01_workspace_RZA2M_ANPR/ANPR_RZA2M_EBK/src/tensorflow_lite/tensorflow/lite/kernels\kernel_util.h **** // Note: You must check if result is not null:
  55:C:/Renesas/e2studio_2021_01_workspace_RZA2M_ANPR/ANPR_RZA2M_EBK/src/tensorflow_lite/tensorflow/lite/kernels\kernel_util.h **** //
  56:C:/Renesas/e2studio_2021_01_workspace_RZA2M_ANPR/ANPR_RZA2M_EBK/src/tensorflow_lite/tensorflow/lite/kernels\kernel_util.h **** //   TfLiteTensor* my_tensor = GetVariableInput(context, node, kMyTensorIdx);
  57:C:/Renesas/e2studio_2021_01_workspace_RZA2M_ANPR/ANPR_RZA2M_EBK/src/tensorflow_lite/tensorflow/lite/kernels\kernel_util.h **** //   TF_LITE_ENSURE(context, my_tensor != nullptr);
  58:C:/Renesas/e2studio_2021_01_workspace_RZA2M_ANPR/ANPR_RZA2M_EBK/src/tensorflow_lite/tensorflow/lite/kernels\kernel_util.h **** //
  59:C:/Renesas/e2studio_2021_01_workspace_RZA2M_ANPR/ANPR_RZA2M_EBK/src/tensorflow_lite/tensorflow/lite/kernels\kernel_util.h **** // This is because the index might point to the optional tensor constant
  60:C:/Renesas/e2studio_2021_01_workspace_RZA2M_ANPR/ANPR_RZA2M_EBK/src/tensorflow_lite/tensorflow/lite/kernels\kernel_util.h **** // (kTfLiteOptionalTensor) in which case there is no tensor to return.
  61:C:/Renesas/e2studio_2021_01_workspace_RZA2M_ANPR/ANPR_RZA2M_EBK/src/tensorflow_lite/tensorflow/lite/kernels\kernel_util.h **** TfLiteTensor* GetVariableInput(TfLiteContext* context, const TfLiteNode* node,
  62:C:/Renesas/e2studio_2021_01_workspace_RZA2M_ANPR/ANPR_RZA2M_EBK/src/tensorflow_lite/tensorflow/lite/kernels\kernel_util.h ****                                int index);
  63:C:/Renesas/e2studio_2021_01_workspace_RZA2M_ANPR/ANPR_RZA2M_EBK/src/tensorflow_lite/tensorflow/lite/kernels\kernel_util.h **** 
  64:C:/Renesas/e2studio_2021_01_workspace_RZA2M_ANPR/ANPR_RZA2M_EBK/src/tensorflow_lite/tensorflow/lite/kernels\kernel_util.h **** // Note: You must check if result is not null:
  65:C:/Renesas/e2studio_2021_01_workspace_RZA2M_ANPR/ANPR_RZA2M_EBK/src/tensorflow_lite/tensorflow/lite/kernels\kernel_util.h **** //
  66:C:/Renesas/e2studio_2021_01_workspace_RZA2M_ANPR/ANPR_RZA2M_EBK/src/tensorflow_lite/tensorflow/lite/kernels\kernel_util.h **** //   TfLiteTensor* my_tensor = GetOutput(context, node, kMyTensorIdx);
  67:C:/Renesas/e2studio_2021_01_workspace_RZA2M_ANPR/ANPR_RZA2M_EBK/src/tensorflow_lite/tensorflow/lite/kernels\kernel_util.h **** //   TF_LITE_ENSURE(context, my_tensor != nullptr);
  68:C:/Renesas/e2studio_2021_01_workspace_RZA2M_ANPR/ANPR_RZA2M_EBK/src/tensorflow_lite/tensorflow/lite/kernels\kernel_util.h **** //
  69:C:/Renesas/e2studio_2021_01_workspace_RZA2M_ANPR/ANPR_RZA2M_EBK/src/tensorflow_lite/tensorflow/lite/kernels\kernel_util.h **** // This is because the index might point to the optional tensor constant
  70:C:/Renesas/e2studio_2021_01_workspace_RZA2M_ANPR/ANPR_RZA2M_EBK/src/tensorflow_lite/tensorflow/lite/kernels\kernel_util.h **** // (kTfLiteOptionalTensor) in which case there is no tensor to return.
  71:C:/Renesas/e2studio_2021_01_workspace_RZA2M_ANPR/ANPR_RZA2M_EBK/src/tensorflow_lite/tensorflow/lite/kernels\kernel_util.h **** TfLiteTensor* GetOutput(TfLiteContext* context, const TfLiteNode* node,
  72:C:/Renesas/e2studio_2021_01_workspace_RZA2M_ANPR/ANPR_RZA2M_EBK/src/tensorflow_lite/tensorflow/lite/kernels\kernel_util.h ****                         int index);
  73:C:/Renesas/e2studio_2021_01_workspace_RZA2M_ANPR/ANPR_RZA2M_EBK/src/tensorflow_lite/tensorflow/lite/kernels\kernel_util.h **** 
  74:C:/Renesas/e2studio_2021_01_workspace_RZA2M_ANPR/ANPR_RZA2M_EBK/src/tensorflow_lite/tensorflow/lite/kernels\kernel_util.h **** // Same as `GetOutput` but returns boolean and uses output argument for tensor.
  75:C:/Renesas/e2studio_2021_01_workspace_RZA2M_ANPR/ANPR_RZA2M_EBK/src/tensorflow_lite/tensorflow/lite/kernels\kernel_util.h **** //
  76:C:/Renesas/e2studio_2021_01_workspace_RZA2M_ANPR/ANPR_RZA2M_EBK/src/tensorflow_lite/tensorflow/lite/kernels\kernel_util.h **** //   TfLiteTensor* my_tensor;
  77:C:/Renesas/e2studio_2021_01_workspace_RZA2M_ANPR/ANPR_RZA2M_EBK/src/tensorflow_lite/tensorflow/lite/kernels\kernel_util.h **** //   TF_LITE_ENSURE_OK(context,
  78:C:/Renesas/e2studio_2021_01_workspace_RZA2M_ANPR/ANPR_RZA2M_EBK/src/tensorflow_lite/tensorflow/lite/kernels\kernel_util.h **** //                     GetOutputSafe(context, node, kMyTensorIdx, &my_tensor));
  79:C:/Renesas/e2studio_2021_01_workspace_RZA2M_ANPR/ANPR_RZA2M_EBK/src/tensorflow_lite/tensorflow/lite/kernels\kernel_util.h **** //   // can use my_tensor directly from here onwards, it is not nullptr
  80:C:/Renesas/e2studio_2021_01_workspace_RZA2M_ANPR/ANPR_RZA2M_EBK/src/tensorflow_lite/tensorflow/lite/kernels\kernel_util.h **** //
  81:C:/Renesas/e2studio_2021_01_workspace_RZA2M_ANPR/ANPR_RZA2M_EBK/src/tensorflow_lite/tensorflow/lite/kernels\kernel_util.h **** // Should be used in cases where the binary size is too large.
  82:C:/Renesas/e2studio_2021_01_workspace_RZA2M_ANPR/ANPR_RZA2M_EBK/src/tensorflow_lite/tensorflow/lite/kernels\kernel_util.h **** TfLiteStatus GetOutputSafe(const TfLiteContext* context, const TfLiteNode* node,
  83:C:/Renesas/e2studio_2021_01_workspace_RZA2M_ANPR/ANPR_RZA2M_EBK/src/tensorflow_lite/tensorflow/lite/kernels\kernel_util.h ****                            int index, TfLiteTensor** tensor);
  84:C:/Renesas/e2studio_2021_01_workspace_RZA2M_ANPR/ANPR_RZA2M_EBK/src/tensorflow_lite/tensorflow/lite/kernels\kernel_util.h **** 
  85:C:/Renesas/e2studio_2021_01_workspace_RZA2M_ANPR/ANPR_RZA2M_EBK/src/tensorflow_lite/tensorflow/lite/kernels\kernel_util.h **** // Note: You must check if result is not null:
  86:C:/Renesas/e2studio_2021_01_workspace_RZA2M_ANPR/ANPR_RZA2M_EBK/src/tensorflow_lite/tensorflow/lite/kernels\kernel_util.h **** //
  87:C:/Renesas/e2studio_2021_01_workspace_RZA2M_ANPR/ANPR_RZA2M_EBK/src/tensorflow_lite/tensorflow/lite/kernels\kernel_util.h **** //   TfLiteTensor* my_tensor = GetOptionalInputTensor(context, node, kIdx);
  88:C:/Renesas/e2studio_2021_01_workspace_RZA2M_ANPR/ANPR_RZA2M_EBK/src/tensorflow_lite/tensorflow/lite/kernels\kernel_util.h **** //   TF_LITE_ENSURE(context, my_tensor != nullptr);
  89:C:/Renesas/e2studio_2021_01_workspace_RZA2M_ANPR/ANPR_RZA2M_EBK/src/tensorflow_lite/tensorflow/lite/kernels\kernel_util.h **** //
  90:C:/Renesas/e2studio_2021_01_workspace_RZA2M_ANPR/ANPR_RZA2M_EBK/src/tensorflow_lite/tensorflow/lite/kernels\kernel_util.h **** // This is because the index might point to the optional tensor constant
  91:C:/Renesas/e2studio_2021_01_workspace_RZA2M_ANPR/ANPR_RZA2M_EBK/src/tensorflow_lite/tensorflow/lite/kernels\kernel_util.h **** // (kTfLiteOptionalTensor) in which case there is no tensor to return.
  92:C:/Renesas/e2studio_2021_01_workspace_RZA2M_ANPR/ANPR_RZA2M_EBK/src/tensorflow_lite/tensorflow/lite/kernels\kernel_util.h **** //
  93:C:/Renesas/e2studio_2021_01_workspace_RZA2M_ANPR/ANPR_RZA2M_EBK/src/tensorflow_lite/tensorflow/lite/kernels\kernel_util.h **** // Deprecated. GetInput has the same functionality.
  94:C:/Renesas/e2studio_2021_01_workspace_RZA2M_ANPR/ANPR_RZA2M_EBK/src/tensorflow_lite/tensorflow/lite/kernels\kernel_util.h **** const TfLiteTensor* GetOptionalInputTensor(const TfLiteContext* context,
  95:C:/Renesas/e2studio_2021_01_workspace_RZA2M_ANPR/ANPR_RZA2M_EBK/src/tensorflow_lite/tensorflow/lite/kernels\kernel_util.h ****                                            const TfLiteNode* node, int index);
  96:C:/Renesas/e2studio_2021_01_workspace_RZA2M_ANPR/ANPR_RZA2M_EBK/src/tensorflow_lite/tensorflow/lite/kernels\kernel_util.h **** 
  97:C:/Renesas/e2studio_2021_01_workspace_RZA2M_ANPR/ANPR_RZA2M_EBK/src/tensorflow_lite/tensorflow/lite/kernels\kernel_util.h **** #ifndef TF_LITE_STATIC_MEMORY
  98:C:/Renesas/e2studio_2021_01_workspace_RZA2M_ANPR/ANPR_RZA2M_EBK/src/tensorflow_lite/tensorflow/lite/kernels\kernel_util.h **** // Note: You must check if result is not null:
  99:C:/Renesas/e2studio_2021_01_workspace_RZA2M_ANPR/ANPR_RZA2M_EBK/src/tensorflow_lite/tensorflow/lite/kernels\kernel_util.h **** //
 100:C:/Renesas/e2studio_2021_01_workspace_RZA2M_ANPR/ANPR_RZA2M_EBK/src/tensorflow_lite/tensorflow/lite/kernels\kernel_util.h **** //   TfLiteTensor* my_tensor = GetTemporary(context, node, kMyTensorIdx);
 101:C:/Renesas/e2studio_2021_01_workspace_RZA2M_ANPR/ANPR_RZA2M_EBK/src/tensorflow_lite/tensorflow/lite/kernels\kernel_util.h **** //   TF_LITE_ENSURE(context, my_tensor != nullptr);
 102:C:/Renesas/e2studio_2021_01_workspace_RZA2M_ANPR/ANPR_RZA2M_EBK/src/tensorflow_lite/tensorflow/lite/kernels\kernel_util.h **** //
 103:C:/Renesas/e2studio_2021_01_workspace_RZA2M_ANPR/ANPR_RZA2M_EBK/src/tensorflow_lite/tensorflow/lite/kernels\kernel_util.h **** // This is because the index might point to the optional tensor constant
 104:C:/Renesas/e2studio_2021_01_workspace_RZA2M_ANPR/ANPR_RZA2M_EBK/src/tensorflow_lite/tensorflow/lite/kernels\kernel_util.h **** // (kTfLiteOptionalTensor) in which case there is no tensor to return.
 105:C:/Renesas/e2studio_2021_01_workspace_RZA2M_ANPR/ANPR_RZA2M_EBK/src/tensorflow_lite/tensorflow/lite/kernels\kernel_util.h **** TfLiteTensor* GetTemporary(TfLiteContext* context, const TfLiteNode* node,
 106:C:/Renesas/e2studio_2021_01_workspace_RZA2M_ANPR/ANPR_RZA2M_EBK/src/tensorflow_lite/tensorflow/lite/kernels\kernel_util.h ****                            int index);
 107:C:/Renesas/e2studio_2021_01_workspace_RZA2M_ANPR/ANPR_RZA2M_EBK/src/tensorflow_lite/tensorflow/lite/kernels\kernel_util.h **** 
 108:C:/Renesas/e2studio_2021_01_workspace_RZA2M_ANPR/ANPR_RZA2M_EBK/src/tensorflow_lite/tensorflow/lite/kernels\kernel_util.h **** // Same as `GetTemporary` but returns boolean and uses output argument for
 109:C:/Renesas/e2studio_2021_01_workspace_RZA2M_ANPR/ANPR_RZA2M_EBK/src/tensorflow_lite/tensorflow/lite/kernels\kernel_util.h **** // tensor.
 110:C:/Renesas/e2studio_2021_01_workspace_RZA2M_ANPR/ANPR_RZA2M_EBK/src/tensorflow_lite/tensorflow/lite/kernels\kernel_util.h **** //
 111:C:/Renesas/e2studio_2021_01_workspace_RZA2M_ANPR/ANPR_RZA2M_EBK/src/tensorflow_lite/tensorflow/lite/kernels\kernel_util.h **** //   TfLiteTensor* my_tensor;
 112:C:/Renesas/e2studio_2021_01_workspace_RZA2M_ANPR/ANPR_RZA2M_EBK/src/tensorflow_lite/tensorflow/lite/kernels\kernel_util.h **** //   TF_LITE_ENSURE_OK(context,
 113:C:/Renesas/e2studio_2021_01_workspace_RZA2M_ANPR/ANPR_RZA2M_EBK/src/tensorflow_lite/tensorflow/lite/kernels\kernel_util.h **** //                     GetTemporarySafe(context, node, kMyTensorIdx,
 114:C:/Renesas/e2studio_2021_01_workspace_RZA2M_ANPR/ANPR_RZA2M_EBK/src/tensorflow_lite/tensorflow/lite/kernels\kernel_util.h **** //                     &my_tensor));
 115:C:/Renesas/e2studio_2021_01_workspace_RZA2M_ANPR/ANPR_RZA2M_EBK/src/tensorflow_lite/tensorflow/lite/kernels\kernel_util.h **** //   // can use my_tensor directly from here onwards, it is not nullptr
 116:C:/Renesas/e2studio_2021_01_workspace_RZA2M_ANPR/ANPR_RZA2M_EBK/src/tensorflow_lite/tensorflow/lite/kernels\kernel_util.h **** //
 117:C:/Renesas/e2studio_2021_01_workspace_RZA2M_ANPR/ANPR_RZA2M_EBK/src/tensorflow_lite/tensorflow/lite/kernels\kernel_util.h **** // Should be used in cases where the binary size is too large.
 118:C:/Renesas/e2studio_2021_01_workspace_RZA2M_ANPR/ANPR_RZA2M_EBK/src/tensorflow_lite/tensorflow/lite/kernels\kernel_util.h **** TfLiteStatus GetTemporarySafe(const TfLiteContext* context,
 119:C:/Renesas/e2studio_2021_01_workspace_RZA2M_ANPR/ANPR_RZA2M_EBK/src/tensorflow_lite/tensorflow/lite/kernels\kernel_util.h ****                               const TfLiteNode* node, int index,
 120:C:/Renesas/e2studio_2021_01_workspace_RZA2M_ANPR/ANPR_RZA2M_EBK/src/tensorflow_lite/tensorflow/lite/kernels\kernel_util.h ****                               TfLiteTensor** tensor);
 121:C:/Renesas/e2studio_2021_01_workspace_RZA2M_ANPR/ANPR_RZA2M_EBK/src/tensorflow_lite/tensorflow/lite/kernels\kernel_util.h **** 
 122:C:/Renesas/e2studio_2021_01_workspace_RZA2M_ANPR/ANPR_RZA2M_EBK/src/tensorflow_lite/tensorflow/lite/kernels\kernel_util.h **** // Note: You must check if result is not null:
 123:C:/Renesas/e2studio_2021_01_workspace_RZA2M_ANPR/ANPR_RZA2M_EBK/src/tensorflow_lite/tensorflow/lite/kernels\kernel_util.h **** //
 124:C:/Renesas/e2studio_2021_01_workspace_RZA2M_ANPR/ANPR_RZA2M_EBK/src/tensorflow_lite/tensorflow/lite/kernels\kernel_util.h **** //   TfLiteTensor* my_tensor = GetIntermediates(context, node, kMyTensorIdx);
 125:C:/Renesas/e2studio_2021_01_workspace_RZA2M_ANPR/ANPR_RZA2M_EBK/src/tensorflow_lite/tensorflow/lite/kernels\kernel_util.h **** //   TF_LITE_ENSURE(context, my_tensor != nullptr);
 126:C:/Renesas/e2studio_2021_01_workspace_RZA2M_ANPR/ANPR_RZA2M_EBK/src/tensorflow_lite/tensorflow/lite/kernels\kernel_util.h **** //
 127:C:/Renesas/e2studio_2021_01_workspace_RZA2M_ANPR/ANPR_RZA2M_EBK/src/tensorflow_lite/tensorflow/lite/kernels\kernel_util.h **** // This is because the index might point to the optional tensor constant
 128:C:/Renesas/e2studio_2021_01_workspace_RZA2M_ANPR/ANPR_RZA2M_EBK/src/tensorflow_lite/tensorflow/lite/kernels\kernel_util.h **** // (kTfLiteOptionalTensor) in which case there is no tensor to return.
 129:C:/Renesas/e2studio_2021_01_workspace_RZA2M_ANPR/ANPR_RZA2M_EBK/src/tensorflow_lite/tensorflow/lite/kernels\kernel_util.h **** const TfLiteTensor* GetIntermediates(TfLiteContext* context,
 130:C:/Renesas/e2studio_2021_01_workspace_RZA2M_ANPR/ANPR_RZA2M_EBK/src/tensorflow_lite/tensorflow/lite/kernels\kernel_util.h ****                                      const TfLiteNode* node, int index);
 131:C:/Renesas/e2studio_2021_01_workspace_RZA2M_ANPR/ANPR_RZA2M_EBK/src/tensorflow_lite/tensorflow/lite/kernels\kernel_util.h **** 
 132:C:/Renesas/e2studio_2021_01_workspace_RZA2M_ANPR/ANPR_RZA2M_EBK/src/tensorflow_lite/tensorflow/lite/kernels\kernel_util.h **** // Same as `GetIntermediates` but returns boolean and uses output argument for
 133:C:/Renesas/e2studio_2021_01_workspace_RZA2M_ANPR/ANPR_RZA2M_EBK/src/tensorflow_lite/tensorflow/lite/kernels\kernel_util.h **** // tensor.
 134:C:/Renesas/e2studio_2021_01_workspace_RZA2M_ANPR/ANPR_RZA2M_EBK/src/tensorflow_lite/tensorflow/lite/kernels\kernel_util.h **** //
 135:C:/Renesas/e2studio_2021_01_workspace_RZA2M_ANPR/ANPR_RZA2M_EBK/src/tensorflow_lite/tensorflow/lite/kernels\kernel_util.h **** //   TfLiteTensor* my_tensor;
 136:C:/Renesas/e2studio_2021_01_workspace_RZA2M_ANPR/ANPR_RZA2M_EBK/src/tensorflow_lite/tensorflow/lite/kernels\kernel_util.h **** //   TF_LITE_ENSURE_OK(context,
 137:C:/Renesas/e2studio_2021_01_workspace_RZA2M_ANPR/ANPR_RZA2M_EBK/src/tensorflow_lite/tensorflow/lite/kernels\kernel_util.h **** //                     GetIntermediatesSafe(context, node, kMyTensorIdx,
 138:C:/Renesas/e2studio_2021_01_workspace_RZA2M_ANPR/ANPR_RZA2M_EBK/src/tensorflow_lite/tensorflow/lite/kernels\kernel_util.h **** //                     &my_tensor));
 139:C:/Renesas/e2studio_2021_01_workspace_RZA2M_ANPR/ANPR_RZA2M_EBK/src/tensorflow_lite/tensorflow/lite/kernels\kernel_util.h **** //   // can use my_tensor directly from here onwards, it is not nullptr
 140:C:/Renesas/e2studio_2021_01_workspace_RZA2M_ANPR/ANPR_RZA2M_EBK/src/tensorflow_lite/tensorflow/lite/kernels\kernel_util.h **** //
 141:C:/Renesas/e2studio_2021_01_workspace_RZA2M_ANPR/ANPR_RZA2M_EBK/src/tensorflow_lite/tensorflow/lite/kernels\kernel_util.h **** // Should be used in cases where the binary size is too large.
 142:C:/Renesas/e2studio_2021_01_workspace_RZA2M_ANPR/ANPR_RZA2M_EBK/src/tensorflow_lite/tensorflow/lite/kernels\kernel_util.h **** TfLiteStatus GetIntermediatesSafe(const TfLiteContext* context,
 143:C:/Renesas/e2studio_2021_01_workspace_RZA2M_ANPR/ANPR_RZA2M_EBK/src/tensorflow_lite/tensorflow/lite/kernels\kernel_util.h ****                                   const TfLiteNode* node, int index,
 144:C:/Renesas/e2studio_2021_01_workspace_RZA2M_ANPR/ANPR_RZA2M_EBK/src/tensorflow_lite/tensorflow/lite/kernels\kernel_util.h ****                                   TfLiteTensor** tensor);
 145:C:/Renesas/e2studio_2021_01_workspace_RZA2M_ANPR/ANPR_RZA2M_EBK/src/tensorflow_lite/tensorflow/lite/kernels\kernel_util.h **** #endif  // TF_LITE_STATIC_MEMORY
 146:C:/Renesas/e2studio_2021_01_workspace_RZA2M_ANPR/ANPR_RZA2M_EBK/src/tensorflow_lite/tensorflow/lite/kernels\kernel_util.h **** 
 147:C:/Renesas/e2studio_2021_01_workspace_RZA2M_ANPR/ANPR_RZA2M_EBK/src/tensorflow_lite/tensorflow/lite/kernels\kernel_util.h **** inline int NumDimensions(const TfLiteTensor* t) { return t->dims->size; }
 148:C:/Renesas/e2studio_2021_01_workspace_RZA2M_ANPR/ANPR_RZA2M_EBK/src/tensorflow_lite/tensorflow/lite/kernels\kernel_util.h **** inline int SizeOfDimension(const TfLiteTensor* t, int dim) {
 149:C:/Renesas/e2studio_2021_01_workspace_RZA2M_ANPR/ANPR_RZA2M_EBK/src/tensorflow_lite/tensorflow/lite/kernels\kernel_util.h ****   return t->dims->data[dim];
 150:C:/Renesas/e2studio_2021_01_workspace_RZA2M_ANPR/ANPR_RZA2M_EBK/src/tensorflow_lite/tensorflow/lite/kernels\kernel_util.h **** }
 151:C:/Renesas/e2studio_2021_01_workspace_RZA2M_ANPR/ANPR_RZA2M_EBK/src/tensorflow_lite/tensorflow/lite/kernels\kernel_util.h **** 
 152:C:/Renesas/e2studio_2021_01_workspace_RZA2M_ANPR/ANPR_RZA2M_EBK/src/tensorflow_lite/tensorflow/lite/kernels\kernel_util.h **** inline int NumInputs(const TfLiteNode* node) { return node->inputs->size; }
  89              		.loc 2 152 0
  90 0014 003091E5 		ldr	r3, [r1]
  91 0018 0140A0E1 		mov	r4, r1
  92 001c 0070A0E1 		mov	r7, r0
  93              	.LVL5:
  94 0020 005093E5 		ldr	r5, [r3]
  95              	.LBE78:
  96              	.LBE77:
  48:../src/tensorflow_lite/tensorflow/lite/micro/kernels/dequantize.cc ****   OpData* data = static_cast<OpData*>(node->user_data);
  49:../src/tensorflow_lite/tensorflow/lite/micro/kernels/dequantize.cc **** 
  50:../src/tensorflow_lite/tensorflow/lite/micro/kernels/dequantize.cc ****   TF_LITE_ENSURE_EQ(context, NumInputs(node), 1);
  97              		.loc 1 50 0
  98 0024 010055E3 		cmp	r5, #1
  99 0028 3500001A 		bne	.L23
 100              	.LVL6:
 101              	.LBB79:
 102              	.LBB80:
 153:C:/Renesas/e2studio_2021_01_workspace_RZA2M_ANPR/ANPR_RZA2M_EBK/src/tensorflow_lite/tensorflow/lite/kernels\kernel_util.h **** inline int NumOutputs(const TfLiteNode* node) { return node->outputs->size; }
 103              		.loc 2 153 0
 104 002c 043091E5 		ldr	r3, [r1, #4]
 105 0030 008093E5 		ldr	r8, [r3]
 106              	.LBE80:
 107              	.LBE79:
  51:../src/tensorflow_lite/tensorflow/lite/micro/kernels/dequantize.cc ****   TF_LITE_ENSURE_EQ(context, NumOutputs(node), 1);
 108              		.loc 1 51 0
 109 0034 010058E3 		cmp	r8, #1
 110 0038 1000000A 		beq	.L12
 111              	.LVL7:
 112              		.loc 1 51 0 is_stmt 0 discriminator 1
 113 003c 00E000E3 		movw	lr, #:lower16:.LC3
 114 0040 00C000E3 		movw	ip, #:lower16:.LC5
 115 0044 00E040E3 		movt	lr, #:upper16:.LC3
 116 0048 00C040E3 		movt	ip, #:upper16:.LC5
 117 004c 002000E3 		movw	r2, #:lower16:.LC1
 118 0050 001000E3 		movw	r1, #:lower16:.LC2
 119              	.LVL8:
 120 0054 0C508DE5 		str	r5, [sp, #12]
 121 0058 002040E3 		movt	r2, #:upper16:.LC1
 122 005c 08808DE5 		str	r8, [sp, #8]
 123 0060 001040E3 		movt	r1, #:upper16:.LC2
 124 0064 144090E5 		ldr	r4, [r0, #20]
 125              	.LVL9:
 126 0068 3330A0E3 		mov	r3, #51
 127 006c 00508DE8 		stm	sp, {ip, lr}
 128 0070 34FF2FE1 		blx	r4
 129              	.LVL10:
 130 0074 0500A0E1 		mov	r0, r5
 131              	.LVL11:
 132              	.L18:
  52:../src/tensorflow_lite/tensorflow/lite/micro/kernels/dequantize.cc **** 
  53:../src/tensorflow_lite/tensorflow/lite/micro/kernels/dequantize.cc ****   // TODO(b/140515557): Add cached dequant to improve hybrid model performance.
  54:../src/tensorflow_lite/tensorflow/lite/micro/kernels/dequantize.cc ****   const TfLiteTensor* input = GetInput(context, node, 0);
  55:../src/tensorflow_lite/tensorflow/lite/micro/kernels/dequantize.cc ****   TF_LITE_ENSURE(context, input != nullptr);
  56:../src/tensorflow_lite/tensorflow/lite/micro/kernels/dequantize.cc ****   TfLiteTensor* output = GetOutput(context, node, 0);
  57:../src/tensorflow_lite/tensorflow/lite/micro/kernels/dequantize.cc ****   TF_LITE_ENSURE(context, output != nullptr);
  58:../src/tensorflow_lite/tensorflow/lite/micro/kernels/dequantize.cc **** 
  59:../src/tensorflow_lite/tensorflow/lite/micro/kernels/dequantize.cc ****   TF_LITE_ENSURE(context, input->type == kTfLiteUInt8 ||
  60:../src/tensorflow_lite/tensorflow/lite/micro/kernels/dequantize.cc ****                               input->type == kTfLiteInt8 ||
  61:../src/tensorflow_lite/tensorflow/lite/micro/kernels/dequantize.cc ****                               input->type == kTfLiteInt16);
  62:../src/tensorflow_lite/tensorflow/lite/micro/kernels/dequantize.cc ****   TF_LITE_ENSURE(context, output->type == kTfLiteFloat32);
  63:../src/tensorflow_lite/tensorflow/lite/micro/kernels/dequantize.cc **** 
  64:../src/tensorflow_lite/tensorflow/lite/micro/kernels/dequantize.cc ****   if (output->type == kTfLiteInt32) {
  65:../src/tensorflow_lite/tensorflow/lite/micro/kernels/dequantize.cc ****     const double effective_output_scale =
  66:../src/tensorflow_lite/tensorflow/lite/micro/kernels/dequantize.cc ****         static_cast<double>(input->params.scale) /
  67:../src/tensorflow_lite/tensorflow/lite/micro/kernels/dequantize.cc ****         static_cast<double>(output->params.scale);
  68:../src/tensorflow_lite/tensorflow/lite/micro/kernels/dequantize.cc ****     QuantizeMultiplier(effective_output_scale, &data->output_multiplier,
  69:../src/tensorflow_lite/tensorflow/lite/micro/kernels/dequantize.cc ****                        &data->output_shift);
  70:../src/tensorflow_lite/tensorflow/lite/micro/kernels/dequantize.cc ****   }
  71:../src/tensorflow_lite/tensorflow/lite/micro/kernels/dequantize.cc **** 
  72:../src/tensorflow_lite/tensorflow/lite/micro/kernels/dequantize.cc ****   data->quantization_params.zero_point = input->params.zero_point;
  73:../src/tensorflow_lite/tensorflow/lite/micro/kernels/dequantize.cc ****   data->quantization_params.scale = static_cast<double>(input->params.scale);
  74:../src/tensorflow_lite/tensorflow/lite/micro/kernels/dequantize.cc ****   data->output_zero_point = output->params.zero_point;
  75:../src/tensorflow_lite/tensorflow/lite/micro/kernels/dequantize.cc ****   return kTfLiteOk;
  76:../src/tensorflow_lite/tensorflow/lite/micro/kernels/dequantize.cc **** }
 133              		.loc 1 76 0 is_stmt 1
 134 0078 10D08DE2 		add	sp, sp, #16
 135              		.cfi_remember_state
 136              		.cfi_def_cfa_offset 24
 137              		@ sp needed
 138 007c F081BDE8 		pop	{r4, r5, r6, r7, r8, pc}
 139              	.LVL12:
 140              	.L12:
 141              		.cfi_restore_state
  54:../src/tensorflow_lite/tensorflow/lite/micro/kernels/dequantize.cc ****   TF_LITE_ENSURE(context, input != nullptr);
 142              		.loc 1 54 0
 143 0080 0020A0E3 		mov	r2, #0
 144 0084 FEFFFFEB 		bl	_ZN6tflite8GetInputEPK13TfLiteContextPK10TfLiteNodei
 145              	.LVL13:
  55:../src/tensorflow_lite/tensorflow/lite/micro/kernels/dequantize.cc ****   TfLiteTensor* output = GetOutput(context, node, 0);
 146              		.loc 1 55 0
 147 0088 005050E2 		subs	r5, r0, #0
 148 008c 5100000A 		beq	.L24
  56:../src/tensorflow_lite/tensorflow/lite/micro/kernels/dequantize.cc ****   TF_LITE_ENSURE(context, output != nullptr);
 149              		.loc 1 56 0
 150 0090 0020A0E3 		mov	r2, #0
 151 0094 0410A0E1 		mov	r1, r4
 152 0098 0700A0E1 		mov	r0, r7
 153              	.LVL14:
 154 009c FEFFFFEB 		bl	_ZN6tflite9GetOutputEP13TfLiteContextPK10TfLiteNodei
 155              	.LVL15:
  57:../src/tensorflow_lite/tensorflow/lite/micro/kernels/dequantize.cc **** 
 156              		.loc 1 57 0
 157 00a0 002050E2 		subs	r2, r0, #0
 158 00a4 3100000A 		beq	.L25
  59:../src/tensorflow_lite/tensorflow/lite/micro/kernels/dequantize.cc ****                               input->type == kTfLiteInt8 ||
 159              		.loc 1 59 0
 160 00a8 0000D5E5 		ldrb	r0, [r5]	@ zero_extendqisi2
 161              	.LVL16:
 162 00ac FB3000E2 		and	r3, r0, #251
 163 00b0 030053E3 		cmp	r3, #3
 164 00b4 09005013 		cmpne	r0, #9
 165 00b8 0100A013 		movne	r0, #1
 166 00bc 0000A003 		moveq	r0, #0
 167 00c0 3700001A 		bne	.L26
  62:../src/tensorflow_lite/tensorflow/lite/micro/kernels/dequantize.cc **** 
 168              		.loc 1 62 0
 169 00c4 0030D2E5 		ldrb	r3, [r2]	@ zero_extendqisi2
 170 00c8 010053E3 		cmp	r3, #1
 171 00cc 1F00000A 		beq	.L19
  62:../src/tensorflow_lite/tensorflow/lite/micro/kernels/dequantize.cc **** 
 172              		.loc 1 62 0 is_stmt 0 discriminator 1
 173 00d0 003000E3 		movw	r3, #:lower16:.LC10
 174 00d4 002000E3 		movw	r2, #:lower16:.LC1
 175              	.LVL17:
 176 00d8 003040E3 		movt	r3, #:upper16:.LC10
 177 00dc 001000E3 		movw	r1, #:lower16:.LC6
 178 00e0 00308DE5 		str	r3, [sp]
 179 00e4 0700A0E1 		mov	r0, r7
 180 00e8 002040E3 		movt	r2, #:upper16:.LC1
 181 00ec 001040E3 		movt	r1, #:upper16:.LC6
 182 00f0 144097E5 		ldr	r4, [r7, #20]
 183              	.LVL18:
 184 00f4 3E30A0E3 		mov	r3, #62
 185 00f8 34FF2FE1 		blx	r4
 186              	.LVL19:
 187 00fc 0800A0E1 		mov	r0, r8
 188 0100 DCFFFFEA 		b	.L18
 189              	.LVL20:
 190              	.L23:
  50:../src/tensorflow_lite/tensorflow/lite/micro/kernels/dequantize.cc ****   TF_LITE_ENSURE_EQ(context, NumOutputs(node), 1);
 191              		.loc 1 50 0 is_stmt 1 discriminator 1
 192 0104 00C000E3 		movw	ip, #:lower16:.LC3
 193 0108 003000E3 		movw	r3, #:lower16:.LC4
 194 010c 00C040E3 		movt	ip, #:upper16:.LC3
 195 0110 0140A0E3 		mov	r4, #1
 196 0114 003040E3 		movt	r3, #:upper16:.LC4
 197 0118 002000E3 		movw	r2, #:lower16:.LC1
 198 011c 001000E3 		movw	r1, #:lower16:.LC2
 199              	.LVL21:
 200 0120 08508DE5 		str	r5, [sp, #8]
 201 0124 002040E3 		movt	r2, #:upper16:.LC1
 202 0128 145090E5 		ldr	r5, [r0, #20]
 203 012c 001040E3 		movt	r1, #:upper16:.LC2
 204 0130 00308DE5 		str	r3, [sp]
 205 0134 04C08DE5 		str	ip, [sp, #4]
 206 0138 3230A0E3 		mov	r3, #50
 207 013c 0C408DE5 		str	r4, [sp, #12]
 208 0140 35FF2FE1 		blx	r5
 209              	.LVL22:
 210 0144 0400A0E1 		mov	r0, r4
 211              		.loc 1 76 0 discriminator 1
 212 0148 10D08DE2 		add	sp, sp, #16
 213              		.cfi_remember_state
 214              		.cfi_def_cfa_offset 24
 215              		@ sp needed
 216 014c F081BDE8 		pop	{r4, r5, r6, r7, r8, pc}
 217              	.LVL23:
 218              	.L19:
 219              		.cfi_restore_state
  73:../src/tensorflow_lite/tensorflow/lite/micro/kernels/dequantize.cc ****   data->output_zero_point = output->params.zero_point;
 220              		.loc 1 73 0
 221 0150 037AD5ED 		vldr.32	s15, [r5, #12]
  74:../src/tensorflow_lite/tensorflow/lite/micro/kernels/dequantize.cc ****   return kTfLiteOk;
 222              		.loc 1 74 0
 223 0154 102092E5 		ldr	r2, [r2, #16]
 224              	.LVL24:
  72:../src/tensorflow_lite/tensorflow/lite/micro/kernels/dequantize.cc ****   data->quantization_params.scale = static_cast<double>(input->params.scale);
 225              		.loc 1 72 0
 226 0158 103095E5 		ldr	r3, [r5, #16]
  73:../src/tensorflow_lite/tensorflow/lite/micro/kernels/dequantize.cc ****   data->output_zero_point = output->params.zero_point;
 227              		.loc 1 73 0
 228 015c E70AF7EE 		vcvt.f64.f32	d16, s15
  74:../src/tensorflow_lite/tensorflow/lite/micro/kernels/dequantize.cc ****   return kTfLiteOk;
 229              		.loc 1 74 0
 230 0160 182086E5 		str	r2, [r6, #24]
  72:../src/tensorflow_lite/tensorflow/lite/micro/kernels/dequantize.cc ****   data->quantization_params.scale = static_cast<double>(input->params.scale);
 231              		.loc 1 72 0
 232 0164 083086E5 		str	r3, [r6, #8]
  73:../src/tensorflow_lite/tensorflow/lite/micro/kernels/dequantize.cc ****   data->output_zero_point = output->params.zero_point;
 233              		.loc 1 73 0
 234 0168 000BC6ED 		vstr.64	d16, [r6]
  75:../src/tensorflow_lite/tensorflow/lite/micro/kernels/dequantize.cc **** }
 235              		.loc 1 75 0
 236 016c C1FFFFEA 		b	.L18
 237              	.LVL25:
 238              	.L25:
  57:../src/tensorflow_lite/tensorflow/lite/micro/kernels/dequantize.cc **** 
 239              		.loc 1 57 0 discriminator 1
 240 0170 003000E3 		movw	r3, #:lower16:.LC8
 241 0174 002000E3 		movw	r2, #:lower16:.LC1
 242 0178 003040E3 		movt	r3, #:upper16:.LC8
 243 017c 001000E3 		movw	r1, #:lower16:.LC6
 244 0180 00308DE5 		str	r3, [sp]
 245 0184 0700A0E1 		mov	r0, r7
 246              	.LVL26:
 247 0188 002040E3 		movt	r2, #:upper16:.LC1
 248 018c 001040E3 		movt	r1, #:upper16:.LC6
 249 0190 144097E5 		ldr	r4, [r7, #20]
 250              	.LVL27:
 251 0194 3930A0E3 		mov	r3, #57
 252 0198 34FF2FE1 		blx	r4
 253              	.LVL28:
 254 019c 0800A0E1 		mov	r0, r8
 255 01a0 B4FFFFEA 		b	.L18
 256              	.LVL29:
 257              	.L26:
  59:../src/tensorflow_lite/tensorflow/lite/micro/kernels/dequantize.cc ****                               input->type == kTfLiteInt8 ||
 258              		.loc 1 59 0 discriminator 2
 259 01a4 003000E3 		movw	r3, #:lower16:.LC9
 260 01a8 002000E3 		movw	r2, #:lower16:.LC1
 261              	.LVL30:
 262 01ac 003040E3 		movt	r3, #:upper16:.LC9
 263 01b0 001000E3 		movw	r1, #:lower16:.LC6
 264 01b4 00308DE5 		str	r3, [sp]
 265 01b8 0700A0E1 		mov	r0, r7
 266 01bc 002040E3 		movt	r2, #:upper16:.LC1
 267 01c0 001040E3 		movt	r1, #:upper16:.LC6
 268 01c4 144097E5 		ldr	r4, [r7, #20]
 269              	.LVL31:
 270 01c8 3D30A0E3 		mov	r3, #61
 271 01cc 34FF2FE1 		blx	r4
 272              	.LVL32:
 273 01d0 0800A0E1 		mov	r0, r8
 274 01d4 A7FFFFEA 		b	.L18
 275              	.LVL33:
 276              	.L24:
  55:../src/tensorflow_lite/tensorflow/lite/micro/kernels/dequantize.cc ****   TfLiteTensor* output = GetOutput(context, node, 0);
 277              		.loc 1 55 0 discriminator 1
 278 01d8 003000E3 		movw	r3, #:lower16:.LC7
 279 01dc 002000E3 		movw	r2, #:lower16:.LC1
 280 01e0 003040E3 		movt	r3, #:upper16:.LC7
 281 01e4 001000E3 		movw	r1, #:lower16:.LC6
 282 01e8 00308DE5 		str	r3, [sp]
 283 01ec 0700A0E1 		mov	r0, r7
 284              	.LVL34:
 285 01f0 002040E3 		movt	r2, #:upper16:.LC1
 286 01f4 001040E3 		movt	r1, #:upper16:.LC6
 287 01f8 144097E5 		ldr	r4, [r7, #20]
 288              	.LVL35:
 289 01fc 3730A0E3 		mov	r3, #55
 290 0200 34FF2FE1 		blx	r4
 291              	.LVL36:
 292 0204 0800A0E1 		mov	r0, r8
 293 0208 9AFFFFEA 		b	.L18
 294              	.LVL37:
 295              	.L22:
  47:../src/tensorflow_lite/tensorflow/lite/micro/kernels/dequantize.cc ****   OpData* data = static_cast<OpData*>(node->user_data);
 296              		.loc 1 47 0 discriminator 1
 297 020c FEFFFFEB 		bl	abort
 298              	.LVL38:
 299              		.cfi_endproc
 300              	.LFE4497:
 301              		.fnend
 303              		.section	.text._ZN6tflite3ops5micro10dequantize4EvalEP13TfLiteContextP10TfLiteNode,"ax",%progbits
 304              		.align	2
 305              		.global	_ZN6tflite3ops5micro10dequantize4EvalEP13TfLiteContextP10TfLiteNode
 306              		.syntax unified
 307              		.arm
 308              		.fpu neon
 310              	_ZN6tflite3ops5micro10dequantize4EvalEP13TfLiteContextP10TfLiteNode:
 311              		.fnstart
 312              	.LFB4498:
  77:../src/tensorflow_lite/tensorflow/lite/micro/kernels/dequantize.cc **** 
  78:../src/tensorflow_lite/tensorflow/lite/micro/kernels/dequantize.cc **** TfLiteStatus Eval(TfLiteContext* context, TfLiteNode* node) {
 313              		.loc 1 78 0
 314              		.cfi_startproc
 315              		.cfi_personality 0,__gxx_personality_v0
 316              		.cfi_lsda 0,.LLSDA4498
 317              		@ args = 0, pretend = 0, frame = 48
 318              		@ frame_needed = 0, uses_anonymous_args = 0
 319              	.LVL39:
 320 0000 F0472DE9 		push	{r4, r5, r6, r7, r8, r9, r10, lr}
 321              		.save {r4, r5, r6, r7, r8, r9, r10, lr}
 322              		.cfi_def_cfa_offset 32
 323              		.cfi_offset 4, -32
 324              		.cfi_offset 5, -28
 325              		.cfi_offset 6, -24
 326              		.cfi_offset 7, -20
 327              		.cfi_offset 8, -16
 328              		.cfi_offset 9, -12
 329              		.cfi_offset 10, -8
 330              		.cfi_offset 14, -4
 331              		.pad #48
 332 0004 30D04DE2 		sub	sp, sp, #48
 333              		.cfi_def_cfa_offset 80
  79:../src/tensorflow_lite/tensorflow/lite/micro/kernels/dequantize.cc ****   TFLITE_DCHECK(node->user_data != nullptr);
 334              		.loc 1 79 0
 335 0008 107091E5 		ldr	r7, [r1, #16]
 336 000c 000057E3 		cmp	r7, #0
 337 0010 7603000A 		beq	.L29
 338              	.LBB171:
 339              	.LBB172:
 340              	.LBB173:
 341              		.file 3 "C:/Renesas/e2studio_2021_01_workspace_RZA2M_ANPR/ANPR_RZA2M_EBK/src/tensorflow_lite/tenso
   1:C:/Renesas/e2studio_2021_01_workspace_RZA2M_ANPR/ANPR_RZA2M_EBK/src/tensorflow_lite/tensorflow/lite/micro/kernels\kernel_util.h **** /* Copyright 2020 The TensorFlow Authors. All Rights Reserved.
   2:C:/Renesas/e2studio_2021_01_workspace_RZA2M_ANPR/ANPR_RZA2M_EBK/src/tensorflow_lite/tensorflow/lite/micro/kernels\kernel_util.h **** 
   3:C:/Renesas/e2studio_2021_01_workspace_RZA2M_ANPR/ANPR_RZA2M_EBK/src/tensorflow_lite/tensorflow/lite/micro/kernels\kernel_util.h **** Licensed under the Apache License, Version 2.0 (the "License");
   4:C:/Renesas/e2studio_2021_01_workspace_RZA2M_ANPR/ANPR_RZA2M_EBK/src/tensorflow_lite/tensorflow/lite/micro/kernels\kernel_util.h **** you may not use this file except in compliance with the License.
   5:C:/Renesas/e2studio_2021_01_workspace_RZA2M_ANPR/ANPR_RZA2M_EBK/src/tensorflow_lite/tensorflow/lite/micro/kernels\kernel_util.h **** You may obtain a copy of the License at
   6:C:/Renesas/e2studio_2021_01_workspace_RZA2M_ANPR/ANPR_RZA2M_EBK/src/tensorflow_lite/tensorflow/lite/micro/kernels\kernel_util.h **** 
   7:C:/Renesas/e2studio_2021_01_workspace_RZA2M_ANPR/ANPR_RZA2M_EBK/src/tensorflow_lite/tensorflow/lite/micro/kernels\kernel_util.h ****     http://www.apache.org/licenses/LICENSE-2.0
   8:C:/Renesas/e2studio_2021_01_workspace_RZA2M_ANPR/ANPR_RZA2M_EBK/src/tensorflow_lite/tensorflow/lite/micro/kernels\kernel_util.h **** 
   9:C:/Renesas/e2studio_2021_01_workspace_RZA2M_ANPR/ANPR_RZA2M_EBK/src/tensorflow_lite/tensorflow/lite/micro/kernels\kernel_util.h **** Unless required by applicable law or agreed to in writing, software
  10:C:/Renesas/e2studio_2021_01_workspace_RZA2M_ANPR/ANPR_RZA2M_EBK/src/tensorflow_lite/tensorflow/lite/micro/kernels\kernel_util.h **** distributed under the License is distributed on an "AS IS" BASIS,
  11:C:/Renesas/e2studio_2021_01_workspace_RZA2M_ANPR/ANPR_RZA2M_EBK/src/tensorflow_lite/tensorflow/lite/micro/kernels\kernel_util.h **** WITHOUT WARRANTIES OR CONDITIONS OF ANY KIND, either express or implied.
  12:C:/Renesas/e2studio_2021_01_workspace_RZA2M_ANPR/ANPR_RZA2M_EBK/src/tensorflow_lite/tensorflow/lite/micro/kernels\kernel_util.h **** See the License for the specific language governing permissions and
  13:C:/Renesas/e2studio_2021_01_workspace_RZA2M_ANPR/ANPR_RZA2M_EBK/src/tensorflow_lite/tensorflow/lite/micro/kernels\kernel_util.h **** limitations under the License.
  14:C:/Renesas/e2studio_2021_01_workspace_RZA2M_ANPR/ANPR_RZA2M_EBK/src/tensorflow_lite/tensorflow/lite/micro/kernels\kernel_util.h **** ==============================================================================*/
  15:C:/Renesas/e2studio_2021_01_workspace_RZA2M_ANPR/ANPR_RZA2M_EBK/src/tensorflow_lite/tensorflow/lite/micro/kernels\kernel_util.h **** 
  16:C:/Renesas/e2studio_2021_01_workspace_RZA2M_ANPR/ANPR_RZA2M_EBK/src/tensorflow_lite/tensorflow/lite/micro/kernels\kernel_util.h **** #ifndef TENSORFLOW_LITE_MICRO_KERNELS_KERNEL_UTIL_H_
  17:C:/Renesas/e2studio_2021_01_workspace_RZA2M_ANPR/ANPR_RZA2M_EBK/src/tensorflow_lite/tensorflow/lite/micro/kernels\kernel_util.h **** #define TENSORFLOW_LITE_MICRO_KERNELS_KERNEL_UTIL_H_
  18:C:/Renesas/e2studio_2021_01_workspace_RZA2M_ANPR/ANPR_RZA2M_EBK/src/tensorflow_lite/tensorflow/lite/micro/kernels\kernel_util.h **** 
  19:C:/Renesas/e2studio_2021_01_workspace_RZA2M_ANPR/ANPR_RZA2M_EBK/src/tensorflow_lite/tensorflow/lite/micro/kernels\kernel_util.h **** #include <cstdint>
  20:C:/Renesas/e2studio_2021_01_workspace_RZA2M_ANPR/ANPR_RZA2M_EBK/src/tensorflow_lite/tensorflow/lite/micro/kernels\kernel_util.h **** 
  21:C:/Renesas/e2studio_2021_01_workspace_RZA2M_ANPR/ANPR_RZA2M_EBK/src/tensorflow_lite/tensorflow/lite/micro/kernels\kernel_util.h **** #include "tensorflow/lite/c/builtin_op_data.h"
  22:C:/Renesas/e2studio_2021_01_workspace_RZA2M_ANPR/ANPR_RZA2M_EBK/src/tensorflow_lite/tensorflow/lite/micro/kernels\kernel_util.h **** #include "tensorflow/lite/c/common.h"
  23:C:/Renesas/e2studio_2021_01_workspace_RZA2M_ANPR/ANPR_RZA2M_EBK/src/tensorflow_lite/tensorflow/lite/micro/kernels\kernel_util.h **** #include "tensorflow/lite/kernels/internal/compatibility.h"
  24:C:/Renesas/e2studio_2021_01_workspace_RZA2M_ANPR/ANPR_RZA2M_EBK/src/tensorflow_lite/tensorflow/lite/micro/kernels\kernel_util.h **** #include "tensorflow/lite/kernels/internal/types.h"
  25:C:/Renesas/e2studio_2021_01_workspace_RZA2M_ANPR/ANPR_RZA2M_EBK/src/tensorflow_lite/tensorflow/lite/micro/kernels\kernel_util.h **** 
  26:C:/Renesas/e2studio_2021_01_workspace_RZA2M_ANPR/ANPR_RZA2M_EBK/src/tensorflow_lite/tensorflow/lite/micro/kernels\kernel_util.h **** namespace tflite {
  27:C:/Renesas/e2studio_2021_01_workspace_RZA2M_ANPR/ANPR_RZA2M_EBK/src/tensorflow_lite/tensorflow/lite/micro/kernels\kernel_util.h **** namespace micro {
  28:C:/Renesas/e2studio_2021_01_workspace_RZA2M_ANPR/ANPR_RZA2M_EBK/src/tensorflow_lite/tensorflow/lite/micro/kernels\kernel_util.h **** 
  29:C:/Renesas/e2studio_2021_01_workspace_RZA2M_ANPR/ANPR_RZA2M_EBK/src/tensorflow_lite/tensorflow/lite/micro/kernels\kernel_util.h **** // Returns a mutable tensor for a given input index. is_variable must be checked
  30:C:/Renesas/e2studio_2021_01_workspace_RZA2M_ANPR/ANPR_RZA2M_EBK/src/tensorflow_lite/tensorflow/lite/micro/kernels\kernel_util.h **** // during prepare when the full TfLiteTensor is available.
  31:C:/Renesas/e2studio_2021_01_workspace_RZA2M_ANPR/ANPR_RZA2M_EBK/src/tensorflow_lite/tensorflow/lite/micro/kernels\kernel_util.h **** inline TfLiteEvalTensor* GetMutableEvalInput(const TfLiteContext* context,
  32:C:/Renesas/e2studio_2021_01_workspace_RZA2M_ANPR/ANPR_RZA2M_EBK/src/tensorflow_lite/tensorflow/lite/micro/kernels\kernel_util.h ****                                              const TfLiteNode* node,
  33:C:/Renesas/e2studio_2021_01_workspace_RZA2M_ANPR/ANPR_RZA2M_EBK/src/tensorflow_lite/tensorflow/lite/micro/kernels\kernel_util.h ****                                              int index) {
  34:C:/Renesas/e2studio_2021_01_workspace_RZA2M_ANPR/ANPR_RZA2M_EBK/src/tensorflow_lite/tensorflow/lite/micro/kernels\kernel_util.h ****   TFLITE_DCHECK(context != nullptr);
 342              		.loc 3 34 0
 343 0014 000050E3 		cmp	r0, #0
 344 0018 0040A0E1 		mov	r4, r0
 345              	.LVL40:
 346 001c 7303000A 		beq	.L29
  35:C:/Renesas/e2studio_2021_01_workspace_RZA2M_ANPR/ANPR_RZA2M_EBK/src/tensorflow_lite/tensorflow/lite/micro/kernels\kernel_util.h ****   TFLITE_DCHECK(node != nullptr);
  36:C:/Renesas/e2studio_2021_01_workspace_RZA2M_ANPR/ANPR_RZA2M_EBK/src/tensorflow_lite/tensorflow/lite/micro/kernels\kernel_util.h ****   return context->GetEvalTensor(context, node->inputs->data[index]);
 347              		.loc 3 36 0
 348 0020 002091E5 		ldr	r2, [r1]
 349 0024 0150A0E1 		mov	r5, r1
 350 0028 543090E5 		ldr	r3, [r0, #84]
 351 002c 041092E5 		ldr	r1, [r2, #4]
 352              	.LVL41:
 353              	.LEHB0:
 354 0030 33FF2FE1 		blx	r3
 355              	.LVL42:
 356              	.LBE173:
 357              	.LBE172:
 358              	.LBE171:
 359              	.LBB176:
 360              	.LBB177:
  37:C:/Renesas/e2studio_2021_01_workspace_RZA2M_ANPR/ANPR_RZA2M_EBK/src/tensorflow_lite/tensorflow/lite/micro/kernels\kernel_util.h **** }
  38:C:/Renesas/e2studio_2021_01_workspace_RZA2M_ANPR/ANPR_RZA2M_EBK/src/tensorflow_lite/tensorflow/lite/micro/kernels\kernel_util.h **** 
  39:C:/Renesas/e2studio_2021_01_workspace_RZA2M_ANPR/ANPR_RZA2M_EBK/src/tensorflow_lite/tensorflow/lite/micro/kernels\kernel_util.h **** // Returns the TfLiteEvalTensor struct for a given input index in a node.
  40:C:/Renesas/e2studio_2021_01_workspace_RZA2M_ANPR/ANPR_RZA2M_EBK/src/tensorflow_lite/tensorflow/lite/micro/kernels\kernel_util.h **** inline const TfLiteEvalTensor* GetEvalInput(const TfLiteContext* context,
  41:C:/Renesas/e2studio_2021_01_workspace_RZA2M_ANPR/ANPR_RZA2M_EBK/src/tensorflow_lite/tensorflow/lite/micro/kernels\kernel_util.h ****                                             const TfLiteNode* node, int index) {
  42:C:/Renesas/e2studio_2021_01_workspace_RZA2M_ANPR/ANPR_RZA2M_EBK/src/tensorflow_lite/tensorflow/lite/micro/kernels\kernel_util.h ****   return GetMutableEvalInput(context, node, index);
  43:C:/Renesas/e2studio_2021_01_workspace_RZA2M_ANPR/ANPR_RZA2M_EBK/src/tensorflow_lite/tensorflow/lite/micro/kernels\kernel_util.h **** }
  44:C:/Renesas/e2studio_2021_01_workspace_RZA2M_ANPR/ANPR_RZA2M_EBK/src/tensorflow_lite/tensorflow/lite/micro/kernels\kernel_util.h **** 
  45:C:/Renesas/e2studio_2021_01_workspace_RZA2M_ANPR/ANPR_RZA2M_EBK/src/tensorflow_lite/tensorflow/lite/micro/kernels\kernel_util.h **** // Returns the TfLiteEvalTensor struct for a given output index in a node.
  46:C:/Renesas/e2studio_2021_01_workspace_RZA2M_ANPR/ANPR_RZA2M_EBK/src/tensorflow_lite/tensorflow/lite/micro/kernels\kernel_util.h **** inline TfLiteEvalTensor* GetEvalOutput(const TfLiteContext* context,
  47:C:/Renesas/e2studio_2021_01_workspace_RZA2M_ANPR/ANPR_RZA2M_EBK/src/tensorflow_lite/tensorflow/lite/micro/kernels\kernel_util.h ****                                        const TfLiteNode* node, int index) {
  48:C:/Renesas/e2studio_2021_01_workspace_RZA2M_ANPR/ANPR_RZA2M_EBK/src/tensorflow_lite/tensorflow/lite/micro/kernels\kernel_util.h ****   TFLITE_DCHECK(context != nullptr);
  49:C:/Renesas/e2studio_2021_01_workspace_RZA2M_ANPR/ANPR_RZA2M_EBK/src/tensorflow_lite/tensorflow/lite/micro/kernels\kernel_util.h ****   TFLITE_DCHECK(node != nullptr);
  50:C:/Renesas/e2studio_2021_01_workspace_RZA2M_ANPR/ANPR_RZA2M_EBK/src/tensorflow_lite/tensorflow/lite/micro/kernels\kernel_util.h ****   return context->GetEvalTensor(context, node->outputs->data[index]);
 361              		.loc 3 50 0
 362 0034 042095E5 		ldr	r2, [r5, #4]
 363              	.LBE177:
 364              	.LBE176:
 365              	.LBB180:
 366              	.LBB175:
 367              	.LBB174:
  36:C:/Renesas/e2studio_2021_01_workspace_RZA2M_ANPR/ANPR_RZA2M_EBK/src/tensorflow_lite/tensorflow/lite/micro/kernels\kernel_util.h **** }
 368              		.loc 3 36 0
 369 0038 0080A0E1 		mov	r8, r0
 370              	.LVL43:
 371              	.LBE174:
 372              	.LBE175:
 373              	.LBE180:
 374              	.LBB181:
 375              	.LBB178:
 376              		.loc 3 50 0
 377 003c 543094E5 		ldr	r3, [r4, #84]
 378 0040 0400A0E1 		mov	r0, r4
 379 0044 041092E5 		ldr	r1, [r2, #4]
 380 0048 33FF2FE1 		blx	r3
 381              	.LVL44:
 382              	.LBE178:
 383              	.LBE181:
  80:../src/tensorflow_lite/tensorflow/lite/micro/kernels/dequantize.cc ****   OpData* data = static_cast<OpData*>(node->user_data);
  81:../src/tensorflow_lite/tensorflow/lite/micro/kernels/dequantize.cc **** 
  82:../src/tensorflow_lite/tensorflow/lite/micro/kernels/dequantize.cc ****   const TfLiteEvalTensor* input = tflite::micro::GetEvalInput(context, node, 0);
  83:../src/tensorflow_lite/tensorflow/lite/micro/kernels/dequantize.cc ****   TfLiteEvalTensor* output = tflite::micro::GetEvalOutput(context, node, 0);
  84:../src/tensorflow_lite/tensorflow/lite/micro/kernels/dequantize.cc **** 
  85:../src/tensorflow_lite/tensorflow/lite/micro/kernels/dequantize.cc ****   if (output->type == kTfLiteFloat32) {
 384              		.loc 1 85 0
 385 004c 0850D0E5 		ldrb	r5, [r0, #8]	@ zero_extendqisi2
 386              	.LVL45:
 387              	.LBB182:
 388              	.LBB179:
 389              		.loc 3 50 0
 390 0050 0060A0E1 		mov	r6, r0
 391              	.LVL46:
 392              	.LBE179:
 393              	.LBE182:
  86:../src/tensorflow_lite/tensorflow/lite/micro/kernels/dequantize.cc ****     switch (input->type) {
 394              		.loc 1 86 0
 395 0054 0800D8E5 		ldrb	r0, [r8, #8]	@ zero_extendqisi2
  85:../src/tensorflow_lite/tensorflow/lite/micro/kernels/dequantize.cc ****     switch (input->type) {
 396              		.loc 1 85 0
 397 0058 010055E3 		cmp	r5, #1
 398 005c 0D00000A 		beq	.L300
  87:../src/tensorflow_lite/tensorflow/lite/micro/kernels/dequantize.cc ****       case kTfLiteUInt8:
  88:../src/tensorflow_lite/tensorflow/lite/micro/kernels/dequantize.cc ****         reference_ops::Dequantize(data->quantization_params,
  89:../src/tensorflow_lite/tensorflow/lite/micro/kernels/dequantize.cc ****                                   tflite::micro::GetTensorShape(input),
  90:../src/tensorflow_lite/tensorflow/lite/micro/kernels/dequantize.cc ****                                   tflite::micro::GetTensorData<uint8_t>(input),
  91:../src/tensorflow_lite/tensorflow/lite/micro/kernels/dequantize.cc ****                                   tflite::micro::GetTensorShape(output),
  92:../src/tensorflow_lite/tensorflow/lite/micro/kernels/dequantize.cc ****                                   tflite::micro::GetTensorData<float>(output));
  93:../src/tensorflow_lite/tensorflow/lite/micro/kernels/dequantize.cc ****         break;
  94:../src/tensorflow_lite/tensorflow/lite/micro/kernels/dequantize.cc ****       case kTfLiteInt8:
  95:../src/tensorflow_lite/tensorflow/lite/micro/kernels/dequantize.cc ****         reference_ops::Dequantize(data->quantization_params,
  96:../src/tensorflow_lite/tensorflow/lite/micro/kernels/dequantize.cc ****                                   tflite::micro::GetTensorShape(input),
  97:../src/tensorflow_lite/tensorflow/lite/micro/kernels/dequantize.cc ****                                   tflite::micro::GetTensorData<int8_t>(input),
  98:../src/tensorflow_lite/tensorflow/lite/micro/kernels/dequantize.cc ****                                   tflite::micro::GetTensorShape(output),
  99:../src/tensorflow_lite/tensorflow/lite/micro/kernels/dequantize.cc ****                                   tflite::micro::GetTensorData<float>(output));
 100:../src/tensorflow_lite/tensorflow/lite/micro/kernels/dequantize.cc ****         break;
 101:../src/tensorflow_lite/tensorflow/lite/micro/kernels/dequantize.cc ****       case kTfLiteInt16:
 102:../src/tensorflow_lite/tensorflow/lite/micro/kernels/dequantize.cc ****         reference_ops::Dequantize(data->quantization_params,
 103:../src/tensorflow_lite/tensorflow/lite/micro/kernels/dequantize.cc ****                                   tflite::micro::GetTensorShape(input),
 104:../src/tensorflow_lite/tensorflow/lite/micro/kernels/dequantize.cc ****                                   tflite::micro::GetTensorData<int16_t>(input),
 105:../src/tensorflow_lite/tensorflow/lite/micro/kernels/dequantize.cc ****                                   tflite::micro::GetTensorShape(output),
 106:../src/tensorflow_lite/tensorflow/lite/micro/kernels/dequantize.cc ****                                   tflite::micro::GetTensorData<float>(output));
 107:../src/tensorflow_lite/tensorflow/lite/micro/kernels/dequantize.cc ****         break;
 108:../src/tensorflow_lite/tensorflow/lite/micro/kernels/dequantize.cc ****       default:
 109:../src/tensorflow_lite/tensorflow/lite/micro/kernels/dequantize.cc ****         TF_LITE_KERNEL_LOG(context, "Input %s, output %s not supported.",
 110:../src/tensorflow_lite/tensorflow/lite/micro/kernels/dequantize.cc ****                            TfLiteTypeGetName(input->type),
 111:../src/tensorflow_lite/tensorflow/lite/micro/kernels/dequantize.cc ****                            TfLiteTypeGetName(output->type));
 112:../src/tensorflow_lite/tensorflow/lite/micro/kernels/dequantize.cc ****         return kTfLiteError;
 113:../src/tensorflow_lite/tensorflow/lite/micro/kernels/dequantize.cc ****     }
 114:../src/tensorflow_lite/tensorflow/lite/micro/kernels/dequantize.cc ****   } else {
 115:../src/tensorflow_lite/tensorflow/lite/micro/kernels/dequantize.cc ****     TF_LITE_KERNEL_LOG(context, "Input %s, output %s not supported.",
 399              		.loc 1 115 0
 400 0060 145094E5 		ldr	r5, [r4, #20]
 401 0064 FEFFFFEB 		bl	TfLiteTypeGetName
 402              	.LVL47:
 403 0068 0070A0E1 		mov	r7, r0
 404              	.LVL48:
 405 006c 0800D6E5 		ldrb	r0, [r6, #8]	@ zero_extendqisi2
 406 0070 FEFFFFEB 		bl	TfLiteTypeGetName
 407              	.LVL49:
 408 0074 001000E3 		movw	r1, #:lower16:.LC11
 409 0078 0030A0E1 		mov	r3, r0
 410 007c 0720A0E1 		mov	r2, r7
 411 0080 0400A0E1 		mov	r0, r4
 412 0084 001040E3 		movt	r1, #:upper16:.LC11
 413 0088 35FF2FE1 		blx	r5
 414              	.LVL50:
 116:../src/tensorflow_lite/tensorflow/lite/micro/kernels/dequantize.cc ****                        TfLiteTypeGetName(input->type),
 117:../src/tensorflow_lite/tensorflow/lite/micro/kernels/dequantize.cc ****                        TfLiteTypeGetName(output->type));
 118:../src/tensorflow_lite/tensorflow/lite/micro/kernels/dequantize.cc ****     return kTfLiteError;
 415              		.loc 1 118 0
 416 008c 0100A0E3 		mov	r0, #1
 119:../src/tensorflow_lite/tensorflow/lite/micro/kernels/dequantize.cc ****   }
 120:../src/tensorflow_lite/tensorflow/lite/micro/kernels/dequantize.cc **** 
 121:../src/tensorflow_lite/tensorflow/lite/micro/kernels/dequantize.cc ****   return kTfLiteOk;
 122:../src/tensorflow_lite/tensorflow/lite/micro/kernels/dequantize.cc **** }
 417              		.loc 1 122 0
 418 0090 30D08DE2 		add	sp, sp, #48
 419              		.cfi_remember_state
 420              		.cfi_def_cfa_offset 32
 421              		@ sp needed
 422 0094 F087BDE8 		pop	{r4, r5, r6, r7, r8, r9, r10, pc}
 423              	.LVL51:
 424              	.L300:
 425              		.cfi_restore_state
  86:../src/tensorflow_lite/tensorflow/lite/micro/kernels/dequantize.cc ****       case kTfLiteUInt8:
 426              		.loc 1 86 0
 427 0098 070050E3 		cmp	r0, #7
 428 009c DB01000A 		beq	.L32
 429 00a0 090050E3 		cmp	r0, #9
 430 00a4 FB00000A 		beq	.L33
 431 00a8 030050E3 		cmp	r0, #3
 432 00ac 0D00000A 		beq	.L301
 109:../src/tensorflow_lite/tensorflow/lite/micro/kernels/dequantize.cc ****                            TfLiteTypeGetName(input->type),
 433              		.loc 1 109 0
 434 00b0 147094E5 		ldr	r7, [r4, #20]
 435              	.LVL52:
 436 00b4 FEFFFFEB 		bl	TfLiteTypeGetName
 437              	.LVL53:
 438 00b8 0080A0E1 		mov	r8, r0
 439 00bc 0800D6E5 		ldrb	r0, [r6, #8]	@ zero_extendqisi2
 440 00c0 FEFFFFEB 		bl	TfLiteTypeGetName
 441              	.LVL54:
 442 00c4 001000E3 		movw	r1, #:lower16:.LC11
 443 00c8 0030A0E1 		mov	r3, r0
 444 00cc 0820A0E1 		mov	r2, r8
 445 00d0 0400A0E1 		mov	r0, r4
 446 00d4 001040E3 		movt	r1, #:upper16:.LC11
 447 00d8 37FF2FE1 		blx	r7
 448              	.LVL55:
 112:../src/tensorflow_lite/tensorflow/lite/micro/kernels/dequantize.cc ****     }
 449              		.loc 1 112 0
 450 00dc 0500A0E1 		mov	r0, r5
 451              		.loc 1 122 0
 452 00e0 30D08DE2 		add	sp, sp, #48
 453              		.cfi_remember_state
 454              		.cfi_def_cfa_offset 32
 455              		@ sp needed
 456 00e4 F087BDE8 		pop	{r4, r5, r6, r7, r8, r9, r10, pc}
 457              	.LVL56:
 458              	.L301:
 459              		.cfi_restore_state
  89:../src/tensorflow_lite/tensorflow/lite/micro/kernels/dequantize.cc ****                                   tflite::micro::GetTensorData<uint8_t>(input),
 460              		.loc 1 89 0
 461 00e8 0810A0E1 		mov	r1, r8
 462 00ec 0D00A0E1 		mov	r0, sp
 463 00f0 FEFFFFEB 		bl	_ZN6tflite5micro14GetTensorShapeEPK16TfLiteEvalTensor
 464              	.LVL57:
 465              	.LEHE0:
  91:../src/tensorflow_lite/tensorflow/lite/micro/kernels/dequantize.cc ****                                   tflite::micro::GetTensorData<float>(output));
 466              		.loc 1 91 0
 467 00f4 0610A0E1 		mov	r1, r6
 468 00f8 18008DE2 		add	r0, sp, #24
 469              	.LBB183:
 470              	.LBB184:
  51:C:/Renesas/e2studio_2021_01_workspace_RZA2M_ANPR/ANPR_RZA2M_EBK/src/tensorflow_lite/tensorflow/lite/micro/kernels\kernel_util.h **** }
  52:C:/Renesas/e2studio_2021_01_workspace_RZA2M_ANPR/ANPR_RZA2M_EBK/src/tensorflow_lite/tensorflow/lite/micro/kernels\kernel_util.h **** 
  53:C:/Renesas/e2studio_2021_01_workspace_RZA2M_ANPR/ANPR_RZA2M_EBK/src/tensorflow_lite/tensorflow/lite/micro/kernels\kernel_util.h **** // Returns data for a TfLiteEvalTensor struct.
  54:C:/Renesas/e2studio_2021_01_workspace_RZA2M_ANPR/ANPR_RZA2M_EBK/src/tensorflow_lite/tensorflow/lite/micro/kernels\kernel_util.h **** template <typename T>
  55:C:/Renesas/e2studio_2021_01_workspace_RZA2M_ANPR/ANPR_RZA2M_EBK/src/tensorflow_lite/tensorflow/lite/micro/kernels\kernel_util.h **** T* GetTensorData(TfLiteEvalTensor* tensor) {
  56:C:/Renesas/e2studio_2021_01_workspace_RZA2M_ANPR/ANPR_RZA2M_EBK/src/tensorflow_lite/tensorflow/lite/micro/kernels\kernel_util.h ****   return tensor != nullptr ? reinterpret_cast<T*>(tensor->data.raw) : nullptr;
  57:C:/Renesas/e2studio_2021_01_workspace_RZA2M_ANPR/ANPR_RZA2M_EBK/src/tensorflow_lite/tensorflow/lite/micro/kernels\kernel_util.h **** }
  58:C:/Renesas/e2studio_2021_01_workspace_RZA2M_ANPR/ANPR_RZA2M_EBK/src/tensorflow_lite/tensorflow/lite/micro/kernels\kernel_util.h **** 
  59:C:/Renesas/e2studio_2021_01_workspace_RZA2M_ANPR/ANPR_RZA2M_EBK/src/tensorflow_lite/tensorflow/lite/micro/kernels\kernel_util.h **** // Returns const data for a TfLiteEvalTensor struct.
  60:C:/Renesas/e2studio_2021_01_workspace_RZA2M_ANPR/ANPR_RZA2M_EBK/src/tensorflow_lite/tensorflow/lite/micro/kernels\kernel_util.h **** template <typename T>
  61:C:/Renesas/e2studio_2021_01_workspace_RZA2M_ANPR/ANPR_RZA2M_EBK/src/tensorflow_lite/tensorflow/lite/micro/kernels\kernel_util.h **** const T* GetTensorData(const TfLiteEvalTensor* tensor) {
  62:C:/Renesas/e2studio_2021_01_workspace_RZA2M_ANPR/ANPR_RZA2M_EBK/src/tensorflow_lite/tensorflow/lite/micro/kernels\kernel_util.h ****   TFLITE_DCHECK(tensor != nullptr);
  63:C:/Renesas/e2studio_2021_01_workspace_RZA2M_ANPR/ANPR_RZA2M_EBK/src/tensorflow_lite/tensorflow/lite/micro/kernels\kernel_util.h ****   return reinterpret_cast<const T*>(tensor->data.raw);
 471              		.loc 3 63 0
 472 00fc 004098E5 		ldr	r4, [r8]
 473              	.LVL58:
 474              	.LEHB1:
 475              	.LBE184:
 476              	.LBE183:
  91:../src/tensorflow_lite/tensorflow/lite/micro/kernels/dequantize.cc ****                                   tflite::micro::GetTensorData<float>(output));
 477              		.loc 1 91 0
 478 0100 FEFFFFEB 		bl	_ZN6tflite5micro14GetTensorShapeEPK16TfLiteEvalTensor
 479              	.LVL59:
 480              	.LEHE1:
 481 0104 00209DE5 		ldr	r2, [sp]
 482 0108 18E09DE5 		ldr	lr, [sp, #24]
 483              	.LBB185:
 484              	.LBB186:
  56:C:/Renesas/e2studio_2021_01_workspace_RZA2M_ANPR/ANPR_RZA2M_EBK/src/tensorflow_lite/tensorflow/lite/micro/kernels\kernel_util.h **** }
 485              		.loc 3 56 0
 486 010c 006096E5 		ldr	r6, [r6]
 487              	.LVL60:
 488              	.LBE186:
 489              	.LBE185:
 490              	.LBB187:
 491              	.LBB188:
 492              		.file 4 "C:/Renesas/e2studio_2021_01_workspace_RZA2M_ANPR/ANPR_RZA2M_EBK/src/tensorflow_lite/tenso
   1:C:/Renesas/e2studio_2021_01_workspace_RZA2M_ANPR/ANPR_RZA2M_EBK/src/tensorflow_lite/tensorflow/lite/kernels/internal/reference\dequantize.h **** /* Copyright 2019 The TensorFlow Authors. All Rights Reserved.
   2:C:/Renesas/e2studio_2021_01_workspace_RZA2M_ANPR/ANPR_RZA2M_EBK/src/tensorflow_lite/tensorflow/lite/kernels/internal/reference\dequantize.h **** 
   3:C:/Renesas/e2studio_2021_01_workspace_RZA2M_ANPR/ANPR_RZA2M_EBK/src/tensorflow_lite/tensorflow/lite/kernels/internal/reference\dequantize.h **** Licensed under the Apache License, Version 2.0 (the "License");
   4:C:/Renesas/e2studio_2021_01_workspace_RZA2M_ANPR/ANPR_RZA2M_EBK/src/tensorflow_lite/tensorflow/lite/kernels/internal/reference\dequantize.h **** you may not use this file except in compliance with the License.
   5:C:/Renesas/e2studio_2021_01_workspace_RZA2M_ANPR/ANPR_RZA2M_EBK/src/tensorflow_lite/tensorflow/lite/kernels/internal/reference\dequantize.h **** You may obtain a copy of the License at
   6:C:/Renesas/e2studio_2021_01_workspace_RZA2M_ANPR/ANPR_RZA2M_EBK/src/tensorflow_lite/tensorflow/lite/kernels/internal/reference\dequantize.h **** 
   7:C:/Renesas/e2studio_2021_01_workspace_RZA2M_ANPR/ANPR_RZA2M_EBK/src/tensorflow_lite/tensorflow/lite/kernels/internal/reference\dequantize.h ****     http://www.apache.org/licenses/LICENSE-2.0
   8:C:/Renesas/e2studio_2021_01_workspace_RZA2M_ANPR/ANPR_RZA2M_EBK/src/tensorflow_lite/tensorflow/lite/kernels/internal/reference\dequantize.h **** 
   9:C:/Renesas/e2studio_2021_01_workspace_RZA2M_ANPR/ANPR_RZA2M_EBK/src/tensorflow_lite/tensorflow/lite/kernels/internal/reference\dequantize.h **** Unless required by applicable law or agreed to in writing, software
  10:C:/Renesas/e2studio_2021_01_workspace_RZA2M_ANPR/ANPR_RZA2M_EBK/src/tensorflow_lite/tensorflow/lite/kernels/internal/reference\dequantize.h **** distributed under the License is distributed on an "AS IS" BASIS,
  11:C:/Renesas/e2studio_2021_01_workspace_RZA2M_ANPR/ANPR_RZA2M_EBK/src/tensorflow_lite/tensorflow/lite/kernels/internal/reference\dequantize.h **** WITHOUT WARRANTIES OR CONDITIONS OF ANY KIND, either express or implied.
  12:C:/Renesas/e2studio_2021_01_workspace_RZA2M_ANPR/ANPR_RZA2M_EBK/src/tensorflow_lite/tensorflow/lite/kernels/internal/reference\dequantize.h **** See the License for the specific language governing permissions and
  13:C:/Renesas/e2studio_2021_01_workspace_RZA2M_ANPR/ANPR_RZA2M_EBK/src/tensorflow_lite/tensorflow/lite/kernels/internal/reference\dequantize.h **** limitations under the License.
  14:C:/Renesas/e2studio_2021_01_workspace_RZA2M_ANPR/ANPR_RZA2M_EBK/src/tensorflow_lite/tensorflow/lite/kernels/internal/reference\dequantize.h **** ==============================================================================*/
  15:C:/Renesas/e2studio_2021_01_workspace_RZA2M_ANPR/ANPR_RZA2M_EBK/src/tensorflow_lite/tensorflow/lite/kernels/internal/reference\dequantize.h **** #ifndef TENSORFLOW_LITE_KERNELS_INTERNAL_REFERENCE_DEQUANTIZE_H_
  16:C:/Renesas/e2studio_2021_01_workspace_RZA2M_ANPR/ANPR_RZA2M_EBK/src/tensorflow_lite/tensorflow/lite/kernels/internal/reference\dequantize.h **** #define TENSORFLOW_LITE_KERNELS_INTERNAL_REFERENCE_DEQUANTIZE_H_
  17:C:/Renesas/e2studio_2021_01_workspace_RZA2M_ANPR/ANPR_RZA2M_EBK/src/tensorflow_lite/tensorflow/lite/kernels/internal/reference\dequantize.h **** 
  18:C:/Renesas/e2studio_2021_01_workspace_RZA2M_ANPR/ANPR_RZA2M_EBK/src/tensorflow_lite/tensorflow/lite/kernels/internal/reference\dequantize.h **** #include <limits.h>
  19:C:/Renesas/e2studio_2021_01_workspace_RZA2M_ANPR/ANPR_RZA2M_EBK/src/tensorflow_lite/tensorflow/lite/kernels/internal/reference\dequantize.h **** 
  20:C:/Renesas/e2studio_2021_01_workspace_RZA2M_ANPR/ANPR_RZA2M_EBK/src/tensorflow_lite/tensorflow/lite/kernels/internal/reference\dequantize.h **** #include <vector>
  21:C:/Renesas/e2studio_2021_01_workspace_RZA2M_ANPR/ANPR_RZA2M_EBK/src/tensorflow_lite/tensorflow/lite/kernels/internal/reference\dequantize.h **** 
  22:C:/Renesas/e2studio_2021_01_workspace_RZA2M_ANPR/ANPR_RZA2M_EBK/src/tensorflow_lite/tensorflow/lite/kernels/internal/reference\dequantize.h **** #include "tensorflow/lite/kernels/internal/common.h"
  23:C:/Renesas/e2studio_2021_01_workspace_RZA2M_ANPR/ANPR_RZA2M_EBK/src/tensorflow_lite/tensorflow/lite/kernels/internal/reference\dequantize.h **** #include "tensorflow/lite/kernels/internal/types.h"
  24:C:/Renesas/e2studio_2021_01_workspace_RZA2M_ANPR/ANPR_RZA2M_EBK/src/tensorflow_lite/tensorflow/lite/kernels/internal/reference\dequantize.h **** 
  25:C:/Renesas/e2studio_2021_01_workspace_RZA2M_ANPR/ANPR_RZA2M_EBK/src/tensorflow_lite/tensorflow/lite/kernels/internal/reference\dequantize.h **** namespace tflite {
  26:C:/Renesas/e2studio_2021_01_workspace_RZA2M_ANPR/ANPR_RZA2M_EBK/src/tensorflow_lite/tensorflow/lite/kernels/internal/reference\dequantize.h **** 
  27:C:/Renesas/e2studio_2021_01_workspace_RZA2M_ANPR/ANPR_RZA2M_EBK/src/tensorflow_lite/tensorflow/lite/kernels/internal/reference\dequantize.h **** namespace reference_ops {
  28:C:/Renesas/e2studio_2021_01_workspace_RZA2M_ANPR/ANPR_RZA2M_EBK/src/tensorflow_lite/tensorflow/lite/kernels/internal/reference\dequantize.h **** 
  29:C:/Renesas/e2studio_2021_01_workspace_RZA2M_ANPR/ANPR_RZA2M_EBK/src/tensorflow_lite/tensorflow/lite/kernels/internal/reference\dequantize.h **** // Dequantizes into a float without rounding.
  30:C:/Renesas/e2studio_2021_01_workspace_RZA2M_ANPR/ANPR_RZA2M_EBK/src/tensorflow_lite/tensorflow/lite/kernels/internal/reference\dequantize.h **** template <typename InputT, typename OutputT>
  31:C:/Renesas/e2studio_2021_01_workspace_RZA2M_ANPR/ANPR_RZA2M_EBK/src/tensorflow_lite/tensorflow/lite/kernels/internal/reference\dequantize.h **** inline void Dequantize(const tflite::DequantizationParams& op_params,
  32:C:/Renesas/e2studio_2021_01_workspace_RZA2M_ANPR/ANPR_RZA2M_EBK/src/tensorflow_lite/tensorflow/lite/kernels/internal/reference\dequantize.h ****                        const RuntimeShape& input_shape,
  33:C:/Renesas/e2studio_2021_01_workspace_RZA2M_ANPR/ANPR_RZA2M_EBK/src/tensorflow_lite/tensorflow/lite/kernels/internal/reference\dequantize.h ****                        const InputT* input_data,
  34:C:/Renesas/e2studio_2021_01_workspace_RZA2M_ANPR/ANPR_RZA2M_EBK/src/tensorflow_lite/tensorflow/lite/kernels/internal/reference\dequantize.h ****                        const RuntimeShape& output_shape, OutputT* output_data) {
  35:C:/Renesas/e2studio_2021_01_workspace_RZA2M_ANPR/ANPR_RZA2M_EBK/src/tensorflow_lite/tensorflow/lite/kernels/internal/reference\dequantize.h ****   int32_t zero_point = op_params.zero_point;
 493              		.loc 4 35 0
 494 0110 081097E5 		ldr	r1, [r7, #8]
 495              	.LVL61:
 496              	.LBB189:
 497              	.LBB190:
 498              		.file 5 "C:/Renesas/e2studio_2021_01_workspace_RZA2M_ANPR/ANPR_RZA2M_EBK/src/tensorflow_lite/tenso
   1:C:/Renesas/e2studio_2021_01_workspace_RZA2M_ANPR/ANPR_RZA2M_EBK/src/tensorflow_lite/tensorflow/lite/kernels/internal\types.h **** /* Copyright 2018 The TensorFlow Authors. All Rights Reserved.
   2:C:/Renesas/e2studio_2021_01_workspace_RZA2M_ANPR/ANPR_RZA2M_EBK/src/tensorflow_lite/tensorflow/lite/kernels/internal\types.h **** 
   3:C:/Renesas/e2studio_2021_01_workspace_RZA2M_ANPR/ANPR_RZA2M_EBK/src/tensorflow_lite/tensorflow/lite/kernels/internal\types.h **** Licensed under the Apache License, Version 2.0 (the "License");
   4:C:/Renesas/e2studio_2021_01_workspace_RZA2M_ANPR/ANPR_RZA2M_EBK/src/tensorflow_lite/tensorflow/lite/kernels/internal\types.h **** you may not use this file except in compliance with the License.
   5:C:/Renesas/e2studio_2021_01_workspace_RZA2M_ANPR/ANPR_RZA2M_EBK/src/tensorflow_lite/tensorflow/lite/kernels/internal\types.h **** You may obtain a copy of the License at
   6:C:/Renesas/e2studio_2021_01_workspace_RZA2M_ANPR/ANPR_RZA2M_EBK/src/tensorflow_lite/tensorflow/lite/kernels/internal\types.h **** 
   7:C:/Renesas/e2studio_2021_01_workspace_RZA2M_ANPR/ANPR_RZA2M_EBK/src/tensorflow_lite/tensorflow/lite/kernels/internal\types.h ****     http://www.apache.org/licenses/LICENSE-2.0
   8:C:/Renesas/e2studio_2021_01_workspace_RZA2M_ANPR/ANPR_RZA2M_EBK/src/tensorflow_lite/tensorflow/lite/kernels/internal\types.h **** 
   9:C:/Renesas/e2studio_2021_01_workspace_RZA2M_ANPR/ANPR_RZA2M_EBK/src/tensorflow_lite/tensorflow/lite/kernels/internal\types.h **** Unless required by applicable law or agreed to in writing, software
  10:C:/Renesas/e2studio_2021_01_workspace_RZA2M_ANPR/ANPR_RZA2M_EBK/src/tensorflow_lite/tensorflow/lite/kernels/internal\types.h **** distributed under the License is distributed on an "AS IS" BASIS,
  11:C:/Renesas/e2studio_2021_01_workspace_RZA2M_ANPR/ANPR_RZA2M_EBK/src/tensorflow_lite/tensorflow/lite/kernels/internal\types.h **** WITHOUT WARRANTIES OR CONDITIONS OF ANY KIND, either express or implied.
  12:C:/Renesas/e2studio_2021_01_workspace_RZA2M_ANPR/ANPR_RZA2M_EBK/src/tensorflow_lite/tensorflow/lite/kernels/internal\types.h **** See the License for the specific language governing permissions and
  13:C:/Renesas/e2studio_2021_01_workspace_RZA2M_ANPR/ANPR_RZA2M_EBK/src/tensorflow_lite/tensorflow/lite/kernels/internal\types.h **** limitations under the License.
  14:C:/Renesas/e2studio_2021_01_workspace_RZA2M_ANPR/ANPR_RZA2M_EBK/src/tensorflow_lite/tensorflow/lite/kernels/internal\types.h **** ==============================================================================*/
  15:C:/Renesas/e2studio_2021_01_workspace_RZA2M_ANPR/ANPR_RZA2M_EBK/src/tensorflow_lite/tensorflow/lite/kernels/internal\types.h **** #ifndef TENSORFLOW_LITE_KERNELS_INTERNAL_TYPES_H_
  16:C:/Renesas/e2studio_2021_01_workspace_RZA2M_ANPR/ANPR_RZA2M_EBK/src/tensorflow_lite/tensorflow/lite/kernels/internal\types.h **** #define TENSORFLOW_LITE_KERNELS_INTERNAL_TYPES_H_
  17:C:/Renesas/e2studio_2021_01_workspace_RZA2M_ANPR/ANPR_RZA2M_EBK/src/tensorflow_lite/tensorflow/lite/kernels/internal\types.h **** 
  18:C:/Renesas/e2studio_2021_01_workspace_RZA2M_ANPR/ANPR_RZA2M_EBK/src/tensorflow_lite/tensorflow/lite/kernels/internal\types.h **** #include <algorithm>
  19:C:/Renesas/e2studio_2021_01_workspace_RZA2M_ANPR/ANPR_RZA2M_EBK/src/tensorflow_lite/tensorflow/lite/kernels/internal\types.h **** #include <cstdint>
  20:C:/Renesas/e2studio_2021_01_workspace_RZA2M_ANPR/ANPR_RZA2M_EBK/src/tensorflow_lite/tensorflow/lite/kernels/internal\types.h **** #include <cstring>
  21:C:/Renesas/e2studio_2021_01_workspace_RZA2M_ANPR/ANPR_RZA2M_EBK/src/tensorflow_lite/tensorflow/lite/kernels/internal\types.h **** #include <initializer_list>
  22:C:/Renesas/e2studio_2021_01_workspace_RZA2M_ANPR/ANPR_RZA2M_EBK/src/tensorflow_lite/tensorflow/lite/kernels/internal\types.h **** 
  23:C:/Renesas/e2studio_2021_01_workspace_RZA2M_ANPR/ANPR_RZA2M_EBK/src/tensorflow_lite/tensorflow/lite/kernels/internal\types.h **** #include "tensorflow/lite/kernels/internal/compatibility.h"
  24:C:/Renesas/e2studio_2021_01_workspace_RZA2M_ANPR/ANPR_RZA2M_EBK/src/tensorflow_lite/tensorflow/lite/kernels/internal\types.h **** 
  25:C:/Renesas/e2studio_2021_01_workspace_RZA2M_ANPR/ANPR_RZA2M_EBK/src/tensorflow_lite/tensorflow/lite/kernels/internal\types.h **** namespace tflite {
  26:C:/Renesas/e2studio_2021_01_workspace_RZA2M_ANPR/ANPR_RZA2M_EBK/src/tensorflow_lite/tensorflow/lite/kernels/internal\types.h **** 
  27:C:/Renesas/e2studio_2021_01_workspace_RZA2M_ANPR/ANPR_RZA2M_EBK/src/tensorflow_lite/tensorflow/lite/kernels/internal\types.h **** enum class FusedActivationFunctionType : uint8_t {
  28:C:/Renesas/e2studio_2021_01_workspace_RZA2M_ANPR/ANPR_RZA2M_EBK/src/tensorflow_lite/tensorflow/lite/kernels/internal\types.h ****   kNone,
  29:C:/Renesas/e2studio_2021_01_workspace_RZA2M_ANPR/ANPR_RZA2M_EBK/src/tensorflow_lite/tensorflow/lite/kernels/internal\types.h ****   kRelu6,
  30:C:/Renesas/e2studio_2021_01_workspace_RZA2M_ANPR/ANPR_RZA2M_EBK/src/tensorflow_lite/tensorflow/lite/kernels/internal\types.h ****   kRelu1,
  31:C:/Renesas/e2studio_2021_01_workspace_RZA2M_ANPR/ANPR_RZA2M_EBK/src/tensorflow_lite/tensorflow/lite/kernels/internal\types.h ****   kRelu
  32:C:/Renesas/e2studio_2021_01_workspace_RZA2M_ANPR/ANPR_RZA2M_EBK/src/tensorflow_lite/tensorflow/lite/kernels/internal\types.h **** };
  33:C:/Renesas/e2studio_2021_01_workspace_RZA2M_ANPR/ANPR_RZA2M_EBK/src/tensorflow_lite/tensorflow/lite/kernels/internal\types.h **** enum class PaddingType : uint8_t { kNone, kSame, kValid };
  34:C:/Renesas/e2studio_2021_01_workspace_RZA2M_ANPR/ANPR_RZA2M_EBK/src/tensorflow_lite/tensorflow/lite/kernels/internal\types.h **** 
  35:C:/Renesas/e2studio_2021_01_workspace_RZA2M_ANPR/ANPR_RZA2M_EBK/src/tensorflow_lite/tensorflow/lite/kernels/internal\types.h **** struct PaddingValues {
  36:C:/Renesas/e2studio_2021_01_workspace_RZA2M_ANPR/ANPR_RZA2M_EBK/src/tensorflow_lite/tensorflow/lite/kernels/internal\types.h ****   int16_t width;
  37:C:/Renesas/e2studio_2021_01_workspace_RZA2M_ANPR/ANPR_RZA2M_EBK/src/tensorflow_lite/tensorflow/lite/kernels/internal\types.h ****   int16_t height;
  38:C:/Renesas/e2studio_2021_01_workspace_RZA2M_ANPR/ANPR_RZA2M_EBK/src/tensorflow_lite/tensorflow/lite/kernels/internal\types.h ****   // offset is used for calculating "remaining" padding, for example, `width`
  39:C:/Renesas/e2studio_2021_01_workspace_RZA2M_ANPR/ANPR_RZA2M_EBK/src/tensorflow_lite/tensorflow/lite/kernels/internal\types.h ****   // is 1 and `width_offset` is 1, so padding_left is 1 while padding_right is
  40:C:/Renesas/e2studio_2021_01_workspace_RZA2M_ANPR/ANPR_RZA2M_EBK/src/tensorflow_lite/tensorflow/lite/kernels/internal\types.h ****   // 1 + 1 = 2.
  41:C:/Renesas/e2studio_2021_01_workspace_RZA2M_ANPR/ANPR_RZA2M_EBK/src/tensorflow_lite/tensorflow/lite/kernels/internal\types.h ****   int16_t width_offset;
  42:C:/Renesas/e2studio_2021_01_workspace_RZA2M_ANPR/ANPR_RZA2M_EBK/src/tensorflow_lite/tensorflow/lite/kernels/internal\types.h ****   // Same as width_offset except it's over the height dimension.
  43:C:/Renesas/e2studio_2021_01_workspace_RZA2M_ANPR/ANPR_RZA2M_EBK/src/tensorflow_lite/tensorflow/lite/kernels/internal\types.h ****   int16_t height_offset;
  44:C:/Renesas/e2studio_2021_01_workspace_RZA2M_ANPR/ANPR_RZA2M_EBK/src/tensorflow_lite/tensorflow/lite/kernels/internal\types.h **** };
  45:C:/Renesas/e2studio_2021_01_workspace_RZA2M_ANPR/ANPR_RZA2M_EBK/src/tensorflow_lite/tensorflow/lite/kernels/internal\types.h **** 
  46:C:/Renesas/e2studio_2021_01_workspace_RZA2M_ANPR/ANPR_RZA2M_EBK/src/tensorflow_lite/tensorflow/lite/kernels/internal\types.h **** struct Padding3DValues {
  47:C:/Renesas/e2studio_2021_01_workspace_RZA2M_ANPR/ANPR_RZA2M_EBK/src/tensorflow_lite/tensorflow/lite/kernels/internal\types.h ****   int16_t width;
  48:C:/Renesas/e2studio_2021_01_workspace_RZA2M_ANPR/ANPR_RZA2M_EBK/src/tensorflow_lite/tensorflow/lite/kernels/internal\types.h ****   int16_t height;
  49:C:/Renesas/e2studio_2021_01_workspace_RZA2M_ANPR/ANPR_RZA2M_EBK/src/tensorflow_lite/tensorflow/lite/kernels/internal\types.h ****   int16_t depth;
  50:C:/Renesas/e2studio_2021_01_workspace_RZA2M_ANPR/ANPR_RZA2M_EBK/src/tensorflow_lite/tensorflow/lite/kernels/internal\types.h ****   // offset is used for calculating "remaining" padding, for example, `width`
  51:C:/Renesas/e2studio_2021_01_workspace_RZA2M_ANPR/ANPR_RZA2M_EBK/src/tensorflow_lite/tensorflow/lite/kernels/internal\types.h ****   // is 1 and `width_offset` is 1, so padding_left is 1 while padding_right is
  52:C:/Renesas/e2studio_2021_01_workspace_RZA2M_ANPR/ANPR_RZA2M_EBK/src/tensorflow_lite/tensorflow/lite/kernels/internal\types.h ****   // 1 + 1 = 2.
  53:C:/Renesas/e2studio_2021_01_workspace_RZA2M_ANPR/ANPR_RZA2M_EBK/src/tensorflow_lite/tensorflow/lite/kernels/internal\types.h ****   int16_t width_offset;
  54:C:/Renesas/e2studio_2021_01_workspace_RZA2M_ANPR/ANPR_RZA2M_EBK/src/tensorflow_lite/tensorflow/lite/kernels/internal\types.h ****   // Same as width_offset except it's over the height dimension.
  55:C:/Renesas/e2studio_2021_01_workspace_RZA2M_ANPR/ANPR_RZA2M_EBK/src/tensorflow_lite/tensorflow/lite/kernels/internal\types.h ****   int16_t height_offset;
  56:C:/Renesas/e2studio_2021_01_workspace_RZA2M_ANPR/ANPR_RZA2M_EBK/src/tensorflow_lite/tensorflow/lite/kernels/internal\types.h ****   // Same as width_offset except it's over the depth dimension.
  57:C:/Renesas/e2studio_2021_01_workspace_RZA2M_ANPR/ANPR_RZA2M_EBK/src/tensorflow_lite/tensorflow/lite/kernels/internal\types.h ****   int16_t depth_offset;
  58:C:/Renesas/e2studio_2021_01_workspace_RZA2M_ANPR/ANPR_RZA2M_EBK/src/tensorflow_lite/tensorflow/lite/kernels/internal\types.h **** };
  59:C:/Renesas/e2studio_2021_01_workspace_RZA2M_ANPR/ANPR_RZA2M_EBK/src/tensorflow_lite/tensorflow/lite/kernels/internal\types.h **** 
  60:C:/Renesas/e2studio_2021_01_workspace_RZA2M_ANPR/ANPR_RZA2M_EBK/src/tensorflow_lite/tensorflow/lite/kernels/internal\types.h **** // This enumeration allows for non-default formats for the weights array
  61:C:/Renesas/e2studio_2021_01_workspace_RZA2M_ANPR/ANPR_RZA2M_EBK/src/tensorflow_lite/tensorflow/lite/kernels/internal\types.h **** // of a fully-connected operator, allowing the use of special optimized
  62:C:/Renesas/e2studio_2021_01_workspace_RZA2M_ANPR/ANPR_RZA2M_EBK/src/tensorflow_lite/tensorflow/lite/kernels/internal\types.h **** // runtime paths.
  63:C:/Renesas/e2studio_2021_01_workspace_RZA2M_ANPR/ANPR_RZA2M_EBK/src/tensorflow_lite/tensorflow/lite/kernels/internal\types.h **** enum class FullyConnectedWeightsFormat : uint8_t {
  64:C:/Renesas/e2studio_2021_01_workspace_RZA2M_ANPR/ANPR_RZA2M_EBK/src/tensorflow_lite/tensorflow/lite/kernels/internal\types.h ****   // Default format (flat 2D layout, the inner contiguous dimension
  65:C:/Renesas/e2studio_2021_01_workspace_RZA2M_ANPR/ANPR_RZA2M_EBK/src/tensorflow_lite/tensorflow/lite/kernels/internal\types.h ****   // is input_depth, the outer non-contiguous dimension is output_depth)
  66:C:/Renesas/e2studio_2021_01_workspace_RZA2M_ANPR/ANPR_RZA2M_EBK/src/tensorflow_lite/tensorflow/lite/kernels/internal\types.h ****   kDefault,
  67:C:/Renesas/e2studio_2021_01_workspace_RZA2M_ANPR/ANPR_RZA2M_EBK/src/tensorflow_lite/tensorflow/lite/kernels/internal\types.h ****   // Summary: optimized layout for fast CPU runtime implementation,
  68:C:/Renesas/e2studio_2021_01_workspace_RZA2M_ANPR/ANPR_RZA2M_EBK/src/tensorflow_lite/tensorflow/lite/kernels/internal\types.h ****   // aimed specifically at ARM CPUs at the moment, and specialized for
  69:C:/Renesas/e2studio_2021_01_workspace_RZA2M_ANPR/ANPR_RZA2M_EBK/src/tensorflow_lite/tensorflow/lite/kernels/internal\types.h ****   // 8-bit quantized layers.
  70:C:/Renesas/e2studio_2021_01_workspace_RZA2M_ANPR/ANPR_RZA2M_EBK/src/tensorflow_lite/tensorflow/lite/kernels/internal\types.h ****   //
  71:C:/Renesas/e2studio_2021_01_workspace_RZA2M_ANPR/ANPR_RZA2M_EBK/src/tensorflow_lite/tensorflow/lite/kernels/internal\types.h ****   // The use case we're concerned with here is: 8-bit quantization,
  72:C:/Renesas/e2studio_2021_01_workspace_RZA2M_ANPR/ANPR_RZA2M_EBK/src/tensorflow_lite/tensorflow/lite/kernels/internal\types.h ****   // large weights matrix that doesn't fit in cache (e.g. 4096x2048 in
  73:C:/Renesas/e2studio_2021_01_workspace_RZA2M_ANPR/ANPR_RZA2M_EBK/src/tensorflow_lite/tensorflow/lite/kernels/internal\types.h ****   // a key application that drove this), very small batch size (e.g. 1 -- 4).
  74:C:/Renesas/e2studio_2021_01_workspace_RZA2M_ANPR/ANPR_RZA2M_EBK/src/tensorflow_lite/tensorflow/lite/kernels/internal\types.h ****   //
  75:C:/Renesas/e2studio_2021_01_workspace_RZA2M_ANPR/ANPR_RZA2M_EBK/src/tensorflow_lite/tensorflow/lite/kernels/internal\types.h ****   // Even with 8-bit quantization of weights, the performance of memory
  76:C:/Renesas/e2studio_2021_01_workspace_RZA2M_ANPR/ANPR_RZA2M_EBK/src/tensorflow_lite/tensorflow/lite/kernels/internal\types.h ****   // accesses to the weights can become the dominant issue when
  77:C:/Renesas/e2studio_2021_01_workspace_RZA2M_ANPR/ANPR_RZA2M_EBK/src/tensorflow_lite/tensorflow/lite/kernels/internal\types.h ****   // the batch size is small, so each weight value is used in only a few
  78:C:/Renesas/e2studio_2021_01_workspace_RZA2M_ANPR/ANPR_RZA2M_EBK/src/tensorflow_lite/tensorflow/lite/kernels/internal\types.h ****   // arithmetic ops, i.e. the fully-connected node has a low arithmetic
  79:C:/Renesas/e2studio_2021_01_workspace_RZA2M_ANPR/ANPR_RZA2M_EBK/src/tensorflow_lite/tensorflow/lite/kernels/internal\types.h ****   // intensity. The specific issues that arise are of three kinds:
  80:C:/Renesas/e2studio_2021_01_workspace_RZA2M_ANPR/ANPR_RZA2M_EBK/src/tensorflow_lite/tensorflow/lite/kernels/internal\types.h ****   // (1) One may, ideally, max out DRAM bandwidth, i.e. be truly memory
  81:C:/Renesas/e2studio_2021_01_workspace_RZA2M_ANPR/ANPR_RZA2M_EBK/src/tensorflow_lite/tensorflow/lite/kernels/internal\types.h ****   //     bound. That's the "good" issue to run into.
  82:C:/Renesas/e2studio_2021_01_workspace_RZA2M_ANPR/ANPR_RZA2M_EBK/src/tensorflow_lite/tensorflow/lite/kernels/internal\types.h ****   // (2) One may run into sub-optimal pre-fetching: the data hasn't been
  83:C:/Renesas/e2studio_2021_01_workspace_RZA2M_ANPR/ANPR_RZA2M_EBK/src/tensorflow_lite/tensorflow/lite/kernels/internal\types.h ****   //     prefetched into the cache by the time we need it.
  84:C:/Renesas/e2studio_2021_01_workspace_RZA2M_ANPR/ANPR_RZA2M_EBK/src/tensorflow_lite/tensorflow/lite/kernels/internal\types.h ****   // (3) One may run into cache aliasing: multiple values that are
  85:C:/Renesas/e2studio_2021_01_workspace_RZA2M_ANPR/ANPR_RZA2M_EBK/src/tensorflow_lite/tensorflow/lite/kernels/internal\types.h ****   //     pre-fetched, alias each other in the L1 cache (which typically
  86:C:/Renesas/e2studio_2021_01_workspace_RZA2M_ANPR/ANPR_RZA2M_EBK/src/tensorflow_lite/tensorflow/lite/kernels/internal\types.h ****   //     has only 4-way set associativity in ARM CPUs) and thus evict
  87:C:/Renesas/e2studio_2021_01_workspace_RZA2M_ANPR/ANPR_RZA2M_EBK/src/tensorflow_lite/tensorflow/lite/kernels/internal\types.h ****   //     each other before we get to using them.
  88:C:/Renesas/e2studio_2021_01_workspace_RZA2M_ANPR/ANPR_RZA2M_EBK/src/tensorflow_lite/tensorflow/lite/kernels/internal\types.h ****   //
  89:C:/Renesas/e2studio_2021_01_workspace_RZA2M_ANPR/ANPR_RZA2M_EBK/src/tensorflow_lite/tensorflow/lite/kernels/internal\types.h ****   // The point of this shuffling is to avoid issues (2) and (3) so that
  90:C:/Renesas/e2studio_2021_01_workspace_RZA2M_ANPR/ANPR_RZA2M_EBK/src/tensorflow_lite/tensorflow/lite/kernels/internal\types.h ****   // we get as fast as possible given only the hard constraint (1).
  91:C:/Renesas/e2studio_2021_01_workspace_RZA2M_ANPR/ANPR_RZA2M_EBK/src/tensorflow_lite/tensorflow/lite/kernels/internal\types.h ****   // This is achieved by turning the difficulty into a solution: the
  92:C:/Renesas/e2studio_2021_01_workspace_RZA2M_ANPR/ANPR_RZA2M_EBK/src/tensorflow_lite/tensorflow/lite/kernels/internal\types.h ****   // difficulty, that each value loaded from memory is used only in
  93:C:/Renesas/e2studio_2021_01_workspace_RZA2M_ANPR/ANPR_RZA2M_EBK/src/tensorflow_lite/tensorflow/lite/kernels/internal\types.h ****   // one kernel iteration, making this operation memory-intensive, hints at
  94:C:/Renesas/e2studio_2021_01_workspace_RZA2M_ANPR/ANPR_RZA2M_EBK/src/tensorflow_lite/tensorflow/lite/kernels/internal\types.h ****   // the solution, of shuffling the weights so that they are stored in the
  95:C:/Renesas/e2studio_2021_01_workspace_RZA2M_ANPR/ANPR_RZA2M_EBK/src/tensorflow_lite/tensorflow/lite/kernels/internal\types.h ****   // exact order as the kernel needs to load them, so that the memory
  96:C:/Renesas/e2studio_2021_01_workspace_RZA2M_ANPR/ANPR_RZA2M_EBK/src/tensorflow_lite/tensorflow/lite/kernels/internal\types.h ****   // accesses made by the kernel are trivial. This solves (2) because the
  97:C:/Renesas/e2studio_2021_01_workspace_RZA2M_ANPR/ANPR_RZA2M_EBK/src/tensorflow_lite/tensorflow/lite/kernels/internal\types.h ****   // trivial memory access pattern allows the CPU's automatic prefetching
  98:C:/Renesas/e2studio_2021_01_workspace_RZA2M_ANPR/ANPR_RZA2M_EBK/src/tensorflow_lite/tensorflow/lite/kernels/internal\types.h ****   // to perform very well (no need even for preload instructions), and this
  99:C:/Renesas/e2studio_2021_01_workspace_RZA2M_ANPR/ANPR_RZA2M_EBK/src/tensorflow_lite/tensorflow/lite/kernels/internal\types.h ****   // solves (3) because the values being loaded concurrently are now
 100:C:/Renesas/e2studio_2021_01_workspace_RZA2M_ANPR/ANPR_RZA2M_EBK/src/tensorflow_lite/tensorflow/lite/kernels/internal\types.h ****   // contiguous in the address space, thus don't alias each other in the cache.
 101:C:/Renesas/e2studio_2021_01_workspace_RZA2M_ANPR/ANPR_RZA2M_EBK/src/tensorflow_lite/tensorflow/lite/kernels/internal\types.h ****   //
 102:C:/Renesas/e2studio_2021_01_workspace_RZA2M_ANPR/ANPR_RZA2M_EBK/src/tensorflow_lite/tensorflow/lite/kernels/internal\types.h ****   // On ARM, we typically want our kernel to process a 4x16 block of weights
 103:C:/Renesas/e2studio_2021_01_workspace_RZA2M_ANPR/ANPR_RZA2M_EBK/src/tensorflow_lite/tensorflow/lite/kernels/internal\types.h ****   // at a time, because:
 104:C:/Renesas/e2studio_2021_01_workspace_RZA2M_ANPR/ANPR_RZA2M_EBK/src/tensorflow_lite/tensorflow/lite/kernels/internal\types.h ****   //   - 16 is the number of bytes in a NEON register.
 105:C:/Renesas/e2studio_2021_01_workspace_RZA2M_ANPR/ANPR_RZA2M_EBK/src/tensorflow_lite/tensorflow/lite/kernels/internal\types.h ****   //   - 4 is how many rows we need to handle concurrently in the kernel in
 106:C:/Renesas/e2studio_2021_01_workspace_RZA2M_ANPR/ANPR_RZA2M_EBK/src/tensorflow_lite/tensorflow/lite/kernels/internal\types.h ****   //     order to have sufficient mutual independence of instructions to
 107:C:/Renesas/e2studio_2021_01_workspace_RZA2M_ANPR/ANPR_RZA2M_EBK/src/tensorflow_lite/tensorflow/lite/kernels/internal\types.h ****   //     maximize arithmetic throughput.
 108:C:/Renesas/e2studio_2021_01_workspace_RZA2M_ANPR/ANPR_RZA2M_EBK/src/tensorflow_lite/tensorflow/lite/kernels/internal\types.h ****   //
 109:C:/Renesas/e2studio_2021_01_workspace_RZA2M_ANPR/ANPR_RZA2M_EBK/src/tensorflow_lite/tensorflow/lite/kernels/internal\types.h ****   // Finally, the 'Int8' part in the name refers to the fact that this
 110:C:/Renesas/e2studio_2021_01_workspace_RZA2M_ANPR/ANPR_RZA2M_EBK/src/tensorflow_lite/tensorflow/lite/kernels/internal\types.h ****   // weights format has each weights value encoded as a signed int8_t value,
 111:C:/Renesas/e2studio_2021_01_workspace_RZA2M_ANPR/ANPR_RZA2M_EBK/src/tensorflow_lite/tensorflow/lite/kernels/internal\types.h ****   // even if the data type of the weights buffer is uint8_t.  This is intended
 112:C:/Renesas/e2studio_2021_01_workspace_RZA2M_ANPR/ANPR_RZA2M_EBK/src/tensorflow_lite/tensorflow/lite/kernels/internal\types.h ****   // to save runtime kernels the effort to have to XOR the top bit of these
 113:C:/Renesas/e2studio_2021_01_workspace_RZA2M_ANPR/ANPR_RZA2M_EBK/src/tensorflow_lite/tensorflow/lite/kernels/internal\types.h ****   // bytes before using them in signed arithmetic, see this file for more
 114:C:/Renesas/e2studio_2021_01_workspace_RZA2M_ANPR/ANPR_RZA2M_EBK/src/tensorflow_lite/tensorflow/lite/kernels/internal\types.h ****   // explanations on the 'signed int8_t trick' in matrix multiplication kernels:
 115:C:/Renesas/e2studio_2021_01_workspace_RZA2M_ANPR/ANPR_RZA2M_EBK/src/tensorflow_lite/tensorflow/lite/kernels/internal\types.h ****   //
 116:C:/Renesas/e2studio_2021_01_workspace_RZA2M_ANPR/ANPR_RZA2M_EBK/src/tensorflow_lite/tensorflow/lite/kernels/internal\types.h ****   //   tensorflow/lite/toco/graph_transformations/ensure_uint8_weights_safe_for_fast_int8_kernels.c
 117:C:/Renesas/e2studio_2021_01_workspace_RZA2M_ANPR/ANPR_RZA2M_EBK/src/tensorflow_lite/tensorflow/lite/kernels/internal\types.h ****   //
 118:C:/Renesas/e2studio_2021_01_workspace_RZA2M_ANPR/ANPR_RZA2M_EBK/src/tensorflow_lite/tensorflow/lite/kernels/internal\types.h ****   kShuffled4x16Int8,
 119:C:/Renesas/e2studio_2021_01_workspace_RZA2M_ANPR/ANPR_RZA2M_EBK/src/tensorflow_lite/tensorflow/lite/kernels/internal\types.h **** };
 120:C:/Renesas/e2studio_2021_01_workspace_RZA2M_ANPR/ANPR_RZA2M_EBK/src/tensorflow_lite/tensorflow/lite/kernels/internal\types.h **** 
 121:C:/Renesas/e2studio_2021_01_workspace_RZA2M_ANPR/ANPR_RZA2M_EBK/src/tensorflow_lite/tensorflow/lite/kernels/internal\types.h **** // Quantization parameters, determining the mapping of quantized values
 122:C:/Renesas/e2studio_2021_01_workspace_RZA2M_ANPR/ANPR_RZA2M_EBK/src/tensorflow_lite/tensorflow/lite/kernels/internal\types.h **** // to real values (i.e. determining how quantized values are mathematically
 123:C:/Renesas/e2studio_2021_01_workspace_RZA2M_ANPR/ANPR_RZA2M_EBK/src/tensorflow_lite/tensorflow/lite/kernels/internal\types.h **** // interpreted).
 124:C:/Renesas/e2studio_2021_01_workspace_RZA2M_ANPR/ANPR_RZA2M_EBK/src/tensorflow_lite/tensorflow/lite/kernels/internal\types.h **** //
 125:C:/Renesas/e2studio_2021_01_workspace_RZA2M_ANPR/ANPR_RZA2M_EBK/src/tensorflow_lite/tensorflow/lite/kernels/internal\types.h **** // The correspondence is as follows:
 126:C:/Renesas/e2studio_2021_01_workspace_RZA2M_ANPR/ANPR_RZA2M_EBK/src/tensorflow_lite/tensorflow/lite/kernels/internal\types.h **** //
 127:C:/Renesas/e2studio_2021_01_workspace_RZA2M_ANPR/ANPR_RZA2M_EBK/src/tensorflow_lite/tensorflow/lite/kernels/internal\types.h **** //   real_value = scale * (quantized_value - zero_point);
 128:C:/Renesas/e2studio_2021_01_workspace_RZA2M_ANPR/ANPR_RZA2M_EBK/src/tensorflow_lite/tensorflow/lite/kernels/internal\types.h **** //
 129:C:/Renesas/e2studio_2021_01_workspace_RZA2M_ANPR/ANPR_RZA2M_EBK/src/tensorflow_lite/tensorflow/lite/kernels/internal\types.h **** // In other words, zero_point designates which quantized value corresponds to
 130:C:/Renesas/e2studio_2021_01_workspace_RZA2M_ANPR/ANPR_RZA2M_EBK/src/tensorflow_lite/tensorflow/lite/kernels/internal\types.h **** // the real 0 value, and scale designates the difference between the real values
 131:C:/Renesas/e2studio_2021_01_workspace_RZA2M_ANPR/ANPR_RZA2M_EBK/src/tensorflow_lite/tensorflow/lite/kernels/internal\types.h **** // corresponding to consecutive quantized values differing by 1.
 132:C:/Renesas/e2studio_2021_01_workspace_RZA2M_ANPR/ANPR_RZA2M_EBK/src/tensorflow_lite/tensorflow/lite/kernels/internal\types.h **** struct QuantizationParams {
 133:C:/Renesas/e2studio_2021_01_workspace_RZA2M_ANPR/ANPR_RZA2M_EBK/src/tensorflow_lite/tensorflow/lite/kernels/internal\types.h ****   int32_t zero_point = 0;
 134:C:/Renesas/e2studio_2021_01_workspace_RZA2M_ANPR/ANPR_RZA2M_EBK/src/tensorflow_lite/tensorflow/lite/kernels/internal\types.h ****   double scale = 0.0;
 135:C:/Renesas/e2studio_2021_01_workspace_RZA2M_ANPR/ANPR_RZA2M_EBK/src/tensorflow_lite/tensorflow/lite/kernels/internal\types.h **** };
 136:C:/Renesas/e2studio_2021_01_workspace_RZA2M_ANPR/ANPR_RZA2M_EBK/src/tensorflow_lite/tensorflow/lite/kernels/internal\types.h **** 
 137:C:/Renesas/e2studio_2021_01_workspace_RZA2M_ANPR/ANPR_RZA2M_EBK/src/tensorflow_lite/tensorflow/lite/kernels/internal\types.h **** inline bool operator==(const QuantizationParams& qp1,
 138:C:/Renesas/e2studio_2021_01_workspace_RZA2M_ANPR/ANPR_RZA2M_EBK/src/tensorflow_lite/tensorflow/lite/kernels/internal\types.h ****                        const QuantizationParams& qp2) {
 139:C:/Renesas/e2studio_2021_01_workspace_RZA2M_ANPR/ANPR_RZA2M_EBK/src/tensorflow_lite/tensorflow/lite/kernels/internal\types.h ****   return qp1.zero_point == qp2.zero_point && qp1.scale == qp2.scale;
 140:C:/Renesas/e2studio_2021_01_workspace_RZA2M_ANPR/ANPR_RZA2M_EBK/src/tensorflow_lite/tensorflow/lite/kernels/internal\types.h **** }
 141:C:/Renesas/e2studio_2021_01_workspace_RZA2M_ANPR/ANPR_RZA2M_EBK/src/tensorflow_lite/tensorflow/lite/kernels/internal\types.h **** 
 142:C:/Renesas/e2studio_2021_01_workspace_RZA2M_ANPR/ANPR_RZA2M_EBK/src/tensorflow_lite/tensorflow/lite/kernels/internal\types.h **** template <int N>
 143:C:/Renesas/e2studio_2021_01_workspace_RZA2M_ANPR/ANPR_RZA2M_EBK/src/tensorflow_lite/tensorflow/lite/kernels/internal\types.h **** struct Dims {
 144:C:/Renesas/e2studio_2021_01_workspace_RZA2M_ANPR/ANPR_RZA2M_EBK/src/tensorflow_lite/tensorflow/lite/kernels/internal\types.h ****   int sizes[N];
 145:C:/Renesas/e2studio_2021_01_workspace_RZA2M_ANPR/ANPR_RZA2M_EBK/src/tensorflow_lite/tensorflow/lite/kernels/internal\types.h ****   int strides[N];
 146:C:/Renesas/e2studio_2021_01_workspace_RZA2M_ANPR/ANPR_RZA2M_EBK/src/tensorflow_lite/tensorflow/lite/kernels/internal\types.h **** };
 147:C:/Renesas/e2studio_2021_01_workspace_RZA2M_ANPR/ANPR_RZA2M_EBK/src/tensorflow_lite/tensorflow/lite/kernels/internal\types.h **** 
 148:C:/Renesas/e2studio_2021_01_workspace_RZA2M_ANPR/ANPR_RZA2M_EBK/src/tensorflow_lite/tensorflow/lite/kernels/internal\types.h **** class RuntimeShape {
 149:C:/Renesas/e2studio_2021_01_workspace_RZA2M_ANPR/ANPR_RZA2M_EBK/src/tensorflow_lite/tensorflow/lite/kernels/internal\types.h ****  public:
 150:C:/Renesas/e2studio_2021_01_workspace_RZA2M_ANPR/ANPR_RZA2M_EBK/src/tensorflow_lite/tensorflow/lite/kernels/internal\types.h ****   // Shapes with dimensions up to 5 are stored directly in the structure, while
 151:C:/Renesas/e2studio_2021_01_workspace_RZA2M_ANPR/ANPR_RZA2M_EBK/src/tensorflow_lite/tensorflow/lite/kernels/internal\types.h ****   // larger shapes are separately allocated.
 152:C:/Renesas/e2studio_2021_01_workspace_RZA2M_ANPR/ANPR_RZA2M_EBK/src/tensorflow_lite/tensorflow/lite/kernels/internal\types.h ****   static constexpr int kMaxSmallSize = 5;
 153:C:/Renesas/e2studio_2021_01_workspace_RZA2M_ANPR/ANPR_RZA2M_EBK/src/tensorflow_lite/tensorflow/lite/kernels/internal\types.h **** 
 154:C:/Renesas/e2studio_2021_01_workspace_RZA2M_ANPR/ANPR_RZA2M_EBK/src/tensorflow_lite/tensorflow/lite/kernels/internal\types.h ****   RuntimeShape& operator=(RuntimeShape const&) = delete;
 155:C:/Renesas/e2studio_2021_01_workspace_RZA2M_ANPR/ANPR_RZA2M_EBK/src/tensorflow_lite/tensorflow/lite/kernels/internal\types.h **** 
 156:C:/Renesas/e2studio_2021_01_workspace_RZA2M_ANPR/ANPR_RZA2M_EBK/src/tensorflow_lite/tensorflow/lite/kernels/internal\types.h ****   RuntimeShape() : size_(0) {}
 157:C:/Renesas/e2studio_2021_01_workspace_RZA2M_ANPR/ANPR_RZA2M_EBK/src/tensorflow_lite/tensorflow/lite/kernels/internal\types.h **** 
 158:C:/Renesas/e2studio_2021_01_workspace_RZA2M_ANPR/ANPR_RZA2M_EBK/src/tensorflow_lite/tensorflow/lite/kernels/internal\types.h ****   explicit RuntimeShape(int dimensions_count) : size_(dimensions_count) {
 159:C:/Renesas/e2studio_2021_01_workspace_RZA2M_ANPR/ANPR_RZA2M_EBK/src/tensorflow_lite/tensorflow/lite/kernels/internal\types.h ****     if (dimensions_count > kMaxSmallSize) {
 160:C:/Renesas/e2studio_2021_01_workspace_RZA2M_ANPR/ANPR_RZA2M_EBK/src/tensorflow_lite/tensorflow/lite/kernels/internal\types.h **** #ifdef TF_LITE_STATIC_MEMORY
 161:C:/Renesas/e2studio_2021_01_workspace_RZA2M_ANPR/ANPR_RZA2M_EBK/src/tensorflow_lite/tensorflow/lite/kernels/internal\types.h ****       TFLITE_CHECK(false && "No shape resizing supported on this platform");
 162:C:/Renesas/e2studio_2021_01_workspace_RZA2M_ANPR/ANPR_RZA2M_EBK/src/tensorflow_lite/tensorflow/lite/kernels/internal\types.h **** #else  // TF_LITE_STATIC_MEMORY
 163:C:/Renesas/e2studio_2021_01_workspace_RZA2M_ANPR/ANPR_RZA2M_EBK/src/tensorflow_lite/tensorflow/lite/kernels/internal\types.h ****       dims_pointer_ = new int32_t[dimensions_count];
 164:C:/Renesas/e2studio_2021_01_workspace_RZA2M_ANPR/ANPR_RZA2M_EBK/src/tensorflow_lite/tensorflow/lite/kernels/internal\types.h **** #endif  // TF_LITE_STATIC_MEMORY
 165:C:/Renesas/e2studio_2021_01_workspace_RZA2M_ANPR/ANPR_RZA2M_EBK/src/tensorflow_lite/tensorflow/lite/kernels/internal\types.h ****     }
 166:C:/Renesas/e2studio_2021_01_workspace_RZA2M_ANPR/ANPR_RZA2M_EBK/src/tensorflow_lite/tensorflow/lite/kernels/internal\types.h ****   }
 167:C:/Renesas/e2studio_2021_01_workspace_RZA2M_ANPR/ANPR_RZA2M_EBK/src/tensorflow_lite/tensorflow/lite/kernels/internal\types.h **** 
 168:C:/Renesas/e2studio_2021_01_workspace_RZA2M_ANPR/ANPR_RZA2M_EBK/src/tensorflow_lite/tensorflow/lite/kernels/internal\types.h ****   RuntimeShape(int shape_size, int32_t value) : size_(0) {
 169:C:/Renesas/e2studio_2021_01_workspace_RZA2M_ANPR/ANPR_RZA2M_EBK/src/tensorflow_lite/tensorflow/lite/kernels/internal\types.h ****     Resize(shape_size);
 170:C:/Renesas/e2studio_2021_01_workspace_RZA2M_ANPR/ANPR_RZA2M_EBK/src/tensorflow_lite/tensorflow/lite/kernels/internal\types.h ****     for (int i = 0; i < shape_size; ++i) {
 171:C:/Renesas/e2studio_2021_01_workspace_RZA2M_ANPR/ANPR_RZA2M_EBK/src/tensorflow_lite/tensorflow/lite/kernels/internal\types.h ****       SetDim(i, value);
 172:C:/Renesas/e2studio_2021_01_workspace_RZA2M_ANPR/ANPR_RZA2M_EBK/src/tensorflow_lite/tensorflow/lite/kernels/internal\types.h ****     }
 173:C:/Renesas/e2studio_2021_01_workspace_RZA2M_ANPR/ANPR_RZA2M_EBK/src/tensorflow_lite/tensorflow/lite/kernels/internal\types.h ****   }
 174:C:/Renesas/e2studio_2021_01_workspace_RZA2M_ANPR/ANPR_RZA2M_EBK/src/tensorflow_lite/tensorflow/lite/kernels/internal\types.h **** 
 175:C:/Renesas/e2studio_2021_01_workspace_RZA2M_ANPR/ANPR_RZA2M_EBK/src/tensorflow_lite/tensorflow/lite/kernels/internal\types.h ****   RuntimeShape(int dimensions_count, const int32_t* dims_data) : size_(0) {
 176:C:/Renesas/e2studio_2021_01_workspace_RZA2M_ANPR/ANPR_RZA2M_EBK/src/tensorflow_lite/tensorflow/lite/kernels/internal\types.h ****     ReplaceWith(dimensions_count, dims_data);
 177:C:/Renesas/e2studio_2021_01_workspace_RZA2M_ANPR/ANPR_RZA2M_EBK/src/tensorflow_lite/tensorflow/lite/kernels/internal\types.h ****   }
 178:C:/Renesas/e2studio_2021_01_workspace_RZA2M_ANPR/ANPR_RZA2M_EBK/src/tensorflow_lite/tensorflow/lite/kernels/internal\types.h **** 
 179:C:/Renesas/e2studio_2021_01_workspace_RZA2M_ANPR/ANPR_RZA2M_EBK/src/tensorflow_lite/tensorflow/lite/kernels/internal\types.h ****   RuntimeShape(const std::initializer_list<int> init_list) : size_(0) {
 180:C:/Renesas/e2studio_2021_01_workspace_RZA2M_ANPR/ANPR_RZA2M_EBK/src/tensorflow_lite/tensorflow/lite/kernels/internal\types.h ****     BuildFrom(init_list);
 181:C:/Renesas/e2studio_2021_01_workspace_RZA2M_ANPR/ANPR_RZA2M_EBK/src/tensorflow_lite/tensorflow/lite/kernels/internal\types.h ****   }
 182:C:/Renesas/e2studio_2021_01_workspace_RZA2M_ANPR/ANPR_RZA2M_EBK/src/tensorflow_lite/tensorflow/lite/kernels/internal\types.h **** 
 183:C:/Renesas/e2studio_2021_01_workspace_RZA2M_ANPR/ANPR_RZA2M_EBK/src/tensorflow_lite/tensorflow/lite/kernels/internal\types.h ****   // Avoid using this constructor.  We should be able to delete it when C++17
 184:C:/Renesas/e2studio_2021_01_workspace_RZA2M_ANPR/ANPR_RZA2M_EBK/src/tensorflow_lite/tensorflow/lite/kernels/internal\types.h ****   // rolls out.
 185:C:/Renesas/e2studio_2021_01_workspace_RZA2M_ANPR/ANPR_RZA2M_EBK/src/tensorflow_lite/tensorflow/lite/kernels/internal\types.h ****   RuntimeShape(RuntimeShape const& other) : size_(other.DimensionsCount()) {
 186:C:/Renesas/e2studio_2021_01_workspace_RZA2M_ANPR/ANPR_RZA2M_EBK/src/tensorflow_lite/tensorflow/lite/kernels/internal\types.h ****     if (size_ > kMaxSmallSize) {
 187:C:/Renesas/e2studio_2021_01_workspace_RZA2M_ANPR/ANPR_RZA2M_EBK/src/tensorflow_lite/tensorflow/lite/kernels/internal\types.h **** #ifdef TF_LITE_STATIC_MEMORY
 188:C:/Renesas/e2studio_2021_01_workspace_RZA2M_ANPR/ANPR_RZA2M_EBK/src/tensorflow_lite/tensorflow/lite/kernels/internal\types.h ****       TFLITE_CHECK(false && "No shape resizing supported on this platform");
 189:C:/Renesas/e2studio_2021_01_workspace_RZA2M_ANPR/ANPR_RZA2M_EBK/src/tensorflow_lite/tensorflow/lite/kernels/internal\types.h **** #else
 190:C:/Renesas/e2studio_2021_01_workspace_RZA2M_ANPR/ANPR_RZA2M_EBK/src/tensorflow_lite/tensorflow/lite/kernels/internal\types.h ****       dims_pointer_ = new int32_t[size_];
 191:C:/Renesas/e2studio_2021_01_workspace_RZA2M_ANPR/ANPR_RZA2M_EBK/src/tensorflow_lite/tensorflow/lite/kernels/internal\types.h **** #endif
 192:C:/Renesas/e2studio_2021_01_workspace_RZA2M_ANPR/ANPR_RZA2M_EBK/src/tensorflow_lite/tensorflow/lite/kernels/internal\types.h ****     }
 193:C:/Renesas/e2studio_2021_01_workspace_RZA2M_ANPR/ANPR_RZA2M_EBK/src/tensorflow_lite/tensorflow/lite/kernels/internal\types.h ****     std::memcpy(DimsData(), other.DimsData(), sizeof(int32_t) * size_);
 194:C:/Renesas/e2studio_2021_01_workspace_RZA2M_ANPR/ANPR_RZA2M_EBK/src/tensorflow_lite/tensorflow/lite/kernels/internal\types.h ****   }
 195:C:/Renesas/e2studio_2021_01_workspace_RZA2M_ANPR/ANPR_RZA2M_EBK/src/tensorflow_lite/tensorflow/lite/kernels/internal\types.h **** 
 196:C:/Renesas/e2studio_2021_01_workspace_RZA2M_ANPR/ANPR_RZA2M_EBK/src/tensorflow_lite/tensorflow/lite/kernels/internal\types.h ****   bool operator==(const RuntimeShape& comp) const {
 197:C:/Renesas/e2studio_2021_01_workspace_RZA2M_ANPR/ANPR_RZA2M_EBK/src/tensorflow_lite/tensorflow/lite/kernels/internal\types.h ****     return this->size_ == comp.size_ &&
 198:C:/Renesas/e2studio_2021_01_workspace_RZA2M_ANPR/ANPR_RZA2M_EBK/src/tensorflow_lite/tensorflow/lite/kernels/internal\types.h ****            std::memcmp(DimsData(), comp.DimsData(), size_ * sizeof(int32_t)) ==
 199:C:/Renesas/e2studio_2021_01_workspace_RZA2M_ANPR/ANPR_RZA2M_EBK/src/tensorflow_lite/tensorflow/lite/kernels/internal\types.h ****                0;
 200:C:/Renesas/e2studio_2021_01_workspace_RZA2M_ANPR/ANPR_RZA2M_EBK/src/tensorflow_lite/tensorflow/lite/kernels/internal\types.h ****   }
 201:C:/Renesas/e2studio_2021_01_workspace_RZA2M_ANPR/ANPR_RZA2M_EBK/src/tensorflow_lite/tensorflow/lite/kernels/internal\types.h **** 
 202:C:/Renesas/e2studio_2021_01_workspace_RZA2M_ANPR/ANPR_RZA2M_EBK/src/tensorflow_lite/tensorflow/lite/kernels/internal\types.h ****   ~RuntimeShape() {
 203:C:/Renesas/e2studio_2021_01_workspace_RZA2M_ANPR/ANPR_RZA2M_EBK/src/tensorflow_lite/tensorflow/lite/kernels/internal\types.h ****     if (size_ > kMaxSmallSize) {
 204:C:/Renesas/e2studio_2021_01_workspace_RZA2M_ANPR/ANPR_RZA2M_EBK/src/tensorflow_lite/tensorflow/lite/kernels/internal\types.h **** #ifdef TF_LITE_STATIC_MEMORY
 205:C:/Renesas/e2studio_2021_01_workspace_RZA2M_ANPR/ANPR_RZA2M_EBK/src/tensorflow_lite/tensorflow/lite/kernels/internal\types.h ****       TFLITE_CHECK(false && "No shape resizing supported on this platform");
 206:C:/Renesas/e2studio_2021_01_workspace_RZA2M_ANPR/ANPR_RZA2M_EBK/src/tensorflow_lite/tensorflow/lite/kernels/internal\types.h **** #else  // TF_LITE_STATIC_MEMORY
 207:C:/Renesas/e2studio_2021_01_workspace_RZA2M_ANPR/ANPR_RZA2M_EBK/src/tensorflow_lite/tensorflow/lite/kernels/internal\types.h ****       delete[] dims_pointer_;
 208:C:/Renesas/e2studio_2021_01_workspace_RZA2M_ANPR/ANPR_RZA2M_EBK/src/tensorflow_lite/tensorflow/lite/kernels/internal\types.h **** #endif  // TF_LITE_STATIC_MEMORY
 209:C:/Renesas/e2studio_2021_01_workspace_RZA2M_ANPR/ANPR_RZA2M_EBK/src/tensorflow_lite/tensorflow/lite/kernels/internal\types.h ****     }
 210:C:/Renesas/e2studio_2021_01_workspace_RZA2M_ANPR/ANPR_RZA2M_EBK/src/tensorflow_lite/tensorflow/lite/kernels/internal\types.h ****   }
 211:C:/Renesas/e2studio_2021_01_workspace_RZA2M_ANPR/ANPR_RZA2M_EBK/src/tensorflow_lite/tensorflow/lite/kernels/internal\types.h **** 
 212:C:/Renesas/e2studio_2021_01_workspace_RZA2M_ANPR/ANPR_RZA2M_EBK/src/tensorflow_lite/tensorflow/lite/kernels/internal\types.h ****   inline int32_t DimensionsCount() const { return size_; }
 213:C:/Renesas/e2studio_2021_01_workspace_RZA2M_ANPR/ANPR_RZA2M_EBK/src/tensorflow_lite/tensorflow/lite/kernels/internal\types.h ****   inline int32_t Dims(int i) const {
 214:C:/Renesas/e2studio_2021_01_workspace_RZA2M_ANPR/ANPR_RZA2M_EBK/src/tensorflow_lite/tensorflow/lite/kernels/internal\types.h ****     TFLITE_DCHECK_GE(i, 0);
 215:C:/Renesas/e2studio_2021_01_workspace_RZA2M_ANPR/ANPR_RZA2M_EBK/src/tensorflow_lite/tensorflow/lite/kernels/internal\types.h ****     TFLITE_DCHECK_LT(i, size_);
 216:C:/Renesas/e2studio_2021_01_workspace_RZA2M_ANPR/ANPR_RZA2M_EBK/src/tensorflow_lite/tensorflow/lite/kernels/internal\types.h ****     return size_ > kMaxSmallSize ? dims_pointer_[i] : dims_[i];
 217:C:/Renesas/e2studio_2021_01_workspace_RZA2M_ANPR/ANPR_RZA2M_EBK/src/tensorflow_lite/tensorflow/lite/kernels/internal\types.h ****   }
 218:C:/Renesas/e2studio_2021_01_workspace_RZA2M_ANPR/ANPR_RZA2M_EBK/src/tensorflow_lite/tensorflow/lite/kernels/internal\types.h ****   inline void SetDim(int i, int32_t val) {
 219:C:/Renesas/e2studio_2021_01_workspace_RZA2M_ANPR/ANPR_RZA2M_EBK/src/tensorflow_lite/tensorflow/lite/kernels/internal\types.h ****     TFLITE_DCHECK_GE(i, 0);
 220:C:/Renesas/e2studio_2021_01_workspace_RZA2M_ANPR/ANPR_RZA2M_EBK/src/tensorflow_lite/tensorflow/lite/kernels/internal\types.h ****     TFLITE_DCHECK_LT(i, size_);
 221:C:/Renesas/e2studio_2021_01_workspace_RZA2M_ANPR/ANPR_RZA2M_EBK/src/tensorflow_lite/tensorflow/lite/kernels/internal\types.h ****     if (size_ > kMaxSmallSize) {
 222:C:/Renesas/e2studio_2021_01_workspace_RZA2M_ANPR/ANPR_RZA2M_EBK/src/tensorflow_lite/tensorflow/lite/kernels/internal\types.h ****       dims_pointer_[i] = val;
 223:C:/Renesas/e2studio_2021_01_workspace_RZA2M_ANPR/ANPR_RZA2M_EBK/src/tensorflow_lite/tensorflow/lite/kernels/internal\types.h ****     } else {
 224:C:/Renesas/e2studio_2021_01_workspace_RZA2M_ANPR/ANPR_RZA2M_EBK/src/tensorflow_lite/tensorflow/lite/kernels/internal\types.h ****       dims_[i] = val;
 225:C:/Renesas/e2studio_2021_01_workspace_RZA2M_ANPR/ANPR_RZA2M_EBK/src/tensorflow_lite/tensorflow/lite/kernels/internal\types.h ****     }
 226:C:/Renesas/e2studio_2021_01_workspace_RZA2M_ANPR/ANPR_RZA2M_EBK/src/tensorflow_lite/tensorflow/lite/kernels/internal\types.h ****   }
 227:C:/Renesas/e2studio_2021_01_workspace_RZA2M_ANPR/ANPR_RZA2M_EBK/src/tensorflow_lite/tensorflow/lite/kernels/internal\types.h **** 
 228:C:/Renesas/e2studio_2021_01_workspace_RZA2M_ANPR/ANPR_RZA2M_EBK/src/tensorflow_lite/tensorflow/lite/kernels/internal\types.h ****   inline int32_t* DimsData() {
 229:C:/Renesas/e2studio_2021_01_workspace_RZA2M_ANPR/ANPR_RZA2M_EBK/src/tensorflow_lite/tensorflow/lite/kernels/internal\types.h ****     return size_ > kMaxSmallSize ? dims_pointer_ : dims_;
 230:C:/Renesas/e2studio_2021_01_workspace_RZA2M_ANPR/ANPR_RZA2M_EBK/src/tensorflow_lite/tensorflow/lite/kernels/internal\types.h ****   }
 231:C:/Renesas/e2studio_2021_01_workspace_RZA2M_ANPR/ANPR_RZA2M_EBK/src/tensorflow_lite/tensorflow/lite/kernels/internal\types.h ****   inline const int32_t* DimsData() const {
 232:C:/Renesas/e2studio_2021_01_workspace_RZA2M_ANPR/ANPR_RZA2M_EBK/src/tensorflow_lite/tensorflow/lite/kernels/internal\types.h ****     return size_ > kMaxSmallSize ? dims_pointer_ : dims_;
 233:C:/Renesas/e2studio_2021_01_workspace_RZA2M_ANPR/ANPR_RZA2M_EBK/src/tensorflow_lite/tensorflow/lite/kernels/internal\types.h ****   }
 234:C:/Renesas/e2studio_2021_01_workspace_RZA2M_ANPR/ANPR_RZA2M_EBK/src/tensorflow_lite/tensorflow/lite/kernels/internal\types.h ****   // The caller must ensure that the shape is no bigger than 5-D.
 235:C:/Renesas/e2studio_2021_01_workspace_RZA2M_ANPR/ANPR_RZA2M_EBK/src/tensorflow_lite/tensorflow/lite/kernels/internal\types.h ****   inline const int32_t* DimsDataUpTo5D() const { return dims_; }
 236:C:/Renesas/e2studio_2021_01_workspace_RZA2M_ANPR/ANPR_RZA2M_EBK/src/tensorflow_lite/tensorflow/lite/kernels/internal\types.h **** 
 237:C:/Renesas/e2studio_2021_01_workspace_RZA2M_ANPR/ANPR_RZA2M_EBK/src/tensorflow_lite/tensorflow/lite/kernels/internal\types.h ****   inline void Resize(int dimensions_count) {
 238:C:/Renesas/e2studio_2021_01_workspace_RZA2M_ANPR/ANPR_RZA2M_EBK/src/tensorflow_lite/tensorflow/lite/kernels/internal\types.h ****     if (size_ > kMaxSmallSize) {
 239:C:/Renesas/e2studio_2021_01_workspace_RZA2M_ANPR/ANPR_RZA2M_EBK/src/tensorflow_lite/tensorflow/lite/kernels/internal\types.h **** #ifdef TF_LITE_STATIC_MEMORY
 240:C:/Renesas/e2studio_2021_01_workspace_RZA2M_ANPR/ANPR_RZA2M_EBK/src/tensorflow_lite/tensorflow/lite/kernels/internal\types.h ****       TFLITE_CHECK(false && "No shape resizing supported on this platform");
 241:C:/Renesas/e2studio_2021_01_workspace_RZA2M_ANPR/ANPR_RZA2M_EBK/src/tensorflow_lite/tensorflow/lite/kernels/internal\types.h **** #else  // TF_LITE_STATIC_MEMORY
 242:C:/Renesas/e2studio_2021_01_workspace_RZA2M_ANPR/ANPR_RZA2M_EBK/src/tensorflow_lite/tensorflow/lite/kernels/internal\types.h ****       delete[] dims_pointer_;
 243:C:/Renesas/e2studio_2021_01_workspace_RZA2M_ANPR/ANPR_RZA2M_EBK/src/tensorflow_lite/tensorflow/lite/kernels/internal\types.h **** #endif  // TF_LITE_STATIC_MEMORY
 244:C:/Renesas/e2studio_2021_01_workspace_RZA2M_ANPR/ANPR_RZA2M_EBK/src/tensorflow_lite/tensorflow/lite/kernels/internal\types.h ****     }
 245:C:/Renesas/e2studio_2021_01_workspace_RZA2M_ANPR/ANPR_RZA2M_EBK/src/tensorflow_lite/tensorflow/lite/kernels/internal\types.h ****     size_ = dimensions_count;
 246:C:/Renesas/e2studio_2021_01_workspace_RZA2M_ANPR/ANPR_RZA2M_EBK/src/tensorflow_lite/tensorflow/lite/kernels/internal\types.h ****     if (dimensions_count > kMaxSmallSize) {
 247:C:/Renesas/e2studio_2021_01_workspace_RZA2M_ANPR/ANPR_RZA2M_EBK/src/tensorflow_lite/tensorflow/lite/kernels/internal\types.h **** #ifdef TF_LITE_STATIC_MEMORY
 248:C:/Renesas/e2studio_2021_01_workspace_RZA2M_ANPR/ANPR_RZA2M_EBK/src/tensorflow_lite/tensorflow/lite/kernels/internal\types.h ****       TFLITE_CHECK(false && "No shape resizing supported on this platform");
 249:C:/Renesas/e2studio_2021_01_workspace_RZA2M_ANPR/ANPR_RZA2M_EBK/src/tensorflow_lite/tensorflow/lite/kernels/internal\types.h **** #else  // TF_LITE_STATIC_MEMORY
 250:C:/Renesas/e2studio_2021_01_workspace_RZA2M_ANPR/ANPR_RZA2M_EBK/src/tensorflow_lite/tensorflow/lite/kernels/internal\types.h ****       dims_pointer_ = new int32_t[dimensions_count];
 251:C:/Renesas/e2studio_2021_01_workspace_RZA2M_ANPR/ANPR_RZA2M_EBK/src/tensorflow_lite/tensorflow/lite/kernels/internal\types.h **** #endif  // TF_LITE_STATIC_MEMORY
 252:C:/Renesas/e2studio_2021_01_workspace_RZA2M_ANPR/ANPR_RZA2M_EBK/src/tensorflow_lite/tensorflow/lite/kernels/internal\types.h ****     }
 253:C:/Renesas/e2studio_2021_01_workspace_RZA2M_ANPR/ANPR_RZA2M_EBK/src/tensorflow_lite/tensorflow/lite/kernels/internal\types.h ****   }
 254:C:/Renesas/e2studio_2021_01_workspace_RZA2M_ANPR/ANPR_RZA2M_EBK/src/tensorflow_lite/tensorflow/lite/kernels/internal\types.h **** 
 255:C:/Renesas/e2studio_2021_01_workspace_RZA2M_ANPR/ANPR_RZA2M_EBK/src/tensorflow_lite/tensorflow/lite/kernels/internal\types.h ****   inline void ReplaceWith(int dimensions_count, const int32_t* dims_data) {
 256:C:/Renesas/e2studio_2021_01_workspace_RZA2M_ANPR/ANPR_RZA2M_EBK/src/tensorflow_lite/tensorflow/lite/kernels/internal\types.h ****     Resize(dimensions_count);
 257:C:/Renesas/e2studio_2021_01_workspace_RZA2M_ANPR/ANPR_RZA2M_EBK/src/tensorflow_lite/tensorflow/lite/kernels/internal\types.h ****     int32_t* dst_dims = DimsData();
 258:C:/Renesas/e2studio_2021_01_workspace_RZA2M_ANPR/ANPR_RZA2M_EBK/src/tensorflow_lite/tensorflow/lite/kernels/internal\types.h ****     std::memcpy(dst_dims, dims_data, dimensions_count * sizeof(int32_t));
 259:C:/Renesas/e2studio_2021_01_workspace_RZA2M_ANPR/ANPR_RZA2M_EBK/src/tensorflow_lite/tensorflow/lite/kernels/internal\types.h ****   }
 260:C:/Renesas/e2studio_2021_01_workspace_RZA2M_ANPR/ANPR_RZA2M_EBK/src/tensorflow_lite/tensorflow/lite/kernels/internal\types.h **** 
 261:C:/Renesas/e2studio_2021_01_workspace_RZA2M_ANPR/ANPR_RZA2M_EBK/src/tensorflow_lite/tensorflow/lite/kernels/internal\types.h ****   template <typename T>
 262:C:/Renesas/e2studio_2021_01_workspace_RZA2M_ANPR/ANPR_RZA2M_EBK/src/tensorflow_lite/tensorflow/lite/kernels/internal\types.h ****   inline void BuildFrom(const T& src_iterable) {
 263:C:/Renesas/e2studio_2021_01_workspace_RZA2M_ANPR/ANPR_RZA2M_EBK/src/tensorflow_lite/tensorflow/lite/kernels/internal\types.h ****     const int dimensions_count =
 264:C:/Renesas/e2studio_2021_01_workspace_RZA2M_ANPR/ANPR_RZA2M_EBK/src/tensorflow_lite/tensorflow/lite/kernels/internal\types.h ****         std::distance(src_iterable.begin(), src_iterable.end());
 265:C:/Renesas/e2studio_2021_01_workspace_RZA2M_ANPR/ANPR_RZA2M_EBK/src/tensorflow_lite/tensorflow/lite/kernels/internal\types.h ****     Resize(dimensions_count);
 266:C:/Renesas/e2studio_2021_01_workspace_RZA2M_ANPR/ANPR_RZA2M_EBK/src/tensorflow_lite/tensorflow/lite/kernels/internal\types.h ****     int32_t* data = DimsData();
 267:C:/Renesas/e2studio_2021_01_workspace_RZA2M_ANPR/ANPR_RZA2M_EBK/src/tensorflow_lite/tensorflow/lite/kernels/internal\types.h ****     for (auto it : src_iterable) {
 268:C:/Renesas/e2studio_2021_01_workspace_RZA2M_ANPR/ANPR_RZA2M_EBK/src/tensorflow_lite/tensorflow/lite/kernels/internal\types.h ****       *data = it;
 269:C:/Renesas/e2studio_2021_01_workspace_RZA2M_ANPR/ANPR_RZA2M_EBK/src/tensorflow_lite/tensorflow/lite/kernels/internal\types.h ****       ++data;
 270:C:/Renesas/e2studio_2021_01_workspace_RZA2M_ANPR/ANPR_RZA2M_EBK/src/tensorflow_lite/tensorflow/lite/kernels/internal\types.h ****     }
 271:C:/Renesas/e2studio_2021_01_workspace_RZA2M_ANPR/ANPR_RZA2M_EBK/src/tensorflow_lite/tensorflow/lite/kernels/internal\types.h ****   }
 272:C:/Renesas/e2studio_2021_01_workspace_RZA2M_ANPR/ANPR_RZA2M_EBK/src/tensorflow_lite/tensorflow/lite/kernels/internal\types.h **** 
 273:C:/Renesas/e2studio_2021_01_workspace_RZA2M_ANPR/ANPR_RZA2M_EBK/src/tensorflow_lite/tensorflow/lite/kernels/internal\types.h ****   // This will probably be factored out. Old code made substantial use of 4-D
 274:C:/Renesas/e2studio_2021_01_workspace_RZA2M_ANPR/ANPR_RZA2M_EBK/src/tensorflow_lite/tensorflow/lite/kernels/internal\types.h ****   // shapes, and so this function is used to extend smaller shapes. Note that
 275:C:/Renesas/e2studio_2021_01_workspace_RZA2M_ANPR/ANPR_RZA2M_EBK/src/tensorflow_lite/tensorflow/lite/kernels/internal\types.h ****   // (a) as Dims<4>-dependent code is eliminated, the reliance on this should be
 276:C:/Renesas/e2studio_2021_01_workspace_RZA2M_ANPR/ANPR_RZA2M_EBK/src/tensorflow_lite/tensorflow/lite/kernels/internal\types.h ****   // reduced, and (b) some kernels are stricly 4-D, but then the shapes of their
 277:C:/Renesas/e2studio_2021_01_workspace_RZA2M_ANPR/ANPR_RZA2M_EBK/src/tensorflow_lite/tensorflow/lite/kernels/internal\types.h ****   // inputs should already be 4-D, so this function should not be needed.
 278:C:/Renesas/e2studio_2021_01_workspace_RZA2M_ANPR/ANPR_RZA2M_EBK/src/tensorflow_lite/tensorflow/lite/kernels/internal\types.h ****   inline static RuntimeShape ExtendedShape(int new_shape_size,
 279:C:/Renesas/e2studio_2021_01_workspace_RZA2M_ANPR/ANPR_RZA2M_EBK/src/tensorflow_lite/tensorflow/lite/kernels/internal\types.h ****                                            const RuntimeShape& shape) {
 280:C:/Renesas/e2studio_2021_01_workspace_RZA2M_ANPR/ANPR_RZA2M_EBK/src/tensorflow_lite/tensorflow/lite/kernels/internal\types.h ****     return RuntimeShape(new_shape_size, shape, 1);
 281:C:/Renesas/e2studio_2021_01_workspace_RZA2M_ANPR/ANPR_RZA2M_EBK/src/tensorflow_lite/tensorflow/lite/kernels/internal\types.h ****   }
 282:C:/Renesas/e2studio_2021_01_workspace_RZA2M_ANPR/ANPR_RZA2M_EBK/src/tensorflow_lite/tensorflow/lite/kernels/internal\types.h **** 
 283:C:/Renesas/e2studio_2021_01_workspace_RZA2M_ANPR/ANPR_RZA2M_EBK/src/tensorflow_lite/tensorflow/lite/kernels/internal\types.h ****   inline void BuildFrom(const std::initializer_list<int> init_list) {
 284:C:/Renesas/e2studio_2021_01_workspace_RZA2M_ANPR/ANPR_RZA2M_EBK/src/tensorflow_lite/tensorflow/lite/kernels/internal\types.h ****     BuildFrom<const std::initializer_list<int>>(init_list);
 285:C:/Renesas/e2studio_2021_01_workspace_RZA2M_ANPR/ANPR_RZA2M_EBK/src/tensorflow_lite/tensorflow/lite/kernels/internal\types.h ****   }
 286:C:/Renesas/e2studio_2021_01_workspace_RZA2M_ANPR/ANPR_RZA2M_EBK/src/tensorflow_lite/tensorflow/lite/kernels/internal\types.h **** 
 287:C:/Renesas/e2studio_2021_01_workspace_RZA2M_ANPR/ANPR_RZA2M_EBK/src/tensorflow_lite/tensorflow/lite/kernels/internal\types.h ****   // Returns the total count of elements, that is the size when flattened into a
 288:C:/Renesas/e2studio_2021_01_workspace_RZA2M_ANPR/ANPR_RZA2M_EBK/src/tensorflow_lite/tensorflow/lite/kernels/internal\types.h ****   // vector.
 289:C:/Renesas/e2studio_2021_01_workspace_RZA2M_ANPR/ANPR_RZA2M_EBK/src/tensorflow_lite/tensorflow/lite/kernels/internal\types.h ****   inline int FlatSize() const {
 290:C:/Renesas/e2studio_2021_01_workspace_RZA2M_ANPR/ANPR_RZA2M_EBK/src/tensorflow_lite/tensorflow/lite/kernels/internal\types.h ****     int buffer_size = 1;
 291:C:/Renesas/e2studio_2021_01_workspace_RZA2M_ANPR/ANPR_RZA2M_EBK/src/tensorflow_lite/tensorflow/lite/kernels/internal\types.h ****     const int* dims_data = reinterpret_cast<const int*>(DimsData());
 292:C:/Renesas/e2studio_2021_01_workspace_RZA2M_ANPR/ANPR_RZA2M_EBK/src/tensorflow_lite/tensorflow/lite/kernels/internal\types.h ****     for (int i = 0; i < size_; i++) {
 293:C:/Renesas/e2studio_2021_01_workspace_RZA2M_ANPR/ANPR_RZA2M_EBK/src/tensorflow_lite/tensorflow/lite/kernels/internal\types.h ****       buffer_size *= dims_data[i];
 294:C:/Renesas/e2studio_2021_01_workspace_RZA2M_ANPR/ANPR_RZA2M_EBK/src/tensorflow_lite/tensorflow/lite/kernels/internal\types.h ****     }
 295:C:/Renesas/e2studio_2021_01_workspace_RZA2M_ANPR/ANPR_RZA2M_EBK/src/tensorflow_lite/tensorflow/lite/kernels/internal\types.h ****     return buffer_size;
 296:C:/Renesas/e2studio_2021_01_workspace_RZA2M_ANPR/ANPR_RZA2M_EBK/src/tensorflow_lite/tensorflow/lite/kernels/internal\types.h ****   }
 297:C:/Renesas/e2studio_2021_01_workspace_RZA2M_ANPR/ANPR_RZA2M_EBK/src/tensorflow_lite/tensorflow/lite/kernels/internal\types.h **** 
 298:C:/Renesas/e2studio_2021_01_workspace_RZA2M_ANPR/ANPR_RZA2M_EBK/src/tensorflow_lite/tensorflow/lite/kernels/internal\types.h ****   bool operator!=(const RuntimeShape& comp) const { return !((*this) == comp); }
 299:C:/Renesas/e2studio_2021_01_workspace_RZA2M_ANPR/ANPR_RZA2M_EBK/src/tensorflow_lite/tensorflow/lite/kernels/internal\types.h **** 
 300:C:/Renesas/e2studio_2021_01_workspace_RZA2M_ANPR/ANPR_RZA2M_EBK/src/tensorflow_lite/tensorflow/lite/kernels/internal\types.h ****  private:
 301:C:/Renesas/e2studio_2021_01_workspace_RZA2M_ANPR/ANPR_RZA2M_EBK/src/tensorflow_lite/tensorflow/lite/kernels/internal\types.h ****   // For use only by ExtendedShape(), written to guarantee (return-value) copy
 302:C:/Renesas/e2studio_2021_01_workspace_RZA2M_ANPR/ANPR_RZA2M_EBK/src/tensorflow_lite/tensorflow/lite/kernels/internal\types.h ****   // elision in C++17.
 303:C:/Renesas/e2studio_2021_01_workspace_RZA2M_ANPR/ANPR_RZA2M_EBK/src/tensorflow_lite/tensorflow/lite/kernels/internal\types.h ****   // This creates a shape padded to the desired size with the specified value.
 304:C:/Renesas/e2studio_2021_01_workspace_RZA2M_ANPR/ANPR_RZA2M_EBK/src/tensorflow_lite/tensorflow/lite/kernels/internal\types.h ****   RuntimeShape(int new_shape_size, const RuntimeShape& shape, int pad_value)
 305:C:/Renesas/e2studio_2021_01_workspace_RZA2M_ANPR/ANPR_RZA2M_EBK/src/tensorflow_lite/tensorflow/lite/kernels/internal\types.h ****       : size_(0) {
 306:C:/Renesas/e2studio_2021_01_workspace_RZA2M_ANPR/ANPR_RZA2M_EBK/src/tensorflow_lite/tensorflow/lite/kernels/internal\types.h ****     // If the following check fails, it is likely because a 4D-only kernel is
 307:C:/Renesas/e2studio_2021_01_workspace_RZA2M_ANPR/ANPR_RZA2M_EBK/src/tensorflow_lite/tensorflow/lite/kernels/internal\types.h ****     // being used with an array of larger dimension count.
 308:C:/Renesas/e2studio_2021_01_workspace_RZA2M_ANPR/ANPR_RZA2M_EBK/src/tensorflow_lite/tensorflow/lite/kernels/internal\types.h ****     TFLITE_CHECK_GE(new_shape_size, shape.DimensionsCount());
 309:C:/Renesas/e2studio_2021_01_workspace_RZA2M_ANPR/ANPR_RZA2M_EBK/src/tensorflow_lite/tensorflow/lite/kernels/internal\types.h ****     Resize(new_shape_size);
 310:C:/Renesas/e2studio_2021_01_workspace_RZA2M_ANPR/ANPR_RZA2M_EBK/src/tensorflow_lite/tensorflow/lite/kernels/internal\types.h ****     const int size_increase = new_shape_size - shape.DimensionsCount();
 311:C:/Renesas/e2studio_2021_01_workspace_RZA2M_ANPR/ANPR_RZA2M_EBK/src/tensorflow_lite/tensorflow/lite/kernels/internal\types.h ****     for (int i = 0; i < size_increase; ++i) {
 312:C:/Renesas/e2studio_2021_01_workspace_RZA2M_ANPR/ANPR_RZA2M_EBK/src/tensorflow_lite/tensorflow/lite/kernels/internal\types.h ****       SetDim(i, pad_value);
 313:C:/Renesas/e2studio_2021_01_workspace_RZA2M_ANPR/ANPR_RZA2M_EBK/src/tensorflow_lite/tensorflow/lite/kernels/internal\types.h ****     }
 314:C:/Renesas/e2studio_2021_01_workspace_RZA2M_ANPR/ANPR_RZA2M_EBK/src/tensorflow_lite/tensorflow/lite/kernels/internal\types.h ****     std::memcpy(DimsData() + size_increase, shape.DimsData(),
 315:C:/Renesas/e2studio_2021_01_workspace_RZA2M_ANPR/ANPR_RZA2M_EBK/src/tensorflow_lite/tensorflow/lite/kernels/internal\types.h ****                 sizeof(int32_t) * shape.DimensionsCount());
 316:C:/Renesas/e2studio_2021_01_workspace_RZA2M_ANPR/ANPR_RZA2M_EBK/src/tensorflow_lite/tensorflow/lite/kernels/internal\types.h ****   }
 317:C:/Renesas/e2studio_2021_01_workspace_RZA2M_ANPR/ANPR_RZA2M_EBK/src/tensorflow_lite/tensorflow/lite/kernels/internal\types.h **** 
 318:C:/Renesas/e2studio_2021_01_workspace_RZA2M_ANPR/ANPR_RZA2M_EBK/src/tensorflow_lite/tensorflow/lite/kernels/internal\types.h ****   int32_t size_;
 319:C:/Renesas/e2studio_2021_01_workspace_RZA2M_ANPR/ANPR_RZA2M_EBK/src/tensorflow_lite/tensorflow/lite/kernels/internal\types.h ****   union {
 320:C:/Renesas/e2studio_2021_01_workspace_RZA2M_ANPR/ANPR_RZA2M_EBK/src/tensorflow_lite/tensorflow/lite/kernels/internal\types.h ****     int32_t dims_[kMaxSmallSize];
 321:C:/Renesas/e2studio_2021_01_workspace_RZA2M_ANPR/ANPR_RZA2M_EBK/src/tensorflow_lite/tensorflow/lite/kernels/internal\types.h ****     int32_t* dims_pointer_;
 322:C:/Renesas/e2studio_2021_01_workspace_RZA2M_ANPR/ANPR_RZA2M_EBK/src/tensorflow_lite/tensorflow/lite/kernels/internal\types.h ****   };
 323:C:/Renesas/e2studio_2021_01_workspace_RZA2M_ANPR/ANPR_RZA2M_EBK/src/tensorflow_lite/tensorflow/lite/kernels/internal\types.h **** };
 324:C:/Renesas/e2studio_2021_01_workspace_RZA2M_ANPR/ANPR_RZA2M_EBK/src/tensorflow_lite/tensorflow/lite/kernels/internal\types.h **** 
 325:C:/Renesas/e2studio_2021_01_workspace_RZA2M_ANPR/ANPR_RZA2M_EBK/src/tensorflow_lite/tensorflow/lite/kernels/internal\types.h **** // Converts inference-style shape to legacy tflite::Dims<4>.
 326:C:/Renesas/e2studio_2021_01_workspace_RZA2M_ANPR/ANPR_RZA2M_EBK/src/tensorflow_lite/tensorflow/lite/kernels/internal\types.h **** inline tflite::Dims<4> ToRuntimeDims(const tflite::RuntimeShape& array_shape) {
 327:C:/Renesas/e2studio_2021_01_workspace_RZA2M_ANPR/ANPR_RZA2M_EBK/src/tensorflow_lite/tensorflow/lite/kernels/internal\types.h ****   tflite::Dims<4> result;
 328:C:/Renesas/e2studio_2021_01_workspace_RZA2M_ANPR/ANPR_RZA2M_EBK/src/tensorflow_lite/tensorflow/lite/kernels/internal\types.h ****   const int dimensions_count = array_shape.DimensionsCount();
 329:C:/Renesas/e2studio_2021_01_workspace_RZA2M_ANPR/ANPR_RZA2M_EBK/src/tensorflow_lite/tensorflow/lite/kernels/internal\types.h ****   TFLITE_CHECK_LE(dimensions_count, 4);
 330:C:/Renesas/e2studio_2021_01_workspace_RZA2M_ANPR/ANPR_RZA2M_EBK/src/tensorflow_lite/tensorflow/lite/kernels/internal\types.h ****   int cum_prod = 1;
 331:C:/Renesas/e2studio_2021_01_workspace_RZA2M_ANPR/ANPR_RZA2M_EBK/src/tensorflow_lite/tensorflow/lite/kernels/internal\types.h ****   for (int i = 0; i < 4; i++) {
 332:C:/Renesas/e2studio_2021_01_workspace_RZA2M_ANPR/ANPR_RZA2M_EBK/src/tensorflow_lite/tensorflow/lite/kernels/internal\types.h ****     const int new_dim =
 333:C:/Renesas/e2studio_2021_01_workspace_RZA2M_ANPR/ANPR_RZA2M_EBK/src/tensorflow_lite/tensorflow/lite/kernels/internal\types.h ****         (i < dimensions_count) ? array_shape.Dims(dimensions_count - 1 - i) : 1;
 334:C:/Renesas/e2studio_2021_01_workspace_RZA2M_ANPR/ANPR_RZA2M_EBK/src/tensorflow_lite/tensorflow/lite/kernels/internal\types.h ****     result.sizes[i] = new_dim;
 335:C:/Renesas/e2studio_2021_01_workspace_RZA2M_ANPR/ANPR_RZA2M_EBK/src/tensorflow_lite/tensorflow/lite/kernels/internal\types.h ****     result.strides[i] = cum_prod;
 336:C:/Renesas/e2studio_2021_01_workspace_RZA2M_ANPR/ANPR_RZA2M_EBK/src/tensorflow_lite/tensorflow/lite/kernels/internal\types.h ****     cum_prod *= new_dim;
 337:C:/Renesas/e2studio_2021_01_workspace_RZA2M_ANPR/ANPR_RZA2M_EBK/src/tensorflow_lite/tensorflow/lite/kernels/internal\types.h ****   }
 338:C:/Renesas/e2studio_2021_01_workspace_RZA2M_ANPR/ANPR_RZA2M_EBK/src/tensorflow_lite/tensorflow/lite/kernels/internal\types.h ****   return result;
 339:C:/Renesas/e2studio_2021_01_workspace_RZA2M_ANPR/ANPR_RZA2M_EBK/src/tensorflow_lite/tensorflow/lite/kernels/internal\types.h **** }
 340:C:/Renesas/e2studio_2021_01_workspace_RZA2M_ANPR/ANPR_RZA2M_EBK/src/tensorflow_lite/tensorflow/lite/kernels/internal\types.h **** 
 341:C:/Renesas/e2studio_2021_01_workspace_RZA2M_ANPR/ANPR_RZA2M_EBK/src/tensorflow_lite/tensorflow/lite/kernels/internal\types.h **** // TODO(b/80418076): Move to legacy ops file, update invocations.
 342:C:/Renesas/e2studio_2021_01_workspace_RZA2M_ANPR/ANPR_RZA2M_EBK/src/tensorflow_lite/tensorflow/lite/kernels/internal\types.h **** inline RuntimeShape DimsToShape(const tflite::Dims<4>& dims) {
 343:C:/Renesas/e2studio_2021_01_workspace_RZA2M_ANPR/ANPR_RZA2M_EBK/src/tensorflow_lite/tensorflow/lite/kernels/internal\types.h ****   return RuntimeShape(
 344:C:/Renesas/e2studio_2021_01_workspace_RZA2M_ANPR/ANPR_RZA2M_EBK/src/tensorflow_lite/tensorflow/lite/kernels/internal\types.h ****       {dims.sizes[3], dims.sizes[2], dims.sizes[1], dims.sizes[0]});
 345:C:/Renesas/e2studio_2021_01_workspace_RZA2M_ANPR/ANPR_RZA2M_EBK/src/tensorflow_lite/tensorflow/lite/kernels/internal\types.h **** }
 346:C:/Renesas/e2studio_2021_01_workspace_RZA2M_ANPR/ANPR_RZA2M_EBK/src/tensorflow_lite/tensorflow/lite/kernels/internal\types.h **** 
 347:C:/Renesas/e2studio_2021_01_workspace_RZA2M_ANPR/ANPR_RZA2M_EBK/src/tensorflow_lite/tensorflow/lite/kernels/internal\types.h **** // Gets next index to iterate through a multidimensional array.
 348:C:/Renesas/e2studio_2021_01_workspace_RZA2M_ANPR/ANPR_RZA2M_EBK/src/tensorflow_lite/tensorflow/lite/kernels/internal\types.h **** inline bool NextIndex(const int num_dims, const int* dims, int* current) {
 349:C:/Renesas/e2studio_2021_01_workspace_RZA2M_ANPR/ANPR_RZA2M_EBK/src/tensorflow_lite/tensorflow/lite/kernels/internal\types.h ****   if (num_dims == 0) {
 350:C:/Renesas/e2studio_2021_01_workspace_RZA2M_ANPR/ANPR_RZA2M_EBK/src/tensorflow_lite/tensorflow/lite/kernels/internal\types.h ****     return false;
 351:C:/Renesas/e2studio_2021_01_workspace_RZA2M_ANPR/ANPR_RZA2M_EBK/src/tensorflow_lite/tensorflow/lite/kernels/internal\types.h ****   }
 352:C:/Renesas/e2studio_2021_01_workspace_RZA2M_ANPR/ANPR_RZA2M_EBK/src/tensorflow_lite/tensorflow/lite/kernels/internal\types.h ****   TFLITE_DCHECK(dims != nullptr);
 353:C:/Renesas/e2studio_2021_01_workspace_RZA2M_ANPR/ANPR_RZA2M_EBK/src/tensorflow_lite/tensorflow/lite/kernels/internal\types.h ****   TFLITE_DCHECK(current != nullptr);
 354:C:/Renesas/e2studio_2021_01_workspace_RZA2M_ANPR/ANPR_RZA2M_EBK/src/tensorflow_lite/tensorflow/lite/kernels/internal\types.h ****   int carry = 1;
 355:C:/Renesas/e2studio_2021_01_workspace_RZA2M_ANPR/ANPR_RZA2M_EBK/src/tensorflow_lite/tensorflow/lite/kernels/internal\types.h ****   for (int idx = num_dims - 1; idx >= 0; --idx) {
 356:C:/Renesas/e2studio_2021_01_workspace_RZA2M_ANPR/ANPR_RZA2M_EBK/src/tensorflow_lite/tensorflow/lite/kernels/internal\types.h ****     int current_val = current[idx] + carry;
 357:C:/Renesas/e2studio_2021_01_workspace_RZA2M_ANPR/ANPR_RZA2M_EBK/src/tensorflow_lite/tensorflow/lite/kernels/internal\types.h ****     TFLITE_DCHECK_GE(dims[idx], current_val);
 358:C:/Renesas/e2studio_2021_01_workspace_RZA2M_ANPR/ANPR_RZA2M_EBK/src/tensorflow_lite/tensorflow/lite/kernels/internal\types.h ****     if (dims[idx] == current_val) {
 359:C:/Renesas/e2studio_2021_01_workspace_RZA2M_ANPR/ANPR_RZA2M_EBK/src/tensorflow_lite/tensorflow/lite/kernels/internal\types.h ****       current[idx] = 0;
 360:C:/Renesas/e2studio_2021_01_workspace_RZA2M_ANPR/ANPR_RZA2M_EBK/src/tensorflow_lite/tensorflow/lite/kernels/internal\types.h ****     } else {
 361:C:/Renesas/e2studio_2021_01_workspace_RZA2M_ANPR/ANPR_RZA2M_EBK/src/tensorflow_lite/tensorflow/lite/kernels/internal\types.h ****       current[idx] = current_val;
 362:C:/Renesas/e2studio_2021_01_workspace_RZA2M_ANPR/ANPR_RZA2M_EBK/src/tensorflow_lite/tensorflow/lite/kernels/internal\types.h ****       carry = 0;
 363:C:/Renesas/e2studio_2021_01_workspace_RZA2M_ANPR/ANPR_RZA2M_EBK/src/tensorflow_lite/tensorflow/lite/kernels/internal\types.h ****       break;
 364:C:/Renesas/e2studio_2021_01_workspace_RZA2M_ANPR/ANPR_RZA2M_EBK/src/tensorflow_lite/tensorflow/lite/kernels/internal\types.h ****     }
 365:C:/Renesas/e2studio_2021_01_workspace_RZA2M_ANPR/ANPR_RZA2M_EBK/src/tensorflow_lite/tensorflow/lite/kernels/internal\types.h ****   }
 366:C:/Renesas/e2studio_2021_01_workspace_RZA2M_ANPR/ANPR_RZA2M_EBK/src/tensorflow_lite/tensorflow/lite/kernels/internal\types.h ****   return (carry == 0);
 367:C:/Renesas/e2studio_2021_01_workspace_RZA2M_ANPR/ANPR_RZA2M_EBK/src/tensorflow_lite/tensorflow/lite/kernels/internal\types.h **** }
 368:C:/Renesas/e2studio_2021_01_workspace_RZA2M_ANPR/ANPR_RZA2M_EBK/src/tensorflow_lite/tensorflow/lite/kernels/internal\types.h **** 
 369:C:/Renesas/e2studio_2021_01_workspace_RZA2M_ANPR/ANPR_RZA2M_EBK/src/tensorflow_lite/tensorflow/lite/kernels/internal\types.h **** // Gets offset of index if reducing on axis. When reducing, the flattened offset
 370:C:/Renesas/e2studio_2021_01_workspace_RZA2M_ANPR/ANPR_RZA2M_EBK/src/tensorflow_lite/tensorflow/lite/kernels/internal\types.h **** // will not change, if the input index changes on the given axis. For example,
 371:C:/Renesas/e2studio_2021_01_workspace_RZA2M_ANPR/ANPR_RZA2M_EBK/src/tensorflow_lite/tensorflow/lite/kernels/internal\types.h **** // if you have a 3D tensor and you are reducing to 2D by eliminating axis 0,
 372:C:/Renesas/e2studio_2021_01_workspace_RZA2M_ANPR/ANPR_RZA2M_EBK/src/tensorflow_lite/tensorflow/lite/kernels/internal\types.h **** // then index (0, 1, 2) and index (1, 1, 2) will map to the same flattened
 373:C:/Renesas/e2studio_2021_01_workspace_RZA2M_ANPR/ANPR_RZA2M_EBK/src/tensorflow_lite/tensorflow/lite/kernels/internal\types.h **** // offset.
 374:C:/Renesas/e2studio_2021_01_workspace_RZA2M_ANPR/ANPR_RZA2M_EBK/src/tensorflow_lite/tensorflow/lite/kernels/internal\types.h **** // TODO(kanlig): uses Dims to represent dimensions.
 375:C:/Renesas/e2studio_2021_01_workspace_RZA2M_ANPR/ANPR_RZA2M_EBK/src/tensorflow_lite/tensorflow/lite/kernels/internal\types.h **** inline size_t ReducedOutputOffset(const int num_dims, const int* dims,
 376:C:/Renesas/e2studio_2021_01_workspace_RZA2M_ANPR/ANPR_RZA2M_EBK/src/tensorflow_lite/tensorflow/lite/kernels/internal\types.h ****                                   const int* index, const int num_axis,
 377:C:/Renesas/e2studio_2021_01_workspace_RZA2M_ANPR/ANPR_RZA2M_EBK/src/tensorflow_lite/tensorflow/lite/kernels/internal\types.h ****                                   const int* axis) {
 378:C:/Renesas/e2studio_2021_01_workspace_RZA2M_ANPR/ANPR_RZA2M_EBK/src/tensorflow_lite/tensorflow/lite/kernels/internal\types.h ****   if (num_dims == 0) {
 379:C:/Renesas/e2studio_2021_01_workspace_RZA2M_ANPR/ANPR_RZA2M_EBK/src/tensorflow_lite/tensorflow/lite/kernels/internal\types.h ****     return 0;
 380:C:/Renesas/e2studio_2021_01_workspace_RZA2M_ANPR/ANPR_RZA2M_EBK/src/tensorflow_lite/tensorflow/lite/kernels/internal\types.h ****   }
 381:C:/Renesas/e2studio_2021_01_workspace_RZA2M_ANPR/ANPR_RZA2M_EBK/src/tensorflow_lite/tensorflow/lite/kernels/internal\types.h ****   TFLITE_DCHECK(dims != nullptr);
 382:C:/Renesas/e2studio_2021_01_workspace_RZA2M_ANPR/ANPR_RZA2M_EBK/src/tensorflow_lite/tensorflow/lite/kernels/internal\types.h ****   TFLITE_DCHECK(index != nullptr);
 383:C:/Renesas/e2studio_2021_01_workspace_RZA2M_ANPR/ANPR_RZA2M_EBK/src/tensorflow_lite/tensorflow/lite/kernels/internal\types.h ****   size_t offset = 0;
 384:C:/Renesas/e2studio_2021_01_workspace_RZA2M_ANPR/ANPR_RZA2M_EBK/src/tensorflow_lite/tensorflow/lite/kernels/internal\types.h ****   for (int idx = 0; idx < num_dims; ++idx) {
 385:C:/Renesas/e2studio_2021_01_workspace_RZA2M_ANPR/ANPR_RZA2M_EBK/src/tensorflow_lite/tensorflow/lite/kernels/internal\types.h ****     // if we need to skip this axis
 386:C:/Renesas/e2studio_2021_01_workspace_RZA2M_ANPR/ANPR_RZA2M_EBK/src/tensorflow_lite/tensorflow/lite/kernels/internal\types.h ****     bool is_axis = false;
 387:C:/Renesas/e2studio_2021_01_workspace_RZA2M_ANPR/ANPR_RZA2M_EBK/src/tensorflow_lite/tensorflow/lite/kernels/internal\types.h ****     if (axis != nullptr) {
 388:C:/Renesas/e2studio_2021_01_workspace_RZA2M_ANPR/ANPR_RZA2M_EBK/src/tensorflow_lite/tensorflow/lite/kernels/internal\types.h ****       for (int axis_idx = 0; axis_idx < num_axis; ++axis_idx) {
 389:C:/Renesas/e2studio_2021_01_workspace_RZA2M_ANPR/ANPR_RZA2M_EBK/src/tensorflow_lite/tensorflow/lite/kernels/internal\types.h ****         if (idx == axis[axis_idx]) {
 390:C:/Renesas/e2studio_2021_01_workspace_RZA2M_ANPR/ANPR_RZA2M_EBK/src/tensorflow_lite/tensorflow/lite/kernels/internal\types.h ****           is_axis = true;
 391:C:/Renesas/e2studio_2021_01_workspace_RZA2M_ANPR/ANPR_RZA2M_EBK/src/tensorflow_lite/tensorflow/lite/kernels/internal\types.h ****           break;
 392:C:/Renesas/e2studio_2021_01_workspace_RZA2M_ANPR/ANPR_RZA2M_EBK/src/tensorflow_lite/tensorflow/lite/kernels/internal\types.h ****         }
 393:C:/Renesas/e2studio_2021_01_workspace_RZA2M_ANPR/ANPR_RZA2M_EBK/src/tensorflow_lite/tensorflow/lite/kernels/internal\types.h ****       }
 394:C:/Renesas/e2studio_2021_01_workspace_RZA2M_ANPR/ANPR_RZA2M_EBK/src/tensorflow_lite/tensorflow/lite/kernels/internal\types.h ****     }
 395:C:/Renesas/e2studio_2021_01_workspace_RZA2M_ANPR/ANPR_RZA2M_EBK/src/tensorflow_lite/tensorflow/lite/kernels/internal\types.h ****     if (!is_axis) {
 396:C:/Renesas/e2studio_2021_01_workspace_RZA2M_ANPR/ANPR_RZA2M_EBK/src/tensorflow_lite/tensorflow/lite/kernels/internal\types.h ****       offset = offset * static_cast<size_t>(dims[idx]) +
 397:C:/Renesas/e2studio_2021_01_workspace_RZA2M_ANPR/ANPR_RZA2M_EBK/src/tensorflow_lite/tensorflow/lite/kernels/internal\types.h ****                static_cast<size_t>(index[idx]);
 398:C:/Renesas/e2studio_2021_01_workspace_RZA2M_ANPR/ANPR_RZA2M_EBK/src/tensorflow_lite/tensorflow/lite/kernels/internal\types.h ****     }
 399:C:/Renesas/e2studio_2021_01_workspace_RZA2M_ANPR/ANPR_RZA2M_EBK/src/tensorflow_lite/tensorflow/lite/kernels/internal\types.h ****   }
 400:C:/Renesas/e2studio_2021_01_workspace_RZA2M_ANPR/ANPR_RZA2M_EBK/src/tensorflow_lite/tensorflow/lite/kernels/internal\types.h ****   return offset;
 401:C:/Renesas/e2studio_2021_01_workspace_RZA2M_ANPR/ANPR_RZA2M_EBK/src/tensorflow_lite/tensorflow/lite/kernels/internal\types.h **** }
 402:C:/Renesas/e2studio_2021_01_workspace_RZA2M_ANPR/ANPR_RZA2M_EBK/src/tensorflow_lite/tensorflow/lite/kernels/internal\types.h **** 
 403:C:/Renesas/e2studio_2021_01_workspace_RZA2M_ANPR/ANPR_RZA2M_EBK/src/tensorflow_lite/tensorflow/lite/kernels/internal\types.h **** inline int Offset(const RuntimeShape& shape, int i0, int i1, int i2, int i3) {
 404:C:/Renesas/e2studio_2021_01_workspace_RZA2M_ANPR/ANPR_RZA2M_EBK/src/tensorflow_lite/tensorflow/lite/kernels/internal\types.h ****   TFLITE_DCHECK_EQ(shape.DimensionsCount(), 4);
 405:C:/Renesas/e2studio_2021_01_workspace_RZA2M_ANPR/ANPR_RZA2M_EBK/src/tensorflow_lite/tensorflow/lite/kernels/internal\types.h ****   const int* dims_data = reinterpret_cast<const int*>(shape.DimsDataUpTo5D());
 406:C:/Renesas/e2studio_2021_01_workspace_RZA2M_ANPR/ANPR_RZA2M_EBK/src/tensorflow_lite/tensorflow/lite/kernels/internal\types.h ****   TFLITE_DCHECK(i0 >= 0 && i0 < dims_data[0]);
 407:C:/Renesas/e2studio_2021_01_workspace_RZA2M_ANPR/ANPR_RZA2M_EBK/src/tensorflow_lite/tensorflow/lite/kernels/internal\types.h ****   TFLITE_DCHECK(i1 >= 0 && i1 < dims_data[1]);
 408:C:/Renesas/e2studio_2021_01_workspace_RZA2M_ANPR/ANPR_RZA2M_EBK/src/tensorflow_lite/tensorflow/lite/kernels/internal\types.h ****   TFLITE_DCHECK(i2 >= 0 && i2 < dims_data[2]);
 409:C:/Renesas/e2studio_2021_01_workspace_RZA2M_ANPR/ANPR_RZA2M_EBK/src/tensorflow_lite/tensorflow/lite/kernels/internal\types.h ****   TFLITE_DCHECK(i3 >= 0 && i3 < dims_data[3]);
 410:C:/Renesas/e2studio_2021_01_workspace_RZA2M_ANPR/ANPR_RZA2M_EBK/src/tensorflow_lite/tensorflow/lite/kernels/internal\types.h ****   return ((i0 * dims_data[1] + i1) * dims_data[2] + i2) * dims_data[3] + i3;
 411:C:/Renesas/e2studio_2021_01_workspace_RZA2M_ANPR/ANPR_RZA2M_EBK/src/tensorflow_lite/tensorflow/lite/kernels/internal\types.h **** }
 412:C:/Renesas/e2studio_2021_01_workspace_RZA2M_ANPR/ANPR_RZA2M_EBK/src/tensorflow_lite/tensorflow/lite/kernels/internal\types.h **** 
 413:C:/Renesas/e2studio_2021_01_workspace_RZA2M_ANPR/ANPR_RZA2M_EBK/src/tensorflow_lite/tensorflow/lite/kernels/internal\types.h **** inline int Offset(const RuntimeShape& shape, int i0, int i1, int i2, int i3,
 414:C:/Renesas/e2studio_2021_01_workspace_RZA2M_ANPR/ANPR_RZA2M_EBK/src/tensorflow_lite/tensorflow/lite/kernels/internal\types.h ****                   int i4) {
 415:C:/Renesas/e2studio_2021_01_workspace_RZA2M_ANPR/ANPR_RZA2M_EBK/src/tensorflow_lite/tensorflow/lite/kernels/internal\types.h ****   TFLITE_DCHECK_EQ(shape.DimensionsCount(), 5);
 416:C:/Renesas/e2studio_2021_01_workspace_RZA2M_ANPR/ANPR_RZA2M_EBK/src/tensorflow_lite/tensorflow/lite/kernels/internal\types.h ****   const int* dims_data = reinterpret_cast<const int*>(shape.DimsDataUpTo5D());
 417:C:/Renesas/e2studio_2021_01_workspace_RZA2M_ANPR/ANPR_RZA2M_EBK/src/tensorflow_lite/tensorflow/lite/kernels/internal\types.h ****   TFLITE_DCHECK(i0 >= 0 && i0 < dims_data[0]);
 418:C:/Renesas/e2studio_2021_01_workspace_RZA2M_ANPR/ANPR_RZA2M_EBK/src/tensorflow_lite/tensorflow/lite/kernels/internal\types.h ****   TFLITE_DCHECK(i1 >= 0 && i1 < dims_data[1]);
 419:C:/Renesas/e2studio_2021_01_workspace_RZA2M_ANPR/ANPR_RZA2M_EBK/src/tensorflow_lite/tensorflow/lite/kernels/internal\types.h ****   TFLITE_DCHECK(i2 >= 0 && i2 < dims_data[2]);
 420:C:/Renesas/e2studio_2021_01_workspace_RZA2M_ANPR/ANPR_RZA2M_EBK/src/tensorflow_lite/tensorflow/lite/kernels/internal\types.h ****   TFLITE_DCHECK(i3 >= 0 && i3 < dims_data[3]);
 421:C:/Renesas/e2studio_2021_01_workspace_RZA2M_ANPR/ANPR_RZA2M_EBK/src/tensorflow_lite/tensorflow/lite/kernels/internal\types.h ****   TFLITE_DCHECK(i4 >= 0 && i4 < dims_data[4]);
 422:C:/Renesas/e2studio_2021_01_workspace_RZA2M_ANPR/ANPR_RZA2M_EBK/src/tensorflow_lite/tensorflow/lite/kernels/internal\types.h ****   return (((i0 * dims_data[1] + i1) * dims_data[2] + i2) * dims_data[3] + i3) *
 423:C:/Renesas/e2studio_2021_01_workspace_RZA2M_ANPR/ANPR_RZA2M_EBK/src/tensorflow_lite/tensorflow/lite/kernels/internal\types.h ****              dims_data[4] +
 424:C:/Renesas/e2studio_2021_01_workspace_RZA2M_ANPR/ANPR_RZA2M_EBK/src/tensorflow_lite/tensorflow/lite/kernels/internal\types.h ****          i4;
 425:C:/Renesas/e2studio_2021_01_workspace_RZA2M_ANPR/ANPR_RZA2M_EBK/src/tensorflow_lite/tensorflow/lite/kernels/internal\types.h **** }
 426:C:/Renesas/e2studio_2021_01_workspace_RZA2M_ANPR/ANPR_RZA2M_EBK/src/tensorflow_lite/tensorflow/lite/kernels/internal\types.h **** 
 427:C:/Renesas/e2studio_2021_01_workspace_RZA2M_ANPR/ANPR_RZA2M_EBK/src/tensorflow_lite/tensorflow/lite/kernels/internal\types.h **** inline int Offset(const Dims<4>& dims, int i0, int i1, int i2, int i3) {
 428:C:/Renesas/e2studio_2021_01_workspace_RZA2M_ANPR/ANPR_RZA2M_EBK/src/tensorflow_lite/tensorflow/lite/kernels/internal\types.h ****   TFLITE_DCHECK(i0 >= 0 && i0 < dims.sizes[0]);
 429:C:/Renesas/e2studio_2021_01_workspace_RZA2M_ANPR/ANPR_RZA2M_EBK/src/tensorflow_lite/tensorflow/lite/kernels/internal\types.h ****   TFLITE_DCHECK(i1 >= 0 && i1 < dims.sizes[1]);
 430:C:/Renesas/e2studio_2021_01_workspace_RZA2M_ANPR/ANPR_RZA2M_EBK/src/tensorflow_lite/tensorflow/lite/kernels/internal\types.h ****   TFLITE_DCHECK(i2 >= 0 && i2 < dims.sizes[2]);
 431:C:/Renesas/e2studio_2021_01_workspace_RZA2M_ANPR/ANPR_RZA2M_EBK/src/tensorflow_lite/tensorflow/lite/kernels/internal\types.h ****   TFLITE_DCHECK(i3 >= 0 && i3 < dims.sizes[3]);
 432:C:/Renesas/e2studio_2021_01_workspace_RZA2M_ANPR/ANPR_RZA2M_EBK/src/tensorflow_lite/tensorflow/lite/kernels/internal\types.h ****   return i0 * dims.strides[0] + i1 * dims.strides[1] + i2 * dims.strides[2] +
 433:C:/Renesas/e2studio_2021_01_workspace_RZA2M_ANPR/ANPR_RZA2M_EBK/src/tensorflow_lite/tensorflow/lite/kernels/internal\types.h ****          i3 * dims.strides[3];
 434:C:/Renesas/e2studio_2021_01_workspace_RZA2M_ANPR/ANPR_RZA2M_EBK/src/tensorflow_lite/tensorflow/lite/kernels/internal\types.h **** }
 435:C:/Renesas/e2studio_2021_01_workspace_RZA2M_ANPR/ANPR_RZA2M_EBK/src/tensorflow_lite/tensorflow/lite/kernels/internal\types.h **** 
 436:C:/Renesas/e2studio_2021_01_workspace_RZA2M_ANPR/ANPR_RZA2M_EBK/src/tensorflow_lite/tensorflow/lite/kernels/internal\types.h **** inline int Offset(const Dims<4>& dims, int* index) {
 437:C:/Renesas/e2studio_2021_01_workspace_RZA2M_ANPR/ANPR_RZA2M_EBK/src/tensorflow_lite/tensorflow/lite/kernels/internal\types.h ****   return Offset(dims, index[0], index[1], index[2], index[3]);
 438:C:/Renesas/e2studio_2021_01_workspace_RZA2M_ANPR/ANPR_RZA2M_EBK/src/tensorflow_lite/tensorflow/lite/kernels/internal\types.h **** }
 439:C:/Renesas/e2studio_2021_01_workspace_RZA2M_ANPR/ANPR_RZA2M_EBK/src/tensorflow_lite/tensorflow/lite/kernels/internal\types.h **** 
 440:C:/Renesas/e2studio_2021_01_workspace_RZA2M_ANPR/ANPR_RZA2M_EBK/src/tensorflow_lite/tensorflow/lite/kernels/internal\types.h **** inline int Offset(const RuntimeShape& shape, int* index) {
 441:C:/Renesas/e2studio_2021_01_workspace_RZA2M_ANPR/ANPR_RZA2M_EBK/src/tensorflow_lite/tensorflow/lite/kernels/internal\types.h ****   return Offset(shape, index[0], index[1], index[2], index[3]);
 442:C:/Renesas/e2studio_2021_01_workspace_RZA2M_ANPR/ANPR_RZA2M_EBK/src/tensorflow_lite/tensorflow/lite/kernels/internal\types.h **** }
 443:C:/Renesas/e2studio_2021_01_workspace_RZA2M_ANPR/ANPR_RZA2M_EBK/src/tensorflow_lite/tensorflow/lite/kernels/internal\types.h **** 
 444:C:/Renesas/e2studio_2021_01_workspace_RZA2M_ANPR/ANPR_RZA2M_EBK/src/tensorflow_lite/tensorflow/lite/kernels/internal\types.h **** // Get array size, DCHECKing that the dim index is in range.
 445:C:/Renesas/e2studio_2021_01_workspace_RZA2M_ANPR/ANPR_RZA2M_EBK/src/tensorflow_lite/tensorflow/lite/kernels/internal\types.h **** //
 446:C:/Renesas/e2studio_2021_01_workspace_RZA2M_ANPR/ANPR_RZA2M_EBK/src/tensorflow_lite/tensorflow/lite/kernels/internal\types.h **** // Note that this will be phased out with Dims<4>, since RuntimeShape::Dims()
 447:C:/Renesas/e2studio_2021_01_workspace_RZA2M_ANPR/ANPR_RZA2M_EBK/src/tensorflow_lite/tensorflow/lite/kernels/internal\types.h **** // already performs this check.
 448:C:/Renesas/e2studio_2021_01_workspace_RZA2M_ANPR/ANPR_RZA2M_EBK/src/tensorflow_lite/tensorflow/lite/kernels/internal\types.h **** template <int N>
 449:C:/Renesas/e2studio_2021_01_workspace_RZA2M_ANPR/ANPR_RZA2M_EBK/src/tensorflow_lite/tensorflow/lite/kernels/internal\types.h **** int ArraySize(const Dims<N>& array, int index) {
 450:C:/Renesas/e2studio_2021_01_workspace_RZA2M_ANPR/ANPR_RZA2M_EBK/src/tensorflow_lite/tensorflow/lite/kernels/internal\types.h ****   TFLITE_DCHECK(index >= 0 && index < N);
 451:C:/Renesas/e2studio_2021_01_workspace_RZA2M_ANPR/ANPR_RZA2M_EBK/src/tensorflow_lite/tensorflow/lite/kernels/internal\types.h ****   return array.sizes[index];
 452:C:/Renesas/e2studio_2021_01_workspace_RZA2M_ANPR/ANPR_RZA2M_EBK/src/tensorflow_lite/tensorflow/lite/kernels/internal\types.h **** }
 453:C:/Renesas/e2studio_2021_01_workspace_RZA2M_ANPR/ANPR_RZA2M_EBK/src/tensorflow_lite/tensorflow/lite/kernels/internal\types.h **** 
 454:C:/Renesas/e2studio_2021_01_workspace_RZA2M_ANPR/ANPR_RZA2M_EBK/src/tensorflow_lite/tensorflow/lite/kernels/internal\types.h **** // Get common array size, DCHECKing that they all agree.
 455:C:/Renesas/e2studio_2021_01_workspace_RZA2M_ANPR/ANPR_RZA2M_EBK/src/tensorflow_lite/tensorflow/lite/kernels/internal\types.h **** template <typename ArrayType1, typename ArrayType2>
 456:C:/Renesas/e2studio_2021_01_workspace_RZA2M_ANPR/ANPR_RZA2M_EBK/src/tensorflow_lite/tensorflow/lite/kernels/internal\types.h **** int MatchingArraySize(const ArrayType1& array1, int index1,
 457:C:/Renesas/e2studio_2021_01_workspace_RZA2M_ANPR/ANPR_RZA2M_EBK/src/tensorflow_lite/tensorflow/lite/kernels/internal\types.h ****                       const ArrayType2& array2, int index2) {
 458:C:/Renesas/e2studio_2021_01_workspace_RZA2M_ANPR/ANPR_RZA2M_EBK/src/tensorflow_lite/tensorflow/lite/kernels/internal\types.h ****   TFLITE_DCHECK_EQ(ArraySize(array1, index1), ArraySize(array2, index2));
 459:C:/Renesas/e2studio_2021_01_workspace_RZA2M_ANPR/ANPR_RZA2M_EBK/src/tensorflow_lite/tensorflow/lite/kernels/internal\types.h ****   return ArraySize(array1, index1);
 460:C:/Renesas/e2studio_2021_01_workspace_RZA2M_ANPR/ANPR_RZA2M_EBK/src/tensorflow_lite/tensorflow/lite/kernels/internal\types.h **** }
 461:C:/Renesas/e2studio_2021_01_workspace_RZA2M_ANPR/ANPR_RZA2M_EBK/src/tensorflow_lite/tensorflow/lite/kernels/internal\types.h **** 
 462:C:/Renesas/e2studio_2021_01_workspace_RZA2M_ANPR/ANPR_RZA2M_EBK/src/tensorflow_lite/tensorflow/lite/kernels/internal\types.h **** template <typename ArrayType1, typename ArrayType2, typename... Args>
 463:C:/Renesas/e2studio_2021_01_workspace_RZA2M_ANPR/ANPR_RZA2M_EBK/src/tensorflow_lite/tensorflow/lite/kernels/internal\types.h **** int MatchingArraySize(const ArrayType1& array1, int index1,
 464:C:/Renesas/e2studio_2021_01_workspace_RZA2M_ANPR/ANPR_RZA2M_EBK/src/tensorflow_lite/tensorflow/lite/kernels/internal\types.h ****                       const ArrayType2& array2, int index2, Args... args) {
 465:C:/Renesas/e2studio_2021_01_workspace_RZA2M_ANPR/ANPR_RZA2M_EBK/src/tensorflow_lite/tensorflow/lite/kernels/internal\types.h ****   TFLITE_DCHECK_EQ(ArraySize(array1, index1), ArraySize(array2, index2));
 466:C:/Renesas/e2studio_2021_01_workspace_RZA2M_ANPR/ANPR_RZA2M_EBK/src/tensorflow_lite/tensorflow/lite/kernels/internal\types.h ****   return MatchingArraySize(array1, index1, args...);
 467:C:/Renesas/e2studio_2021_01_workspace_RZA2M_ANPR/ANPR_RZA2M_EBK/src/tensorflow_lite/tensorflow/lite/kernels/internal\types.h **** }
 468:C:/Renesas/e2studio_2021_01_workspace_RZA2M_ANPR/ANPR_RZA2M_EBK/src/tensorflow_lite/tensorflow/lite/kernels/internal\types.h **** 
 469:C:/Renesas/e2studio_2021_01_workspace_RZA2M_ANPR/ANPR_RZA2M_EBK/src/tensorflow_lite/tensorflow/lite/kernels/internal\types.h **** // Get common shape dim, DCHECKing that they all agree.
 470:C:/Renesas/e2studio_2021_01_workspace_RZA2M_ANPR/ANPR_RZA2M_EBK/src/tensorflow_lite/tensorflow/lite/kernels/internal\types.h **** inline int MatchingDim(const RuntimeShape& shape1, int index1,
 471:C:/Renesas/e2studio_2021_01_workspace_RZA2M_ANPR/ANPR_RZA2M_EBK/src/tensorflow_lite/tensorflow/lite/kernels/internal\types.h ****                        const RuntimeShape& shape2, int index2) {
 472:C:/Renesas/e2studio_2021_01_workspace_RZA2M_ANPR/ANPR_RZA2M_EBK/src/tensorflow_lite/tensorflow/lite/kernels/internal\types.h ****   TFLITE_DCHECK_EQ(shape1.Dims(index1), shape2.Dims(index2));
 473:C:/Renesas/e2studio_2021_01_workspace_RZA2M_ANPR/ANPR_RZA2M_EBK/src/tensorflow_lite/tensorflow/lite/kernels/internal\types.h ****   return std::min(shape1.Dims(index1), shape2.Dims(index2));
 474:C:/Renesas/e2studio_2021_01_workspace_RZA2M_ANPR/ANPR_RZA2M_EBK/src/tensorflow_lite/tensorflow/lite/kernels/internal\types.h **** }
 475:C:/Renesas/e2studio_2021_01_workspace_RZA2M_ANPR/ANPR_RZA2M_EBK/src/tensorflow_lite/tensorflow/lite/kernels/internal\types.h **** 
 476:C:/Renesas/e2studio_2021_01_workspace_RZA2M_ANPR/ANPR_RZA2M_EBK/src/tensorflow_lite/tensorflow/lite/kernels/internal\types.h **** template <typename... Args>
 477:C:/Renesas/e2studio_2021_01_workspace_RZA2M_ANPR/ANPR_RZA2M_EBK/src/tensorflow_lite/tensorflow/lite/kernels/internal\types.h **** int MatchingDim(const RuntimeShape& shape1, int index1,
 478:C:/Renesas/e2studio_2021_01_workspace_RZA2M_ANPR/ANPR_RZA2M_EBK/src/tensorflow_lite/tensorflow/lite/kernels/internal\types.h ****                 const RuntimeShape& shape2, int index2, Args... args) {
 479:C:/Renesas/e2studio_2021_01_workspace_RZA2M_ANPR/ANPR_RZA2M_EBK/src/tensorflow_lite/tensorflow/lite/kernels/internal\types.h ****   TFLITE_DCHECK_EQ(shape1.Dims(index1), shape2.Dims(index2));
 480:C:/Renesas/e2studio_2021_01_workspace_RZA2M_ANPR/ANPR_RZA2M_EBK/src/tensorflow_lite/tensorflow/lite/kernels/internal\types.h ****   return MatchingDim(shape1, index1, args...);
 481:C:/Renesas/e2studio_2021_01_workspace_RZA2M_ANPR/ANPR_RZA2M_EBK/src/tensorflow_lite/tensorflow/lite/kernels/internal\types.h **** }
 482:C:/Renesas/e2studio_2021_01_workspace_RZA2M_ANPR/ANPR_RZA2M_EBK/src/tensorflow_lite/tensorflow/lite/kernels/internal\types.h **** 
 483:C:/Renesas/e2studio_2021_01_workspace_RZA2M_ANPR/ANPR_RZA2M_EBK/src/tensorflow_lite/tensorflow/lite/kernels/internal\types.h **** // Will be phased out with Dims<4>, replaced by RuntimeShape::FlatSize().
 484:C:/Renesas/e2studio_2021_01_workspace_RZA2M_ANPR/ANPR_RZA2M_EBK/src/tensorflow_lite/tensorflow/lite/kernels/internal\types.h **** template <int N>
 485:C:/Renesas/e2studio_2021_01_workspace_RZA2M_ANPR/ANPR_RZA2M_EBK/src/tensorflow_lite/tensorflow/lite/kernels/internal\types.h **** inline int FlatSize(const Dims<N>& dims) {
 486:C:/Renesas/e2studio_2021_01_workspace_RZA2M_ANPR/ANPR_RZA2M_EBK/src/tensorflow_lite/tensorflow/lite/kernels/internal\types.h ****   int flat_size = 1;
 487:C:/Renesas/e2studio_2021_01_workspace_RZA2M_ANPR/ANPR_RZA2M_EBK/src/tensorflow_lite/tensorflow/lite/kernels/internal\types.h ****   for (int i = 0; i < N; ++i) {
 488:C:/Renesas/e2studio_2021_01_workspace_RZA2M_ANPR/ANPR_RZA2M_EBK/src/tensorflow_lite/tensorflow/lite/kernels/internal\types.h ****     flat_size *= dims.sizes[i];
 489:C:/Renesas/e2studio_2021_01_workspace_RZA2M_ANPR/ANPR_RZA2M_EBK/src/tensorflow_lite/tensorflow/lite/kernels/internal\types.h ****   }
 490:C:/Renesas/e2studio_2021_01_workspace_RZA2M_ANPR/ANPR_RZA2M_EBK/src/tensorflow_lite/tensorflow/lite/kernels/internal\types.h ****   return flat_size;
 491:C:/Renesas/e2studio_2021_01_workspace_RZA2M_ANPR/ANPR_RZA2M_EBK/src/tensorflow_lite/tensorflow/lite/kernels/internal\types.h **** }
 492:C:/Renesas/e2studio_2021_01_workspace_RZA2M_ANPR/ANPR_RZA2M_EBK/src/tensorflow_lite/tensorflow/lite/kernels/internal\types.h **** 
 493:C:/Renesas/e2studio_2021_01_workspace_RZA2M_ANPR/ANPR_RZA2M_EBK/src/tensorflow_lite/tensorflow/lite/kernels/internal\types.h **** TFLITE_DEPRECATED("Prefer FlatSize.")
 494:C:/Renesas/e2studio_2021_01_workspace_RZA2M_ANPR/ANPR_RZA2M_EBK/src/tensorflow_lite/tensorflow/lite/kernels/internal\types.h **** inline int RequiredBufferSizeForDims(const Dims<4>& dims) {
 495:C:/Renesas/e2studio_2021_01_workspace_RZA2M_ANPR/ANPR_RZA2M_EBK/src/tensorflow_lite/tensorflow/lite/kernels/internal\types.h ****   return FlatSize(dims);
 496:C:/Renesas/e2studio_2021_01_workspace_RZA2M_ANPR/ANPR_RZA2M_EBK/src/tensorflow_lite/tensorflow/lite/kernels/internal\types.h **** }
 497:C:/Renesas/e2studio_2021_01_workspace_RZA2M_ANPR/ANPR_RZA2M_EBK/src/tensorflow_lite/tensorflow/lite/kernels/internal\types.h **** 
 498:C:/Renesas/e2studio_2021_01_workspace_RZA2M_ANPR/ANPR_RZA2M_EBK/src/tensorflow_lite/tensorflow/lite/kernels/internal\types.h **** inline int MatchingElementsSize(const RuntimeShape& shape,
 499:C:/Renesas/e2studio_2021_01_workspace_RZA2M_ANPR/ANPR_RZA2M_EBK/src/tensorflow_lite/tensorflow/lite/kernels/internal\types.h ****                                 const RuntimeShape& check_shape_0) {
 500:C:/Renesas/e2studio_2021_01_workspace_RZA2M_ANPR/ANPR_RZA2M_EBK/src/tensorflow_lite/tensorflow/lite/kernels/internal\types.h ****   const int size_1 = shape.FlatSize();
 501:C:/Renesas/e2studio_2021_01_workspace_RZA2M_ANPR/ANPR_RZA2M_EBK/src/tensorflow_lite/tensorflow/lite/kernels/internal\types.h ****   const int size_2 = check_shape_0.FlatSize();
 502:C:/Renesas/e2studio_2021_01_workspace_RZA2M_ANPR/ANPR_RZA2M_EBK/src/tensorflow_lite/tensorflow/lite/kernels/internal\types.h ****   TFLITE_CHECK_EQ(size_1, size_2);
 503:C:/Renesas/e2studio_2021_01_workspace_RZA2M_ANPR/ANPR_RZA2M_EBK/src/tensorflow_lite/tensorflow/lite/kernels/internal\types.h ****   return size_1;
 504:C:/Renesas/e2studio_2021_01_workspace_RZA2M_ANPR/ANPR_RZA2M_EBK/src/tensorflow_lite/tensorflow/lite/kernels/internal\types.h **** }
 505:C:/Renesas/e2studio_2021_01_workspace_RZA2M_ANPR/ANPR_RZA2M_EBK/src/tensorflow_lite/tensorflow/lite/kernels/internal\types.h **** 
 506:C:/Renesas/e2studio_2021_01_workspace_RZA2M_ANPR/ANPR_RZA2M_EBK/src/tensorflow_lite/tensorflow/lite/kernels/internal\types.h **** inline int MatchingElementsSize(const RuntimeShape& shape,
 507:C:/Renesas/e2studio_2021_01_workspace_RZA2M_ANPR/ANPR_RZA2M_EBK/src/tensorflow_lite/tensorflow/lite/kernels/internal\types.h ****                                 const RuntimeShape& check_shape_0,
 508:C:/Renesas/e2studio_2021_01_workspace_RZA2M_ANPR/ANPR_RZA2M_EBK/src/tensorflow_lite/tensorflow/lite/kernels/internal\types.h ****                                 const RuntimeShape& check_shape_1) {
 509:C:/Renesas/e2studio_2021_01_workspace_RZA2M_ANPR/ANPR_RZA2M_EBK/src/tensorflow_lite/tensorflow/lite/kernels/internal\types.h ****   const int size_1 = shape.FlatSize();
 510:C:/Renesas/e2studio_2021_01_workspace_RZA2M_ANPR/ANPR_RZA2M_EBK/src/tensorflow_lite/tensorflow/lite/kernels/internal\types.h ****   const int size_2 = check_shape_0.FlatSize();
 511:C:/Renesas/e2studio_2021_01_workspace_RZA2M_ANPR/ANPR_RZA2M_EBK/src/tensorflow_lite/tensorflow/lite/kernels/internal\types.h ****   const int size_3 = check_shape_1.FlatSize();
 512:C:/Renesas/e2studio_2021_01_workspace_RZA2M_ANPR/ANPR_RZA2M_EBK/src/tensorflow_lite/tensorflow/lite/kernels/internal\types.h ****   TFLITE_CHECK_EQ(size_1, size_2);
 513:C:/Renesas/e2studio_2021_01_workspace_RZA2M_ANPR/ANPR_RZA2M_EBK/src/tensorflow_lite/tensorflow/lite/kernels/internal\types.h ****   TFLITE_CHECK_EQ(size_2, size_3);
 514:C:/Renesas/e2studio_2021_01_workspace_RZA2M_ANPR/ANPR_RZA2M_EBK/src/tensorflow_lite/tensorflow/lite/kernels/internal\types.h ****   return size_1;
 515:C:/Renesas/e2studio_2021_01_workspace_RZA2M_ANPR/ANPR_RZA2M_EBK/src/tensorflow_lite/tensorflow/lite/kernels/internal\types.h **** }
 516:C:/Renesas/e2studio_2021_01_workspace_RZA2M_ANPR/ANPR_RZA2M_EBK/src/tensorflow_lite/tensorflow/lite/kernels/internal\types.h **** 
 517:C:/Renesas/e2studio_2021_01_workspace_RZA2M_ANPR/ANPR_RZA2M_EBK/src/tensorflow_lite/tensorflow/lite/kernels/internal\types.h **** // Flat size calculation, checking that dimensions match with one or more other
 518:C:/Renesas/e2studio_2021_01_workspace_RZA2M_ANPR/ANPR_RZA2M_EBK/src/tensorflow_lite/tensorflow/lite/kernels/internal\types.h **** // arrays.
 519:C:/Renesas/e2studio_2021_01_workspace_RZA2M_ANPR/ANPR_RZA2M_EBK/src/tensorflow_lite/tensorflow/lite/kernels/internal\types.h **** inline int MatchingFlatSize(const RuntimeShape& shape,
 520:C:/Renesas/e2studio_2021_01_workspace_RZA2M_ANPR/ANPR_RZA2M_EBK/src/tensorflow_lite/tensorflow/lite/kernels/internal\types.h ****                             const RuntimeShape& check_shape_0) {
 521:C:/Renesas/e2studio_2021_01_workspace_RZA2M_ANPR/ANPR_RZA2M_EBK/src/tensorflow_lite/tensorflow/lite/kernels/internal\types.h ****   TFLITE_DCHECK_EQ(shape.DimensionsCount(), check_shape_0.DimensionsCount());
 499              		.loc 5 521 0
 500 0114 0E0052E1 		cmp	r2, lr
 501              	.LBE190:
 502              	.LBE189:
  36:C:/Renesas/e2studio_2021_01_workspace_RZA2M_ANPR/ANPR_RZA2M_EBK/src/tensorflow_lite/tensorflow/lite/kernels/internal/reference\dequantize.h ****   const double scale = op_params.scale;
 503              		.loc 4 36 0
 504 0118 001BD7ED 		vldr.64	d17, [r7]
 505              	.LVL62:
 506              	.LBB239:
 507              	.LBB234:
 508              		.loc 5 521 0
 509 011c 3A03001A 		bne	.L35
 510              	.LVL63:
 511              	.LBB191:
 522:C:/Renesas/e2studio_2021_01_workspace_RZA2M_ANPR/ANPR_RZA2M_EBK/src/tensorflow_lite/tensorflow/lite/kernels/internal\types.h ****   const int dims_count = shape.DimensionsCount();
 523:C:/Renesas/e2studio_2021_01_workspace_RZA2M_ANPR/ANPR_RZA2M_EBK/src/tensorflow_lite/tensorflow/lite/kernels/internal\types.h ****   for (int i = 0; i < dims_count; ++i) {
 512              		.loc 5 523 0
 513 0120 000052E3 		cmp	r2, #0
 514 0124 D80200DA 		ble	.L139
 515 0128 050052E3 		cmp	r2, #5
 516              	.LBB192:
 517              	.LBB193:
 216:C:/Renesas/e2studio_2021_01_workspace_RZA2M_ANPR/ANPR_RZA2M_EBK/src/tensorflow_lite/tensorflow/lite/kernels/internal\types.h ****   }
 518              		.loc 5 216 0
 519 012c 04809DE5 		ldr	r8, [sp, #4]
 520              	.LBE193:
 521              	.LBE192:
 522              	.LBB199:
 523              	.LBB200:
 524 0130 1C009DE5 		ldr	r0, [sp, #28]
 525 0134 D70200CA 		bgt	.L38
 526              	.LVL64:
 215:C:/Renesas/e2studio_2021_01_workspace_RZA2M_ANPR/ANPR_RZA2M_EBK/src/tensorflow_lite/tensorflow/lite/kernels/internal\types.h ****     return size_ > kMaxSmallSize ? dims_pointer_[i] : dims_[i];
 527              		.loc 5 215 0
 528 0138 000052E3 		cmp	r2, #0
 529 013c E20200DA 		ble	.L39
 530              	.LVL65:
 531              	.LBE200:
 532              	.LBE199:
 524:C:/Renesas/e2studio_2021_01_workspace_RZA2M_ANPR/ANPR_RZA2M_EBK/src/tensorflow_lite/tensorflow/lite/kernels/internal\types.h ****     TFLITE_DCHECK_EQ(shape.Dims(i), check_shape_0.Dims(i));
 533              		.loc 5 524 0
 534 0140 000058E1 		cmp	r8, r0
 535 0144 2A03001A 		bne	.L40
 536              	.LVL66:
 523:C:/Renesas/e2studio_2021_01_workspace_RZA2M_ANPR/ANPR_RZA2M_EBK/src/tensorflow_lite/tensorflow/lite/kernels/internal\types.h ****     TFLITE_DCHECK_EQ(shape.Dims(i), check_shape_0.Dims(i));
 537              		.loc 5 523 0
 538 0148 010052E3 		cmp	r2, #1
 539 014c CC02000A 		beq	.L232
 540              	.LVL67:
 541              	.LBB208:
 542              	.LBB194:
 216:C:/Renesas/e2studio_2021_01_workspace_RZA2M_ANPR/ANPR_RZA2M_EBK/src/tensorflow_lite/tensorflow/lite/kernels/internal\types.h ****   }
 543              		.loc 5 216 0
 544 0150 08009DE5 		ldr	r0, [sp, #8]
 545              	.LVL68:
 546              	.LBE194:
 547              	.LBE208:
 548              		.loc 5 524 0
 549 0154 20309DE5 		ldr	r3, [sp, #32]
 550 0158 030050E1 		cmp	r0, r3
 551 015c 2403001A 		bne	.L40
 552              	.LVL69:
 523:C:/Renesas/e2studio_2021_01_workspace_RZA2M_ANPR/ANPR_RZA2M_EBK/src/tensorflow_lite/tensorflow/lite/kernels/internal\types.h ****     TFLITE_DCHECK_EQ(shape.Dims(i), check_shape_0.Dims(i));
 553              		.loc 5 523 0
 554 0160 020052E3 		cmp	r2, #2
 555 0164 C602000A 		beq	.L232
 556              	.LVL70:
 557              	.LBB209:
 558              	.LBB195:
 216:C:/Renesas/e2studio_2021_01_workspace_RZA2M_ANPR/ANPR_RZA2M_EBK/src/tensorflow_lite/tensorflow/lite/kernels/internal\types.h ****   }
 559              		.loc 5 216 0
 560 0168 0C009DE5 		ldr	r0, [sp, #12]
 561              	.LVL71:
 562              	.LBE195:
 563              	.LBE209:
 564              		.loc 5 524 0
 565 016c 24309DE5 		ldr	r3, [sp, #36]
 566 0170 030050E1 		cmp	r0, r3
 567 0174 1E03001A 		bne	.L40
 568              	.LVL72:
 523:C:/Renesas/e2studio_2021_01_workspace_RZA2M_ANPR/ANPR_RZA2M_EBK/src/tensorflow_lite/tensorflow/lite/kernels/internal\types.h ****     TFLITE_DCHECK_EQ(shape.Dims(i), check_shape_0.Dims(i));
 569              		.loc 5 523 0
 570 0178 030052E3 		cmp	r2, #3
 571 017c C002000A 		beq	.L232
 572              	.LVL73:
 573              	.LBB210:
 574              	.LBB201:
 215:C:/Renesas/e2studio_2021_01_workspace_RZA2M_ANPR/ANPR_RZA2M_EBK/src/tensorflow_lite/tensorflow/lite/kernels/internal\types.h ****     return size_ > kMaxSmallSize ? dims_pointer_[i] : dims_[i];
 575              		.loc 5 215 0
 576 0180 03005EE3 		cmp	lr, #3
 577              	.LBE201:
 578              	.LBE210:
 579              	.LBB211:
 580              	.LBB196:
 216:C:/Renesas/e2studio_2021_01_workspace_RZA2M_ANPR/ANPR_RZA2M_EBK/src/tensorflow_lite/tensorflow/lite/kernels/internal\types.h ****   }
 581              		.loc 5 216 0
 582 0184 10009DE5 		ldr	r0, [sp, #16]
 583              	.LVL74:
 584              	.LBE196:
 585              	.LBE211:
 586              	.LBB212:
 587              	.LBB202:
 215:C:/Renesas/e2studio_2021_01_workspace_RZA2M_ANPR/ANPR_RZA2M_EBK/src/tensorflow_lite/tensorflow/lite/kernels/internal\types.h ****     return size_ > kMaxSmallSize ? dims_pointer_[i] : dims_[i];
 588              		.loc 5 215 0
 589 0188 CF02000A 		beq	.L39
 590              	.LVL75:
 591              	.LBE202:
 592              	.LBE212:
 593              		.loc 5 524 0
 594 018c 28309DE5 		ldr	r3, [sp, #40]
 595 0190 030050E1 		cmp	r0, r3
 596 0194 1603001A 		bne	.L40
 597              	.LVL76:
 523:C:/Renesas/e2studio_2021_01_workspace_RZA2M_ANPR/ANPR_RZA2M_EBK/src/tensorflow_lite/tensorflow/lite/kernels/internal\types.h ****     TFLITE_DCHECK_EQ(shape.Dims(i), check_shape_0.Dims(i));
 598              		.loc 5 523 0
 599 0198 040052E3 		cmp	r2, #4
 600 019c B802000A 		beq	.L232
 601              	.LVL77:
 602              	.LBB213:
 603              	.LBB203:
 215:C:/Renesas/e2studio_2021_01_workspace_RZA2M_ANPR/ANPR_RZA2M_EBK/src/tensorflow_lite/tensorflow/lite/kernels/internal\types.h ****     return size_ > kMaxSmallSize ? dims_pointer_[i] : dims_[i];
 604              		.loc 5 215 0
 605 01a0 04005EE3 		cmp	lr, #4
 606              	.LBE203:
 607              	.LBE213:
 608              	.LBB214:
 609              	.LBB197:
 216:C:/Renesas/e2studio_2021_01_workspace_RZA2M_ANPR/ANPR_RZA2M_EBK/src/tensorflow_lite/tensorflow/lite/kernels/internal\types.h ****   }
 610              		.loc 5 216 0
 611 01a4 14309DE5 		ldr	r3, [sp, #20]
 612              	.LVL78:
 613              	.LBE197:
 614              	.LBE214:
 615              	.LBB215:
 616              	.LBB204:
 215:C:/Renesas/e2studio_2021_01_workspace_RZA2M_ANPR/ANPR_RZA2M_EBK/src/tensorflow_lite/tensorflow/lite/kernels/internal\types.h ****     return size_ > kMaxSmallSize ? dims_pointer_[i] : dims_[i];
 617              		.loc 5 215 0
 618 01a8 C702000A 		beq	.L39
 619              	.LVL79:
 620              	.LBE204:
 621              	.LBE215:
 622              		.loc 5 524 0
 623 01ac 2C009DE5 		ldr	r0, [sp, #44]
 624 01b0 030050E1 		cmp	r0, r3
 625 01b4 0E03001A 		bne	.L40
 626              	.LVL80:
 627              	.L41:
 628              	.LBE191:
 629              	.LBB220:
 630              	.LBB221:
 631              	.LBB222:
 632              	.LBB223:
 232:C:/Renesas/e2studio_2021_01_workspace_RZA2M_ANPR/ANPR_RZA2M_EBK/src/tensorflow_lite/tensorflow/lite/kernels/internal\types.h ****   }
 633              		.loc 5 232 0
 634 01b8 050052E3 		cmp	r2, #5
 635 01bc 0870A0C1 		movgt	r7, r8
 636 01c0 AD0200DA 		ble	.L302
 637              	.LVL81:
 638              	.L45:
 639 01c4 5731A0E7 		sbfx	r3, r7, #2, #1
 640 01c8 033003E2 		and	r3, r3, #3
 641 01cc 020053E1 		cmp	r3, r2
 642 01d0 0230A021 		movcs	r3, r2
 643 01d4 080052E3 		cmp	r2, #8
 644              	.LBE223:
 645              	.LBE222:
 646              	.LBB224:
 292:C:/Renesas/e2studio_2021_01_workspace_RZA2M_ANPR/ANPR_RZA2M_EBK/src/tensorflow_lite/tensorflow/lite/kernels/internal\types.h ****       buffer_size *= dims_data[i];
 647              		.loc 5 292 0
 648 01d8 0230A0D1 		movle	r3, r2
 649 01dc F40200CA 		bgt	.L303
 650              	.L50:
 651 01e0 010053E3 		cmp	r3, #1
 293:C:/Renesas/e2studio_2021_01_workspace_RZA2M_ANPR/ANPR_RZA2M_EBK/src/tensorflow_lite/tensorflow/lite/kernels/internal\types.h ****     }
 652              		.loc 5 293 0
 653 01e4 005097E5 		ldr	r5, [r7]
 654              	.LVL82:
 655 01e8 A102000A 		beq	.L148
 656 01ec 040097E5 		ldr	r0, [r7, #4]
 657 01f0 020053E3 		cmp	r3, #2
 658 01f4 900505E0 		mul	r5, r0, r5
 659              	.LVL83:
 660 01f8 9D02000A 		beq	.L148
 661 01fc 080097E5 		ldr	r0, [r7, #8]
 662 0200 030053E3 		cmp	r3, #3
 663 0204 900505E0 		mul	r5, r0, r5
 664              	.LVL84:
 665 0208 9902000A 		beq	.L148
 666 020c 0C0097E5 		ldr	r0, [r7, #12]
 667 0210 040053E3 		cmp	r3, #4
 668 0214 900505E0 		mul	r5, r0, r5
 669              	.LVL85:
 670 0218 9502000A 		beq	.L148
 671 021c 100097E5 		ldr	r0, [r7, #16]
 672 0220 050053E3 		cmp	r3, #5
 673 0224 900505E0 		mul	r5, r0, r5
 674              	.LVL86:
 675 0228 9102000A 		beq	.L148
 676 022c 140097E5 		ldr	r0, [r7, #20]
 677 0230 060053E3 		cmp	r3, #6
 678 0234 900505E0 		mul	r5, r0, r5
 679              	.LVL87:
 680 0238 8D02000A 		beq	.L148
 681 023c 180097E5 		ldr	r0, [r7, #24]
 682 0240 070053E3 		cmp	r3, #7
 683 0244 900505E0 		mul	r5, r0, r5
 684              	.LVL88:
 685 0248 8902000A 		beq	.L148
 686 024c 1CC097E5 		ldr	ip, [r7, #28]
 292:C:/Renesas/e2studio_2021_01_workspace_RZA2M_ANPR/ANPR_RZA2M_EBK/src/tensorflow_lite/tensorflow/lite/kernels/internal\types.h ****       buffer_size *= dims_data[i];
 687              		.loc 5 292 0
 688 0250 0800A0E3 		mov	r0, #8
 293:C:/Renesas/e2studio_2021_01_workspace_RZA2M_ANPR/ANPR_RZA2M_EBK/src/tensorflow_lite/tensorflow/lite/kernels/internal\types.h ****     }
 689              		.loc 5 293 0
 690 0254 9C0505E0 		mul	r5, ip, r5
 691              	.LVL89:
 692              	.L52:
 693 0258 020053E1 		cmp	r3, r2
 694 025c 2800000A 		beq	.L53
 695              	.LVL90:
 696              	.L51:
 697 0260 038042E0 		sub	r8, r2, r3
 698 0264 019042E2 		sub	r9, r2, #1
 699 0268 04C048E2 		sub	ip, r8, #4
 700 026c 039049E0 		sub	r9, r9, r3
 701 0270 2CC1A0E1 		lsr	ip, ip, #2
 702 0274 020059E3 		cmp	r9, #2
 703 0278 01C08CE2 		add	ip, ip, #1
 704 027c 0CA1A0E1 		lsl	r10, ip, #2
 705 0280 1200009A 		bls	.L54
 706 0284 033187E0 		add	r3, r7, r3, lsl #2
 292:C:/Renesas/e2studio_2021_01_workspace_RZA2M_ANPR/ANPR_RZA2M_EBK/src/tensorflow_lite/tensorflow/lite/kernels/internal\types.h ****       buffer_size *= dims_data[i];
 707              		.loc 5 292 0
 708 0288 5140C0F2 		vmov.i32	q10, #1  @ v4si
 709 028c 0090A0E3 		mov	r9, #0
 710              	.L56:
 711 0290 019089E2 		add	r9, r9, #1
 293:C:/Renesas/e2studio_2021_01_workspace_RZA2M_ANPR/ANPR_RZA2M_EBK/src/tensorflow_lite/tensorflow/lite/kernels/internal\types.h ****     }
 712              		.loc 5 293 0
 713 0294 DF2A63F4 		vld1.64	{d18-d19}, [r3:64]
 714 0298 09005CE1 		cmp	ip, r9
 715 029c 103083E2 		add	r3, r3, #16
 716 02a0 F24964F2 		vmul.i32	q10, q10, q9
 717 02a4 F9FFFF8A 		bhi	.L56
 718 02a8 08005AE1 		cmp	r10, r8
 719 02ac 0A0080E0 		add	r0, r0, r10
 720 02b0 5020C0F2 		vmov.i32	q9, #0  @ v4si
 721 02b4 E268F4F2 		vext.32	q11, q10, q9, #2
 722 02b8 F44966F2 		vmul.i32	q10, q11, q10
 723 02bc E224F4F2 		vext.32	q9, q10, q9, #1
 724 02c0 F42962F2 		vmul.i32	q9, q9, q10
 725 02c4 903B12EE 		vmov.32	r3, d18[0]
 726 02c8 930505E0 		mul	r5, r3, r5
 727 02cc 0C00000A 		beq	.L53
 728              	.L54:
 729              	.LVL91:
 730 02d0 00C197E7 		ldr	ip, [r7, r0, lsl #2]
 292:C:/Renesas/e2studio_2021_01_workspace_RZA2M_ANPR/ANPR_RZA2M_EBK/src/tensorflow_lite/tensorflow/lite/kernels/internal\types.h ****       buffer_size *= dims_data[i];
 731              		.loc 5 292 0
 732 02d4 013080E2 		add	r3, r0, #1
 733 02d8 030052E1 		cmp	r2, r3
 293:C:/Renesas/e2studio_2021_01_workspace_RZA2M_ANPR/ANPR_RZA2M_EBK/src/tensorflow_lite/tensorflow/lite/kernels/internal\types.h ****     }
 734              		.loc 5 293 0
 735 02dc 0031A0E1 		lsl	r3, r0, #2
 736 02e0 9C0505E0 		mul	r5, ip, r5
 737              	.LVL92:
 292:C:/Renesas/e2studio_2021_01_workspace_RZA2M_ANPR/ANPR_RZA2M_EBK/src/tensorflow_lite/tensorflow/lite/kernels/internal\types.h ****       buffer_size *= dims_data[i];
 738              		.loc 5 292 0
 739 02e4 060000DA 		ble	.L53
 293:C:/Renesas/e2studio_2021_01_workspace_RZA2M_ANPR/ANPR_RZA2M_EBK/src/tensorflow_lite/tensorflow/lite/kernels/internal\types.h ****     }
 740              		.loc 5 293 0
 741 02e8 033087E0 		add	r3, r7, r3
 292:C:/Renesas/e2studio_2021_01_workspace_RZA2M_ANPR/ANPR_RZA2M_EBK/src/tensorflow_lite/tensorflow/lite/kernels/internal\types.h ****       buffer_size *= dims_data[i];
 742              		.loc 5 292 0
 743 02ec 020080E2 		add	r0, r0, #2
 293:C:/Renesas/e2studio_2021_01_workspace_RZA2M_ANPR/ANPR_RZA2M_EBK/src/tensorflow_lite/tensorflow/lite/kernels/internal\types.h ****     }
 744              		.loc 5 293 0
 745 02f0 04C093E5 		ldr	ip, [r3, #4]
 292:C:/Renesas/e2studio_2021_01_workspace_RZA2M_ANPR/ANPR_RZA2M_EBK/src/tensorflow_lite/tensorflow/lite/kernels/internal\types.h ****       buffer_size *= dims_data[i];
 746              		.loc 5 292 0
 747 02f4 000052E1 		cmp	r2, r0
 293:C:/Renesas/e2studio_2021_01_workspace_RZA2M_ANPR/ANPR_RZA2M_EBK/src/tensorflow_lite/tensorflow/lite/kernels/internal\types.h ****     }
 748              		.loc 5 293 0
 749 02f8 9C0505E0 		mul	r5, ip, r5
 750              	.LVL93:
 292:C:/Renesas/e2studio_2021_01_workspace_RZA2M_ANPR/ANPR_RZA2M_EBK/src/tensorflow_lite/tensorflow/lite/kernels/internal\types.h ****       buffer_size *= dims_data[i];
 751              		.loc 5 292 0
 293:C:/Renesas/e2studio_2021_01_workspace_RZA2M_ANPR/ANPR_RZA2M_EBK/src/tensorflow_lite/tensorflow/lite/kernels/internal\types.h ****     }
 752              		.loc 5 293 0
 753 02fc 083093C5 		ldrgt	r3, [r3, #8]
 754 0300 930505C0 		mulgt	r5, r3, r5
 755              	.LVL94:
 756              	.L53:
 757              	.LBE224:
 758              	.LBE221:
 759              	.LBE220:
 760              	.LBE234:
 761              	.LBE239:
 762              	.LBB240:
  37:C:/Renesas/e2studio_2021_01_workspace_RZA2M_ANPR/ANPR_RZA2M_EBK/src/tensorflow_lite/tensorflow/lite/kernels/internal/reference\dequantize.h ****   const int flat_size = MatchingFlatSize(input_shape, output_shape);
  38:C:/Renesas/e2studio_2021_01_workspace_RZA2M_ANPR/ANPR_RZA2M_EBK/src/tensorflow_lite/tensorflow/lite/kernels/internal/reference\dequantize.h **** 
  39:C:/Renesas/e2studio_2021_01_workspace_RZA2M_ANPR/ANPR_RZA2M_EBK/src/tensorflow_lite/tensorflow/lite/kernels/internal/reference\dequantize.h ****   for (int i = 0; i < flat_size; i++) {
 763              		.loc 4 39 0
 764 0304 000055E3 		cmp	r5, #0
 765 0308 520000DA 		ble	.L120
 766 030c 080055E3 		cmp	r5, #8
 767 0310 BB0200DA 		ble	.L149
 768 0314 097045E2 		sub	r7, r5, #9
 769 0318 132084E2 		add	r2, r4, #19
 770 031c 0770C7E3 		bic	r7, r7, #7
 771 0320 4C3086E2 		add	r3, r6, #76
 772 0324 087087E2 		add	r7, r7, #8
 773 0328 00C0A0E3 		mov	ip, #0
 774              	.LVL95:
 775              	.L60:
 776              	.LBB241:
  40:C:/Renesas/e2studio_2021_01_workspace_RZA2M_ANPR/ANPR_RZA2M_EBK/src/tensorflow_lite/tensorflow/lite/kernels/internal/reference\dequantize.h ****     const int32_t val = input_data[i];
 777              		.loc 4 40 0
 778 032c 130052E5 		ldrb	r0, [r2, #-19]	@ zero_extendqisi2
 779 0330 08C08CE2 		add	ip, ip, #8
 780              	.LVL96:
 781 0334 00F0D2F5 		pld	[r2]
 782              	.LVL97:
 783 0338 0C0057E1 		cmp	r7, ip
 784 033c 00F0D3F5 		pld	[r3]
 785 0340 082082E2 		add	r2, r2, #8
  41:C:/Renesas/e2studio_2021_01_workspace_RZA2M_ANPR/ANPR_RZA2M_EBK/src/tensorflow_lite/tensorflow/lite/kernels/internal/reference\dequantize.h ****     const OutputT result = static_cast<OutputT>(scale * (val - zero_point));
 786              		.loc 4 41 0
 787 0344 010040E0 		sub	r0, r0, r1
 788              	.LVL98:
 789 0348 203083E2 		add	r3, r3, #32
 790 034c 900A07EE 		vmov	s15, r0	@ int
 791 0350 E70BF8EE 		vcvt.f64.s32	d16, s15
 792 0354 A10B60EE 		vmul.f64	d16, d16, d17
 793 0358 E07BF7EE 		vcvt.f32.f64	s15, d16
 794 035c 1B7A43ED 		vstr.32	s15, [r3, #-108]
 795              	.LVL99:
  40:C:/Renesas/e2studio_2021_01_workspace_RZA2M_ANPR/ANPR_RZA2M_EBK/src/tensorflow_lite/tensorflow/lite/kernels/internal/reference\dequantize.h ****     const int32_t val = input_data[i];
 796              		.loc 4 40 0
 797 0360 1A0052E5 		ldrb	r0, [r2, #-26]	@ zero_extendqisi2
 798              		.loc 4 41 0
 799 0364 010040E0 		sub	r0, r0, r1
 800 0368 900A07EE 		vmov	s15, r0	@ int
 801 036c E70BF8EE 		vcvt.f64.s32	d16, s15
 802 0370 A10B60EE 		vmul.f64	d16, d16, d17
 803 0374 E07BF7EE 		vcvt.f32.f64	s15, d16
 804 0378 1A7A43ED 		vstr.32	s15, [r3, #-104]
  40:C:/Renesas/e2studio_2021_01_workspace_RZA2M_ANPR/ANPR_RZA2M_EBK/src/tensorflow_lite/tensorflow/lite/kernels/internal/reference\dequantize.h ****     const int32_t val = input_data[i];
 805              		.loc 4 40 0
 806 037c 190052E5 		ldrb	r0, [r2, #-25]	@ zero_extendqisi2
 807              		.loc 4 41 0
 808 0380 010040E0 		sub	r0, r0, r1
 809 0384 900A07EE 		vmov	s15, r0	@ int
 810 0388 E70BF8EE 		vcvt.f64.s32	d16, s15
 811 038c A10B60EE 		vmul.f64	d16, d16, d17
 812 0390 E07BF7EE 		vcvt.f32.f64	s15, d16
 813 0394 197A43ED 		vstr.32	s15, [r3, #-100]
  40:C:/Renesas/e2studio_2021_01_workspace_RZA2M_ANPR/ANPR_RZA2M_EBK/src/tensorflow_lite/tensorflow/lite/kernels/internal/reference\dequantize.h ****     const int32_t val = input_data[i];
 814              		.loc 4 40 0
 815 0398 180052E5 		ldrb	r0, [r2, #-24]	@ zero_extendqisi2
 816              		.loc 4 41 0
 817 039c 010040E0 		sub	r0, r0, r1
 818 03a0 900A07EE 		vmov	s15, r0	@ int
 819 03a4 E70BF8EE 		vcvt.f64.s32	d16, s15
 820 03a8 A10B60EE 		vmul.f64	d16, d16, d17
 821 03ac E07BF7EE 		vcvt.f32.f64	s15, d16
 822 03b0 187A43ED 		vstr.32	s15, [r3, #-96]
  40:C:/Renesas/e2studio_2021_01_workspace_RZA2M_ANPR/ANPR_RZA2M_EBK/src/tensorflow_lite/tensorflow/lite/kernels/internal/reference\dequantize.h ****     const int32_t val = input_data[i];
 823              		.loc 4 40 0
 824 03b4 170052E5 		ldrb	r0, [r2, #-23]	@ zero_extendqisi2
 825              		.loc 4 41 0
 826 03b8 010040E0 		sub	r0, r0, r1
 827 03bc 900A07EE 		vmov	s15, r0	@ int
 828 03c0 E70BF8EE 		vcvt.f64.s32	d16, s15
 829 03c4 A10B60EE 		vmul.f64	d16, d16, d17
 830 03c8 E07BF7EE 		vcvt.f32.f64	s15, d16
 831 03cc 177A43ED 		vstr.32	s15, [r3, #-92]
  40:C:/Renesas/e2studio_2021_01_workspace_RZA2M_ANPR/ANPR_RZA2M_EBK/src/tensorflow_lite/tensorflow/lite/kernels/internal/reference\dequantize.h ****     const int32_t val = input_data[i];
 832              		.loc 4 40 0
 833 03d0 160052E5 		ldrb	r0, [r2, #-22]	@ zero_extendqisi2
 834              		.loc 4 41 0
 835 03d4 010040E0 		sub	r0, r0, r1
 836 03d8 900A07EE 		vmov	s15, r0	@ int
 837 03dc E70BF8EE 		vcvt.f64.s32	d16, s15
 838 03e0 A10B60EE 		vmul.f64	d16, d16, d17
 839 03e4 E07BF7EE 		vcvt.f32.f64	s15, d16
 840 03e8 167A43ED 		vstr.32	s15, [r3, #-88]
  40:C:/Renesas/e2studio_2021_01_workspace_RZA2M_ANPR/ANPR_RZA2M_EBK/src/tensorflow_lite/tensorflow/lite/kernels/internal/reference\dequantize.h ****     const int32_t val = input_data[i];
 841              		.loc 4 40 0
 842 03ec 150052E5 		ldrb	r0, [r2, #-21]	@ zero_extendqisi2
 843              		.loc 4 41 0
 844 03f0 010040E0 		sub	r0, r0, r1
 845 03f4 900A07EE 		vmov	s15, r0	@ int
 846 03f8 E70BF8EE 		vcvt.f64.s32	d16, s15
 847 03fc A10B60EE 		vmul.f64	d16, d16, d17
 848 0400 E07BF7EE 		vcvt.f32.f64	s15, d16
 849 0404 157A43ED 		vstr.32	s15, [r3, #-84]
 850              	.LVL100:
  40:C:/Renesas/e2studio_2021_01_workspace_RZA2M_ANPR/ANPR_RZA2M_EBK/src/tensorflow_lite/tensorflow/lite/kernels/internal/reference\dequantize.h ****     const int32_t val = input_data[i];
 851              		.loc 4 40 0
 852 0408 140052E5 		ldrb	r0, [r2, #-20]	@ zero_extendqisi2
 853              		.loc 4 41 0
 854 040c 010040E0 		sub	r0, r0, r1
 855 0410 900A07EE 		vmov	s15, r0	@ int
 856 0414 E70BF8EE 		vcvt.f64.s32	d16, s15
 857 0418 A10B60EE 		vmul.f64	d16, d16, d17
 858 041c E07BF7EE 		vcvt.f32.f64	s15, d16
 859 0420 147A43ED 		vstr.32	s15, [r3, #-80]
 860 0424 C0FFFF1A 		bne	.L60
 861              	.LVL101:
 862              	.L46:
 863 0428 0C6186E0 		add	r6, r6, ip, lsl #2
 864              	.LVL102:
 865 042c 0CC084E0 		add	ip, r4, ip
 866              	.L62:
 867              	.LVL103:
  40:C:/Renesas/e2studio_2021_01_workspace_RZA2M_ANPR/ANPR_RZA2M_EBK/src/tensorflow_lite/tensorflow/lite/kernels/internal/reference\dequantize.h ****     const int32_t val = input_data[i];
 868              		.loc 4 40 0
 869 0430 0130DCE4 		ldrb	r3, [ip], #1	@ zero_extendqisi2
 870              	.LVL104:
 871              		.loc 4 41 0
 872 0434 013043E0 		sub	r3, r3, r1
 873              	.LVL105:
 874              	.LBE241:
  39:C:/Renesas/e2studio_2021_01_workspace_RZA2M_ANPR/ANPR_RZA2M_EBK/src/tensorflow_lite/tensorflow/lite/kernels/internal/reference\dequantize.h ****     const int32_t val = input_data[i];
 875              		.loc 4 39 0
 876 0438 04204CE0 		sub	r2, ip, r4
 877 043c 020055E1 		cmp	r5, r2
 878              	.LBB242:
 879              		.loc 4 41 0
 880 0440 903A07EE 		vmov	s15, r3	@ int
 881 0444 E70BF8EE 		vcvt.f64.s32	d16, s15
 882 0448 A10B60EE 		vmul.f64	d16, d16, d17
 883 044c E07BF7EE 		vcvt.f32.f64	s15, d16
 884 0450 017AE6EC 		vstmia.32	r6!, {s15}
 885              	.LVL106:
 886              	.LBE242:
  39:C:/Renesas/e2studio_2021_01_workspace_RZA2M_ANPR/ANPR_RZA2M_EBK/src/tensorflow_lite/tensorflow/lite/kernels/internal/reference\dequantize.h ****     const int32_t val = input_data[i];
 887              		.loc 4 39 0
 888 0454 F5FFFFCA 		bgt	.L62
 889              	.LVL107:
 890              	.L120:
 891              	.LBE240:
 892              	.LBE188:
 893              	.LBE187:
 894              	.LBB252:
 895              	.LBB253:
 203:C:/Renesas/e2studio_2021_01_workspace_RZA2M_ANPR/ANPR_RZA2M_EBK/src/tensorflow_lite/tensorflow/lite/kernels/internal\types.h **** #ifdef TF_LITE_STATIC_MEMORY
 896              		.loc 5 203 0
 897 0458 05005EE3 		cmp	lr, #5
 898 045c 0A0000DA 		ble	.L123
 899              	.LVL108:
 900              	.L107:
 207:C:/Renesas/e2studio_2021_01_workspace_RZA2M_ANPR/ANPR_RZA2M_EBK/src/tensorflow_lite/tensorflow/lite/kernels/internal\types.h **** #endif  // TF_LITE_STATIC_MEMORY
 901              		.loc 5 207 0
 902 0460 1C009DE5 		ldr	r0, [sp, #28]
 903 0464 000050E3 		cmp	r0, #0
 904 0468 0300000A 		beq	.L138
 905 046c FEFFFFEB 		bl	_ZdaPv
 906              	.LVL109:
 907 0470 00309DE5 		ldr	r3, [sp]
 908              	.LVL110:
 909              	.LBE253:
 910              	.LBE252:
 911              	.LBB254:
 912              	.LBB255:
 203:C:/Renesas/e2studio_2021_01_workspace_RZA2M_ANPR/ANPR_RZA2M_EBK/src/tensorflow_lite/tensorflow/lite/kernels/internal\types.h **** #ifdef TF_LITE_STATIC_MEMORY
 913              		.loc 5 203 0
 914 0474 050053E3 		cmp	r3, #5
 915 0478 030000DA 		ble	.L123
 916              	.LVL111:
 917              	.L138:
 207:C:/Renesas/e2studio_2021_01_workspace_RZA2M_ANPR/ANPR_RZA2M_EBK/src/tensorflow_lite/tensorflow/lite/kernels/internal\types.h **** #endif  // TF_LITE_STATIC_MEMORY
 918              		.loc 5 207 0
 919 047c 04009DE5 		ldr	r0, [sp, #4]
 920 0480 000050E3 		cmp	r0, #0
 921 0484 0000000A 		beq	.L123
 922 0488 FEFFFFEB 		bl	_ZdaPv
 923              	.LVL112:
 924              	.L123:
 925              	.LBE255:
 926              	.LBE254:
 121:../src/tensorflow_lite/tensorflow/lite/micro/kernels/dequantize.cc **** }
 927              		.loc 1 121 0
 928 048c 0000A0E3 		mov	r0, #0
 929              		.loc 1 122 0
 930 0490 30D08DE2 		add	sp, sp, #48
 931              		.cfi_remember_state
 932              		.cfi_def_cfa_offset 32
 933              		@ sp needed
 934 0494 F087BDE8 		pop	{r4, r5, r6, r7, r8, r9, r10, pc}
 935              	.LVL113:
 936              	.L33:
 937              		.cfi_restore_state
  96:../src/tensorflow_lite/tensorflow/lite/micro/kernels/dequantize.cc ****                                   tflite::micro::GetTensorData<int8_t>(input),
 938              		.loc 1 96 0
 939 0498 0810A0E1 		mov	r1, r8
 940 049c 0D00A0E1 		mov	r0, sp
 941              	.LEHB2:
 942 04a0 FEFFFFEB 		bl	_ZN6tflite5micro14GetTensorShapeEPK16TfLiteEvalTensor
 943              	.LVL114:
 944              	.LEHE2:
  98:../src/tensorflow_lite/tensorflow/lite/micro/kernels/dequantize.cc ****                                   tflite::micro::GetTensorData<float>(output));
 945              		.loc 1 98 0
 946 04a4 0610A0E1 		mov	r1, r6
 947 04a8 18008DE2 		add	r0, sp, #24
 948              	.LBB256:
 949              	.LBB257:
 950              		.loc 3 63 0
 951 04ac 004098E5 		ldr	r4, [r8]
 952              	.LVL115:
 953              	.LEHB3:
 954              	.LBE257:
 955              	.LBE256:
  98:../src/tensorflow_lite/tensorflow/lite/micro/kernels/dequantize.cc ****                                   tflite::micro::GetTensorData<float>(output));
 956              		.loc 1 98 0
 957 04b0 FEFFFFEB 		bl	_ZN6tflite5micro14GetTensorShapeEPK16TfLiteEvalTensor
 958              	.LVL116:
 959              	.LEHE3:
 960 04b4 00209DE5 		ldr	r2, [sp]
 961 04b8 18509DE5 		ldr	r5, [sp, #24]
 962              	.LBB258:
 963              	.LBB259:
  56:C:/Renesas/e2studio_2021_01_workspace_RZA2M_ANPR/ANPR_RZA2M_EBK/src/tensorflow_lite/tensorflow/lite/micro/kernels\kernel_util.h **** }
 964              		.loc 3 56 0
 965 04bc 006096E5 		ldr	r6, [r6]
 966              	.LVL117:
 967              	.LBE259:
 968              	.LBE258:
 969              	.LBB260:
 970              	.LBB261:
  35:C:/Renesas/e2studio_2021_01_workspace_RZA2M_ANPR/ANPR_RZA2M_EBK/src/tensorflow_lite/tensorflow/lite/kernels/internal/reference\dequantize.h ****   const double scale = op_params.scale;
 971              		.loc 4 35 0
 972 04c0 081097E5 		ldr	r1, [r7, #8]
 973              	.LVL118:
 974              	.LBB262:
 975              	.LBB263:
 521:C:/Renesas/e2studio_2021_01_workspace_RZA2M_ANPR/ANPR_RZA2M_EBK/src/tensorflow_lite/tensorflow/lite/kernels/internal\types.h ****   const int dims_count = shape.DimensionsCount();
 976              		.loc 5 521 0
 977 04c4 050052E1 		cmp	r2, r5
 978              	.LBE263:
 979              	.LBE262:
  36:C:/Renesas/e2studio_2021_01_workspace_RZA2M_ANPR/ANPR_RZA2M_EBK/src/tensorflow_lite/tensorflow/lite/kernels/internal/reference\dequantize.h ****   const int flat_size = MatchingFlatSize(input_shape, output_shape);
 980              		.loc 4 36 0
 981 04c8 001BD7ED 		vldr.64	d17, [r7]
 982              	.LVL119:
 983              	.LBB322:
 984              	.LBB316:
 521:C:/Renesas/e2studio_2021_01_workspace_RZA2M_ANPR/ANPR_RZA2M_EBK/src/tensorflow_lite/tensorflow/lite/kernels/internal\types.h ****   const int dims_count = shape.DimensionsCount();
 985              		.loc 5 521 0
 986 04cc 5102001A 		bne	.L66
 987              	.LVL120:
 988              	.LBB264:
 523:C:/Renesas/e2studio_2021_01_workspace_RZA2M_ANPR/ANPR_RZA2M_EBK/src/tensorflow_lite/tensorflow/lite/kernels/internal\types.h ****     TFLITE_DCHECK_EQ(shape.Dims(i), check_shape_0.Dims(i));
 989              		.loc 5 523 0
 990 04d0 000052E3 		cmp	r2, #0
 991 04d4 400200DA 		ble	.L156
 992 04d8 050052E3 		cmp	r2, #5
 993              	.LBB265:
 994              	.LBB266:
 216:C:/Renesas/e2studio_2021_01_workspace_RZA2M_ANPR/ANPR_RZA2M_EBK/src/tensorflow_lite/tensorflow/lite/kernels/internal\types.h ****   }
 995              		.loc 5 216 0
 996 04dc 04809DE5 		ldr	r8, [sp, #4]
 997              	.LBE266:
 998              	.LBE265:
 999              	.LBB272:
 1000              	.LBB273:
 1001 04e0 1C009DE5 		ldr	r0, [sp, #28]
 1002 04e4 1C0200CA 		bgt	.L69
 1003              	.LVL121:
 215:C:/Renesas/e2studio_2021_01_workspace_RZA2M_ANPR/ANPR_RZA2M_EBK/src/tensorflow_lite/tensorflow/lite/kernels/internal\types.h ****     return size_ > kMaxSmallSize ? dims_pointer_[i] : dims_[i];
 1004              		.loc 5 215 0
 1005 04e8 000052E3 		cmp	r2, #0
 1006 04ec 3E0200DA 		ble	.L70
 1007              	.LVL122:
 1008              	.LBE273:
 1009              	.LBE272:
 1010              		.loc 5 524 0
 1011 04f0 000058E1 		cmp	r8, r0
 1012 04f4 3A02001A 		bne	.L71
 1013              	.LVL123:
 523:C:/Renesas/e2studio_2021_01_workspace_RZA2M_ANPR/ANPR_RZA2M_EBK/src/tensorflow_lite/tensorflow/lite/kernels/internal\types.h ****     TFLITE_DCHECK_EQ(shape.Dims(i), check_shape_0.Dims(i));
 1014              		.loc 5 523 0
 1015 04f8 010052E3 		cmp	r2, #1
 1016 04fc 1900000A 		beq	.L155
 1017              	.LVL124:
 1018              	.LBB281:
 1019              	.LBB267:
 216:C:/Renesas/e2studio_2021_01_workspace_RZA2M_ANPR/ANPR_RZA2M_EBK/src/tensorflow_lite/tensorflow/lite/kernels/internal\types.h ****   }
 1020              		.loc 5 216 0
 1021 0500 08009DE5 		ldr	r0, [sp, #8]
 1022              	.LVL125:
 1023              	.LBE267:
 1024              	.LBE281:
 1025              		.loc 5 524 0
 1026 0504 20309DE5 		ldr	r3, [sp, #32]
 1027 0508 030050E1 		cmp	r0, r3
 1028 050c 3402001A 		bne	.L71
 1029              	.LVL126:
 523:C:/Renesas/e2studio_2021_01_workspace_RZA2M_ANPR/ANPR_RZA2M_EBK/src/tensorflow_lite/tensorflow/lite/kernels/internal\types.h ****     TFLITE_DCHECK_EQ(shape.Dims(i), check_shape_0.Dims(i));
 1030              		.loc 5 523 0
 1031 0510 020052E3 		cmp	r2, #2
 1032 0514 1300000A 		beq	.L155
 1033              	.LVL127:
 1034              	.LBB282:
 1035              	.LBB268:
 216:C:/Renesas/e2studio_2021_01_workspace_RZA2M_ANPR/ANPR_RZA2M_EBK/src/tensorflow_lite/tensorflow/lite/kernels/internal\types.h ****   }
 1036              		.loc 5 216 0
 1037 0518 0C009DE5 		ldr	r0, [sp, #12]
 1038              	.LVL128:
 1039              	.LBE268:
 1040              	.LBE282:
 1041              		.loc 5 524 0
 1042 051c 24309DE5 		ldr	r3, [sp, #36]
 1043 0520 030050E1 		cmp	r0, r3
 1044 0524 2E02001A 		bne	.L71
 1045              	.LVL129:
 523:C:/Renesas/e2studio_2021_01_workspace_RZA2M_ANPR/ANPR_RZA2M_EBK/src/tensorflow_lite/tensorflow/lite/kernels/internal\types.h ****     TFLITE_DCHECK_EQ(shape.Dims(i), check_shape_0.Dims(i));
 1046              		.loc 5 523 0
 1047 0528 030052E3 		cmp	r2, #3
 1048 052c 0D00000A 		beq	.L155
 1049              	.LVL130:
 1050              	.LBB283:
 1051              	.LBB274:
 215:C:/Renesas/e2studio_2021_01_workspace_RZA2M_ANPR/ANPR_RZA2M_EBK/src/tensorflow_lite/tensorflow/lite/kernels/internal\types.h ****     return size_ > kMaxSmallSize ? dims_pointer_[i] : dims_[i];
 1052              		.loc 5 215 0
 1053 0530 030055E3 		cmp	r5, #3
 1054              	.LBE274:
 1055              	.LBE283:
 1056              	.LBB284:
 1057              	.LBB269:
 216:C:/Renesas/e2studio_2021_01_workspace_RZA2M_ANPR/ANPR_RZA2M_EBK/src/tensorflow_lite/tensorflow/lite/kernels/internal\types.h ****   }
 1058              		.loc 5 216 0
 1059 0534 10009DE5 		ldr	r0, [sp, #16]
 1060              	.LVL131:
 1061              	.LBE269:
 1062              	.LBE284:
 1063              	.LBB285:
 1064              	.LBB275:
 215:C:/Renesas/e2studio_2021_01_workspace_RZA2M_ANPR/ANPR_RZA2M_EBK/src/tensorflow_lite/tensorflow/lite/kernels/internal\types.h ****     return size_ > kMaxSmallSize ? dims_pointer_[i] : dims_[i];
 1065              		.loc 5 215 0
 1066 0538 2B02000A 		beq	.L70
 1067              	.LVL132:
 1068              	.LBE275:
 1069              	.LBE285:
 1070              		.loc 5 524 0
 1071 053c 28309DE5 		ldr	r3, [sp, #40]
 1072 0540 030050E1 		cmp	r0, r3
 1073 0544 2602001A 		bne	.L71
 1074              	.LVL133:
 523:C:/Renesas/e2studio_2021_01_workspace_RZA2M_ANPR/ANPR_RZA2M_EBK/src/tensorflow_lite/tensorflow/lite/kernels/internal\types.h ****     TFLITE_DCHECK_EQ(shape.Dims(i), check_shape_0.Dims(i));
 1075              		.loc 5 523 0
 1076 0548 040052E3 		cmp	r2, #4
 1077 054c 0500000A 		beq	.L155
 1078              	.LVL134:
 1079              	.LBB286:
 1080              	.LBB276:
 215:C:/Renesas/e2studio_2021_01_workspace_RZA2M_ANPR/ANPR_RZA2M_EBK/src/tensorflow_lite/tensorflow/lite/kernels/internal\types.h ****     return size_ > kMaxSmallSize ? dims_pointer_[i] : dims_[i];
 1081              		.loc 5 215 0
 1082 0550 040055E3 		cmp	r5, #4
 1083              	.LBE276:
 1084              	.LBE286:
 1085              	.LBB287:
 1086              	.LBB270:
 216:C:/Renesas/e2studio_2021_01_workspace_RZA2M_ANPR/ANPR_RZA2M_EBK/src/tensorflow_lite/tensorflow/lite/kernels/internal\types.h ****   }
 1087              		.loc 5 216 0
 1088 0554 14309DE5 		ldr	r3, [sp, #20]
 1089              	.LVL135:
 1090              	.LBE270:
 1091              	.LBE287:
 1092              	.LBB288:
 1093              	.LBB277:
 215:C:/Renesas/e2studio_2021_01_workspace_RZA2M_ANPR/ANPR_RZA2M_EBK/src/tensorflow_lite/tensorflow/lite/kernels/internal\types.h ****     return size_ > kMaxSmallSize ? dims_pointer_[i] : dims_[i];
 1094              		.loc 5 215 0
 1095 0558 2302000A 		beq	.L70
 1096              	.LVL136:
 1097              	.LBE277:
 1098              	.LBE288:
 1099              		.loc 5 524 0
 1100 055c 2C009DE5 		ldr	r0, [sp, #44]
 1101 0560 030050E1 		cmp	r0, r3
 1102 0564 1E02001A 		bne	.L71
 1103              	.LVL137:
 1104              	.L155:
 1105              	.LBE264:
 1106              	.LBB293:
 1107              	.LBB294:
 1108              	.LBB295:
 1109              	.LBB296:
 232:C:/Renesas/e2studio_2021_01_workspace_RZA2M_ANPR/ANPR_RZA2M_EBK/src/tensorflow_lite/tensorflow/lite/kernels/internal\types.h ****   }
 1110              		.loc 5 232 0
 1111 0568 04808DE2 		add	r8, sp, #4
 1112              	.LVL138:
 1113              	.L72:
 1114 056c 5831A0E7 		sbfx	r3, r8, #2, #1
 1115 0570 033003E2 		and	r3, r3, #3
 1116 0574 020053E1 		cmp	r3, r2
 1117 0578 0230A021 		movcs	r3, r2
 1118 057c 080052E3 		cmp	r2, #8
 1119 0580 0230A091 		movls	r3, r2
 1120 0584 000053E3 		cmp	r3, #0
 1121 0588 0E02000A 		beq	.L158
 1122 058c 010053E3 		cmp	r3, #1
 1123              	.LBE296:
 1124              	.LBE295:
 1125              	.LBB299:
 293:C:/Renesas/e2studio_2021_01_workspace_RZA2M_ANPR/ANPR_RZA2M_EBK/src/tensorflow_lite/tensorflow/lite/kernels/internal\types.h ****     }
 1126              		.loc 5 293 0
 1127 0590 00E098E5 		ldr	lr, [r8]
 1128              	.LVL139:
 1129 0594 B401000A 		beq	.L165
 1130 0598 040098E5 		ldr	r0, [r8, #4]
 1131 059c 020053E3 		cmp	r3, #2
 1132 05a0 900E0EE0 		mul	lr, r0, lr
 1133              	.LVL140:
 1134 05a4 B001000A 		beq	.L165
 1135 05a8 080098E5 		ldr	r0, [r8, #8]
 1136 05ac 030053E3 		cmp	r3, #3
 1137 05b0 900E0EE0 		mul	lr, r0, lr
 1138              	.LVL141:
 1139 05b4 AC01000A 		beq	.L165
 1140 05b8 0C0098E5 		ldr	r0, [r8, #12]
 1141 05bc 040053E3 		cmp	r3, #4
 1142 05c0 900E0EE0 		mul	lr, r0, lr
 1143              	.LVL142:
 1144 05c4 A801000A 		beq	.L165
 1145 05c8 100098E5 		ldr	r0, [r8, #16]
 1146 05cc 050053E3 		cmp	r3, #5
 1147 05d0 900E0EE0 		mul	lr, r0, lr
 1148              	.LVL143:
 1149 05d4 A401000A 		beq	.L165
 1150 05d8 140098E5 		ldr	r0, [r8, #20]
 1151 05dc 060053E3 		cmp	r3, #6
 1152 05e0 900E0EE0 		mul	lr, r0, lr
 1153              	.LVL144:
 1154 05e4 A001000A 		beq	.L165
 1155 05e8 180098E5 		ldr	r0, [r8, #24]
 1156 05ec 070053E3 		cmp	r3, #7
 1157 05f0 900E0EE0 		mul	lr, r0, lr
 1158              	.LVL145:
 1159 05f4 9C01000A 		beq	.L165
 1160 05f8 1C0098E5 		ldr	r0, [r8, #28]
 292:C:/Renesas/e2studio_2021_01_workspace_RZA2M_ANPR/ANPR_RZA2M_EBK/src/tensorflow_lite/tensorflow/lite/kernels/internal\types.h ****       buffer_size *= dims_data[i];
 1161              		.loc 5 292 0
 1162 05fc 0870A0E3 		mov	r7, #8
 293:C:/Renesas/e2studio_2021_01_workspace_RZA2M_ANPR/ANPR_RZA2M_EBK/src/tensorflow_lite/tensorflow/lite/kernels/internal\types.h ****     }
 1163              		.loc 5 293 0
 1164 0600 900E0EE0 		mul	lr, r0, lr
 1165              	.LVL146:
 1166              	.L82:
 1167 0604 030052E1 		cmp	r2, r3
 1168 0608 2800000A 		beq	.L83
 1169              	.LVL147:
 1170              	.L81:
 1171 060c 030042E0 		sub	r0, r2, r3
 1172 0610 019042E2 		sub	r9, r2, #1
 1173 0614 04C040E2 		sub	ip, r0, #4
 1174 0618 039049E0 		sub	r9, r9, r3
 1175 061c 2CC1A0E1 		lsr	ip, ip, #2
 1176 0620 020059E3 		cmp	r9, #2
 1177 0624 01C08CE2 		add	ip, ip, #1
 1178 0628 0CA1A0E1 		lsl	r10, ip, #2
 1179 062c 1200009A 		bls	.L84
 1180 0630 033188E0 		add	r3, r8, r3, lsl #2
 292:C:/Renesas/e2studio_2021_01_workspace_RZA2M_ANPR/ANPR_RZA2M_EBK/src/tensorflow_lite/tensorflow/lite/kernels/internal\types.h ****       buffer_size *= dims_data[i];
 1181              		.loc 5 292 0
 1182 0634 5120C0F2 		vmov.i32	q9, #1  @ v4si
 1183 0638 0090A0E3 		mov	r9, #0
 1184              	.L86:
 1185 063c 019089E2 		add	r9, r9, #1
 293:C:/Renesas/e2studio_2021_01_workspace_RZA2M_ANPR/ANPR_RZA2M_EBK/src/tensorflow_lite/tensorflow/lite/kernels/internal\types.h ****     }
 1186              		.loc 5 293 0
 1187 0640 DF4A63F4 		vld1.64	{d20-d21}, [r3:64]
 1188 0644 09005CE1 		cmp	ip, r9
 1189 0648 103083E2 		add	r3, r3, #16
 1190 064c F42962F2 		vmul.i32	q9, q9, q10
 1191 0650 F9FFFF8A 		bhi	.L86
 1192 0654 0A0050E1 		cmp	r0, r10
 1193 0658 0A7087E0 		add	r7, r7, r10
 1194 065c 5040C0F2 		vmov.i32	q10, #0  @ v4si
 1195 0660 E468F2F2 		vext.32	q11, q9, q10, #2
 1196 0664 F62962F2 		vmul.i32	q9, q9, q11
 1197 0668 E444F2F2 		vext.32	q10, q9, q10, #1
 1198 066c F42962F2 		vmul.i32	q9, q9, q10
 1199 0670 900B12EE 		vmov.32	r0, d18[0]
 1200 0674 900E0EE0 		mul	lr, r0, lr
 1201 0678 0C00000A 		beq	.L83
 1202              	.L84:
 1203              	.LVL148:
 1204 067c 070198E7 		ldr	r0, [r8, r7, lsl #2]
 292:C:/Renesas/e2studio_2021_01_workspace_RZA2M_ANPR/ANPR_RZA2M_EBK/src/tensorflow_lite/tensorflow/lite/kernels/internal\types.h ****       buffer_size *= dims_data[i];
 1205              		.loc 5 292 0
 1206 0680 013087E2 		add	r3, r7, #1
 1207 0684 030052E1 		cmp	r2, r3
 293:C:/Renesas/e2studio_2021_01_workspace_RZA2M_ANPR/ANPR_RZA2M_EBK/src/tensorflow_lite/tensorflow/lite/kernels/internal\types.h ****     }
 1208              		.loc 5 293 0
 1209 0688 0731A0E1 		lsl	r3, r7, #2
 1210 068c 900E0EE0 		mul	lr, r0, lr
 1211              	.LVL149:
 292:C:/Renesas/e2studio_2021_01_workspace_RZA2M_ANPR/ANPR_RZA2M_EBK/src/tensorflow_lite/tensorflow/lite/kernels/internal\types.h ****       buffer_size *= dims_data[i];
 1212              		.loc 5 292 0
 1213 0690 060000DA 		ble	.L83
 293:C:/Renesas/e2studio_2021_01_workspace_RZA2M_ANPR/ANPR_RZA2M_EBK/src/tensorflow_lite/tensorflow/lite/kernels/internal\types.h ****     }
 1214              		.loc 5 293 0
 1215 0694 033088E0 		add	r3, r8, r3
 292:C:/Renesas/e2studio_2021_01_workspace_RZA2M_ANPR/ANPR_RZA2M_EBK/src/tensorflow_lite/tensorflow/lite/kernels/internal\types.h ****       buffer_size *= dims_data[i];
 1216              		.loc 5 292 0
 1217 0698 020087E2 		add	r0, r7, #2
 293:C:/Renesas/e2studio_2021_01_workspace_RZA2M_ANPR/ANPR_RZA2M_EBK/src/tensorflow_lite/tensorflow/lite/kernels/internal\types.h ****     }
 1218              		.loc 5 293 0
 1219 069c 04C093E5 		ldr	ip, [r3, #4]
 292:C:/Renesas/e2studio_2021_01_workspace_RZA2M_ANPR/ANPR_RZA2M_EBK/src/tensorflow_lite/tensorflow/lite/kernels/internal\types.h ****       buffer_size *= dims_data[i];
 1220              		.loc 5 292 0
 1221 06a0 000052E1 		cmp	r2, r0
 293:C:/Renesas/e2studio_2021_01_workspace_RZA2M_ANPR/ANPR_RZA2M_EBK/src/tensorflow_lite/tensorflow/lite/kernels/internal\types.h ****     }
 1222              		.loc 5 293 0
 1223 06a4 9C0E0EE0 		mul	lr, ip, lr
 1224              	.LVL150:
 292:C:/Renesas/e2studio_2021_01_workspace_RZA2M_ANPR/ANPR_RZA2M_EBK/src/tensorflow_lite/tensorflow/lite/kernels/internal\types.h ****       buffer_size *= dims_data[i];
 1225              		.loc 5 292 0
 293:C:/Renesas/e2studio_2021_01_workspace_RZA2M_ANPR/ANPR_RZA2M_EBK/src/tensorflow_lite/tensorflow/lite/kernels/internal\types.h ****     }
 1226              		.loc 5 293 0
 1227 06a8 083093C5 		ldrgt	r3, [r3, #8]
 1228 06ac 930E0EC0 		mulgt	lr, r3, lr
 1229              	.LVL151:
 1230              	.L83:
 1231              	.LBE299:
 1232              	.LBE294:
 1233              	.LBE293:
 1234              	.LBE316:
 1235              	.LBE322:
 1236              	.LBB323:
  39:C:/Renesas/e2studio_2021_01_workspace_RZA2M_ANPR/ANPR_RZA2M_EBK/src/tensorflow_lite/tensorflow/lite/kernels/internal/reference\dequantize.h ****     const int32_t val = input_data[i];
 1237              		.loc 4 39 0
 1238 06b0 00005EE3 		cmp	lr, #0
 1239 06b4 520000DA 		ble	.L91
 1240 06b8 08005EE3 		cmp	lr, #8
 1241 06bc D70100DA 		ble	.L166
 1242 06c0 09704EE2 		sub	r7, lr, #9
 1243 06c4 132084E2 		add	r2, r4, #19
 1244 06c8 0770C7E3 		bic	r7, r7, #7
 1245 06cc 4C3086E2 		add	r3, r6, #76
 1246 06d0 087087E2 		add	r7, r7, #8
 1247 06d4 00C0A0E3 		mov	ip, #0
 1248              	.LVL152:
 1249              	.L90:
 1250              	.LBB324:
  40:C:/Renesas/e2studio_2021_01_workspace_RZA2M_ANPR/ANPR_RZA2M_EBK/src/tensorflow_lite/tensorflow/lite/kernels/internal/reference\dequantize.h ****     const OutputT result = static_cast<OutputT>(scale * (val - zero_point));
 1251              		.loc 4 40 0
 1252 06d8 D30152E1 		ldrsb	r0, [r2, #-19]
 1253 06dc 08C08CE2 		add	ip, ip, #8
 1254              	.LVL153:
 1255 06e0 00F0D2F5 		pld	[r2]
 1256              	.LVL154:
 1257 06e4 07005CE1 		cmp	ip, r7
 1258 06e8 00F0D3F5 		pld	[r3]
 1259 06ec 082082E2 		add	r2, r2, #8
 1260              		.loc 4 41 0
 1261 06f0 010040E0 		sub	r0, r0, r1
 1262              	.LVL155:
 1263 06f4 203083E2 		add	r3, r3, #32
 1264 06f8 900A07EE 		vmov	s15, r0	@ int
 1265 06fc E70BF8EE 		vcvt.f64.s32	d16, s15
 1266 0700 A10B60EE 		vmul.f64	d16, d16, d17
 1267 0704 E07BF7EE 		vcvt.f32.f64	s15, d16
 1268 0708 1B7A43ED 		vstr.32	s15, [r3, #-108]
 1269              	.LVL156:
  40:C:/Renesas/e2studio_2021_01_workspace_RZA2M_ANPR/ANPR_RZA2M_EBK/src/tensorflow_lite/tensorflow/lite/kernels/internal/reference\dequantize.h ****     const OutputT result = static_cast<OutputT>(scale * (val - zero_point));
 1270              		.loc 4 40 0
 1271 070c DA0152E1 		ldrsb	r0, [r2, #-26]
 1272              		.loc 4 41 0
 1273 0710 010040E0 		sub	r0, r0, r1
 1274 0714 900A07EE 		vmov	s15, r0	@ int
 1275 0718 E70BF8EE 		vcvt.f64.s32	d16, s15
 1276 071c A10B60EE 		vmul.f64	d16, d16, d17
 1277 0720 E07BF7EE 		vcvt.f32.f64	s15, d16
 1278 0724 1A7A43ED 		vstr.32	s15, [r3, #-104]
  40:C:/Renesas/e2studio_2021_01_workspace_RZA2M_ANPR/ANPR_RZA2M_EBK/src/tensorflow_lite/tensorflow/lite/kernels/internal/reference\dequantize.h ****     const OutputT result = static_cast<OutputT>(scale * (val - zero_point));
 1279              		.loc 4 40 0
 1280 0728 D90152E1 		ldrsb	r0, [r2, #-25]
 1281              		.loc 4 41 0
 1282 072c 010040E0 		sub	r0, r0, r1
 1283 0730 900A07EE 		vmov	s15, r0	@ int
 1284 0734 E70BF8EE 		vcvt.f64.s32	d16, s15
 1285 0738 A10B60EE 		vmul.f64	d16, d16, d17
 1286 073c E07BF7EE 		vcvt.f32.f64	s15, d16
 1287 0740 197A43ED 		vstr.32	s15, [r3, #-100]
  40:C:/Renesas/e2studio_2021_01_workspace_RZA2M_ANPR/ANPR_RZA2M_EBK/src/tensorflow_lite/tensorflow/lite/kernels/internal/reference\dequantize.h ****     const OutputT result = static_cast<OutputT>(scale * (val - zero_point));
 1288              		.loc 4 40 0
 1289 0744 D80152E1 		ldrsb	r0, [r2, #-24]
 1290              		.loc 4 41 0
 1291 0748 010040E0 		sub	r0, r0, r1
 1292 074c 900A07EE 		vmov	s15, r0	@ int
 1293 0750 E70BF8EE 		vcvt.f64.s32	d16, s15
 1294 0754 A10B60EE 		vmul.f64	d16, d16, d17
 1295 0758 E07BF7EE 		vcvt.f32.f64	s15, d16
 1296 075c 187A43ED 		vstr.32	s15, [r3, #-96]
  40:C:/Renesas/e2studio_2021_01_workspace_RZA2M_ANPR/ANPR_RZA2M_EBK/src/tensorflow_lite/tensorflow/lite/kernels/internal/reference\dequantize.h ****     const OutputT result = static_cast<OutputT>(scale * (val - zero_point));
 1297              		.loc 4 40 0
 1298 0760 D70152E1 		ldrsb	r0, [r2, #-23]
 1299              		.loc 4 41 0
 1300 0764 010040E0 		sub	r0, r0, r1
 1301 0768 900A07EE 		vmov	s15, r0	@ int
 1302 076c E70BF8EE 		vcvt.f64.s32	d16, s15
 1303 0770 A10B60EE 		vmul.f64	d16, d16, d17
 1304 0774 E07BF7EE 		vcvt.f32.f64	s15, d16
 1305 0778 177A43ED 		vstr.32	s15, [r3, #-92]
  40:C:/Renesas/e2studio_2021_01_workspace_RZA2M_ANPR/ANPR_RZA2M_EBK/src/tensorflow_lite/tensorflow/lite/kernels/internal/reference\dequantize.h ****     const OutputT result = static_cast<OutputT>(scale * (val - zero_point));
 1306              		.loc 4 40 0
 1307 077c D60152E1 		ldrsb	r0, [r2, #-22]
 1308              		.loc 4 41 0
 1309 0780 010040E0 		sub	r0, r0, r1
 1310 0784 900A07EE 		vmov	s15, r0	@ int
 1311 0788 E70BF8EE 		vcvt.f64.s32	d16, s15
 1312 078c A10B60EE 		vmul.f64	d16, d16, d17
 1313 0790 E07BF7EE 		vcvt.f32.f64	s15, d16
 1314 0794 167A43ED 		vstr.32	s15, [r3, #-88]
  40:C:/Renesas/e2studio_2021_01_workspace_RZA2M_ANPR/ANPR_RZA2M_EBK/src/tensorflow_lite/tensorflow/lite/kernels/internal/reference\dequantize.h ****     const OutputT result = static_cast<OutputT>(scale * (val - zero_point));
 1315              		.loc 4 40 0
 1316 0798 D50152E1 		ldrsb	r0, [r2, #-21]
 1317              		.loc 4 41 0
 1318 079c 010040E0 		sub	r0, r0, r1
 1319 07a0 900A07EE 		vmov	s15, r0	@ int
 1320 07a4 E70BF8EE 		vcvt.f64.s32	d16, s15
 1321 07a8 A10B60EE 		vmul.f64	d16, d16, d17
 1322 07ac E07BF7EE 		vcvt.f32.f64	s15, d16
 1323 07b0 157A43ED 		vstr.32	s15, [r3, #-84]
 1324              	.LVL157:
  40:C:/Renesas/e2studio_2021_01_workspace_RZA2M_ANPR/ANPR_RZA2M_EBK/src/tensorflow_lite/tensorflow/lite/kernels/internal/reference\dequantize.h ****     const OutputT result = static_cast<OutputT>(scale * (val - zero_point));
 1325              		.loc 4 40 0
 1326 07b4 D40152E1 		ldrsb	r0, [r2, #-20]
 1327              		.loc 4 41 0
 1328 07b8 010040E0 		sub	r0, r0, r1
 1329 07bc 900A07EE 		vmov	s15, r0	@ int
 1330 07c0 E70BF8EE 		vcvt.f64.s32	d16, s15
 1331 07c4 A10B60EE 		vmul.f64	d16, d16, d17
 1332 07c8 E07BF7EE 		vcvt.f32.f64	s15, d16
 1333 07cc 147A43ED 		vstr.32	s15, [r3, #-80]
 1334 07d0 C0FFFF1A 		bne	.L90
 1335              	.LVL158:
 1336              	.L76:
 1337 07d4 0C6186E0 		add	r6, r6, ip, lsl #2
 1338              	.LVL159:
 1339 07d8 0CC084E0 		add	ip, r4, ip
 1340              	.L92:
 1341              	.LVL160:
  40:C:/Renesas/e2studio_2021_01_workspace_RZA2M_ANPR/ANPR_RZA2M_EBK/src/tensorflow_lite/tensorflow/lite/kernels/internal/reference\dequantize.h ****     const OutputT result = static_cast<OutputT>(scale * (val - zero_point));
 1342              		.loc 4 40 0
 1343 07dc D130DCE0 		ldrsb	r3, [ip], #1
 1344              	.LVL161:
 1345              		.loc 4 41 0
 1346 07e0 013043E0 		sub	r3, r3, r1
 1347              	.LVL162:
 1348              	.LBE324:
  39:C:/Renesas/e2studio_2021_01_workspace_RZA2M_ANPR/ANPR_RZA2M_EBK/src/tensorflow_lite/tensorflow/lite/kernels/internal/reference\dequantize.h ****     const int32_t val = input_data[i];
 1349              		.loc 4 39 0
 1350 07e4 04204CE0 		sub	r2, ip, r4
 1351 07e8 02005EE1 		cmp	lr, r2
 1352              	.LBB325:
 1353              		.loc 4 41 0
 1354 07ec 903A07EE 		vmov	s15, r3	@ int
 1355 07f0 E70BF8EE 		vcvt.f64.s32	d16, s15
 1356 07f4 A10B60EE 		vmul.f64	d16, d16, d17
 1357 07f8 E07BF7EE 		vcvt.f32.f64	s15, d16
 1358 07fc 017AE6EC 		vstmia.32	r6!, {s15}
 1359              	.LVL163:
 1360              	.LBE325:
  39:C:/Renesas/e2studio_2021_01_workspace_RZA2M_ANPR/ANPR_RZA2M_EBK/src/tensorflow_lite/tensorflow/lite/kernels/internal/reference\dequantize.h ****     const int32_t val = input_data[i];
 1361              		.loc 4 39 0
 1362 0800 F5FFFFCA 		bgt	.L92
 1363              	.LVL164:
 1364              	.L91:
 1365              	.LBE323:
 1366              	.LBE261:
 1367              	.LBE260:
 1368              	.LBB337:
 1369              	.LBB338:
 203:C:/Renesas/e2studio_2021_01_workspace_RZA2M_ANPR/ANPR_RZA2M_EBK/src/tensorflow_lite/tensorflow/lite/kernels/internal\types.h **** #ifdef TF_LITE_STATIC_MEMORY
 1370              		.loc 5 203 0
 1371 0804 050055E3 		cmp	r5, #5
 1372 0808 14FFFFCA 		bgt	.L107
 1373 080c 1EFFFFEA 		b	.L123
 1374              	.LVL165:
 1375              	.L32:
 1376              	.LBE338:
 1377              	.LBE337:
 103:../src/tensorflow_lite/tensorflow/lite/micro/kernels/dequantize.cc ****                                   tflite::micro::GetTensorData<int16_t>(input),
 1378              		.loc 1 103 0
 1379 0810 0810A0E1 		mov	r1, r8
 1380 0814 0D00A0E1 		mov	r0, sp
 1381              	.LEHB4:
 1382 0818 FEFFFFEB 		bl	_ZN6tflite5micro14GetTensorShapeEPK16TfLiteEvalTensor
 1383              	.LVL166:
 1384              	.LEHE4:
 105:../src/tensorflow_lite/tensorflow/lite/micro/kernels/dequantize.cc ****                                   tflite::micro::GetTensorData<float>(output));
 1385              		.loc 1 105 0
 1386 081c 0610A0E1 		mov	r1, r6
 1387 0820 18008DE2 		add	r0, sp, #24
 1388              	.LBB339:
 1389              	.LBB340:
 1390              		.loc 3 63 0
 1391 0824 004098E5 		ldr	r4, [r8]
 1392              	.LVL167:
 1393              	.LEHB5:
 1394              	.LBE340:
 1395              	.LBE339:
 105:../src/tensorflow_lite/tensorflow/lite/micro/kernels/dequantize.cc ****                                   tflite::micro::GetTensorData<float>(output));
 1396              		.loc 1 105 0
 1397 0828 FEFFFFEB 		bl	_ZN6tflite5micro14GetTensorShapeEPK16TfLiteEvalTensor
 1398              	.LVL168:
 1399              	.LEHE5:
 1400 082c 00209DE5 		ldr	r2, [sp]
 1401 0830 18E09DE5 		ldr	lr, [sp, #24]
 1402              	.LBB341:
 1403              	.LBB342:
  56:C:/Renesas/e2studio_2021_01_workspace_RZA2M_ANPR/ANPR_RZA2M_EBK/src/tensorflow_lite/tensorflow/lite/micro/kernels\kernel_util.h **** }
 1404              		.loc 3 56 0
 1405 0834 008096E5 		ldr	r8, [r6]
 1406              	.LVL169:
 1407              	.LBE342:
 1408              	.LBE341:
 1409              	.LBB343:
 1410              	.LBB344:
  35:C:/Renesas/e2studio_2021_01_workspace_RZA2M_ANPR/ANPR_RZA2M_EBK/src/tensorflow_lite/tensorflow/lite/kernels/internal/reference\dequantize.h ****   const double scale = op_params.scale;
 1411              		.loc 4 35 0
 1412 0838 081097E5 		ldr	r1, [r7, #8]
 1413              	.LVL170:
 1414              	.LBB345:
 1415              	.LBB346:
 521:C:/Renesas/e2studio_2021_01_workspace_RZA2M_ANPR/ANPR_RZA2M_EBK/src/tensorflow_lite/tensorflow/lite/kernels/internal\types.h ****   const int dims_count = shape.DimensionsCount();
 1416              		.loc 5 521 0
 1417 083c 0E0052E1 		cmp	r2, lr
 1418              	.LBE346:
 1419              	.LBE345:
  36:C:/Renesas/e2studio_2021_01_workspace_RZA2M_ANPR/ANPR_RZA2M_EBK/src/tensorflow_lite/tensorflow/lite/kernels/internal/reference\dequantize.h ****   const int flat_size = MatchingFlatSize(input_shape, output_shape);
 1420              		.loc 4 36 0
 1421 0840 001BD7ED 		vldr.64	d17, [r7]
 1422              	.LVL171:
 1423              	.LBB406:
 1424              	.LBB399:
 521:C:/Renesas/e2studio_2021_01_workspace_RZA2M_ANPR/ANPR_RZA2M_EBK/src/tensorflow_lite/tensorflow/lite/kernels/internal\types.h ****   const int dims_count = shape.DimensionsCount();
 1425              		.loc 5 521 0
 1426 0844 7801001A 		bne	.L95
 1427              	.LVL172:
 1428              	.LBB347:
 523:C:/Renesas/e2studio_2021_01_workspace_RZA2M_ANPR/ANPR_RZA2M_EBK/src/tensorflow_lite/tensorflow/lite/kernels/internal\types.h ****     TFLITE_DCHECK_EQ(shape.Dims(i), check_shape_0.Dims(i));
 1429              		.loc 5 523 0
 1430 0848 000052E3 		cmp	r2, #0
 1431 084c 600100DA 		ble	.L173
 1432 0850 050052E3 		cmp	r2, #5
 1433              	.LBB348:
 1434              	.LBB349:
 216:C:/Renesas/e2studio_2021_01_workspace_RZA2M_ANPR/ANPR_RZA2M_EBK/src/tensorflow_lite/tensorflow/lite/kernels/internal\types.h ****   }
 1435              		.loc 5 216 0
 1436 0854 04709DE5 		ldr	r7, [sp, #4]
 1437              	.LVL173:
 1438              	.LBE349:
 1439              	.LBE348:
 1440              	.LBB355:
 1441              	.LBB356:
 1442 0858 1C009DE5 		ldr	r0, [sp, #28]
 1443 085c 2A0100CA 		bgt	.L98
 1444              	.LVL174:
 215:C:/Renesas/e2studio_2021_01_workspace_RZA2M_ANPR/ANPR_RZA2M_EBK/src/tensorflow_lite/tensorflow/lite/kernels/internal\types.h ****     return size_ > kMaxSmallSize ? dims_pointer_[i] : dims_[i];
 1445              		.loc 5 215 0
 1446 0860 000052E3 		cmp	r2, #0
 1447 0864 650100DA 		ble	.L99
 1448              	.LVL175:
 1449              	.LBE356:
 1450              	.LBE355:
 1451              		.loc 5 524 0
 1452 0868 000057E1 		cmp	r7, r0
 1453 086c 6101001A 		bne	.L100
 1454              	.LVL176:
 523:C:/Renesas/e2studio_2021_01_workspace_RZA2M_ANPR/ANPR_RZA2M_EBK/src/tensorflow_lite/tensorflow/lite/kernels/internal\types.h ****     TFLITE_DCHECK_EQ(shape.Dims(i), check_shape_0.Dims(i));
 1455              		.loc 5 523 0
 1456 0870 010052E3 		cmp	r2, #1
 1457 0874 1900000A 		beq	.L172
 1458              	.LVL177:
 1459              	.LBB364:
 1460              	.LBB350:
 216:C:/Renesas/e2studio_2021_01_workspace_RZA2M_ANPR/ANPR_RZA2M_EBK/src/tensorflow_lite/tensorflow/lite/kernels/internal\types.h ****   }
 1461              		.loc 5 216 0
 1462 0878 08009DE5 		ldr	r0, [sp, #8]
 1463              	.LVL178:
 1464              	.LBE350:
 1465              	.LBE364:
 1466              		.loc 5 524 0
 1467 087c 20309DE5 		ldr	r3, [sp, #32]
 1468 0880 030050E1 		cmp	r0, r3
 1469 0884 5B01001A 		bne	.L100
 1470              	.LVL179:
 523:C:/Renesas/e2studio_2021_01_workspace_RZA2M_ANPR/ANPR_RZA2M_EBK/src/tensorflow_lite/tensorflow/lite/kernels/internal\types.h ****     TFLITE_DCHECK_EQ(shape.Dims(i), check_shape_0.Dims(i));
 1471              		.loc 5 523 0
 1472 0888 020052E3 		cmp	r2, #2
 1473 088c 1300000A 		beq	.L172
 1474              	.LVL180:
 1475              	.LBB365:
 1476              	.LBB351:
 216:C:/Renesas/e2studio_2021_01_workspace_RZA2M_ANPR/ANPR_RZA2M_EBK/src/tensorflow_lite/tensorflow/lite/kernels/internal\types.h ****   }
 1477              		.loc 5 216 0
 1478 0890 0C009DE5 		ldr	r0, [sp, #12]
 1479              	.LVL181:
 1480              	.LBE351:
 1481              	.LBE365:
 1482              		.loc 5 524 0
 1483 0894 24309DE5 		ldr	r3, [sp, #36]
 1484 0898 030050E1 		cmp	r0, r3
 1485 089c 5501001A 		bne	.L100
 1486              	.LVL182:
 523:C:/Renesas/e2studio_2021_01_workspace_RZA2M_ANPR/ANPR_RZA2M_EBK/src/tensorflow_lite/tensorflow/lite/kernels/internal\types.h ****     TFLITE_DCHECK_EQ(shape.Dims(i), check_shape_0.Dims(i));
 1487              		.loc 5 523 0
 1488 08a0 030052E3 		cmp	r2, #3
 1489 08a4 0D00000A 		beq	.L172
 1490              	.LVL183:
 1491              	.LBB366:
 1492              	.LBB357:
 215:C:/Renesas/e2studio_2021_01_workspace_RZA2M_ANPR/ANPR_RZA2M_EBK/src/tensorflow_lite/tensorflow/lite/kernels/internal\types.h ****     return size_ > kMaxSmallSize ? dims_pointer_[i] : dims_[i];
 1493              		.loc 5 215 0
 1494 08a8 03005EE3 		cmp	lr, #3
 1495              	.LBE357:
 1496              	.LBE366:
 1497              	.LBB367:
 1498              	.LBB352:
 216:C:/Renesas/e2studio_2021_01_workspace_RZA2M_ANPR/ANPR_RZA2M_EBK/src/tensorflow_lite/tensorflow/lite/kernels/internal\types.h ****   }
 1499              		.loc 5 216 0
 1500 08ac 10009DE5 		ldr	r0, [sp, #16]
 1501              	.LVL184:
 1502              	.LBE352:
 1503              	.LBE367:
 1504              	.LBB368:
 1505              	.LBB358:
 215:C:/Renesas/e2studio_2021_01_workspace_RZA2M_ANPR/ANPR_RZA2M_EBK/src/tensorflow_lite/tensorflow/lite/kernels/internal\types.h ****     return size_ > kMaxSmallSize ? dims_pointer_[i] : dims_[i];
 1506              		.loc 5 215 0
 1507 08b0 5201000A 		beq	.L99
 1508              	.LVL185:
 1509              	.LBE358:
 1510              	.LBE368:
 1511              		.loc 5 524 0
 1512 08b4 28309DE5 		ldr	r3, [sp, #40]
 1513 08b8 030050E1 		cmp	r0, r3
 1514 08bc 4D01001A 		bne	.L100
 1515              	.LVL186:
 523:C:/Renesas/e2studio_2021_01_workspace_RZA2M_ANPR/ANPR_RZA2M_EBK/src/tensorflow_lite/tensorflow/lite/kernels/internal\types.h ****     TFLITE_DCHECK_EQ(shape.Dims(i), check_shape_0.Dims(i));
 1516              		.loc 5 523 0
 1517 08c0 040052E3 		cmp	r2, #4
 1518 08c4 0500000A 		beq	.L172
 1519              	.LVL187:
 1520              	.LBB369:
 1521              	.LBB359:
 215:C:/Renesas/e2studio_2021_01_workspace_RZA2M_ANPR/ANPR_RZA2M_EBK/src/tensorflow_lite/tensorflow/lite/kernels/internal\types.h ****     return size_ > kMaxSmallSize ? dims_pointer_[i] : dims_[i];
 1522              		.loc 5 215 0
 1523 08c8 04005EE3 		cmp	lr, #4
 1524              	.LBE359:
 1525              	.LBE369:
 1526              	.LBB370:
 1527              	.LBB353:
 216:C:/Renesas/e2studio_2021_01_workspace_RZA2M_ANPR/ANPR_RZA2M_EBK/src/tensorflow_lite/tensorflow/lite/kernels/internal\types.h ****   }
 1528              		.loc 5 216 0
 1529 08cc 14309DE5 		ldr	r3, [sp, #20]
 1530              	.LVL188:
 1531              	.LBE353:
 1532              	.LBE370:
 1533              	.LBB371:
 1534              	.LBB360:
 215:C:/Renesas/e2studio_2021_01_workspace_RZA2M_ANPR/ANPR_RZA2M_EBK/src/tensorflow_lite/tensorflow/lite/kernels/internal\types.h ****     return size_ > kMaxSmallSize ? dims_pointer_[i] : dims_[i];
 1535              		.loc 5 215 0
 1536 08d0 4A01000A 		beq	.L99
 1537              	.LVL189:
 1538              	.LBE360:
 1539              	.LBE371:
 1540              		.loc 5 524 0
 1541 08d4 2C009DE5 		ldr	r0, [sp, #44]
 1542 08d8 030050E1 		cmp	r0, r3
 1543 08dc 4501001A 		bne	.L100
 1544              	.LVL190:
 1545              	.L172:
 1546              	.LBE347:
 1547              	.LBB376:
 1548              	.LBB377:
 1549              	.LBB378:
 1550              	.LBB379:
 232:C:/Renesas/e2studio_2021_01_workspace_RZA2M_ANPR/ANPR_RZA2M_EBK/src/tensorflow_lite/tensorflow/lite/kernels/internal\types.h ****   }
 1551              		.loc 5 232 0
 1552 08e0 04008DE2 		add	r0, sp, #4
 1553              	.L101:
 1554              	.LVL191:
 1555 08e4 5031A0E7 		sbfx	r3, r0, #2, #1
 1556 08e8 033003E2 		and	r3, r3, #3
 1557 08ec 020053E1 		cmp	r3, r2
 1558 08f0 0230A021 		movcs	r3, r2
 1559 08f4 080052E3 		cmp	r2, #8
 1560 08f8 0230A091 		movls	r3, r2
 1561 08fc 000053E3 		cmp	r3, #0
 1562 0900 2801000A 		beq	.L175
 1563 0904 010053E3 		cmp	r3, #1
 1564              	.LBE379:
 1565              	.LBE378:
 1566              	.LBB382:
 293:C:/Renesas/e2studio_2021_01_workspace_RZA2M_ANPR/ANPR_RZA2M_EBK/src/tensorflow_lite/tensorflow/lite/kernels/internal\types.h ****     }
 1567              		.loc 5 293 0
 1568 0908 006090E5 		ldr	r6, [r0]
 1569              	.LVL192:
 1570 090c D400000A 		beq	.L182
 1571 0910 04C090E5 		ldr	ip, [r0, #4]
 1572 0914 020053E3 		cmp	r3, #2
 1573 0918 9C0606E0 		mul	r6, ip, r6
 1574              	.LVL193:
 1575 091c D000000A 		beq	.L182
 1576 0920 08C090E5 		ldr	ip, [r0, #8]
 1577 0924 030053E3 		cmp	r3, #3
 1578 0928 9C0606E0 		mul	r6, ip, r6
 1579              	.LVL194:
 1580 092c CC00000A 		beq	.L182
 1581 0930 0CC090E5 		ldr	ip, [r0, #12]
 1582 0934 040053E3 		cmp	r3, #4
 1583 0938 9C0606E0 		mul	r6, ip, r6
 1584              	.LVL195:
 1585 093c C800000A 		beq	.L182
 1586 0940 10C090E5 		ldr	ip, [r0, #16]
 1587 0944 050053E3 		cmp	r3, #5
 1588 0948 9C0606E0 		mul	r6, ip, r6
 1589              	.LVL196:
 1590 094c C400000A 		beq	.L182
 1591 0950 14C090E5 		ldr	ip, [r0, #20]
 1592 0954 060053E3 		cmp	r3, #6
 1593 0958 9C0606E0 		mul	r6, ip, r6
 1594              	.LVL197:
 1595 095c C000000A 		beq	.L182
 1596 0960 18C090E5 		ldr	ip, [r0, #24]
 1597 0964 070053E3 		cmp	r3, #7
 1598 0968 9C0606E0 		mul	r6, ip, r6
 1599              	.LVL198:
 1600 096c BC00000A 		beq	.L182
 1601 0970 1C5090E5 		ldr	r5, [r0, #28]
 292:C:/Renesas/e2studio_2021_01_workspace_RZA2M_ANPR/ANPR_RZA2M_EBK/src/tensorflow_lite/tensorflow/lite/kernels/internal\types.h ****       buffer_size *= dims_data[i];
 1602              		.loc 5 292 0
 1603 0974 08C0A0E3 		mov	ip, #8
 293:C:/Renesas/e2studio_2021_01_workspace_RZA2M_ANPR/ANPR_RZA2M_EBK/src/tensorflow_lite/tensorflow/lite/kernels/internal\types.h ****     }
 1604              		.loc 5 293 0
 1605 0978 950606E0 		mul	r6, r5, r6
 1606              	.LVL199:
 1607              	.L111:
 1608 097c 020053E1 		cmp	r3, r2
 1609 0980 2800000A 		beq	.L112
 1610              	.LVL200:
 1611              	.L110:
 1612 0984 037042E0 		sub	r7, r2, r3
 1613 0988 019042E2 		sub	r9, r2, #1
 1614 098c 045047E2 		sub	r5, r7, #4
 1615 0990 039049E0 		sub	r9, r9, r3
 1616 0994 2551A0E1 		lsr	r5, r5, #2
 1617 0998 020059E3 		cmp	r9, #2
 1618 099c 015085E2 		add	r5, r5, #1
 1619 09a0 05A1A0E1 		lsl	r10, r5, #2
 1620 09a4 1200009A 		bls	.L113
 1621 09a8 033180E0 		add	r3, r0, r3, lsl #2
 292:C:/Renesas/e2studio_2021_01_workspace_RZA2M_ANPR/ANPR_RZA2M_EBK/src/tensorflow_lite/tensorflow/lite/kernels/internal\types.h ****       buffer_size *= dims_data[i];
 1622              		.loc 5 292 0
 1623 09ac 5120C0F2 		vmov.i32	q9, #1  @ v4si
 1624 09b0 0090A0E3 		mov	r9, #0
 1625              	.L115:
 1626 09b4 019089E2 		add	r9, r9, #1
 293:C:/Renesas/e2studio_2021_01_workspace_RZA2M_ANPR/ANPR_RZA2M_EBK/src/tensorflow_lite/tensorflow/lite/kernels/internal\types.h ****     }
 1627              		.loc 5 293 0
 1628 09b8 DF4A63F4 		vld1.64	{d20-d21}, [r3:64]
 1629 09bc 090055E1 		cmp	r5, r9
 1630 09c0 103083E2 		add	r3, r3, #16
 1631 09c4 F42962F2 		vmul.i32	q9, q9, q10
 1632 09c8 F9FFFF8A 		bhi	.L115
 1633 09cc 0A0057E1 		cmp	r7, r10
 1634 09d0 0AC08CE0 		add	ip, ip, r10
 1635 09d4 5040C0F2 		vmov.i32	q10, #0  @ v4si
 1636 09d8 E468F2F2 		vext.32	q11, q9, q10, #2
 1637 09dc F62962F2 		vmul.i32	q9, q9, q11
 1638 09e0 E444F2F2 		vext.32	q10, q9, q10, #1
 1639 09e4 F42962F2 		vmul.i32	q9, q9, q10
 1640 09e8 903B12EE 		vmov.32	r3, d18[0]
 1641 09ec 930606E0 		mul	r6, r3, r6
 1642 09f0 0C00000A 		beq	.L112
 1643              	.L113:
 1644              	.LVL201:
 1645 09f4 0C5190E7 		ldr	r5, [r0, ip, lsl #2]
 292:C:/Renesas/e2studio_2021_01_workspace_RZA2M_ANPR/ANPR_RZA2M_EBK/src/tensorflow_lite/tensorflow/lite/kernels/internal\types.h ****       buffer_size *= dims_data[i];
 1646              		.loc 5 292 0
 1647 09f8 01308CE2 		add	r3, ip, #1
 1648 09fc 030052E1 		cmp	r2, r3
 293:C:/Renesas/e2studio_2021_01_workspace_RZA2M_ANPR/ANPR_RZA2M_EBK/src/tensorflow_lite/tensorflow/lite/kernels/internal\types.h ****     }
 1649              		.loc 5 293 0
 1650 0a00 0C31A0E1 		lsl	r3, ip, #2
 1651 0a04 950606E0 		mul	r6, r5, r6
 1652              	.LVL202:
 292:C:/Renesas/e2studio_2021_01_workspace_RZA2M_ANPR/ANPR_RZA2M_EBK/src/tensorflow_lite/tensorflow/lite/kernels/internal\types.h ****       buffer_size *= dims_data[i];
 1653              		.loc 5 292 0
 1654 0a08 060000DA 		ble	.L112
 293:C:/Renesas/e2studio_2021_01_workspace_RZA2M_ANPR/ANPR_RZA2M_EBK/src/tensorflow_lite/tensorflow/lite/kernels/internal\types.h ****     }
 1655              		.loc 5 293 0
 1656 0a0c 030080E0 		add	r0, r0, r3
 292:C:/Renesas/e2studio_2021_01_workspace_RZA2M_ANPR/ANPR_RZA2M_EBK/src/tensorflow_lite/tensorflow/lite/kernels/internal\types.h ****       buffer_size *= dims_data[i];
 1657              		.loc 5 292 0
 1658 0a10 02C08CE2 		add	ip, ip, #2
 293:C:/Renesas/e2studio_2021_01_workspace_RZA2M_ANPR/ANPR_RZA2M_EBK/src/tensorflow_lite/tensorflow/lite/kernels/internal\types.h ****     }
 1659              		.loc 5 293 0
 1660 0a14 043090E5 		ldr	r3, [r0, #4]
 292:C:/Renesas/e2studio_2021_01_workspace_RZA2M_ANPR/ANPR_RZA2M_EBK/src/tensorflow_lite/tensorflow/lite/kernels/internal\types.h ****       buffer_size *= dims_data[i];
 1661              		.loc 5 292 0
 1662 0a18 0C0052E1 		cmp	r2, ip
 293:C:/Renesas/e2studio_2021_01_workspace_RZA2M_ANPR/ANPR_RZA2M_EBK/src/tensorflow_lite/tensorflow/lite/kernels/internal\types.h ****     }
 1663              		.loc 5 293 0
 1664 0a1c 930606E0 		mul	r6, r3, r6
 1665              	.LVL203:
 292:C:/Renesas/e2studio_2021_01_workspace_RZA2M_ANPR/ANPR_RZA2M_EBK/src/tensorflow_lite/tensorflow/lite/kernels/internal\types.h ****       buffer_size *= dims_data[i];
 1666              		.loc 5 292 0
 293:C:/Renesas/e2studio_2021_01_workspace_RZA2M_ANPR/ANPR_RZA2M_EBK/src/tensorflow_lite/tensorflow/lite/kernels/internal\types.h ****     }
 1667              		.loc 5 293 0
 1668 0a20 083090C5 		ldrgt	r3, [r0, #8]
 1669 0a24 930606C0 		mulgt	r6, r3, r6
 1670              	.LVL204:
 1671              	.L112:
 1672              	.LBE382:
 1673              	.LBE377:
 1674              	.LBE376:
 1675              	.LBE399:
 1676              	.LBE406:
 1677              	.LBB407:
  39:C:/Renesas/e2studio_2021_01_workspace_RZA2M_ANPR/ANPR_RZA2M_EBK/src/tensorflow_lite/tensorflow/lite/kernels/internal/reference\dequantize.h ****     const int32_t val = input_data[i];
 1678              		.loc 4 39 0
 1679 0a28 000056E3 		cmp	r6, #0
 1680 0a2c 89FEFFDA 		ble	.L120
 1681 0a30 100056E3 		cmp	r6, #16
 1682 0a34 F50000DA 		ble	.L183
 1683 0a38 117046E2 		sub	r7, r6, #17
 1684 0a3c 222084E2 		add	r2, r4, #34
 1685 0a40 0F70C7E3 		bic	r7, r7, #15
 1686 0a44 443088E2 		add	r3, r8, #68
 1687 0a48 107087E2 		add	r7, r7, #16
 1688 0a4c 0050A0E3 		mov	r5, #0
 1689              	.LVL205:
 1690              	.L119:
 1691              	.LBB408:
  40:C:/Renesas/e2studio_2021_01_workspace_RZA2M_ANPR/ANPR_RZA2M_EBK/src/tensorflow_lite/tensorflow/lite/kernels/internal/reference\dequantize.h ****     const OutputT result = static_cast<OutputT>(scale * (val - zero_point));
 1692              		.loc 4 40 0
 1693 0a50 F00252E1 		ldrsh	r0, [r2, #-32]
 1694 0a54 105085E2 		add	r5, r5, #16
 1695              	.LVL206:
 1696 0a58 F2A252E1 		ldrsh	r10, [r2, #-34]
 1697 0a5c 070055E1 		cmp	r5, r7
 1698 0a60 FCC152E1 		ldrsh	ip, [r2, #-28]
 1699              		.loc 4 41 0
 1700 0a64 010040E0 		sub	r0, r0, r1
  40:C:/Renesas/e2studio_2021_01_workspace_RZA2M_ANPR/ANPR_RZA2M_EBK/src/tensorflow_lite/tensorflow/lite/kernels/internal/reference\dequantize.h ****     const OutputT result = static_cast<OutputT>(scale * (val - zero_point));
 1701              		.loc 4 40 0
 1702 0a68 FE9152E1 		ldrsh	r9, [r2, #-30]
 1703              		.loc 4 41 0
 1704 0a6c 01A04AE0 		sub	r10, r10, r1
 1705 0a70 00F0D2F5 		pld	[r2]
 1706              	.LVL207:
 1707 0a74 900A07EE 		vmov	s15, r0	@ int
 1708 0a78 202082E2 		add	r2, r2, #32
 1709              	.LVL208:
  40:C:/Renesas/e2studio_2021_01_workspace_RZA2M_ANPR/ANPR_RZA2M_EBK/src/tensorflow_lite/tensorflow/lite/kernels/internal/reference\dequantize.h ****     const OutputT result = static_cast<OutputT>(scale * (val - zero_point));
 1710              		.loc 4 40 0
 1711 0a7c FA0352E1 		ldrsh	r0, [r2, #-58]
 1712              		.loc 4 41 0
 1713 0a80 019049E0 		sub	r9, r9, r1
 1714 0a84 E72BF8EE 		vcvt.f64.s32	d18, s15
 1715 0a88 10AA07EE 		vmov	s14, r10	@ int
 1716 0a8c 01A04CE0 		sub	r10, ip, r1
 1717 0a90 010040E0 		sub	r0, r0, r1
  40:C:/Renesas/e2studio_2021_01_workspace_RZA2M_ANPR/ANPR_RZA2M_EBK/src/tensorflow_lite/tensorflow/lite/kernels/internal/reference\dequantize.h ****     const OutputT result = static_cast<OutputT>(scale * (val - zero_point));
 1718              		.loc 4 40 0
 1719 0a94 F8C352E1 		ldrsh	ip, [r2, #-56]
 1720              		.loc 4 41 0
 1721 0a98 909A03EE 		vmov	s7, r9	@ int
 1722 0a9c 100A05EE 		vmov	s10, r0	@ int
  40:C:/Renesas/e2studio_2021_01_workspace_RZA2M_ANPR/ANPR_RZA2M_EBK/src/tensorflow_lite/tensorflow/lite/kernels/internal/reference\dequantize.h ****     const OutputT result = static_cast<OutputT>(scale * (val - zero_point));
 1723              		.loc 4 40 0
 1724 0aa0 F60352E1 		ldrsh	r0, [r2, #-54]
 1725              		.loc 4 41 0
 1726 0aa4 01904CE0 		sub	r9, ip, r1
 1727 0aa8 E30BF8EE 		vcvt.f64.s32	d16, s7
  40:C:/Renesas/e2studio_2021_01_workspace_RZA2M_ANPR/ANPR_RZA2M_EBK/src/tensorflow_lite/tensorflow/lite/kernels/internal/reference\dequantize.h ****     const OutputT result = static_cast<OutputT>(scale * (val - zero_point));
 1728              		.loc 4 40 0
 1729 0aac F4C352E1 		ldrsh	ip, [r2, #-52]
 1730              		.loc 4 41 0
 1731 0ab0 010040E0 		sub	r0, r0, r1
 1732 0ab4 A12B62EE 		vmul.f64	d18, d18, d17
 1733 0ab8 90AA07EE 		vmov	s15, r10	@ int
 1734 0abc 900A02EE 		vmov	s5, r0	@ int
 1735 0ac0 01C04CE0 		sub	ip, ip, r1
  40:C:/Renesas/e2studio_2021_01_workspace_RZA2M_ANPR/ANPR_RZA2M_EBK/src/tensorflow_lite/tensorflow/lite/kernels/internal/reference\dequantize.h ****     const OutputT result = static_cast<OutputT>(scale * (val - zero_point));
 1736              		.loc 4 40 0
 1737 0ac4 F20352E1 		ldrsh	r0, [r2, #-50]
 1738              		.loc 4 41 0
 1739 0ac8 E74BF8EE 		vcvt.f64.s32	d20, s15
 1740 0acc 909A07EE 		vmov	s15, r9	@ int
 1741 0ad0 010040E0 		sub	r0, r0, r1
 1742 0ad4 A10B60EE 		vmul.f64	d16, d16, d17
 1743 0ad8 10CA03EE 		vmov	s6, ip	@ int
 1744 0adc 900A01EE 		vmov	s3, r0	@ int
  40:C:/Renesas/e2studio_2021_01_workspace_RZA2M_ANPR/ANPR_RZA2M_EBK/src/tensorflow_lite/tensorflow/lite/kernels/internal/reference\dequantize.h ****     const OutputT result = static_cast<OutputT>(scale * (val - zero_point));
 1745              		.loc 4 40 0
 1746 0ae0 FE0252E1 		ldrsh	r0, [r2, #-46]
 1747 0ae4 F0C352E1 		ldrsh	ip, [r2, #-48]
 1748              		.loc 4 41 0
 1749 0ae8 C74BB8EE 		vcvt.f64.s32	d4, s14
 1750 0aec 010040E0 		sub	r0, r0, r1
 1751 0af0 E73BF8EE 		vcvt.f64.s32	d19, s15
 1752 0af4 C55BB8EE 		vcvt.f64.s32	d5, s10
 1753 0af8 01C04CE0 		sub	ip, ip, r1
 1754 0afc 100A02EE 		vmov	s4, r0	@ int
  40:C:/Renesas/e2studio_2021_01_workspace_RZA2M_ANPR/ANPR_RZA2M_EBK/src/tensorflow_lite/tensorflow/lite/kernels/internal/reference\dequantize.h ****     const OutputT result = static_cast<OutputT>(scale * (val - zero_point));
 1755              		.loc 4 40 0
 1756 0b00 FA0252E1 		ldrsh	r0, [r2, #-42]
 1757              		.loc 4 41 0
 1758 0b04 E27BF7EE 		vcvt.f32.f64	s15, d18
 1759 0b08 C22BF8EE 		vcvt.f64.s32	d18, s4
 1760 0b0c 010040E0 		sub	r0, r0, r1
 1761 0b10 10CA01EE 		vmov	s2, ip	@ int
 1762 0b14 214B24EE 		vmul.f64	d4, d4, d17
 1763 0b18 900A06EE 		vmov	s13, r0	@ int
  40:C:/Renesas/e2studio_2021_01_workspace_RZA2M_ANPR/ANPR_RZA2M_EBK/src/tensorflow_lite/tensorflow/lite/kernels/internal/reference\dequantize.h ****     const OutputT result = static_cast<OutputT>(scale * (val - zero_point));
 1764              		.loc 4 40 0
 1765 0b1c F80252E1 		ldrsh	r0, [r2, #-40]
 1766 0b20 FCC252E1 		ldrsh	ip, [r2, #-44]
 1767              		.loc 4 41 0
 1768 0b24 A14B64EE 		vmul.f64	d20, d20, d17
 1769 0b28 010040E0 		sub	r0, r0, r1
 1770 0b2c E03BF7EE 		vcvt.f32.f64	s7, d16
 1771 0b30 215B25EE 		vmul.f64	d5, d5, d17
 1772 0b34 01C04CE0 		sub	ip, ip, r1
 1773 0b38 100A07EE 		vmov	s14, r0	@ int
 1774 0b3c A10B62EE 		vmul.f64	d16, d18, d17
  40:C:/Renesas/e2studio_2021_01_workspace_RZA2M_ANPR/ANPR_RZA2M_EBK/src/tensorflow_lite/tensorflow/lite/kernels/internal/reference\dequantize.h ****     const OutputT result = static_cast<OutputT>(scale * (val - zero_point));
 1775              		.loc 4 40 0
 1776 0b40 F60252E1 		ldrsh	r0, [r2, #-38]
 1777              		.loc 4 41 0
 1778 0b44 A13B63EE 		vmul.f64	d19, d19, d17
 1779 0b48 10CA06EE 		vmov	s12, ip	@ int
 1780 0b4c 010040E0 		sub	r0, r0, r1
 1781 0b50 C72BF8EE 		vcvt.f64.s32	d18, s14
 1782 0b54 E28BF8EE 		vcvt.f64.s32	d24, s5
 1783 0b58 100A07EE 		vmov	s14, r0	@ int
 1784 0b5c C44BB7EE 		vcvt.f32.f64	s8, d4
 1785 0b60 C37BF8EE 		vcvt.f64.s32	d23, s6
 1786 0b64 E16BF8EE 		vcvt.f64.s32	d22, s3
 1787 0b68 C15BF8EE 		vcvt.f64.s32	d21, s2
 1788 0b6c E44BF7EE 		vcvt.f32.f64	s9, d20
 1789 0b70 C55BB7EE 		vcvt.f32.f64	s10, d5
 1790 0b74 C64BF8EE 		vcvt.f64.s32	d20, s12
 1791 0b78 E35BF7EE 		vcvt.f32.f64	s11, d19
 1792 0b7c E02BB7EE 		vcvt.f32.f64	s4, d16
 1793 0b80 E63BF8EE 		vcvt.f64.s32	d19, s13
 1794 0b84 C70BF8EE 		vcvt.f64.s32	d16, s14
 1795 0b88 A18B68EE 		vmul.f64	d24, d24, d17
 1796 0b8c 107A43ED 		vstr.32	s15, [r3, #-64]
 1797 0b90 A17B67EE 		vmul.f64	d23, d23, d17
 1798 0b94 00F0D3F5 		pld	[r3]
 1799 0b98 A10B60EE 		vmul.f64	d16, d16, d17
 1800 0b9c E82BF7EE 		vcvt.f32.f64	s5, d24
 1801 0ba0 A16B66EE 		vmul.f64	d22, d22, d17
 1802 0ba4 E73BB7EE 		vcvt.f32.f64	s6, d23
 1803 0ba8 A15B65EE 		vmul.f64	d21, d21, d17
 1804 0bac E07BF7EE 		vcvt.f32.f64	s15, d16
 1805 0bb0 A14B64EE 		vmul.f64	d20, d20, d17
 1806 0bb4 E61BF7EE 		vcvt.f32.f64	s3, d22
 1807 0bb8 A13B63EE 		vmul.f64	d19, d19, d17
 1808 0bbc E51BB7EE 		vcvt.f32.f64	s2, d21
 1809 0bc0 A12B62EE 		vmul.f64	d18, d18, d17
 1810 0bc4 E46BB7EE 		vcvt.f32.f64	s12, d20
 1811 0bc8 20F0D3F5 		pld	[r3, #32]
 1812 0bcc 403083E2 		add	r3, r3, #64
 1813 0bd0 E36BF7EE 		vcvt.f32.f64	s13, d19
 1814 0bd4 214A03ED 		vstr.32	s8, [r3, #-132]
 1815              	.LVL209:
 1816 0bd8 E27BB7EE 		vcvt.f32.f64	s14, d18
 1817 0bdc 1F3A43ED 		vstr.32	s7, [r3, #-124]
 1818 0be0 1E4A43ED 		vstr.32	s9, [r3, #-120]
 1819 0be4 1D5A03ED 		vstr.32	s10, [r3, #-116]
 1820 0be8 1C5A43ED 		vstr.32	s11, [r3, #-112]
 1821 0bec 1B2A43ED 		vstr.32	s5, [r3, #-108]
 1822 0bf0 1A3A03ED 		vstr.32	s6, [r3, #-104]
 1823 0bf4 191A43ED 		vstr.32	s3, [r3, #-100]
 1824 0bf8 181A03ED 		vstr.32	s2, [r3, #-96]
 1825 0bfc 172A03ED 		vstr.32	s4, [r3, #-92]
 1826 0c00 166A03ED 		vstr.32	s12, [r3, #-88]
 1827 0c04 156A43ED 		vstr.32	s13, [r3, #-84]
 1828 0c08 147A03ED 		vstr.32	s14, [r3, #-80]
 1829 0c0c 137A43ED 		vstr.32	s15, [r3, #-76]
 1830              	.LVL210:
  40:C:/Renesas/e2studio_2021_01_workspace_RZA2M_ANPR/ANPR_RZA2M_EBK/src/tensorflow_lite/tensorflow/lite/kernels/internal/reference\dequantize.h ****     const OutputT result = static_cast<OutputT>(scale * (val - zero_point));
 1831              		.loc 4 40 0
 1832 0c10 F40252E1 		ldrsh	r0, [r2, #-36]
 1833              		.loc 4 41 0
 1834 0c14 010040E0 		sub	r0, r0, r1
 1835 0c18 900A07EE 		vmov	s15, r0	@ int
 1836 0c1c E70BF8EE 		vcvt.f64.s32	d16, s15
 1837 0c20 A10B60EE 		vmul.f64	d16, d16, d17
 1838 0c24 E07BF7EE 		vcvt.f32.f64	s15, d16
 1839 0c28 127A43ED 		vstr.32	s15, [r3, #-72]
 1840 0c2c 87FFFF1A 		bne	.L119
 1841              	.LVL211:
 1842              	.L105:
 1843 0c30 854084E0 		add	r4, r4, r5, lsl #1
 1844              	.LVL212:
 1845 0c34 058188E0 		add	r8, r8, r5, lsl #2
 1846              	.LVL213:
 1847              	.L121:
  40:C:/Renesas/e2studio_2021_01_workspace_RZA2M_ANPR/ANPR_RZA2M_EBK/src/tensorflow_lite/tensorflow/lite/kernels/internal/reference\dequantize.h ****     const OutputT result = static_cast<OutputT>(scale * (val - zero_point));
 1848              		.loc 4 40 0
 1849 0c38 F230D4E0 		ldrsh	r3, [r4], #2
 1850              	.LVL214:
 1851              	.LBE408:
  39:C:/Renesas/e2studio_2021_01_workspace_RZA2M_ANPR/ANPR_RZA2M_EBK/src/tensorflow_lite/tensorflow/lite/kernels/internal/reference\dequantize.h ****     const int32_t val = input_data[i];
 1852              		.loc 4 39 0
 1853 0c3c 015085E2 		add	r5, r5, #1
 1854              	.LVL215:
 1855 0c40 050056E1 		cmp	r6, r5
 1856              	.LBB409:
 1857              		.loc 4 41 0
 1858 0c44 013043E0 		sub	r3, r3, r1
 1859              	.LVL216:
 1860 0c48 903A07EE 		vmov	s15, r3	@ int
 1861 0c4c E70BF8EE 		vcvt.f64.s32	d16, s15
 1862 0c50 A10B60EE 		vmul.f64	d16, d16, d17
 1863 0c54 E07BF7EE 		vcvt.f32.f64	s15, d16
 1864 0c58 017AE8EC 		vstmia.32	r8!, {s15}
 1865              	.LBE409:
  39:C:/Renesas/e2studio_2021_01_workspace_RZA2M_ANPR/ANPR_RZA2M_EBK/src/tensorflow_lite/tensorflow/lite/kernels/internal/reference\dequantize.h ****     const int32_t val = input_data[i];
 1866              		.loc 4 39 0
 1867 0c5c F5FFFFCA 		bgt	.L121
 1868 0c60 FCFDFFEA 		b	.L120
 1869              	.LVL217:
 1870              	.L182:
 1871              	.LBE407:
 1872              	.LBB410:
 1873              	.LBB400:
 1874              	.LBB393:
 1875              	.LBB389:
 1876              	.LBB383:
 292:C:/Renesas/e2studio_2021_01_workspace_RZA2M_ANPR/ANPR_RZA2M_EBK/src/tensorflow_lite/tensorflow/lite/kernels/internal\types.h ****       buffer_size *= dims_data[i];
 1877              		.loc 5 292 0
