   1              		.cpu cortex-a9
   2              		.eabi_attribute 28, 1
   3              		.eabi_attribute 20, 1
   4              		.eabi_attribute 21, 1
   5              		.eabi_attribute 23, 3
   6              		.eabi_attribute 24, 1
   7              		.eabi_attribute 25, 1
   8              		.eabi_attribute 26, 1
   9              		.eabi_attribute 30, 2
  10              		.eabi_attribute 34, 0
  11              		.eabi_attribute 18, 4
  12              		.file	"floor_div.cc"
  13              		.text
  14              	.Ltext0:
  15              		.cfi_sections	.debug_frame
  16              		.section	.text._ZN6tflite12_GLOBAL__N_14InitEP13TfLiteContextPKcj,"ax",%progbits
  17              		.align	2
  18              		.syntax unified
  19              		.arm
  20              		.fpu neon
  22              	_ZN6tflite12_GLOBAL__N_14InitEP13TfLiteContextPKcj:
  23              		.fnstart
  24              	.LFB4172:
  25              		.file 1 "../src/tensorflow_lite/tensorflow/lite/micro/kernels/floor_div.cc"
   1:../src/tensorflow_lite/tensorflow/lite/micro/kernels/floor_div.cc **** /* Copyright 2020 The TensorFlow Authors. All Rights Reserved.
   2:../src/tensorflow_lite/tensorflow/lite/micro/kernels/floor_div.cc **** 
   3:../src/tensorflow_lite/tensorflow/lite/micro/kernels/floor_div.cc **** Licensed under the Apache License, Version 2.0 (the "License");
   4:../src/tensorflow_lite/tensorflow/lite/micro/kernels/floor_div.cc **** you may not use this file except in compliance with the License.
   5:../src/tensorflow_lite/tensorflow/lite/micro/kernels/floor_div.cc **** You may obtain a copy of the License at
   6:../src/tensorflow_lite/tensorflow/lite/micro/kernels/floor_div.cc **** 
   7:../src/tensorflow_lite/tensorflow/lite/micro/kernels/floor_div.cc ****     http://www.apache.org/licenses/LICENSE-2.0
   8:../src/tensorflow_lite/tensorflow/lite/micro/kernels/floor_div.cc **** 
   9:../src/tensorflow_lite/tensorflow/lite/micro/kernels/floor_div.cc **** Unless required by applicable law or agreed to in writing, software
  10:../src/tensorflow_lite/tensorflow/lite/micro/kernels/floor_div.cc **** distributed under the License is distributed on an "AS IS" BASIS,
  11:../src/tensorflow_lite/tensorflow/lite/micro/kernels/floor_div.cc **** WITHOUT WARRANTIES OR CONDITIONS OF ANY KIND, either express or implied.
  12:../src/tensorflow_lite/tensorflow/lite/micro/kernels/floor_div.cc **** See the License for the specific language governing permissions and
  13:../src/tensorflow_lite/tensorflow/lite/micro/kernels/floor_div.cc **** limitations under the License.
  14:../src/tensorflow_lite/tensorflow/lite/micro/kernels/floor_div.cc **** ==============================================================================*/
  15:../src/tensorflow_lite/tensorflow/lite/micro/kernels/floor_div.cc **** 
  16:../src/tensorflow_lite/tensorflow/lite/micro/kernels/floor_div.cc **** #include "tensorflow/lite/kernels/internal/reference/floor_div.h"
  17:../src/tensorflow_lite/tensorflow/lite/micro/kernels/floor_div.cc **** 
  18:../src/tensorflow_lite/tensorflow/lite/micro/kernels/floor_div.cc **** #include "tensorflow/lite/c/common.h"
  19:../src/tensorflow_lite/tensorflow/lite/micro/kernels/floor_div.cc **** #include "tensorflow/lite/kernels/internal/reference/binary_function.h"
  20:../src/tensorflow_lite/tensorflow/lite/micro/kernels/floor_div.cc **** #include "tensorflow/lite/kernels/internal/types.h"
  21:../src/tensorflow_lite/tensorflow/lite/micro/kernels/floor_div.cc **** #include "tensorflow/lite/kernels/kernel_util.h"
  22:../src/tensorflow_lite/tensorflow/lite/micro/kernels/floor_div.cc **** #include "tensorflow/lite/micro/kernels/kernel_util.h"
  23:../src/tensorflow_lite/tensorflow/lite/micro/kernels/floor_div.cc **** #include "tensorflow/lite/micro/micro_utils.h"
  24:../src/tensorflow_lite/tensorflow/lite/micro/kernels/floor_div.cc **** 
  25:../src/tensorflow_lite/tensorflow/lite/micro/kernels/floor_div.cc **** namespace tflite {
  26:../src/tensorflow_lite/tensorflow/lite/micro/kernels/floor_div.cc **** namespace {
  27:../src/tensorflow_lite/tensorflow/lite/micro/kernels/floor_div.cc **** 
  28:../src/tensorflow_lite/tensorflow/lite/micro/kernels/floor_div.cc **** // Input/output tensor index.
  29:../src/tensorflow_lite/tensorflow/lite/micro/kernels/floor_div.cc **** constexpr int kInputTensor1 = 0;
  30:../src/tensorflow_lite/tensorflow/lite/micro/kernels/floor_div.cc **** constexpr int kInputTensor2 = 1;
  31:../src/tensorflow_lite/tensorflow/lite/micro/kernels/floor_div.cc **** constexpr int kOutputTensor = 0;
  32:../src/tensorflow_lite/tensorflow/lite/micro/kernels/floor_div.cc **** 
  33:../src/tensorflow_lite/tensorflow/lite/micro/kernels/floor_div.cc **** TfLiteStatus CalculateOpData(TfLiteContext* context, TfLiteNode* node) {
  34:../src/tensorflow_lite/tensorflow/lite/micro/kernels/floor_div.cc ****   TF_LITE_ENSURE_EQ(context, NumInputs(node), 2);
  35:../src/tensorflow_lite/tensorflow/lite/micro/kernels/floor_div.cc ****   TF_LITE_ENSURE_EQ(context, NumOutputs(node), 1);
  36:../src/tensorflow_lite/tensorflow/lite/micro/kernels/floor_div.cc **** 
  37:../src/tensorflow_lite/tensorflow/lite/micro/kernels/floor_div.cc ****   const TfLiteTensor* input1;
  38:../src/tensorflow_lite/tensorflow/lite/micro/kernels/floor_div.cc ****   TF_LITE_ENSURE_OK(context,
  39:../src/tensorflow_lite/tensorflow/lite/micro/kernels/floor_div.cc ****                     GetInputSafe(context, node, kInputTensor1, &input1));
  40:../src/tensorflow_lite/tensorflow/lite/micro/kernels/floor_div.cc ****   const TfLiteTensor* input2;
  41:../src/tensorflow_lite/tensorflow/lite/micro/kernels/floor_div.cc ****   TF_LITE_ENSURE_OK(context,
  42:../src/tensorflow_lite/tensorflow/lite/micro/kernels/floor_div.cc ****                     GetInputSafe(context, node, kInputTensor2, &input2));
  43:../src/tensorflow_lite/tensorflow/lite/micro/kernels/floor_div.cc ****   TfLiteTensor* output;
  44:../src/tensorflow_lite/tensorflow/lite/micro/kernels/floor_div.cc ****   TF_LITE_ENSURE_OK(context,
  45:../src/tensorflow_lite/tensorflow/lite/micro/kernels/floor_div.cc ****                     GetOutputSafe(context, node, kOutputTensor, &output));
  46:../src/tensorflow_lite/tensorflow/lite/micro/kernels/floor_div.cc **** 
  47:../src/tensorflow_lite/tensorflow/lite/micro/kernels/floor_div.cc ****   TF_LITE_ENSURE_TYPES_EQ(context, input1->type, input2->type);
  48:../src/tensorflow_lite/tensorflow/lite/micro/kernels/floor_div.cc ****   TF_LITE_ENSURE_TYPES_EQ(context, input1->type, output->type);
  49:../src/tensorflow_lite/tensorflow/lite/micro/kernels/floor_div.cc **** 
  50:../src/tensorflow_lite/tensorflow/lite/micro/kernels/floor_div.cc ****   return kTfLiteOk;
  51:../src/tensorflow_lite/tensorflow/lite/micro/kernels/floor_div.cc **** }
  52:../src/tensorflow_lite/tensorflow/lite/micro/kernels/floor_div.cc **** 
  53:../src/tensorflow_lite/tensorflow/lite/micro/kernels/floor_div.cc **** void* Init(TfLiteContext* context, const char* buffer, size_t length) {
  26              		.loc 1 53 0
  27              		.cfi_startproc
  28              		@ args = 0, pretend = 0, frame = 0
  29              		@ frame_needed = 0, uses_anonymous_args = 0
  30              		@ link register save eliminated.
  31              	.LVL0:
  54:../src/tensorflow_lite/tensorflow/lite/micro/kernels/floor_div.cc ****   return nullptr;
  55:../src/tensorflow_lite/tensorflow/lite/micro/kernels/floor_div.cc **** }
  32              		.loc 1 55 0
  33 0000 0000A0E3 		mov	r0, #0
  34              	.LVL1:
  35 0004 1EFF2FE1 		bx	lr
  36              		.cfi_endproc
  37              	.LFE4172:
  38              		.cantunwind
  39              		.fnend
  41              		.section	.text._ZN6tflite12_GLOBAL__N_17PrepareEP13TfLiteContextP10TfLiteNode,"ax",%progbits
  42              		.align	2
  43              		.syntax unified
  44              		.arm
  45              		.fpu neon
  47              	_ZN6tflite12_GLOBAL__N_17PrepareEP13TfLiteContextP10TfLiteNode:
  48              		.fnstart
  49              	.LFB4173:
  56:../src/tensorflow_lite/tensorflow/lite/micro/kernels/floor_div.cc **** 
  57:../src/tensorflow_lite/tensorflow/lite/micro/kernels/floor_div.cc **** TfLiteStatus Prepare(TfLiteContext* context, TfLiteNode* node) {
  50              		.loc 1 57 0
  51              		.cfi_startproc
  52              		@ args = 0, pretend = 0, frame = 16
  53              		@ frame_needed = 0, uses_anonymous_args = 0
  54              	.LVL2:
  55              	.LBB175:
  56              	.LBB176:
  57              	.LBB177:
  58              	.LBB178:
  59              		.file 2 "C:/Renesas/e2studio_2021_01_workspace_RZA2M_ANPR/ANPR_RZA2M_EBK/src/tensorflow_lite/tenso
   1:C:/Renesas/e2studio_2021_01_workspace_RZA2M_ANPR/ANPR_RZA2M_EBK/src/tensorflow_lite/tensorflow/lite/kernels\kernel_util.h **** /* Copyright 2017 The TensorFlow Authors. All Rights Reserved.
   2:C:/Renesas/e2studio_2021_01_workspace_RZA2M_ANPR/ANPR_RZA2M_EBK/src/tensorflow_lite/tensorflow/lite/kernels\kernel_util.h **** 
   3:C:/Renesas/e2studio_2021_01_workspace_RZA2M_ANPR/ANPR_RZA2M_EBK/src/tensorflow_lite/tensorflow/lite/kernels\kernel_util.h **** Licensed under the Apache License, Version 2.0 (the "License");
   4:C:/Renesas/e2studio_2021_01_workspace_RZA2M_ANPR/ANPR_RZA2M_EBK/src/tensorflow_lite/tensorflow/lite/kernels\kernel_util.h **** you may not use this file except in compliance with the License.
   5:C:/Renesas/e2studio_2021_01_workspace_RZA2M_ANPR/ANPR_RZA2M_EBK/src/tensorflow_lite/tensorflow/lite/kernels\kernel_util.h **** You may obtain a copy of the License at
   6:C:/Renesas/e2studio_2021_01_workspace_RZA2M_ANPR/ANPR_RZA2M_EBK/src/tensorflow_lite/tensorflow/lite/kernels\kernel_util.h **** 
   7:C:/Renesas/e2studio_2021_01_workspace_RZA2M_ANPR/ANPR_RZA2M_EBK/src/tensorflow_lite/tensorflow/lite/kernels\kernel_util.h ****     http://www.apache.org/licenses/LICENSE-2.0
   8:C:/Renesas/e2studio_2021_01_workspace_RZA2M_ANPR/ANPR_RZA2M_EBK/src/tensorflow_lite/tensorflow/lite/kernels\kernel_util.h **** 
   9:C:/Renesas/e2studio_2021_01_workspace_RZA2M_ANPR/ANPR_RZA2M_EBK/src/tensorflow_lite/tensorflow/lite/kernels\kernel_util.h **** Unless required by applicable law or agreed to in writing, software
  10:C:/Renesas/e2studio_2021_01_workspace_RZA2M_ANPR/ANPR_RZA2M_EBK/src/tensorflow_lite/tensorflow/lite/kernels\kernel_util.h **** distributed under the License is distributed on an "AS IS" BASIS,
  11:C:/Renesas/e2studio_2021_01_workspace_RZA2M_ANPR/ANPR_RZA2M_EBK/src/tensorflow_lite/tensorflow/lite/kernels\kernel_util.h **** WITHOUT WARRANTIES OR CONDITIONS OF ANY KIND, either express or implied.
  12:C:/Renesas/e2studio_2021_01_workspace_RZA2M_ANPR/ANPR_RZA2M_EBK/src/tensorflow_lite/tensorflow/lite/kernels\kernel_util.h **** See the License for the specific language governing permissions and
  13:C:/Renesas/e2studio_2021_01_workspace_RZA2M_ANPR/ANPR_RZA2M_EBK/src/tensorflow_lite/tensorflow/lite/kernels\kernel_util.h **** limitations under the License.
  14:C:/Renesas/e2studio_2021_01_workspace_RZA2M_ANPR/ANPR_RZA2M_EBK/src/tensorflow_lite/tensorflow/lite/kernels\kernel_util.h **** ==============================================================================*/
  15:C:/Renesas/e2studio_2021_01_workspace_RZA2M_ANPR/ANPR_RZA2M_EBK/src/tensorflow_lite/tensorflow/lite/kernels\kernel_util.h **** #ifndef TENSORFLOW_LITE_KERNELS_KERNEL_UTIL_H_
  16:C:/Renesas/e2studio_2021_01_workspace_RZA2M_ANPR/ANPR_RZA2M_EBK/src/tensorflow_lite/tensorflow/lite/kernels\kernel_util.h **** #define TENSORFLOW_LITE_KERNELS_KERNEL_UTIL_H_
  17:C:/Renesas/e2studio_2021_01_workspace_RZA2M_ANPR/ANPR_RZA2M_EBK/src/tensorflow_lite/tensorflow/lite/kernels\kernel_util.h **** 
  18:C:/Renesas/e2studio_2021_01_workspace_RZA2M_ANPR/ANPR_RZA2M_EBK/src/tensorflow_lite/tensorflow/lite/kernels\kernel_util.h **** #include <stdint.h>
  19:C:/Renesas/e2studio_2021_01_workspace_RZA2M_ANPR/ANPR_RZA2M_EBK/src/tensorflow_lite/tensorflow/lite/kernels\kernel_util.h **** 
  20:C:/Renesas/e2studio_2021_01_workspace_RZA2M_ANPR/ANPR_RZA2M_EBK/src/tensorflow_lite/tensorflow/lite/kernels\kernel_util.h **** #include <limits>
  21:C:/Renesas/e2studio_2021_01_workspace_RZA2M_ANPR/ANPR_RZA2M_EBK/src/tensorflow_lite/tensorflow/lite/kernels\kernel_util.h **** 
  22:C:/Renesas/e2studio_2021_01_workspace_RZA2M_ANPR/ANPR_RZA2M_EBK/src/tensorflow_lite/tensorflow/lite/kernels\kernel_util.h **** #include "tensorflow/lite/c/builtin_op_data.h"
  23:C:/Renesas/e2studio_2021_01_workspace_RZA2M_ANPR/ANPR_RZA2M_EBK/src/tensorflow_lite/tensorflow/lite/kernels\kernel_util.h **** #include "tensorflow/lite/c/common.h"
  24:C:/Renesas/e2studio_2021_01_workspace_RZA2M_ANPR/ANPR_RZA2M_EBK/src/tensorflow_lite/tensorflow/lite/kernels\kernel_util.h **** 
  25:C:/Renesas/e2studio_2021_01_workspace_RZA2M_ANPR/ANPR_RZA2M_EBK/src/tensorflow_lite/tensorflow/lite/kernels\kernel_util.h **** namespace tflite {
  26:C:/Renesas/e2studio_2021_01_workspace_RZA2M_ANPR/ANPR_RZA2M_EBK/src/tensorflow_lite/tensorflow/lite/kernels\kernel_util.h **** 
  27:C:/Renesas/e2studio_2021_01_workspace_RZA2M_ANPR/ANPR_RZA2M_EBK/src/tensorflow_lite/tensorflow/lite/kernels\kernel_util.h **** // A fair number of functions in this header have historically been inline.
  28:C:/Renesas/e2studio_2021_01_workspace_RZA2M_ANPR/ANPR_RZA2M_EBK/src/tensorflow_lite/tensorflow/lite/kernels\kernel_util.h **** // It is ok to change functions to not be inline if the latency with
  29:C:/Renesas/e2studio_2021_01_workspace_RZA2M_ANPR/ANPR_RZA2M_EBK/src/tensorflow_lite/tensorflow/lite/kernels\kernel_util.h **** // benchmark_model for MobileNet + MobileBERT is unaffected. If such a change is
  30:C:/Renesas/e2studio_2021_01_workspace_RZA2M_ANPR/ANPR_RZA2M_EBK/src/tensorflow_lite/tensorflow/lite/kernels\kernel_util.h **** // made, move the newly non-inlined function declarations to the top of this
  31:C:/Renesas/e2studio_2021_01_workspace_RZA2M_ANPR/ANPR_RZA2M_EBK/src/tensorflow_lite/tensorflow/lite/kernels\kernel_util.h **** // header file.
  32:C:/Renesas/e2studio_2021_01_workspace_RZA2M_ANPR/ANPR_RZA2M_EBK/src/tensorflow_lite/tensorflow/lite/kernels\kernel_util.h **** 
  33:C:/Renesas/e2studio_2021_01_workspace_RZA2M_ANPR/ANPR_RZA2M_EBK/src/tensorflow_lite/tensorflow/lite/kernels\kernel_util.h **** // Note: You must check if result is not null:
  34:C:/Renesas/e2studio_2021_01_workspace_RZA2M_ANPR/ANPR_RZA2M_EBK/src/tensorflow_lite/tensorflow/lite/kernels\kernel_util.h **** //
  35:C:/Renesas/e2studio_2021_01_workspace_RZA2M_ANPR/ANPR_RZA2M_EBK/src/tensorflow_lite/tensorflow/lite/kernels\kernel_util.h **** //   TfLiteTensor* my_tensor = GetInput(context, node, kMyTensorIdx);
  36:C:/Renesas/e2studio_2021_01_workspace_RZA2M_ANPR/ANPR_RZA2M_EBK/src/tensorflow_lite/tensorflow/lite/kernels\kernel_util.h **** //   TF_LITE_ENSURE(context, my_tensor != nullptr);
  37:C:/Renesas/e2studio_2021_01_workspace_RZA2M_ANPR/ANPR_RZA2M_EBK/src/tensorflow_lite/tensorflow/lite/kernels\kernel_util.h **** //
  38:C:/Renesas/e2studio_2021_01_workspace_RZA2M_ANPR/ANPR_RZA2M_EBK/src/tensorflow_lite/tensorflow/lite/kernels\kernel_util.h **** // This is because the index might point to the optional tensor constant
  39:C:/Renesas/e2studio_2021_01_workspace_RZA2M_ANPR/ANPR_RZA2M_EBK/src/tensorflow_lite/tensorflow/lite/kernels\kernel_util.h **** // (kTfLiteOptionalTensor) in which case there is no tensor to return.
  40:C:/Renesas/e2studio_2021_01_workspace_RZA2M_ANPR/ANPR_RZA2M_EBK/src/tensorflow_lite/tensorflow/lite/kernels\kernel_util.h **** const TfLiteTensor* GetInput(const TfLiteContext* context,
  41:C:/Renesas/e2studio_2021_01_workspace_RZA2M_ANPR/ANPR_RZA2M_EBK/src/tensorflow_lite/tensorflow/lite/kernels\kernel_util.h ****                              const TfLiteNode* node, int index);
  42:C:/Renesas/e2studio_2021_01_workspace_RZA2M_ANPR/ANPR_RZA2M_EBK/src/tensorflow_lite/tensorflow/lite/kernels\kernel_util.h **** 
  43:C:/Renesas/e2studio_2021_01_workspace_RZA2M_ANPR/ANPR_RZA2M_EBK/src/tensorflow_lite/tensorflow/lite/kernels\kernel_util.h **** // Same as `GetInput` but returns boolean and uses output argument for tensor.
  44:C:/Renesas/e2studio_2021_01_workspace_RZA2M_ANPR/ANPR_RZA2M_EBK/src/tensorflow_lite/tensorflow/lite/kernels\kernel_util.h **** //
  45:C:/Renesas/e2studio_2021_01_workspace_RZA2M_ANPR/ANPR_RZA2M_EBK/src/tensorflow_lite/tensorflow/lite/kernels\kernel_util.h **** //   TfLiteTensor* my_tensor;
  46:C:/Renesas/e2studio_2021_01_workspace_RZA2M_ANPR/ANPR_RZA2M_EBK/src/tensorflow_lite/tensorflow/lite/kernels\kernel_util.h **** //   TF_LITE_ENSURE_OK(context,
  47:C:/Renesas/e2studio_2021_01_workspace_RZA2M_ANPR/ANPR_RZA2M_EBK/src/tensorflow_lite/tensorflow/lite/kernels\kernel_util.h **** //                     GetInputSafe(context, node, kMyTensorIdx, &my_tensor));
  48:C:/Renesas/e2studio_2021_01_workspace_RZA2M_ANPR/ANPR_RZA2M_EBK/src/tensorflow_lite/tensorflow/lite/kernels\kernel_util.h **** //   // can use my_tensor directly from here onwards, it is not nullptr
  49:C:/Renesas/e2studio_2021_01_workspace_RZA2M_ANPR/ANPR_RZA2M_EBK/src/tensorflow_lite/tensorflow/lite/kernels\kernel_util.h **** //
  50:C:/Renesas/e2studio_2021_01_workspace_RZA2M_ANPR/ANPR_RZA2M_EBK/src/tensorflow_lite/tensorflow/lite/kernels\kernel_util.h **** // Should be used in cases where the binary size is too large.
  51:C:/Renesas/e2studio_2021_01_workspace_RZA2M_ANPR/ANPR_RZA2M_EBK/src/tensorflow_lite/tensorflow/lite/kernels\kernel_util.h **** TfLiteStatus GetInputSafe(const TfLiteContext* context, const TfLiteNode* node,
  52:C:/Renesas/e2studio_2021_01_workspace_RZA2M_ANPR/ANPR_RZA2M_EBK/src/tensorflow_lite/tensorflow/lite/kernels\kernel_util.h ****                           int index, const TfLiteTensor** tensor);
  53:C:/Renesas/e2studio_2021_01_workspace_RZA2M_ANPR/ANPR_RZA2M_EBK/src/tensorflow_lite/tensorflow/lite/kernels\kernel_util.h **** 
  54:C:/Renesas/e2studio_2021_01_workspace_RZA2M_ANPR/ANPR_RZA2M_EBK/src/tensorflow_lite/tensorflow/lite/kernels\kernel_util.h **** // Note: You must check if result is not null:
  55:C:/Renesas/e2studio_2021_01_workspace_RZA2M_ANPR/ANPR_RZA2M_EBK/src/tensorflow_lite/tensorflow/lite/kernels\kernel_util.h **** //
  56:C:/Renesas/e2studio_2021_01_workspace_RZA2M_ANPR/ANPR_RZA2M_EBK/src/tensorflow_lite/tensorflow/lite/kernels\kernel_util.h **** //   TfLiteTensor* my_tensor = GetVariableInput(context, node, kMyTensorIdx);
  57:C:/Renesas/e2studio_2021_01_workspace_RZA2M_ANPR/ANPR_RZA2M_EBK/src/tensorflow_lite/tensorflow/lite/kernels\kernel_util.h **** //   TF_LITE_ENSURE(context, my_tensor != nullptr);
  58:C:/Renesas/e2studio_2021_01_workspace_RZA2M_ANPR/ANPR_RZA2M_EBK/src/tensorflow_lite/tensorflow/lite/kernels\kernel_util.h **** //
  59:C:/Renesas/e2studio_2021_01_workspace_RZA2M_ANPR/ANPR_RZA2M_EBK/src/tensorflow_lite/tensorflow/lite/kernels\kernel_util.h **** // This is because the index might point to the optional tensor constant
  60:C:/Renesas/e2studio_2021_01_workspace_RZA2M_ANPR/ANPR_RZA2M_EBK/src/tensorflow_lite/tensorflow/lite/kernels\kernel_util.h **** // (kTfLiteOptionalTensor) in which case there is no tensor to return.
  61:C:/Renesas/e2studio_2021_01_workspace_RZA2M_ANPR/ANPR_RZA2M_EBK/src/tensorflow_lite/tensorflow/lite/kernels\kernel_util.h **** TfLiteTensor* GetVariableInput(TfLiteContext* context, const TfLiteNode* node,
  62:C:/Renesas/e2studio_2021_01_workspace_RZA2M_ANPR/ANPR_RZA2M_EBK/src/tensorflow_lite/tensorflow/lite/kernels\kernel_util.h ****                                int index);
  63:C:/Renesas/e2studio_2021_01_workspace_RZA2M_ANPR/ANPR_RZA2M_EBK/src/tensorflow_lite/tensorflow/lite/kernels\kernel_util.h **** 
  64:C:/Renesas/e2studio_2021_01_workspace_RZA2M_ANPR/ANPR_RZA2M_EBK/src/tensorflow_lite/tensorflow/lite/kernels\kernel_util.h **** // Note: You must check if result is not null:
  65:C:/Renesas/e2studio_2021_01_workspace_RZA2M_ANPR/ANPR_RZA2M_EBK/src/tensorflow_lite/tensorflow/lite/kernels\kernel_util.h **** //
  66:C:/Renesas/e2studio_2021_01_workspace_RZA2M_ANPR/ANPR_RZA2M_EBK/src/tensorflow_lite/tensorflow/lite/kernels\kernel_util.h **** //   TfLiteTensor* my_tensor = GetOutput(context, node, kMyTensorIdx);
  67:C:/Renesas/e2studio_2021_01_workspace_RZA2M_ANPR/ANPR_RZA2M_EBK/src/tensorflow_lite/tensorflow/lite/kernels\kernel_util.h **** //   TF_LITE_ENSURE(context, my_tensor != nullptr);
  68:C:/Renesas/e2studio_2021_01_workspace_RZA2M_ANPR/ANPR_RZA2M_EBK/src/tensorflow_lite/tensorflow/lite/kernels\kernel_util.h **** //
  69:C:/Renesas/e2studio_2021_01_workspace_RZA2M_ANPR/ANPR_RZA2M_EBK/src/tensorflow_lite/tensorflow/lite/kernels\kernel_util.h **** // This is because the index might point to the optional tensor constant
  70:C:/Renesas/e2studio_2021_01_workspace_RZA2M_ANPR/ANPR_RZA2M_EBK/src/tensorflow_lite/tensorflow/lite/kernels\kernel_util.h **** // (kTfLiteOptionalTensor) in which case there is no tensor to return.
  71:C:/Renesas/e2studio_2021_01_workspace_RZA2M_ANPR/ANPR_RZA2M_EBK/src/tensorflow_lite/tensorflow/lite/kernels\kernel_util.h **** TfLiteTensor* GetOutput(TfLiteContext* context, const TfLiteNode* node,
  72:C:/Renesas/e2studio_2021_01_workspace_RZA2M_ANPR/ANPR_RZA2M_EBK/src/tensorflow_lite/tensorflow/lite/kernels\kernel_util.h ****                         int index);
  73:C:/Renesas/e2studio_2021_01_workspace_RZA2M_ANPR/ANPR_RZA2M_EBK/src/tensorflow_lite/tensorflow/lite/kernels\kernel_util.h **** 
  74:C:/Renesas/e2studio_2021_01_workspace_RZA2M_ANPR/ANPR_RZA2M_EBK/src/tensorflow_lite/tensorflow/lite/kernels\kernel_util.h **** // Same as `GetOutput` but returns boolean and uses output argument for tensor.
  75:C:/Renesas/e2studio_2021_01_workspace_RZA2M_ANPR/ANPR_RZA2M_EBK/src/tensorflow_lite/tensorflow/lite/kernels\kernel_util.h **** //
  76:C:/Renesas/e2studio_2021_01_workspace_RZA2M_ANPR/ANPR_RZA2M_EBK/src/tensorflow_lite/tensorflow/lite/kernels\kernel_util.h **** //   TfLiteTensor* my_tensor;
  77:C:/Renesas/e2studio_2021_01_workspace_RZA2M_ANPR/ANPR_RZA2M_EBK/src/tensorflow_lite/tensorflow/lite/kernels\kernel_util.h **** //   TF_LITE_ENSURE_OK(context,
  78:C:/Renesas/e2studio_2021_01_workspace_RZA2M_ANPR/ANPR_RZA2M_EBK/src/tensorflow_lite/tensorflow/lite/kernels\kernel_util.h **** //                     GetOutputSafe(context, node, kMyTensorIdx, &my_tensor));
  79:C:/Renesas/e2studio_2021_01_workspace_RZA2M_ANPR/ANPR_RZA2M_EBK/src/tensorflow_lite/tensorflow/lite/kernels\kernel_util.h **** //   // can use my_tensor directly from here onwards, it is not nullptr
  80:C:/Renesas/e2studio_2021_01_workspace_RZA2M_ANPR/ANPR_RZA2M_EBK/src/tensorflow_lite/tensorflow/lite/kernels\kernel_util.h **** //
  81:C:/Renesas/e2studio_2021_01_workspace_RZA2M_ANPR/ANPR_RZA2M_EBK/src/tensorflow_lite/tensorflow/lite/kernels\kernel_util.h **** // Should be used in cases where the binary size is too large.
  82:C:/Renesas/e2studio_2021_01_workspace_RZA2M_ANPR/ANPR_RZA2M_EBK/src/tensorflow_lite/tensorflow/lite/kernels\kernel_util.h **** TfLiteStatus GetOutputSafe(const TfLiteContext* context, const TfLiteNode* node,
  83:C:/Renesas/e2studio_2021_01_workspace_RZA2M_ANPR/ANPR_RZA2M_EBK/src/tensorflow_lite/tensorflow/lite/kernels\kernel_util.h ****                            int index, TfLiteTensor** tensor);
  84:C:/Renesas/e2studio_2021_01_workspace_RZA2M_ANPR/ANPR_RZA2M_EBK/src/tensorflow_lite/tensorflow/lite/kernels\kernel_util.h **** 
  85:C:/Renesas/e2studio_2021_01_workspace_RZA2M_ANPR/ANPR_RZA2M_EBK/src/tensorflow_lite/tensorflow/lite/kernels\kernel_util.h **** // Note: You must check if result is not null:
  86:C:/Renesas/e2studio_2021_01_workspace_RZA2M_ANPR/ANPR_RZA2M_EBK/src/tensorflow_lite/tensorflow/lite/kernels\kernel_util.h **** //
  87:C:/Renesas/e2studio_2021_01_workspace_RZA2M_ANPR/ANPR_RZA2M_EBK/src/tensorflow_lite/tensorflow/lite/kernels\kernel_util.h **** //   TfLiteTensor* my_tensor = GetOptionalInputTensor(context, node, kIdx);
  88:C:/Renesas/e2studio_2021_01_workspace_RZA2M_ANPR/ANPR_RZA2M_EBK/src/tensorflow_lite/tensorflow/lite/kernels\kernel_util.h **** //   TF_LITE_ENSURE(context, my_tensor != nullptr);
  89:C:/Renesas/e2studio_2021_01_workspace_RZA2M_ANPR/ANPR_RZA2M_EBK/src/tensorflow_lite/tensorflow/lite/kernels\kernel_util.h **** //
  90:C:/Renesas/e2studio_2021_01_workspace_RZA2M_ANPR/ANPR_RZA2M_EBK/src/tensorflow_lite/tensorflow/lite/kernels\kernel_util.h **** // This is because the index might point to the optional tensor constant
  91:C:/Renesas/e2studio_2021_01_workspace_RZA2M_ANPR/ANPR_RZA2M_EBK/src/tensorflow_lite/tensorflow/lite/kernels\kernel_util.h **** // (kTfLiteOptionalTensor) in which case there is no tensor to return.
  92:C:/Renesas/e2studio_2021_01_workspace_RZA2M_ANPR/ANPR_RZA2M_EBK/src/tensorflow_lite/tensorflow/lite/kernels\kernel_util.h **** //
  93:C:/Renesas/e2studio_2021_01_workspace_RZA2M_ANPR/ANPR_RZA2M_EBK/src/tensorflow_lite/tensorflow/lite/kernels\kernel_util.h **** // Deprecated. GetInput has the same functionality.
  94:C:/Renesas/e2studio_2021_01_workspace_RZA2M_ANPR/ANPR_RZA2M_EBK/src/tensorflow_lite/tensorflow/lite/kernels\kernel_util.h **** const TfLiteTensor* GetOptionalInputTensor(const TfLiteContext* context,
  95:C:/Renesas/e2studio_2021_01_workspace_RZA2M_ANPR/ANPR_RZA2M_EBK/src/tensorflow_lite/tensorflow/lite/kernels\kernel_util.h ****                                            const TfLiteNode* node, int index);
  96:C:/Renesas/e2studio_2021_01_workspace_RZA2M_ANPR/ANPR_RZA2M_EBK/src/tensorflow_lite/tensorflow/lite/kernels\kernel_util.h **** 
  97:C:/Renesas/e2studio_2021_01_workspace_RZA2M_ANPR/ANPR_RZA2M_EBK/src/tensorflow_lite/tensorflow/lite/kernels\kernel_util.h **** #ifndef TF_LITE_STATIC_MEMORY
  98:C:/Renesas/e2studio_2021_01_workspace_RZA2M_ANPR/ANPR_RZA2M_EBK/src/tensorflow_lite/tensorflow/lite/kernels\kernel_util.h **** // Note: You must check if result is not null:
  99:C:/Renesas/e2studio_2021_01_workspace_RZA2M_ANPR/ANPR_RZA2M_EBK/src/tensorflow_lite/tensorflow/lite/kernels\kernel_util.h **** //
 100:C:/Renesas/e2studio_2021_01_workspace_RZA2M_ANPR/ANPR_RZA2M_EBK/src/tensorflow_lite/tensorflow/lite/kernels\kernel_util.h **** //   TfLiteTensor* my_tensor = GetTemporary(context, node, kMyTensorIdx);
 101:C:/Renesas/e2studio_2021_01_workspace_RZA2M_ANPR/ANPR_RZA2M_EBK/src/tensorflow_lite/tensorflow/lite/kernels\kernel_util.h **** //   TF_LITE_ENSURE(context, my_tensor != nullptr);
 102:C:/Renesas/e2studio_2021_01_workspace_RZA2M_ANPR/ANPR_RZA2M_EBK/src/tensorflow_lite/tensorflow/lite/kernels\kernel_util.h **** //
 103:C:/Renesas/e2studio_2021_01_workspace_RZA2M_ANPR/ANPR_RZA2M_EBK/src/tensorflow_lite/tensorflow/lite/kernels\kernel_util.h **** // This is because the index might point to the optional tensor constant
 104:C:/Renesas/e2studio_2021_01_workspace_RZA2M_ANPR/ANPR_RZA2M_EBK/src/tensorflow_lite/tensorflow/lite/kernels\kernel_util.h **** // (kTfLiteOptionalTensor) in which case there is no tensor to return.
 105:C:/Renesas/e2studio_2021_01_workspace_RZA2M_ANPR/ANPR_RZA2M_EBK/src/tensorflow_lite/tensorflow/lite/kernels\kernel_util.h **** TfLiteTensor* GetTemporary(TfLiteContext* context, const TfLiteNode* node,
 106:C:/Renesas/e2studio_2021_01_workspace_RZA2M_ANPR/ANPR_RZA2M_EBK/src/tensorflow_lite/tensorflow/lite/kernels\kernel_util.h ****                            int index);
 107:C:/Renesas/e2studio_2021_01_workspace_RZA2M_ANPR/ANPR_RZA2M_EBK/src/tensorflow_lite/tensorflow/lite/kernels\kernel_util.h **** 
 108:C:/Renesas/e2studio_2021_01_workspace_RZA2M_ANPR/ANPR_RZA2M_EBK/src/tensorflow_lite/tensorflow/lite/kernels\kernel_util.h **** // Same as `GetTemporary` but returns boolean and uses output argument for
 109:C:/Renesas/e2studio_2021_01_workspace_RZA2M_ANPR/ANPR_RZA2M_EBK/src/tensorflow_lite/tensorflow/lite/kernels\kernel_util.h **** // tensor.
 110:C:/Renesas/e2studio_2021_01_workspace_RZA2M_ANPR/ANPR_RZA2M_EBK/src/tensorflow_lite/tensorflow/lite/kernels\kernel_util.h **** //
 111:C:/Renesas/e2studio_2021_01_workspace_RZA2M_ANPR/ANPR_RZA2M_EBK/src/tensorflow_lite/tensorflow/lite/kernels\kernel_util.h **** //   TfLiteTensor* my_tensor;
 112:C:/Renesas/e2studio_2021_01_workspace_RZA2M_ANPR/ANPR_RZA2M_EBK/src/tensorflow_lite/tensorflow/lite/kernels\kernel_util.h **** //   TF_LITE_ENSURE_OK(context,
 113:C:/Renesas/e2studio_2021_01_workspace_RZA2M_ANPR/ANPR_RZA2M_EBK/src/tensorflow_lite/tensorflow/lite/kernels\kernel_util.h **** //                     GetTemporarySafe(context, node, kMyTensorIdx,
 114:C:/Renesas/e2studio_2021_01_workspace_RZA2M_ANPR/ANPR_RZA2M_EBK/src/tensorflow_lite/tensorflow/lite/kernels\kernel_util.h **** //                     &my_tensor));
 115:C:/Renesas/e2studio_2021_01_workspace_RZA2M_ANPR/ANPR_RZA2M_EBK/src/tensorflow_lite/tensorflow/lite/kernels\kernel_util.h **** //   // can use my_tensor directly from here onwards, it is not nullptr
 116:C:/Renesas/e2studio_2021_01_workspace_RZA2M_ANPR/ANPR_RZA2M_EBK/src/tensorflow_lite/tensorflow/lite/kernels\kernel_util.h **** //
 117:C:/Renesas/e2studio_2021_01_workspace_RZA2M_ANPR/ANPR_RZA2M_EBK/src/tensorflow_lite/tensorflow/lite/kernels\kernel_util.h **** // Should be used in cases where the binary size is too large.
 118:C:/Renesas/e2studio_2021_01_workspace_RZA2M_ANPR/ANPR_RZA2M_EBK/src/tensorflow_lite/tensorflow/lite/kernels\kernel_util.h **** TfLiteStatus GetTemporarySafe(const TfLiteContext* context,
 119:C:/Renesas/e2studio_2021_01_workspace_RZA2M_ANPR/ANPR_RZA2M_EBK/src/tensorflow_lite/tensorflow/lite/kernels\kernel_util.h ****                               const TfLiteNode* node, int index,
 120:C:/Renesas/e2studio_2021_01_workspace_RZA2M_ANPR/ANPR_RZA2M_EBK/src/tensorflow_lite/tensorflow/lite/kernels\kernel_util.h ****                               TfLiteTensor** tensor);
 121:C:/Renesas/e2studio_2021_01_workspace_RZA2M_ANPR/ANPR_RZA2M_EBK/src/tensorflow_lite/tensorflow/lite/kernels\kernel_util.h **** 
 122:C:/Renesas/e2studio_2021_01_workspace_RZA2M_ANPR/ANPR_RZA2M_EBK/src/tensorflow_lite/tensorflow/lite/kernels\kernel_util.h **** // Note: You must check if result is not null:
 123:C:/Renesas/e2studio_2021_01_workspace_RZA2M_ANPR/ANPR_RZA2M_EBK/src/tensorflow_lite/tensorflow/lite/kernels\kernel_util.h **** //
 124:C:/Renesas/e2studio_2021_01_workspace_RZA2M_ANPR/ANPR_RZA2M_EBK/src/tensorflow_lite/tensorflow/lite/kernels\kernel_util.h **** //   TfLiteTensor* my_tensor = GetIntermediates(context, node, kMyTensorIdx);
 125:C:/Renesas/e2studio_2021_01_workspace_RZA2M_ANPR/ANPR_RZA2M_EBK/src/tensorflow_lite/tensorflow/lite/kernels\kernel_util.h **** //   TF_LITE_ENSURE(context, my_tensor != nullptr);
 126:C:/Renesas/e2studio_2021_01_workspace_RZA2M_ANPR/ANPR_RZA2M_EBK/src/tensorflow_lite/tensorflow/lite/kernels\kernel_util.h **** //
 127:C:/Renesas/e2studio_2021_01_workspace_RZA2M_ANPR/ANPR_RZA2M_EBK/src/tensorflow_lite/tensorflow/lite/kernels\kernel_util.h **** // This is because the index might point to the optional tensor constant
 128:C:/Renesas/e2studio_2021_01_workspace_RZA2M_ANPR/ANPR_RZA2M_EBK/src/tensorflow_lite/tensorflow/lite/kernels\kernel_util.h **** // (kTfLiteOptionalTensor) in which case there is no tensor to return.
 129:C:/Renesas/e2studio_2021_01_workspace_RZA2M_ANPR/ANPR_RZA2M_EBK/src/tensorflow_lite/tensorflow/lite/kernels\kernel_util.h **** const TfLiteTensor* GetIntermediates(TfLiteContext* context,
 130:C:/Renesas/e2studio_2021_01_workspace_RZA2M_ANPR/ANPR_RZA2M_EBK/src/tensorflow_lite/tensorflow/lite/kernels\kernel_util.h ****                                      const TfLiteNode* node, int index);
 131:C:/Renesas/e2studio_2021_01_workspace_RZA2M_ANPR/ANPR_RZA2M_EBK/src/tensorflow_lite/tensorflow/lite/kernels\kernel_util.h **** 
 132:C:/Renesas/e2studio_2021_01_workspace_RZA2M_ANPR/ANPR_RZA2M_EBK/src/tensorflow_lite/tensorflow/lite/kernels\kernel_util.h **** // Same as `GetIntermediates` but returns boolean and uses output argument for
 133:C:/Renesas/e2studio_2021_01_workspace_RZA2M_ANPR/ANPR_RZA2M_EBK/src/tensorflow_lite/tensorflow/lite/kernels\kernel_util.h **** // tensor.
 134:C:/Renesas/e2studio_2021_01_workspace_RZA2M_ANPR/ANPR_RZA2M_EBK/src/tensorflow_lite/tensorflow/lite/kernels\kernel_util.h **** //
 135:C:/Renesas/e2studio_2021_01_workspace_RZA2M_ANPR/ANPR_RZA2M_EBK/src/tensorflow_lite/tensorflow/lite/kernels\kernel_util.h **** //   TfLiteTensor* my_tensor;
 136:C:/Renesas/e2studio_2021_01_workspace_RZA2M_ANPR/ANPR_RZA2M_EBK/src/tensorflow_lite/tensorflow/lite/kernels\kernel_util.h **** //   TF_LITE_ENSURE_OK(context,
 137:C:/Renesas/e2studio_2021_01_workspace_RZA2M_ANPR/ANPR_RZA2M_EBK/src/tensorflow_lite/tensorflow/lite/kernels\kernel_util.h **** //                     GetIntermediatesSafe(context, node, kMyTensorIdx,
 138:C:/Renesas/e2studio_2021_01_workspace_RZA2M_ANPR/ANPR_RZA2M_EBK/src/tensorflow_lite/tensorflow/lite/kernels\kernel_util.h **** //                     &my_tensor));
 139:C:/Renesas/e2studio_2021_01_workspace_RZA2M_ANPR/ANPR_RZA2M_EBK/src/tensorflow_lite/tensorflow/lite/kernels\kernel_util.h **** //   // can use my_tensor directly from here onwards, it is not nullptr
 140:C:/Renesas/e2studio_2021_01_workspace_RZA2M_ANPR/ANPR_RZA2M_EBK/src/tensorflow_lite/tensorflow/lite/kernels\kernel_util.h **** //
 141:C:/Renesas/e2studio_2021_01_workspace_RZA2M_ANPR/ANPR_RZA2M_EBK/src/tensorflow_lite/tensorflow/lite/kernels\kernel_util.h **** // Should be used in cases where the binary size is too large.
 142:C:/Renesas/e2studio_2021_01_workspace_RZA2M_ANPR/ANPR_RZA2M_EBK/src/tensorflow_lite/tensorflow/lite/kernels\kernel_util.h **** TfLiteStatus GetIntermediatesSafe(const TfLiteContext* context,
 143:C:/Renesas/e2studio_2021_01_workspace_RZA2M_ANPR/ANPR_RZA2M_EBK/src/tensorflow_lite/tensorflow/lite/kernels\kernel_util.h ****                                   const TfLiteNode* node, int index,
 144:C:/Renesas/e2studio_2021_01_workspace_RZA2M_ANPR/ANPR_RZA2M_EBK/src/tensorflow_lite/tensorflow/lite/kernels\kernel_util.h ****                                   TfLiteTensor** tensor);
 145:C:/Renesas/e2studio_2021_01_workspace_RZA2M_ANPR/ANPR_RZA2M_EBK/src/tensorflow_lite/tensorflow/lite/kernels\kernel_util.h **** #endif  // TF_LITE_STATIC_MEMORY
 146:C:/Renesas/e2studio_2021_01_workspace_RZA2M_ANPR/ANPR_RZA2M_EBK/src/tensorflow_lite/tensorflow/lite/kernels\kernel_util.h **** 
 147:C:/Renesas/e2studio_2021_01_workspace_RZA2M_ANPR/ANPR_RZA2M_EBK/src/tensorflow_lite/tensorflow/lite/kernels\kernel_util.h **** inline int NumDimensions(const TfLiteTensor* t) { return t->dims->size; }
 148:C:/Renesas/e2studio_2021_01_workspace_RZA2M_ANPR/ANPR_RZA2M_EBK/src/tensorflow_lite/tensorflow/lite/kernels\kernel_util.h **** inline int SizeOfDimension(const TfLiteTensor* t, int dim) {
 149:C:/Renesas/e2studio_2021_01_workspace_RZA2M_ANPR/ANPR_RZA2M_EBK/src/tensorflow_lite/tensorflow/lite/kernels\kernel_util.h ****   return t->dims->data[dim];
 150:C:/Renesas/e2studio_2021_01_workspace_RZA2M_ANPR/ANPR_RZA2M_EBK/src/tensorflow_lite/tensorflow/lite/kernels\kernel_util.h **** }
 151:C:/Renesas/e2studio_2021_01_workspace_RZA2M_ANPR/ANPR_RZA2M_EBK/src/tensorflow_lite/tensorflow/lite/kernels\kernel_util.h **** 
 152:C:/Renesas/e2studio_2021_01_workspace_RZA2M_ANPR/ANPR_RZA2M_EBK/src/tensorflow_lite/tensorflow/lite/kernels\kernel_util.h **** inline int NumInputs(const TfLiteNode* node) { return node->inputs->size; }
  60              		.loc 2 152 0
  61 0000 003091E5 		ldr	r3, [r1]
  62              	.LBE178:
  63              	.LBE177:
  64              	.LBE176:
  65              	.LBE175:
  66              		.loc 1 57 0
  67 0004 F0402DE9 		push	{r4, r5, r6, r7, lr}
  68              		.save {r4, r5, r6, r7, lr}
  69              		.cfi_def_cfa_offset 20
  70              		.cfi_offset 4, -20
  71              		.cfi_offset 5, -16
  72              		.cfi_offset 6, -12
  73              		.cfi_offset 7, -8
  74              		.cfi_offset 14, -4
  75 0008 0050A0E1 		mov	r5, r0
  76              	.LVL3:
  77              		.pad #36
  78 000c 24D04DE2 		sub	sp, sp, #36
  79              		.cfi_def_cfa_offset 56
  80              	.LBB189:
  81              	.LBB186:
  82              	.LBB180:
  83              	.LBB179:
  84              		.loc 2 152 0
  85 0010 003093E5 		ldr	r3, [r3]
  86              	.LBE179:
  87              	.LBE180:
  34:../src/tensorflow_lite/tensorflow/lite/micro/kernels/floor_div.cc ****   TF_LITE_ENSURE_EQ(context, NumOutputs(node), 1);
  88              		.loc 1 34 0
  89 0014 020053E3 		cmp	r3, #2
  90 0018 4C00001A 		bne	.L10
  91              	.LBB181:
  92              	.LBB182:
 153:C:/Renesas/e2studio_2021_01_workspace_RZA2M_ANPR/ANPR_RZA2M_EBK/src/tensorflow_lite/tensorflow/lite/kernels\kernel_util.h **** inline int NumOutputs(const TfLiteNode* node) { return node->outputs->size; }
  93              		.loc 2 153 0
  94 001c 043091E5 		ldr	r3, [r1, #4]
  95 0020 0140A0E1 		mov	r4, r1
  96              	.LVL4:
  97 0024 006093E5 		ldr	r6, [r3]
  98              	.LBE182:
  99              	.LBE181:
  35:../src/tensorflow_lite/tensorflow/lite/micro/kernels/floor_div.cc **** 
 100              		.loc 1 35 0
 101 0028 010056E3 		cmp	r6, #1
 102 002c 1200000A 		beq	.L5
 103              	.LVL5:
 104 0030 00C000E3 		movw	ip, #:lower16:.LC5
 105 0034 003000E3 		movw	r3, #:lower16:.LC6
 106 0038 00C040E3 		movt	ip, #:upper16:.LC5
 107 003c 003040E3 		movt	r3, #:upper16:.LC6
 108 0040 0140A0E3 		mov	r4, #1
 109 0044 002000E3 		movw	r2, #:lower16:.LC1
 110 0048 001000E3 		movw	r1, #:lower16:.LC2
 111              	.LVL6:
 112 004c 08608DE5 		str	r6, [sp, #8]
 113 0050 002040E3 		movt	r2, #:upper16:.LC1
 114 0054 145090E5 		ldr	r5, [r0, #20]
 115 0058 001040E3 		movt	r1, #:upper16:.LC2
 116 005c 00308DE5 		str	r3, [sp]
 117 0060 04C08DE5 		str	ip, [sp, #4]
 118 0064 2330A0E3 		mov	r3, #35
 119 0068 0C408DE5 		str	r4, [sp, #12]
 120 006c 35FF2FE1 		blx	r5
 121              	.LVL7:
 122 0070 0400A0E1 		mov	r0, r4
 123              	.LVL8:
 124              	.L4:
 125              	.LBE186:
 126              	.LBE189:
  58:../src/tensorflow_lite/tensorflow/lite/micro/kernels/floor_div.cc ****   return CalculateOpData(context, node);
  59:../src/tensorflow_lite/tensorflow/lite/micro/kernels/floor_div.cc **** }
 127              		.loc 1 59 0
 128 0074 24D08DE2 		add	sp, sp, #36
 129              		.cfi_remember_state
 130              		.cfi_def_cfa_offset 20
 131              		@ sp needed
 132 0078 F080BDE8 		pop	{r4, r5, r6, r7, pc}
 133              	.LVL9:
 134              	.L5:
 135              		.cfi_restore_state
 136              	.LBB190:
 137              	.LBB187:
 138              	.LBB183:
  38:../src/tensorflow_lite/tensorflow/lite/micro/kernels/floor_div.cc ****                     GetInputSafe(context, node, kInputTensor1, &input1));
 139              		.loc 1 38 0
 140 007c 14308DE2 		add	r3, sp, #20
 141 0080 0020A0E3 		mov	r2, #0
 142 0084 FEFFFFEB 		bl	_ZN6tflite12GetInputSafeEPK13TfLiteContextPK10TfLiteNodeiPPK12TfLiteTensor
 143              	.LVL10:
 144 0088 000050E3 		cmp	r0, #0
 145              	.LVL11:
 146 008c F8FFFF1A 		bne	.L4
 147              	.LBE183:
 148              	.LBB184:
  41:../src/tensorflow_lite/tensorflow/lite/micro/kernels/floor_div.cc ****                     GetInputSafe(context, node, kInputTensor2, &input2));
 149              		.loc 1 41 0
 150 0090 18308DE2 		add	r3, sp, #24
 151 0094 0620A0E1 		mov	r2, r6
 152 0098 0410A0E1 		mov	r1, r4
 153 009c 0500A0E1 		mov	r0, r5
 154 00a0 FEFFFFEB 		bl	_ZN6tflite12GetInputSafeEPK13TfLiteContextPK10TfLiteNodeiPPK12TfLiteTensor
 155              	.LVL12:
 156 00a4 000050E3 		cmp	r0, #0
 157              	.LVL13:
 158 00a8 F1FFFF1A 		bne	.L4
 159              	.LBE184:
 160              	.LBB185:
  44:../src/tensorflow_lite/tensorflow/lite/micro/kernels/floor_div.cc ****                     GetOutputSafe(context, node, kOutputTensor, &output));
 161              		.loc 1 44 0
 162 00ac 0020A0E1 		mov	r2, r0
 163 00b0 0410A0E1 		mov	r1, r4
 164 00b4 1C308DE2 		add	r3, sp, #28
 165 00b8 0500A0E1 		mov	r0, r5
 166 00bc FEFFFFEB 		bl	_ZN6tflite13GetOutputSafeEPK13TfLiteContextPK10TfLiteNodeiPP12TfLiteTensor
 167              	.LVL14:
 168 00c0 000050E3 		cmp	r0, #0
 169              	.LVL15:
 170 00c4 EAFFFF1A 		bne	.L4
 171              	.LBE185:
  47:../src/tensorflow_lite/tensorflow/lite/micro/kernels/floor_div.cc ****   TF_LITE_ENSURE_TYPES_EQ(context, input1->type, output->type);
 172              		.loc 1 47 0
 173 00c8 14209DE5 		ldr	r2, [sp, #20]
 174 00cc 18309DE5 		ldr	r3, [sp, #24]
 175 00d0 0020D2E5 		ldrb	r2, [r2]	@ zero_extendqisi2
 176 00d4 0030D3E5 		ldrb	r3, [r3]	@ zero_extendqisi2
 177 00d8 020053E1 		cmp	r3, r2
 178 00dc 2E00001A 		bne	.L11
  48:../src/tensorflow_lite/tensorflow/lite/micro/kernels/floor_div.cc **** 
 179              		.loc 1 48 0
 180 00e0 1C209DE5 		ldr	r2, [sp, #28]
 181 00e4 0020D2E5 		ldrb	r2, [r2]	@ zero_extendqisi2
 182 00e8 030052E1 		cmp	r2, r3
 183 00ec E0FFFF0A 		beq	.L4
 184 00f0 0300A0E1 		mov	r0, r3
 185 00f4 144095E5 		ldr	r4, [r5, #20]
 186              	.LVL16:
 187 00f8 FEFFFFEB 		bl	TfLiteTypeGetName
 188              	.LVL17:
 189 00fc 1C309DE5 		ldr	r3, [sp, #28]
 190 0100 0070A0E1 		mov	r7, r0
 191 0104 0000D3E5 		ldrb	r0, [r3]	@ zero_extendqisi2
 192 0108 FEFFFFEB 		bl	TfLiteTypeGetName
 193              	.LVL18:
 194 010c 00C000E3 		movw	ip, #:lower16:.LC10
 195 0110 003000E3 		movw	r3, #:lower16:.LC9
 196 0114 00C040E3 		movt	ip, #:upper16:.LC10
 197 0118 003040E3 		movt	r3, #:upper16:.LC9
 198 011c 002000E3 		movw	r2, #:lower16:.LC1
 199 0120 001000E3 		movw	r1, #:lower16:.LC7
 200 0124 0C008DE5 		str	r0, [sp, #12]
 201 0128 002040E3 		movt	r2, #:upper16:.LC1
 202 012c 0500A0E1 		mov	r0, r5
 203 0130 00308DE5 		str	r3, [sp]
 204 0134 08708DE5 		str	r7, [sp, #8]
 205 0138 001040E3 		movt	r1, #:upper16:.LC7
 206 013c 04C08DE5 		str	ip, [sp, #4]
 207 0140 3030A0E3 		mov	r3, #48
 208 0144 34FF2FE1 		blx	r4
 209              	.LVL19:
 210 0148 0600A0E1 		mov	r0, r6
 211 014c C8FFFFEA 		b	.L4
 212              	.LVL20:
 213              	.L10:
  34:../src/tensorflow_lite/tensorflow/lite/micro/kernels/floor_div.cc ****   TF_LITE_ENSURE_EQ(context, NumOutputs(node), 1);
 214              		.loc 1 34 0
 215 0150 00E000E3 		movw	lr, #:lower16:.LC3
 216 0154 00C000E3 		movw	ip, #:lower16:.LC4
 217 0158 00E040E3 		movt	lr, #:upper16:.LC3
 218 015c 00C040E3 		movt	ip, #:upper16:.LC4
 219 0160 0260A0E3 		mov	r6, #2
 220 0164 002000E3 		movw	r2, #:lower16:.LC1
 221 0168 001000E3 		movw	r1, #:lower16:.LC2
 222              	.LVL21:
 223 016c 08308DE5 		str	r3, [sp, #8]
 224 0170 002040E3 		movt	r2, #:upper16:.LC1
 225 0174 144090E5 		ldr	r4, [r0, #20]
 226 0178 001040E3 		movt	r1, #:upper16:.LC2
 227 017c 04E08DE5 		str	lr, [sp, #4]
 228 0180 00C08DE5 		str	ip, [sp]
 229 0184 2230A0E3 		mov	r3, #34
 230 0188 0C608DE5 		str	r6, [sp, #12]
 231 018c 34FF2FE1 		blx	r4
 232              	.LVL22:
 233 0190 0100A0E3 		mov	r0, #1
 234              	.LVL23:
 235              	.LBE187:
 236              	.LBE190:
 237              		.loc 1 59 0
 238 0194 24D08DE2 		add	sp, sp, #36
 239              		.cfi_remember_state
 240              		.cfi_def_cfa_offset 20
 241              		@ sp needed
 242 0198 F080BDE8 		pop	{r4, r5, r6, r7, pc}
 243              	.LVL24:
 244              	.L11:
 245              		.cfi_restore_state
 246              	.LBB191:
 247              	.LBB188:
  47:../src/tensorflow_lite/tensorflow/lite/micro/kernels/floor_div.cc ****   TF_LITE_ENSURE_TYPES_EQ(context, input1->type, output->type);
 248              		.loc 1 47 0
 249 019c 0200A0E1 		mov	r0, r2
 250 01a0 144095E5 		ldr	r4, [r5, #20]
 251              	.LVL25:
 252 01a4 FEFFFFEB 		bl	TfLiteTypeGetName
 253              	.LVL26:
 254 01a8 18309DE5 		ldr	r3, [sp, #24]
 255 01ac 0070A0E1 		mov	r7, r0
 256 01b0 0000D3E5 		ldrb	r0, [r3]	@ zero_extendqisi2
 257 01b4 FEFFFFEB 		bl	TfLiteTypeGetName
 258              	.LVL27:
 259 01b8 00C000E3 		movw	ip, #:lower16:.LC8
 260 01bc 003000E3 		movw	r3, #:lower16:.LC9
 261 01c0 00C040E3 		movt	ip, #:upper16:.LC8
 262 01c4 003040E3 		movt	r3, #:upper16:.LC9
 263 01c8 002000E3 		movw	r2, #:lower16:.LC1
 264 01cc 001000E3 		movw	r1, #:lower16:.LC7
 265 01d0 0C008DE5 		str	r0, [sp, #12]
 266 01d4 002040E3 		movt	r2, #:upper16:.LC1
 267 01d8 0500A0E1 		mov	r0, r5
 268 01dc 00308DE5 		str	r3, [sp]
 269 01e0 08708DE5 		str	r7, [sp, #8]
 270 01e4 001040E3 		movt	r1, #:upper16:.LC7
 271 01e8 04C08DE5 		str	ip, [sp, #4]
 272 01ec 2F30A0E3 		mov	r3, #47
 273 01f0 34FF2FE1 		blx	r4
 274              	.LVL28:
 275 01f4 0600A0E1 		mov	r0, r6
 276 01f8 9DFFFFEA 		b	.L4
 277              	.LBE188:
 278              	.LBE191:
 279              		.cfi_endproc
 280              	.LFE4173:
 281              		.fnend
 283              		.section	.text._ZN6tflite12_GLOBAL__N_112EvalFloorDivIfEE12TfLiteStatusP13TfLiteContextPK16TfLiteE
 284              		.align	2
 285              		.syntax unified
 286              		.arm
 287              		.fpu neon
 289              	_ZN6tflite12_GLOBAL__N_112EvalFloorDivIfEE12TfLiteStatusP13TfLiteContextPK16TfLiteEvalTensorS7_PS5_
 290              		.fnstart
 291              	.LFB4360:
  60:../src/tensorflow_lite/tensorflow/lite/micro/kernels/floor_div.cc **** 
  61:../src/tensorflow_lite/tensorflow/lite/micro/kernels/floor_div.cc **** template <typename T>
  62:../src/tensorflow_lite/tensorflow/lite/micro/kernels/floor_div.cc **** TfLiteStatus EvalFloorDiv(TfLiteContext* context,
 292              		.loc 1 62 0
 293              		.cfi_startproc
 294              		.cfi_personality 0,__gxx_personality_v0
 295              		.cfi_lsda 0,.LLSDA4360
 296              		@ args = 0, pretend = 0, frame = 344
 297              		@ frame_needed = 0, uses_anonymous_args = 0
 298              	.LVL29:
 299 0000 F04F2DE9 		push	{r4, r5, r6, r7, r8, r9, r10, fp, lr}
 300              		.save {r4, r5, r6, r7, r8, r9, r10, fp, lr}
 301              		.cfi_def_cfa_offset 36
 302              		.cfi_offset 4, -36
 303              		.cfi_offset 5, -32
 304              		.cfi_offset 6, -28
 305              		.cfi_offset 7, -24
 306              		.cfi_offset 8, -20
 307              		.cfi_offset 9, -16
 308              		.cfi_offset 10, -12
 309              		.cfi_offset 11, -8
 310              		.cfi_offset 14, -4
 311              	.LBB366:
 312              	.LBB367:
 313              		.file 3 "C:/Renesas/e2studio_2021_01_workspace_RZA2M_ANPR/ANPR_RZA2M_EBK/src/tensorflow_lite/tenso
   1:C:/Renesas/e2studio_2021_01_workspace_RZA2M_ANPR/ANPR_RZA2M_EBK/src/tensorflow_lite/tensorflow/lite/micro/kernels\kernel_util.h **** /* Copyright 2020 The TensorFlow Authors. All Rights Reserved.
   2:C:/Renesas/e2studio_2021_01_workspace_RZA2M_ANPR/ANPR_RZA2M_EBK/src/tensorflow_lite/tensorflow/lite/micro/kernels\kernel_util.h **** 
   3:C:/Renesas/e2studio_2021_01_workspace_RZA2M_ANPR/ANPR_RZA2M_EBK/src/tensorflow_lite/tensorflow/lite/micro/kernels\kernel_util.h **** Licensed under the Apache License, Version 2.0 (the "License");
   4:C:/Renesas/e2studio_2021_01_workspace_RZA2M_ANPR/ANPR_RZA2M_EBK/src/tensorflow_lite/tensorflow/lite/micro/kernels\kernel_util.h **** you may not use this file except in compliance with the License.
   5:C:/Renesas/e2studio_2021_01_workspace_RZA2M_ANPR/ANPR_RZA2M_EBK/src/tensorflow_lite/tensorflow/lite/micro/kernels\kernel_util.h **** You may obtain a copy of the License at
   6:C:/Renesas/e2studio_2021_01_workspace_RZA2M_ANPR/ANPR_RZA2M_EBK/src/tensorflow_lite/tensorflow/lite/micro/kernels\kernel_util.h **** 
   7:C:/Renesas/e2studio_2021_01_workspace_RZA2M_ANPR/ANPR_RZA2M_EBK/src/tensorflow_lite/tensorflow/lite/micro/kernels\kernel_util.h ****     http://www.apache.org/licenses/LICENSE-2.0
   8:C:/Renesas/e2studio_2021_01_workspace_RZA2M_ANPR/ANPR_RZA2M_EBK/src/tensorflow_lite/tensorflow/lite/micro/kernels\kernel_util.h **** 
   9:C:/Renesas/e2studio_2021_01_workspace_RZA2M_ANPR/ANPR_RZA2M_EBK/src/tensorflow_lite/tensorflow/lite/micro/kernels\kernel_util.h **** Unless required by applicable law or agreed to in writing, software
  10:C:/Renesas/e2studio_2021_01_workspace_RZA2M_ANPR/ANPR_RZA2M_EBK/src/tensorflow_lite/tensorflow/lite/micro/kernels\kernel_util.h **** distributed under the License is distributed on an "AS IS" BASIS,
  11:C:/Renesas/e2studio_2021_01_workspace_RZA2M_ANPR/ANPR_RZA2M_EBK/src/tensorflow_lite/tensorflow/lite/micro/kernels\kernel_util.h **** WITHOUT WARRANTIES OR CONDITIONS OF ANY KIND, either express or implied.
  12:C:/Renesas/e2studio_2021_01_workspace_RZA2M_ANPR/ANPR_RZA2M_EBK/src/tensorflow_lite/tensorflow/lite/micro/kernels\kernel_util.h **** See the License for the specific language governing permissions and
  13:C:/Renesas/e2studio_2021_01_workspace_RZA2M_ANPR/ANPR_RZA2M_EBK/src/tensorflow_lite/tensorflow/lite/micro/kernels\kernel_util.h **** limitations under the License.
  14:C:/Renesas/e2studio_2021_01_workspace_RZA2M_ANPR/ANPR_RZA2M_EBK/src/tensorflow_lite/tensorflow/lite/micro/kernels\kernel_util.h **** ==============================================================================*/
  15:C:/Renesas/e2studio_2021_01_workspace_RZA2M_ANPR/ANPR_RZA2M_EBK/src/tensorflow_lite/tensorflow/lite/micro/kernels\kernel_util.h **** 
  16:C:/Renesas/e2studio_2021_01_workspace_RZA2M_ANPR/ANPR_RZA2M_EBK/src/tensorflow_lite/tensorflow/lite/micro/kernels\kernel_util.h **** #ifndef TENSORFLOW_LITE_MICRO_KERNELS_KERNEL_UTIL_H_
  17:C:/Renesas/e2studio_2021_01_workspace_RZA2M_ANPR/ANPR_RZA2M_EBK/src/tensorflow_lite/tensorflow/lite/micro/kernels\kernel_util.h **** #define TENSORFLOW_LITE_MICRO_KERNELS_KERNEL_UTIL_H_
  18:C:/Renesas/e2studio_2021_01_workspace_RZA2M_ANPR/ANPR_RZA2M_EBK/src/tensorflow_lite/tensorflow/lite/micro/kernels\kernel_util.h **** 
  19:C:/Renesas/e2studio_2021_01_workspace_RZA2M_ANPR/ANPR_RZA2M_EBK/src/tensorflow_lite/tensorflow/lite/micro/kernels\kernel_util.h **** #include <cstdint>
  20:C:/Renesas/e2studio_2021_01_workspace_RZA2M_ANPR/ANPR_RZA2M_EBK/src/tensorflow_lite/tensorflow/lite/micro/kernels\kernel_util.h **** 
  21:C:/Renesas/e2studio_2021_01_workspace_RZA2M_ANPR/ANPR_RZA2M_EBK/src/tensorflow_lite/tensorflow/lite/micro/kernels\kernel_util.h **** #include "tensorflow/lite/c/builtin_op_data.h"
  22:C:/Renesas/e2studio_2021_01_workspace_RZA2M_ANPR/ANPR_RZA2M_EBK/src/tensorflow_lite/tensorflow/lite/micro/kernels\kernel_util.h **** #include "tensorflow/lite/c/common.h"
  23:C:/Renesas/e2studio_2021_01_workspace_RZA2M_ANPR/ANPR_RZA2M_EBK/src/tensorflow_lite/tensorflow/lite/micro/kernels\kernel_util.h **** #include "tensorflow/lite/kernels/internal/compatibility.h"
  24:C:/Renesas/e2studio_2021_01_workspace_RZA2M_ANPR/ANPR_RZA2M_EBK/src/tensorflow_lite/tensorflow/lite/micro/kernels\kernel_util.h **** #include "tensorflow/lite/kernels/internal/types.h"
  25:C:/Renesas/e2studio_2021_01_workspace_RZA2M_ANPR/ANPR_RZA2M_EBK/src/tensorflow_lite/tensorflow/lite/micro/kernels\kernel_util.h **** 
  26:C:/Renesas/e2studio_2021_01_workspace_RZA2M_ANPR/ANPR_RZA2M_EBK/src/tensorflow_lite/tensorflow/lite/micro/kernels\kernel_util.h **** namespace tflite {
  27:C:/Renesas/e2studio_2021_01_workspace_RZA2M_ANPR/ANPR_RZA2M_EBK/src/tensorflow_lite/tensorflow/lite/micro/kernels\kernel_util.h **** namespace micro {
  28:C:/Renesas/e2studio_2021_01_workspace_RZA2M_ANPR/ANPR_RZA2M_EBK/src/tensorflow_lite/tensorflow/lite/micro/kernels\kernel_util.h **** 
  29:C:/Renesas/e2studio_2021_01_workspace_RZA2M_ANPR/ANPR_RZA2M_EBK/src/tensorflow_lite/tensorflow/lite/micro/kernels\kernel_util.h **** // Returns a mutable tensor for a given input index. is_variable must be checked
  30:C:/Renesas/e2studio_2021_01_workspace_RZA2M_ANPR/ANPR_RZA2M_EBK/src/tensorflow_lite/tensorflow/lite/micro/kernels\kernel_util.h **** // during prepare when the full TfLiteTensor is available.
  31:C:/Renesas/e2studio_2021_01_workspace_RZA2M_ANPR/ANPR_RZA2M_EBK/src/tensorflow_lite/tensorflow/lite/micro/kernels\kernel_util.h **** inline TfLiteEvalTensor* GetMutableEvalInput(const TfLiteContext* context,
  32:C:/Renesas/e2studio_2021_01_workspace_RZA2M_ANPR/ANPR_RZA2M_EBK/src/tensorflow_lite/tensorflow/lite/micro/kernels\kernel_util.h ****                                              const TfLiteNode* node,
  33:C:/Renesas/e2studio_2021_01_workspace_RZA2M_ANPR/ANPR_RZA2M_EBK/src/tensorflow_lite/tensorflow/lite/micro/kernels\kernel_util.h ****                                              int index) {
  34:C:/Renesas/e2studio_2021_01_workspace_RZA2M_ANPR/ANPR_RZA2M_EBK/src/tensorflow_lite/tensorflow/lite/micro/kernels\kernel_util.h ****   TFLITE_DCHECK(context != nullptr);
  35:C:/Renesas/e2studio_2021_01_workspace_RZA2M_ANPR/ANPR_RZA2M_EBK/src/tensorflow_lite/tensorflow/lite/micro/kernels\kernel_util.h ****   TFLITE_DCHECK(node != nullptr);
  36:C:/Renesas/e2studio_2021_01_workspace_RZA2M_ANPR/ANPR_RZA2M_EBK/src/tensorflow_lite/tensorflow/lite/micro/kernels\kernel_util.h ****   return context->GetEvalTensor(context, node->inputs->data[index]);
  37:C:/Renesas/e2studio_2021_01_workspace_RZA2M_ANPR/ANPR_RZA2M_EBK/src/tensorflow_lite/tensorflow/lite/micro/kernels\kernel_util.h **** }
  38:C:/Renesas/e2studio_2021_01_workspace_RZA2M_ANPR/ANPR_RZA2M_EBK/src/tensorflow_lite/tensorflow/lite/micro/kernels\kernel_util.h **** 
  39:C:/Renesas/e2studio_2021_01_workspace_RZA2M_ANPR/ANPR_RZA2M_EBK/src/tensorflow_lite/tensorflow/lite/micro/kernels\kernel_util.h **** // Returns the TfLiteEvalTensor struct for a given input index in a node.
  40:C:/Renesas/e2studio_2021_01_workspace_RZA2M_ANPR/ANPR_RZA2M_EBK/src/tensorflow_lite/tensorflow/lite/micro/kernels\kernel_util.h **** inline const TfLiteEvalTensor* GetEvalInput(const TfLiteContext* context,
  41:C:/Renesas/e2studio_2021_01_workspace_RZA2M_ANPR/ANPR_RZA2M_EBK/src/tensorflow_lite/tensorflow/lite/micro/kernels\kernel_util.h ****                                             const TfLiteNode* node, int index) {
  42:C:/Renesas/e2studio_2021_01_workspace_RZA2M_ANPR/ANPR_RZA2M_EBK/src/tensorflow_lite/tensorflow/lite/micro/kernels\kernel_util.h ****   return GetMutableEvalInput(context, node, index);
  43:C:/Renesas/e2studio_2021_01_workspace_RZA2M_ANPR/ANPR_RZA2M_EBK/src/tensorflow_lite/tensorflow/lite/micro/kernels\kernel_util.h **** }
  44:C:/Renesas/e2studio_2021_01_workspace_RZA2M_ANPR/ANPR_RZA2M_EBK/src/tensorflow_lite/tensorflow/lite/micro/kernels\kernel_util.h **** 
  45:C:/Renesas/e2studio_2021_01_workspace_RZA2M_ANPR/ANPR_RZA2M_EBK/src/tensorflow_lite/tensorflow/lite/micro/kernels\kernel_util.h **** // Returns the TfLiteEvalTensor struct for a given output index in a node.
  46:C:/Renesas/e2studio_2021_01_workspace_RZA2M_ANPR/ANPR_RZA2M_EBK/src/tensorflow_lite/tensorflow/lite/micro/kernels\kernel_util.h **** inline TfLiteEvalTensor* GetEvalOutput(const TfLiteContext* context,
  47:C:/Renesas/e2studio_2021_01_workspace_RZA2M_ANPR/ANPR_RZA2M_EBK/src/tensorflow_lite/tensorflow/lite/micro/kernels\kernel_util.h ****                                        const TfLiteNode* node, int index) {
  48:C:/Renesas/e2studio_2021_01_workspace_RZA2M_ANPR/ANPR_RZA2M_EBK/src/tensorflow_lite/tensorflow/lite/micro/kernels\kernel_util.h ****   TFLITE_DCHECK(context != nullptr);
  49:C:/Renesas/e2studio_2021_01_workspace_RZA2M_ANPR/ANPR_RZA2M_EBK/src/tensorflow_lite/tensorflow/lite/micro/kernels\kernel_util.h ****   TFLITE_DCHECK(node != nullptr);
  50:C:/Renesas/e2studio_2021_01_workspace_RZA2M_ANPR/ANPR_RZA2M_EBK/src/tensorflow_lite/tensorflow/lite/micro/kernels\kernel_util.h ****   return context->GetEvalTensor(context, node->outputs->data[index]);
  51:C:/Renesas/e2studio_2021_01_workspace_RZA2M_ANPR/ANPR_RZA2M_EBK/src/tensorflow_lite/tensorflow/lite/micro/kernels\kernel_util.h **** }
  52:C:/Renesas/e2studio_2021_01_workspace_RZA2M_ANPR/ANPR_RZA2M_EBK/src/tensorflow_lite/tensorflow/lite/micro/kernels\kernel_util.h **** 
  53:C:/Renesas/e2studio_2021_01_workspace_RZA2M_ANPR/ANPR_RZA2M_EBK/src/tensorflow_lite/tensorflow/lite/micro/kernels\kernel_util.h **** // Returns data for a TfLiteEvalTensor struct.
  54:C:/Renesas/e2studio_2021_01_workspace_RZA2M_ANPR/ANPR_RZA2M_EBK/src/tensorflow_lite/tensorflow/lite/micro/kernels\kernel_util.h **** template <typename T>
  55:C:/Renesas/e2studio_2021_01_workspace_RZA2M_ANPR/ANPR_RZA2M_EBK/src/tensorflow_lite/tensorflow/lite/micro/kernels\kernel_util.h **** T* GetTensorData(TfLiteEvalTensor* tensor) {
  56:C:/Renesas/e2studio_2021_01_workspace_RZA2M_ANPR/ANPR_RZA2M_EBK/src/tensorflow_lite/tensorflow/lite/micro/kernels\kernel_util.h ****   return tensor != nullptr ? reinterpret_cast<T*>(tensor->data.raw) : nullptr;
  57:C:/Renesas/e2studio_2021_01_workspace_RZA2M_ANPR/ANPR_RZA2M_EBK/src/tensorflow_lite/tensorflow/lite/micro/kernels\kernel_util.h **** }
  58:C:/Renesas/e2studio_2021_01_workspace_RZA2M_ANPR/ANPR_RZA2M_EBK/src/tensorflow_lite/tensorflow/lite/micro/kernels\kernel_util.h **** 
  59:C:/Renesas/e2studio_2021_01_workspace_RZA2M_ANPR/ANPR_RZA2M_EBK/src/tensorflow_lite/tensorflow/lite/micro/kernels\kernel_util.h **** // Returns const data for a TfLiteEvalTensor struct.
  60:C:/Renesas/e2studio_2021_01_workspace_RZA2M_ANPR/ANPR_RZA2M_EBK/src/tensorflow_lite/tensorflow/lite/micro/kernels\kernel_util.h **** template <typename T>
  61:C:/Renesas/e2studio_2021_01_workspace_RZA2M_ANPR/ANPR_RZA2M_EBK/src/tensorflow_lite/tensorflow/lite/micro/kernels\kernel_util.h **** const T* GetTensorData(const TfLiteEvalTensor* tensor) {
  62:C:/Renesas/e2studio_2021_01_workspace_RZA2M_ANPR/ANPR_RZA2M_EBK/src/tensorflow_lite/tensorflow/lite/micro/kernels\kernel_util.h ****   TFLITE_DCHECK(tensor != nullptr);
 314              		.loc 3 62 0
 315 0004 006052E2 		subs	r6, r2, #0
 316              	.LBE367:
 317              	.LBE366:
 318              		.loc 1 62 0
 319              		.pad #348
 320 0008 57DF4DE2 		sub	sp, sp, #348
 321              		.cfi_def_cfa_offset 384
 322              	.LBB371:
 323              	.LBB368:
 324              		.loc 3 62 0
 325 000c 6204000A 		beq	.L368
  63:C:/Renesas/e2studio_2021_01_workspace_RZA2M_ANPR/ANPR_RZA2M_EBK/src/tensorflow_lite/tensorflow/lite/micro/kernels\kernel_util.h ****   return reinterpret_cast<const T*>(tensor->data.raw);
 326              		.loc 3 63 0
 327 0010 007096E5 		ldr	r7, [r6]
 328 0014 0090A0E1 		mov	r9, r0
 329 0018 0180A0E1 		mov	r8, r1
 330 001c 03A0A0E1 		mov	r10, r3
 331              	.LVL30:
 332              	.LBE368:
 333              	.LBE371:
 334              	.LBB372:
  63:../src/tensorflow_lite/tensorflow/lite/micro/kernels/floor_div.cc ****                           const TfLiteEvalTensor* input1,
  64:../src/tensorflow_lite/tensorflow/lite/micro/kernels/floor_div.cc ****                           const TfLiteEvalTensor* input2,
  65:../src/tensorflow_lite/tensorflow/lite/micro/kernels/floor_div.cc ****                           TfLiteEvalTensor* output) {
  66:../src/tensorflow_lite/tensorflow/lite/micro/kernels/floor_div.cc ****   const T* denominator_data = tflite::micro::GetTensorData<T>(input2);
  67:../src/tensorflow_lite/tensorflow/lite/micro/kernels/floor_div.cc **** 
  68:../src/tensorflow_lite/tensorflow/lite/micro/kernels/floor_div.cc ****   // Validate the denominator.
  69:../src/tensorflow_lite/tensorflow/lite/micro/kernels/floor_div.cc ****   for (int i = 0; i < tflite::ElementCount(*input2->dims); ++i) {
 335              		.loc 1 69 0
 336 0020 0040A0E3 		mov	r4, #0
 337 0024 4C708DE5 		str	r7, [sp, #76]
 338              	.LBE372:
 339              	.LBB373:
 340              	.LBB369:
 341              		.loc 3 63 0
 342 0028 0750A0E1 		mov	r5, r7
 343 002c 040000EA 		b	.L17
 344              	.LVL31:
 345              	.L370:
 346 0030 017AF5EC 		vldmia.32	r5!, {s15}
 347              	.LVL32:
 348              	.LBE369:
 349              	.LBE373:
 350              	.LBB374:
  70:../src/tensorflow_lite/tensorflow/lite/micro/kernels/floor_div.cc ****     if (std::equal_to<T>()(denominator_data[i], 0)) {
 351              		.loc 1 70 0
 352 0034 407AF5EE 		vcmp.f32	s15, #0
 353 0038 10FAF1EE 		vmrs	APSR_nzcv, FPSCR
 354 003c ED01000A 		beq	.L369
  69:../src/tensorflow_lite/tensorflow/lite/micro/kernels/floor_div.cc ****     if (std::equal_to<T>()(denominator_data[i], 0)) {
 355              		.loc 1 69 0 discriminator 2
 356 0040 014084E2 		add	r4, r4, #1
 357              	.LVL33:
 358              	.L17:
  69:../src/tensorflow_lite/tensorflow/lite/micro/kernels/floor_div.cc ****     if (std::equal_to<T>()(denominator_data[i], 0)) {
 359              		.loc 1 69 0 is_stmt 0 discriminator 1
 360 0044 040096E5 		ldr	r0, [r6, #4]
 361              	.LEHB0:
 362 0048 FEFFFFEB 		bl	_ZN6tflite12ElementCountERK14TfLiteIntArray
 363              	.LVL34:
 364 004c 000054E1 		cmp	r4, r0
 365 0050 F6FFFFBA 		blt	.L370
 366              	.LBE374:
  71:../src/tensorflow_lite/tensorflow/lite/micro/kernels/floor_div.cc ****       TF_LITE_KERNEL_LOG(context, "Division by 0");
  72:../src/tensorflow_lite/tensorflow/lite/micro/kernels/floor_div.cc ****       return kTfLiteError;
  73:../src/tensorflow_lite/tensorflow/lite/micro/kernels/floor_div.cc ****     }
  74:../src/tensorflow_lite/tensorflow/lite/micro/kernels/floor_div.cc ****   }
  75:../src/tensorflow_lite/tensorflow/lite/micro/kernels/floor_div.cc **** 
  76:../src/tensorflow_lite/tensorflow/lite/micro/kernels/floor_div.cc ****   bool requires_broadcast = !tflite::micro::HaveSameShapes(input1, input2);
 367              		.loc 1 76 0 is_stmt 1
 368 0054 0610A0E1 		mov	r1, r6
 369 0058 0800A0E1 		mov	r0, r8
 370 005c FEFFFFEB 		bl	_ZN6tflite5micro14HaveSameShapesEPK16TfLiteEvalTensorS3_
 371              	.LVL35:
  77:../src/tensorflow_lite/tensorflow/lite/micro/kernels/floor_div.cc **** 
  78:../src/tensorflow_lite/tensorflow/lite/micro/kernels/floor_div.cc ****   if (requires_broadcast) {
 372              		.loc 1 78 0
 373 0060 000050E3 		cmp	r0, #0
  79:../src/tensorflow_lite/tensorflow/lite/micro/kernels/floor_div.cc ****     reference_ops::BroadcastBinaryFunction4DSlow<T, T, T>(
 374              		.loc 1 79 0
 375 0064 0810A0E1 		mov	r1, r8
  78:../src/tensorflow_lite/tensorflow/lite/micro/kernels/floor_div.cc ****     reference_ops::BroadcastBinaryFunction4DSlow<T, T, T>(
 376              		.loc 1 78 0
 377 0068 2700001A 		bne	.L18
 378              	.LVL36:
 379              		.loc 1 79 0
 380 006c 88008DE2 		add	r0, sp, #136
 381              	.LVL37:
 382 0070 FEFFFFEB 		bl	_ZN6tflite5micro14GetTensorShapeEPK16TfLiteEvalTensor
 383              	.LVL38:
 384              	.LEHE0:
 385              	.LBB375:
 386              	.LBB376:
  62:C:/Renesas/e2studio_2021_01_workspace_RZA2M_ANPR/ANPR_RZA2M_EBK/src/tensorflow_lite/tensorflow/lite/micro/kernels\kernel_util.h ****   return reinterpret_cast<const T*>(tensor->data.raw);
 387              		.loc 3 62 0
 388 0074 000058E3 		cmp	r8, #0
 389 0078 4604000A 		beq	.L371
 390              	.LBE376:
 391              	.LBE375:
 392              		.loc 1 79 0
 393 007c 0610A0E1 		mov	r1, r6
 394 0080 A0008DE2 		add	r0, sp, #160
 395              	.LBB379:
 396              	.LBB377:
 397              		.loc 3 63 0
 398 0084 005098E5 		ldr	r5, [r8]
 399              	.LVL39:
 400              	.LEHB1:
 401              	.LBE377:
 402              	.LBE379:
 403              		.loc 1 79 0
 404 0088 FEFFFFEB 		bl	_ZN6tflite5micro14GetTensorShapeEPK16TfLiteEvalTensor
 405              	.LVL40:
 406              	.LEHE1:
 407              		.loc 1 79 0 is_stmt 0 discriminator 4
 408 008c 0A10A0E1 		mov	r1, r10
 409 0090 B8008DE2 		add	r0, sp, #184
 410              	.LEHB2:
 411 0094 FEFFFFEB 		bl	_ZN6tflite5micro14GetTensorShapeEPK16TfLiteEvalTensor
 412              	.LVL41:
 413              	.LEHE2:
 414 0098 88609DE5 		ldr	r6, [sp, #136]
 415              	.LVL42:
 416              	.LBB380:
 417              	.LBB381:
  56:C:/Renesas/e2studio_2021_01_workspace_RZA2M_ANPR/ANPR_RZA2M_EBK/src/tensorflow_lite/tensorflow/lite/micro/kernels\kernel_util.h **** }
 418              		.loc 3 56 0 is_stmt 1
 419 009c 00005AE3 		cmp	r10, #0
 420 00a0 00A09A15 		ldrne	r10, [r10]
 421              	.LVL43:
 422              	.LBE381:
 423              	.LBE380:
 424              	.LBB382:
 425              	.LBB383:
 426              		.file 4 "C:/Renesas/e2studio_2021_01_workspace_RZA2M_ANPR/ANPR_RZA2M_EBK/src/tensorflow_lite/tenso
   1:C:/Renesas/e2studio_2021_01_workspace_RZA2M_ANPR/ANPR_RZA2M_EBK/src/tensorflow_lite/tensorflow/lite/kernels/internal/reference\binary_function.h **** /* Copyright 2019 The TensorFlow Authors. All Rights Reserved.
   2:C:/Renesas/e2studio_2021_01_workspace_RZA2M_ANPR/ANPR_RZA2M_EBK/src/tensorflow_lite/tensorflow/lite/kernels/internal/reference\binary_function.h **** 
   3:C:/Renesas/e2studio_2021_01_workspace_RZA2M_ANPR/ANPR_RZA2M_EBK/src/tensorflow_lite/tensorflow/lite/kernels/internal/reference\binary_function.h **** Licensed under the Apache License, Version 2.0 (the "License");
   4:C:/Renesas/e2studio_2021_01_workspace_RZA2M_ANPR/ANPR_RZA2M_EBK/src/tensorflow_lite/tensorflow/lite/kernels/internal/reference\binary_function.h **** you may not use this file except in compliance with the License.
   5:C:/Renesas/e2studio_2021_01_workspace_RZA2M_ANPR/ANPR_RZA2M_EBK/src/tensorflow_lite/tensorflow/lite/kernels/internal/reference\binary_function.h **** You may obtain a copy of the License at
   6:C:/Renesas/e2studio_2021_01_workspace_RZA2M_ANPR/ANPR_RZA2M_EBK/src/tensorflow_lite/tensorflow/lite/kernels/internal/reference\binary_function.h **** 
   7:C:/Renesas/e2studio_2021_01_workspace_RZA2M_ANPR/ANPR_RZA2M_EBK/src/tensorflow_lite/tensorflow/lite/kernels/internal/reference\binary_function.h ****     http://www.apache.org/licenses/LICENSE-2.0
   8:C:/Renesas/e2studio_2021_01_workspace_RZA2M_ANPR/ANPR_RZA2M_EBK/src/tensorflow_lite/tensorflow/lite/kernels/internal/reference\binary_function.h **** 
   9:C:/Renesas/e2studio_2021_01_workspace_RZA2M_ANPR/ANPR_RZA2M_EBK/src/tensorflow_lite/tensorflow/lite/kernels/internal/reference\binary_function.h **** Unless required by applicable law or agreed to in writing, software
  10:C:/Renesas/e2studio_2021_01_workspace_RZA2M_ANPR/ANPR_RZA2M_EBK/src/tensorflow_lite/tensorflow/lite/kernels/internal/reference\binary_function.h **** distributed under the License is distributed on an "AS IS" BASIS,
  11:C:/Renesas/e2studio_2021_01_workspace_RZA2M_ANPR/ANPR_RZA2M_EBK/src/tensorflow_lite/tensorflow/lite/kernels/internal/reference\binary_function.h **** WITHOUT WARRANTIES OR CONDITIONS OF ANY KIND, either express or implied.
  12:C:/Renesas/e2studio_2021_01_workspace_RZA2M_ANPR/ANPR_RZA2M_EBK/src/tensorflow_lite/tensorflow/lite/kernels/internal/reference\binary_function.h **** See the License for the specific language governing permissions and
  13:C:/Renesas/e2studio_2021_01_workspace_RZA2M_ANPR/ANPR_RZA2M_EBK/src/tensorflow_lite/tensorflow/lite/kernels/internal/reference\binary_function.h **** limitations under the License.
  14:C:/Renesas/e2studio_2021_01_workspace_RZA2M_ANPR/ANPR_RZA2M_EBK/src/tensorflow_lite/tensorflow/lite/kernels/internal/reference\binary_function.h **** ==============================================================================*/
  15:C:/Renesas/e2studio_2021_01_workspace_RZA2M_ANPR/ANPR_RZA2M_EBK/src/tensorflow_lite/tensorflow/lite/kernels/internal/reference\binary_function.h **** #ifndef TENSORFLOW_LITE_KERNELS_INTERNAL_REFERENCE_BINARY_FUNCTION_H_
  16:C:/Renesas/e2studio_2021_01_workspace_RZA2M_ANPR/ANPR_RZA2M_EBK/src/tensorflow_lite/tensorflow/lite/kernels/internal/reference\binary_function.h **** #define TENSORFLOW_LITE_KERNELS_INTERNAL_REFERENCE_BINARY_FUNCTION_H_
  17:C:/Renesas/e2studio_2021_01_workspace_RZA2M_ANPR/ANPR_RZA2M_EBK/src/tensorflow_lite/tensorflow/lite/kernels/internal/reference\binary_function.h **** 
  18:C:/Renesas/e2studio_2021_01_workspace_RZA2M_ANPR/ANPR_RZA2M_EBK/src/tensorflow_lite/tensorflow/lite/kernels/internal/reference\binary_function.h **** #include "tensorflow/lite/kernels/internal/common.h"
  19:C:/Renesas/e2studio_2021_01_workspace_RZA2M_ANPR/ANPR_RZA2M_EBK/src/tensorflow_lite/tensorflow/lite/kernels/internal/reference\binary_function.h **** #include "tensorflow/lite/kernels/internal/compatibility.h"
  20:C:/Renesas/e2studio_2021_01_workspace_RZA2M_ANPR/ANPR_RZA2M_EBK/src/tensorflow_lite/tensorflow/lite/kernels/internal/reference\binary_function.h **** #include "tensorflow/lite/kernels/internal/types.h"
  21:C:/Renesas/e2studio_2021_01_workspace_RZA2M_ANPR/ANPR_RZA2M_EBK/src/tensorflow_lite/tensorflow/lite/kernels/internal/reference\binary_function.h **** 
  22:C:/Renesas/e2studio_2021_01_workspace_RZA2M_ANPR/ANPR_RZA2M_EBK/src/tensorflow_lite/tensorflow/lite/kernels/internal/reference\binary_function.h **** namespace tflite {
  23:C:/Renesas/e2studio_2021_01_workspace_RZA2M_ANPR/ANPR_RZA2M_EBK/src/tensorflow_lite/tensorflow/lite/kernels/internal/reference\binary_function.h **** 
  24:C:/Renesas/e2studio_2021_01_workspace_RZA2M_ANPR/ANPR_RZA2M_EBK/src/tensorflow_lite/tensorflow/lite/kernels/internal/reference\binary_function.h **** namespace reference_ops {
  25:C:/Renesas/e2studio_2021_01_workspace_RZA2M_ANPR/ANPR_RZA2M_EBK/src/tensorflow_lite/tensorflow/lite/kernels/internal/reference\binary_function.h **** 
  26:C:/Renesas/e2studio_2021_01_workspace_RZA2M_ANPR/ANPR_RZA2M_EBK/src/tensorflow_lite/tensorflow/lite/kernels/internal/reference\binary_function.h **** // Also appears to duplicate MinimumMaximum.
  27:C:/Renesas/e2studio_2021_01_workspace_RZA2M_ANPR/ANPR_RZA2M_EBK/src/tensorflow_lite/tensorflow/lite/kernels/internal/reference\binary_function.h **** //
  28:C:/Renesas/e2studio_2021_01_workspace_RZA2M_ANPR/ANPR_RZA2M_EBK/src/tensorflow_lite/tensorflow/lite/kernels/internal/reference\binary_function.h **** // R: Result type. T1: Input 1 type. T2: Input 2 type.
  29:C:/Renesas/e2studio_2021_01_workspace_RZA2M_ANPR/ANPR_RZA2M_EBK/src/tensorflow_lite/tensorflow/lite/kernels/internal/reference\binary_function.h **** template <typename R, typename T1, typename T2>
  30:C:/Renesas/e2studio_2021_01_workspace_RZA2M_ANPR/ANPR_RZA2M_EBK/src/tensorflow_lite/tensorflow/lite/kernels/internal/reference\binary_function.h **** inline void BroadcastBinaryFunction4DSlow(
  31:C:/Renesas/e2studio_2021_01_workspace_RZA2M_ANPR/ANPR_RZA2M_EBK/src/tensorflow_lite/tensorflow/lite/kernels/internal/reference\binary_function.h ****     const RuntimeShape& unextended_input1_shape, const T1* input1_data,
  32:C:/Renesas/e2studio_2021_01_workspace_RZA2M_ANPR/ANPR_RZA2M_EBK/src/tensorflow_lite/tensorflow/lite/kernels/internal/reference\binary_function.h ****     const RuntimeShape& unextended_input2_shape, const T2* input2_data,
  33:C:/Renesas/e2studio_2021_01_workspace_RZA2M_ANPR/ANPR_RZA2M_EBK/src/tensorflow_lite/tensorflow/lite/kernels/internal/reference\binary_function.h ****     const RuntimeShape& unextended_output_shape, R* output_data,
  34:C:/Renesas/e2studio_2021_01_workspace_RZA2M_ANPR/ANPR_RZA2M_EBK/src/tensorflow_lite/tensorflow/lite/kernels/internal/reference\binary_function.h ****     R (*func)(T1, T2)) {
  35:C:/Renesas/e2studio_2021_01_workspace_RZA2M_ANPR/ANPR_RZA2M_EBK/src/tensorflow_lite/tensorflow/lite/kernels/internal/reference\binary_function.h ****   TFLITE_DCHECK_LE(unextended_input1_shape.DimensionsCount(), 4);
 427              		.loc 4 35 0
 428 00a4 040056E3 		cmp	r6, #4
 429 00a8 380400CA 		bgt	.L372
 430 00ac A0409DE5 		ldr	r4, [sp, #160]
 431              	.LVL44:
  36:C:/Renesas/e2studio_2021_01_workspace_RZA2M_ANPR/ANPR_RZA2M_EBK/src/tensorflow_lite/tensorflow/lite/kernels/internal/reference\binary_function.h ****   TFLITE_DCHECK_LE(unextended_input2_shape.DimensionsCount(), 4);
 432              		.loc 4 36 0
 433 00b0 040054E3 		cmp	r4, #4
 434 00b4 360400CA 		bgt	.L373
 435 00b8 B8209DE5 		ldr	r2, [sp, #184]
 436              	.LVL45:
  37:C:/Renesas/e2studio_2021_01_workspace_RZA2M_ANPR/ANPR_RZA2M_EBK/src/tensorflow_lite/tensorflow/lite/kernels/internal/reference\binary_function.h ****   TFLITE_DCHECK_LE(unextended_output_shape.DimensionsCount(), 4);
 437              		.loc 4 37 0
 438 00bc 040052E3 		cmp	r2, #4
 439 00c0 1C0400CA 		bgt	.L374
 440              	.LVL46:
 441              	.LBB384:
 442              	.LBB385:
 443              	.LBB386:
 444              	.LBB387:
 445              	.LBB388:
 446              		.file 5 "C:/Renesas/e2studio_2021_01_workspace_RZA2M_ANPR/ANPR_RZA2M_EBK/src/tensorflow_lite/tenso
   1:C:/Renesas/e2studio_2021_01_workspace_RZA2M_ANPR/ANPR_RZA2M_EBK/src/tensorflow_lite/tensorflow/lite/kernels/internal\types.h **** /* Copyright 2018 The TensorFlow Authors. All Rights Reserved.
   2:C:/Renesas/e2studio_2021_01_workspace_RZA2M_ANPR/ANPR_RZA2M_EBK/src/tensorflow_lite/tensorflow/lite/kernels/internal\types.h **** 
   3:C:/Renesas/e2studio_2021_01_workspace_RZA2M_ANPR/ANPR_RZA2M_EBK/src/tensorflow_lite/tensorflow/lite/kernels/internal\types.h **** Licensed under the Apache License, Version 2.0 (the "License");
   4:C:/Renesas/e2studio_2021_01_workspace_RZA2M_ANPR/ANPR_RZA2M_EBK/src/tensorflow_lite/tensorflow/lite/kernels/internal\types.h **** you may not use this file except in compliance with the License.
   5:C:/Renesas/e2studio_2021_01_workspace_RZA2M_ANPR/ANPR_RZA2M_EBK/src/tensorflow_lite/tensorflow/lite/kernels/internal\types.h **** You may obtain a copy of the License at
   6:C:/Renesas/e2studio_2021_01_workspace_RZA2M_ANPR/ANPR_RZA2M_EBK/src/tensorflow_lite/tensorflow/lite/kernels/internal\types.h **** 
   7:C:/Renesas/e2studio_2021_01_workspace_RZA2M_ANPR/ANPR_RZA2M_EBK/src/tensorflow_lite/tensorflow/lite/kernels/internal\types.h ****     http://www.apache.org/licenses/LICENSE-2.0
   8:C:/Renesas/e2studio_2021_01_workspace_RZA2M_ANPR/ANPR_RZA2M_EBK/src/tensorflow_lite/tensorflow/lite/kernels/internal\types.h **** 
   9:C:/Renesas/e2studio_2021_01_workspace_RZA2M_ANPR/ANPR_RZA2M_EBK/src/tensorflow_lite/tensorflow/lite/kernels/internal\types.h **** Unless required by applicable law or agreed to in writing, software
  10:C:/Renesas/e2studio_2021_01_workspace_RZA2M_ANPR/ANPR_RZA2M_EBK/src/tensorflow_lite/tensorflow/lite/kernels/internal\types.h **** distributed under the License is distributed on an "AS IS" BASIS,
  11:C:/Renesas/e2studio_2021_01_workspace_RZA2M_ANPR/ANPR_RZA2M_EBK/src/tensorflow_lite/tensorflow/lite/kernels/internal\types.h **** WITHOUT WARRANTIES OR CONDITIONS OF ANY KIND, either express or implied.
  12:C:/Renesas/e2studio_2021_01_workspace_RZA2M_ANPR/ANPR_RZA2M_EBK/src/tensorflow_lite/tensorflow/lite/kernels/internal\types.h **** See the License for the specific language governing permissions and
  13:C:/Renesas/e2studio_2021_01_workspace_RZA2M_ANPR/ANPR_RZA2M_EBK/src/tensorflow_lite/tensorflow/lite/kernels/internal\types.h **** limitations under the License.
  14:C:/Renesas/e2studio_2021_01_workspace_RZA2M_ANPR/ANPR_RZA2M_EBK/src/tensorflow_lite/tensorflow/lite/kernels/internal\types.h **** ==============================================================================*/
  15:C:/Renesas/e2studio_2021_01_workspace_RZA2M_ANPR/ANPR_RZA2M_EBK/src/tensorflow_lite/tensorflow/lite/kernels/internal\types.h **** #ifndef TENSORFLOW_LITE_KERNELS_INTERNAL_TYPES_H_
  16:C:/Renesas/e2studio_2021_01_workspace_RZA2M_ANPR/ANPR_RZA2M_EBK/src/tensorflow_lite/tensorflow/lite/kernels/internal\types.h **** #define TENSORFLOW_LITE_KERNELS_INTERNAL_TYPES_H_
  17:C:/Renesas/e2studio_2021_01_workspace_RZA2M_ANPR/ANPR_RZA2M_EBK/src/tensorflow_lite/tensorflow/lite/kernels/internal\types.h **** 
  18:C:/Renesas/e2studio_2021_01_workspace_RZA2M_ANPR/ANPR_RZA2M_EBK/src/tensorflow_lite/tensorflow/lite/kernels/internal\types.h **** #include <algorithm>
  19:C:/Renesas/e2studio_2021_01_workspace_RZA2M_ANPR/ANPR_RZA2M_EBK/src/tensorflow_lite/tensorflow/lite/kernels/internal\types.h **** #include <cstdint>
  20:C:/Renesas/e2studio_2021_01_workspace_RZA2M_ANPR/ANPR_RZA2M_EBK/src/tensorflow_lite/tensorflow/lite/kernels/internal\types.h **** #include <cstring>
  21:C:/Renesas/e2studio_2021_01_workspace_RZA2M_ANPR/ANPR_RZA2M_EBK/src/tensorflow_lite/tensorflow/lite/kernels/internal\types.h **** #include <initializer_list>
  22:C:/Renesas/e2studio_2021_01_workspace_RZA2M_ANPR/ANPR_RZA2M_EBK/src/tensorflow_lite/tensorflow/lite/kernels/internal\types.h **** 
  23:C:/Renesas/e2studio_2021_01_workspace_RZA2M_ANPR/ANPR_RZA2M_EBK/src/tensorflow_lite/tensorflow/lite/kernels/internal\types.h **** #include "tensorflow/lite/kernels/internal/compatibility.h"
  24:C:/Renesas/e2studio_2021_01_workspace_RZA2M_ANPR/ANPR_RZA2M_EBK/src/tensorflow_lite/tensorflow/lite/kernels/internal\types.h **** 
  25:C:/Renesas/e2studio_2021_01_workspace_RZA2M_ANPR/ANPR_RZA2M_EBK/src/tensorflow_lite/tensorflow/lite/kernels/internal\types.h **** namespace tflite {
  26:C:/Renesas/e2studio_2021_01_workspace_RZA2M_ANPR/ANPR_RZA2M_EBK/src/tensorflow_lite/tensorflow/lite/kernels/internal\types.h **** 
  27:C:/Renesas/e2studio_2021_01_workspace_RZA2M_ANPR/ANPR_RZA2M_EBK/src/tensorflow_lite/tensorflow/lite/kernels/internal\types.h **** enum class FusedActivationFunctionType : uint8_t {
  28:C:/Renesas/e2studio_2021_01_workspace_RZA2M_ANPR/ANPR_RZA2M_EBK/src/tensorflow_lite/tensorflow/lite/kernels/internal\types.h ****   kNone,
  29:C:/Renesas/e2studio_2021_01_workspace_RZA2M_ANPR/ANPR_RZA2M_EBK/src/tensorflow_lite/tensorflow/lite/kernels/internal\types.h ****   kRelu6,
  30:C:/Renesas/e2studio_2021_01_workspace_RZA2M_ANPR/ANPR_RZA2M_EBK/src/tensorflow_lite/tensorflow/lite/kernels/internal\types.h ****   kRelu1,
  31:C:/Renesas/e2studio_2021_01_workspace_RZA2M_ANPR/ANPR_RZA2M_EBK/src/tensorflow_lite/tensorflow/lite/kernels/internal\types.h ****   kRelu
  32:C:/Renesas/e2studio_2021_01_workspace_RZA2M_ANPR/ANPR_RZA2M_EBK/src/tensorflow_lite/tensorflow/lite/kernels/internal\types.h **** };
  33:C:/Renesas/e2studio_2021_01_workspace_RZA2M_ANPR/ANPR_RZA2M_EBK/src/tensorflow_lite/tensorflow/lite/kernels/internal\types.h **** enum class PaddingType : uint8_t { kNone, kSame, kValid };
  34:C:/Renesas/e2studio_2021_01_workspace_RZA2M_ANPR/ANPR_RZA2M_EBK/src/tensorflow_lite/tensorflow/lite/kernels/internal\types.h **** 
  35:C:/Renesas/e2studio_2021_01_workspace_RZA2M_ANPR/ANPR_RZA2M_EBK/src/tensorflow_lite/tensorflow/lite/kernels/internal\types.h **** struct PaddingValues {
  36:C:/Renesas/e2studio_2021_01_workspace_RZA2M_ANPR/ANPR_RZA2M_EBK/src/tensorflow_lite/tensorflow/lite/kernels/internal\types.h ****   int16_t width;
  37:C:/Renesas/e2studio_2021_01_workspace_RZA2M_ANPR/ANPR_RZA2M_EBK/src/tensorflow_lite/tensorflow/lite/kernels/internal\types.h ****   int16_t height;
  38:C:/Renesas/e2studio_2021_01_workspace_RZA2M_ANPR/ANPR_RZA2M_EBK/src/tensorflow_lite/tensorflow/lite/kernels/internal\types.h ****   // offset is used for calculating "remaining" padding, for example, `width`
  39:C:/Renesas/e2studio_2021_01_workspace_RZA2M_ANPR/ANPR_RZA2M_EBK/src/tensorflow_lite/tensorflow/lite/kernels/internal\types.h ****   // is 1 and `width_offset` is 1, so padding_left is 1 while padding_right is
  40:C:/Renesas/e2studio_2021_01_workspace_RZA2M_ANPR/ANPR_RZA2M_EBK/src/tensorflow_lite/tensorflow/lite/kernels/internal\types.h ****   // 1 + 1 = 2.
  41:C:/Renesas/e2studio_2021_01_workspace_RZA2M_ANPR/ANPR_RZA2M_EBK/src/tensorflow_lite/tensorflow/lite/kernels/internal\types.h ****   int16_t width_offset;
  42:C:/Renesas/e2studio_2021_01_workspace_RZA2M_ANPR/ANPR_RZA2M_EBK/src/tensorflow_lite/tensorflow/lite/kernels/internal\types.h ****   // Same as width_offset except it's over the height dimension.
  43:C:/Renesas/e2studio_2021_01_workspace_RZA2M_ANPR/ANPR_RZA2M_EBK/src/tensorflow_lite/tensorflow/lite/kernels/internal\types.h ****   int16_t height_offset;
  44:C:/Renesas/e2studio_2021_01_workspace_RZA2M_ANPR/ANPR_RZA2M_EBK/src/tensorflow_lite/tensorflow/lite/kernels/internal\types.h **** };
  45:C:/Renesas/e2studio_2021_01_workspace_RZA2M_ANPR/ANPR_RZA2M_EBK/src/tensorflow_lite/tensorflow/lite/kernels/internal\types.h **** 
  46:C:/Renesas/e2studio_2021_01_workspace_RZA2M_ANPR/ANPR_RZA2M_EBK/src/tensorflow_lite/tensorflow/lite/kernels/internal\types.h **** struct Padding3DValues {
  47:C:/Renesas/e2studio_2021_01_workspace_RZA2M_ANPR/ANPR_RZA2M_EBK/src/tensorflow_lite/tensorflow/lite/kernels/internal\types.h ****   int16_t width;
  48:C:/Renesas/e2studio_2021_01_workspace_RZA2M_ANPR/ANPR_RZA2M_EBK/src/tensorflow_lite/tensorflow/lite/kernels/internal\types.h ****   int16_t height;
  49:C:/Renesas/e2studio_2021_01_workspace_RZA2M_ANPR/ANPR_RZA2M_EBK/src/tensorflow_lite/tensorflow/lite/kernels/internal\types.h ****   int16_t depth;
  50:C:/Renesas/e2studio_2021_01_workspace_RZA2M_ANPR/ANPR_RZA2M_EBK/src/tensorflow_lite/tensorflow/lite/kernels/internal\types.h ****   // offset is used for calculating "remaining" padding, for example, `width`
  51:C:/Renesas/e2studio_2021_01_workspace_RZA2M_ANPR/ANPR_RZA2M_EBK/src/tensorflow_lite/tensorflow/lite/kernels/internal\types.h ****   // is 1 and `width_offset` is 1, so padding_left is 1 while padding_right is
  52:C:/Renesas/e2studio_2021_01_workspace_RZA2M_ANPR/ANPR_RZA2M_EBK/src/tensorflow_lite/tensorflow/lite/kernels/internal\types.h ****   // 1 + 1 = 2.
  53:C:/Renesas/e2studio_2021_01_workspace_RZA2M_ANPR/ANPR_RZA2M_EBK/src/tensorflow_lite/tensorflow/lite/kernels/internal\types.h ****   int16_t width_offset;
  54:C:/Renesas/e2studio_2021_01_workspace_RZA2M_ANPR/ANPR_RZA2M_EBK/src/tensorflow_lite/tensorflow/lite/kernels/internal\types.h ****   // Same as width_offset except it's over the height dimension.
  55:C:/Renesas/e2studio_2021_01_workspace_RZA2M_ANPR/ANPR_RZA2M_EBK/src/tensorflow_lite/tensorflow/lite/kernels/internal\types.h ****   int16_t height_offset;
  56:C:/Renesas/e2studio_2021_01_workspace_RZA2M_ANPR/ANPR_RZA2M_EBK/src/tensorflow_lite/tensorflow/lite/kernels/internal\types.h ****   // Same as width_offset except it's over the depth dimension.
  57:C:/Renesas/e2studio_2021_01_workspace_RZA2M_ANPR/ANPR_RZA2M_EBK/src/tensorflow_lite/tensorflow/lite/kernels/internal\types.h ****   int16_t depth_offset;
  58:C:/Renesas/e2studio_2021_01_workspace_RZA2M_ANPR/ANPR_RZA2M_EBK/src/tensorflow_lite/tensorflow/lite/kernels/internal\types.h **** };
  59:C:/Renesas/e2studio_2021_01_workspace_RZA2M_ANPR/ANPR_RZA2M_EBK/src/tensorflow_lite/tensorflow/lite/kernels/internal\types.h **** 
  60:C:/Renesas/e2studio_2021_01_workspace_RZA2M_ANPR/ANPR_RZA2M_EBK/src/tensorflow_lite/tensorflow/lite/kernels/internal\types.h **** // This enumeration allows for non-default formats for the weights array
  61:C:/Renesas/e2studio_2021_01_workspace_RZA2M_ANPR/ANPR_RZA2M_EBK/src/tensorflow_lite/tensorflow/lite/kernels/internal\types.h **** // of a fully-connected operator, allowing the use of special optimized
  62:C:/Renesas/e2studio_2021_01_workspace_RZA2M_ANPR/ANPR_RZA2M_EBK/src/tensorflow_lite/tensorflow/lite/kernels/internal\types.h **** // runtime paths.
  63:C:/Renesas/e2studio_2021_01_workspace_RZA2M_ANPR/ANPR_RZA2M_EBK/src/tensorflow_lite/tensorflow/lite/kernels/internal\types.h **** enum class FullyConnectedWeightsFormat : uint8_t {
  64:C:/Renesas/e2studio_2021_01_workspace_RZA2M_ANPR/ANPR_RZA2M_EBK/src/tensorflow_lite/tensorflow/lite/kernels/internal\types.h ****   // Default format (flat 2D layout, the inner contiguous dimension
  65:C:/Renesas/e2studio_2021_01_workspace_RZA2M_ANPR/ANPR_RZA2M_EBK/src/tensorflow_lite/tensorflow/lite/kernels/internal\types.h ****   // is input_depth, the outer non-contiguous dimension is output_depth)
  66:C:/Renesas/e2studio_2021_01_workspace_RZA2M_ANPR/ANPR_RZA2M_EBK/src/tensorflow_lite/tensorflow/lite/kernels/internal\types.h ****   kDefault,
  67:C:/Renesas/e2studio_2021_01_workspace_RZA2M_ANPR/ANPR_RZA2M_EBK/src/tensorflow_lite/tensorflow/lite/kernels/internal\types.h ****   // Summary: optimized layout for fast CPU runtime implementation,
  68:C:/Renesas/e2studio_2021_01_workspace_RZA2M_ANPR/ANPR_RZA2M_EBK/src/tensorflow_lite/tensorflow/lite/kernels/internal\types.h ****   // aimed specifically at ARM CPUs at the moment, and specialized for
  69:C:/Renesas/e2studio_2021_01_workspace_RZA2M_ANPR/ANPR_RZA2M_EBK/src/tensorflow_lite/tensorflow/lite/kernels/internal\types.h ****   // 8-bit quantized layers.
  70:C:/Renesas/e2studio_2021_01_workspace_RZA2M_ANPR/ANPR_RZA2M_EBK/src/tensorflow_lite/tensorflow/lite/kernels/internal\types.h ****   //
  71:C:/Renesas/e2studio_2021_01_workspace_RZA2M_ANPR/ANPR_RZA2M_EBK/src/tensorflow_lite/tensorflow/lite/kernels/internal\types.h ****   // The use case we're concerned with here is: 8-bit quantization,
  72:C:/Renesas/e2studio_2021_01_workspace_RZA2M_ANPR/ANPR_RZA2M_EBK/src/tensorflow_lite/tensorflow/lite/kernels/internal\types.h ****   // large weights matrix that doesn't fit in cache (e.g. 4096x2048 in
  73:C:/Renesas/e2studio_2021_01_workspace_RZA2M_ANPR/ANPR_RZA2M_EBK/src/tensorflow_lite/tensorflow/lite/kernels/internal\types.h ****   // a key application that drove this), very small batch size (e.g. 1 -- 4).
  74:C:/Renesas/e2studio_2021_01_workspace_RZA2M_ANPR/ANPR_RZA2M_EBK/src/tensorflow_lite/tensorflow/lite/kernels/internal\types.h ****   //
  75:C:/Renesas/e2studio_2021_01_workspace_RZA2M_ANPR/ANPR_RZA2M_EBK/src/tensorflow_lite/tensorflow/lite/kernels/internal\types.h ****   // Even with 8-bit quantization of weights, the performance of memory
  76:C:/Renesas/e2studio_2021_01_workspace_RZA2M_ANPR/ANPR_RZA2M_EBK/src/tensorflow_lite/tensorflow/lite/kernels/internal\types.h ****   // accesses to the weights can become the dominant issue when
  77:C:/Renesas/e2studio_2021_01_workspace_RZA2M_ANPR/ANPR_RZA2M_EBK/src/tensorflow_lite/tensorflow/lite/kernels/internal\types.h ****   // the batch size is small, so each weight value is used in only a few
  78:C:/Renesas/e2studio_2021_01_workspace_RZA2M_ANPR/ANPR_RZA2M_EBK/src/tensorflow_lite/tensorflow/lite/kernels/internal\types.h ****   // arithmetic ops, i.e. the fully-connected node has a low arithmetic
  79:C:/Renesas/e2studio_2021_01_workspace_RZA2M_ANPR/ANPR_RZA2M_EBK/src/tensorflow_lite/tensorflow/lite/kernels/internal\types.h ****   // intensity. The specific issues that arise are of three kinds:
  80:C:/Renesas/e2studio_2021_01_workspace_RZA2M_ANPR/ANPR_RZA2M_EBK/src/tensorflow_lite/tensorflow/lite/kernels/internal\types.h ****   // (1) One may, ideally, max out DRAM bandwidth, i.e. be truly memory
  81:C:/Renesas/e2studio_2021_01_workspace_RZA2M_ANPR/ANPR_RZA2M_EBK/src/tensorflow_lite/tensorflow/lite/kernels/internal\types.h ****   //     bound. That's the "good" issue to run into.
  82:C:/Renesas/e2studio_2021_01_workspace_RZA2M_ANPR/ANPR_RZA2M_EBK/src/tensorflow_lite/tensorflow/lite/kernels/internal\types.h ****   // (2) One may run into sub-optimal pre-fetching: the data hasn't been
  83:C:/Renesas/e2studio_2021_01_workspace_RZA2M_ANPR/ANPR_RZA2M_EBK/src/tensorflow_lite/tensorflow/lite/kernels/internal\types.h ****   //     prefetched into the cache by the time we need it.
  84:C:/Renesas/e2studio_2021_01_workspace_RZA2M_ANPR/ANPR_RZA2M_EBK/src/tensorflow_lite/tensorflow/lite/kernels/internal\types.h ****   // (3) One may run into cache aliasing: multiple values that are
  85:C:/Renesas/e2studio_2021_01_workspace_RZA2M_ANPR/ANPR_RZA2M_EBK/src/tensorflow_lite/tensorflow/lite/kernels/internal\types.h ****   //     pre-fetched, alias each other in the L1 cache (which typically
  86:C:/Renesas/e2studio_2021_01_workspace_RZA2M_ANPR/ANPR_RZA2M_EBK/src/tensorflow_lite/tensorflow/lite/kernels/internal\types.h ****   //     has only 4-way set associativity in ARM CPUs) and thus evict
  87:C:/Renesas/e2studio_2021_01_workspace_RZA2M_ANPR/ANPR_RZA2M_EBK/src/tensorflow_lite/tensorflow/lite/kernels/internal\types.h ****   //     each other before we get to using them.
  88:C:/Renesas/e2studio_2021_01_workspace_RZA2M_ANPR/ANPR_RZA2M_EBK/src/tensorflow_lite/tensorflow/lite/kernels/internal\types.h ****   //
  89:C:/Renesas/e2studio_2021_01_workspace_RZA2M_ANPR/ANPR_RZA2M_EBK/src/tensorflow_lite/tensorflow/lite/kernels/internal\types.h ****   // The point of this shuffling is to avoid issues (2) and (3) so that
  90:C:/Renesas/e2studio_2021_01_workspace_RZA2M_ANPR/ANPR_RZA2M_EBK/src/tensorflow_lite/tensorflow/lite/kernels/internal\types.h ****   // we get as fast as possible given only the hard constraint (1).
  91:C:/Renesas/e2studio_2021_01_workspace_RZA2M_ANPR/ANPR_RZA2M_EBK/src/tensorflow_lite/tensorflow/lite/kernels/internal\types.h ****   // This is achieved by turning the difficulty into a solution: the
  92:C:/Renesas/e2studio_2021_01_workspace_RZA2M_ANPR/ANPR_RZA2M_EBK/src/tensorflow_lite/tensorflow/lite/kernels/internal\types.h ****   // difficulty, that each value loaded from memory is used only in
  93:C:/Renesas/e2studio_2021_01_workspace_RZA2M_ANPR/ANPR_RZA2M_EBK/src/tensorflow_lite/tensorflow/lite/kernels/internal\types.h ****   // one kernel iteration, making this operation memory-intensive, hints at
  94:C:/Renesas/e2studio_2021_01_workspace_RZA2M_ANPR/ANPR_RZA2M_EBK/src/tensorflow_lite/tensorflow/lite/kernels/internal\types.h ****   // the solution, of shuffling the weights so that they are stored in the
  95:C:/Renesas/e2studio_2021_01_workspace_RZA2M_ANPR/ANPR_RZA2M_EBK/src/tensorflow_lite/tensorflow/lite/kernels/internal\types.h ****   // exact order as the kernel needs to load them, so that the memory
  96:C:/Renesas/e2studio_2021_01_workspace_RZA2M_ANPR/ANPR_RZA2M_EBK/src/tensorflow_lite/tensorflow/lite/kernels/internal\types.h ****   // accesses made by the kernel are trivial. This solves (2) because the
  97:C:/Renesas/e2studio_2021_01_workspace_RZA2M_ANPR/ANPR_RZA2M_EBK/src/tensorflow_lite/tensorflow/lite/kernels/internal\types.h ****   // trivial memory access pattern allows the CPU's automatic prefetching
  98:C:/Renesas/e2studio_2021_01_workspace_RZA2M_ANPR/ANPR_RZA2M_EBK/src/tensorflow_lite/tensorflow/lite/kernels/internal\types.h ****   // to perform very well (no need even for preload instructions), and this
  99:C:/Renesas/e2studio_2021_01_workspace_RZA2M_ANPR/ANPR_RZA2M_EBK/src/tensorflow_lite/tensorflow/lite/kernels/internal\types.h ****   // solves (3) because the values being loaded concurrently are now
 100:C:/Renesas/e2studio_2021_01_workspace_RZA2M_ANPR/ANPR_RZA2M_EBK/src/tensorflow_lite/tensorflow/lite/kernels/internal\types.h ****   // contiguous in the address space, thus don't alias each other in the cache.
 101:C:/Renesas/e2studio_2021_01_workspace_RZA2M_ANPR/ANPR_RZA2M_EBK/src/tensorflow_lite/tensorflow/lite/kernels/internal\types.h ****   //
 102:C:/Renesas/e2studio_2021_01_workspace_RZA2M_ANPR/ANPR_RZA2M_EBK/src/tensorflow_lite/tensorflow/lite/kernels/internal\types.h ****   // On ARM, we typically want our kernel to process a 4x16 block of weights
 103:C:/Renesas/e2studio_2021_01_workspace_RZA2M_ANPR/ANPR_RZA2M_EBK/src/tensorflow_lite/tensorflow/lite/kernels/internal\types.h ****   // at a time, because:
 104:C:/Renesas/e2studio_2021_01_workspace_RZA2M_ANPR/ANPR_RZA2M_EBK/src/tensorflow_lite/tensorflow/lite/kernels/internal\types.h ****   //   - 16 is the number of bytes in a NEON register.
 105:C:/Renesas/e2studio_2021_01_workspace_RZA2M_ANPR/ANPR_RZA2M_EBK/src/tensorflow_lite/tensorflow/lite/kernels/internal\types.h ****   //   - 4 is how many rows we need to handle concurrently in the kernel in
 106:C:/Renesas/e2studio_2021_01_workspace_RZA2M_ANPR/ANPR_RZA2M_EBK/src/tensorflow_lite/tensorflow/lite/kernels/internal\types.h ****   //     order to have sufficient mutual independence of instructions to
 107:C:/Renesas/e2studio_2021_01_workspace_RZA2M_ANPR/ANPR_RZA2M_EBK/src/tensorflow_lite/tensorflow/lite/kernels/internal\types.h ****   //     maximize arithmetic throughput.
 108:C:/Renesas/e2studio_2021_01_workspace_RZA2M_ANPR/ANPR_RZA2M_EBK/src/tensorflow_lite/tensorflow/lite/kernels/internal\types.h ****   //
 109:C:/Renesas/e2studio_2021_01_workspace_RZA2M_ANPR/ANPR_RZA2M_EBK/src/tensorflow_lite/tensorflow/lite/kernels/internal\types.h ****   // Finally, the 'Int8' part in the name refers to the fact that this
 110:C:/Renesas/e2studio_2021_01_workspace_RZA2M_ANPR/ANPR_RZA2M_EBK/src/tensorflow_lite/tensorflow/lite/kernels/internal\types.h ****   // weights format has each weights value encoded as a signed int8_t value,
 111:C:/Renesas/e2studio_2021_01_workspace_RZA2M_ANPR/ANPR_RZA2M_EBK/src/tensorflow_lite/tensorflow/lite/kernels/internal\types.h ****   // even if the data type of the weights buffer is uint8_t.  This is intended
 112:C:/Renesas/e2studio_2021_01_workspace_RZA2M_ANPR/ANPR_RZA2M_EBK/src/tensorflow_lite/tensorflow/lite/kernels/internal\types.h ****   // to save runtime kernels the effort to have to XOR the top bit of these
 113:C:/Renesas/e2studio_2021_01_workspace_RZA2M_ANPR/ANPR_RZA2M_EBK/src/tensorflow_lite/tensorflow/lite/kernels/internal\types.h ****   // bytes before using them in signed arithmetic, see this file for more
 114:C:/Renesas/e2studio_2021_01_workspace_RZA2M_ANPR/ANPR_RZA2M_EBK/src/tensorflow_lite/tensorflow/lite/kernels/internal\types.h ****   // explanations on the 'signed int8_t trick' in matrix multiplication kernels:
 115:C:/Renesas/e2studio_2021_01_workspace_RZA2M_ANPR/ANPR_RZA2M_EBK/src/tensorflow_lite/tensorflow/lite/kernels/internal\types.h ****   //
 116:C:/Renesas/e2studio_2021_01_workspace_RZA2M_ANPR/ANPR_RZA2M_EBK/src/tensorflow_lite/tensorflow/lite/kernels/internal\types.h ****   //   tensorflow/lite/toco/graph_transformations/ensure_uint8_weights_safe_for_fast_int8_kernels.c
 117:C:/Renesas/e2studio_2021_01_workspace_RZA2M_ANPR/ANPR_RZA2M_EBK/src/tensorflow_lite/tensorflow/lite/kernels/internal\types.h ****   //
 118:C:/Renesas/e2studio_2021_01_workspace_RZA2M_ANPR/ANPR_RZA2M_EBK/src/tensorflow_lite/tensorflow/lite/kernels/internal\types.h ****   kShuffled4x16Int8,
 119:C:/Renesas/e2studio_2021_01_workspace_RZA2M_ANPR/ANPR_RZA2M_EBK/src/tensorflow_lite/tensorflow/lite/kernels/internal\types.h **** };
 120:C:/Renesas/e2studio_2021_01_workspace_RZA2M_ANPR/ANPR_RZA2M_EBK/src/tensorflow_lite/tensorflow/lite/kernels/internal\types.h **** 
 121:C:/Renesas/e2studio_2021_01_workspace_RZA2M_ANPR/ANPR_RZA2M_EBK/src/tensorflow_lite/tensorflow/lite/kernels/internal\types.h **** // Quantization parameters, determining the mapping of quantized values
 122:C:/Renesas/e2studio_2021_01_workspace_RZA2M_ANPR/ANPR_RZA2M_EBK/src/tensorflow_lite/tensorflow/lite/kernels/internal\types.h **** // to real values (i.e. determining how quantized values are mathematically
 123:C:/Renesas/e2studio_2021_01_workspace_RZA2M_ANPR/ANPR_RZA2M_EBK/src/tensorflow_lite/tensorflow/lite/kernels/internal\types.h **** // interpreted).
 124:C:/Renesas/e2studio_2021_01_workspace_RZA2M_ANPR/ANPR_RZA2M_EBK/src/tensorflow_lite/tensorflow/lite/kernels/internal\types.h **** //
 125:C:/Renesas/e2studio_2021_01_workspace_RZA2M_ANPR/ANPR_RZA2M_EBK/src/tensorflow_lite/tensorflow/lite/kernels/internal\types.h **** // The correspondence is as follows:
 126:C:/Renesas/e2studio_2021_01_workspace_RZA2M_ANPR/ANPR_RZA2M_EBK/src/tensorflow_lite/tensorflow/lite/kernels/internal\types.h **** //
 127:C:/Renesas/e2studio_2021_01_workspace_RZA2M_ANPR/ANPR_RZA2M_EBK/src/tensorflow_lite/tensorflow/lite/kernels/internal\types.h **** //   real_value = scale * (quantized_value - zero_point);
 128:C:/Renesas/e2studio_2021_01_workspace_RZA2M_ANPR/ANPR_RZA2M_EBK/src/tensorflow_lite/tensorflow/lite/kernels/internal\types.h **** //
 129:C:/Renesas/e2studio_2021_01_workspace_RZA2M_ANPR/ANPR_RZA2M_EBK/src/tensorflow_lite/tensorflow/lite/kernels/internal\types.h **** // In other words, zero_point designates which quantized value corresponds to
 130:C:/Renesas/e2studio_2021_01_workspace_RZA2M_ANPR/ANPR_RZA2M_EBK/src/tensorflow_lite/tensorflow/lite/kernels/internal\types.h **** // the real 0 value, and scale designates the difference between the real values
 131:C:/Renesas/e2studio_2021_01_workspace_RZA2M_ANPR/ANPR_RZA2M_EBK/src/tensorflow_lite/tensorflow/lite/kernels/internal\types.h **** // corresponding to consecutive quantized values differing by 1.
 132:C:/Renesas/e2studio_2021_01_workspace_RZA2M_ANPR/ANPR_RZA2M_EBK/src/tensorflow_lite/tensorflow/lite/kernels/internal\types.h **** struct QuantizationParams {
 133:C:/Renesas/e2studio_2021_01_workspace_RZA2M_ANPR/ANPR_RZA2M_EBK/src/tensorflow_lite/tensorflow/lite/kernels/internal\types.h ****   int32_t zero_point = 0;
 134:C:/Renesas/e2studio_2021_01_workspace_RZA2M_ANPR/ANPR_RZA2M_EBK/src/tensorflow_lite/tensorflow/lite/kernels/internal\types.h ****   double scale = 0.0;
 135:C:/Renesas/e2studio_2021_01_workspace_RZA2M_ANPR/ANPR_RZA2M_EBK/src/tensorflow_lite/tensorflow/lite/kernels/internal\types.h **** };
 136:C:/Renesas/e2studio_2021_01_workspace_RZA2M_ANPR/ANPR_RZA2M_EBK/src/tensorflow_lite/tensorflow/lite/kernels/internal\types.h **** 
 137:C:/Renesas/e2studio_2021_01_workspace_RZA2M_ANPR/ANPR_RZA2M_EBK/src/tensorflow_lite/tensorflow/lite/kernels/internal\types.h **** inline bool operator==(const QuantizationParams& qp1,
 138:C:/Renesas/e2studio_2021_01_workspace_RZA2M_ANPR/ANPR_RZA2M_EBK/src/tensorflow_lite/tensorflow/lite/kernels/internal\types.h ****                        const QuantizationParams& qp2) {
 139:C:/Renesas/e2studio_2021_01_workspace_RZA2M_ANPR/ANPR_RZA2M_EBK/src/tensorflow_lite/tensorflow/lite/kernels/internal\types.h ****   return qp1.zero_point == qp2.zero_point && qp1.scale == qp2.scale;
 140:C:/Renesas/e2studio_2021_01_workspace_RZA2M_ANPR/ANPR_RZA2M_EBK/src/tensorflow_lite/tensorflow/lite/kernels/internal\types.h **** }
 141:C:/Renesas/e2studio_2021_01_workspace_RZA2M_ANPR/ANPR_RZA2M_EBK/src/tensorflow_lite/tensorflow/lite/kernels/internal\types.h **** 
 142:C:/Renesas/e2studio_2021_01_workspace_RZA2M_ANPR/ANPR_RZA2M_EBK/src/tensorflow_lite/tensorflow/lite/kernels/internal\types.h **** template <int N>
 143:C:/Renesas/e2studio_2021_01_workspace_RZA2M_ANPR/ANPR_RZA2M_EBK/src/tensorflow_lite/tensorflow/lite/kernels/internal\types.h **** struct Dims {
 144:C:/Renesas/e2studio_2021_01_workspace_RZA2M_ANPR/ANPR_RZA2M_EBK/src/tensorflow_lite/tensorflow/lite/kernels/internal\types.h ****   int sizes[N];
 145:C:/Renesas/e2studio_2021_01_workspace_RZA2M_ANPR/ANPR_RZA2M_EBK/src/tensorflow_lite/tensorflow/lite/kernels/internal\types.h ****   int strides[N];
 146:C:/Renesas/e2studio_2021_01_workspace_RZA2M_ANPR/ANPR_RZA2M_EBK/src/tensorflow_lite/tensorflow/lite/kernels/internal\types.h **** };
 147:C:/Renesas/e2studio_2021_01_workspace_RZA2M_ANPR/ANPR_RZA2M_EBK/src/tensorflow_lite/tensorflow/lite/kernels/internal\types.h **** 
 148:C:/Renesas/e2studio_2021_01_workspace_RZA2M_ANPR/ANPR_RZA2M_EBK/src/tensorflow_lite/tensorflow/lite/kernels/internal\types.h **** class RuntimeShape {
 149:C:/Renesas/e2studio_2021_01_workspace_RZA2M_ANPR/ANPR_RZA2M_EBK/src/tensorflow_lite/tensorflow/lite/kernels/internal\types.h ****  public:
 150:C:/Renesas/e2studio_2021_01_workspace_RZA2M_ANPR/ANPR_RZA2M_EBK/src/tensorflow_lite/tensorflow/lite/kernels/internal\types.h ****   // Shapes with dimensions up to 5 are stored directly in the structure, while
 151:C:/Renesas/e2studio_2021_01_workspace_RZA2M_ANPR/ANPR_RZA2M_EBK/src/tensorflow_lite/tensorflow/lite/kernels/internal\types.h ****   // larger shapes are separately allocated.
 152:C:/Renesas/e2studio_2021_01_workspace_RZA2M_ANPR/ANPR_RZA2M_EBK/src/tensorflow_lite/tensorflow/lite/kernels/internal\types.h ****   static constexpr int kMaxSmallSize = 5;
 153:C:/Renesas/e2studio_2021_01_workspace_RZA2M_ANPR/ANPR_RZA2M_EBK/src/tensorflow_lite/tensorflow/lite/kernels/internal\types.h **** 
 154:C:/Renesas/e2studio_2021_01_workspace_RZA2M_ANPR/ANPR_RZA2M_EBK/src/tensorflow_lite/tensorflow/lite/kernels/internal\types.h ****   RuntimeShape& operator=(RuntimeShape const&) = delete;
 155:C:/Renesas/e2studio_2021_01_workspace_RZA2M_ANPR/ANPR_RZA2M_EBK/src/tensorflow_lite/tensorflow/lite/kernels/internal\types.h **** 
 156:C:/Renesas/e2studio_2021_01_workspace_RZA2M_ANPR/ANPR_RZA2M_EBK/src/tensorflow_lite/tensorflow/lite/kernels/internal\types.h ****   RuntimeShape() : size_(0) {}
 157:C:/Renesas/e2studio_2021_01_workspace_RZA2M_ANPR/ANPR_RZA2M_EBK/src/tensorflow_lite/tensorflow/lite/kernels/internal\types.h **** 
 158:C:/Renesas/e2studio_2021_01_workspace_RZA2M_ANPR/ANPR_RZA2M_EBK/src/tensorflow_lite/tensorflow/lite/kernels/internal\types.h ****   explicit RuntimeShape(int dimensions_count) : size_(dimensions_count) {
 159:C:/Renesas/e2studio_2021_01_workspace_RZA2M_ANPR/ANPR_RZA2M_EBK/src/tensorflow_lite/tensorflow/lite/kernels/internal\types.h ****     if (dimensions_count > kMaxSmallSize) {
 160:C:/Renesas/e2studio_2021_01_workspace_RZA2M_ANPR/ANPR_RZA2M_EBK/src/tensorflow_lite/tensorflow/lite/kernels/internal\types.h **** #ifdef TF_LITE_STATIC_MEMORY
 161:C:/Renesas/e2studio_2021_01_workspace_RZA2M_ANPR/ANPR_RZA2M_EBK/src/tensorflow_lite/tensorflow/lite/kernels/internal\types.h ****       TFLITE_CHECK(false && "No shape resizing supported on this platform");
 162:C:/Renesas/e2studio_2021_01_workspace_RZA2M_ANPR/ANPR_RZA2M_EBK/src/tensorflow_lite/tensorflow/lite/kernels/internal\types.h **** #else  // TF_LITE_STATIC_MEMORY
 163:C:/Renesas/e2studio_2021_01_workspace_RZA2M_ANPR/ANPR_RZA2M_EBK/src/tensorflow_lite/tensorflow/lite/kernels/internal\types.h ****       dims_pointer_ = new int32_t[dimensions_count];
 164:C:/Renesas/e2studio_2021_01_workspace_RZA2M_ANPR/ANPR_RZA2M_EBK/src/tensorflow_lite/tensorflow/lite/kernels/internal\types.h **** #endif  // TF_LITE_STATIC_MEMORY
 165:C:/Renesas/e2studio_2021_01_workspace_RZA2M_ANPR/ANPR_RZA2M_EBK/src/tensorflow_lite/tensorflow/lite/kernels/internal\types.h ****     }
 166:C:/Renesas/e2studio_2021_01_workspace_RZA2M_ANPR/ANPR_RZA2M_EBK/src/tensorflow_lite/tensorflow/lite/kernels/internal\types.h ****   }
 167:C:/Renesas/e2studio_2021_01_workspace_RZA2M_ANPR/ANPR_RZA2M_EBK/src/tensorflow_lite/tensorflow/lite/kernels/internal\types.h **** 
 168:C:/Renesas/e2studio_2021_01_workspace_RZA2M_ANPR/ANPR_RZA2M_EBK/src/tensorflow_lite/tensorflow/lite/kernels/internal\types.h ****   RuntimeShape(int shape_size, int32_t value) : size_(0) {
 169:C:/Renesas/e2studio_2021_01_workspace_RZA2M_ANPR/ANPR_RZA2M_EBK/src/tensorflow_lite/tensorflow/lite/kernels/internal\types.h ****     Resize(shape_size);
 170:C:/Renesas/e2studio_2021_01_workspace_RZA2M_ANPR/ANPR_RZA2M_EBK/src/tensorflow_lite/tensorflow/lite/kernels/internal\types.h ****     for (int i = 0; i < shape_size; ++i) {
 171:C:/Renesas/e2studio_2021_01_workspace_RZA2M_ANPR/ANPR_RZA2M_EBK/src/tensorflow_lite/tensorflow/lite/kernels/internal\types.h ****       SetDim(i, value);
 172:C:/Renesas/e2studio_2021_01_workspace_RZA2M_ANPR/ANPR_RZA2M_EBK/src/tensorflow_lite/tensorflow/lite/kernels/internal\types.h ****     }
 173:C:/Renesas/e2studio_2021_01_workspace_RZA2M_ANPR/ANPR_RZA2M_EBK/src/tensorflow_lite/tensorflow/lite/kernels/internal\types.h ****   }
 174:C:/Renesas/e2studio_2021_01_workspace_RZA2M_ANPR/ANPR_RZA2M_EBK/src/tensorflow_lite/tensorflow/lite/kernels/internal\types.h **** 
 175:C:/Renesas/e2studio_2021_01_workspace_RZA2M_ANPR/ANPR_RZA2M_EBK/src/tensorflow_lite/tensorflow/lite/kernels/internal\types.h ****   RuntimeShape(int dimensions_count, const int32_t* dims_data) : size_(0) {
 176:C:/Renesas/e2studio_2021_01_workspace_RZA2M_ANPR/ANPR_RZA2M_EBK/src/tensorflow_lite/tensorflow/lite/kernels/internal\types.h ****     ReplaceWith(dimensions_count, dims_data);
 177:C:/Renesas/e2studio_2021_01_workspace_RZA2M_ANPR/ANPR_RZA2M_EBK/src/tensorflow_lite/tensorflow/lite/kernels/internal\types.h ****   }
 178:C:/Renesas/e2studio_2021_01_workspace_RZA2M_ANPR/ANPR_RZA2M_EBK/src/tensorflow_lite/tensorflow/lite/kernels/internal\types.h **** 
 179:C:/Renesas/e2studio_2021_01_workspace_RZA2M_ANPR/ANPR_RZA2M_EBK/src/tensorflow_lite/tensorflow/lite/kernels/internal\types.h ****   RuntimeShape(const std::initializer_list<int> init_list) : size_(0) {
 180:C:/Renesas/e2studio_2021_01_workspace_RZA2M_ANPR/ANPR_RZA2M_EBK/src/tensorflow_lite/tensorflow/lite/kernels/internal\types.h ****     BuildFrom(init_list);
 181:C:/Renesas/e2studio_2021_01_workspace_RZA2M_ANPR/ANPR_RZA2M_EBK/src/tensorflow_lite/tensorflow/lite/kernels/internal\types.h ****   }
 182:C:/Renesas/e2studio_2021_01_workspace_RZA2M_ANPR/ANPR_RZA2M_EBK/src/tensorflow_lite/tensorflow/lite/kernels/internal\types.h **** 
 183:C:/Renesas/e2studio_2021_01_workspace_RZA2M_ANPR/ANPR_RZA2M_EBK/src/tensorflow_lite/tensorflow/lite/kernels/internal\types.h ****   // Avoid using this constructor.  We should be able to delete it when C++17
 184:C:/Renesas/e2studio_2021_01_workspace_RZA2M_ANPR/ANPR_RZA2M_EBK/src/tensorflow_lite/tensorflow/lite/kernels/internal\types.h ****   // rolls out.
 185:C:/Renesas/e2studio_2021_01_workspace_RZA2M_ANPR/ANPR_RZA2M_EBK/src/tensorflow_lite/tensorflow/lite/kernels/internal\types.h ****   RuntimeShape(RuntimeShape const& other) : size_(other.DimensionsCount()) {
 186:C:/Renesas/e2studio_2021_01_workspace_RZA2M_ANPR/ANPR_RZA2M_EBK/src/tensorflow_lite/tensorflow/lite/kernels/internal\types.h ****     if (size_ > kMaxSmallSize) {
 187:C:/Renesas/e2studio_2021_01_workspace_RZA2M_ANPR/ANPR_RZA2M_EBK/src/tensorflow_lite/tensorflow/lite/kernels/internal\types.h **** #ifdef TF_LITE_STATIC_MEMORY
 188:C:/Renesas/e2studio_2021_01_workspace_RZA2M_ANPR/ANPR_RZA2M_EBK/src/tensorflow_lite/tensorflow/lite/kernels/internal\types.h ****       TFLITE_CHECK(false && "No shape resizing supported on this platform");
 189:C:/Renesas/e2studio_2021_01_workspace_RZA2M_ANPR/ANPR_RZA2M_EBK/src/tensorflow_lite/tensorflow/lite/kernels/internal\types.h **** #else
 190:C:/Renesas/e2studio_2021_01_workspace_RZA2M_ANPR/ANPR_RZA2M_EBK/src/tensorflow_lite/tensorflow/lite/kernels/internal\types.h ****       dims_pointer_ = new int32_t[size_];
 191:C:/Renesas/e2studio_2021_01_workspace_RZA2M_ANPR/ANPR_RZA2M_EBK/src/tensorflow_lite/tensorflow/lite/kernels/internal\types.h **** #endif
 192:C:/Renesas/e2studio_2021_01_workspace_RZA2M_ANPR/ANPR_RZA2M_EBK/src/tensorflow_lite/tensorflow/lite/kernels/internal\types.h ****     }
 193:C:/Renesas/e2studio_2021_01_workspace_RZA2M_ANPR/ANPR_RZA2M_EBK/src/tensorflow_lite/tensorflow/lite/kernels/internal\types.h ****     std::memcpy(DimsData(), other.DimsData(), sizeof(int32_t) * size_);
 194:C:/Renesas/e2studio_2021_01_workspace_RZA2M_ANPR/ANPR_RZA2M_EBK/src/tensorflow_lite/tensorflow/lite/kernels/internal\types.h ****   }
 195:C:/Renesas/e2studio_2021_01_workspace_RZA2M_ANPR/ANPR_RZA2M_EBK/src/tensorflow_lite/tensorflow/lite/kernels/internal\types.h **** 
 196:C:/Renesas/e2studio_2021_01_workspace_RZA2M_ANPR/ANPR_RZA2M_EBK/src/tensorflow_lite/tensorflow/lite/kernels/internal\types.h ****   bool operator==(const RuntimeShape& comp) const {
 197:C:/Renesas/e2studio_2021_01_workspace_RZA2M_ANPR/ANPR_RZA2M_EBK/src/tensorflow_lite/tensorflow/lite/kernels/internal\types.h ****     return this->size_ == comp.size_ &&
 198:C:/Renesas/e2studio_2021_01_workspace_RZA2M_ANPR/ANPR_RZA2M_EBK/src/tensorflow_lite/tensorflow/lite/kernels/internal\types.h ****            std::memcmp(DimsData(), comp.DimsData(), size_ * sizeof(int32_t)) ==
 199:C:/Renesas/e2studio_2021_01_workspace_RZA2M_ANPR/ANPR_RZA2M_EBK/src/tensorflow_lite/tensorflow/lite/kernels/internal\types.h ****                0;
 200:C:/Renesas/e2studio_2021_01_workspace_RZA2M_ANPR/ANPR_RZA2M_EBK/src/tensorflow_lite/tensorflow/lite/kernels/internal\types.h ****   }
 201:C:/Renesas/e2studio_2021_01_workspace_RZA2M_ANPR/ANPR_RZA2M_EBK/src/tensorflow_lite/tensorflow/lite/kernels/internal\types.h **** 
 202:C:/Renesas/e2studio_2021_01_workspace_RZA2M_ANPR/ANPR_RZA2M_EBK/src/tensorflow_lite/tensorflow/lite/kernels/internal\types.h ****   ~RuntimeShape() {
 203:C:/Renesas/e2studio_2021_01_workspace_RZA2M_ANPR/ANPR_RZA2M_EBK/src/tensorflow_lite/tensorflow/lite/kernels/internal\types.h ****     if (size_ > kMaxSmallSize) {
 204:C:/Renesas/e2studio_2021_01_workspace_RZA2M_ANPR/ANPR_RZA2M_EBK/src/tensorflow_lite/tensorflow/lite/kernels/internal\types.h **** #ifdef TF_LITE_STATIC_MEMORY
 205:C:/Renesas/e2studio_2021_01_workspace_RZA2M_ANPR/ANPR_RZA2M_EBK/src/tensorflow_lite/tensorflow/lite/kernels/internal\types.h ****       TFLITE_CHECK(false && "No shape resizing supported on this platform");
 206:C:/Renesas/e2studio_2021_01_workspace_RZA2M_ANPR/ANPR_RZA2M_EBK/src/tensorflow_lite/tensorflow/lite/kernels/internal\types.h **** #else  // TF_LITE_STATIC_MEMORY
 207:C:/Renesas/e2studio_2021_01_workspace_RZA2M_ANPR/ANPR_RZA2M_EBK/src/tensorflow_lite/tensorflow/lite/kernels/internal\types.h ****       delete[] dims_pointer_;
 208:C:/Renesas/e2studio_2021_01_workspace_RZA2M_ANPR/ANPR_RZA2M_EBK/src/tensorflow_lite/tensorflow/lite/kernels/internal\types.h **** #endif  // TF_LITE_STATIC_MEMORY
 209:C:/Renesas/e2studio_2021_01_workspace_RZA2M_ANPR/ANPR_RZA2M_EBK/src/tensorflow_lite/tensorflow/lite/kernels/internal\types.h ****     }
 210:C:/Renesas/e2studio_2021_01_workspace_RZA2M_ANPR/ANPR_RZA2M_EBK/src/tensorflow_lite/tensorflow/lite/kernels/internal\types.h ****   }
 211:C:/Renesas/e2studio_2021_01_workspace_RZA2M_ANPR/ANPR_RZA2M_EBK/src/tensorflow_lite/tensorflow/lite/kernels/internal\types.h **** 
 212:C:/Renesas/e2studio_2021_01_workspace_RZA2M_ANPR/ANPR_RZA2M_EBK/src/tensorflow_lite/tensorflow/lite/kernels/internal\types.h ****   inline int32_t DimensionsCount() const { return size_; }
 213:C:/Renesas/e2studio_2021_01_workspace_RZA2M_ANPR/ANPR_RZA2M_EBK/src/tensorflow_lite/tensorflow/lite/kernels/internal\types.h ****   inline int32_t Dims(int i) const {
 214:C:/Renesas/e2studio_2021_01_workspace_RZA2M_ANPR/ANPR_RZA2M_EBK/src/tensorflow_lite/tensorflow/lite/kernels/internal\types.h ****     TFLITE_DCHECK_GE(i, 0);
 215:C:/Renesas/e2studio_2021_01_workspace_RZA2M_ANPR/ANPR_RZA2M_EBK/src/tensorflow_lite/tensorflow/lite/kernels/internal\types.h ****     TFLITE_DCHECK_LT(i, size_);
 216:C:/Renesas/e2studio_2021_01_workspace_RZA2M_ANPR/ANPR_RZA2M_EBK/src/tensorflow_lite/tensorflow/lite/kernels/internal\types.h ****     return size_ > kMaxSmallSize ? dims_pointer_[i] : dims_[i];
 217:C:/Renesas/e2studio_2021_01_workspace_RZA2M_ANPR/ANPR_RZA2M_EBK/src/tensorflow_lite/tensorflow/lite/kernels/internal\types.h ****   }
 218:C:/Renesas/e2studio_2021_01_workspace_RZA2M_ANPR/ANPR_RZA2M_EBK/src/tensorflow_lite/tensorflow/lite/kernels/internal\types.h ****   inline void SetDim(int i, int32_t val) {
 219:C:/Renesas/e2studio_2021_01_workspace_RZA2M_ANPR/ANPR_RZA2M_EBK/src/tensorflow_lite/tensorflow/lite/kernels/internal\types.h ****     TFLITE_DCHECK_GE(i, 0);
 220:C:/Renesas/e2studio_2021_01_workspace_RZA2M_ANPR/ANPR_RZA2M_EBK/src/tensorflow_lite/tensorflow/lite/kernels/internal\types.h ****     TFLITE_DCHECK_LT(i, size_);
 221:C:/Renesas/e2studio_2021_01_workspace_RZA2M_ANPR/ANPR_RZA2M_EBK/src/tensorflow_lite/tensorflow/lite/kernels/internal\types.h ****     if (size_ > kMaxSmallSize) {
 222:C:/Renesas/e2studio_2021_01_workspace_RZA2M_ANPR/ANPR_RZA2M_EBK/src/tensorflow_lite/tensorflow/lite/kernels/internal\types.h ****       dims_pointer_[i] = val;
 223:C:/Renesas/e2studio_2021_01_workspace_RZA2M_ANPR/ANPR_RZA2M_EBK/src/tensorflow_lite/tensorflow/lite/kernels/internal\types.h ****     } else {
 224:C:/Renesas/e2studio_2021_01_workspace_RZA2M_ANPR/ANPR_RZA2M_EBK/src/tensorflow_lite/tensorflow/lite/kernels/internal\types.h ****       dims_[i] = val;
 225:C:/Renesas/e2studio_2021_01_workspace_RZA2M_ANPR/ANPR_RZA2M_EBK/src/tensorflow_lite/tensorflow/lite/kernels/internal\types.h ****     }
 226:C:/Renesas/e2studio_2021_01_workspace_RZA2M_ANPR/ANPR_RZA2M_EBK/src/tensorflow_lite/tensorflow/lite/kernels/internal\types.h ****   }
 227:C:/Renesas/e2studio_2021_01_workspace_RZA2M_ANPR/ANPR_RZA2M_EBK/src/tensorflow_lite/tensorflow/lite/kernels/internal\types.h **** 
 228:C:/Renesas/e2studio_2021_01_workspace_RZA2M_ANPR/ANPR_RZA2M_EBK/src/tensorflow_lite/tensorflow/lite/kernels/internal\types.h ****   inline int32_t* DimsData() {
 229:C:/Renesas/e2studio_2021_01_workspace_RZA2M_ANPR/ANPR_RZA2M_EBK/src/tensorflow_lite/tensorflow/lite/kernels/internal\types.h ****     return size_ > kMaxSmallSize ? dims_pointer_ : dims_;
 230:C:/Renesas/e2studio_2021_01_workspace_RZA2M_ANPR/ANPR_RZA2M_EBK/src/tensorflow_lite/tensorflow/lite/kernels/internal\types.h ****   }
 231:C:/Renesas/e2studio_2021_01_workspace_RZA2M_ANPR/ANPR_RZA2M_EBK/src/tensorflow_lite/tensorflow/lite/kernels/internal\types.h ****   inline const int32_t* DimsData() const {
 232:C:/Renesas/e2studio_2021_01_workspace_RZA2M_ANPR/ANPR_RZA2M_EBK/src/tensorflow_lite/tensorflow/lite/kernels/internal\types.h ****     return size_ > kMaxSmallSize ? dims_pointer_ : dims_;
 233:C:/Renesas/e2studio_2021_01_workspace_RZA2M_ANPR/ANPR_RZA2M_EBK/src/tensorflow_lite/tensorflow/lite/kernels/internal\types.h ****   }
 234:C:/Renesas/e2studio_2021_01_workspace_RZA2M_ANPR/ANPR_RZA2M_EBK/src/tensorflow_lite/tensorflow/lite/kernels/internal\types.h ****   // The caller must ensure that the shape is no bigger than 5-D.
 235:C:/Renesas/e2studio_2021_01_workspace_RZA2M_ANPR/ANPR_RZA2M_EBK/src/tensorflow_lite/tensorflow/lite/kernels/internal\types.h ****   inline const int32_t* DimsDataUpTo5D() const { return dims_; }
 236:C:/Renesas/e2studio_2021_01_workspace_RZA2M_ANPR/ANPR_RZA2M_EBK/src/tensorflow_lite/tensorflow/lite/kernels/internal\types.h **** 
 237:C:/Renesas/e2studio_2021_01_workspace_RZA2M_ANPR/ANPR_RZA2M_EBK/src/tensorflow_lite/tensorflow/lite/kernels/internal\types.h ****   inline void Resize(int dimensions_count) {
 238:C:/Renesas/e2studio_2021_01_workspace_RZA2M_ANPR/ANPR_RZA2M_EBK/src/tensorflow_lite/tensorflow/lite/kernels/internal\types.h ****     if (size_ > kMaxSmallSize) {
 239:C:/Renesas/e2studio_2021_01_workspace_RZA2M_ANPR/ANPR_RZA2M_EBK/src/tensorflow_lite/tensorflow/lite/kernels/internal\types.h **** #ifdef TF_LITE_STATIC_MEMORY
 240:C:/Renesas/e2studio_2021_01_workspace_RZA2M_ANPR/ANPR_RZA2M_EBK/src/tensorflow_lite/tensorflow/lite/kernels/internal\types.h ****       TFLITE_CHECK(false && "No shape resizing supported on this platform");
 241:C:/Renesas/e2studio_2021_01_workspace_RZA2M_ANPR/ANPR_RZA2M_EBK/src/tensorflow_lite/tensorflow/lite/kernels/internal\types.h **** #else  // TF_LITE_STATIC_MEMORY
 242:C:/Renesas/e2studio_2021_01_workspace_RZA2M_ANPR/ANPR_RZA2M_EBK/src/tensorflow_lite/tensorflow/lite/kernels/internal\types.h ****       delete[] dims_pointer_;
 243:C:/Renesas/e2studio_2021_01_workspace_RZA2M_ANPR/ANPR_RZA2M_EBK/src/tensorflow_lite/tensorflow/lite/kernels/internal\types.h **** #endif  // TF_LITE_STATIC_MEMORY
 244:C:/Renesas/e2studio_2021_01_workspace_RZA2M_ANPR/ANPR_RZA2M_EBK/src/tensorflow_lite/tensorflow/lite/kernels/internal\types.h ****     }
 245:C:/Renesas/e2studio_2021_01_workspace_RZA2M_ANPR/ANPR_RZA2M_EBK/src/tensorflow_lite/tensorflow/lite/kernels/internal\types.h ****     size_ = dimensions_count;
 246:C:/Renesas/e2studio_2021_01_workspace_RZA2M_ANPR/ANPR_RZA2M_EBK/src/tensorflow_lite/tensorflow/lite/kernels/internal\types.h ****     if (dimensions_count > kMaxSmallSize) {
 247:C:/Renesas/e2studio_2021_01_workspace_RZA2M_ANPR/ANPR_RZA2M_EBK/src/tensorflow_lite/tensorflow/lite/kernels/internal\types.h **** #ifdef TF_LITE_STATIC_MEMORY
 248:C:/Renesas/e2studio_2021_01_workspace_RZA2M_ANPR/ANPR_RZA2M_EBK/src/tensorflow_lite/tensorflow/lite/kernels/internal\types.h ****       TFLITE_CHECK(false && "No shape resizing supported on this platform");
 249:C:/Renesas/e2studio_2021_01_workspace_RZA2M_ANPR/ANPR_RZA2M_EBK/src/tensorflow_lite/tensorflow/lite/kernels/internal\types.h **** #else  // TF_LITE_STATIC_MEMORY
 250:C:/Renesas/e2studio_2021_01_workspace_RZA2M_ANPR/ANPR_RZA2M_EBK/src/tensorflow_lite/tensorflow/lite/kernels/internal\types.h ****       dims_pointer_ = new int32_t[dimensions_count];
 251:C:/Renesas/e2studio_2021_01_workspace_RZA2M_ANPR/ANPR_RZA2M_EBK/src/tensorflow_lite/tensorflow/lite/kernels/internal\types.h **** #endif  // TF_LITE_STATIC_MEMORY
 252:C:/Renesas/e2studio_2021_01_workspace_RZA2M_ANPR/ANPR_RZA2M_EBK/src/tensorflow_lite/tensorflow/lite/kernels/internal\types.h ****     }
 253:C:/Renesas/e2studio_2021_01_workspace_RZA2M_ANPR/ANPR_RZA2M_EBK/src/tensorflow_lite/tensorflow/lite/kernels/internal\types.h ****   }
 254:C:/Renesas/e2studio_2021_01_workspace_RZA2M_ANPR/ANPR_RZA2M_EBK/src/tensorflow_lite/tensorflow/lite/kernels/internal\types.h **** 
 255:C:/Renesas/e2studio_2021_01_workspace_RZA2M_ANPR/ANPR_RZA2M_EBK/src/tensorflow_lite/tensorflow/lite/kernels/internal\types.h ****   inline void ReplaceWith(int dimensions_count, const int32_t* dims_data) {
 256:C:/Renesas/e2studio_2021_01_workspace_RZA2M_ANPR/ANPR_RZA2M_EBK/src/tensorflow_lite/tensorflow/lite/kernels/internal\types.h ****     Resize(dimensions_count);
 257:C:/Renesas/e2studio_2021_01_workspace_RZA2M_ANPR/ANPR_RZA2M_EBK/src/tensorflow_lite/tensorflow/lite/kernels/internal\types.h ****     int32_t* dst_dims = DimsData();
 258:C:/Renesas/e2studio_2021_01_workspace_RZA2M_ANPR/ANPR_RZA2M_EBK/src/tensorflow_lite/tensorflow/lite/kernels/internal\types.h ****     std::memcpy(dst_dims, dims_data, dimensions_count * sizeof(int32_t));
 259:C:/Renesas/e2studio_2021_01_workspace_RZA2M_ANPR/ANPR_RZA2M_EBK/src/tensorflow_lite/tensorflow/lite/kernels/internal\types.h ****   }
 260:C:/Renesas/e2studio_2021_01_workspace_RZA2M_ANPR/ANPR_RZA2M_EBK/src/tensorflow_lite/tensorflow/lite/kernels/internal\types.h **** 
 261:C:/Renesas/e2studio_2021_01_workspace_RZA2M_ANPR/ANPR_RZA2M_EBK/src/tensorflow_lite/tensorflow/lite/kernels/internal\types.h ****   template <typename T>
 262:C:/Renesas/e2studio_2021_01_workspace_RZA2M_ANPR/ANPR_RZA2M_EBK/src/tensorflow_lite/tensorflow/lite/kernels/internal\types.h ****   inline void BuildFrom(const T& src_iterable) {
 263:C:/Renesas/e2studio_2021_01_workspace_RZA2M_ANPR/ANPR_RZA2M_EBK/src/tensorflow_lite/tensorflow/lite/kernels/internal\types.h ****     const int dimensions_count =
 264:C:/Renesas/e2studio_2021_01_workspace_RZA2M_ANPR/ANPR_RZA2M_EBK/src/tensorflow_lite/tensorflow/lite/kernels/internal\types.h ****         std::distance(src_iterable.begin(), src_iterable.end());
 265:C:/Renesas/e2studio_2021_01_workspace_RZA2M_ANPR/ANPR_RZA2M_EBK/src/tensorflow_lite/tensorflow/lite/kernels/internal\types.h ****     Resize(dimensions_count);
 266:C:/Renesas/e2studio_2021_01_workspace_RZA2M_ANPR/ANPR_RZA2M_EBK/src/tensorflow_lite/tensorflow/lite/kernels/internal\types.h ****     int32_t* data = DimsData();
 267:C:/Renesas/e2studio_2021_01_workspace_RZA2M_ANPR/ANPR_RZA2M_EBK/src/tensorflow_lite/tensorflow/lite/kernels/internal\types.h ****     for (auto it : src_iterable) {
 268:C:/Renesas/e2studio_2021_01_workspace_RZA2M_ANPR/ANPR_RZA2M_EBK/src/tensorflow_lite/tensorflow/lite/kernels/internal\types.h ****       *data = it;
 269:C:/Renesas/e2studio_2021_01_workspace_RZA2M_ANPR/ANPR_RZA2M_EBK/src/tensorflow_lite/tensorflow/lite/kernels/internal\types.h ****       ++data;
 270:C:/Renesas/e2studio_2021_01_workspace_RZA2M_ANPR/ANPR_RZA2M_EBK/src/tensorflow_lite/tensorflow/lite/kernels/internal\types.h ****     }
 271:C:/Renesas/e2studio_2021_01_workspace_RZA2M_ANPR/ANPR_RZA2M_EBK/src/tensorflow_lite/tensorflow/lite/kernels/internal\types.h ****   }
 272:C:/Renesas/e2studio_2021_01_workspace_RZA2M_ANPR/ANPR_RZA2M_EBK/src/tensorflow_lite/tensorflow/lite/kernels/internal\types.h **** 
 273:C:/Renesas/e2studio_2021_01_workspace_RZA2M_ANPR/ANPR_RZA2M_EBK/src/tensorflow_lite/tensorflow/lite/kernels/internal\types.h ****   // This will probably be factored out. Old code made substantial use of 4-D
 274:C:/Renesas/e2studio_2021_01_workspace_RZA2M_ANPR/ANPR_RZA2M_EBK/src/tensorflow_lite/tensorflow/lite/kernels/internal\types.h ****   // shapes, and so this function is used to extend smaller shapes. Note that
 275:C:/Renesas/e2studio_2021_01_workspace_RZA2M_ANPR/ANPR_RZA2M_EBK/src/tensorflow_lite/tensorflow/lite/kernels/internal\types.h ****   // (a) as Dims<4>-dependent code is eliminated, the reliance on this should be
 276:C:/Renesas/e2studio_2021_01_workspace_RZA2M_ANPR/ANPR_RZA2M_EBK/src/tensorflow_lite/tensorflow/lite/kernels/internal\types.h ****   // reduced, and (b) some kernels are stricly 4-D, but then the shapes of their
 277:C:/Renesas/e2studio_2021_01_workspace_RZA2M_ANPR/ANPR_RZA2M_EBK/src/tensorflow_lite/tensorflow/lite/kernels/internal\types.h ****   // inputs should already be 4-D, so this function should not be needed.
 278:C:/Renesas/e2studio_2021_01_workspace_RZA2M_ANPR/ANPR_RZA2M_EBK/src/tensorflow_lite/tensorflow/lite/kernels/internal\types.h ****   inline static RuntimeShape ExtendedShape(int new_shape_size,
 279:C:/Renesas/e2studio_2021_01_workspace_RZA2M_ANPR/ANPR_RZA2M_EBK/src/tensorflow_lite/tensorflow/lite/kernels/internal\types.h ****                                            const RuntimeShape& shape) {
 280:C:/Renesas/e2studio_2021_01_workspace_RZA2M_ANPR/ANPR_RZA2M_EBK/src/tensorflow_lite/tensorflow/lite/kernels/internal\types.h ****     return RuntimeShape(new_shape_size, shape, 1);
 281:C:/Renesas/e2studio_2021_01_workspace_RZA2M_ANPR/ANPR_RZA2M_EBK/src/tensorflow_lite/tensorflow/lite/kernels/internal\types.h ****   }
 282:C:/Renesas/e2studio_2021_01_workspace_RZA2M_ANPR/ANPR_RZA2M_EBK/src/tensorflow_lite/tensorflow/lite/kernels/internal\types.h **** 
 283:C:/Renesas/e2studio_2021_01_workspace_RZA2M_ANPR/ANPR_RZA2M_EBK/src/tensorflow_lite/tensorflow/lite/kernels/internal\types.h ****   inline void BuildFrom(const std::initializer_list<int> init_list) {
 284:C:/Renesas/e2studio_2021_01_workspace_RZA2M_ANPR/ANPR_RZA2M_EBK/src/tensorflow_lite/tensorflow/lite/kernels/internal\types.h ****     BuildFrom<const std::initializer_list<int>>(init_list);
 285:C:/Renesas/e2studio_2021_01_workspace_RZA2M_ANPR/ANPR_RZA2M_EBK/src/tensorflow_lite/tensorflow/lite/kernels/internal\types.h ****   }
 286:C:/Renesas/e2studio_2021_01_workspace_RZA2M_ANPR/ANPR_RZA2M_EBK/src/tensorflow_lite/tensorflow/lite/kernels/internal\types.h **** 
 287:C:/Renesas/e2studio_2021_01_workspace_RZA2M_ANPR/ANPR_RZA2M_EBK/src/tensorflow_lite/tensorflow/lite/kernels/internal\types.h ****   // Returns the total count of elements, that is the size when flattened into a
 288:C:/Renesas/e2studio_2021_01_workspace_RZA2M_ANPR/ANPR_RZA2M_EBK/src/tensorflow_lite/tensorflow/lite/kernels/internal\types.h ****   // vector.
 289:C:/Renesas/e2studio_2021_01_workspace_RZA2M_ANPR/ANPR_RZA2M_EBK/src/tensorflow_lite/tensorflow/lite/kernels/internal\types.h ****   inline int FlatSize() const {
 290:C:/Renesas/e2studio_2021_01_workspace_RZA2M_ANPR/ANPR_RZA2M_EBK/src/tensorflow_lite/tensorflow/lite/kernels/internal\types.h ****     int buffer_size = 1;
 291:C:/Renesas/e2studio_2021_01_workspace_RZA2M_ANPR/ANPR_RZA2M_EBK/src/tensorflow_lite/tensorflow/lite/kernels/internal\types.h ****     const int* dims_data = reinterpret_cast<const int*>(DimsData());
 292:C:/Renesas/e2studio_2021_01_workspace_RZA2M_ANPR/ANPR_RZA2M_EBK/src/tensorflow_lite/tensorflow/lite/kernels/internal\types.h ****     for (int i = 0; i < size_; i++) {
 293:C:/Renesas/e2studio_2021_01_workspace_RZA2M_ANPR/ANPR_RZA2M_EBK/src/tensorflow_lite/tensorflow/lite/kernels/internal\types.h ****       buffer_size *= dims_data[i];
 294:C:/Renesas/e2studio_2021_01_workspace_RZA2M_ANPR/ANPR_RZA2M_EBK/src/tensorflow_lite/tensorflow/lite/kernels/internal\types.h ****     }
 295:C:/Renesas/e2studio_2021_01_workspace_RZA2M_ANPR/ANPR_RZA2M_EBK/src/tensorflow_lite/tensorflow/lite/kernels/internal\types.h ****     return buffer_size;
 296:C:/Renesas/e2studio_2021_01_workspace_RZA2M_ANPR/ANPR_RZA2M_EBK/src/tensorflow_lite/tensorflow/lite/kernels/internal\types.h ****   }
 297:C:/Renesas/e2studio_2021_01_workspace_RZA2M_ANPR/ANPR_RZA2M_EBK/src/tensorflow_lite/tensorflow/lite/kernels/internal\types.h **** 
 298:C:/Renesas/e2studio_2021_01_workspace_RZA2M_ANPR/ANPR_RZA2M_EBK/src/tensorflow_lite/tensorflow/lite/kernels/internal\types.h ****   bool operator!=(const RuntimeShape& comp) const { return !((*this) == comp); }
 299:C:/Renesas/e2studio_2021_01_workspace_RZA2M_ANPR/ANPR_RZA2M_EBK/src/tensorflow_lite/tensorflow/lite/kernels/internal\types.h **** 
 300:C:/Renesas/e2studio_2021_01_workspace_RZA2M_ANPR/ANPR_RZA2M_EBK/src/tensorflow_lite/tensorflow/lite/kernels/internal\types.h ****  private:
 301:C:/Renesas/e2studio_2021_01_workspace_RZA2M_ANPR/ANPR_RZA2M_EBK/src/tensorflow_lite/tensorflow/lite/kernels/internal\types.h ****   // For use only by ExtendedShape(), written to guarantee (return-value) copy
 302:C:/Renesas/e2studio_2021_01_workspace_RZA2M_ANPR/ANPR_RZA2M_EBK/src/tensorflow_lite/tensorflow/lite/kernels/internal\types.h ****   // elision in C++17.
 303:C:/Renesas/e2studio_2021_01_workspace_RZA2M_ANPR/ANPR_RZA2M_EBK/src/tensorflow_lite/tensorflow/lite/kernels/internal\types.h ****   // This creates a shape padded to the desired size with the specified value.
 304:C:/Renesas/e2studio_2021_01_workspace_RZA2M_ANPR/ANPR_RZA2M_EBK/src/tensorflow_lite/tensorflow/lite/kernels/internal\types.h ****   RuntimeShape(int new_shape_size, const RuntimeShape& shape, int pad_value)
 305:C:/Renesas/e2studio_2021_01_workspace_RZA2M_ANPR/ANPR_RZA2M_EBK/src/tensorflow_lite/tensorflow/lite/kernels/internal\types.h ****       : size_(0) {
 306:C:/Renesas/e2studio_2021_01_workspace_RZA2M_ANPR/ANPR_RZA2M_EBK/src/tensorflow_lite/tensorflow/lite/kernels/internal\types.h ****     // If the following check fails, it is likely because a 4D-only kernel is
 307:C:/Renesas/e2studio_2021_01_workspace_RZA2M_ANPR/ANPR_RZA2M_EBK/src/tensorflow_lite/tensorflow/lite/kernels/internal\types.h ****     // being used with an array of larger dimension count.
 308:C:/Renesas/e2studio_2021_01_workspace_RZA2M_ANPR/ANPR_RZA2M_EBK/src/tensorflow_lite/tensorflow/lite/kernels/internal\types.h ****     TFLITE_CHECK_GE(new_shape_size, shape.DimensionsCount());
 309:C:/Renesas/e2studio_2021_01_workspace_RZA2M_ANPR/ANPR_RZA2M_EBK/src/tensorflow_lite/tensorflow/lite/kernels/internal\types.h ****     Resize(new_shape_size);
 310:C:/Renesas/e2studio_2021_01_workspace_RZA2M_ANPR/ANPR_RZA2M_EBK/src/tensorflow_lite/tensorflow/lite/kernels/internal\types.h ****     const int size_increase = new_shape_size - shape.DimensionsCount();
 311:C:/Renesas/e2studio_2021_01_workspace_RZA2M_ANPR/ANPR_RZA2M_EBK/src/tensorflow_lite/tensorflow/lite/kernels/internal\types.h ****     for (int i = 0; i < size_increase; ++i) {
 447              		.loc 5 311 0
 448 00c4 040072E2 		rsbs	r0, r2, #4
 449              	.LBE388:
 450              	.LBB399:
 451              	.LBB400:
 245:C:/Renesas/e2studio_2021_01_workspace_RZA2M_ANPR/ANPR_RZA2M_EBK/src/tensorflow_lite/tensorflow/lite/kernels/internal\types.h ****     if (dimensions_count > kMaxSmallSize) {
 452              		.loc 5 245 0
 453 00c8 0430A0E3 		mov	r3, #4
 454 00cc D0308DE5 		str	r3, [sp, #208]
 455              	.LVL47:
 456              	.LBE400:
 457              	.LBE399:
 458              	.LBB401:
 459              		.loc 5 311 0
 460 00d0 3B01000A 		beq	.L27
 461              	.LVL48:
 462 00d4 010050E3 		cmp	r0, #1
 463              	.LBB389:
 464              	.LBB390:
 224:C:/Renesas/e2studio_2021_01_workspace_RZA2M_ANPR/ANPR_RZA2M_EBK/src/tensorflow_lite/tensorflow/lite/kernels/internal\types.h ****     }
 465              		.loc 5 224 0
 466 00d8 0130A0E3 		mov	r3, #1
 467 00dc D4308DE5 		str	r3, [sp, #212]
 468              	.LVL49:
 469              	.LBE390:
 470              	.LBE389:
 471              		.loc 5 311 0
 472 00e0 3701000A 		beq	.L27
 473              	.LVL50:
 474 00e4 020050E3 		cmp	r0, #2
 475              	.LBB395:
 476              	.LBB391:
 224:C:/Renesas/e2studio_2021_01_workspace_RZA2M_ANPR/ANPR_RZA2M_EBK/src/tensorflow_lite/tensorflow/lite/kernels/internal\types.h ****     }
 477              		.loc 5 224 0
 478 00e8 D8308DE5 		str	r3, [sp, #216]
 479              	.LVL51:
 480              	.LBE391:
 481              	.LBE395:
 482              		.loc 5 311 0
 483 00ec 3401000A 		beq	.L27
 484              	.LVL52:
 485 00f0 030050E3 		cmp	r0, #3
 486              	.LBB396:
 487              	.LBB392:
 224:C:/Renesas/e2studio_2021_01_workspace_RZA2M_ANPR/ANPR_RZA2M_EBK/src/tensorflow_lite/tensorflow/lite/kernels/internal\types.h ****     }
 488              		.loc 5 224 0
 489 00f4 DC308DE5 		str	r3, [sp, #220]
 490              	.LVL53:
 491              	.LBE392:
 492              	.LBE396:
 493              		.loc 5 311 0
 494 00f8 3101000A 		beq	.L27
 495              	.LVL54:
 496 00fc 040050E3 		cmp	r0, #4
 497              	.LBB397:
 498              	.LBB393:
 224:C:/Renesas/e2studio_2021_01_workspace_RZA2M_ANPR/ANPR_RZA2M_EBK/src/tensorflow_lite/tensorflow/lite/kernels/internal\types.h ****     }
 499              		.loc 5 224 0
 500 0100 E0308DE5 		str	r3, [sp, #224]
 501              	.LVL55:
 502              	.LBE393:
 503              	.LBE397:
 504              		.loc 5 311 0
 505 0104 2E01000A 		beq	.L27
 506              	.LVL56:
 507              	.LEHB3:
 508              	.LBB398:
 509              	.LBB394:
 220:C:/Renesas/e2studio_2021_01_workspace_RZA2M_ANPR/ANPR_RZA2M_EBK/src/tensorflow_lite/tensorflow/lite/kernels/internal\types.h ****     if (size_ > kMaxSmallSize) {
 510              		.loc 5 220 0
 511 0108 FEFFFFEB 		bl	abort
 512              	.LVL57:
 513              	.LEHE3:
 514              	.L18:
 515              	.LBE394:
 516              	.LBE398:
 517              	.LBE401:
 518              	.LBE387:
 519              	.LBE386:
 520              	.LBE385:
 521              	.LBE384:
 522              	.LBE383:
 523              	.LBE382:
  80:../src/tensorflow_lite/tensorflow/lite/micro/kernels/floor_div.cc ****         tflite::micro::GetTensorShape(input1),
  81:../src/tensorflow_lite/tensorflow/lite/micro/kernels/floor_div.cc ****         tflite::micro::GetTensorData<T>(input1),
  82:../src/tensorflow_lite/tensorflow/lite/micro/kernels/floor_div.cc ****         tflite::micro::GetTensorShape(input2), denominator_data,
  83:../src/tensorflow_lite/tensorflow/lite/micro/kernels/floor_div.cc ****         tflite::micro::GetTensorShape(output),
  84:../src/tensorflow_lite/tensorflow/lite/micro/kernels/floor_div.cc ****         tflite::micro::GetTensorData<T>(output), reference_ops::FloorDiv<T>);
  85:../src/tensorflow_lite/tensorflow/lite/micro/kernels/floor_div.cc ****   } else {
  86:../src/tensorflow_lite/tensorflow/lite/micro/kernels/floor_div.cc ****     reference_ops::BinaryFunction<T, T, T>(
 524              		.loc 1 86 0
 525 010c 010C8DE2 		add	r0, sp, #256
 526              	.LVL58:
 527              	.LEHB4:
 528 0110 FEFFFFEB 		bl	_ZN6tflite5micro14GetTensorShapeEPK16TfLiteEvalTensor
 529              	.LVL59:
 530              	.LEHE4:
 531              	.LBB680:
 532              	.LBB681:
  62:C:/Renesas/e2studio_2021_01_workspace_RZA2M_ANPR/ANPR_RZA2M_EBK/src/tensorflow_lite/tensorflow/lite/micro/kernels\kernel_util.h ****   return reinterpret_cast<const T*>(tensor->data.raw);
 533              		.loc 3 62 0
 534 0114 000058E3 		cmp	r8, #0
 535 0118 0F04000A 		beq	.L375
 536              		.loc 3 63 0
 537 011c 003098E5 		ldr	r3, [r8]
 538              	.LBE681:
 539              	.LBE680:
 540              		.loc 1 86 0
 541 0120 0610A0E1 		mov	r1, r6
 542 0124 460F8DE2 		add	r0, sp, #280
 543              	.LBB684:
 544              	.LBB682:
 545              		.loc 3 63 0
 546 0128 04308DE5 		str	r3, [sp, #4]
 547              	.LVL60:
 548              	.LEHB5:
 549              	.LBE682:
 550              	.LBE684:
 551              		.loc 1 86 0
 552 012c FEFFFFEB 		bl	_ZN6tflite5micro14GetTensorShapeEPK16TfLiteEvalTensor
 553              	.LVL61:
 554              	.LEHE5:
 555              		.loc 1 86 0 is_stmt 0 discriminator 4
 556 0130 0A10A0E1 		mov	r1, r10
 557 0134 4E0F8DE2 		add	r0, sp, #312
 558              	.LEHB6:
 559 0138 FEFFFFEB 		bl	_ZN6tflite5micro14GetTensorShapeEPK16TfLiteEvalTensor
 560              	.LVL62:
 561              	.LEHE6:
 562              	.LBB685:
 563              	.LBB686:
  56:C:/Renesas/e2studio_2021_01_workspace_RZA2M_ANPR/ANPR_RZA2M_EBK/src/tensorflow_lite/tensorflow/lite/micro/kernels\kernel_util.h **** }
 564              		.loc 3 56 0 is_stmt 1
 565 013c 00005AE3 		cmp	r10, #0
 566 0140 00B19DE5 		ldr	fp, [sp, #256]
 567 0144 00309A15 		ldrne	r3, [r10]
 568 0148 18519DE5 		ldr	r5, [sp, #280]
 569 014c 08A08D05 		streq	r10, [sp, #8]
 570              	.LVL63:
 571 0150 08308D15 		strne	r3, [sp, #8]
 572              	.LVL64:
 573              	.LBE686:
 574              	.LBE685:
 575              	.LBB687:
 576              	.LBB688:
 577              	.LBB689:
 578              	.LBB690:
 312:C:/Renesas/e2studio_2021_01_workspace_RZA2M_ANPR/ANPR_RZA2M_EBK/src/tensorflow_lite/tensorflow/lite/kernels/internal\types.h ****       SetDim(i, pad_value);
 313:C:/Renesas/e2studio_2021_01_workspace_RZA2M_ANPR/ANPR_RZA2M_EBK/src/tensorflow_lite/tensorflow/lite/kernels/internal\types.h ****     }
 314:C:/Renesas/e2studio_2021_01_workspace_RZA2M_ANPR/ANPR_RZA2M_EBK/src/tensorflow_lite/tensorflow/lite/kernels/internal\types.h ****     std::memcpy(DimsData() + size_increase, shape.DimsData(),
 315:C:/Renesas/e2studio_2021_01_workspace_RZA2M_ANPR/ANPR_RZA2M_EBK/src/tensorflow_lite/tensorflow/lite/kernels/internal\types.h ****                 sizeof(int32_t) * shape.DimensionsCount());
 316:C:/Renesas/e2studio_2021_01_workspace_RZA2M_ANPR/ANPR_RZA2M_EBK/src/tensorflow_lite/tensorflow/lite/kernels/internal\types.h ****   }
 317:C:/Renesas/e2studio_2021_01_workspace_RZA2M_ANPR/ANPR_RZA2M_EBK/src/tensorflow_lite/tensorflow/lite/kernels/internal\types.h **** 
 318:C:/Renesas/e2studio_2021_01_workspace_RZA2M_ANPR/ANPR_RZA2M_EBK/src/tensorflow_lite/tensorflow/lite/kernels/internal\types.h ****   int32_t size_;
 319:C:/Renesas/e2studio_2021_01_workspace_RZA2M_ANPR/ANPR_RZA2M_EBK/src/tensorflow_lite/tensorflow/lite/kernels/internal\types.h ****   union {
 320:C:/Renesas/e2studio_2021_01_workspace_RZA2M_ANPR/ANPR_RZA2M_EBK/src/tensorflow_lite/tensorflow/lite/kernels/internal\types.h ****     int32_t dims_[kMaxSmallSize];
 321:C:/Renesas/e2studio_2021_01_workspace_RZA2M_ANPR/ANPR_RZA2M_EBK/src/tensorflow_lite/tensorflow/lite/kernels/internal\types.h ****     int32_t* dims_pointer_;
 322:C:/Renesas/e2studio_2021_01_workspace_RZA2M_ANPR/ANPR_RZA2M_EBK/src/tensorflow_lite/tensorflow/lite/kernels/internal\types.h ****   };
 323:C:/Renesas/e2studio_2021_01_workspace_RZA2M_ANPR/ANPR_RZA2M_EBK/src/tensorflow_lite/tensorflow/lite/kernels/internal\types.h **** };
 324:C:/Renesas/e2studio_2021_01_workspace_RZA2M_ANPR/ANPR_RZA2M_EBK/src/tensorflow_lite/tensorflow/lite/kernels/internal\types.h **** 
 325:C:/Renesas/e2studio_2021_01_workspace_RZA2M_ANPR/ANPR_RZA2M_EBK/src/tensorflow_lite/tensorflow/lite/kernels/internal\types.h **** // Converts inference-style shape to legacy tflite::Dims<4>.
 326:C:/Renesas/e2studio_2021_01_workspace_RZA2M_ANPR/ANPR_RZA2M_EBK/src/tensorflow_lite/tensorflow/lite/kernels/internal\types.h **** inline tflite::Dims<4> ToRuntimeDims(const tflite::RuntimeShape& array_shape) {
 327:C:/Renesas/e2studio_2021_01_workspace_RZA2M_ANPR/ANPR_RZA2M_EBK/src/tensorflow_lite/tensorflow/lite/kernels/internal\types.h ****   tflite::Dims<4> result;
 328:C:/Renesas/e2studio_2021_01_workspace_RZA2M_ANPR/ANPR_RZA2M_EBK/src/tensorflow_lite/tensorflow/lite/kernels/internal\types.h ****   const int dimensions_count = array_shape.DimensionsCount();
 329:C:/Renesas/e2studio_2021_01_workspace_RZA2M_ANPR/ANPR_RZA2M_EBK/src/tensorflow_lite/tensorflow/lite/kernels/internal\types.h ****   TFLITE_CHECK_LE(dimensions_count, 4);
 330:C:/Renesas/e2studio_2021_01_workspace_RZA2M_ANPR/ANPR_RZA2M_EBK/src/tensorflow_lite/tensorflow/lite/kernels/internal\types.h ****   int cum_prod = 1;
 331:C:/Renesas/e2studio_2021_01_workspace_RZA2M_ANPR/ANPR_RZA2M_EBK/src/tensorflow_lite/tensorflow/lite/kernels/internal\types.h ****   for (int i = 0; i < 4; i++) {
 332:C:/Renesas/e2studio_2021_01_workspace_RZA2M_ANPR/ANPR_RZA2M_EBK/src/tensorflow_lite/tensorflow/lite/kernels/internal\types.h ****     const int new_dim =
 333:C:/Renesas/e2studio_2021_01_workspace_RZA2M_ANPR/ANPR_RZA2M_EBK/src/tensorflow_lite/tensorflow/lite/kernels/internal\types.h ****         (i < dimensions_count) ? array_shape.Dims(dimensions_count - 1 - i) : 1;
 334:C:/Renesas/e2studio_2021_01_workspace_RZA2M_ANPR/ANPR_RZA2M_EBK/src/tensorflow_lite/tensorflow/lite/kernels/internal\types.h ****     result.sizes[i] = new_dim;
 335:C:/Renesas/e2studio_2021_01_workspace_RZA2M_ANPR/ANPR_RZA2M_EBK/src/tensorflow_lite/tensorflow/lite/kernels/internal\types.h ****     result.strides[i] = cum_prod;
 336:C:/Renesas/e2studio_2021_01_workspace_RZA2M_ANPR/ANPR_RZA2M_EBK/src/tensorflow_lite/tensorflow/lite/kernels/internal\types.h ****     cum_prod *= new_dim;
 337:C:/Renesas/e2studio_2021_01_workspace_RZA2M_ANPR/ANPR_RZA2M_EBK/src/tensorflow_lite/tensorflow/lite/kernels/internal\types.h ****   }
 338:C:/Renesas/e2studio_2021_01_workspace_RZA2M_ANPR/ANPR_RZA2M_EBK/src/tensorflow_lite/tensorflow/lite/kernels/internal\types.h ****   return result;
 339:C:/Renesas/e2studio_2021_01_workspace_RZA2M_ANPR/ANPR_RZA2M_EBK/src/tensorflow_lite/tensorflow/lite/kernels/internal\types.h **** }
 340:C:/Renesas/e2studio_2021_01_workspace_RZA2M_ANPR/ANPR_RZA2M_EBK/src/tensorflow_lite/tensorflow/lite/kernels/internal\types.h **** 
 341:C:/Renesas/e2studio_2021_01_workspace_RZA2M_ANPR/ANPR_RZA2M_EBK/src/tensorflow_lite/tensorflow/lite/kernels/internal\types.h **** // TODO(b/80418076): Move to legacy ops file, update invocations.
 342:C:/Renesas/e2studio_2021_01_workspace_RZA2M_ANPR/ANPR_RZA2M_EBK/src/tensorflow_lite/tensorflow/lite/kernels/internal\types.h **** inline RuntimeShape DimsToShape(const tflite::Dims<4>& dims) {
 343:C:/Renesas/e2studio_2021_01_workspace_RZA2M_ANPR/ANPR_RZA2M_EBK/src/tensorflow_lite/tensorflow/lite/kernels/internal\types.h ****   return RuntimeShape(
 344:C:/Renesas/e2studio_2021_01_workspace_RZA2M_ANPR/ANPR_RZA2M_EBK/src/tensorflow_lite/tensorflow/lite/kernels/internal\types.h ****       {dims.sizes[3], dims.sizes[2], dims.sizes[1], dims.sizes[0]});
 345:C:/Renesas/e2studio_2021_01_workspace_RZA2M_ANPR/ANPR_RZA2M_EBK/src/tensorflow_lite/tensorflow/lite/kernels/internal\types.h **** }
 346:C:/Renesas/e2studio_2021_01_workspace_RZA2M_ANPR/ANPR_RZA2M_EBK/src/tensorflow_lite/tensorflow/lite/kernels/internal\types.h **** 
 347:C:/Renesas/e2studio_2021_01_workspace_RZA2M_ANPR/ANPR_RZA2M_EBK/src/tensorflow_lite/tensorflow/lite/kernels/internal\types.h **** // Gets next index to iterate through a multidimensional array.
 348:C:/Renesas/e2studio_2021_01_workspace_RZA2M_ANPR/ANPR_RZA2M_EBK/src/tensorflow_lite/tensorflow/lite/kernels/internal\types.h **** inline bool NextIndex(const int num_dims, const int* dims, int* current) {
 349:C:/Renesas/e2studio_2021_01_workspace_RZA2M_ANPR/ANPR_RZA2M_EBK/src/tensorflow_lite/tensorflow/lite/kernels/internal\types.h ****   if (num_dims == 0) {
 350:C:/Renesas/e2studio_2021_01_workspace_RZA2M_ANPR/ANPR_RZA2M_EBK/src/tensorflow_lite/tensorflow/lite/kernels/internal\types.h ****     return false;
 351:C:/Renesas/e2studio_2021_01_workspace_RZA2M_ANPR/ANPR_RZA2M_EBK/src/tensorflow_lite/tensorflow/lite/kernels/internal\types.h ****   }
 352:C:/Renesas/e2studio_2021_01_workspace_RZA2M_ANPR/ANPR_RZA2M_EBK/src/tensorflow_lite/tensorflow/lite/kernels/internal\types.h ****   TFLITE_DCHECK(dims != nullptr);
 353:C:/Renesas/e2studio_2021_01_workspace_RZA2M_ANPR/ANPR_RZA2M_EBK/src/tensorflow_lite/tensorflow/lite/kernels/internal\types.h ****   TFLITE_DCHECK(current != nullptr);
 354:C:/Renesas/e2studio_2021_01_workspace_RZA2M_ANPR/ANPR_RZA2M_EBK/src/tensorflow_lite/tensorflow/lite/kernels/internal\types.h ****   int carry = 1;
 355:C:/Renesas/e2studio_2021_01_workspace_RZA2M_ANPR/ANPR_RZA2M_EBK/src/tensorflow_lite/tensorflow/lite/kernels/internal\types.h ****   for (int idx = num_dims - 1; idx >= 0; --idx) {
 356:C:/Renesas/e2studio_2021_01_workspace_RZA2M_ANPR/ANPR_RZA2M_EBK/src/tensorflow_lite/tensorflow/lite/kernels/internal\types.h ****     int current_val = current[idx] + carry;
 357:C:/Renesas/e2studio_2021_01_workspace_RZA2M_ANPR/ANPR_RZA2M_EBK/src/tensorflow_lite/tensorflow/lite/kernels/internal\types.h ****     TFLITE_DCHECK_GE(dims[idx], current_val);
 358:C:/Renesas/e2studio_2021_01_workspace_RZA2M_ANPR/ANPR_RZA2M_EBK/src/tensorflow_lite/tensorflow/lite/kernels/internal\types.h ****     if (dims[idx] == current_val) {
 359:C:/Renesas/e2studio_2021_01_workspace_RZA2M_ANPR/ANPR_RZA2M_EBK/src/tensorflow_lite/tensorflow/lite/kernels/internal\types.h ****       current[idx] = 0;
 360:C:/Renesas/e2studio_2021_01_workspace_RZA2M_ANPR/ANPR_RZA2M_EBK/src/tensorflow_lite/tensorflow/lite/kernels/internal\types.h ****     } else {
 361:C:/Renesas/e2studio_2021_01_workspace_RZA2M_ANPR/ANPR_RZA2M_EBK/src/tensorflow_lite/tensorflow/lite/kernels/internal\types.h ****       current[idx] = current_val;
 362:C:/Renesas/e2studio_2021_01_workspace_RZA2M_ANPR/ANPR_RZA2M_EBK/src/tensorflow_lite/tensorflow/lite/kernels/internal\types.h ****       carry = 0;
 363:C:/Renesas/e2studio_2021_01_workspace_RZA2M_ANPR/ANPR_RZA2M_EBK/src/tensorflow_lite/tensorflow/lite/kernels/internal\types.h ****       break;
 364:C:/Renesas/e2studio_2021_01_workspace_RZA2M_ANPR/ANPR_RZA2M_EBK/src/tensorflow_lite/tensorflow/lite/kernels/internal\types.h ****     }
 365:C:/Renesas/e2studio_2021_01_workspace_RZA2M_ANPR/ANPR_RZA2M_EBK/src/tensorflow_lite/tensorflow/lite/kernels/internal\types.h ****   }
 366:C:/Renesas/e2studio_2021_01_workspace_RZA2M_ANPR/ANPR_RZA2M_EBK/src/tensorflow_lite/tensorflow/lite/kernels/internal\types.h ****   return (carry == 0);
 367:C:/Renesas/e2studio_2021_01_workspace_RZA2M_ANPR/ANPR_RZA2M_EBK/src/tensorflow_lite/tensorflow/lite/kernels/internal\types.h **** }
 368:C:/Renesas/e2studio_2021_01_workspace_RZA2M_ANPR/ANPR_RZA2M_EBK/src/tensorflow_lite/tensorflow/lite/kernels/internal\types.h **** 
 369:C:/Renesas/e2studio_2021_01_workspace_RZA2M_ANPR/ANPR_RZA2M_EBK/src/tensorflow_lite/tensorflow/lite/kernels/internal\types.h **** // Gets offset of index if reducing on axis. When reducing, the flattened offset
 370:C:/Renesas/e2studio_2021_01_workspace_RZA2M_ANPR/ANPR_RZA2M_EBK/src/tensorflow_lite/tensorflow/lite/kernels/internal\types.h **** // will not change, if the input index changes on the given axis. For example,
 371:C:/Renesas/e2studio_2021_01_workspace_RZA2M_ANPR/ANPR_RZA2M_EBK/src/tensorflow_lite/tensorflow/lite/kernels/internal\types.h **** // if you have a 3D tensor and you are reducing to 2D by eliminating axis 0,
 372:C:/Renesas/e2studio_2021_01_workspace_RZA2M_ANPR/ANPR_RZA2M_EBK/src/tensorflow_lite/tensorflow/lite/kernels/internal\types.h **** // then index (0, 1, 2) and index (1, 1, 2) will map to the same flattened
 373:C:/Renesas/e2studio_2021_01_workspace_RZA2M_ANPR/ANPR_RZA2M_EBK/src/tensorflow_lite/tensorflow/lite/kernels/internal\types.h **** // offset.
 374:C:/Renesas/e2studio_2021_01_workspace_RZA2M_ANPR/ANPR_RZA2M_EBK/src/tensorflow_lite/tensorflow/lite/kernels/internal\types.h **** // TODO(kanlig): uses Dims to represent dimensions.
 375:C:/Renesas/e2studio_2021_01_workspace_RZA2M_ANPR/ANPR_RZA2M_EBK/src/tensorflow_lite/tensorflow/lite/kernels/internal\types.h **** inline size_t ReducedOutputOffset(const int num_dims, const int* dims,
 376:C:/Renesas/e2studio_2021_01_workspace_RZA2M_ANPR/ANPR_RZA2M_EBK/src/tensorflow_lite/tensorflow/lite/kernels/internal\types.h ****                                   const int* index, const int num_axis,
 377:C:/Renesas/e2studio_2021_01_workspace_RZA2M_ANPR/ANPR_RZA2M_EBK/src/tensorflow_lite/tensorflow/lite/kernels/internal\types.h ****                                   const int* axis) {
 378:C:/Renesas/e2studio_2021_01_workspace_RZA2M_ANPR/ANPR_RZA2M_EBK/src/tensorflow_lite/tensorflow/lite/kernels/internal\types.h ****   if (num_dims == 0) {
 379:C:/Renesas/e2studio_2021_01_workspace_RZA2M_ANPR/ANPR_RZA2M_EBK/src/tensorflow_lite/tensorflow/lite/kernels/internal\types.h ****     return 0;
 380:C:/Renesas/e2studio_2021_01_workspace_RZA2M_ANPR/ANPR_RZA2M_EBK/src/tensorflow_lite/tensorflow/lite/kernels/internal\types.h ****   }
 381:C:/Renesas/e2studio_2021_01_workspace_RZA2M_ANPR/ANPR_RZA2M_EBK/src/tensorflow_lite/tensorflow/lite/kernels/internal\types.h ****   TFLITE_DCHECK(dims != nullptr);
 382:C:/Renesas/e2studio_2021_01_workspace_RZA2M_ANPR/ANPR_RZA2M_EBK/src/tensorflow_lite/tensorflow/lite/kernels/internal\types.h ****   TFLITE_DCHECK(index != nullptr);
 383:C:/Renesas/e2studio_2021_01_workspace_RZA2M_ANPR/ANPR_RZA2M_EBK/src/tensorflow_lite/tensorflow/lite/kernels/internal\types.h ****   size_t offset = 0;
 384:C:/Renesas/e2studio_2021_01_workspace_RZA2M_ANPR/ANPR_RZA2M_EBK/src/tensorflow_lite/tensorflow/lite/kernels/internal\types.h ****   for (int idx = 0; idx < num_dims; ++idx) {
 385:C:/Renesas/e2studio_2021_01_workspace_RZA2M_ANPR/ANPR_RZA2M_EBK/src/tensorflow_lite/tensorflow/lite/kernels/internal\types.h ****     // if we need to skip this axis
 386:C:/Renesas/e2studio_2021_01_workspace_RZA2M_ANPR/ANPR_RZA2M_EBK/src/tensorflow_lite/tensorflow/lite/kernels/internal\types.h ****     bool is_axis = false;
 387:C:/Renesas/e2studio_2021_01_workspace_RZA2M_ANPR/ANPR_RZA2M_EBK/src/tensorflow_lite/tensorflow/lite/kernels/internal\types.h ****     if (axis != nullptr) {
 388:C:/Renesas/e2studio_2021_01_workspace_RZA2M_ANPR/ANPR_RZA2M_EBK/src/tensorflow_lite/tensorflow/lite/kernels/internal\types.h ****       for (int axis_idx = 0; axis_idx < num_axis; ++axis_idx) {
 389:C:/Renesas/e2studio_2021_01_workspace_RZA2M_ANPR/ANPR_RZA2M_EBK/src/tensorflow_lite/tensorflow/lite/kernels/internal\types.h ****         if (idx == axis[axis_idx]) {
 390:C:/Renesas/e2studio_2021_01_workspace_RZA2M_ANPR/ANPR_RZA2M_EBK/src/tensorflow_lite/tensorflow/lite/kernels/internal\types.h ****           is_axis = true;
 391:C:/Renesas/e2studio_2021_01_workspace_RZA2M_ANPR/ANPR_RZA2M_EBK/src/tensorflow_lite/tensorflow/lite/kernels/internal\types.h ****           break;
 392:C:/Renesas/e2studio_2021_01_workspace_RZA2M_ANPR/ANPR_RZA2M_EBK/src/tensorflow_lite/tensorflow/lite/kernels/internal\types.h ****         }
 393:C:/Renesas/e2studio_2021_01_workspace_RZA2M_ANPR/ANPR_RZA2M_EBK/src/tensorflow_lite/tensorflow/lite/kernels/internal\types.h ****       }
 394:C:/Renesas/e2studio_2021_01_workspace_RZA2M_ANPR/ANPR_RZA2M_EBK/src/tensorflow_lite/tensorflow/lite/kernels/internal\types.h ****     }
 395:C:/Renesas/e2studio_2021_01_workspace_RZA2M_ANPR/ANPR_RZA2M_EBK/src/tensorflow_lite/tensorflow/lite/kernels/internal\types.h ****     if (!is_axis) {
 396:C:/Renesas/e2studio_2021_01_workspace_RZA2M_ANPR/ANPR_RZA2M_EBK/src/tensorflow_lite/tensorflow/lite/kernels/internal\types.h ****       offset = offset * static_cast<size_t>(dims[idx]) +
 397:C:/Renesas/e2studio_2021_01_workspace_RZA2M_ANPR/ANPR_RZA2M_EBK/src/tensorflow_lite/tensorflow/lite/kernels/internal\types.h ****                static_cast<size_t>(index[idx]);
 398:C:/Renesas/e2studio_2021_01_workspace_RZA2M_ANPR/ANPR_RZA2M_EBK/src/tensorflow_lite/tensorflow/lite/kernels/internal\types.h ****     }
 399:C:/Renesas/e2studio_2021_01_workspace_RZA2M_ANPR/ANPR_RZA2M_EBK/src/tensorflow_lite/tensorflow/lite/kernels/internal\types.h ****   }
 400:C:/Renesas/e2studio_2021_01_workspace_RZA2M_ANPR/ANPR_RZA2M_EBK/src/tensorflow_lite/tensorflow/lite/kernels/internal\types.h ****   return offset;
 401:C:/Renesas/e2studio_2021_01_workspace_RZA2M_ANPR/ANPR_RZA2M_EBK/src/tensorflow_lite/tensorflow/lite/kernels/internal\types.h **** }
 402:C:/Renesas/e2studio_2021_01_workspace_RZA2M_ANPR/ANPR_RZA2M_EBK/src/tensorflow_lite/tensorflow/lite/kernels/internal\types.h **** 
 403:C:/Renesas/e2studio_2021_01_workspace_RZA2M_ANPR/ANPR_RZA2M_EBK/src/tensorflow_lite/tensorflow/lite/kernels/internal\types.h **** inline int Offset(const RuntimeShape& shape, int i0, int i1, int i2, int i3) {
 404:C:/Renesas/e2studio_2021_01_workspace_RZA2M_ANPR/ANPR_RZA2M_EBK/src/tensorflow_lite/tensorflow/lite/kernels/internal\types.h ****   TFLITE_DCHECK_EQ(shape.DimensionsCount(), 4);
 405:C:/Renesas/e2studio_2021_01_workspace_RZA2M_ANPR/ANPR_RZA2M_EBK/src/tensorflow_lite/tensorflow/lite/kernels/internal\types.h ****   const int* dims_data = reinterpret_cast<const int*>(shape.DimsDataUpTo5D());
 406:C:/Renesas/e2studio_2021_01_workspace_RZA2M_ANPR/ANPR_RZA2M_EBK/src/tensorflow_lite/tensorflow/lite/kernels/internal\types.h ****   TFLITE_DCHECK(i0 >= 0 && i0 < dims_data[0]);
 407:C:/Renesas/e2studio_2021_01_workspace_RZA2M_ANPR/ANPR_RZA2M_EBK/src/tensorflow_lite/tensorflow/lite/kernels/internal\types.h ****   TFLITE_DCHECK(i1 >= 0 && i1 < dims_data[1]);
 408:C:/Renesas/e2studio_2021_01_workspace_RZA2M_ANPR/ANPR_RZA2M_EBK/src/tensorflow_lite/tensorflow/lite/kernels/internal\types.h ****   TFLITE_DCHECK(i2 >= 0 && i2 < dims_data[2]);
 409:C:/Renesas/e2studio_2021_01_workspace_RZA2M_ANPR/ANPR_RZA2M_EBK/src/tensorflow_lite/tensorflow/lite/kernels/internal\types.h ****   TFLITE_DCHECK(i3 >= 0 && i3 < dims_data[3]);
 410:C:/Renesas/e2studio_2021_01_workspace_RZA2M_ANPR/ANPR_RZA2M_EBK/src/tensorflow_lite/tensorflow/lite/kernels/internal\types.h ****   return ((i0 * dims_data[1] + i1) * dims_data[2] + i2) * dims_data[3] + i3;
 411:C:/Renesas/e2studio_2021_01_workspace_RZA2M_ANPR/ANPR_RZA2M_EBK/src/tensorflow_lite/tensorflow/lite/kernels/internal\types.h **** }
 412:C:/Renesas/e2studio_2021_01_workspace_RZA2M_ANPR/ANPR_RZA2M_EBK/src/tensorflow_lite/tensorflow/lite/kernels/internal\types.h **** 
 413:C:/Renesas/e2studio_2021_01_workspace_RZA2M_ANPR/ANPR_RZA2M_EBK/src/tensorflow_lite/tensorflow/lite/kernels/internal\types.h **** inline int Offset(const RuntimeShape& shape, int i0, int i1, int i2, int i3,
 414:C:/Renesas/e2studio_2021_01_workspace_RZA2M_ANPR/ANPR_RZA2M_EBK/src/tensorflow_lite/tensorflow/lite/kernels/internal\types.h ****                   int i4) {
 415:C:/Renesas/e2studio_2021_01_workspace_RZA2M_ANPR/ANPR_RZA2M_EBK/src/tensorflow_lite/tensorflow/lite/kernels/internal\types.h ****   TFLITE_DCHECK_EQ(shape.DimensionsCount(), 5);
 416:C:/Renesas/e2studio_2021_01_workspace_RZA2M_ANPR/ANPR_RZA2M_EBK/src/tensorflow_lite/tensorflow/lite/kernels/internal\types.h ****   const int* dims_data = reinterpret_cast<const int*>(shape.DimsDataUpTo5D());
 417:C:/Renesas/e2studio_2021_01_workspace_RZA2M_ANPR/ANPR_RZA2M_EBK/src/tensorflow_lite/tensorflow/lite/kernels/internal\types.h ****   TFLITE_DCHECK(i0 >= 0 && i0 < dims_data[0]);
 418:C:/Renesas/e2studio_2021_01_workspace_RZA2M_ANPR/ANPR_RZA2M_EBK/src/tensorflow_lite/tensorflow/lite/kernels/internal\types.h ****   TFLITE_DCHECK(i1 >= 0 && i1 < dims_data[1]);
 419:C:/Renesas/e2studio_2021_01_workspace_RZA2M_ANPR/ANPR_RZA2M_EBK/src/tensorflow_lite/tensorflow/lite/kernels/internal\types.h ****   TFLITE_DCHECK(i2 >= 0 && i2 < dims_data[2]);
 420:C:/Renesas/e2studio_2021_01_workspace_RZA2M_ANPR/ANPR_RZA2M_EBK/src/tensorflow_lite/tensorflow/lite/kernels/internal\types.h ****   TFLITE_DCHECK(i3 >= 0 && i3 < dims_data[3]);
 421:C:/Renesas/e2studio_2021_01_workspace_RZA2M_ANPR/ANPR_RZA2M_EBK/src/tensorflow_lite/tensorflow/lite/kernels/internal\types.h ****   TFLITE_DCHECK(i4 >= 0 && i4 < dims_data[4]);
 422:C:/Renesas/e2studio_2021_01_workspace_RZA2M_ANPR/ANPR_RZA2M_EBK/src/tensorflow_lite/tensorflow/lite/kernels/internal\types.h ****   return (((i0 * dims_data[1] + i1) * dims_data[2] + i2) * dims_data[3] + i3) *
 423:C:/Renesas/e2studio_2021_01_workspace_RZA2M_ANPR/ANPR_RZA2M_EBK/src/tensorflow_lite/tensorflow/lite/kernels/internal\types.h ****              dims_data[4] +
 424:C:/Renesas/e2studio_2021_01_workspace_RZA2M_ANPR/ANPR_RZA2M_EBK/src/tensorflow_lite/tensorflow/lite/kernels/internal\types.h ****          i4;
 425:C:/Renesas/e2studio_2021_01_workspace_RZA2M_ANPR/ANPR_RZA2M_EBK/src/tensorflow_lite/tensorflow/lite/kernels/internal\types.h **** }
 426:C:/Renesas/e2studio_2021_01_workspace_RZA2M_ANPR/ANPR_RZA2M_EBK/src/tensorflow_lite/tensorflow/lite/kernels/internal\types.h **** 
 427:C:/Renesas/e2studio_2021_01_workspace_RZA2M_ANPR/ANPR_RZA2M_EBK/src/tensorflow_lite/tensorflow/lite/kernels/internal\types.h **** inline int Offset(const Dims<4>& dims, int i0, int i1, int i2, int i3) {
 428:C:/Renesas/e2studio_2021_01_workspace_RZA2M_ANPR/ANPR_RZA2M_EBK/src/tensorflow_lite/tensorflow/lite/kernels/internal\types.h ****   TFLITE_DCHECK(i0 >= 0 && i0 < dims.sizes[0]);
 429:C:/Renesas/e2studio_2021_01_workspace_RZA2M_ANPR/ANPR_RZA2M_EBK/src/tensorflow_lite/tensorflow/lite/kernels/internal\types.h ****   TFLITE_DCHECK(i1 >= 0 && i1 < dims.sizes[1]);
 430:C:/Renesas/e2studio_2021_01_workspace_RZA2M_ANPR/ANPR_RZA2M_EBK/src/tensorflow_lite/tensorflow/lite/kernels/internal\types.h ****   TFLITE_DCHECK(i2 >= 0 && i2 < dims.sizes[2]);
 431:C:/Renesas/e2studio_2021_01_workspace_RZA2M_ANPR/ANPR_RZA2M_EBK/src/tensorflow_lite/tensorflow/lite/kernels/internal\types.h ****   TFLITE_DCHECK(i3 >= 0 && i3 < dims.sizes[3]);
 432:C:/Renesas/e2studio_2021_01_workspace_RZA2M_ANPR/ANPR_RZA2M_EBK/src/tensorflow_lite/tensorflow/lite/kernels/internal\types.h ****   return i0 * dims.strides[0] + i1 * dims.strides[1] + i2 * dims.strides[2] +
 433:C:/Renesas/e2studio_2021_01_workspace_RZA2M_ANPR/ANPR_RZA2M_EBK/src/tensorflow_lite/tensorflow/lite/kernels/internal\types.h ****          i3 * dims.strides[3];
 434:C:/Renesas/e2studio_2021_01_workspace_RZA2M_ANPR/ANPR_RZA2M_EBK/src/tensorflow_lite/tensorflow/lite/kernels/internal\types.h **** }
 435:C:/Renesas/e2studio_2021_01_workspace_RZA2M_ANPR/ANPR_RZA2M_EBK/src/tensorflow_lite/tensorflow/lite/kernels/internal\types.h **** 
 436:C:/Renesas/e2studio_2021_01_workspace_RZA2M_ANPR/ANPR_RZA2M_EBK/src/tensorflow_lite/tensorflow/lite/kernels/internal\types.h **** inline int Offset(const Dims<4>& dims, int* index) {
 437:C:/Renesas/e2studio_2021_01_workspace_RZA2M_ANPR/ANPR_RZA2M_EBK/src/tensorflow_lite/tensorflow/lite/kernels/internal\types.h ****   return Offset(dims, index[0], index[1], index[2], index[3]);
 438:C:/Renesas/e2studio_2021_01_workspace_RZA2M_ANPR/ANPR_RZA2M_EBK/src/tensorflow_lite/tensorflow/lite/kernels/internal\types.h **** }
 439:C:/Renesas/e2studio_2021_01_workspace_RZA2M_ANPR/ANPR_RZA2M_EBK/src/tensorflow_lite/tensorflow/lite/kernels/internal\types.h **** 
 440:C:/Renesas/e2studio_2021_01_workspace_RZA2M_ANPR/ANPR_RZA2M_EBK/src/tensorflow_lite/tensorflow/lite/kernels/internal\types.h **** inline int Offset(const RuntimeShape& shape, int* index) {
 441:C:/Renesas/e2studio_2021_01_workspace_RZA2M_ANPR/ANPR_RZA2M_EBK/src/tensorflow_lite/tensorflow/lite/kernels/internal\types.h ****   return Offset(shape, index[0], index[1], index[2], index[3]);
 442:C:/Renesas/e2studio_2021_01_workspace_RZA2M_ANPR/ANPR_RZA2M_EBK/src/tensorflow_lite/tensorflow/lite/kernels/internal\types.h **** }
 443:C:/Renesas/e2studio_2021_01_workspace_RZA2M_ANPR/ANPR_RZA2M_EBK/src/tensorflow_lite/tensorflow/lite/kernels/internal\types.h **** 
 444:C:/Renesas/e2studio_2021_01_workspace_RZA2M_ANPR/ANPR_RZA2M_EBK/src/tensorflow_lite/tensorflow/lite/kernels/internal\types.h **** // Get array size, DCHECKing that the dim index is in range.
 445:C:/Renesas/e2studio_2021_01_workspace_RZA2M_ANPR/ANPR_RZA2M_EBK/src/tensorflow_lite/tensorflow/lite/kernels/internal\types.h **** //
 446:C:/Renesas/e2studio_2021_01_workspace_RZA2M_ANPR/ANPR_RZA2M_EBK/src/tensorflow_lite/tensorflow/lite/kernels/internal\types.h **** // Note that this will be phased out with Dims<4>, since RuntimeShape::Dims()
 447:C:/Renesas/e2studio_2021_01_workspace_RZA2M_ANPR/ANPR_RZA2M_EBK/src/tensorflow_lite/tensorflow/lite/kernels/internal\types.h **** // already performs this check.
 448:C:/Renesas/e2studio_2021_01_workspace_RZA2M_ANPR/ANPR_RZA2M_EBK/src/tensorflow_lite/tensorflow/lite/kernels/internal\types.h **** template <int N>
 449:C:/Renesas/e2studio_2021_01_workspace_RZA2M_ANPR/ANPR_RZA2M_EBK/src/tensorflow_lite/tensorflow/lite/kernels/internal\types.h **** int ArraySize(const Dims<N>& array, int index) {
 450:C:/Renesas/e2studio_2021_01_workspace_RZA2M_ANPR/ANPR_RZA2M_EBK/src/tensorflow_lite/tensorflow/lite/kernels/internal\types.h ****   TFLITE_DCHECK(index >= 0 && index < N);
 451:C:/Renesas/e2studio_2021_01_workspace_RZA2M_ANPR/ANPR_RZA2M_EBK/src/tensorflow_lite/tensorflow/lite/kernels/internal\types.h ****   return array.sizes[index];
 452:C:/Renesas/e2studio_2021_01_workspace_RZA2M_ANPR/ANPR_RZA2M_EBK/src/tensorflow_lite/tensorflow/lite/kernels/internal\types.h **** }
 453:C:/Renesas/e2studio_2021_01_workspace_RZA2M_ANPR/ANPR_RZA2M_EBK/src/tensorflow_lite/tensorflow/lite/kernels/internal\types.h **** 
 454:C:/Renesas/e2studio_2021_01_workspace_RZA2M_ANPR/ANPR_RZA2M_EBK/src/tensorflow_lite/tensorflow/lite/kernels/internal\types.h **** // Get common array size, DCHECKing that they all agree.
 455:C:/Renesas/e2studio_2021_01_workspace_RZA2M_ANPR/ANPR_RZA2M_EBK/src/tensorflow_lite/tensorflow/lite/kernels/internal\types.h **** template <typename ArrayType1, typename ArrayType2>
 456:C:/Renesas/e2studio_2021_01_workspace_RZA2M_ANPR/ANPR_RZA2M_EBK/src/tensorflow_lite/tensorflow/lite/kernels/internal\types.h **** int MatchingArraySize(const ArrayType1& array1, int index1,
 457:C:/Renesas/e2studio_2021_01_workspace_RZA2M_ANPR/ANPR_RZA2M_EBK/src/tensorflow_lite/tensorflow/lite/kernels/internal\types.h ****                       const ArrayType2& array2, int index2) {
 458:C:/Renesas/e2studio_2021_01_workspace_RZA2M_ANPR/ANPR_RZA2M_EBK/src/tensorflow_lite/tensorflow/lite/kernels/internal\types.h ****   TFLITE_DCHECK_EQ(ArraySize(array1, index1), ArraySize(array2, index2));
 459:C:/Renesas/e2studio_2021_01_workspace_RZA2M_ANPR/ANPR_RZA2M_EBK/src/tensorflow_lite/tensorflow/lite/kernels/internal\types.h ****   return ArraySize(array1, index1);
 460:C:/Renesas/e2studio_2021_01_workspace_RZA2M_ANPR/ANPR_RZA2M_EBK/src/tensorflow_lite/tensorflow/lite/kernels/internal\types.h **** }
 461:C:/Renesas/e2studio_2021_01_workspace_RZA2M_ANPR/ANPR_RZA2M_EBK/src/tensorflow_lite/tensorflow/lite/kernels/internal\types.h **** 
 462:C:/Renesas/e2studio_2021_01_workspace_RZA2M_ANPR/ANPR_RZA2M_EBK/src/tensorflow_lite/tensorflow/lite/kernels/internal\types.h **** template <typename ArrayType1, typename ArrayType2, typename... Args>
 463:C:/Renesas/e2studio_2021_01_workspace_RZA2M_ANPR/ANPR_RZA2M_EBK/src/tensorflow_lite/tensorflow/lite/kernels/internal\types.h **** int MatchingArraySize(const ArrayType1& array1, int index1,
 464:C:/Renesas/e2studio_2021_01_workspace_RZA2M_ANPR/ANPR_RZA2M_EBK/src/tensorflow_lite/tensorflow/lite/kernels/internal\types.h ****                       const ArrayType2& array2, int index2, Args... args) {
 465:C:/Renesas/e2studio_2021_01_workspace_RZA2M_ANPR/ANPR_RZA2M_EBK/src/tensorflow_lite/tensorflow/lite/kernels/internal\types.h ****   TFLITE_DCHECK_EQ(ArraySize(array1, index1), ArraySize(array2, index2));
 466:C:/Renesas/e2studio_2021_01_workspace_RZA2M_ANPR/ANPR_RZA2M_EBK/src/tensorflow_lite/tensorflow/lite/kernels/internal\types.h ****   return MatchingArraySize(array1, index1, args...);
 467:C:/Renesas/e2studio_2021_01_workspace_RZA2M_ANPR/ANPR_RZA2M_EBK/src/tensorflow_lite/tensorflow/lite/kernels/internal\types.h **** }
 468:C:/Renesas/e2studio_2021_01_workspace_RZA2M_ANPR/ANPR_RZA2M_EBK/src/tensorflow_lite/tensorflow/lite/kernels/internal\types.h **** 
 469:C:/Renesas/e2studio_2021_01_workspace_RZA2M_ANPR/ANPR_RZA2M_EBK/src/tensorflow_lite/tensorflow/lite/kernels/internal\types.h **** // Get common shape dim, DCHECKing that they all agree.
 470:C:/Renesas/e2studio_2021_01_workspace_RZA2M_ANPR/ANPR_RZA2M_EBK/src/tensorflow_lite/tensorflow/lite/kernels/internal\types.h **** inline int MatchingDim(const RuntimeShape& shape1, int index1,
 471:C:/Renesas/e2studio_2021_01_workspace_RZA2M_ANPR/ANPR_RZA2M_EBK/src/tensorflow_lite/tensorflow/lite/kernels/internal\types.h ****                        const RuntimeShape& shape2, int index2) {
 472:C:/Renesas/e2studio_2021_01_workspace_RZA2M_ANPR/ANPR_RZA2M_EBK/src/tensorflow_lite/tensorflow/lite/kernels/internal\types.h ****   TFLITE_DCHECK_EQ(shape1.Dims(index1), shape2.Dims(index2));
 473:C:/Renesas/e2studio_2021_01_workspace_RZA2M_ANPR/ANPR_RZA2M_EBK/src/tensorflow_lite/tensorflow/lite/kernels/internal\types.h ****   return std::min(shape1.Dims(index1), shape2.Dims(index2));
 474:C:/Renesas/e2studio_2021_01_workspace_RZA2M_ANPR/ANPR_RZA2M_EBK/src/tensorflow_lite/tensorflow/lite/kernels/internal\types.h **** }
 475:C:/Renesas/e2studio_2021_01_workspace_RZA2M_ANPR/ANPR_RZA2M_EBK/src/tensorflow_lite/tensorflow/lite/kernels/internal\types.h **** 
 476:C:/Renesas/e2studio_2021_01_workspace_RZA2M_ANPR/ANPR_RZA2M_EBK/src/tensorflow_lite/tensorflow/lite/kernels/internal\types.h **** template <typename... Args>
 477:C:/Renesas/e2studio_2021_01_workspace_RZA2M_ANPR/ANPR_RZA2M_EBK/src/tensorflow_lite/tensorflow/lite/kernels/internal\types.h **** int MatchingDim(const RuntimeShape& shape1, int index1,
 478:C:/Renesas/e2studio_2021_01_workspace_RZA2M_ANPR/ANPR_RZA2M_EBK/src/tensorflow_lite/tensorflow/lite/kernels/internal\types.h ****                 const RuntimeShape& shape2, int index2, Args... args) {
 479:C:/Renesas/e2studio_2021_01_workspace_RZA2M_ANPR/ANPR_RZA2M_EBK/src/tensorflow_lite/tensorflow/lite/kernels/internal\types.h ****   TFLITE_DCHECK_EQ(shape1.Dims(index1), shape2.Dims(index2));
 480:C:/Renesas/e2studio_2021_01_workspace_RZA2M_ANPR/ANPR_RZA2M_EBK/src/tensorflow_lite/tensorflow/lite/kernels/internal\types.h ****   return MatchingDim(shape1, index1, args...);
 481:C:/Renesas/e2studio_2021_01_workspace_RZA2M_ANPR/ANPR_RZA2M_EBK/src/tensorflow_lite/tensorflow/lite/kernels/internal\types.h **** }
 482:C:/Renesas/e2studio_2021_01_workspace_RZA2M_ANPR/ANPR_RZA2M_EBK/src/tensorflow_lite/tensorflow/lite/kernels/internal\types.h **** 
 483:C:/Renesas/e2studio_2021_01_workspace_RZA2M_ANPR/ANPR_RZA2M_EBK/src/tensorflow_lite/tensorflow/lite/kernels/internal\types.h **** // Will be phased out with Dims<4>, replaced by RuntimeShape::FlatSize().
 484:C:/Renesas/e2studio_2021_01_workspace_RZA2M_ANPR/ANPR_RZA2M_EBK/src/tensorflow_lite/tensorflow/lite/kernels/internal\types.h **** template <int N>
 485:C:/Renesas/e2studio_2021_01_workspace_RZA2M_ANPR/ANPR_RZA2M_EBK/src/tensorflow_lite/tensorflow/lite/kernels/internal\types.h **** inline int FlatSize(const Dims<N>& dims) {
 486:C:/Renesas/e2studio_2021_01_workspace_RZA2M_ANPR/ANPR_RZA2M_EBK/src/tensorflow_lite/tensorflow/lite/kernels/internal\types.h ****   int flat_size = 1;
 487:C:/Renesas/e2studio_2021_01_workspace_RZA2M_ANPR/ANPR_RZA2M_EBK/src/tensorflow_lite/tensorflow/lite/kernels/internal\types.h ****   for (int i = 0; i < N; ++i) {
 488:C:/Renesas/e2studio_2021_01_workspace_RZA2M_ANPR/ANPR_RZA2M_EBK/src/tensorflow_lite/tensorflow/lite/kernels/internal\types.h ****     flat_size *= dims.sizes[i];
 489:C:/Renesas/e2studio_2021_01_workspace_RZA2M_ANPR/ANPR_RZA2M_EBK/src/tensorflow_lite/tensorflow/lite/kernels/internal\types.h ****   }
 490:C:/Renesas/e2studio_2021_01_workspace_RZA2M_ANPR/ANPR_RZA2M_EBK/src/tensorflow_lite/tensorflow/lite/kernels/internal\types.h ****   return flat_size;
 491:C:/Renesas/e2studio_2021_01_workspace_RZA2M_ANPR/ANPR_RZA2M_EBK/src/tensorflow_lite/tensorflow/lite/kernels/internal\types.h **** }
 492:C:/Renesas/e2studio_2021_01_workspace_RZA2M_ANPR/ANPR_RZA2M_EBK/src/tensorflow_lite/tensorflow/lite/kernels/internal\types.h **** 
 493:C:/Renesas/e2studio_2021_01_workspace_RZA2M_ANPR/ANPR_RZA2M_EBK/src/tensorflow_lite/tensorflow/lite/kernels/internal\types.h **** TFLITE_DEPRECATED("Prefer FlatSize.")
 494:C:/Renesas/e2studio_2021_01_workspace_RZA2M_ANPR/ANPR_RZA2M_EBK/src/tensorflow_lite/tensorflow/lite/kernels/internal\types.h **** inline int RequiredBufferSizeForDims(const Dims<4>& dims) {
 495:C:/Renesas/e2studio_2021_01_workspace_RZA2M_ANPR/ANPR_RZA2M_EBK/src/tensorflow_lite/tensorflow/lite/kernels/internal\types.h ****   return FlatSize(dims);
 496:C:/Renesas/e2studio_2021_01_workspace_RZA2M_ANPR/ANPR_RZA2M_EBK/src/tensorflow_lite/tensorflow/lite/kernels/internal\types.h **** }
 497:C:/Renesas/e2studio_2021_01_workspace_RZA2M_ANPR/ANPR_RZA2M_EBK/src/tensorflow_lite/tensorflow/lite/kernels/internal\types.h **** 
 498:C:/Renesas/e2studio_2021_01_workspace_RZA2M_ANPR/ANPR_RZA2M_EBK/src/tensorflow_lite/tensorflow/lite/kernels/internal\types.h **** inline int MatchingElementsSize(const RuntimeShape& shape,
 499:C:/Renesas/e2studio_2021_01_workspace_RZA2M_ANPR/ANPR_RZA2M_EBK/src/tensorflow_lite/tensorflow/lite/kernels/internal\types.h ****                                 const RuntimeShape& check_shape_0) {
 500:C:/Renesas/e2studio_2021_01_workspace_RZA2M_ANPR/ANPR_RZA2M_EBK/src/tensorflow_lite/tensorflow/lite/kernels/internal\types.h ****   const int size_1 = shape.FlatSize();
 501:C:/Renesas/e2studio_2021_01_workspace_RZA2M_ANPR/ANPR_RZA2M_EBK/src/tensorflow_lite/tensorflow/lite/kernels/internal\types.h ****   const int size_2 = check_shape_0.FlatSize();
 502:C:/Renesas/e2studio_2021_01_workspace_RZA2M_ANPR/ANPR_RZA2M_EBK/src/tensorflow_lite/tensorflow/lite/kernels/internal\types.h ****   TFLITE_CHECK_EQ(size_1, size_2);
 503:C:/Renesas/e2studio_2021_01_workspace_RZA2M_ANPR/ANPR_RZA2M_EBK/src/tensorflow_lite/tensorflow/lite/kernels/internal\types.h ****   return size_1;
 504:C:/Renesas/e2studio_2021_01_workspace_RZA2M_ANPR/ANPR_RZA2M_EBK/src/tensorflow_lite/tensorflow/lite/kernels/internal\types.h **** }
 505:C:/Renesas/e2studio_2021_01_workspace_RZA2M_ANPR/ANPR_RZA2M_EBK/src/tensorflow_lite/tensorflow/lite/kernels/internal\types.h **** 
 506:C:/Renesas/e2studio_2021_01_workspace_RZA2M_ANPR/ANPR_RZA2M_EBK/src/tensorflow_lite/tensorflow/lite/kernels/internal\types.h **** inline int MatchingElementsSize(const RuntimeShape& shape,
 507:C:/Renesas/e2studio_2021_01_workspace_RZA2M_ANPR/ANPR_RZA2M_EBK/src/tensorflow_lite/tensorflow/lite/kernels/internal\types.h ****                                 const RuntimeShape& check_shape_0,
 508:C:/Renesas/e2studio_2021_01_workspace_RZA2M_ANPR/ANPR_RZA2M_EBK/src/tensorflow_lite/tensorflow/lite/kernels/internal\types.h ****                                 const RuntimeShape& check_shape_1) {
 509:C:/Renesas/e2studio_2021_01_workspace_RZA2M_ANPR/ANPR_RZA2M_EBK/src/tensorflow_lite/tensorflow/lite/kernels/internal\types.h ****   const int size_1 = shape.FlatSize();
 510:C:/Renesas/e2studio_2021_01_workspace_RZA2M_ANPR/ANPR_RZA2M_EBK/src/tensorflow_lite/tensorflow/lite/kernels/internal\types.h ****   const int size_2 = check_shape_0.FlatSize();
 511:C:/Renesas/e2studio_2021_01_workspace_RZA2M_ANPR/ANPR_RZA2M_EBK/src/tensorflow_lite/tensorflow/lite/kernels/internal\types.h ****   const int size_3 = check_shape_1.FlatSize();
 512:C:/Renesas/e2studio_2021_01_workspace_RZA2M_ANPR/ANPR_RZA2M_EBK/src/tensorflow_lite/tensorflow/lite/kernels/internal\types.h ****   TFLITE_CHECK_EQ(size_1, size_2);
 513:C:/Renesas/e2studio_2021_01_workspace_RZA2M_ANPR/ANPR_RZA2M_EBK/src/tensorflow_lite/tensorflow/lite/kernels/internal\types.h ****   TFLITE_CHECK_EQ(size_2, size_3);
 514:C:/Renesas/e2studio_2021_01_workspace_RZA2M_ANPR/ANPR_RZA2M_EBK/src/tensorflow_lite/tensorflow/lite/kernels/internal\types.h ****   return size_1;
 515:C:/Renesas/e2studio_2021_01_workspace_RZA2M_ANPR/ANPR_RZA2M_EBK/src/tensorflow_lite/tensorflow/lite/kernels/internal\types.h **** }
 516:C:/Renesas/e2studio_2021_01_workspace_RZA2M_ANPR/ANPR_RZA2M_EBK/src/tensorflow_lite/tensorflow/lite/kernels/internal\types.h **** 
 517:C:/Renesas/e2studio_2021_01_workspace_RZA2M_ANPR/ANPR_RZA2M_EBK/src/tensorflow_lite/tensorflow/lite/kernels/internal\types.h **** // Flat size calculation, checking that dimensions match with one or more other
 518:C:/Renesas/e2studio_2021_01_workspace_RZA2M_ANPR/ANPR_RZA2M_EBK/src/tensorflow_lite/tensorflow/lite/kernels/internal\types.h **** // arrays.
 519:C:/Renesas/e2studio_2021_01_workspace_RZA2M_ANPR/ANPR_RZA2M_EBK/src/tensorflow_lite/tensorflow/lite/kernels/internal\types.h **** inline int MatchingFlatSize(const RuntimeShape& shape,
 520:C:/Renesas/e2studio_2021_01_workspace_RZA2M_ANPR/ANPR_RZA2M_EBK/src/tensorflow_lite/tensorflow/lite/kernels/internal\types.h ****                             const RuntimeShape& check_shape_0) {
 521:C:/Renesas/e2studio_2021_01_workspace_RZA2M_ANPR/ANPR_RZA2M_EBK/src/tensorflow_lite/tensorflow/lite/kernels/internal\types.h ****   TFLITE_DCHECK_EQ(shape.DimensionsCount(), check_shape_0.DimensionsCount());
 522:C:/Renesas/e2studio_2021_01_workspace_RZA2M_ANPR/ANPR_RZA2M_EBK/src/tensorflow_lite/tensorflow/lite/kernels/internal\types.h ****   const int dims_count = shape.DimensionsCount();
 523:C:/Renesas/e2studio_2021_01_workspace_RZA2M_ANPR/ANPR_RZA2M_EBK/src/tensorflow_lite/tensorflow/lite/kernels/internal\types.h ****   for (int i = 0; i < dims_count; ++i) {
 524:C:/Renesas/e2studio_2021_01_workspace_RZA2M_ANPR/ANPR_RZA2M_EBK/src/tensorflow_lite/tensorflow/lite/kernels/internal\types.h ****     TFLITE_DCHECK_EQ(shape.Dims(i), check_shape_0.Dims(i));
 525:C:/Renesas/e2studio_2021_01_workspace_RZA2M_ANPR/ANPR_RZA2M_EBK/src/tensorflow_lite/tensorflow/lite/kernels/internal\types.h ****   }
 526:C:/Renesas/e2studio_2021_01_workspace_RZA2M_ANPR/ANPR_RZA2M_EBK/src/tensorflow_lite/tensorflow/lite/kernels/internal\types.h ****   return shape.FlatSize();
 527:C:/Renesas/e2studio_2021_01_workspace_RZA2M_ANPR/ANPR_RZA2M_EBK/src/tensorflow_lite/tensorflow/lite/kernels/internal\types.h **** }
 528:C:/Renesas/e2studio_2021_01_workspace_RZA2M_ANPR/ANPR_RZA2M_EBK/src/tensorflow_lite/tensorflow/lite/kernels/internal\types.h **** 
 529:C:/Renesas/e2studio_2021_01_workspace_RZA2M_ANPR/ANPR_RZA2M_EBK/src/tensorflow_lite/tensorflow/lite/kernels/internal\types.h **** inline int MatchingFlatSize(const RuntimeShape& shape,
 530:C:/Renesas/e2studio_2021_01_workspace_RZA2M_ANPR/ANPR_RZA2M_EBK/src/tensorflow_lite/tensorflow/lite/kernels/internal\types.h ****                             const RuntimeShape& check_shape_0,
 531:C:/Renesas/e2studio_2021_01_workspace_RZA2M_ANPR/ANPR_RZA2M_EBK/src/tensorflow_lite/tensorflow/lite/kernels/internal\types.h ****                             const RuntimeShape& check_shape_1) {
 532:C:/Renesas/e2studio_2021_01_workspace_RZA2M_ANPR/ANPR_RZA2M_EBK/src/tensorflow_lite/tensorflow/lite/kernels/internal\types.h ****   TFLITE_DCHECK_EQ(shape.DimensionsCount(), check_shape_0.DimensionsCount());
 579              		.loc 5 532 0
 580 0154 05005BE1 		cmp	fp, r5
 581 0158 0904001A 		bne	.L125
 582              	.LVL65:
 583              	.LBB691:
 533:C:/Renesas/e2studio_2021_01_workspace_RZA2M_ANPR/ANPR_RZA2M_EBK/src/tensorflow_lite/tensorflow/lite/kernels/internal\types.h ****   const int dims_count = shape.DimensionsCount();
 534:C:/Renesas/e2studio_2021_01_workspace_RZA2M_ANPR/ANPR_RZA2M_EBK/src/tensorflow_lite/tensorflow/lite/kernels/internal\types.h ****   for (int i = 0; i < dims_count; ++i) {
 584              		.loc 5 534 0
 585 015c 00005BE3 		cmp	fp, #0
 586 0160 B10300DA 		ble	.L376
 587 0164 05005BE3 		cmp	fp, #5
 588              	.LBB692:
 589              	.LBB693:
 216:C:/Renesas/e2studio_2021_01_workspace_RZA2M_ANPR/ANPR_RZA2M_EBK/src/tensorflow_lite/tensorflow/lite/kernels/internal\types.h ****   }
 590              		.loc 5 216 0
 591 0168 04419DE5 		ldr	r4, [sp, #260]
 592              	.LVL66:
 593              	.LBE693:
 594              	.LBE692:
 595              	.LBB699:
 596              	.LBB700:
 597 016c 1C119DE5 		ldr	r1, [sp, #284]
 598 0170 B80100CA 		bgt	.L128
 599              	.LVL67:
 215:C:/Renesas/e2studio_2021_01_workspace_RZA2M_ANPR/ANPR_RZA2M_EBK/src/tensorflow_lite/tensorflow/lite/kernels/internal\types.h ****     return size_ > kMaxSmallSize ? dims_pointer_[i] : dims_[i];
 600              		.loc 5 215 0
 601 0174 00005BE3 		cmp	fp, #0
 602 0178 C30100DA 		ble	.L129
 603              	.LVL68:
 604              	.LBE700:
 605              	.LBE699:
 535:C:/Renesas/e2studio_2021_01_workspace_RZA2M_ANPR/ANPR_RZA2M_EBK/src/tensorflow_lite/tensorflow/lite/kernels/internal\types.h ****     TFLITE_DCHECK_EQ(shape.Dims(i), check_shape_0.Dims(i));
 606              		.loc 5 535 0
 607 017c 010054E1 		cmp	r4, r1
 608 0180 E703001A 		bne	.L130
 609              	.LVL69:
 534:C:/Renesas/e2studio_2021_01_workspace_RZA2M_ANPR/ANPR_RZA2M_EBK/src/tensorflow_lite/tensorflow/lite/kernels/internal\types.h ****     TFLITE_DCHECK_EQ(shape.Dims(i), check_shape_0.Dims(i));
 610              		.loc 5 534 0
 611 0184 01005BE3 		cmp	fp, #1
 612 0188 1900000A 		beq	.L131
 613              	.LVL70:
 614              	.LBB708:
 615              	.LBB694:
 216:C:/Renesas/e2studio_2021_01_workspace_RZA2M_ANPR/ANPR_RZA2M_EBK/src/tensorflow_lite/tensorflow/lite/kernels/internal\types.h ****   }
 616              		.loc 5 216 0
 617 018c 08119DE5 		ldr	r1, [sp, #264]
 618              	.LVL71:
 619              	.LBE694:
 620              	.LBE708:
 621              		.loc 5 535 0
 622 0190 20319DE5 		ldr	r3, [sp, #288]
 623 0194 030051E1 		cmp	r1, r3
 624 0198 E103001A 		bne	.L130
 625              	.LVL72:
 534:C:/Renesas/e2studio_2021_01_workspace_RZA2M_ANPR/ANPR_RZA2M_EBK/src/tensorflow_lite/tensorflow/lite/kernels/internal\types.h ****     TFLITE_DCHECK_EQ(shape.Dims(i), check_shape_0.Dims(i));
 626              		.loc 5 534 0
 627 019c 02005BE3 		cmp	fp, #2
 628 01a0 1300000A 		beq	.L131
 629              	.LVL73:
 630              	.LBB709:
 631              	.LBB695:
 216:C:/Renesas/e2studio_2021_01_workspace_RZA2M_ANPR/ANPR_RZA2M_EBK/src/tensorflow_lite/tensorflow/lite/kernels/internal\types.h ****   }
 632              		.loc 5 216 0
 633 01a4 0C119DE5 		ldr	r1, [sp, #268]
 634              	.LVL74:
 635              	.LBE695:
 636              	.LBE709:
 637              		.loc 5 535 0
 638 01a8 24319DE5 		ldr	r3, [sp, #292]
 639 01ac 030051E1 		cmp	r1, r3
 640 01b0 DB03001A 		bne	.L130
 641              	.LVL75:
 534:C:/Renesas/e2studio_2021_01_workspace_RZA2M_ANPR/ANPR_RZA2M_EBK/src/tensorflow_lite/tensorflow/lite/kernels/internal\types.h ****     TFLITE_DCHECK_EQ(shape.Dims(i), check_shape_0.Dims(i));
 642              		.loc 5 534 0
 643 01b4 03005BE3 		cmp	fp, #3
 644 01b8 0D00000A 		beq	.L131
 645              	.LVL76:
 646              	.LBB710:
 647              	.LBB701:
 215:C:/Renesas/e2studio_2021_01_workspace_RZA2M_ANPR/ANPR_RZA2M_EBK/src/tensorflow_lite/tensorflow/lite/kernels/internal\types.h ****     return size_ > kMaxSmallSize ? dims_pointer_[i] : dims_[i];
 648              		.loc 5 215 0
 649 01bc 030055E3 		cmp	r5, #3
 650              	.LBE701:
 651              	.LBE710:
 652              	.LBB711:
 653              	.LBB696:
 216:C:/Renesas/e2studio_2021_01_workspace_RZA2M_ANPR/ANPR_RZA2M_EBK/src/tensorflow_lite/tensorflow/lite/kernels/internal\types.h ****   }
 654              		.loc 5 216 0
 655 01c0 10119DE5 		ldr	r1, [sp, #272]
 656              	.LVL77:
 657              	.LBE696:
 658              	.LBE711:
 659              	.LBB712:
 660              	.LBB702:
 215:C:/Renesas/e2studio_2021_01_workspace_RZA2M_ANPR/ANPR_RZA2M_EBK/src/tensorflow_lite/tensorflow/lite/kernels/internal\types.h ****     return size_ > kMaxSmallSize ? dims_pointer_[i] : dims_[i];
 661              		.loc 5 215 0
 662 01c4 B001000A 		beq	.L129
 663              	.LVL78:
 664              	.LBE702:
 665              	.LBE712:
 666              		.loc 5 535 0
 667 01c8 28319DE5 		ldr	r3, [sp, #296]
 668 01cc 030051E1 		cmp	r1, r3
 669 01d0 D303001A 		bne	.L130
 670              	.LVL79:
 534:C:/Renesas/e2studio_2021_01_workspace_RZA2M_ANPR/ANPR_RZA2M_EBK/src/tensorflow_lite/tensorflow/lite/kernels/internal\types.h ****     TFLITE_DCHECK_EQ(shape.Dims(i), check_shape_0.Dims(i));
 671              		.loc 5 534 0
 672 01d4 04005BE3 		cmp	fp, #4
 673 01d8 0500000A 		beq	.L131
 674              	.LVL80:
 675              	.LBB713:
 676              	.LBB703:
 215:C:/Renesas/e2studio_2021_01_workspace_RZA2M_ANPR/ANPR_RZA2M_EBK/src/tensorflow_lite/tensorflow/lite/kernels/internal\types.h ****     return size_ > kMaxSmallSize ? dims_pointer_[i] : dims_[i];
 677              		.loc 5 215 0
 678 01dc 040055E3 		cmp	r5, #4
 679              	.LBE703:
 680              	.LBE713:
 681              	.LBB714:
 682              	.LBB697:
 216:C:/Renesas/e2studio_2021_01_workspace_RZA2M_ANPR/ANPR_RZA2M_EBK/src/tensorflow_lite/tensorflow/lite/kernels/internal\types.h ****   }
 683              		.loc 5 216 0
 684 01e0 14319DE5 		ldr	r3, [sp, #276]
 685              	.LVL81:
 686              	.LBE697:
 687              	.LBE714:
 688              	.LBB715:
 689              	.LBB704:
 215:C:/Renesas/e2studio_2021_01_workspace_RZA2M_ANPR/ANPR_RZA2M_EBK/src/tensorflow_lite/tensorflow/lite/kernels/internal\types.h ****     return size_ > kMaxSmallSize ? dims_pointer_[i] : dims_[i];
 690              		.loc 5 215 0
 691 01e4 A801000A 		beq	.L129
 692              	.LVL82:
 693              	.LBE704:
 694              	.LBE715:
 695              		.loc 5 535 0
 696 01e8 2C119DE5 		ldr	r1, [sp, #300]
 697 01ec 030051E1 		cmp	r1, r3
 698 01f0 CB03001A 		bne	.L130
 699              	.LVL83:
 700              	.L131:
 701              	.LBE691:
 702              	.LBB720:
 703              	.LBB721:
 521:C:/Renesas/e2studio_2021_01_workspace_RZA2M_ANPR/ANPR_RZA2M_EBK/src/tensorflow_lite/tensorflow/lite/kernels/internal\types.h ****   const int dims_count = shape.DimensionsCount();
 704              		.loc 5 521 0
 705 01f4 38319DE5 		ldr	r3, [sp, #312]
 706 01f8 03005BE1 		cmp	fp, r3
 707 01fc 8D03001A 		bne	.L175
 708 0200 05005BE3 		cmp	fp, #5
 709              	.LBB722:
 710              	.LBB723:
 711              	.LBB724:
 216:C:/Renesas/e2studio_2021_01_workspace_RZA2M_ANPR/ANPR_RZA2M_EBK/src/tensorflow_lite/tensorflow/lite/kernels/internal\types.h ****   }
 712              		.loc 5 216 0
 713 0204 3C119DE5 		ldr	r1, [sp, #316]
 714 0208 BA0200CA 		bgt	.L136
 715              	.LVL84:
 716              	.LBE724:
 717              	.LBE723:
 524:C:/Renesas/e2studio_2021_01_workspace_RZA2M_ANPR/ANPR_RZA2M_EBK/src/tensorflow_lite/tensorflow/lite/kernels/internal\types.h ****   }
 718              		.loc 5 524 0
 719 020c 04319DE5 		ldr	r3, [sp, #260]
 720 0210 010053E1 		cmp	r3, r1
 721 0214 C303001A 		bne	.L137
 722              	.LVL85:
 523:C:/Renesas/e2studio_2021_01_workspace_RZA2M_ANPR/ANPR_RZA2M_EBK/src/tensorflow_lite/tensorflow/lite/kernels/internal\types.h ****     TFLITE_DCHECK_EQ(shape.Dims(i), check_shape_0.Dims(i));
 723              		.loc 5 523 0
 724 0218 01005BE3 		cmp	fp, #1
 725 021c 150000DA 		ble	.L138
 524:C:/Renesas/e2studio_2021_01_workspace_RZA2M_ANPR/ANPR_RZA2M_EBK/src/tensorflow_lite/tensorflow/lite/kernels/internal\types.h ****   }
 726              		.loc 5 524 0
 727 0220 08119DE5 		ldr	r1, [sp, #264]
 728 0224 40319DE5 		ldr	r3, [sp, #320]
 729 0228 030051E1 		cmp	r1, r3
 730 022c BD03001A 		bne	.L137
 731              	.LVL86:
 523:C:/Renesas/e2studio_2021_01_workspace_RZA2M_ANPR/ANPR_RZA2M_EBK/src/tensorflow_lite/tensorflow/lite/kernels/internal\types.h ****     TFLITE_DCHECK_EQ(shape.Dims(i), check_shape_0.Dims(i));
 732              		.loc 5 523 0
 733 0230 02005BE3 		cmp	fp, #2
 734 0234 1300000A 		beq	.L299
 524:C:/Renesas/e2studio_2021_01_workspace_RZA2M_ANPR/ANPR_RZA2M_EBK/src/tensorflow_lite/tensorflow/lite/kernels/internal\types.h ****   }
 735              		.loc 5 524 0
 736 0238 0C119DE5 		ldr	r1, [sp, #268]
 737 023c 44319DE5 		ldr	r3, [sp, #324]
 738 0240 030051E1 		cmp	r1, r3
 739 0244 B703001A 		bne	.L137
 740              	.LVL87:
 523:C:/Renesas/e2studio_2021_01_workspace_RZA2M_ANPR/ANPR_RZA2M_EBK/src/tensorflow_lite/tensorflow/lite/kernels/internal\types.h ****     TFLITE_DCHECK_EQ(shape.Dims(i), check_shape_0.Dims(i));
 741              		.loc 5 523 0
 742 0248 03005BE3 		cmp	fp, #3
 743 024c 0D00000A 		beq	.L299
 524:C:/Renesas/e2studio_2021_01_workspace_RZA2M_ANPR/ANPR_RZA2M_EBK/src/tensorflow_lite/tensorflow/lite/kernels/internal\types.h ****   }
 744              		.loc 5 524 0
 745 0250 10119DE5 		ldr	r1, [sp, #272]
 746 0254 48319DE5 		ldr	r3, [sp, #328]
 747 0258 030051E1 		cmp	r1, r3
 748 025c B103001A 		bne	.L137
 749              	.LVL88:
 523:C:/Renesas/e2studio_2021_01_workspace_RZA2M_ANPR/ANPR_RZA2M_EBK/src/tensorflow_lite/tensorflow/lite/kernels/internal\types.h ****     TFLITE_DCHECK_EQ(shape.Dims(i), check_shape_0.Dims(i));
 750              		.loc 5 523 0
 751 0260 04005BE3 		cmp	fp, #4
 752 0264 0700000A 		beq	.L299
 524:C:/Renesas/e2studio_2021_01_workspace_RZA2M_ANPR/ANPR_RZA2M_EBK/src/tensorflow_lite/tensorflow/lite/kernels/internal\types.h ****   }
 753              		.loc 5 524 0
 754 0268 14119DE5 		ldr	r1, [sp, #276]
 755 026c 4C319DE5 		ldr	r3, [sp, #332]
 756 0270 030051E1 		cmp	r1, r3
 757 0274 AB03001A 		bne	.L137
 758              	.LVL89:
 759              	.L138:
 760              	.LBE722:
 761              	.LBB733:
 762              	.LBB734:
 763              	.LBB735:
 764              	.LBB736:
 232:C:/Renesas/e2studio_2021_01_workspace_RZA2M_ANPR/ANPR_RZA2M_EBK/src/tensorflow_lite/tensorflow/lite/kernels/internal\types.h ****   }
 765              		.loc 5 232 0
 766 0278 05005BE3 		cmp	fp, #5
 767 027c 020000CA 		bgt	.L143
 768              	.LVL90:
 769              	.L142:
 770              	.LBE736:
 771              	.LBE735:
 772              	.LBB737:
 292:C:/Renesas/e2studio_2021_01_workspace_RZA2M_ANPR/ANPR_RZA2M_EBK/src/tensorflow_lite/tensorflow/lite/kernels/internal\types.h ****       buffer_size *= dims_data[i];
 773              		.loc 5 292 0
 774 0280 00005BE3 		cmp	fp, #0
 775 0284 4B0300DA 		ble	.L200
 776              	.LVL91:
 777              	.L299:
 778 0288 414F8DE2 		add	r4, sp, #260
 779              	.L143:
 780              	.LVL92:
 781 028c 5431A0E7 		sbfx	r3, r4, #2, #1
 782 0290 033003E2 		and	r3, r3, #3
 783 0294 0B0053E1 		cmp	r3, fp
 784 0298 0B30A021 		movcs	r3, fp
 785 029c 08005BE3 		cmp	fp, #8
 786 02a0 0B30A0D1 		movle	r3, fp
 787 02a4 A10200CA 		bgt	.L377
 788              	.LVL93:
 789              	.L148:
 790 02a8 010053E3 		cmp	r3, #1
 293:C:/Renesas/e2studio_2021_01_workspace_RZA2M_ANPR/ANPR_RZA2M_EBK/src/tensorflow_lite/tensorflow/lite/kernels/internal\types.h ****     }
 791              		.loc 5 293 0
 792 02ac 008094E5 		ldr	r8, [r4]
 793              	.LVL94:
 794 02b0 7601000A 		beq	.L209
 795 02b4 041094E5 		ldr	r1, [r4, #4]
 796 02b8 020053E3 		cmp	r3, #2
 797 02bc 910808E0 		mul	r8, r1, r8
 798              	.LVL95:
 799 02c0 7201000A 		beq	.L209
 800 02c4 081094E5 		ldr	r1, [r4, #8]
 801 02c8 030053E3 		cmp	r3, #3
 802 02cc 910808E0 		mul	r8, r1, r8
 803              	.LVL96:
 804 02d0 6E01000A 		beq	.L209
 805 02d4 0C1094E5 		ldr	r1, [r4, #12]
 806 02d8 040053E3 		cmp	r3, #4
 807 02dc 910808E0 		mul	r8, r1, r8
 808              	.LVL97:
 809 02e0 6A01000A 		beq	.L209
 810 02e4 101094E5 		ldr	r1, [r4, #16]
 811 02e8 050053E3 		cmp	r3, #5
 812 02ec 910808E0 		mul	r8, r1, r8
 813              	.LVL98:
 814 02f0 6601000A 		beq	.L209
 815 02f4 141094E5 		ldr	r1, [r4, #20]
 816 02f8 060053E3 		cmp	r3, #6
 817 02fc 910808E0 		mul	r8, r1, r8
 818              	.LVL99:
 819 0300 6201000A 		beq	.L209
 820 0304 181094E5 		ldr	r1, [r4, #24]
 821 0308 070053E3 		cmp	r3, #7
 822 030c 910808E0 		mul	r8, r1, r8
 823              	.LVL100:
 824 0310 5E01000A 		beq	.L209
 825 0314 1C0094E5 		ldr	r0, [r4, #28]
 292:C:/Renesas/e2studio_2021_01_workspace_RZA2M_ANPR/ANPR_RZA2M_EBK/src/tensorflow_lite/tensorflow/lite/kernels/internal\types.h ****       buffer_size *= dims_data[i];
 826              		.loc 5 292 0
 827 0318 0810A0E3 		mov	r1, #8
 293:C:/Renesas/e2studio_2021_01_workspace_RZA2M_ANPR/ANPR_RZA2M_EBK/src/tensorflow_lite/tensorflow/lite/kernels/internal\types.h ****     }
 828              		.loc 5 293 0
 829 031c 900808E0 		mul	r8, r0, r8
 830              	.LVL101:
 831              	.L150:
 832 0320 03005BE1 		cmp	fp, r3
 833 0324 2800000A 		beq	.L151
 834              	.LVL102:
 835              	.L149:
 836 0328 03E04BE0 		sub	lr, fp, r3
 837 032c 01C04BE2 		sub	ip, fp, #1
 838 0330 04004EE2 		sub	r0, lr, #4
 839 0334 03C04CE0 		sub	ip, ip, r3
 840 0338 2001A0E1 		lsr	r0, r0, #2
 841 033c 02005CE3 		cmp	ip, #2
 842 0340 010080E2 		add	r0, r0, #1
 843 0344 0051A0E1 		lsl	r5, r0, #2
 844 0348 1200009A 		bls	.L152
 845 034c 033184E0 		add	r3, r4, r3, lsl #2
 292:C:/Renesas/e2studio_2021_01_workspace_RZA2M_ANPR/ANPR_RZA2M_EBK/src/tensorflow_lite/tensorflow/lite/kernels/internal\types.h ****       buffer_size *= dims_data[i];
 846              		.loc 5 292 0
 847 0350 5120C0F2 		vmov.i32	q9, #1  @ v4si
 848 0354 00C0A0E3 		mov	ip, #0
 849              	.L154:
 850 0358 01C08CE2 		add	ip, ip, #1
 293:C:/Renesas/e2studio_2021_01_workspace_RZA2M_ANPR/ANPR_RZA2M_EBK/src/tensorflow_lite/tensorflow/lite/kernels/internal\types.h ****     }
 851              		.loc 5 293 0
 852 035c DF0A63F4 		vld1.64	{d16-d17}, [r3:64]
 853 0360 0C0050E1 		cmp	r0, ip
 854 0364 103083E2 		add	r3, r3, #16
 855 0368 F02962F2 		vmul.i32	q9, q9, q8
 856 036c F9FFFF8A 		bhi	.L154
 857 0370 05005EE1 		cmp	lr, r5
 858 0374 051081E0 		add	r1, r1, r5
 859 0378 5040C0F2 		vmov.i32	q10, #0  @ v4si
 860 037c E408F2F2 		vext.32	q8, q9, q10, #2
 861 0380 F20960F2 		vmul.i32	q8, q8, q9
 862 0384 E444F0F2 		vext.32	q10, q8, q10, #1
 863 0388 F40960F2 		vmul.i32	q8, q8, q10
 864 038c 903B10EE 		vmov.32	r3, d16[0]
 865 0390 930808E0 		mul	r8, r3, r8
 866 0394 0C00000A 		beq	.L151
 867              	.L152:
 868              	.LVL103:
 869 0398 010194E7 		ldr	r0, [r4, r1, lsl #2]
 292:C:/Renesas/e2studio_2021_01_workspace_RZA2M_ANPR/ANPR_RZA2M_EBK/src/tensorflow_lite/tensorflow/lite/kernels/internal\types.h ****       buffer_size *= dims_data[i];
 870              		.loc 5 292 0
 871 039c 013081E2 		add	r3, r1, #1
 872 03a0 03005BE1 		cmp	fp, r3
 293:C:/Renesas/e2studio_2021_01_workspace_RZA2M_ANPR/ANPR_RZA2M_EBK/src/tensorflow_lite/tensorflow/lite/kernels/internal\types.h ****     }
 873              		.loc 5 293 0
 874 03a4 0131A0E1 		lsl	r3, r1, #2
 875 03a8 900808E0 		mul	r8, r0, r8
 876              	.LVL104:
 292:C:/Renesas/e2studio_2021_01_workspace_RZA2M_ANPR/ANPR_RZA2M_EBK/src/tensorflow_lite/tensorflow/lite/kernels/internal\types.h ****       buffer_size *= dims_data[i];
 877              		.loc 5 292 0
 878 03ac 060000DA 		ble	.L151
 293:C:/Renesas/e2studio_2021_01_workspace_RZA2M_ANPR/ANPR_RZA2M_EBK/src/tensorflow_lite/tensorflow/lite/kernels/internal\types.h ****     }
 879              		.loc 5 293 0
 880 03b0 033084E0 		add	r3, r4, r3
 292:C:/Renesas/e2studio_2021_01_workspace_RZA2M_ANPR/ANPR_RZA2M_EBK/src/tensorflow_lite/tensorflow/lite/kernels/internal\types.h ****       buffer_size *= dims_data[i];
 881              		.loc 5 292 0
 882 03b4 021081E2 		add	r1, r1, #2
 293:C:/Renesas/e2studio_2021_01_workspace_RZA2M_ANPR/ANPR_RZA2M_EBK/src/tensorflow_lite/tensorflow/lite/kernels/internal\types.h ****     }
 883              		.loc 5 293 0
 884 03b8 040093E5 		ldr	r0, [r3, #4]
 292:C:/Renesas/e2studio_2021_01_workspace_RZA2M_ANPR/ANPR_RZA2M_EBK/src/tensorflow_lite/tensorflow/lite/kernels/internal\types.h ****       buffer_size *= dims_data[i];
 885              		.loc 5 292 0
 886 03bc 01005BE1 		cmp	fp, r1
 293:C:/Renesas/e2studio_2021_01_workspace_RZA2M_ANPR/ANPR_RZA2M_EBK/src/tensorflow_lite/tensorflow/lite/kernels/internal\types.h ****     }
 887              		.loc 5 293 0
 888 03c0 900808E0 		mul	r8, r0, r8
 889              	.LVL105:
 292:C:/Renesas/e2studio_2021_01_workspace_RZA2M_ANPR/ANPR_RZA2M_EBK/src/tensorflow_lite/tensorflow/lite/kernels/internal\types.h ****       buffer_size *= dims_data[i];
 890              		.loc 5 292 0
 293:C:/Renesas/e2studio_2021_01_workspace_RZA2M_ANPR/ANPR_RZA2M_EBK/src/tensorflow_lite/tensorflow/lite/kernels/internal\types.h ****     }
 891              		.loc 5 293 0
 892 03c4 083093C5 		ldrgt	r3, [r3, #8]
 893 03c8 930808C0 		mulgt	r8, r3, r8
 894              	.LVL106:
 895              	.L151:
 896              	.LBE737:
 897              	.LBE734:
 898              	.LBE733:
 899              	.LBE721:
 900              	.LBE720:
 901              	.LBE690:
 902              	.LBE689:
 903              	.LBB767:
  38:C:/Renesas/e2studio_2021_01_workspace_RZA2M_ANPR/ANPR_RZA2M_EBK/src/tensorflow_lite/tensorflow/lite/kernels/internal/reference\binary_function.h ****   const RuntimeShape output_shape =
  39:C:/Renesas/e2studio_2021_01_workspace_RZA2M_ANPR/ANPR_RZA2M_EBK/src/tensorflow_lite/tensorflow/lite/kernels/internal/reference\binary_function.h ****       RuntimeShape::ExtendedShape(4, unextended_output_shape);
  40:C:/Renesas/e2studio_2021_01_workspace_RZA2M_ANPR/ANPR_RZA2M_EBK/src/tensorflow_lite/tensorflow/lite/kernels/internal/reference\binary_function.h **** 
  41:C:/Renesas/e2studio_2021_01_workspace_RZA2M_ANPR/ANPR_RZA2M_EBK/src/tensorflow_lite/tensorflow/lite/kernels/internal/reference\binary_function.h ****   NdArrayDesc<4> desc1;
  42:C:/Renesas/e2studio_2021_01_workspace_RZA2M_ANPR/ANPR_RZA2M_EBK/src/tensorflow_lite/tensorflow/lite/kernels/internal/reference\binary_function.h ****   NdArrayDesc<4> desc2;
  43:C:/Renesas/e2studio_2021_01_workspace_RZA2M_ANPR/ANPR_RZA2M_EBK/src/tensorflow_lite/tensorflow/lite/kernels/internal/reference\binary_function.h ****   NdArrayDescsForElementwiseBroadcast(unextended_input1_shape,
  44:C:/Renesas/e2studio_2021_01_workspace_RZA2M_ANPR/ANPR_RZA2M_EBK/src/tensorflow_lite/tensorflow/lite/kernels/internal/reference\binary_function.h ****                                       unextended_input2_shape, &desc1, &desc2);
  45:C:/Renesas/e2studio_2021_01_workspace_RZA2M_ANPR/ANPR_RZA2M_EBK/src/tensorflow_lite/tensorflow/lite/kernels/internal/reference\binary_function.h **** 
  46:C:/Renesas/e2studio_2021_01_workspace_RZA2M_ANPR/ANPR_RZA2M_EBK/src/tensorflow_lite/tensorflow/lite/kernels/internal/reference\binary_function.h ****   for (int b = 0; b < output_shape.Dims(0); ++b) {
  47:C:/Renesas/e2studio_2021_01_workspace_RZA2M_ANPR/ANPR_RZA2M_EBK/src/tensorflow_lite/tensorflow/lite/kernels/internal/reference\binary_function.h ****     for (int y = 0; y < output_shape.Dims(1); ++y) {
  48:C:/Renesas/e2studio_2021_01_workspace_RZA2M_ANPR/ANPR_RZA2M_EBK/src/tensorflow_lite/tensorflow/lite/kernels/internal/reference\binary_function.h ****       for (int x = 0; x < output_shape.Dims(2); ++x) {
  49:C:/Renesas/e2studio_2021_01_workspace_RZA2M_ANPR/ANPR_RZA2M_EBK/src/tensorflow_lite/tensorflow/lite/kernels/internal/reference\binary_function.h ****         for (int c = 0; c < output_shape.Dims(3); ++c) {
  50:C:/Renesas/e2studio_2021_01_workspace_RZA2M_ANPR/ANPR_RZA2M_EBK/src/tensorflow_lite/tensorflow/lite/kernels/internal/reference\binary_function.h ****           auto out_idx = Offset(output_shape, b, y, x, c);
  51:C:/Renesas/e2studio_2021_01_workspace_RZA2M_ANPR/ANPR_RZA2M_EBK/src/tensorflow_lite/tensorflow/lite/kernels/internal/reference\binary_function.h ****           auto in1_idx = SubscriptToIndex(desc1, b, y, x, c);
  52:C:/Renesas/e2studio_2021_01_workspace_RZA2M_ANPR/ANPR_RZA2M_EBK/src/tensorflow_lite/tensorflow/lite/kernels/internal/reference\binary_function.h ****           auto in2_idx = SubscriptToIndex(desc2, b, y, x, c);
  53:C:/Renesas/e2studio_2021_01_workspace_RZA2M_ANPR/ANPR_RZA2M_EBK/src/tensorflow_lite/tensorflow/lite/kernels/internal/reference\binary_function.h ****           auto in1_val = input1_data[in1_idx];
  54:C:/Renesas/e2studio_2021_01_workspace_RZA2M_ANPR/ANPR_RZA2M_EBK/src/tensorflow_lite/tensorflow/lite/kernels/internal/reference\binary_function.h ****           auto in2_val = input2_data[in2_idx];
  55:C:/Renesas/e2studio_2021_01_workspace_RZA2M_ANPR/ANPR_RZA2M_EBK/src/tensorflow_lite/tensorflow/lite/kernels/internal/reference\binary_function.h ****           output_data[out_idx] = func(in1_val, in2_val);
  56:C:/Renesas/e2studio_2021_01_workspace_RZA2M_ANPR/ANPR_RZA2M_EBK/src/tensorflow_lite/tensorflow/lite/kernels/internal/reference\binary_function.h ****         }
  57:C:/Renesas/e2studio_2021_01_workspace_RZA2M_ANPR/ANPR_RZA2M_EBK/src/tensorflow_lite/tensorflow/lite/kernels/internal/reference\binary_function.h ****       }
  58:C:/Renesas/e2studio_2021_01_workspace_RZA2M_ANPR/ANPR_RZA2M_EBK/src/tensorflow_lite/tensorflow/lite/kernels/internal/reference\binary_function.h ****     }
  59:C:/Renesas/e2studio_2021_01_workspace_RZA2M_ANPR/ANPR_RZA2M_EBK/src/tensorflow_lite/tensorflow/lite/kernels/internal/reference\binary_function.h ****   }
  60:C:/Renesas/e2studio_2021_01_workspace_RZA2M_ANPR/ANPR_RZA2M_EBK/src/tensorflow_lite/tensorflow/lite/kernels/internal/reference\binary_function.h **** }
  61:C:/Renesas/e2studio_2021_01_workspace_RZA2M_ANPR/ANPR_RZA2M_EBK/src/tensorflow_lite/tensorflow/lite/kernels/internal/reference\binary_function.h **** 
  62:C:/Renesas/e2studio_2021_01_workspace_RZA2M_ANPR/ANPR_RZA2M_EBK/src/tensorflow_lite/tensorflow/lite/kernels/internal/reference\binary_function.h **** // R: Result type. T1: Input 1 type. T2: Input 2 type.
  63:C:/Renesas/e2studio_2021_01_workspace_RZA2M_ANPR/ANPR_RZA2M_EBK/src/tensorflow_lite/tensorflow/lite/kernels/internal/reference\binary_function.h **** template <typename R, typename T1, typename T2>
  64:C:/Renesas/e2studio_2021_01_workspace_RZA2M_ANPR/ANPR_RZA2M_EBK/src/tensorflow_lite/tensorflow/lite/kernels/internal/reference\binary_function.h **** inline void BinaryFunction(const RuntimeShape& input1_shape,
  65:C:/Renesas/e2studio_2021_01_workspace_RZA2M_ANPR/ANPR_RZA2M_EBK/src/tensorflow_lite/tensorflow/lite/kernels/internal/reference\binary_function.h ****                            const T1* input1_data,
  66:C:/Renesas/e2studio_2021_01_workspace_RZA2M_ANPR/ANPR_RZA2M_EBK/src/tensorflow_lite/tensorflow/lite/kernels/internal/reference\binary_function.h ****                            const RuntimeShape& input2_shape,
  67:C:/Renesas/e2studio_2021_01_workspace_RZA2M_ANPR/ANPR_RZA2M_EBK/src/tensorflow_lite/tensorflow/lite/kernels/internal/reference\binary_function.h ****                            const T2* input2_data,
  68:C:/Renesas/e2studio_2021_01_workspace_RZA2M_ANPR/ANPR_RZA2M_EBK/src/tensorflow_lite/tensorflow/lite/kernels/internal/reference\binary_function.h ****                            const RuntimeShape& output_shape, R* output_data,
  69:C:/Renesas/e2studio_2021_01_workspace_RZA2M_ANPR/ANPR_RZA2M_EBK/src/tensorflow_lite/tensorflow/lite/kernels/internal/reference\binary_function.h ****                            R (*func)(T1, T2)) {
  70:C:/Renesas/e2studio_2021_01_workspace_RZA2M_ANPR/ANPR_RZA2M_EBK/src/tensorflow_lite/tensorflow/lite/kernels/internal/reference\binary_function.h ****   const int flat_size =
  71:C:/Renesas/e2studio_2021_01_workspace_RZA2M_ANPR/ANPR_RZA2M_EBK/src/tensorflow_lite/tensorflow/lite/kernels/internal/reference\binary_function.h ****       MatchingFlatSize(input1_shape, input2_shape, output_shape);
  72:C:/Renesas/e2studio_2021_01_workspace_RZA2M_ANPR/ANPR_RZA2M_EBK/src/tensorflow_lite/tensorflow/lite/kernels/internal/reference\binary_function.h ****   for (int i = 0; i < flat_size; ++i) {
 904              		.loc 4 72 0
 905 03cc 000058E3 		cmp	r8, #0
 906 03d0 640000DA 		ble	.L159
 907 03d4 080058E3 		cmp	r8, #8
 908 03d8 530300DA 		ble	.L210
 909 03dc 093048E2 		sub	r3, r8, #9
 910 03e0 04209DE5 		ldr	r2, [sp, #4]
 911 03e4 0730C3E3 		bic	r3, r3, #7
 912 03e8 185087E2 		add	r5, r7, #24
 913 03ec 08A083E2 		add	r10, r3, #8
 914              	.LVL107:
 915 03f0 08309DE5 		ldr	r3, [sp, #8]
 916 03f4 186082E2 		add	r6, r2, #24
 917              	.LVL108:
 918 03f8 0090A0E3 		mov	r9, #0
 919              	.LVL109:
 920 03fc 184083E2 		add	r4, r3, #24
 921              	.LVL110:
 922              	.L158:
 923              	.LBB768:
 924              	.LBB769:
 925              		.file 6 "C:/Renesas/e2studio_2021_01_workspace_RZA2M_ANPR/ANPR_RZA2M_EBK/src/tensorflow_lite/tenso
   1:C:/Renesas/e2studio_2021_01_workspace_RZA2M_ANPR/ANPR_RZA2M_EBK/src/tensorflow_lite/tensorflow/lite/kernels/internal/reference\floor_div.h **** /* Copyright 2020 The TensorFlow Authors. All Rights Reserved.
   2:C:/Renesas/e2studio_2021_01_workspace_RZA2M_ANPR/ANPR_RZA2M_EBK/src/tensorflow_lite/tensorflow/lite/kernels/internal/reference\floor_div.h **** 
   3:C:/Renesas/e2studio_2021_01_workspace_RZA2M_ANPR/ANPR_RZA2M_EBK/src/tensorflow_lite/tensorflow/lite/kernels/internal/reference\floor_div.h **** Licensed under the Apache License, Version 2.0 (the "License");
   4:C:/Renesas/e2studio_2021_01_workspace_RZA2M_ANPR/ANPR_RZA2M_EBK/src/tensorflow_lite/tensorflow/lite/kernels/internal/reference\floor_div.h **** you may not use this file except in compliance with the License.
   5:C:/Renesas/e2studio_2021_01_workspace_RZA2M_ANPR/ANPR_RZA2M_EBK/src/tensorflow_lite/tensorflow/lite/kernels/internal/reference\floor_div.h **** You may obtain a copy of the License at
   6:C:/Renesas/e2studio_2021_01_workspace_RZA2M_ANPR/ANPR_RZA2M_EBK/src/tensorflow_lite/tensorflow/lite/kernels/internal/reference\floor_div.h **** 
   7:C:/Renesas/e2studio_2021_01_workspace_RZA2M_ANPR/ANPR_RZA2M_EBK/src/tensorflow_lite/tensorflow/lite/kernels/internal/reference\floor_div.h ****     http://www.apache.org/licenses/LICENSE-2.0
   8:C:/Renesas/e2studio_2021_01_workspace_RZA2M_ANPR/ANPR_RZA2M_EBK/src/tensorflow_lite/tensorflow/lite/kernels/internal/reference\floor_div.h **** 
   9:C:/Renesas/e2studio_2021_01_workspace_RZA2M_ANPR/ANPR_RZA2M_EBK/src/tensorflow_lite/tensorflow/lite/kernels/internal/reference\floor_div.h **** Unless required by applicable law or agreed to in writing, software
  10:C:/Renesas/e2studio_2021_01_workspace_RZA2M_ANPR/ANPR_RZA2M_EBK/src/tensorflow_lite/tensorflow/lite/kernels/internal/reference\floor_div.h **** distributed under the License is distributed on an "AS IS" BASIS,
  11:C:/Renesas/e2studio_2021_01_workspace_RZA2M_ANPR/ANPR_RZA2M_EBK/src/tensorflow_lite/tensorflow/lite/kernels/internal/reference\floor_div.h **** WITHOUT WARRANTIES OR CONDITIONS OF ANY KIND, either express or implied.
  12:C:/Renesas/e2studio_2021_01_workspace_RZA2M_ANPR/ANPR_RZA2M_EBK/src/tensorflow_lite/tensorflow/lite/kernels/internal/reference\floor_div.h **** See the License for the specific language governing permissions and
  13:C:/Renesas/e2studio_2021_01_workspace_RZA2M_ANPR/ANPR_RZA2M_EBK/src/tensorflow_lite/tensorflow/lite/kernels/internal/reference\floor_div.h **** limitations under the License.
  14:C:/Renesas/e2studio_2021_01_workspace_RZA2M_ANPR/ANPR_RZA2M_EBK/src/tensorflow_lite/tensorflow/lite/kernels/internal/reference\floor_div.h **** ==============================================================================*/
  15:C:/Renesas/e2studio_2021_01_workspace_RZA2M_ANPR/ANPR_RZA2M_EBK/src/tensorflow_lite/tensorflow/lite/kernels/internal/reference\floor_div.h **** #ifndef TENSORFLOW_LITE_KERNELS_INTERNAL_REFERENCE_FLOOR_DIV_H_
  16:C:/Renesas/e2studio_2021_01_workspace_RZA2M_ANPR/ANPR_RZA2M_EBK/src/tensorflow_lite/tensorflow/lite/kernels/internal/reference\floor_div.h **** #define TENSORFLOW_LITE_KERNELS_INTERNAL_REFERENCE_FLOOR_DIV_H_
  17:C:/Renesas/e2studio_2021_01_workspace_RZA2M_ANPR/ANPR_RZA2M_EBK/src/tensorflow_lite/tensorflow/lite/kernels/internal/reference\floor_div.h **** 
  18:C:/Renesas/e2studio_2021_01_workspace_RZA2M_ANPR/ANPR_RZA2M_EBK/src/tensorflow_lite/tensorflow/lite/kernels/internal/reference\floor_div.h **** #include <cmath>
  19:C:/Renesas/e2studio_2021_01_workspace_RZA2M_ANPR/ANPR_RZA2M_EBK/src/tensorflow_lite/tensorflow/lite/kernels/internal/reference\floor_div.h **** #include <functional>
  20:C:/Renesas/e2studio_2021_01_workspace_RZA2M_ANPR/ANPR_RZA2M_EBK/src/tensorflow_lite/tensorflow/lite/kernels/internal/reference\floor_div.h **** 
  21:C:/Renesas/e2studio_2021_01_workspace_RZA2M_ANPR/ANPR_RZA2M_EBK/src/tensorflow_lite/tensorflow/lite/kernels/internal/reference\floor_div.h **** #include "tensorflow/lite/kernels/internal/types.h"
  22:C:/Renesas/e2studio_2021_01_workspace_RZA2M_ANPR/ANPR_RZA2M_EBK/src/tensorflow_lite/tensorflow/lite/kernels/internal/reference\floor_div.h **** 
  23:C:/Renesas/e2studio_2021_01_workspace_RZA2M_ANPR/ANPR_RZA2M_EBK/src/tensorflow_lite/tensorflow/lite/kernels/internal/reference\floor_div.h **** namespace tflite {
  24:C:/Renesas/e2studio_2021_01_workspace_RZA2M_ANPR/ANPR_RZA2M_EBK/src/tensorflow_lite/tensorflow/lite/kernels/internal/reference\floor_div.h **** namespace reference_ops {
  25:C:/Renesas/e2studio_2021_01_workspace_RZA2M_ANPR/ANPR_RZA2M_EBK/src/tensorflow_lite/tensorflow/lite/kernels/internal/reference\floor_div.h **** 
  26:C:/Renesas/e2studio_2021_01_workspace_RZA2M_ANPR/ANPR_RZA2M_EBK/src/tensorflow_lite/tensorflow/lite/kernels/internal/reference\floor_div.h **** template <typename T>
  27:C:/Renesas/e2studio_2021_01_workspace_RZA2M_ANPR/ANPR_RZA2M_EBK/src/tensorflow_lite/tensorflow/lite/kernels/internal/reference\floor_div.h **** T FloorDiv(T input1, T input2) {
  28:C:/Renesas/e2studio_2021_01_workspace_RZA2M_ANPR/ANPR_RZA2M_EBK/src/tensorflow_lite/tensorflow/lite/kernels/internal/reference\floor_div.h ****   return std::floor(std::divides<double>()(static_cast<double>(input1),
 926              		.loc 6 28 0
 927 0400 067A55ED 		vldr.32	s15, [r5, #-24]
 928 0404 089089E2 		add	r9, r9, #8
 929              	.LVL111:
 930 0408 060A16ED 		vldr.32	s0, [r6, #-24]
 931 040c 00F0D6F5 		pld	[r6]
 932 0410 206086E2 		add	r6, r6, #32
 933 0414 00F0D5F5 		pld	[r5]
 934              	.LVL112:
 935 0418 205085E2 		add	r5, r5, #32
 936 041c E70AF7EE 		vcvt.f64.f32	d16, s15
 937 0420 C00AB7EE 		vcvt.f64.f32	d0, s0
 938 0424 00F0D4F5 		pld	[r4]
 939 0428 204084E2 		add	r4, r4, #32
 940 042c 200B80EE 		vdiv.f64	d0, d0, d16
 941 0430 FEFFFFEB 		bl	floor
 942              	.LVL113:
  29:C:/Renesas/e2studio_2021_01_workspace_RZA2M_ANPR/ANPR_RZA2M_EBK/src/tensorflow_lite/tensorflow/lite/kernels/internal/reference\floor_div.h ****                                            static_cast<double>(input2)));
 943              		.loc 6 29 0
 944 0434 C00BB7EE 		vcvt.f32.f64	s0, d0
 945 0438 0E0A04ED 		vstr.32	s0, [r4, #-56]
 946              	.LVL114:
  28:C:/Renesas/e2studio_2021_01_workspace_RZA2M_ANPR/ANPR_RZA2M_EBK/src/tensorflow_lite/tensorflow/lite/kernels/internal/reference\floor_div.h ****                                            static_cast<double>(input2)));
 947              		.loc 6 28 0
 948 043c 0D7A55ED 		vldr.32	s15, [r5, #-52]
 949 0440 0D0A16ED 		vldr.32	s0, [r6, #-52]
 950 0444 E70AF7EE 		vcvt.f64.f32	d16, s15
 951 0448 C00AB7EE 		vcvt.f64.f32	d0, s0
 952 044c 200B80EE 		vdiv.f64	d0, d0, d16
 953 0450 FEFFFFEB 		bl	floor
 954              	.LVL115:
 955              		.loc 6 29 0
 956 0454 C00BB7EE 		vcvt.f32.f64	s0, d0
 957 0458 0D0A04ED 		vstr.32	s0, [r4, #-52]
  28:C:/Renesas/e2studio_2021_01_workspace_RZA2M_ANPR/ANPR_RZA2M_EBK/src/tensorflow_lite/tensorflow/lite/kernels/internal/reference\floor_div.h ****                                            static_cast<double>(input2)));
 958              		.loc 6 28 0
 959 045c 0C7A55ED 		vldr.32	s15, [r5, #-48]
 960 0460 0C0A16ED 		vldr.32	s0, [r6, #-48]
 961 0464 E70AF7EE 		vcvt.f64.f32	d16, s15
 962 0468 C00AB7EE 		vcvt.f64.f32	d0, s0
 963 046c 200B80EE 		vdiv.f64	d0, d0, d16
 964 0470 FEFFFFEB 		bl	floor
 965              	.LVL116:
 966              		.loc 6 29 0
 967 0474 C00BB7EE 		vcvt.f32.f64	s0, d0
 968 0478 0C0A04ED 		vstr.32	s0, [r4, #-48]
  28:C:/Renesas/e2studio_2021_01_workspace_RZA2M_ANPR/ANPR_RZA2M_EBK/src/tensorflow_lite/tensorflow/lite/kernels/internal/reference\floor_div.h ****                                            static_cast<double>(input2)));
 969              		.loc 6 28 0
 970 047c 0B7A55ED 		vldr.32	s15, [r5, #-44]
 971 0480 0B0A16ED 		vldr.32	s0, [r6, #-44]
 972 0484 E70AF7EE 		vcvt.f64.f32	d16, s15
 973 0488 C00AB7EE 		vcvt.f64.f32	d0, s0
 974 048c 200B80EE 		vdiv.f64	d0, d0, d16
 975 0490 FEFFFFEB 		bl	floor
 976              	.LVL117:
 977              		.loc 6 29 0
 978 0494 C00BB7EE 		vcvt.f32.f64	s0, d0
 979 0498 0B0A04ED 		vstr.32	s0, [r4, #-44]
  28:C:/Renesas/e2studio_2021_01_workspace_RZA2M_ANPR/ANPR_RZA2M_EBK/src/tensorflow_lite/tensorflow/lite/kernels/internal/reference\floor_div.h ****                                            static_cast<double>(input2)));
 980              		.loc 6 28 0
 981 049c 0A7A55ED 		vldr.32	s15, [r5, #-40]
 982 04a0 0A0A16ED 		vldr.32	s0, [r6, #-40]
 983 04a4 E70AF7EE 		vcvt.f64.f32	d16, s15
 984 04a8 C00AB7EE 		vcvt.f64.f32	d0, s0
 985 04ac 200B80EE 		vdiv.f64	d0, d0, d16
 986 04b0 FEFFFFEB 		bl	floor
 987              	.LVL118:
 988              		.loc 6 29 0
 989 04b4 C00BB7EE 		vcvt.f32.f64	s0, d0
 990 04b8 0A0A04ED 		vstr.32	s0, [r4, #-40]
  28:C:/Renesas/e2studio_2021_01_workspace_RZA2M_ANPR/ANPR_RZA2M_EBK/src/tensorflow_lite/tensorflow/lite/kernels/internal/reference\floor_div.h ****                                            static_cast<double>(input2)));
 991              		.loc 6 28 0
 992 04bc 097A55ED 		vldr.32	s15, [r5, #-36]
 993 04c0 090A16ED 		vldr.32	s0, [r6, #-36]
 994 04c4 E70AF7EE 		vcvt.f64.f32	d16, s15
 995 04c8 C00AB7EE 		vcvt.f64.f32	d0, s0
 996 04cc 200B80EE 		vdiv.f64	d0, d0, d16
 997 04d0 FEFFFFEB 		bl	floor
 998              	.LVL119:
 999              		.loc 6 29 0
 1000 04d4 C00BB7EE 		vcvt.f32.f64	s0, d0
 1001 04d8 090A04ED 		vstr.32	s0, [r4, #-36]
  28:C:/Renesas/e2studio_2021_01_workspace_RZA2M_ANPR/ANPR_RZA2M_EBK/src/tensorflow_lite/tensorflow/lite/kernels/internal/reference\floor_div.h ****                                            static_cast<double>(input2)));
 1002              		.loc 6 28 0
 1003 04dc 087A55ED 		vldr.32	s15, [r5, #-32]
 1004 04e0 080A16ED 		vldr.32	s0, [r6, #-32]
 1005 04e4 E70AF7EE 		vcvt.f64.f32	d16, s15
 1006 04e8 C00AB7EE 		vcvt.f64.f32	d0, s0
 1007 04ec 200B80EE 		vdiv.f64	d0, d0, d16
 1008 04f0 FEFFFFEB 		bl	floor
 1009              	.LVL120:
 1010              		.loc 6 29 0
 1011 04f4 C00BB7EE 		vcvt.f32.f64	s0, d0
 1012 04f8 080A04ED 		vstr.32	s0, [r4, #-32]
  28:C:/Renesas/e2studio_2021_01_workspace_RZA2M_ANPR/ANPR_RZA2M_EBK/src/tensorflow_lite/tensorflow/lite/kernels/internal/reference\floor_div.h ****                                            static_cast<double>(input2)));
 1013              		.loc 6 28 0
 1014 04fc 077A55ED 		vldr.32	s15, [r5, #-28]
 1015 0500 070A16ED 		vldr.32	s0, [r6, #-28]
 1016 0504 E70AF7EE 		vcvt.f64.f32	d16, s15
 1017 0508 C00AB7EE 		vcvt.f64.f32	d0, s0
 1018 050c 200B80EE 		vdiv.f64	d0, d0, d16
 1019 0510 FEFFFFEB 		bl	floor
 1020              	.LVL121:
 1021              		.loc 6 29 0
 1022 0514 C00BB7EE 		vcvt.f32.f64	s0, d0
 1023 0518 0A0059E1 		cmp	r9, r10
 1024 051c 070A04ED 		vstr.32	s0, [r4, #-28]
 1025 0520 B6FFFF1A 		bne	.L158
 1026              	.LVL122:
 1027              	.L144:
 1028 0524 04309DE5 		ldr	r3, [sp, #4]
 1029 0528 0911A0E1 		lsl	r1, r9, #2
 1030 052c 017087E0 		add	r7, r7, r1
 1031              	.LVL123:
 1032 0530 014083E0 		add	r4, r3, r1
 1033 0534 08309DE5 		ldr	r3, [sp, #8]
 1034 0538 01A083E0 		add	r10, r3, r1
 1035              	.L160:
 1036              	.LVL124:
 1037              	.LBE769:
 1038              	.LBE768:
  73:C:/Renesas/e2studio_2021_01_workspace_RZA2M_ANPR/ANPR_RZA2M_EBK/src/tensorflow_lite/tensorflow/lite/kernels/internal/reference\binary_function.h ****     output_data[i] = func(input1_data[i], input2_data[i]);
 1039              		.loc 4 73 0
 1040 053c 017AF7EC 		vldmia.32	r7!, {s15}
  72:C:/Renesas/e2studio_2021_01_workspace_RZA2M_ANPR/ANPR_RZA2M_EBK/src/tensorflow_lite/tensorflow/lite/kernels/internal/reference\binary_function.h ****     output_data[i] = func(input1_data[i], input2_data[i]);
 1041              		.loc 4 72 0
 1042 0540 019089E2 		add	r9, r9, #1
 1043              	.LVL125:
 1044              		.loc 4 73 0
 1045 0544 010AB4EC 		vldmia.32	r4!, {s0}
 1046              	.LVL126:
 1047              	.LBB772:
 1048              	.LBB770:
  28:C:/Renesas/e2studio_2021_01_workspace_RZA2M_ANPR/ANPR_RZA2M_EBK/src/tensorflow_lite/tensorflow/lite/kernels/internal/reference\floor_div.h ****                                            static_cast<double>(input2)));
 1049              		.loc 6 28 0
 1050 0548 E70AF7EE 		vcvt.f64.f32	d16, s15
 1051 054c C00AB7EE 		vcvt.f64.f32	d0, s0
 1052              	.LVL127:
 1053 0550 200B80EE 		vdiv.f64	d0, d0, d16
 1054 0554 FEFFFFEB 		bl	floor
 1055              	.LVL128:
 1056              		.loc 6 29 0
 1057 0558 C00BB7EE 		vcvt.f32.f64	s0, d0
 1058              	.LBE770:
 1059              	.LBE772:
  72:C:/Renesas/e2studio_2021_01_workspace_RZA2M_ANPR/ANPR_RZA2M_EBK/src/tensorflow_lite/tensorflow/lite/kernels/internal/reference\binary_function.h ****     output_data[i] = func(input1_data[i], input2_data[i]);
 1060              		.loc 4 72 0
 1061 055c 080059E1 		cmp	r9, r8
 1062              	.LBB773:
 1063              	.LBB771:
 1064              		.loc 6 29 0
 1065 0560 010AAAEC 		vstmia.32	r10!, {s0}
 1066              	.LBE771:
 1067              	.LBE773:
  72:C:/Renesas/e2studio_2021_01_workspace_RZA2M_ANPR/ANPR_RZA2M_EBK/src/tensorflow_lite/tensorflow/lite/kernels/internal/reference\binary_function.h ****     output_data[i] = func(input1_data[i], input2_data[i]);
 1068              		.loc 4 72 0
 1069 0564 F4FFFFBA 		blt	.L160
 1070              	.LVL129:
 1071              	.L159:
 1072              	.LBE767:
 1073              	.LBE688:
 1074              	.LBE687:
 1075              	.LBB787:
 1076              	.LBB788:
 203:C:/Renesas/e2studio_2021_01_workspace_RZA2M_ANPR/ANPR_RZA2M_EBK/src/tensorflow_lite/tensorflow/lite/kernels/internal\types.h **** #ifdef TF_LITE_STATIC_MEMORY
 1077              		.loc 5 203 0
 1078 0568 05005BE3 		cmp	fp, #5
 1079 056c 0A0000DA 		ble	.L162
 207:C:/Renesas/e2studio_2021_01_workspace_RZA2M_ANPR/ANPR_RZA2M_EBK/src/tensorflow_lite/tensorflow/lite/kernels/internal\types.h **** #endif  // TF_LITE_STATIC_MEMORY
 1080              		.loc 5 207 0
 1081 0570 3C019DE5 		ldr	r0, [sp, #316]
 1082 0574 000050E3 		cmp	r0, #0
 1083 0578 0300000A 		beq	.L178
 1084 057c FEFFFFEB 		bl	_ZdaPv
 1085              	.LVL130:
 1086 0580 18319DE5 		ldr	r3, [sp, #280]
 1087              	.LVL131:
 1088              	.LBE788:
 1089              	.LBE787:
 1090              	.LBB789:
 1091              	.LBB790:
 203:C:/Renesas/e2studio_2021_01_workspace_RZA2M_ANPR/ANPR_RZA2M_EBK/src/tensorflow_lite/tensorflow/lite/kernels/internal\types.h **** #ifdef TF_LITE_STATIC_MEMORY
 1092              		.loc 5 203 0
 1093 0584 050053E3 		cmp	r3, #5
 1094 0588 030000DA 		ble	.L162
 1095              	.LVL132:
 1096              	.L178:
 207:C:/Renesas/e2studio_2021_01_workspace_RZA2M_ANPR/ANPR_RZA2M_EBK/src/tensorflow_lite/tensorflow/lite/kernels/internal\types.h **** #endif  // TF_LITE_STATIC_MEMORY
 1097              		.loc 5 207 0
 1098 058c 1C019DE5 		ldr	r0, [sp, #284]
 1099 0590 000050E3 		cmp	r0, #0
 1100 0594 0000000A 		beq	.L162
 1101 0598 FEFFFFEB 		bl	_ZdaPv
 1102              	.LVL133:
 1103              	.L162:
 1104              	.LBE790:
 1105              	.LBE789:
 1106              	.LBB791:
 1107              	.LBB792:
 203:C:/Renesas/e2studio_2021_01_workspace_RZA2M_ANPR/ANPR_RZA2M_EBK/src/tensorflow_lite/tensorflow/lite/kernels/internal\types.h **** #ifdef TF_LITE_STATIC_MEMORY
 1108              		.loc 5 203 0
 1109 059c 00319DE5 		ldr	r3, [sp, #256]
 1110 05a0 050053E3 		cmp	r3, #5
 1111 05a4 030000DA 		ble	.L163
 207:C:/Renesas/e2studio_2021_01_workspace_RZA2M_ANPR/ANPR_RZA2M_EBK/src/tensorflow_lite/tensorflow/lite/kernels/internal\types.h **** #endif  // TF_LITE_STATIC_MEMORY
 1112              		.loc 5 207 0
 1113 05a8 04019DE5 		ldr	r0, [sp, #260]
 1114 05ac 000050E3 		cmp	r0, #0
 1115 05b0 0000000A 		beq	.L163
 1116              	.LVL134:
 1117              	.L361:
 1118 05b4 FEFFFFEB 		bl	_ZdaPv
 1119              	.LVL135:
 1120              	.L163:
 1121              	.LBE792:
 1122              	.LBE791:
  87:../src/tensorflow_lite/tensorflow/lite/micro/kernels/floor_div.cc ****         tflite::micro::GetTensorShape(input1),
  88:../src/tensorflow_lite/tensorflow/lite/micro/kernels/floor_div.cc ****         tflite::micro::GetTensorData<T>(input1),
  89:../src/tensorflow_lite/tensorflow/lite/micro/kernels/floor_div.cc ****         tflite::micro::GetTensorShape(input2), denominator_data,
  90:../src/tensorflow_lite/tensorflow/lite/micro/kernels/floor_div.cc ****         tflite::micro::GetTensorShape(output),
  91:../src/tensorflow_lite/tensorflow/lite/micro/kernels/floor_div.cc ****         tflite::micro::GetTensorData<T>(output), reference_ops::FloorDiv<T>);
  92:../src/tensorflow_lite/tensorflow/lite/micro/kernels/floor_div.cc ****   }
  93:../src/tensorflow_lite/tensorflow/lite/micro/kernels/floor_div.cc **** 
  94:../src/tensorflow_lite/tensorflow/lite/micro/kernels/floor_div.cc ****   return kTfLiteOk;
 1123              		.loc 1 94 0
 1124 05b8 0000A0E3 		mov	r0, #0
  95:../src/tensorflow_lite/tensorflow/lite/micro/kernels/floor_div.cc **** }
 1125              		.loc 1 95 0
 1126 05bc 57DF8DE2 		add	sp, sp, #348
 1127              		.cfi_remember_state
 1128              		.cfi_def_cfa_offset 36
 1129              		@ sp needed
 1130 05c0 F08FBDE8 		pop	{r4, r5, r6, r7, r8, r9, r10, fp, pc}
 1131              	.LVL136:
 1132              	.L27:
 1133              		.cfi_restore_state
 1134              	.LBB793:
 1135              	.LBB669:
 1136              	.LBB405:
 1137              	.LBB404:
 1138              	.LBB403:
 1139              	.LBB402:
 315:C:/Renesas/e2studio_2021_01_workspace_RZA2M_ANPR/ANPR_RZA2M_EBK/src/tensorflow_lite/tensorflow/lite/kernels/internal\types.h ****   }
 1140              		.loc 5 315 0
 1141 05c4 D4308DE2 		add	r3, sp, #212
 1142 05c8 0221A0E1 		lsl	r2, r2, #2
 1143 05cc 000183E0 		add	r0, r3, r0, lsl #2
 1144              	.LVL137:
 1145 05d0 BC108DE2 		add	r1, sp, #188
 1146 05d4 FEFFFFEB 		bl	memcpy
 1147              	.LVL138:
 1148              	.LBE402:
 1149              	.LBE403:
 1150              	.LBE404:
 1151              	.LBE405:
 1152              	.LBB406:
 1153              	.LBB407:
 1154              	.LBB408:
 1155              	.LBB409:
 1156              	.LBB410:
 1157              	.LBB411:
 1158              	.LBB412:
 311:C:/Renesas/e2studio_2021_01_workspace_RZA2M_ANPR/ANPR_RZA2M_EBK/src/tensorflow_lite/tensorflow/lite/kernels/internal\types.h ****       SetDim(i, pad_value);
 1159              		.loc 5 311 0
 1160 05d8 040076E2 		rsbs	r0, r6, #4
 1161              	.LBE412:
 1162              	.LBB423:
 1163              	.LBB424:
 245:C:/Renesas/e2studio_2021_01_workspace_RZA2M_ANPR/ANPR_RZA2M_EBK/src/tensorflow_lite/tensorflow/lite/kernels/internal\types.h ****     if (dimensions_count > kMaxSmallSize) {
 1164              		.loc 5 245 0
 1165 05dc 0430A0E3 		mov	r3, #4
 1166 05e0 E8308DE5 		str	r3, [sp, #232]
 1167              	.LVL139:
 1168              	.LBE424:
 1169              	.LBE423:
 1170              	.LBB425:
 311:C:/Renesas/e2studio_2021_01_workspace_RZA2M_ANPR/ANPR_RZA2M_EBK/src/tensorflow_lite/tensorflow/lite/kernels/internal\types.h ****       SetDim(i, pad_value);
 1171              		.loc 5 311 0
 1172 05e4 0D00000A 		beq	.L25
 1173              	.LVL140:
 1174 05e8 010050E3 		cmp	r0, #1
 1175              	.LBB413:
 1176              	.LBB414:
 224:C:/Renesas/e2studio_2021_01_workspace_RZA2M_ANPR/ANPR_RZA2M_EBK/src/tensorflow_lite/tensorflow/lite/kernels/internal\types.h ****     }
 1177              		.loc 5 224 0
 1178 05ec 0130A0E3 		mov	r3, #1
 1179 05f0 EC308DE5 		str	r3, [sp, #236]
 1180              	.LVL141:
 1181              	.LBE414:
 1182              	.LBE413:
 311:C:/Renesas/e2studio_2021_01_workspace_RZA2M_ANPR/ANPR_RZA2M_EBK/src/tensorflow_lite/tensorflow/lite/kernels/internal\types.h ****       SetDim(i, pad_value);
 1183              		.loc 5 311 0
 1184 05f4 0900000A 		beq	.L25
 1185              	.LVL142:
 1186 05f8 020050E3 		cmp	r0, #2
 1187              	.LBB419:
 1188              	.LBB415:
 224:C:/Renesas/e2studio_2021_01_workspace_RZA2M_ANPR/ANPR_RZA2M_EBK/src/tensorflow_lite/tensorflow/lite/kernels/internal\types.h ****     }
 1189              		.loc 5 224 0
 1190 05fc F0308DE5 		str	r3, [sp, #240]
 1191              	.LVL143:
 1192              	.LBE415:
 1193              	.LBE419:
 311:C:/Renesas/e2studio_2021_01_workspace_RZA2M_ANPR/ANPR_RZA2M_EBK/src/tensorflow_lite/tensorflow/lite/kernels/internal\types.h ****       SetDim(i, pad_value);
 1194              		.loc 5 311 0
 1195 0600 0600000A 		beq	.L25
 1196              	.LVL144:
 1197 0604 030050E3 		cmp	r0, #3
 1198              	.LBB420:
 1199              	.LBB416:
 224:C:/Renesas/e2studio_2021_01_workspace_RZA2M_ANPR/ANPR_RZA2M_EBK/src/tensorflow_lite/tensorflow/lite/kernels/internal\types.h ****     }
 1200              		.loc 5 224 0
 1201 0608 F4308DE5 		str	r3, [sp, #244]
 1202              	.LVL145:
 1203              	.LBE416:
 1204              	.LBE420:
 311:C:/Renesas/e2studio_2021_01_workspace_RZA2M_ANPR/ANPR_RZA2M_EBK/src/tensorflow_lite/tensorflow/lite/kernels/internal\types.h ****       SetDim(i, pad_value);
 1205              		.loc 5 311 0
 1206 060c 0300000A 		beq	.L25
 1207              	.LVL146:
 1208 0610 040050E3 		cmp	r0, #4
 1209              	.LBB421:
 1210              	.LBB417:
 224:C:/Renesas/e2studio_2021_01_workspace_RZA2M_ANPR/ANPR_RZA2M_EBK/src/tensorflow_lite/tensorflow/lite/kernels/internal\types.h ****     }
 1211              		.loc 5 224 0
 1212 0614 F8308DE5 		str	r3, [sp, #248]
 1213              	.LVL147:
 1214              	.LBE417:
 1215              	.LBE421:
 311:C:/Renesas/e2studio_2021_01_workspace_RZA2M_ANPR/ANPR_RZA2M_EBK/src/tensorflow_lite/tensorflow/lite/kernels/internal\types.h ****       SetDim(i, pad_value);
 1216              		.loc 5 311 0
 1217 0618 0000000A 		beq	.L25
 1218              	.LVL148:
 1219              	.LEHB7:
 1220              	.LBB422:
 1221              	.LBB418:
 220:C:/Renesas/e2studio_2021_01_workspace_RZA2M_ANPR/ANPR_RZA2M_EBK/src/tensorflow_lite/tensorflow/lite/kernels/internal\types.h ****     if (size_ > kMaxSmallSize) {
 1222              		.loc 5 220 0
 1223 061c FEFFFFEB 		bl	abort
 1224              	.LVL149:
 1225              	.LEHE7:
 1226              	.L25:
 1227              	.LBE418:
 1228              	.LBE422:
 1229              	.LBE425:
 315:C:/Renesas/e2studio_2021_01_workspace_RZA2M_ANPR/ANPR_RZA2M_EBK/src/tensorflow_lite/tensorflow/lite/kernels/internal\types.h ****   }
 1230              		.loc 5 315 0
 1231 0620 EC308DE2 		add	r3, sp, #236
 1232 0624 0621A0E1 		lsl	r2, r6, #2
 1233 0628 000183E0 		add	r0, r3, r0, lsl #2
 1234              	.LVL150:
 1235 062c 8C108DE2 		add	r1, sp, #140
 1236 0630 FEFFFFEB 		bl	memcpy
 1237              	.LVL151:
 1238              	.LBE411:
 1239              	.LBE410:
 1240              	.LBE409:
 1241              	.LBE408:
 1242              	.LBB426:
 1243              	.LBB427:
 1244              	.LBB428:
 1245              	.LBB429:
 1246              	.LBB430:
 311:C:/Renesas/e2studio_2021_01_workspace_RZA2M_ANPR/ANPR_RZA2M_EBK/src/tensorflow_lite/tensorflow/lite/kernels/internal\types.h ****       SetDim(i, pad_value);
 1247              		.loc 5 311 0
 1248 0634 040074E2 		rsbs	r0, r4, #4
 1249              	.LBE430:
 1250              	.LBB441:
 1251              	.LBB442:
 245:C:/Renesas/e2studio_2021_01_workspace_RZA2M_ANPR/ANPR_RZA2M_EBK/src/tensorflow_lite/tensorflow/lite/kernels/internal\types.h ****     if (dimensions_count > kMaxSmallSize) {
 1252              		.loc 5 245 0
 1253 0638 0430A0E3 		mov	r3, #4
 1254 063c 00318DE5 		str	r3, [sp, #256]
 1255              	.LVL152:
 1256              	.LBE442:
 1257              	.LBE441:
 1258              	.LBB443:
 311:C:/Renesas/e2studio_2021_01_workspace_RZA2M_ANPR/ANPR_RZA2M_EBK/src/tensorflow_lite/tensorflow/lite/kernels/internal\types.h ****       SetDim(i, pad_value);
 1259              		.loc 5 311 0
 1260 0640 0D00000A 		beq	.L29
 1261              	.LVL153:
 1262 0644 010050E3 		cmp	r0, #1
 1263              	.LBB431:
 1264              	.LBB432:
 224:C:/Renesas/e2studio_2021_01_workspace_RZA2M_ANPR/ANPR_RZA2M_EBK/src/tensorflow_lite/tensorflow/lite/kernels/internal\types.h ****     }
 1265              		.loc 5 224 0
 1266 0648 0130A0E3 		mov	r3, #1
 1267 064c 04318DE5 		str	r3, [sp, #260]
 1268              	.LVL154:
 1269              	.LBE432:
 1270              	.LBE431:
 311:C:/Renesas/e2studio_2021_01_workspace_RZA2M_ANPR/ANPR_RZA2M_EBK/src/tensorflow_lite/tensorflow/lite/kernels/internal\types.h ****       SetDim(i, pad_value);
 1271              		.loc 5 311 0
 1272 0650 0900000A 		beq	.L29
 1273              	.LVL155:
 1274 0654 020050E3 		cmp	r0, #2
 1275              	.LBB437:
 1276              	.LBB433:
 224:C:/Renesas/e2studio_2021_01_workspace_RZA2M_ANPR/ANPR_RZA2M_EBK/src/tensorflow_lite/tensorflow/lite/kernels/internal\types.h ****     }
 1277              		.loc 5 224 0
 1278 0658 08318DE5 		str	r3, [sp, #264]
 1279              	.LVL156:
 1280              	.LBE433:
 1281              	.LBE437:
 311:C:/Renesas/e2studio_2021_01_workspace_RZA2M_ANPR/ANPR_RZA2M_EBK/src/tensorflow_lite/tensorflow/lite/kernels/internal\types.h ****       SetDim(i, pad_value);
 1282              		.loc 5 311 0
 1283 065c 0600000A 		beq	.L29
 1284              	.LVL157:
 1285 0660 030050E3 		cmp	r0, #3
 1286              	.LBB438:
 1287              	.LBB434:
 224:C:/Renesas/e2studio_2021_01_workspace_RZA2M_ANPR/ANPR_RZA2M_EBK/src/tensorflow_lite/tensorflow/lite/kernels/internal\types.h ****     }
 1288              		.loc 5 224 0
 1289 0664 0C318DE5 		str	r3, [sp, #268]
 1290              	.LVL158:
 1291              	.LBE434:
 1292              	.LBE438:
 311:C:/Renesas/e2studio_2021_01_workspace_RZA2M_ANPR/ANPR_RZA2M_EBK/src/tensorflow_lite/tensorflow/lite/kernels/internal\types.h ****       SetDim(i, pad_value);
 1293              		.loc 5 311 0
 1294 0668 0300000A 		beq	.L29
 1295              	.LVL159:
 1296 066c 040050E3 		cmp	r0, #4
 1297              	.LBB439:
 1298              	.LBB435:
 224:C:/Renesas/e2studio_2021_01_workspace_RZA2M_ANPR/ANPR_RZA2M_EBK/src/tensorflow_lite/tensorflow/lite/kernels/internal\types.h ****     }
 1299              		.loc 5 224 0
 1300 0670 10318DE5 		str	r3, [sp, #272]
 1301              	.LVL160:
 1302              	.LBE435:
 1303              	.LBE439:
 311:C:/Renesas/e2studio_2021_01_workspace_RZA2M_ANPR/ANPR_RZA2M_EBK/src/tensorflow_lite/tensorflow/lite/kernels/internal\types.h ****       SetDim(i, pad_value);
 1304              		.loc 5 311 0
 1305 0674 0000000A 		beq	.L29
 1306              	.LVL161:
 1307              	.LEHB8:
 1308              	.LBB440:
 1309              	.LBB436:
 220:C:/Renesas/e2studio_2021_01_workspace_RZA2M_ANPR/ANPR_RZA2M_EBK/src/tensorflow_lite/tensorflow/lite/kernels/internal\types.h ****     if (size_ > kMaxSmallSize) {
 1310              		.loc 5 220 0
 1311 0678 FEFFFFEB 		bl	abort
 1312              	.LVL162:
 1313              	.LEHE8:
 1314              	.L29:
 1315              	.LBE436:
 1316              	.LBE440:
 1317              	.LBE443:
 315:C:/Renesas/e2studio_2021_01_workspace_RZA2M_ANPR/ANPR_RZA2M_EBK/src/tensorflow_lite/tensorflow/lite/kernels/internal\types.h ****   }
 1318              		.loc 5 315 0
 1319 067c 413F8DE2 		add	r3, sp, #260
 1320 0680 0421A0E1 		lsl	r2, r4, #2
 1321 0684 000183E0 		add	r0, r3, r0, lsl #2
 1322              	.LVL163:
 1323 0688 A4108DE2 		add	r1, sp, #164
 1324 068c FEFFFFEB 		bl	memcpy
 1325              	.LVL164:
 1326 0690 E8409DE5 		ldr	r4, [sp, #232]
 1327              	.LBE429:
 1328              	.LBE428:
 1329              	.LBE427:
 1330              	.LBE426:
 1331              	.LBB444:
 1332              	.LBB445:
 1333              	.LBB446:
 1334              	.LBB447:
 1335              	.LBB448:
 216:C:/Renesas/e2studio_2021_01_workspace_RZA2M_ANPR/ANPR_RZA2M_EBK/src/tensorflow_lite/tensorflow/lite/kernels/internal\types.h ****   }
 1336              		.loc 5 216 0
 1337 0694 EC309DE5 		ldr	r3, [sp, #236]
 1338 0698 050054E3 		cmp	r4, #5
 1339 069c 5D0000CA 		bgt	.L378
 1340              	.LVL165:
 215:C:/Renesas/e2studio_2021_01_workspace_RZA2M_ANPR/ANPR_RZA2M_EBK/src/tensorflow_lite/tensorflow/lite/kernels/internal\types.h ****     return size_ > kMaxSmallSize ? dims_pointer_[i] : dims_[i];
 1341              		.loc 5 215 0
 1342 06a0 030054E3 		cmp	r4, #3
 1343 06a4 A20200DA 		ble	.L39
 216:C:/Renesas/e2studio_2021_01_workspace_RZA2M_ANPR/ANPR_RZA2M_EBK/src/tensorflow_lite/tensorflow/lite/kernels/internal\types.h ****   }
 1344              		.loc 5 216 0
 1345 06a8 F8109DE5 		ldr	r1, [sp, #248]
 1346              	.LVL166:
 1347 06ac 01E0A0E3 		mov	lr, #1
 1348 06b0 F4C09DE5 		ldr	ip, [sp, #244]
 1349 06b4 F0209DE5 		ldr	r2, [sp, #240]
 1350 06b8 18318DE5 		str	r3, [sp, #280]
 1351 06bc 24118DE5 		str	r1, [sp, #292]
 1352              	.LVL167:
 1353              	.LBE448:
 1354              	.LBE447:
 1355              		.file 7 "C:/Renesas/e2studio_2021_01_workspace_RZA2M_ANPR/ANPR_RZA2M_EBK/src/tensorflow_lite/tenso
   1:C:/Renesas/e2studio_2021_01_workspace_RZA2M_ANPR/ANPR_RZA2M_EBK/src/tensorflow_lite/tensorflow/lite/kernels/internal\common.h **** /* Copyright 2017 The TensorFlow Authors. All Rights Reserved.
   2:C:/Renesas/e2studio_2021_01_workspace_RZA2M_ANPR/ANPR_RZA2M_EBK/src/tensorflow_lite/tensorflow/lite/kernels/internal\common.h **** 
   3:C:/Renesas/e2studio_2021_01_workspace_RZA2M_ANPR/ANPR_RZA2M_EBK/src/tensorflow_lite/tensorflow/lite/kernels/internal\common.h **** Licensed under the Apache License, Version 2.0 (the "License");
   4:C:/Renesas/e2studio_2021_01_workspace_RZA2M_ANPR/ANPR_RZA2M_EBK/src/tensorflow_lite/tensorflow/lite/kernels/internal\common.h **** you may not use this file except in compliance with the License.
   5:C:/Renesas/e2studio_2021_01_workspace_RZA2M_ANPR/ANPR_RZA2M_EBK/src/tensorflow_lite/tensorflow/lite/kernels/internal\common.h **** You may obtain a copy of the License at
   6:C:/Renesas/e2studio_2021_01_workspace_RZA2M_ANPR/ANPR_RZA2M_EBK/src/tensorflow_lite/tensorflow/lite/kernels/internal\common.h **** 
   7:C:/Renesas/e2studio_2021_01_workspace_RZA2M_ANPR/ANPR_RZA2M_EBK/src/tensorflow_lite/tensorflow/lite/kernels/internal\common.h ****     http://www.apache.org/licenses/LICENSE-2.0
   8:C:/Renesas/e2studio_2021_01_workspace_RZA2M_ANPR/ANPR_RZA2M_EBK/src/tensorflow_lite/tensorflow/lite/kernels/internal\common.h **** 
   9:C:/Renesas/e2studio_2021_01_workspace_RZA2M_ANPR/ANPR_RZA2M_EBK/src/tensorflow_lite/tensorflow/lite/kernels/internal\common.h **** Unless required by applicable law or agreed to in writing, software
  10:C:/Renesas/e2studio_2021_01_workspace_RZA2M_ANPR/ANPR_RZA2M_EBK/src/tensorflow_lite/tensorflow/lite/kernels/internal\common.h **** distributed under the License is distributed on an "AS IS" BASIS,
  11:C:/Renesas/e2studio_2021_01_workspace_RZA2M_ANPR/ANPR_RZA2M_EBK/src/tensorflow_lite/tensorflow/lite/kernels/internal\common.h **** WITHOUT WARRANTIES OR CONDITIONS OF ANY KIND, either express or implied.
  12:C:/Renesas/e2studio_2021_01_workspace_RZA2M_ANPR/ANPR_RZA2M_EBK/src/tensorflow_lite/tensorflow/lite/kernels/internal\common.h **** See the License for the specific language governing permissions and
  13:C:/Renesas/e2studio_2021_01_workspace_RZA2M_ANPR/ANPR_RZA2M_EBK/src/tensorflow_lite/tensorflow/lite/kernels/internal\common.h **** limitations under the License.
  14:C:/Renesas/e2studio_2021_01_workspace_RZA2M_ANPR/ANPR_RZA2M_EBK/src/tensorflow_lite/tensorflow/lite/kernels/internal\common.h **** ==============================================================================*/
  15:C:/Renesas/e2studio_2021_01_workspace_RZA2M_ANPR/ANPR_RZA2M_EBK/src/tensorflow_lite/tensorflow/lite/kernels/internal\common.h **** #ifndef TENSORFLOW_LITE_KERNELS_INTERNAL_COMMON_H_
  16:C:/Renesas/e2studio_2021_01_workspace_RZA2M_ANPR/ANPR_RZA2M_EBK/src/tensorflow_lite/tensorflow/lite/kernels/internal\common.h **** #define TENSORFLOW_LITE_KERNELS_INTERNAL_COMMON_H_
  17:C:/Renesas/e2studio_2021_01_workspace_RZA2M_ANPR/ANPR_RZA2M_EBK/src/tensorflow_lite/tensorflow/lite/kernels/internal\common.h **** 
  18:C:/Renesas/e2studio_2021_01_workspace_RZA2M_ANPR/ANPR_RZA2M_EBK/src/tensorflow_lite/tensorflow/lite/kernels/internal\common.h **** #ifndef ALLOW_SLOW_GENERIC_DEPTHWISECONV_FALLBACK
  19:C:/Renesas/e2studio_2021_01_workspace_RZA2M_ANPR/ANPR_RZA2M_EBK/src/tensorflow_lite/tensorflow/lite/kernels/internal\common.h **** #ifdef GEMMLOWP_ALLOW_SLOW_SCALAR_FALLBACK
  20:C:/Renesas/e2studio_2021_01_workspace_RZA2M_ANPR/ANPR_RZA2M_EBK/src/tensorflow_lite/tensorflow/lite/kernels/internal\common.h **** #define ALLOW_SLOW_GENERIC_DEPTHWISECONV_FALLBACK
  21:C:/Renesas/e2studio_2021_01_workspace_RZA2M_ANPR/ANPR_RZA2M_EBK/src/tensorflow_lite/tensorflow/lite/kernels/internal\common.h **** #endif
  22:C:/Renesas/e2studio_2021_01_workspace_RZA2M_ANPR/ANPR_RZA2M_EBK/src/tensorflow_lite/tensorflow/lite/kernels/internal\common.h **** #endif
  23:C:/Renesas/e2studio_2021_01_workspace_RZA2M_ANPR/ANPR_RZA2M_EBK/src/tensorflow_lite/tensorflow/lite/kernels/internal\common.h **** 
  24:C:/Renesas/e2studio_2021_01_workspace_RZA2M_ANPR/ANPR_RZA2M_EBK/src/tensorflow_lite/tensorflow/lite/kernels/internal\common.h **** #include <functional>
  25:C:/Renesas/e2studio_2021_01_workspace_RZA2M_ANPR/ANPR_RZA2M_EBK/src/tensorflow_lite/tensorflow/lite/kernels/internal\common.h **** 
  26:C:/Renesas/e2studio_2021_01_workspace_RZA2M_ANPR/ANPR_RZA2M_EBK/src/tensorflow_lite/tensorflow/lite/kernels/internal\common.h **** #include "fixedpoint/fixedpoint.h"
  27:C:/Renesas/e2studio_2021_01_workspace_RZA2M_ANPR/ANPR_RZA2M_EBK/src/tensorflow_lite/tensorflow/lite/kernels/internal\common.h **** #include "tensorflow/lite/kernels/internal/cppmath.h"
  28:C:/Renesas/e2studio_2021_01_workspace_RZA2M_ANPR/ANPR_RZA2M_EBK/src/tensorflow_lite/tensorflow/lite/kernels/internal\common.h **** #include "tensorflow/lite/kernels/internal/optimized/neon_check.h"
  29:C:/Renesas/e2studio_2021_01_workspace_RZA2M_ANPR/ANPR_RZA2M_EBK/src/tensorflow_lite/tensorflow/lite/kernels/internal\common.h **** #include "tensorflow/lite/kernels/internal/types.h"
  30:C:/Renesas/e2studio_2021_01_workspace_RZA2M_ANPR/ANPR_RZA2M_EBK/src/tensorflow_lite/tensorflow/lite/kernels/internal\common.h **** 
  31:C:/Renesas/e2studio_2021_01_workspace_RZA2M_ANPR/ANPR_RZA2M_EBK/src/tensorflow_lite/tensorflow/lite/kernels/internal\common.h **** namespace tflite {
  32:C:/Renesas/e2studio_2021_01_workspace_RZA2M_ANPR/ANPR_RZA2M_EBK/src/tensorflow_lite/tensorflow/lite/kernels/internal\common.h **** 
  33:C:/Renesas/e2studio_2021_01_workspace_RZA2M_ANPR/ANPR_RZA2M_EBK/src/tensorflow_lite/tensorflow/lite/kernels/internal\common.h **** constexpr int kReverseShift = -1;
  34:C:/Renesas/e2studio_2021_01_workspace_RZA2M_ANPR/ANPR_RZA2M_EBK/src/tensorflow_lite/tensorflow/lite/kernels/internal\common.h **** 
  35:C:/Renesas/e2studio_2021_01_workspace_RZA2M_ANPR/ANPR_RZA2M_EBK/src/tensorflow_lite/tensorflow/lite/kernels/internal\common.h **** inline void GetActivationMinMax(FusedActivationFunctionType ac,
  36:C:/Renesas/e2studio_2021_01_workspace_RZA2M_ANPR/ANPR_RZA2M_EBK/src/tensorflow_lite/tensorflow/lite/kernels/internal\common.h ****                                 float* output_activation_min,
  37:C:/Renesas/e2studio_2021_01_workspace_RZA2M_ANPR/ANPR_RZA2M_EBK/src/tensorflow_lite/tensorflow/lite/kernels/internal\common.h ****                                 float* output_activation_max) {
  38:C:/Renesas/e2studio_2021_01_workspace_RZA2M_ANPR/ANPR_RZA2M_EBK/src/tensorflow_lite/tensorflow/lite/kernels/internal\common.h ****   switch (ac) {
  39:C:/Renesas/e2studio_2021_01_workspace_RZA2M_ANPR/ANPR_RZA2M_EBK/src/tensorflow_lite/tensorflow/lite/kernels/internal\common.h ****     case FusedActivationFunctionType::kNone:
  40:C:/Renesas/e2studio_2021_01_workspace_RZA2M_ANPR/ANPR_RZA2M_EBK/src/tensorflow_lite/tensorflow/lite/kernels/internal\common.h ****       *output_activation_min = std::numeric_limits<float>::lowest();
  41:C:/Renesas/e2studio_2021_01_workspace_RZA2M_ANPR/ANPR_RZA2M_EBK/src/tensorflow_lite/tensorflow/lite/kernels/internal\common.h ****       *output_activation_max = std::numeric_limits<float>::max();
  42:C:/Renesas/e2studio_2021_01_workspace_RZA2M_ANPR/ANPR_RZA2M_EBK/src/tensorflow_lite/tensorflow/lite/kernels/internal\common.h ****       break;
  43:C:/Renesas/e2studio_2021_01_workspace_RZA2M_ANPR/ANPR_RZA2M_EBK/src/tensorflow_lite/tensorflow/lite/kernels/internal\common.h ****     case FusedActivationFunctionType::kRelu:
  44:C:/Renesas/e2studio_2021_01_workspace_RZA2M_ANPR/ANPR_RZA2M_EBK/src/tensorflow_lite/tensorflow/lite/kernels/internal\common.h ****       *output_activation_min = 0.f;
  45:C:/Renesas/e2studio_2021_01_workspace_RZA2M_ANPR/ANPR_RZA2M_EBK/src/tensorflow_lite/tensorflow/lite/kernels/internal\common.h ****       *output_activation_max = std::numeric_limits<float>::max();
  46:C:/Renesas/e2studio_2021_01_workspace_RZA2M_ANPR/ANPR_RZA2M_EBK/src/tensorflow_lite/tensorflow/lite/kernels/internal\common.h ****       break;
  47:C:/Renesas/e2studio_2021_01_workspace_RZA2M_ANPR/ANPR_RZA2M_EBK/src/tensorflow_lite/tensorflow/lite/kernels/internal\common.h ****     case FusedActivationFunctionType::kRelu1:
  48:C:/Renesas/e2studio_2021_01_workspace_RZA2M_ANPR/ANPR_RZA2M_EBK/src/tensorflow_lite/tensorflow/lite/kernels/internal\common.h ****       *output_activation_min = -1.f;
  49:C:/Renesas/e2studio_2021_01_workspace_RZA2M_ANPR/ANPR_RZA2M_EBK/src/tensorflow_lite/tensorflow/lite/kernels/internal\common.h ****       *output_activation_max = 1.f;
  50:C:/Renesas/e2studio_2021_01_workspace_RZA2M_ANPR/ANPR_RZA2M_EBK/src/tensorflow_lite/tensorflow/lite/kernels/internal\common.h ****       break;
  51:C:/Renesas/e2studio_2021_01_workspace_RZA2M_ANPR/ANPR_RZA2M_EBK/src/tensorflow_lite/tensorflow/lite/kernels/internal\common.h ****     case FusedActivationFunctionType::kRelu6:
  52:C:/Renesas/e2studio_2021_01_workspace_RZA2M_ANPR/ANPR_RZA2M_EBK/src/tensorflow_lite/tensorflow/lite/kernels/internal\common.h ****       *output_activation_min = 0.f;
  53:C:/Renesas/e2studio_2021_01_workspace_RZA2M_ANPR/ANPR_RZA2M_EBK/src/tensorflow_lite/tensorflow/lite/kernels/internal\common.h ****       *output_activation_max = 6.f;
  54:C:/Renesas/e2studio_2021_01_workspace_RZA2M_ANPR/ANPR_RZA2M_EBK/src/tensorflow_lite/tensorflow/lite/kernels/internal\common.h ****       break;
  55:C:/Renesas/e2studio_2021_01_workspace_RZA2M_ANPR/ANPR_RZA2M_EBK/src/tensorflow_lite/tensorflow/lite/kernels/internal\common.h ****   }
  56:C:/Renesas/e2studio_2021_01_workspace_RZA2M_ANPR/ANPR_RZA2M_EBK/src/tensorflow_lite/tensorflow/lite/kernels/internal\common.h **** }
  57:C:/Renesas/e2studio_2021_01_workspace_RZA2M_ANPR/ANPR_RZA2M_EBK/src/tensorflow_lite/tensorflow/lite/kernels/internal\common.h **** 
  58:C:/Renesas/e2studio_2021_01_workspace_RZA2M_ANPR/ANPR_RZA2M_EBK/src/tensorflow_lite/tensorflow/lite/kernels/internal\common.h **** template <typename T>
  59:C:/Renesas/e2studio_2021_01_workspace_RZA2M_ANPR/ANPR_RZA2M_EBK/src/tensorflow_lite/tensorflow/lite/kernels/internal\common.h **** inline T ActivationFunctionWithMinMax(T x, T output_activation_min,
  60:C:/Renesas/e2studio_2021_01_workspace_RZA2M_ANPR/ANPR_RZA2M_EBK/src/tensorflow_lite/tensorflow/lite/kernels/internal\common.h ****                                       T output_activation_max) {
  61:C:/Renesas/e2studio_2021_01_workspace_RZA2M_ANPR/ANPR_RZA2M_EBK/src/tensorflow_lite/tensorflow/lite/kernels/internal\common.h ****   using std::max;
  62:C:/Renesas/e2studio_2021_01_workspace_RZA2M_ANPR/ANPR_RZA2M_EBK/src/tensorflow_lite/tensorflow/lite/kernels/internal\common.h ****   using std::min;
  63:C:/Renesas/e2studio_2021_01_workspace_RZA2M_ANPR/ANPR_RZA2M_EBK/src/tensorflow_lite/tensorflow/lite/kernels/internal\common.h ****   return min(max(x, output_activation_min), output_activation_max);
  64:C:/Renesas/e2studio_2021_01_workspace_RZA2M_ANPR/ANPR_RZA2M_EBK/src/tensorflow_lite/tensorflow/lite/kernels/internal\common.h **** }
  65:C:/Renesas/e2studio_2021_01_workspace_RZA2M_ANPR/ANPR_RZA2M_EBK/src/tensorflow_lite/tensorflow/lite/kernels/internal\common.h **** 
  66:C:/Renesas/e2studio_2021_01_workspace_RZA2M_ANPR/ANPR_RZA2M_EBK/src/tensorflow_lite/tensorflow/lite/kernels/internal\common.h **** // Legacy function, left for compatibility only.
  67:C:/Renesas/e2studio_2021_01_workspace_RZA2M_ANPR/ANPR_RZA2M_EBK/src/tensorflow_lite/tensorflow/lite/kernels/internal\common.h **** template <FusedActivationFunctionType Ac>
  68:C:/Renesas/e2studio_2021_01_workspace_RZA2M_ANPR/ANPR_RZA2M_EBK/src/tensorflow_lite/tensorflow/lite/kernels/internal\common.h **** float ActivationFunction(float x) {
  69:C:/Renesas/e2studio_2021_01_workspace_RZA2M_ANPR/ANPR_RZA2M_EBK/src/tensorflow_lite/tensorflow/lite/kernels/internal\common.h ****   float output_activation_min, output_activation_max;
  70:C:/Renesas/e2studio_2021_01_workspace_RZA2M_ANPR/ANPR_RZA2M_EBK/src/tensorflow_lite/tensorflow/lite/kernels/internal\common.h ****   GetActivationMinMax(Ac, &output_activation_min, &output_activation_max);
  71:C:/Renesas/e2studio_2021_01_workspace_RZA2M_ANPR/ANPR_RZA2M_EBK/src/tensorflow_lite/tensorflow/lite/kernels/internal\common.h ****   return ActivationFunctionWithMinMax(x, output_activation_min,
  72:C:/Renesas/e2studio_2021_01_workspace_RZA2M_ANPR/ANPR_RZA2M_EBK/src/tensorflow_lite/tensorflow/lite/kernels/internal\common.h ****                                       output_activation_max);
  73:C:/Renesas/e2studio_2021_01_workspace_RZA2M_ANPR/ANPR_RZA2M_EBK/src/tensorflow_lite/tensorflow/lite/kernels/internal\common.h **** }
  74:C:/Renesas/e2studio_2021_01_workspace_RZA2M_ANPR/ANPR_RZA2M_EBK/src/tensorflow_lite/tensorflow/lite/kernels/internal\common.h **** 
  75:C:/Renesas/e2studio_2021_01_workspace_RZA2M_ANPR/ANPR_RZA2M_EBK/src/tensorflow_lite/tensorflow/lite/kernels/internal\common.h **** inline void BiasAndClamp(float clamp_min, float clamp_max, int bias_size,
  76:C:/Renesas/e2studio_2021_01_workspace_RZA2M_ANPR/ANPR_RZA2M_EBK/src/tensorflow_lite/tensorflow/lite/kernels/internal\common.h ****                          const float* bias_data, int array_size,
  77:C:/Renesas/e2studio_2021_01_workspace_RZA2M_ANPR/ANPR_RZA2M_EBK/src/tensorflow_lite/tensorflow/lite/kernels/internal\common.h ****                          float* array_data) {
  78:C:/Renesas/e2studio_2021_01_workspace_RZA2M_ANPR/ANPR_RZA2M_EBK/src/tensorflow_lite/tensorflow/lite/kernels/internal\common.h ****   // Note: see b/132215220: in May 2019 we thought it would be OK to replace
  79:C:/Renesas/e2studio_2021_01_workspace_RZA2M_ANPR/ANPR_RZA2M_EBK/src/tensorflow_lite/tensorflow/lite/kernels/internal\common.h ****   // this with the Eigen one-liner:
  80:C:/Renesas/e2studio_2021_01_workspace_RZA2M_ANPR/ANPR_RZA2M_EBK/src/tensorflow_lite/tensorflow/lite/kernels/internal\common.h ****   //   return (array.colwise() + bias).cwiseMin(clamp_max).cwiseMin(clamp_max).
  81:C:/Renesas/e2studio_2021_01_workspace_RZA2M_ANPR/ANPR_RZA2M_EBK/src/tensorflow_lite/tensorflow/lite/kernels/internal\common.h ****   // This turned out to severely regress performance: +4ms (i.e. 8%) on
  82:C:/Renesas/e2studio_2021_01_workspace_RZA2M_ANPR/ANPR_RZA2M_EBK/src/tensorflow_lite/tensorflow/lite/kernels/internal\common.h ****   // MobileNet v2 / 1.0 / 224. So we keep custom NEON code for now.
  83:C:/Renesas/e2studio_2021_01_workspace_RZA2M_ANPR/ANPR_RZA2M_EBK/src/tensorflow_lite/tensorflow/lite/kernels/internal\common.h ****   TFLITE_DCHECK_EQ((array_size % bias_size), 0);
  84:C:/Renesas/e2studio_2021_01_workspace_RZA2M_ANPR/ANPR_RZA2M_EBK/src/tensorflow_lite/tensorflow/lite/kernels/internal\common.h **** #ifdef USE_NEON
  85:C:/Renesas/e2studio_2021_01_workspace_RZA2M_ANPR/ANPR_RZA2M_EBK/src/tensorflow_lite/tensorflow/lite/kernels/internal\common.h ****   float* array_ptr = array_data;
  86:C:/Renesas/e2studio_2021_01_workspace_RZA2M_ANPR/ANPR_RZA2M_EBK/src/tensorflow_lite/tensorflow/lite/kernels/internal\common.h ****   float* array_end_ptr = array_ptr + array_size;
  87:C:/Renesas/e2studio_2021_01_workspace_RZA2M_ANPR/ANPR_RZA2M_EBK/src/tensorflow_lite/tensorflow/lite/kernels/internal\common.h ****   const auto clamp_min_vec = vdupq_n_f32(clamp_min);
  88:C:/Renesas/e2studio_2021_01_workspace_RZA2M_ANPR/ANPR_RZA2M_EBK/src/tensorflow_lite/tensorflow/lite/kernels/internal\common.h ****   const auto clamp_max_vec = vdupq_n_f32(clamp_max);
  89:C:/Renesas/e2studio_2021_01_workspace_RZA2M_ANPR/ANPR_RZA2M_EBK/src/tensorflow_lite/tensorflow/lite/kernels/internal\common.h ****   for (; array_ptr != array_end_ptr; array_ptr += bias_size) {
  90:C:/Renesas/e2studio_2021_01_workspace_RZA2M_ANPR/ANPR_RZA2M_EBK/src/tensorflow_lite/tensorflow/lite/kernels/internal\common.h ****     int i = 0;
  91:C:/Renesas/e2studio_2021_01_workspace_RZA2M_ANPR/ANPR_RZA2M_EBK/src/tensorflow_lite/tensorflow/lite/kernels/internal\common.h ****     for (; i <= bias_size - 16; i += 16) {
  92:C:/Renesas/e2studio_2021_01_workspace_RZA2M_ANPR/ANPR_RZA2M_EBK/src/tensorflow_lite/tensorflow/lite/kernels/internal\common.h ****       auto b0 = vld1q_f32(bias_data + i);
  93:C:/Renesas/e2studio_2021_01_workspace_RZA2M_ANPR/ANPR_RZA2M_EBK/src/tensorflow_lite/tensorflow/lite/kernels/internal\common.h ****       auto b1 = vld1q_f32(bias_data + i + 4);
  94:C:/Renesas/e2studio_2021_01_workspace_RZA2M_ANPR/ANPR_RZA2M_EBK/src/tensorflow_lite/tensorflow/lite/kernels/internal\common.h ****       auto b2 = vld1q_f32(bias_data + i + 8);
  95:C:/Renesas/e2studio_2021_01_workspace_RZA2M_ANPR/ANPR_RZA2M_EBK/src/tensorflow_lite/tensorflow/lite/kernels/internal\common.h ****       auto b3 = vld1q_f32(bias_data + i + 12);
  96:C:/Renesas/e2studio_2021_01_workspace_RZA2M_ANPR/ANPR_RZA2M_EBK/src/tensorflow_lite/tensorflow/lite/kernels/internal\common.h ****       auto a0 = vld1q_f32(array_ptr + i);
  97:C:/Renesas/e2studio_2021_01_workspace_RZA2M_ANPR/ANPR_RZA2M_EBK/src/tensorflow_lite/tensorflow/lite/kernels/internal\common.h ****       auto a1 = vld1q_f32(array_ptr + i + 4);
  98:C:/Renesas/e2studio_2021_01_workspace_RZA2M_ANPR/ANPR_RZA2M_EBK/src/tensorflow_lite/tensorflow/lite/kernels/internal\common.h ****       auto a2 = vld1q_f32(array_ptr + i + 8);
  99:C:/Renesas/e2studio_2021_01_workspace_RZA2M_ANPR/ANPR_RZA2M_EBK/src/tensorflow_lite/tensorflow/lite/kernels/internal\common.h ****       auto a3 = vld1q_f32(array_ptr + i + 12);
 100:C:/Renesas/e2studio_2021_01_workspace_RZA2M_ANPR/ANPR_RZA2M_EBK/src/tensorflow_lite/tensorflow/lite/kernels/internal\common.h ****       auto x0 = vaddq_f32(a0, b0);
 101:C:/Renesas/e2studio_2021_01_workspace_RZA2M_ANPR/ANPR_RZA2M_EBK/src/tensorflow_lite/tensorflow/lite/kernels/internal\common.h ****       auto x1 = vaddq_f32(a1, b1);
 102:C:/Renesas/e2studio_2021_01_workspace_RZA2M_ANPR/ANPR_RZA2M_EBK/src/tensorflow_lite/tensorflow/lite/kernels/internal\common.h ****       auto x2 = vaddq_f32(a2, b2);
 103:C:/Renesas/e2studio_2021_01_workspace_RZA2M_ANPR/ANPR_RZA2M_EBK/src/tensorflow_lite/tensorflow/lite/kernels/internal\common.h ****       auto x3 = vaddq_f32(a3, b3);
 104:C:/Renesas/e2studio_2021_01_workspace_RZA2M_ANPR/ANPR_RZA2M_EBK/src/tensorflow_lite/tensorflow/lite/kernels/internal\common.h ****       x0 = vmaxq_f32(clamp_min_vec, x0);
 105:C:/Renesas/e2studio_2021_01_workspace_RZA2M_ANPR/ANPR_RZA2M_EBK/src/tensorflow_lite/tensorflow/lite/kernels/internal\common.h ****       x1 = vmaxq_f32(clamp_min_vec, x1);
 106:C:/Renesas/e2studio_2021_01_workspace_RZA2M_ANPR/ANPR_RZA2M_EBK/src/tensorflow_lite/tensorflow/lite/kernels/internal\common.h ****       x2 = vmaxq_f32(clamp_min_vec, x2);
 107:C:/Renesas/e2studio_2021_01_workspace_RZA2M_ANPR/ANPR_RZA2M_EBK/src/tensorflow_lite/tensorflow/lite/kernels/internal\common.h ****       x3 = vmaxq_f32(clamp_min_vec, x3);
 108:C:/Renesas/e2studio_2021_01_workspace_RZA2M_ANPR/ANPR_RZA2M_EBK/src/tensorflow_lite/tensorflow/lite/kernels/internal\common.h ****       x0 = vminq_f32(clamp_max_vec, x0);
 109:C:/Renesas/e2studio_2021_01_workspace_RZA2M_ANPR/ANPR_RZA2M_EBK/src/tensorflow_lite/tensorflow/lite/kernels/internal\common.h ****       x1 = vminq_f32(clamp_max_vec, x1);
 110:C:/Renesas/e2studio_2021_01_workspace_RZA2M_ANPR/ANPR_RZA2M_EBK/src/tensorflow_lite/tensorflow/lite/kernels/internal\common.h ****       x2 = vminq_f32(clamp_max_vec, x2);
 111:C:/Renesas/e2studio_2021_01_workspace_RZA2M_ANPR/ANPR_RZA2M_EBK/src/tensorflow_lite/tensorflow/lite/kernels/internal\common.h ****       x3 = vminq_f32(clamp_max_vec, x3);
 112:C:/Renesas/e2studio_2021_01_workspace_RZA2M_ANPR/ANPR_RZA2M_EBK/src/tensorflow_lite/tensorflow/lite/kernels/internal\common.h ****       vst1q_f32(array_ptr + i, x0);
 113:C:/Renesas/e2studio_2021_01_workspace_RZA2M_ANPR/ANPR_RZA2M_EBK/src/tensorflow_lite/tensorflow/lite/kernels/internal\common.h ****       vst1q_f32(array_ptr + i + 4, x1);
 114:C:/Renesas/e2studio_2021_01_workspace_RZA2M_ANPR/ANPR_RZA2M_EBK/src/tensorflow_lite/tensorflow/lite/kernels/internal\common.h ****       vst1q_f32(array_ptr + i + 8, x2);
 115:C:/Renesas/e2studio_2021_01_workspace_RZA2M_ANPR/ANPR_RZA2M_EBK/src/tensorflow_lite/tensorflow/lite/kernels/internal\common.h ****       vst1q_f32(array_ptr + i + 12, x3);
 116:C:/Renesas/e2studio_2021_01_workspace_RZA2M_ANPR/ANPR_RZA2M_EBK/src/tensorflow_lite/tensorflow/lite/kernels/internal\common.h ****     }
 117:C:/Renesas/e2studio_2021_01_workspace_RZA2M_ANPR/ANPR_RZA2M_EBK/src/tensorflow_lite/tensorflow/lite/kernels/internal\common.h ****     for (; i <= bias_size - 4; i += 4) {
 118:C:/Renesas/e2studio_2021_01_workspace_RZA2M_ANPR/ANPR_RZA2M_EBK/src/tensorflow_lite/tensorflow/lite/kernels/internal\common.h ****       auto b = vld1q_f32(bias_data + i);
 119:C:/Renesas/e2studio_2021_01_workspace_RZA2M_ANPR/ANPR_RZA2M_EBK/src/tensorflow_lite/tensorflow/lite/kernels/internal\common.h ****       auto a = vld1q_f32(array_ptr + i);
 120:C:/Renesas/e2studio_2021_01_workspace_RZA2M_ANPR/ANPR_RZA2M_EBK/src/tensorflow_lite/tensorflow/lite/kernels/internal\common.h ****       auto x = vaddq_f32(a, b);
 121:C:/Renesas/e2studio_2021_01_workspace_RZA2M_ANPR/ANPR_RZA2M_EBK/src/tensorflow_lite/tensorflow/lite/kernels/internal\common.h ****       x = vmaxq_f32(clamp_min_vec, x);
 122:C:/Renesas/e2studio_2021_01_workspace_RZA2M_ANPR/ANPR_RZA2M_EBK/src/tensorflow_lite/tensorflow/lite/kernels/internal\common.h ****       x = vminq_f32(clamp_max_vec, x);
 123:C:/Renesas/e2studio_2021_01_workspace_RZA2M_ANPR/ANPR_RZA2M_EBK/src/tensorflow_lite/tensorflow/lite/kernels/internal\common.h ****       vst1q_f32(array_ptr + i, x);
 124:C:/Renesas/e2studio_2021_01_workspace_RZA2M_ANPR/ANPR_RZA2M_EBK/src/tensorflow_lite/tensorflow/lite/kernels/internal\common.h ****     }
 125:C:/Renesas/e2studio_2021_01_workspace_RZA2M_ANPR/ANPR_RZA2M_EBK/src/tensorflow_lite/tensorflow/lite/kernels/internal\common.h ****     for (; i < bias_size; i++) {
 126:C:/Renesas/e2studio_2021_01_workspace_RZA2M_ANPR/ANPR_RZA2M_EBK/src/tensorflow_lite/tensorflow/lite/kernels/internal\common.h ****       array_ptr[i] = ActivationFunctionWithMinMax(array_ptr[i] + bias_data[i],
 127:C:/Renesas/e2studio_2021_01_workspace_RZA2M_ANPR/ANPR_RZA2M_EBK/src/tensorflow_lite/tensorflow/lite/kernels/internal\common.h ****                                                   clamp_min, clamp_max);
 128:C:/Renesas/e2studio_2021_01_workspace_RZA2M_ANPR/ANPR_RZA2M_EBK/src/tensorflow_lite/tensorflow/lite/kernels/internal\common.h ****     }
 129:C:/Renesas/e2studio_2021_01_workspace_RZA2M_ANPR/ANPR_RZA2M_EBK/src/tensorflow_lite/tensorflow/lite/kernels/internal\common.h ****   }
 130:C:/Renesas/e2studio_2021_01_workspace_RZA2M_ANPR/ANPR_RZA2M_EBK/src/tensorflow_lite/tensorflow/lite/kernels/internal\common.h **** #else  // not NEON
 131:C:/Renesas/e2studio_2021_01_workspace_RZA2M_ANPR/ANPR_RZA2M_EBK/src/tensorflow_lite/tensorflow/lite/kernels/internal\common.h ****   for (int array_offset = 0; array_offset < array_size;
 132:C:/Renesas/e2studio_2021_01_workspace_RZA2M_ANPR/ANPR_RZA2M_EBK/src/tensorflow_lite/tensorflow/lite/kernels/internal\common.h ****        array_offset += bias_size) {
 133:C:/Renesas/e2studio_2021_01_workspace_RZA2M_ANPR/ANPR_RZA2M_EBK/src/tensorflow_lite/tensorflow/lite/kernels/internal\common.h ****     for (int i = 0; i < bias_size; i++) {
 134:C:/Renesas/e2studio_2021_01_workspace_RZA2M_ANPR/ANPR_RZA2M_EBK/src/tensorflow_lite/tensorflow/lite/kernels/internal\common.h ****       array_data[array_offset + i] = ActivationFunctionWithMinMax(
 135:C:/Renesas/e2studio_2021_01_workspace_RZA2M_ANPR/ANPR_RZA2M_EBK/src/tensorflow_lite/tensorflow/lite/kernels/internal\common.h ****           array_data[array_offset + i] + bias_data[i], clamp_min, clamp_max);
 136:C:/Renesas/e2studio_2021_01_workspace_RZA2M_ANPR/ANPR_RZA2M_EBK/src/tensorflow_lite/tensorflow/lite/kernels/internal\common.h ****     }
 137:C:/Renesas/e2studio_2021_01_workspace_RZA2M_ANPR/ANPR_RZA2M_EBK/src/tensorflow_lite/tensorflow/lite/kernels/internal\common.h ****   }
 138:C:/Renesas/e2studio_2021_01_workspace_RZA2M_ANPR/ANPR_RZA2M_EBK/src/tensorflow_lite/tensorflow/lite/kernels/internal\common.h **** #endif
 139:C:/Renesas/e2studio_2021_01_workspace_RZA2M_ANPR/ANPR_RZA2M_EBK/src/tensorflow_lite/tensorflow/lite/kernels/internal\common.h **** }
 140:C:/Renesas/e2studio_2021_01_workspace_RZA2M_ANPR/ANPR_RZA2M_EBK/src/tensorflow_lite/tensorflow/lite/kernels/internal\common.h **** 
 141:C:/Renesas/e2studio_2021_01_workspace_RZA2M_ANPR/ANPR_RZA2M_EBK/src/tensorflow_lite/tensorflow/lite/kernels/internal\common.h **** inline int32_t MultiplyByQuantizedMultiplierSmallerThanOneExp(
 142:C:/Renesas/e2studio_2021_01_workspace_RZA2M_ANPR/ANPR_RZA2M_EBK/src/tensorflow_lite/tensorflow/lite/kernels/internal\common.h ****     int32_t x, int32_t quantized_multiplier, int left_shift) {
 143:C:/Renesas/e2studio_2021_01_workspace_RZA2M_ANPR/ANPR_RZA2M_EBK/src/tensorflow_lite/tensorflow/lite/kernels/internal\common.h ****   using gemmlowp::RoundingDivideByPOT;
 144:C:/Renesas/e2studio_2021_01_workspace_RZA2M_ANPR/ANPR_RZA2M_EBK/src/tensorflow_lite/tensorflow/lite/kernels/internal\common.h ****   using gemmlowp::SaturatingRoundingDoublingHighMul;
 145:C:/Renesas/e2studio_2021_01_workspace_RZA2M_ANPR/ANPR_RZA2M_EBK/src/tensorflow_lite/tensorflow/lite/kernels/internal\common.h ****   return RoundingDivideByPOT(
 146:C:/Renesas/e2studio_2021_01_workspace_RZA2M_ANPR/ANPR_RZA2M_EBK/src/tensorflow_lite/tensorflow/lite/kernels/internal\common.h ****       SaturatingRoundingDoublingHighMul(x, quantized_multiplier), -left_shift);
 147:C:/Renesas/e2studio_2021_01_workspace_RZA2M_ANPR/ANPR_RZA2M_EBK/src/tensorflow_lite/tensorflow/lite/kernels/internal\common.h **** }
 148:C:/Renesas/e2studio_2021_01_workspace_RZA2M_ANPR/ANPR_RZA2M_EBK/src/tensorflow_lite/tensorflow/lite/kernels/internal\common.h **** 
 149:C:/Renesas/e2studio_2021_01_workspace_RZA2M_ANPR/ANPR_RZA2M_EBK/src/tensorflow_lite/tensorflow/lite/kernels/internal\common.h **** inline int32_t MultiplyByQuantizedMultiplierGreaterThanOne(
 150:C:/Renesas/e2studio_2021_01_workspace_RZA2M_ANPR/ANPR_RZA2M_EBK/src/tensorflow_lite/tensorflow/lite/kernels/internal\common.h ****     int32_t x, int32_t quantized_multiplier, int left_shift) {
 151:C:/Renesas/e2studio_2021_01_workspace_RZA2M_ANPR/ANPR_RZA2M_EBK/src/tensorflow_lite/tensorflow/lite/kernels/internal\common.h ****   using gemmlowp::SaturatingRoundingDoublingHighMul;
 152:C:/Renesas/e2studio_2021_01_workspace_RZA2M_ANPR/ANPR_RZA2M_EBK/src/tensorflow_lite/tensorflow/lite/kernels/internal\common.h ****   return SaturatingRoundingDoublingHighMul(x * (1 << left_shift),
 153:C:/Renesas/e2studio_2021_01_workspace_RZA2M_ANPR/ANPR_RZA2M_EBK/src/tensorflow_lite/tensorflow/lite/kernels/internal\common.h ****                                            quantized_multiplier);
 154:C:/Renesas/e2studio_2021_01_workspace_RZA2M_ANPR/ANPR_RZA2M_EBK/src/tensorflow_lite/tensorflow/lite/kernels/internal\common.h **** }
 155:C:/Renesas/e2studio_2021_01_workspace_RZA2M_ANPR/ANPR_RZA2M_EBK/src/tensorflow_lite/tensorflow/lite/kernels/internal\common.h **** 
 156:C:/Renesas/e2studio_2021_01_workspace_RZA2M_ANPR/ANPR_RZA2M_EBK/src/tensorflow_lite/tensorflow/lite/kernels/internal\common.h **** inline int32_t MultiplyByQuantizedMultiplier(int32_t x,
 157:C:/Renesas/e2studio_2021_01_workspace_RZA2M_ANPR/ANPR_RZA2M_EBK/src/tensorflow_lite/tensorflow/lite/kernels/internal\common.h ****                                              int32_t quantized_multiplier,
 158:C:/Renesas/e2studio_2021_01_workspace_RZA2M_ANPR/ANPR_RZA2M_EBK/src/tensorflow_lite/tensorflow/lite/kernels/internal\common.h ****                                              int shift) {
 159:C:/Renesas/e2studio_2021_01_workspace_RZA2M_ANPR/ANPR_RZA2M_EBK/src/tensorflow_lite/tensorflow/lite/kernels/internal\common.h ****   using gemmlowp::RoundingDivideByPOT;
 160:C:/Renesas/e2studio_2021_01_workspace_RZA2M_ANPR/ANPR_RZA2M_EBK/src/tensorflow_lite/tensorflow/lite/kernels/internal\common.h ****   using gemmlowp::SaturatingRoundingDoublingHighMul;
 161:C:/Renesas/e2studio_2021_01_workspace_RZA2M_ANPR/ANPR_RZA2M_EBK/src/tensorflow_lite/tensorflow/lite/kernels/internal\common.h ****   int left_shift = shift > 0 ? shift : 0;
 162:C:/Renesas/e2studio_2021_01_workspace_RZA2M_ANPR/ANPR_RZA2M_EBK/src/tensorflow_lite/tensorflow/lite/kernels/internal\common.h ****   int right_shift = shift > 0 ? 0 : -shift;
 163:C:/Renesas/e2studio_2021_01_workspace_RZA2M_ANPR/ANPR_RZA2M_EBK/src/tensorflow_lite/tensorflow/lite/kernels/internal\common.h ****   return RoundingDivideByPOT(SaturatingRoundingDoublingHighMul(
 164:C:/Renesas/e2studio_2021_01_workspace_RZA2M_ANPR/ANPR_RZA2M_EBK/src/tensorflow_lite/tensorflow/lite/kernels/internal\common.h ****                                  x * (1 << left_shift), quantized_multiplier),
 165:C:/Renesas/e2studio_2021_01_workspace_RZA2M_ANPR/ANPR_RZA2M_EBK/src/tensorflow_lite/tensorflow/lite/kernels/internal\common.h ****                              right_shift);
 166:C:/Renesas/e2studio_2021_01_workspace_RZA2M_ANPR/ANPR_RZA2M_EBK/src/tensorflow_lite/tensorflow/lite/kernels/internal\common.h **** }
 167:C:/Renesas/e2studio_2021_01_workspace_RZA2M_ANPR/ANPR_RZA2M_EBK/src/tensorflow_lite/tensorflow/lite/kernels/internal\common.h **** 
 168:C:/Renesas/e2studio_2021_01_workspace_RZA2M_ANPR/ANPR_RZA2M_EBK/src/tensorflow_lite/tensorflow/lite/kernels/internal\common.h **** inline int32_t MultiplyByQuantizedMultiplier(int64_t x,
 169:C:/Renesas/e2studio_2021_01_workspace_RZA2M_ANPR/ANPR_RZA2M_EBK/src/tensorflow_lite/tensorflow/lite/kernels/internal\common.h ****                                              int32_t quantized_multiplier,
 170:C:/Renesas/e2studio_2021_01_workspace_RZA2M_ANPR/ANPR_RZA2M_EBK/src/tensorflow_lite/tensorflow/lite/kernels/internal\common.h ****                                              int shift) {
 171:C:/Renesas/e2studio_2021_01_workspace_RZA2M_ANPR/ANPR_RZA2M_EBK/src/tensorflow_lite/tensorflow/lite/kernels/internal\common.h ****   // Inputs:
 172:C:/Renesas/e2studio_2021_01_workspace_RZA2M_ANPR/ANPR_RZA2M_EBK/src/tensorflow_lite/tensorflow/lite/kernels/internal\common.h ****   // - quantized_multiplier has fixed point at bit 31
 173:C:/Renesas/e2studio_2021_01_workspace_RZA2M_ANPR/ANPR_RZA2M_EBK/src/tensorflow_lite/tensorflow/lite/kernels/internal\common.h ****   // - shift is -31 to +7 (negative for right shift)
 174:C:/Renesas/e2studio_2021_01_workspace_RZA2M_ANPR/ANPR_RZA2M_EBK/src/tensorflow_lite/tensorflow/lite/kernels/internal\common.h ****   //
 175:C:/Renesas/e2studio_2021_01_workspace_RZA2M_ANPR/ANPR_RZA2M_EBK/src/tensorflow_lite/tensorflow/lite/kernels/internal\common.h ****   // Assumptions: The following input ranges are assumed
 176:C:/Renesas/e2studio_2021_01_workspace_RZA2M_ANPR/ANPR_RZA2M_EBK/src/tensorflow_lite/tensorflow/lite/kernels/internal\common.h ****   // - quantize_scale>=0  (the usual range is (1<<30) to (1>>31)-1)
 177:C:/Renesas/e2studio_2021_01_workspace_RZA2M_ANPR/ANPR_RZA2M_EBK/src/tensorflow_lite/tensorflow/lite/kernels/internal\common.h ****   // - scaling is chosen so final scaled result fits in int32_t
 178:C:/Renesas/e2studio_2021_01_workspace_RZA2M_ANPR/ANPR_RZA2M_EBK/src/tensorflow_lite/tensorflow/lite/kernels/internal\common.h ****   // - input x is in the range -(1<<47) <= x < (1<<47)
 179:C:/Renesas/e2studio_2021_01_workspace_RZA2M_ANPR/ANPR_RZA2M_EBK/src/tensorflow_lite/tensorflow/lite/kernels/internal\common.h ****   assert(quantized_multiplier >= 0);
 180:C:/Renesas/e2studio_2021_01_workspace_RZA2M_ANPR/ANPR_RZA2M_EBK/src/tensorflow_lite/tensorflow/lite/kernels/internal\common.h ****   assert(shift >= -31 && shift < 8);
 181:C:/Renesas/e2studio_2021_01_workspace_RZA2M_ANPR/ANPR_RZA2M_EBK/src/tensorflow_lite/tensorflow/lite/kernels/internal\common.h ****   assert(x >= -(static_cast<int64_t>(1) << 47) &&
 182:C:/Renesas/e2studio_2021_01_workspace_RZA2M_ANPR/ANPR_RZA2M_EBK/src/tensorflow_lite/tensorflow/lite/kernels/internal\common.h ****          x < (static_cast<int64_t>(1) << 47));
 183:C:/Renesas/e2studio_2021_01_workspace_RZA2M_ANPR/ANPR_RZA2M_EBK/src/tensorflow_lite/tensorflow/lite/kernels/internal\common.h **** 
 184:C:/Renesas/e2studio_2021_01_workspace_RZA2M_ANPR/ANPR_RZA2M_EBK/src/tensorflow_lite/tensorflow/lite/kernels/internal\common.h ****   int32_t reduced_multiplier = (quantized_multiplier < 0x7FFF0000)
 185:C:/Renesas/e2studio_2021_01_workspace_RZA2M_ANPR/ANPR_RZA2M_EBK/src/tensorflow_lite/tensorflow/lite/kernels/internal\common.h ****                                    ? ((quantized_multiplier + (1 << 15)) >> 16)
 186:C:/Renesas/e2studio_2021_01_workspace_RZA2M_ANPR/ANPR_RZA2M_EBK/src/tensorflow_lite/tensorflow/lite/kernels/internal\common.h ****                                    : 0x7FFF;
 187:C:/Renesas/e2studio_2021_01_workspace_RZA2M_ANPR/ANPR_RZA2M_EBK/src/tensorflow_lite/tensorflow/lite/kernels/internal\common.h ****   int total_shift = 15 - shift;
 188:C:/Renesas/e2studio_2021_01_workspace_RZA2M_ANPR/ANPR_RZA2M_EBK/src/tensorflow_lite/tensorflow/lite/kernels/internal\common.h ****   x = (x * (int64_t)reduced_multiplier) + ((int64_t)1 << (total_shift - 1));
 189:C:/Renesas/e2studio_2021_01_workspace_RZA2M_ANPR/ANPR_RZA2M_EBK/src/tensorflow_lite/tensorflow/lite/kernels/internal\common.h ****   int32_t result = x >> total_shift;
 190:C:/Renesas/e2studio_2021_01_workspace_RZA2M_ANPR/ANPR_RZA2M_EBK/src/tensorflow_lite/tensorflow/lite/kernels/internal\common.h ****   return result;
 191:C:/Renesas/e2studio_2021_01_workspace_RZA2M_ANPR/ANPR_RZA2M_EBK/src/tensorflow_lite/tensorflow/lite/kernels/internal\common.h **** }
 192:C:/Renesas/e2studio_2021_01_workspace_RZA2M_ANPR/ANPR_RZA2M_EBK/src/tensorflow_lite/tensorflow/lite/kernels/internal\common.h **** 
 193:C:/Renesas/e2studio_2021_01_workspace_RZA2M_ANPR/ANPR_RZA2M_EBK/src/tensorflow_lite/tensorflow/lite/kernels/internal\common.h **** #ifdef USE_NEON
 194:C:/Renesas/e2studio_2021_01_workspace_RZA2M_ANPR/ANPR_RZA2M_EBK/src/tensorflow_lite/tensorflow/lite/kernels/internal\common.h **** // Round uses ARM's rounding shift right.
 195:C:/Renesas/e2studio_2021_01_workspace_RZA2M_ANPR/ANPR_RZA2M_EBK/src/tensorflow_lite/tensorflow/lite/kernels/internal\common.h **** inline int32x4x4_t MultiplyByQuantizedMultiplier4Rows(
 196:C:/Renesas/e2studio_2021_01_workspace_RZA2M_ANPR/ANPR_RZA2M_EBK/src/tensorflow_lite/tensorflow/lite/kernels/internal\common.h ****     int32x4x4_t input_val, int32_t quantized_multiplier, int shift) {
 197:C:/Renesas/e2studio_2021_01_workspace_RZA2M_ANPR/ANPR_RZA2M_EBK/src/tensorflow_lite/tensorflow/lite/kernels/internal\common.h ****   const int left_shift = std::max(shift, 0);
 198:C:/Renesas/e2studio_2021_01_workspace_RZA2M_ANPR/ANPR_RZA2M_EBK/src/tensorflow_lite/tensorflow/lite/kernels/internal\common.h ****   const int right_shift = std::min(shift, 0);
 199:C:/Renesas/e2studio_2021_01_workspace_RZA2M_ANPR/ANPR_RZA2M_EBK/src/tensorflow_lite/tensorflow/lite/kernels/internal\common.h ****   int32x4x4_t result;
 200:C:/Renesas/e2studio_2021_01_workspace_RZA2M_ANPR/ANPR_RZA2M_EBK/src/tensorflow_lite/tensorflow/lite/kernels/internal\common.h **** 
 201:C:/Renesas/e2studio_2021_01_workspace_RZA2M_ANPR/ANPR_RZA2M_EBK/src/tensorflow_lite/tensorflow/lite/kernels/internal\common.h ****   int32x4_t multiplier_dup = vdupq_n_s32(quantized_multiplier);
 202:C:/Renesas/e2studio_2021_01_workspace_RZA2M_ANPR/ANPR_RZA2M_EBK/src/tensorflow_lite/tensorflow/lite/kernels/internal\common.h ****   int32x4_t left_shift_dup = vdupq_n_s32(left_shift);
 203:C:/Renesas/e2studio_2021_01_workspace_RZA2M_ANPR/ANPR_RZA2M_EBK/src/tensorflow_lite/tensorflow/lite/kernels/internal\common.h ****   int32x4_t right_shift_dup = vdupq_n_s32(right_shift);
 204:C:/Renesas/e2studio_2021_01_workspace_RZA2M_ANPR/ANPR_RZA2M_EBK/src/tensorflow_lite/tensorflow/lite/kernels/internal\common.h **** 
 205:C:/Renesas/e2studio_2021_01_workspace_RZA2M_ANPR/ANPR_RZA2M_EBK/src/tensorflow_lite/tensorflow/lite/kernels/internal\common.h ****   result.val[0] =
 206:C:/Renesas/e2studio_2021_01_workspace_RZA2M_ANPR/ANPR_RZA2M_EBK/src/tensorflow_lite/tensorflow/lite/kernels/internal\common.h ****       vrshlq_s32(vqrdmulhq_s32(vshlq_s32(input_val.val[0], left_shift_dup),
 207:C:/Renesas/e2studio_2021_01_workspace_RZA2M_ANPR/ANPR_RZA2M_EBK/src/tensorflow_lite/tensorflow/lite/kernels/internal\common.h ****                                multiplier_dup),
 208:C:/Renesas/e2studio_2021_01_workspace_RZA2M_ANPR/ANPR_RZA2M_EBK/src/tensorflow_lite/tensorflow/lite/kernels/internal\common.h ****                  right_shift_dup);
 209:C:/Renesas/e2studio_2021_01_workspace_RZA2M_ANPR/ANPR_RZA2M_EBK/src/tensorflow_lite/tensorflow/lite/kernels/internal\common.h **** 
 210:C:/Renesas/e2studio_2021_01_workspace_RZA2M_ANPR/ANPR_RZA2M_EBK/src/tensorflow_lite/tensorflow/lite/kernels/internal\common.h ****   result.val[1] =
 211:C:/Renesas/e2studio_2021_01_workspace_RZA2M_ANPR/ANPR_RZA2M_EBK/src/tensorflow_lite/tensorflow/lite/kernels/internal\common.h ****       vrshlq_s32(vqrdmulhq_s32(vshlq_s32(input_val.val[1], left_shift_dup),
 212:C:/Renesas/e2studio_2021_01_workspace_RZA2M_ANPR/ANPR_RZA2M_EBK/src/tensorflow_lite/tensorflow/lite/kernels/internal\common.h ****                                multiplier_dup),
 213:C:/Renesas/e2studio_2021_01_workspace_RZA2M_ANPR/ANPR_RZA2M_EBK/src/tensorflow_lite/tensorflow/lite/kernels/internal\common.h ****                  right_shift_dup);
 214:C:/Renesas/e2studio_2021_01_workspace_RZA2M_ANPR/ANPR_RZA2M_EBK/src/tensorflow_lite/tensorflow/lite/kernels/internal\common.h **** 
 215:C:/Renesas/e2studio_2021_01_workspace_RZA2M_ANPR/ANPR_RZA2M_EBK/src/tensorflow_lite/tensorflow/lite/kernels/internal\common.h ****   result.val[2] =
 216:C:/Renesas/e2studio_2021_01_workspace_RZA2M_ANPR/ANPR_RZA2M_EBK/src/tensorflow_lite/tensorflow/lite/kernels/internal\common.h ****       vrshlq_s32(vqrdmulhq_s32(vshlq_s32(input_val.val[2], left_shift_dup),
 217:C:/Renesas/e2studio_2021_01_workspace_RZA2M_ANPR/ANPR_RZA2M_EBK/src/tensorflow_lite/tensorflow/lite/kernels/internal\common.h ****                                multiplier_dup),
 218:C:/Renesas/e2studio_2021_01_workspace_RZA2M_ANPR/ANPR_RZA2M_EBK/src/tensorflow_lite/tensorflow/lite/kernels/internal\common.h ****                  right_shift_dup);
 219:C:/Renesas/e2studio_2021_01_workspace_RZA2M_ANPR/ANPR_RZA2M_EBK/src/tensorflow_lite/tensorflow/lite/kernels/internal\common.h **** 
 220:C:/Renesas/e2studio_2021_01_workspace_RZA2M_ANPR/ANPR_RZA2M_EBK/src/tensorflow_lite/tensorflow/lite/kernels/internal\common.h ****   result.val[3] =
 221:C:/Renesas/e2studio_2021_01_workspace_RZA2M_ANPR/ANPR_RZA2M_EBK/src/tensorflow_lite/tensorflow/lite/kernels/internal\common.h ****       vrshlq_s32(vqrdmulhq_s32(vshlq_s32(input_val.val[3], left_shift_dup),
 222:C:/Renesas/e2studio_2021_01_workspace_RZA2M_ANPR/ANPR_RZA2M_EBK/src/tensorflow_lite/tensorflow/lite/kernels/internal\common.h ****                                multiplier_dup),
 223:C:/Renesas/e2studio_2021_01_workspace_RZA2M_ANPR/ANPR_RZA2M_EBK/src/tensorflow_lite/tensorflow/lite/kernels/internal\common.h ****                  right_shift_dup);
 224:C:/Renesas/e2studio_2021_01_workspace_RZA2M_ANPR/ANPR_RZA2M_EBK/src/tensorflow_lite/tensorflow/lite/kernels/internal\common.h **** 
 225:C:/Renesas/e2studio_2021_01_workspace_RZA2M_ANPR/ANPR_RZA2M_EBK/src/tensorflow_lite/tensorflow/lite/kernels/internal\common.h ****   return result;
 226:C:/Renesas/e2studio_2021_01_workspace_RZA2M_ANPR/ANPR_RZA2M_EBK/src/tensorflow_lite/tensorflow/lite/kernels/internal\common.h **** }
 227:C:/Renesas/e2studio_2021_01_workspace_RZA2M_ANPR/ANPR_RZA2M_EBK/src/tensorflow_lite/tensorflow/lite/kernels/internal\common.h **** #endif
 228:C:/Renesas/e2studio_2021_01_workspace_RZA2M_ANPR/ANPR_RZA2M_EBK/src/tensorflow_lite/tensorflow/lite/kernels/internal\common.h **** 
 229:C:/Renesas/e2studio_2021_01_workspace_RZA2M_ANPR/ANPR_RZA2M_EBK/src/tensorflow_lite/tensorflow/lite/kernels/internal\common.h **** template <typename T>
 230:C:/Renesas/e2studio_2021_01_workspace_RZA2M_ANPR/ANPR_RZA2M_EBK/src/tensorflow_lite/tensorflow/lite/kernels/internal\common.h **** int CountLeadingZeros(T integer_input) {
 231:C:/Renesas/e2studio_2021_01_workspace_RZA2M_ANPR/ANPR_RZA2M_EBK/src/tensorflow_lite/tensorflow/lite/kernels/internal\common.h ****   static_assert(std::is_unsigned<T>::value,
 232:C:/Renesas/e2studio_2021_01_workspace_RZA2M_ANPR/ANPR_RZA2M_EBK/src/tensorflow_lite/tensorflow/lite/kernels/internal\common.h ****                 "Only unsigned integer types handled.");
 233:C:/Renesas/e2studio_2021_01_workspace_RZA2M_ANPR/ANPR_RZA2M_EBK/src/tensorflow_lite/tensorflow/lite/kernels/internal\common.h **** #if defined(__GNUC__)
 234:C:/Renesas/e2studio_2021_01_workspace_RZA2M_ANPR/ANPR_RZA2M_EBK/src/tensorflow_lite/tensorflow/lite/kernels/internal\common.h ****   return integer_input ? __builtin_clz(integer_input)
 235:C:/Renesas/e2studio_2021_01_workspace_RZA2M_ANPR/ANPR_RZA2M_EBK/src/tensorflow_lite/tensorflow/lite/kernels/internal\common.h ****                        : std::numeric_limits<T>::digits;
 236:C:/Renesas/e2studio_2021_01_workspace_RZA2M_ANPR/ANPR_RZA2M_EBK/src/tensorflow_lite/tensorflow/lite/kernels/internal\common.h **** #else
 237:C:/Renesas/e2studio_2021_01_workspace_RZA2M_ANPR/ANPR_RZA2M_EBK/src/tensorflow_lite/tensorflow/lite/kernels/internal\common.h ****   if (integer_input == 0) {
 238:C:/Renesas/e2studio_2021_01_workspace_RZA2M_ANPR/ANPR_RZA2M_EBK/src/tensorflow_lite/tensorflow/lite/kernels/internal\common.h ****     return std::numeric_limits<T>::digits;
 239:C:/Renesas/e2studio_2021_01_workspace_RZA2M_ANPR/ANPR_RZA2M_EBK/src/tensorflow_lite/tensorflow/lite/kernels/internal\common.h ****   }
 240:C:/Renesas/e2studio_2021_01_workspace_RZA2M_ANPR/ANPR_RZA2M_EBK/src/tensorflow_lite/tensorflow/lite/kernels/internal\common.h **** 
 241:C:/Renesas/e2studio_2021_01_workspace_RZA2M_ANPR/ANPR_RZA2M_EBK/src/tensorflow_lite/tensorflow/lite/kernels/internal\common.h ****   const T one_in_leading_positive = static_cast<T>(1)
 242:C:/Renesas/e2studio_2021_01_workspace_RZA2M_ANPR/ANPR_RZA2M_EBK/src/tensorflow_lite/tensorflow/lite/kernels/internal\common.h ****                                     << (std::numeric_limits<T>::digits - 1);
 243:C:/Renesas/e2studio_2021_01_workspace_RZA2M_ANPR/ANPR_RZA2M_EBK/src/tensorflow_lite/tensorflow/lite/kernels/internal\common.h ****   int leading_zeros = 0;
 244:C:/Renesas/e2studio_2021_01_workspace_RZA2M_ANPR/ANPR_RZA2M_EBK/src/tensorflow_lite/tensorflow/lite/kernels/internal\common.h ****   while (integer_input < one_in_leading_positive) {
 245:C:/Renesas/e2studio_2021_01_workspace_RZA2M_ANPR/ANPR_RZA2M_EBK/src/tensorflow_lite/tensorflow/lite/kernels/internal\common.h ****     integer_input <<= 1;
 246:C:/Renesas/e2studio_2021_01_workspace_RZA2M_ANPR/ANPR_RZA2M_EBK/src/tensorflow_lite/tensorflow/lite/kernels/internal\common.h ****     ++leading_zeros;
 247:C:/Renesas/e2studio_2021_01_workspace_RZA2M_ANPR/ANPR_RZA2M_EBK/src/tensorflow_lite/tensorflow/lite/kernels/internal\common.h ****   }
 248:C:/Renesas/e2studio_2021_01_workspace_RZA2M_ANPR/ANPR_RZA2M_EBK/src/tensorflow_lite/tensorflow/lite/kernels/internal\common.h ****   return leading_zeros;
 249:C:/Renesas/e2studio_2021_01_workspace_RZA2M_ANPR/ANPR_RZA2M_EBK/src/tensorflow_lite/tensorflow/lite/kernels/internal\common.h **** #endif
 250:C:/Renesas/e2studio_2021_01_workspace_RZA2M_ANPR/ANPR_RZA2M_EBK/src/tensorflow_lite/tensorflow/lite/kernels/internal\common.h **** }
 251:C:/Renesas/e2studio_2021_01_workspace_RZA2M_ANPR/ANPR_RZA2M_EBK/src/tensorflow_lite/tensorflow/lite/kernels/internal\common.h **** 
 252:C:/Renesas/e2studio_2021_01_workspace_RZA2M_ANPR/ANPR_RZA2M_EBK/src/tensorflow_lite/tensorflow/lite/kernels/internal\common.h **** template <typename T>
 253:C:/Renesas/e2studio_2021_01_workspace_RZA2M_ANPR/ANPR_RZA2M_EBK/src/tensorflow_lite/tensorflow/lite/kernels/internal\common.h **** inline int CountLeadingSignBits(T integer_input) {
 254:C:/Renesas/e2studio_2021_01_workspace_RZA2M_ANPR/ANPR_RZA2M_EBK/src/tensorflow_lite/tensorflow/lite/kernels/internal\common.h ****   static_assert(std::is_signed<T>::value, "Only signed integer types handled.");
 255:C:/Renesas/e2studio_2021_01_workspace_RZA2M_ANPR/ANPR_RZA2M_EBK/src/tensorflow_lite/tensorflow/lite/kernels/internal\common.h **** #if defined(__GNUC__) && !defined(__clang__)
 256:C:/Renesas/e2studio_2021_01_workspace_RZA2M_ANPR/ANPR_RZA2M_EBK/src/tensorflow_lite/tensorflow/lite/kernels/internal\common.h ****   return integer_input ? __builtin_clrsb(integer_input)
 257:C:/Renesas/e2studio_2021_01_workspace_RZA2M_ANPR/ANPR_RZA2M_EBK/src/tensorflow_lite/tensorflow/lite/kernels/internal\common.h ****                        : std::numeric_limits<T>::digits;
 258:C:/Renesas/e2studio_2021_01_workspace_RZA2M_ANPR/ANPR_RZA2M_EBK/src/tensorflow_lite/tensorflow/lite/kernels/internal\common.h **** #else
 259:C:/Renesas/e2studio_2021_01_workspace_RZA2M_ANPR/ANPR_RZA2M_EBK/src/tensorflow_lite/tensorflow/lite/kernels/internal\common.h ****   using U = typename std::make_unsigned<T>::type;
 260:C:/Renesas/e2studio_2021_01_workspace_RZA2M_ANPR/ANPR_RZA2M_EBK/src/tensorflow_lite/tensorflow/lite/kernels/internal\common.h ****   return integer_input >= 0
 261:C:/Renesas/e2studio_2021_01_workspace_RZA2M_ANPR/ANPR_RZA2M_EBK/src/tensorflow_lite/tensorflow/lite/kernels/internal\common.h ****              ? CountLeadingZeros(static_cast<U>(integer_input)) - 1
 262:C:/Renesas/e2studio_2021_01_workspace_RZA2M_ANPR/ANPR_RZA2M_EBK/src/tensorflow_lite/tensorflow/lite/kernels/internal\common.h ****          : integer_input != std::numeric_limits<T>::min()
 263:C:/Renesas/e2studio_2021_01_workspace_RZA2M_ANPR/ANPR_RZA2M_EBK/src/tensorflow_lite/tensorflow/lite/kernels/internal\common.h ****              ? CountLeadingZeros(2 * static_cast<U>(-integer_input) - 1)
 264:C:/Renesas/e2studio_2021_01_workspace_RZA2M_ANPR/ANPR_RZA2M_EBK/src/tensorflow_lite/tensorflow/lite/kernels/internal\common.h ****              : 0;
 265:C:/Renesas/e2studio_2021_01_workspace_RZA2M_ANPR/ANPR_RZA2M_EBK/src/tensorflow_lite/tensorflow/lite/kernels/internal\common.h **** #endif
 266:C:/Renesas/e2studio_2021_01_workspace_RZA2M_ANPR/ANPR_RZA2M_EBK/src/tensorflow_lite/tensorflow/lite/kernels/internal\common.h **** }
 267:C:/Renesas/e2studio_2021_01_workspace_RZA2M_ANPR/ANPR_RZA2M_EBK/src/tensorflow_lite/tensorflow/lite/kernels/internal\common.h **** 
 268:C:/Renesas/e2studio_2021_01_workspace_RZA2M_ANPR/ANPR_RZA2M_EBK/src/tensorflow_lite/tensorflow/lite/kernels/internal\common.h **** // Use "count leading zeros" helper functions to do a fast Floor(log_2(x)).
 269:C:/Renesas/e2studio_2021_01_workspace_RZA2M_ANPR/ANPR_RZA2M_EBK/src/tensorflow_lite/tensorflow/lite/kernels/internal\common.h **** template <typename Integer>
 270:C:/Renesas/e2studio_2021_01_workspace_RZA2M_ANPR/ANPR_RZA2M_EBK/src/tensorflow_lite/tensorflow/lite/kernels/internal\common.h **** inline Integer FloorLog2(Integer n) {
 271:C:/Renesas/e2studio_2021_01_workspace_RZA2M_ANPR/ANPR_RZA2M_EBK/src/tensorflow_lite/tensorflow/lite/kernels/internal\common.h ****   static_assert(std::is_integral<Integer>::value, "");
 272:C:/Renesas/e2studio_2021_01_workspace_RZA2M_ANPR/ANPR_RZA2M_EBK/src/tensorflow_lite/tensorflow/lite/kernels/internal\common.h ****   static_assert(std::is_signed<Integer>::value, "");
 273:C:/Renesas/e2studio_2021_01_workspace_RZA2M_ANPR/ANPR_RZA2M_EBK/src/tensorflow_lite/tensorflow/lite/kernels/internal\common.h ****   static_assert(sizeof(Integer) == 4 || sizeof(Integer) == 8, "");
 274:C:/Renesas/e2studio_2021_01_workspace_RZA2M_ANPR/ANPR_RZA2M_EBK/src/tensorflow_lite/tensorflow/lite/kernels/internal\common.h ****   TFLITE_CHECK_GT(n, 0);
 275:C:/Renesas/e2studio_2021_01_workspace_RZA2M_ANPR/ANPR_RZA2M_EBK/src/tensorflow_lite/tensorflow/lite/kernels/internal\common.h ****   if (sizeof(Integer) == 4) {
 276:C:/Renesas/e2studio_2021_01_workspace_RZA2M_ANPR/ANPR_RZA2M_EBK/src/tensorflow_lite/tensorflow/lite/kernels/internal\common.h ****     return 30 - CountLeadingSignBits(n);
 277:C:/Renesas/e2studio_2021_01_workspace_RZA2M_ANPR/ANPR_RZA2M_EBK/src/tensorflow_lite/tensorflow/lite/kernels/internal\common.h ****   } else {
 278:C:/Renesas/e2studio_2021_01_workspace_RZA2M_ANPR/ANPR_RZA2M_EBK/src/tensorflow_lite/tensorflow/lite/kernels/internal\common.h ****     return 62 - CountLeadingSignBits(n);
 279:C:/Renesas/e2studio_2021_01_workspace_RZA2M_ANPR/ANPR_RZA2M_EBK/src/tensorflow_lite/tensorflow/lite/kernels/internal\common.h ****   }
 280:C:/Renesas/e2studio_2021_01_workspace_RZA2M_ANPR/ANPR_RZA2M_EBK/src/tensorflow_lite/tensorflow/lite/kernels/internal\common.h **** }
 281:C:/Renesas/e2studio_2021_01_workspace_RZA2M_ANPR/ANPR_RZA2M_EBK/src/tensorflow_lite/tensorflow/lite/kernels/internal\common.h **** 
 282:C:/Renesas/e2studio_2021_01_workspace_RZA2M_ANPR/ANPR_RZA2M_EBK/src/tensorflow_lite/tensorflow/lite/kernels/internal\common.h **** // generate INT16 LUT for function(), e.g., table exp(x) and 1/(1+x) used in
 283:C:/Renesas/e2studio_2021_01_workspace_RZA2M_ANPR/ANPR_RZA2M_EBK/src/tensorflow_lite/tensorflow/lite/kernels/internal\common.h **** // softmax
 284:C:/Renesas/e2studio_2021_01_workspace_RZA2M_ANPR/ANPR_RZA2M_EBK/src/tensorflow_lite/tensorflow/lite/kernels/internal\common.h **** // func - the function to build the LUT for (e.g exp(x))
 285:C:/Renesas/e2studio_2021_01_workspace_RZA2M_ANPR/ANPR_RZA2M_EBK/src/tensorflow_lite/tensorflow/lite/kernels/internal\common.h **** // min,max - table limits
 286:C:/Renesas/e2studio_2021_01_workspace_RZA2M_ANPR/ANPR_RZA2M_EBK/src/tensorflow_lite/tensorflow/lite/kernels/internal\common.h **** // table - pointer to buffer
 287:C:/Renesas/e2studio_2021_01_workspace_RZA2M_ANPR/ANPR_RZA2M_EBK/src/tensorflow_lite/tensorflow/lite/kernels/internal\common.h **** // num - number of elements in the LUT
 288:C:/Renesas/e2studio_2021_01_workspace_RZA2M_ANPR/ANPR_RZA2M_EBK/src/tensorflow_lite/tensorflow/lite/kernels/internal\common.h **** inline void gen_lut(double (*func)(double), double min, double max,
 289:C:/Renesas/e2studio_2021_01_workspace_RZA2M_ANPR/ANPR_RZA2M_EBK/src/tensorflow_lite/tensorflow/lite/kernels/internal\common.h ****                     int16_t* table, const int num) {
 290:C:/Renesas/e2studio_2021_01_workspace_RZA2M_ANPR/ANPR_RZA2M_EBK/src/tensorflow_lite/tensorflow/lite/kernels/internal\common.h ****   // size of table should equal to num + 1
 291:C:/Renesas/e2studio_2021_01_workspace_RZA2M_ANPR/ANPR_RZA2M_EBK/src/tensorflow_lite/tensorflow/lite/kernels/internal\common.h ****   // last element only for slope calculation
 292:C:/Renesas/e2studio_2021_01_workspace_RZA2M_ANPR/ANPR_RZA2M_EBK/src/tensorflow_lite/tensorflow/lite/kernels/internal\common.h ****   double step = (max - min) / (num - 1);
 293:C:/Renesas/e2studio_2021_01_workspace_RZA2M_ANPR/ANPR_RZA2M_EBK/src/tensorflow_lite/tensorflow/lite/kernels/internal\common.h ****   double half_step = step / 2.0;
 294:C:/Renesas/e2studio_2021_01_workspace_RZA2M_ANPR/ANPR_RZA2M_EBK/src/tensorflow_lite/tensorflow/lite/kernels/internal\common.h ****   for (int i = 0; i < num - 1; i++) {
 295:C:/Renesas/e2studio_2021_01_workspace_RZA2M_ANPR/ANPR_RZA2M_EBK/src/tensorflow_lite/tensorflow/lite/kernels/internal\common.h ****     double sample_val = TfLiteRound(func(min + i * step) * 32768.0);
 296:C:/Renesas/e2studio_2021_01_workspace_RZA2M_ANPR/ANPR_RZA2M_EBK/src/tensorflow_lite/tensorflow/lite/kernels/internal\common.h ****     double midpoint_interp_val =
 297:C:/Renesas/e2studio_2021_01_workspace_RZA2M_ANPR/ANPR_RZA2M_EBK/src/tensorflow_lite/tensorflow/lite/kernels/internal\common.h ****         TfLiteRound((func(min + (i + 1) * step) * 32768.0 +
 298:C:/Renesas/e2studio_2021_01_workspace_RZA2M_ANPR/ANPR_RZA2M_EBK/src/tensorflow_lite/tensorflow/lite/kernels/internal\common.h ****                      TfLiteRound(func(min + i * step) * 32768.0)) /
 299:C:/Renesas/e2studio_2021_01_workspace_RZA2M_ANPR/ANPR_RZA2M_EBK/src/tensorflow_lite/tensorflow/lite/kernels/internal\common.h ****                     2.0);
 300:C:/Renesas/e2studio_2021_01_workspace_RZA2M_ANPR/ANPR_RZA2M_EBK/src/tensorflow_lite/tensorflow/lite/kernels/internal\common.h ****     double midpoint_val =
 301:C:/Renesas/e2studio_2021_01_workspace_RZA2M_ANPR/ANPR_RZA2M_EBK/src/tensorflow_lite/tensorflow/lite/kernels/internal\common.h ****         TfLiteRound(func(min + i * step + half_step) * 32768.0);
 302:C:/Renesas/e2studio_2021_01_workspace_RZA2M_ANPR/ANPR_RZA2M_EBK/src/tensorflow_lite/tensorflow/lite/kernels/internal\common.h ****     double midpoint_err = midpoint_interp_val - midpoint_val;
 303:C:/Renesas/e2studio_2021_01_workspace_RZA2M_ANPR/ANPR_RZA2M_EBK/src/tensorflow_lite/tensorflow/lite/kernels/internal\common.h ****     double bias = TfLiteRound(midpoint_err / 2.0);
 304:C:/Renesas/e2studio_2021_01_workspace_RZA2M_ANPR/ANPR_RZA2M_EBK/src/tensorflow_lite/tensorflow/lite/kernels/internal\common.h ****     table[i] = std::min<double>(std::max<double>(sample_val - bias, -32768.0),
 305:C:/Renesas/e2studio_2021_01_workspace_RZA2M_ANPR/ANPR_RZA2M_EBK/src/tensorflow_lite/tensorflow/lite/kernels/internal\common.h ****                                 32767.0);
 306:C:/Renesas/e2studio_2021_01_workspace_RZA2M_ANPR/ANPR_RZA2M_EBK/src/tensorflow_lite/tensorflow/lite/kernels/internal\common.h ****   }
 307:C:/Renesas/e2studio_2021_01_workspace_RZA2M_ANPR/ANPR_RZA2M_EBK/src/tensorflow_lite/tensorflow/lite/kernels/internal\common.h ****   table[num - 1] = std::min<double>(
 308:C:/Renesas/e2studio_2021_01_workspace_RZA2M_ANPR/ANPR_RZA2M_EBK/src/tensorflow_lite/tensorflow/lite/kernels/internal\common.h ****       std::max<double>(TfLiteRound(func(max) * 32768.0), -32768.0), 32767.0);
 309:C:/Renesas/e2studio_2021_01_workspace_RZA2M_ANPR/ANPR_RZA2M_EBK/src/tensorflow_lite/tensorflow/lite/kernels/internal\common.h **** }
 310:C:/Renesas/e2studio_2021_01_workspace_RZA2M_ANPR/ANPR_RZA2M_EBK/src/tensorflow_lite/tensorflow/lite/kernels/internal\common.h **** 
 311:C:/Renesas/e2studio_2021_01_workspace_RZA2M_ANPR/ANPR_RZA2M_EBK/src/tensorflow_lite/tensorflow/lite/kernels/internal\common.h **** // generate INT16 LUT for function(), e.g., table exp(x) and 1/(1+x) used in
 312:C:/Renesas/e2studio_2021_01_workspace_RZA2M_ANPR/ANPR_RZA2M_EBK/src/tensorflow_lite/tensorflow/lite/kernels/internal\common.h **** // softmax
 313:C:/Renesas/e2studio_2021_01_workspace_RZA2M_ANPR/ANPR_RZA2M_EBK/src/tensorflow_lite/tensorflow/lite/kernels/internal\common.h **** // func - the function to build the LUT for (e.g exp(x))
 314:C:/Renesas/e2studio_2021_01_workspace_RZA2M_ANPR/ANPR_RZA2M_EBK/src/tensorflow_lite/tensorflow/lite/kernels/internal\common.h **** // min,max - table limits
 315:C:/Renesas/e2studio_2021_01_workspace_RZA2M_ANPR/ANPR_RZA2M_EBK/src/tensorflow_lite/tensorflow/lite/kernels/internal\common.h **** // table - pointer to buffer
 316:C:/Renesas/e2studio_2021_01_workspace_RZA2M_ANPR/ANPR_RZA2M_EBK/src/tensorflow_lite/tensorflow/lite/kernels/internal\common.h **** // num - number of elements in the LUT
 317:C:/Renesas/e2studio_2021_01_workspace_RZA2M_ANPR/ANPR_RZA2M_EBK/src/tensorflow_lite/tensorflow/lite/kernels/internal\common.h **** inline void gen_lut(float (*func)(float), float min, float max, int16_t* table,
 318:C:/Renesas/e2studio_2021_01_workspace_RZA2M_ANPR/ANPR_RZA2M_EBK/src/tensorflow_lite/tensorflow/lite/kernels/internal\common.h ****                     const int num) {
 319:C:/Renesas/e2studio_2021_01_workspace_RZA2M_ANPR/ANPR_RZA2M_EBK/src/tensorflow_lite/tensorflow/lite/kernels/internal\common.h ****   // size of table should equal to num + 1
 320:C:/Renesas/e2studio_2021_01_workspace_RZA2M_ANPR/ANPR_RZA2M_EBK/src/tensorflow_lite/tensorflow/lite/kernels/internal\common.h ****   // last element only for slope calculation
 321:C:/Renesas/e2studio_2021_01_workspace_RZA2M_ANPR/ANPR_RZA2M_EBK/src/tensorflow_lite/tensorflow/lite/kernels/internal\common.h ****   float step = (max - min) / (num - 1);
 322:C:/Renesas/e2studio_2021_01_workspace_RZA2M_ANPR/ANPR_RZA2M_EBK/src/tensorflow_lite/tensorflow/lite/kernels/internal\common.h ****   float half_step = step / 2.0f;
 323:C:/Renesas/e2studio_2021_01_workspace_RZA2M_ANPR/ANPR_RZA2M_EBK/src/tensorflow_lite/tensorflow/lite/kernels/internal\common.h ****   for (int i = 0; i < num - 1; i++) {
 324:C:/Renesas/e2studio_2021_01_workspace_RZA2M_ANPR/ANPR_RZA2M_EBK/src/tensorflow_lite/tensorflow/lite/kernels/internal\common.h ****     float sample_val = TfLiteRound(func(min + i * step) * 32768.0f);
 325:C:/Renesas/e2studio_2021_01_workspace_RZA2M_ANPR/ANPR_RZA2M_EBK/src/tensorflow_lite/tensorflow/lite/kernels/internal\common.h ****     float midpoint_interp_val =
 326:C:/Renesas/e2studio_2021_01_workspace_RZA2M_ANPR/ANPR_RZA2M_EBK/src/tensorflow_lite/tensorflow/lite/kernels/internal\common.h ****         TfLiteRound((func(min + (i + 1) * step) * 32768.0f +
 327:C:/Renesas/e2studio_2021_01_workspace_RZA2M_ANPR/ANPR_RZA2M_EBK/src/tensorflow_lite/tensorflow/lite/kernels/internal\common.h ****                      TfLiteRound(func(min + i * step) * 32768.0f)) /
 328:C:/Renesas/e2studio_2021_01_workspace_RZA2M_ANPR/ANPR_RZA2M_EBK/src/tensorflow_lite/tensorflow/lite/kernels/internal\common.h ****                     2.0f);
 329:C:/Renesas/e2studio_2021_01_workspace_RZA2M_ANPR/ANPR_RZA2M_EBK/src/tensorflow_lite/tensorflow/lite/kernels/internal\common.h ****     float midpoint_val =
 330:C:/Renesas/e2studio_2021_01_workspace_RZA2M_ANPR/ANPR_RZA2M_EBK/src/tensorflow_lite/tensorflow/lite/kernels/internal\common.h ****         TfLiteRound(func(min + i * step + half_step) * 32768.0f);
 331:C:/Renesas/e2studio_2021_01_workspace_RZA2M_ANPR/ANPR_RZA2M_EBK/src/tensorflow_lite/tensorflow/lite/kernels/internal\common.h ****     float midpoint_err = midpoint_interp_val - midpoint_val;
 332:C:/Renesas/e2studio_2021_01_workspace_RZA2M_ANPR/ANPR_RZA2M_EBK/src/tensorflow_lite/tensorflow/lite/kernels/internal\common.h ****     float bias = TfLiteRound(midpoint_err / 2.0f);
 333:C:/Renesas/e2studio_2021_01_workspace_RZA2M_ANPR/ANPR_RZA2M_EBK/src/tensorflow_lite/tensorflow/lite/kernels/internal\common.h ****     table[i] = std::min<float>(std::max<float>(sample_val - bias, -32768.0f),
 334:C:/Renesas/e2studio_2021_01_workspace_RZA2M_ANPR/ANPR_RZA2M_EBK/src/tensorflow_lite/tensorflow/lite/kernels/internal\common.h ****                                32767.0f);
 335:C:/Renesas/e2studio_2021_01_workspace_RZA2M_ANPR/ANPR_RZA2M_EBK/src/tensorflow_lite/tensorflow/lite/kernels/internal\common.h ****   }
 336:C:/Renesas/e2studio_2021_01_workspace_RZA2M_ANPR/ANPR_RZA2M_EBK/src/tensorflow_lite/tensorflow/lite/kernels/internal\common.h ****   table[num - 1] = std::min<float>(
 337:C:/Renesas/e2studio_2021_01_workspace_RZA2M_ANPR/ANPR_RZA2M_EBK/src/tensorflow_lite/tensorflow/lite/kernels/internal\common.h ****       std::max<float>(TfLiteRound(func(max) * 32768.0f), -32768.0f), 32767.0f);
 338:C:/Renesas/e2studio_2021_01_workspace_RZA2M_ANPR/ANPR_RZA2M_EBK/src/tensorflow_lite/tensorflow/lite/kernels/internal\common.h **** }
 339:C:/Renesas/e2studio_2021_01_workspace_RZA2M_ANPR/ANPR_RZA2M_EBK/src/tensorflow_lite/tensorflow/lite/kernels/internal\common.h **** 
 340:C:/Renesas/e2studio_2021_01_workspace_RZA2M_ANPR/ANPR_RZA2M_EBK/src/tensorflow_lite/tensorflow/lite/kernels/internal\common.h **** // int16_t func table lookup, e.g., lookup exp() and 1/(1+x) used in softmax
 341:C:/Renesas/e2studio_2021_01_workspace_RZA2M_ANPR/ANPR_RZA2M_EBK/src/tensorflow_lite/tensorflow/lite/kernels/internal\common.h **** inline int16_t generic_int16_table_lookup(int16_t value, const int16_t* lut) {
 342:C:/Renesas/e2studio_2021_01_workspace_RZA2M_ANPR/ANPR_RZA2M_EBK/src/tensorflow_lite/tensorflow/lite/kernels/internal\common.h ****   // 512 base value, lut[513] only for calculate slope
 343:C:/Renesas/e2studio_2021_01_workspace_RZA2M_ANPR/ANPR_RZA2M_EBK/src/tensorflow_lite/tensorflow/lite/kernels/internal\common.h ****   uint16_t index = static_cast<uint16_t>(256 + (value >> 7));
 344:C:/Renesas/e2studio_2021_01_workspace_RZA2M_ANPR/ANPR_RZA2M_EBK/src/tensorflow_lite/tensorflow/lite/kernels/internal\common.h ****   assert(index < 512 && "LUT index out of range.");
 345:C:/Renesas/e2studio_2021_01_workspace_RZA2M_ANPR/ANPR_RZA2M_EBK/src/tensorflow_lite/tensorflow/lite/kernels/internal\common.h ****   int16_t offset = value & 0x7f;
 346:C:/Renesas/e2studio_2021_01_workspace_RZA2M_ANPR/ANPR_RZA2M_EBK/src/tensorflow_lite/tensorflow/lite/kernels/internal\common.h **** 
 347:C:/Renesas/e2studio_2021_01_workspace_RZA2M_ANPR/ANPR_RZA2M_EBK/src/tensorflow_lite/tensorflow/lite/kernels/internal\common.h ****   // base and slope are Q0.15
 348:C:/Renesas/e2studio_2021_01_workspace_RZA2M_ANPR/ANPR_RZA2M_EBK/src/tensorflow_lite/tensorflow/lite/kernels/internal\common.h ****   int16_t base = lut[index];
 349:C:/Renesas/e2studio_2021_01_workspace_RZA2M_ANPR/ANPR_RZA2M_EBK/src/tensorflow_lite/tensorflow/lite/kernels/internal\common.h ****   int16_t slope = lut[index + 1] - lut[index];
 350:C:/Renesas/e2studio_2021_01_workspace_RZA2M_ANPR/ANPR_RZA2M_EBK/src/tensorflow_lite/tensorflow/lite/kernels/internal\common.h **** 
 351:C:/Renesas/e2studio_2021_01_workspace_RZA2M_ANPR/ANPR_RZA2M_EBK/src/tensorflow_lite/tensorflow/lite/kernels/internal\common.h ****   // Q0.15 * Q0.7 = Q0.22
 352:C:/Renesas/e2studio_2021_01_workspace_RZA2M_ANPR/ANPR_RZA2M_EBK/src/tensorflow_lite/tensorflow/lite/kernels/internal\common.h ****   // Round and convert from Q0.22 to Q0.15
 353:C:/Renesas/e2studio_2021_01_workspace_RZA2M_ANPR/ANPR_RZA2M_EBK/src/tensorflow_lite/tensorflow/lite/kernels/internal\common.h ****   int32_t delta = (static_cast<int32_t>(slope) * offset + 64) >> 7;
 354:C:/Renesas/e2studio_2021_01_workspace_RZA2M_ANPR/ANPR_RZA2M_EBK/src/tensorflow_lite/tensorflow/lite/kernels/internal\common.h **** 
 355:C:/Renesas/e2studio_2021_01_workspace_RZA2M_ANPR/ANPR_RZA2M_EBK/src/tensorflow_lite/tensorflow/lite/kernels/internal\common.h ****   // Q0.15 + Q0.15
 356:C:/Renesas/e2studio_2021_01_workspace_RZA2M_ANPR/ANPR_RZA2M_EBK/src/tensorflow_lite/tensorflow/lite/kernels/internal\common.h ****   return base + delta;
 357:C:/Renesas/e2studio_2021_01_workspace_RZA2M_ANPR/ANPR_RZA2M_EBK/src/tensorflow_lite/tensorflow/lite/kernels/internal\common.h **** }
 358:C:/Renesas/e2studio_2021_01_workspace_RZA2M_ANPR/ANPR_RZA2M_EBK/src/tensorflow_lite/tensorflow/lite/kernels/internal\common.h **** 
 359:C:/Renesas/e2studio_2021_01_workspace_RZA2M_ANPR/ANPR_RZA2M_EBK/src/tensorflow_lite/tensorflow/lite/kernels/internal\common.h **** // Table of sigmoid(i/24) at 0.16 format - 256 elements.
 360:C:/Renesas/e2studio_2021_01_workspace_RZA2M_ANPR/ANPR_RZA2M_EBK/src/tensorflow_lite/tensorflow/lite/kernels/internal\common.h **** 
 361:C:/Renesas/e2studio_2021_01_workspace_RZA2M_ANPR/ANPR_RZA2M_EBK/src/tensorflow_lite/tensorflow/lite/kernels/internal\common.h **** // We use combined sigmoid and tanh look-up table, since
 362:C:/Renesas/e2studio_2021_01_workspace_RZA2M_ANPR/ANPR_RZA2M_EBK/src/tensorflow_lite/tensorflow/lite/kernels/internal\common.h **** // tanh(x) = 2*sigmoid(2*x) -1.
 363:C:/Renesas/e2studio_2021_01_workspace_RZA2M_ANPR/ANPR_RZA2M_EBK/src/tensorflow_lite/tensorflow/lite/kernels/internal\common.h **** // Both functions are symmetric, so the LUT table is only needed
 364:C:/Renesas/e2studio_2021_01_workspace_RZA2M_ANPR/ANPR_RZA2M_EBK/src/tensorflow_lite/tensorflow/lite/kernels/internal\common.h **** // for the absolute value of the input.
 365:C:/Renesas/e2studio_2021_01_workspace_RZA2M_ANPR/ANPR_RZA2M_EBK/src/tensorflow_lite/tensorflow/lite/kernels/internal\common.h **** static const uint16_t sigmoid_table_uint16[256] = {
 366:C:/Renesas/e2studio_2021_01_workspace_RZA2M_ANPR/ANPR_RZA2M_EBK/src/tensorflow_lite/tensorflow/lite/kernels/internal\common.h ****     32768, 33451, 34133, 34813, 35493, 36169, 36843, 37513, 38180, 38841, 39498,
 367:C:/Renesas/e2studio_2021_01_workspace_RZA2M_ANPR/ANPR_RZA2M_EBK/src/tensorflow_lite/tensorflow/lite/kernels/internal\common.h ****     40149, 40794, 41432, 42064, 42688, 43304, 43912, 44511, 45102, 45683, 46255,
 368:C:/Renesas/e2studio_2021_01_workspace_RZA2M_ANPR/ANPR_RZA2M_EBK/src/tensorflow_lite/tensorflow/lite/kernels/internal\common.h ****     46817, 47369, 47911, 48443, 48964, 49475, 49975, 50464, 50942, 51409, 51865,
 369:C:/Renesas/e2studio_2021_01_workspace_RZA2M_ANPR/ANPR_RZA2M_EBK/src/tensorflow_lite/tensorflow/lite/kernels/internal\common.h ****     52311, 52745, 53169, 53581, 53983, 54374, 54755, 55125, 55485, 55834, 56174,
 370:C:/Renesas/e2studio_2021_01_workspace_RZA2M_ANPR/ANPR_RZA2M_EBK/src/tensorflow_lite/tensorflow/lite/kernels/internal\common.h ****     56503, 56823, 57133, 57433, 57724, 58007, 58280, 58544, 58800, 59048, 59288,
 371:C:/Renesas/e2studio_2021_01_workspace_RZA2M_ANPR/ANPR_RZA2M_EBK/src/tensorflow_lite/tensorflow/lite/kernels/internal\common.h ****     59519, 59743, 59959, 60168, 60370, 60565, 60753, 60935, 61110, 61279, 61441,
 372:C:/Renesas/e2studio_2021_01_workspace_RZA2M_ANPR/ANPR_RZA2M_EBK/src/tensorflow_lite/tensorflow/lite/kernels/internal\common.h ****     61599, 61750, 61896, 62036, 62172, 62302, 62428, 62549, 62666, 62778, 62886,
 373:C:/Renesas/e2studio_2021_01_workspace_RZA2M_ANPR/ANPR_RZA2M_EBK/src/tensorflow_lite/tensorflow/lite/kernels/internal\common.h ****     62990, 63090, 63186, 63279, 63368, 63454, 63536, 63615, 63691, 63765, 63835,
 374:C:/Renesas/e2studio_2021_01_workspace_RZA2M_ANPR/ANPR_RZA2M_EBK/src/tensorflow_lite/tensorflow/lite/kernels/internal\common.h ****     63903, 63968, 64030, 64090, 64148, 64204, 64257, 64308, 64357, 64405, 64450,
 375:C:/Renesas/e2studio_2021_01_workspace_RZA2M_ANPR/ANPR_RZA2M_EBK/src/tensorflow_lite/tensorflow/lite/kernels/internal\common.h ****     64494, 64536, 64576, 64614, 64652, 64687, 64721, 64754, 64786, 64816, 64845,
 376:C:/Renesas/e2studio_2021_01_workspace_RZA2M_ANPR/ANPR_RZA2M_EBK/src/tensorflow_lite/tensorflow/lite/kernels/internal\common.h ****     64873, 64900, 64926, 64950, 64974, 64997, 65019, 65039, 65060, 65079, 65097,
 377:C:/Renesas/e2studio_2021_01_workspace_RZA2M_ANPR/ANPR_RZA2M_EBK/src/tensorflow_lite/tensorflow/lite/kernels/internal\common.h ****     65115, 65132, 65149, 65164, 65179, 65194, 65208, 65221, 65234, 65246, 65258,
 378:C:/Renesas/e2studio_2021_01_workspace_RZA2M_ANPR/ANPR_RZA2M_EBK/src/tensorflow_lite/tensorflow/lite/kernels/internal\common.h ****     65269, 65280, 65291, 65301, 65310, 65319, 65328, 65337, 65345, 65352, 65360,
 379:C:/Renesas/e2studio_2021_01_workspace_RZA2M_ANPR/ANPR_RZA2M_EBK/src/tensorflow_lite/tensorflow/lite/kernels/internal\common.h ****     65367, 65374, 65381, 65387, 65393, 65399, 65404, 65410, 65415, 65420, 65425,
 380:C:/Renesas/e2studio_2021_01_workspace_RZA2M_ANPR/ANPR_RZA2M_EBK/src/tensorflow_lite/tensorflow/lite/kernels/internal\common.h ****     65429, 65433, 65438, 65442, 65445, 65449, 65453, 65456, 65459, 65462, 65465,
 381:C:/Renesas/e2studio_2021_01_workspace_RZA2M_ANPR/ANPR_RZA2M_EBK/src/tensorflow_lite/tensorflow/lite/kernels/internal\common.h ****     65468, 65471, 65474, 65476, 65479, 65481, 65483, 65485, 65488, 65489, 65491,
 382:C:/Renesas/e2studio_2021_01_workspace_RZA2M_ANPR/ANPR_RZA2M_EBK/src/tensorflow_lite/tensorflow/lite/kernels/internal\common.h ****     65493, 65495, 65497, 65498, 65500, 65501, 65503, 65504, 65505, 65507, 65508,
 383:C:/Renesas/e2studio_2021_01_workspace_RZA2M_ANPR/ANPR_RZA2M_EBK/src/tensorflow_lite/tensorflow/lite/kernels/internal\common.h ****     65509, 65510, 65511, 65512, 65513, 65514, 65515, 65516, 65517, 65517, 65518,
 384:C:/Renesas/e2studio_2021_01_workspace_RZA2M_ANPR/ANPR_RZA2M_EBK/src/tensorflow_lite/tensorflow/lite/kernels/internal\common.h ****     65519, 65520, 65520, 65521, 65522, 65522, 65523, 65523, 65524, 65524, 65525,
 385:C:/Renesas/e2studio_2021_01_workspace_RZA2M_ANPR/ANPR_RZA2M_EBK/src/tensorflow_lite/tensorflow/lite/kernels/internal\common.h ****     65525, 65526, 65526, 65526, 65527, 65527, 65528, 65528, 65528, 65529, 65529,
 386:C:/Renesas/e2studio_2021_01_workspace_RZA2M_ANPR/ANPR_RZA2M_EBK/src/tensorflow_lite/tensorflow/lite/kernels/internal\common.h ****     65529, 65529, 65530, 65530, 65530, 65530, 65531, 65531, 65531, 65531, 65531,
 387:C:/Renesas/e2studio_2021_01_workspace_RZA2M_ANPR/ANPR_RZA2M_EBK/src/tensorflow_lite/tensorflow/lite/kernels/internal\common.h ****     65532, 65532, 65532, 65532, 65532, 65532, 65533, 65533, 65533, 65533, 65533,
 388:C:/Renesas/e2studio_2021_01_workspace_RZA2M_ANPR/ANPR_RZA2M_EBK/src/tensorflow_lite/tensorflow/lite/kernels/internal\common.h ****     65533, 65533, 65533, 65534, 65534, 65534, 65534, 65534, 65534, 65534, 65534,
 389:C:/Renesas/e2studio_2021_01_workspace_RZA2M_ANPR/ANPR_RZA2M_EBK/src/tensorflow_lite/tensorflow/lite/kernels/internal\common.h ****     65534, 65534, 65535};
 390:C:/Renesas/e2studio_2021_01_workspace_RZA2M_ANPR/ANPR_RZA2M_EBK/src/tensorflow_lite/tensorflow/lite/kernels/internal\common.h **** 
 391:C:/Renesas/e2studio_2021_01_workspace_RZA2M_ANPR/ANPR_RZA2M_EBK/src/tensorflow_lite/tensorflow/lite/kernels/internal\common.h **** // TODO(b/77858996): Add these to gemmlowp.
 392:C:/Renesas/e2studio_2021_01_workspace_RZA2M_ANPR/ANPR_RZA2M_EBK/src/tensorflow_lite/tensorflow/lite/kernels/internal\common.h **** template <typename IntegerType>
 393:C:/Renesas/e2studio_2021_01_workspace_RZA2M_ANPR/ANPR_RZA2M_EBK/src/tensorflow_lite/tensorflow/lite/kernels/internal\common.h **** IntegerType SaturatingAddNonGemmlowp(IntegerType a, IntegerType b) {
 394:C:/Renesas/e2studio_2021_01_workspace_RZA2M_ANPR/ANPR_RZA2M_EBK/src/tensorflow_lite/tensorflow/lite/kernels/internal\common.h ****   static_assert(std::is_same<IntegerType, void>::value, "unimplemented");
 395:C:/Renesas/e2studio_2021_01_workspace_RZA2M_ANPR/ANPR_RZA2M_EBK/src/tensorflow_lite/tensorflow/lite/kernels/internal\common.h ****   return a;
 396:C:/Renesas/e2studio_2021_01_workspace_RZA2M_ANPR/ANPR_RZA2M_EBK/src/tensorflow_lite/tensorflow/lite/kernels/internal\common.h **** }
 397:C:/Renesas/e2studio_2021_01_workspace_RZA2M_ANPR/ANPR_RZA2M_EBK/src/tensorflow_lite/tensorflow/lite/kernels/internal\common.h **** 
 398:C:/Renesas/e2studio_2021_01_workspace_RZA2M_ANPR/ANPR_RZA2M_EBK/src/tensorflow_lite/tensorflow/lite/kernels/internal\common.h **** template <>
 399:C:/Renesas/e2studio_2021_01_workspace_RZA2M_ANPR/ANPR_RZA2M_EBK/src/tensorflow_lite/tensorflow/lite/kernels/internal\common.h **** inline std::int32_t SaturatingAddNonGemmlowp(std::int32_t a, std::int32_t b) {
 400:C:/Renesas/e2studio_2021_01_workspace_RZA2M_ANPR/ANPR_RZA2M_EBK/src/tensorflow_lite/tensorflow/lite/kernels/internal\common.h ****   std::int64_t a64 = a;
 401:C:/Renesas/e2studio_2021_01_workspace_RZA2M_ANPR/ANPR_RZA2M_EBK/src/tensorflow_lite/tensorflow/lite/kernels/internal\common.h ****   std::int64_t b64 = b;
 402:C:/Renesas/e2studio_2021_01_workspace_RZA2M_ANPR/ANPR_RZA2M_EBK/src/tensorflow_lite/tensorflow/lite/kernels/internal\common.h ****   std::int64_t sum = a64 + b64;
 403:C:/Renesas/e2studio_2021_01_workspace_RZA2M_ANPR/ANPR_RZA2M_EBK/src/tensorflow_lite/tensorflow/lite/kernels/internal\common.h ****   return static_cast<std::int32_t>(std::min(
 404:C:/Renesas/e2studio_2021_01_workspace_RZA2M_ANPR/ANPR_RZA2M_EBK/src/tensorflow_lite/tensorflow/lite/kernels/internal\common.h ****       static_cast<std::int64_t>(std::numeric_limits<std::int32_t>::max()),
 405:C:/Renesas/e2studio_2021_01_workspace_RZA2M_ANPR/ANPR_RZA2M_EBK/src/tensorflow_lite/tensorflow/lite/kernels/internal\common.h ****       std::max(
 406:C:/Renesas/e2studio_2021_01_workspace_RZA2M_ANPR/ANPR_RZA2M_EBK/src/tensorflow_lite/tensorflow/lite/kernels/internal\common.h ****           static_cast<std::int64_t>(std::numeric_limits<std::int32_t>::min()),
 407:C:/Renesas/e2studio_2021_01_workspace_RZA2M_ANPR/ANPR_RZA2M_EBK/src/tensorflow_lite/tensorflow/lite/kernels/internal\common.h ****           sum)));
 408:C:/Renesas/e2studio_2021_01_workspace_RZA2M_ANPR/ANPR_RZA2M_EBK/src/tensorflow_lite/tensorflow/lite/kernels/internal\common.h **** }
 409:C:/Renesas/e2studio_2021_01_workspace_RZA2M_ANPR/ANPR_RZA2M_EBK/src/tensorflow_lite/tensorflow/lite/kernels/internal\common.h **** 
 410:C:/Renesas/e2studio_2021_01_workspace_RZA2M_ANPR/ANPR_RZA2M_EBK/src/tensorflow_lite/tensorflow/lite/kernels/internal\common.h **** template <typename tRawType, int tIntegerBits>
 411:C:/Renesas/e2studio_2021_01_workspace_RZA2M_ANPR/ANPR_RZA2M_EBK/src/tensorflow_lite/tensorflow/lite/kernels/internal\common.h **** gemmlowp::FixedPoint<tRawType, tIntegerBits> SaturatingAddNonGemmlowp(
 412:C:/Renesas/e2studio_2021_01_workspace_RZA2M_ANPR/ANPR_RZA2M_EBK/src/tensorflow_lite/tensorflow/lite/kernels/internal\common.h ****     gemmlowp::FixedPoint<tRawType, tIntegerBits> a,
 413:C:/Renesas/e2studio_2021_01_workspace_RZA2M_ANPR/ANPR_RZA2M_EBK/src/tensorflow_lite/tensorflow/lite/kernels/internal\common.h ****     gemmlowp::FixedPoint<tRawType, tIntegerBits> b) {
 414:C:/Renesas/e2studio_2021_01_workspace_RZA2M_ANPR/ANPR_RZA2M_EBK/src/tensorflow_lite/tensorflow/lite/kernels/internal\common.h ****   return gemmlowp::FixedPoint<tRawType, tIntegerBits>::FromRaw(
 415:C:/Renesas/e2studio_2021_01_workspace_RZA2M_ANPR/ANPR_RZA2M_EBK/src/tensorflow_lite/tensorflow/lite/kernels/internal\common.h ****       SaturatingAddNonGemmlowp(a.raw(), b.raw()));
 416:C:/Renesas/e2studio_2021_01_workspace_RZA2M_ANPR/ANPR_RZA2M_EBK/src/tensorflow_lite/tensorflow/lite/kernels/internal\common.h **** }
 417:C:/Renesas/e2studio_2021_01_workspace_RZA2M_ANPR/ANPR_RZA2M_EBK/src/tensorflow_lite/tensorflow/lite/kernels/internal\common.h **** 
 418:C:/Renesas/e2studio_2021_01_workspace_RZA2M_ANPR/ANPR_RZA2M_EBK/src/tensorflow_lite/tensorflow/lite/kernels/internal\common.h **** template <typename IntegerType>
 419:C:/Renesas/e2studio_2021_01_workspace_RZA2M_ANPR/ANPR_RZA2M_EBK/src/tensorflow_lite/tensorflow/lite/kernels/internal\common.h **** IntegerType SaturatingSub(IntegerType a, IntegerType b) {
 420:C:/Renesas/e2studio_2021_01_workspace_RZA2M_ANPR/ANPR_RZA2M_EBK/src/tensorflow_lite/tensorflow/lite/kernels/internal\common.h ****   static_assert(std::is_same<IntegerType, void>::value, "unimplemented");
 421:C:/Renesas/e2studio_2021_01_workspace_RZA2M_ANPR/ANPR_RZA2M_EBK/src/tensorflow_lite/tensorflow/lite/kernels/internal\common.h ****   return a;
 422:C:/Renesas/e2studio_2021_01_workspace_RZA2M_ANPR/ANPR_RZA2M_EBK/src/tensorflow_lite/tensorflow/lite/kernels/internal\common.h **** }
 423:C:/Renesas/e2studio_2021_01_workspace_RZA2M_ANPR/ANPR_RZA2M_EBK/src/tensorflow_lite/tensorflow/lite/kernels/internal\common.h **** 
 424:C:/Renesas/e2studio_2021_01_workspace_RZA2M_ANPR/ANPR_RZA2M_EBK/src/tensorflow_lite/tensorflow/lite/kernels/internal\common.h **** template <>
 425:C:/Renesas/e2studio_2021_01_workspace_RZA2M_ANPR/ANPR_RZA2M_EBK/src/tensorflow_lite/tensorflow/lite/kernels/internal\common.h **** inline std::int16_t SaturatingSub(std::int16_t a, std::int16_t b) {
 426:C:/Renesas/e2studio_2021_01_workspace_RZA2M_ANPR/ANPR_RZA2M_EBK/src/tensorflow_lite/tensorflow/lite/kernels/internal\common.h ****   std::int32_t a32 = a;
 427:C:/Renesas/e2studio_2021_01_workspace_RZA2M_ANPR/ANPR_RZA2M_EBK/src/tensorflow_lite/tensorflow/lite/kernels/internal\common.h ****   std::int32_t b32 = b;
 428:C:/Renesas/e2studio_2021_01_workspace_RZA2M_ANPR/ANPR_RZA2M_EBK/src/tensorflow_lite/tensorflow/lite/kernels/internal\common.h ****   std::int32_t diff = a32 - b32;
 429:C:/Renesas/e2studio_2021_01_workspace_RZA2M_ANPR/ANPR_RZA2M_EBK/src/tensorflow_lite/tensorflow/lite/kernels/internal\common.h ****   return static_cast<std::int16_t>(
 430:C:/Renesas/e2studio_2021_01_workspace_RZA2M_ANPR/ANPR_RZA2M_EBK/src/tensorflow_lite/tensorflow/lite/kernels/internal\common.h ****       std::min(static_cast<int32_t>(32767),
 431:C:/Renesas/e2studio_2021_01_workspace_RZA2M_ANPR/ANPR_RZA2M_EBK/src/tensorflow_lite/tensorflow/lite/kernels/internal\common.h ****                std::max(static_cast<int32_t>(-32768), diff)));
 432:C:/Renesas/e2studio_2021_01_workspace_RZA2M_ANPR/ANPR_RZA2M_EBK/src/tensorflow_lite/tensorflow/lite/kernels/internal\common.h **** }
 433:C:/Renesas/e2studio_2021_01_workspace_RZA2M_ANPR/ANPR_RZA2M_EBK/src/tensorflow_lite/tensorflow/lite/kernels/internal\common.h **** 
 434:C:/Renesas/e2studio_2021_01_workspace_RZA2M_ANPR/ANPR_RZA2M_EBK/src/tensorflow_lite/tensorflow/lite/kernels/internal\common.h **** template <>
 435:C:/Renesas/e2studio_2021_01_workspace_RZA2M_ANPR/ANPR_RZA2M_EBK/src/tensorflow_lite/tensorflow/lite/kernels/internal\common.h **** inline std::int32_t SaturatingSub(std::int32_t a, std::int32_t b) {
 436:C:/Renesas/e2studio_2021_01_workspace_RZA2M_ANPR/ANPR_RZA2M_EBK/src/tensorflow_lite/tensorflow/lite/kernels/internal\common.h ****   std::int64_t a64 = a;
 437:C:/Renesas/e2studio_2021_01_workspace_RZA2M_ANPR/ANPR_RZA2M_EBK/src/tensorflow_lite/tensorflow/lite/kernels/internal\common.h ****   std::int64_t b64 = b;
 438:C:/Renesas/e2studio_2021_01_workspace_RZA2M_ANPR/ANPR_RZA2M_EBK/src/tensorflow_lite/tensorflow/lite/kernels/internal\common.h ****   std::int64_t diff = a64 - b64;
 439:C:/Renesas/e2studio_2021_01_workspace_RZA2M_ANPR/ANPR_RZA2M_EBK/src/tensorflow_lite/tensorflow/lite/kernels/internal\common.h ****   return static_cast<std::int32_t>(std::min(
 440:C:/Renesas/e2studio_2021_01_workspace_RZA2M_ANPR/ANPR_RZA2M_EBK/src/tensorflow_lite/tensorflow/lite/kernels/internal\common.h ****       static_cast<std::int64_t>(std::numeric_limits<std::int32_t>::max()),
 441:C:/Renesas/e2studio_2021_01_workspace_RZA2M_ANPR/ANPR_RZA2M_EBK/src/tensorflow_lite/tensorflow/lite/kernels/internal\common.h ****       std::max(
 442:C:/Renesas/e2studio_2021_01_workspace_RZA2M_ANPR/ANPR_RZA2M_EBK/src/tensorflow_lite/tensorflow/lite/kernels/internal\common.h ****           static_cast<std::int64_t>(std::numeric_limits<std::int32_t>::min()),
 443:C:/Renesas/e2studio_2021_01_workspace_RZA2M_ANPR/ANPR_RZA2M_EBK/src/tensorflow_lite/tensorflow/lite/kernels/internal\common.h ****           diff)));
 444:C:/Renesas/e2studio_2021_01_workspace_RZA2M_ANPR/ANPR_RZA2M_EBK/src/tensorflow_lite/tensorflow/lite/kernels/internal\common.h **** }
 445:C:/Renesas/e2studio_2021_01_workspace_RZA2M_ANPR/ANPR_RZA2M_EBK/src/tensorflow_lite/tensorflow/lite/kernels/internal\common.h **** 
 446:C:/Renesas/e2studio_2021_01_workspace_RZA2M_ANPR/ANPR_RZA2M_EBK/src/tensorflow_lite/tensorflow/lite/kernels/internal\common.h **** template <typename tRawType, int tIntegerBits>
 447:C:/Renesas/e2studio_2021_01_workspace_RZA2M_ANPR/ANPR_RZA2M_EBK/src/tensorflow_lite/tensorflow/lite/kernels/internal\common.h **** gemmlowp::FixedPoint<tRawType, tIntegerBits> SaturatingSub(
 448:C:/Renesas/e2studio_2021_01_workspace_RZA2M_ANPR/ANPR_RZA2M_EBK/src/tensorflow_lite/tensorflow/lite/kernels/internal\common.h ****     gemmlowp::FixedPoint<tRawType, tIntegerBits> a,
 449:C:/Renesas/e2studio_2021_01_workspace_RZA2M_ANPR/ANPR_RZA2M_EBK/src/tensorflow_lite/tensorflow/lite/kernels/internal\common.h ****     gemmlowp::FixedPoint<tRawType, tIntegerBits> b) {
 450:C:/Renesas/e2studio_2021_01_workspace_RZA2M_ANPR/ANPR_RZA2M_EBK/src/tensorflow_lite/tensorflow/lite/kernels/internal\common.h ****   return gemmlowp::FixedPoint<tRawType, tIntegerBits>::FromRaw(
 451:C:/Renesas/e2studio_2021_01_workspace_RZA2M_ANPR/ANPR_RZA2M_EBK/src/tensorflow_lite/tensorflow/lite/kernels/internal\common.h ****       SaturatingSub(a.raw(), b.raw()));
 452:C:/Renesas/e2studio_2021_01_workspace_RZA2M_ANPR/ANPR_RZA2M_EBK/src/tensorflow_lite/tensorflow/lite/kernels/internal\common.h **** }
 453:C:/Renesas/e2studio_2021_01_workspace_RZA2M_ANPR/ANPR_RZA2M_EBK/src/tensorflow_lite/tensorflow/lite/kernels/internal\common.h **** // End section to be moved to gemmlowp.
 454:C:/Renesas/e2studio_2021_01_workspace_RZA2M_ANPR/ANPR_RZA2M_EBK/src/tensorflow_lite/tensorflow/lite/kernels/internal\common.h **** 
 455:C:/Renesas/e2studio_2021_01_workspace_RZA2M_ANPR/ANPR_RZA2M_EBK/src/tensorflow_lite/tensorflow/lite/kernels/internal\common.h **** template <typename IntegerType>
 456:C:/Renesas/e2studio_2021_01_workspace_RZA2M_ANPR/ANPR_RZA2M_EBK/src/tensorflow_lite/tensorflow/lite/kernels/internal\common.h **** IntegerType SaturatingRoundingMultiplyByPOTParam(IntegerType x, int exponent) {
 457:C:/Renesas/e2studio_2021_01_workspace_RZA2M_ANPR/ANPR_RZA2M_EBK/src/tensorflow_lite/tensorflow/lite/kernels/internal\common.h ****   if (exponent == 0) {
 458:C:/Renesas/e2studio_2021_01_workspace_RZA2M_ANPR/ANPR_RZA2M_EBK/src/tensorflow_lite/tensorflow/lite/kernels/internal\common.h ****     return x;
 459:C:/Renesas/e2studio_2021_01_workspace_RZA2M_ANPR/ANPR_RZA2M_EBK/src/tensorflow_lite/tensorflow/lite/kernels/internal\common.h ****   }
 460:C:/Renesas/e2studio_2021_01_workspace_RZA2M_ANPR/ANPR_RZA2M_EBK/src/tensorflow_lite/tensorflow/lite/kernels/internal\common.h ****   using ScalarIntegerType =
 461:C:/Renesas/e2studio_2021_01_workspace_RZA2M_ANPR/ANPR_RZA2M_EBK/src/tensorflow_lite/tensorflow/lite/kernels/internal\common.h ****       typename gemmlowp::FixedPointRawTypeTraits<IntegerType>::ScalarRawType;
 462:C:/Renesas/e2studio_2021_01_workspace_RZA2M_ANPR/ANPR_RZA2M_EBK/src/tensorflow_lite/tensorflow/lite/kernels/internal\common.h ****   const IntegerType min =
 463:C:/Renesas/e2studio_2021_01_workspace_RZA2M_ANPR/ANPR_RZA2M_EBK/src/tensorflow_lite/tensorflow/lite/kernels/internal\common.h ****       gemmlowp::Dup<IntegerType>(std::numeric_limits<ScalarIntegerType>::min());
 464:C:/Renesas/e2studio_2021_01_workspace_RZA2M_ANPR/ANPR_RZA2M_EBK/src/tensorflow_lite/tensorflow/lite/kernels/internal\common.h ****   const IntegerType max =
 465:C:/Renesas/e2studio_2021_01_workspace_RZA2M_ANPR/ANPR_RZA2M_EBK/src/tensorflow_lite/tensorflow/lite/kernels/internal\common.h ****       gemmlowp::Dup<IntegerType>(std::numeric_limits<ScalarIntegerType>::max());
 466:C:/Renesas/e2studio_2021_01_workspace_RZA2M_ANPR/ANPR_RZA2M_EBK/src/tensorflow_lite/tensorflow/lite/kernels/internal\common.h ****   const int ScalarIntegerTypeBits = 8 * sizeof(ScalarIntegerType);
 467:C:/Renesas/e2studio_2021_01_workspace_RZA2M_ANPR/ANPR_RZA2M_EBK/src/tensorflow_lite/tensorflow/lite/kernels/internal\common.h **** 
 468:C:/Renesas/e2studio_2021_01_workspace_RZA2M_ANPR/ANPR_RZA2M_EBK/src/tensorflow_lite/tensorflow/lite/kernels/internal\common.h ****   const std::int32_t threshold =
 469:C:/Renesas/e2studio_2021_01_workspace_RZA2M_ANPR/ANPR_RZA2M_EBK/src/tensorflow_lite/tensorflow/lite/kernels/internal\common.h ****       ((1 << (ScalarIntegerTypeBits - 1 - exponent)) - 1);
 470:C:/Renesas/e2studio_2021_01_workspace_RZA2M_ANPR/ANPR_RZA2M_EBK/src/tensorflow_lite/tensorflow/lite/kernels/internal\common.h ****   const IntegerType positive_mask =
 471:C:/Renesas/e2studio_2021_01_workspace_RZA2M_ANPR/ANPR_RZA2M_EBK/src/tensorflow_lite/tensorflow/lite/kernels/internal\common.h ****       gemmlowp::MaskIfGreaterThan(x, gemmlowp::Dup<IntegerType>(threshold));
 472:C:/Renesas/e2studio_2021_01_workspace_RZA2M_ANPR/ANPR_RZA2M_EBK/src/tensorflow_lite/tensorflow/lite/kernels/internal\common.h ****   const IntegerType negative_mask =
 473:C:/Renesas/e2studio_2021_01_workspace_RZA2M_ANPR/ANPR_RZA2M_EBK/src/tensorflow_lite/tensorflow/lite/kernels/internal\common.h ****       gemmlowp::MaskIfLessThan(x, gemmlowp::Dup<IntegerType>(-threshold));
 474:C:/Renesas/e2studio_2021_01_workspace_RZA2M_ANPR/ANPR_RZA2M_EBK/src/tensorflow_lite/tensorflow/lite/kernels/internal\common.h **** 
 475:C:/Renesas/e2studio_2021_01_workspace_RZA2M_ANPR/ANPR_RZA2M_EBK/src/tensorflow_lite/tensorflow/lite/kernels/internal\common.h ****   IntegerType result = gemmlowp::ShiftLeft(x, exponent);
 476:C:/Renesas/e2studio_2021_01_workspace_RZA2M_ANPR/ANPR_RZA2M_EBK/src/tensorflow_lite/tensorflow/lite/kernels/internal\common.h ****   result = gemmlowp::SelectUsingMask(positive_mask, max, result);
 477:C:/Renesas/e2studio_2021_01_workspace_RZA2M_ANPR/ANPR_RZA2M_EBK/src/tensorflow_lite/tensorflow/lite/kernels/internal\common.h ****   result = gemmlowp::SelectUsingMask(negative_mask, min, result);
 478:C:/Renesas/e2studio_2021_01_workspace_RZA2M_ANPR/ANPR_RZA2M_EBK/src/tensorflow_lite/tensorflow/lite/kernels/internal\common.h ****   return result;
 479:C:/Renesas/e2studio_2021_01_workspace_RZA2M_ANPR/ANPR_RZA2M_EBK/src/tensorflow_lite/tensorflow/lite/kernels/internal\common.h **** }
 480:C:/Renesas/e2studio_2021_01_workspace_RZA2M_ANPR/ANPR_RZA2M_EBK/src/tensorflow_lite/tensorflow/lite/kernels/internal\common.h **** 
 481:C:/Renesas/e2studio_2021_01_workspace_RZA2M_ANPR/ANPR_RZA2M_EBK/src/tensorflow_lite/tensorflow/lite/kernels/internal\common.h **** // If we want to leave IntegerBits fixed, then multiplication
 482:C:/Renesas/e2studio_2021_01_workspace_RZA2M_ANPR/ANPR_RZA2M_EBK/src/tensorflow_lite/tensorflow/lite/kernels/internal\common.h **** // by a power of two has to be saturating/rounding, not exact anymore.
 483:C:/Renesas/e2studio_2021_01_workspace_RZA2M_ANPR/ANPR_RZA2M_EBK/src/tensorflow_lite/tensorflow/lite/kernels/internal\common.h **** template <typename tRawType, int tIntegerBits>
 484:C:/Renesas/e2studio_2021_01_workspace_RZA2M_ANPR/ANPR_RZA2M_EBK/src/tensorflow_lite/tensorflow/lite/kernels/internal\common.h **** gemmlowp::FixedPoint<tRawType, tIntegerBits>
 485:C:/Renesas/e2studio_2021_01_workspace_RZA2M_ANPR/ANPR_RZA2M_EBK/src/tensorflow_lite/tensorflow/lite/kernels/internal\common.h **** SaturatingRoundingMultiplyByPOTParam(
 486:C:/Renesas/e2studio_2021_01_workspace_RZA2M_ANPR/ANPR_RZA2M_EBK/src/tensorflow_lite/tensorflow/lite/kernels/internal\common.h ****     gemmlowp::FixedPoint<tRawType, tIntegerBits> a, int exponent) {
 487:C:/Renesas/e2studio_2021_01_workspace_RZA2M_ANPR/ANPR_RZA2M_EBK/src/tensorflow_lite/tensorflow/lite/kernels/internal\common.h ****   return gemmlowp::FixedPoint<tRawType, tIntegerBits>::FromRaw(
 488:C:/Renesas/e2studio_2021_01_workspace_RZA2M_ANPR/ANPR_RZA2M_EBK/src/tensorflow_lite/tensorflow/lite/kernels/internal\common.h ****       SaturatingRoundingMultiplyByPOTParam(a.raw(), exponent));
 489:C:/Renesas/e2studio_2021_01_workspace_RZA2M_ANPR/ANPR_RZA2M_EBK/src/tensorflow_lite/tensorflow/lite/kernels/internal\common.h **** }
 490:C:/Renesas/e2studio_2021_01_workspace_RZA2M_ANPR/ANPR_RZA2M_EBK/src/tensorflow_lite/tensorflow/lite/kernels/internal\common.h **** 
 491:C:/Renesas/e2studio_2021_01_workspace_RZA2M_ANPR/ANPR_RZA2M_EBK/src/tensorflow_lite/tensorflow/lite/kernels/internal\common.h **** // Convert int32_t multiplier to int16_t with rounding.
 492:C:/Renesas/e2studio_2021_01_workspace_RZA2M_ANPR/ANPR_RZA2M_EBK/src/tensorflow_lite/tensorflow/lite/kernels/internal\common.h **** inline void DownScaleInt32ToInt16Multiplier(int32_t multiplier_int32_t,
 493:C:/Renesas/e2studio_2021_01_workspace_RZA2M_ANPR/ANPR_RZA2M_EBK/src/tensorflow_lite/tensorflow/lite/kernels/internal\common.h ****                                             int16_t* multiplier_int16_t) {
 494:C:/Renesas/e2studio_2021_01_workspace_RZA2M_ANPR/ANPR_RZA2M_EBK/src/tensorflow_lite/tensorflow/lite/kernels/internal\common.h ****   TFLITE_DCHECK_GE(multiplier_int32_t, 0);
 495:C:/Renesas/e2studio_2021_01_workspace_RZA2M_ANPR/ANPR_RZA2M_EBK/src/tensorflow_lite/tensorflow/lite/kernels/internal\common.h ****   static constexpr int32_t kRoundingOffset = 1 << 15;
 496:C:/Renesas/e2studio_2021_01_workspace_RZA2M_ANPR/ANPR_RZA2M_EBK/src/tensorflow_lite/tensorflow/lite/kernels/internal\common.h ****   if (multiplier_int32_t >=
 497:C:/Renesas/e2studio_2021_01_workspace_RZA2M_ANPR/ANPR_RZA2M_EBK/src/tensorflow_lite/tensorflow/lite/kernels/internal\common.h ****       std::numeric_limits<int32_t>::max() - kRoundingOffset) {
 498:C:/Renesas/e2studio_2021_01_workspace_RZA2M_ANPR/ANPR_RZA2M_EBK/src/tensorflow_lite/tensorflow/lite/kernels/internal\common.h ****     *multiplier_int16_t = std::numeric_limits<int16_t>::max();
 499:C:/Renesas/e2studio_2021_01_workspace_RZA2M_ANPR/ANPR_RZA2M_EBK/src/tensorflow_lite/tensorflow/lite/kernels/internal\common.h ****     return;
 500:C:/Renesas/e2studio_2021_01_workspace_RZA2M_ANPR/ANPR_RZA2M_EBK/src/tensorflow_lite/tensorflow/lite/kernels/internal\common.h ****   }
 501:C:/Renesas/e2studio_2021_01_workspace_RZA2M_ANPR/ANPR_RZA2M_EBK/src/tensorflow_lite/tensorflow/lite/kernels/internal\common.h ****   const int32_t result = (multiplier_int32_t + kRoundingOffset) >> 16;
 502:C:/Renesas/e2studio_2021_01_workspace_RZA2M_ANPR/ANPR_RZA2M_EBK/src/tensorflow_lite/tensorflow/lite/kernels/internal\common.h ****   TFLITE_DCHECK_LE(result << 16, multiplier_int32_t + kRoundingOffset);
 503:C:/Renesas/e2studio_2021_01_workspace_RZA2M_ANPR/ANPR_RZA2M_EBK/src/tensorflow_lite/tensorflow/lite/kernels/internal\common.h ****   TFLITE_DCHECK_GT(result << 16, multiplier_int32_t - kRoundingOffset);
 504:C:/Renesas/e2studio_2021_01_workspace_RZA2M_ANPR/ANPR_RZA2M_EBK/src/tensorflow_lite/tensorflow/lite/kernels/internal\common.h ****   *multiplier_int16_t = result;
 505:C:/Renesas/e2studio_2021_01_workspace_RZA2M_ANPR/ANPR_RZA2M_EBK/src/tensorflow_lite/tensorflow/lite/kernels/internal\common.h ****   TFLITE_DCHECK_EQ(*multiplier_int16_t, result);
 506:C:/Renesas/e2studio_2021_01_workspace_RZA2M_ANPR/ANPR_RZA2M_EBK/src/tensorflow_lite/tensorflow/lite/kernels/internal\common.h **** }
 507:C:/Renesas/e2studio_2021_01_workspace_RZA2M_ANPR/ANPR_RZA2M_EBK/src/tensorflow_lite/tensorflow/lite/kernels/internal\common.h **** 
 508:C:/Renesas/e2studio_2021_01_workspace_RZA2M_ANPR/ANPR_RZA2M_EBK/src/tensorflow_lite/tensorflow/lite/kernels/internal\common.h **** // Minimum output bits to accommodate log of maximum input range.  It actually
 509:C:/Renesas/e2studio_2021_01_workspace_RZA2M_ANPR/ANPR_RZA2M_EBK/src/tensorflow_lite/tensorflow/lite/kernels/internal\common.h **** // does not matter if one considers, say, [-64,64] or [-64,64).
 510:C:/Renesas/e2studio_2021_01_workspace_RZA2M_ANPR/ANPR_RZA2M_EBK/src/tensorflow_lite/tensorflow/lite/kernels/internal\common.h **** //
 511:C:/Renesas/e2studio_2021_01_workspace_RZA2M_ANPR/ANPR_RZA2M_EBK/src/tensorflow_lite/tensorflow/lite/kernels/internal\common.h **** // For example, run this through Octave:
 512:C:/Renesas/e2studio_2021_01_workspace_RZA2M_ANPR/ANPR_RZA2M_EBK/src/tensorflow_lite/tensorflow/lite/kernels/internal\common.h **** // [0:127; ...
 513:C:/Renesas/e2studio_2021_01_workspace_RZA2M_ANPR/ANPR_RZA2M_EBK/src/tensorflow_lite/tensorflow/lite/kernels/internal\common.h **** //  ceil(log(abs( log(2.^(0:127))+1 ))/log(2)); ...
 514:C:/Renesas/e2studio_2021_01_workspace_RZA2M_ANPR/ANPR_RZA2M_EBK/src/tensorflow_lite/tensorflow/lite/kernels/internal\common.h **** //  ceil(log(abs( log(2.^(0:127))+1 ))/log(2))]
 515:C:/Renesas/e2studio_2021_01_workspace_RZA2M_ANPR/ANPR_RZA2M_EBK/src/tensorflow_lite/tensorflow/lite/kernels/internal\common.h **** constexpr int min_log_x_output_bits(int input_bits) {
 516:C:/Renesas/e2studio_2021_01_workspace_RZA2M_ANPR/ANPR_RZA2M_EBK/src/tensorflow_lite/tensorflow/lite/kernels/internal\common.h ****   return input_bits > 90   ? 7
 517:C:/Renesas/e2studio_2021_01_workspace_RZA2M_ANPR/ANPR_RZA2M_EBK/src/tensorflow_lite/tensorflow/lite/kernels/internal\common.h ****          : input_bits > 44 ? 6
 518:C:/Renesas/e2studio_2021_01_workspace_RZA2M_ANPR/ANPR_RZA2M_EBK/src/tensorflow_lite/tensorflow/lite/kernels/internal\common.h ****          : input_bits > 21 ? 5
 519:C:/Renesas/e2studio_2021_01_workspace_RZA2M_ANPR/ANPR_RZA2M_EBK/src/tensorflow_lite/tensorflow/lite/kernels/internal\common.h ****          : input_bits > 10 ? 4
 520:C:/Renesas/e2studio_2021_01_workspace_RZA2M_ANPR/ANPR_RZA2M_EBK/src/tensorflow_lite/tensorflow/lite/kernels/internal\common.h ****          : input_bits > 4  ? 3
 521:C:/Renesas/e2studio_2021_01_workspace_RZA2M_ANPR/ANPR_RZA2M_EBK/src/tensorflow_lite/tensorflow/lite/kernels/internal\common.h ****          : input_bits > 1  ? 2
 522:C:/Renesas/e2studio_2021_01_workspace_RZA2M_ANPR/ANPR_RZA2M_EBK/src/tensorflow_lite/tensorflow/lite/kernels/internal\common.h ****                            : 1;
 523:C:/Renesas/e2studio_2021_01_workspace_RZA2M_ANPR/ANPR_RZA2M_EBK/src/tensorflow_lite/tensorflow/lite/kernels/internal\common.h **** }
 524:C:/Renesas/e2studio_2021_01_workspace_RZA2M_ANPR/ANPR_RZA2M_EBK/src/tensorflow_lite/tensorflow/lite/kernels/internal\common.h **** 
 525:C:/Renesas/e2studio_2021_01_workspace_RZA2M_ANPR/ANPR_RZA2M_EBK/src/tensorflow_lite/tensorflow/lite/kernels/internal\common.h **** // Although currently the name of this function says that it cannot handle
 526:C:/Renesas/e2studio_2021_01_workspace_RZA2M_ANPR/ANPR_RZA2M_EBK/src/tensorflow_lite/tensorflow/lite/kernels/internal\common.h **** // values less than 1, in practice it can handle as low as 1/x_max, where
 527:C:/Renesas/e2studio_2021_01_workspace_RZA2M_ANPR/ANPR_RZA2M_EBK/src/tensorflow_lite/tensorflow/lite/kernels/internal\common.h **** // x_max is the largest representable input.  In other words, the output range
 528:C:/Renesas/e2studio_2021_01_workspace_RZA2M_ANPR/ANPR_RZA2M_EBK/src/tensorflow_lite/tensorflow/lite/kernels/internal\common.h **** // is symmetric.
 529:C:/Renesas/e2studio_2021_01_workspace_RZA2M_ANPR/ANPR_RZA2M_EBK/src/tensorflow_lite/tensorflow/lite/kernels/internal\common.h **** template <int OutputIntegerBits, int InputIntegerBits>
 530:C:/Renesas/e2studio_2021_01_workspace_RZA2M_ANPR/ANPR_RZA2M_EBK/src/tensorflow_lite/tensorflow/lite/kernels/internal\common.h **** inline gemmlowp::FixedPoint<int32_t, OutputIntegerBits>
 531:C:/Renesas/e2studio_2021_01_workspace_RZA2M_ANPR/ANPR_RZA2M_EBK/src/tensorflow_lite/tensorflow/lite/kernels/internal\common.h **** log_x_for_x_greater_than_or_equal_to_1_impl(
 532:C:/Renesas/e2studio_2021_01_workspace_RZA2M_ANPR/ANPR_RZA2M_EBK/src/tensorflow_lite/tensorflow/lite/kernels/internal\common.h ****     gemmlowp::FixedPoint<int32_t, InputIntegerBits> input_val) {
 533:C:/Renesas/e2studio_2021_01_workspace_RZA2M_ANPR/ANPR_RZA2M_EBK/src/tensorflow_lite/tensorflow/lite/kernels/internal\common.h ****   // assert(__builtin_clz(0u) >= std::numeric_limits<uint32_t>::digits - 1);
 534:C:/Renesas/e2studio_2021_01_workspace_RZA2M_ANPR/ANPR_RZA2M_EBK/src/tensorflow_lite/tensorflow/lite/kernels/internal\common.h ****   // assert(__builtin_clz(0u) <= std::numeric_limits<uint32_t>::digits);
 535:C:/Renesas/e2studio_2021_01_workspace_RZA2M_ANPR/ANPR_RZA2M_EBK/src/tensorflow_lite/tensorflow/lite/kernels/internal\common.h ****   using FixedPoint0 = gemmlowp::FixedPoint<int32_t, 0>;
 536:C:/Renesas/e2studio_2021_01_workspace_RZA2M_ANPR/ANPR_RZA2M_EBK/src/tensorflow_lite/tensorflow/lite/kernels/internal\common.h ****   // The reason for accumulating the result with an extra bit of headroom is
 537:C:/Renesas/e2studio_2021_01_workspace_RZA2M_ANPR/ANPR_RZA2M_EBK/src/tensorflow_lite/tensorflow/lite/kernels/internal\common.h ****   // that z_pow_2_adj * log_2 might be saturated, and adding num_scaled *
 538:C:/Renesas/e2studio_2021_01_workspace_RZA2M_ANPR/ANPR_RZA2M_EBK/src/tensorflow_lite/tensorflow/lite/kernels/internal\common.h ****   // recip_denom will otherwise introduce an error.
 539:C:/Renesas/e2studio_2021_01_workspace_RZA2M_ANPR/ANPR_RZA2M_EBK/src/tensorflow_lite/tensorflow/lite/kernels/internal\common.h ****   static constexpr int kAccumIntegerBits = OutputIntegerBits + 1;
 540:C:/Renesas/e2studio_2021_01_workspace_RZA2M_ANPR/ANPR_RZA2M_EBK/src/tensorflow_lite/tensorflow/lite/kernels/internal\common.h ****   using FixedPointAccum = gemmlowp::FixedPoint<int32_t, kAccumIntegerBits>;
 541:C:/Renesas/e2studio_2021_01_workspace_RZA2M_ANPR/ANPR_RZA2M_EBK/src/tensorflow_lite/tensorflow/lite/kernels/internal\common.h **** 
 542:C:/Renesas/e2studio_2021_01_workspace_RZA2M_ANPR/ANPR_RZA2M_EBK/src/tensorflow_lite/tensorflow/lite/kernels/internal\common.h ****   const FixedPoint0 log_2 = GEMMLOWP_CHECKED_FIXEDPOINT_CONSTANT(
 543:C:/Renesas/e2studio_2021_01_workspace_RZA2M_ANPR/ANPR_RZA2M_EBK/src/tensorflow_lite/tensorflow/lite/kernels/internal\common.h ****       FixedPoint0, 1488522236, std::log(2.0));
 544:C:/Renesas/e2studio_2021_01_workspace_RZA2M_ANPR/ANPR_RZA2M_EBK/src/tensorflow_lite/tensorflow/lite/kernels/internal\common.h ****   const FixedPoint0 sqrt_sqrt_half = GEMMLOWP_CHECKED_FIXEDPOINT_CONSTANT(
 545:C:/Renesas/e2studio_2021_01_workspace_RZA2M_ANPR/ANPR_RZA2M_EBK/src/tensorflow_lite/tensorflow/lite/kernels/internal\common.h ****       FixedPoint0, 1805811301, std::sqrt(std::sqrt(0.5)));
 546:C:/Renesas/e2studio_2021_01_workspace_RZA2M_ANPR/ANPR_RZA2M_EBK/src/tensorflow_lite/tensorflow/lite/kernels/internal\common.h ****   const FixedPoint0 sqrt_half = GEMMLOWP_CHECKED_FIXEDPOINT_CONSTANT(
 547:C:/Renesas/e2studio_2021_01_workspace_RZA2M_ANPR/ANPR_RZA2M_EBK/src/tensorflow_lite/tensorflow/lite/kernels/internal\common.h ****       FixedPoint0, 1518500250, std::sqrt(0.5));
 548:C:/Renesas/e2studio_2021_01_workspace_RZA2M_ANPR/ANPR_RZA2M_EBK/src/tensorflow_lite/tensorflow/lite/kernels/internal\common.h ****   const FixedPoint0 one_quarter =
 549:C:/Renesas/e2studio_2021_01_workspace_RZA2M_ANPR/ANPR_RZA2M_EBK/src/tensorflow_lite/tensorflow/lite/kernels/internal\common.h ****       GEMMLOWP_CHECKED_FIXEDPOINT_CONSTANT(FixedPoint0, 536870912, 1.0 / 4.0);
 550:C:/Renesas/e2studio_2021_01_workspace_RZA2M_ANPR/ANPR_RZA2M_EBK/src/tensorflow_lite/tensorflow/lite/kernels/internal\common.h **** 
 551:C:/Renesas/e2studio_2021_01_workspace_RZA2M_ANPR/ANPR_RZA2M_EBK/src/tensorflow_lite/tensorflow/lite/kernels/internal\common.h ****   const FixedPoint0 alpha_n = GEMMLOWP_CHECKED_FIXEDPOINT_CONSTANT(
 552:C:/Renesas/e2studio_2021_01_workspace_RZA2M_ANPR/ANPR_RZA2M_EBK/src/tensorflow_lite/tensorflow/lite/kernels/internal\common.h ****       FixedPoint0, 117049297, 11.0 / 240.0 * std::sqrt(std::sqrt(2.0)));
 553:C:/Renesas/e2studio_2021_01_workspace_RZA2M_ANPR/ANPR_RZA2M_EBK/src/tensorflow_lite/tensorflow/lite/kernels/internal\common.h ****   const FixedPoint0 alpha_d = GEMMLOWP_CHECKED_FIXEDPOINT_CONSTANT(
 554:C:/Renesas/e2studio_2021_01_workspace_RZA2M_ANPR/ANPR_RZA2M_EBK/src/tensorflow_lite/tensorflow/lite/kernels/internal\common.h ****       FixedPoint0, 127690142, 1.0 / 20.0 * std::sqrt(std::sqrt(2.0)));
 555:C:/Renesas/e2studio_2021_01_workspace_RZA2M_ANPR/ANPR_RZA2M_EBK/src/tensorflow_lite/tensorflow/lite/kernels/internal\common.h ****   const FixedPoint0 alpha_i = GEMMLOWP_CHECKED_FIXEDPOINT_CONSTANT(
 556:C:/Renesas/e2studio_2021_01_workspace_RZA2M_ANPR/ANPR_RZA2M_EBK/src/tensorflow_lite/tensorflow/lite/kernels/internal\common.h ****       FixedPoint0, 1057819769,
 557:C:/Renesas/e2studio_2021_01_workspace_RZA2M_ANPR/ANPR_RZA2M_EBK/src/tensorflow_lite/tensorflow/lite/kernels/internal\common.h ****       2.0 / std::sqrt(std::sqrt(2.0)) - std::sqrt(std::sqrt(2.0)));
 558:C:/Renesas/e2studio_2021_01_workspace_RZA2M_ANPR/ANPR_RZA2M_EBK/src/tensorflow_lite/tensorflow/lite/kernels/internal\common.h ****   const FixedPoint0 alpha_f = GEMMLOWP_CHECKED_FIXEDPOINT_CONSTANT(
 559:C:/Renesas/e2studio_2021_01_workspace_RZA2M_ANPR/ANPR_RZA2M_EBK/src/tensorflow_lite/tensorflow/lite/kernels/internal\common.h ****       FixedPoint0, 638450708, 1.0 / 4.0 * std::sqrt(std::sqrt(2.0)));
 560:C:/Renesas/e2studio_2021_01_workspace_RZA2M_ANPR/ANPR_RZA2M_EBK/src/tensorflow_lite/tensorflow/lite/kernels/internal\common.h **** 
 561:C:/Renesas/e2studio_2021_01_workspace_RZA2M_ANPR/ANPR_RZA2M_EBK/src/tensorflow_lite/tensorflow/lite/kernels/internal\common.h ****   const FixedPointAccum shifted_quarter =
 562:C:/Renesas/e2studio_2021_01_workspace_RZA2M_ANPR/ANPR_RZA2M_EBK/src/tensorflow_lite/tensorflow/lite/kernels/internal\common.h ****       gemmlowp::Rescale<kAccumIntegerBits>(one_quarter);
 563:C:/Renesas/e2studio_2021_01_workspace_RZA2M_ANPR/ANPR_RZA2M_EBK/src/tensorflow_lite/tensorflow/lite/kernels/internal\common.h **** 
 564:C:/Renesas/e2studio_2021_01_workspace_RZA2M_ANPR/ANPR_RZA2M_EBK/src/tensorflow_lite/tensorflow/lite/kernels/internal\common.h ****   // Reinterpret the input value as Q0.31, because we will figure out the
 565:C:/Renesas/e2studio_2021_01_workspace_RZA2M_ANPR/ANPR_RZA2M_EBK/src/tensorflow_lite/tensorflow/lite/kernels/internal\common.h ****   // required shift "ourselves" instead of using, say, Rescale.
 566:C:/Renesas/e2studio_2021_01_workspace_RZA2M_ANPR/ANPR_RZA2M_EBK/src/tensorflow_lite/tensorflow/lite/kernels/internal\common.h ****   FixedPoint0 z_a = FixedPoint0::FromRaw(input_val.raw());
 567:C:/Renesas/e2studio_2021_01_workspace_RZA2M_ANPR/ANPR_RZA2M_EBK/src/tensorflow_lite/tensorflow/lite/kernels/internal\common.h ****   // z_a_pow_2 = input_integer_bits - z_a_headroom;
 568:C:/Renesas/e2studio_2021_01_workspace_RZA2M_ANPR/ANPR_RZA2M_EBK/src/tensorflow_lite/tensorflow/lite/kernels/internal\common.h ****   int z_a_headroom_plus_1 = CountLeadingZeros(static_cast<uint32_t>(z_a.raw()));
 569:C:/Renesas/e2studio_2021_01_workspace_RZA2M_ANPR/ANPR_RZA2M_EBK/src/tensorflow_lite/tensorflow/lite/kernels/internal\common.h ****   FixedPoint0 r_a_tmp =
 570:C:/Renesas/e2studio_2021_01_workspace_RZA2M_ANPR/ANPR_RZA2M_EBK/src/tensorflow_lite/tensorflow/lite/kernels/internal\common.h ****       SaturatingRoundingMultiplyByPOTParam(z_a, (z_a_headroom_plus_1 - 1));
 571:C:/Renesas/e2studio_2021_01_workspace_RZA2M_ANPR/ANPR_RZA2M_EBK/src/tensorflow_lite/tensorflow/lite/kernels/internal\common.h ****   const int32_t r_a_raw =
 572:C:/Renesas/e2studio_2021_01_workspace_RZA2M_ANPR/ANPR_RZA2M_EBK/src/tensorflow_lite/tensorflow/lite/kernels/internal\common.h ****       SaturatingRoundingMultiplyByPOTParam((r_a_tmp * sqrt_half).raw(), 1);
 573:C:/Renesas/e2studio_2021_01_workspace_RZA2M_ANPR/ANPR_RZA2M_EBK/src/tensorflow_lite/tensorflow/lite/kernels/internal\common.h ****   // z_pow_2_adj = max(z_pow_2_a - 0.75, z_pow_2_b - 0.25);
 574:C:/Renesas/e2studio_2021_01_workspace_RZA2M_ANPR/ANPR_RZA2M_EBK/src/tensorflow_lite/tensorflow/lite/kernels/internal\common.h ****   // z_pow_2_adj = max(InputIntegerBits - z_a_headroom_plus_1 + 0.25,
 575:C:/Renesas/e2studio_2021_01_workspace_RZA2M_ANPR/ANPR_RZA2M_EBK/src/tensorflow_lite/tensorflow/lite/kernels/internal\common.h ****   //                   InputIntegerBits - z_b_headroom - 0.25);
 576:C:/Renesas/e2studio_2021_01_workspace_RZA2M_ANPR/ANPR_RZA2M_EBK/src/tensorflow_lite/tensorflow/lite/kernels/internal\common.h ****   const FixedPointAccum z_a_pow_2_adj = SaturatingAddNonGemmlowp(
 577:C:/Renesas/e2studio_2021_01_workspace_RZA2M_ANPR/ANPR_RZA2M_EBK/src/tensorflow_lite/tensorflow/lite/kernels/internal\common.h ****       FixedPointAccum::FromRaw(SaturatingRoundingMultiplyByPOTParam(
 578:C:/Renesas/e2studio_2021_01_workspace_RZA2M_ANPR/ANPR_RZA2M_EBK/src/tensorflow_lite/tensorflow/lite/kernels/internal\common.h ****           static_cast<int32_t>(InputIntegerBits - z_a_headroom_plus_1),
 579:C:/Renesas/e2studio_2021_01_workspace_RZA2M_ANPR/ANPR_RZA2M_EBK/src/tensorflow_lite/tensorflow/lite/kernels/internal\common.h ****           31 - kAccumIntegerBits)),
 580:C:/Renesas/e2studio_2021_01_workspace_RZA2M_ANPR/ANPR_RZA2M_EBK/src/tensorflow_lite/tensorflow/lite/kernels/internal\common.h ****       shifted_quarter);
 581:C:/Renesas/e2studio_2021_01_workspace_RZA2M_ANPR/ANPR_RZA2M_EBK/src/tensorflow_lite/tensorflow/lite/kernels/internal\common.h **** 
 582:C:/Renesas/e2studio_2021_01_workspace_RZA2M_ANPR/ANPR_RZA2M_EBK/src/tensorflow_lite/tensorflow/lite/kernels/internal\common.h ****   // z_b is treated like z_a, but premultiplying by sqrt(0.5).
 583:C:/Renesas/e2studio_2021_01_workspace_RZA2M_ANPR/ANPR_RZA2M_EBK/src/tensorflow_lite/tensorflow/lite/kernels/internal\common.h ****   FixedPoint0 z_b = z_a * sqrt_half;
 584:C:/Renesas/e2studio_2021_01_workspace_RZA2M_ANPR/ANPR_RZA2M_EBK/src/tensorflow_lite/tensorflow/lite/kernels/internal\common.h ****   int z_b_headroom = CountLeadingZeros(static_cast<uint32_t>(z_b.raw())) - 1;
 585:C:/Renesas/e2studio_2021_01_workspace_RZA2M_ANPR/ANPR_RZA2M_EBK/src/tensorflow_lite/tensorflow/lite/kernels/internal\common.h ****   const int32_t r_b_raw =
 586:C:/Renesas/e2studio_2021_01_workspace_RZA2M_ANPR/ANPR_RZA2M_EBK/src/tensorflow_lite/tensorflow/lite/kernels/internal\common.h ****       SaturatingRoundingMultiplyByPOTParam(z_a.raw(), z_b_headroom);
 587:C:/Renesas/e2studio_2021_01_workspace_RZA2M_ANPR/ANPR_RZA2M_EBK/src/tensorflow_lite/tensorflow/lite/kernels/internal\common.h ****   const FixedPointAccum z_b_pow_2_adj = SaturatingSub(
 588:C:/Renesas/e2studio_2021_01_workspace_RZA2M_ANPR/ANPR_RZA2M_EBK/src/tensorflow_lite/tensorflow/lite/kernels/internal\common.h ****       FixedPointAccum::FromRaw(SaturatingRoundingMultiplyByPOTParam(
 589:C:/Renesas/e2studio_2021_01_workspace_RZA2M_ANPR/ANPR_RZA2M_EBK/src/tensorflow_lite/tensorflow/lite/kernels/internal\common.h ****           static_cast<int32_t>(InputIntegerBits - z_b_headroom),
 590:C:/Renesas/e2studio_2021_01_workspace_RZA2M_ANPR/ANPR_RZA2M_EBK/src/tensorflow_lite/tensorflow/lite/kernels/internal\common.h ****           31 - kAccumIntegerBits)),
 591:C:/Renesas/e2studio_2021_01_workspace_RZA2M_ANPR/ANPR_RZA2M_EBK/src/tensorflow_lite/tensorflow/lite/kernels/internal\common.h ****       shifted_quarter);
 592:C:/Renesas/e2studio_2021_01_workspace_RZA2M_ANPR/ANPR_RZA2M_EBK/src/tensorflow_lite/tensorflow/lite/kernels/internal\common.h **** 
 593:C:/Renesas/e2studio_2021_01_workspace_RZA2M_ANPR/ANPR_RZA2M_EBK/src/tensorflow_lite/tensorflow/lite/kernels/internal\common.h ****   const FixedPoint0 r = FixedPoint0::FromRaw(std::min(r_a_raw, r_b_raw));
 594:C:/Renesas/e2studio_2021_01_workspace_RZA2M_ANPR/ANPR_RZA2M_EBK/src/tensorflow_lite/tensorflow/lite/kernels/internal\common.h ****   const FixedPointAccum z_pow_2_adj = FixedPointAccum::FromRaw(
 595:C:/Renesas/e2studio_2021_01_workspace_RZA2M_ANPR/ANPR_RZA2M_EBK/src/tensorflow_lite/tensorflow/lite/kernels/internal\common.h ****       std::max(z_a_pow_2_adj.raw(), z_b_pow_2_adj.raw()));
 596:C:/Renesas/e2studio_2021_01_workspace_RZA2M_ANPR/ANPR_RZA2M_EBK/src/tensorflow_lite/tensorflow/lite/kernels/internal\common.h **** 
 597:C:/Renesas/e2studio_2021_01_workspace_RZA2M_ANPR/ANPR_RZA2M_EBK/src/tensorflow_lite/tensorflow/lite/kernels/internal\common.h ****   const FixedPoint0 p = gemmlowp::RoundingHalfSum(r, sqrt_sqrt_half);
 598:C:/Renesas/e2studio_2021_01_workspace_RZA2M_ANPR/ANPR_RZA2M_EBK/src/tensorflow_lite/tensorflow/lite/kernels/internal\common.h ****   FixedPoint0 q = r - sqrt_sqrt_half;
 599:C:/Renesas/e2studio_2021_01_workspace_RZA2M_ANPR/ANPR_RZA2M_EBK/src/tensorflow_lite/tensorflow/lite/kernels/internal\common.h ****   q = q + q;
 600:C:/Renesas/e2studio_2021_01_workspace_RZA2M_ANPR/ANPR_RZA2M_EBK/src/tensorflow_lite/tensorflow/lite/kernels/internal\common.h **** 
 601:C:/Renesas/e2studio_2021_01_workspace_RZA2M_ANPR/ANPR_RZA2M_EBK/src/tensorflow_lite/tensorflow/lite/kernels/internal\common.h ****   const FixedPoint0 common_sq = q * q;
 602:C:/Renesas/e2studio_2021_01_workspace_RZA2M_ANPR/ANPR_RZA2M_EBK/src/tensorflow_lite/tensorflow/lite/kernels/internal\common.h ****   const FixedPoint0 num = q * r + q * common_sq * alpha_n;
 603:C:/Renesas/e2studio_2021_01_workspace_RZA2M_ANPR/ANPR_RZA2M_EBK/src/tensorflow_lite/tensorflow/lite/kernels/internal\common.h ****   const FixedPoint0 denom_minus_one_0 =
 604:C:/Renesas/e2studio_2021_01_workspace_RZA2M_ANPR/ANPR_RZA2M_EBK/src/tensorflow_lite/tensorflow/lite/kernels/internal\common.h ****       p * (alpha_i + q + alpha_d * common_sq) + alpha_f * q;
 605:C:/Renesas/e2studio_2021_01_workspace_RZA2M_ANPR/ANPR_RZA2M_EBK/src/tensorflow_lite/tensorflow/lite/kernels/internal\common.h ****   const FixedPoint0 recip_denom =
 606:C:/Renesas/e2studio_2021_01_workspace_RZA2M_ANPR/ANPR_RZA2M_EBK/src/tensorflow_lite/tensorflow/lite/kernels/internal\common.h ****       one_over_one_plus_x_for_x_in_0_1(denom_minus_one_0);
 607:C:/Renesas/e2studio_2021_01_workspace_RZA2M_ANPR/ANPR_RZA2M_EBK/src/tensorflow_lite/tensorflow/lite/kernels/internal\common.h **** 
 608:C:/Renesas/e2studio_2021_01_workspace_RZA2M_ANPR/ANPR_RZA2M_EBK/src/tensorflow_lite/tensorflow/lite/kernels/internal\common.h ****   const FixedPointAccum num_scaled = gemmlowp::Rescale<kAccumIntegerBits>(num);
 609:C:/Renesas/e2studio_2021_01_workspace_RZA2M_ANPR/ANPR_RZA2M_EBK/src/tensorflow_lite/tensorflow/lite/kernels/internal\common.h ****   return gemmlowp::Rescale<OutputIntegerBits>(z_pow_2_adj * log_2 +
 610:C:/Renesas/e2studio_2021_01_workspace_RZA2M_ANPR/ANPR_RZA2M_EBK/src/tensorflow_lite/tensorflow/lite/kernels/internal\common.h ****                                               num_scaled * recip_denom);
 611:C:/Renesas/e2studio_2021_01_workspace_RZA2M_ANPR/ANPR_RZA2M_EBK/src/tensorflow_lite/tensorflow/lite/kernels/internal\common.h **** }
 612:C:/Renesas/e2studio_2021_01_workspace_RZA2M_ANPR/ANPR_RZA2M_EBK/src/tensorflow_lite/tensorflow/lite/kernels/internal\common.h **** 
 613:C:/Renesas/e2studio_2021_01_workspace_RZA2M_ANPR/ANPR_RZA2M_EBK/src/tensorflow_lite/tensorflow/lite/kernels/internal\common.h **** template <int OutputIntegerBits, int InputIntegerBits>
 614:C:/Renesas/e2studio_2021_01_workspace_RZA2M_ANPR/ANPR_RZA2M_EBK/src/tensorflow_lite/tensorflow/lite/kernels/internal\common.h **** inline gemmlowp::FixedPoint<int32_t, OutputIntegerBits>
 615:C:/Renesas/e2studio_2021_01_workspace_RZA2M_ANPR/ANPR_RZA2M_EBK/src/tensorflow_lite/tensorflow/lite/kernels/internal\common.h **** log_x_for_x_greater_than_or_equal_to_1(
 616:C:/Renesas/e2studio_2021_01_workspace_RZA2M_ANPR/ANPR_RZA2M_EBK/src/tensorflow_lite/tensorflow/lite/kernels/internal\common.h ****     gemmlowp::FixedPoint<int32_t, InputIntegerBits> input_val) {
 617:C:/Renesas/e2studio_2021_01_workspace_RZA2M_ANPR/ANPR_RZA2M_EBK/src/tensorflow_lite/tensorflow/lite/kernels/internal\common.h ****   static_assert(
 618:C:/Renesas/e2studio_2021_01_workspace_RZA2M_ANPR/ANPR_RZA2M_EBK/src/tensorflow_lite/tensorflow/lite/kernels/internal\common.h ****       OutputIntegerBits >= min_log_x_output_bits(InputIntegerBits),
 619:C:/Renesas/e2studio_2021_01_workspace_RZA2M_ANPR/ANPR_RZA2M_EBK/src/tensorflow_lite/tensorflow/lite/kernels/internal\common.h ****       "Output integer bits must be sufficient to accommodate logs of inputs.");
 620:C:/Renesas/e2studio_2021_01_workspace_RZA2M_ANPR/ANPR_RZA2M_EBK/src/tensorflow_lite/tensorflow/lite/kernels/internal\common.h ****   return log_x_for_x_greater_than_or_equal_to_1_impl<OutputIntegerBits,
 621:C:/Renesas/e2studio_2021_01_workspace_RZA2M_ANPR/ANPR_RZA2M_EBK/src/tensorflow_lite/tensorflow/lite/kernels/internal\common.h ****                                                      InputIntegerBits>(
 622:C:/Renesas/e2studio_2021_01_workspace_RZA2M_ANPR/ANPR_RZA2M_EBK/src/tensorflow_lite/tensorflow/lite/kernels/internal\common.h ****       input_val);
 623:C:/Renesas/e2studio_2021_01_workspace_RZA2M_ANPR/ANPR_RZA2M_EBK/src/tensorflow_lite/tensorflow/lite/kernels/internal\common.h **** }
 624:C:/Renesas/e2studio_2021_01_workspace_RZA2M_ANPR/ANPR_RZA2M_EBK/src/tensorflow_lite/tensorflow/lite/kernels/internal\common.h **** 
 625:C:/Renesas/e2studio_2021_01_workspace_RZA2M_ANPR/ANPR_RZA2M_EBK/src/tensorflow_lite/tensorflow/lite/kernels/internal\common.h **** inline int32_t GetReciprocal(int32_t x, int x_integer_digits,
 626:C:/Renesas/e2studio_2021_01_workspace_RZA2M_ANPR/ANPR_RZA2M_EBK/src/tensorflow_lite/tensorflow/lite/kernels/internal\common.h ****                              int* num_bits_over_unit) {
 627:C:/Renesas/e2studio_2021_01_workspace_RZA2M_ANPR/ANPR_RZA2M_EBK/src/tensorflow_lite/tensorflow/lite/kernels/internal\common.h ****   int headroom_plus_one = CountLeadingZeros(static_cast<uint32_t>(x));
 628:C:/Renesas/e2studio_2021_01_workspace_RZA2M_ANPR/ANPR_RZA2M_EBK/src/tensorflow_lite/tensorflow/lite/kernels/internal\common.h ****   // This is the number of bits to the left of the binary point above 1.0.
 629:C:/Renesas/e2studio_2021_01_workspace_RZA2M_ANPR/ANPR_RZA2M_EBK/src/tensorflow_lite/tensorflow/lite/kernels/internal\common.h ****   // Consider x=1.25.  In that case shifted_scale=0.8 and
 630:C:/Renesas/e2studio_2021_01_workspace_RZA2M_ANPR/ANPR_RZA2M_EBK/src/tensorflow_lite/tensorflow/lite/kernels/internal\common.h ****   // no later adjustment will be needed.
 631:C:/Renesas/e2studio_2021_01_workspace_RZA2M_ANPR/ANPR_RZA2M_EBK/src/tensorflow_lite/tensorflow/lite/kernels/internal\common.h ****   *num_bits_over_unit = x_integer_digits - headroom_plus_one;
 632:C:/Renesas/e2studio_2021_01_workspace_RZA2M_ANPR/ANPR_RZA2M_EBK/src/tensorflow_lite/tensorflow/lite/kernels/internal\common.h ****   const int32_t shifted_sum_minus_one =
 633:C:/Renesas/e2studio_2021_01_workspace_RZA2M_ANPR/ANPR_RZA2M_EBK/src/tensorflow_lite/tensorflow/lite/kernels/internal\common.h ****       static_cast<int32_t>((static_cast<uint32_t>(x) << headroom_plus_one) -
 634:C:/Renesas/e2studio_2021_01_workspace_RZA2M_ANPR/ANPR_RZA2M_EBK/src/tensorflow_lite/tensorflow/lite/kernels/internal\common.h ****                            (static_cast<uint32_t>(1) << 31));
 635:C:/Renesas/e2studio_2021_01_workspace_RZA2M_ANPR/ANPR_RZA2M_EBK/src/tensorflow_lite/tensorflow/lite/kernels/internal\common.h **** 
 636:C:/Renesas/e2studio_2021_01_workspace_RZA2M_ANPR/ANPR_RZA2M_EBK/src/tensorflow_lite/tensorflow/lite/kernels/internal\common.h ****   gemmlowp::FixedPoint<int32_t, 0> shifted_scale =
 637:C:/Renesas/e2studio_2021_01_workspace_RZA2M_ANPR/ANPR_RZA2M_EBK/src/tensorflow_lite/tensorflow/lite/kernels/internal\common.h ****       gemmlowp::one_over_one_plus_x_for_x_in_0_1(
 638:C:/Renesas/e2studio_2021_01_workspace_RZA2M_ANPR/ANPR_RZA2M_EBK/src/tensorflow_lite/tensorflow/lite/kernels/internal\common.h ****           gemmlowp::FixedPoint<int32_t, 0>::FromRaw(shifted_sum_minus_one));
 639:C:/Renesas/e2studio_2021_01_workspace_RZA2M_ANPR/ANPR_RZA2M_EBK/src/tensorflow_lite/tensorflow/lite/kernels/internal\common.h ****   return shifted_scale.raw();
 640:C:/Renesas/e2studio_2021_01_workspace_RZA2M_ANPR/ANPR_RZA2M_EBK/src/tensorflow_lite/tensorflow/lite/kernels/internal\common.h **** }
 641:C:/Renesas/e2studio_2021_01_workspace_RZA2M_ANPR/ANPR_RZA2M_EBK/src/tensorflow_lite/tensorflow/lite/kernels/internal\common.h **** 
 642:C:/Renesas/e2studio_2021_01_workspace_RZA2M_ANPR/ANPR_RZA2M_EBK/src/tensorflow_lite/tensorflow/lite/kernels/internal\common.h **** inline void GetInvSqrtQuantizedMultiplierExp(int32_t input, int reverse_shift,
 643:C:/Renesas/e2studio_2021_01_workspace_RZA2M_ANPR/ANPR_RZA2M_EBK/src/tensorflow_lite/tensorflow/lite/kernels/internal\common.h ****                                              int32_t* output_inv_sqrt,
 644:C:/Renesas/e2studio_2021_01_workspace_RZA2M_ANPR/ANPR_RZA2M_EBK/src/tensorflow_lite/tensorflow/lite/kernels/internal\common.h ****                                              int* output_shift) {
 645:C:/Renesas/e2studio_2021_01_workspace_RZA2M_ANPR/ANPR_RZA2M_EBK/src/tensorflow_lite/tensorflow/lite/kernels/internal\common.h ****   TFLITE_DCHECK_GE(input, 0);
 646:C:/Renesas/e2studio_2021_01_workspace_RZA2M_ANPR/ANPR_RZA2M_EBK/src/tensorflow_lite/tensorflow/lite/kernels/internal\common.h ****   if (input <= 1) {
 647:C:/Renesas/e2studio_2021_01_workspace_RZA2M_ANPR/ANPR_RZA2M_EBK/src/tensorflow_lite/tensorflow/lite/kernels/internal\common.h ****     // Handle the input value 1 separately to avoid overflow in that case
 648:C:/Renesas/e2studio_2021_01_workspace_RZA2M_ANPR/ANPR_RZA2M_EBK/src/tensorflow_lite/tensorflow/lite/kernels/internal\common.h ****     // in the general computation below (b/143972021). Also handle 0 as if it
 649:C:/Renesas/e2studio_2021_01_workspace_RZA2M_ANPR/ANPR_RZA2M_EBK/src/tensorflow_lite/tensorflow/lite/kernels/internal\common.h ****     // were a 1. 0 is an invalid input here (divide by zero) and 1 is a valid
 650:C:/Renesas/e2studio_2021_01_workspace_RZA2M_ANPR/ANPR_RZA2M_EBK/src/tensorflow_lite/tensorflow/lite/kernels/internal\common.h ****     // but rare/unrealistic input value. We can expect both to occur in some
 651:C:/Renesas/e2studio_2021_01_workspace_RZA2M_ANPR/ANPR_RZA2M_EBK/src/tensorflow_lite/tensorflow/lite/kernels/internal\common.h ****     // incompletely trained models, but probably not in fully trained models.
 652:C:/Renesas/e2studio_2021_01_workspace_RZA2M_ANPR/ANPR_RZA2M_EBK/src/tensorflow_lite/tensorflow/lite/kernels/internal\common.h ****     *output_inv_sqrt = std::numeric_limits<std::int32_t>::max();
 653:C:/Renesas/e2studio_2021_01_workspace_RZA2M_ANPR/ANPR_RZA2M_EBK/src/tensorflow_lite/tensorflow/lite/kernels/internal\common.h ****     *output_shift = 0;
 654:C:/Renesas/e2studio_2021_01_workspace_RZA2M_ANPR/ANPR_RZA2M_EBK/src/tensorflow_lite/tensorflow/lite/kernels/internal\common.h ****     return;
 655:C:/Renesas/e2studio_2021_01_workspace_RZA2M_ANPR/ANPR_RZA2M_EBK/src/tensorflow_lite/tensorflow/lite/kernels/internal\common.h ****   }
 656:C:/Renesas/e2studio_2021_01_workspace_RZA2M_ANPR/ANPR_RZA2M_EBK/src/tensorflow_lite/tensorflow/lite/kernels/internal\common.h ****   TFLITE_DCHECK_GT(input, 1);
 657:C:/Renesas/e2studio_2021_01_workspace_RZA2M_ANPR/ANPR_RZA2M_EBK/src/tensorflow_lite/tensorflow/lite/kernels/internal\common.h ****   *output_shift = 11;
 658:C:/Renesas/e2studio_2021_01_workspace_RZA2M_ANPR/ANPR_RZA2M_EBK/src/tensorflow_lite/tensorflow/lite/kernels/internal\common.h ****   while (input >= (1 << 29)) {
 659:C:/Renesas/e2studio_2021_01_workspace_RZA2M_ANPR/ANPR_RZA2M_EBK/src/tensorflow_lite/tensorflow/lite/kernels/internal\common.h ****     input /= 4;
 660:C:/Renesas/e2studio_2021_01_workspace_RZA2M_ANPR/ANPR_RZA2M_EBK/src/tensorflow_lite/tensorflow/lite/kernels/internal\common.h ****     ++*output_shift;
 661:C:/Renesas/e2studio_2021_01_workspace_RZA2M_ANPR/ANPR_RZA2M_EBK/src/tensorflow_lite/tensorflow/lite/kernels/internal\common.h ****   }
 662:C:/Renesas/e2studio_2021_01_workspace_RZA2M_ANPR/ANPR_RZA2M_EBK/src/tensorflow_lite/tensorflow/lite/kernels/internal\common.h ****   const unsigned max_left_shift_bits =
 663:C:/Renesas/e2studio_2021_01_workspace_RZA2M_ANPR/ANPR_RZA2M_EBK/src/tensorflow_lite/tensorflow/lite/kernels/internal\common.h ****       CountLeadingZeros(static_cast<uint32_t>(input)) - 1;
 664:C:/Renesas/e2studio_2021_01_workspace_RZA2M_ANPR/ANPR_RZA2M_EBK/src/tensorflow_lite/tensorflow/lite/kernels/internal\common.h ****   const unsigned max_left_shift_bit_pairs = max_left_shift_bits / 2;
 665:C:/Renesas/e2studio_2021_01_workspace_RZA2M_ANPR/ANPR_RZA2M_EBK/src/tensorflow_lite/tensorflow/lite/kernels/internal\common.h ****   const unsigned left_shift_bit_pairs = max_left_shift_bit_pairs - 1;
 666:C:/Renesas/e2studio_2021_01_workspace_RZA2M_ANPR/ANPR_RZA2M_EBK/src/tensorflow_lite/tensorflow/lite/kernels/internal\common.h ****   *output_shift -= left_shift_bit_pairs;
 667:C:/Renesas/e2studio_2021_01_workspace_RZA2M_ANPR/ANPR_RZA2M_EBK/src/tensorflow_lite/tensorflow/lite/kernels/internal\common.h ****   input <<= 2 * left_shift_bit_pairs;
 668:C:/Renesas/e2studio_2021_01_workspace_RZA2M_ANPR/ANPR_RZA2M_EBK/src/tensorflow_lite/tensorflow/lite/kernels/internal\common.h ****   TFLITE_DCHECK_GE(input, (1 << 27));
 669:C:/Renesas/e2studio_2021_01_workspace_RZA2M_ANPR/ANPR_RZA2M_EBK/src/tensorflow_lite/tensorflow/lite/kernels/internal\common.h ****   TFLITE_DCHECK_LT(input, (1 << 29));
 670:C:/Renesas/e2studio_2021_01_workspace_RZA2M_ANPR/ANPR_RZA2M_EBK/src/tensorflow_lite/tensorflow/lite/kernels/internal\common.h ****   using gemmlowp::FixedPoint;
 671:C:/Renesas/e2studio_2021_01_workspace_RZA2M_ANPR/ANPR_RZA2M_EBK/src/tensorflow_lite/tensorflow/lite/kernels/internal\common.h ****   using gemmlowp::Rescale;
 672:C:/Renesas/e2studio_2021_01_workspace_RZA2M_ANPR/ANPR_RZA2M_EBK/src/tensorflow_lite/tensorflow/lite/kernels/internal\common.h ****   using gemmlowp::SaturatingRoundingMultiplyByPOT;
 673:C:/Renesas/e2studio_2021_01_workspace_RZA2M_ANPR/ANPR_RZA2M_EBK/src/tensorflow_lite/tensorflow/lite/kernels/internal\common.h ****   // Using 3 integer bits gives us enough room for the internal arithmetic in
 674:C:/Renesas/e2studio_2021_01_workspace_RZA2M_ANPR/ANPR_RZA2M_EBK/src/tensorflow_lite/tensorflow/lite/kernels/internal\common.h ****   // this Newton-Raphson iteration.
 675:C:/Renesas/e2studio_2021_01_workspace_RZA2M_ANPR/ANPR_RZA2M_EBK/src/tensorflow_lite/tensorflow/lite/kernels/internal\common.h ****   using F3 = FixedPoint<int32_t, 3>;
 676:C:/Renesas/e2studio_2021_01_workspace_RZA2M_ANPR/ANPR_RZA2M_EBK/src/tensorflow_lite/tensorflow/lite/kernels/internal\common.h ****   using F0 = FixedPoint<int32_t, 0>;
 677:C:/Renesas/e2studio_2021_01_workspace_RZA2M_ANPR/ANPR_RZA2M_EBK/src/tensorflow_lite/tensorflow/lite/kernels/internal\common.h ****   const F3 fixedpoint_input = F3::FromRaw(input >> 1);
 678:C:/Renesas/e2studio_2021_01_workspace_RZA2M_ANPR/ANPR_RZA2M_EBK/src/tensorflow_lite/tensorflow/lite/kernels/internal\common.h ****   const F3 fixedpoint_half_input =
 679:C:/Renesas/e2studio_2021_01_workspace_RZA2M_ANPR/ANPR_RZA2M_EBK/src/tensorflow_lite/tensorflow/lite/kernels/internal\common.h ****       SaturatingRoundingMultiplyByPOT<-1>(fixedpoint_input);
 680:C:/Renesas/e2studio_2021_01_workspace_RZA2M_ANPR/ANPR_RZA2M_EBK/src/tensorflow_lite/tensorflow/lite/kernels/internal\common.h ****   const F3 fixedpoint_half_three =
 681:C:/Renesas/e2studio_2021_01_workspace_RZA2M_ANPR/ANPR_RZA2M_EBK/src/tensorflow_lite/tensorflow/lite/kernels/internal\common.h ****       GEMMLOWP_CHECKED_FIXEDPOINT_CONSTANT(F3, (1 << 28) + (1 << 27), 1.5);
 682:C:/Renesas/e2studio_2021_01_workspace_RZA2M_ANPR/ANPR_RZA2M_EBK/src/tensorflow_lite/tensorflow/lite/kernels/internal\common.h ****   // Newton-Raphson iteration
 683:C:/Renesas/e2studio_2021_01_workspace_RZA2M_ANPR/ANPR_RZA2M_EBK/src/tensorflow_lite/tensorflow/lite/kernels/internal\common.h ****   // Naive unoptimized starting guess: x = 1
 684:C:/Renesas/e2studio_2021_01_workspace_RZA2M_ANPR/ANPR_RZA2M_EBK/src/tensorflow_lite/tensorflow/lite/kernels/internal\common.h ****   F3 x = F3::One();
 685:C:/Renesas/e2studio_2021_01_workspace_RZA2M_ANPR/ANPR_RZA2M_EBK/src/tensorflow_lite/tensorflow/lite/kernels/internal\common.h ****   // Naive unoptimized number of iterations: 5
 686:C:/Renesas/e2studio_2021_01_workspace_RZA2M_ANPR/ANPR_RZA2M_EBK/src/tensorflow_lite/tensorflow/lite/kernels/internal\common.h ****   for (int i = 0; i < 5; i++) {
 687:C:/Renesas/e2studio_2021_01_workspace_RZA2M_ANPR/ANPR_RZA2M_EBK/src/tensorflow_lite/tensorflow/lite/kernels/internal\common.h ****     const F3 x3 = Rescale<3>(x * x * x);
 688:C:/Renesas/e2studio_2021_01_workspace_RZA2M_ANPR/ANPR_RZA2M_EBK/src/tensorflow_lite/tensorflow/lite/kernels/internal\common.h ****     x = Rescale<3>(fixedpoint_half_three * x - fixedpoint_half_input * x3);
 689:C:/Renesas/e2studio_2021_01_workspace_RZA2M_ANPR/ANPR_RZA2M_EBK/src/tensorflow_lite/tensorflow/lite/kernels/internal\common.h ****   }
 690:C:/Renesas/e2studio_2021_01_workspace_RZA2M_ANPR/ANPR_RZA2M_EBK/src/tensorflow_lite/tensorflow/lite/kernels/internal\common.h ****   const F0 fixedpoint_half_sqrt_2 =
 691:C:/Renesas/e2studio_2021_01_workspace_RZA2M_ANPR/ANPR_RZA2M_EBK/src/tensorflow_lite/tensorflow/lite/kernels/internal\common.h ****       GEMMLOWP_CHECKED_FIXEDPOINT_CONSTANT(F0, 1518500250, std::sqrt(2.) / 2.);
 692:C:/Renesas/e2studio_2021_01_workspace_RZA2M_ANPR/ANPR_RZA2M_EBK/src/tensorflow_lite/tensorflow/lite/kernels/internal\common.h ****   x = x * fixedpoint_half_sqrt_2;
 693:C:/Renesas/e2studio_2021_01_workspace_RZA2M_ANPR/ANPR_RZA2M_EBK/src/tensorflow_lite/tensorflow/lite/kernels/internal\common.h ****   *output_inv_sqrt = x.raw();
 694:C:/Renesas/e2studio_2021_01_workspace_RZA2M_ANPR/ANPR_RZA2M_EBK/src/tensorflow_lite/tensorflow/lite/kernels/internal\common.h ****   if (*output_shift < 0) {
 695:C:/Renesas/e2studio_2021_01_workspace_RZA2M_ANPR/ANPR_RZA2M_EBK/src/tensorflow_lite/tensorflow/lite/kernels/internal\common.h ****     *output_inv_sqrt <<= -*output_shift;
 696:C:/Renesas/e2studio_2021_01_workspace_RZA2M_ANPR/ANPR_RZA2M_EBK/src/tensorflow_lite/tensorflow/lite/kernels/internal\common.h ****     *output_shift = 0;
 697:C:/Renesas/e2studio_2021_01_workspace_RZA2M_ANPR/ANPR_RZA2M_EBK/src/tensorflow_lite/tensorflow/lite/kernels/internal\common.h ****   }
 698:C:/Renesas/e2studio_2021_01_workspace_RZA2M_ANPR/ANPR_RZA2M_EBK/src/tensorflow_lite/tensorflow/lite/kernels/internal\common.h ****   // Convert right shift (right is positive) to left shift.
 699:C:/Renesas/e2studio_2021_01_workspace_RZA2M_ANPR/ANPR_RZA2M_EBK/src/tensorflow_lite/tensorflow/lite/kernels/internal\common.h ****   *output_shift *= reverse_shift;
 700:C:/Renesas/e2studio_2021_01_workspace_RZA2M_ANPR/ANPR_RZA2M_EBK/src/tensorflow_lite/tensorflow/lite/kernels/internal\common.h **** }
 701:C:/Renesas/e2studio_2021_01_workspace_RZA2M_ANPR/ANPR_RZA2M_EBK/src/tensorflow_lite/tensorflow/lite/kernels/internal\common.h **** 
 702:C:/Renesas/e2studio_2021_01_workspace_RZA2M_ANPR/ANPR_RZA2M_EBK/src/tensorflow_lite/tensorflow/lite/kernels/internal\common.h **** // DO NOT USE THIS STRUCT FOR NEW FUNCTIONALITY BEYOND IMPLEMENTING
 703:C:/Renesas/e2studio_2021_01_workspace_RZA2M_ANPR/ANPR_RZA2M_EBK/src/tensorflow_lite/tensorflow/lite/kernels/internal\common.h **** // BROADCASTING.
 704:C:/Renesas/e2studio_2021_01_workspace_RZA2M_ANPR/ANPR_RZA2M_EBK/src/tensorflow_lite/tensorflow/lite/kernels/internal\common.h **** //
 705:C:/Renesas/e2studio_2021_01_workspace_RZA2M_ANPR/ANPR_RZA2M_EBK/src/tensorflow_lite/tensorflow/lite/kernels/internal\common.h **** // NdArrayDesc<N> describes the shape and memory layout of an N-dimensional
 706:C:/Renesas/e2studio_2021_01_workspace_RZA2M_ANPR/ANPR_RZA2M_EBK/src/tensorflow_lite/tensorflow/lite/kernels/internal\common.h **** // rectangular array of numbers.
 707:C:/Renesas/e2studio_2021_01_workspace_RZA2M_ANPR/ANPR_RZA2M_EBK/src/tensorflow_lite/tensorflow/lite/kernels/internal\common.h **** //
 708:C:/Renesas/e2studio_2021_01_workspace_RZA2M_ANPR/ANPR_RZA2M_EBK/src/tensorflow_lite/tensorflow/lite/kernels/internal\common.h **** // NdArrayDesc<N> is basically identical to Dims<N> defined in types.h.
 709:C:/Renesas/e2studio_2021_01_workspace_RZA2M_ANPR/ANPR_RZA2M_EBK/src/tensorflow_lite/tensorflow/lite/kernels/internal\common.h **** // However, as Dims<N> is to be deprecated, this class exists as an adaptor
 710:C:/Renesas/e2studio_2021_01_workspace_RZA2M_ANPR/ANPR_RZA2M_EBK/src/tensorflow_lite/tensorflow/lite/kernels/internal\common.h **** // to enable simple unoptimized implementations of element-wise broadcasting
 711:C:/Renesas/e2studio_2021_01_workspace_RZA2M_ANPR/ANPR_RZA2M_EBK/src/tensorflow_lite/tensorflow/lite/kernels/internal\common.h **** // operations.
 712:C:/Renesas/e2studio_2021_01_workspace_RZA2M_ANPR/ANPR_RZA2M_EBK/src/tensorflow_lite/tensorflow/lite/kernels/internal\common.h **** template <int N>
 713:C:/Renesas/e2studio_2021_01_workspace_RZA2M_ANPR/ANPR_RZA2M_EBK/src/tensorflow_lite/tensorflow/lite/kernels/internal\common.h **** struct NdArrayDesc {
 714:C:/Renesas/e2studio_2021_01_workspace_RZA2M_ANPR/ANPR_RZA2M_EBK/src/tensorflow_lite/tensorflow/lite/kernels/internal\common.h ****   // The "extent" of each dimension. Indices along dimension d must be in the
 715:C:/Renesas/e2studio_2021_01_workspace_RZA2M_ANPR/ANPR_RZA2M_EBK/src/tensorflow_lite/tensorflow/lite/kernels/internal\common.h ****   // half-open interval [0, extents[d]).
 716:C:/Renesas/e2studio_2021_01_workspace_RZA2M_ANPR/ANPR_RZA2M_EBK/src/tensorflow_lite/tensorflow/lite/kernels/internal\common.h ****   int extents[N];
 717:C:/Renesas/e2studio_2021_01_workspace_RZA2M_ANPR/ANPR_RZA2M_EBK/src/tensorflow_lite/tensorflow/lite/kernels/internal\common.h **** 
 718:C:/Renesas/e2studio_2021_01_workspace_RZA2M_ANPR/ANPR_RZA2M_EBK/src/tensorflow_lite/tensorflow/lite/kernels/internal\common.h ****   // The number of *elements* (not bytes) between consecutive indices of each
 719:C:/Renesas/e2studio_2021_01_workspace_RZA2M_ANPR/ANPR_RZA2M_EBK/src/tensorflow_lite/tensorflow/lite/kernels/internal\common.h ****   // dimension.
 720:C:/Renesas/e2studio_2021_01_workspace_RZA2M_ANPR/ANPR_RZA2M_EBK/src/tensorflow_lite/tensorflow/lite/kernels/internal\common.h ****   int strides[N];
 721:C:/Renesas/e2studio_2021_01_workspace_RZA2M_ANPR/ANPR_RZA2M_EBK/src/tensorflow_lite/tensorflow/lite/kernels/internal\common.h **** };
 722:C:/Renesas/e2studio_2021_01_workspace_RZA2M_ANPR/ANPR_RZA2M_EBK/src/tensorflow_lite/tensorflow/lite/kernels/internal\common.h **** 
 723:C:/Renesas/e2studio_2021_01_workspace_RZA2M_ANPR/ANPR_RZA2M_EBK/src/tensorflow_lite/tensorflow/lite/kernels/internal\common.h **** // DO NOT USE THIS FUNCTION FOR NEW FUNCTIONALITY BEYOND IMPLEMENTING
 724:C:/Renesas/e2studio_2021_01_workspace_RZA2M_ANPR/ANPR_RZA2M_EBK/src/tensorflow_lite/tensorflow/lite/kernels/internal\common.h **** // BROADCASTING.
 725:C:/Renesas/e2studio_2021_01_workspace_RZA2M_ANPR/ANPR_RZA2M_EBK/src/tensorflow_lite/tensorflow/lite/kernels/internal\common.h **** //
 726:C:/Renesas/e2studio_2021_01_workspace_RZA2M_ANPR/ANPR_RZA2M_EBK/src/tensorflow_lite/tensorflow/lite/kernels/internal\common.h **** // Same as Offset(), except takes as NdArrayDesc<N> instead of Dims<N>.
 727:C:/Renesas/e2studio_2021_01_workspace_RZA2M_ANPR/ANPR_RZA2M_EBK/src/tensorflow_lite/tensorflow/lite/kernels/internal\common.h **** inline int SubscriptToIndex(const NdArrayDesc<4>& desc, int i0, int i1, int i2,
 728:C:/Renesas/e2studio_2021_01_workspace_RZA2M_ANPR/ANPR_RZA2M_EBK/src/tensorflow_lite/tensorflow/lite/kernels/internal\common.h ****                             int i3) {
 729:C:/Renesas/e2studio_2021_01_workspace_RZA2M_ANPR/ANPR_RZA2M_EBK/src/tensorflow_lite/tensorflow/lite/kernels/internal\common.h ****   TFLITE_DCHECK(i0 >= 0 && i0 < desc.extents[0]);
 730:C:/Renesas/e2studio_2021_01_workspace_RZA2M_ANPR/ANPR_RZA2M_EBK/src/tensorflow_lite/tensorflow/lite/kernels/internal\common.h ****   TFLITE_DCHECK(i1 >= 0 && i1 < desc.extents[1]);
 731:C:/Renesas/e2studio_2021_01_workspace_RZA2M_ANPR/ANPR_RZA2M_EBK/src/tensorflow_lite/tensorflow/lite/kernels/internal\common.h ****   TFLITE_DCHECK(i2 >= 0 && i2 < desc.extents[2]);
 732:C:/Renesas/e2studio_2021_01_workspace_RZA2M_ANPR/ANPR_RZA2M_EBK/src/tensorflow_lite/tensorflow/lite/kernels/internal\common.h ****   TFLITE_DCHECK(i3 >= 0 && i3 < desc.extents[3]);
 733:C:/Renesas/e2studio_2021_01_workspace_RZA2M_ANPR/ANPR_RZA2M_EBK/src/tensorflow_lite/tensorflow/lite/kernels/internal\common.h ****   return i0 * desc.strides[0] + i1 * desc.strides[1] + i2 * desc.strides[2] +
 734:C:/Renesas/e2studio_2021_01_workspace_RZA2M_ANPR/ANPR_RZA2M_EBK/src/tensorflow_lite/tensorflow/lite/kernels/internal\common.h ****          i3 * desc.strides[3];
 735:C:/Renesas/e2studio_2021_01_workspace_RZA2M_ANPR/ANPR_RZA2M_EBK/src/tensorflow_lite/tensorflow/lite/kernels/internal\common.h **** }
 736:C:/Renesas/e2studio_2021_01_workspace_RZA2M_ANPR/ANPR_RZA2M_EBK/src/tensorflow_lite/tensorflow/lite/kernels/internal\common.h **** 
 737:C:/Renesas/e2studio_2021_01_workspace_RZA2M_ANPR/ANPR_RZA2M_EBK/src/tensorflow_lite/tensorflow/lite/kernels/internal\common.h **** inline int SubscriptToIndex(const NdArrayDesc<5>& desc, int indexes[5]) {
 738:C:/Renesas/e2studio_2021_01_workspace_RZA2M_ANPR/ANPR_RZA2M_EBK/src/tensorflow_lite/tensorflow/lite/kernels/internal\common.h ****   return indexes[0] * desc.strides[0] + indexes[1] * desc.strides[1] +
 739:C:/Renesas/e2studio_2021_01_workspace_RZA2M_ANPR/ANPR_RZA2M_EBK/src/tensorflow_lite/tensorflow/lite/kernels/internal\common.h ****          indexes[2] * desc.strides[2] + indexes[3] * desc.strides[3] +
 740:C:/Renesas/e2studio_2021_01_workspace_RZA2M_ANPR/ANPR_RZA2M_EBK/src/tensorflow_lite/tensorflow/lite/kernels/internal\common.h ****          indexes[4] * desc.strides[4];
 741:C:/Renesas/e2studio_2021_01_workspace_RZA2M_ANPR/ANPR_RZA2M_EBK/src/tensorflow_lite/tensorflow/lite/kernels/internal\common.h **** }
 742:C:/Renesas/e2studio_2021_01_workspace_RZA2M_ANPR/ANPR_RZA2M_EBK/src/tensorflow_lite/tensorflow/lite/kernels/internal\common.h **** 
 743:C:/Renesas/e2studio_2021_01_workspace_RZA2M_ANPR/ANPR_RZA2M_EBK/src/tensorflow_lite/tensorflow/lite/kernels/internal\common.h **** inline int SubscriptToIndex(const NdArrayDesc<8>& desc, int indexes[8]) {
 744:C:/Renesas/e2studio_2021_01_workspace_RZA2M_ANPR/ANPR_RZA2M_EBK/src/tensorflow_lite/tensorflow/lite/kernels/internal\common.h ****   return indexes[0] * desc.strides[0] + indexes[1] * desc.strides[1] +
 745:C:/Renesas/e2studio_2021_01_workspace_RZA2M_ANPR/ANPR_RZA2M_EBK/src/tensorflow_lite/tensorflow/lite/kernels/internal\common.h ****          indexes[2] * desc.strides[2] + indexes[3] * desc.strides[3] +
 746:C:/Renesas/e2studio_2021_01_workspace_RZA2M_ANPR/ANPR_RZA2M_EBK/src/tensorflow_lite/tensorflow/lite/kernels/internal\common.h ****          indexes[4] * desc.strides[4] + indexes[5] * desc.strides[5] +
 747:C:/Renesas/e2studio_2021_01_workspace_RZA2M_ANPR/ANPR_RZA2M_EBK/src/tensorflow_lite/tensorflow/lite/kernels/internal\common.h ****          indexes[6] * desc.strides[6] + indexes[7] * desc.strides[7];
 748:C:/Renesas/e2studio_2021_01_workspace_RZA2M_ANPR/ANPR_RZA2M_EBK/src/tensorflow_lite/tensorflow/lite/kernels/internal\common.h **** }
 749:C:/Renesas/e2studio_2021_01_workspace_RZA2M_ANPR/ANPR_RZA2M_EBK/src/tensorflow_lite/tensorflow/lite/kernels/internal\common.h **** 
 750:C:/Renesas/e2studio_2021_01_workspace_RZA2M_ANPR/ANPR_RZA2M_EBK/src/tensorflow_lite/tensorflow/lite/kernels/internal\common.h **** // Given the dimensions of the operands for an element-wise binary broadcast,
 751:C:/Renesas/e2studio_2021_01_workspace_RZA2M_ANPR/ANPR_RZA2M_EBK/src/tensorflow_lite/tensorflow/lite/kernels/internal\common.h **** // adjusts them so that they can be directly iterated over with simple loops.
 752:C:/Renesas/e2studio_2021_01_workspace_RZA2M_ANPR/ANPR_RZA2M_EBK/src/tensorflow_lite/tensorflow/lite/kernels/internal\common.h **** // Returns the adjusted dims as instances of NdArrayDesc in 'desc0_out' and
 753:C:/Renesas/e2studio_2021_01_workspace_RZA2M_ANPR/ANPR_RZA2M_EBK/src/tensorflow_lite/tensorflow/lite/kernels/internal\common.h **** // 'desc1_out'. 'desc0_out' and 'desc1_out' cannot be nullptr.
 754:C:/Renesas/e2studio_2021_01_workspace_RZA2M_ANPR/ANPR_RZA2M_EBK/src/tensorflow_lite/tensorflow/lite/kernels/internal\common.h **** //
 755:C:/Renesas/e2studio_2021_01_workspace_RZA2M_ANPR/ANPR_RZA2M_EBK/src/tensorflow_lite/tensorflow/lite/kernels/internal\common.h **** // This function assumes that the two input shapes are compatible up to
 756:C:/Renesas/e2studio_2021_01_workspace_RZA2M_ANPR/ANPR_RZA2M_EBK/src/tensorflow_lite/tensorflow/lite/kernels/internal\common.h **** // broadcasting and the shorter one has already been prepended with 1s to be the
 757:C:/Renesas/e2studio_2021_01_workspace_RZA2M_ANPR/ANPR_RZA2M_EBK/src/tensorflow_lite/tensorflow/lite/kernels/internal\common.h **** // same length. E.g., if shape0 is (1, 16, 16, 64) and shape1 is (1, 64),
 758:C:/Renesas/e2studio_2021_01_workspace_RZA2M_ANPR/ANPR_RZA2M_EBK/src/tensorflow_lite/tensorflow/lite/kernels/internal\common.h **** // shape1 must already have been prepended to be (1, 1, 1, 64). Recall that
 759:C:/Renesas/e2studio_2021_01_workspace_RZA2M_ANPR/ANPR_RZA2M_EBK/src/tensorflow_lite/tensorflow/lite/kernels/internal\common.h **** // Dims<N> refer to shapes in reverse order. In this case, input0_dims will be
 760:C:/Renesas/e2studio_2021_01_workspace_RZA2M_ANPR/ANPR_RZA2M_EBK/src/tensorflow_lite/tensorflow/lite/kernels/internal\common.h **** // (64, 16, 16, 1) and input1_dims will be (64, 1, 1, 1).
 761:C:/Renesas/e2studio_2021_01_workspace_RZA2M_ANPR/ANPR_RZA2M_EBK/src/tensorflow_lite/tensorflow/lite/kernels/internal\common.h **** //
 762:C:/Renesas/e2studio_2021_01_workspace_RZA2M_ANPR/ANPR_RZA2M_EBK/src/tensorflow_lite/tensorflow/lite/kernels/internal\common.h **** // When two shapes are compatible up to broadcasting, for each dimension d,
 763:C:/Renesas/e2studio_2021_01_workspace_RZA2M_ANPR/ANPR_RZA2M_EBK/src/tensorflow_lite/tensorflow/lite/kernels/internal\common.h **** // the input extents are either equal, or one of them is 1.
 764:C:/Renesas/e2studio_2021_01_workspace_RZA2M_ANPR/ANPR_RZA2M_EBK/src/tensorflow_lite/tensorflow/lite/kernels/internal\common.h **** //
 765:C:/Renesas/e2studio_2021_01_workspace_RZA2M_ANPR/ANPR_RZA2M_EBK/src/tensorflow_lite/tensorflow/lite/kernels/internal\common.h **** // This function performs the following for each dimension d:
 766:C:/Renesas/e2studio_2021_01_workspace_RZA2M_ANPR/ANPR_RZA2M_EBK/src/tensorflow_lite/tensorflow/lite/kernels/internal\common.h **** // - If the extents are equal, then do nothing since the loop that walks over
 767:C:/Renesas/e2studio_2021_01_workspace_RZA2M_ANPR/ANPR_RZA2M_EBK/src/tensorflow_lite/tensorflow/lite/kernels/internal\common.h **** //   both of the input arrays is correct.
 768:C:/Renesas/e2studio_2021_01_workspace_RZA2M_ANPR/ANPR_RZA2M_EBK/src/tensorflow_lite/tensorflow/lite/kernels/internal\common.h **** // - Otherwise, one (and only one) of the extents must be 1. Say extent0 is 1
 769:C:/Renesas/e2studio_2021_01_workspace_RZA2M_ANPR/ANPR_RZA2M_EBK/src/tensorflow_lite/tensorflow/lite/kernels/internal\common.h **** //   and extent1 is e1. Then set extent0 to e1 and stride0 *to 0*. This allows
 770:C:/Renesas/e2studio_2021_01_workspace_RZA2M_ANPR/ANPR_RZA2M_EBK/src/tensorflow_lite/tensorflow/lite/kernels/internal\common.h **** //   array0 to be referenced *at any index* in dimension d and still access the
 771:C:/Renesas/e2studio_2021_01_workspace_RZA2M_ANPR/ANPR_RZA2M_EBK/src/tensorflow_lite/tensorflow/lite/kernels/internal\common.h **** //   same slice.
 772:C:/Renesas/e2studio_2021_01_workspace_RZA2M_ANPR/ANPR_RZA2M_EBK/src/tensorflow_lite/tensorflow/lite/kernels/internal\common.h **** template <int N>
 773:C:/Renesas/e2studio_2021_01_workspace_RZA2M_ANPR/ANPR_RZA2M_EBK/src/tensorflow_lite/tensorflow/lite/kernels/internal\common.h **** inline void NdArrayDescsForElementwiseBroadcast(const Dims<N>& input0_dims,
 774:C:/Renesas/e2studio_2021_01_workspace_RZA2M_ANPR/ANPR_RZA2M_EBK/src/tensorflow_lite/tensorflow/lite/kernels/internal\common.h ****                                                 const Dims<N>& input1_dims,
 775:C:/Renesas/e2studio_2021_01_workspace_RZA2M_ANPR/ANPR_RZA2M_EBK/src/tensorflow_lite/tensorflow/lite/kernels/internal\common.h ****                                                 NdArrayDesc<N>* desc0_out,
 776:C:/Renesas/e2studio_2021_01_workspace_RZA2M_ANPR/ANPR_RZA2M_EBK/src/tensorflow_lite/tensorflow/lite/kernels/internal\common.h ****                                                 NdArrayDesc<N>* desc1_out) {
 777:C:/Renesas/e2studio_2021_01_workspace_RZA2M_ANPR/ANPR_RZA2M_EBK/src/tensorflow_lite/tensorflow/lite/kernels/internal\common.h ****   TFLITE_DCHECK(desc0_out != nullptr);
 778:C:/Renesas/e2studio_2021_01_workspace_RZA2M_ANPR/ANPR_RZA2M_EBK/src/tensorflow_lite/tensorflow/lite/kernels/internal\common.h ****   TFLITE_DCHECK(desc1_out != nullptr);
 779:C:/Renesas/e2studio_2021_01_workspace_RZA2M_ANPR/ANPR_RZA2M_EBK/src/tensorflow_lite/tensorflow/lite/kernels/internal\common.h **** 
 780:C:/Renesas/e2studio_2021_01_workspace_RZA2M_ANPR/ANPR_RZA2M_EBK/src/tensorflow_lite/tensorflow/lite/kernels/internal\common.h ****   // Copy dims to desc.
 781:C:/Renesas/e2studio_2021_01_workspace_RZA2M_ANPR/ANPR_RZA2M_EBK/src/tensorflow_lite/tensorflow/lite/kernels/internal\common.h ****   for (int i = 0; i < N; ++i) {
 782:C:/Renesas/e2studio_2021_01_workspace_RZA2M_ANPR/ANPR_RZA2M_EBK/src/tensorflow_lite/tensorflow/lite/kernels/internal\common.h ****     desc0_out->extents[i] = input0_dims.sizes[i];
 783:C:/Renesas/e2studio_2021_01_workspace_RZA2M_ANPR/ANPR_RZA2M_EBK/src/tensorflow_lite/tensorflow/lite/kernels/internal\common.h ****     desc0_out->strides[i] = input0_dims.strides[i];
 784:C:/Renesas/e2studio_2021_01_workspace_RZA2M_ANPR/ANPR_RZA2M_EBK/src/tensorflow_lite/tensorflow/lite/kernels/internal\common.h ****     desc1_out->extents[i] = input1_dims.sizes[i];
 785:C:/Renesas/e2studio_2021_01_workspace_RZA2M_ANPR/ANPR_RZA2M_EBK/src/tensorflow_lite/tensorflow/lite/kernels/internal\common.h ****     desc1_out->strides[i] = input1_dims.strides[i];
 786:C:/Renesas/e2studio_2021_01_workspace_RZA2M_ANPR/ANPR_RZA2M_EBK/src/tensorflow_lite/tensorflow/lite/kernels/internal\common.h ****   }
 787:C:/Renesas/e2studio_2021_01_workspace_RZA2M_ANPR/ANPR_RZA2M_EBK/src/tensorflow_lite/tensorflow/lite/kernels/internal\common.h **** 
 788:C:/Renesas/e2studio_2021_01_workspace_RZA2M_ANPR/ANPR_RZA2M_EBK/src/tensorflow_lite/tensorflow/lite/kernels/internal\common.h ****   // Walk over each dimension. If the extents are equal do nothing.
 789:C:/Renesas/e2studio_2021_01_workspace_RZA2M_ANPR/ANPR_RZA2M_EBK/src/tensorflow_lite/tensorflow/lite/kernels/internal\common.h ****   // Otherwise, set the desc with extent 1 to have extent equal to the other and
 790:C:/Renesas/e2studio_2021_01_workspace_RZA2M_ANPR/ANPR_RZA2M_EBK/src/tensorflow_lite/tensorflow/lite/kernels/internal\common.h ****   // stride 0.
 791:C:/Renesas/e2studio_2021_01_workspace_RZA2M_ANPR/ANPR_RZA2M_EBK/src/tensorflow_lite/tensorflow/lite/kernels/internal\common.h ****   for (int i = 0; i < N; ++i) {
 792:C:/Renesas/e2studio_2021_01_workspace_RZA2M_ANPR/ANPR_RZA2M_EBK/src/tensorflow_lite/tensorflow/lite/kernels/internal\common.h ****     const int extent0 = ArraySize(input0_dims, i);
 793:C:/Renesas/e2studio_2021_01_workspace_RZA2M_ANPR/ANPR_RZA2M_EBK/src/tensorflow_lite/tensorflow/lite/kernels/internal\common.h ****     const int extent1 = ArraySize(input1_dims, i);
 794:C:/Renesas/e2studio_2021_01_workspace_RZA2M_ANPR/ANPR_RZA2M_EBK/src/tensorflow_lite/tensorflow/lite/kernels/internal\common.h ****     if (extent0 != extent1) {
 795:C:/Renesas/e2studio_2021_01_workspace_RZA2M_ANPR/ANPR_RZA2M_EBK/src/tensorflow_lite/tensorflow/lite/kernels/internal\common.h ****       if (extent0 == 1) {
 796:C:/Renesas/e2studio_2021_01_workspace_RZA2M_ANPR/ANPR_RZA2M_EBK/src/tensorflow_lite/tensorflow/lite/kernels/internal\common.h ****         desc0_out->strides[i] = 0;
 797:C:/Renesas/e2studio_2021_01_workspace_RZA2M_ANPR/ANPR_RZA2M_EBK/src/tensorflow_lite/tensorflow/lite/kernels/internal\common.h ****         desc0_out->extents[i] = extent1;
 798:C:/Renesas/e2studio_2021_01_workspace_RZA2M_ANPR/ANPR_RZA2M_EBK/src/tensorflow_lite/tensorflow/lite/kernels/internal\common.h ****       } else {
 799:C:/Renesas/e2studio_2021_01_workspace_RZA2M_ANPR/ANPR_RZA2M_EBK/src/tensorflow_lite/tensorflow/lite/kernels/internal\common.h ****         TFLITE_DCHECK_EQ(extent1, 1);
 800:C:/Renesas/e2studio_2021_01_workspace_RZA2M_ANPR/ANPR_RZA2M_EBK/src/tensorflow_lite/tensorflow/lite/kernels/internal\common.h ****         desc1_out->strides[i] = 0;
 801:C:/Renesas/e2studio_2021_01_workspace_RZA2M_ANPR/ANPR_RZA2M_EBK/src/tensorflow_lite/tensorflow/lite/kernels/internal\common.h ****         desc1_out->extents[i] = extent0;
 802:C:/Renesas/e2studio_2021_01_workspace_RZA2M_ANPR/ANPR_RZA2M_EBK/src/tensorflow_lite/tensorflow/lite/kernels/internal\common.h ****       }
 803:C:/Renesas/e2studio_2021_01_workspace_RZA2M_ANPR/ANPR_RZA2M_EBK/src/tensorflow_lite/tensorflow/lite/kernels/internal\common.h ****     }
 804:C:/Renesas/e2studio_2021_01_workspace_RZA2M_ANPR/ANPR_RZA2M_EBK/src/tensorflow_lite/tensorflow/lite/kernels/internal\common.h ****   }
 805:C:/Renesas/e2studio_2021_01_workspace_RZA2M_ANPR/ANPR_RZA2M_EBK/src/tensorflow_lite/tensorflow/lite/kernels/internal\common.h **** }
 806:C:/Renesas/e2studio_2021_01_workspace_RZA2M_ANPR/ANPR_RZA2M_EBK/src/tensorflow_lite/tensorflow/lite/kernels/internal\common.h **** 
 807:C:/Renesas/e2studio_2021_01_workspace_RZA2M_ANPR/ANPR_RZA2M_EBK/src/tensorflow_lite/tensorflow/lite/kernels/internal\common.h **** // Copies dims to desc, calculating strides.
 808:C:/Renesas/e2studio_2021_01_workspace_RZA2M_ANPR/ANPR_RZA2M_EBK/src/tensorflow_lite/tensorflow/lite/kernels/internal\common.h **** template <int N>
 809:C:/Renesas/e2studio_2021_01_workspace_RZA2M_ANPR/ANPR_RZA2M_EBK/src/tensorflow_lite/tensorflow/lite/kernels/internal\common.h **** inline void CopyDimsToDesc(const RuntimeShape& input_shape,
 810:C:/Renesas/e2studio_2021_01_workspace_RZA2M_ANPR/ANPR_RZA2M_EBK/src/tensorflow_lite/tensorflow/lite/kernels/internal\common.h ****                            NdArrayDesc<N>* desc_out) {
 811:C:/Renesas/e2studio_2021_01_workspace_RZA2M_ANPR/ANPR_RZA2M_EBK/src/tensorflow_lite/tensorflow/lite/kernels/internal\common.h ****   int desc_stride = 1;
 812:C:/Renesas/e2studio_2021_01_workspace_RZA2M_ANPR/ANPR_RZA2M_EBK/src/tensorflow_lite/tensorflow/lite/kernels/internal\common.h ****   for (int i = N - 1; i >= 0; --i) {
 813:C:/Renesas/e2studio_2021_01_workspace_RZA2M_ANPR/ANPR_RZA2M_EBK/src/tensorflow_lite/tensorflow/lite/kernels/internal\common.h ****     desc_out->extents[i] = input_shape.Dims(i);
 814:C:/Renesas/e2studio_2021_01_workspace_RZA2M_ANPR/ANPR_RZA2M_EBK/src/tensorflow_lite/tensorflow/lite/kernels/internal\common.h ****     desc_out->strides[i] = desc_stride;
 815:C:/Renesas/e2studio_2021_01_workspace_RZA2M_ANPR/ANPR_RZA2M_EBK/src/tensorflow_lite/tensorflow/lite/kernels/internal\common.h ****     desc_stride *= input_shape.Dims(i);
 1356              		.loc 7 815 0
 1357 06c0 9C0100E0 		mul	r0, ip, r1
 1358 06c4 1C218DE5 		str	r2, [sp, #284]
 1359 06c8 30118DE5 		str	r1, [sp, #304]
 1360 06cc 20C18DE5 		str	ip, [sp, #288]
 1361              	.LVL168:
 1362 06d0 34E18DE5 		str	lr, [sp, #308]
 1363 06d4 920002E0 		mul	r2, r2, r0
 1364              	.LVL169:
 1365 06d8 2C018DE5 		str	r0, [sp, #300]
 1366 06dc 28218DE5 		str	r2, [sp, #296]
 1367              	.LVL170:
 1368              	.L40:
 1369 06e0 00619DE5 		ldr	r6, [sp, #256]
 1370              	.LBE446:
 1371              	.LBE445:
 1372              	.LBE444:
 1373              	.LBB459:
 1374              	.LBB460:
 1375              	.LBB461:
 1376              	.LBB462:
 1377              	.LBB463:
 216:C:/Renesas/e2studio_2021_01_workspace_RZA2M_ANPR/ANPR_RZA2M_EBK/src/tensorflow_lite/tensorflow/lite/kernels/internal\types.h ****   }
 1378              		.loc 5 216 0
 1379 06e4 04019DE5 		ldr	r0, [sp, #260]
 1380 06e8 050056E3 		cmp	r6, #5
 1381 06ec 690000CA 		bgt	.L41
 1382              	.LVL171:
 215:C:/Renesas/e2studio_2021_01_workspace_RZA2M_ANPR/ANPR_RZA2M_EBK/src/tensorflow_lite/tensorflow/lite/kernels/internal\types.h ****     return size_ > kMaxSmallSize ? dims_pointer_[i] : dims_[i];
 1383              		.loc 5 215 0
 1384 06f0 030056E3 		cmp	r6, #3
 1385 06f4 9B0200DA 		ble	.L42
 216:C:/Renesas/e2studio_2021_01_workspace_RZA2M_ANPR/ANPR_RZA2M_EBK/src/tensorflow_lite/tensorflow/lite/kernels/internal\types.h ****   }
 1386              		.loc 5 216 0
 1387 06f8 10219DE5 		ldr	r2, [sp, #272]
 1388              	.LVL172:
 1389 06fc 0170A0E3 		mov	r7, #1
 1390              	.LVL173:
 1391 0700 0C119DE5 		ldr	r1, [sp, #268]
 1392 0704 050054E3 		cmp	r4, #5
 1393 0708 08C19DE5 		ldr	ip, [sp, #264]
 1394 070c 54718DE5 		str	r7, [sp, #340]
 1395 0710 38018DE5 		str	r0, [sp, #312]
 1396              	.LBE463:
 1397              	.LBE462:
 1398              		.loc 7 815 0
 1399 0714 91020EE0 		mul	lr, r1, r2
 1400 0718 44218DE5 		str	r2, [sp, #324]
 1401              	.LVL174:
 1402 071c 50218DE5 		str	r2, [sp, #336]
 1403 0720 40118DE5 		str	r1, [sp, #320]
 1404              	.LVL175:
 1405 0724 3CC18DE5 		str	ip, [sp, #316]
 1406              	.LVL176:
 1407 0728 9C0E07E0 		mul	r7, ip, lr
 1408              	.LVL177:
 1409 072c 4CE18DE5 		str	lr, [sp, #332]
 1410 0730 48718DE5 		str	r7, [sp, #328]
 1411 0734 820100CA 		bgt	.L379
 1412              	.LVL178:
 1413              	.LBE461:
 1414              	.LBE460:
 1415              	.LBE459:
 1416              	.LBB474:
 1417              	.LBB475:
 1418              	.LBB476:
 1419              	.LBB477:
 215:C:/Renesas/e2studio_2021_01_workspace_RZA2M_ANPR/ANPR_RZA2M_EBK/src/tensorflow_lite/tensorflow/lite/kernels/internal\types.h ****     return size_ > kMaxSmallSize ? dims_pointer_[i] : dims_[i];
 1420              		.loc 5 215 0
 1421 0738 000054E3 		cmp	r4, #0
 1422 073c 880200DA 		ble	.L47
 1423              	.LVL179:
 1424              	.LBE477:
 1425              	.LBE476:
 816:C:/Renesas/e2studio_2021_01_workspace_RZA2M_ANPR/ANPR_RZA2M_EBK/src/tensorflow_lite/tensorflow/lite/kernels/internal\common.h ****   }
 817:C:/Renesas/e2studio_2021_01_workspace_RZA2M_ANPR/ANPR_RZA2M_EBK/src/tensorflow_lite/tensorflow/lite/kernels/internal\common.h **** }
 818:C:/Renesas/e2studio_2021_01_workspace_RZA2M_ANPR/ANPR_RZA2M_EBK/src/tensorflow_lite/tensorflow/lite/kernels/internal\common.h **** 
 819:C:/Renesas/e2studio_2021_01_workspace_RZA2M_ANPR/ANPR_RZA2M_EBK/src/tensorflow_lite/tensorflow/lite/kernels/internal\common.h **** template <int N>
 820:C:/Renesas/e2studio_2021_01_workspace_RZA2M_ANPR/ANPR_RZA2M_EBK/src/tensorflow_lite/tensorflow/lite/kernels/internal\common.h **** inline void NdArrayDescsForElementwiseBroadcast(
 821:C:/Renesas/e2studio_2021_01_workspace_RZA2M_ANPR/ANPR_RZA2M_EBK/src/tensorflow_lite/tensorflow/lite/kernels/internal\common.h ****     const RuntimeShape& input0_shape, const RuntimeShape& input1_shape,
 822:C:/Renesas/e2studio_2021_01_workspace_RZA2M_ANPR/ANPR_RZA2M_EBK/src/tensorflow_lite/tensorflow/lite/kernels/internal\common.h ****     NdArrayDesc<N>* desc0_out, NdArrayDesc<N>* desc1_out) {
 823:C:/Renesas/e2studio_2021_01_workspace_RZA2M_ANPR/ANPR_RZA2M_EBK/src/tensorflow_lite/tensorflow/lite/kernels/internal\common.h ****   TFLITE_DCHECK(desc0_out != nullptr);
 824:C:/Renesas/e2studio_2021_01_workspace_RZA2M_ANPR/ANPR_RZA2M_EBK/src/tensorflow_lite/tensorflow/lite/kernels/internal\common.h ****   TFLITE_DCHECK(desc1_out != nullptr);
 825:C:/Renesas/e2studio_2021_01_workspace_RZA2M_ANPR/ANPR_RZA2M_EBK/src/tensorflow_lite/tensorflow/lite/kernels/internal\common.h **** 
 826:C:/Renesas/e2studio_2021_01_workspace_RZA2M_ANPR/ANPR_RZA2M_EBK/src/tensorflow_lite/tensorflow/lite/kernels/internal\common.h ****   auto extended_input0_shape = RuntimeShape::ExtendedShape(N, input0_shape);
 827:C:/Renesas/e2studio_2021_01_workspace_RZA2M_ANPR/ANPR_RZA2M_EBK/src/tensorflow_lite/tensorflow/lite/kernels/internal\common.h ****   auto extended_input1_shape = RuntimeShape::ExtendedShape(N, input1_shape);
 828:C:/Renesas/e2studio_2021_01_workspace_RZA2M_ANPR/ANPR_RZA2M_EBK/src/tensorflow_lite/tensorflow/lite/kernels/internal\common.h **** 
 829:C:/Renesas/e2studio_2021_01_workspace_RZA2M_ANPR/ANPR_RZA2M_EBK/src/tensorflow_lite/tensorflow/lite/kernels/internal\common.h ****   // Copy dims to desc, calculating strides.
 830:C:/Renesas/e2studio_2021_01_workspace_RZA2M_ANPR/ANPR_RZA2M_EBK/src/tensorflow_lite/tensorflow/lite/kernels/internal\common.h ****   CopyDimsToDesc<N>(extended_input0_shape, desc0_out);
 831:C:/Renesas/e2studio_2021_01_workspace_RZA2M_ANPR/ANPR_RZA2M_EBK/src/tensorflow_lite/tensorflow/lite/kernels/internal\common.h ****   CopyDimsToDesc<N>(extended_input1_shape, desc1_out);
 832:C:/Renesas/e2studio_2021_01_workspace_RZA2M_ANPR/ANPR_RZA2M_EBK/src/tensorflow_lite/tensorflow/lite/kernels/internal\common.h **** 
 833:C:/Renesas/e2studio_2021_01_workspace_RZA2M_ANPR/ANPR_RZA2M_EBK/src/tensorflow_lite/tensorflow/lite/kernels/internal\common.h ****   // Walk over each dimension. If the extents are equal do nothing.
 834:C:/Renesas/e2studio_2021_01_workspace_RZA2M_ANPR/ANPR_RZA2M_EBK/src/tensorflow_lite/tensorflow/lite/kernels/internal\common.h ****   // Otherwise, set the desc with extent 1 to have extent equal to the other and
 835:C:/Renesas/e2studio_2021_01_workspace_RZA2M_ANPR/ANPR_RZA2M_EBK/src/tensorflow_lite/tensorflow/lite/kernels/internal\common.h ****   // stride 0.
 836:C:/Renesas/e2studio_2021_01_workspace_RZA2M_ANPR/ANPR_RZA2M_EBK/src/tensorflow_lite/tensorflow/lite/kernels/internal\common.h ****   for (int i = 0; i < N; ++i) {
 837:C:/Renesas/e2studio_2021_01_workspace_RZA2M_ANPR/ANPR_RZA2M_EBK/src/tensorflow_lite/tensorflow/lite/kernels/internal\common.h ****     const int extent0 = extended_input0_shape.Dims(i);
 838:C:/Renesas/e2studio_2021_01_workspace_RZA2M_ANPR/ANPR_RZA2M_EBK/src/tensorflow_lite/tensorflow/lite/kernels/internal\common.h ****     const int extent1 = extended_input1_shape.Dims(i);
 839:C:/Renesas/e2studio_2021_01_workspace_RZA2M_ANPR/ANPR_RZA2M_EBK/src/tensorflow_lite/tensorflow/lite/kernels/internal\common.h ****     if (extent0 != extent1) {
 1426              		.loc 7 839 0
 1427 0740 000053E1 		cmp	r3, r0
 1428 0744 0600000A 		beq	.L48
 840:C:/Renesas/e2studio_2021_01_workspace_RZA2M_ANPR/ANPR_RZA2M_EBK/src/tensorflow_lite/tensorflow/lite/kernels/internal\common.h ****       if (extent0 == 1) {
 1429              		.loc 7 840 0
 1430 0748 010053E3 		cmp	r3, #1
 1431 074c D601000A 		beq	.L49
 841:C:/Renesas/e2studio_2021_01_workspace_RZA2M_ANPR/ANPR_RZA2M_EBK/src/tensorflow_lite/tensorflow/lite/kernels/internal\common.h ****         desc0_out->strides[i] = 0;
 842:C:/Renesas/e2studio_2021_01_workspace_RZA2M_ANPR/ANPR_RZA2M_EBK/src/tensorflow_lite/tensorflow/lite/kernels/internal\common.h ****         desc0_out->extents[i] = extent1;
 843:C:/Renesas/e2studio_2021_01_workspace_RZA2M_ANPR/ANPR_RZA2M_EBK/src/tensorflow_lite/tensorflow/lite/kernels/internal\common.h ****       } else {
 844:C:/Renesas/e2studio_2021_01_workspace_RZA2M_ANPR/ANPR_RZA2M_EBK/src/tensorflow_lite/tensorflow/lite/kernels/internal\common.h ****         TFLITE_DCHECK_EQ(extent1, 1);
 1432              		.loc 7 844 0
 1433 0750 010050E3 		cmp	r0, #1
 1434 0754 8802001A 		bne	.L50
 845:C:/Renesas/e2studio_2021_01_workspace_RZA2M_ANPR/ANPR_RZA2M_EBK/src/tensorflow_lite/tensorflow/lite/kernels/internal\common.h ****         desc1_out->strides[i] = 0;
 1435              		.loc 7 845 0
 1436 0758 0000A0E3 		mov	r0, #0
 1437              	.LVL180:
 846:C:/Renesas/e2studio_2021_01_workspace_RZA2M_ANPR/ANPR_RZA2M_EBK/src/tensorflow_lite/tensorflow/lite/kernels/internal\common.h ****         desc1_out->extents[i] = extent0;
 1438              		.loc 7 846 0
 1439 075c 38318DE5 		str	r3, [sp, #312]
 1440              	.LVL181:
 845:C:/Renesas/e2studio_2021_01_workspace_RZA2M_ANPR/ANPR_RZA2M_EBK/src/tensorflow_lite/tensorflow/lite/kernels/internal\common.h ****         desc1_out->strides[i] = 0;
 1441              		.loc 7 845 0
 1442 0760 48018DE5 		str	r0, [sp, #328]
 1443              	.L48:
 1444              	.LVL182:
 1445              	.LBB494:
 1446              	.LBB478:
 215:C:/Renesas/e2studio_2021_01_workspace_RZA2M_ANPR/ANPR_RZA2M_EBK/src/tensorflow_lite/tensorflow/lite/kernels/internal\types.h ****     return size_ > kMaxSmallSize ? dims_pointer_[i] : dims_[i];
 1447              		.loc 5 215 0
 1448 0764 010054E3 		cmp	r4, #1
 1449 0768 7D02000A 		beq	.L47
 216:C:/Renesas/e2studio_2021_01_workspace_RZA2M_ANPR/ANPR_RZA2M_EBK/src/tensorflow_lite/tensorflow/lite/kernels/internal\types.h ****   }
 1450              		.loc 5 216 0
 1451 076c F0309DE5 		ldr	r3, [sp, #240]
 1452              	.LVL183:
 1453              	.LBE478:
 1454              	.LBE494:
 839:C:/Renesas/e2studio_2021_01_workspace_RZA2M_ANPR/ANPR_RZA2M_EBK/src/tensorflow_lite/tensorflow/lite/kernels/internal\common.h ****       if (extent0 == 1) {
 1455              		.loc 7 839 0
 1456 0770 03005CE1 		cmp	ip, r3
 1457 0774 0600000A 		beq	.L52
 840:C:/Renesas/e2studio_2021_01_workspace_RZA2M_ANPR/ANPR_RZA2M_EBK/src/tensorflow_lite/tensorflow/lite/kernels/internal\common.h ****         desc0_out->strides[i] = 0;
 1458              		.loc 7 840 0
 1459 0778 010053E3 		cmp	r3, #1
 1460 077c C201000A 		beq	.L51
 844:C:/Renesas/e2studio_2021_01_workspace_RZA2M_ANPR/ANPR_RZA2M_EBK/src/tensorflow_lite/tensorflow/lite/kernels/internal\common.h ****         desc1_out->strides[i] = 0;
 1461              		.loc 7 844 0
 1462 0780 01005CE3 		cmp	ip, #1
 1463 0784 7C02001A 		bne	.L50
 845:C:/Renesas/e2studio_2021_01_workspace_RZA2M_ANPR/ANPR_RZA2M_EBK/src/tensorflow_lite/tensorflow/lite/kernels/internal\common.h ****         desc1_out->extents[i] = extent0;
 1464              		.loc 7 845 0
 1465 0788 0000A0E3 		mov	r0, #0
 1466              		.loc 7 846 0
 1467 078c 3C318DE5 		str	r3, [sp, #316]
 845:C:/Renesas/e2studio_2021_01_workspace_RZA2M_ANPR/ANPR_RZA2M_EBK/src/tensorflow_lite/tensorflow/lite/kernels/internal\common.h ****         desc1_out->extents[i] = extent0;
 1468              		.loc 7 845 0
 1469 0790 4C018DE5 		str	r0, [sp, #332]
 1470              	.L52:
 1471              	.LVL184:
 1472              	.LBB495:
 1473              	.LBB479:
 215:C:/Renesas/e2studio_2021_01_workspace_RZA2M_ANPR/ANPR_RZA2M_EBK/src/tensorflow_lite/tensorflow/lite/kernels/internal\types.h ****     return size_ > kMaxSmallSize ? dims_pointer_[i] : dims_[i];
 1474              		.loc 5 215 0
 1475 0794 020054E3 		cmp	r4, #2
 1476 0798 7102000A 		beq	.L47
 216:C:/Renesas/e2studio_2021_01_workspace_RZA2M_ANPR/ANPR_RZA2M_EBK/src/tensorflow_lite/tensorflow/lite/kernels/internal\types.h ****   }
 1477              		.loc 5 216 0
 1478 079c F4309DE5 		ldr	r3, [sp, #244]
 1479              	.LVL185:
 1480              	.LBE479:
 1481              	.LBE495:
 839:C:/Renesas/e2studio_2021_01_workspace_RZA2M_ANPR/ANPR_RZA2M_EBK/src/tensorflow_lite/tensorflow/lite/kernels/internal\common.h ****       if (extent0 == 1) {
 1482              		.loc 7 839 0
 1483 07a0 030051E1 		cmp	r1, r3
 1484 07a4 0600000A 		beq	.L54
 840:C:/Renesas/e2studio_2021_01_workspace_RZA2M_ANPR/ANPR_RZA2M_EBK/src/tensorflow_lite/tensorflow/lite/kernels/internal\common.h ****         desc0_out->strides[i] = 0;
 1485              		.loc 7 840 0
 1486 07a8 010053E3 		cmp	r3, #1
 1487 07ac BA01000A 		beq	.L53
 844:C:/Renesas/e2studio_2021_01_workspace_RZA2M_ANPR/ANPR_RZA2M_EBK/src/tensorflow_lite/tensorflow/lite/kernels/internal\common.h ****         desc1_out->strides[i] = 0;
 1488              		.loc 7 844 0
 1489 07b0 010051E3 		cmp	r1, #1
 1490 07b4 7002001A 		bne	.L50
 845:C:/Renesas/e2studio_2021_01_workspace_RZA2M_ANPR/ANPR_RZA2M_EBK/src/tensorflow_lite/tensorflow/lite/kernels/internal\common.h ****         desc1_out->extents[i] = extent0;
 1491              		.loc 7 845 0
 1492 07b8 0010A0E3 		mov	r1, #0
 1493              		.loc 7 846 0
 1494 07bc 40318DE5 		str	r3, [sp, #320]
 845:C:/Renesas/e2studio_2021_01_workspace_RZA2M_ANPR/ANPR_RZA2M_EBK/src/tensorflow_lite/tensorflow/lite/kernels/internal\common.h ****         desc1_out->extents[i] = extent0;
 1495              		.loc 7 845 0
 1496 07c0 50118DE5 		str	r1, [sp, #336]
 1497              	.L54:
 1498              	.LVL186:
 1499              	.LBB496:
 1500              	.LBB480:
 215:C:/Renesas/e2studio_2021_01_workspace_RZA2M_ANPR/ANPR_RZA2M_EBK/src/tensorflow_lite/tensorflow/lite/kernels/internal\types.h ****     return size_ > kMaxSmallSize ? dims_pointer_[i] : dims_[i];
 1501              		.loc 5 215 0
 1502 07c4 030054E3 		cmp	r4, #3
 1503 07c8 6502000A 		beq	.L47
 216:C:/Renesas/e2studio_2021_01_workspace_RZA2M_ANPR/ANPR_RZA2M_EBK/src/tensorflow_lite/tensorflow/lite/kernels/internal\types.h ****   }
 1504              		.loc 5 216 0
 1505 07cc F8309DE5 		ldr	r3, [sp, #248]
 1506              	.LVL187:
 1507              	.LBE480:
 1508              	.LBE496:
 839:C:/Renesas/e2studio_2021_01_workspace_RZA2M_ANPR/ANPR_RZA2M_EBK/src/tensorflow_lite/tensorflow/lite/kernels/internal\common.h ****       if (extent0 == 1) {
 1509              		.loc 7 839 0
 1510 07d0 030052E1 		cmp	r2, r3
 1511 07d4 8200000A 		beq	.L177
 1512              	.L363:
 840:C:/Renesas/e2studio_2021_01_workspace_RZA2M_ANPR/ANPR_RZA2M_EBK/src/tensorflow_lite/tensorflow/lite/kernels/internal\common.h ****         desc0_out->strides[i] = 0;
 1513              		.loc 7 840 0
 1514 07d8 010053E3 		cmp	r3, #1
 1515 07dc F101000A 		beq	.L65
 844:C:/Renesas/e2studio_2021_01_workspace_RZA2M_ANPR/ANPR_RZA2M_EBK/src/tensorflow_lite/tensorflow/lite/kernels/internal\common.h ****         desc1_out->strides[i] = 0;
 1516              		.loc 7 844 0
 1517 07e0 010052E3 		cmp	r2, #1
 1518 07e4 6402001A 		bne	.L50
 845:C:/Renesas/e2studio_2021_01_workspace_RZA2M_ANPR/ANPR_RZA2M_EBK/src/tensorflow_lite/tensorflow/lite/kernels/internal\common.h ****         desc1_out->extents[i] = extent0;
 1519              		.loc 7 845 0
 1520 07e8 0020A0E3 		mov	r2, #0
 1521              		.loc 7 846 0
 1522 07ec 44318DE5 		str	r3, [sp, #324]
 845:C:/Renesas/e2studio_2021_01_workspace_RZA2M_ANPR/ANPR_RZA2M_EBK/src/tensorflow_lite/tensorflow/lite/kernels/internal\common.h ****         desc1_out->extents[i] = extent0;
 1523              		.loc 7 845 0
 1524 07f0 54218DE5 		str	r2, [sp, #340]
 1525 07f4 7A0000EA 		b	.L177
 1526              	.LVL188:
 1527              	.L369:
 1528              	.LBE475:
 1529              	.LBE474:
 1530              	.LBE407:
 1531              	.LBE406:
 1532              	.LBE669:
 1533              	.LBE793:
 1534              	.LBB794:
  71:../src/tensorflow_lite/tensorflow/lite/micro/kernels/floor_div.cc ****       return kTfLiteError;
 1535              		.loc 1 71 0
 1536 07f8 001000E3 		movw	r1, #:lower16:.LC11
 1537 07fc 0900A0E1 		mov	r0, r9
 1538 0800 143099E5 		ldr	r3, [r9, #20]
 1539 0804 001040E3 		movt	r1, #:upper16:.LC11
 1540              	.LEHB9:
 1541 0808 33FF2FE1 		blx	r3
 1542              	.LVL189:
 1543              	.LEHE9:
  72:../src/tensorflow_lite/tensorflow/lite/micro/kernels/floor_div.cc ****     }
 1544              		.loc 1 72 0
 1545 080c 0100A0E3 		mov	r0, #1
 1546              	.LBE794:
 1547              		.loc 1 95 0
 1548 0810 57DF8DE2 		add	sp, sp, #348
 1549              		.cfi_remember_state
 1550              		.cfi_def_cfa_offset 36
 1551              		@ sp needed
 1552 0814 F08FBDE8 		pop	{r4, r5, r6, r7, r8, r9, r10, fp, pc}
 1553              	.LVL190:
 1554              	.L378:
 1555              		.cfi_restore_state
 1556              	.LBB795:
 1557              	.LBB670:
 1558              	.LBB562:
 1559              	.LBB552:
 1560              	.LBB533:
 1561              	.LBB457:
 1562              	.LBB455:
 1563              	.LBB452:
 1564              	.LBB449:
 216:C:/Renesas/e2studio_2021_01_workspace_RZA2M_ANPR/ANPR_RZA2M_EBK/src/tensorflow_lite/tensorflow/lite/kernels/internal\types.h ****   }
 1565              		.loc 5 216 0
 1566 0818 080093E5 		ldr	r0, [r3, #8]
 1567 081c 01C0A0E3 		mov	ip, #1
 1568 0820 0C2093E5 		ldr	r2, [r3, #12]
 1569              	.LVL191:
 1570 0824 041093E5 		ldr	r1, [r3, #4]
 1571 0828 20018DE5 		str	r0, [sp, #288]
 1572 082c 24218DE5 		str	r2, [sp, #292]
 1573              	.LVL192:
 1574 0830 30218DE5 		str	r2, [sp, #304]
 1575              	.LBE449:
 1576              	.LBE452:
 815:C:/Renesas/e2studio_2021_01_workspace_RZA2M_ANPR/ANPR_RZA2M_EBK/src/tensorflow_lite/tensorflow/lite/kernels/internal\common.h ****   }
 1577              		.loc 7 815 0
 1578 0834 900202E0 		mul	r2, r0, r2
 1579              	.LVL193:
 1580              	.LBB453:
 1581              	.LBB450:
 216:C:/Renesas/e2studio_2021_01_workspace_RZA2M_ANPR/ANPR_RZA2M_EBK/src/tensorflow_lite/tensorflow/lite/kernels/internal\types.h ****   }
 1582              		.loc 5 216 0
 1583 0838 000093E5 		ldr	r0, [r3]
 1584 083c 1C118DE5 		str	r1, [sp, #284]
 1585              	.LVL194:
 1586 0840 34C18DE5 		str	ip, [sp, #308]
 1587              	.LBE450:
 1588              	.LBE453:
 815:C:/Renesas/e2studio_2021_01_workspace_RZA2M_ANPR/ANPR_RZA2M_EBK/src/tensorflow_lite/tensorflow/lite/kernels/internal\common.h ****   }
 1589              		.loc 7 815 0
 1590 0844 910201E0 		mul	r1, r1, r2
 1591              	.LVL195:
 1592 0848 2C218DE5 		str	r2, [sp, #300]
 1593 084c 18018DE5 		str	r0, [sp, #280]
 1594              	.LVL196:
 1595 0850 28118DE5 		str	r1, [sp, #296]
 1596 0854 A1FFFFEA 		b	.L40
 1597              	.LVL197:
 1598              	.L128:
 1599 0858 041041E2 		sub	r1, r1, #4
 1600 085c 040044E2 		sub	r0, r4, #4
 1601              	.LBE455:
 1602              	.LBE457:
 1603              	.LBE533:
 1604              	.LBE552:
 1605              	.LBE562:
 1606              	.LBE670:
 1607              	.LBE795:
 1608              	.LBB796:
 1609              	.LBB781:
 1610              	.LBB774:
 1611              	.LBB761:
 1612              	.LBB754:
 1613              	.LBB716:
 1614              	.LBB705:
 216:C:/Renesas/e2studio_2021_01_workspace_RZA2M_ANPR/ANPR_RZA2M_EBK/src/tensorflow_lite/tensorflow/lite/kernels/internal\types.h ****   }
 1615              		.loc 5 216 0
 1616 0860 0030A0E3 		mov	r3, #0
 1617 0864 050000EA 		b	.L134
 1618              	.LVL198:
 1619              	.L132:
 1620              	.LBE705:
 1621              	.LBE716:
 1622              		.loc 5 535 0
 1623 0868 0420B1E5 		ldr	r2, [r1, #4]!
 1624 086c 02005CE1 		cmp	ip, r2
 1625 0870 2B02001A 		bne	.L130
 534:C:/Renesas/e2studio_2021_01_workspace_RZA2M_ANPR/ANPR_RZA2M_EBK/src/tensorflow_lite/tensorflow/lite/kernels/internal\types.h ****     TFLITE_DCHECK_EQ(shape.Dims(i), check_shape_0.Dims(i));
 1626              		.loc 5 534 0
 1627 0874 013083E2 		add	r3, r3, #1
 1628              	.LVL199:
 1629 0878 03005BE1 		cmp	fp, r3
 1630 087c 5CFEFF0A 		beq	.L131
 1631              	.LVL200:
 1632              	.L134:
 1633              	.LBB717:
 1634              	.LBB706:
 215:C:/Renesas/e2studio_2021_01_workspace_RZA2M_ANPR/ANPR_RZA2M_EBK/src/tensorflow_lite/tensorflow/lite/kernels/internal\types.h ****     return size_ > kMaxSmallSize ? dims_pointer_[i] : dims_[i];
 1635              		.loc 5 215 0
 1636 0880 050053E1 		cmp	r3, r5
 1637              	.LBE706:
 1638              	.LBE717:
 1639              	.LBB718:
 1640              	.LBB698:
 216:C:/Renesas/e2studio_2021_01_workspace_RZA2M_ANPR/ANPR_RZA2M_EBK/src/tensorflow_lite/tensorflow/lite/kernels/internal\types.h ****   }
 1641              		.loc 5 216 0
 1642 0884 04C0B0E5 		ldr	ip, [r0, #4]!
 1643              	.LVL201:
 1644              	.LBE698:
 1645              	.LBE718:
 1646              	.LBB719:
 1647              	.LBB707:
 215:C:/Renesas/e2studio_2021_01_workspace_RZA2M_ANPR/ANPR_RZA2M_EBK/src/tensorflow_lite/tensorflow/lite/kernels/internal\types.h ****     return size_ > kMaxSmallSize ? dims_pointer_[i] : dims_[i];
 1648              		.loc 5 215 0
 1649 0888 F6FFFFBA 		blt	.L132
 1650              	.LVL202:
 1651              	.L129:
 1652              	.LEHB10:
 1653 088c FEFFFFEB 		bl	abort
 1654              	.LVL203:
 1655              	.L209:
 1656              	.LBE707:
 1657              	.LBE719:
 1658              	.LBE754:
 1659              	.LBB755:
 1660              	.LBB749:
 1661              	.LBB744:
 1662              	.LBB741:
 1663              	.LBB738:
 292:C:/Renesas/e2studio_2021_01_workspace_RZA2M_ANPR/ANPR_RZA2M_EBK/src/tensorflow_lite/tensorflow/lite/kernels/internal\types.h ****       buffer_size *= dims_data[i];
 1664              		.loc 5 292 0
 1665 0890 0310A0E1 		mov	r1, r3
 1666 0894 A1FEFFEA 		b	.L150
 1667              	.LVL204:
 1668              	.L41:
 1669              	.LBE738:
 1670              	.LBE741:
 1671              	.LBE744:
 1672              	.LBE749:
 1673              	.LBE755:
 1674              	.LBE761:
 1675              	.LBE774:
 1676              	.LBE781:
 1677              	.LBE796:
 1678              	.LBB797:
 1679              	.LBB671:
 1680              	.LBB563:
 1681              	.LBB553:
 1682              	.LBB534:
 1683              	.LBB472:
 1684              	.LBB470:
 1685              	.LBB467:
 1686              	.LBB464:
 216:C:/Renesas/e2studio_2021_01_workspace_RZA2M_ANPR/ANPR_RZA2M_EBK/src/tensorflow_lite/tensorflow/lite/kernels/internal\types.h ****   }
 1687              		.loc 5 216 0
 1688 0898 08C090E5 		ldr	ip, [r0, #8]
 1689 089c 050054E3 		cmp	r4, #5
 1690 08a0 0C2090E5 		ldr	r2, [r0, #12]
 1691              	.LVL205:
 1692 08a4 01E0A0E3 		mov	lr, #1
 1693 08a8 041090E5 		ldr	r1, [r0, #4]
 1694 08ac 40C18DE5 		str	ip, [sp, #320]
 1695 08b0 44218DE5 		str	r2, [sp, #324]
 1696              	.LVL206:
 1697 08b4 50218DE5 		str	r2, [sp, #336]
 1698              	.LBE464:
 1699              	.LBE467:
 815:C:/Renesas/e2studio_2021_01_workspace_RZA2M_ANPR/ANPR_RZA2M_EBK/src/tensorflow_lite/tensorflow/lite/kernels/internal\common.h ****   }
 1700              		.loc 7 815 0
 1701 08b8 9C0202E0 		mul	r2, ip, r2
 1702              	.LVL207:
 1703              	.LBB468:
 1704              	.LBB465:
 216:C:/Renesas/e2studio_2021_01_workspace_RZA2M_ANPR/ANPR_RZA2M_EBK/src/tensorflow_lite/tensorflow/lite/kernels/internal\types.h ****   }
 1705              		.loc 5 216 0
 1706 08bc 00C090E5 		ldr	ip, [r0]
 1707 08c0 3C118DE5 		str	r1, [sp, #316]
 1708              	.LVL208:
 1709 08c4 54E18DE5 		str	lr, [sp, #340]
 1710              	.LBE465:
 1711              	.LBE468:
 815:C:/Renesas/e2studio_2021_01_workspace_RZA2M_ANPR/ANPR_RZA2M_EBK/src/tensorflow_lite/tensorflow/lite/kernels/internal\common.h ****   }
 1712              		.loc 7 815 0
 1713 08c8 910201E0 		mul	r1, r1, r2
 1714              	.LVL209:
 1715 08cc 4C218DE5 		str	r2, [sp, #332]
 1716 08d0 38C18DE5 		str	ip, [sp, #312]
 1717              	.LVL210:
 1718 08d4 48118DE5 		str	r1, [sp, #328]
 1719 08d8 8C0100CA 		bgt	.L380
 1720              	.LVL211:
 1721              	.LBE470:
 1722              	.LBE472:
 1723              	.LBE534:
 1724              	.LBB535:
 1725              	.LBB526:
 1726              	.LBB497:
 1727              	.LBB481:
 215:C:/Renesas/e2studio_2021_01_workspace_RZA2M_ANPR/ANPR_RZA2M_EBK/src/tensorflow_lite/tensorflow/lite/kernels/internal\types.h ****     return size_ > kMaxSmallSize ? dims_pointer_[i] : dims_[i];
 1728              		.loc 5 215 0
 1729 08dc 000054E3 		cmp	r4, #0
 1730 08e0 1F0200DA 		ble	.L47
 1731              	.LVL212:
 1732              	.LBE481:
 1733              	.LBE497:
 1734              	.LBB498:
 1735              	.LBB499:
 216:C:/Renesas/e2studio_2021_01_workspace_RZA2M_ANPR/ANPR_RZA2M_EBK/src/tensorflow_lite/tensorflow/lite/kernels/internal\types.h ****   }
 1736              		.loc 5 216 0
 1737 08e4 002090E5 		ldr	r2, [r0]
 1738              	.LVL213:
 1739              	.LBE499:
 1740              	.LBE498:
 839:C:/Renesas/e2studio_2021_01_workspace_RZA2M_ANPR/ANPR_RZA2M_EBK/src/tensorflow_lite/tensorflow/lite/kernels/internal\common.h ****       if (extent0 == 1) {
 1741              		.loc 7 839 0
 1742 08e8 020053E1 		cmp	r3, r2
 1743 08ec 0900000A 		beq	.L66
 840:C:/Renesas/e2studio_2021_01_workspace_RZA2M_ANPR/ANPR_RZA2M_EBK/src/tensorflow_lite/tensorflow/lite/kernels/internal\common.h ****         desc0_out->strides[i] = 0;
 1744              		.loc 7 840 0
 1745 08f0 010053E3 		cmp	r3, #1
 841:C:/Renesas/e2studio_2021_01_workspace_RZA2M_ANPR/ANPR_RZA2M_EBK/src/tensorflow_lite/tensorflow/lite/kernels/internal\common.h ****         desc0_out->extents[i] = extent1;
 1746              		.loc 7 841 0
 1747 08f4 0030A003 		moveq	r3, #0
 842:C:/Renesas/e2studio_2021_01_workspace_RZA2M_ANPR/ANPR_RZA2M_EBK/src/tensorflow_lite/tensorflow/lite/kernels/internal\common.h ****       } else {
 1748              		.loc 7 842 0
 1749 08f8 18218D05 		streq	r2, [sp, #280]
 841:C:/Renesas/e2studio_2021_01_workspace_RZA2M_ANPR/ANPR_RZA2M_EBK/src/tensorflow_lite/tensorflow/lite/kernels/internal\common.h ****         desc0_out->extents[i] = extent1;
 1750              		.loc 7 841 0
 1751 08fc 28318D05 		streq	r3, [sp, #296]
 840:C:/Renesas/e2studio_2021_01_workspace_RZA2M_ANPR/ANPR_RZA2M_EBK/src/tensorflow_lite/tensorflow/lite/kernels/internal\common.h ****         desc0_out->strides[i] = 0;
 1752              		.loc 7 840 0
 1753 0900 0400000A 		beq	.L66
 844:C:/Renesas/e2studio_2021_01_workspace_RZA2M_ANPR/ANPR_RZA2M_EBK/src/tensorflow_lite/tensorflow/lite/kernels/internal\common.h ****         desc1_out->strides[i] = 0;
 1754              		.loc 7 844 0
 1755 0904 010052E3 		cmp	r2, #1
 1756 0908 1B02001A 		bne	.L50
 845:C:/Renesas/e2studio_2021_01_workspace_RZA2M_ANPR/ANPR_RZA2M_EBK/src/tensorflow_lite/tensorflow/lite/kernels/internal\common.h ****         desc1_out->extents[i] = extent0;
 1757              		.loc 7 845 0
 1758 090c 0020A0E3 		mov	r2, #0
 1759              		.loc 7 846 0
 1760 0910 38318DE5 		str	r3, [sp, #312]
 845:C:/Renesas/e2studio_2021_01_workspace_RZA2M_ANPR/ANPR_RZA2M_EBK/src/tensorflow_lite/tensorflow/lite/kernels/internal\common.h ****         desc1_out->extents[i] = extent0;
 1761              		.loc 7 845 0
 1762 0914 48218DE5 		str	r2, [sp, #328]
 1763              	.L66:
 1764              	.LVL214:
 1765              	.LBB507:
 1766              	.LBB482:
 215:C:/Renesas/e2studio_2021_01_workspace_RZA2M_ANPR/ANPR_RZA2M_EBK/src/tensorflow_lite/tensorflow/lite/kernels/internal\types.h ****     return size_ > kMaxSmallSize ? dims_pointer_[i] : dims_[i];
 1767              		.loc 5 215 0
 1768 0918 010054E3 		cmp	r4, #1
 1769 091c 1002000A 		beq	.L47
 216:C:/Renesas/e2studio_2021_01_workspace_RZA2M_ANPR/ANPR_RZA2M_EBK/src/tensorflow_lite/tensorflow/lite/kernels/internal\types.h ****   }
 1770              		.loc 5 216 0
 1771 0920 F0309DE5 		ldr	r3, [sp, #240]
 1772              	.LVL215:
 1773              	.LBE482:
 1774              	.LBE507:
 1775              	.LBB508:
 1776              	.LBB500:
 1777 0924 042090E5 		ldr	r2, [r0, #4]
 1778              	.LVL216:
 1779              	.LBE500:
 1780              	.LBE508:
 839:C:/Renesas/e2studio_2021_01_workspace_RZA2M_ANPR/ANPR_RZA2M_EBK/src/tensorflow_lite/tensorflow/lite/kernels/internal\common.h ****       if (extent0 == 1) {
 1781              		.loc 7 839 0
 1782 0928 030052E1 		cmp	r2, r3
 1783 092c 0900000A 		beq	.L69
 840:C:/Renesas/e2studio_2021_01_workspace_RZA2M_ANPR/ANPR_RZA2M_EBK/src/tensorflow_lite/tensorflow/lite/kernels/internal\common.h ****         desc0_out->strides[i] = 0;
 1784              		.loc 7 840 0
 1785 0930 010053E3 		cmp	r3, #1
 841:C:/Renesas/e2studio_2021_01_workspace_RZA2M_ANPR/ANPR_RZA2M_EBK/src/tensorflow_lite/tensorflow/lite/kernels/internal\common.h ****         desc0_out->extents[i] = extent1;
 1786              		.loc 7 841 0
 1787 0934 0030A003 		moveq	r3, #0
 842:C:/Renesas/e2studio_2021_01_workspace_RZA2M_ANPR/ANPR_RZA2M_EBK/src/tensorflow_lite/tensorflow/lite/kernels/internal\common.h ****       } else {
 1788              		.loc 7 842 0
 1789 0938 1C218D05 		streq	r2, [sp, #284]
 841:C:/Renesas/e2studio_2021_01_workspace_RZA2M_ANPR/ANPR_RZA2M_EBK/src/tensorflow_lite/tensorflow/lite/kernels/internal\common.h ****         desc0_out->extents[i] = extent1;
 1790              		.loc 7 841 0
 1791 093c 2C318D05 		streq	r3, [sp, #300]
 840:C:/Renesas/e2studio_2021_01_workspace_RZA2M_ANPR/ANPR_RZA2M_EBK/src/tensorflow_lite/tensorflow/lite/kernels/internal\common.h ****         desc0_out->strides[i] = 0;
 1792              		.loc 7 840 0
 1793 0940 0400000A 		beq	.L69
 844:C:/Renesas/e2studio_2021_01_workspace_RZA2M_ANPR/ANPR_RZA2M_EBK/src/tensorflow_lite/tensorflow/lite/kernels/internal\common.h ****         desc1_out->strides[i] = 0;
 1794              		.loc 7 844 0
 1795 0944 010052E3 		cmp	r2, #1
 1796 0948 0B02001A 		bne	.L50
 845:C:/Renesas/e2studio_2021_01_workspace_RZA2M_ANPR/ANPR_RZA2M_EBK/src/tensorflow_lite/tensorflow/lite/kernels/internal\common.h ****         desc1_out->extents[i] = extent0;
 1797              		.loc 7 845 0
 1798 094c 0020A0E3 		mov	r2, #0
 1799              		.loc 7 846 0
 1800 0950 3C318DE5 		str	r3, [sp, #316]
 845:C:/Renesas/e2studio_2021_01_workspace_RZA2M_ANPR/ANPR_RZA2M_EBK/src/tensorflow_lite/tensorflow/lite/kernels/internal\common.h ****         desc1_out->extents[i] = extent0;
 1801              		.loc 7 845 0
 1802 0954 4C218DE5 		str	r2, [sp, #332]
 1803              	.L69:
 1804              	.LVL217:
 1805              	.LBB509:
 1806              	.LBB483:
 215:C:/Renesas/e2studio_2021_01_workspace_RZA2M_ANPR/ANPR_RZA2M_EBK/src/tensorflow_lite/tensorflow/lite/kernels/internal\types.h ****     return size_ > kMaxSmallSize ? dims_pointer_[i] : dims_[i];
 1807              		.loc 5 215 0
 1808 0958 020054E3 		cmp	r4, #2
 1809 095c 0002000A 		beq	.L47
 216:C:/Renesas/e2studio_2021_01_workspace_RZA2M_ANPR/ANPR_RZA2M_EBK/src/tensorflow_lite/tensorflow/lite/kernels/internal\types.h ****   }
 1810              		.loc 5 216 0
 1811 0960 F4309DE5 		ldr	r3, [sp, #244]
 1812              	.LVL218:
 1813              	.LBE483:
 1814              	.LBE509:
 1815              	.LBB510:
 1816              	.LBB501:
 1817 0964 082090E5 		ldr	r2, [r0, #8]
 1818              	.LVL219:
 1819              	.LBE501:
 1820              	.LBE510:
 839:C:/Renesas/e2studio_2021_01_workspace_RZA2M_ANPR/ANPR_RZA2M_EBK/src/tensorflow_lite/tensorflow/lite/kernels/internal\common.h ****       if (extent0 == 1) {
 1821              		.loc 7 839 0
 1822 0968 030052E1 		cmp	r2, r3
 1823 096c 0900000A 		beq	.L71
 840:C:/Renesas/e2studio_2021_01_workspace_RZA2M_ANPR/ANPR_RZA2M_EBK/src/tensorflow_lite/tensorflow/lite/kernels/internal\common.h ****         desc0_out->strides[i] = 0;
 1824              		.loc 7 840 0
 1825 0970 010053E3 		cmp	r3, #1
 841:C:/Renesas/e2studio_2021_01_workspace_RZA2M_ANPR/ANPR_RZA2M_EBK/src/tensorflow_lite/tensorflow/lite/kernels/internal\common.h ****         desc0_out->extents[i] = extent1;
 1826              		.loc 7 841 0
 1827 0974 0030A003 		moveq	r3, #0
 842:C:/Renesas/e2studio_2021_01_workspace_RZA2M_ANPR/ANPR_RZA2M_EBK/src/tensorflow_lite/tensorflow/lite/kernels/internal\common.h ****       } else {
 1828              		.loc 7 842 0
 1829 0978 20218D05 		streq	r2, [sp, #288]
 841:C:/Renesas/e2studio_2021_01_workspace_RZA2M_ANPR/ANPR_RZA2M_EBK/src/tensorflow_lite/tensorflow/lite/kernels/internal\common.h ****         desc0_out->extents[i] = extent1;
 1830              		.loc 7 841 0
 1831 097c 30318D05 		streq	r3, [sp, #304]
 840:C:/Renesas/e2studio_2021_01_workspace_RZA2M_ANPR/ANPR_RZA2M_EBK/src/tensorflow_lite/tensorflow/lite/kernels/internal\common.h ****         desc0_out->strides[i] = 0;
 1832              		.loc 7 840 0
 1833 0980 0400000A 		beq	.L71
 844:C:/Renesas/e2studio_2021_01_workspace_RZA2M_ANPR/ANPR_RZA2M_EBK/src/tensorflow_lite/tensorflow/lite/kernels/internal\common.h ****         desc1_out->strides[i] = 0;
 1834              		.loc 7 844 0
 1835 0984 010052E3 		cmp	r2, #1
 1836 0988 FB01001A 		bne	.L50
 845:C:/Renesas/e2studio_2021_01_workspace_RZA2M_ANPR/ANPR_RZA2M_EBK/src/tensorflow_lite/tensorflow/lite/kernels/internal\common.h ****         desc1_out->extents[i] = extent0;
 1837              		.loc 7 845 0
 1838 098c 0020A0E3 		mov	r2, #0
 1839              		.loc 7 846 0
 1840 0990 40318DE5 		str	r3, [sp, #320]
 845:C:/Renesas/e2studio_2021_01_workspace_RZA2M_ANPR/ANPR_RZA2M_EBK/src/tensorflow_lite/tensorflow/lite/kernels/internal\common.h ****         desc1_out->extents[i] = extent0;
 1841              		.loc 7 845 0
 1842 0994 50218DE5 		str	r2, [sp, #336]
 1843              	.L71:
 1844              	.LVL220:
 1845              	.LBB511:
 1846              	.LBB484:
 215:C:/Renesas/e2studio_2021_01_workspace_RZA2M_ANPR/ANPR_RZA2M_EBK/src/tensorflow_lite/tensorflow/lite/kernels/internal\types.h ****     return size_ > kMaxSmallSize ? dims_pointer_[i] : dims_[i];
 1847              		.loc 5 215 0
 1848 0998 030054E3 		cmp	r4, #3
 1849 099c F001000A 		beq	.L47
 216:C:/Renesas/e2studio_2021_01_workspace_RZA2M_ANPR/ANPR_RZA2M_EBK/src/tensorflow_lite/tensorflow/lite/kernels/internal\types.h ****   }
 1850              		.loc 5 216 0
 1851 09a0 F8309DE5 		ldr	r3, [sp, #248]
 1852              	.LVL221:
 1853              	.LBE484:
 1854              	.LBE511:
 1855              	.LBB512:
 1856              	.LBB502:
 1857 09a4 0C2090E5 		ldr	r2, [r0, #12]
 1858              	.LVL222:
 1859              	.LBE502:
 1860              	.LBE512:
 839:C:/Renesas/e2studio_2021_01_workspace_RZA2M_ANPR/ANPR_RZA2M_EBK/src/tensorflow_lite/tensorflow/lite/kernels/internal\common.h ****       if (extent0 == 1) {
 1861              		.loc 7 839 0
 1862 09a8 030052E1 		cmp	r2, r3
 1863 09ac 0900000A 		beq	.L74
 1864              	.LVL223:
 1865              	.L81:
 840:C:/Renesas/e2studio_2021_01_workspace_RZA2M_ANPR/ANPR_RZA2M_EBK/src/tensorflow_lite/tensorflow/lite/kernels/internal\common.h ****         desc0_out->strides[i] = 0;
 1866              		.loc 7 840 0
 1867 09b0 010053E3 		cmp	r3, #1
 841:C:/Renesas/e2studio_2021_01_workspace_RZA2M_ANPR/ANPR_RZA2M_EBK/src/tensorflow_lite/tensorflow/lite/kernels/internal\common.h ****         desc0_out->extents[i] = extent1;
 1868              		.loc 7 841 0
 1869 09b4 0030A003 		moveq	r3, #0
 842:C:/Renesas/e2studio_2021_01_workspace_RZA2M_ANPR/ANPR_RZA2M_EBK/src/tensorflow_lite/tensorflow/lite/kernels/internal\common.h ****       } else {
 1870              		.loc 7 842 0
 1871 09b8 24218D05 		streq	r2, [sp, #292]
 841:C:/Renesas/e2studio_2021_01_workspace_RZA2M_ANPR/ANPR_RZA2M_EBK/src/tensorflow_lite/tensorflow/lite/kernels/internal\common.h ****         desc0_out->extents[i] = extent1;
 1872              		.loc 7 841 0
 1873 09bc 34318D05 		streq	r3, [sp, #308]
 840:C:/Renesas/e2studio_2021_01_workspace_RZA2M_ANPR/ANPR_RZA2M_EBK/src/tensorflow_lite/tensorflow/lite/kernels/internal\common.h ****         desc0_out->strides[i] = 0;
 1874              		.loc 7 840 0
 1875 09c0 0400000A 		beq	.L74
 844:C:/Renesas/e2studio_2021_01_workspace_RZA2M_ANPR/ANPR_RZA2M_EBK/src/tensorflow_lite/tensorflow/lite/kernels/internal\common.h ****         desc1_out->strides[i] = 0;
 1876              		.loc 7 844 0
 1877 09c4 010052E3 		cmp	r2, #1
 845:C:/Renesas/e2studio_2021_01_workspace_RZA2M_ANPR/ANPR_RZA2M_EBK/src/tensorflow_lite/tensorflow/lite/kernels/internal\common.h ****         desc1_out->extents[i] = extent0;
 1878              		.loc 7 845 0
 1879 09c8 0020A003 		moveq	r2, #0
 1880              		.loc 7 846 0
 1881 09cc 44318D05 		streq	r3, [sp, #324]
 1882              	.LVL224:
 845:C:/Renesas/e2studio_2021_01_workspace_RZA2M_ANPR/ANPR_RZA2M_EBK/src/tensorflow_lite/tensorflow/lite/kernels/internal\common.h ****         desc1_out->extents[i] = extent0;
 1883              		.loc 7 845 0
 1884 09d0 54218D05 		streq	r2, [sp, #340]
 844:C:/Renesas/e2studio_2021_01_workspace_RZA2M_ANPR/ANPR_RZA2M_EBK/src/tensorflow_lite/tensorflow/lite/kernels/internal\common.h ****         desc1_out->strides[i] = 0;
 1885              		.loc 7 844 0
 1886 09d4 E801001A 		bne	.L50
 1887              	.LVL225:
 1888              	.L74:
 1889              	.LBE526:
 1890              	.LBE535:
 1891              	.LBB536:
 1892              	.LBB537:
 207:C:/Renesas/e2studio_2021_01_workspace_RZA2M_ANPR/ANPR_RZA2M_EBK/src/tensorflow_lite/tensorflow/lite/kernels/internal\types.h **** #endif  // TF_LITE_STATIC_MEMORY
 1893              		.loc 5 207 0
 1894 09d8 000050E3 		cmp	r0, #0
 1895 09dc 0000000A 		beq	.L177
 1896 09e0 FEFFFFEB 		bl	_ZdaPv
 1897              	.LVL226:
 1898              	.L177:
 1899              	.LBE537:
 1900              	.LBE536:
 1901              	.LBB538:
 1902              	.LBB539:
 203:C:/Renesas/e2studio_2021_01_workspace_RZA2M_ANPR/ANPR_RZA2M_EBK/src/tensorflow_lite/tensorflow/lite/kernels/internal\types.h **** #ifdef TF_LITE_STATIC_MEMORY
 1903              		.loc 5 203 0
 1904 09e4 050054E3 		cmp	r4, #5
 1905 09e8 030000DA 		ble	.L85
 207:C:/Renesas/e2studio_2021_01_workspace_RZA2M_ANPR/ANPR_RZA2M_EBK/src/tensorflow_lite/tensorflow/lite/kernels/internal\types.h **** #endif  // TF_LITE_STATIC_MEMORY
 1906              		.loc 5 207 0
 1907 09ec EC009DE5 		ldr	r0, [sp, #236]
 1908 09f0 000050E3 		cmp	r0, #0
 1909 09f4 0000000A 		beq	.L85
 1910 09f8 FEFFFFEB 		bl	_ZdaPv
 1911              	.LVL227:
 1912              	.L85:
 1913              	.LBE539:
 1914              	.LBE538:
 1915              	.LBE553:
 1916              	.LBE563:
 1917              	.LBB564:
 1918              	.LBB565:
 1919              	.LBB566:
 215:C:/Renesas/e2studio_2021_01_workspace_RZA2M_ANPR/ANPR_RZA2M_EBK/src/tensorflow_lite/tensorflow/lite/kernels/internal\types.h ****     return size_ > kMaxSmallSize ? dims_pointer_[i] : dims_[i];
 1920              		.loc 5 215 0
 1921 09fc D0309DE5 		ldr	r3, [sp, #208]
 1922 0a00 000053E3 		cmp	r3, #0
 1923 0a04 08308DE5 		str	r3, [sp, #8]
 1924 0a08 DA0100DA 		ble	.L86
 1925              	.LBE566:
 1926              	.LBE565:
 1927              	.LBB570:
 1928              	.LBB571:
 1929              	.LBB572:
 216:C:/Renesas/e2studio_2021_01_workspace_RZA2M_ANPR/ANPR_RZA2M_EBK/src/tensorflow_lite/tensorflow/lite/kernels/internal\types.h ****   }
 1930              		.loc 5 216 0
 1931 0a0c D8309DE5 		ldr	r3, [sp, #216]
 1932              	.LBE572:
 1933              	.LBE571:
 1934              	.LBB577:
 1935              	.LBB578:
 1936              	.LBB579:
 1937              	.LBB580:
 1938              	.LBB581:
 734:C:/Renesas/e2studio_2021_01_workspace_RZA2M_ANPR/ANPR_RZA2M_EBK/src/tensorflow_lite/tensorflow/lite/kernels/internal\common.h **** }
 1939              		.loc 7 734 0
 1940 0a10 0080A0E3 		mov	r8, #0
 1941              	.LVL228:
 1942              	.LBE581:
 1943              	.LBE580:
 1944              	.LBE579:
 1945              	.LBB608:
 1946              	.LBB609:
 216:C:/Renesas/e2studio_2021_01_workspace_RZA2M_ANPR/ANPR_RZA2M_EBK/src/tensorflow_lite/tensorflow/lite/kernels/internal\types.h ****   }
 1947              		.loc 5 216 0
 1948 0a14 E0B09DE5 		ldr	fp, [sp, #224]
 1949 0a18 28119DE5 		ldr	r1, [sp, #296]
 1950              	.LBE609:
 1951              	.LBE608:
 1952              	.LBE578:
 1953              	.LBE577:
 1954              	.LBB634:
 1955              	.LBB573:
 1956 0a1c 03C0A0E1 		mov	ip, r3
 1957 0a20 10308DE5 		str	r3, [sp, #16]
 1958              	.LBE573:
 1959              	.LBE634:
 1960              	.LBB635:
 1961              	.LBB623:
 1962              	.LBB624:
 1963 0a24 DC309DE5 		ldr	r3, [sp, #220]
 1964 0a28 48E19DE5 		ldr	lr, [sp, #328]
 1965 0a2c 2C419DE5 		ldr	r4, [sp, #300]
 1966 0a30 0300A0E1 		mov	r0, r3
 1967 0a34 0C308DE5 		str	r3, [sp, #12]
 1968 0a38 34319DE5 		ldr	r3, [sp, #308]
 1969 0a3c 900C02E0 		mul	r2, r0, ip
 1970 0a40 0BC1A0E1 		lsl	ip, fp, #2
 1971 0a44 68508DE5 		str	r5, [sp, #104]
 1972 0a48 4C519DE5 		ldr	r5, [sp, #332]
 1973              	.LVL229:
 1974 0a4c 9B0000E0 		mul	r0, fp, r0
 1975 0a50 58C08DE5 		str	ip, [sp, #88]
 1976 0a54 83C083E0 		add	ip, r3, r3, lsl #1
 1977 0a58 0331A0E1 		lsl	r3, r3, #2
 1978 0a5c 30919DE5 		ldr	r9, [sp, #304]
 1979              	.LVL230:
 1980 0a60 0221A0E1 		lsl	r2, r2, #2
 1981 0a64 34308DE5 		str	r3, [sp, #52]
 1982 0a68 0CC1A0E1 		lsl	ip, ip, #2
 1983              	.LBE624:
 1984              	.LBE623:
 1985              	.LBE635:
 1986              	.LBE570:
 1987              	.LBB644:
 1988              	.LBB567:
 1989 0a6c D4309DE5 		ldr	r3, [sp, #212]
 1990 0a70 9B0202E0 		mul	r2, fp, r2
 1991 0a74 50719DE5 		ldr	r7, [sp, #336]
 1992 0a78 54619DE5 		ldr	r6, [sp, #340]
 1993 0a7c 04308DE5 		str	r3, [sp, #4]
 1994 0a80 0131A0E1 		lsl	r3, r1, #2
 1995 0a84 84208DE5 		str	r2, [sp, #132]
 1996 0a88 0021A0E1 		lsl	r2, r0, #2
 1997 0a8c 7C308DE5 		str	r3, [sp, #124]
 1998 0a90 0E31A0E1 		lsl	r3, lr, #2
 1999 0a94 6CA08DE5 		str	r10, [sp, #108]
 2000 0a98 80308DE5 		str	r3, [sp, #128]
 2001 0a9c 0431A0E1 		lsl	r3, r4, #2
 2002 0aa0 3CC08DE5 		str	ip, [sp, #60]
 2003 0aa4 70308DE5 		str	r3, [sp, #112]
 2004 0aa8 0531A0E1 		lsl	r3, r5, #2
 2005 0aac 78208DE5 		str	r2, [sp, #120]
 2006 0ab0 74308DE5 		str	r3, [sp, #116]
 2007 0ab4 0931A0E1 		lsl	r3, r9, #2
 2008 0ab8 0890A0E1 		mov	r9, r8
 2009 0abc 50308DE5 		str	r3, [sp, #80]
 2010 0ac0 0731A0E1 		lsl	r3, r7, #2
 2011 0ac4 54308DE5 		str	r3, [sp, #84]
 2012 0ac8 0631A0E1 		lsl	r3, r6, #2
 2013 0acc 38308DE5 		str	r3, [sp, #56]
 2014              	.LBE567:
 2015              	.LBE644:
 2016              	.LBB645:
 2017              	.LBB636:
 2018              	.LBB627:
 2019              	.LBB614:
 2020              	.LBB586:
 2021              	.LBB587:
 729:C:/Renesas/e2studio_2021_01_workspace_RZA2M_ANPR/ANPR_RZA2M_EBK/src/tensorflow_lite/tensorflow/lite/kernels/internal\common.h ****   TFLITE_DCHECK(i1 >= 0 && i1 < desc.extents[1]);
 2022              		.loc 7 729 0
 2023 0ad0 18319DE5 		ldr	r3, [sp, #280]
 2024 0ad4 14308DE5 		str	r3, [sp, #20]
 730:C:/Renesas/e2studio_2021_01_workspace_RZA2M_ANPR/ANPR_RZA2M_EBK/src/tensorflow_lite/tensorflow/lite/kernels/internal\common.h ****   TFLITE_DCHECK(i2 >= 0 && i2 < desc.extents[2]);
 2025              		.loc 7 730 0
 2026 0ad8 1C319DE5 		ldr	r3, [sp, #284]
 2027 0adc 18308DE5 		str	r3, [sp, #24]
 731:C:/Renesas/e2studio_2021_01_workspace_RZA2M_ANPR/ANPR_RZA2M_EBK/src/tensorflow_lite/tensorflow/lite/kernels/internal\common.h ****   TFLITE_DCHECK(i3 >= 0 && i3 < desc.extents[3]);
 2028              		.loc 7 731 0
 2029 0ae0 20319DE5 		ldr	r3, [sp, #288]
 2030 0ae4 1C308DE5 		str	r3, [sp, #28]
 732:C:/Renesas/e2studio_2021_01_workspace_RZA2M_ANPR/ANPR_RZA2M_EBK/src/tensorflow_lite/tensorflow/lite/kernels/internal\common.h ****   return i0 * desc.strides[0] + i1 * desc.strides[1] + i2 * desc.strides[2] +
 2031              		.loc 7 732 0
 2032 0ae8 24319DE5 		ldr	r3, [sp, #292]
 2033 0aec 20308DE5 		str	r3, [sp, #32]
 2034              	.LBE587:
 2035              	.LBE586:
 2036              	.LBB591:
 2037              	.LBB582:
 729:C:/Renesas/e2studio_2021_01_workspace_RZA2M_ANPR/ANPR_RZA2M_EBK/src/tensorflow_lite/tensorflow/lite/kernels/internal\common.h ****   TFLITE_DCHECK(i1 >= 0 && i1 < desc.extents[1]);
 2038              		.loc 7 729 0
 2039 0af0 38319DE5 		ldr	r3, [sp, #312]
 2040 0af4 24308DE5 		str	r3, [sp, #36]
 730:C:/Renesas/e2studio_2021_01_workspace_RZA2M_ANPR/ANPR_RZA2M_EBK/src/tensorflow_lite/tensorflow/lite/kernels/internal\common.h ****   TFLITE_DCHECK(i2 >= 0 && i2 < desc.extents[2]);
 2041              		.loc 7 730 0
 2042 0af8 3C319DE5 		ldr	r3, [sp, #316]
 2043 0afc 28308DE5 		str	r3, [sp, #40]
 731:C:/Renesas/e2studio_2021_01_workspace_RZA2M_ANPR/ANPR_RZA2M_EBK/src/tensorflow_lite/tensorflow/lite/kernels/internal\common.h ****   TFLITE_DCHECK(i3 >= 0 && i3 < desc.extents[3]);
 2044              		.loc 7 731 0
 2045 0b00 40319DE5 		ldr	r3, [sp, #320]
 2046 0b04 2C308DE5 		str	r3, [sp, #44]
 732:C:/Renesas/e2studio_2021_01_workspace_RZA2M_ANPR/ANPR_RZA2M_EBK/src/tensorflow_lite/tensorflow/lite/kernels/internal\common.h ****   return i0 * desc.strides[0] + i1 * desc.strides[1] + i2 * desc.strides[2] +
 2047              		.loc 7 732 0
 2048 0b08 44319DE5 		ldr	r3, [sp, #324]
 2049 0b0c 30308DE5 		str	r3, [sp, #48]
 2050              	.LVL231:
 2051              	.L87:
 2052              	.LBE582:
 2053              	.LBE591:
 2054              	.LBE614:
 2055              	.LBE627:
 2056              	.LBE636:
 2057              	.LBE645:
 2058              	.LBB646:
 2059              	.LBB568:
 216:C:/Renesas/e2studio_2021_01_workspace_RZA2M_ANPR/ANPR_RZA2M_EBK/src/tensorflow_lite/tensorflow/lite/kernels/internal\types.h ****   }
 2060              		.loc 5 216 0
 2061 0b10 08309DE5 		ldr	r3, [sp, #8]
 2062 0b14 050053E3 		cmp	r3, #5
 2063 0b18 04309DE5 		ldr	r3, [sp, #4]
 2064 0b1c 003093C5 		ldrgt	r3, [r3]
 2065              	.LVL232:
 2066              	.LBE568:
 2067              	.LBE646:
  46:C:/Renesas/e2studio_2021_01_workspace_RZA2M_ANPR/ANPR_RZA2M_EBK/src/tensorflow_lite/tensorflow/lite/kernels/internal/reference\binary_function.h ****     for (int y = 0; y < output_shape.Dims(1); ++y) {
 2068              		.loc 4 46 0
 2069 0b20 090053E1 		cmp	r3, r9
 2070              	.LBB647:
 2071              	.LBB637:
 2072              	.LBB574:
 215:C:/Renesas/e2studio_2021_01_workspace_RZA2M_ANPR/ANPR_RZA2M_EBK/src/tensorflow_lite/tensorflow/lite/kernels/internal\types.h ****     return size_ > kMaxSmallSize ? dims_pointer_[i] : dims_[i];
 2073              		.loc 5 215 0
 2074 0b24 08309DE5 		ldr	r3, [sp, #8]
 2075              	.LBE574:
 2076              	.LBE637:
 2077              	.LBE647:
  46:C:/Renesas/e2studio_2021_01_workspace_RZA2M_ANPR/ANPR_RZA2M_EBK/src/tensorflow_lite/tensorflow/lite/kernels/internal/reference\binary_function.h ****     for (int y = 0; y < output_shape.Dims(1); ++y) {
 2078              		.loc 4 46 0
 2079 0b28 610100DA 		ble	.L93
 2080              	.LVL233:
 2081              	.LBB648:
 2082              	.LBB638:
 2083              	.LBB575:
 215:C:/Renesas/e2studio_2021_01_workspace_RZA2M_ANPR/ANPR_RZA2M_EBK/src/tensorflow_lite/tensorflow/lite/kernels/internal\types.h ****     return size_ > kMaxSmallSize ? dims_pointer_[i] : dims_[i];
 2084              		.loc 5 215 0
 2085 0b2c 010053E3 		cmp	r3, #1
 2086 0b30 8F01000A 		beq	.L381
 2087 0b34 6C309DE5 		ldr	r3, [sp, #108]
 2088 0b38 00A0A0E3 		mov	r10, #0
 2089 0b3c 64308DE5 		str	r3, [sp, #100]
 2090 0b40 4C309DE5 		ldr	r3, [sp, #76]
 2091 0b44 60308DE5 		str	r3, [sp, #96]
 2092 0b48 68309DE5 		ldr	r3, [sp, #104]
 2093 0b4c 5C308DE5 		str	r3, [sp, #92]
 2094              	.LVL234:
 2095              	.L94:
 216:C:/Renesas/e2studio_2021_01_workspace_RZA2M_ANPR/ANPR_RZA2M_EBK/src/tensorflow_lite/tensorflow/lite/kernels/internal\types.h ****   }
 2096              		.loc 5 216 0
 2097 0b50 08309DE5 		ldr	r3, [sp, #8]
 2098 0b54 050053E3 		cmp	r3, #5
 2099 0b58 04309DC5 		ldrgt	r3, [sp, #4]
 2100 0b5c 10309DD5 		ldrle	r3, [sp, #16]
 2101              	.LVL235:
 2102 0b60 043093C5 		ldrgt	r3, [r3, #4]
 2103              	.LBE575:
 2104              	.LBE638:
  47:C:/Renesas/e2studio_2021_01_workspace_RZA2M_ANPR/ANPR_RZA2M_EBK/src/tensorflow_lite/tensorflow/lite/kernels/internal/reference\binary_function.h ****       for (int x = 0; x < output_shape.Dims(2); ++x) {
 2105              		.loc 4 47 0
 2106 0b64 0A0053E1 		cmp	r3, r10
 2107 0b68 430100DA 		ble	.L96
 2108              	.LVL236:
 2109              	.LBB639:
 2110              	.LBB628:
 2111              	.LBB625:
 215:C:/Renesas/e2studio_2021_01_workspace_RZA2M_ANPR/ANPR_RZA2M_EBK/src/tensorflow_lite/tensorflow/lite/kernels/internal\types.h ****     return size_ > kMaxSmallSize ? dims_pointer_[i] : dims_[i];
 2112              		.loc 5 215 0
 2113 0b6c 08309DE5 		ldr	r3, [sp, #8]
 2114 0b70 020053E3 		cmp	r3, #2
 2115 0b74 7D01000A 		beq	.L382
 2116 0b78 64309DE5 		ldr	r3, [sp, #100]
 2117 0b7c 0060A0E3 		mov	r6, #0
 2118 0b80 48308DE5 		str	r3, [sp, #72]
 2119 0b84 60309DE5 		ldr	r3, [sp, #96]
 2120 0b88 44308DE5 		str	r3, [sp, #68]
 2121 0b8c 5C309DE5 		ldr	r3, [sp, #92]
 2122 0b90 40308DE5 		str	r3, [sp, #64]
 2123              	.LVL237:
 2124              	.L97:
 216:C:/Renesas/e2studio_2021_01_workspace_RZA2M_ANPR/ANPR_RZA2M_EBK/src/tensorflow_lite/tensorflow/lite/kernels/internal\types.h ****   }
 2125              		.loc 5 216 0
 2126 0b94 08309DE5 		ldr	r3, [sp, #8]
 2127 0b98 050053E3 		cmp	r3, #5
 2128 0b9c 04309DC5 		ldrgt	r3, [sp, #4]
 2129 0ba0 0C309DD5 		ldrle	r3, [sp, #12]
 2130              	.LVL238:
 2131 0ba4 083093C5 		ldrgt	r3, [r3, #8]
 2132              	.LBE625:
 2133              	.LBE628:
  48:C:/Renesas/e2studio_2021_01_workspace_RZA2M_ANPR/ANPR_RZA2M_EBK/src/tensorflow_lite/tensorflow/lite/kernels/internal/reference\binary_function.h ****         for (int c = 0; c < output_shape.Dims(3); ++c) {
 2134              		.loc 4 48 0
 2135 0ba8 060053E1 		cmp	r3, r6
 2136 0bac 100100DA 		ble	.L99
 2137              	.LVL239:
 2138              	.LBB629:
 2139              	.LBB615:
 2140              	.LBB610:
 215:C:/Renesas/e2studio_2021_01_workspace_RZA2M_ANPR/ANPR_RZA2M_EBK/src/tensorflow_lite/tensorflow/lite/kernels/internal\types.h ****     return size_ > kMaxSmallSize ? dims_pointer_[i] : dims_[i];
 2141              		.loc 5 215 0
 2142 0bb0 08309DE5 		ldr	r3, [sp, #8]
 2143 0bb4 030053E3 		cmp	r3, #3
 2144 0bb8 2201000A 		beq	.L383
 216:C:/Renesas/e2studio_2021_01_workspace_RZA2M_ANPR/ANPR_RZA2M_EBK/src/tensorflow_lite/tensorflow/lite/kernels/internal\types.h ****   }
 2145              		.loc 5 216 0
 2146 0bbc 050053E3 		cmp	r3, #5
 215:C:/Renesas/e2studio_2021_01_workspace_RZA2M_ANPR/ANPR_RZA2M_EBK/src/tensorflow_lite/tensorflow/lite/kernels/internal\types.h ****     return size_ > kMaxSmallSize ? dims_pointer_[i] : dims_[i];
 2147              		.loc 5 215 0
 2148 0bc0 40508DE2 		add	r5, sp, #64
 2149 0bc4 A00195E8 		ldm	r5, {r5, r7, r8}
 2150 0bc8 0040A0E3 		mov	r4, #0
 2151              	.LVL240:
 216:C:/Renesas/e2studio_2021_01_workspace_RZA2M_ANPR/ANPR_RZA2M_EBK/src/tensorflow_lite/tensorflow/lite/kernels/internal\types.h ****   }
 2152              		.loc 5 216 0
 2153 0bcc 350000DA 		ble	.L198
 2154 0bd0 450000EA 		b	.L384
 2155              	.LVL241:
 2156              	.L398:
 2157              	.LBE610:
 2158              	.LBE615:
 2159              	.LBB616:
 2160              	.LBB592:
 2161              	.LBB593:
 404:C:/Renesas/e2studio_2021_01_workspace_RZA2M_ANPR/ANPR_RZA2M_EBK/src/tensorflow_lite/tensorflow/lite/kernels/internal\types.h ****   const int* dims_data = reinterpret_cast<const int*>(shape.DimsDataUpTo5D());
 2162              		.loc 5 404 0
 2163 0bd4 08309DE5 		ldr	r3, [sp, #8]
 2164 0bd8 040053E3 		cmp	r3, #4
 2165 0bdc 1601001A 		bne	.L385
 406:C:/Renesas/e2studio_2021_01_workspace_RZA2M_ANPR/ANPR_RZA2M_EBK/src/tensorflow_lite/tensorflow/lite/kernels/internal\types.h ****   TFLITE_DCHECK(i1 >= 0 && i1 < dims_data[1]);
 2166              		.loc 5 406 0
 2167 0be0 04309DE5 		ldr	r3, [sp, #4]
 2168 0be4 090053E1 		cmp	r3, r9
 2169 0be8 000100DA 		ble	.L386
 407:C:/Renesas/e2studio_2021_01_workspace_RZA2M_ANPR/ANPR_RZA2M_EBK/src/tensorflow_lite/tensorflow/lite/kernels/internal\types.h ****   TFLITE_DCHECK(i2 >= 0 && i2 < dims_data[2]);
 2170              		.loc 5 407 0
 2171 0bec 10309DE5 		ldr	r3, [sp, #16]
 2172 0bf0 0A0053E1 		cmp	r3, r10
 2173 0bf4 FC0000DA 		ble	.L387
 408:C:/Renesas/e2studio_2021_01_workspace_RZA2M_ANPR/ANPR_RZA2M_EBK/src/tensorflow_lite/tensorflow/lite/kernels/internal\types.h ****   TFLITE_DCHECK(i3 >= 0 && i3 < dims_data[3]);
 2174              		.loc 5 408 0
 2175 0bf8 0C309DE5 		ldr	r3, [sp, #12]
 2176 0bfc 060053E1 		cmp	r3, r6
 2177 0c00 F80000DA 		ble	.L388
 409:C:/Renesas/e2studio_2021_01_workspace_RZA2M_ANPR/ANPR_RZA2M_EBK/src/tensorflow_lite/tensorflow/lite/kernels/internal\types.h ****   return ((i0 * dims_data[1] + i1) * dims_data[2] + i2) * dims_data[3] + i3;
 2178              		.loc 5 409 0
 2179 0c04 04005BE1 		cmp	fp, r4
 2180 0c08 F50000DA 		ble	.L389
 2181              	.LVL242:
 2182              	.LBE593:
 2183              	.LBE592:
 2184              	.LBB596:
 2185              	.LBB588:
 729:C:/Renesas/e2studio_2021_01_workspace_RZA2M_ANPR/ANPR_RZA2M_EBK/src/tensorflow_lite/tensorflow/lite/kernels/internal\common.h ****   TFLITE_DCHECK(i1 >= 0 && i1 < desc.extents[1]);
 2186              		.loc 7 729 0
 2187 0c0c 14309DE5 		ldr	r3, [sp, #20]
 2188 0c10 090053E1 		cmp	r3, r9
 2189 0c14 F10000DA 		ble	.L390
 730:C:/Renesas/e2studio_2021_01_workspace_RZA2M_ANPR/ANPR_RZA2M_EBK/src/tensorflow_lite/tensorflow/lite/kernels/internal\common.h ****   TFLITE_DCHECK(i2 >= 0 && i2 < desc.extents[2]);
 2190              		.loc 7 730 0
 2191 0c18 18309DE5 		ldr	r3, [sp, #24]
 2192 0c1c 0A0053E1 		cmp	r3, r10
 2193 0c20 ED0000DA 		ble	.L391
 731:C:/Renesas/e2studio_2021_01_workspace_RZA2M_ANPR/ANPR_RZA2M_EBK/src/tensorflow_lite/tensorflow/lite/kernels/internal\common.h ****   TFLITE_DCHECK(i3 >= 0 && i3 < desc.extents[3]);
 2194              		.loc 7 731 0
 2195 0c24 1C309DE5 		ldr	r3, [sp, #28]
 2196 0c28 060053E1 		cmp	r3, r6
 2197 0c2c E90000DA 		ble	.L392
 732:C:/Renesas/e2studio_2021_01_workspace_RZA2M_ANPR/ANPR_RZA2M_EBK/src/tensorflow_lite/tensorflow/lite/kernels/internal\common.h ****   return i0 * desc.strides[0] + i1 * desc.strides[1] + i2 * desc.strides[2] +
 2198              		.loc 7 732 0
 2199 0c30 20309DE5 		ldr	r3, [sp, #32]
 2200 0c34 040053E1 		cmp	r3, r4
 2201 0c38 E40000DA 		ble	.L393
 2202              	.LVL243:
 2203              	.LBE588:
 2204              	.LBE596:
 2205              	.LBB597:
 2206              	.LBB583:
 729:C:/Renesas/e2studio_2021_01_workspace_RZA2M_ANPR/ANPR_RZA2M_EBK/src/tensorflow_lite/tensorflow/lite/kernels/internal\common.h ****   TFLITE_DCHECK(i1 >= 0 && i1 < desc.extents[1]);
 2207              		.loc 7 729 0
 2208 0c3c 24309DE5 		ldr	r3, [sp, #36]
 2209 0c40 090053E1 		cmp	r3, r9
 2210 0c44 E00000DA 		ble	.L394
 730:C:/Renesas/e2studio_2021_01_workspace_RZA2M_ANPR/ANPR_RZA2M_EBK/src/tensorflow_lite/tensorflow/lite/kernels/internal\common.h ****   TFLITE_DCHECK(i2 >= 0 && i2 < desc.extents[2]);
 2211              		.loc 7 730 0
 2212 0c48 28309DE5 		ldr	r3, [sp, #40]
 2213 0c4c 0A0053E1 		cmp	r3, r10
 2214 0c50 DC0000DA 		ble	.L395
 731:C:/Renesas/e2studio_2021_01_workspace_RZA2M_ANPR/ANPR_RZA2M_EBK/src/tensorflow_lite/tensorflow/lite/kernels/internal\common.h ****   TFLITE_DCHECK(i3 >= 0 && i3 < desc.extents[3]);
 2215              		.loc 7 731 0
 2216 0c54 2C309DE5 		ldr	r3, [sp, #44]
 2217 0c58 060053E1 		cmp	r3, r6
 2218 0c5c D80000DA 		ble	.L396
 732:C:/Renesas/e2studio_2021_01_workspace_RZA2M_ANPR/ANPR_RZA2M_EBK/src/tensorflow_lite/tensorflow/lite/kernels/internal\common.h ****   return i0 * desc.strides[0] + i1 * desc.strides[1] + i2 * desc.strides[2] +
 2219              		.loc 7 732 0
 2220 0c60 30309DE5 		ldr	r3, [sp, #48]
 2221 0c64 040053E1 		cmp	r3, r4
 2222 0c68 D90000DA 		ble	.L397
 2223              	.LVL244:
 2224              	.LBE583:
 2225              	.LBE597:
 2226              	.LBB598:
 2227              	.LBB599:
  28:C:/Renesas/e2studio_2021_01_workspace_RZA2M_ANPR/ANPR_RZA2M_EBK/src/tensorflow_lite/tensorflow/lite/kernels/internal/reference\floor_div.h ****                                            static_cast<double>(input2)));
 2228              		.loc 6 28 0
 2229 0c6c 007AD7ED 		vldr.32	s15, [r7]
 2230              	.LBE599:
 2231              	.LBE598:
 2232              	.LBE616:
  49:C:/Renesas/e2studio_2021_01_workspace_RZA2M_ANPR/ANPR_RZA2M_EBK/src/tensorflow_lite/tensorflow/lite/kernels/internal/reference\binary_function.h ****           auto out_idx = Offset(output_shape, b, y, x, c);
 2233              		.loc 4 49 0
 2234 0c70 014084E2 		add	r4, r4, #1
 2235              	.LVL245:
 2236              	.LBB617:
 2237              	.LBB601:
 2238              	.LBB600:
  28:C:/Renesas/e2studio_2021_01_workspace_RZA2M_ANPR/ANPR_RZA2M_EBK/src/tensorflow_lite/tensorflow/lite/kernels/internal/reference\floor_div.h ****                                            static_cast<double>(input2)));
 2239              		.loc 6 28 0
 2240 0c74 000A95ED 		vldr.32	s0, [r5]
 2241 0c78 38309DE5 		ldr	r3, [sp, #56]
 2242 0c7c E70AF7EE 		vcvt.f64.f32	d16, s15
 2243 0c80 037087E0 		add	r7, r7, r3
 2244 0c84 3C309DE5 		ldr	r3, [sp, #60]
 2245 0c88 C00AB7EE 		vcvt.f64.f32	d0, s0
 2246 0c8c 05F0D3F7 		pld	[r3, r5]
 2247              	.LVL246:
 2248 0c90 34309DE5 		ldr	r3, [sp, #52]
 2249 0c94 200B80EE 		vdiv.f64	d0, d0, d16
 2250 0c98 035085E0 		add	r5, r5, r3
 2251              	.LVL247:
 2252 0c9c FEFFFFEB 		bl	floor
 2253              	.LVL248:
 2254              		.loc 6 29 0
 2255 0ca0 C00BB7EE 		vcvt.f32.f64	s0, d0
 2256 0ca4 010AA8EC 		vstmia.32	r8!, {s0}
 2257              	.LVL249:
 2258              	.L198:
 2259              	.LBE600:
 2260              	.LBE601:
 2261              	.LBE617:
 2262              	.LBB618:
 2263              	.LBB611:
 216:C:/Renesas/e2studio_2021_01_workspace_RZA2M_ANPR/ANPR_RZA2M_EBK/src/tensorflow_lite/tensorflow/lite/kernels/internal\types.h ****   }
 2264              		.loc 5 216 0
 2265 0ca8 0BC0A0E1 		mov	ip, fp
 2266              	.L101:
 2267              	.LVL250:
 2268              	.LBE611:
 2269              	.LBE618:
  49:C:/Renesas/e2studio_2021_01_workspace_RZA2M_ANPR/ANPR_RZA2M_EBK/src/tensorflow_lite/tensorflow/lite/kernels/internal/reference\binary_function.h ****           auto out_idx = Offset(output_shape, b, y, x, c);
 2270              		.loc 4 49 0
 2271 0cac 04005CE1 		cmp	ip, r4
 2272 0cb0 C7FFFFCA 		bgt	.L398
 2273 0cb4 40309DE5 		ldr	r3, [sp, #64]
 2274              	.LBE629:
  48:C:/Renesas/e2studio_2021_01_workspace_RZA2M_ANPR/ANPR_RZA2M_EBK/src/tensorflow_lite/tensorflow/lite/kernels/internal/reference\binary_function.h ****         for (int c = 0; c < output_shape.Dims(3); ++c) {
 2275              		.loc 4 48 0
 2276 0cb8 016086E2 		add	r6, r6, #1
 2277              	.LVL251:
 2278 0cbc 50209DE5 		ldr	r2, [sp, #80]
 2279 0cc0 023083E0 		add	r3, r3, r2
 2280 0cc4 54209DE5 		ldr	r2, [sp, #84]
 2281 0cc8 40308DE5 		str	r3, [sp, #64]
 2282 0ccc 44309DE5 		ldr	r3, [sp, #68]
 2283 0cd0 023083E0 		add	r3, r3, r2
 2284 0cd4 58209DE5 		ldr	r2, [sp, #88]
 2285 0cd8 44308DE5 		str	r3, [sp, #68]
 2286 0cdc 48309DE5 		ldr	r3, [sp, #72]
 2287 0ce0 023083E0 		add	r3, r3, r2
 2288 0ce4 48308DE5 		str	r3, [sp, #72]
 2289 0ce8 A9FFFFEA 		b	.L97
 2290              	.LVL252:
 2291              	.L384:
 2292              	.LBB630:
 2293              	.LBB619:
 2294              	.LBB612:
 216:C:/Renesas/e2studio_2021_01_workspace_RZA2M_ANPR/ANPR_RZA2M_EBK/src/tensorflow_lite/tensorflow/lite/kernels/internal\types.h ****   }
 2295              		.loc 5 216 0
 2296 0cec 04309DE5 		ldr	r3, [sp, #4]
 2297 0cf0 0CC093E5 		ldr	ip, [r3, #12]
 2298 0cf4 ECFFFFEA 		b	.L101
 2299              	.LVL253:
 2300              	.L136:
 2301 0cf8 041041E2 		sub	r1, r1, #4
 2302 0cfc 040044E2 		sub	r0, r4, #4
 2303              	.LBE612:
 2304              	.LBE619:
 2305              	.LBE630:
 2306              	.LBE639:
 2307              	.LBE648:
 2308              	.LBE564:
 2309              	.LBE671:
 2310              	.LBE797:
 2311              	.LBB798:
 2312              	.LBB782:
 2313              	.LBB775:
 2314              	.LBB762:
 2315              	.LBB756:
 2316              	.LBB750:
 2317              	.LBB745:
 2318              	.LBB728:
 2319              	.LBB725:
 2320 0d00 0030A0E3 		mov	r3, #0
 2321 0d04 050000EA 		b	.L141
 2322              	.LVL254:
 2323              	.L139:
 2324              	.LBE725:
 2325              	.LBE728:
 524:C:/Renesas/e2studio_2021_01_workspace_RZA2M_ANPR/ANPR_RZA2M_EBK/src/tensorflow_lite/tensorflow/lite/kernels/internal\types.h ****   }
 2326              		.loc 5 524 0
 2327 0d08 0420B1E5 		ldr	r2, [r1, #4]!
 2328 0d0c 02005CE1 		cmp	ip, r2
 2329 0d10 0401001A 		bne	.L137
 523:C:/Renesas/e2studio_2021_01_workspace_RZA2M_ANPR/ANPR_RZA2M_EBK/src/tensorflow_lite/tensorflow/lite/kernels/internal\types.h ****     TFLITE_DCHECK_EQ(shape.Dims(i), check_shape_0.Dims(i));
 2330              		.loc 5 523 0
 2331 0d14 013083E2 		add	r3, r3, #1
 2332              	.LVL255:
 2333 0d18 03005BE1 		cmp	fp, r3
 2334 0d1c 55FDFF0A 		beq	.L138
 2335              	.LVL256:
 2336              	.L141:
 2337              	.LBB729:
 2338              	.LBB726:
 215:C:/Renesas/e2studio_2021_01_workspace_RZA2M_ANPR/ANPR_RZA2M_EBK/src/tensorflow_lite/tensorflow/lite/kernels/internal\types.h ****     return size_ > kMaxSmallSize ? dims_pointer_[i] : dims_[i];
 2339              		.loc 5 215 0
 2340 0d20 0B0053E1 		cmp	r3, fp
 2341              	.LBE726:
 2342              	.LBE729:
 2343              	.LBB730:
 2344              	.LBB731:
 216:C:/Renesas/e2studio_2021_01_workspace_RZA2M_ANPR/ANPR_RZA2M_EBK/src/tensorflow_lite/tensorflow/lite/kernels/internal\types.h ****   }
 2345              		.loc 5 216 0
 2346 0d24 04C0B0E5 		ldr	ip, [r0, #4]!
 2347              	.LVL257:
 2348              	.LBE731:
 2349              	.LBE730:
 2350              	.LBB732:
 2351              	.LBB727:
 215:C:/Renesas/e2studio_2021_01_workspace_RZA2M_ANPR/ANPR_RZA2M_EBK/src/tensorflow_lite/tensorflow/lite/kernels/internal\types.h ****     return size_ > kMaxSmallSize ? dims_pointer_[i] : dims_[i];
 2352              		.loc 5 215 0
 2353 0d28 F6FFFF1A 		bne	.L139
 2354 0d2c FEFFFFEB 		bl	abort
 2355              	.LVL258:
 2356              	.LEHE10:
 2357              	.L377:
 2358 0d30 000053E3 		cmp	r3, #0
 2359              	.LBE727:
 2360              	.LBE732:
 2361              	.LBE745:
 2362              	.LBB746:
 2363              	.LBB742:
 2364              	.LBB739:
 292:C:/Renesas/e2studio_2021_01_workspace_RZA2M_ANPR/ANPR_RZA2M_EBK/src/tensorflow_lite/tensorflow/lite/kernels/internal\types.h ****       buffer_size *= dims_data[i];
 2365              		.loc 5 292 0
 2366 0d34 0180A003 		moveq	r8, #1
 2367              	.LVL259:
 2368 0d38 0310A001 		moveq	r1, r3
 2369 0d3c 79FDFF0A 		beq	.L149
 2370 0d40 58FDFFEA 		b	.L148
 2371              	.LVL260:
 2372              	.L379:
 2373              	.LBE739:
 2374              	.LBE742:
 2375              	.LBE746:
 2376              	.LBE750:
 2377              	.LBE756:
 2378              	.LBE762:
 2379              	.LBE775:
 2380              	.LBE782:
 2381              	.LBE798:
 2382              	.LBB799:
 2383              	.LBB672:
 2384              	.LBB653:
 2385              	.LBB554:
 2386              	.LBB540:
 2387              	.LBB527:
 2388              	.LBB513:
 2389              	.LBB485:
 216:C:/Renesas/e2studio_2021_01_workspace_RZA2M_ANPR/ANPR_RZA2M_EBK/src/tensorflow_lite/tensorflow/lite/kernels/internal\types.h ****   }
 2390              		.loc 5 216 0
 2391 0d44 00E093E5 		ldr	lr, [r3]
 2392              	.LVL261:
 2393              	.LBE485:
 2394              	.LBE513:
 839:C:/Renesas/e2studio_2021_01_workspace_RZA2M_ANPR/ANPR_RZA2M_EBK/src/tensorflow_lite/tensorflow/lite/kernels/internal\common.h ****       if (extent0 == 1) {
 2395              		.loc 7 839 0
 2396 0d48 00005EE1 		cmp	lr, r0
 2397 0d4c 0900000A 		beq	.L58
 840:C:/Renesas/e2studio_2021_01_workspace_RZA2M_ANPR/ANPR_RZA2M_EBK/src/tensorflow_lite/tensorflow/lite/kernels/internal\common.h ****         desc0_out->strides[i] = 0;
 2398              		.loc 7 840 0
 2399 0d50 01005EE3 		cmp	lr, #1
 841:C:/Renesas/e2studio_2021_01_workspace_RZA2M_ANPR/ANPR_RZA2M_EBK/src/tensorflow_lite/tensorflow/lite/kernels/internal\common.h ****         desc0_out->extents[i] = extent1;
 2400              		.loc 7 841 0
 2401 0d54 00E0A003 		moveq	lr, #0
 842:C:/Renesas/e2studio_2021_01_workspace_RZA2M_ANPR/ANPR_RZA2M_EBK/src/tensorflow_lite/tensorflow/lite/kernels/internal\common.h ****       } else {
 2402              		.loc 7 842 0
 2403 0d58 18018D05 		streq	r0, [sp, #280]
 841:C:/Renesas/e2studio_2021_01_workspace_RZA2M_ANPR/ANPR_RZA2M_EBK/src/tensorflow_lite/tensorflow/lite/kernels/internal\common.h ****         desc0_out->extents[i] = extent1;
 2404              		.loc 7 841 0
 2405 0d5c 28E18D05 		streq	lr, [sp, #296]
 840:C:/Renesas/e2studio_2021_01_workspace_RZA2M_ANPR/ANPR_RZA2M_EBK/src/tensorflow_lite/tensorflow/lite/kernels/internal\common.h ****         desc0_out->strides[i] = 0;
 2406              		.loc 7 840 0
 2407 0d60 0400000A 		beq	.L58
 844:C:/Renesas/e2studio_2021_01_workspace_RZA2M_ANPR/ANPR_RZA2M_EBK/src/tensorflow_lite/tensorflow/lite/kernels/internal\common.h ****         desc1_out->strides[i] = 0;
 2408              		.loc 7 844 0
 2409 0d64 010050E3 		cmp	r0, #1
 2410 0d68 0301001A 		bne	.L50
 845:C:/Renesas/e2studio_2021_01_workspace_RZA2M_ANPR/ANPR_RZA2M_EBK/src/tensorflow_lite/tensorflow/lite/kernels/internal\common.h ****         desc1_out->extents[i] = extent0;
 2411              		.loc 7 845 0
 2412 0d6c 0000A0E3 		mov	r0, #0
 2413              	.LVL262:
 2414              		.loc 7 846 0
 2415 0d70 38E18DE5 		str	lr, [sp, #312]
 2416              	.LVL263:
 845:C:/Renesas/e2studio_2021_01_workspace_RZA2M_ANPR/ANPR_RZA2M_EBK/src/tensorflow_lite/tensorflow/lite/kernels/internal\common.h ****         desc1_out->extents[i] = extent0;
 2417              		.loc 7 845 0
 2418 0d74 48018DE5 		str	r0, [sp, #328]
 2419              	.L58:
 2420              	.LVL264:
 2421              	.LBB514:
 2422              	.LBB486:
 216:C:/Renesas/e2studio_2021_01_workspace_RZA2M_ANPR/ANPR_RZA2M_EBK/src/tensorflow_lite/tensorflow/lite/kernels/internal\types.h ****   }
 2423              		.loc 5 216 0
 2424 0d78 040093E5 		ldr	r0, [r3, #4]
 2425              	.LVL265:
 2426              	.LBE486:
 2427              	.LBE514:
 839:C:/Renesas/e2studio_2021_01_workspace_RZA2M_ANPR/ANPR_RZA2M_EBK/src/tensorflow_lite/tensorflow/lite/kernels/internal\common.h ****       if (extent0 == 1) {
 2428              		.loc 7 839 0
 2429 0d7c 0C0050E1 		cmp	r0, ip
 2430 0d80 0900000A 		beq	.L60
 840:C:/Renesas/e2studio_2021_01_workspace_RZA2M_ANPR/ANPR_RZA2M_EBK/src/tensorflow_lite/tensorflow/lite/kernels/internal\common.h ****         desc0_out->strides[i] = 0;
 2431              		.loc 7 840 0
 2432 0d84 010050E3 		cmp	r0, #1
 841:C:/Renesas/e2studio_2021_01_workspace_RZA2M_ANPR/ANPR_RZA2M_EBK/src/tensorflow_lite/tensorflow/lite/kernels/internal\common.h ****         desc0_out->extents[i] = extent1;
 2433              		.loc 7 841 0
 2434 0d88 0000A003 		moveq	r0, #0
 842:C:/Renesas/e2studio_2021_01_workspace_RZA2M_ANPR/ANPR_RZA2M_EBK/src/tensorflow_lite/tensorflow/lite/kernels/internal\common.h ****       } else {
 2435              		.loc 7 842 0
 2436 0d8c 1CC18D05 		streq	ip, [sp, #284]
 841:C:/Renesas/e2studio_2021_01_workspace_RZA2M_ANPR/ANPR_RZA2M_EBK/src/tensorflow_lite/tensorflow/lite/kernels/internal\common.h ****         desc0_out->extents[i] = extent1;
 2437              		.loc 7 841 0
 2438 0d90 2C018D05 		streq	r0, [sp, #300]
 840:C:/Renesas/e2studio_2021_01_workspace_RZA2M_ANPR/ANPR_RZA2M_EBK/src/tensorflow_lite/tensorflow/lite/kernels/internal\common.h ****         desc0_out->strides[i] = 0;
 2439              		.loc 7 840 0
 2440 0d94 0400000A 		beq	.L60
 844:C:/Renesas/e2studio_2021_01_workspace_RZA2M_ANPR/ANPR_RZA2M_EBK/src/tensorflow_lite/tensorflow/lite/kernels/internal\common.h ****         desc1_out->strides[i] = 0;
 2441              		.loc 7 844 0
 2442 0d98 01005CE3 		cmp	ip, #1
 2443 0d9c F600001A 		bne	.L50
 845:C:/Renesas/e2studio_2021_01_workspace_RZA2M_ANPR/ANPR_RZA2M_EBK/src/tensorflow_lite/tensorflow/lite/kernels/internal\common.h ****         desc1_out->extents[i] = extent0;
 2444              		.loc 7 845 0
 2445 0da0 00C0A0E3 		mov	ip, #0
 2446              		.loc 7 846 0
 2447 0da4 3C018DE5 		str	r0, [sp, #316]
 845:C:/Renesas/e2studio_2021_01_workspace_RZA2M_ANPR/ANPR_RZA2M_EBK/src/tensorflow_lite/tensorflow/lite/kernels/internal\common.h ****         desc1_out->extents[i] = extent0;
 2448              		.loc 7 845 0
 2449 0da8 4CC18DE5 		str	ip, [sp, #332]
 2450              	.L60:
 2451              	.LVL266:
 2452              	.LBB515:
 2453              	.LBB487:
 216:C:/Renesas/e2studio_2021_01_workspace_RZA2M_ANPR/ANPR_RZA2M_EBK/src/tensorflow_lite/tensorflow/lite/kernels/internal\types.h ****   }
 2454              		.loc 5 216 0
 2455 0dac 080093E5 		ldr	r0, [r3, #8]
 2456              	.LVL267:
 2457              	.LBE487:
 2458              	.LBE515:
 839:C:/Renesas/e2studio_2021_01_workspace_RZA2M_ANPR/ANPR_RZA2M_EBK/src/tensorflow_lite/tensorflow/lite/kernels/internal\common.h ****       if (extent0 == 1) {
 2459              		.loc 7 839 0
 2460 0db0 010050E1 		cmp	r0, r1
 2461 0db4 0900000A 		beq	.L62
 840:C:/Renesas/e2studio_2021_01_workspace_RZA2M_ANPR/ANPR_RZA2M_EBK/src/tensorflow_lite/tensorflow/lite/kernels/internal\common.h ****         desc0_out->strides[i] = 0;
 2462              		.loc 7 840 0
 2463 0db8 010050E3 		cmp	r0, #1
 841:C:/Renesas/e2studio_2021_01_workspace_RZA2M_ANPR/ANPR_RZA2M_EBK/src/tensorflow_lite/tensorflow/lite/kernels/internal\common.h ****         desc0_out->extents[i] = extent1;
 2464              		.loc 7 841 0
 2465 0dbc 0000A003 		moveq	r0, #0
 842:C:/Renesas/e2studio_2021_01_workspace_RZA2M_ANPR/ANPR_RZA2M_EBK/src/tensorflow_lite/tensorflow/lite/kernels/internal\common.h ****       } else {
 2466              		.loc 7 842 0
 2467 0dc0 20118D05 		streq	r1, [sp, #288]
 841:C:/Renesas/e2studio_2021_01_workspace_RZA2M_ANPR/ANPR_RZA2M_EBK/src/tensorflow_lite/tensorflow/lite/kernels/internal\common.h ****         desc0_out->extents[i] = extent1;
 2468              		.loc 7 841 0
 2469 0dc4 30018D05 		streq	r0, [sp, #304]
 840:C:/Renesas/e2studio_2021_01_workspace_RZA2M_ANPR/ANPR_RZA2M_EBK/src/tensorflow_lite/tensorflow/lite/kernels/internal\common.h ****         desc0_out->strides[i] = 0;
 2470              		.loc 7 840 0
 2471 0dc8 0400000A 		beq	.L62
 844:C:/Renesas/e2studio_2021_01_workspace_RZA2M_ANPR/ANPR_RZA2M_EBK/src/tensorflow_lite/tensorflow/lite/kernels/internal\common.h ****         desc1_out->strides[i] = 0;
 2472              		.loc 7 844 0
 2473 0dcc 010051E3 		cmp	r1, #1
 2474 0dd0 E900001A 		bne	.L50
 845:C:/Renesas/e2studio_2021_01_workspace_RZA2M_ANPR/ANPR_RZA2M_EBK/src/tensorflow_lite/tensorflow/lite/kernels/internal\common.h ****         desc1_out->extents[i] = extent0;
 2475              		.loc 7 845 0
 2476 0dd4 0010A0E3 		mov	r1, #0
 2477              		.loc 7 846 0
 2478 0dd8 40018DE5 		str	r0, [sp, #320]
 845:C:/Renesas/e2studio_2021_01_workspace_RZA2M_ANPR/ANPR_RZA2M_EBK/src/tensorflow_lite/tensorflow/lite/kernels/internal\common.h ****         desc1_out->extents[i] = extent0;
 2479              		.loc 7 845 0
 2480 0ddc 50118DE5 		str	r1, [sp, #336]
 2481              	.L62:
 2482              	.LVL268:
 2483              	.LBB516:
 2484              	.LBB488:
 216:C:/Renesas/e2studio_2021_01_workspace_RZA2M_ANPR/ANPR_RZA2M_EBK/src/tensorflow_lite/tensorflow/lite/kernels/internal\types.h ****   }
 2485              		.loc 5 216 0
 2486 0de0 0C3093E5 		ldr	r3, [r3, #12]
 2487              	.LVL269:
 2488              	.LBE488:
 2489              	.LBE516:
 839:C:/Renesas/e2studio_2021_01_workspace_RZA2M_ANPR/ANPR_RZA2M_EBK/src/tensorflow_lite/tensorflow/lite/kernels/internal\common.h ****       if (extent0 == 1) {
 2490              		.loc 7 839 0
 2491 0de4 030052E1 		cmp	r2, r3
 2492 0de8 7AFEFF1A 		bne	.L363
 2493 0dec FCFEFFEA 		b	.L177
 2494              	.LVL270:
 2495              	.L213:
 2496              	.L120:
 2497              	.LBE527:
 2498              	.LBE540:
 2499              	.LBE554:
 2500              	.LBE653:
 2501              	.LBE672:
 2502              	.LBE799:
 2503              	.LBB800:
 2504              	.LBB801:
 203:C:/Renesas/e2studio_2021_01_workspace_RZA2M_ANPR/ANPR_RZA2M_EBK/src/tensorflow_lite/tensorflow/lite/kernels/internal\types.h **** #ifdef TF_LITE_STATIC_MEMORY
 2505              		.loc 5 203 0 discriminator 7
 2506 0df0 B8309DE5 		ldr	r3, [sp, #184]
 2507 0df4 050053E3 		cmp	r3, #5
 2508 0df8 030000DA 		ble	.L165
 207:C:/Renesas/e2studio_2021_01_workspace_RZA2M_ANPR/ANPR_RZA2M_EBK/src/tensorflow_lite/tensorflow/lite/kernels/internal\types.h **** #endif  // TF_LITE_STATIC_MEMORY
 2509              		.loc 5 207 0
 2510 0dfc BC009DE5 		ldr	r0, [sp, #188]
 2511 0e00 000050E3 		cmp	r0, #0
 2512 0e04 0000000A 		beq	.L165
 2513 0e08 FEFFFFEB 		bl	_ZdaPv
 2514              	.LVL271:
 2515              	.L165:
 2516              	.LBE801:
 2517              	.LBE800:
 2518              	.LBB802:
 2519              	.LBB803:
 203:C:/Renesas/e2studio_2021_01_workspace_RZA2M_ANPR/ANPR_RZA2M_EBK/src/tensorflow_lite/tensorflow/lite/kernels/internal\types.h **** #ifdef TF_LITE_STATIC_MEMORY
 2520              		.loc 5 203 0 discriminator 5
 2521 0e0c A0309DE5 		ldr	r3, [sp, #160]
 2522 0e10 050053E3 		cmp	r3, #5
 2523 0e14 030000DA 		ble	.L167
 207:C:/Renesas/e2studio_2021_01_workspace_RZA2M_ANPR/ANPR_RZA2M_EBK/src/tensorflow_lite/tensorflow/lite/kernels/internal\types.h **** #endif  // TF_LITE_STATIC_MEMORY
 2524              		.loc 5 207 0
 2525 0e18 A4009DE5 		ldr	r0, [sp, #164]
 2526 0e1c 000050E3 		cmp	r0, #0
 2527 0e20 0000000A 		beq	.L167
 2528 0e24 FEFFFFEB 		bl	_ZdaPv
 2529              	.LVL272:
 2530              	.L167:
 2531              	.LBE803:
 2532              	.LBE802:
 2533              	.LBB804:
 2534              	.LBB805:
 203:C:/Renesas/e2studio_2021_01_workspace_RZA2M_ANPR/ANPR_RZA2M_EBK/src/tensorflow_lite/tensorflow/lite/kernels/internal\types.h **** #ifdef TF_LITE_STATIC_MEMORY
 2535              		.loc 5 203 0 discriminator 3
 2536 0e28 88309DE5 		ldr	r3, [sp, #136]
 2537 0e2c 050053E3 		cmp	r3, #5
 2538 0e30 030000DA 		ble	.L174
 207:C:/Renesas/e2studio_2021_01_workspace_RZA2M_ANPR/ANPR_RZA2M_EBK/src/tensorflow_lite/tensorflow/lite/kernels/internal\types.h **** #endif  // TF_LITE_STATIC_MEMORY
 2539              		.loc 5 207 0
 2540 0e34 8C009DE5 		ldr	r0, [sp, #140]
 2541 0e38 000050E3 		cmp	r0, #0
 2542 0e3c 0000000A 		beq	.L174
 2543              	.LVL273:
 2544              	.L362:
 2545              	.LBE805:
 2546              	.LBE804:
 2547              	.LBB806:
 2548              	.LBB807:
 2549 0e40 FEFFFFEB 		bl	_ZdaPv
 2550              	.LVL274:
 2551              	.L174:
 2552              	.LEHB11:
 2553 0e44 FEFFFFEB 		bl	__cxa_end_cleanup
 2554              	.LVL275:
 2555              	.LEHE11:
 2556              	.L218:
 2557              	.L91:
 2558 0e48 D0309DE5 		ldr	r3, [sp, #208]
 2559 0e4c 08308DE5 		str	r3, [sp, #8]
 2560              	.LVL276:
 2561              	.L32:
 2562              	.LBE807:
 2563              	.LBE806:
 2564              	.LBB809:
 2565              	.LBB673:
 2566              	.LBB654:
 2567              	.LBB655:
 203:C:/Renesas/e2studio_2021_01_workspace_RZA2M_ANPR/ANPR_RZA2M_EBK/src/tensorflow_lite/tensorflow/lite/kernels/internal\types.h **** #ifdef TF_LITE_STATIC_MEMORY
 2568              		.loc 5 203 0
 2569 0e50 050053E3 		cmp	r3, #5
 2570 0e54 E5FFFFDA 		ble	.L120
 207:C:/Renesas/e2studio_2021_01_workspace_RZA2M_ANPR/ANPR_RZA2M_EBK/src/tensorflow_lite/tensorflow/lite/kernels/internal\types.h **** #endif  // TF_LITE_STATIC_MEMORY
 2571              		.loc 5 207 0
 2572 0e58 D4009DE5 		ldr	r0, [sp, #212]
 2573 0e5c 000050E3 		cmp	r0, #0
 2574 0e60 E2FFFF0A 		beq	.L120
 2575 0e64 FEFFFFEB 		bl	_ZdaPv
 2576              	.LVL277:
 2577 0e68 E0FFFFEA 		b	.L120
 2578              	.LVL278:
 2579              	.L219:
 2580 0e6c E8409DE5 		ldr	r4, [sp, #232]
 2581              	.LVL279:
 2582              	.L37:
 2583              	.LBE655:
 2584              	.LBE654:
 2585              	.LBB656:
 2586              	.LBB555:
 2587              	.LBB541:
 2588              	.LBB542:
 203:C:/Renesas/e2studio_2021_01_workspace_RZA2M_ANPR/ANPR_RZA2M_EBK/src/tensorflow_lite/tensorflow/lite/kernels/internal\types.h **** #ifdef TF_LITE_STATIC_MEMORY
 2589              		.loc 5 203 0
 2590 0e70 050054E3 		cmp	r4, #5
 2591 0e74 F3FFFFDA 		ble	.L91
 207:C:/Renesas/e2studio_2021_01_workspace_RZA2M_ANPR/ANPR_RZA2M_EBK/src/tensorflow_lite/tensorflow/lite/kernels/internal\types.h **** #endif  // TF_LITE_STATIC_MEMORY
 2592              		.loc 5 207 0
 2593 0e78 EC009DE5 		ldr	r0, [sp, #236]
 2594 0e7c 000050E3 		cmp	r0, #0
 2595 0e80 F0FFFF0A 		beq	.L91
 2596 0e84 FEFFFFEB 		bl	_ZdaPv
 2597              	.LVL280:
 2598 0e88 EEFFFFEA 		b	.L91
 2599              	.LVL281:
 2600              	.L51:
 2601              	.LBE542:
 2602              	.LBE541:
 2603              	.LBB543:
 2604              	.LBB528:
 841:C:/Renesas/e2studio_2021_01_workspace_RZA2M_ANPR/ANPR_RZA2M_EBK/src/tensorflow_lite/tensorflow/lite/kernels/internal\common.h ****         desc0_out->extents[i] = extent1;
 2605              		.loc 7 841 0
 2606 0e8c 0030A0E3 		mov	r3, #0
 842:C:/Renesas/e2studio_2021_01_workspace_RZA2M_ANPR/ANPR_RZA2M_EBK/src/tensorflow_lite/tensorflow/lite/kernels/internal\common.h ****       } else {
 2607              		.loc 7 842 0
 2608 0e90 1CC18DE5 		str	ip, [sp, #284]
 841:C:/Renesas/e2studio_2021_01_workspace_RZA2M_ANPR/ANPR_RZA2M_EBK/src/tensorflow_lite/tensorflow/lite/kernels/internal\common.h ****         desc0_out->extents[i] = extent1;
 2609              		.loc 7 841 0
 2610 0e94 2C318DE5 		str	r3, [sp, #300]
 2611 0e98 3DFEFFEA 		b	.L52
 2612              	.LVL282:
 2613              	.L53:
 2614 0e9c 0030A0E3 		mov	r3, #0
 842:C:/Renesas/e2studio_2021_01_workspace_RZA2M_ANPR/ANPR_RZA2M_EBK/src/tensorflow_lite/tensorflow/lite/kernels/internal\common.h ****       } else {
 2615              		.loc 7 842 0
 2616 0ea0 20118DE5 		str	r1, [sp, #288]
 841:C:/Renesas/e2studio_2021_01_workspace_RZA2M_ANPR/ANPR_RZA2M_EBK/src/tensorflow_lite/tensorflow/lite/kernels/internal\common.h ****         desc0_out->extents[i] = extent1;
 2617              		.loc 7 841 0
 2618 0ea4 30318DE5 		str	r3, [sp, #304]
 2619 0ea8 45FEFFEA 		b	.L54
 2620              	.LVL283:
 2621              	.L49:
 2622 0eac 0030A0E3 		mov	r3, #0
 842:C:/Renesas/e2studio_2021_01_workspace_RZA2M_ANPR/ANPR_RZA2M_EBK/src/tensorflow_lite/tensorflow/lite/kernels/internal\common.h ****       } else {
 2623              		.loc 7 842 0
 2624 0eb0 18018DE5 		str	r0, [sp, #280]
 841:C:/Renesas/e2studio_2021_01_workspace_RZA2M_ANPR/ANPR_RZA2M_EBK/src/tensorflow_lite/tensorflow/lite/kernels/internal\common.h ****         desc0_out->extents[i] = extent1;
 2625              		.loc 7 841 0
 2626 0eb4 28318DE5 		str	r3, [sp, #296]
 2627 0eb8 29FEFFEA 		b	.L48
 2628              	.LVL284:
 2629              	.L216:
 2630              	.LBE528:
 2631              	.LBE543:
 2632              	.LBE555:
 2633              	.LBE656:
 2634              	.LBE673:
 2635              	.LBE809:
 2636              	.LBB810:
 2637              	.LBB811:
 203:C:/Renesas/e2studio_2021_01_workspace_RZA2M_ANPR/ANPR_RZA2M_EBK/src/tensorflow_lite/tensorflow/lite/kernels/internal\types.h **** #ifdef TF_LITE_STATIC_MEMORY
 2638              		.loc 5 203 0
 2639 0ebc 38319DE5 		ldr	r3, [sp, #312]
 2640 0ec0 050053E3 		cmp	r3, #5
 2641 0ec4 030000DA 		ble	.L171
 207:C:/Renesas/e2studio_2021_01_workspace_RZA2M_ANPR/ANPR_RZA2M_EBK/src/tensorflow_lite/tensorflow/lite/kernels/internal\types.h **** #endif  // TF_LITE_STATIC_MEMORY
 2642              		.loc 5 207 0
 2643 0ec8 3C019DE5 		ldr	r0, [sp, #316]
 2644 0ecc 000050E3 		cmp	r0, #0
 2645 0ed0 0000000A 		beq	.L171
 2646 0ed4 FEFFFFEB 		bl	_ZdaPv
 2647              	.LVL285:
 2648              	.L171:
 2649              	.LBE811:
 2650              	.LBE810:
 2651              	.LBB812:
 2652              	.LBB813:
 203:C:/Renesas/e2studio_2021_01_workspace_RZA2M_ANPR/ANPR_RZA2M_EBK/src/tensorflow_lite/tensorflow/lite/kernels/internal\types.h **** #ifdef TF_LITE_STATIC_MEMORY
 2653              		.loc 5 203 0 discriminator 5
 2654 0ed8 18319DE5 		ldr	r3, [sp, #280]
 2655 0edc 050053E3 		cmp	r3, #5
 2656 0ee0 030000DA 		ble	.L173
 207:C:/Renesas/e2studio_2021_01_workspace_RZA2M_ANPR/ANPR_RZA2M_EBK/src/tensorflow_lite/tensorflow/lite/kernels/internal\types.h **** #endif  // TF_LITE_STATIC_MEMORY
 2657              		.loc 5 207 0
 2658 0ee4 1C019DE5 		ldr	r0, [sp, #284]
 2659 0ee8 000050E3 		cmp	r0, #0
 2660 0eec 0000000A 		beq	.L173
 2661 0ef0 FEFFFFEB 		bl	_ZdaPv
 2662              	.LVL286:
 2663              	.L173:
 2664              	.LBE813:
 2665              	.LBE812:
 2666              	.LBB814:
 2667              	.LBB808:
 203:C:/Renesas/e2studio_2021_01_workspace_RZA2M_ANPR/ANPR_RZA2M_EBK/src/tensorflow_lite/tensorflow/lite/kernels/internal\types.h **** #ifdef TF_LITE_STATIC_MEMORY
 2668              		.loc 5 203 0 discriminator 3
 2669 0ef4 00319DE5 		ldr	r3, [sp, #256]
 2670 0ef8 050053E3 		cmp	r3, #5
 2671 0efc D0FFFFDA 		ble	.L174
 207:C:/Renesas/e2studio_2021_01_workspace_RZA2M_ANPR/ANPR_RZA2M_EBK/src/tensorflow_lite/tensorflow/lite/kernels/internal\types.h **** #endif  // TF_LITE_STATIC_MEMORY
 2672              		.loc 5 207 0
 2673 0f00 04019DE5 		ldr	r0, [sp, #260]
 2674 0f04 000050E3 		cmp	r0, #0
 2675 0f08 CCFFFF1A 		bne	.L362
 2676 0f0c CCFFFFEA 		b	.L174
 2677              	.LVL287:
 2678              	.L380:
 2679              	.LBE808:
 2680              	.LBE814:
 2681              	.LBB815:
 2682              	.LBB674:
 2683              	.LBB657:
 2684              	.LBB556:
 2685              	.LBB544:
 2686              	.LBB529:
 2687              	.LBB517:
 2688              	.LBB489:
 216:C:/Renesas/e2studio_2021_01_workspace_RZA2M_ANPR/ANPR_RZA2M_EBK/src/tensorflow_lite/tensorflow/lite/kernels/internal\types.h ****   }
 2689              		.loc 5 216 0
 2690 0f10 001093E5 		ldr	r1, [r3]
 2691              	.LVL288:
 2692              	.LBE489:
 2693              	.LBE517:
 2694              	.LBB518:
 2695              	.LBB503:
 2696 0f14 002090E5 		ldr	r2, [r0]
 2697              	.LVL289:
 2698              	.LBE503:
 2699              	.LBE518:
 839:C:/Renesas/e2studio_2021_01_workspace_RZA2M_ANPR/ANPR_RZA2M_EBK/src/tensorflow_lite/tensorflow/lite/kernels/internal\common.h ****       if (extent0 == 1) {
 2700              		.loc 7 839 0
 2701 0f18 020051E1 		cmp	r1, r2
 2702 0f1c 0600000A 		beq	.L75
 840:C:/Renesas/e2studio_2021_01_workspace_RZA2M_ANPR/ANPR_RZA2M_EBK/src/tensorflow_lite/tensorflow/lite/kernels/internal\common.h ****         desc0_out->strides[i] = 0;
 2703              		.loc 7 840 0
 2704 0f20 010051E3 		cmp	r1, #1
 2705 0f24 5000000A 		beq	.L76
 844:C:/Renesas/e2studio_2021_01_workspace_RZA2M_ANPR/ANPR_RZA2M_EBK/src/tensorflow_lite/tensorflow/lite/kernels/internal\common.h ****         desc1_out->strides[i] = 0;
 2706              		.loc 7 844 0
 2707 0f28 010052E3 		cmp	r2, #1
 2708 0f2c 9200001A 		bne	.L50
 845:C:/Renesas/e2studio_2021_01_workspace_RZA2M_ANPR/ANPR_RZA2M_EBK/src/tensorflow_lite/tensorflow/lite/kernels/internal\common.h ****         desc1_out->extents[i] = extent0;
 2709              		.loc 7 845 0
 2710 0f30 0020A0E3 		mov	r2, #0
 2711              		.loc 7 846 0
 2712 0f34 38118DE5 		str	r1, [sp, #312]
 845:C:/Renesas/e2studio_2021_01_workspace_RZA2M_ANPR/ANPR_RZA2M_EBK/src/tensorflow_lite/tensorflow/lite/kernels/internal\common.h ****         desc1_out->extents[i] = extent0;
 2713              		.loc 7 845 0
 2714 0f38 48218DE5 		str	r2, [sp, #328]
 2715              	.LVL290:
 2716              	.L75:
 2717              	.LBB519:
 2718              	.LBB490:
 216:C:/Renesas/e2studio_2021_01_workspace_RZA2M_ANPR/ANPR_RZA2M_EBK/src/tensorflow_lite/tensorflow/lite/kernels/internal\types.h ****   }
 2719              		.loc 5 216 0
 2720 0f3c 041093E5 		ldr	r1, [r3, #4]
 2721              	.LVL291:
 2722              	.LBE490:
 2723              	.LBE519:
 2724              	.LBB520:
 2725              	.LBB504:
 2726 0f40 042090E5 		ldr	r2, [r0, #4]
 2727              	.LVL292:
 2728              	.LBE504:
 2729              	.LBE520:
 839:C:/Renesas/e2studio_2021_01_workspace_RZA2M_ANPR/ANPR_RZA2M_EBK/src/tensorflow_lite/tensorflow/lite/kernels/internal\common.h ****       if (extent0 == 1) {
 2730              		.loc 7 839 0
 2731 0f44 020051E1 		cmp	r1, r2
 2732 0f48 0600000A 		beq	.L77
 840:C:/Renesas/e2studio_2021_01_workspace_RZA2M_ANPR/ANPR_RZA2M_EBK/src/tensorflow_lite/tensorflow/lite/kernels/internal\common.h ****         desc0_out->strides[i] = 0;
 2733              		.loc 7 840 0
 2734 0f4c 010051E3 		cmp	r1, #1
 2735 0f50 3D00000A 		beq	.L78
 844:C:/Renesas/e2studio_2021_01_workspace_RZA2M_ANPR/ANPR_RZA2M_EBK/src/tensorflow_lite/tensorflow/lite/kernels/internal\common.h ****         desc1_out->strides[i] = 0;
 2736              		.loc 7 844 0
 2737 0f54 010052E3 		cmp	r2, #1
 2738 0f58 8700001A 		bne	.L50
 845:C:/Renesas/e2studio_2021_01_workspace_RZA2M_ANPR/ANPR_RZA2M_EBK/src/tensorflow_lite/tensorflow/lite/kernels/internal\common.h ****         desc1_out->extents[i] = extent0;
 2739              		.loc 7 845 0
 2740 0f5c 0020A0E3 		mov	r2, #0
 2741              		.loc 7 846 0
 2742 0f60 3C118DE5 		str	r1, [sp, #316]
 2743              	.LVL293:
 845:C:/Renesas/e2studio_2021_01_workspace_RZA2M_ANPR/ANPR_RZA2M_EBK/src/tensorflow_lite/tensorflow/lite/kernels/internal\common.h ****         desc1_out->extents[i] = extent0;
 2744              		.loc 7 845 0
 2745 0f64 4C218DE5 		str	r2, [sp, #332]
 2746              	.LVL294:
 2747              	.L77:
 2748              	.LBB521:
 2749              	.LBB491:
 216:C:/Renesas/e2studio_2021_01_workspace_RZA2M_ANPR/ANPR_RZA2M_EBK/src/tensorflow_lite/tensorflow/lite/kernels/internal\types.h ****   }
 2750              		.loc 5 216 0
 2751 0f68 081093E5 		ldr	r1, [r3, #8]
 2752              	.LVL295:
 2753              	.LBE491:
 2754              	.LBE521:
 2755              	.LBB522:
 2756              	.LBB505:
 2757 0f6c 082090E5 		ldr	r2, [r0, #8]
 2758              	.LVL296:
 2759              	.LBE505:
 2760              	.LBE522:
 839:C:/Renesas/e2studio_2021_01_workspace_RZA2M_ANPR/ANPR_RZA2M_EBK/src/tensorflow_lite/tensorflow/lite/kernels/internal\common.h ****       if (extent0 == 1) {
 2761              		.loc 7 839 0
 2762 0f70 020051E1 		cmp	r1, r2
 2763 0f74 0600000A 		beq	.L79
 840:C:/Renesas/e2studio_2021_01_workspace_RZA2M_ANPR/ANPR_RZA2M_EBK/src/tensorflow_lite/tensorflow/lite/kernels/internal\common.h ****         desc0_out->strides[i] = 0;
 2764              		.loc 7 840 0
 2765 0f78 010051E3 		cmp	r1, #1
 2766 0f7c 3600000A 		beq	.L80
 844:C:/Renesas/e2studio_2021_01_workspace_RZA2M_ANPR/ANPR_RZA2M_EBK/src/tensorflow_lite/tensorflow/lite/kernels/internal\common.h ****         desc1_out->strides[i] = 0;
 2767              		.loc 7 844 0
 2768 0f80 010052E3 		cmp	r2, #1
 2769 0f84 7C00001A 		bne	.L50
 845:C:/Renesas/e2studio_2021_01_workspace_RZA2M_ANPR/ANPR_RZA2M_EBK/src/tensorflow_lite/tensorflow/lite/kernels/internal\common.h ****         desc1_out->extents[i] = extent0;
 2770              		.loc 7 845 0
 2771 0f88 0020A0E3 		mov	r2, #0
 2772              		.loc 7 846 0
 2773 0f8c 40118DE5 		str	r1, [sp, #320]
 2774              	.LVL297:
 845:C:/Renesas/e2studio_2021_01_workspace_RZA2M_ANPR/ANPR_RZA2M_EBK/src/tensorflow_lite/tensorflow/lite/kernels/internal\common.h ****         desc1_out->extents[i] = extent0;
 2775              		.loc 7 845 0
 2776 0f90 50218DE5 		str	r2, [sp, #336]
 2777              	.L79:
 2778              	.LVL298:
 2779              	.LBB523:
 2780              	.LBB492:
 216:C:/Renesas/e2studio_2021_01_workspace_RZA2M_ANPR/ANPR_RZA2M_EBK/src/tensorflow_lite/tensorflow/lite/kernels/internal\types.h ****   }
 2781              		.loc 5 216 0
 2782 0f94 0C3093E5 		ldr	r3, [r3, #12]
 2783              	.LVL299:
 2784              	.LBE492:
 2785              	.LBE523:
 2786              	.LBB524:
 2787              	.LBB506:
 2788 0f98 0C2090E5 		ldr	r2, [r0, #12]
 2789              	.LVL300:
 2790              	.LBE506:
 2791              	.LBE524:
 839:C:/Renesas/e2studio_2021_01_workspace_RZA2M_ANPR/ANPR_RZA2M_EBK/src/tensorflow_lite/tensorflow/lite/kernels/internal\common.h ****       if (extent0 == 1) {
 2792              		.loc 7 839 0
 2793 0f9c 020053E1 		cmp	r3, r2
 2794 0fa0 82FEFF1A 		bne	.L81
 2795 0fa4 8BFEFFEA 		b	.L74
 2796              	.LVL301:
 2797              	.L65:
 841:C:/Renesas/e2studio_2021_01_workspace_RZA2M_ANPR/ANPR_RZA2M_EBK/src/tensorflow_lite/tensorflow/lite/kernels/internal\common.h ****         desc0_out->extents[i] = extent1;
 2798              		.loc 7 841 0
 2799 0fa8 0030A0E3 		mov	r3, #0
 842:C:/Renesas/e2studio_2021_01_workspace_RZA2M_ANPR/ANPR_RZA2M_EBK/src/tensorflow_lite/tensorflow/lite/kernels/internal\common.h ****       } else {
 2800              		.loc 7 842 0
 2801 0fac 24218DE5 		str	r2, [sp, #292]
 841:C:/Renesas/e2studio_2021_01_workspace_RZA2M_ANPR/ANPR_RZA2M_EBK/src/tensorflow_lite/tensorflow/lite/kernels/internal\common.h ****         desc0_out->extents[i] = extent1;
 2802              		.loc 7 841 0
 2803 0fb0 34318DE5 		str	r3, [sp, #308]
 2804 0fb4 8AFEFFEA 		b	.L177
 2805              	.LVL302:
 2806              	.L200:
 2807              	.LBE529:
 2808              	.LBE544:
 2809              	.LBE556:
 2810              	.LBE657:
 2811              	.LBE674:
 2812              	.LBE815:
 2813              	.LBB816:
 2814              	.LBB783:
 2815              	.LBB776:
 2816              	.LBB763:
 2817              	.LBB757:
 2818              	.LBB751:
 2819              	.LBB747:
 2820              	.LBB743:
 290:C:/Renesas/e2studio_2021_01_workspace_RZA2M_ANPR/ANPR_RZA2M_EBK/src/tensorflow_lite/tensorflow/lite/kernels/internal\types.h ****     const int* dims_data = reinterpret_cast<const int*>(DimsData());
 2821              		.loc 5 290 0
 2822 0fb8 0180A0E3 		mov	r8, #1
 2823              	.LVL303:
 2824              	.LBB740:
 292:C:/Renesas/e2studio_2021_01_workspace_RZA2M_ANPR/ANPR_RZA2M_EBK/src/tensorflow_lite/tensorflow/lite/kernels/internal\types.h ****       buffer_size *= dims_data[i];
 2825              		.loc 5 292 0
 2826 0fbc 0090A0E3 		mov	r9, #0
 2827              	.LVL304:
 2828 0fc0 57FDFFEA 		b	.L144
 2829              	.LVL305:
 2830              	.L396:
 2831              	.LEHB12:
 2832              	.LBE740:
 2833              	.LBE743:
 2834              	.LBE747:
 2835              	.LBE751:
 2836              	.LBE757:
 2837              	.LBE763:
 2838              	.LBE776:
 2839              	.LBE783:
 2840              	.LBE816:
 2841              	.LBB817:
 2842              	.LBB675:
 2843              	.LBB658:
 2844              	.LBB649:
 2845              	.LBB640:
 2846              	.LBB631:
 2847              	.LBB620:
 2848              	.LBB602:
 2849              	.LBB584:
 731:C:/Renesas/e2studio_2021_01_workspace_RZA2M_ANPR/ANPR_RZA2M_EBK/src/tensorflow_lite/tensorflow/lite/kernels/internal\common.h ****   TFLITE_DCHECK(i3 >= 0 && i3 < desc.extents[3]);
 2850              		.loc 7 731 0
 2851 0fc4 FEFFFFEB 		bl	abort
 2852              	.LVL306:
 2853              	.L395:
 730:C:/Renesas/e2studio_2021_01_workspace_RZA2M_ANPR/ANPR_RZA2M_EBK/src/tensorflow_lite/tensorflow/lite/kernels/internal\common.h ****   TFLITE_DCHECK(i2 >= 0 && i2 < desc.extents[2]);
 2854              		.loc 7 730 0
 2855 0fc8 FEFFFFEB 		bl	abort
 2856              	.LVL307:
 2857              	.L394:
 729:C:/Renesas/e2studio_2021_01_workspace_RZA2M_ANPR/ANPR_RZA2M_EBK/src/tensorflow_lite/tensorflow/lite/kernels/internal\common.h ****   TFLITE_DCHECK(i1 >= 0 && i1 < desc.extents[1]);
 2858              		.loc 7 729 0
 2859 0fcc FEFFFFEB 		bl	abort
 2860              	.LVL308:
 2861              	.L393:
 2862              	.LBE584:
 2863              	.LBE602:
 2864              	.LBB603:
 2865              	.LBB589:
 732:C:/Renesas/e2studio_2021_01_workspace_RZA2M_ANPR/ANPR_RZA2M_EBK/src/tensorflow_lite/tensorflow/lite/kernels/internal\common.h ****   return i0 * desc.strides[0] + i1 * desc.strides[1] + i2 * desc.strides[2] +
 2866              		.loc 7 732 0
 2867 0fd0 FEFFFFEB 		bl	abort
 2868              	.LVL309:
 2869              	.L397:
 2870              	.LBE589:
 2871              	.LBE603:
 2872              	.LBB604:
 2873              	.LBB585:
 2874 0fd4 FEFFFFEB 		bl	abort
 2875              	.LVL310:
 2876              	.L392:
 2877              	.LBE585:
 2878              	.LBE604:
 2879              	.LBB605:
 2880              	.LBB590:
 731:C:/Renesas/e2studio_2021_01_workspace_RZA2M_ANPR/ANPR_RZA2M_EBK/src/tensorflow_lite/tensorflow/lite/kernels/internal\common.h ****   TFLITE_DCHECK(i3 >= 0 && i3 < desc.extents[3]);
 2881              		.loc 7 731 0
 2882 0fd8 FEFFFFEB 		bl	abort
 2883              	.LVL311:
 2884              	.L391:
 730:C:/Renesas/e2studio_2021_01_workspace_RZA2M_ANPR/ANPR_RZA2M_EBK/src/tensorflow_lite/tensorflow/lite/kernels/internal\common.h ****   TFLITE_DCHECK(i2 >= 0 && i2 < desc.extents[2]);
 2885              		.loc 7 730 0
 2886 0fdc FEFFFFEB 		bl	abort
 2887              	.LVL312:
 2888              	.L390:
 729:C:/Renesas/e2studio_2021_01_workspace_RZA2M_ANPR/ANPR_RZA2M_EBK/src/tensorflow_lite/tensorflow/lite/kernels/internal\common.h ****   TFLITE_DCHECK(i1 >= 0 && i1 < desc.extents[1]);
 2889              		.loc 7 729 0
 2890 0fe0 FEFFFFEB 		bl	abort
 2891              	.LVL313:
 2892              	.L389:
 2893              	.LBE590:
 2894              	.LBE605:
 2895              	.LBB606:
 2896              	.LBB594:
 409:C:/Renesas/e2studio_2021_01_workspace_RZA2M_ANPR/ANPR_RZA2M_EBK/src/tensorflow_lite/tensorflow/lite/kernels/internal\types.h ****   return ((i0 * dims_data[1] + i1) * dims_data[2] + i2) * dims_data[3] + i3;
 2897              		.loc 5 409 0
 2898 0fe4 FEFFFFEB 		bl	abort
 2899              	.LVL314:
 2900              	.L388:
 408:C:/Renesas/e2studio_2021_01_workspace_RZA2M_ANPR/ANPR_RZA2M_EBK/src/tensorflow_lite/tensorflow/lite/kernels/internal\types.h ****   TFLITE_DCHECK(i3 >= 0 && i3 < dims_data[3]);
 2901              		.loc 5 408 0
 2902 0fe8 FEFFFFEB 		bl	abort
 2903              	.LVL315:
 2904              	.L387:
 407:C:/Renesas/e2studio_2021_01_workspace_RZA2M_ANPR/ANPR_RZA2M_EBK/src/tensorflow_lite/tensorflow/lite/kernels/internal\types.h ****   TFLITE_DCHECK(i2 >= 0 && i2 < dims_data[2]);
 2905              		.loc 5 407 0
 2906 0fec FEFFFFEB 		bl	abort
 2907              	.LVL316:
 2908              	.L386:
 406:C:/Renesas/e2studio_2021_01_workspace_RZA2M_ANPR/ANPR_RZA2M_EBK/src/tensorflow_lite/tensorflow/lite/kernels/internal\types.h ****   TFLITE_DCHECK(i1 >= 0 && i1 < dims_data[1]);
 2909              		.loc 5 406 0
 2910 0ff0 FEFFFFEB 		bl	abort
 2911              	.LVL317:
 2912              	.LEHE12:
 2913              	.L99:
 2914 0ff4 5C309DE5 		ldr	r3, [sp, #92]
 2915              	.LBE594:
 2916              	.LBE606:
 2917              	.LBE620:
 2918              	.LBE631:
 2919              	.LBE640:
  47:C:/Renesas/e2studio_2021_01_workspace_RZA2M_ANPR/ANPR_RZA2M_EBK/src/tensorflow_lite/tensorflow/lite/kernels/internal/reference\binary_function.h ****       for (int x = 0; x < output_shape.Dims(2); ++x) {
 2920              		.loc 4 47 0
 2921 0ff8 01A08AE2 		add	r10, r10, #1
 2922              	.LVL318:
 2923 0ffc 70209DE5 		ldr	r2, [sp, #112]
 2924 1000 023083E0 		add	r3, r3, r2
 2925 1004 74209DE5 		ldr	r2, [sp, #116]
 2926 1008 5C308DE5 		str	r3, [sp, #92]
 2927 100c 60309DE5 		ldr	r3, [sp, #96]
 2928 1010 023083E0 		add	r3, r3, r2
 2929 1014 78209DE5 		ldr	r2, [sp, #120]
 2930 1018 60308DE5 		str	r3, [sp, #96]
 2931 101c 64309DE5 		ldr	r3, [sp, #100]
 2932 1020 023083E0 		add	r3, r3, r2
 2933 1024 64308DE5 		str	r3, [sp, #100]
 2934 1028 C8FEFFEA 		b	.L94
 2935              	.LVL319:
 2936              	.L376:
 2937              	.LBE649:
 2938              	.LBE658:
 2939              	.LBE675:
 2940              	.LBE817:
 2941              	.LBB818:
 2942              	.LBB784:
 2943              	.LBB777:
 2944              	.LBB764:
 2945              	.LBB758:
 2946              	.LBB752:
 521:C:/Renesas/e2studio_2021_01_workspace_RZA2M_ANPR/ANPR_RZA2M_EBK/src/tensorflow_lite/tensorflow/lite/kernels/internal\types.h ****   const int dims_count = shape.DimensionsCount();
 2947              		.loc 5 521 0
 2948 102c 38319DE5 		ldr	r3, [sp, #312]
 2949 1030 0B0053E1 		cmp	r3, fp
 2950 1034 91FCFF0A 		beq	.L142
 2951              	.LVL320:
 2952              	.L175:
 2953              	.LEHB13:
 2954 1038 FEFFFFEB 		bl	abort
 2955              	.LVL321:
 2956              	.LEHE13:
 2957              	.L385:
 2958              	.LEHB14:
 2959              	.LBE752:
 2960              	.LBE758:
 2961              	.LBE764:
 2962              	.LBE777:
 2963              	.LBE784:
 2964              	.LBE818:
 2965              	.LBB819:
 2966              	.LBB676:
 2967              	.LBB659:
 2968              	.LBB650:
 2969              	.LBB641:
 2970              	.LBB632:
 2971              	.LBB621:
 2972              	.LBB607:
 2973              	.LBB595:
 404:C:/Renesas/e2studio_2021_01_workspace_RZA2M_ANPR/ANPR_RZA2M_EBK/src/tensorflow_lite/tensorflow/lite/kernels/internal\types.h ****   const int* dims_data = reinterpret_cast<const int*>(shape.DimsDataUpTo5D());
 2974              		.loc 5 404 0
 2975 103c FEFFFFEB 		bl	abort
 2976              	.LVL322:
 2977              	.LEHE14:
 2978              	.L221:
 2979 1040 08309DE5 		ldr	r3, [sp, #8]
 2980 1044 81FFFFEA 		b	.L32
 2981              	.LVL323:
 2982              	.L383:
 2983              	.LEHB15:
 2984              	.LBE595:
 2985              	.LBE607:
 2986              	.LBE621:
 2987              	.LBB622:
 2988              	.LBB613:
 215:C:/Renesas/e2studio_2021_01_workspace_RZA2M_ANPR/ANPR_RZA2M_EBK/src/tensorflow_lite/tensorflow/lite/kernels/internal\types.h ****     return size_ > kMaxSmallSize ? dims_pointer_[i] : dims_[i];
 2989              		.loc 5 215 0
 2990 1048 FEFFFFEB 		bl	abort
 2991              	.LVL324:
 2992              	.LEHE15:
 2993              	.L78:
 2994              	.LBE613:
 2995              	.LBE622:
 2996              	.LBE632:
 2997              	.LBE641:
 2998              	.LBE650:
 2999              	.LBE659:
 3000              	.LBB660:
 3001              	.LBB557:
 3002              	.LBB545:
 3003              	.LBB530:
 841:C:/Renesas/e2studio_2021_01_workspace_RZA2M_ANPR/ANPR_RZA2M_EBK/src/tensorflow_lite/tensorflow/lite/kernels/internal\common.h ****         desc0_out->extents[i] = extent1;
 3004              		.loc 7 841 0
 3005 104c 0010A0E3 		mov	r1, #0
 842:C:/Renesas/e2studio_2021_01_workspace_RZA2M_ANPR/ANPR_RZA2M_EBK/src/tensorflow_lite/tensorflow/lite/kernels/internal\common.h ****       } else {
 3006              		.loc 7 842 0
 3007 1050 1C218DE5 		str	r2, [sp, #284]
 841:C:/Renesas/e2studio_2021_01_workspace_RZA2M_ANPR/ANPR_RZA2M_EBK/src/tensorflow_lite/tensorflow/lite/kernels/internal\common.h ****         desc0_out->extents[i] = extent1;
 3008              		.loc 7 841 0
 3009 1054 2C118DE5 		str	r1, [sp, #300]
 3010 1058 C2FFFFEA 		b	.L77
 3011              	.LVL325:
 3012              	.L80:
 3013 105c 0010A0E3 		mov	r1, #0
 842:C:/Renesas/e2studio_2021_01_workspace_RZA2M_ANPR/ANPR_RZA2M_EBK/src/tensorflow_lite/tensorflow/lite/kernels/internal\common.h ****       } else {
 3014              		.loc 7 842 0
 3015 1060 20218DE5 		str	r2, [sp, #288]
 841:C:/Renesas/e2studio_2021_01_workspace_RZA2M_ANPR/ANPR_RZA2M_EBK/src/tensorflow_lite/tensorflow/lite/kernels/internal\common.h ****         desc0_out->extents[i] = extent1;
 3016              		.loc 7 841 0
 3017 1064 30118DE5 		str	r1, [sp, #304]
 3018 1068 C9FFFFEA 		b	.L79
 3019              	.LVL326:
 3020              	.L76:
 3021 106c 0010A0E3 		mov	r1, #0
 842:C:/Renesas/e2studio_2021_01_workspace_RZA2M_ANPR/ANPR_RZA2M_EBK/src/tensorflow_lite/tensorflow/lite/kernels/internal\common.h ****       } else {
 3022              		.loc 7 842 0
 3023 1070 18218DE5 		str	r2, [sp, #280]
 841:C:/Renesas/e2studio_2021_01_workspace_RZA2M_ANPR/ANPR_RZA2M_EBK/src/tensorflow_lite/tensorflow/lite/kernels/internal\common.h ****         desc0_out->extents[i] = extent1;
 3024              		.loc 7 841 0
 3025 1074 28118DE5 		str	r1, [sp, #296]
 3026 1078 AFFFFFEA 		b	.L75
 3027              	.LVL327:
 3028              	.L96:
 3029 107c 68309DE5 		ldr	r3, [sp, #104]
 3030              	.LBE530:
 3031              	.LBE545:
 3032              	.LBE557:
 3033              	.LBE660:
 3034              	.LBB661:
  46:C:/Renesas/e2studio_2021_01_workspace_RZA2M_ANPR/ANPR_RZA2M_EBK/src/tensorflow_lite/tensorflow/lite/kernels/internal/reference\binary_function.h ****     for (int y = 0; y < output_shape.Dims(1); ++y) {
 3035              		.loc 4 46 0
 3036 1080 019089E2 		add	r9, r9, #1
 3037              	.LVL328:
 3038 1084 7C209DE5 		ldr	r2, [sp, #124]
 3039 1088 023083E0 		add	r3, r3, r2
 3040 108c 80209DE5 		ldr	r2, [sp, #128]
 3041 1090 68308DE5 		str	r3, [sp, #104]
 3042 1094 4C309DE5 		ldr	r3, [sp, #76]
 3043 1098 023083E0 		add	r3, r3, r2
 3044 109c 84209DE5 		ldr	r2, [sp, #132]
 3045 10a0 4C308DE5 		str	r3, [sp, #76]
 3046 10a4 6C309DE5 		ldr	r3, [sp, #108]
 3047 10a8 023083E0 		add	r3, r3, r2
 3048 10ac 6C308DE5 		str	r3, [sp, #108]
 3049 10b0 96FEFFEA 		b	.L87
 3050              	.LVL329:
 3051              	.L93:
 3052              	.LBE661:
 3053              	.LBB662:
 3054              	.LBB663:
 203:C:/Renesas/e2studio_2021_01_workspace_RZA2M_ANPR/ANPR_RZA2M_EBK/src/tensorflow_lite/tensorflow/lite/kernels/internal\types.h **** #ifdef TF_LITE_STATIC_MEMORY
 3055              		.loc 5 203 0
 3056 10b4 050053E3 		cmp	r3, #5
 3057 10b8 040000DA 		ble	.L116
 207:C:/Renesas/e2studio_2021_01_workspace_RZA2M_ANPR/ANPR_RZA2M_EBK/src/tensorflow_lite/tensorflow/lite/kernels/internal\types.h **** #endif  // TF_LITE_STATIC_MEMORY
 3058              		.loc 5 207 0
 3059 10bc 04309DE5 		ldr	r3, [sp, #4]
 3060 10c0 000053E3 		cmp	r3, #0
 3061 10c4 0100000A 		beq	.L116
 3062 10c8 0300A0E1 		mov	r0, r3
 3063 10cc FEFFFFEB 		bl	_ZdaPv
 3064              	.LVL330:
 3065              	.L116:
 3066              	.LBE663:
 3067              	.LBE662:
 3068              	.LBE676:
 3069              	.LBE819:
 3070              	.LBB820:
 3071              	.LBB821:
 203:C:/Renesas/e2studio_2021_01_workspace_RZA2M_ANPR/ANPR_RZA2M_EBK/src/tensorflow_lite/tensorflow/lite/kernels/internal\types.h **** #ifdef TF_LITE_STATIC_MEMORY
 3072              		.loc 5 203 0
 3073 10d0 B8309DE5 		ldr	r3, [sp, #184]
 3074 10d4 050053E3 		cmp	r3, #5
 3075 10d8 030000DA 		ble	.L118
 207:C:/Renesas/e2studio_2021_01_workspace_RZA2M_ANPR/ANPR_RZA2M_EBK/src/tensorflow_lite/tensorflow/lite/kernels/internal\types.h **** #endif  // TF_LITE_STATIC_MEMORY
 3076              		.loc 5 207 0
 3077 10dc BC009DE5 		ldr	r0, [sp, #188]
 3078 10e0 000050E3 		cmp	r0, #0
 3079 10e4 0000000A 		beq	.L118
 3080 10e8 FEFFFFEB 		bl	_ZdaPv
 3081              	.LVL331:
 3082              	.L118:
 3083              	.LBE821:
 3084              	.LBE820:
 3085              	.LBB822:
 3086              	.LBB823:
 203:C:/Renesas/e2studio_2021_01_workspace_RZA2M_ANPR/ANPR_RZA2M_EBK/src/tensorflow_lite/tensorflow/lite/kernels/internal\types.h **** #ifdef TF_LITE_STATIC_MEMORY
 3087              		.loc 5 203 0
 3088 10ec A0309DE5 		ldr	r3, [sp, #160]
 3089 10f0 050053E3 		cmp	r3, #5
 3090 10f4 030000DA 		ble	.L121
 207:C:/Renesas/e2studio_2021_01_workspace_RZA2M_ANPR/ANPR_RZA2M_EBK/src/tensorflow_lite/tensorflow/lite/kernels/internal\types.h **** #endif  // TF_LITE_STATIC_MEMORY
 3091              		.loc 5 207 0
 3092 10f8 A4009DE5 		ldr	r0, [sp, #164]
 3093 10fc 000050E3 		cmp	r0, #0
 3094 1100 0000000A 		beq	.L121
 3095 1104 FEFFFFEB 		bl	_ZdaPv
 3096              	.LVL332:
 3097              	.L121:
 3098              	.LBE823:
 3099              	.LBE822:
 3100              	.LBB824:
 3101              	.LBB825:
 203:C:/Renesas/e2studio_2021_01_workspace_RZA2M_ANPR/ANPR_RZA2M_EBK/src/tensorflow_lite/tensorflow/lite/kernels/internal\types.h **** #ifdef TF_LITE_STATIC_MEMORY
 3102              		.loc 5 203 0
 3103 1108 88309DE5 		ldr	r3, [sp, #136]
 3104 110c 050053E3 		cmp	r3, #5
 3105 1110 28FDFFDA 		ble	.L163
 207:C:/Renesas/e2studio_2021_01_workspace_RZA2M_ANPR/ANPR_RZA2M_EBK/src/tensorflow_lite/tensorflow/lite/kernels/internal\types.h **** #endif  // TF_LITE_STATIC_MEMORY
 3106              		.loc 5 207 0
 3107 1114 8C009DE5 		ldr	r0, [sp, #140]
 3108 1118 000050E3 		cmp	r0, #0
 3109 111c 24FDFF1A 		bne	.L361
 3110 1120 24FDFFEA 		b	.L163
 3111              	.LVL333:
 3112              	.L130:
 3113              	.LEHB16:
 3114              	.LBE825:
 3115              	.LBE824:
 3116              	.LBB826:
 3117              	.LBB785:
 3118              	.LBB778:
 3119              	.LBB765:
 3120              	.LBB759:
 3121              		.loc 5 535 0
 3122 1124 FEFFFFEB 		bl	abort
 3123              	.LVL334:
 3124              	.L137:
 3125              	.LBE759:
 3126              	.LBB760:
 3127              	.LBB753:
 3128              	.LBB748:
 524:C:/Renesas/e2studio_2021_01_workspace_RZA2M_ANPR/ANPR_RZA2M_EBK/src/tensorflow_lite/tensorflow/lite/kernels/internal\types.h ****   }
 3129              		.loc 5 524 0
 3130 1128 FEFFFFEB 		bl	abort
 3131              	.LVL335:
 3132              	.LEHE16:
 3133              	.L210:
 3134              	.LBE748:
 3135              	.LBE753:
 3136              	.LBE760:
 3137              	.LBE765:
 3138              	.LBE778:
 3139              	.LBB779:
  72:C:/Renesas/e2studio_2021_01_workspace_RZA2M_ANPR/ANPR_RZA2M_EBK/src/tensorflow_lite/tensorflow/lite/kernels/internal/reference\binary_function.h ****     output_data[i] = func(input1_data[i], input2_data[i]);
 3140              		.loc 4 72 0
 3141 112c 0090A0E3 		mov	r9, #0
 3142              	.LVL336:
 3143 1130 FBFCFFEA 		b	.L144
 3144              	.LVL337:
 3145              	.L39:
 3146              	.LEHB17:
 3147              	.LBE779:
 3148              	.LBE785:
 3149              	.LBE826:
 3150              	.LBB827:
 3151              	.LBB677:
 3152              	.LBB664:
 3153              	.LBB558:
 3154              	.LBB546:
 3155              	.LBB458:
 3156              	.LBB456:
 3157              	.LBB454:
 3158              	.LBB451:
 215:C:/Renesas/e2studio_2021_01_workspace_RZA2M_ANPR/ANPR_RZA2M_EBK/src/tensorflow_lite/tensorflow/lite/kernels/internal\types.h ****     return size_ > kMaxSmallSize ? dims_pointer_[i] : dims_[i];
 3159              		.loc 5 215 0
 3160 1134 FEFFFFEB 		bl	abort
 3161              	.LVL338:
 3162              	.LEHE17:
 3163              	.L374:
 3164              	.LEHB18:
 3165              	.LBE451:
 3166              	.LBE454:
 3167              	.LBE456:
 3168              	.LBE458:
 3169              	.LBE546:
 3170              	.LBE558:
 3171              	.LBE664:
  37:C:/Renesas/e2studio_2021_01_workspace_RZA2M_ANPR/ANPR_RZA2M_EBK/src/tensorflow_lite/tensorflow/lite/kernels/internal/reference\binary_function.h ****   const RuntimeShape output_shape =
 3172              		.loc 4 37 0
 3173 1138 FEFFFFEB 		bl	abort
 3174              	.LVL339:
 3175              	.LEHE18:
 3176              	.L220:
 3177 113c 00619DE5 		ldr	r6, [sp, #256]
 3178              	.LVL340:
 3179              	.L89:
 3180              	.LBB665:
 3181              	.LBB559:
 3182              	.LBB547:
 3183              	.LBB548:
 203:C:/Renesas/e2studio_2021_01_workspace_RZA2M_ANPR/ANPR_RZA2M_EBK/src/tensorflow_lite/tensorflow/lite/kernels/internal\types.h **** #ifdef TF_LITE_STATIC_MEMORY
 3184              		.loc 5 203 0
 3185 1140 050056E3 		cmp	r6, #5
 3186 1144 49FFFFDA 		ble	.L37
 207:C:/Renesas/e2studio_2021_01_workspace_RZA2M_ANPR/ANPR_RZA2M_EBK/src/tensorflow_lite/tensorflow/lite/kernels/internal\types.h **** #endif  // TF_LITE_STATIC_MEMORY
 3187              		.loc 5 207 0
 3188 1148 04019DE5 		ldr	r0, [sp, #260]
 3189 114c 000050E3 		cmp	r0, #0
 3190 1150 46FFFF0A 		beq	.L37
 3191 1154 FEFFFFEB 		bl	_ZdaPv
 3192              	.LVL341:
 3193 1158 44FFFFEA 		b	.L37
 3194              	.LVL342:
 3195              	.L375:
 3196              	.LEHB19:
 3197              	.LBE548:
 3198              	.LBE547:
 3199              	.LBE559:
 3200              	.LBE665:
 3201              	.LBE677:
 3202              	.LBE827:
 3203              	.LBB828:
 3204              	.LBB683:
  62:C:/Renesas/e2studio_2021_01_workspace_RZA2M_ANPR/ANPR_RZA2M_EBK/src/tensorflow_lite/tensorflow/lite/micro/kernels\kernel_util.h ****   return reinterpret_cast<const T*>(tensor->data.raw);
 3205              		.loc 3 62 0
 3206 115c FEFFFFEB 		bl	abort
 3207              	.LVL343:
 3208              	.LEHE19:
 3209              	.L214:
 3210 1160 63FFFFEA 		b	.L173
 3211              	.LVL344:
 3212              	.L47:
 3213              	.LEHB20:
 3214              	.LBE683:
 3215              	.LBE828:
 3216              	.LBB829:
 3217              	.LBB678:
 3218              	.LBB666:
 3219              	.LBB560:
 3220              	.LBB549:
 3221              	.LBB531:
 3222              	.LBB525:
 3223              	.LBB493:
 215:C:/Renesas/e2studio_2021_01_workspace_RZA2M_ANPR/ANPR_RZA2M_EBK/src/tensorflow_lite/tensorflow/lite/kernels/internal\types.h ****     return size_ > kMaxSmallSize ? dims_pointer_[i] : dims_[i];
 3224              		.loc 5 215 0
 3225 1164 FEFFFFEB 		bl	abort
 3226              	.LVL345:
 3227              	.L42:
 3228              	.LBE493:
 3229              	.LBE525:
 3230              	.LBE531:
 3231              	.LBE549:
 3232              	.LBB550:
 3233              	.LBB473:
 3234              	.LBB471:
 3235              	.LBB469:
 3236              	.LBB466:
 3237 1168 FEFFFFEB 		bl	abort
 3238              	.LVL346:
 3239              	.LEHE20:
 3240              	.L217:
 3241 116c F3FFFFEA 		b	.L89
 3242              	.LVL347:
 3243              	.L382:
 3244              	.LEHB21:
 3245              	.LBE466:
 3246              	.LBE469:
 3247              	.LBE471:
 3248              	.LBE473:
 3249              	.LBE550:
 3250              	.LBE560:
 3251              	.LBE666:
 3252              	.LBB667:
 3253              	.LBB651:
 3254              	.LBB642:
 3255              	.LBB633:
 3256              	.LBB626:
 3257 1170 FEFFFFEB 		bl	abort
 3258              	.LVL348:
 3259              	.L381:
 3260              	.LBE626:
 3261              	.LBE633:
 3262              	.LBE642:
 3263              	.LBB643:
 3264              	.LBB576:
 3265 1174 FEFFFFEB 		bl	abort
 3266              	.LVL349:
 3267              	.L86:
 3268              	.LBE576:
 3269              	.LBE643:
 3270              	.LBE651:
 3271              	.LBB652:
 3272              	.LBB569:
 3273 1178 FEFFFFEB 		bl	abort
 3274              	.LVL350:
 3275              	.LEHE21:
 3276              	.L50:
 3277              	.LEHB22:
 3278              	.LBE569:
 3279              	.LBE652:
 3280              	.LBE667:
 3281              	.LBB668:
 3282              	.LBB561:
 3283              	.LBB551:
 3284              	.LBB532:
 844:C:/Renesas/e2studio_2021_01_workspace_RZA2M_ANPR/ANPR_RZA2M_EBK/src/tensorflow_lite/tensorflow/lite/kernels/internal\common.h ****         desc1_out->strides[i] = 0;
 3285              		.loc 7 844 0
 3286 117c FEFFFFEB 		bl	abort
 3287              	.LVL351:
 3288              	.LEHE22:
 3289              	.L215:
 3290 1180 54FFFFEA 		b	.L171
 3291              	.LVL352:
 3292              	.L125:
 3293              	.LEHB23:
 3294              	.LBE532:
 3295              	.LBE551:
 3296              	.LBE561:
 3297              	.LBE668:
 3298              	.LBE678:
 3299              	.LBE829:
 3300              	.LBB830:
 3301              	.LBB786:
 3302              	.LBB780:
 3303              	.LBB766:
 532:C:/Renesas/e2studio_2021_01_workspace_RZA2M_ANPR/ANPR_RZA2M_EBK/src/tensorflow_lite/tensorflow/lite/kernels/internal\types.h ****   const int dims_count = shape.DimensionsCount();
 3304              		.loc 5 532 0
 3305 1184 FEFFFFEB 		bl	abort
 3306              	.LVL353:
 3307              	.LEHE23:
 3308              	.L211:
 3309 1188 26FFFFEA 		b	.L167
 3310              	.L212:
 3311 118c 1EFFFFEA 		b	.L165
 3312              	.LVL354:
 3313              	.L372:
 3314              	.LEHB24:
 3315              	.LBE766:
 3316              	.LBE780:
 3317              	.LBE786:
 3318              	.LBE830:
 3319              	.LBB831:
 3320              	.LBB679:
  35:C:/Renesas/e2studio_2021_01_workspace_RZA2M_ANPR/ANPR_RZA2M_EBK/src/tensorflow_lite/tensorflow/lite/kernels/internal/reference\binary_function.h ****   TFLITE_DCHECK_LE(unextended_input2_shape.DimensionsCount(), 4);
 3321              		.loc 4 35 0
 3322 1190 FEFFFFEB 		bl	abort
 3323              	.LVL355:
 3324              	.L373:
  36:C:/Renesas/e2studio_2021_01_workspace_RZA2M_ANPR/ANPR_RZA2M_EBK/src/tensorflow_lite/tensorflow/lite/kernels/internal/reference\binary_function.h ****   TFLITE_DCHECK_LE(unextended_output_shape.DimensionsCount(), 4);
 3325              		.loc 4 36 0
 3326 1194 FEFFFFEB 		bl	abort
 3327              	.LVL356:
 3328              	.LEHE24:
 3329              	.L371:
 3330              	.LEHB25:
 3331              	.LBE679:
 3332              	.LBE831:
 3333              	.LBB832:
 3334              	.LBB378:
  62:C:/Renesas/e2studio_2021_01_workspace_RZA2M_ANPR/ANPR_RZA2M_EBK/src/tensorflow_lite/tensorflow/lite/micro/kernels\kernel_util.h ****   return reinterpret_cast<const T*>(tensor->data.raw);
 3335              		.loc 3 62 0
 3336 1198 FEFFFFEB 		bl	abort
 3337              	.LVL357:
 3338              	.LEHE25:
 3339              	.L368:
 3340              	.LEHB26:
 3341              	.LBE378:
 3342              	.LBE832:
 3343              	.LBB833:
 3344              	.LBB370:
 3345 119c FEFFFFEB 		bl	abort
 3346              	.LVL358:
 3347              	.LEHE26:
 3348              	.LBE370:
 3349              	.LBE833:
 3350              		.cfi_endproc
 3351              	.LFE4360:
 3352              		.global	__gxx_personality_v0
 3353              		.personality	__gxx_personality_v0
 3354              		.handlerdata
 3355              	.LLSDA4360:
 3356 0008 FF       		.byte	0xff
 3357 0009 FF       		.byte	0xff
 3358 000a 01       		.byte	0x1
 3359 000b 9D01     		.uleb128 .LLSDACSE4360-.LLSDACSB4360
 3360              	.LLSDACSB4360:
 3361 000d 48       		.uleb128 .LEHB0-.LFB4360
 3362 000e 2C       		.uleb128 .LEHE0-.LEHB0
 3363 000f 00       		.uleb128 0
 3364 0010 00       		.uleb128 0
 3365 0011 8801     		.uleb128 .LEHB1-.LFB4360
 3366 0013 04       		.uleb128 .LEHE1-.LEHB1
 3367 0014 8823     		.uleb128 .L211-.LFB4360
 3368 0016 00       		.uleb128 0
 3369 0017 9401     		.uleb128 .LEHB2-.LFB4360
 3370 0019 04       		.uleb128 .LEHE2-.LEHB2
 3371 001a 8C23     		.uleb128 .L212-.LFB4360
 3372 001c 00       		.uleb128 0
 3373 001d 8802     		.uleb128 .LEHB3-.LFB4360
 3374 001f 04       		.uleb128 .LEHE3-.LEHB3
 3375 0020 F01B     		.uleb128 .L213-.LFB4360
 3376 0022 00       		.uleb128 0
 3377 0023 9002     		.uleb128 .LEHB4-.LFB4360
 3378 0025 04       		.uleb128 .LEHE4-.LEHB4
 3379 0026 00       		.uleb128 0
 3380 0027 00       		.uleb128 0
 3381 0028 AC02     		.uleb128 .LEHB5-.LFB4360
 3382 002a 04       		.uleb128 .LEHE5-.LEHB5
 3383 002b E022     		.uleb128 .L214-.LFB4360
 3384 002d 00       		.uleb128 0
 3385 002e B802     		.uleb128 .LEHB6-.LFB4360
 3386 0030 04       		.uleb128 .LEHE6-.LEHB6
 3387 0031 8023     		.uleb128 .L215-.LFB4360
 3388 0033 00       		.uleb128 0
 3389 0034 9C0C     		.uleb128 .LEHB7-.LFB4360
 3390 0036 04       		.uleb128 .LEHE7-.LEHB7
 3391 0037 C81C     		.uleb128 .L218-.LFB4360
 3392 0039 00       		.uleb128 0
 3393 003a F80C     		.uleb128 .LEHB8-.LFB4360
 3394 003c 04       		.uleb128 .LEHE8-.LEHB8
 3395 003d EC1C     		.uleb128 .L219-.LFB4360
 3396 003f 00       		.uleb128 0
 3397 0040 8810     		.uleb128 .LEHB9-.LFB4360
 3398 0042 04       		.uleb128 .LEHE9-.LEHB9
 3399 0043 00       		.uleb128 0
 3400 0044 00       		.uleb128 0
 3401 0045 8C11     		.uleb128 .LEHB10-.LFB4360
 3402 0047 A409     		.uleb128 .LEHE10-.LEHB10
 3403 0049 BC1D     		.uleb128 .L216-.LFB4360
 3404 004b 00       		.uleb128 0
 3405 004c C41C     		.uleb128 .LEHB11-.LFB4360
 3406 004e 04       		.uleb128 .LEHE11-.LEHB11
 3407 004f 00       		.uleb128 0
 3408 0050 00       		.uleb128 0
 3409 0051 C41F     		.uleb128 .LEHB12-.LFB4360
 3410 0053 30       		.uleb128 .LEHE12-.LEHB12
 3411 0054 F01B     		.uleb128 .L213-.LFB4360
 3412 0056 00       		.uleb128 0
 3413 0057 B820     		.uleb128 .LEHB13-.LFB4360
 3414 0059 04       		.uleb128 .LEHE13-.LEHB13
 3415 005a BC1D     		.uleb128 .L216-.LFB4360
 3416 005c 00       		.uleb128 0
 3417 005d BC20     		.uleb128 .LEHB14-.LFB4360
 3418 005f 04       		.uleb128 .LEHE14-.LEHB14
 3419 0060 C020     		.uleb128 .L221-.LFB4360
 3420 0062 00       		.uleb128 0
 3421 0063 C820     		.uleb128 .LEHB15-.LFB4360
 3422 0065 04       		.uleb128 .LEHE15-.LEHB15
 3423 0066 F01B     		.uleb128 .L213-.LFB4360
 3424 0068 00       		.uleb128 0
 3425 0069 A422     		.uleb128 .LEHB16-.LFB4360
 3426 006b 08       		.uleb128 .LEHE16-.LEHB16
 3427 006c BC1D     		.uleb128 .L216-.LFB4360
 3428 006e 00       		.uleb128 0
 3429 006f B422     		.uleb128 .LEHB17-.LFB4360
 3430 0071 04       		.uleb128 .LEHE17-.LEHB17
 3431 0072 BC22     		.uleb128 .L220-.LFB4360
 3432 0074 00       		.uleb128 0
 3433 0075 B822     		.uleb128 .LEHB18-.LFB4360
 3434 0077 04       		.uleb128 .LEHE18-.LEHB18
 3435 0078 F01B     		.uleb128 .L213-.LFB4360
 3436 007a 00       		.uleb128 0
 3437 007b DC22     		.uleb128 .LEHB19-.LFB4360
 3438 007d 04       		.uleb128 .LEHE19-.LEHB19
 3439 007e E022     		.uleb128 .L214-.LFB4360
 3440 0080 00       		.uleb128 0
 3441 0081 E422     		.uleb128 .LEHB20-.LFB4360
 3442 0083 08       		.uleb128 .LEHE20-.LEHB20
 3443 0084 EC22     		.uleb128 .L217-.LFB4360
 3444 0086 00       		.uleb128 0
 3445 0087 F022     		.uleb128 .LEHB21-.LFB4360
 3446 0089 0C       		.uleb128 .LEHE21-.LEHB21
 3447 008a F01B     		.uleb128 .L213-.LFB4360
 3448 008c 00       		.uleb128 0
 3449 008d FC22     		.uleb128 .LEHB22-.LFB4360
 3450 008f 04       		.uleb128 .LEHE22-.LEHB22
 3451 0090 EC22     		.uleb128 .L217-.LFB4360
 3452 0092 00       		.uleb128 0
 3453 0093 8423     		.uleb128 .LEHB23-.LFB4360
 3454 0095 04       		.uleb128 .LEHE23-.LEHB23
 3455 0096 BC1D     		.uleb128 .L216-.LFB4360
 3456 0098 00       		.uleb128 0
 3457 0099 9023     		.uleb128 .LEHB24-.LFB4360
 3458 009b 08       		.uleb128 .LEHE24-.LEHB24
 3459 009c F01B     		.uleb128 .L213-.LFB4360
 3460 009e 00       		.uleb128 0
 3461 009f 9823     		.uleb128 .LEHB25-.LFB4360
 3462 00a1 04       		.uleb128 .LEHE25-.LEHB25
 3463 00a2 8823     		.uleb128 .L211-.LFB4360
 3464 00a4 00       		.uleb128 0
 3465 00a5 9C23     		.uleb128 .LEHB26-.LFB4360
 3466 00a7 04       		.uleb128 .LEHE26-.LEHB26
 3467 00a8 00       		.uleb128 0
 3468 00a9 00       		.uleb128 0
 3469              	.LLSDACSE4360:
 3470              		.section	.text._ZN6tflite12_GLOBAL__N_112EvalFloorDivIfEE12TfLiteStatusP13TfLiteContextPK16TfLiteE
 3471              		.fnend
 3473              		.section	.text._ZN6tflite12_GLOBAL__N_14EvalEP13TfLiteContextP10TfLiteNode,"ax",%progbits
 3474              		.align	2
 3475              		.syntax unified
 3476              		.arm
 3477              		.fpu neon
 3479              	_ZN6tflite12_GLOBAL__N_14EvalEP13TfLiteContextP10TfLiteNode:
 3480              		.fnstart
 3481              	.LFB4175:
  96:../src/tensorflow_lite/tensorflow/lite/micro/kernels/floor_div.cc **** 
  97:../src/tensorflow_lite/tensorflow/lite/micro/kernels/floor_div.cc **** TfLiteStatus Eval(TfLiteContext* context, TfLiteNode* node) {
 3482              		.loc 1 97 0
 3483              		.cfi_startproc
 3484              		@ args = 0, pretend = 0, frame = 0
 3485              		@ frame_needed = 0, uses_anonymous_args = 0
 3486              	.LVL359:
 3487 0000 F0412DE9 		push	{r4, r5, r6, r7, r8, lr}
 3488              		.save {r4, r5, r6, r7, r8, lr}
 3489              		.cfi_def_cfa_offset 24
 3490              		.cfi_offset 4, -24
 3491              		.cfi_offset 5, -20
 3492              		.cfi_offset 6, -16
 3493              		.cfi_offset 7, -12
 3494              		.cfi_offset 8, -8
 3495              		.cfi_offset 14, -4
 3496              	.LBB844:
 3497              	.LBB845:
 3498              	.LBB846:
  34:C:/Renesas/e2studio_2021_01_workspace_RZA2M_ANPR/ANPR_RZA2M_EBK/src/tensorflow_lite/tensorflow/lite/micro/kernels\kernel_util.h ****   TFLITE_DCHECK(node != nullptr);
 3499              		.loc 3 34 0
 3500 0004 004050E2 		subs	r4, r0, #0
 3501              	.LVL360:
 3502 0008 2500000A 		beq	.L401
  35:C:/Renesas/e2studio_2021_01_workspace_RZA2M_ANPR/ANPR_RZA2M_EBK/src/tensorflow_lite/tensorflow/lite/micro/kernels\kernel_util.h ****   return context->GetEvalTensor(context, node->inputs->data[index]);
 3503              		.loc 3 35 0
 3504 000c 000051E3 		cmp	r1, #0
 3505 0010 0150A0E1 		mov	r5, r1
 3506 0014 2200000A 		beq	.L401
  36:C:/Renesas/e2studio_2021_01_workspace_RZA2M_ANPR/ANPR_RZA2M_EBK/src/tensorflow_lite/tensorflow/lite/micro/kernels\kernel_util.h **** }
 3507              		.loc 3 36 0
 3508 0018 002091E5 		ldr	r2, [r1]
 3509 001c 543094E5 		ldr	r3, [r4, #84]
 3510 0020 041092E5 		ldr	r1, [r2, #4]
 3511              	.LVL361:
 3512 0024 33FF2FE1 		blx	r3
 3513              	.LVL362:
 3514              	.LBE846:
 3515              	.LBE845:
 3516              	.LBE844:
 3517              	.LBB851:
 3518              	.LBB852:
 3519              	.LBB853:
 3520 0028 002095E5 		ldr	r2, [r5]
 3521              	.LBE853:
 3522              	.LBE852:
 3523              	.LBE851:
 3524              	.LBB858:
 3525              	.LBB849:
 3526              	.LBB847:
 3527 002c 0060A0E1 		mov	r6, r0
 3528              	.LVL363:
 3529              	.LBE847:
 3530              	.LBE849:
 3531              	.LBE858:
 3532              	.LBB859:
 3533              	.LBB856:
 3534              	.LBB854:
 3535 0030 543094E5 		ldr	r3, [r4, #84]
 3536 0034 0400A0E1 		mov	r0, r4
 3537 0038 081092E5 		ldr	r1, [r2, #8]
 3538 003c 33FF2FE1 		blx	r3
 3539              	.LVL364:
 3540              	.LBE854:
 3541              	.LBE856:
 3542              	.LBE859:
 3543              	.LBB860:
 3544              	.LBB861:
  50:C:/Renesas/e2studio_2021_01_workspace_RZA2M_ANPR/ANPR_RZA2M_EBK/src/tensorflow_lite/tensorflow/lite/micro/kernels\kernel_util.h **** }
 3545              		.loc 3 50 0
 3546 0040 042095E5 		ldr	r2, [r5, #4]
 3547              	.LBE861:
 3548              	.LBE860:
 3549              	.LBB863:
 3550              	.LBB857:
 3551              	.LBB855:
  36:C:/Renesas/e2studio_2021_01_workspace_RZA2M_ANPR/ANPR_RZA2M_EBK/src/tensorflow_lite/tensorflow/lite/micro/kernels\kernel_util.h **** }
 3552              		.loc 3 36 0
 3553 0044 0070A0E1 		mov	r7, r0
 3554              	.LVL365:
 3555              	.LBE855:
 3556              	.LBE857:
 3557              	.LBE863:
 3558              	.LBB864:
 3559              	.LBB862:
  50:C:/Renesas/e2studio_2021_01_workspace_RZA2M_ANPR/ANPR_RZA2M_EBK/src/tensorflow_lite/tensorflow/lite/micro/kernels\kernel_util.h **** }
 3560              		.loc 3 50 0
 3561 0048 543094E5 		ldr	r3, [r4, #84]
 3562 004c 0400A0E1 		mov	r0, r4
 3563 0050 041092E5 		ldr	r1, [r2, #4]
 3564 0054 33FF2FE1 		blx	r3
 3565              	.LVL366:
 3566              	.LBE862:
 3567              	.LBE864:
  98:../src/tensorflow_lite/tensorflow/lite/micro/kernels/floor_div.cc ****   const TfLiteEvalTensor* input1 =
  99:../src/tensorflow_lite/tensorflow/lite/micro/kernels/floor_div.cc ****       tflite::micro::GetEvalInput(context, node, kInputTensor1);
 100:../src/tensorflow_lite/tensorflow/lite/micro/kernels/floor_div.cc ****   const TfLiteEvalTensor* input2 =
 101:../src/tensorflow_lite/tensorflow/lite/micro/kernels/floor_div.cc ****       tflite::micro::GetEvalInput(context, node, kInputTensor2);
 102:../src/tensorflow_lite/tensorflow/lite/micro/kernels/floor_div.cc ****   TfLiteEvalTensor* output =
 103:../src/tensorflow_lite/tensorflow/lite/micro/kernels/floor_div.cc ****       tflite::micro::GetEvalOutput(context, node, kOutputTensor);
 104:../src/tensorflow_lite/tensorflow/lite/micro/kernels/floor_div.cc **** 
 105:../src/tensorflow_lite/tensorflow/lite/micro/kernels/floor_div.cc ****   switch (input1->type) {
 3568              		.loc 1 105 0
 3569 0058 0820D6E5 		ldrb	r2, [r6, #8]	@ zero_extendqisi2
 3570 005c 010052E3 		cmp	r2, #1
 3571 0060 0900000A 		beq	.L409
 106:../src/tensorflow_lite/tensorflow/lite/micro/kernels/floor_div.cc ****     case kTfLiteFloat32: {
 107:../src/tensorflow_lite/tensorflow/lite/micro/kernels/floor_div.cc ****       return EvalFloorDiv<float>(context, input1, input2, output);
 108:../src/tensorflow_lite/tensorflow/lite/micro/kernels/floor_div.cc ****     }
 109:../src/tensorflow_lite/tensorflow/lite/micro/kernels/floor_div.cc ****     default: {
 110:../src/tensorflow_lite/tensorflow/lite/micro/kernels/floor_div.cc ****       TF_LITE_KERNEL_LOG(context, "Type '%s' is not supported by FLOOR_DIV.",
 3572              		.loc 1 110 0
 3573 0064 0200A0E1 		mov	r0, r2
 3574 0068 145094E5 		ldr	r5, [r4, #20]
 3575              	.LVL367:
 3576 006c FEFFFFEB 		bl	TfLiteTypeGetName
 3577              	.LVL368:
 3578 0070 001000E3 		movw	r1, #:lower16:.LC12
 3579 0074 0020A0E1 		mov	r2, r0
 3580 0078 001040E3 		movt	r1, #:upper16:.LC12
 3581 007c 0400A0E1 		mov	r0, r4
 3582 0080 35FF2FE1 		blx	r5
 3583              	.LVL369:
 111:../src/tensorflow_lite/tensorflow/lite/micro/kernels/floor_div.cc ****                          TfLiteTypeGetName(input1->type));
 112:../src/tensorflow_lite/tensorflow/lite/micro/kernels/floor_div.cc ****       return kTfLiteError;
 113:../src/tensorflow_lite/tensorflow/lite/micro/kernels/floor_div.cc ****     }
 114:../src/tensorflow_lite/tensorflow/lite/micro/kernels/floor_div.cc ****   }
 115:../src/tensorflow_lite/tensorflow/lite/micro/kernels/floor_div.cc **** }
 3584              		.loc 1 115 0
 3585 0084 0100A0E3 		mov	r0, #1
 3586 0088 F081BDE8 		pop	{r4, r5, r6, r7, r8, pc}
 3587              	.LVL370:
 3588              	.L409:
 107:../src/tensorflow_lite/tensorflow/lite/micro/kernels/floor_div.cc ****     }
 3589              		.loc 1 107 0
 3590 008c 0030A0E1 		mov	r3, r0
 3591 0090 0720A0E1 		mov	r2, r7
 3592 0094 0610A0E1 		mov	r1, r6
 3593 0098 0400A0E1 		mov	r0, r4
 3594              		.loc 1 115 0
 3595 009c F041BDE8 		pop	{r4, r5, r6, r7, r8, lr}
 3596              		.cfi_remember_state
 3597              		.cfi_restore 14
 3598              		.cfi_restore 8
 3599              		.cfi_restore 7
 3600              		.cfi_restore 6
 3601              		.cfi_restore 5
 3602              		.cfi_restore 4
 3603              		.cfi_def_cfa_offset 0
 3604              	.LVL371:
 107:../src/tensorflow_lite/tensorflow/lite/micro/kernels/floor_div.cc ****     }
 3605              		.loc 1 107 0
 3606 00a0 FEFFFFEA 		b	_ZN6tflite12_GLOBAL__N_112EvalFloorDivIfEE12TfLiteStatusP13TfLiteContextPK16TfLiteEvalTensorS7_P
 3607              	.LVL372:
 3608              	.L401:
 3609              		.cfi_restore_state
 3610              	.LBB865:
 3611              	.LBB850:
 3612              	.LBB848:
  34:C:/Renesas/e2studio_2021_01_workspace_RZA2M_ANPR/ANPR_RZA2M_EBK/src/tensorflow_lite/tensorflow/lite/micro/kernels\kernel_util.h ****   TFLITE_DCHECK(node != nullptr);
 3613              		.loc 3 34 0
 3614 00a4 FEFFFFEB 		bl	abort
 3615              	.LVL373:
 3616              	.LBE848:
 3617              	.LBE850:
 3618              	.LBE865:
 3619              		.cfi_endproc
 3620              	.LFE4175:
 3621              		.fnend
 3623              		.section	.text._ZN6tflite18Register_FLOOR_DIVEv,"ax",%progbits
 3624              		.align	2
 3625              		.global	_ZN6tflite18Register_FLOOR_DIVEv
 3626              		.syntax unified
 3627              		.arm
 3628              		.fpu neon
 3630              	_ZN6tflite18Register_FLOOR_DIVEv:
 3631              		.fnstart
 3632              	.LFB4176:
 116:../src/tensorflow_lite/tensorflow/lite/micro/kernels/floor_div.cc **** 
 117:../src/tensorflow_lite/tensorflow/lite/micro/kernels/floor_div.cc **** }  // namespace
 118:../src/tensorflow_lite/tensorflow/lite/micro/kernels/floor_div.cc **** 
 119:../src/tensorflow_lite/tensorflow/lite/micro/kernels/floor_div.cc **** TfLiteRegistration Register_FLOOR_DIV() {
 3633              		.loc 1 119 0
 3634              		.cfi_startproc
 3635              		@ args = 0, pretend = 0, frame = 0
 3636              		@ frame_needed = 0, uses_anonymous_args = 0
 3637              	.LVL374:
 120:../src/tensorflow_lite/tensorflow/lite/micro/kernels/floor_div.cc ****   return {/*init=*/Init,
 121:../src/tensorflow_lite/tensorflow/lite/micro/kernels/floor_div.cc ****           /*free=*/nullptr,
 122:../src/tensorflow_lite/tensorflow/lite/micro/kernels/floor_div.cc ****           /*prepare=*/Prepare,
 123:../src/tensorflow_lite/tensorflow/lite/micro/kernels/floor_div.cc ****           /*invoke=*/Eval,
 124:../src/tensorflow_lite/tensorflow/lite/micro/kernels/floor_div.cc ****           /*profiling_string=*/nullptr,
 125:../src/tensorflow_lite/tensorflow/lite/micro/kernels/floor_div.cc ****           /*builtin_code=*/0,
 126:../src/tensorflow_lite/tensorflow/lite/micro/kernels/floor_div.cc ****           /*custom_name=*/nullptr,
 127:../src/tensorflow_lite/tensorflow/lite/micro/kernels/floor_div.cc ****           /*version=*/0};
 3638              		.loc 1 127 0
 3639 0000 00C000E3 		movw	ip, #:lower16:.LANCHOR0
 119:../src/tensorflow_lite/tensorflow/lite/micro/kernels/floor_div.cc ****   return {/*init=*/Init,
 3640              		.loc 1 119 0
 3641 0004 10402DE9 		push	{r4, lr}
 3642              		.cfi_def_cfa_offset 8
 3643              		.cfi_offset 4, -8
 3644              		.cfi_offset 14, -4
 3645              		.loc 1 127 0
 3646 0008 00C040E3 		movt	ip, #:upper16:.LANCHOR0
 119:../src/tensorflow_lite/tensorflow/lite/micro/kernels/floor_div.cc ****   return {/*init=*/Init,
 3647              		.loc 1 119 0
 3648 000c 0040A0E1 		mov	r4, r0
 3649              		.loc 1 127 0
 3650 0010 00E0A0E1 		mov	lr, r0
 3651 0014 0F00BCE8 		ldmia	ip!, {r0, r1, r2, r3}
 3652              	.LVL375:
 3653 0018 0F00AEE8 		stmia	lr!, {r0, r1, r2, r3}
 3654 001c 0F009CE8 		ldm	ip, {r0, r1, r2, r3}
 3655 0020 0F008EE8 		stm	lr, {r0, r1, r2, r3}
 128:../src/tensorflow_lite/tensorflow/lite/micro/kernels/floor_div.cc **** }
 3656              		.loc 1 128 0
 3657 0024 0400A0E1 		mov	r0, r4
 3658 0028 1080BDE8 		pop	{r4, pc}
 3659              		.cfi_endproc
 3660              	.LFE4176:
 3661              		.cantunwind
 3662              		.fnend
 3664              		.section	.rodata
 3665              		.align	2
 3666              		.set	.LANCHOR0,. + 0
 3667              	.LC0:
 3668 0000 00000000 		.word	_ZN6tflite12_GLOBAL__N_14InitEP13TfLiteContextPKcj
 3669 0004 00000000 		.word	0
 3670 0008 00000000 		.word	_ZN6tflite12_GLOBAL__N_17PrepareEP13TfLiteContextP10TfLiteNode
 3671 000c 00000000 		.word	_ZN6tflite12_GLOBAL__N_14EvalEP13TfLiteContextP10TfLiteNode
 3672 0010 00000000 		.word	0
 3673 0014 00000000 		.word	0
 3674 0018 00000000 		.word	0
 3675 001c 00000000 		.word	0
 3676              		.section	.rodata._ZN6tflite12_GLOBAL__N_112EvalFloorDivIfEE12TfLiteStatusP13TfLiteContextPK16TfLit
 3677              		.align	2
 3678              	.LC11:
 3679 0000 44697669 		.ascii	"Division by 0\000"
 3679      73696F6E 
 3679      20627920 
 3679      3000
 3680              		.section	.rodata._ZN6tflite12_GLOBAL__N_14EvalEP13TfLiteContextP10TfLiteNode.str1.4,"aMS",%progbit
 3681              		.align	2
 3682              	.LC12:
 3683 0000 54797065 		.ascii	"Type '%s' is not supported by FLOOR_DIV.\000"
 3683      20272573 
 3683      27206973 
 3683      206E6F74 
 3683      20737570 
 3684              		.section	.rodata._ZN6tflite12_GLOBAL__N_17PrepareEP13TfLiteContextP10TfLiteNode.str1.4,"aMS",%prog
 3685              		.align	2
 3686              	.LC1:
 3687 0000 2E2E2F73 		.ascii	"../src/tensorflow_lite/tensorflow/lite/micro/kernel"
 3687      72632F74 
 3687      656E736F 
 3687      72666C6F 
 3687      775F6C69 
 3688 0033 732F666C 		.ascii	"s/floor_div.cc\000"
 3688      6F6F725F 
 3688      6469762E 
 3688      636300
 3689 0042 0000     		.space	2
 3690              	.LC2:
 3691 0044 25733A25 		.ascii	"%s:%d %s != %s (%d != %d)\000"
 3691      64202573 
 3691      20213D20 
 3691      25732028 
 3691      25642021 
 3692 005e 0000     		.space	2
 3693              	.LC3:
 3694 0060 3200     		.ascii	"2\000"
 3695 0062 0000     		.space	2
 3696              	.LC4:
 3697 0064 4E756D49 		.ascii	"NumInputs(node)\000"
 3697      6E707574 
 3697      73286E6F 
 3697      64652900 
 3698              	.LC5:
 3699 0074 3100     		.ascii	"1\000"
 3700 0076 0000     		.space	2
 3701              	.LC6:
 3702 0078 4E756D4F 		.ascii	"NumOutputs(node)\000"
 3702      75747075 
 3702      7473286E 
 3702      6F646529 
 3702      00
 3703 0089 000000   		.space	3
 3704              	.LC7:
 3705 008c 25733A25 		.ascii	"%s:%d %s != %s (%s != %s)\000"
 3705      64202573 
 3705      20213D20 
 3705      25732028 
 3705      25732021 
 3706 00a6 0000     		.space	2
 3707              	.LC8:
 3708 00a8 696E7075 		.ascii	"input2->type\000"
 3708      74322D3E 
 3708      74797065 
 3708      00
 3709 00b5 000000   		.space	3
 3710              	.LC9:
 3711 00b8 696E7075 		.ascii	"input1->type\000"
 3711      74312D3E 
 3711      74797065 
 3711      00
 3712 00c5 000000   		.space	3
 3713              	.LC10:
 3714 00c8 6F757470 		.ascii	"output->type\000"
 3714      75742D3E 
 3714      74797065 
 3714      00
 3715              		.text
 3716              	.Letext0:
 3717              		.file 8 "c:\\program files (x86)\\gnu tools arm embedded\\6 2017-q2-update\\arm-none-eabi\\include
 3718              		.file 9 "c:\\program files (x86)\\gnu tools arm embedded\\6 2017-q2-update\\arm-none-eabi\\include
 3719              		.file 10 "c:\\program files (x86)\\gnu tools arm embedded\\6 2017-q2-update\\arm-none-eabi\\includ
 3720              		.file 11 "c:\\program files (x86)\\gnu tools arm embedded\\6 2017-q2-update\\arm-none-eabi\\includ
 3721              		.file 12 "c:\\program files (x86)\\gnu tools arm embedded\\6 2017-q2-update\\arm-none-eabi\\includ
 3722              		.file 13 "c:\\program files (x86)\\gnu tools arm embedded\\6 2017-q2-update\\arm-none-eabi\\includ
 3723              		.file 14 "c:\\program files (x86)\\gnu tools arm embedded\\6 2017-q2-update\\arm-none-eabi\\includ
 3724              		.file 15 "c:\\program files (x86)\\gnu tools arm embedded\\6 2017-q2-update\\arm-none-eabi\\includ
 3725              		.file 16 "c:\\program files (x86)\\gnu tools arm embedded\\6 2017-q2-update\\arm-none-eabi\\includ
 3726              		.file 17 "c:\\program files (x86)\\gnu tools arm embedded\\6 2017-q2-update\\arm-none-eabi\\includ
 3727              		.file 18 "c:\\program files (x86)\\gnu tools arm embedded\\6 2017-q2-update\\arm-none-eabi\\includ
 3728              		.file 19 "c:\\program files (x86)\\gnu tools arm embedded\\6 2017-q2-update\\arm-none-eabi\\includ
 3729              		.file 20 "c:\\program files (x86)\\gnu tools arm embedded\\6 2017-q2-update\\arm-none-eabi\\includ
 3730              		.file 21 "c:\\program files (x86)\\gnu tools arm embedded\\6 2017-q2-update\\arm-none-eabi\\includ
 3731              		.file 22 "c:\\program files (x86)\\gnu tools arm embedded\\6 2017-q2-update\\arm-none-eabi\\includ
 3732              		.file 23 "c:\\program files (x86)\\gnu tools arm embedded\\6 2017-q2-update\\arm-none-eabi\\includ
 3733              		.file 24 "c:\\program files (x86)\\gnu tools arm embedded\\6 2017-q2-update\\arm-none-eabi\\includ
 3734              		.file 25 "c:\\program files (x86)\\gnu tools arm embedded\\6 2017-q2-update\\arm-none-eabi\\includ
 3735              		.file 26 "c:\\program files (x86)\\gnu tools arm embedded\\6 2017-q2-update\\arm-none-eabi\\includ
 3736              		.file 27 "c:\\program files (x86)\\gnu tools arm embedded\\6 2017-q2-update\\arm-none-eabi\\includ
 3737              		.file 28 "c:\\program files (x86)\\gnu tools arm embedded\\6 2017-q2-update\\arm-none-eabi\\includ
 3738              		.file 29 "c:\\program files (x86)\\gnu tools arm embedded\\6 2017-q2-update\\arm-none-eabi\\includ
 3739              		.file 30 "c:\\program files (x86)\\gnu tools arm embedded\\6 2017-q2-update\\arm-none-eabi\\includ
 3740              		.file 31 "c:\\program files (x86)\\gnu tools arm embedded\\6 2017-q2-update\\lib\\gcc\\arm-none-ea
 3741              		.file 32 "c:\\program files (x86)\\gnu tools arm embedded\\6 2017-q2-update\\arm-none-eabi\\includ
 3742              		.file 33 "c:\\program files (x86)\\gnu tools arm embedded\\6 2017-q2-update\\arm-none-eabi\\includ
 3743              		.file 34 "c:\\program files (x86)\\gnu tools arm embedded\\6 2017-q2-update\\arm-none-eabi\\includ
 3744              		.file 35 "c:\\program files (x86)\\gnu tools arm embedded\\6 2017-q2-update\\arm-none-eabi\\includ
 3745              		.file 36 "c:\\program files (x86)\\gnu tools arm embedded\\6 2017-q2-update\\arm-none-eabi\\includ
 3746              		.file 37 "c:\\program files (x86)\\gnu tools arm embedded\\6 2017-q2-update\\lib\\gcc\\arm-none-ea
 3747              		.file 38 "<built-in>"
 3748              		.file 39 "c:\\program files (x86)\\gnu tools arm embedded\\6 2017-q2-update\\arm-none-eabi\\includ
 3749              		.file 40 "c:\\program files (x86)\\gnu tools arm embedded\\6 2017-q2-update\\arm-none-eabi\\includ
 3750              		.file 41 "c:\\program files (x86)\\gnu tools arm embedded\\6 2017-q2-update\\arm-none-eabi\\includ
 3751              		.file 42 "c:\\program files (x86)\\gnu tools arm embedded\\6 2017-q2-update\\arm-none-eabi\\includ
 3752              		.file 43 "c:\\program files (x86)\\gnu tools arm embedded\\6 2017-q2-update\\arm-none-eabi\\includ
 3753              		.file 44 "c:\\program files (x86)\\gnu tools arm embedded\\6 2017-q2-update\\arm-none-eabi\\includ
 3754              		.file 45 "c:\\program files (x86)\\gnu tools arm embedded\\6 2017-q2-update\\arm-none-eabi\\includ
 3755              		.file 46 "c:\\program files (x86)\\gnu tools arm embedded\\6 2017-q2-update\\arm-none-eabi\\includ
 3756              		.file 47 "c:\\program files (x86)\\gnu tools arm embedded\\6 2017-q2-update\\arm-none-eabi\\includ
 3757              		.file 48 "C:/Renesas/e2studio_2021_01_workspace_RZA2M_ANPR/ANPR_RZA2M_EBK/src/tensorflow_lite/tens
 3758              		.file 49 "C:/Renesas/e2studio_2021_01_workspace_RZA2M_ANPR/ANPR_RZA2M_EBK/src/tensorflow_lite/tens
 3759              		.file 50 "C:/Renesas/e2studio_2021_01_workspace_RZA2M_ANPR/ANPR_RZA2M_EBK/src/tensorflow_lite/tens
 3760              		.file 51 "C:/Renesas/e2studio_2021_01_workspace_RZA2M_ANPR/ANPR_RZA2M_EBK/src/tensorflow_lite/thir
DEFINED SYMBOLS
                            *ABS*:00000000 floor_div.cc
C:\Users\a5050395\AppData\Local\Temp\ccifsyP3.s:17     .text._ZN6tflite12_GLOBAL__N_14InitEP13TfLiteContextPKcj:00000000 $a
C:\Users\a5050395\AppData\Local\Temp\ccifsyP3.s:22     .text._ZN6tflite12_GLOBAL__N_14InitEP13TfLiteContextPKcj:00000000 _ZN6tflite12_GLOBAL__N_14InitEP13TfLiteContextPKcj
.ARM.exidx.text._ZN6tflite12_GLOBAL__N_14InitEP13TfLiteContextPKcj:00000000 $d
C:\Users\a5050395\AppData\Local\Temp\ccifsyP3.s:42     .text._ZN6tflite12_GLOBAL__N_17PrepareEP13TfLiteContextP10TfLiteNode:00000000 $a
C:\Users\a5050395\AppData\Local\Temp\ccifsyP3.s:47     .text._ZN6tflite12_GLOBAL__N_17PrepareEP13TfLiteContextP10TfLiteNode:00000000 _ZN6tflite12_GLOBAL__N_17PrepareEP13TfLiteContextP10TfLiteNode
C:\Users\a5050395\AppData\Local\Temp\ccifsyP3.s:3698   .rodata._ZN6tflite12_GLOBAL__N_17PrepareEP13TfLiteContextP10TfLiteNode.str1.4:00000074 .LC5
C:\Users\a5050395\AppData\Local\Temp\ccifsyP3.s:3701   .rodata._ZN6tflite12_GLOBAL__N_17PrepareEP13TfLiteContextP10TfLiteNode.str1.4:00000078 .LC6
C:\Users\a5050395\AppData\Local\Temp\ccifsyP3.s:3686   .rodata._ZN6tflite12_GLOBAL__N_17PrepareEP13TfLiteContextP10TfLiteNode.str1.4:00000000 .LC1
C:\Users\a5050395\AppData\Local\Temp\ccifsyP3.s:3690   .rodata._ZN6tflite12_GLOBAL__N_17PrepareEP13TfLiteContextP10TfLiteNode.str1.4:00000044 .LC2
C:\Users\a5050395\AppData\Local\Temp\ccifsyP3.s:3713   .rodata._ZN6tflite12_GLOBAL__N_17PrepareEP13TfLiteContextP10TfLiteNode.str1.4:000000c8 .LC10
C:\Users\a5050395\AppData\Local\Temp\ccifsyP3.s:3710   .rodata._ZN6tflite12_GLOBAL__N_17PrepareEP13TfLiteContextP10TfLiteNode.str1.4:000000b8 .LC9
C:\Users\a5050395\AppData\Local\Temp\ccifsyP3.s:3704   .rodata._ZN6tflite12_GLOBAL__N_17PrepareEP13TfLiteContextP10TfLiteNode.str1.4:0000008c .LC7
C:\Users\a5050395\AppData\Local\Temp\ccifsyP3.s:3693   .rodata._ZN6tflite12_GLOBAL__N_17PrepareEP13TfLiteContextP10TfLiteNode.str1.4:00000060 .LC3
C:\Users\a5050395\AppData\Local\Temp\ccifsyP3.s:3696   .rodata._ZN6tflite12_GLOBAL__N_17PrepareEP13TfLiteContextP10TfLiteNode.str1.4:00000064 .LC4
C:\Users\a5050395\AppData\Local\Temp\ccifsyP3.s:3707   .rodata._ZN6tflite12_GLOBAL__N_17PrepareEP13TfLiteContextP10TfLiteNode.str1.4:000000a8 .LC8
.ARM.exidx.text._ZN6tflite12_GLOBAL__N_17PrepareEP13TfLiteContextP10TfLiteNode:00000000 $d
C:\Users\a5050395\AppData\Local\Temp\ccifsyP3.s:284    .text._ZN6tflite12_GLOBAL__N_112EvalFloorDivIfEE12TfLiteStatusP13TfLiteContextPK16TfLiteEvalTensorS7_PS5_:00000000 $a
C:\Users\a5050395\AppData\Local\Temp\ccifsyP3.s:289    .text._ZN6tflite12_GLOBAL__N_112EvalFloorDivIfEE12TfLiteStatusP13TfLiteContextPK16TfLiteEvalTensorS7_PS5_:00000000 _ZN6tflite12_GLOBAL__N_112EvalFloorDivIfEE12TfLiteStatusP13TfLiteContextPK16TfLiteEvalTensorS7_PS5_
C:\Users\a5050395\AppData\Local\Temp\ccifsyP3.s:3678   .rodata._ZN6tflite12_GLOBAL__N_112EvalFloorDivIfEE12TfLiteStatusP13TfLiteContextPK16TfLiteEvalTensorS7_PS5_.str1.4:00000000 .LC11
.ARM.extab.text._ZN6tflite12_GLOBAL__N_112EvalFloorDivIfEE12TfLiteStatusP13TfLiteContextPK16TfLiteEvalTensorS7_PS5_:00000000 $d
.ARM.exidx.text._ZN6tflite12_GLOBAL__N_112EvalFloorDivIfEE12TfLiteStatusP13TfLiteContextPK16TfLiteEvalTensorS7_PS5_:00000000 $d
C:\Users\a5050395\AppData\Local\Temp\ccifsyP3.s:3474   .text._ZN6tflite12_GLOBAL__N_14EvalEP13TfLiteContextP10TfLiteNode:00000000 $a
C:\Users\a5050395\AppData\Local\Temp\ccifsyP3.s:3479   .text._ZN6tflite12_GLOBAL__N_14EvalEP13TfLiteContextP10TfLiteNode:00000000 _ZN6tflite12_GLOBAL__N_14EvalEP13TfLiteContextP10TfLiteNode
C:\Users\a5050395\AppData\Local\Temp\ccifsyP3.s:3682   .rodata._ZN6tflite12_GLOBAL__N_14EvalEP13TfLiteContextP10TfLiteNode.str1.4:00000000 .LC12
.ARM.exidx.text._ZN6tflite12_GLOBAL__N_14EvalEP13TfLiteContextP10TfLiteNode:00000000 $d
C:\Users\a5050395\AppData\Local\Temp\ccifsyP3.s:3624   .text._ZN6tflite18Register_FLOOR_DIVEv:00000000 $a
C:\Users\a5050395\AppData\Local\Temp\ccifsyP3.s:3630   .text._ZN6tflite18Register_FLOOR_DIVEv:00000000 _ZN6tflite18Register_FLOOR_DIVEv
C:\Users\a5050395\AppData\Local\Temp\ccifsyP3.s:3666   .rodata:00000000 .LANCHOR0
.ARM.exidx.text._ZN6tflite18Register_FLOOR_DIVEv:00000000 $d
C:\Users\a5050395\AppData\Local\Temp\ccifsyP3.s:3665   .rodata:00000000 $d
C:\Users\a5050395\AppData\Local\Temp\ccifsyP3.s:3677   .rodata._ZN6tflite12_GLOBAL__N_112EvalFloorDivIfEE12TfLiteStatusP13TfLiteContextPK16TfLiteEvalTensorS7_PS5_.str1.4:00000000 $d
C:\Users\a5050395\AppData\Local\Temp\ccifsyP3.s:3681   .rodata._ZN6tflite12_GLOBAL__N_14EvalEP13TfLiteContextP10TfLiteNode.str1.4:00000000 $d
C:\Users\a5050395\AppData\Local\Temp\ccifsyP3.s:3685   .rodata._ZN6tflite12_GLOBAL__N_17PrepareEP13TfLiteContextP10TfLiteNode.str1.4:00000000 $d
                     .debug_frame:00000010 $d
                           .group:00000000 wm4.0.3e1481985cce1e923928453d8be0a65b
                           .group:00000000 wm4.cconfig.h.31.1472b8c7bd4952a63a52f3f4f718f872
                           .group:00000000 wm4.cpu_defines.h.31.54d44f9d3e7c42875c5a7fd49795eb93
                           .group:00000000 wm4.cconfig.h.515.5e729db314ae74226e291b4ae081e353
                           .group:00000000 wm4.cpp_type_traits.h.33.9f2bfd8c4471a9a299f6da3ec24c745c
                           .group:00000000 wm4._newlib_version.h.4.3572908597b70d672d181fc7fc501c19
                           .group:00000000 wm4.newlib.h.21.59901f4bf241ab46c63694665baa7297
                           .group:00000000 wm4.features.h.22.37852b648068a281464730a5a4cc748e
                           .group:00000000 wm4.config.h.219.65a553ab5bef5482f0d7880b0d33015e
                           .group:00000000 wm4._ansi.h.23.1ee1144430bedaab1a14c7b57a6c8384
                           .group:00000000 wm4.stddef.h.39.fa2e86d241f4df50b9327c72832885e1
                           .group:00000000 wm4._default_types.h.6.959254cf5f09734ea7516c89e8bb21bd
                           .group:00000000 wm4.lock.h.2.1461d1fff82dffe8bfddc23307f6484f
                           .group:00000000 wm4._types.h.125.5cf8a495f1f7ef36777ad868a1e32068
                           .group:00000000 wm4.stddef.h.161.7e98c9c86da0ed2d27af2ef92af7d013
                           .group:00000000 wm4._types.h.183.c226d164ceca1f2ecb9ae9360c54a098
                           .group:00000000 wm4.reent.h.17.23b059516345f8f5abfa01ddc379570f
                           .group:00000000 wm4.cdefs.h.47.9bc8274c84fddbf05edd550eb0bf48cd
                           .group:00000000 wm4.math.h.13.e7cbdea54f4da98ab8f7fad4d23502b2
                           .group:00000000 wm4.cmath.46.d6e5b776115d39075860ed881d18f087
                           .group:00000000 wm4.atomic_lockfree_defines.h.31.d5c6334fb1e95c9462b052951f1411df
                           .group:00000000 wm4.exception_defines.h.31.ca6841b9be3287386aafc5c717935b2e
                           .group:00000000 wm4.concept_check.h.31.f19605d278e56917c68a56d378be308c
                           .group:00000000 wm4.type_traits.30.2c7323a483bcd7601e8b71d2546ae284
                           .group:00000000 wm4.move.h.152.41d7b9e6779674d169b7813982cfa003
                           .group:00000000 wm4.numeric_traits.h.30.aa01a98564b7e55086aad9e53c7e5c53
                           .group:00000000 wm4.assertions.h.30.51d443923f0d242550e04246a7819b39
                           .group:00000000 wm4.stl_iterator.h.1250.45f349a262f1b0d836d8edbc4b7b98ff
                           .group:00000000 wm4.debug.h.30.5c1f223b12199e851d4d42805b788ccf
                           .group:00000000 wm4.stl_algobase.h.491.aa250b69c90aafa2a0a62b8c58cd5f30
                           .group:00000000 wm4.wchar.h.2.f837619576d797e948eb58c44fac4678
                           .group:00000000 wm4.stddef.h.161.9f48187563b2a85291a91832aa425498
                           .group:00000000 wm4.stdarg.h.34.3a23a216c0c293b3d2ea2e89281481e6
                           .group:00000000 wm4.wchar.h.41.bce54f0deafe8a72ebb0005417e8a086
                           .group:00000000 wm4.cwchar.48.c4e882638bf84f6da89479dda6fe8e17
                           .group:00000000 wm4.stdint.h.4.659be5aa44c4ab4eb7c7cc2b24d8ceee
                           .group:00000000 wm4._intsup.h.10.cce27fed8484c08a33f522034c30d2b5
                           .group:00000000 wm4._stdint.h.10.c24fa3af3bc1706662bb5593a907e841
                           .group:00000000 wm4.stdint.h.23.4c107c5a20920bfc6e94fb2672bbd9ee
                           .group:00000000 wm4.allocator.h.52.0ceafb36dc1b82dbfa6b05003082e3f5
                           .group:00000000 wm4.locale.h.8.27d0fe4c0abbb6f8893a1fa7c1799fd9
                           .group:00000000 wm4.stddef.h.161.38688f2eb958a8ed58fdb61ffe554c94
                           .group:00000000 wm4.locale.h.16.524572cf3c2ed9856516685acdc598fe
                           .group:00000000 wm4.clocale.45.c36d2d5b631a875aa5273176b54fdf0f
                           .group:00000000 wm4.ctype.h.2.da310d2ad165ccf8b86542f76fdb938d
                           .group:00000000 wm4.cctype.45.0da5714876b0be7f2d816b53d9670403
                           .group:00000000 wm4.gthr.h.27.ceb1c66b926f052afcba57e8784df0d4
                           .group:00000000 wm4.gthrdefault.h.27.edc94d4398c0534988962be77dc3c2e1
                           .group:00000000 wm4.atomic_word.h.30.9e0ac69fd462d5e650933e05133b4afa
                           .group:00000000 wm4.alloc_traits.h.31.c41c7c4789404962122a4e991dfa3abf
                           .group:00000000 wm4.cstdlib.44.52c5efdfb0f3c176bd11e611a0b94959
                           .group:00000000 wm4.stdlib.h.13.4ed386f5c1a80d71e72172885d946ef2
                           .group:00000000 wm4.stdlib.h.56.b4ddaf162082f284ba35b4444af99a9a
                           .group:00000000 wm4.cstdlib.76.ae666499c8f9b0ace1b4b23fe143da2c
                           .group:00000000 wm4.stdio.h.27.3fc80220048df77954e38daec3bb9670
                           .group:00000000 wm4.types.h.40.e8c16e7ec36ba55f133d0616070e25fc
                           .group:00000000 wm4.types.h.114.fb65732f4f5f288a036a25898de2c91f
                           .group:00000000 wm4.stdio.h.2.4aa87247282eca6c8f36f9de33d8df1a
                           .group:00000000 wm4.stdio.h.81.c3e9cb15e5af2807c4650345134c1a8a
                           .group:00000000 wm4.cstdio.45.ba8d321feb18bfc8923454067605c368
                           .group:00000000 wm4.errno.h.2.ba016d646105af6cad23be83630b6a3f
                           .group:00000000 wm4.errno.h.9.1ecd7b1049497a0ab61da0f6cbd4b0c6
                           .group:00000000 wm4.functional_hash.h.31.bccc014fee6fc3f930045d809df6f486
                           .group:00000000 wm4.functional.549.0bc5b448cf999863d3841495cd6fe920
                           .group:00000000 wm4.limits.38.55aefcf041805b6211ca3649dd2ab1b5
                           .group:00000000 wm4.string.h.8.c4b8571ce60dff2817f43fec8b86aecd
                           .group:00000000 wm4.cstring.45.6ab09de7fb97b576e744347688ddc8d7
                           .group:00000000 wm4.op_macros.h.42.7b718cb416a067e7bb07e7699647769b
                           .group:00000000 wm4.compatibility.h.23.702d6356326ea59aded8ef5c6c4626d5
                           .group:00000000 wm4.stdbool.h.29.01580e438512fc255c0619569742ffd3
                           .group:00000000 wm4.c_api_types.h.20.9b09175981ed746180e205cc0b4b2bfd
                           .group:00000000 wm4.common.h.77.124de099ec0ac4f95ebf1618a5f42cf6
                           .group:00000000 wm4.assert.h.11.a5d97ca77559a42890313c4941c01fd9
                           .group:00000000 wm4.cmath.44.b3bcbb5fe53ec6617dec8aa8eb7b03cc
                           .group:00000000 wm4.detect_platform.h.19.a1891273c0cad215067ddb8219400136
                           .group:00000000 wm4.fixedpoint.h.567.8a6371d9452be19811601bace78b0abc
                           .group:00000000 wm4.cppmath.h.27.51580d700716589df4b364298e2ef577
                           .group:00000000 wm4.neon_check.h.16.79a4dcb572cbeac06c4924f1f20cb68d
                           .group:00000000 wm4.builtin_op_data.h.16.b961d1222c948363e3f10ad99298fd3f

UNDEFINED SYMBOLS
_ZN6tflite12GetInputSafeEPK13TfLiteContextPK10TfLiteNodeiPPK12TfLiteTensor
_ZN6tflite13GetOutputSafeEPK13TfLiteContextPK10TfLiteNodeiPP12TfLiteTensor
TfLiteTypeGetName
__aeabi_unwind_cpp_pr0
__gxx_personality_v0
_ZN6tflite12ElementCountERK14TfLiteIntArray
_ZN6tflite5micro14HaveSameShapesEPK16TfLiteEvalTensorS3_
_ZN6tflite5micro14GetTensorShapeEPK16TfLiteEvalTensor
abort
floor
_ZdaPv
memcpy
__cxa_end_cleanup
