   1              		.cpu cortex-a9
   2              		.eabi_attribute 28, 1
   3              		.eabi_attribute 20, 1
   4              		.eabi_attribute 21, 1
   5              		.eabi_attribute 23, 3
   6              		.eabi_attribute 24, 1
   7              		.eabi_attribute 25, 1
   8              		.eabi_attribute 26, 1
   9              		.eabi_attribute 30, 2
  10              		.eabi_attribute 34, 0
  11              		.eabi_attribute 18, 4
  12              		.file	"log_softmax.cc"
  13              		.text
  14              	.Ltext0:
  15              		.cfi_sections	.debug_frame
  16              		.section	.text._ZN6tflite12_GLOBAL__N_117LogSoftmaxPrepareEP13TfLiteContextP10TfLiteNode,"ax",%pro
  17              		.align	2
  18              		.syntax unified
  19              		.arm
  20              		.fpu neon
  22              	_ZN6tflite12_GLOBAL__N_117LogSoftmaxPrepareEP13TfLiteContextP10TfLiteNode:
  23              		.fnstart
  24              	.LFB4172:
  25              		.file 1 "../src/tensorflow_lite/tensorflow/lite/micro/kernels/log_softmax.cc"
   1:../src/tensorflow_lite/tensorflow/lite/micro/kernels/log_softmax.cc **** /* Copyright 2021 The TensorFlow Authors. All Rights Reserved.
   2:../src/tensorflow_lite/tensorflow/lite/micro/kernels/log_softmax.cc **** 
   3:../src/tensorflow_lite/tensorflow/lite/micro/kernels/log_softmax.cc **** Licensed under the Apache License, Version 2.0 (the "License");
   4:../src/tensorflow_lite/tensorflow/lite/micro/kernels/log_softmax.cc **** you may not use this file except in compliance with the License.
   5:../src/tensorflow_lite/tensorflow/lite/micro/kernels/log_softmax.cc **** You may obtain a copy of the License at
   6:../src/tensorflow_lite/tensorflow/lite/micro/kernels/log_softmax.cc **** 
   7:../src/tensorflow_lite/tensorflow/lite/micro/kernels/log_softmax.cc ****     http://www.apache.org/licenses/LICENSE-2.0
   8:../src/tensorflow_lite/tensorflow/lite/micro/kernels/log_softmax.cc **** 
   9:../src/tensorflow_lite/tensorflow/lite/micro/kernels/log_softmax.cc **** Unless required by applicable law or agreed to in writing, software
  10:../src/tensorflow_lite/tensorflow/lite/micro/kernels/log_softmax.cc **** distributed under the License is distributed on an "AS IS" BASIS,
  11:../src/tensorflow_lite/tensorflow/lite/micro/kernels/log_softmax.cc **** WITHOUT WARRANTIES OR CONDITIONS OF ANY KIND, either express or implied.
  12:../src/tensorflow_lite/tensorflow/lite/micro/kernels/log_softmax.cc **** See the License for the specific language governing permissions and
  13:../src/tensorflow_lite/tensorflow/lite/micro/kernels/log_softmax.cc **** limitations under the License.
  14:../src/tensorflow_lite/tensorflow/lite/micro/kernels/log_softmax.cc **** ==============================================================================*/
  15:../src/tensorflow_lite/tensorflow/lite/micro/kernels/log_softmax.cc **** #include "tensorflow/lite/kernels/internal/reference/log_softmax.h"
  16:../src/tensorflow_lite/tensorflow/lite/micro/kernels/log_softmax.cc **** 
  17:../src/tensorflow_lite/tensorflow/lite/micro/kernels/log_softmax.cc **** #include <cstddef>
  18:../src/tensorflow_lite/tensorflow/lite/micro/kernels/log_softmax.cc **** #include <cstdint>
  19:../src/tensorflow_lite/tensorflow/lite/micro/kernels/log_softmax.cc **** 
  20:../src/tensorflow_lite/tensorflow/lite/micro/kernels/log_softmax.cc **** #include "tensorflow/lite/c/common.h"
  21:../src/tensorflow_lite/tensorflow/lite/micro/kernels/log_softmax.cc **** #include "tensorflow/lite/kernels/internal/quantization_util.h"
  22:../src/tensorflow_lite/tensorflow/lite/micro/kernels/log_softmax.cc **** #include "tensorflow/lite/kernels/internal/tensor_ctypes.h"
  23:../src/tensorflow_lite/tensorflow/lite/micro/kernels/log_softmax.cc **** #include "tensorflow/lite/kernels/internal/types.h"
  24:../src/tensorflow_lite/tensorflow/lite/micro/kernels/log_softmax.cc **** #include "tensorflow/lite/kernels/kernel_util.h"
  25:../src/tensorflow_lite/tensorflow/lite/micro/kernels/log_softmax.cc **** #include "tensorflow/lite/micro/kernels/kernel_util.h"
  26:../src/tensorflow_lite/tensorflow/lite/micro/kernels/log_softmax.cc **** 
  27:../src/tensorflow_lite/tensorflow/lite/micro/kernels/log_softmax.cc **** namespace tflite {
  28:../src/tensorflow_lite/tensorflow/lite/micro/kernels/log_softmax.cc **** namespace {
  29:../src/tensorflow_lite/tensorflow/lite/micro/kernels/log_softmax.cc **** 
  30:../src/tensorflow_lite/tensorflow/lite/micro/kernels/log_softmax.cc **** // used only with quantized data
  31:../src/tensorflow_lite/tensorflow/lite/micro/kernels/log_softmax.cc **** struct LogSoftmaxOpData {
  32:../src/tensorflow_lite/tensorflow/lite/micro/kernels/log_softmax.cc ****   int32_t input_multiplier;
  33:../src/tensorflow_lite/tensorflow/lite/micro/kernels/log_softmax.cc ****   int32_t input_left_shift;
  34:../src/tensorflow_lite/tensorflow/lite/micro/kernels/log_softmax.cc ****   int32_t reverse_scaling_divisor;
  35:../src/tensorflow_lite/tensorflow/lite/micro/kernels/log_softmax.cc ****   int32_t reverse_scaling_right_shift;
  36:../src/tensorflow_lite/tensorflow/lite/micro/kernels/log_softmax.cc ****   int diff_min;
  37:../src/tensorflow_lite/tensorflow/lite/micro/kernels/log_softmax.cc ****   size_t outer_size;  // number of tensor elements skipping computation axis
  38:../src/tensorflow_lite/tensorflow/lite/micro/kernels/log_softmax.cc ****   size_t depth;       // number of tensor elements on computation axis
  39:../src/tensorflow_lite/tensorflow/lite/micro/kernels/log_softmax.cc **** };
  40:../src/tensorflow_lite/tensorflow/lite/micro/kernels/log_softmax.cc **** 
  41:../src/tensorflow_lite/tensorflow/lite/micro/kernels/log_softmax.cc **** // input/output tensor index
  42:../src/tensorflow_lite/tensorflow/lite/micro/kernels/log_softmax.cc **** constexpr int kInputTensor = 0;
  43:../src/tensorflow_lite/tensorflow/lite/micro/kernels/log_softmax.cc **** constexpr int kOutputTensor = 0;
  44:../src/tensorflow_lite/tensorflow/lite/micro/kernels/log_softmax.cc **** 
  45:../src/tensorflow_lite/tensorflow/lite/micro/kernels/log_softmax.cc **** TfLiteStatus CalculateOpData(TfLiteContext* context, TfLiteNode* node) {
  46:../src/tensorflow_lite/tensorflow/lite/micro/kernels/log_softmax.cc ****   TF_LITE_ENSURE_EQ(context, NumInputs(node), 1);
  47:../src/tensorflow_lite/tensorflow/lite/micro/kernels/log_softmax.cc ****   TF_LITE_ENSURE_EQ(context, NumOutputs(node), 1);
  48:../src/tensorflow_lite/tensorflow/lite/micro/kernels/log_softmax.cc ****   const TfLiteTensor* input;
  49:../src/tensorflow_lite/tensorflow/lite/micro/kernels/log_softmax.cc ****   TF_LITE_ENSURE_OK(context, GetInputSafe(context, node, kInputTensor, &input));
  50:../src/tensorflow_lite/tensorflow/lite/micro/kernels/log_softmax.cc ****   TfLiteTensor* output;
  51:../src/tensorflow_lite/tensorflow/lite/micro/kernels/log_softmax.cc ****   TF_LITE_ENSURE_OK(context,
  52:../src/tensorflow_lite/tensorflow/lite/micro/kernels/log_softmax.cc ****                     GetOutputSafe(context, node, kOutputTensor, &output));
  53:../src/tensorflow_lite/tensorflow/lite/micro/kernels/log_softmax.cc ****   TF_LITE_ENSURE_TYPES_EQ(context, input->type, output->type);
  54:../src/tensorflow_lite/tensorflow/lite/micro/kernels/log_softmax.cc **** 
  55:../src/tensorflow_lite/tensorflow/lite/micro/kernels/log_softmax.cc ****   TF_LITE_ENSURE(context, HaveSameShapes(input, output));
  56:../src/tensorflow_lite/tensorflow/lite/micro/kernels/log_softmax.cc **** 
  57:../src/tensorflow_lite/tensorflow/lite/micro/kernels/log_softmax.cc ****   if (input->type == kTfLiteInt8) {
  58:../src/tensorflow_lite/tensorflow/lite/micro/kernels/log_softmax.cc ****     node->user_data =
  59:../src/tensorflow_lite/tensorflow/lite/micro/kernels/log_softmax.cc ****         context->AllocatePersistentBuffer(context, sizeof(LogSoftmaxOpData));
  60:../src/tensorflow_lite/tensorflow/lite/micro/kernels/log_softmax.cc ****     auto data = static_cast<LogSoftmaxOpData*>(node->user_data);
  61:../src/tensorflow_lite/tensorflow/lite/micro/kernels/log_softmax.cc **** 
  62:../src/tensorflow_lite/tensorflow/lite/micro/kernels/log_softmax.cc ****     // quantization datum
  63:../src/tensorflow_lite/tensorflow/lite/micro/kernels/log_softmax.cc ****     constexpr int32_t kOutputZeroPoint = 127;
  64:../src/tensorflow_lite/tensorflow/lite/micro/kernels/log_softmax.cc ****     constexpr float kOutputScale = 16.0 / 256;
  65:../src/tensorflow_lite/tensorflow/lite/micro/kernels/log_softmax.cc ****     constexpr double kBeta = 1.0;
  66:../src/tensorflow_lite/tensorflow/lite/micro/kernels/log_softmax.cc ****     constexpr int kScaledDiffIntegerBits = 5;
  67:../src/tensorflow_lite/tensorflow/lite/micro/kernels/log_softmax.cc **** 
  68:../src/tensorflow_lite/tensorflow/lite/micro/kernels/log_softmax.cc ****     TF_LITE_ENSURE(context, output->params.scale == kOutputScale);
  69:../src/tensorflow_lite/tensorflow/lite/micro/kernels/log_softmax.cc ****     TF_LITE_ENSURE(context, output->params.zero_point == kOutputZeroPoint);
  70:../src/tensorflow_lite/tensorflow/lite/micro/kernels/log_softmax.cc **** 
  71:../src/tensorflow_lite/tensorflow/lite/micro/kernels/log_softmax.cc ****     int input_left_shift;
  72:../src/tensorflow_lite/tensorflow/lite/micro/kernels/log_softmax.cc ****     int reverse_scaling_right_shift;
  73:../src/tensorflow_lite/tensorflow/lite/micro/kernels/log_softmax.cc ****     tflite::PreprocessLogSoftmaxScalingExp(
  74:../src/tensorflow_lite/tensorflow/lite/micro/kernels/log_softmax.cc ****         kBeta, static_cast<double>(input->params.scale), kScaledDiffIntegerBits,
  75:../src/tensorflow_lite/tensorflow/lite/micro/kernels/log_softmax.cc ****         &data->input_multiplier, &input_left_shift,
  76:../src/tensorflow_lite/tensorflow/lite/micro/kernels/log_softmax.cc ****         &data->reverse_scaling_divisor, &reverse_scaling_right_shift);
  77:../src/tensorflow_lite/tensorflow/lite/micro/kernels/log_softmax.cc ****     data->input_left_shift = static_cast<int32_t>(input_left_shift);
  78:../src/tensorflow_lite/tensorflow/lite/micro/kernels/log_softmax.cc ****     data->reverse_scaling_right_shift =
  79:../src/tensorflow_lite/tensorflow/lite/micro/kernels/log_softmax.cc ****         static_cast<int32_t>(-reverse_scaling_right_shift);
  80:../src/tensorflow_lite/tensorflow/lite/micro/kernels/log_softmax.cc ****     // diff_min has a negative value, and is used to limit the maximum magnitude
  81:../src/tensorflow_lite/tensorflow/lite/micro/kernels/log_softmax.cc ****     // of the diffs, which are <= 0.
  82:../src/tensorflow_lite/tensorflow/lite/micro/kernels/log_softmax.cc ****     data->diff_min =
  83:../src/tensorflow_lite/tensorflow/lite/micro/kernels/log_softmax.cc ****         -tflite::CalculateInputRadius(kScaledDiffIntegerBits, input_left_shift);
  84:../src/tensorflow_lite/tensorflow/lite/micro/kernels/log_softmax.cc **** 
  85:../src/tensorflow_lite/tensorflow/lite/micro/kernels/log_softmax.cc ****     RuntimeShape input_shape = GetTensorShape(input);
  86:../src/tensorflow_lite/tensorflow/lite/micro/kernels/log_softmax.cc ****     const int trailing_dim = input_shape.DimensionsCount() - 1;
  87:../src/tensorflow_lite/tensorflow/lite/micro/kernels/log_softmax.cc ****     data->outer_size =
  88:../src/tensorflow_lite/tensorflow/lite/micro/kernels/log_softmax.cc ****         static_cast<size_t>(FlatSizeSkipDim(input_shape, trailing_dim));
  89:../src/tensorflow_lite/tensorflow/lite/micro/kernels/log_softmax.cc ****     data->depth = static_cast<size_t>(input_shape.Dims(trailing_dim));
  90:../src/tensorflow_lite/tensorflow/lite/micro/kernels/log_softmax.cc ****   }
  91:../src/tensorflow_lite/tensorflow/lite/micro/kernels/log_softmax.cc **** 
  92:../src/tensorflow_lite/tensorflow/lite/micro/kernels/log_softmax.cc ****   return kTfLiteOk;
  93:../src/tensorflow_lite/tensorflow/lite/micro/kernels/log_softmax.cc **** }
  94:../src/tensorflow_lite/tensorflow/lite/micro/kernels/log_softmax.cc **** 
  95:../src/tensorflow_lite/tensorflow/lite/micro/kernels/log_softmax.cc **** TfLiteStatus LogSoftmaxPrepare(TfLiteContext* context, TfLiteNode* node) {
  26              		.loc 1 95 0
  27              		.cfi_startproc
  28              		.cfi_personality 0,__gxx_personality_v0
  29              		.cfi_lsda 0,.LLSDA4172
  30              		@ args = 0, pretend = 0, frame = 40
  31              		@ frame_needed = 0, uses_anonymous_args = 0
  32              	.LVL0:
  33              	.LBB1522:
  34              	.LBB1523:
  35              	.LBB1524:
  36              	.LBB1525:
  37              		.file 2 "C:/Renesas/e2studio_2021_01_workspace_RZA2M_ANPR/ANPR_RZA2M_EBK/src/tensorflow_lite/tenso
   1:C:/Renesas/e2studio_2021_01_workspace_RZA2M_ANPR/ANPR_RZA2M_EBK/src/tensorflow_lite/tensorflow/lite/kernels\kernel_util.h **** /* Copyright 2017 The TensorFlow Authors. All Rights Reserved.
   2:C:/Renesas/e2studio_2021_01_workspace_RZA2M_ANPR/ANPR_RZA2M_EBK/src/tensorflow_lite/tensorflow/lite/kernels\kernel_util.h **** 
   3:C:/Renesas/e2studio_2021_01_workspace_RZA2M_ANPR/ANPR_RZA2M_EBK/src/tensorflow_lite/tensorflow/lite/kernels\kernel_util.h **** Licensed under the Apache License, Version 2.0 (the "License");
   4:C:/Renesas/e2studio_2021_01_workspace_RZA2M_ANPR/ANPR_RZA2M_EBK/src/tensorflow_lite/tensorflow/lite/kernels\kernel_util.h **** you may not use this file except in compliance with the License.
   5:C:/Renesas/e2studio_2021_01_workspace_RZA2M_ANPR/ANPR_RZA2M_EBK/src/tensorflow_lite/tensorflow/lite/kernels\kernel_util.h **** You may obtain a copy of the License at
   6:C:/Renesas/e2studio_2021_01_workspace_RZA2M_ANPR/ANPR_RZA2M_EBK/src/tensorflow_lite/tensorflow/lite/kernels\kernel_util.h **** 
   7:C:/Renesas/e2studio_2021_01_workspace_RZA2M_ANPR/ANPR_RZA2M_EBK/src/tensorflow_lite/tensorflow/lite/kernels\kernel_util.h ****     http://www.apache.org/licenses/LICENSE-2.0
   8:C:/Renesas/e2studio_2021_01_workspace_RZA2M_ANPR/ANPR_RZA2M_EBK/src/tensorflow_lite/tensorflow/lite/kernels\kernel_util.h **** 
   9:C:/Renesas/e2studio_2021_01_workspace_RZA2M_ANPR/ANPR_RZA2M_EBK/src/tensorflow_lite/tensorflow/lite/kernels\kernel_util.h **** Unless required by applicable law or agreed to in writing, software
  10:C:/Renesas/e2studio_2021_01_workspace_RZA2M_ANPR/ANPR_RZA2M_EBK/src/tensorflow_lite/tensorflow/lite/kernels\kernel_util.h **** distributed under the License is distributed on an "AS IS" BASIS,
  11:C:/Renesas/e2studio_2021_01_workspace_RZA2M_ANPR/ANPR_RZA2M_EBK/src/tensorflow_lite/tensorflow/lite/kernels\kernel_util.h **** WITHOUT WARRANTIES OR CONDITIONS OF ANY KIND, either express or implied.
  12:C:/Renesas/e2studio_2021_01_workspace_RZA2M_ANPR/ANPR_RZA2M_EBK/src/tensorflow_lite/tensorflow/lite/kernels\kernel_util.h **** See the License for the specific language governing permissions and
  13:C:/Renesas/e2studio_2021_01_workspace_RZA2M_ANPR/ANPR_RZA2M_EBK/src/tensorflow_lite/tensorflow/lite/kernels\kernel_util.h **** limitations under the License.
  14:C:/Renesas/e2studio_2021_01_workspace_RZA2M_ANPR/ANPR_RZA2M_EBK/src/tensorflow_lite/tensorflow/lite/kernels\kernel_util.h **** ==============================================================================*/
  15:C:/Renesas/e2studio_2021_01_workspace_RZA2M_ANPR/ANPR_RZA2M_EBK/src/tensorflow_lite/tensorflow/lite/kernels\kernel_util.h **** #ifndef TENSORFLOW_LITE_KERNELS_KERNEL_UTIL_H_
  16:C:/Renesas/e2studio_2021_01_workspace_RZA2M_ANPR/ANPR_RZA2M_EBK/src/tensorflow_lite/tensorflow/lite/kernels\kernel_util.h **** #define TENSORFLOW_LITE_KERNELS_KERNEL_UTIL_H_
  17:C:/Renesas/e2studio_2021_01_workspace_RZA2M_ANPR/ANPR_RZA2M_EBK/src/tensorflow_lite/tensorflow/lite/kernels\kernel_util.h **** 
  18:C:/Renesas/e2studio_2021_01_workspace_RZA2M_ANPR/ANPR_RZA2M_EBK/src/tensorflow_lite/tensorflow/lite/kernels\kernel_util.h **** #include <stdint.h>
  19:C:/Renesas/e2studio_2021_01_workspace_RZA2M_ANPR/ANPR_RZA2M_EBK/src/tensorflow_lite/tensorflow/lite/kernels\kernel_util.h **** 
  20:C:/Renesas/e2studio_2021_01_workspace_RZA2M_ANPR/ANPR_RZA2M_EBK/src/tensorflow_lite/tensorflow/lite/kernels\kernel_util.h **** #include <limits>
  21:C:/Renesas/e2studio_2021_01_workspace_RZA2M_ANPR/ANPR_RZA2M_EBK/src/tensorflow_lite/tensorflow/lite/kernels\kernel_util.h **** 
  22:C:/Renesas/e2studio_2021_01_workspace_RZA2M_ANPR/ANPR_RZA2M_EBK/src/tensorflow_lite/tensorflow/lite/kernels\kernel_util.h **** #include "tensorflow/lite/c/builtin_op_data.h"
  23:C:/Renesas/e2studio_2021_01_workspace_RZA2M_ANPR/ANPR_RZA2M_EBK/src/tensorflow_lite/tensorflow/lite/kernels\kernel_util.h **** #include "tensorflow/lite/c/common.h"
  24:C:/Renesas/e2studio_2021_01_workspace_RZA2M_ANPR/ANPR_RZA2M_EBK/src/tensorflow_lite/tensorflow/lite/kernels\kernel_util.h **** 
  25:C:/Renesas/e2studio_2021_01_workspace_RZA2M_ANPR/ANPR_RZA2M_EBK/src/tensorflow_lite/tensorflow/lite/kernels\kernel_util.h **** namespace tflite {
  26:C:/Renesas/e2studio_2021_01_workspace_RZA2M_ANPR/ANPR_RZA2M_EBK/src/tensorflow_lite/tensorflow/lite/kernels\kernel_util.h **** 
  27:C:/Renesas/e2studio_2021_01_workspace_RZA2M_ANPR/ANPR_RZA2M_EBK/src/tensorflow_lite/tensorflow/lite/kernels\kernel_util.h **** // A fair number of functions in this header have historically been inline.
  28:C:/Renesas/e2studio_2021_01_workspace_RZA2M_ANPR/ANPR_RZA2M_EBK/src/tensorflow_lite/tensorflow/lite/kernels\kernel_util.h **** // It is ok to change functions to not be inline if the latency with
  29:C:/Renesas/e2studio_2021_01_workspace_RZA2M_ANPR/ANPR_RZA2M_EBK/src/tensorflow_lite/tensorflow/lite/kernels\kernel_util.h **** // benchmark_model for MobileNet + MobileBERT is unaffected. If such a change is
  30:C:/Renesas/e2studio_2021_01_workspace_RZA2M_ANPR/ANPR_RZA2M_EBK/src/tensorflow_lite/tensorflow/lite/kernels\kernel_util.h **** // made, move the newly non-inlined function declarations to the top of this
  31:C:/Renesas/e2studio_2021_01_workspace_RZA2M_ANPR/ANPR_RZA2M_EBK/src/tensorflow_lite/tensorflow/lite/kernels\kernel_util.h **** // header file.
  32:C:/Renesas/e2studio_2021_01_workspace_RZA2M_ANPR/ANPR_RZA2M_EBK/src/tensorflow_lite/tensorflow/lite/kernels\kernel_util.h **** 
  33:C:/Renesas/e2studio_2021_01_workspace_RZA2M_ANPR/ANPR_RZA2M_EBK/src/tensorflow_lite/tensorflow/lite/kernels\kernel_util.h **** // Note: You must check if result is not null:
  34:C:/Renesas/e2studio_2021_01_workspace_RZA2M_ANPR/ANPR_RZA2M_EBK/src/tensorflow_lite/tensorflow/lite/kernels\kernel_util.h **** //
  35:C:/Renesas/e2studio_2021_01_workspace_RZA2M_ANPR/ANPR_RZA2M_EBK/src/tensorflow_lite/tensorflow/lite/kernels\kernel_util.h **** //   TfLiteTensor* my_tensor = GetInput(context, node, kMyTensorIdx);
  36:C:/Renesas/e2studio_2021_01_workspace_RZA2M_ANPR/ANPR_RZA2M_EBK/src/tensorflow_lite/tensorflow/lite/kernels\kernel_util.h **** //   TF_LITE_ENSURE(context, my_tensor != nullptr);
  37:C:/Renesas/e2studio_2021_01_workspace_RZA2M_ANPR/ANPR_RZA2M_EBK/src/tensorflow_lite/tensorflow/lite/kernels\kernel_util.h **** //
  38:C:/Renesas/e2studio_2021_01_workspace_RZA2M_ANPR/ANPR_RZA2M_EBK/src/tensorflow_lite/tensorflow/lite/kernels\kernel_util.h **** // This is because the index might point to the optional tensor constant
  39:C:/Renesas/e2studio_2021_01_workspace_RZA2M_ANPR/ANPR_RZA2M_EBK/src/tensorflow_lite/tensorflow/lite/kernels\kernel_util.h **** // (kTfLiteOptionalTensor) in which case there is no tensor to return.
  40:C:/Renesas/e2studio_2021_01_workspace_RZA2M_ANPR/ANPR_RZA2M_EBK/src/tensorflow_lite/tensorflow/lite/kernels\kernel_util.h **** const TfLiteTensor* GetInput(const TfLiteContext* context,
  41:C:/Renesas/e2studio_2021_01_workspace_RZA2M_ANPR/ANPR_RZA2M_EBK/src/tensorflow_lite/tensorflow/lite/kernels\kernel_util.h ****                              const TfLiteNode* node, int index);
  42:C:/Renesas/e2studio_2021_01_workspace_RZA2M_ANPR/ANPR_RZA2M_EBK/src/tensorflow_lite/tensorflow/lite/kernels\kernel_util.h **** 
  43:C:/Renesas/e2studio_2021_01_workspace_RZA2M_ANPR/ANPR_RZA2M_EBK/src/tensorflow_lite/tensorflow/lite/kernels\kernel_util.h **** // Same as `GetInput` but returns boolean and uses output argument for tensor.
  44:C:/Renesas/e2studio_2021_01_workspace_RZA2M_ANPR/ANPR_RZA2M_EBK/src/tensorflow_lite/tensorflow/lite/kernels\kernel_util.h **** //
  45:C:/Renesas/e2studio_2021_01_workspace_RZA2M_ANPR/ANPR_RZA2M_EBK/src/tensorflow_lite/tensorflow/lite/kernels\kernel_util.h **** //   TfLiteTensor* my_tensor;
  46:C:/Renesas/e2studio_2021_01_workspace_RZA2M_ANPR/ANPR_RZA2M_EBK/src/tensorflow_lite/tensorflow/lite/kernels\kernel_util.h **** //   TF_LITE_ENSURE_OK(context,
  47:C:/Renesas/e2studio_2021_01_workspace_RZA2M_ANPR/ANPR_RZA2M_EBK/src/tensorflow_lite/tensorflow/lite/kernels\kernel_util.h **** //                     GetInputSafe(context, node, kMyTensorIdx, &my_tensor));
  48:C:/Renesas/e2studio_2021_01_workspace_RZA2M_ANPR/ANPR_RZA2M_EBK/src/tensorflow_lite/tensorflow/lite/kernels\kernel_util.h **** //   // can use my_tensor directly from here onwards, it is not nullptr
  49:C:/Renesas/e2studio_2021_01_workspace_RZA2M_ANPR/ANPR_RZA2M_EBK/src/tensorflow_lite/tensorflow/lite/kernels\kernel_util.h **** //
  50:C:/Renesas/e2studio_2021_01_workspace_RZA2M_ANPR/ANPR_RZA2M_EBK/src/tensorflow_lite/tensorflow/lite/kernels\kernel_util.h **** // Should be used in cases where the binary size is too large.
  51:C:/Renesas/e2studio_2021_01_workspace_RZA2M_ANPR/ANPR_RZA2M_EBK/src/tensorflow_lite/tensorflow/lite/kernels\kernel_util.h **** TfLiteStatus GetInputSafe(const TfLiteContext* context, const TfLiteNode* node,
  52:C:/Renesas/e2studio_2021_01_workspace_RZA2M_ANPR/ANPR_RZA2M_EBK/src/tensorflow_lite/tensorflow/lite/kernels\kernel_util.h ****                           int index, const TfLiteTensor** tensor);
  53:C:/Renesas/e2studio_2021_01_workspace_RZA2M_ANPR/ANPR_RZA2M_EBK/src/tensorflow_lite/tensorflow/lite/kernels\kernel_util.h **** 
  54:C:/Renesas/e2studio_2021_01_workspace_RZA2M_ANPR/ANPR_RZA2M_EBK/src/tensorflow_lite/tensorflow/lite/kernels\kernel_util.h **** // Note: You must check if result is not null:
  55:C:/Renesas/e2studio_2021_01_workspace_RZA2M_ANPR/ANPR_RZA2M_EBK/src/tensorflow_lite/tensorflow/lite/kernels\kernel_util.h **** //
  56:C:/Renesas/e2studio_2021_01_workspace_RZA2M_ANPR/ANPR_RZA2M_EBK/src/tensorflow_lite/tensorflow/lite/kernels\kernel_util.h **** //   TfLiteTensor* my_tensor = GetVariableInput(context, node, kMyTensorIdx);
  57:C:/Renesas/e2studio_2021_01_workspace_RZA2M_ANPR/ANPR_RZA2M_EBK/src/tensorflow_lite/tensorflow/lite/kernels\kernel_util.h **** //   TF_LITE_ENSURE(context, my_tensor != nullptr);
  58:C:/Renesas/e2studio_2021_01_workspace_RZA2M_ANPR/ANPR_RZA2M_EBK/src/tensorflow_lite/tensorflow/lite/kernels\kernel_util.h **** //
  59:C:/Renesas/e2studio_2021_01_workspace_RZA2M_ANPR/ANPR_RZA2M_EBK/src/tensorflow_lite/tensorflow/lite/kernels\kernel_util.h **** // This is because the index might point to the optional tensor constant
  60:C:/Renesas/e2studio_2021_01_workspace_RZA2M_ANPR/ANPR_RZA2M_EBK/src/tensorflow_lite/tensorflow/lite/kernels\kernel_util.h **** // (kTfLiteOptionalTensor) in which case there is no tensor to return.
  61:C:/Renesas/e2studio_2021_01_workspace_RZA2M_ANPR/ANPR_RZA2M_EBK/src/tensorflow_lite/tensorflow/lite/kernels\kernel_util.h **** TfLiteTensor* GetVariableInput(TfLiteContext* context, const TfLiteNode* node,
  62:C:/Renesas/e2studio_2021_01_workspace_RZA2M_ANPR/ANPR_RZA2M_EBK/src/tensorflow_lite/tensorflow/lite/kernels\kernel_util.h ****                                int index);
  63:C:/Renesas/e2studio_2021_01_workspace_RZA2M_ANPR/ANPR_RZA2M_EBK/src/tensorflow_lite/tensorflow/lite/kernels\kernel_util.h **** 
  64:C:/Renesas/e2studio_2021_01_workspace_RZA2M_ANPR/ANPR_RZA2M_EBK/src/tensorflow_lite/tensorflow/lite/kernels\kernel_util.h **** // Note: You must check if result is not null:
  65:C:/Renesas/e2studio_2021_01_workspace_RZA2M_ANPR/ANPR_RZA2M_EBK/src/tensorflow_lite/tensorflow/lite/kernels\kernel_util.h **** //
  66:C:/Renesas/e2studio_2021_01_workspace_RZA2M_ANPR/ANPR_RZA2M_EBK/src/tensorflow_lite/tensorflow/lite/kernels\kernel_util.h **** //   TfLiteTensor* my_tensor = GetOutput(context, node, kMyTensorIdx);
  67:C:/Renesas/e2studio_2021_01_workspace_RZA2M_ANPR/ANPR_RZA2M_EBK/src/tensorflow_lite/tensorflow/lite/kernels\kernel_util.h **** //   TF_LITE_ENSURE(context, my_tensor != nullptr);
  68:C:/Renesas/e2studio_2021_01_workspace_RZA2M_ANPR/ANPR_RZA2M_EBK/src/tensorflow_lite/tensorflow/lite/kernels\kernel_util.h **** //
  69:C:/Renesas/e2studio_2021_01_workspace_RZA2M_ANPR/ANPR_RZA2M_EBK/src/tensorflow_lite/tensorflow/lite/kernels\kernel_util.h **** // This is because the index might point to the optional tensor constant
  70:C:/Renesas/e2studio_2021_01_workspace_RZA2M_ANPR/ANPR_RZA2M_EBK/src/tensorflow_lite/tensorflow/lite/kernels\kernel_util.h **** // (kTfLiteOptionalTensor) in which case there is no tensor to return.
  71:C:/Renesas/e2studio_2021_01_workspace_RZA2M_ANPR/ANPR_RZA2M_EBK/src/tensorflow_lite/tensorflow/lite/kernels\kernel_util.h **** TfLiteTensor* GetOutput(TfLiteContext* context, const TfLiteNode* node,
  72:C:/Renesas/e2studio_2021_01_workspace_RZA2M_ANPR/ANPR_RZA2M_EBK/src/tensorflow_lite/tensorflow/lite/kernels\kernel_util.h ****                         int index);
  73:C:/Renesas/e2studio_2021_01_workspace_RZA2M_ANPR/ANPR_RZA2M_EBK/src/tensorflow_lite/tensorflow/lite/kernels\kernel_util.h **** 
  74:C:/Renesas/e2studio_2021_01_workspace_RZA2M_ANPR/ANPR_RZA2M_EBK/src/tensorflow_lite/tensorflow/lite/kernels\kernel_util.h **** // Same as `GetOutput` but returns boolean and uses output argument for tensor.
  75:C:/Renesas/e2studio_2021_01_workspace_RZA2M_ANPR/ANPR_RZA2M_EBK/src/tensorflow_lite/tensorflow/lite/kernels\kernel_util.h **** //
  76:C:/Renesas/e2studio_2021_01_workspace_RZA2M_ANPR/ANPR_RZA2M_EBK/src/tensorflow_lite/tensorflow/lite/kernels\kernel_util.h **** //   TfLiteTensor* my_tensor;
  77:C:/Renesas/e2studio_2021_01_workspace_RZA2M_ANPR/ANPR_RZA2M_EBK/src/tensorflow_lite/tensorflow/lite/kernels\kernel_util.h **** //   TF_LITE_ENSURE_OK(context,
  78:C:/Renesas/e2studio_2021_01_workspace_RZA2M_ANPR/ANPR_RZA2M_EBK/src/tensorflow_lite/tensorflow/lite/kernels\kernel_util.h **** //                     GetOutputSafe(context, node, kMyTensorIdx, &my_tensor));
  79:C:/Renesas/e2studio_2021_01_workspace_RZA2M_ANPR/ANPR_RZA2M_EBK/src/tensorflow_lite/tensorflow/lite/kernels\kernel_util.h **** //   // can use my_tensor directly from here onwards, it is not nullptr
  80:C:/Renesas/e2studio_2021_01_workspace_RZA2M_ANPR/ANPR_RZA2M_EBK/src/tensorflow_lite/tensorflow/lite/kernels\kernel_util.h **** //
  81:C:/Renesas/e2studio_2021_01_workspace_RZA2M_ANPR/ANPR_RZA2M_EBK/src/tensorflow_lite/tensorflow/lite/kernels\kernel_util.h **** // Should be used in cases where the binary size is too large.
  82:C:/Renesas/e2studio_2021_01_workspace_RZA2M_ANPR/ANPR_RZA2M_EBK/src/tensorflow_lite/tensorflow/lite/kernels\kernel_util.h **** TfLiteStatus GetOutputSafe(const TfLiteContext* context, const TfLiteNode* node,
  83:C:/Renesas/e2studio_2021_01_workspace_RZA2M_ANPR/ANPR_RZA2M_EBK/src/tensorflow_lite/tensorflow/lite/kernels\kernel_util.h ****                            int index, TfLiteTensor** tensor);
  84:C:/Renesas/e2studio_2021_01_workspace_RZA2M_ANPR/ANPR_RZA2M_EBK/src/tensorflow_lite/tensorflow/lite/kernels\kernel_util.h **** 
  85:C:/Renesas/e2studio_2021_01_workspace_RZA2M_ANPR/ANPR_RZA2M_EBK/src/tensorflow_lite/tensorflow/lite/kernels\kernel_util.h **** // Note: You must check if result is not null:
  86:C:/Renesas/e2studio_2021_01_workspace_RZA2M_ANPR/ANPR_RZA2M_EBK/src/tensorflow_lite/tensorflow/lite/kernels\kernel_util.h **** //
  87:C:/Renesas/e2studio_2021_01_workspace_RZA2M_ANPR/ANPR_RZA2M_EBK/src/tensorflow_lite/tensorflow/lite/kernels\kernel_util.h **** //   TfLiteTensor* my_tensor = GetOptionalInputTensor(context, node, kIdx);
  88:C:/Renesas/e2studio_2021_01_workspace_RZA2M_ANPR/ANPR_RZA2M_EBK/src/tensorflow_lite/tensorflow/lite/kernels\kernel_util.h **** //   TF_LITE_ENSURE(context, my_tensor != nullptr);
  89:C:/Renesas/e2studio_2021_01_workspace_RZA2M_ANPR/ANPR_RZA2M_EBK/src/tensorflow_lite/tensorflow/lite/kernels\kernel_util.h **** //
  90:C:/Renesas/e2studio_2021_01_workspace_RZA2M_ANPR/ANPR_RZA2M_EBK/src/tensorflow_lite/tensorflow/lite/kernels\kernel_util.h **** // This is because the index might point to the optional tensor constant
  91:C:/Renesas/e2studio_2021_01_workspace_RZA2M_ANPR/ANPR_RZA2M_EBK/src/tensorflow_lite/tensorflow/lite/kernels\kernel_util.h **** // (kTfLiteOptionalTensor) in which case there is no tensor to return.
  92:C:/Renesas/e2studio_2021_01_workspace_RZA2M_ANPR/ANPR_RZA2M_EBK/src/tensorflow_lite/tensorflow/lite/kernels\kernel_util.h **** //
  93:C:/Renesas/e2studio_2021_01_workspace_RZA2M_ANPR/ANPR_RZA2M_EBK/src/tensorflow_lite/tensorflow/lite/kernels\kernel_util.h **** // Deprecated. GetInput has the same functionality.
  94:C:/Renesas/e2studio_2021_01_workspace_RZA2M_ANPR/ANPR_RZA2M_EBK/src/tensorflow_lite/tensorflow/lite/kernels\kernel_util.h **** const TfLiteTensor* GetOptionalInputTensor(const TfLiteContext* context,
  95:C:/Renesas/e2studio_2021_01_workspace_RZA2M_ANPR/ANPR_RZA2M_EBK/src/tensorflow_lite/tensorflow/lite/kernels\kernel_util.h ****                                            const TfLiteNode* node, int index);
  96:C:/Renesas/e2studio_2021_01_workspace_RZA2M_ANPR/ANPR_RZA2M_EBK/src/tensorflow_lite/tensorflow/lite/kernels\kernel_util.h **** 
  97:C:/Renesas/e2studio_2021_01_workspace_RZA2M_ANPR/ANPR_RZA2M_EBK/src/tensorflow_lite/tensorflow/lite/kernels\kernel_util.h **** #ifndef TF_LITE_STATIC_MEMORY
  98:C:/Renesas/e2studio_2021_01_workspace_RZA2M_ANPR/ANPR_RZA2M_EBK/src/tensorflow_lite/tensorflow/lite/kernels\kernel_util.h **** // Note: You must check if result is not null:
  99:C:/Renesas/e2studio_2021_01_workspace_RZA2M_ANPR/ANPR_RZA2M_EBK/src/tensorflow_lite/tensorflow/lite/kernels\kernel_util.h **** //
 100:C:/Renesas/e2studio_2021_01_workspace_RZA2M_ANPR/ANPR_RZA2M_EBK/src/tensorflow_lite/tensorflow/lite/kernels\kernel_util.h **** //   TfLiteTensor* my_tensor = GetTemporary(context, node, kMyTensorIdx);
 101:C:/Renesas/e2studio_2021_01_workspace_RZA2M_ANPR/ANPR_RZA2M_EBK/src/tensorflow_lite/tensorflow/lite/kernels\kernel_util.h **** //   TF_LITE_ENSURE(context, my_tensor != nullptr);
 102:C:/Renesas/e2studio_2021_01_workspace_RZA2M_ANPR/ANPR_RZA2M_EBK/src/tensorflow_lite/tensorflow/lite/kernels\kernel_util.h **** //
 103:C:/Renesas/e2studio_2021_01_workspace_RZA2M_ANPR/ANPR_RZA2M_EBK/src/tensorflow_lite/tensorflow/lite/kernels\kernel_util.h **** // This is because the index might point to the optional tensor constant
 104:C:/Renesas/e2studio_2021_01_workspace_RZA2M_ANPR/ANPR_RZA2M_EBK/src/tensorflow_lite/tensorflow/lite/kernels\kernel_util.h **** // (kTfLiteOptionalTensor) in which case there is no tensor to return.
 105:C:/Renesas/e2studio_2021_01_workspace_RZA2M_ANPR/ANPR_RZA2M_EBK/src/tensorflow_lite/tensorflow/lite/kernels\kernel_util.h **** TfLiteTensor* GetTemporary(TfLiteContext* context, const TfLiteNode* node,
 106:C:/Renesas/e2studio_2021_01_workspace_RZA2M_ANPR/ANPR_RZA2M_EBK/src/tensorflow_lite/tensorflow/lite/kernels\kernel_util.h ****                            int index);
 107:C:/Renesas/e2studio_2021_01_workspace_RZA2M_ANPR/ANPR_RZA2M_EBK/src/tensorflow_lite/tensorflow/lite/kernels\kernel_util.h **** 
 108:C:/Renesas/e2studio_2021_01_workspace_RZA2M_ANPR/ANPR_RZA2M_EBK/src/tensorflow_lite/tensorflow/lite/kernels\kernel_util.h **** // Same as `GetTemporary` but returns boolean and uses output argument for
 109:C:/Renesas/e2studio_2021_01_workspace_RZA2M_ANPR/ANPR_RZA2M_EBK/src/tensorflow_lite/tensorflow/lite/kernels\kernel_util.h **** // tensor.
 110:C:/Renesas/e2studio_2021_01_workspace_RZA2M_ANPR/ANPR_RZA2M_EBK/src/tensorflow_lite/tensorflow/lite/kernels\kernel_util.h **** //
 111:C:/Renesas/e2studio_2021_01_workspace_RZA2M_ANPR/ANPR_RZA2M_EBK/src/tensorflow_lite/tensorflow/lite/kernels\kernel_util.h **** //   TfLiteTensor* my_tensor;
 112:C:/Renesas/e2studio_2021_01_workspace_RZA2M_ANPR/ANPR_RZA2M_EBK/src/tensorflow_lite/tensorflow/lite/kernels\kernel_util.h **** //   TF_LITE_ENSURE_OK(context,
 113:C:/Renesas/e2studio_2021_01_workspace_RZA2M_ANPR/ANPR_RZA2M_EBK/src/tensorflow_lite/tensorflow/lite/kernels\kernel_util.h **** //                     GetTemporarySafe(context, node, kMyTensorIdx,
 114:C:/Renesas/e2studio_2021_01_workspace_RZA2M_ANPR/ANPR_RZA2M_EBK/src/tensorflow_lite/tensorflow/lite/kernels\kernel_util.h **** //                     &my_tensor));
 115:C:/Renesas/e2studio_2021_01_workspace_RZA2M_ANPR/ANPR_RZA2M_EBK/src/tensorflow_lite/tensorflow/lite/kernels\kernel_util.h **** //   // can use my_tensor directly from here onwards, it is not nullptr
 116:C:/Renesas/e2studio_2021_01_workspace_RZA2M_ANPR/ANPR_RZA2M_EBK/src/tensorflow_lite/tensorflow/lite/kernels\kernel_util.h **** //
 117:C:/Renesas/e2studio_2021_01_workspace_RZA2M_ANPR/ANPR_RZA2M_EBK/src/tensorflow_lite/tensorflow/lite/kernels\kernel_util.h **** // Should be used in cases where the binary size is too large.
 118:C:/Renesas/e2studio_2021_01_workspace_RZA2M_ANPR/ANPR_RZA2M_EBK/src/tensorflow_lite/tensorflow/lite/kernels\kernel_util.h **** TfLiteStatus GetTemporarySafe(const TfLiteContext* context,
 119:C:/Renesas/e2studio_2021_01_workspace_RZA2M_ANPR/ANPR_RZA2M_EBK/src/tensorflow_lite/tensorflow/lite/kernels\kernel_util.h ****                               const TfLiteNode* node, int index,
 120:C:/Renesas/e2studio_2021_01_workspace_RZA2M_ANPR/ANPR_RZA2M_EBK/src/tensorflow_lite/tensorflow/lite/kernels\kernel_util.h ****                               TfLiteTensor** tensor);
 121:C:/Renesas/e2studio_2021_01_workspace_RZA2M_ANPR/ANPR_RZA2M_EBK/src/tensorflow_lite/tensorflow/lite/kernels\kernel_util.h **** 
 122:C:/Renesas/e2studio_2021_01_workspace_RZA2M_ANPR/ANPR_RZA2M_EBK/src/tensorflow_lite/tensorflow/lite/kernels\kernel_util.h **** // Note: You must check if result is not null:
 123:C:/Renesas/e2studio_2021_01_workspace_RZA2M_ANPR/ANPR_RZA2M_EBK/src/tensorflow_lite/tensorflow/lite/kernels\kernel_util.h **** //
 124:C:/Renesas/e2studio_2021_01_workspace_RZA2M_ANPR/ANPR_RZA2M_EBK/src/tensorflow_lite/tensorflow/lite/kernels\kernel_util.h **** //   TfLiteTensor* my_tensor = GetIntermediates(context, node, kMyTensorIdx);
 125:C:/Renesas/e2studio_2021_01_workspace_RZA2M_ANPR/ANPR_RZA2M_EBK/src/tensorflow_lite/tensorflow/lite/kernels\kernel_util.h **** //   TF_LITE_ENSURE(context, my_tensor != nullptr);
 126:C:/Renesas/e2studio_2021_01_workspace_RZA2M_ANPR/ANPR_RZA2M_EBK/src/tensorflow_lite/tensorflow/lite/kernels\kernel_util.h **** //
 127:C:/Renesas/e2studio_2021_01_workspace_RZA2M_ANPR/ANPR_RZA2M_EBK/src/tensorflow_lite/tensorflow/lite/kernels\kernel_util.h **** // This is because the index might point to the optional tensor constant
 128:C:/Renesas/e2studio_2021_01_workspace_RZA2M_ANPR/ANPR_RZA2M_EBK/src/tensorflow_lite/tensorflow/lite/kernels\kernel_util.h **** // (kTfLiteOptionalTensor) in which case there is no tensor to return.
 129:C:/Renesas/e2studio_2021_01_workspace_RZA2M_ANPR/ANPR_RZA2M_EBK/src/tensorflow_lite/tensorflow/lite/kernels\kernel_util.h **** const TfLiteTensor* GetIntermediates(TfLiteContext* context,
 130:C:/Renesas/e2studio_2021_01_workspace_RZA2M_ANPR/ANPR_RZA2M_EBK/src/tensorflow_lite/tensorflow/lite/kernels\kernel_util.h ****                                      const TfLiteNode* node, int index);
 131:C:/Renesas/e2studio_2021_01_workspace_RZA2M_ANPR/ANPR_RZA2M_EBK/src/tensorflow_lite/tensorflow/lite/kernels\kernel_util.h **** 
 132:C:/Renesas/e2studio_2021_01_workspace_RZA2M_ANPR/ANPR_RZA2M_EBK/src/tensorflow_lite/tensorflow/lite/kernels\kernel_util.h **** // Same as `GetIntermediates` but returns boolean and uses output argument for
 133:C:/Renesas/e2studio_2021_01_workspace_RZA2M_ANPR/ANPR_RZA2M_EBK/src/tensorflow_lite/tensorflow/lite/kernels\kernel_util.h **** // tensor.
 134:C:/Renesas/e2studio_2021_01_workspace_RZA2M_ANPR/ANPR_RZA2M_EBK/src/tensorflow_lite/tensorflow/lite/kernels\kernel_util.h **** //
 135:C:/Renesas/e2studio_2021_01_workspace_RZA2M_ANPR/ANPR_RZA2M_EBK/src/tensorflow_lite/tensorflow/lite/kernels\kernel_util.h **** //   TfLiteTensor* my_tensor;
 136:C:/Renesas/e2studio_2021_01_workspace_RZA2M_ANPR/ANPR_RZA2M_EBK/src/tensorflow_lite/tensorflow/lite/kernels\kernel_util.h **** //   TF_LITE_ENSURE_OK(context,
 137:C:/Renesas/e2studio_2021_01_workspace_RZA2M_ANPR/ANPR_RZA2M_EBK/src/tensorflow_lite/tensorflow/lite/kernels\kernel_util.h **** //                     GetIntermediatesSafe(context, node, kMyTensorIdx,
 138:C:/Renesas/e2studio_2021_01_workspace_RZA2M_ANPR/ANPR_RZA2M_EBK/src/tensorflow_lite/tensorflow/lite/kernels\kernel_util.h **** //                     &my_tensor));
 139:C:/Renesas/e2studio_2021_01_workspace_RZA2M_ANPR/ANPR_RZA2M_EBK/src/tensorflow_lite/tensorflow/lite/kernels\kernel_util.h **** //   // can use my_tensor directly from here onwards, it is not nullptr
 140:C:/Renesas/e2studio_2021_01_workspace_RZA2M_ANPR/ANPR_RZA2M_EBK/src/tensorflow_lite/tensorflow/lite/kernels\kernel_util.h **** //
 141:C:/Renesas/e2studio_2021_01_workspace_RZA2M_ANPR/ANPR_RZA2M_EBK/src/tensorflow_lite/tensorflow/lite/kernels\kernel_util.h **** // Should be used in cases where the binary size is too large.
 142:C:/Renesas/e2studio_2021_01_workspace_RZA2M_ANPR/ANPR_RZA2M_EBK/src/tensorflow_lite/tensorflow/lite/kernels\kernel_util.h **** TfLiteStatus GetIntermediatesSafe(const TfLiteContext* context,
 143:C:/Renesas/e2studio_2021_01_workspace_RZA2M_ANPR/ANPR_RZA2M_EBK/src/tensorflow_lite/tensorflow/lite/kernels\kernel_util.h ****                                   const TfLiteNode* node, int index,
 144:C:/Renesas/e2studio_2021_01_workspace_RZA2M_ANPR/ANPR_RZA2M_EBK/src/tensorflow_lite/tensorflow/lite/kernels\kernel_util.h ****                                   TfLiteTensor** tensor);
 145:C:/Renesas/e2studio_2021_01_workspace_RZA2M_ANPR/ANPR_RZA2M_EBK/src/tensorflow_lite/tensorflow/lite/kernels\kernel_util.h **** #endif  // TF_LITE_STATIC_MEMORY
 146:C:/Renesas/e2studio_2021_01_workspace_RZA2M_ANPR/ANPR_RZA2M_EBK/src/tensorflow_lite/tensorflow/lite/kernels\kernel_util.h **** 
 147:C:/Renesas/e2studio_2021_01_workspace_RZA2M_ANPR/ANPR_RZA2M_EBK/src/tensorflow_lite/tensorflow/lite/kernels\kernel_util.h **** inline int NumDimensions(const TfLiteTensor* t) { return t->dims->size; }
 148:C:/Renesas/e2studio_2021_01_workspace_RZA2M_ANPR/ANPR_RZA2M_EBK/src/tensorflow_lite/tensorflow/lite/kernels\kernel_util.h **** inline int SizeOfDimension(const TfLiteTensor* t, int dim) {
 149:C:/Renesas/e2studio_2021_01_workspace_RZA2M_ANPR/ANPR_RZA2M_EBK/src/tensorflow_lite/tensorflow/lite/kernels\kernel_util.h ****   return t->dims->data[dim];
 150:C:/Renesas/e2studio_2021_01_workspace_RZA2M_ANPR/ANPR_RZA2M_EBK/src/tensorflow_lite/tensorflow/lite/kernels\kernel_util.h **** }
 151:C:/Renesas/e2studio_2021_01_workspace_RZA2M_ANPR/ANPR_RZA2M_EBK/src/tensorflow_lite/tensorflow/lite/kernels\kernel_util.h **** 
 152:C:/Renesas/e2studio_2021_01_workspace_RZA2M_ANPR/ANPR_RZA2M_EBK/src/tensorflow_lite/tensorflow/lite/kernels\kernel_util.h **** inline int NumInputs(const TfLiteNode* node) { return node->inputs->size; }
  38              		.loc 2 152 0
  39 0000 003091E5 		ldr	r3, [r1]
  40              	.LBE1525:
  41              	.LBE1524:
  42              	.LBE1523:
  43              	.LBE1522:
  44              		.loc 1 95 0
  45 0004 F0412DE9 		push	{r4, r5, r6, r7, r8, lr}
  46              		.save {r4, r5, r6, r7, r8, lr}
  47              		.cfi_def_cfa_offset 24
  48              		.cfi_offset 4, -24
  49              		.cfi_offset 5, -20
  50              		.cfi_offset 6, -16
  51              		.cfi_offset 7, -12
  52              		.cfi_offset 8, -8
  53              		.cfi_offset 14, -4
  54 0008 0060A0E1 		mov	r6, r0
  55              	.LVL1:
  56              		.pad #56
  57 000c 38D04DE2 		sub	sp, sp, #56
  58              		.cfi_def_cfa_offset 80
  59              	.LBB1587:
  60              	.LBB1584:
  61              	.LBB1527:
  62              	.LBB1526:
  63              		.loc 2 152 0
  64 0010 008093E5 		ldr	r8, [r3]
  65              	.LBE1526:
  66              	.LBE1527:
  46:../src/tensorflow_lite/tensorflow/lite/micro/kernels/log_softmax.cc ****   TF_LITE_ENSURE_EQ(context, NumOutputs(node), 1);
  67              		.loc 1 46 0
  68 0014 010058E3 		cmp	r8, #1
  69 0018 4000001A 		bne	.L36
  70              	.LBB1528:
  71              	.LBB1529:
 153:C:/Renesas/e2studio_2021_01_workspace_RZA2M_ANPR/ANPR_RZA2M_EBK/src/tensorflow_lite/tensorflow/lite/kernels\kernel_util.h **** inline int NumOutputs(const TfLiteNode* node) { return node->outputs->size; }
  72              		.loc 2 153 0
  73 001c 043091E5 		ldr	r3, [r1, #4]
  74 0020 0150A0E1 		mov	r5, r1
  75              	.LVL2:
  76 0024 007093E5 		ldr	r7, [r3]
  77              	.LBE1529:
  78              	.LBE1528:
  47:../src/tensorflow_lite/tensorflow/lite/micro/kernels/log_softmax.cc ****   const TfLiteTensor* input;
  79              		.loc 1 47 0
  80 0028 010057E3 		cmp	r7, #1
  81 002c 1200000A 		beq	.L4
  82              	.LVL3:
  83 0030 00E000E3 		movw	lr, #:lower16:.LC3
  84 0034 00C000E3 		movw	ip, #:lower16:.LC5
  85 0038 00E040E3 		movt	lr, #:upper16:.LC3
  86 003c 00C040E3 		movt	ip, #:upper16:.LC5
  87 0040 002000E3 		movw	r2, #:lower16:.LC1
  88 0044 001000E3 		movw	r1, #:lower16:.LC2
  89              	.LVL4:
  90 0048 0C808DE5 		str	r8, [sp, #12]
  91 004c 002040E3 		movt	r2, #:upper16:.LC1
  92 0050 08708DE5 		str	r7, [sp, #8]
  93 0054 001040E3 		movt	r1, #:upper16:.LC2
  94 0058 145090E5 		ldr	r5, [r0, #20]
  95              	.LVL5:
  96 005c 2F30A0E3 		mov	r3, #47
  97 0060 04E08DE5 		str	lr, [sp, #4]
  98 0064 0840A0E1 		mov	r4, r8
  99 0068 00C08DE5 		str	ip, [sp]
 100              	.LEHB0:
 101 006c 35FF2FE1 		blx	r5
 102              	.LVL6:
 103              	.L29:
 104              	.LBE1584:
 105              	.LBE1587:
  96:../src/tensorflow_lite/tensorflow/lite/micro/kernels/log_softmax.cc ****   return CalculateOpData(context, node);
  97:../src/tensorflow_lite/tensorflow/lite/micro/kernels/log_softmax.cc **** }
 106              		.loc 1 97 0
 107 0070 0400A0E1 		mov	r0, r4
 108 0074 38D08DE2 		add	sp, sp, #56
 109              		.cfi_remember_state
 110              		.cfi_def_cfa_offset 24
 111              		@ sp needed
 112 0078 F081BDE8 		pop	{r4, r5, r6, r7, r8, pc}
 113              	.LVL7:
 114              	.L4:
 115              		.cfi_restore_state
 116              	.LBB1588:
 117              	.LBB1585:
 118              	.LBB1530:
  49:../src/tensorflow_lite/tensorflow/lite/micro/kernels/log_softmax.cc ****   TfLiteTensor* output;
 119              		.loc 1 49 0
 120 007c 10308DE2 		add	r3, sp, #16
 121 0080 0020A0E3 		mov	r2, #0
 122 0084 FEFFFFEB 		bl	_ZN6tflite12GetInputSafeEPK13TfLiteContextPK10TfLiteNodeiPPK12TfLiteTensor
 123              	.LVL8:
 124 0088 004050E2 		subs	r4, r0, #0
 125 008c F7FFFF1A 		bne	.L29
 126              	.LBE1530:
 127              	.LBB1531:
  51:../src/tensorflow_lite/tensorflow/lite/micro/kernels/log_softmax.cc ****                     GetOutputSafe(context, node, kOutputTensor, &output));
 128              		.loc 1 51 0
 129 0090 0420A0E1 		mov	r2, r4
 130 0094 14308DE2 		add	r3, sp, #20
 131 0098 0510A0E1 		mov	r1, r5
 132 009c 0600A0E1 		mov	r0, r6
 133              	.LVL9:
 134 00a0 FEFFFFEB 		bl	_ZN6tflite13GetOutputSafeEPK13TfLiteContextPK10TfLiteNodeiPP12TfLiteTensor
 135              	.LVL10:
 136 00a4 004050E2 		subs	r4, r0, #0
 137 00a8 F0FFFF1A 		bne	.L29
 138              	.LBE1531:
  53:../src/tensorflow_lite/tensorflow/lite/micro/kernels/log_softmax.cc **** 
 139              		.loc 1 53 0
 140 00ac 10309DE5 		ldr	r3, [sp, #16]
 141 00b0 14109DE5 		ldr	r1, [sp, #20]
 142 00b4 0000D3E5 		ldrb	r0, [r3]	@ zero_extendqisi2
 143              	.LVL11:
 144 00b8 0020D1E5 		ldrb	r2, [r1]	@ zero_extendqisi2
 145 00bc 000052E1 		cmp	r2, r0
 146 00c0 2900000A 		beq	.L5
 147 00c4 145096E5 		ldr	r5, [r6, #20]
 148              	.LVL12:
 149 00c8 0740A0E1 		mov	r4, r7
 150 00cc FEFFFFEB 		bl	TfLiteTypeGetName
 151              	.LVL13:
 152 00d0 14309DE5 		ldr	r3, [sp, #20]
 153 00d4 0080A0E1 		mov	r8, r0
 154 00d8 0000D3E5 		ldrb	r0, [r3]	@ zero_extendqisi2
 155 00dc FEFFFFEB 		bl	TfLiteTypeGetName
 156              	.LVL14:
 157 00e0 00C000E3 		movw	ip, #:lower16:.LC7
 158 00e4 003000E3 		movw	r3, #:lower16:.LC8
 159 00e8 00C040E3 		movt	ip, #:upper16:.LC7
 160 00ec 003040E3 		movt	r3, #:upper16:.LC8
 161 00f0 002000E3 		movw	r2, #:lower16:.LC1
 162 00f4 001000E3 		movw	r1, #:lower16:.LC6
 163 00f8 0C008DE5 		str	r0, [sp, #12]
 164 00fc 002040E3 		movt	r2, #:upper16:.LC1
 165 0100 00308DE5 		str	r3, [sp]
 166 0104 0600A0E1 		mov	r0, r6
 167 0108 08808DE5 		str	r8, [sp, #8]
 168 010c 001040E3 		movt	r1, #:upper16:.LC6
 169 0110 04C08DE5 		str	ip, [sp, #4]
 170 0114 3530A0E3 		mov	r3, #53
 171 0118 35FF2FE1 		blx	r5
 172              	.LVL15:
 173 011c D3FFFFEA 		b	.L29
 174              	.LVL16:
 175              	.L36:
  46:../src/tensorflow_lite/tensorflow/lite/micro/kernels/log_softmax.cc ****   TF_LITE_ENSURE_EQ(context, NumOutputs(node), 1);
 176              		.loc 1 46 0
 177 0120 00C000E3 		movw	ip, #:lower16:.LC3
 178 0124 003000E3 		movw	r3, #:lower16:.LC4
 179 0128 00C040E3 		movt	ip, #:upper16:.LC3
 180 012c 0140A0E3 		mov	r4, #1
 181 0130 003040E3 		movt	r3, #:upper16:.LC4
 182 0134 002000E3 		movw	r2, #:lower16:.LC1
 183 0138 001000E3 		movw	r1, #:lower16:.LC2
 184              	.LVL17:
 185 013c 08808DE5 		str	r8, [sp, #8]
 186 0140 002040E3 		movt	r2, #:upper16:.LC1
 187 0144 145090E5 		ldr	r5, [r0, #20]
 188 0148 001040E3 		movt	r1, #:upper16:.LC2
 189 014c 00308DE5 		str	r3, [sp]
 190 0150 04C08DE5 		str	ip, [sp, #4]
 191 0154 2E30A0E3 		mov	r3, #46
 192 0158 0C408DE5 		str	r4, [sp, #12]
 193 015c 35FF2FE1 		blx	r5
 194              	.LVL18:
 195              	.LBE1585:
 196              	.LBE1588:
 197              		.loc 1 97 0
 198 0160 0400A0E1 		mov	r0, r4
 199 0164 38D08DE2 		add	sp, sp, #56
 200              		.cfi_remember_state
 201              		.cfi_def_cfa_offset 24
 202              		@ sp needed
 203 0168 F081BDE8 		pop	{r4, r5, r6, r7, r8, pc}
 204              	.LVL19:
 205              	.L5:
 206              		.cfi_restore_state
 207              	.LBB1589:
 208              	.LBB1586:
  55:../src/tensorflow_lite/tensorflow/lite/micro/kernels/log_softmax.cc **** 
 209              		.loc 1 55 0
 210 016c 0300A0E1 		mov	r0, r3
 211 0170 FEFFFFEB 		bl	_ZN6tflite14HaveSameShapesEPK12TfLiteTensorS2_
 212              	.LVL20:
 213 0174 000050E3 		cmp	r0, #0
 214 0178 1F00000A 		beq	.L37
 215              	.LBB1532:
  57:../src/tensorflow_lite/tensorflow/lite/micro/kernels/log_softmax.cc ****     node->user_data =
 216              		.loc 1 57 0
 217 017c 10309DE5 		ldr	r3, [sp, #16]
 218 0180 0030D3E5 		ldrb	r3, [r3]	@ zero_extendqisi2
 219 0184 090053E3 		cmp	r3, #9
 220 0188 B8FFFF1A 		bne	.L29
 221              	.LBB1533:
  59:../src/tensorflow_lite/tensorflow/lite/micro/kernels/log_softmax.cc ****     auto data = static_cast<LogSoftmaxOpData*>(node->user_data);
 222              		.loc 1 59 0
 223 018c 383096E5 		ldr	r3, [r6, #56]
 224 0190 1C10A0E3 		mov	r1, #28
 225 0194 0600A0E1 		mov	r0, r6
 226 0198 33FF2FE1 		blx	r3
 227              	.LVL21:
  68:../src/tensorflow_lite/tensorflow/lite/micro/kernels/log_softmax.cc ****     TF_LITE_ENSURE(context, output->params.zero_point == kOutputZeroPoint);
 228              		.loc 1 68 0
 229 019c 14309DE5 		ldr	r3, [sp, #20]
  59:../src/tensorflow_lite/tensorflow/lite/micro/kernels/log_softmax.cc ****     auto data = static_cast<LogSoftmaxOpData*>(node->user_data);
 230              		.loc 1 59 0
 231 01a0 0040A0E1 		mov	r4, r0
  68:../src/tensorflow_lite/tensorflow/lite/micro/kernels/log_softmax.cc ****     TF_LITE_ENSURE(context, output->params.zero_point == kOutputZeroPoint);
 232              		.loc 1 68 0
 233 01a4 857ADFED 		vldr.32	s15, .L40
  58:../src/tensorflow_lite/tensorflow/lite/micro/kernels/log_softmax.cc ****         context->AllocatePersistentBuffer(context, sizeof(LogSoftmaxOpData));
 234              		.loc 1 58 0
 235 01a8 100085E5 		str	r0, [r5, #16]
 236              	.LVL22:
  68:../src/tensorflow_lite/tensorflow/lite/micro/kernels/log_softmax.cc ****     TF_LITE_ENSURE(context, output->params.zero_point == kOutputZeroPoint);
 237              		.loc 1 68 0
 238 01ac 037A93ED 		vldr.32	s14, [r3, #12]
 239 01b0 677AB4EE 		vcmp.f32	s14, s15
 240 01b4 10FAF1EE 		vmrs	APSR_nzcv, FPSCR
 241 01b8 1C00001A 		bne	.L38
  69:../src/tensorflow_lite/tensorflow/lite/micro/kernels/log_softmax.cc **** 
 242              		.loc 1 69 0
 243 01bc 103093E5 		ldr	r3, [r3, #16]
 244 01c0 7F0053E3 		cmp	r3, #127
 245 01c4 2500000A 		beq	.L9
 246 01c8 003000E3 		movw	r3, #:lower16:.LC12
 247 01cc 002000E3 		movw	r2, #:lower16:.LC1
 248 01d0 003040E3 		movt	r3, #:upper16:.LC12
 249 01d4 001000E3 		movw	r1, #:lower16:.LC9
 250 01d8 00308DE5 		str	r3, [sp]
 251 01dc 002040E3 		movt	r2, #:upper16:.LC1
 252 01e0 001040E3 		movt	r1, #:upper16:.LC9
 253 01e4 144096E5 		ldr	r4, [r6, #20]
 254 01e8 0600A0E1 		mov	r0, r6
 255              	.LVL23:
 256 01ec 4530A0E3 		mov	r3, #69
 257 01f0 34FF2FE1 		blx	r4
 258              	.LVL24:
 259              	.L8:
  68:../src/tensorflow_lite/tensorflow/lite/micro/kernels/log_softmax.cc ****     TF_LITE_ENSURE(context, output->params.zero_point == kOutputZeroPoint);
 260              		.loc 1 68 0
 261 01f4 0140A0E3 		mov	r4, #1
 262 01f8 9CFFFFEA 		b	.L29
 263              	.LVL25:
 264              	.L37:
 265              	.LBE1533:
 266              	.LBE1532:
  55:../src/tensorflow_lite/tensorflow/lite/micro/kernels/log_softmax.cc **** 
 267              		.loc 1 55 0
 268 01fc 003000E3 		movw	r3, #:lower16:.LC10
 269 0200 002000E3 		movw	r2, #:lower16:.LC1
 270 0204 003040E3 		movt	r3, #:upper16:.LC10
 271 0208 001000E3 		movw	r1, #:lower16:.LC9
 272 020c 00308DE5 		str	r3, [sp]
 273 0210 002040E3 		movt	r2, #:upper16:.LC1
 274 0214 001040E3 		movt	r1, #:upper16:.LC9
 275 0218 145096E5 		ldr	r5, [r6, #20]
 276              	.LVL26:
 277 021c 0600A0E1 		mov	r0, r6
 278 0220 3730A0E3 		mov	r3, #55
 279 0224 0740A0E1 		mov	r4, r7
 280 0228 35FF2FE1 		blx	r5
 281              	.LVL27:
 282 022c 8FFFFFEA 		b	.L29
 283              	.LVL28:
 284              	.L38:
 285              	.LBB1582:
 286              	.LBB1580:
  68:../src/tensorflow_lite/tensorflow/lite/micro/kernels/log_softmax.cc ****     TF_LITE_ENSURE(context, output->params.zero_point == kOutputZeroPoint);
 287              		.loc 1 68 0
 288 0230 003000E3 		movw	r3, #:lower16:.LC11
 289 0234 002000E3 		movw	r2, #:lower16:.LC1
 290 0238 003040E3 		movt	r3, #:upper16:.LC11
 291 023c 001000E3 		movw	r1, #:lower16:.LC9
 292 0240 00308DE5 		str	r3, [sp]
 293 0244 002040E3 		movt	r2, #:upper16:.LC1
 294 0248 001040E3 		movt	r1, #:upper16:.LC9
 295 024c 144096E5 		ldr	r4, [r6, #20]
 296 0250 0600A0E1 		mov	r0, r6
 297              	.LVL29:
 298 0254 4430A0E3 		mov	r3, #68
 299 0258 34FF2FE1 		blx	r4
 300              	.LVL30:
 301 025c E4FFFFEA 		b	.L8
 302              	.LVL31:
 303              	.L9:
  74:../src/tensorflow_lite/tensorflow/lite/micro/kernels/log_softmax.cc ****         &data->input_multiplier, &input_left_shift,
 304              		.loc 1 74 0
 305 0260 10009DE5 		ldr	r0, [sp, #16]
 306              	.LVL32:
  76:../src/tensorflow_lite/tensorflow/lite/micro/kernels/log_softmax.cc ****     data->input_left_shift = static_cast<int32_t>(input_left_shift);
 307              		.loc 1 76 0
 308 0264 1CC08DE2 		add	ip, sp, #28
 309 0268 083084E2 		add	r3, r4, #8
 310 026c 18208DE2 		add	r2, sp, #24
 311 0270 0410A0E1 		mov	r1, r4
 312 0274 000BB7EE 		vmov.f64	d0, #1.0e+0
  73:../src/tensorflow_lite/tensorflow/lite/micro/kernels/log_softmax.cc ****         kBeta, static_cast<double>(input->params.scale), kScaledDiffIntegerBits,
 313              		.loc 1 73 0
 314 0278 031A90ED 		vldr.32	s2, [r0, #12]
  76:../src/tensorflow_lite/tensorflow/lite/micro/kernels/log_softmax.cc ****     data->input_left_shift = static_cast<int32_t>(input_left_shift);
 315              		.loc 1 76 0
 316 027c 0500A0E3 		mov	r0, #5
 317 0280 00C08DE5 		str	ip, [sp]
 318 0284 C11AB7EE 		vcvt.f64.f32	d1, s2
 319 0288 FEFFFFEB 		bl	_ZN6tflite30PreprocessLogSoftmaxScalingExpEddiPlPiS0_S1_
 320              	.LVL33:
  79:../src/tensorflow_lite/tensorflow/lite/micro/kernels/log_softmax.cc ****     // diff_min has a negative value, and is used to limit the maximum magnitude
 321              		.loc 1 79 0
 322 028c 1C309DE5 		ldr	r3, [sp, #28]
  83:../src/tensorflow_lite/tensorflow/lite/micro/kernels/log_softmax.cc **** 
 323              		.loc 1 83 0
 324 0290 1F20A0E3 		mov	r2, #31
  77:../src/tensorflow_lite/tensorflow/lite/micro/kernels/log_softmax.cc ****     data->reverse_scaling_right_shift =
 325              		.loc 1 77 0
 326 0294 18C09DE5 		ldr	ip, [sp, #24]
  83:../src/tensorflow_lite/tensorflow/lite/micro/kernels/log_softmax.cc **** 
 327              		.loc 1 83 0
 328 0298 0500A0E3 		mov	r0, #5
  79:../src/tensorflow_lite/tensorflow/lite/micro/kernels/log_softmax.cc ****     // diff_min has a negative value, and is used to limit the maximum magnitude
 329              		.loc 1 79 0
 330 029c 003063E2 		rsb	r3, r3, #0
  78:../src/tensorflow_lite/tensorflow/lite/micro/kernels/log_softmax.cc ****         static_cast<int32_t>(-reverse_scaling_right_shift);
 331              		.loc 1 78 0
 332 02a0 0C3084E5 		str	r3, [r4, #12]
  83:../src/tensorflow_lite/tensorflow/lite/micro/kernels/log_softmax.cc **** 
 333              		.loc 1 83 0
 334 02a4 0C10A0E1 		mov	r1, ip
  77:../src/tensorflow_lite/tensorflow/lite/micro/kernels/log_softmax.cc ****     data->reverse_scaling_right_shift =
 335              		.loc 1 77 0
 336 02a8 04C084E5 		str	ip, [r4, #4]
  83:../src/tensorflow_lite/tensorflow/lite/micro/kernels/log_softmax.cc **** 
 337              		.loc 1 83 0
 338 02ac FEFFFFEB 		bl	_ZN6tflite20CalculateInputRadiusEiii
 339              	.LVL34:
  85:../src/tensorflow_lite/tensorflow/lite/micro/kernels/log_softmax.cc ****     const int trailing_dim = input_shape.DimensionsCount() - 1;
 340              		.loc 1 85 0
 341 02b0 10309DE5 		ldr	r3, [sp, #16]
 342              	.LVL35:
  83:../src/tensorflow_lite/tensorflow/lite/micro/kernels/log_softmax.cc **** 
 343              		.loc 1 83 0
 344 02b4 000060E2 		rsb	r0, r0, #0
  82:../src/tensorflow_lite/tensorflow/lite/micro/kernels/log_softmax.cc ****         -tflite::CalculateInputRadius(kScaledDiffIntegerBits, input_left_shift);
 345              		.loc 1 82 0
 346 02b8 100084E5 		str	r0, [r4, #16]
 347              	.LBB1534:
 348              	.LBB1535:
 349              		.file 3 "C:/Renesas/e2studio_2021_01_workspace_RZA2M_ANPR/ANPR_RZA2M_EBK/src/tensorflow_lite/tenso
   1:C:/Renesas/e2studio_2021_01_workspace_RZA2M_ANPR/ANPR_RZA2M_EBK/src/tensorflow_lite/tensorflow/lite/kernels/internal\tensor_ctypes.h **** /* Copyright 2017 The TensorFlow Authors. All Rights Reserved.
   2:C:/Renesas/e2studio_2021_01_workspace_RZA2M_ANPR/ANPR_RZA2M_EBK/src/tensorflow_lite/tensorflow/lite/kernels/internal\tensor_ctypes.h **** 
   3:C:/Renesas/e2studio_2021_01_workspace_RZA2M_ANPR/ANPR_RZA2M_EBK/src/tensorflow_lite/tensorflow/lite/kernels/internal\tensor_ctypes.h **** Licensed under the Apache License, Version 2.0 (the "License");
   4:C:/Renesas/e2studio_2021_01_workspace_RZA2M_ANPR/ANPR_RZA2M_EBK/src/tensorflow_lite/tensorflow/lite/kernels/internal\tensor_ctypes.h **** you may not use this file except in compliance with the License.
   5:C:/Renesas/e2studio_2021_01_workspace_RZA2M_ANPR/ANPR_RZA2M_EBK/src/tensorflow_lite/tensorflow/lite/kernels/internal\tensor_ctypes.h **** You may obtain a copy of the License at
   6:C:/Renesas/e2studio_2021_01_workspace_RZA2M_ANPR/ANPR_RZA2M_EBK/src/tensorflow_lite/tensorflow/lite/kernels/internal\tensor_ctypes.h **** 
   7:C:/Renesas/e2studio_2021_01_workspace_RZA2M_ANPR/ANPR_RZA2M_EBK/src/tensorflow_lite/tensorflow/lite/kernels/internal\tensor_ctypes.h ****     http://www.apache.org/licenses/LICENSE-2.0
   8:C:/Renesas/e2studio_2021_01_workspace_RZA2M_ANPR/ANPR_RZA2M_EBK/src/tensorflow_lite/tensorflow/lite/kernels/internal\tensor_ctypes.h **** 
   9:C:/Renesas/e2studio_2021_01_workspace_RZA2M_ANPR/ANPR_RZA2M_EBK/src/tensorflow_lite/tensorflow/lite/kernels/internal\tensor_ctypes.h **** Unless required by applicable law or agreed to in writing, software
  10:C:/Renesas/e2studio_2021_01_workspace_RZA2M_ANPR/ANPR_RZA2M_EBK/src/tensorflow_lite/tensorflow/lite/kernels/internal\tensor_ctypes.h **** distributed under the License is distributed on an "AS IS" BASIS,
  11:C:/Renesas/e2studio_2021_01_workspace_RZA2M_ANPR/ANPR_RZA2M_EBK/src/tensorflow_lite/tensorflow/lite/kernels/internal\tensor_ctypes.h **** WITHOUT WARRANTIES OR CONDITIONS OF ANY KIND, either express or implied.
  12:C:/Renesas/e2studio_2021_01_workspace_RZA2M_ANPR/ANPR_RZA2M_EBK/src/tensorflow_lite/tensorflow/lite/kernels/internal\tensor_ctypes.h **** See the License for the specific language governing permissions and
  13:C:/Renesas/e2studio_2021_01_workspace_RZA2M_ANPR/ANPR_RZA2M_EBK/src/tensorflow_lite/tensorflow/lite/kernels/internal\tensor_ctypes.h **** limitations under the License.
  14:C:/Renesas/e2studio_2021_01_workspace_RZA2M_ANPR/ANPR_RZA2M_EBK/src/tensorflow_lite/tensorflow/lite/kernels/internal\tensor_ctypes.h **** ==============================================================================*/
  15:C:/Renesas/e2studio_2021_01_workspace_RZA2M_ANPR/ANPR_RZA2M_EBK/src/tensorflow_lite/tensorflow/lite/kernels/internal\tensor_ctypes.h **** #ifndef TENSORFLOW_LITE_KERNELS_INTERNAL_TENSOR_CTYPES_H_
  16:C:/Renesas/e2studio_2021_01_workspace_RZA2M_ANPR/ANPR_RZA2M_EBK/src/tensorflow_lite/tensorflow/lite/kernels/internal\tensor_ctypes.h **** #define TENSORFLOW_LITE_KERNELS_INTERNAL_TENSOR_CTYPES_H_
  17:C:/Renesas/e2studio_2021_01_workspace_RZA2M_ANPR/ANPR_RZA2M_EBK/src/tensorflow_lite/tensorflow/lite/kernels/internal\tensor_ctypes.h **** 
  18:C:/Renesas/e2studio_2021_01_workspace_RZA2M_ANPR/ANPR_RZA2M_EBK/src/tensorflow_lite/tensorflow/lite/kernels/internal\tensor_ctypes.h **** #include "tensorflow/lite/c/common.h"
  19:C:/Renesas/e2studio_2021_01_workspace_RZA2M_ANPR/ANPR_RZA2M_EBK/src/tensorflow_lite/tensorflow/lite/kernels/internal\tensor_ctypes.h **** #include "tensorflow/lite/kernels/internal/types.h"
  20:C:/Renesas/e2studio_2021_01_workspace_RZA2M_ANPR/ANPR_RZA2M_EBK/src/tensorflow_lite/tensorflow/lite/kernels/internal\tensor_ctypes.h **** 
  21:C:/Renesas/e2studio_2021_01_workspace_RZA2M_ANPR/ANPR_RZA2M_EBK/src/tensorflow_lite/tensorflow/lite/kernels/internal\tensor_ctypes.h **** namespace tflite {
  22:C:/Renesas/e2studio_2021_01_workspace_RZA2M_ANPR/ANPR_RZA2M_EBK/src/tensorflow_lite/tensorflow/lite/kernels/internal\tensor_ctypes.h **** 
  23:C:/Renesas/e2studio_2021_01_workspace_RZA2M_ANPR/ANPR_RZA2M_EBK/src/tensorflow_lite/tensorflow/lite/kernels/internal\tensor_ctypes.h **** template <typename T>
  24:C:/Renesas/e2studio_2021_01_workspace_RZA2M_ANPR/ANPR_RZA2M_EBK/src/tensorflow_lite/tensorflow/lite/kernels/internal\tensor_ctypes.h **** inline T* GetTensorData(TfLiteTensor* tensor) {
  25:C:/Renesas/e2studio_2021_01_workspace_RZA2M_ANPR/ANPR_RZA2M_EBK/src/tensorflow_lite/tensorflow/lite/kernels/internal\tensor_ctypes.h ****   return tensor != nullptr ? reinterpret_cast<T*>(tensor->data.raw) : nullptr;
  26:C:/Renesas/e2studio_2021_01_workspace_RZA2M_ANPR/ANPR_RZA2M_EBK/src/tensorflow_lite/tensorflow/lite/kernels/internal\tensor_ctypes.h **** }
  27:C:/Renesas/e2studio_2021_01_workspace_RZA2M_ANPR/ANPR_RZA2M_EBK/src/tensorflow_lite/tensorflow/lite/kernels/internal\tensor_ctypes.h **** 
  28:C:/Renesas/e2studio_2021_01_workspace_RZA2M_ANPR/ANPR_RZA2M_EBK/src/tensorflow_lite/tensorflow/lite/kernels/internal\tensor_ctypes.h **** template <typename T>
  29:C:/Renesas/e2studio_2021_01_workspace_RZA2M_ANPR/ANPR_RZA2M_EBK/src/tensorflow_lite/tensorflow/lite/kernels/internal\tensor_ctypes.h **** inline const T* GetTensorData(const TfLiteTensor* tensor) {
  30:C:/Renesas/e2studio_2021_01_workspace_RZA2M_ANPR/ANPR_RZA2M_EBK/src/tensorflow_lite/tensorflow/lite/kernels/internal\tensor_ctypes.h ****   return tensor != nullptr ? reinterpret_cast<const T*>(tensor->data.raw)
  31:C:/Renesas/e2studio_2021_01_workspace_RZA2M_ANPR/ANPR_RZA2M_EBK/src/tensorflow_lite/tensorflow/lite/kernels/internal\tensor_ctypes.h ****                            : nullptr;
  32:C:/Renesas/e2studio_2021_01_workspace_RZA2M_ANPR/ANPR_RZA2M_EBK/src/tensorflow_lite/tensorflow/lite/kernels/internal\tensor_ctypes.h **** }
  33:C:/Renesas/e2studio_2021_01_workspace_RZA2M_ANPR/ANPR_RZA2M_EBK/src/tensorflow_lite/tensorflow/lite/kernels/internal\tensor_ctypes.h **** 
  34:C:/Renesas/e2studio_2021_01_workspace_RZA2M_ANPR/ANPR_RZA2M_EBK/src/tensorflow_lite/tensorflow/lite/kernels/internal\tensor_ctypes.h **** inline RuntimeShape GetTensorShape(const TfLiteTensor* tensor) {
  35:C:/Renesas/e2studio_2021_01_workspace_RZA2M_ANPR/ANPR_RZA2M_EBK/src/tensorflow_lite/tensorflow/lite/kernels/internal\tensor_ctypes.h ****   if (tensor == nullptr) {
 350              		.loc 3 35 0
 351 02bc 000053E3 		cmp	r3, #0
 352 02c0 3400000A 		beq	.L25
 353              	.LVL36:
  36:C:/Renesas/e2studio_2021_01_workspace_RZA2M_ANPR/ANPR_RZA2M_EBK/src/tensorflow_lite/tensorflow/lite/kernels/internal\tensor_ctypes.h ****     return RuntimeShape();
  37:C:/Renesas/e2studio_2021_01_workspace_RZA2M_ANPR/ANPR_RZA2M_EBK/src/tensorflow_lite/tensorflow/lite/kernels/internal\tensor_ctypes.h ****   }
  38:C:/Renesas/e2studio_2021_01_workspace_RZA2M_ANPR/ANPR_RZA2M_EBK/src/tensorflow_lite/tensorflow/lite/kernels/internal\tensor_ctypes.h **** 
  39:C:/Renesas/e2studio_2021_01_workspace_RZA2M_ANPR/ANPR_RZA2M_EBK/src/tensorflow_lite/tensorflow/lite/kernels/internal\tensor_ctypes.h ****   TfLiteIntArray* dims = tensor->dims;
  40:C:/Renesas/e2studio_2021_01_workspace_RZA2M_ANPR/ANPR_RZA2M_EBK/src/tensorflow_lite/tensorflow/lite/kernels/internal\tensor_ctypes.h ****   const int dims_size = dims->size;
 354              		.loc 3 40 0
 355 02c4 086093E5 		ldr	r6, [r3, #8]
 356              	.LVL37:
 357 02c8 042096E4 		ldr	r2, [r6], #4
 358              	.LVL38:
 359              	.LBB1536:
 360              	.LBB1537:
 361              	.LBB1538:
 362              	.LBB1539:
 363              	.LBB1540:
 364              		.file 4 "C:/Renesas/e2studio_2021_01_workspace_RZA2M_ANPR/ANPR_RZA2M_EBK/src/tensorflow_lite/tenso
   1:C:/Renesas/e2studio_2021_01_workspace_RZA2M_ANPR/ANPR_RZA2M_EBK/src/tensorflow_lite/tensorflow/lite/kernels/internal\types.h **** /* Copyright 2018 The TensorFlow Authors. All Rights Reserved.
   2:C:/Renesas/e2studio_2021_01_workspace_RZA2M_ANPR/ANPR_RZA2M_EBK/src/tensorflow_lite/tensorflow/lite/kernels/internal\types.h **** 
   3:C:/Renesas/e2studio_2021_01_workspace_RZA2M_ANPR/ANPR_RZA2M_EBK/src/tensorflow_lite/tensorflow/lite/kernels/internal\types.h **** Licensed under the Apache License, Version 2.0 (the "License");
   4:C:/Renesas/e2studio_2021_01_workspace_RZA2M_ANPR/ANPR_RZA2M_EBK/src/tensorflow_lite/tensorflow/lite/kernels/internal\types.h **** you may not use this file except in compliance with the License.
   5:C:/Renesas/e2studio_2021_01_workspace_RZA2M_ANPR/ANPR_RZA2M_EBK/src/tensorflow_lite/tensorflow/lite/kernels/internal\types.h **** You may obtain a copy of the License at
   6:C:/Renesas/e2studio_2021_01_workspace_RZA2M_ANPR/ANPR_RZA2M_EBK/src/tensorflow_lite/tensorflow/lite/kernels/internal\types.h **** 
   7:C:/Renesas/e2studio_2021_01_workspace_RZA2M_ANPR/ANPR_RZA2M_EBK/src/tensorflow_lite/tensorflow/lite/kernels/internal\types.h ****     http://www.apache.org/licenses/LICENSE-2.0
   8:C:/Renesas/e2studio_2021_01_workspace_RZA2M_ANPR/ANPR_RZA2M_EBK/src/tensorflow_lite/tensorflow/lite/kernels/internal\types.h **** 
   9:C:/Renesas/e2studio_2021_01_workspace_RZA2M_ANPR/ANPR_RZA2M_EBK/src/tensorflow_lite/tensorflow/lite/kernels/internal\types.h **** Unless required by applicable law or agreed to in writing, software
  10:C:/Renesas/e2studio_2021_01_workspace_RZA2M_ANPR/ANPR_RZA2M_EBK/src/tensorflow_lite/tensorflow/lite/kernels/internal\types.h **** distributed under the License is distributed on an "AS IS" BASIS,
  11:C:/Renesas/e2studio_2021_01_workspace_RZA2M_ANPR/ANPR_RZA2M_EBK/src/tensorflow_lite/tensorflow/lite/kernels/internal\types.h **** WITHOUT WARRANTIES OR CONDITIONS OF ANY KIND, either express or implied.
  12:C:/Renesas/e2studio_2021_01_workspace_RZA2M_ANPR/ANPR_RZA2M_EBK/src/tensorflow_lite/tensorflow/lite/kernels/internal\types.h **** See the License for the specific language governing permissions and
  13:C:/Renesas/e2studio_2021_01_workspace_RZA2M_ANPR/ANPR_RZA2M_EBK/src/tensorflow_lite/tensorflow/lite/kernels/internal\types.h **** limitations under the License.
  14:C:/Renesas/e2studio_2021_01_workspace_RZA2M_ANPR/ANPR_RZA2M_EBK/src/tensorflow_lite/tensorflow/lite/kernels/internal\types.h **** ==============================================================================*/
  15:C:/Renesas/e2studio_2021_01_workspace_RZA2M_ANPR/ANPR_RZA2M_EBK/src/tensorflow_lite/tensorflow/lite/kernels/internal\types.h **** #ifndef TENSORFLOW_LITE_KERNELS_INTERNAL_TYPES_H_
  16:C:/Renesas/e2studio_2021_01_workspace_RZA2M_ANPR/ANPR_RZA2M_EBK/src/tensorflow_lite/tensorflow/lite/kernels/internal\types.h **** #define TENSORFLOW_LITE_KERNELS_INTERNAL_TYPES_H_
  17:C:/Renesas/e2studio_2021_01_workspace_RZA2M_ANPR/ANPR_RZA2M_EBK/src/tensorflow_lite/tensorflow/lite/kernels/internal\types.h **** 
  18:C:/Renesas/e2studio_2021_01_workspace_RZA2M_ANPR/ANPR_RZA2M_EBK/src/tensorflow_lite/tensorflow/lite/kernels/internal\types.h **** #include <algorithm>
  19:C:/Renesas/e2studio_2021_01_workspace_RZA2M_ANPR/ANPR_RZA2M_EBK/src/tensorflow_lite/tensorflow/lite/kernels/internal\types.h **** #include <cstdint>
  20:C:/Renesas/e2studio_2021_01_workspace_RZA2M_ANPR/ANPR_RZA2M_EBK/src/tensorflow_lite/tensorflow/lite/kernels/internal\types.h **** #include <cstring>
  21:C:/Renesas/e2studio_2021_01_workspace_RZA2M_ANPR/ANPR_RZA2M_EBK/src/tensorflow_lite/tensorflow/lite/kernels/internal\types.h **** #include <initializer_list>
  22:C:/Renesas/e2studio_2021_01_workspace_RZA2M_ANPR/ANPR_RZA2M_EBK/src/tensorflow_lite/tensorflow/lite/kernels/internal\types.h **** 
  23:C:/Renesas/e2studio_2021_01_workspace_RZA2M_ANPR/ANPR_RZA2M_EBK/src/tensorflow_lite/tensorflow/lite/kernels/internal\types.h **** #include "tensorflow/lite/kernels/internal/compatibility.h"
  24:C:/Renesas/e2studio_2021_01_workspace_RZA2M_ANPR/ANPR_RZA2M_EBK/src/tensorflow_lite/tensorflow/lite/kernels/internal\types.h **** 
  25:C:/Renesas/e2studio_2021_01_workspace_RZA2M_ANPR/ANPR_RZA2M_EBK/src/tensorflow_lite/tensorflow/lite/kernels/internal\types.h **** namespace tflite {
  26:C:/Renesas/e2studio_2021_01_workspace_RZA2M_ANPR/ANPR_RZA2M_EBK/src/tensorflow_lite/tensorflow/lite/kernels/internal\types.h **** 
  27:C:/Renesas/e2studio_2021_01_workspace_RZA2M_ANPR/ANPR_RZA2M_EBK/src/tensorflow_lite/tensorflow/lite/kernels/internal\types.h **** enum class FusedActivationFunctionType : uint8_t {
  28:C:/Renesas/e2studio_2021_01_workspace_RZA2M_ANPR/ANPR_RZA2M_EBK/src/tensorflow_lite/tensorflow/lite/kernels/internal\types.h ****   kNone,
  29:C:/Renesas/e2studio_2021_01_workspace_RZA2M_ANPR/ANPR_RZA2M_EBK/src/tensorflow_lite/tensorflow/lite/kernels/internal\types.h ****   kRelu6,
  30:C:/Renesas/e2studio_2021_01_workspace_RZA2M_ANPR/ANPR_RZA2M_EBK/src/tensorflow_lite/tensorflow/lite/kernels/internal\types.h ****   kRelu1,
  31:C:/Renesas/e2studio_2021_01_workspace_RZA2M_ANPR/ANPR_RZA2M_EBK/src/tensorflow_lite/tensorflow/lite/kernels/internal\types.h ****   kRelu
  32:C:/Renesas/e2studio_2021_01_workspace_RZA2M_ANPR/ANPR_RZA2M_EBK/src/tensorflow_lite/tensorflow/lite/kernels/internal\types.h **** };
  33:C:/Renesas/e2studio_2021_01_workspace_RZA2M_ANPR/ANPR_RZA2M_EBK/src/tensorflow_lite/tensorflow/lite/kernels/internal\types.h **** enum class PaddingType : uint8_t { kNone, kSame, kValid };
  34:C:/Renesas/e2studio_2021_01_workspace_RZA2M_ANPR/ANPR_RZA2M_EBK/src/tensorflow_lite/tensorflow/lite/kernels/internal\types.h **** 
  35:C:/Renesas/e2studio_2021_01_workspace_RZA2M_ANPR/ANPR_RZA2M_EBK/src/tensorflow_lite/tensorflow/lite/kernels/internal\types.h **** struct PaddingValues {
  36:C:/Renesas/e2studio_2021_01_workspace_RZA2M_ANPR/ANPR_RZA2M_EBK/src/tensorflow_lite/tensorflow/lite/kernels/internal\types.h ****   int16_t width;
  37:C:/Renesas/e2studio_2021_01_workspace_RZA2M_ANPR/ANPR_RZA2M_EBK/src/tensorflow_lite/tensorflow/lite/kernels/internal\types.h ****   int16_t height;
  38:C:/Renesas/e2studio_2021_01_workspace_RZA2M_ANPR/ANPR_RZA2M_EBK/src/tensorflow_lite/tensorflow/lite/kernels/internal\types.h ****   // offset is used for calculating "remaining" padding, for example, `width`
  39:C:/Renesas/e2studio_2021_01_workspace_RZA2M_ANPR/ANPR_RZA2M_EBK/src/tensorflow_lite/tensorflow/lite/kernels/internal\types.h ****   // is 1 and `width_offset` is 1, so padding_left is 1 while padding_right is
  40:C:/Renesas/e2studio_2021_01_workspace_RZA2M_ANPR/ANPR_RZA2M_EBK/src/tensorflow_lite/tensorflow/lite/kernels/internal\types.h ****   // 1 + 1 = 2.
  41:C:/Renesas/e2studio_2021_01_workspace_RZA2M_ANPR/ANPR_RZA2M_EBK/src/tensorflow_lite/tensorflow/lite/kernels/internal\types.h ****   int16_t width_offset;
  42:C:/Renesas/e2studio_2021_01_workspace_RZA2M_ANPR/ANPR_RZA2M_EBK/src/tensorflow_lite/tensorflow/lite/kernels/internal\types.h ****   // Same as width_offset except it's over the height dimension.
  43:C:/Renesas/e2studio_2021_01_workspace_RZA2M_ANPR/ANPR_RZA2M_EBK/src/tensorflow_lite/tensorflow/lite/kernels/internal\types.h ****   int16_t height_offset;
  44:C:/Renesas/e2studio_2021_01_workspace_RZA2M_ANPR/ANPR_RZA2M_EBK/src/tensorflow_lite/tensorflow/lite/kernels/internal\types.h **** };
  45:C:/Renesas/e2studio_2021_01_workspace_RZA2M_ANPR/ANPR_RZA2M_EBK/src/tensorflow_lite/tensorflow/lite/kernels/internal\types.h **** 
  46:C:/Renesas/e2studio_2021_01_workspace_RZA2M_ANPR/ANPR_RZA2M_EBK/src/tensorflow_lite/tensorflow/lite/kernels/internal\types.h **** struct Padding3DValues {
  47:C:/Renesas/e2studio_2021_01_workspace_RZA2M_ANPR/ANPR_RZA2M_EBK/src/tensorflow_lite/tensorflow/lite/kernels/internal\types.h ****   int16_t width;
  48:C:/Renesas/e2studio_2021_01_workspace_RZA2M_ANPR/ANPR_RZA2M_EBK/src/tensorflow_lite/tensorflow/lite/kernels/internal\types.h ****   int16_t height;
  49:C:/Renesas/e2studio_2021_01_workspace_RZA2M_ANPR/ANPR_RZA2M_EBK/src/tensorflow_lite/tensorflow/lite/kernels/internal\types.h ****   int16_t depth;
  50:C:/Renesas/e2studio_2021_01_workspace_RZA2M_ANPR/ANPR_RZA2M_EBK/src/tensorflow_lite/tensorflow/lite/kernels/internal\types.h ****   // offset is used for calculating "remaining" padding, for example, `width`
  51:C:/Renesas/e2studio_2021_01_workspace_RZA2M_ANPR/ANPR_RZA2M_EBK/src/tensorflow_lite/tensorflow/lite/kernels/internal\types.h ****   // is 1 and `width_offset` is 1, so padding_left is 1 while padding_right is
  52:C:/Renesas/e2studio_2021_01_workspace_RZA2M_ANPR/ANPR_RZA2M_EBK/src/tensorflow_lite/tensorflow/lite/kernels/internal\types.h ****   // 1 + 1 = 2.
  53:C:/Renesas/e2studio_2021_01_workspace_RZA2M_ANPR/ANPR_RZA2M_EBK/src/tensorflow_lite/tensorflow/lite/kernels/internal\types.h ****   int16_t width_offset;
  54:C:/Renesas/e2studio_2021_01_workspace_RZA2M_ANPR/ANPR_RZA2M_EBK/src/tensorflow_lite/tensorflow/lite/kernels/internal\types.h ****   // Same as width_offset except it's over the height dimension.
  55:C:/Renesas/e2studio_2021_01_workspace_RZA2M_ANPR/ANPR_RZA2M_EBK/src/tensorflow_lite/tensorflow/lite/kernels/internal\types.h ****   int16_t height_offset;
  56:C:/Renesas/e2studio_2021_01_workspace_RZA2M_ANPR/ANPR_RZA2M_EBK/src/tensorflow_lite/tensorflow/lite/kernels/internal\types.h ****   // Same as width_offset except it's over the depth dimension.
  57:C:/Renesas/e2studio_2021_01_workspace_RZA2M_ANPR/ANPR_RZA2M_EBK/src/tensorflow_lite/tensorflow/lite/kernels/internal\types.h ****   int16_t depth_offset;
  58:C:/Renesas/e2studio_2021_01_workspace_RZA2M_ANPR/ANPR_RZA2M_EBK/src/tensorflow_lite/tensorflow/lite/kernels/internal\types.h **** };
  59:C:/Renesas/e2studio_2021_01_workspace_RZA2M_ANPR/ANPR_RZA2M_EBK/src/tensorflow_lite/tensorflow/lite/kernels/internal\types.h **** 
  60:C:/Renesas/e2studio_2021_01_workspace_RZA2M_ANPR/ANPR_RZA2M_EBK/src/tensorflow_lite/tensorflow/lite/kernels/internal\types.h **** // This enumeration allows for non-default formats for the weights array
  61:C:/Renesas/e2studio_2021_01_workspace_RZA2M_ANPR/ANPR_RZA2M_EBK/src/tensorflow_lite/tensorflow/lite/kernels/internal\types.h **** // of a fully-connected operator, allowing the use of special optimized
  62:C:/Renesas/e2studio_2021_01_workspace_RZA2M_ANPR/ANPR_RZA2M_EBK/src/tensorflow_lite/tensorflow/lite/kernels/internal\types.h **** // runtime paths.
  63:C:/Renesas/e2studio_2021_01_workspace_RZA2M_ANPR/ANPR_RZA2M_EBK/src/tensorflow_lite/tensorflow/lite/kernels/internal\types.h **** enum class FullyConnectedWeightsFormat : uint8_t {
  64:C:/Renesas/e2studio_2021_01_workspace_RZA2M_ANPR/ANPR_RZA2M_EBK/src/tensorflow_lite/tensorflow/lite/kernels/internal\types.h ****   // Default format (flat 2D layout, the inner contiguous dimension
  65:C:/Renesas/e2studio_2021_01_workspace_RZA2M_ANPR/ANPR_RZA2M_EBK/src/tensorflow_lite/tensorflow/lite/kernels/internal\types.h ****   // is input_depth, the outer non-contiguous dimension is output_depth)
  66:C:/Renesas/e2studio_2021_01_workspace_RZA2M_ANPR/ANPR_RZA2M_EBK/src/tensorflow_lite/tensorflow/lite/kernels/internal\types.h ****   kDefault,
  67:C:/Renesas/e2studio_2021_01_workspace_RZA2M_ANPR/ANPR_RZA2M_EBK/src/tensorflow_lite/tensorflow/lite/kernels/internal\types.h ****   // Summary: optimized layout for fast CPU runtime implementation,
  68:C:/Renesas/e2studio_2021_01_workspace_RZA2M_ANPR/ANPR_RZA2M_EBK/src/tensorflow_lite/tensorflow/lite/kernels/internal\types.h ****   // aimed specifically at ARM CPUs at the moment, and specialized for
  69:C:/Renesas/e2studio_2021_01_workspace_RZA2M_ANPR/ANPR_RZA2M_EBK/src/tensorflow_lite/tensorflow/lite/kernels/internal\types.h ****   // 8-bit quantized layers.
  70:C:/Renesas/e2studio_2021_01_workspace_RZA2M_ANPR/ANPR_RZA2M_EBK/src/tensorflow_lite/tensorflow/lite/kernels/internal\types.h ****   //
  71:C:/Renesas/e2studio_2021_01_workspace_RZA2M_ANPR/ANPR_RZA2M_EBK/src/tensorflow_lite/tensorflow/lite/kernels/internal\types.h ****   // The use case we're concerned with here is: 8-bit quantization,
  72:C:/Renesas/e2studio_2021_01_workspace_RZA2M_ANPR/ANPR_RZA2M_EBK/src/tensorflow_lite/tensorflow/lite/kernels/internal\types.h ****   // large weights matrix that doesn't fit in cache (e.g. 4096x2048 in
  73:C:/Renesas/e2studio_2021_01_workspace_RZA2M_ANPR/ANPR_RZA2M_EBK/src/tensorflow_lite/tensorflow/lite/kernels/internal\types.h ****   // a key application that drove this), very small batch size (e.g. 1 -- 4).
  74:C:/Renesas/e2studio_2021_01_workspace_RZA2M_ANPR/ANPR_RZA2M_EBK/src/tensorflow_lite/tensorflow/lite/kernels/internal\types.h ****   //
  75:C:/Renesas/e2studio_2021_01_workspace_RZA2M_ANPR/ANPR_RZA2M_EBK/src/tensorflow_lite/tensorflow/lite/kernels/internal\types.h ****   // Even with 8-bit quantization of weights, the performance of memory
  76:C:/Renesas/e2studio_2021_01_workspace_RZA2M_ANPR/ANPR_RZA2M_EBK/src/tensorflow_lite/tensorflow/lite/kernels/internal\types.h ****   // accesses to the weights can become the dominant issue when
  77:C:/Renesas/e2studio_2021_01_workspace_RZA2M_ANPR/ANPR_RZA2M_EBK/src/tensorflow_lite/tensorflow/lite/kernels/internal\types.h ****   // the batch size is small, so each weight value is used in only a few
  78:C:/Renesas/e2studio_2021_01_workspace_RZA2M_ANPR/ANPR_RZA2M_EBK/src/tensorflow_lite/tensorflow/lite/kernels/internal\types.h ****   // arithmetic ops, i.e. the fully-connected node has a low arithmetic
  79:C:/Renesas/e2studio_2021_01_workspace_RZA2M_ANPR/ANPR_RZA2M_EBK/src/tensorflow_lite/tensorflow/lite/kernels/internal\types.h ****   // intensity. The specific issues that arise are of three kinds:
  80:C:/Renesas/e2studio_2021_01_workspace_RZA2M_ANPR/ANPR_RZA2M_EBK/src/tensorflow_lite/tensorflow/lite/kernels/internal\types.h ****   // (1) One may, ideally, max out DRAM bandwidth, i.e. be truly memory
  81:C:/Renesas/e2studio_2021_01_workspace_RZA2M_ANPR/ANPR_RZA2M_EBK/src/tensorflow_lite/tensorflow/lite/kernels/internal\types.h ****   //     bound. That's the "good" issue to run into.
  82:C:/Renesas/e2studio_2021_01_workspace_RZA2M_ANPR/ANPR_RZA2M_EBK/src/tensorflow_lite/tensorflow/lite/kernels/internal\types.h ****   // (2) One may run into sub-optimal pre-fetching: the data hasn't been
  83:C:/Renesas/e2studio_2021_01_workspace_RZA2M_ANPR/ANPR_RZA2M_EBK/src/tensorflow_lite/tensorflow/lite/kernels/internal\types.h ****   //     prefetched into the cache by the time we need it.
  84:C:/Renesas/e2studio_2021_01_workspace_RZA2M_ANPR/ANPR_RZA2M_EBK/src/tensorflow_lite/tensorflow/lite/kernels/internal\types.h ****   // (3) One may run into cache aliasing: multiple values that are
  85:C:/Renesas/e2studio_2021_01_workspace_RZA2M_ANPR/ANPR_RZA2M_EBK/src/tensorflow_lite/tensorflow/lite/kernels/internal\types.h ****   //     pre-fetched, alias each other in the L1 cache (which typically
  86:C:/Renesas/e2studio_2021_01_workspace_RZA2M_ANPR/ANPR_RZA2M_EBK/src/tensorflow_lite/tensorflow/lite/kernels/internal\types.h ****   //     has only 4-way set associativity in ARM CPUs) and thus evict
  87:C:/Renesas/e2studio_2021_01_workspace_RZA2M_ANPR/ANPR_RZA2M_EBK/src/tensorflow_lite/tensorflow/lite/kernels/internal\types.h ****   //     each other before we get to using them.
  88:C:/Renesas/e2studio_2021_01_workspace_RZA2M_ANPR/ANPR_RZA2M_EBK/src/tensorflow_lite/tensorflow/lite/kernels/internal\types.h ****   //
  89:C:/Renesas/e2studio_2021_01_workspace_RZA2M_ANPR/ANPR_RZA2M_EBK/src/tensorflow_lite/tensorflow/lite/kernels/internal\types.h ****   // The point of this shuffling is to avoid issues (2) and (3) so that
  90:C:/Renesas/e2studio_2021_01_workspace_RZA2M_ANPR/ANPR_RZA2M_EBK/src/tensorflow_lite/tensorflow/lite/kernels/internal\types.h ****   // we get as fast as possible given only the hard constraint (1).
  91:C:/Renesas/e2studio_2021_01_workspace_RZA2M_ANPR/ANPR_RZA2M_EBK/src/tensorflow_lite/tensorflow/lite/kernels/internal\types.h ****   // This is achieved by turning the difficulty into a solution: the
  92:C:/Renesas/e2studio_2021_01_workspace_RZA2M_ANPR/ANPR_RZA2M_EBK/src/tensorflow_lite/tensorflow/lite/kernels/internal\types.h ****   // difficulty, that each value loaded from memory is used only in
  93:C:/Renesas/e2studio_2021_01_workspace_RZA2M_ANPR/ANPR_RZA2M_EBK/src/tensorflow_lite/tensorflow/lite/kernels/internal\types.h ****   // one kernel iteration, making this operation memory-intensive, hints at
  94:C:/Renesas/e2studio_2021_01_workspace_RZA2M_ANPR/ANPR_RZA2M_EBK/src/tensorflow_lite/tensorflow/lite/kernels/internal\types.h ****   // the solution, of shuffling the weights so that they are stored in the
  95:C:/Renesas/e2studio_2021_01_workspace_RZA2M_ANPR/ANPR_RZA2M_EBK/src/tensorflow_lite/tensorflow/lite/kernels/internal\types.h ****   // exact order as the kernel needs to load them, so that the memory
  96:C:/Renesas/e2studio_2021_01_workspace_RZA2M_ANPR/ANPR_RZA2M_EBK/src/tensorflow_lite/tensorflow/lite/kernels/internal\types.h ****   // accesses made by the kernel are trivial. This solves (2) because the
  97:C:/Renesas/e2studio_2021_01_workspace_RZA2M_ANPR/ANPR_RZA2M_EBK/src/tensorflow_lite/tensorflow/lite/kernels/internal\types.h ****   // trivial memory access pattern allows the CPU's automatic prefetching
  98:C:/Renesas/e2studio_2021_01_workspace_RZA2M_ANPR/ANPR_RZA2M_EBK/src/tensorflow_lite/tensorflow/lite/kernels/internal\types.h ****   // to perform very well (no need even for preload instructions), and this
  99:C:/Renesas/e2studio_2021_01_workspace_RZA2M_ANPR/ANPR_RZA2M_EBK/src/tensorflow_lite/tensorflow/lite/kernels/internal\types.h ****   // solves (3) because the values being loaded concurrently are now
 100:C:/Renesas/e2studio_2021_01_workspace_RZA2M_ANPR/ANPR_RZA2M_EBK/src/tensorflow_lite/tensorflow/lite/kernels/internal\types.h ****   // contiguous in the address space, thus don't alias each other in the cache.
 101:C:/Renesas/e2studio_2021_01_workspace_RZA2M_ANPR/ANPR_RZA2M_EBK/src/tensorflow_lite/tensorflow/lite/kernels/internal\types.h ****   //
 102:C:/Renesas/e2studio_2021_01_workspace_RZA2M_ANPR/ANPR_RZA2M_EBK/src/tensorflow_lite/tensorflow/lite/kernels/internal\types.h ****   // On ARM, we typically want our kernel to process a 4x16 block of weights
 103:C:/Renesas/e2studio_2021_01_workspace_RZA2M_ANPR/ANPR_RZA2M_EBK/src/tensorflow_lite/tensorflow/lite/kernels/internal\types.h ****   // at a time, because:
 104:C:/Renesas/e2studio_2021_01_workspace_RZA2M_ANPR/ANPR_RZA2M_EBK/src/tensorflow_lite/tensorflow/lite/kernels/internal\types.h ****   //   - 16 is the number of bytes in a NEON register.
 105:C:/Renesas/e2studio_2021_01_workspace_RZA2M_ANPR/ANPR_RZA2M_EBK/src/tensorflow_lite/tensorflow/lite/kernels/internal\types.h ****   //   - 4 is how many rows we need to handle concurrently in the kernel in
 106:C:/Renesas/e2studio_2021_01_workspace_RZA2M_ANPR/ANPR_RZA2M_EBK/src/tensorflow_lite/tensorflow/lite/kernels/internal\types.h ****   //     order to have sufficient mutual independence of instructions to
 107:C:/Renesas/e2studio_2021_01_workspace_RZA2M_ANPR/ANPR_RZA2M_EBK/src/tensorflow_lite/tensorflow/lite/kernels/internal\types.h ****   //     maximize arithmetic throughput.
 108:C:/Renesas/e2studio_2021_01_workspace_RZA2M_ANPR/ANPR_RZA2M_EBK/src/tensorflow_lite/tensorflow/lite/kernels/internal\types.h ****   //
 109:C:/Renesas/e2studio_2021_01_workspace_RZA2M_ANPR/ANPR_RZA2M_EBK/src/tensorflow_lite/tensorflow/lite/kernels/internal\types.h ****   // Finally, the 'Int8' part in the name refers to the fact that this
 110:C:/Renesas/e2studio_2021_01_workspace_RZA2M_ANPR/ANPR_RZA2M_EBK/src/tensorflow_lite/tensorflow/lite/kernels/internal\types.h ****   // weights format has each weights value encoded as a signed int8_t value,
 111:C:/Renesas/e2studio_2021_01_workspace_RZA2M_ANPR/ANPR_RZA2M_EBK/src/tensorflow_lite/tensorflow/lite/kernels/internal\types.h ****   // even if the data type of the weights buffer is uint8_t.  This is intended
 112:C:/Renesas/e2studio_2021_01_workspace_RZA2M_ANPR/ANPR_RZA2M_EBK/src/tensorflow_lite/tensorflow/lite/kernels/internal\types.h ****   // to save runtime kernels the effort to have to XOR the top bit of these
 113:C:/Renesas/e2studio_2021_01_workspace_RZA2M_ANPR/ANPR_RZA2M_EBK/src/tensorflow_lite/tensorflow/lite/kernels/internal\types.h ****   // bytes before using them in signed arithmetic, see this file for more
 114:C:/Renesas/e2studio_2021_01_workspace_RZA2M_ANPR/ANPR_RZA2M_EBK/src/tensorflow_lite/tensorflow/lite/kernels/internal\types.h ****   // explanations on the 'signed int8_t trick' in matrix multiplication kernels:
 115:C:/Renesas/e2studio_2021_01_workspace_RZA2M_ANPR/ANPR_RZA2M_EBK/src/tensorflow_lite/tensorflow/lite/kernels/internal\types.h ****   //
 116:C:/Renesas/e2studio_2021_01_workspace_RZA2M_ANPR/ANPR_RZA2M_EBK/src/tensorflow_lite/tensorflow/lite/kernels/internal\types.h ****   //   tensorflow/lite/toco/graph_transformations/ensure_uint8_weights_safe_for_fast_int8_kernels.c
 117:C:/Renesas/e2studio_2021_01_workspace_RZA2M_ANPR/ANPR_RZA2M_EBK/src/tensorflow_lite/tensorflow/lite/kernels/internal\types.h ****   //
 118:C:/Renesas/e2studio_2021_01_workspace_RZA2M_ANPR/ANPR_RZA2M_EBK/src/tensorflow_lite/tensorflow/lite/kernels/internal\types.h ****   kShuffled4x16Int8,
 119:C:/Renesas/e2studio_2021_01_workspace_RZA2M_ANPR/ANPR_RZA2M_EBK/src/tensorflow_lite/tensorflow/lite/kernels/internal\types.h **** };
 120:C:/Renesas/e2studio_2021_01_workspace_RZA2M_ANPR/ANPR_RZA2M_EBK/src/tensorflow_lite/tensorflow/lite/kernels/internal\types.h **** 
 121:C:/Renesas/e2studio_2021_01_workspace_RZA2M_ANPR/ANPR_RZA2M_EBK/src/tensorflow_lite/tensorflow/lite/kernels/internal\types.h **** // Quantization parameters, determining the mapping of quantized values
 122:C:/Renesas/e2studio_2021_01_workspace_RZA2M_ANPR/ANPR_RZA2M_EBK/src/tensorflow_lite/tensorflow/lite/kernels/internal\types.h **** // to real values (i.e. determining how quantized values are mathematically
 123:C:/Renesas/e2studio_2021_01_workspace_RZA2M_ANPR/ANPR_RZA2M_EBK/src/tensorflow_lite/tensorflow/lite/kernels/internal\types.h **** // interpreted).
 124:C:/Renesas/e2studio_2021_01_workspace_RZA2M_ANPR/ANPR_RZA2M_EBK/src/tensorflow_lite/tensorflow/lite/kernels/internal\types.h **** //
 125:C:/Renesas/e2studio_2021_01_workspace_RZA2M_ANPR/ANPR_RZA2M_EBK/src/tensorflow_lite/tensorflow/lite/kernels/internal\types.h **** // The correspondence is as follows:
 126:C:/Renesas/e2studio_2021_01_workspace_RZA2M_ANPR/ANPR_RZA2M_EBK/src/tensorflow_lite/tensorflow/lite/kernels/internal\types.h **** //
 127:C:/Renesas/e2studio_2021_01_workspace_RZA2M_ANPR/ANPR_RZA2M_EBK/src/tensorflow_lite/tensorflow/lite/kernels/internal\types.h **** //   real_value = scale * (quantized_value - zero_point);
 128:C:/Renesas/e2studio_2021_01_workspace_RZA2M_ANPR/ANPR_RZA2M_EBK/src/tensorflow_lite/tensorflow/lite/kernels/internal\types.h **** //
 129:C:/Renesas/e2studio_2021_01_workspace_RZA2M_ANPR/ANPR_RZA2M_EBK/src/tensorflow_lite/tensorflow/lite/kernels/internal\types.h **** // In other words, zero_point designates which quantized value corresponds to
 130:C:/Renesas/e2studio_2021_01_workspace_RZA2M_ANPR/ANPR_RZA2M_EBK/src/tensorflow_lite/tensorflow/lite/kernels/internal\types.h **** // the real 0 value, and scale designates the difference between the real values
 131:C:/Renesas/e2studio_2021_01_workspace_RZA2M_ANPR/ANPR_RZA2M_EBK/src/tensorflow_lite/tensorflow/lite/kernels/internal\types.h **** // corresponding to consecutive quantized values differing by 1.
 132:C:/Renesas/e2studio_2021_01_workspace_RZA2M_ANPR/ANPR_RZA2M_EBK/src/tensorflow_lite/tensorflow/lite/kernels/internal\types.h **** struct QuantizationParams {
 133:C:/Renesas/e2studio_2021_01_workspace_RZA2M_ANPR/ANPR_RZA2M_EBK/src/tensorflow_lite/tensorflow/lite/kernels/internal\types.h ****   int32_t zero_point = 0;
 134:C:/Renesas/e2studio_2021_01_workspace_RZA2M_ANPR/ANPR_RZA2M_EBK/src/tensorflow_lite/tensorflow/lite/kernels/internal\types.h ****   double scale = 0.0;
 135:C:/Renesas/e2studio_2021_01_workspace_RZA2M_ANPR/ANPR_RZA2M_EBK/src/tensorflow_lite/tensorflow/lite/kernels/internal\types.h **** };
 136:C:/Renesas/e2studio_2021_01_workspace_RZA2M_ANPR/ANPR_RZA2M_EBK/src/tensorflow_lite/tensorflow/lite/kernels/internal\types.h **** 
 137:C:/Renesas/e2studio_2021_01_workspace_RZA2M_ANPR/ANPR_RZA2M_EBK/src/tensorflow_lite/tensorflow/lite/kernels/internal\types.h **** inline bool operator==(const QuantizationParams& qp1,
 138:C:/Renesas/e2studio_2021_01_workspace_RZA2M_ANPR/ANPR_RZA2M_EBK/src/tensorflow_lite/tensorflow/lite/kernels/internal\types.h ****                        const QuantizationParams& qp2) {
 139:C:/Renesas/e2studio_2021_01_workspace_RZA2M_ANPR/ANPR_RZA2M_EBK/src/tensorflow_lite/tensorflow/lite/kernels/internal\types.h ****   return qp1.zero_point == qp2.zero_point && qp1.scale == qp2.scale;
 140:C:/Renesas/e2studio_2021_01_workspace_RZA2M_ANPR/ANPR_RZA2M_EBK/src/tensorflow_lite/tensorflow/lite/kernels/internal\types.h **** }
 141:C:/Renesas/e2studio_2021_01_workspace_RZA2M_ANPR/ANPR_RZA2M_EBK/src/tensorflow_lite/tensorflow/lite/kernels/internal\types.h **** 
 142:C:/Renesas/e2studio_2021_01_workspace_RZA2M_ANPR/ANPR_RZA2M_EBK/src/tensorflow_lite/tensorflow/lite/kernels/internal\types.h **** template <int N>
 143:C:/Renesas/e2studio_2021_01_workspace_RZA2M_ANPR/ANPR_RZA2M_EBK/src/tensorflow_lite/tensorflow/lite/kernels/internal\types.h **** struct Dims {
 144:C:/Renesas/e2studio_2021_01_workspace_RZA2M_ANPR/ANPR_RZA2M_EBK/src/tensorflow_lite/tensorflow/lite/kernels/internal\types.h ****   int sizes[N];
 145:C:/Renesas/e2studio_2021_01_workspace_RZA2M_ANPR/ANPR_RZA2M_EBK/src/tensorflow_lite/tensorflow/lite/kernels/internal\types.h ****   int strides[N];
 146:C:/Renesas/e2studio_2021_01_workspace_RZA2M_ANPR/ANPR_RZA2M_EBK/src/tensorflow_lite/tensorflow/lite/kernels/internal\types.h **** };
 147:C:/Renesas/e2studio_2021_01_workspace_RZA2M_ANPR/ANPR_RZA2M_EBK/src/tensorflow_lite/tensorflow/lite/kernels/internal\types.h **** 
 148:C:/Renesas/e2studio_2021_01_workspace_RZA2M_ANPR/ANPR_RZA2M_EBK/src/tensorflow_lite/tensorflow/lite/kernels/internal\types.h **** class RuntimeShape {
 149:C:/Renesas/e2studio_2021_01_workspace_RZA2M_ANPR/ANPR_RZA2M_EBK/src/tensorflow_lite/tensorflow/lite/kernels/internal\types.h ****  public:
 150:C:/Renesas/e2studio_2021_01_workspace_RZA2M_ANPR/ANPR_RZA2M_EBK/src/tensorflow_lite/tensorflow/lite/kernels/internal\types.h ****   // Shapes with dimensions up to 5 are stored directly in the structure, while
 151:C:/Renesas/e2studio_2021_01_workspace_RZA2M_ANPR/ANPR_RZA2M_EBK/src/tensorflow_lite/tensorflow/lite/kernels/internal\types.h ****   // larger shapes are separately allocated.
 152:C:/Renesas/e2studio_2021_01_workspace_RZA2M_ANPR/ANPR_RZA2M_EBK/src/tensorflow_lite/tensorflow/lite/kernels/internal\types.h ****   static constexpr int kMaxSmallSize = 5;
 153:C:/Renesas/e2studio_2021_01_workspace_RZA2M_ANPR/ANPR_RZA2M_EBK/src/tensorflow_lite/tensorflow/lite/kernels/internal\types.h **** 
 154:C:/Renesas/e2studio_2021_01_workspace_RZA2M_ANPR/ANPR_RZA2M_EBK/src/tensorflow_lite/tensorflow/lite/kernels/internal\types.h ****   RuntimeShape& operator=(RuntimeShape const&) = delete;
 155:C:/Renesas/e2studio_2021_01_workspace_RZA2M_ANPR/ANPR_RZA2M_EBK/src/tensorflow_lite/tensorflow/lite/kernels/internal\types.h **** 
 156:C:/Renesas/e2studio_2021_01_workspace_RZA2M_ANPR/ANPR_RZA2M_EBK/src/tensorflow_lite/tensorflow/lite/kernels/internal\types.h ****   RuntimeShape() : size_(0) {}
 157:C:/Renesas/e2studio_2021_01_workspace_RZA2M_ANPR/ANPR_RZA2M_EBK/src/tensorflow_lite/tensorflow/lite/kernels/internal\types.h **** 
 158:C:/Renesas/e2studio_2021_01_workspace_RZA2M_ANPR/ANPR_RZA2M_EBK/src/tensorflow_lite/tensorflow/lite/kernels/internal\types.h ****   explicit RuntimeShape(int dimensions_count) : size_(dimensions_count) {
 159:C:/Renesas/e2studio_2021_01_workspace_RZA2M_ANPR/ANPR_RZA2M_EBK/src/tensorflow_lite/tensorflow/lite/kernels/internal\types.h ****     if (dimensions_count > kMaxSmallSize) {
 160:C:/Renesas/e2studio_2021_01_workspace_RZA2M_ANPR/ANPR_RZA2M_EBK/src/tensorflow_lite/tensorflow/lite/kernels/internal\types.h **** #ifdef TF_LITE_STATIC_MEMORY
 161:C:/Renesas/e2studio_2021_01_workspace_RZA2M_ANPR/ANPR_RZA2M_EBK/src/tensorflow_lite/tensorflow/lite/kernels/internal\types.h ****       TFLITE_CHECK(false && "No shape resizing supported on this platform");
 162:C:/Renesas/e2studio_2021_01_workspace_RZA2M_ANPR/ANPR_RZA2M_EBK/src/tensorflow_lite/tensorflow/lite/kernels/internal\types.h **** #else  // TF_LITE_STATIC_MEMORY
 163:C:/Renesas/e2studio_2021_01_workspace_RZA2M_ANPR/ANPR_RZA2M_EBK/src/tensorflow_lite/tensorflow/lite/kernels/internal\types.h ****       dims_pointer_ = new int32_t[dimensions_count];
 164:C:/Renesas/e2studio_2021_01_workspace_RZA2M_ANPR/ANPR_RZA2M_EBK/src/tensorflow_lite/tensorflow/lite/kernels/internal\types.h **** #endif  // TF_LITE_STATIC_MEMORY
 165:C:/Renesas/e2studio_2021_01_workspace_RZA2M_ANPR/ANPR_RZA2M_EBK/src/tensorflow_lite/tensorflow/lite/kernels/internal\types.h ****     }
 166:C:/Renesas/e2studio_2021_01_workspace_RZA2M_ANPR/ANPR_RZA2M_EBK/src/tensorflow_lite/tensorflow/lite/kernels/internal\types.h ****   }
 167:C:/Renesas/e2studio_2021_01_workspace_RZA2M_ANPR/ANPR_RZA2M_EBK/src/tensorflow_lite/tensorflow/lite/kernels/internal\types.h **** 
 168:C:/Renesas/e2studio_2021_01_workspace_RZA2M_ANPR/ANPR_RZA2M_EBK/src/tensorflow_lite/tensorflow/lite/kernels/internal\types.h ****   RuntimeShape(int shape_size, int32_t value) : size_(0) {
 169:C:/Renesas/e2studio_2021_01_workspace_RZA2M_ANPR/ANPR_RZA2M_EBK/src/tensorflow_lite/tensorflow/lite/kernels/internal\types.h ****     Resize(shape_size);
 170:C:/Renesas/e2studio_2021_01_workspace_RZA2M_ANPR/ANPR_RZA2M_EBK/src/tensorflow_lite/tensorflow/lite/kernels/internal\types.h ****     for (int i = 0; i < shape_size; ++i) {
 171:C:/Renesas/e2studio_2021_01_workspace_RZA2M_ANPR/ANPR_RZA2M_EBK/src/tensorflow_lite/tensorflow/lite/kernels/internal\types.h ****       SetDim(i, value);
 172:C:/Renesas/e2studio_2021_01_workspace_RZA2M_ANPR/ANPR_RZA2M_EBK/src/tensorflow_lite/tensorflow/lite/kernels/internal\types.h ****     }
 173:C:/Renesas/e2studio_2021_01_workspace_RZA2M_ANPR/ANPR_RZA2M_EBK/src/tensorflow_lite/tensorflow/lite/kernels/internal\types.h ****   }
 174:C:/Renesas/e2studio_2021_01_workspace_RZA2M_ANPR/ANPR_RZA2M_EBK/src/tensorflow_lite/tensorflow/lite/kernels/internal\types.h **** 
 175:C:/Renesas/e2studio_2021_01_workspace_RZA2M_ANPR/ANPR_RZA2M_EBK/src/tensorflow_lite/tensorflow/lite/kernels/internal\types.h ****   RuntimeShape(int dimensions_count, const int32_t* dims_data) : size_(0) {
 176:C:/Renesas/e2studio_2021_01_workspace_RZA2M_ANPR/ANPR_RZA2M_EBK/src/tensorflow_lite/tensorflow/lite/kernels/internal\types.h ****     ReplaceWith(dimensions_count, dims_data);
 177:C:/Renesas/e2studio_2021_01_workspace_RZA2M_ANPR/ANPR_RZA2M_EBK/src/tensorflow_lite/tensorflow/lite/kernels/internal\types.h ****   }
 178:C:/Renesas/e2studio_2021_01_workspace_RZA2M_ANPR/ANPR_RZA2M_EBK/src/tensorflow_lite/tensorflow/lite/kernels/internal\types.h **** 
 179:C:/Renesas/e2studio_2021_01_workspace_RZA2M_ANPR/ANPR_RZA2M_EBK/src/tensorflow_lite/tensorflow/lite/kernels/internal\types.h ****   RuntimeShape(const std::initializer_list<int> init_list) : size_(0) {
 180:C:/Renesas/e2studio_2021_01_workspace_RZA2M_ANPR/ANPR_RZA2M_EBK/src/tensorflow_lite/tensorflow/lite/kernels/internal\types.h ****     BuildFrom(init_list);
 181:C:/Renesas/e2studio_2021_01_workspace_RZA2M_ANPR/ANPR_RZA2M_EBK/src/tensorflow_lite/tensorflow/lite/kernels/internal\types.h ****   }
 182:C:/Renesas/e2studio_2021_01_workspace_RZA2M_ANPR/ANPR_RZA2M_EBK/src/tensorflow_lite/tensorflow/lite/kernels/internal\types.h **** 
 183:C:/Renesas/e2studio_2021_01_workspace_RZA2M_ANPR/ANPR_RZA2M_EBK/src/tensorflow_lite/tensorflow/lite/kernels/internal\types.h ****   // Avoid using this constructor.  We should be able to delete it when C++17
 184:C:/Renesas/e2studio_2021_01_workspace_RZA2M_ANPR/ANPR_RZA2M_EBK/src/tensorflow_lite/tensorflow/lite/kernels/internal\types.h ****   // rolls out.
 185:C:/Renesas/e2studio_2021_01_workspace_RZA2M_ANPR/ANPR_RZA2M_EBK/src/tensorflow_lite/tensorflow/lite/kernels/internal\types.h ****   RuntimeShape(RuntimeShape const& other) : size_(other.DimensionsCount()) {
 186:C:/Renesas/e2studio_2021_01_workspace_RZA2M_ANPR/ANPR_RZA2M_EBK/src/tensorflow_lite/tensorflow/lite/kernels/internal\types.h ****     if (size_ > kMaxSmallSize) {
 187:C:/Renesas/e2studio_2021_01_workspace_RZA2M_ANPR/ANPR_RZA2M_EBK/src/tensorflow_lite/tensorflow/lite/kernels/internal\types.h **** #ifdef TF_LITE_STATIC_MEMORY
 188:C:/Renesas/e2studio_2021_01_workspace_RZA2M_ANPR/ANPR_RZA2M_EBK/src/tensorflow_lite/tensorflow/lite/kernels/internal\types.h ****       TFLITE_CHECK(false && "No shape resizing supported on this platform");
 189:C:/Renesas/e2studio_2021_01_workspace_RZA2M_ANPR/ANPR_RZA2M_EBK/src/tensorflow_lite/tensorflow/lite/kernels/internal\types.h **** #else
 190:C:/Renesas/e2studio_2021_01_workspace_RZA2M_ANPR/ANPR_RZA2M_EBK/src/tensorflow_lite/tensorflow/lite/kernels/internal\types.h ****       dims_pointer_ = new int32_t[size_];
 191:C:/Renesas/e2studio_2021_01_workspace_RZA2M_ANPR/ANPR_RZA2M_EBK/src/tensorflow_lite/tensorflow/lite/kernels/internal\types.h **** #endif
 192:C:/Renesas/e2studio_2021_01_workspace_RZA2M_ANPR/ANPR_RZA2M_EBK/src/tensorflow_lite/tensorflow/lite/kernels/internal\types.h ****     }
 193:C:/Renesas/e2studio_2021_01_workspace_RZA2M_ANPR/ANPR_RZA2M_EBK/src/tensorflow_lite/tensorflow/lite/kernels/internal\types.h ****     std::memcpy(DimsData(), other.DimsData(), sizeof(int32_t) * size_);
 194:C:/Renesas/e2studio_2021_01_workspace_RZA2M_ANPR/ANPR_RZA2M_EBK/src/tensorflow_lite/tensorflow/lite/kernels/internal\types.h ****   }
 195:C:/Renesas/e2studio_2021_01_workspace_RZA2M_ANPR/ANPR_RZA2M_EBK/src/tensorflow_lite/tensorflow/lite/kernels/internal\types.h **** 
 196:C:/Renesas/e2studio_2021_01_workspace_RZA2M_ANPR/ANPR_RZA2M_EBK/src/tensorflow_lite/tensorflow/lite/kernels/internal\types.h ****   bool operator==(const RuntimeShape& comp) const {
 197:C:/Renesas/e2studio_2021_01_workspace_RZA2M_ANPR/ANPR_RZA2M_EBK/src/tensorflow_lite/tensorflow/lite/kernels/internal\types.h ****     return this->size_ == comp.size_ &&
 198:C:/Renesas/e2studio_2021_01_workspace_RZA2M_ANPR/ANPR_RZA2M_EBK/src/tensorflow_lite/tensorflow/lite/kernels/internal\types.h ****            std::memcmp(DimsData(), comp.DimsData(), size_ * sizeof(int32_t)) ==
 199:C:/Renesas/e2studio_2021_01_workspace_RZA2M_ANPR/ANPR_RZA2M_EBK/src/tensorflow_lite/tensorflow/lite/kernels/internal\types.h ****                0;
 200:C:/Renesas/e2studio_2021_01_workspace_RZA2M_ANPR/ANPR_RZA2M_EBK/src/tensorflow_lite/tensorflow/lite/kernels/internal\types.h ****   }
 201:C:/Renesas/e2studio_2021_01_workspace_RZA2M_ANPR/ANPR_RZA2M_EBK/src/tensorflow_lite/tensorflow/lite/kernels/internal\types.h **** 
 202:C:/Renesas/e2studio_2021_01_workspace_RZA2M_ANPR/ANPR_RZA2M_EBK/src/tensorflow_lite/tensorflow/lite/kernels/internal\types.h ****   ~RuntimeShape() {
 203:C:/Renesas/e2studio_2021_01_workspace_RZA2M_ANPR/ANPR_RZA2M_EBK/src/tensorflow_lite/tensorflow/lite/kernels/internal\types.h ****     if (size_ > kMaxSmallSize) {
 204:C:/Renesas/e2studio_2021_01_workspace_RZA2M_ANPR/ANPR_RZA2M_EBK/src/tensorflow_lite/tensorflow/lite/kernels/internal\types.h **** #ifdef TF_LITE_STATIC_MEMORY
 205:C:/Renesas/e2studio_2021_01_workspace_RZA2M_ANPR/ANPR_RZA2M_EBK/src/tensorflow_lite/tensorflow/lite/kernels/internal\types.h ****       TFLITE_CHECK(false && "No shape resizing supported on this platform");
 206:C:/Renesas/e2studio_2021_01_workspace_RZA2M_ANPR/ANPR_RZA2M_EBK/src/tensorflow_lite/tensorflow/lite/kernels/internal\types.h **** #else  // TF_LITE_STATIC_MEMORY
 207:C:/Renesas/e2studio_2021_01_workspace_RZA2M_ANPR/ANPR_RZA2M_EBK/src/tensorflow_lite/tensorflow/lite/kernels/internal\types.h ****       delete[] dims_pointer_;
 208:C:/Renesas/e2studio_2021_01_workspace_RZA2M_ANPR/ANPR_RZA2M_EBK/src/tensorflow_lite/tensorflow/lite/kernels/internal\types.h **** #endif  // TF_LITE_STATIC_MEMORY
 209:C:/Renesas/e2studio_2021_01_workspace_RZA2M_ANPR/ANPR_RZA2M_EBK/src/tensorflow_lite/tensorflow/lite/kernels/internal\types.h ****     }
 210:C:/Renesas/e2studio_2021_01_workspace_RZA2M_ANPR/ANPR_RZA2M_EBK/src/tensorflow_lite/tensorflow/lite/kernels/internal\types.h ****   }
 211:C:/Renesas/e2studio_2021_01_workspace_RZA2M_ANPR/ANPR_RZA2M_EBK/src/tensorflow_lite/tensorflow/lite/kernels/internal\types.h **** 
 212:C:/Renesas/e2studio_2021_01_workspace_RZA2M_ANPR/ANPR_RZA2M_EBK/src/tensorflow_lite/tensorflow/lite/kernels/internal\types.h ****   inline int32_t DimensionsCount() const { return size_; }
 213:C:/Renesas/e2studio_2021_01_workspace_RZA2M_ANPR/ANPR_RZA2M_EBK/src/tensorflow_lite/tensorflow/lite/kernels/internal\types.h ****   inline int32_t Dims(int i) const {
 214:C:/Renesas/e2studio_2021_01_workspace_RZA2M_ANPR/ANPR_RZA2M_EBK/src/tensorflow_lite/tensorflow/lite/kernels/internal\types.h ****     TFLITE_DCHECK_GE(i, 0);
 215:C:/Renesas/e2studio_2021_01_workspace_RZA2M_ANPR/ANPR_RZA2M_EBK/src/tensorflow_lite/tensorflow/lite/kernels/internal\types.h ****     TFLITE_DCHECK_LT(i, size_);
 216:C:/Renesas/e2studio_2021_01_workspace_RZA2M_ANPR/ANPR_RZA2M_EBK/src/tensorflow_lite/tensorflow/lite/kernels/internal\types.h ****     return size_ > kMaxSmallSize ? dims_pointer_[i] : dims_[i];
 217:C:/Renesas/e2studio_2021_01_workspace_RZA2M_ANPR/ANPR_RZA2M_EBK/src/tensorflow_lite/tensorflow/lite/kernels/internal\types.h ****   }
 218:C:/Renesas/e2studio_2021_01_workspace_RZA2M_ANPR/ANPR_RZA2M_EBK/src/tensorflow_lite/tensorflow/lite/kernels/internal\types.h ****   inline void SetDim(int i, int32_t val) {
 219:C:/Renesas/e2studio_2021_01_workspace_RZA2M_ANPR/ANPR_RZA2M_EBK/src/tensorflow_lite/tensorflow/lite/kernels/internal\types.h ****     TFLITE_DCHECK_GE(i, 0);
 220:C:/Renesas/e2studio_2021_01_workspace_RZA2M_ANPR/ANPR_RZA2M_EBK/src/tensorflow_lite/tensorflow/lite/kernels/internal\types.h ****     TFLITE_DCHECK_LT(i, size_);
 221:C:/Renesas/e2studio_2021_01_workspace_RZA2M_ANPR/ANPR_RZA2M_EBK/src/tensorflow_lite/tensorflow/lite/kernels/internal\types.h ****     if (size_ > kMaxSmallSize) {
 222:C:/Renesas/e2studio_2021_01_workspace_RZA2M_ANPR/ANPR_RZA2M_EBK/src/tensorflow_lite/tensorflow/lite/kernels/internal\types.h ****       dims_pointer_[i] = val;
 223:C:/Renesas/e2studio_2021_01_workspace_RZA2M_ANPR/ANPR_RZA2M_EBK/src/tensorflow_lite/tensorflow/lite/kernels/internal\types.h ****     } else {
 224:C:/Renesas/e2studio_2021_01_workspace_RZA2M_ANPR/ANPR_RZA2M_EBK/src/tensorflow_lite/tensorflow/lite/kernels/internal\types.h ****       dims_[i] = val;
 225:C:/Renesas/e2studio_2021_01_workspace_RZA2M_ANPR/ANPR_RZA2M_EBK/src/tensorflow_lite/tensorflow/lite/kernels/internal\types.h ****     }
 226:C:/Renesas/e2studio_2021_01_workspace_RZA2M_ANPR/ANPR_RZA2M_EBK/src/tensorflow_lite/tensorflow/lite/kernels/internal\types.h ****   }
 227:C:/Renesas/e2studio_2021_01_workspace_RZA2M_ANPR/ANPR_RZA2M_EBK/src/tensorflow_lite/tensorflow/lite/kernels/internal\types.h **** 
 228:C:/Renesas/e2studio_2021_01_workspace_RZA2M_ANPR/ANPR_RZA2M_EBK/src/tensorflow_lite/tensorflow/lite/kernels/internal\types.h ****   inline int32_t* DimsData() {
 229:C:/Renesas/e2studio_2021_01_workspace_RZA2M_ANPR/ANPR_RZA2M_EBK/src/tensorflow_lite/tensorflow/lite/kernels/internal\types.h ****     return size_ > kMaxSmallSize ? dims_pointer_ : dims_;
 230:C:/Renesas/e2studio_2021_01_workspace_RZA2M_ANPR/ANPR_RZA2M_EBK/src/tensorflow_lite/tensorflow/lite/kernels/internal\types.h ****   }
 231:C:/Renesas/e2studio_2021_01_workspace_RZA2M_ANPR/ANPR_RZA2M_EBK/src/tensorflow_lite/tensorflow/lite/kernels/internal\types.h ****   inline const int32_t* DimsData() const {
 232:C:/Renesas/e2studio_2021_01_workspace_RZA2M_ANPR/ANPR_RZA2M_EBK/src/tensorflow_lite/tensorflow/lite/kernels/internal\types.h ****     return size_ > kMaxSmallSize ? dims_pointer_ : dims_;
 233:C:/Renesas/e2studio_2021_01_workspace_RZA2M_ANPR/ANPR_RZA2M_EBK/src/tensorflow_lite/tensorflow/lite/kernels/internal\types.h ****   }
 234:C:/Renesas/e2studio_2021_01_workspace_RZA2M_ANPR/ANPR_RZA2M_EBK/src/tensorflow_lite/tensorflow/lite/kernels/internal\types.h ****   // The caller must ensure that the shape is no bigger than 5-D.
 235:C:/Renesas/e2studio_2021_01_workspace_RZA2M_ANPR/ANPR_RZA2M_EBK/src/tensorflow_lite/tensorflow/lite/kernels/internal\types.h ****   inline const int32_t* DimsDataUpTo5D() const { return dims_; }
 236:C:/Renesas/e2studio_2021_01_workspace_RZA2M_ANPR/ANPR_RZA2M_EBK/src/tensorflow_lite/tensorflow/lite/kernels/internal\types.h **** 
 237:C:/Renesas/e2studio_2021_01_workspace_RZA2M_ANPR/ANPR_RZA2M_EBK/src/tensorflow_lite/tensorflow/lite/kernels/internal\types.h ****   inline void Resize(int dimensions_count) {
 238:C:/Renesas/e2studio_2021_01_workspace_RZA2M_ANPR/ANPR_RZA2M_EBK/src/tensorflow_lite/tensorflow/lite/kernels/internal\types.h ****     if (size_ > kMaxSmallSize) {
 239:C:/Renesas/e2studio_2021_01_workspace_RZA2M_ANPR/ANPR_RZA2M_EBK/src/tensorflow_lite/tensorflow/lite/kernels/internal\types.h **** #ifdef TF_LITE_STATIC_MEMORY
 240:C:/Renesas/e2studio_2021_01_workspace_RZA2M_ANPR/ANPR_RZA2M_EBK/src/tensorflow_lite/tensorflow/lite/kernels/internal\types.h ****       TFLITE_CHECK(false && "No shape resizing supported on this platform");
 241:C:/Renesas/e2studio_2021_01_workspace_RZA2M_ANPR/ANPR_RZA2M_EBK/src/tensorflow_lite/tensorflow/lite/kernels/internal\types.h **** #else  // TF_LITE_STATIC_MEMORY
 242:C:/Renesas/e2studio_2021_01_workspace_RZA2M_ANPR/ANPR_RZA2M_EBK/src/tensorflow_lite/tensorflow/lite/kernels/internal\types.h ****       delete[] dims_pointer_;
 243:C:/Renesas/e2studio_2021_01_workspace_RZA2M_ANPR/ANPR_RZA2M_EBK/src/tensorflow_lite/tensorflow/lite/kernels/internal\types.h **** #endif  // TF_LITE_STATIC_MEMORY
 244:C:/Renesas/e2studio_2021_01_workspace_RZA2M_ANPR/ANPR_RZA2M_EBK/src/tensorflow_lite/tensorflow/lite/kernels/internal\types.h ****     }
 245:C:/Renesas/e2studio_2021_01_workspace_RZA2M_ANPR/ANPR_RZA2M_EBK/src/tensorflow_lite/tensorflow/lite/kernels/internal\types.h ****     size_ = dimensions_count;
 246:C:/Renesas/e2studio_2021_01_workspace_RZA2M_ANPR/ANPR_RZA2M_EBK/src/tensorflow_lite/tensorflow/lite/kernels/internal\types.h ****     if (dimensions_count > kMaxSmallSize) {
 365              		.loc 4 246 0
 366 02cc 050052E3 		cmp	r2, #5
 245:C:/Renesas/e2studio_2021_01_workspace_RZA2M_ANPR/ANPR_RZA2M_EBK/src/tensorflow_lite/tensorflow/lite/kernels/internal\types.h ****     if (dimensions_count > kMaxSmallSize) {
 367              		.loc 4 245 0
 368 02d0 20208DE5 		str	r2, [sp, #32]
 369              		.loc 4 246 0
 370 02d4 2C0000DA 		ble	.L26
 247:C:/Renesas/e2studio_2021_01_workspace_RZA2M_ANPR/ANPR_RZA2M_EBK/src/tensorflow_lite/tensorflow/lite/kernels/internal\types.h **** #ifdef TF_LITE_STATIC_MEMORY
 248:C:/Renesas/e2studio_2021_01_workspace_RZA2M_ANPR/ANPR_RZA2M_EBK/src/tensorflow_lite/tensorflow/lite/kernels/internal\types.h ****       TFLITE_CHECK(false && "No shape resizing supported on this platform");
 249:C:/Renesas/e2studio_2021_01_workspace_RZA2M_ANPR/ANPR_RZA2M_EBK/src/tensorflow_lite/tensorflow/lite/kernels/internal\types.h **** #else  // TF_LITE_STATIC_MEMORY
 250:C:/Renesas/e2studio_2021_01_workspace_RZA2M_ANPR/ANPR_RZA2M_EBK/src/tensorflow_lite/tensorflow/lite/kernels/internal\types.h ****       dims_pointer_ = new int32_t[dimensions_count];
 371              		.loc 4 250 0
 372 02d8 2E0272E3 		cmn	r2, #-536870910
 373 02dc 2F0000CA 		bgt	.L12
 374 02e0 0251A0E1 		lsl	r5, r2, #2
 375              	.LVL39:
 376 02e4 0500A0E1 		mov	r0, r5
 377 02e8 FEFFFFEB 		bl	_Znaj
 378              	.LVL40:
 379              	.LEHE0:
 380 02ec 24008DE5 		str	r0, [sp, #36]
 381              	.LVL41:
 382              	.L11:
 383              	.LBE1540:
 384              	.LBE1539:
 251:C:/Renesas/e2studio_2021_01_workspace_RZA2M_ANPR/ANPR_RZA2M_EBK/src/tensorflow_lite/tensorflow/lite/kernels/internal\types.h **** #endif  // TF_LITE_STATIC_MEMORY
 252:C:/Renesas/e2studio_2021_01_workspace_RZA2M_ANPR/ANPR_RZA2M_EBK/src/tensorflow_lite/tensorflow/lite/kernels/internal\types.h ****     }
 253:C:/Renesas/e2studio_2021_01_workspace_RZA2M_ANPR/ANPR_RZA2M_EBK/src/tensorflow_lite/tensorflow/lite/kernels/internal\types.h ****   }
 254:C:/Renesas/e2studio_2021_01_workspace_RZA2M_ANPR/ANPR_RZA2M_EBK/src/tensorflow_lite/tensorflow/lite/kernels/internal\types.h **** 
 255:C:/Renesas/e2studio_2021_01_workspace_RZA2M_ANPR/ANPR_RZA2M_EBK/src/tensorflow_lite/tensorflow/lite/kernels/internal\types.h ****   inline void ReplaceWith(int dimensions_count, const int32_t* dims_data) {
 256:C:/Renesas/e2studio_2021_01_workspace_RZA2M_ANPR/ANPR_RZA2M_EBK/src/tensorflow_lite/tensorflow/lite/kernels/internal\types.h ****     Resize(dimensions_count);
 257:C:/Renesas/e2studio_2021_01_workspace_RZA2M_ANPR/ANPR_RZA2M_EBK/src/tensorflow_lite/tensorflow/lite/kernels/internal\types.h ****     int32_t* dst_dims = DimsData();
 258:C:/Renesas/e2studio_2021_01_workspace_RZA2M_ANPR/ANPR_RZA2M_EBK/src/tensorflow_lite/tensorflow/lite/kernels/internal\types.h ****     std::memcpy(dst_dims, dims_data, dimensions_count * sizeof(int32_t));
 385              		.loc 4 258 0
 386 02f0 0520A0E1 		mov	r2, r5
 387 02f4 0610A0E1 		mov	r1, r6
 388 02f8 FEFFFFEB 		bl	memcpy
 389              	.LVL42:
 390 02fc 20509DE5 		ldr	r5, [sp, #32]
 391              	.LVL43:
 392              	.LBE1538:
 393              	.LBE1537:
 394              	.LBE1536:
 395              	.LBE1535:
 396              	.LBE1534:
 397              	.LBB1553:
 398              	.LBB1554:
 259:C:/Renesas/e2studio_2021_01_workspace_RZA2M_ANPR/ANPR_RZA2M_EBK/src/tensorflow_lite/tensorflow/lite/kernels/internal\types.h ****   }
 260:C:/Renesas/e2studio_2021_01_workspace_RZA2M_ANPR/ANPR_RZA2M_EBK/src/tensorflow_lite/tensorflow/lite/kernels/internal\types.h **** 
 261:C:/Renesas/e2studio_2021_01_workspace_RZA2M_ANPR/ANPR_RZA2M_EBK/src/tensorflow_lite/tensorflow/lite/kernels/internal\types.h ****   template <typename T>
 262:C:/Renesas/e2studio_2021_01_workspace_RZA2M_ANPR/ANPR_RZA2M_EBK/src/tensorflow_lite/tensorflow/lite/kernels/internal\types.h ****   inline void BuildFrom(const T& src_iterable) {
 263:C:/Renesas/e2studio_2021_01_workspace_RZA2M_ANPR/ANPR_RZA2M_EBK/src/tensorflow_lite/tensorflow/lite/kernels/internal\types.h ****     const int dimensions_count =
 264:C:/Renesas/e2studio_2021_01_workspace_RZA2M_ANPR/ANPR_RZA2M_EBK/src/tensorflow_lite/tensorflow/lite/kernels/internal\types.h ****         std::distance(src_iterable.begin(), src_iterable.end());
 265:C:/Renesas/e2studio_2021_01_workspace_RZA2M_ANPR/ANPR_RZA2M_EBK/src/tensorflow_lite/tensorflow/lite/kernels/internal\types.h ****     Resize(dimensions_count);
 266:C:/Renesas/e2studio_2021_01_workspace_RZA2M_ANPR/ANPR_RZA2M_EBK/src/tensorflow_lite/tensorflow/lite/kernels/internal\types.h ****     int32_t* data = DimsData();
 267:C:/Renesas/e2studio_2021_01_workspace_RZA2M_ANPR/ANPR_RZA2M_EBK/src/tensorflow_lite/tensorflow/lite/kernels/internal\types.h ****     for (auto it : src_iterable) {
 268:C:/Renesas/e2studio_2021_01_workspace_RZA2M_ANPR/ANPR_RZA2M_EBK/src/tensorflow_lite/tensorflow/lite/kernels/internal\types.h ****       *data = it;
 269:C:/Renesas/e2studio_2021_01_workspace_RZA2M_ANPR/ANPR_RZA2M_EBK/src/tensorflow_lite/tensorflow/lite/kernels/internal\types.h ****       ++data;
 270:C:/Renesas/e2studio_2021_01_workspace_RZA2M_ANPR/ANPR_RZA2M_EBK/src/tensorflow_lite/tensorflow/lite/kernels/internal\types.h ****     }
 271:C:/Renesas/e2studio_2021_01_workspace_RZA2M_ANPR/ANPR_RZA2M_EBK/src/tensorflow_lite/tensorflow/lite/kernels/internal\types.h ****   }
 272:C:/Renesas/e2studio_2021_01_workspace_RZA2M_ANPR/ANPR_RZA2M_EBK/src/tensorflow_lite/tensorflow/lite/kernels/internal\types.h **** 
 273:C:/Renesas/e2studio_2021_01_workspace_RZA2M_ANPR/ANPR_RZA2M_EBK/src/tensorflow_lite/tensorflow/lite/kernels/internal\types.h ****   // This will probably be factored out. Old code made substantial use of 4-D
 274:C:/Renesas/e2studio_2021_01_workspace_RZA2M_ANPR/ANPR_RZA2M_EBK/src/tensorflow_lite/tensorflow/lite/kernels/internal\types.h ****   // shapes, and so this function is used to extend smaller shapes. Note that
 275:C:/Renesas/e2studio_2021_01_workspace_RZA2M_ANPR/ANPR_RZA2M_EBK/src/tensorflow_lite/tensorflow/lite/kernels/internal\types.h ****   // (a) as Dims<4>-dependent code is eliminated, the reliance on this should be
 276:C:/Renesas/e2studio_2021_01_workspace_RZA2M_ANPR/ANPR_RZA2M_EBK/src/tensorflow_lite/tensorflow/lite/kernels/internal\types.h ****   // reduced, and (b) some kernels are stricly 4-D, but then the shapes of their
 277:C:/Renesas/e2studio_2021_01_workspace_RZA2M_ANPR/ANPR_RZA2M_EBK/src/tensorflow_lite/tensorflow/lite/kernels/internal\types.h ****   // inputs should already be 4-D, so this function should not be needed.
 278:C:/Renesas/e2studio_2021_01_workspace_RZA2M_ANPR/ANPR_RZA2M_EBK/src/tensorflow_lite/tensorflow/lite/kernels/internal\types.h ****   inline static RuntimeShape ExtendedShape(int new_shape_size,
 279:C:/Renesas/e2studio_2021_01_workspace_RZA2M_ANPR/ANPR_RZA2M_EBK/src/tensorflow_lite/tensorflow/lite/kernels/internal\types.h ****                                            const RuntimeShape& shape) {
 280:C:/Renesas/e2studio_2021_01_workspace_RZA2M_ANPR/ANPR_RZA2M_EBK/src/tensorflow_lite/tensorflow/lite/kernels/internal\types.h ****     return RuntimeShape(new_shape_size, shape, 1);
 281:C:/Renesas/e2studio_2021_01_workspace_RZA2M_ANPR/ANPR_RZA2M_EBK/src/tensorflow_lite/tensorflow/lite/kernels/internal\types.h ****   }
 282:C:/Renesas/e2studio_2021_01_workspace_RZA2M_ANPR/ANPR_RZA2M_EBK/src/tensorflow_lite/tensorflow/lite/kernels/internal\types.h **** 
 283:C:/Renesas/e2studio_2021_01_workspace_RZA2M_ANPR/ANPR_RZA2M_EBK/src/tensorflow_lite/tensorflow/lite/kernels/internal\types.h ****   inline void BuildFrom(const std::initializer_list<int> init_list) {
 284:C:/Renesas/e2studio_2021_01_workspace_RZA2M_ANPR/ANPR_RZA2M_EBK/src/tensorflow_lite/tensorflow/lite/kernels/internal\types.h ****     BuildFrom<const std::initializer_list<int>>(init_list);
 285:C:/Renesas/e2studio_2021_01_workspace_RZA2M_ANPR/ANPR_RZA2M_EBK/src/tensorflow_lite/tensorflow/lite/kernels/internal\types.h ****   }
 286:C:/Renesas/e2studio_2021_01_workspace_RZA2M_ANPR/ANPR_RZA2M_EBK/src/tensorflow_lite/tensorflow/lite/kernels/internal\types.h **** 
 287:C:/Renesas/e2studio_2021_01_workspace_RZA2M_ANPR/ANPR_RZA2M_EBK/src/tensorflow_lite/tensorflow/lite/kernels/internal\types.h ****   // Returns the total count of elements, that is the size when flattened into a
 288:C:/Renesas/e2studio_2021_01_workspace_RZA2M_ANPR/ANPR_RZA2M_EBK/src/tensorflow_lite/tensorflow/lite/kernels/internal\types.h ****   // vector.
 289:C:/Renesas/e2studio_2021_01_workspace_RZA2M_ANPR/ANPR_RZA2M_EBK/src/tensorflow_lite/tensorflow/lite/kernels/internal\types.h ****   inline int FlatSize() const {
 290:C:/Renesas/e2studio_2021_01_workspace_RZA2M_ANPR/ANPR_RZA2M_EBK/src/tensorflow_lite/tensorflow/lite/kernels/internal\types.h ****     int buffer_size = 1;
 291:C:/Renesas/e2studio_2021_01_workspace_RZA2M_ANPR/ANPR_RZA2M_EBK/src/tensorflow_lite/tensorflow/lite/kernels/internal\types.h ****     const int* dims_data = reinterpret_cast<const int*>(DimsData());
 292:C:/Renesas/e2studio_2021_01_workspace_RZA2M_ANPR/ANPR_RZA2M_EBK/src/tensorflow_lite/tensorflow/lite/kernels/internal\types.h ****     for (int i = 0; i < size_; i++) {
 293:C:/Renesas/e2studio_2021_01_workspace_RZA2M_ANPR/ANPR_RZA2M_EBK/src/tensorflow_lite/tensorflow/lite/kernels/internal\types.h ****       buffer_size *= dims_data[i];
 294:C:/Renesas/e2studio_2021_01_workspace_RZA2M_ANPR/ANPR_RZA2M_EBK/src/tensorflow_lite/tensorflow/lite/kernels/internal\types.h ****     }
 295:C:/Renesas/e2studio_2021_01_workspace_RZA2M_ANPR/ANPR_RZA2M_EBK/src/tensorflow_lite/tensorflow/lite/kernels/internal\types.h ****     return buffer_size;
 296:C:/Renesas/e2studio_2021_01_workspace_RZA2M_ANPR/ANPR_RZA2M_EBK/src/tensorflow_lite/tensorflow/lite/kernels/internal\types.h ****   }
 297:C:/Renesas/e2studio_2021_01_workspace_RZA2M_ANPR/ANPR_RZA2M_EBK/src/tensorflow_lite/tensorflow/lite/kernels/internal\types.h **** 
 298:C:/Renesas/e2studio_2021_01_workspace_RZA2M_ANPR/ANPR_RZA2M_EBK/src/tensorflow_lite/tensorflow/lite/kernels/internal\types.h ****   bool operator!=(const RuntimeShape& comp) const { return !((*this) == comp); }
 299:C:/Renesas/e2studio_2021_01_workspace_RZA2M_ANPR/ANPR_RZA2M_EBK/src/tensorflow_lite/tensorflow/lite/kernels/internal\types.h **** 
 300:C:/Renesas/e2studio_2021_01_workspace_RZA2M_ANPR/ANPR_RZA2M_EBK/src/tensorflow_lite/tensorflow/lite/kernels/internal\types.h ****  private:
 301:C:/Renesas/e2studio_2021_01_workspace_RZA2M_ANPR/ANPR_RZA2M_EBK/src/tensorflow_lite/tensorflow/lite/kernels/internal\types.h ****   // For use only by ExtendedShape(), written to guarantee (return-value) copy
 302:C:/Renesas/e2studio_2021_01_workspace_RZA2M_ANPR/ANPR_RZA2M_EBK/src/tensorflow_lite/tensorflow/lite/kernels/internal\types.h ****   // elision in C++17.
 303:C:/Renesas/e2studio_2021_01_workspace_RZA2M_ANPR/ANPR_RZA2M_EBK/src/tensorflow_lite/tensorflow/lite/kernels/internal\types.h ****   // This creates a shape padded to the desired size with the specified value.
 304:C:/Renesas/e2studio_2021_01_workspace_RZA2M_ANPR/ANPR_RZA2M_EBK/src/tensorflow_lite/tensorflow/lite/kernels/internal\types.h ****   RuntimeShape(int new_shape_size, const RuntimeShape& shape, int pad_value)
 305:C:/Renesas/e2studio_2021_01_workspace_RZA2M_ANPR/ANPR_RZA2M_EBK/src/tensorflow_lite/tensorflow/lite/kernels/internal\types.h ****       : size_(0) {
 306:C:/Renesas/e2studio_2021_01_workspace_RZA2M_ANPR/ANPR_RZA2M_EBK/src/tensorflow_lite/tensorflow/lite/kernels/internal\types.h ****     // If the following check fails, it is likely because a 4D-only kernel is
 307:C:/Renesas/e2studio_2021_01_workspace_RZA2M_ANPR/ANPR_RZA2M_EBK/src/tensorflow_lite/tensorflow/lite/kernels/internal\types.h ****     // being used with an array of larger dimension count.
 308:C:/Renesas/e2studio_2021_01_workspace_RZA2M_ANPR/ANPR_RZA2M_EBK/src/tensorflow_lite/tensorflow/lite/kernels/internal\types.h ****     TFLITE_CHECK_GE(new_shape_size, shape.DimensionsCount());
 309:C:/Renesas/e2studio_2021_01_workspace_RZA2M_ANPR/ANPR_RZA2M_EBK/src/tensorflow_lite/tensorflow/lite/kernels/internal\types.h ****     Resize(new_shape_size);
 310:C:/Renesas/e2studio_2021_01_workspace_RZA2M_ANPR/ANPR_RZA2M_EBK/src/tensorflow_lite/tensorflow/lite/kernels/internal\types.h ****     const int size_increase = new_shape_size - shape.DimensionsCount();
 311:C:/Renesas/e2studio_2021_01_workspace_RZA2M_ANPR/ANPR_RZA2M_EBK/src/tensorflow_lite/tensorflow/lite/kernels/internal\types.h ****     for (int i = 0; i < size_increase; ++i) {
 312:C:/Renesas/e2studio_2021_01_workspace_RZA2M_ANPR/ANPR_RZA2M_EBK/src/tensorflow_lite/tensorflow/lite/kernels/internal\types.h ****       SetDim(i, pad_value);
 313:C:/Renesas/e2studio_2021_01_workspace_RZA2M_ANPR/ANPR_RZA2M_EBK/src/tensorflow_lite/tensorflow/lite/kernels/internal\types.h ****     }
 314:C:/Renesas/e2studio_2021_01_workspace_RZA2M_ANPR/ANPR_RZA2M_EBK/src/tensorflow_lite/tensorflow/lite/kernels/internal\types.h ****     std::memcpy(DimsData() + size_increase, shape.DimsData(),
 315:C:/Renesas/e2studio_2021_01_workspace_RZA2M_ANPR/ANPR_RZA2M_EBK/src/tensorflow_lite/tensorflow/lite/kernels/internal\types.h ****                 sizeof(int32_t) * shape.DimensionsCount());
 316:C:/Renesas/e2studio_2021_01_workspace_RZA2M_ANPR/ANPR_RZA2M_EBK/src/tensorflow_lite/tensorflow/lite/kernels/internal\types.h ****   }
 317:C:/Renesas/e2studio_2021_01_workspace_RZA2M_ANPR/ANPR_RZA2M_EBK/src/tensorflow_lite/tensorflow/lite/kernels/internal\types.h **** 
 318:C:/Renesas/e2studio_2021_01_workspace_RZA2M_ANPR/ANPR_RZA2M_EBK/src/tensorflow_lite/tensorflow/lite/kernels/internal\types.h ****   int32_t size_;
 319:C:/Renesas/e2studio_2021_01_workspace_RZA2M_ANPR/ANPR_RZA2M_EBK/src/tensorflow_lite/tensorflow/lite/kernels/internal\types.h ****   union {
 320:C:/Renesas/e2studio_2021_01_workspace_RZA2M_ANPR/ANPR_RZA2M_EBK/src/tensorflow_lite/tensorflow/lite/kernels/internal\types.h ****     int32_t dims_[kMaxSmallSize];
 321:C:/Renesas/e2studio_2021_01_workspace_RZA2M_ANPR/ANPR_RZA2M_EBK/src/tensorflow_lite/tensorflow/lite/kernels/internal\types.h ****     int32_t* dims_pointer_;
 322:C:/Renesas/e2studio_2021_01_workspace_RZA2M_ANPR/ANPR_RZA2M_EBK/src/tensorflow_lite/tensorflow/lite/kernels/internal\types.h ****   };
 323:C:/Renesas/e2studio_2021_01_workspace_RZA2M_ANPR/ANPR_RZA2M_EBK/src/tensorflow_lite/tensorflow/lite/kernels/internal\types.h **** };
 324:C:/Renesas/e2studio_2021_01_workspace_RZA2M_ANPR/ANPR_RZA2M_EBK/src/tensorflow_lite/tensorflow/lite/kernels/internal\types.h **** 
 325:C:/Renesas/e2studio_2021_01_workspace_RZA2M_ANPR/ANPR_RZA2M_EBK/src/tensorflow_lite/tensorflow/lite/kernels/internal\types.h **** // Converts inference-style shape to legacy tflite::Dims<4>.
 326:C:/Renesas/e2studio_2021_01_workspace_RZA2M_ANPR/ANPR_RZA2M_EBK/src/tensorflow_lite/tensorflow/lite/kernels/internal\types.h **** inline tflite::Dims<4> ToRuntimeDims(const tflite::RuntimeShape& array_shape) {
 327:C:/Renesas/e2studio_2021_01_workspace_RZA2M_ANPR/ANPR_RZA2M_EBK/src/tensorflow_lite/tensorflow/lite/kernels/internal\types.h ****   tflite::Dims<4> result;
 328:C:/Renesas/e2studio_2021_01_workspace_RZA2M_ANPR/ANPR_RZA2M_EBK/src/tensorflow_lite/tensorflow/lite/kernels/internal\types.h ****   const int dimensions_count = array_shape.DimensionsCount();
 329:C:/Renesas/e2studio_2021_01_workspace_RZA2M_ANPR/ANPR_RZA2M_EBK/src/tensorflow_lite/tensorflow/lite/kernels/internal\types.h ****   TFLITE_CHECK_LE(dimensions_count, 4);
 330:C:/Renesas/e2studio_2021_01_workspace_RZA2M_ANPR/ANPR_RZA2M_EBK/src/tensorflow_lite/tensorflow/lite/kernels/internal\types.h ****   int cum_prod = 1;
 331:C:/Renesas/e2studio_2021_01_workspace_RZA2M_ANPR/ANPR_RZA2M_EBK/src/tensorflow_lite/tensorflow/lite/kernels/internal\types.h ****   for (int i = 0; i < 4; i++) {
 332:C:/Renesas/e2studio_2021_01_workspace_RZA2M_ANPR/ANPR_RZA2M_EBK/src/tensorflow_lite/tensorflow/lite/kernels/internal\types.h ****     const int new_dim =
 333:C:/Renesas/e2studio_2021_01_workspace_RZA2M_ANPR/ANPR_RZA2M_EBK/src/tensorflow_lite/tensorflow/lite/kernels/internal\types.h ****         (i < dimensions_count) ? array_shape.Dims(dimensions_count - 1 - i) : 1;
 334:C:/Renesas/e2studio_2021_01_workspace_RZA2M_ANPR/ANPR_RZA2M_EBK/src/tensorflow_lite/tensorflow/lite/kernels/internal\types.h ****     result.sizes[i] = new_dim;
 335:C:/Renesas/e2studio_2021_01_workspace_RZA2M_ANPR/ANPR_RZA2M_EBK/src/tensorflow_lite/tensorflow/lite/kernels/internal\types.h ****     result.strides[i] = cum_prod;
 336:C:/Renesas/e2studio_2021_01_workspace_RZA2M_ANPR/ANPR_RZA2M_EBK/src/tensorflow_lite/tensorflow/lite/kernels/internal\types.h ****     cum_prod *= new_dim;
 337:C:/Renesas/e2studio_2021_01_workspace_RZA2M_ANPR/ANPR_RZA2M_EBK/src/tensorflow_lite/tensorflow/lite/kernels/internal\types.h ****   }
 338:C:/Renesas/e2studio_2021_01_workspace_RZA2M_ANPR/ANPR_RZA2M_EBK/src/tensorflow_lite/tensorflow/lite/kernels/internal\types.h ****   return result;
 339:C:/Renesas/e2studio_2021_01_workspace_RZA2M_ANPR/ANPR_RZA2M_EBK/src/tensorflow_lite/tensorflow/lite/kernels/internal\types.h **** }
 340:C:/Renesas/e2studio_2021_01_workspace_RZA2M_ANPR/ANPR_RZA2M_EBK/src/tensorflow_lite/tensorflow/lite/kernels/internal\types.h **** 
 341:C:/Renesas/e2studio_2021_01_workspace_RZA2M_ANPR/ANPR_RZA2M_EBK/src/tensorflow_lite/tensorflow/lite/kernels/internal\types.h **** // TODO(b/80418076): Move to legacy ops file, update invocations.
 342:C:/Renesas/e2studio_2021_01_workspace_RZA2M_ANPR/ANPR_RZA2M_EBK/src/tensorflow_lite/tensorflow/lite/kernels/internal\types.h **** inline RuntimeShape DimsToShape(const tflite::Dims<4>& dims) {
 343:C:/Renesas/e2studio_2021_01_workspace_RZA2M_ANPR/ANPR_RZA2M_EBK/src/tensorflow_lite/tensorflow/lite/kernels/internal\types.h ****   return RuntimeShape(
 344:C:/Renesas/e2studio_2021_01_workspace_RZA2M_ANPR/ANPR_RZA2M_EBK/src/tensorflow_lite/tensorflow/lite/kernels/internal\types.h ****       {dims.sizes[3], dims.sizes[2], dims.sizes[1], dims.sizes[0]});
 345:C:/Renesas/e2studio_2021_01_workspace_RZA2M_ANPR/ANPR_RZA2M_EBK/src/tensorflow_lite/tensorflow/lite/kernels/internal\types.h **** }
 346:C:/Renesas/e2studio_2021_01_workspace_RZA2M_ANPR/ANPR_RZA2M_EBK/src/tensorflow_lite/tensorflow/lite/kernels/internal\types.h **** 
 347:C:/Renesas/e2studio_2021_01_workspace_RZA2M_ANPR/ANPR_RZA2M_EBK/src/tensorflow_lite/tensorflow/lite/kernels/internal\types.h **** // Gets next index to iterate through a multidimensional array.
 348:C:/Renesas/e2studio_2021_01_workspace_RZA2M_ANPR/ANPR_RZA2M_EBK/src/tensorflow_lite/tensorflow/lite/kernels/internal\types.h **** inline bool NextIndex(const int num_dims, const int* dims, int* current) {
 349:C:/Renesas/e2studio_2021_01_workspace_RZA2M_ANPR/ANPR_RZA2M_EBK/src/tensorflow_lite/tensorflow/lite/kernels/internal\types.h ****   if (num_dims == 0) {
 350:C:/Renesas/e2studio_2021_01_workspace_RZA2M_ANPR/ANPR_RZA2M_EBK/src/tensorflow_lite/tensorflow/lite/kernels/internal\types.h ****     return false;
 351:C:/Renesas/e2studio_2021_01_workspace_RZA2M_ANPR/ANPR_RZA2M_EBK/src/tensorflow_lite/tensorflow/lite/kernels/internal\types.h ****   }
 352:C:/Renesas/e2studio_2021_01_workspace_RZA2M_ANPR/ANPR_RZA2M_EBK/src/tensorflow_lite/tensorflow/lite/kernels/internal\types.h ****   TFLITE_DCHECK(dims != nullptr);
 353:C:/Renesas/e2studio_2021_01_workspace_RZA2M_ANPR/ANPR_RZA2M_EBK/src/tensorflow_lite/tensorflow/lite/kernels/internal\types.h ****   TFLITE_DCHECK(current != nullptr);
 354:C:/Renesas/e2studio_2021_01_workspace_RZA2M_ANPR/ANPR_RZA2M_EBK/src/tensorflow_lite/tensorflow/lite/kernels/internal\types.h ****   int carry = 1;
 355:C:/Renesas/e2studio_2021_01_workspace_RZA2M_ANPR/ANPR_RZA2M_EBK/src/tensorflow_lite/tensorflow/lite/kernels/internal\types.h ****   for (int idx = num_dims - 1; idx >= 0; --idx) {
 356:C:/Renesas/e2studio_2021_01_workspace_RZA2M_ANPR/ANPR_RZA2M_EBK/src/tensorflow_lite/tensorflow/lite/kernels/internal\types.h ****     int current_val = current[idx] + carry;
 357:C:/Renesas/e2studio_2021_01_workspace_RZA2M_ANPR/ANPR_RZA2M_EBK/src/tensorflow_lite/tensorflow/lite/kernels/internal\types.h ****     TFLITE_DCHECK_GE(dims[idx], current_val);
 358:C:/Renesas/e2studio_2021_01_workspace_RZA2M_ANPR/ANPR_RZA2M_EBK/src/tensorflow_lite/tensorflow/lite/kernels/internal\types.h ****     if (dims[idx] == current_val) {
 359:C:/Renesas/e2studio_2021_01_workspace_RZA2M_ANPR/ANPR_RZA2M_EBK/src/tensorflow_lite/tensorflow/lite/kernels/internal\types.h ****       current[idx] = 0;
 360:C:/Renesas/e2studio_2021_01_workspace_RZA2M_ANPR/ANPR_RZA2M_EBK/src/tensorflow_lite/tensorflow/lite/kernels/internal\types.h ****     } else {
 361:C:/Renesas/e2studio_2021_01_workspace_RZA2M_ANPR/ANPR_RZA2M_EBK/src/tensorflow_lite/tensorflow/lite/kernels/internal\types.h ****       current[idx] = current_val;
 362:C:/Renesas/e2studio_2021_01_workspace_RZA2M_ANPR/ANPR_RZA2M_EBK/src/tensorflow_lite/tensorflow/lite/kernels/internal\types.h ****       carry = 0;
 363:C:/Renesas/e2studio_2021_01_workspace_RZA2M_ANPR/ANPR_RZA2M_EBK/src/tensorflow_lite/tensorflow/lite/kernels/internal\types.h ****       break;
 364:C:/Renesas/e2studio_2021_01_workspace_RZA2M_ANPR/ANPR_RZA2M_EBK/src/tensorflow_lite/tensorflow/lite/kernels/internal\types.h ****     }
 365:C:/Renesas/e2studio_2021_01_workspace_RZA2M_ANPR/ANPR_RZA2M_EBK/src/tensorflow_lite/tensorflow/lite/kernels/internal\types.h ****   }
 366:C:/Renesas/e2studio_2021_01_workspace_RZA2M_ANPR/ANPR_RZA2M_EBK/src/tensorflow_lite/tensorflow/lite/kernels/internal\types.h ****   return (carry == 0);
 367:C:/Renesas/e2studio_2021_01_workspace_RZA2M_ANPR/ANPR_RZA2M_EBK/src/tensorflow_lite/tensorflow/lite/kernels/internal\types.h **** }
 368:C:/Renesas/e2studio_2021_01_workspace_RZA2M_ANPR/ANPR_RZA2M_EBK/src/tensorflow_lite/tensorflow/lite/kernels/internal\types.h **** 
 369:C:/Renesas/e2studio_2021_01_workspace_RZA2M_ANPR/ANPR_RZA2M_EBK/src/tensorflow_lite/tensorflow/lite/kernels/internal\types.h **** // Gets offset of index if reducing on axis. When reducing, the flattened offset
 370:C:/Renesas/e2studio_2021_01_workspace_RZA2M_ANPR/ANPR_RZA2M_EBK/src/tensorflow_lite/tensorflow/lite/kernels/internal\types.h **** // will not change, if the input index changes on the given axis. For example,
 371:C:/Renesas/e2studio_2021_01_workspace_RZA2M_ANPR/ANPR_RZA2M_EBK/src/tensorflow_lite/tensorflow/lite/kernels/internal\types.h **** // if you have a 3D tensor and you are reducing to 2D by eliminating axis 0,
 372:C:/Renesas/e2studio_2021_01_workspace_RZA2M_ANPR/ANPR_RZA2M_EBK/src/tensorflow_lite/tensorflow/lite/kernels/internal\types.h **** // then index (0, 1, 2) and index (1, 1, 2) will map to the same flattened
 373:C:/Renesas/e2studio_2021_01_workspace_RZA2M_ANPR/ANPR_RZA2M_EBK/src/tensorflow_lite/tensorflow/lite/kernels/internal\types.h **** // offset.
 374:C:/Renesas/e2studio_2021_01_workspace_RZA2M_ANPR/ANPR_RZA2M_EBK/src/tensorflow_lite/tensorflow/lite/kernels/internal\types.h **** // TODO(kanlig): uses Dims to represent dimensions.
 375:C:/Renesas/e2studio_2021_01_workspace_RZA2M_ANPR/ANPR_RZA2M_EBK/src/tensorflow_lite/tensorflow/lite/kernels/internal\types.h **** inline size_t ReducedOutputOffset(const int num_dims, const int* dims,
 376:C:/Renesas/e2studio_2021_01_workspace_RZA2M_ANPR/ANPR_RZA2M_EBK/src/tensorflow_lite/tensorflow/lite/kernels/internal\types.h ****                                   const int* index, const int num_axis,
 377:C:/Renesas/e2studio_2021_01_workspace_RZA2M_ANPR/ANPR_RZA2M_EBK/src/tensorflow_lite/tensorflow/lite/kernels/internal\types.h ****                                   const int* axis) {
 378:C:/Renesas/e2studio_2021_01_workspace_RZA2M_ANPR/ANPR_RZA2M_EBK/src/tensorflow_lite/tensorflow/lite/kernels/internal\types.h ****   if (num_dims == 0) {
 379:C:/Renesas/e2studio_2021_01_workspace_RZA2M_ANPR/ANPR_RZA2M_EBK/src/tensorflow_lite/tensorflow/lite/kernels/internal\types.h ****     return 0;
 380:C:/Renesas/e2studio_2021_01_workspace_RZA2M_ANPR/ANPR_RZA2M_EBK/src/tensorflow_lite/tensorflow/lite/kernels/internal\types.h ****   }
 381:C:/Renesas/e2studio_2021_01_workspace_RZA2M_ANPR/ANPR_RZA2M_EBK/src/tensorflow_lite/tensorflow/lite/kernels/internal\types.h ****   TFLITE_DCHECK(dims != nullptr);
 382:C:/Renesas/e2studio_2021_01_workspace_RZA2M_ANPR/ANPR_RZA2M_EBK/src/tensorflow_lite/tensorflow/lite/kernels/internal\types.h ****   TFLITE_DCHECK(index != nullptr);
 383:C:/Renesas/e2studio_2021_01_workspace_RZA2M_ANPR/ANPR_RZA2M_EBK/src/tensorflow_lite/tensorflow/lite/kernels/internal\types.h ****   size_t offset = 0;
 384:C:/Renesas/e2studio_2021_01_workspace_RZA2M_ANPR/ANPR_RZA2M_EBK/src/tensorflow_lite/tensorflow/lite/kernels/internal\types.h ****   for (int idx = 0; idx < num_dims; ++idx) {
 385:C:/Renesas/e2studio_2021_01_workspace_RZA2M_ANPR/ANPR_RZA2M_EBK/src/tensorflow_lite/tensorflow/lite/kernels/internal\types.h ****     // if we need to skip this axis
 386:C:/Renesas/e2studio_2021_01_workspace_RZA2M_ANPR/ANPR_RZA2M_EBK/src/tensorflow_lite/tensorflow/lite/kernels/internal\types.h ****     bool is_axis = false;
 387:C:/Renesas/e2studio_2021_01_workspace_RZA2M_ANPR/ANPR_RZA2M_EBK/src/tensorflow_lite/tensorflow/lite/kernels/internal\types.h ****     if (axis != nullptr) {
 388:C:/Renesas/e2studio_2021_01_workspace_RZA2M_ANPR/ANPR_RZA2M_EBK/src/tensorflow_lite/tensorflow/lite/kernels/internal\types.h ****       for (int axis_idx = 0; axis_idx < num_axis; ++axis_idx) {
 389:C:/Renesas/e2studio_2021_01_workspace_RZA2M_ANPR/ANPR_RZA2M_EBK/src/tensorflow_lite/tensorflow/lite/kernels/internal\types.h ****         if (idx == axis[axis_idx]) {
 390:C:/Renesas/e2studio_2021_01_workspace_RZA2M_ANPR/ANPR_RZA2M_EBK/src/tensorflow_lite/tensorflow/lite/kernels/internal\types.h ****           is_axis = true;
 391:C:/Renesas/e2studio_2021_01_workspace_RZA2M_ANPR/ANPR_RZA2M_EBK/src/tensorflow_lite/tensorflow/lite/kernels/internal\types.h ****           break;
 392:C:/Renesas/e2studio_2021_01_workspace_RZA2M_ANPR/ANPR_RZA2M_EBK/src/tensorflow_lite/tensorflow/lite/kernels/internal\types.h ****         }
 393:C:/Renesas/e2studio_2021_01_workspace_RZA2M_ANPR/ANPR_RZA2M_EBK/src/tensorflow_lite/tensorflow/lite/kernels/internal\types.h ****       }
 394:C:/Renesas/e2studio_2021_01_workspace_RZA2M_ANPR/ANPR_RZA2M_EBK/src/tensorflow_lite/tensorflow/lite/kernels/internal\types.h ****     }
 395:C:/Renesas/e2studio_2021_01_workspace_RZA2M_ANPR/ANPR_RZA2M_EBK/src/tensorflow_lite/tensorflow/lite/kernels/internal\types.h ****     if (!is_axis) {
 396:C:/Renesas/e2studio_2021_01_workspace_RZA2M_ANPR/ANPR_RZA2M_EBK/src/tensorflow_lite/tensorflow/lite/kernels/internal\types.h ****       offset = offset * static_cast<size_t>(dims[idx]) +
 397:C:/Renesas/e2studio_2021_01_workspace_RZA2M_ANPR/ANPR_RZA2M_EBK/src/tensorflow_lite/tensorflow/lite/kernels/internal\types.h ****                static_cast<size_t>(index[idx]);
 398:C:/Renesas/e2studio_2021_01_workspace_RZA2M_ANPR/ANPR_RZA2M_EBK/src/tensorflow_lite/tensorflow/lite/kernels/internal\types.h ****     }
 399:C:/Renesas/e2studio_2021_01_workspace_RZA2M_ANPR/ANPR_RZA2M_EBK/src/tensorflow_lite/tensorflow/lite/kernels/internal\types.h ****   }
 400:C:/Renesas/e2studio_2021_01_workspace_RZA2M_ANPR/ANPR_RZA2M_EBK/src/tensorflow_lite/tensorflow/lite/kernels/internal\types.h ****   return offset;
 401:C:/Renesas/e2studio_2021_01_workspace_RZA2M_ANPR/ANPR_RZA2M_EBK/src/tensorflow_lite/tensorflow/lite/kernels/internal\types.h **** }
 402:C:/Renesas/e2studio_2021_01_workspace_RZA2M_ANPR/ANPR_RZA2M_EBK/src/tensorflow_lite/tensorflow/lite/kernels/internal\types.h **** 
 403:C:/Renesas/e2studio_2021_01_workspace_RZA2M_ANPR/ANPR_RZA2M_EBK/src/tensorflow_lite/tensorflow/lite/kernels/internal\types.h **** inline int Offset(const RuntimeShape& shape, int i0, int i1, int i2, int i3) {
 404:C:/Renesas/e2studio_2021_01_workspace_RZA2M_ANPR/ANPR_RZA2M_EBK/src/tensorflow_lite/tensorflow/lite/kernels/internal\types.h ****   TFLITE_DCHECK_EQ(shape.DimensionsCount(), 4);
 405:C:/Renesas/e2studio_2021_01_workspace_RZA2M_ANPR/ANPR_RZA2M_EBK/src/tensorflow_lite/tensorflow/lite/kernels/internal\types.h ****   const int* dims_data = reinterpret_cast<const int*>(shape.DimsDataUpTo5D());
 406:C:/Renesas/e2studio_2021_01_workspace_RZA2M_ANPR/ANPR_RZA2M_EBK/src/tensorflow_lite/tensorflow/lite/kernels/internal\types.h ****   TFLITE_DCHECK(i0 >= 0 && i0 < dims_data[0]);
 407:C:/Renesas/e2studio_2021_01_workspace_RZA2M_ANPR/ANPR_RZA2M_EBK/src/tensorflow_lite/tensorflow/lite/kernels/internal\types.h ****   TFLITE_DCHECK(i1 >= 0 && i1 < dims_data[1]);
 408:C:/Renesas/e2studio_2021_01_workspace_RZA2M_ANPR/ANPR_RZA2M_EBK/src/tensorflow_lite/tensorflow/lite/kernels/internal\types.h ****   TFLITE_DCHECK(i2 >= 0 && i2 < dims_data[2]);
 409:C:/Renesas/e2studio_2021_01_workspace_RZA2M_ANPR/ANPR_RZA2M_EBK/src/tensorflow_lite/tensorflow/lite/kernels/internal\types.h ****   TFLITE_DCHECK(i3 >= 0 && i3 < dims_data[3]);
 410:C:/Renesas/e2studio_2021_01_workspace_RZA2M_ANPR/ANPR_RZA2M_EBK/src/tensorflow_lite/tensorflow/lite/kernels/internal\types.h ****   return ((i0 * dims_data[1] + i1) * dims_data[2] + i2) * dims_data[3] + i3;
 411:C:/Renesas/e2studio_2021_01_workspace_RZA2M_ANPR/ANPR_RZA2M_EBK/src/tensorflow_lite/tensorflow/lite/kernels/internal\types.h **** }
 412:C:/Renesas/e2studio_2021_01_workspace_RZA2M_ANPR/ANPR_RZA2M_EBK/src/tensorflow_lite/tensorflow/lite/kernels/internal\types.h **** 
 413:C:/Renesas/e2studio_2021_01_workspace_RZA2M_ANPR/ANPR_RZA2M_EBK/src/tensorflow_lite/tensorflow/lite/kernels/internal\types.h **** inline int Offset(const RuntimeShape& shape, int i0, int i1, int i2, int i3,
 414:C:/Renesas/e2studio_2021_01_workspace_RZA2M_ANPR/ANPR_RZA2M_EBK/src/tensorflow_lite/tensorflow/lite/kernels/internal\types.h ****                   int i4) {
 415:C:/Renesas/e2studio_2021_01_workspace_RZA2M_ANPR/ANPR_RZA2M_EBK/src/tensorflow_lite/tensorflow/lite/kernels/internal\types.h ****   TFLITE_DCHECK_EQ(shape.DimensionsCount(), 5);
 416:C:/Renesas/e2studio_2021_01_workspace_RZA2M_ANPR/ANPR_RZA2M_EBK/src/tensorflow_lite/tensorflow/lite/kernels/internal\types.h ****   const int* dims_data = reinterpret_cast<const int*>(shape.DimsDataUpTo5D());
 417:C:/Renesas/e2studio_2021_01_workspace_RZA2M_ANPR/ANPR_RZA2M_EBK/src/tensorflow_lite/tensorflow/lite/kernels/internal\types.h ****   TFLITE_DCHECK(i0 >= 0 && i0 < dims_data[0]);
 418:C:/Renesas/e2studio_2021_01_workspace_RZA2M_ANPR/ANPR_RZA2M_EBK/src/tensorflow_lite/tensorflow/lite/kernels/internal\types.h ****   TFLITE_DCHECK(i1 >= 0 && i1 < dims_data[1]);
 419:C:/Renesas/e2studio_2021_01_workspace_RZA2M_ANPR/ANPR_RZA2M_EBK/src/tensorflow_lite/tensorflow/lite/kernels/internal\types.h ****   TFLITE_DCHECK(i2 >= 0 && i2 < dims_data[2]);
 420:C:/Renesas/e2studio_2021_01_workspace_RZA2M_ANPR/ANPR_RZA2M_EBK/src/tensorflow_lite/tensorflow/lite/kernels/internal\types.h ****   TFLITE_DCHECK(i3 >= 0 && i3 < dims_data[3]);
 421:C:/Renesas/e2studio_2021_01_workspace_RZA2M_ANPR/ANPR_RZA2M_EBK/src/tensorflow_lite/tensorflow/lite/kernels/internal\types.h ****   TFLITE_DCHECK(i4 >= 0 && i4 < dims_data[4]);
 422:C:/Renesas/e2studio_2021_01_workspace_RZA2M_ANPR/ANPR_RZA2M_EBK/src/tensorflow_lite/tensorflow/lite/kernels/internal\types.h ****   return (((i0 * dims_data[1] + i1) * dims_data[2] + i2) * dims_data[3] + i3) *
 423:C:/Renesas/e2studio_2021_01_workspace_RZA2M_ANPR/ANPR_RZA2M_EBK/src/tensorflow_lite/tensorflow/lite/kernels/internal\types.h ****              dims_data[4] +
 424:C:/Renesas/e2studio_2021_01_workspace_RZA2M_ANPR/ANPR_RZA2M_EBK/src/tensorflow_lite/tensorflow/lite/kernels/internal\types.h ****          i4;
 425:C:/Renesas/e2studio_2021_01_workspace_RZA2M_ANPR/ANPR_RZA2M_EBK/src/tensorflow_lite/tensorflow/lite/kernels/internal\types.h **** }
 426:C:/Renesas/e2studio_2021_01_workspace_RZA2M_ANPR/ANPR_RZA2M_EBK/src/tensorflow_lite/tensorflow/lite/kernels/internal\types.h **** 
 427:C:/Renesas/e2studio_2021_01_workspace_RZA2M_ANPR/ANPR_RZA2M_EBK/src/tensorflow_lite/tensorflow/lite/kernels/internal\types.h **** inline int Offset(const Dims<4>& dims, int i0, int i1, int i2, int i3) {
 428:C:/Renesas/e2studio_2021_01_workspace_RZA2M_ANPR/ANPR_RZA2M_EBK/src/tensorflow_lite/tensorflow/lite/kernels/internal\types.h ****   TFLITE_DCHECK(i0 >= 0 && i0 < dims.sizes[0]);
 429:C:/Renesas/e2studio_2021_01_workspace_RZA2M_ANPR/ANPR_RZA2M_EBK/src/tensorflow_lite/tensorflow/lite/kernels/internal\types.h ****   TFLITE_DCHECK(i1 >= 0 && i1 < dims.sizes[1]);
 430:C:/Renesas/e2studio_2021_01_workspace_RZA2M_ANPR/ANPR_RZA2M_EBK/src/tensorflow_lite/tensorflow/lite/kernels/internal\types.h ****   TFLITE_DCHECK(i2 >= 0 && i2 < dims.sizes[2]);
 431:C:/Renesas/e2studio_2021_01_workspace_RZA2M_ANPR/ANPR_RZA2M_EBK/src/tensorflow_lite/tensorflow/lite/kernels/internal\types.h ****   TFLITE_DCHECK(i3 >= 0 && i3 < dims.sizes[3]);
 432:C:/Renesas/e2studio_2021_01_workspace_RZA2M_ANPR/ANPR_RZA2M_EBK/src/tensorflow_lite/tensorflow/lite/kernels/internal\types.h ****   return i0 * dims.strides[0] + i1 * dims.strides[1] + i2 * dims.strides[2] +
 433:C:/Renesas/e2studio_2021_01_workspace_RZA2M_ANPR/ANPR_RZA2M_EBK/src/tensorflow_lite/tensorflow/lite/kernels/internal\types.h ****          i3 * dims.strides[3];
 434:C:/Renesas/e2studio_2021_01_workspace_RZA2M_ANPR/ANPR_RZA2M_EBK/src/tensorflow_lite/tensorflow/lite/kernels/internal\types.h **** }
 435:C:/Renesas/e2studio_2021_01_workspace_RZA2M_ANPR/ANPR_RZA2M_EBK/src/tensorflow_lite/tensorflow/lite/kernels/internal\types.h **** 
 436:C:/Renesas/e2studio_2021_01_workspace_RZA2M_ANPR/ANPR_RZA2M_EBK/src/tensorflow_lite/tensorflow/lite/kernels/internal\types.h **** inline int Offset(const Dims<4>& dims, int* index) {
 437:C:/Renesas/e2studio_2021_01_workspace_RZA2M_ANPR/ANPR_RZA2M_EBK/src/tensorflow_lite/tensorflow/lite/kernels/internal\types.h ****   return Offset(dims, index[0], index[1], index[2], index[3]);
 438:C:/Renesas/e2studio_2021_01_workspace_RZA2M_ANPR/ANPR_RZA2M_EBK/src/tensorflow_lite/tensorflow/lite/kernels/internal\types.h **** }
 439:C:/Renesas/e2studio_2021_01_workspace_RZA2M_ANPR/ANPR_RZA2M_EBK/src/tensorflow_lite/tensorflow/lite/kernels/internal\types.h **** 
 440:C:/Renesas/e2studio_2021_01_workspace_RZA2M_ANPR/ANPR_RZA2M_EBK/src/tensorflow_lite/tensorflow/lite/kernels/internal\types.h **** inline int Offset(const RuntimeShape& shape, int* index) {
 441:C:/Renesas/e2studio_2021_01_workspace_RZA2M_ANPR/ANPR_RZA2M_EBK/src/tensorflow_lite/tensorflow/lite/kernels/internal\types.h ****   return Offset(shape, index[0], index[1], index[2], index[3]);
 442:C:/Renesas/e2studio_2021_01_workspace_RZA2M_ANPR/ANPR_RZA2M_EBK/src/tensorflow_lite/tensorflow/lite/kernels/internal\types.h **** }
 443:C:/Renesas/e2studio_2021_01_workspace_RZA2M_ANPR/ANPR_RZA2M_EBK/src/tensorflow_lite/tensorflow/lite/kernels/internal\types.h **** 
 444:C:/Renesas/e2studio_2021_01_workspace_RZA2M_ANPR/ANPR_RZA2M_EBK/src/tensorflow_lite/tensorflow/lite/kernels/internal\types.h **** // Get array size, DCHECKing that the dim index is in range.
 445:C:/Renesas/e2studio_2021_01_workspace_RZA2M_ANPR/ANPR_RZA2M_EBK/src/tensorflow_lite/tensorflow/lite/kernels/internal\types.h **** //
 446:C:/Renesas/e2studio_2021_01_workspace_RZA2M_ANPR/ANPR_RZA2M_EBK/src/tensorflow_lite/tensorflow/lite/kernels/internal\types.h **** // Note that this will be phased out with Dims<4>, since RuntimeShape::Dims()
 447:C:/Renesas/e2studio_2021_01_workspace_RZA2M_ANPR/ANPR_RZA2M_EBK/src/tensorflow_lite/tensorflow/lite/kernels/internal\types.h **** // already performs this check.
 448:C:/Renesas/e2studio_2021_01_workspace_RZA2M_ANPR/ANPR_RZA2M_EBK/src/tensorflow_lite/tensorflow/lite/kernels/internal\types.h **** template <int N>
 449:C:/Renesas/e2studio_2021_01_workspace_RZA2M_ANPR/ANPR_RZA2M_EBK/src/tensorflow_lite/tensorflow/lite/kernels/internal\types.h **** int ArraySize(const Dims<N>& array, int index) {
 450:C:/Renesas/e2studio_2021_01_workspace_RZA2M_ANPR/ANPR_RZA2M_EBK/src/tensorflow_lite/tensorflow/lite/kernels/internal\types.h ****   TFLITE_DCHECK(index >= 0 && index < N);
 451:C:/Renesas/e2studio_2021_01_workspace_RZA2M_ANPR/ANPR_RZA2M_EBK/src/tensorflow_lite/tensorflow/lite/kernels/internal\types.h ****   return array.sizes[index];
 452:C:/Renesas/e2studio_2021_01_workspace_RZA2M_ANPR/ANPR_RZA2M_EBK/src/tensorflow_lite/tensorflow/lite/kernels/internal\types.h **** }
 453:C:/Renesas/e2studio_2021_01_workspace_RZA2M_ANPR/ANPR_RZA2M_EBK/src/tensorflow_lite/tensorflow/lite/kernels/internal\types.h **** 
 454:C:/Renesas/e2studio_2021_01_workspace_RZA2M_ANPR/ANPR_RZA2M_EBK/src/tensorflow_lite/tensorflow/lite/kernels/internal\types.h **** // Get common array size, DCHECKing that they all agree.
 455:C:/Renesas/e2studio_2021_01_workspace_RZA2M_ANPR/ANPR_RZA2M_EBK/src/tensorflow_lite/tensorflow/lite/kernels/internal\types.h **** template <typename ArrayType1, typename ArrayType2>
 456:C:/Renesas/e2studio_2021_01_workspace_RZA2M_ANPR/ANPR_RZA2M_EBK/src/tensorflow_lite/tensorflow/lite/kernels/internal\types.h **** int MatchingArraySize(const ArrayType1& array1, int index1,
 457:C:/Renesas/e2studio_2021_01_workspace_RZA2M_ANPR/ANPR_RZA2M_EBK/src/tensorflow_lite/tensorflow/lite/kernels/internal\types.h ****                       const ArrayType2& array2, int index2) {
 458:C:/Renesas/e2studio_2021_01_workspace_RZA2M_ANPR/ANPR_RZA2M_EBK/src/tensorflow_lite/tensorflow/lite/kernels/internal\types.h ****   TFLITE_DCHECK_EQ(ArraySize(array1, index1), ArraySize(array2, index2));
 459:C:/Renesas/e2studio_2021_01_workspace_RZA2M_ANPR/ANPR_RZA2M_EBK/src/tensorflow_lite/tensorflow/lite/kernels/internal\types.h ****   return ArraySize(array1, index1);
 460:C:/Renesas/e2studio_2021_01_workspace_RZA2M_ANPR/ANPR_RZA2M_EBK/src/tensorflow_lite/tensorflow/lite/kernels/internal\types.h **** }
 461:C:/Renesas/e2studio_2021_01_workspace_RZA2M_ANPR/ANPR_RZA2M_EBK/src/tensorflow_lite/tensorflow/lite/kernels/internal\types.h **** 
 462:C:/Renesas/e2studio_2021_01_workspace_RZA2M_ANPR/ANPR_RZA2M_EBK/src/tensorflow_lite/tensorflow/lite/kernels/internal\types.h **** template <typename ArrayType1, typename ArrayType2, typename... Args>
 463:C:/Renesas/e2studio_2021_01_workspace_RZA2M_ANPR/ANPR_RZA2M_EBK/src/tensorflow_lite/tensorflow/lite/kernels/internal\types.h **** int MatchingArraySize(const ArrayType1& array1, int index1,
 464:C:/Renesas/e2studio_2021_01_workspace_RZA2M_ANPR/ANPR_RZA2M_EBK/src/tensorflow_lite/tensorflow/lite/kernels/internal\types.h ****                       const ArrayType2& array2, int index2, Args... args) {
 465:C:/Renesas/e2studio_2021_01_workspace_RZA2M_ANPR/ANPR_RZA2M_EBK/src/tensorflow_lite/tensorflow/lite/kernels/internal\types.h ****   TFLITE_DCHECK_EQ(ArraySize(array1, index1), ArraySize(array2, index2));
 466:C:/Renesas/e2studio_2021_01_workspace_RZA2M_ANPR/ANPR_RZA2M_EBK/src/tensorflow_lite/tensorflow/lite/kernels/internal\types.h ****   return MatchingArraySize(array1, index1, args...);
 467:C:/Renesas/e2studio_2021_01_workspace_RZA2M_ANPR/ANPR_RZA2M_EBK/src/tensorflow_lite/tensorflow/lite/kernels/internal\types.h **** }
 468:C:/Renesas/e2studio_2021_01_workspace_RZA2M_ANPR/ANPR_RZA2M_EBK/src/tensorflow_lite/tensorflow/lite/kernels/internal\types.h **** 
 469:C:/Renesas/e2studio_2021_01_workspace_RZA2M_ANPR/ANPR_RZA2M_EBK/src/tensorflow_lite/tensorflow/lite/kernels/internal\types.h **** // Get common shape dim, DCHECKing that they all agree.
 470:C:/Renesas/e2studio_2021_01_workspace_RZA2M_ANPR/ANPR_RZA2M_EBK/src/tensorflow_lite/tensorflow/lite/kernels/internal\types.h **** inline int MatchingDim(const RuntimeShape& shape1, int index1,
 471:C:/Renesas/e2studio_2021_01_workspace_RZA2M_ANPR/ANPR_RZA2M_EBK/src/tensorflow_lite/tensorflow/lite/kernels/internal\types.h ****                        const RuntimeShape& shape2, int index2) {
 472:C:/Renesas/e2studio_2021_01_workspace_RZA2M_ANPR/ANPR_RZA2M_EBK/src/tensorflow_lite/tensorflow/lite/kernels/internal\types.h ****   TFLITE_DCHECK_EQ(shape1.Dims(index1), shape2.Dims(index2));
 473:C:/Renesas/e2studio_2021_01_workspace_RZA2M_ANPR/ANPR_RZA2M_EBK/src/tensorflow_lite/tensorflow/lite/kernels/internal\types.h ****   return std::min(shape1.Dims(index1), shape2.Dims(index2));
 474:C:/Renesas/e2studio_2021_01_workspace_RZA2M_ANPR/ANPR_RZA2M_EBK/src/tensorflow_lite/tensorflow/lite/kernels/internal\types.h **** }
 475:C:/Renesas/e2studio_2021_01_workspace_RZA2M_ANPR/ANPR_RZA2M_EBK/src/tensorflow_lite/tensorflow/lite/kernels/internal\types.h **** 
 476:C:/Renesas/e2studio_2021_01_workspace_RZA2M_ANPR/ANPR_RZA2M_EBK/src/tensorflow_lite/tensorflow/lite/kernels/internal\types.h **** template <typename... Args>
 477:C:/Renesas/e2studio_2021_01_workspace_RZA2M_ANPR/ANPR_RZA2M_EBK/src/tensorflow_lite/tensorflow/lite/kernels/internal\types.h **** int MatchingDim(const RuntimeShape& shape1, int index1,
 478:C:/Renesas/e2studio_2021_01_workspace_RZA2M_ANPR/ANPR_RZA2M_EBK/src/tensorflow_lite/tensorflow/lite/kernels/internal\types.h ****                 const RuntimeShape& shape2, int index2, Args... args) {
 479:C:/Renesas/e2studio_2021_01_workspace_RZA2M_ANPR/ANPR_RZA2M_EBK/src/tensorflow_lite/tensorflow/lite/kernels/internal\types.h ****   TFLITE_DCHECK_EQ(shape1.Dims(index1), shape2.Dims(index2));
 480:C:/Renesas/e2studio_2021_01_workspace_RZA2M_ANPR/ANPR_RZA2M_EBK/src/tensorflow_lite/tensorflow/lite/kernels/internal\types.h ****   return MatchingDim(shape1, index1, args...);
 481:C:/Renesas/e2studio_2021_01_workspace_RZA2M_ANPR/ANPR_RZA2M_EBK/src/tensorflow_lite/tensorflow/lite/kernels/internal\types.h **** }
 482:C:/Renesas/e2studio_2021_01_workspace_RZA2M_ANPR/ANPR_RZA2M_EBK/src/tensorflow_lite/tensorflow/lite/kernels/internal\types.h **** 
 483:C:/Renesas/e2studio_2021_01_workspace_RZA2M_ANPR/ANPR_RZA2M_EBK/src/tensorflow_lite/tensorflow/lite/kernels/internal\types.h **** // Will be phased out with Dims<4>, replaced by RuntimeShape::FlatSize().
 484:C:/Renesas/e2studio_2021_01_workspace_RZA2M_ANPR/ANPR_RZA2M_EBK/src/tensorflow_lite/tensorflow/lite/kernels/internal\types.h **** template <int N>
 485:C:/Renesas/e2studio_2021_01_workspace_RZA2M_ANPR/ANPR_RZA2M_EBK/src/tensorflow_lite/tensorflow/lite/kernels/internal\types.h **** inline int FlatSize(const Dims<N>& dims) {
 486:C:/Renesas/e2studio_2021_01_workspace_RZA2M_ANPR/ANPR_RZA2M_EBK/src/tensorflow_lite/tensorflow/lite/kernels/internal\types.h ****   int flat_size = 1;
 487:C:/Renesas/e2studio_2021_01_workspace_RZA2M_ANPR/ANPR_RZA2M_EBK/src/tensorflow_lite/tensorflow/lite/kernels/internal\types.h ****   for (int i = 0; i < N; ++i) {
 488:C:/Renesas/e2studio_2021_01_workspace_RZA2M_ANPR/ANPR_RZA2M_EBK/src/tensorflow_lite/tensorflow/lite/kernels/internal\types.h ****     flat_size *= dims.sizes[i];
 489:C:/Renesas/e2studio_2021_01_workspace_RZA2M_ANPR/ANPR_RZA2M_EBK/src/tensorflow_lite/tensorflow/lite/kernels/internal\types.h ****   }
 490:C:/Renesas/e2studio_2021_01_workspace_RZA2M_ANPR/ANPR_RZA2M_EBK/src/tensorflow_lite/tensorflow/lite/kernels/internal\types.h ****   return flat_size;
 491:C:/Renesas/e2studio_2021_01_workspace_RZA2M_ANPR/ANPR_RZA2M_EBK/src/tensorflow_lite/tensorflow/lite/kernels/internal\types.h **** }
 492:C:/Renesas/e2studio_2021_01_workspace_RZA2M_ANPR/ANPR_RZA2M_EBK/src/tensorflow_lite/tensorflow/lite/kernels/internal\types.h **** 
 493:C:/Renesas/e2studio_2021_01_workspace_RZA2M_ANPR/ANPR_RZA2M_EBK/src/tensorflow_lite/tensorflow/lite/kernels/internal\types.h **** TFLITE_DEPRECATED("Prefer FlatSize.")
 494:C:/Renesas/e2studio_2021_01_workspace_RZA2M_ANPR/ANPR_RZA2M_EBK/src/tensorflow_lite/tensorflow/lite/kernels/internal\types.h **** inline int RequiredBufferSizeForDims(const Dims<4>& dims) {
 495:C:/Renesas/e2studio_2021_01_workspace_RZA2M_ANPR/ANPR_RZA2M_EBK/src/tensorflow_lite/tensorflow/lite/kernels/internal\types.h ****   return FlatSize(dims);
 496:C:/Renesas/e2studio_2021_01_workspace_RZA2M_ANPR/ANPR_RZA2M_EBK/src/tensorflow_lite/tensorflow/lite/kernels/internal\types.h **** }
 497:C:/Renesas/e2studio_2021_01_workspace_RZA2M_ANPR/ANPR_RZA2M_EBK/src/tensorflow_lite/tensorflow/lite/kernels/internal\types.h **** 
 498:C:/Renesas/e2studio_2021_01_workspace_RZA2M_ANPR/ANPR_RZA2M_EBK/src/tensorflow_lite/tensorflow/lite/kernels/internal\types.h **** inline int MatchingElementsSize(const RuntimeShape& shape,
 499:C:/Renesas/e2studio_2021_01_workspace_RZA2M_ANPR/ANPR_RZA2M_EBK/src/tensorflow_lite/tensorflow/lite/kernels/internal\types.h ****                                 const RuntimeShape& check_shape_0) {
 500:C:/Renesas/e2studio_2021_01_workspace_RZA2M_ANPR/ANPR_RZA2M_EBK/src/tensorflow_lite/tensorflow/lite/kernels/internal\types.h ****   const int size_1 = shape.FlatSize();
 501:C:/Renesas/e2studio_2021_01_workspace_RZA2M_ANPR/ANPR_RZA2M_EBK/src/tensorflow_lite/tensorflow/lite/kernels/internal\types.h ****   const int size_2 = check_shape_0.FlatSize();
 502:C:/Renesas/e2studio_2021_01_workspace_RZA2M_ANPR/ANPR_RZA2M_EBK/src/tensorflow_lite/tensorflow/lite/kernels/internal\types.h ****   TFLITE_CHECK_EQ(size_1, size_2);
 503:C:/Renesas/e2studio_2021_01_workspace_RZA2M_ANPR/ANPR_RZA2M_EBK/src/tensorflow_lite/tensorflow/lite/kernels/internal\types.h ****   return size_1;
 504:C:/Renesas/e2studio_2021_01_workspace_RZA2M_ANPR/ANPR_RZA2M_EBK/src/tensorflow_lite/tensorflow/lite/kernels/internal\types.h **** }
 505:C:/Renesas/e2studio_2021_01_workspace_RZA2M_ANPR/ANPR_RZA2M_EBK/src/tensorflow_lite/tensorflow/lite/kernels/internal\types.h **** 
 506:C:/Renesas/e2studio_2021_01_workspace_RZA2M_ANPR/ANPR_RZA2M_EBK/src/tensorflow_lite/tensorflow/lite/kernels/internal\types.h **** inline int MatchingElementsSize(const RuntimeShape& shape,
 507:C:/Renesas/e2studio_2021_01_workspace_RZA2M_ANPR/ANPR_RZA2M_EBK/src/tensorflow_lite/tensorflow/lite/kernels/internal\types.h ****                                 const RuntimeShape& check_shape_0,
 508:C:/Renesas/e2studio_2021_01_workspace_RZA2M_ANPR/ANPR_RZA2M_EBK/src/tensorflow_lite/tensorflow/lite/kernels/internal\types.h ****                                 const RuntimeShape& check_shape_1) {
 509:C:/Renesas/e2studio_2021_01_workspace_RZA2M_ANPR/ANPR_RZA2M_EBK/src/tensorflow_lite/tensorflow/lite/kernels/internal\types.h ****   const int size_1 = shape.FlatSize();
 510:C:/Renesas/e2studio_2021_01_workspace_RZA2M_ANPR/ANPR_RZA2M_EBK/src/tensorflow_lite/tensorflow/lite/kernels/internal\types.h ****   const int size_2 = check_shape_0.FlatSize();
 511:C:/Renesas/e2studio_2021_01_workspace_RZA2M_ANPR/ANPR_RZA2M_EBK/src/tensorflow_lite/tensorflow/lite/kernels/internal\types.h ****   const int size_3 = check_shape_1.FlatSize();
 512:C:/Renesas/e2studio_2021_01_workspace_RZA2M_ANPR/ANPR_RZA2M_EBK/src/tensorflow_lite/tensorflow/lite/kernels/internal\types.h ****   TFLITE_CHECK_EQ(size_1, size_2);
 513:C:/Renesas/e2studio_2021_01_workspace_RZA2M_ANPR/ANPR_RZA2M_EBK/src/tensorflow_lite/tensorflow/lite/kernels/internal\types.h ****   TFLITE_CHECK_EQ(size_2, size_3);
 514:C:/Renesas/e2studio_2021_01_workspace_RZA2M_ANPR/ANPR_RZA2M_EBK/src/tensorflow_lite/tensorflow/lite/kernels/internal\types.h ****   return size_1;
 515:C:/Renesas/e2studio_2021_01_workspace_RZA2M_ANPR/ANPR_RZA2M_EBK/src/tensorflow_lite/tensorflow/lite/kernels/internal\types.h **** }
 516:C:/Renesas/e2studio_2021_01_workspace_RZA2M_ANPR/ANPR_RZA2M_EBK/src/tensorflow_lite/tensorflow/lite/kernels/internal\types.h **** 
 517:C:/Renesas/e2studio_2021_01_workspace_RZA2M_ANPR/ANPR_RZA2M_EBK/src/tensorflow_lite/tensorflow/lite/kernels/internal\types.h **** // Flat size calculation, checking that dimensions match with one or more other
 518:C:/Renesas/e2studio_2021_01_workspace_RZA2M_ANPR/ANPR_RZA2M_EBK/src/tensorflow_lite/tensorflow/lite/kernels/internal\types.h **** // arrays.
 519:C:/Renesas/e2studio_2021_01_workspace_RZA2M_ANPR/ANPR_RZA2M_EBK/src/tensorflow_lite/tensorflow/lite/kernels/internal\types.h **** inline int MatchingFlatSize(const RuntimeShape& shape,
 520:C:/Renesas/e2studio_2021_01_workspace_RZA2M_ANPR/ANPR_RZA2M_EBK/src/tensorflow_lite/tensorflow/lite/kernels/internal\types.h ****                             const RuntimeShape& check_shape_0) {
 521:C:/Renesas/e2studio_2021_01_workspace_RZA2M_ANPR/ANPR_RZA2M_EBK/src/tensorflow_lite/tensorflow/lite/kernels/internal\types.h ****   TFLITE_DCHECK_EQ(shape.DimensionsCount(), check_shape_0.DimensionsCount());
 522:C:/Renesas/e2studio_2021_01_workspace_RZA2M_ANPR/ANPR_RZA2M_EBK/src/tensorflow_lite/tensorflow/lite/kernels/internal\types.h ****   const int dims_count = shape.DimensionsCount();
 523:C:/Renesas/e2studio_2021_01_workspace_RZA2M_ANPR/ANPR_RZA2M_EBK/src/tensorflow_lite/tensorflow/lite/kernels/internal\types.h ****   for (int i = 0; i < dims_count; ++i) {
 524:C:/Renesas/e2studio_2021_01_workspace_RZA2M_ANPR/ANPR_RZA2M_EBK/src/tensorflow_lite/tensorflow/lite/kernels/internal\types.h ****     TFLITE_DCHECK_EQ(shape.Dims(i), check_shape_0.Dims(i));
 525:C:/Renesas/e2studio_2021_01_workspace_RZA2M_ANPR/ANPR_RZA2M_EBK/src/tensorflow_lite/tensorflow/lite/kernels/internal\types.h ****   }
 526:C:/Renesas/e2studio_2021_01_workspace_RZA2M_ANPR/ANPR_RZA2M_EBK/src/tensorflow_lite/tensorflow/lite/kernels/internal\types.h ****   return shape.FlatSize();
 527:C:/Renesas/e2studio_2021_01_workspace_RZA2M_ANPR/ANPR_RZA2M_EBK/src/tensorflow_lite/tensorflow/lite/kernels/internal\types.h **** }
 528:C:/Renesas/e2studio_2021_01_workspace_RZA2M_ANPR/ANPR_RZA2M_EBK/src/tensorflow_lite/tensorflow/lite/kernels/internal\types.h **** 
 529:C:/Renesas/e2studio_2021_01_workspace_RZA2M_ANPR/ANPR_RZA2M_EBK/src/tensorflow_lite/tensorflow/lite/kernels/internal\types.h **** inline int MatchingFlatSize(const RuntimeShape& shape,
 530:C:/Renesas/e2studio_2021_01_workspace_RZA2M_ANPR/ANPR_RZA2M_EBK/src/tensorflow_lite/tensorflow/lite/kernels/internal\types.h ****                             const RuntimeShape& check_shape_0,
 531:C:/Renesas/e2studio_2021_01_workspace_RZA2M_ANPR/ANPR_RZA2M_EBK/src/tensorflow_lite/tensorflow/lite/kernels/internal\types.h ****                             const RuntimeShape& check_shape_1) {
 532:C:/Renesas/e2studio_2021_01_workspace_RZA2M_ANPR/ANPR_RZA2M_EBK/src/tensorflow_lite/tensorflow/lite/kernels/internal\types.h ****   TFLITE_DCHECK_EQ(shape.DimensionsCount(), check_shape_0.DimensionsCount());
 533:C:/Renesas/e2studio_2021_01_workspace_RZA2M_ANPR/ANPR_RZA2M_EBK/src/tensorflow_lite/tensorflow/lite/kernels/internal\types.h ****   const int dims_count = shape.DimensionsCount();
 534:C:/Renesas/e2studio_2021_01_workspace_RZA2M_ANPR/ANPR_RZA2M_EBK/src/tensorflow_lite/tensorflow/lite/kernels/internal\types.h ****   for (int i = 0; i < dims_count; ++i) {
 535:C:/Renesas/e2studio_2021_01_workspace_RZA2M_ANPR/ANPR_RZA2M_EBK/src/tensorflow_lite/tensorflow/lite/kernels/internal\types.h ****     TFLITE_DCHECK_EQ(shape.Dims(i), check_shape_0.Dims(i));
 536:C:/Renesas/e2studio_2021_01_workspace_RZA2M_ANPR/ANPR_RZA2M_EBK/src/tensorflow_lite/tensorflow/lite/kernels/internal\types.h ****   }
 537:C:/Renesas/e2studio_2021_01_workspace_RZA2M_ANPR/ANPR_RZA2M_EBK/src/tensorflow_lite/tensorflow/lite/kernels/internal\types.h ****   return MatchingFlatSize(shape, check_shape_1);
 538:C:/Renesas/e2studio_2021_01_workspace_RZA2M_ANPR/ANPR_RZA2M_EBK/src/tensorflow_lite/tensorflow/lite/kernels/internal\types.h **** }
 539:C:/Renesas/e2studio_2021_01_workspace_RZA2M_ANPR/ANPR_RZA2M_EBK/src/tensorflow_lite/tensorflow/lite/kernels/internal\types.h **** 
 540:C:/Renesas/e2studio_2021_01_workspace_RZA2M_ANPR/ANPR_RZA2M_EBK/src/tensorflow_lite/tensorflow/lite/kernels/internal\types.h **** inline int MatchingFlatSize(const RuntimeShape& shape,
 541:C:/Renesas/e2studio_2021_01_workspace_RZA2M_ANPR/ANPR_RZA2M_EBK/src/tensorflow_lite/tensorflow/lite/kernels/internal\types.h ****                             const RuntimeShape& check_shape_0,
 542:C:/Renesas/e2studio_2021_01_workspace_RZA2M_ANPR/ANPR_RZA2M_EBK/src/tensorflow_lite/tensorflow/lite/kernels/internal\types.h ****                             const RuntimeShape& check_shape_1,
 543:C:/Renesas/e2studio_2021_01_workspace_RZA2M_ANPR/ANPR_RZA2M_EBK/src/tensorflow_lite/tensorflow/lite/kernels/internal\types.h ****                             const RuntimeShape& check_shape_2) {
 544:C:/Renesas/e2studio_2021_01_workspace_RZA2M_ANPR/ANPR_RZA2M_EBK/src/tensorflow_lite/tensorflow/lite/kernels/internal\types.h ****   TFLITE_DCHECK_EQ(shape.DimensionsCount(), check_shape_0.DimensionsCount());
 545:C:/Renesas/e2studio_2021_01_workspace_RZA2M_ANPR/ANPR_RZA2M_EBK/src/tensorflow_lite/tensorflow/lite/kernels/internal\types.h ****   const int dims_count = shape.DimensionsCount();
 546:C:/Renesas/e2studio_2021_01_workspace_RZA2M_ANPR/ANPR_RZA2M_EBK/src/tensorflow_lite/tensorflow/lite/kernels/internal\types.h ****   for (int i = 0; i < dims_count; ++i) {
 547:C:/Renesas/e2studio_2021_01_workspace_RZA2M_ANPR/ANPR_RZA2M_EBK/src/tensorflow_lite/tensorflow/lite/kernels/internal\types.h ****     TFLITE_DCHECK_EQ(shape.Dims(i), check_shape_0.Dims(i));
 548:C:/Renesas/e2studio_2021_01_workspace_RZA2M_ANPR/ANPR_RZA2M_EBK/src/tensorflow_lite/tensorflow/lite/kernels/internal\types.h ****   }
 549:C:/Renesas/e2studio_2021_01_workspace_RZA2M_ANPR/ANPR_RZA2M_EBK/src/tensorflow_lite/tensorflow/lite/kernels/internal\types.h ****   return MatchingFlatSize(shape, check_shape_1, check_shape_2);
 550:C:/Renesas/e2studio_2021_01_workspace_RZA2M_ANPR/ANPR_RZA2M_EBK/src/tensorflow_lite/tensorflow/lite/kernels/internal\types.h **** }
 551:C:/Renesas/e2studio_2021_01_workspace_RZA2M_ANPR/ANPR_RZA2M_EBK/src/tensorflow_lite/tensorflow/lite/kernels/internal\types.h **** 
 552:C:/Renesas/e2studio_2021_01_workspace_RZA2M_ANPR/ANPR_RZA2M_EBK/src/tensorflow_lite/tensorflow/lite/kernels/internal\types.h **** inline int MatchingFlatSize(const RuntimeShape& shape,
 553:C:/Renesas/e2studio_2021_01_workspace_RZA2M_ANPR/ANPR_RZA2M_EBK/src/tensorflow_lite/tensorflow/lite/kernels/internal\types.h ****                             const RuntimeShape& check_shape_0,
 554:C:/Renesas/e2studio_2021_01_workspace_RZA2M_ANPR/ANPR_RZA2M_EBK/src/tensorflow_lite/tensorflow/lite/kernels/internal\types.h ****                             const RuntimeShape& check_shape_1,
 555:C:/Renesas/e2studio_2021_01_workspace_RZA2M_ANPR/ANPR_RZA2M_EBK/src/tensorflow_lite/tensorflow/lite/kernels/internal\types.h ****                             const RuntimeShape& check_shape_2,
 556:C:/Renesas/e2studio_2021_01_workspace_RZA2M_ANPR/ANPR_RZA2M_EBK/src/tensorflow_lite/tensorflow/lite/kernels/internal\types.h ****                             const RuntimeShape& check_shape_3) {
 557:C:/Renesas/e2studio_2021_01_workspace_RZA2M_ANPR/ANPR_RZA2M_EBK/src/tensorflow_lite/tensorflow/lite/kernels/internal\types.h ****   TFLITE_DCHECK_EQ(shape.DimensionsCount(), check_shape_0.DimensionsCount());
 558:C:/Renesas/e2studio_2021_01_workspace_RZA2M_ANPR/ANPR_RZA2M_EBK/src/tensorflow_lite/tensorflow/lite/kernels/internal\types.h ****   const int dims_count = shape.DimensionsCount();
 559:C:/Renesas/e2studio_2021_01_workspace_RZA2M_ANPR/ANPR_RZA2M_EBK/src/tensorflow_lite/tensorflow/lite/kernels/internal\types.h ****   for (int i = 0; i < dims_count; ++i) {
 560:C:/Renesas/e2studio_2021_01_workspace_RZA2M_ANPR/ANPR_RZA2M_EBK/src/tensorflow_lite/tensorflow/lite/kernels/internal\types.h ****     TFLITE_DCHECK_EQ(shape.Dims(i), check_shape_0.Dims(i));
 561:C:/Renesas/e2studio_2021_01_workspace_RZA2M_ANPR/ANPR_RZA2M_EBK/src/tensorflow_lite/tensorflow/lite/kernels/internal\types.h ****   }
 562:C:/Renesas/e2studio_2021_01_workspace_RZA2M_ANPR/ANPR_RZA2M_EBK/src/tensorflow_lite/tensorflow/lite/kernels/internal\types.h ****   return MatchingFlatSize(shape, check_shape_1, check_shape_2, check_shape_3);
 563:C:/Renesas/e2studio_2021_01_workspace_RZA2M_ANPR/ANPR_RZA2M_EBK/src/tensorflow_lite/tensorflow/lite/kernels/internal\types.h **** }
 564:C:/Renesas/e2studio_2021_01_workspace_RZA2M_ANPR/ANPR_RZA2M_EBK/src/tensorflow_lite/tensorflow/lite/kernels/internal\types.h **** 
 565:C:/Renesas/e2studio_2021_01_workspace_RZA2M_ANPR/ANPR_RZA2M_EBK/src/tensorflow_lite/tensorflow/lite/kernels/internal\types.h **** // Flat size calculation, checking that dimensions match with one or more other
 566:C:/Renesas/e2studio_2021_01_workspace_RZA2M_ANPR/ANPR_RZA2M_EBK/src/tensorflow_lite/tensorflow/lite/kernels/internal\types.h **** // arrays.
 567:C:/Renesas/e2studio_2021_01_workspace_RZA2M_ANPR/ANPR_RZA2M_EBK/src/tensorflow_lite/tensorflow/lite/kernels/internal\types.h **** template <int N>
 568:C:/Renesas/e2studio_2021_01_workspace_RZA2M_ANPR/ANPR_RZA2M_EBK/src/tensorflow_lite/tensorflow/lite/kernels/internal\types.h **** inline int MatchingFlatSize(const Dims<N>& dims, const Dims<N>& check_dims_0) {
 569:C:/Renesas/e2studio_2021_01_workspace_RZA2M_ANPR/ANPR_RZA2M_EBK/src/tensorflow_lite/tensorflow/lite/kernels/internal\types.h ****   for (int i = 0; i < N; ++i) {
 570:C:/Renesas/e2studio_2021_01_workspace_RZA2M_ANPR/ANPR_RZA2M_EBK/src/tensorflow_lite/tensorflow/lite/kernels/internal\types.h ****     TFLITE_DCHECK_EQ(ArraySize(dims, i), ArraySize(check_dims_0, i));
 571:C:/Renesas/e2studio_2021_01_workspace_RZA2M_ANPR/ANPR_RZA2M_EBK/src/tensorflow_lite/tensorflow/lite/kernels/internal\types.h ****   }
 572:C:/Renesas/e2studio_2021_01_workspace_RZA2M_ANPR/ANPR_RZA2M_EBK/src/tensorflow_lite/tensorflow/lite/kernels/internal\types.h ****   return FlatSize(dims);
 573:C:/Renesas/e2studio_2021_01_workspace_RZA2M_ANPR/ANPR_RZA2M_EBK/src/tensorflow_lite/tensorflow/lite/kernels/internal\types.h **** }
 574:C:/Renesas/e2studio_2021_01_workspace_RZA2M_ANPR/ANPR_RZA2M_EBK/src/tensorflow_lite/tensorflow/lite/kernels/internal\types.h **** 
 575:C:/Renesas/e2studio_2021_01_workspace_RZA2M_ANPR/ANPR_RZA2M_EBK/src/tensorflow_lite/tensorflow/lite/kernels/internal\types.h **** template <int N>
 576:C:/Renesas/e2studio_2021_01_workspace_RZA2M_ANPR/ANPR_RZA2M_EBK/src/tensorflow_lite/tensorflow/lite/kernels/internal\types.h **** inline int MatchingFlatSize(const Dims<N>& dims, const Dims<N>& check_dims_0,
 577:C:/Renesas/e2studio_2021_01_workspace_RZA2M_ANPR/ANPR_RZA2M_EBK/src/tensorflow_lite/tensorflow/lite/kernels/internal\types.h ****                             const Dims<N>& check_dims_1) {
 578:C:/Renesas/e2studio_2021_01_workspace_RZA2M_ANPR/ANPR_RZA2M_EBK/src/tensorflow_lite/tensorflow/lite/kernels/internal\types.h ****   for (int i = 0; i < N; ++i) {
 579:C:/Renesas/e2studio_2021_01_workspace_RZA2M_ANPR/ANPR_RZA2M_EBK/src/tensorflow_lite/tensorflow/lite/kernels/internal\types.h ****     TFLITE_DCHECK_EQ(ArraySize(dims, i), ArraySize(check_dims_0, i));
 580:C:/Renesas/e2studio_2021_01_workspace_RZA2M_ANPR/ANPR_RZA2M_EBK/src/tensorflow_lite/tensorflow/lite/kernels/internal\types.h ****   }
 581:C:/Renesas/e2studio_2021_01_workspace_RZA2M_ANPR/ANPR_RZA2M_EBK/src/tensorflow_lite/tensorflow/lite/kernels/internal\types.h ****   return MatchingFlatSize(dims, check_dims_1);
 582:C:/Renesas/e2studio_2021_01_workspace_RZA2M_ANPR/ANPR_RZA2M_EBK/src/tensorflow_lite/tensorflow/lite/kernels/internal\types.h **** }
 583:C:/Renesas/e2studio_2021_01_workspace_RZA2M_ANPR/ANPR_RZA2M_EBK/src/tensorflow_lite/tensorflow/lite/kernels/internal\types.h **** 
 584:C:/Renesas/e2studio_2021_01_workspace_RZA2M_ANPR/ANPR_RZA2M_EBK/src/tensorflow_lite/tensorflow/lite/kernels/internal\types.h **** template <int N>
 585:C:/Renesas/e2studio_2021_01_workspace_RZA2M_ANPR/ANPR_RZA2M_EBK/src/tensorflow_lite/tensorflow/lite/kernels/internal\types.h **** inline int MatchingFlatSize(const Dims<N>& dims, const Dims<N>& check_dims_0,
 586:C:/Renesas/e2studio_2021_01_workspace_RZA2M_ANPR/ANPR_RZA2M_EBK/src/tensorflow_lite/tensorflow/lite/kernels/internal\types.h ****                             const Dims<N>& check_dims_1,
 587:C:/Renesas/e2studio_2021_01_workspace_RZA2M_ANPR/ANPR_RZA2M_EBK/src/tensorflow_lite/tensorflow/lite/kernels/internal\types.h ****                             const Dims<N>& check_dims_2) {
 588:C:/Renesas/e2studio_2021_01_workspace_RZA2M_ANPR/ANPR_RZA2M_EBK/src/tensorflow_lite/tensorflow/lite/kernels/internal\types.h ****   for (int i = 0; i < N; ++i) {
 589:C:/Renesas/e2studio_2021_01_workspace_RZA2M_ANPR/ANPR_RZA2M_EBK/src/tensorflow_lite/tensorflow/lite/kernels/internal\types.h ****     TFLITE_DCHECK_EQ(ArraySize(dims, i), ArraySize(check_dims_0, i));
 590:C:/Renesas/e2studio_2021_01_workspace_RZA2M_ANPR/ANPR_RZA2M_EBK/src/tensorflow_lite/tensorflow/lite/kernels/internal\types.h ****   }
 591:C:/Renesas/e2studio_2021_01_workspace_RZA2M_ANPR/ANPR_RZA2M_EBK/src/tensorflow_lite/tensorflow/lite/kernels/internal\types.h ****   return MatchingFlatSize(dims, check_dims_1, check_dims_2);
 592:C:/Renesas/e2studio_2021_01_workspace_RZA2M_ANPR/ANPR_RZA2M_EBK/src/tensorflow_lite/tensorflow/lite/kernels/internal\types.h **** }
 593:C:/Renesas/e2studio_2021_01_workspace_RZA2M_ANPR/ANPR_RZA2M_EBK/src/tensorflow_lite/tensorflow/lite/kernels/internal\types.h **** 
 594:C:/Renesas/e2studio_2021_01_workspace_RZA2M_ANPR/ANPR_RZA2M_EBK/src/tensorflow_lite/tensorflow/lite/kernels/internal\types.h **** template <int N>
 595:C:/Renesas/e2studio_2021_01_workspace_RZA2M_ANPR/ANPR_RZA2M_EBK/src/tensorflow_lite/tensorflow/lite/kernels/internal\types.h **** inline int MatchingFlatSize(const Dims<N>& dims, const Dims<N>& check_dims_0,
 596:C:/Renesas/e2studio_2021_01_workspace_RZA2M_ANPR/ANPR_RZA2M_EBK/src/tensorflow_lite/tensorflow/lite/kernels/internal\types.h ****                             const Dims<N>& check_dims_1,
 597:C:/Renesas/e2studio_2021_01_workspace_RZA2M_ANPR/ANPR_RZA2M_EBK/src/tensorflow_lite/tensorflow/lite/kernels/internal\types.h ****                             const Dims<N>& check_dims_2,
 598:C:/Renesas/e2studio_2021_01_workspace_RZA2M_ANPR/ANPR_RZA2M_EBK/src/tensorflow_lite/tensorflow/lite/kernels/internal\types.h ****                             const Dims<N>& check_dims_3) {
 599:C:/Renesas/e2studio_2021_01_workspace_RZA2M_ANPR/ANPR_RZA2M_EBK/src/tensorflow_lite/tensorflow/lite/kernels/internal\types.h ****   for (int i = 0; i < N; ++i) {
 600:C:/Renesas/e2studio_2021_01_workspace_RZA2M_ANPR/ANPR_RZA2M_EBK/src/tensorflow_lite/tensorflow/lite/kernels/internal\types.h ****     TFLITE_DCHECK_EQ(ArraySize(dims, i), ArraySize(check_dims_0, i));
 601:C:/Renesas/e2studio_2021_01_workspace_RZA2M_ANPR/ANPR_RZA2M_EBK/src/tensorflow_lite/tensorflow/lite/kernels/internal\types.h ****   }
 602:C:/Renesas/e2studio_2021_01_workspace_RZA2M_ANPR/ANPR_RZA2M_EBK/src/tensorflow_lite/tensorflow/lite/kernels/internal\types.h ****   return MatchingFlatSize(dims, check_dims_1, check_dims_2, check_dims_3);
 603:C:/Renesas/e2studio_2021_01_workspace_RZA2M_ANPR/ANPR_RZA2M_EBK/src/tensorflow_lite/tensorflow/lite/kernels/internal\types.h **** }
 604:C:/Renesas/e2studio_2021_01_workspace_RZA2M_ANPR/ANPR_RZA2M_EBK/src/tensorflow_lite/tensorflow/lite/kernels/internal\types.h **** 
 605:C:/Renesas/e2studio_2021_01_workspace_RZA2M_ANPR/ANPR_RZA2M_EBK/src/tensorflow_lite/tensorflow/lite/kernels/internal\types.h **** // Data is required to be contiguous, and so many operators can use either the
 606:C:/Renesas/e2studio_2021_01_workspace_RZA2M_ANPR/ANPR_RZA2M_EBK/src/tensorflow_lite/tensorflow/lite/kernels/internal\types.h **** // full array flat size or the flat size with one dimension skipped (commonly
 607:C:/Renesas/e2studio_2021_01_workspace_RZA2M_ANPR/ANPR_RZA2M_EBK/src/tensorflow_lite/tensorflow/lite/kernels/internal\types.h **** // the depth).
 608:C:/Renesas/e2studio_2021_01_workspace_RZA2M_ANPR/ANPR_RZA2M_EBK/src/tensorflow_lite/tensorflow/lite/kernels/internal\types.h **** template <int N>
 609:C:/Renesas/e2studio_2021_01_workspace_RZA2M_ANPR/ANPR_RZA2M_EBK/src/tensorflow_lite/tensorflow/lite/kernels/internal\types.h **** inline int FlatSizeSkipDim(const Dims<N>& dims, int skip_dim) {
 610:C:/Renesas/e2studio_2021_01_workspace_RZA2M_ANPR/ANPR_RZA2M_EBK/src/tensorflow_lite/tensorflow/lite/kernels/internal\types.h ****   TFLITE_DCHECK(skip_dim >= 0 && skip_dim < N);
 611:C:/Renesas/e2studio_2021_01_workspace_RZA2M_ANPR/ANPR_RZA2M_EBK/src/tensorflow_lite/tensorflow/lite/kernels/internal\types.h ****   int flat_size = 1;
 612:C:/Renesas/e2studio_2021_01_workspace_RZA2M_ANPR/ANPR_RZA2M_EBK/src/tensorflow_lite/tensorflow/lite/kernels/internal\types.h ****   for (int i = 0; i < N; ++i) {
 613:C:/Renesas/e2studio_2021_01_workspace_RZA2M_ANPR/ANPR_RZA2M_EBK/src/tensorflow_lite/tensorflow/lite/kernels/internal\types.h ****     flat_size *= (i == skip_dim) ? 1 : dims.sizes[i];
 614:C:/Renesas/e2studio_2021_01_workspace_RZA2M_ANPR/ANPR_RZA2M_EBK/src/tensorflow_lite/tensorflow/lite/kernels/internal\types.h ****   }
 615:C:/Renesas/e2studio_2021_01_workspace_RZA2M_ANPR/ANPR_RZA2M_EBK/src/tensorflow_lite/tensorflow/lite/kernels/internal\types.h ****   return flat_size;
 616:C:/Renesas/e2studio_2021_01_workspace_RZA2M_ANPR/ANPR_RZA2M_EBK/src/tensorflow_lite/tensorflow/lite/kernels/internal\types.h **** }
 617:C:/Renesas/e2studio_2021_01_workspace_RZA2M_ANPR/ANPR_RZA2M_EBK/src/tensorflow_lite/tensorflow/lite/kernels/internal\types.h **** 
 618:C:/Renesas/e2studio_2021_01_workspace_RZA2M_ANPR/ANPR_RZA2M_EBK/src/tensorflow_lite/tensorflow/lite/kernels/internal\types.h **** // A combination of MatchingFlatSize() and FlatSizeSkipDim().
 619:C:/Renesas/e2studio_2021_01_workspace_RZA2M_ANPR/ANPR_RZA2M_EBK/src/tensorflow_lite/tensorflow/lite/kernels/internal\types.h **** template <int N>
 620:C:/Renesas/e2studio_2021_01_workspace_RZA2M_ANPR/ANPR_RZA2M_EBK/src/tensorflow_lite/tensorflow/lite/kernels/internal\types.h **** inline int MatchingFlatSizeSkipDim(const Dims<N>& dims, int skip_dim,
 621:C:/Renesas/e2studio_2021_01_workspace_RZA2M_ANPR/ANPR_RZA2M_EBK/src/tensorflow_lite/tensorflow/lite/kernels/internal\types.h ****                                    const Dims<N>& check_dims_0) {
 622:C:/Renesas/e2studio_2021_01_workspace_RZA2M_ANPR/ANPR_RZA2M_EBK/src/tensorflow_lite/tensorflow/lite/kernels/internal\types.h ****   for (int i = 0; i < N; ++i) {
 623:C:/Renesas/e2studio_2021_01_workspace_RZA2M_ANPR/ANPR_RZA2M_EBK/src/tensorflow_lite/tensorflow/lite/kernels/internal\types.h ****     if (i != skip_dim) {
 624:C:/Renesas/e2studio_2021_01_workspace_RZA2M_ANPR/ANPR_RZA2M_EBK/src/tensorflow_lite/tensorflow/lite/kernels/internal\types.h ****       TFLITE_DCHECK_EQ(ArraySize(dims, i), ArraySize(check_dims_0, i));
 625:C:/Renesas/e2studio_2021_01_workspace_RZA2M_ANPR/ANPR_RZA2M_EBK/src/tensorflow_lite/tensorflow/lite/kernels/internal\types.h ****     }
 626:C:/Renesas/e2studio_2021_01_workspace_RZA2M_ANPR/ANPR_RZA2M_EBK/src/tensorflow_lite/tensorflow/lite/kernels/internal\types.h ****   }
 627:C:/Renesas/e2studio_2021_01_workspace_RZA2M_ANPR/ANPR_RZA2M_EBK/src/tensorflow_lite/tensorflow/lite/kernels/internal\types.h ****   return FlatSizeSkipDim(dims, skip_dim);
 628:C:/Renesas/e2studio_2021_01_workspace_RZA2M_ANPR/ANPR_RZA2M_EBK/src/tensorflow_lite/tensorflow/lite/kernels/internal\types.h **** }
 629:C:/Renesas/e2studio_2021_01_workspace_RZA2M_ANPR/ANPR_RZA2M_EBK/src/tensorflow_lite/tensorflow/lite/kernels/internal\types.h **** 
 630:C:/Renesas/e2studio_2021_01_workspace_RZA2M_ANPR/ANPR_RZA2M_EBK/src/tensorflow_lite/tensorflow/lite/kernels/internal\types.h **** template <int N>
 631:C:/Renesas/e2studio_2021_01_workspace_RZA2M_ANPR/ANPR_RZA2M_EBK/src/tensorflow_lite/tensorflow/lite/kernels/internal\types.h **** inline int MatchingFlatSizeSkipDim(const Dims<N>& dims, int skip_dim,
 632:C:/Renesas/e2studio_2021_01_workspace_RZA2M_ANPR/ANPR_RZA2M_EBK/src/tensorflow_lite/tensorflow/lite/kernels/internal\types.h ****                                    const Dims<N>& check_dims_0,
 633:C:/Renesas/e2studio_2021_01_workspace_RZA2M_ANPR/ANPR_RZA2M_EBK/src/tensorflow_lite/tensorflow/lite/kernels/internal\types.h ****                                    const Dims<N>& check_dims_1) {
 634:C:/Renesas/e2studio_2021_01_workspace_RZA2M_ANPR/ANPR_RZA2M_EBK/src/tensorflow_lite/tensorflow/lite/kernels/internal\types.h ****   for (int i = 0; i < N; ++i) {
 635:C:/Renesas/e2studio_2021_01_workspace_RZA2M_ANPR/ANPR_RZA2M_EBK/src/tensorflow_lite/tensorflow/lite/kernels/internal\types.h ****     if (i != skip_dim) {
 636:C:/Renesas/e2studio_2021_01_workspace_RZA2M_ANPR/ANPR_RZA2M_EBK/src/tensorflow_lite/tensorflow/lite/kernels/internal\types.h ****       TFLITE_DCHECK_EQ(ArraySize(dims, i), ArraySize(check_dims_0, i));
 637:C:/Renesas/e2studio_2021_01_workspace_RZA2M_ANPR/ANPR_RZA2M_EBK/src/tensorflow_lite/tensorflow/lite/kernels/internal\types.h ****     }
 638:C:/Renesas/e2studio_2021_01_workspace_RZA2M_ANPR/ANPR_RZA2M_EBK/src/tensorflow_lite/tensorflow/lite/kernels/internal\types.h ****   }
 639:C:/Renesas/e2studio_2021_01_workspace_RZA2M_ANPR/ANPR_RZA2M_EBK/src/tensorflow_lite/tensorflow/lite/kernels/internal\types.h ****   return MatchingFlatSizeSkipDim(dims, skip_dim, check_dims_1);
 640:C:/Renesas/e2studio_2021_01_workspace_RZA2M_ANPR/ANPR_RZA2M_EBK/src/tensorflow_lite/tensorflow/lite/kernels/internal\types.h **** }
 641:C:/Renesas/e2studio_2021_01_workspace_RZA2M_ANPR/ANPR_RZA2M_EBK/src/tensorflow_lite/tensorflow/lite/kernels/internal\types.h **** 
 642:C:/Renesas/e2studio_2021_01_workspace_RZA2M_ANPR/ANPR_RZA2M_EBK/src/tensorflow_lite/tensorflow/lite/kernels/internal\types.h **** template <int N>
 643:C:/Renesas/e2studio_2021_01_workspace_RZA2M_ANPR/ANPR_RZA2M_EBK/src/tensorflow_lite/tensorflow/lite/kernels/internal\types.h **** inline int MatchingFlatSizeSkipDim(const Dims<N>& dims, int skip_dim,
 644:C:/Renesas/e2studio_2021_01_workspace_RZA2M_ANPR/ANPR_RZA2M_EBK/src/tensorflow_lite/tensorflow/lite/kernels/internal\types.h ****                                    const Dims<N>& check_dims_0,
 645:C:/Renesas/e2studio_2021_01_workspace_RZA2M_ANPR/ANPR_RZA2M_EBK/src/tensorflow_lite/tensorflow/lite/kernels/internal\types.h ****                                    const Dims<N>& check_dims_1,
 646:C:/Renesas/e2studio_2021_01_workspace_RZA2M_ANPR/ANPR_RZA2M_EBK/src/tensorflow_lite/tensorflow/lite/kernels/internal\types.h ****                                    const Dims<N>& check_dims_2) {
 647:C:/Renesas/e2studio_2021_01_workspace_RZA2M_ANPR/ANPR_RZA2M_EBK/src/tensorflow_lite/tensorflow/lite/kernels/internal\types.h ****   for (int i = 0; i < N; ++i) {
 648:C:/Renesas/e2studio_2021_01_workspace_RZA2M_ANPR/ANPR_RZA2M_EBK/src/tensorflow_lite/tensorflow/lite/kernels/internal\types.h ****     if (i != skip_dim) {
 649:C:/Renesas/e2studio_2021_01_workspace_RZA2M_ANPR/ANPR_RZA2M_EBK/src/tensorflow_lite/tensorflow/lite/kernels/internal\types.h ****       TFLITE_DCHECK_EQ(ArraySize(dims, i), ArraySize(check_dims_0, i));
 650:C:/Renesas/e2studio_2021_01_workspace_RZA2M_ANPR/ANPR_RZA2M_EBK/src/tensorflow_lite/tensorflow/lite/kernels/internal\types.h ****     }
 651:C:/Renesas/e2studio_2021_01_workspace_RZA2M_ANPR/ANPR_RZA2M_EBK/src/tensorflow_lite/tensorflow/lite/kernels/internal\types.h ****   }
 652:C:/Renesas/e2studio_2021_01_workspace_RZA2M_ANPR/ANPR_RZA2M_EBK/src/tensorflow_lite/tensorflow/lite/kernels/internal\types.h ****   return MatchingFlatSizeSkipDim(dims, skip_dim, check_dims_1, check_dims_2);
 653:C:/Renesas/e2studio_2021_01_workspace_RZA2M_ANPR/ANPR_RZA2M_EBK/src/tensorflow_lite/tensorflow/lite/kernels/internal\types.h **** }
 654:C:/Renesas/e2studio_2021_01_workspace_RZA2M_ANPR/ANPR_RZA2M_EBK/src/tensorflow_lite/tensorflow/lite/kernels/internal\types.h **** 
 655:C:/Renesas/e2studio_2021_01_workspace_RZA2M_ANPR/ANPR_RZA2M_EBK/src/tensorflow_lite/tensorflow/lite/kernels/internal\types.h **** template <int N>
 656:C:/Renesas/e2studio_2021_01_workspace_RZA2M_ANPR/ANPR_RZA2M_EBK/src/tensorflow_lite/tensorflow/lite/kernels/internal\types.h **** inline int MatchingFlatSizeSkipDim(const Dims<N>& dims, int skip_dim,
 657:C:/Renesas/e2studio_2021_01_workspace_RZA2M_ANPR/ANPR_RZA2M_EBK/src/tensorflow_lite/tensorflow/lite/kernels/internal\types.h ****                                    const Dims<N>& check_dims_0,
 658:C:/Renesas/e2studio_2021_01_workspace_RZA2M_ANPR/ANPR_RZA2M_EBK/src/tensorflow_lite/tensorflow/lite/kernels/internal\types.h ****                                    const Dims<N>& check_dims_1,
 659:C:/Renesas/e2studio_2021_01_workspace_RZA2M_ANPR/ANPR_RZA2M_EBK/src/tensorflow_lite/tensorflow/lite/kernels/internal\types.h ****                                    const Dims<N>& check_dims_2,
 660:C:/Renesas/e2studio_2021_01_workspace_RZA2M_ANPR/ANPR_RZA2M_EBK/src/tensorflow_lite/tensorflow/lite/kernels/internal\types.h ****                                    const Dims<N>& check_dims_3) {
 661:C:/Renesas/e2studio_2021_01_workspace_RZA2M_ANPR/ANPR_RZA2M_EBK/src/tensorflow_lite/tensorflow/lite/kernels/internal\types.h ****   for (int i = 0; i < N; ++i) {
 662:C:/Renesas/e2studio_2021_01_workspace_RZA2M_ANPR/ANPR_RZA2M_EBK/src/tensorflow_lite/tensorflow/lite/kernels/internal\types.h ****     if (i != skip_dim) {
 663:C:/Renesas/e2studio_2021_01_workspace_RZA2M_ANPR/ANPR_RZA2M_EBK/src/tensorflow_lite/tensorflow/lite/kernels/internal\types.h ****       TFLITE_DCHECK_EQ(ArraySize(dims, i), ArraySize(check_dims_0, i));
 664:C:/Renesas/e2studio_2021_01_workspace_RZA2M_ANPR/ANPR_RZA2M_EBK/src/tensorflow_lite/tensorflow/lite/kernels/internal\types.h ****     }
 665:C:/Renesas/e2studio_2021_01_workspace_RZA2M_ANPR/ANPR_RZA2M_EBK/src/tensorflow_lite/tensorflow/lite/kernels/internal\types.h ****   }
 666:C:/Renesas/e2studio_2021_01_workspace_RZA2M_ANPR/ANPR_RZA2M_EBK/src/tensorflow_lite/tensorflow/lite/kernels/internal\types.h ****   return MatchingFlatSizeSkipDim(dims, skip_dim, check_dims_1, check_dims_2,
 667:C:/Renesas/e2studio_2021_01_workspace_RZA2M_ANPR/ANPR_RZA2M_EBK/src/tensorflow_lite/tensorflow/lite/kernels/internal\types.h ****                                  check_dims_3);
 668:C:/Renesas/e2studio_2021_01_workspace_RZA2M_ANPR/ANPR_RZA2M_EBK/src/tensorflow_lite/tensorflow/lite/kernels/internal\types.h **** }
 669:C:/Renesas/e2studio_2021_01_workspace_RZA2M_ANPR/ANPR_RZA2M_EBK/src/tensorflow_lite/tensorflow/lite/kernels/internal\types.h **** 
 670:C:/Renesas/e2studio_2021_01_workspace_RZA2M_ANPR/ANPR_RZA2M_EBK/src/tensorflow_lite/tensorflow/lite/kernels/internal\types.h **** // Data is required to be contiguous, and so many operators can use either the
 671:C:/Renesas/e2studio_2021_01_workspace_RZA2M_ANPR/ANPR_RZA2M_EBK/src/tensorflow_lite/tensorflow/lite/kernels/internal\types.h **** // full array flat size or the flat size with one dimension skipped (commonly
 672:C:/Renesas/e2studio_2021_01_workspace_RZA2M_ANPR/ANPR_RZA2M_EBK/src/tensorflow_lite/tensorflow/lite/kernels/internal\types.h **** // the depth).
 673:C:/Renesas/e2studio_2021_01_workspace_RZA2M_ANPR/ANPR_RZA2M_EBK/src/tensorflow_lite/tensorflow/lite/kernels/internal\types.h **** inline int FlatSizeSkipDim(const RuntimeShape& shape, int skip_dim) {
 674:C:/Renesas/e2studio_2021_01_workspace_RZA2M_ANPR/ANPR_RZA2M_EBK/src/tensorflow_lite/tensorflow/lite/kernels/internal\types.h ****   const int dims_count = shape.DimensionsCount();
 675:C:/Renesas/e2studio_2021_01_workspace_RZA2M_ANPR/ANPR_RZA2M_EBK/src/tensorflow_lite/tensorflow/lite/kernels/internal\types.h ****   TFLITE_DCHECK(skip_dim >= 0 && skip_dim < dims_count);
 399              		.loc 4 675 0
 400 0300 012055E2 		subs	r2, r5, #1
 401              	.LVL44:
 402 0304 2400004A 		bmi	.L10
 403              	.LVL45:
 404              	.LBB1555:
 405              	.LBB1556:
 232:C:/Renesas/e2studio_2021_01_workspace_RZA2M_ANPR/ANPR_RZA2M_EBK/src/tensorflow_lite/tensorflow/lite/kernels/internal\types.h ****   }
 406              		.loc 4 232 0
 407 0308 050055E3 		cmp	r5, #5
 408 030c 110000DA 		ble	.L14
 409 0310 24009DE5 		ldr	r0, [sp, #36]
 410              	.LVL46:
 411              	.L23:
 412 0314 0030A0E3 		mov	r3, #0
 413              	.LVL47:
 414              	.L16:
 415              	.LBE1556:
 416              	.LBE1555:
 417              	.LBB1558:
 676:C:/Renesas/e2studio_2021_01_workspace_RZA2M_ANPR/ANPR_RZA2M_EBK/src/tensorflow_lite/tensorflow/lite/kernels/internal\types.h ****   const auto* dims_data = shape.DimsData();
 677:C:/Renesas/e2studio_2021_01_workspace_RZA2M_ANPR/ANPR_RZA2M_EBK/src/tensorflow_lite/tensorflow/lite/kernels/internal\types.h ****   int flat_size = 1;
 678:C:/Renesas/e2studio_2021_01_workspace_RZA2M_ANPR/ANPR_RZA2M_EBK/src/tensorflow_lite/tensorflow/lite/kernels/internal\types.h ****   for (int i = 0; i < dims_count; ++i) {
 679:C:/Renesas/e2studio_2021_01_workspace_RZA2M_ANPR/ANPR_RZA2M_EBK/src/tensorflow_lite/tensorflow/lite/kernels/internal\types.h ****     flat_size *= (i == skip_dim) ? 1 : dims_data[i];
 418              		.loc 4 679 0
 419 0318 030052E1 		cmp	r2, r3
 420 031c 03119017 		ldrne	r1, [r0, r3, lsl #2]
 678:C:/Renesas/e2studio_2021_01_workspace_RZA2M_ANPR/ANPR_RZA2M_EBK/src/tensorflow_lite/tensorflow/lite/kernels/internal\types.h ****     flat_size *= (i == skip_dim) ? 1 : dims_data[i];
 421              		.loc 4 678 0
 422 0320 013083E2 		add	r3, r3, #1
 423              	.LVL48:
 424              		.loc 4 679 0
 425 0324 0110A003 		moveq	r1, #1
 678:C:/Renesas/e2studio_2021_01_workspace_RZA2M_ANPR/ANPR_RZA2M_EBK/src/tensorflow_lite/tensorflow/lite/kernels/internal\types.h ****     flat_size *= (i == skip_dim) ? 1 : dims_data[i];
 426              		.loc 4 678 0
 427 0328 030055E1 		cmp	r5, r3
 428              		.loc 4 679 0
 429 032c 910707E0 		mul	r7, r1, r7
 430              	.LVL49:
 678:C:/Renesas/e2studio_2021_01_workspace_RZA2M_ANPR/ANPR_RZA2M_EBK/src/tensorflow_lite/tensorflow/lite/kernels/internal\types.h ****     flat_size *= (i == skip_dim) ? 1 : dims_data[i];
 431              		.loc 4 678 0
 432 0330 F8FFFF1A 		bne	.L16
 433              	.LVL50:
 434              	.LBE1558:
 435              	.LBE1554:
 436              	.LBE1553:
 437              	.LBB1564:
 438              	.LBB1565:
 216:C:/Renesas/e2studio_2021_01_workspace_RZA2M_ANPR/ANPR_RZA2M_EBK/src/tensorflow_lite/tensorflow/lite/kernels/internal\types.h ****   }
 439              		.loc 4 216 0
 440 0334 050055E3 		cmp	r5, #5
 441              	.LBE1565:
 442              	.LBE1564:
  87:../src/tensorflow_lite/tensorflow/lite/micro/kernels/log_softmax.cc ****         static_cast<size_t>(FlatSizeSkipDim(input_shape, trailing_dim));
 443              		.loc 1 87 0
 444 0338 147084E5 		str	r7, [r4, #20]
 445              	.LVL51:
 446              	.LBB1568:
 447              	.LBB1566:
 216:C:/Renesas/e2studio_2021_01_workspace_RZA2M_ANPR/ANPR_RZA2M_EBK/src/tensorflow_lite/tensorflow/lite/kernels/internal\types.h ****   }
 448              		.loc 4 216 0
 449 033c 0B0000CA 		bgt	.L39
 450              	.L17:
 451              	.LVL52:
 452 0340 38308DE2 		add	r3, sp, #56
 453 0344 022183E0 		add	r2, r3, r2, lsl #2
 454              	.LVL53:
 455              	.LBE1566:
 456              	.LBE1568:
  89:../src/tensorflow_lite/tensorflow/lite/micro/kernels/log_softmax.cc ****   }
 457              		.loc 1 89 0
 458 0348 143012E5 		ldr	r3, [r2, #-20]
 459 034c 183084E5 		str	r3, [r4, #24]
 460              	.LVL54:
 461              	.L19:
 462              	.LBE1580:
 463              	.LBE1582:
  92:../src/tensorflow_lite/tensorflow/lite/micro/kernels/log_softmax.cc **** }
 464              		.loc 1 92 0
 465 0350 0040A0E3 		mov	r4, #0
 466              	.LVL55:
 467 0354 45FFFFEA 		b	.L29
 468              	.LVL56:
 469              	.L14:
 470              	.LBB1583:
 471              	.LBB1581:
 472              	.LBB1569:
 473              	.LBB1562:
 474              	.LBB1559:
 678:C:/Renesas/e2studio_2021_01_workspace_RZA2M_ANPR/ANPR_RZA2M_EBK/src/tensorflow_lite/tensorflow/lite/kernels/internal\types.h ****     flat_size *= (i == skip_dim) ? 1 : dims_data[i];
 475              		.loc 4 678 0
 476 0358 000055E3 		cmp	r5, #0
 477              	.LBE1559:
 478              	.LBB1560:
 479              	.LBB1557:
 232:C:/Renesas/e2studio_2021_01_workspace_RZA2M_ANPR/ANPR_RZA2M_EBK/src/tensorflow_lite/tensorflow/lite/kernels/internal\types.h ****   }
 480              		.loc 4 232 0
 481 035c 24008DC2 		addgt	r0, sp, #36
 482              	.LBE1557:
 483              	.LBE1560:
 484              	.LBB1561:
 678:C:/Renesas/e2studio_2021_01_workspace_RZA2M_ANPR/ANPR_RZA2M_EBK/src/tensorflow_lite/tensorflow/lite/kernels/internal\types.h ****     flat_size *= (i == skip_dim) ? 1 : dims_data[i];
 485              		.loc 4 678 0
 486 0360 EBFFFFCA 		bgt	.L23
 487              	.LVL57:
 488              	.LBE1561:
 489              	.LBE1562:
 490              	.LBE1569:
  87:../src/tensorflow_lite/tensorflow/lite/micro/kernels/log_softmax.cc ****         static_cast<size_t>(FlatSizeSkipDim(input_shape, trailing_dim));
 491              		.loc 1 87 0
 492 0364 0130A0E3 		mov	r3, #1
 493 0368 143084E5 		str	r3, [r4, #20]
 494              	.LVL58:
 495 036c F3FFFFEA 		b	.L17
 496              	.L39:
 497              	.LBB1570:
 498              	.LBB1567:
 216:C:/Renesas/e2studio_2021_01_workspace_RZA2M_ANPR/ANPR_RZA2M_EBK/src/tensorflow_lite/tensorflow/lite/kernels/internal\types.h ****   }
 499              		.loc 4 216 0
 500 0370 24009DE5 		ldr	r0, [sp, #36]
 501              	.LVL59:
 502              	.LBE1567:
 503              	.LBE1570:
  89:../src/tensorflow_lite/tensorflow/lite/micro/kernels/log_softmax.cc ****   }
 504              		.loc 1 89 0
 505 0374 023190E7 		ldr	r3, [r0, r2, lsl #2]
 506              	.LBB1571:
 507              	.LBB1572:
 207:C:/Renesas/e2studio_2021_01_workspace_RZA2M_ANPR/ANPR_RZA2M_EBK/src/tensorflow_lite/tensorflow/lite/kernels/internal\types.h **** #endif  // TF_LITE_STATIC_MEMORY
 508              		.loc 4 207 0
 509 0378 000050E3 		cmp	r0, #0
 510              	.LBE1572:
 511              	.LBE1571:
  89:../src/tensorflow_lite/tensorflow/lite/micro/kernels/log_softmax.cc ****   }
 512              		.loc 1 89 0
 513 037c 183084E5 		str	r3, [r4, #24]
 514              	.LVL60:
 515              	.LBB1574:
 516              	.LBB1573:
 207:C:/Renesas/e2studio_2021_01_workspace_RZA2M_ANPR/ANPR_RZA2M_EBK/src/tensorflow_lite/tensorflow/lite/kernels/internal\types.h **** #endif  // TF_LITE_STATIC_MEMORY
 517              		.loc 4 207 0
 518 0380 F2FFFF0A 		beq	.L19
 519 0384 FEFFFFEB 		bl	_ZdaPv
 520              	.LVL61:
 521 0388 F0FFFFEA 		b	.L19
 522              	.LVL62:
 523              	.L26:
 524 038c 0251A0E1 		lsl	r5, r2, #2
 525              	.LVL63:
 526              	.LBE1573:
 527              	.LBE1574:
 528              	.LBB1575:
 529              	.LBB1551:
 530              	.LBB1549:
 531              	.LBB1547:
 532              	.LBB1545:
 533              	.LBB1542:
 534              	.LBB1543:
 229:C:/Renesas/e2studio_2021_01_workspace_RZA2M_ANPR/ANPR_RZA2M_EBK/src/tensorflow_lite/tensorflow/lite/kernels/internal\types.h ****   }
 535              		.loc 4 229 0
 536 0390 24008DE2 		add	r0, sp, #36
 537 0394 D5FFFFEA 		b	.L11
 538              	.LVL64:
 539              	.L25:
 540              	.LBE1543:
 541              	.LBE1542:
 542              	.LBE1545:
 543              	.LBE1547:
 544              	.LBE1549:
  35:C:/Renesas/e2studio_2021_01_workspace_RZA2M_ANPR/ANPR_RZA2M_EBK/src/tensorflow_lite/tensorflow/lite/kernels/internal\tensor_ctypes.h ****     return RuntimeShape();
 545              		.loc 3 35 0
 546 0398 0050A0E3 		mov	r5, #0
 547              	.LVL65:
 548              	.L10:
 549              	.LEHB1:
 550              	.LBE1551:
 551              	.LBE1575:
 552              	.LBB1576:
 553              	.LBB1563:
 675:C:/Renesas/e2studio_2021_01_workspace_RZA2M_ANPR/ANPR_RZA2M_EBK/src/tensorflow_lite/tensorflow/lite/kernels/internal\types.h ****   const auto* dims_data = shape.DimsData();
 554              		.loc 4 675 0
 555 039c FEFFFFEB 		bl	abort
 556              	.LVL66:
 557              	.LEHE1:
 558              	.L12:
 559              	.LEHB2:
 560              	.LBE1563:
 561              	.LBE1576:
 562              	.LBB1577:
 563              	.LBB1552:
 564              	.LBB1550:
 565              	.LBB1548:
 566              	.LBB1546:
 567              	.LBB1544:
 568              	.LBB1541:
 250:C:/Renesas/e2studio_2021_01_workspace_RZA2M_ANPR/ANPR_RZA2M_EBK/src/tensorflow_lite/tensorflow/lite/kernels/internal\types.h **** #endif  // TF_LITE_STATIC_MEMORY
 569              		.loc 4 250 0
 570 03a0 FEFFFFEB 		bl	__cxa_throw_bad_array_new_length
 571              	.LVL67:
 572              	.L28:
 573              	.LBE1541:
 574              	.LBE1544:
 575              	.LBE1546:
 576              	.LBE1548:
 577              	.LBE1550:
 578              	.LBE1552:
 579              	.LBE1577:
 580              	.LBB1578:
 581              	.LBB1579:
 203:C:/Renesas/e2studio_2021_01_workspace_RZA2M_ANPR/ANPR_RZA2M_EBK/src/tensorflow_lite/tensorflow/lite/kernels/internal\types.h **** #ifdef TF_LITE_STATIC_MEMORY
 582              		.loc 4 203 0
 583 03a4 050055E3 		cmp	r5, #5
 584 03a8 030000DA 		ble	.L21
 207:C:/Renesas/e2studio_2021_01_workspace_RZA2M_ANPR/ANPR_RZA2M_EBK/src/tensorflow_lite/tensorflow/lite/kernels/internal\types.h **** #endif  // TF_LITE_STATIC_MEMORY
 585              		.loc 4 207 0
 586 03ac 24009DE5 		ldr	r0, [sp, #36]
 587 03b0 000050E3 		cmp	r0, #0
 588 03b4 0000000A 		beq	.L21
 589 03b8 FEFFFFEB 		bl	_ZdaPv
 590              	.LVL68:
 591              	.L21:
 592 03bc FEFFFFEB 		bl	__cxa_end_cleanup
 593              	.LVL69:
 594              	.LEHE2:
 595              	.L41:
 596              		.align	2
 597              	.L40:
 598 03c0 0000803D 		.word	1031798784
 599              	.LBE1579:
 600              	.LBE1578:
 601              	.LBE1581:
 602              	.LBE1583:
 603              	.LBE1586:
 604              	.LBE1589:
 605              		.cfi_endproc
 606              	.LFE4172:
 607              		.global	__gxx_personality_v0
 608              		.personality	__gxx_personality_v0
 609              		.handlerdata
 610              	.LLSDA4172:
 611 0008 FF       		.byte	0xff
 612 0009 FF       		.byte	0xff
 613 000a 01       		.byte	0x1
 614 000b 10       		.uleb128 .LLSDACSE4172-.LLSDACSB4172
 615              	.LLSDACSB4172:
 616 000c 6C       		.uleb128 .LEHB0-.LFB4172
 617 000d 8005     		.uleb128 .LEHE0-.LEHB0
 618 000f 00       		.uleb128 0
 619 0010 00       		.uleb128 0
 620 0011 9C07     		.uleb128 .LEHB1-.LFB4172
 621 0013 04       		.uleb128 .LEHE1-.LEHB1
 622 0014 A407     		.uleb128 .L28-.LFB4172
 623 0016 00       		.uleb128 0
 624 0017 A007     		.uleb128 .LEHB2-.LFB4172
 625 0019 20       		.uleb128 .LEHE2-.LEHB2
 626 001a 00       		.uleb128 0
 627 001b 00       		.uleb128 0
 628              	.LLSDACSE4172:
 629              		.section	.text._ZN6tflite12_GLOBAL__N_117LogSoftmaxPrepareEP13TfLiteContextP10TfLiteNode
 630              		.fnend
 632              		.section	.text._ZN6tflite20Register_LOG_SOFTMAXEv,"ax",%progbits
 633              		.align	2
 634              		.global	_ZN6tflite20Register_LOG_SOFTMAXEv
 635              		.syntax unified
 636              		.arm
 637              		.fpu neon
 639              	_ZN6tflite20Register_LOG_SOFTMAXEv:
 640              		.fnstart
 641              	.LFB4174:
  98:../src/tensorflow_lite/tensorflow/lite/micro/kernels/log_softmax.cc **** 
  99:../src/tensorflow_lite/tensorflow/lite/micro/kernels/log_softmax.cc **** TfLiteStatus LogSoftmaxEval(TfLiteContext* context, TfLiteNode* node) {
 100:../src/tensorflow_lite/tensorflow/lite/micro/kernels/log_softmax.cc ****   const LogSoftmaxOpData* data =
 101:../src/tensorflow_lite/tensorflow/lite/micro/kernels/log_softmax.cc ****       static_cast<LogSoftmaxOpData*>(node->user_data);
 102:../src/tensorflow_lite/tensorflow/lite/micro/kernels/log_softmax.cc ****   const TfLiteEvalTensor* input =
 103:../src/tensorflow_lite/tensorflow/lite/micro/kernels/log_softmax.cc ****       tflite::micro::GetEvalInput(context, node, kInputTensor);
 104:../src/tensorflow_lite/tensorflow/lite/micro/kernels/log_softmax.cc ****   TfLiteEvalTensor* output =
 105:../src/tensorflow_lite/tensorflow/lite/micro/kernels/log_softmax.cc ****       tflite::micro::GetEvalOutput(context, node, kOutputTensor);
 106:../src/tensorflow_lite/tensorflow/lite/micro/kernels/log_softmax.cc ****   switch (input->type) {
 107:../src/tensorflow_lite/tensorflow/lite/micro/kernels/log_softmax.cc ****     case kTfLiteFloat32: {
 108:../src/tensorflow_lite/tensorflow/lite/micro/kernels/log_softmax.cc ****       SoftmaxParams op_params = {};
 109:../src/tensorflow_lite/tensorflow/lite/micro/kernels/log_softmax.cc ****       reference_ops::LogSoftmax(op_params, tflite::micro::GetTensorShape(input),
 110:../src/tensorflow_lite/tensorflow/lite/micro/kernels/log_softmax.cc ****                                 tflite::micro::GetTensorData<float>(input),
 111:../src/tensorflow_lite/tensorflow/lite/micro/kernels/log_softmax.cc ****                                 tflite::micro::GetTensorShape(output),
 112:../src/tensorflow_lite/tensorflow/lite/micro/kernels/log_softmax.cc ****                                 tflite::micro::GetTensorData<float>(output));
 113:../src/tensorflow_lite/tensorflow/lite/micro/kernels/log_softmax.cc ****       return kTfLiteOk;
 114:../src/tensorflow_lite/tensorflow/lite/micro/kernels/log_softmax.cc ****     }
 115:../src/tensorflow_lite/tensorflow/lite/micro/kernels/log_softmax.cc ****     case kTfLiteInt8: {
 116:../src/tensorflow_lite/tensorflow/lite/micro/kernels/log_softmax.cc ****       SoftmaxParams op_params = {};
 117:../src/tensorflow_lite/tensorflow/lite/micro/kernels/log_softmax.cc ****       op_params.input_multiplier = data->input_multiplier;
 118:../src/tensorflow_lite/tensorflow/lite/micro/kernels/log_softmax.cc ****       op_params.input_left_shift = data->input_left_shift;
 119:../src/tensorflow_lite/tensorflow/lite/micro/kernels/log_softmax.cc ****       op_params.reverse_scaling_divisor = data->reverse_scaling_divisor;
 120:../src/tensorflow_lite/tensorflow/lite/micro/kernels/log_softmax.cc ****       op_params.reverse_scaling_right_shift = data->reverse_scaling_right_shift;
 121:../src/tensorflow_lite/tensorflow/lite/micro/kernels/log_softmax.cc ****       op_params.diff_min = data->diff_min;
 122:../src/tensorflow_lite/tensorflow/lite/micro/kernels/log_softmax.cc ****       reference_ops::LogSoftmax(op_params, data->outer_size, data->depth,
 123:../src/tensorflow_lite/tensorflow/lite/micro/kernels/log_softmax.cc ****                                 tflite::micro::GetTensorShape(input),
 124:../src/tensorflow_lite/tensorflow/lite/micro/kernels/log_softmax.cc ****                                 tflite::micro::GetTensorData<int8_t>(input),
 125:../src/tensorflow_lite/tensorflow/lite/micro/kernels/log_softmax.cc ****                                 tflite::micro::GetTensorShape(output),
 126:../src/tensorflow_lite/tensorflow/lite/micro/kernels/log_softmax.cc ****                                 tflite::micro::GetTensorData<int8_t>(output));
 127:../src/tensorflow_lite/tensorflow/lite/micro/kernels/log_softmax.cc ****       return kTfLiteOk;
 128:../src/tensorflow_lite/tensorflow/lite/micro/kernels/log_softmax.cc ****     }
 129:../src/tensorflow_lite/tensorflow/lite/micro/kernels/log_softmax.cc ****     default:
 130:../src/tensorflow_lite/tensorflow/lite/micro/kernels/log_softmax.cc ****       TF_LITE_KERNEL_LOG(context,
 131:../src/tensorflow_lite/tensorflow/lite/micro/kernels/log_softmax.cc ****                          "LOG_SOFTMAX only supports float32, int8, got %s.",
 132:../src/tensorflow_lite/tensorflow/lite/micro/kernels/log_softmax.cc ****                          TfLiteTypeGetName(input->type));
 133:../src/tensorflow_lite/tensorflow/lite/micro/kernels/log_softmax.cc ****       return kTfLiteError;
 134:../src/tensorflow_lite/tensorflow/lite/micro/kernels/log_softmax.cc ****   }
 135:../src/tensorflow_lite/tensorflow/lite/micro/kernels/log_softmax.cc **** }
 136:../src/tensorflow_lite/tensorflow/lite/micro/kernels/log_softmax.cc **** 
 137:../src/tensorflow_lite/tensorflow/lite/micro/kernels/log_softmax.cc **** }  // namespace
 138:../src/tensorflow_lite/tensorflow/lite/micro/kernels/log_softmax.cc **** 
 139:../src/tensorflow_lite/tensorflow/lite/micro/kernels/log_softmax.cc **** TfLiteRegistration Register_LOG_SOFTMAX() {
 642              		.loc 1 139 0
 643              		.cfi_startproc
 644              		@ args = 0, pretend = 0, frame = 0
 645              		@ frame_needed = 0, uses_anonymous_args = 0
 646              	.LVL70:
 140:../src/tensorflow_lite/tensorflow/lite/micro/kernels/log_softmax.cc ****   return {/*init=*/nullptr,
 141:../src/tensorflow_lite/tensorflow/lite/micro/kernels/log_softmax.cc ****           /*free=*/nullptr,
 142:../src/tensorflow_lite/tensorflow/lite/micro/kernels/log_softmax.cc ****           /*prepare=*/LogSoftmaxPrepare,
 143:../src/tensorflow_lite/tensorflow/lite/micro/kernels/log_softmax.cc ****           /*invoke=*/LogSoftmaxEval,
 144:../src/tensorflow_lite/tensorflow/lite/micro/kernels/log_softmax.cc ****           /*profiling_string=*/nullptr,
 145:../src/tensorflow_lite/tensorflow/lite/micro/kernels/log_softmax.cc ****           /*builtin_code=*/0,
 146:../src/tensorflow_lite/tensorflow/lite/micro/kernels/log_softmax.cc ****           /*custom_name=*/nullptr,
 147:../src/tensorflow_lite/tensorflow/lite/micro/kernels/log_softmax.cc ****           /*version=*/0};
 647              		.loc 1 147 0
 648 0000 00C000E3 		movw	ip, #:lower16:.LANCHOR0
 139:../src/tensorflow_lite/tensorflow/lite/micro/kernels/log_softmax.cc ****   return {/*init=*/nullptr,
 649              		.loc 1 139 0
 650 0004 10402DE9 		push	{r4, lr}
 651              		.cfi_def_cfa_offset 8
 652              		.cfi_offset 4, -8
 653              		.cfi_offset 14, -4
 654              		.loc 1 147 0
 655 0008 00C040E3 		movt	ip, #:upper16:.LANCHOR0
 139:../src/tensorflow_lite/tensorflow/lite/micro/kernels/log_softmax.cc ****   return {/*init=*/nullptr,
 656              		.loc 1 139 0
 657 000c 0040A0E1 		mov	r4, r0
 658              		.loc 1 147 0
 659 0010 00E0A0E1 		mov	lr, r0
 660 0014 0F00BCE8 		ldmia	ip!, {r0, r1, r2, r3}
 661              	.LVL71:
 662 0018 0F00AEE8 		stmia	lr!, {r0, r1, r2, r3}
 663 001c 0F009CE8 		ldm	ip, {r0, r1, r2, r3}
 664 0020 0F008EE8 		stm	lr, {r0, r1, r2, r3}
 148:../src/tensorflow_lite/tensorflow/lite/micro/kernels/log_softmax.cc **** }
 665              		.loc 1 148 0
 666 0024 0400A0E1 		mov	r0, r4
 667 0028 1080BDE8 		pop	{r4, pc}
 668              		.cfi_endproc
 669              	.LFE4174:
 670              		.cantunwind
 671              		.fnend
 673              		.section	.text._ZN8gemmlowp32one_over_one_plus_x_for_x_in_0_1IlEENS_10FixedPointIT_Li0EEES3_,"axG"
 674              		.align	2
 675              		.weak	_ZN8gemmlowp32one_over_one_plus_x_for_x_in_0_1IlEENS_10FixedPointIT_Li0EEES3_
 676              		.syntax unified
 677              		.arm
 678              		.fpu neon
 680              	_ZN8gemmlowp32one_over_one_plus_x_for_x_in_0_1IlEENS_10FixedPointIT_Li0EEES3_:
 681              		.fnstart
 682              	.LFB4342:
 683              		.file 5 "C:/Renesas/e2studio_2021_01_workspace_RZA2M_ANPR/ANPR_RZA2M_EBK/src/tensorflow_lite/third
   1:C:/Renesas/e2studio_2021_01_workspace_RZA2M_ANPR/ANPR_RZA2M_EBK/src/tensorflow_lite/third_party/gemmlowp/fixedpoint\fixedpoint.h **** // Copyright 2015 The Gemmlowp Authors. All Rights Reserved.
   2:C:/Renesas/e2studio_2021_01_workspace_RZA2M_ANPR/ANPR_RZA2M_EBK/src/tensorflow_lite/third_party/gemmlowp/fixedpoint\fixedpoint.h **** //
   3:C:/Renesas/e2studio_2021_01_workspace_RZA2M_ANPR/ANPR_RZA2M_EBK/src/tensorflow_lite/third_party/gemmlowp/fixedpoint\fixedpoint.h **** // Licensed under the Apache License, Version 2.0 (the "License");
   4:C:/Renesas/e2studio_2021_01_workspace_RZA2M_ANPR/ANPR_RZA2M_EBK/src/tensorflow_lite/third_party/gemmlowp/fixedpoint\fixedpoint.h **** // you may not use this file except in compliance with the License.
   5:C:/Renesas/e2studio_2021_01_workspace_RZA2M_ANPR/ANPR_RZA2M_EBK/src/tensorflow_lite/third_party/gemmlowp/fixedpoint\fixedpoint.h **** // You may obtain a copy of the License at
   6:C:/Renesas/e2studio_2021_01_workspace_RZA2M_ANPR/ANPR_RZA2M_EBK/src/tensorflow_lite/third_party/gemmlowp/fixedpoint\fixedpoint.h **** //
   7:C:/Renesas/e2studio_2021_01_workspace_RZA2M_ANPR/ANPR_RZA2M_EBK/src/tensorflow_lite/third_party/gemmlowp/fixedpoint\fixedpoint.h **** //     http://www.apache.org/licenses/LICENSE-2.0
   8:C:/Renesas/e2studio_2021_01_workspace_RZA2M_ANPR/ANPR_RZA2M_EBK/src/tensorflow_lite/third_party/gemmlowp/fixedpoint\fixedpoint.h **** //
   9:C:/Renesas/e2studio_2021_01_workspace_RZA2M_ANPR/ANPR_RZA2M_EBK/src/tensorflow_lite/third_party/gemmlowp/fixedpoint\fixedpoint.h **** // Unless required by applicable law or agreed to in writing, software
  10:C:/Renesas/e2studio_2021_01_workspace_RZA2M_ANPR/ANPR_RZA2M_EBK/src/tensorflow_lite/third_party/gemmlowp/fixedpoint\fixedpoint.h **** // distributed under the License is distributed on an "AS IS" BASIS,
  11:C:/Renesas/e2studio_2021_01_workspace_RZA2M_ANPR/ANPR_RZA2M_EBK/src/tensorflow_lite/third_party/gemmlowp/fixedpoint\fixedpoint.h **** // WITHOUT WARRANTIES OR CONDITIONS OF ANY KIND, either express or implied.
  12:C:/Renesas/e2studio_2021_01_workspace_RZA2M_ANPR/ANPR_RZA2M_EBK/src/tensorflow_lite/third_party/gemmlowp/fixedpoint\fixedpoint.h **** // See the License for the specific language governing permissions and
  13:C:/Renesas/e2studio_2021_01_workspace_RZA2M_ANPR/ANPR_RZA2M_EBK/src/tensorflow_lite/third_party/gemmlowp/fixedpoint\fixedpoint.h **** // limitations under the License.
  14:C:/Renesas/e2studio_2021_01_workspace_RZA2M_ANPR/ANPR_RZA2M_EBK/src/tensorflow_lite/third_party/gemmlowp/fixedpoint\fixedpoint.h **** 
  15:C:/Renesas/e2studio_2021_01_workspace_RZA2M_ANPR/ANPR_RZA2M_EBK/src/tensorflow_lite/third_party/gemmlowp/fixedpoint\fixedpoint.h **** // fixedpoint.h: fixed-point arithmetic, with basic operations and
  16:C:/Renesas/e2studio_2021_01_workspace_RZA2M_ANPR/ANPR_RZA2M_EBK/src/tensorflow_lite/third_party/gemmlowp/fixedpoint\fixedpoint.h **** // a few math functions such as tanh.
  17:C:/Renesas/e2studio_2021_01_workspace_RZA2M_ANPR/ANPR_RZA2M_EBK/src/tensorflow_lite/third_party/gemmlowp/fixedpoint\fixedpoint.h **** 
  18:C:/Renesas/e2studio_2021_01_workspace_RZA2M_ANPR/ANPR_RZA2M_EBK/src/tensorflow_lite/third_party/gemmlowp/fixedpoint\fixedpoint.h **** #ifndef GEMMLOWP_INTERNAL_FIXEDPOINT_H_
  19:C:/Renesas/e2studio_2021_01_workspace_RZA2M_ANPR/ANPR_RZA2M_EBK/src/tensorflow_lite/third_party/gemmlowp/fixedpoint\fixedpoint.h **** #define GEMMLOWP_INTERNAL_FIXEDPOINT_H_
  20:C:/Renesas/e2studio_2021_01_workspace_RZA2M_ANPR/ANPR_RZA2M_EBK/src/tensorflow_lite/third_party/gemmlowp/fixedpoint\fixedpoint.h **** 
  21:C:/Renesas/e2studio_2021_01_workspace_RZA2M_ANPR/ANPR_RZA2M_EBK/src/tensorflow_lite/third_party/gemmlowp/fixedpoint\fixedpoint.h **** #include <algorithm>
  22:C:/Renesas/e2studio_2021_01_workspace_RZA2M_ANPR/ANPR_RZA2M_EBK/src/tensorflow_lite/third_party/gemmlowp/fixedpoint\fixedpoint.h **** #include <cassert>
  23:C:/Renesas/e2studio_2021_01_workspace_RZA2M_ANPR/ANPR_RZA2M_EBK/src/tensorflow_lite/third_party/gemmlowp/fixedpoint\fixedpoint.h **** #include <cmath>
  24:C:/Renesas/e2studio_2021_01_workspace_RZA2M_ANPR/ANPR_RZA2M_EBK/src/tensorflow_lite/third_party/gemmlowp/fixedpoint\fixedpoint.h **** #include <cstdint>
  25:C:/Renesas/e2studio_2021_01_workspace_RZA2M_ANPR/ANPR_RZA2M_EBK/src/tensorflow_lite/third_party/gemmlowp/fixedpoint\fixedpoint.h **** #include <limits>
  26:C:/Renesas/e2studio_2021_01_workspace_RZA2M_ANPR/ANPR_RZA2M_EBK/src/tensorflow_lite/third_party/gemmlowp/fixedpoint\fixedpoint.h **** 
  27:C:/Renesas/e2studio_2021_01_workspace_RZA2M_ANPR/ANPR_RZA2M_EBK/src/tensorflow_lite/third_party/gemmlowp/fixedpoint\fixedpoint.h **** #include "../internal/detect_platform.h"
  28:C:/Renesas/e2studio_2021_01_workspace_RZA2M_ANPR/ANPR_RZA2M_EBK/src/tensorflow_lite/third_party/gemmlowp/fixedpoint\fixedpoint.h **** 
  29:C:/Renesas/e2studio_2021_01_workspace_RZA2M_ANPR/ANPR_RZA2M_EBK/src/tensorflow_lite/third_party/gemmlowp/fixedpoint\fixedpoint.h **** namespace gemmlowp {
  30:C:/Renesas/e2studio_2021_01_workspace_RZA2M_ANPR/ANPR_RZA2M_EBK/src/tensorflow_lite/third_party/gemmlowp/fixedpoint\fixedpoint.h **** 
  31:C:/Renesas/e2studio_2021_01_workspace_RZA2M_ANPR/ANPR_RZA2M_EBK/src/tensorflow_lite/third_party/gemmlowp/fixedpoint\fixedpoint.h **** // Part 1: Low-level integer-arithmetic primitives.
  32:C:/Renesas/e2studio_2021_01_workspace_RZA2M_ANPR/ANPR_RZA2M_EBK/src/tensorflow_lite/third_party/gemmlowp/fixedpoint\fixedpoint.h **** // The implementations here are generic implementations valid for
  33:C:/Renesas/e2studio_2021_01_workspace_RZA2M_ANPR/ANPR_RZA2M_EBK/src/tensorflow_lite/third_party/gemmlowp/fixedpoint\fixedpoint.h **** // scalar types (e.g. std::int32_t). Architecture-specific SIMD types
  34:C:/Renesas/e2studio_2021_01_workspace_RZA2M_ANPR/ANPR_RZA2M_EBK/src/tensorflow_lite/third_party/gemmlowp/fixedpoint\fixedpoint.h **** // (e.g. NEON int32x4_t) may be supported by providing
  35:C:/Renesas/e2studio_2021_01_workspace_RZA2M_ANPR/ANPR_RZA2M_EBK/src/tensorflow_lite/third_party/gemmlowp/fixedpoint\fixedpoint.h **** // specializations for them in separate files.
  36:C:/Renesas/e2studio_2021_01_workspace_RZA2M_ANPR/ANPR_RZA2M_EBK/src/tensorflow_lite/third_party/gemmlowp/fixedpoint\fixedpoint.h **** //
  37:C:/Renesas/e2studio_2021_01_workspace_RZA2M_ANPR/ANPR_RZA2M_EBK/src/tensorflow_lite/third_party/gemmlowp/fixedpoint\fixedpoint.h **** // The purpose of these primitives is two-fold:
  38:C:/Renesas/e2studio_2021_01_workspace_RZA2M_ANPR/ANPR_RZA2M_EBK/src/tensorflow_lite/third_party/gemmlowp/fixedpoint\fixedpoint.h **** //  - They will be used to implement higher-level fixed-point
  39:C:/Renesas/e2studio_2021_01_workspace_RZA2M_ANPR/ANPR_RZA2M_EBK/src/tensorflow_lite/third_party/gemmlowp/fixedpoint\fixedpoint.h **** //    abstractions, namely the FixedPoint class and its arithmetic
  40:C:/Renesas/e2studio_2021_01_workspace_RZA2M_ANPR/ANPR_RZA2M_EBK/src/tensorflow_lite/third_party/gemmlowp/fixedpoint\fixedpoint.h **** //    operators.
  41:C:/Renesas/e2studio_2021_01_workspace_RZA2M_ANPR/ANPR_RZA2M_EBK/src/tensorflow_lite/third_party/gemmlowp/fixedpoint\fixedpoint.h **** //  - They will be directly used to implement some more involved
  42:C:/Renesas/e2studio_2021_01_workspace_RZA2M_ANPR/ANPR_RZA2M_EBK/src/tensorflow_lite/third_party/gemmlowp/fixedpoint\fixedpoint.h **** //    fixed-point computations, e.g. the fixed-point implementation
  43:C:/Renesas/e2studio_2021_01_workspace_RZA2M_ANPR/ANPR_RZA2M_EBK/src/tensorflow_lite/third_party/gemmlowp/fixedpoint\fixedpoint.h **** //    of math functions such as tanh.
  44:C:/Renesas/e2studio_2021_01_workspace_RZA2M_ANPR/ANPR_RZA2M_EBK/src/tensorflow_lite/third_party/gemmlowp/fixedpoint\fixedpoint.h **** 
  45:C:/Renesas/e2studio_2021_01_workspace_RZA2M_ANPR/ANPR_RZA2M_EBK/src/tensorflow_lite/third_party/gemmlowp/fixedpoint\fixedpoint.h **** // Some compile-time traits around raw types to handle SIMD aspects:
  46:C:/Renesas/e2studio_2021_01_workspace_RZA2M_ANPR/ANPR_RZA2M_EBK/src/tensorflow_lite/third_party/gemmlowp/fixedpoint\fixedpoint.h **** // number of lanes, underlying scalar type.
  47:C:/Renesas/e2studio_2021_01_workspace_RZA2M_ANPR/ANPR_RZA2M_EBK/src/tensorflow_lite/third_party/gemmlowp/fixedpoint\fixedpoint.h **** template <typename tIntegerType>
  48:C:/Renesas/e2studio_2021_01_workspace_RZA2M_ANPR/ANPR_RZA2M_EBK/src/tensorflow_lite/third_party/gemmlowp/fixedpoint\fixedpoint.h **** struct FixedPointRawTypeTraits {};
  49:C:/Renesas/e2studio_2021_01_workspace_RZA2M_ANPR/ANPR_RZA2M_EBK/src/tensorflow_lite/third_party/gemmlowp/fixedpoint\fixedpoint.h **** 
  50:C:/Renesas/e2studio_2021_01_workspace_RZA2M_ANPR/ANPR_RZA2M_EBK/src/tensorflow_lite/third_party/gemmlowp/fixedpoint\fixedpoint.h **** template <>
  51:C:/Renesas/e2studio_2021_01_workspace_RZA2M_ANPR/ANPR_RZA2M_EBK/src/tensorflow_lite/third_party/gemmlowp/fixedpoint\fixedpoint.h **** struct FixedPointRawTypeTraits<std::int32_t> {
  52:C:/Renesas/e2studio_2021_01_workspace_RZA2M_ANPR/ANPR_RZA2M_EBK/src/tensorflow_lite/third_party/gemmlowp/fixedpoint\fixedpoint.h ****   typedef std::int32_t ScalarRawType;
  53:C:/Renesas/e2studio_2021_01_workspace_RZA2M_ANPR/ANPR_RZA2M_EBK/src/tensorflow_lite/third_party/gemmlowp/fixedpoint\fixedpoint.h ****   static constexpr int kLanes = 1;
  54:C:/Renesas/e2studio_2021_01_workspace_RZA2M_ANPR/ANPR_RZA2M_EBK/src/tensorflow_lite/third_party/gemmlowp/fixedpoint\fixedpoint.h **** };
  55:C:/Renesas/e2studio_2021_01_workspace_RZA2M_ANPR/ANPR_RZA2M_EBK/src/tensorflow_lite/third_party/gemmlowp/fixedpoint\fixedpoint.h **** 
  56:C:/Renesas/e2studio_2021_01_workspace_RZA2M_ANPR/ANPR_RZA2M_EBK/src/tensorflow_lite/third_party/gemmlowp/fixedpoint\fixedpoint.h **** template <>
  57:C:/Renesas/e2studio_2021_01_workspace_RZA2M_ANPR/ANPR_RZA2M_EBK/src/tensorflow_lite/third_party/gemmlowp/fixedpoint\fixedpoint.h **** struct FixedPointRawTypeTraits<std::int16_t> {
  58:C:/Renesas/e2studio_2021_01_workspace_RZA2M_ANPR/ANPR_RZA2M_EBK/src/tensorflow_lite/third_party/gemmlowp/fixedpoint\fixedpoint.h ****   typedef std::int16_t ScalarRawType;
  59:C:/Renesas/e2studio_2021_01_workspace_RZA2M_ANPR/ANPR_RZA2M_EBK/src/tensorflow_lite/third_party/gemmlowp/fixedpoint\fixedpoint.h ****   static constexpr int kLanes = 1;
  60:C:/Renesas/e2studio_2021_01_workspace_RZA2M_ANPR/ANPR_RZA2M_EBK/src/tensorflow_lite/third_party/gemmlowp/fixedpoint\fixedpoint.h **** };
  61:C:/Renesas/e2studio_2021_01_workspace_RZA2M_ANPR/ANPR_RZA2M_EBK/src/tensorflow_lite/third_party/gemmlowp/fixedpoint\fixedpoint.h **** 
  62:C:/Renesas/e2studio_2021_01_workspace_RZA2M_ANPR/ANPR_RZA2M_EBK/src/tensorflow_lite/third_party/gemmlowp/fixedpoint\fixedpoint.h **** // Returns a SIMD value duplicating a scalar value across all lanes.
  63:C:/Renesas/e2studio_2021_01_workspace_RZA2M_ANPR/ANPR_RZA2M_EBK/src/tensorflow_lite/third_party/gemmlowp/fixedpoint\fixedpoint.h **** template <typename tRawType>
  64:C:/Renesas/e2studio_2021_01_workspace_RZA2M_ANPR/ANPR_RZA2M_EBK/src/tensorflow_lite/third_party/gemmlowp/fixedpoint\fixedpoint.h **** tRawType Dup(typename FixedPointRawTypeTraits<tRawType>::ScalarRawType x) {
  65:C:/Renesas/e2studio_2021_01_workspace_RZA2M_ANPR/ANPR_RZA2M_EBK/src/tensorflow_lite/third_party/gemmlowp/fixedpoint\fixedpoint.h ****   return x;
  66:C:/Renesas/e2studio_2021_01_workspace_RZA2M_ANPR/ANPR_RZA2M_EBK/src/tensorflow_lite/third_party/gemmlowp/fixedpoint\fixedpoint.h **** }
  67:C:/Renesas/e2studio_2021_01_workspace_RZA2M_ANPR/ANPR_RZA2M_EBK/src/tensorflow_lite/third_party/gemmlowp/fixedpoint\fixedpoint.h **** 
  68:C:/Renesas/e2studio_2021_01_workspace_RZA2M_ANPR/ANPR_RZA2M_EBK/src/tensorflow_lite/third_party/gemmlowp/fixedpoint\fixedpoint.h **** // Plain bit-wise AND
  69:C:/Renesas/e2studio_2021_01_workspace_RZA2M_ANPR/ANPR_RZA2M_EBK/src/tensorflow_lite/third_party/gemmlowp/fixedpoint\fixedpoint.h **** template <typename tIntegerType>
  70:C:/Renesas/e2studio_2021_01_workspace_RZA2M_ANPR/ANPR_RZA2M_EBK/src/tensorflow_lite/third_party/gemmlowp/fixedpoint\fixedpoint.h **** tIntegerType BitAnd(tIntegerType a, tIntegerType b) {
  71:C:/Renesas/e2studio_2021_01_workspace_RZA2M_ANPR/ANPR_RZA2M_EBK/src/tensorflow_lite/third_party/gemmlowp/fixedpoint\fixedpoint.h ****   return a & b;
  72:C:/Renesas/e2studio_2021_01_workspace_RZA2M_ANPR/ANPR_RZA2M_EBK/src/tensorflow_lite/third_party/gemmlowp/fixedpoint\fixedpoint.h **** }
  73:C:/Renesas/e2studio_2021_01_workspace_RZA2M_ANPR/ANPR_RZA2M_EBK/src/tensorflow_lite/third_party/gemmlowp/fixedpoint\fixedpoint.h **** 
  74:C:/Renesas/e2studio_2021_01_workspace_RZA2M_ANPR/ANPR_RZA2M_EBK/src/tensorflow_lite/third_party/gemmlowp/fixedpoint\fixedpoint.h **** // Plain bit-wise OR
  75:C:/Renesas/e2studio_2021_01_workspace_RZA2M_ANPR/ANPR_RZA2M_EBK/src/tensorflow_lite/third_party/gemmlowp/fixedpoint\fixedpoint.h **** template <typename tIntegerType>
  76:C:/Renesas/e2studio_2021_01_workspace_RZA2M_ANPR/ANPR_RZA2M_EBK/src/tensorflow_lite/third_party/gemmlowp/fixedpoint\fixedpoint.h **** tIntegerType BitOr(tIntegerType a, tIntegerType b) {
  77:C:/Renesas/e2studio_2021_01_workspace_RZA2M_ANPR/ANPR_RZA2M_EBK/src/tensorflow_lite/third_party/gemmlowp/fixedpoint\fixedpoint.h ****   return a | b;
  78:C:/Renesas/e2studio_2021_01_workspace_RZA2M_ANPR/ANPR_RZA2M_EBK/src/tensorflow_lite/third_party/gemmlowp/fixedpoint\fixedpoint.h **** }
  79:C:/Renesas/e2studio_2021_01_workspace_RZA2M_ANPR/ANPR_RZA2M_EBK/src/tensorflow_lite/third_party/gemmlowp/fixedpoint\fixedpoint.h **** 
  80:C:/Renesas/e2studio_2021_01_workspace_RZA2M_ANPR/ANPR_RZA2M_EBK/src/tensorflow_lite/third_party/gemmlowp/fixedpoint\fixedpoint.h **** // Plain bit-wise XOR
  81:C:/Renesas/e2studio_2021_01_workspace_RZA2M_ANPR/ANPR_RZA2M_EBK/src/tensorflow_lite/third_party/gemmlowp/fixedpoint\fixedpoint.h **** template <typename tIntegerType>
  82:C:/Renesas/e2studio_2021_01_workspace_RZA2M_ANPR/ANPR_RZA2M_EBK/src/tensorflow_lite/third_party/gemmlowp/fixedpoint\fixedpoint.h **** tIntegerType BitXor(tIntegerType a, tIntegerType b) {
  83:C:/Renesas/e2studio_2021_01_workspace_RZA2M_ANPR/ANPR_RZA2M_EBK/src/tensorflow_lite/third_party/gemmlowp/fixedpoint\fixedpoint.h ****   return a ^ b;
  84:C:/Renesas/e2studio_2021_01_workspace_RZA2M_ANPR/ANPR_RZA2M_EBK/src/tensorflow_lite/third_party/gemmlowp/fixedpoint\fixedpoint.h **** }
  85:C:/Renesas/e2studio_2021_01_workspace_RZA2M_ANPR/ANPR_RZA2M_EBK/src/tensorflow_lite/third_party/gemmlowp/fixedpoint\fixedpoint.h **** 
  86:C:/Renesas/e2studio_2021_01_workspace_RZA2M_ANPR/ANPR_RZA2M_EBK/src/tensorflow_lite/third_party/gemmlowp/fixedpoint\fixedpoint.h **** // Plain bit-wise NOT
  87:C:/Renesas/e2studio_2021_01_workspace_RZA2M_ANPR/ANPR_RZA2M_EBK/src/tensorflow_lite/third_party/gemmlowp/fixedpoint\fixedpoint.h **** template <typename tIntegerType>
  88:C:/Renesas/e2studio_2021_01_workspace_RZA2M_ANPR/ANPR_RZA2M_EBK/src/tensorflow_lite/third_party/gemmlowp/fixedpoint\fixedpoint.h **** tIntegerType BitNot(tIntegerType a) {
  89:C:/Renesas/e2studio_2021_01_workspace_RZA2M_ANPR/ANPR_RZA2M_EBK/src/tensorflow_lite/third_party/gemmlowp/fixedpoint\fixedpoint.h ****   return ~a;
  90:C:/Renesas/e2studio_2021_01_workspace_RZA2M_ANPR/ANPR_RZA2M_EBK/src/tensorflow_lite/third_party/gemmlowp/fixedpoint\fixedpoint.h **** }
  91:C:/Renesas/e2studio_2021_01_workspace_RZA2M_ANPR/ANPR_RZA2M_EBK/src/tensorflow_lite/third_party/gemmlowp/fixedpoint\fixedpoint.h **** 
  92:C:/Renesas/e2studio_2021_01_workspace_RZA2M_ANPR/ANPR_RZA2M_EBK/src/tensorflow_lite/third_party/gemmlowp/fixedpoint\fixedpoint.h **** // Integer addition. Not saturating. Overflow is undefined behavior.
  93:C:/Renesas/e2studio_2021_01_workspace_RZA2M_ANPR/ANPR_RZA2M_EBK/src/tensorflow_lite/third_party/gemmlowp/fixedpoint\fixedpoint.h **** template <typename tIntegerType>
  94:C:/Renesas/e2studio_2021_01_workspace_RZA2M_ANPR/ANPR_RZA2M_EBK/src/tensorflow_lite/third_party/gemmlowp/fixedpoint\fixedpoint.h **** tIntegerType Add(tIntegerType a, tIntegerType b) {
  95:C:/Renesas/e2studio_2021_01_workspace_RZA2M_ANPR/ANPR_RZA2M_EBK/src/tensorflow_lite/third_party/gemmlowp/fixedpoint\fixedpoint.h ****   return a + b;
  96:C:/Renesas/e2studio_2021_01_workspace_RZA2M_ANPR/ANPR_RZA2M_EBK/src/tensorflow_lite/third_party/gemmlowp/fixedpoint\fixedpoint.h **** }
  97:C:/Renesas/e2studio_2021_01_workspace_RZA2M_ANPR/ANPR_RZA2M_EBK/src/tensorflow_lite/third_party/gemmlowp/fixedpoint\fixedpoint.h **** 
  98:C:/Renesas/e2studio_2021_01_workspace_RZA2M_ANPR/ANPR_RZA2M_EBK/src/tensorflow_lite/third_party/gemmlowp/fixedpoint\fixedpoint.h **** // Integer subtraction. Not saturating. Overflow is undefined behavior.
  99:C:/Renesas/e2studio_2021_01_workspace_RZA2M_ANPR/ANPR_RZA2M_EBK/src/tensorflow_lite/third_party/gemmlowp/fixedpoint\fixedpoint.h **** template <typename tIntegerType>
 100:C:/Renesas/e2studio_2021_01_workspace_RZA2M_ANPR/ANPR_RZA2M_EBK/src/tensorflow_lite/third_party/gemmlowp/fixedpoint\fixedpoint.h **** tIntegerType Mul(tIntegerType a, tIntegerType b) {
 101:C:/Renesas/e2studio_2021_01_workspace_RZA2M_ANPR/ANPR_RZA2M_EBK/src/tensorflow_lite/third_party/gemmlowp/fixedpoint\fixedpoint.h ****   return a * b;
 102:C:/Renesas/e2studio_2021_01_workspace_RZA2M_ANPR/ANPR_RZA2M_EBK/src/tensorflow_lite/third_party/gemmlowp/fixedpoint\fixedpoint.h **** }
 103:C:/Renesas/e2studio_2021_01_workspace_RZA2M_ANPR/ANPR_RZA2M_EBK/src/tensorflow_lite/third_party/gemmlowp/fixedpoint\fixedpoint.h **** 
 104:C:/Renesas/e2studio_2021_01_workspace_RZA2M_ANPR/ANPR_RZA2M_EBK/src/tensorflow_lite/third_party/gemmlowp/fixedpoint\fixedpoint.h **** template <typename tIntegerType>
 105:C:/Renesas/e2studio_2021_01_workspace_RZA2M_ANPR/ANPR_RZA2M_EBK/src/tensorflow_lite/third_party/gemmlowp/fixedpoint\fixedpoint.h **** tIntegerType Sub(tIntegerType a, tIntegerType b) {
 106:C:/Renesas/e2studio_2021_01_workspace_RZA2M_ANPR/ANPR_RZA2M_EBK/src/tensorflow_lite/third_party/gemmlowp/fixedpoint\fixedpoint.h ****   return a - b;
 107:C:/Renesas/e2studio_2021_01_workspace_RZA2M_ANPR/ANPR_RZA2M_EBK/src/tensorflow_lite/third_party/gemmlowp/fixedpoint\fixedpoint.h **** }
 108:C:/Renesas/e2studio_2021_01_workspace_RZA2M_ANPR/ANPR_RZA2M_EBK/src/tensorflow_lite/third_party/gemmlowp/fixedpoint\fixedpoint.h **** 
 109:C:/Renesas/e2studio_2021_01_workspace_RZA2M_ANPR/ANPR_RZA2M_EBK/src/tensorflow_lite/third_party/gemmlowp/fixedpoint\fixedpoint.h **** // Integer unary negative. Not saturating. Overflow is undefined behavior.
 110:C:/Renesas/e2studio_2021_01_workspace_RZA2M_ANPR/ANPR_RZA2M_EBK/src/tensorflow_lite/third_party/gemmlowp/fixedpoint\fixedpoint.h **** template <typename tIntegerType>
 111:C:/Renesas/e2studio_2021_01_workspace_RZA2M_ANPR/ANPR_RZA2M_EBK/src/tensorflow_lite/third_party/gemmlowp/fixedpoint\fixedpoint.h **** tIntegerType Neg(tIntegerType a) {
 112:C:/Renesas/e2studio_2021_01_workspace_RZA2M_ANPR/ANPR_RZA2M_EBK/src/tensorflow_lite/third_party/gemmlowp/fixedpoint\fixedpoint.h ****   return -a;
 113:C:/Renesas/e2studio_2021_01_workspace_RZA2M_ANPR/ANPR_RZA2M_EBK/src/tensorflow_lite/third_party/gemmlowp/fixedpoint\fixedpoint.h **** }
 114:C:/Renesas/e2studio_2021_01_workspace_RZA2M_ANPR/ANPR_RZA2M_EBK/src/tensorflow_lite/third_party/gemmlowp/fixedpoint\fixedpoint.h **** 
 115:C:/Renesas/e2studio_2021_01_workspace_RZA2M_ANPR/ANPR_RZA2M_EBK/src/tensorflow_lite/third_party/gemmlowp/fixedpoint\fixedpoint.h **** // Integer arithmetic left-shift, equivalent to multiplying with a power of two.
 116:C:/Renesas/e2studio_2021_01_workspace_RZA2M_ANPR/ANPR_RZA2M_EBK/src/tensorflow_lite/third_party/gemmlowp/fixedpoint\fixedpoint.h **** // Negative values are OK. In case of overflow, no Undefined
 117:C:/Renesas/e2studio_2021_01_workspace_RZA2M_ANPR/ANPR_RZA2M_EBK/src/tensorflow_lite/third_party/gemmlowp/fixedpoint\fixedpoint.h **** // Behavior, but the results are implementation-defined (in practice,
 118:C:/Renesas/e2studio_2021_01_workspace_RZA2M_ANPR/ANPR_RZA2M_EBK/src/tensorflow_lite/third_party/gemmlowp/fixedpoint\fixedpoint.h **** // they currently are saturated, but we make no commitment to that). The idea
 119:C:/Renesas/e2studio_2021_01_workspace_RZA2M_ANPR/ANPR_RZA2M_EBK/src/tensorflow_lite/third_party/gemmlowp/fixedpoint\fixedpoint.h **** // is that the caller will want to implement the overflowing cases with
 120:C:/Renesas/e2studio_2021_01_workspace_RZA2M_ANPR/ANPR_RZA2M_EBK/src/tensorflow_lite/third_party/gemmlowp/fixedpoint\fixedpoint.h **** // saturation with compare-and-mask, so we don't care about the results
 121:C:/Renesas/e2studio_2021_01_workspace_RZA2M_ANPR/ANPR_RZA2M_EBK/src/tensorflow_lite/third_party/gemmlowp/fixedpoint\fixedpoint.h **** // in the overflow case, we just want to avoid undefined behavior.
 122:C:/Renesas/e2studio_2021_01_workspace_RZA2M_ANPR/ANPR_RZA2M_EBK/src/tensorflow_lite/third_party/gemmlowp/fixedpoint\fixedpoint.h **** //
 123:C:/Renesas/e2studio_2021_01_workspace_RZA2M_ANPR/ANPR_RZA2M_EBK/src/tensorflow_lite/third_party/gemmlowp/fixedpoint\fixedpoint.h **** // tIntegerType may be int32 or any narrower signed type.
 124:C:/Renesas/e2studio_2021_01_workspace_RZA2M_ANPR/ANPR_RZA2M_EBK/src/tensorflow_lite/third_party/gemmlowp/fixedpoint\fixedpoint.h **** template <typename tIntegerType>
 125:C:/Renesas/e2studio_2021_01_workspace_RZA2M_ANPR/ANPR_RZA2M_EBK/src/tensorflow_lite/third_party/gemmlowp/fixedpoint\fixedpoint.h **** tIntegerType ShiftLeft(tIntegerType a, int offset) {
 126:C:/Renesas/e2studio_2021_01_workspace_RZA2M_ANPR/ANPR_RZA2M_EBK/src/tensorflow_lite/third_party/gemmlowp/fixedpoint\fixedpoint.h ****   const std::int64_t wide_a = static_cast<std::int64_t>(a);
 127:C:/Renesas/e2studio_2021_01_workspace_RZA2M_ANPR/ANPR_RZA2M_EBK/src/tensorflow_lite/third_party/gemmlowp/fixedpoint\fixedpoint.h ****   const std::int64_t wide_shifted = wide_a * (1 << offset);
 128:C:/Renesas/e2studio_2021_01_workspace_RZA2M_ANPR/ANPR_RZA2M_EBK/src/tensorflow_lite/third_party/gemmlowp/fixedpoint\fixedpoint.h ****   const auto min = std::numeric_limits<tIntegerType>::min();
 129:C:/Renesas/e2studio_2021_01_workspace_RZA2M_ANPR/ANPR_RZA2M_EBK/src/tensorflow_lite/third_party/gemmlowp/fixedpoint\fixedpoint.h ****   const auto max = std::numeric_limits<tIntegerType>::max();
 130:C:/Renesas/e2studio_2021_01_workspace_RZA2M_ANPR/ANPR_RZA2M_EBK/src/tensorflow_lite/third_party/gemmlowp/fixedpoint\fixedpoint.h ****   return wide_shifted < min
 131:C:/Renesas/e2studio_2021_01_workspace_RZA2M_ANPR/ANPR_RZA2M_EBK/src/tensorflow_lite/third_party/gemmlowp/fixedpoint\fixedpoint.h ****              ? min
 132:C:/Renesas/e2studio_2021_01_workspace_RZA2M_ANPR/ANPR_RZA2M_EBK/src/tensorflow_lite/third_party/gemmlowp/fixedpoint\fixedpoint.h ****              : wide_shifted > max ? max
 133:C:/Renesas/e2studio_2021_01_workspace_RZA2M_ANPR/ANPR_RZA2M_EBK/src/tensorflow_lite/third_party/gemmlowp/fixedpoint\fixedpoint.h ****                                   : static_cast<tIntegerType>(wide_shifted);
 134:C:/Renesas/e2studio_2021_01_workspace_RZA2M_ANPR/ANPR_RZA2M_EBK/src/tensorflow_lite/third_party/gemmlowp/fixedpoint\fixedpoint.h **** }
 135:C:/Renesas/e2studio_2021_01_workspace_RZA2M_ANPR/ANPR_RZA2M_EBK/src/tensorflow_lite/third_party/gemmlowp/fixedpoint\fixedpoint.h **** 
 136:C:/Renesas/e2studio_2021_01_workspace_RZA2M_ANPR/ANPR_RZA2M_EBK/src/tensorflow_lite/third_party/gemmlowp/fixedpoint\fixedpoint.h **** // Integer arithmetic right-shift. Not rounding.
 137:C:/Renesas/e2studio_2021_01_workspace_RZA2M_ANPR/ANPR_RZA2M_EBK/src/tensorflow_lite/third_party/gemmlowp/fixedpoint\fixedpoint.h **** // Relying on implementation-defined, but in-practice-consistent,
 138:C:/Renesas/e2studio_2021_01_workspace_RZA2M_ANPR/ANPR_RZA2M_EBK/src/tensorflow_lite/third_party/gemmlowp/fixedpoint\fixedpoint.h **** // C++ compiler behavior.
 139:C:/Renesas/e2studio_2021_01_workspace_RZA2M_ANPR/ANPR_RZA2M_EBK/src/tensorflow_lite/third_party/gemmlowp/fixedpoint\fixedpoint.h **** template <typename tIntegerType>
 140:C:/Renesas/e2studio_2021_01_workspace_RZA2M_ANPR/ANPR_RZA2M_EBK/src/tensorflow_lite/third_party/gemmlowp/fixedpoint\fixedpoint.h **** tIntegerType ShiftRight(tIntegerType a, int offset) {
 141:C:/Renesas/e2studio_2021_01_workspace_RZA2M_ANPR/ANPR_RZA2M_EBK/src/tensorflow_lite/third_party/gemmlowp/fixedpoint\fixedpoint.h ****   return a >> offset;
 142:C:/Renesas/e2studio_2021_01_workspace_RZA2M_ANPR/ANPR_RZA2M_EBK/src/tensorflow_lite/third_party/gemmlowp/fixedpoint\fixedpoint.h **** }
 143:C:/Renesas/e2studio_2021_01_workspace_RZA2M_ANPR/ANPR_RZA2M_EBK/src/tensorflow_lite/third_party/gemmlowp/fixedpoint\fixedpoint.h **** 
 144:C:/Renesas/e2studio_2021_01_workspace_RZA2M_ANPR/ANPR_RZA2M_EBK/src/tensorflow_lite/third_party/gemmlowp/fixedpoint\fixedpoint.h **** // Each bit of the result is set to the corresponding bit of either then_val or
 145:C:/Renesas/e2studio_2021_01_workspace_RZA2M_ANPR/ANPR_RZA2M_EBK/src/tensorflow_lite/third_party/gemmlowp/fixedpoint\fixedpoint.h **** // else_val depending on whether the corresponding bit of if_mask is set.
 146:C:/Renesas/e2studio_2021_01_workspace_RZA2M_ANPR/ANPR_RZA2M_EBK/src/tensorflow_lite/third_party/gemmlowp/fixedpoint\fixedpoint.h **** // Equivalent to the VBSL instruction in ARM NEON.
 147:C:/Renesas/e2studio_2021_01_workspace_RZA2M_ANPR/ANPR_RZA2M_EBK/src/tensorflow_lite/third_party/gemmlowp/fixedpoint\fixedpoint.h **** template <typename tIntegerType>
 148:C:/Renesas/e2studio_2021_01_workspace_RZA2M_ANPR/ANPR_RZA2M_EBK/src/tensorflow_lite/third_party/gemmlowp/fixedpoint\fixedpoint.h **** tIntegerType SelectUsingMask(tIntegerType if_mask, tIntegerType then_val,
 149:C:/Renesas/e2studio_2021_01_workspace_RZA2M_ANPR/ANPR_RZA2M_EBK/src/tensorflow_lite/third_party/gemmlowp/fixedpoint\fixedpoint.h ****                              tIntegerType else_val) {
 150:C:/Renesas/e2studio_2021_01_workspace_RZA2M_ANPR/ANPR_RZA2M_EBK/src/tensorflow_lite/third_party/gemmlowp/fixedpoint\fixedpoint.h ****   return BitXor(BitAnd(if_mask, then_val), BitAnd(BitNot(if_mask), else_val));
 151:C:/Renesas/e2studio_2021_01_workspace_RZA2M_ANPR/ANPR_RZA2M_EBK/src/tensorflow_lite/third_party/gemmlowp/fixedpoint\fixedpoint.h **** }
 152:C:/Renesas/e2studio_2021_01_workspace_RZA2M_ANPR/ANPR_RZA2M_EBK/src/tensorflow_lite/third_party/gemmlowp/fixedpoint\fixedpoint.h **** 
 153:C:/Renesas/e2studio_2021_01_workspace_RZA2M_ANPR/ANPR_RZA2M_EBK/src/tensorflow_lite/third_party/gemmlowp/fixedpoint\fixedpoint.h **** // For each input scalar, the corresponding bits of the result are set if the
 154:C:/Renesas/e2studio_2021_01_workspace_RZA2M_ANPR/ANPR_RZA2M_EBK/src/tensorflow_lite/third_party/gemmlowp/fixedpoint\fixedpoint.h **** // input scalar is non-zero.
 155:C:/Renesas/e2studio_2021_01_workspace_RZA2M_ANPR/ANPR_RZA2M_EBK/src/tensorflow_lite/third_party/gemmlowp/fixedpoint\fixedpoint.h **** template <typename tIntegerType>
 156:C:/Renesas/e2studio_2021_01_workspace_RZA2M_ANPR/ANPR_RZA2M_EBK/src/tensorflow_lite/third_party/gemmlowp/fixedpoint\fixedpoint.h **** tIntegerType MaskIfNonZero(tIntegerType a) {
 157:C:/Renesas/e2studio_2021_01_workspace_RZA2M_ANPR/ANPR_RZA2M_EBK/src/tensorflow_lite/third_party/gemmlowp/fixedpoint\fixedpoint.h ****   static constexpr tIntegerType zero = 0;
 158:C:/Renesas/e2studio_2021_01_workspace_RZA2M_ANPR/ANPR_RZA2M_EBK/src/tensorflow_lite/third_party/gemmlowp/fixedpoint\fixedpoint.h ****   return a ? BitNot(zero) : zero;
 159:C:/Renesas/e2studio_2021_01_workspace_RZA2M_ANPR/ANPR_RZA2M_EBK/src/tensorflow_lite/third_party/gemmlowp/fixedpoint\fixedpoint.h **** }
 160:C:/Renesas/e2studio_2021_01_workspace_RZA2M_ANPR/ANPR_RZA2M_EBK/src/tensorflow_lite/third_party/gemmlowp/fixedpoint\fixedpoint.h **** 
 161:C:/Renesas/e2studio_2021_01_workspace_RZA2M_ANPR/ANPR_RZA2M_EBK/src/tensorflow_lite/third_party/gemmlowp/fixedpoint\fixedpoint.h **** // For each input scalar, the corresponding bits of the result are set if the
 162:C:/Renesas/e2studio_2021_01_workspace_RZA2M_ANPR/ANPR_RZA2M_EBK/src/tensorflow_lite/third_party/gemmlowp/fixedpoint\fixedpoint.h **** // input scalar is zero.
 163:C:/Renesas/e2studio_2021_01_workspace_RZA2M_ANPR/ANPR_RZA2M_EBK/src/tensorflow_lite/third_party/gemmlowp/fixedpoint\fixedpoint.h **** template <typename tIntegerType>
 164:C:/Renesas/e2studio_2021_01_workspace_RZA2M_ANPR/ANPR_RZA2M_EBK/src/tensorflow_lite/third_party/gemmlowp/fixedpoint\fixedpoint.h **** tIntegerType MaskIfZero(tIntegerType a) {
 165:C:/Renesas/e2studio_2021_01_workspace_RZA2M_ANPR/ANPR_RZA2M_EBK/src/tensorflow_lite/third_party/gemmlowp/fixedpoint\fixedpoint.h ****   return MaskIfNonZero<tIntegerType>(!a);
 166:C:/Renesas/e2studio_2021_01_workspace_RZA2M_ANPR/ANPR_RZA2M_EBK/src/tensorflow_lite/third_party/gemmlowp/fixedpoint\fixedpoint.h **** }
 167:C:/Renesas/e2studio_2021_01_workspace_RZA2M_ANPR/ANPR_RZA2M_EBK/src/tensorflow_lite/third_party/gemmlowp/fixedpoint\fixedpoint.h **** 
 168:C:/Renesas/e2studio_2021_01_workspace_RZA2M_ANPR/ANPR_RZA2M_EBK/src/tensorflow_lite/third_party/gemmlowp/fixedpoint\fixedpoint.h **** // For each pair of input scalars, the corresponding bits of the result are
 169:C:/Renesas/e2studio_2021_01_workspace_RZA2M_ANPR/ANPR_RZA2M_EBK/src/tensorflow_lite/third_party/gemmlowp/fixedpoint\fixedpoint.h **** // set if the input scalars are equal.
 170:C:/Renesas/e2studio_2021_01_workspace_RZA2M_ANPR/ANPR_RZA2M_EBK/src/tensorflow_lite/third_party/gemmlowp/fixedpoint\fixedpoint.h **** template <typename tIntegerType>
 171:C:/Renesas/e2studio_2021_01_workspace_RZA2M_ANPR/ANPR_RZA2M_EBK/src/tensorflow_lite/third_party/gemmlowp/fixedpoint\fixedpoint.h **** tIntegerType MaskIfEqual(tIntegerType a, tIntegerType b) {
 172:C:/Renesas/e2studio_2021_01_workspace_RZA2M_ANPR/ANPR_RZA2M_EBK/src/tensorflow_lite/third_party/gemmlowp/fixedpoint\fixedpoint.h ****   return MaskIfNonZero<tIntegerType>(a == b);
 173:C:/Renesas/e2studio_2021_01_workspace_RZA2M_ANPR/ANPR_RZA2M_EBK/src/tensorflow_lite/third_party/gemmlowp/fixedpoint\fixedpoint.h **** }
 174:C:/Renesas/e2studio_2021_01_workspace_RZA2M_ANPR/ANPR_RZA2M_EBK/src/tensorflow_lite/third_party/gemmlowp/fixedpoint\fixedpoint.h **** 
 175:C:/Renesas/e2studio_2021_01_workspace_RZA2M_ANPR/ANPR_RZA2M_EBK/src/tensorflow_lite/third_party/gemmlowp/fixedpoint\fixedpoint.h **** // For each pair of input scalars, the corresponding bits of the result are
 176:C:/Renesas/e2studio_2021_01_workspace_RZA2M_ANPR/ANPR_RZA2M_EBK/src/tensorflow_lite/third_party/gemmlowp/fixedpoint\fixedpoint.h **** // set if the input scalars are not equal.
 177:C:/Renesas/e2studio_2021_01_workspace_RZA2M_ANPR/ANPR_RZA2M_EBK/src/tensorflow_lite/third_party/gemmlowp/fixedpoint\fixedpoint.h **** template <typename tIntegerType>
 178:C:/Renesas/e2studio_2021_01_workspace_RZA2M_ANPR/ANPR_RZA2M_EBK/src/tensorflow_lite/third_party/gemmlowp/fixedpoint\fixedpoint.h **** tIntegerType MaskIfNotEqual(tIntegerType a, tIntegerType b) {
 179:C:/Renesas/e2studio_2021_01_workspace_RZA2M_ANPR/ANPR_RZA2M_EBK/src/tensorflow_lite/third_party/gemmlowp/fixedpoint\fixedpoint.h ****   return MaskIfNonZero<tIntegerType>(a != b);
 180:C:/Renesas/e2studio_2021_01_workspace_RZA2M_ANPR/ANPR_RZA2M_EBK/src/tensorflow_lite/third_party/gemmlowp/fixedpoint\fixedpoint.h **** }
 181:C:/Renesas/e2studio_2021_01_workspace_RZA2M_ANPR/ANPR_RZA2M_EBK/src/tensorflow_lite/third_party/gemmlowp/fixedpoint\fixedpoint.h **** 
 182:C:/Renesas/e2studio_2021_01_workspace_RZA2M_ANPR/ANPR_RZA2M_EBK/src/tensorflow_lite/third_party/gemmlowp/fixedpoint\fixedpoint.h **** // For each pair of input scalars, the corresponding bits of the result are
 183:C:/Renesas/e2studio_2021_01_workspace_RZA2M_ANPR/ANPR_RZA2M_EBK/src/tensorflow_lite/third_party/gemmlowp/fixedpoint\fixedpoint.h **** // set if the input scalars a, b satisfy a > b.
 184:C:/Renesas/e2studio_2021_01_workspace_RZA2M_ANPR/ANPR_RZA2M_EBK/src/tensorflow_lite/third_party/gemmlowp/fixedpoint\fixedpoint.h **** template <typename tIntegerType>
 185:C:/Renesas/e2studio_2021_01_workspace_RZA2M_ANPR/ANPR_RZA2M_EBK/src/tensorflow_lite/third_party/gemmlowp/fixedpoint\fixedpoint.h **** tIntegerType MaskIfGreaterThan(tIntegerType a, tIntegerType b) {
 186:C:/Renesas/e2studio_2021_01_workspace_RZA2M_ANPR/ANPR_RZA2M_EBK/src/tensorflow_lite/third_party/gemmlowp/fixedpoint\fixedpoint.h ****   return MaskIfNonZero<tIntegerType>(a > b);
 187:C:/Renesas/e2studio_2021_01_workspace_RZA2M_ANPR/ANPR_RZA2M_EBK/src/tensorflow_lite/third_party/gemmlowp/fixedpoint\fixedpoint.h **** }
 188:C:/Renesas/e2studio_2021_01_workspace_RZA2M_ANPR/ANPR_RZA2M_EBK/src/tensorflow_lite/third_party/gemmlowp/fixedpoint\fixedpoint.h **** 
 189:C:/Renesas/e2studio_2021_01_workspace_RZA2M_ANPR/ANPR_RZA2M_EBK/src/tensorflow_lite/third_party/gemmlowp/fixedpoint\fixedpoint.h **** // For each pair of input scalars, the corresponding bits of the result are
 190:C:/Renesas/e2studio_2021_01_workspace_RZA2M_ANPR/ANPR_RZA2M_EBK/src/tensorflow_lite/third_party/gemmlowp/fixedpoint\fixedpoint.h **** // set if the input scalars a, b satisfy a >= b.
 191:C:/Renesas/e2studio_2021_01_workspace_RZA2M_ANPR/ANPR_RZA2M_EBK/src/tensorflow_lite/third_party/gemmlowp/fixedpoint\fixedpoint.h **** template <typename tIntegerType>
 192:C:/Renesas/e2studio_2021_01_workspace_RZA2M_ANPR/ANPR_RZA2M_EBK/src/tensorflow_lite/third_party/gemmlowp/fixedpoint\fixedpoint.h **** tIntegerType MaskIfGreaterThanOrEqual(tIntegerType a, tIntegerType b) {
 193:C:/Renesas/e2studio_2021_01_workspace_RZA2M_ANPR/ANPR_RZA2M_EBK/src/tensorflow_lite/third_party/gemmlowp/fixedpoint\fixedpoint.h ****   return MaskIfNonZero<tIntegerType>(a >= b);
 194:C:/Renesas/e2studio_2021_01_workspace_RZA2M_ANPR/ANPR_RZA2M_EBK/src/tensorflow_lite/third_party/gemmlowp/fixedpoint\fixedpoint.h **** }
 195:C:/Renesas/e2studio_2021_01_workspace_RZA2M_ANPR/ANPR_RZA2M_EBK/src/tensorflow_lite/third_party/gemmlowp/fixedpoint\fixedpoint.h **** 
 196:C:/Renesas/e2studio_2021_01_workspace_RZA2M_ANPR/ANPR_RZA2M_EBK/src/tensorflow_lite/third_party/gemmlowp/fixedpoint\fixedpoint.h **** // For each pair of input scalars, the corresponding bits of the result are
 197:C:/Renesas/e2studio_2021_01_workspace_RZA2M_ANPR/ANPR_RZA2M_EBK/src/tensorflow_lite/third_party/gemmlowp/fixedpoint\fixedpoint.h **** // set if the input scalars a, b satisfy a < b.
 198:C:/Renesas/e2studio_2021_01_workspace_RZA2M_ANPR/ANPR_RZA2M_EBK/src/tensorflow_lite/third_party/gemmlowp/fixedpoint\fixedpoint.h **** template <typename tIntegerType>
 199:C:/Renesas/e2studio_2021_01_workspace_RZA2M_ANPR/ANPR_RZA2M_EBK/src/tensorflow_lite/third_party/gemmlowp/fixedpoint\fixedpoint.h **** tIntegerType MaskIfLessThan(tIntegerType a, tIntegerType b) {
 200:C:/Renesas/e2studio_2021_01_workspace_RZA2M_ANPR/ANPR_RZA2M_EBK/src/tensorflow_lite/third_party/gemmlowp/fixedpoint\fixedpoint.h ****   return MaskIfNonZero<tIntegerType>(a < b);
 201:C:/Renesas/e2studio_2021_01_workspace_RZA2M_ANPR/ANPR_RZA2M_EBK/src/tensorflow_lite/third_party/gemmlowp/fixedpoint\fixedpoint.h **** }
 202:C:/Renesas/e2studio_2021_01_workspace_RZA2M_ANPR/ANPR_RZA2M_EBK/src/tensorflow_lite/third_party/gemmlowp/fixedpoint\fixedpoint.h **** 
 203:C:/Renesas/e2studio_2021_01_workspace_RZA2M_ANPR/ANPR_RZA2M_EBK/src/tensorflow_lite/third_party/gemmlowp/fixedpoint\fixedpoint.h **** // For each pair of input scalars, the corresponding bits of the result are
 204:C:/Renesas/e2studio_2021_01_workspace_RZA2M_ANPR/ANPR_RZA2M_EBK/src/tensorflow_lite/third_party/gemmlowp/fixedpoint\fixedpoint.h **** // set if the input scalars a, b satisfy a <= b.
 205:C:/Renesas/e2studio_2021_01_workspace_RZA2M_ANPR/ANPR_RZA2M_EBK/src/tensorflow_lite/third_party/gemmlowp/fixedpoint\fixedpoint.h **** template <typename tIntegerType>
 206:C:/Renesas/e2studio_2021_01_workspace_RZA2M_ANPR/ANPR_RZA2M_EBK/src/tensorflow_lite/third_party/gemmlowp/fixedpoint\fixedpoint.h **** tIntegerType MaskIfLessThanOrEqual(tIntegerType a, tIntegerType b) {
 207:C:/Renesas/e2studio_2021_01_workspace_RZA2M_ANPR/ANPR_RZA2M_EBK/src/tensorflow_lite/third_party/gemmlowp/fixedpoint\fixedpoint.h ****   return MaskIfNonZero<tIntegerType>(a <= b);
 208:C:/Renesas/e2studio_2021_01_workspace_RZA2M_ANPR/ANPR_RZA2M_EBK/src/tensorflow_lite/third_party/gemmlowp/fixedpoint\fixedpoint.h **** }
 209:C:/Renesas/e2studio_2021_01_workspace_RZA2M_ANPR/ANPR_RZA2M_EBK/src/tensorflow_lite/third_party/gemmlowp/fixedpoint\fixedpoint.h **** 
 210:C:/Renesas/e2studio_2021_01_workspace_RZA2M_ANPR/ANPR_RZA2M_EBK/src/tensorflow_lite/third_party/gemmlowp/fixedpoint\fixedpoint.h **** // Returns true if all of the input scalars are nonzero.
 211:C:/Renesas/e2studio_2021_01_workspace_RZA2M_ANPR/ANPR_RZA2M_EBK/src/tensorflow_lite/third_party/gemmlowp/fixedpoint\fixedpoint.h **** // This function may currently assume that each of the input scalars has either
 212:C:/Renesas/e2studio_2021_01_workspace_RZA2M_ANPR/ANPR_RZA2M_EBK/src/tensorflow_lite/third_party/gemmlowp/fixedpoint\fixedpoint.h **** // all or none of its bits set. Otherwise, its behavior is currently undefined.
 213:C:/Renesas/e2studio_2021_01_workspace_RZA2M_ANPR/ANPR_RZA2M_EBK/src/tensorflow_lite/third_party/gemmlowp/fixedpoint\fixedpoint.h **** template <typename tIntegerType>
 214:C:/Renesas/e2studio_2021_01_workspace_RZA2M_ANPR/ANPR_RZA2M_EBK/src/tensorflow_lite/third_party/gemmlowp/fixedpoint\fixedpoint.h **** bool All(tIntegerType a) {
 215:C:/Renesas/e2studio_2021_01_workspace_RZA2M_ANPR/ANPR_RZA2M_EBK/src/tensorflow_lite/third_party/gemmlowp/fixedpoint\fixedpoint.h ****   return a;
 216:C:/Renesas/e2studio_2021_01_workspace_RZA2M_ANPR/ANPR_RZA2M_EBK/src/tensorflow_lite/third_party/gemmlowp/fixedpoint\fixedpoint.h **** }
 217:C:/Renesas/e2studio_2021_01_workspace_RZA2M_ANPR/ANPR_RZA2M_EBK/src/tensorflow_lite/third_party/gemmlowp/fixedpoint\fixedpoint.h **** 
 218:C:/Renesas/e2studio_2021_01_workspace_RZA2M_ANPR/ANPR_RZA2M_EBK/src/tensorflow_lite/third_party/gemmlowp/fixedpoint\fixedpoint.h **** // Returns true if any of the input scalars are nonzero.
 219:C:/Renesas/e2studio_2021_01_workspace_RZA2M_ANPR/ANPR_RZA2M_EBK/src/tensorflow_lite/third_party/gemmlowp/fixedpoint\fixedpoint.h **** // This function may currently assume that each of the input scalars has either
 220:C:/Renesas/e2studio_2021_01_workspace_RZA2M_ANPR/ANPR_RZA2M_EBK/src/tensorflow_lite/third_party/gemmlowp/fixedpoint\fixedpoint.h **** // all or none of its bits set. Otherwise, its behavior is currently undefined.
 221:C:/Renesas/e2studio_2021_01_workspace_RZA2M_ANPR/ANPR_RZA2M_EBK/src/tensorflow_lite/third_party/gemmlowp/fixedpoint\fixedpoint.h **** template <typename tIntegerType>
 222:C:/Renesas/e2studio_2021_01_workspace_RZA2M_ANPR/ANPR_RZA2M_EBK/src/tensorflow_lite/third_party/gemmlowp/fixedpoint\fixedpoint.h **** bool Any(tIntegerType a) {
 223:C:/Renesas/e2studio_2021_01_workspace_RZA2M_ANPR/ANPR_RZA2M_EBK/src/tensorflow_lite/third_party/gemmlowp/fixedpoint\fixedpoint.h ****   return a;
 224:C:/Renesas/e2studio_2021_01_workspace_RZA2M_ANPR/ANPR_RZA2M_EBK/src/tensorflow_lite/third_party/gemmlowp/fixedpoint\fixedpoint.h **** }
 225:C:/Renesas/e2studio_2021_01_workspace_RZA2M_ANPR/ANPR_RZA2M_EBK/src/tensorflow_lite/third_party/gemmlowp/fixedpoint\fixedpoint.h **** 
 226:C:/Renesas/e2studio_2021_01_workspace_RZA2M_ANPR/ANPR_RZA2M_EBK/src/tensorflow_lite/third_party/gemmlowp/fixedpoint\fixedpoint.h **** // Returns (a+b)/2, rounded to the nearest integer.
 227:C:/Renesas/e2studio_2021_01_workspace_RZA2M_ANPR/ANPR_RZA2M_EBK/src/tensorflow_lite/third_party/gemmlowp/fixedpoint\fixedpoint.h **** // Equivalent to VRHADD in the ARM NEON instruction set.
 228:C:/Renesas/e2studio_2021_01_workspace_RZA2M_ANPR/ANPR_RZA2M_EBK/src/tensorflow_lite/third_party/gemmlowp/fixedpoint\fixedpoint.h **** template <typename IntegerType>
 229:C:/Renesas/e2studio_2021_01_workspace_RZA2M_ANPR/ANPR_RZA2M_EBK/src/tensorflow_lite/third_party/gemmlowp/fixedpoint\fixedpoint.h **** IntegerType RoundingHalfSum(IntegerType a, IntegerType b) {
 230:C:/Renesas/e2studio_2021_01_workspace_RZA2M_ANPR/ANPR_RZA2M_EBK/src/tensorflow_lite/third_party/gemmlowp/fixedpoint\fixedpoint.h ****   static_assert(std::is_same<IntegerType, void>::value, "unimplemented");
 231:C:/Renesas/e2studio_2021_01_workspace_RZA2M_ANPR/ANPR_RZA2M_EBK/src/tensorflow_lite/third_party/gemmlowp/fixedpoint\fixedpoint.h ****   (void)b;
 232:C:/Renesas/e2studio_2021_01_workspace_RZA2M_ANPR/ANPR_RZA2M_EBK/src/tensorflow_lite/third_party/gemmlowp/fixedpoint\fixedpoint.h ****   return a;
 233:C:/Renesas/e2studio_2021_01_workspace_RZA2M_ANPR/ANPR_RZA2M_EBK/src/tensorflow_lite/third_party/gemmlowp/fixedpoint\fixedpoint.h **** }
 234:C:/Renesas/e2studio_2021_01_workspace_RZA2M_ANPR/ANPR_RZA2M_EBK/src/tensorflow_lite/third_party/gemmlowp/fixedpoint\fixedpoint.h **** 
 235:C:/Renesas/e2studio_2021_01_workspace_RZA2M_ANPR/ANPR_RZA2M_EBK/src/tensorflow_lite/third_party/gemmlowp/fixedpoint\fixedpoint.h **** template <>
 236:C:/Renesas/e2studio_2021_01_workspace_RZA2M_ANPR/ANPR_RZA2M_EBK/src/tensorflow_lite/third_party/gemmlowp/fixedpoint\fixedpoint.h **** inline std::int32_t RoundingHalfSum(std::int32_t a, std::int32_t b) {
 237:C:/Renesas/e2studio_2021_01_workspace_RZA2M_ANPR/ANPR_RZA2M_EBK/src/tensorflow_lite/third_party/gemmlowp/fixedpoint\fixedpoint.h ****   std::int64_t a64 = a;
 238:C:/Renesas/e2studio_2021_01_workspace_RZA2M_ANPR/ANPR_RZA2M_EBK/src/tensorflow_lite/third_party/gemmlowp/fixedpoint\fixedpoint.h ****   std::int64_t b64 = b;
 239:C:/Renesas/e2studio_2021_01_workspace_RZA2M_ANPR/ANPR_RZA2M_EBK/src/tensorflow_lite/third_party/gemmlowp/fixedpoint\fixedpoint.h ****   std::int64_t sum = a64 + b64;
 240:C:/Renesas/e2studio_2021_01_workspace_RZA2M_ANPR/ANPR_RZA2M_EBK/src/tensorflow_lite/third_party/gemmlowp/fixedpoint\fixedpoint.h ****   std::int64_t sign = sum >= 0 ? 1 : -1;
 241:C:/Renesas/e2studio_2021_01_workspace_RZA2M_ANPR/ANPR_RZA2M_EBK/src/tensorflow_lite/third_party/gemmlowp/fixedpoint\fixedpoint.h ****   return static_cast<std::int32_t>((sum + sign) / 2);
 242:C:/Renesas/e2studio_2021_01_workspace_RZA2M_ANPR/ANPR_RZA2M_EBK/src/tensorflow_lite/third_party/gemmlowp/fixedpoint\fixedpoint.h **** }
 243:C:/Renesas/e2studio_2021_01_workspace_RZA2M_ANPR/ANPR_RZA2M_EBK/src/tensorflow_lite/third_party/gemmlowp/fixedpoint\fixedpoint.h **** 
 244:C:/Renesas/e2studio_2021_01_workspace_RZA2M_ANPR/ANPR_RZA2M_EBK/src/tensorflow_lite/third_party/gemmlowp/fixedpoint\fixedpoint.h **** template <>
 245:C:/Renesas/e2studio_2021_01_workspace_RZA2M_ANPR/ANPR_RZA2M_EBK/src/tensorflow_lite/third_party/gemmlowp/fixedpoint\fixedpoint.h **** inline std::int16_t RoundingHalfSum(std::int16_t a, std::int16_t b) {
 246:C:/Renesas/e2studio_2021_01_workspace_RZA2M_ANPR/ANPR_RZA2M_EBK/src/tensorflow_lite/third_party/gemmlowp/fixedpoint\fixedpoint.h ****   std::int32_t a32 = a;
 247:C:/Renesas/e2studio_2021_01_workspace_RZA2M_ANPR/ANPR_RZA2M_EBK/src/tensorflow_lite/third_party/gemmlowp/fixedpoint\fixedpoint.h ****   std::int32_t b32 = b;
 248:C:/Renesas/e2studio_2021_01_workspace_RZA2M_ANPR/ANPR_RZA2M_EBK/src/tensorflow_lite/third_party/gemmlowp/fixedpoint\fixedpoint.h ****   std::int32_t sum = a32 + b32;
 249:C:/Renesas/e2studio_2021_01_workspace_RZA2M_ANPR/ANPR_RZA2M_EBK/src/tensorflow_lite/third_party/gemmlowp/fixedpoint\fixedpoint.h ****   std::int32_t sign = sum >= 0 ? 1 : -1;
 250:C:/Renesas/e2studio_2021_01_workspace_RZA2M_ANPR/ANPR_RZA2M_EBK/src/tensorflow_lite/third_party/gemmlowp/fixedpoint\fixedpoint.h ****   return static_cast<std::int16_t>((sum + sign) / 2);
 251:C:/Renesas/e2studio_2021_01_workspace_RZA2M_ANPR/ANPR_RZA2M_EBK/src/tensorflow_lite/third_party/gemmlowp/fixedpoint\fixedpoint.h **** }
 252:C:/Renesas/e2studio_2021_01_workspace_RZA2M_ANPR/ANPR_RZA2M_EBK/src/tensorflow_lite/third_party/gemmlowp/fixedpoint\fixedpoint.h **** 
 253:C:/Renesas/e2studio_2021_01_workspace_RZA2M_ANPR/ANPR_RZA2M_EBK/src/tensorflow_lite/third_party/gemmlowp/fixedpoint\fixedpoint.h **** template <typename IntegerType>
 254:C:/Renesas/e2studio_2021_01_workspace_RZA2M_ANPR/ANPR_RZA2M_EBK/src/tensorflow_lite/third_party/gemmlowp/fixedpoint\fixedpoint.h **** IntegerType SaturatingAdd(IntegerType a, IntegerType b) {
 255:C:/Renesas/e2studio_2021_01_workspace_RZA2M_ANPR/ANPR_RZA2M_EBK/src/tensorflow_lite/third_party/gemmlowp/fixedpoint\fixedpoint.h ****   static_assert(std::is_same<IntegerType, void>::value, "unimplemented");
 256:C:/Renesas/e2studio_2021_01_workspace_RZA2M_ANPR/ANPR_RZA2M_EBK/src/tensorflow_lite/third_party/gemmlowp/fixedpoint\fixedpoint.h ****   (void)b;
 257:C:/Renesas/e2studio_2021_01_workspace_RZA2M_ANPR/ANPR_RZA2M_EBK/src/tensorflow_lite/third_party/gemmlowp/fixedpoint\fixedpoint.h ****   return a;
 258:C:/Renesas/e2studio_2021_01_workspace_RZA2M_ANPR/ANPR_RZA2M_EBK/src/tensorflow_lite/third_party/gemmlowp/fixedpoint\fixedpoint.h **** }
 259:C:/Renesas/e2studio_2021_01_workspace_RZA2M_ANPR/ANPR_RZA2M_EBK/src/tensorflow_lite/third_party/gemmlowp/fixedpoint\fixedpoint.h **** 
 260:C:/Renesas/e2studio_2021_01_workspace_RZA2M_ANPR/ANPR_RZA2M_EBK/src/tensorflow_lite/third_party/gemmlowp/fixedpoint\fixedpoint.h **** // So far this is only needed for int16.
 261:C:/Renesas/e2studio_2021_01_workspace_RZA2M_ANPR/ANPR_RZA2M_EBK/src/tensorflow_lite/third_party/gemmlowp/fixedpoint\fixedpoint.h **** template <>
 262:C:/Renesas/e2studio_2021_01_workspace_RZA2M_ANPR/ANPR_RZA2M_EBK/src/tensorflow_lite/third_party/gemmlowp/fixedpoint\fixedpoint.h **** inline std::int16_t SaturatingAdd(std::int16_t a, std::int16_t b) {
 263:C:/Renesas/e2studio_2021_01_workspace_RZA2M_ANPR/ANPR_RZA2M_EBK/src/tensorflow_lite/third_party/gemmlowp/fixedpoint\fixedpoint.h ****   std::int32_t a32 = a;
 264:C:/Renesas/e2studio_2021_01_workspace_RZA2M_ANPR/ANPR_RZA2M_EBK/src/tensorflow_lite/third_party/gemmlowp/fixedpoint\fixedpoint.h ****   std::int32_t b32 = b;
 265:C:/Renesas/e2studio_2021_01_workspace_RZA2M_ANPR/ANPR_RZA2M_EBK/src/tensorflow_lite/third_party/gemmlowp/fixedpoint\fixedpoint.h ****   std::int32_t sum = a32 + b32;
 266:C:/Renesas/e2studio_2021_01_workspace_RZA2M_ANPR/ANPR_RZA2M_EBK/src/tensorflow_lite/third_party/gemmlowp/fixedpoint\fixedpoint.h ****   return static_cast<std::int16_t>(
 267:C:/Renesas/e2studio_2021_01_workspace_RZA2M_ANPR/ANPR_RZA2M_EBK/src/tensorflow_lite/third_party/gemmlowp/fixedpoint\fixedpoint.h ****       std::min(static_cast<std::int32_t>(32767),
 268:C:/Renesas/e2studio_2021_01_workspace_RZA2M_ANPR/ANPR_RZA2M_EBK/src/tensorflow_lite/third_party/gemmlowp/fixedpoint\fixedpoint.h ****                std::max(static_cast<std::int32_t>(-32768), sum)));
 269:C:/Renesas/e2studio_2021_01_workspace_RZA2M_ANPR/ANPR_RZA2M_EBK/src/tensorflow_lite/third_party/gemmlowp/fixedpoint\fixedpoint.h **** }
 270:C:/Renesas/e2studio_2021_01_workspace_RZA2M_ANPR/ANPR_RZA2M_EBK/src/tensorflow_lite/third_party/gemmlowp/fixedpoint\fixedpoint.h **** 
 271:C:/Renesas/e2studio_2021_01_workspace_RZA2M_ANPR/ANPR_RZA2M_EBK/src/tensorflow_lite/third_party/gemmlowp/fixedpoint\fixedpoint.h **** // Returns a+b, saturating if the integers are 16bit or narrower,
 272:C:/Renesas/e2studio_2021_01_workspace_RZA2M_ANPR/ANPR_RZA2M_EBK/src/tensorflow_lite/third_party/gemmlowp/fixedpoint\fixedpoint.h **** // otherwise just a plain addition.
 273:C:/Renesas/e2studio_2021_01_workspace_RZA2M_ANPR/ANPR_RZA2M_EBK/src/tensorflow_lite/third_party/gemmlowp/fixedpoint\fixedpoint.h **** template <typename IntegerType, bool Is16Bit>
 274:C:/Renesas/e2studio_2021_01_workspace_RZA2M_ANPR/ANPR_RZA2M_EBK/src/tensorflow_lite/third_party/gemmlowp/fixedpoint\fixedpoint.h **** struct AddSaturatingIf16BitImpl {
 275:C:/Renesas/e2studio_2021_01_workspace_RZA2M_ANPR/ANPR_RZA2M_EBK/src/tensorflow_lite/third_party/gemmlowp/fixedpoint\fixedpoint.h ****   static IntegerType Run(IntegerType a, IntegerType b) { return Add(a, b); }
 276:C:/Renesas/e2studio_2021_01_workspace_RZA2M_ANPR/ANPR_RZA2M_EBK/src/tensorflow_lite/third_party/gemmlowp/fixedpoint\fixedpoint.h **** };
 277:C:/Renesas/e2studio_2021_01_workspace_RZA2M_ANPR/ANPR_RZA2M_EBK/src/tensorflow_lite/third_party/gemmlowp/fixedpoint\fixedpoint.h **** template <typename IntegerType>
 278:C:/Renesas/e2studio_2021_01_workspace_RZA2M_ANPR/ANPR_RZA2M_EBK/src/tensorflow_lite/third_party/gemmlowp/fixedpoint\fixedpoint.h **** struct AddSaturatingIf16BitImpl<IntegerType, true> {
 279:C:/Renesas/e2studio_2021_01_workspace_RZA2M_ANPR/ANPR_RZA2M_EBK/src/tensorflow_lite/third_party/gemmlowp/fixedpoint\fixedpoint.h ****   static IntegerType Run(IntegerType a, IntegerType b) {
 280:C:/Renesas/e2studio_2021_01_workspace_RZA2M_ANPR/ANPR_RZA2M_EBK/src/tensorflow_lite/third_party/gemmlowp/fixedpoint\fixedpoint.h ****     return SaturatingAdd(a, b);
 281:C:/Renesas/e2studio_2021_01_workspace_RZA2M_ANPR/ANPR_RZA2M_EBK/src/tensorflow_lite/third_party/gemmlowp/fixedpoint\fixedpoint.h ****   }
 282:C:/Renesas/e2studio_2021_01_workspace_RZA2M_ANPR/ANPR_RZA2M_EBK/src/tensorflow_lite/third_party/gemmlowp/fixedpoint\fixedpoint.h **** };
 283:C:/Renesas/e2studio_2021_01_workspace_RZA2M_ANPR/ANPR_RZA2M_EBK/src/tensorflow_lite/third_party/gemmlowp/fixedpoint\fixedpoint.h **** template <typename IntegerType>
 284:C:/Renesas/e2studio_2021_01_workspace_RZA2M_ANPR/ANPR_RZA2M_EBK/src/tensorflow_lite/third_party/gemmlowp/fixedpoint\fixedpoint.h **** IntegerType AddSaturatingIf16Bit(IntegerType a, IntegerType b) {
 285:C:/Renesas/e2studio_2021_01_workspace_RZA2M_ANPR/ANPR_RZA2M_EBK/src/tensorflow_lite/third_party/gemmlowp/fixedpoint\fixedpoint.h ****   using ScalarType =
 286:C:/Renesas/e2studio_2021_01_workspace_RZA2M_ANPR/ANPR_RZA2M_EBK/src/tensorflow_lite/third_party/gemmlowp/fixedpoint\fixedpoint.h ****       typename FixedPointRawTypeTraits<IntegerType>::ScalarRawType;
 287:C:/Renesas/e2studio_2021_01_workspace_RZA2M_ANPR/ANPR_RZA2M_EBK/src/tensorflow_lite/third_party/gemmlowp/fixedpoint\fixedpoint.h ****   return AddSaturatingIf16BitImpl<IntegerType, sizeof(ScalarType) == 2>::Run(a,
 288:C:/Renesas/e2studio_2021_01_workspace_RZA2M_ANPR/ANPR_RZA2M_EBK/src/tensorflow_lite/third_party/gemmlowp/fixedpoint\fixedpoint.h ****                                                                              b);
 289:C:/Renesas/e2studio_2021_01_workspace_RZA2M_ANPR/ANPR_RZA2M_EBK/src/tensorflow_lite/third_party/gemmlowp/fixedpoint\fixedpoint.h **** }
 290:C:/Renesas/e2studio_2021_01_workspace_RZA2M_ANPR/ANPR_RZA2M_EBK/src/tensorflow_lite/third_party/gemmlowp/fixedpoint\fixedpoint.h **** 
 291:C:/Renesas/e2studio_2021_01_workspace_RZA2M_ANPR/ANPR_RZA2M_EBK/src/tensorflow_lite/third_party/gemmlowp/fixedpoint\fixedpoint.h **** // Returns the integer that represents the product of two fixed-point
 292:C:/Renesas/e2studio_2021_01_workspace_RZA2M_ANPR/ANPR_RZA2M_EBK/src/tensorflow_lite/third_party/gemmlowp/fixedpoint\fixedpoint.h **** // numbers, interpreting all integers as fixed-point values in the
 293:C:/Renesas/e2studio_2021_01_workspace_RZA2M_ANPR/ANPR_RZA2M_EBK/src/tensorflow_lite/third_party/gemmlowp/fixedpoint\fixedpoint.h **** // interval [-1, 1), rounding to the nearest value, and saturating
 294:C:/Renesas/e2studio_2021_01_workspace_RZA2M_ANPR/ANPR_RZA2M_EBK/src/tensorflow_lite/third_party/gemmlowp/fixedpoint\fixedpoint.h **** // -1 * -1 to the maximum value (since 1 is not in the half-open
 295:C:/Renesas/e2studio_2021_01_workspace_RZA2M_ANPR/ANPR_RZA2M_EBK/src/tensorflow_lite/third_party/gemmlowp/fixedpoint\fixedpoint.h **** // interval [-1, 1)).
 296:C:/Renesas/e2studio_2021_01_workspace_RZA2M_ANPR/ANPR_RZA2M_EBK/src/tensorflow_lite/third_party/gemmlowp/fixedpoint\fixedpoint.h **** //
 297:C:/Renesas/e2studio_2021_01_workspace_RZA2M_ANPR/ANPR_RZA2M_EBK/src/tensorflow_lite/third_party/gemmlowp/fixedpoint\fixedpoint.h **** // [The explanation below specializes to std::int32_t for example purpose.]
 298:C:/Renesas/e2studio_2021_01_workspace_RZA2M_ANPR/ANPR_RZA2M_EBK/src/tensorflow_lite/third_party/gemmlowp/fixedpoint\fixedpoint.h **** //
 299:C:/Renesas/e2studio_2021_01_workspace_RZA2M_ANPR/ANPR_RZA2M_EBK/src/tensorflow_lite/third_party/gemmlowp/fixedpoint\fixedpoint.h **** // The mapping between IntegerType and the interval [-1, 1) is unique and
 300:C:/Renesas/e2studio_2021_01_workspace_RZA2M_ANPR/ANPR_RZA2M_EBK/src/tensorflow_lite/third_party/gemmlowp/fixedpoint\fixedpoint.h **** // implied by IntegerType, which is assumed to be signed. For example,
 301:C:/Renesas/e2studio_2021_01_workspace_RZA2M_ANPR/ANPR_RZA2M_EBK/src/tensorflow_lite/third_party/gemmlowp/fixedpoint\fixedpoint.h **** // for IntegerType==std::int32_t, the mapping is
 302:C:/Renesas/e2studio_2021_01_workspace_RZA2M_ANPR/ANPR_RZA2M_EBK/src/tensorflow_lite/third_party/gemmlowp/fixedpoint\fixedpoint.h **** //   real_value = integer_value / 2^31.
 303:C:/Renesas/e2studio_2021_01_workspace_RZA2M_ANPR/ANPR_RZA2M_EBK/src/tensorflow_lite/third_party/gemmlowp/fixedpoint\fixedpoint.h **** // So in this case, and leaving aside rounding and saturating, this
 304:C:/Renesas/e2studio_2021_01_workspace_RZA2M_ANPR/ANPR_RZA2M_EBK/src/tensorflow_lite/third_party/gemmlowp/fixedpoint\fixedpoint.h **** // function computes ((a / 2^31) * (b / 2^31)) * 2^31, which simplifies to
 305:C:/Renesas/e2studio_2021_01_workspace_RZA2M_ANPR/ANPR_RZA2M_EBK/src/tensorflow_lite/third_party/gemmlowp/fixedpoint\fixedpoint.h **** //   (a * b) / 2^31.
 306:C:/Renesas/e2studio_2021_01_workspace_RZA2M_ANPR/ANPR_RZA2M_EBK/src/tensorflow_lite/third_party/gemmlowp/fixedpoint\fixedpoint.h **** //
 307:C:/Renesas/e2studio_2021_01_workspace_RZA2M_ANPR/ANPR_RZA2M_EBK/src/tensorflow_lite/third_party/gemmlowp/fixedpoint\fixedpoint.h **** // The 'doubling' part in the name of this function comes from the fact that
 308:C:/Renesas/e2studio_2021_01_workspace_RZA2M_ANPR/ANPR_RZA2M_EBK/src/tensorflow_lite/third_party/gemmlowp/fixedpoint\fixedpoint.h **** // this operation is very close to a "multiply-high" operation, keeping only
 309:C:/Renesas/e2studio_2021_01_workspace_RZA2M_ANPR/ANPR_RZA2M_EBK/src/tensorflow_lite/third_party/gemmlowp/fixedpoint\fixedpoint.h **** // the top half bits, except that that would be effectively computing
 310:C:/Renesas/e2studio_2021_01_workspace_RZA2M_ANPR/ANPR_RZA2M_EBK/src/tensorflow_lite/third_party/gemmlowp/fixedpoint\fixedpoint.h **** //   (a * b) / 2^32,
 311:C:/Renesas/e2studio_2021_01_workspace_RZA2M_ANPR/ANPR_RZA2M_EBK/src/tensorflow_lite/third_party/gemmlowp/fixedpoint\fixedpoint.h **** // so here we are computing 2x that, since
 312:C:/Renesas/e2studio_2021_01_workspace_RZA2M_ANPR/ANPR_RZA2M_EBK/src/tensorflow_lite/third_party/gemmlowp/fixedpoint\fixedpoint.h **** //   1/2^31 = 2 * 1/2^32.
 313:C:/Renesas/e2studio_2021_01_workspace_RZA2M_ANPR/ANPR_RZA2M_EBK/src/tensorflow_lite/third_party/gemmlowp/fixedpoint\fixedpoint.h **** // The idea is to use all of the available 32 bits in the destination int32
 314:C:/Renesas/e2studio_2021_01_workspace_RZA2M_ANPR/ANPR_RZA2M_EBK/src/tensorflow_lite/third_party/gemmlowp/fixedpoint\fixedpoint.h **** // value.
 315:C:/Renesas/e2studio_2021_01_workspace_RZA2M_ANPR/ANPR_RZA2M_EBK/src/tensorflow_lite/third_party/gemmlowp/fixedpoint\fixedpoint.h **** //
 316:C:/Renesas/e2studio_2021_01_workspace_RZA2M_ANPR/ANPR_RZA2M_EBK/src/tensorflow_lite/third_party/gemmlowp/fixedpoint\fixedpoint.h **** // [End of the explanation specializing to int32.]
 317:C:/Renesas/e2studio_2021_01_workspace_RZA2M_ANPR/ANPR_RZA2M_EBK/src/tensorflow_lite/third_party/gemmlowp/fixedpoint\fixedpoint.h **** //
 318:C:/Renesas/e2studio_2021_01_workspace_RZA2M_ANPR/ANPR_RZA2M_EBK/src/tensorflow_lite/third_party/gemmlowp/fixedpoint\fixedpoint.h **** // This is equivalent to the VQRDMULH instruction in ARM NEON.
 319:C:/Renesas/e2studio_2021_01_workspace_RZA2M_ANPR/ANPR_RZA2M_EBK/src/tensorflow_lite/third_party/gemmlowp/fixedpoint\fixedpoint.h **** template <typename IntegerType>
 320:C:/Renesas/e2studio_2021_01_workspace_RZA2M_ANPR/ANPR_RZA2M_EBK/src/tensorflow_lite/third_party/gemmlowp/fixedpoint\fixedpoint.h **** IntegerType SaturatingRoundingDoublingHighMul(IntegerType a, IntegerType b) {
 321:C:/Renesas/e2studio_2021_01_workspace_RZA2M_ANPR/ANPR_RZA2M_EBK/src/tensorflow_lite/third_party/gemmlowp/fixedpoint\fixedpoint.h ****   static_assert(std::is_same<IntegerType, void>::value, "unimplemented");
 322:C:/Renesas/e2studio_2021_01_workspace_RZA2M_ANPR/ANPR_RZA2M_EBK/src/tensorflow_lite/third_party/gemmlowp/fixedpoint\fixedpoint.h ****   (void)b;
 323:C:/Renesas/e2studio_2021_01_workspace_RZA2M_ANPR/ANPR_RZA2M_EBK/src/tensorflow_lite/third_party/gemmlowp/fixedpoint\fixedpoint.h ****   return a;
 324:C:/Renesas/e2studio_2021_01_workspace_RZA2M_ANPR/ANPR_RZA2M_EBK/src/tensorflow_lite/third_party/gemmlowp/fixedpoint\fixedpoint.h **** }
 325:C:/Renesas/e2studio_2021_01_workspace_RZA2M_ANPR/ANPR_RZA2M_EBK/src/tensorflow_lite/third_party/gemmlowp/fixedpoint\fixedpoint.h **** 
 326:C:/Renesas/e2studio_2021_01_workspace_RZA2M_ANPR/ANPR_RZA2M_EBK/src/tensorflow_lite/third_party/gemmlowp/fixedpoint\fixedpoint.h **** // This function implements the same computation as the ARMv7 NEON VQRDMULH
 327:C:/Renesas/e2studio_2021_01_workspace_RZA2M_ANPR/ANPR_RZA2M_EBK/src/tensorflow_lite/third_party/gemmlowp/fixedpoint\fixedpoint.h **** // instruction.
 328:C:/Renesas/e2studio_2021_01_workspace_RZA2M_ANPR/ANPR_RZA2M_EBK/src/tensorflow_lite/third_party/gemmlowp/fixedpoint\fixedpoint.h **** template <>
 329:C:/Renesas/e2studio_2021_01_workspace_RZA2M_ANPR/ANPR_RZA2M_EBK/src/tensorflow_lite/third_party/gemmlowp/fixedpoint\fixedpoint.h **** inline std::int32_t SaturatingRoundingDoublingHighMul(std::int32_t a,
 330:C:/Renesas/e2studio_2021_01_workspace_RZA2M_ANPR/ANPR_RZA2M_EBK/src/tensorflow_lite/third_party/gemmlowp/fixedpoint\fixedpoint.h ****                                                       std::int32_t b) {
 331:C:/Renesas/e2studio_2021_01_workspace_RZA2M_ANPR/ANPR_RZA2M_EBK/src/tensorflow_lite/third_party/gemmlowp/fixedpoint\fixedpoint.h ****   bool overflow = a == b && a == std::numeric_limits<std::int32_t>::min();
 332:C:/Renesas/e2studio_2021_01_workspace_RZA2M_ANPR/ANPR_RZA2M_EBK/src/tensorflow_lite/third_party/gemmlowp/fixedpoint\fixedpoint.h ****   std::int64_t a_64(a);
 333:C:/Renesas/e2studio_2021_01_workspace_RZA2M_ANPR/ANPR_RZA2M_EBK/src/tensorflow_lite/third_party/gemmlowp/fixedpoint\fixedpoint.h ****   std::int64_t b_64(b);
 334:C:/Renesas/e2studio_2021_01_workspace_RZA2M_ANPR/ANPR_RZA2M_EBK/src/tensorflow_lite/third_party/gemmlowp/fixedpoint\fixedpoint.h ****   std::int64_t ab_64 = a_64 * b_64;
 335:C:/Renesas/e2studio_2021_01_workspace_RZA2M_ANPR/ANPR_RZA2M_EBK/src/tensorflow_lite/third_party/gemmlowp/fixedpoint\fixedpoint.h ****   std::int32_t nudge = ab_64 >= 0 ? (1 << 30) : (1 - (1 << 30));
 336:C:/Renesas/e2studio_2021_01_workspace_RZA2M_ANPR/ANPR_RZA2M_EBK/src/tensorflow_lite/third_party/gemmlowp/fixedpoint\fixedpoint.h ****   std::int32_t ab_x2_high32 =
 337:C:/Renesas/e2studio_2021_01_workspace_RZA2M_ANPR/ANPR_RZA2M_EBK/src/tensorflow_lite/third_party/gemmlowp/fixedpoint\fixedpoint.h ****       static_cast<std::int32_t>((ab_64 + nudge) / (1ll << 31));
 338:C:/Renesas/e2studio_2021_01_workspace_RZA2M_ANPR/ANPR_RZA2M_EBK/src/tensorflow_lite/third_party/gemmlowp/fixedpoint\fixedpoint.h ****   return overflow ? std::numeric_limits<std::int32_t>::max() : ab_x2_high32;
 339:C:/Renesas/e2studio_2021_01_workspace_RZA2M_ANPR/ANPR_RZA2M_EBK/src/tensorflow_lite/third_party/gemmlowp/fixedpoint\fixedpoint.h **** }
 340:C:/Renesas/e2studio_2021_01_workspace_RZA2M_ANPR/ANPR_RZA2M_EBK/src/tensorflow_lite/third_party/gemmlowp/fixedpoint\fixedpoint.h **** 
 341:C:/Renesas/e2studio_2021_01_workspace_RZA2M_ANPR/ANPR_RZA2M_EBK/src/tensorflow_lite/third_party/gemmlowp/fixedpoint\fixedpoint.h **** template <>
 342:C:/Renesas/e2studio_2021_01_workspace_RZA2M_ANPR/ANPR_RZA2M_EBK/src/tensorflow_lite/third_party/gemmlowp/fixedpoint\fixedpoint.h **** inline std::int16_t SaturatingRoundingDoublingHighMul(std::int16_t a,
 343:C:/Renesas/e2studio_2021_01_workspace_RZA2M_ANPR/ANPR_RZA2M_EBK/src/tensorflow_lite/third_party/gemmlowp/fixedpoint\fixedpoint.h ****                                                       std::int16_t b) {
 344:C:/Renesas/e2studio_2021_01_workspace_RZA2M_ANPR/ANPR_RZA2M_EBK/src/tensorflow_lite/third_party/gemmlowp/fixedpoint\fixedpoint.h ****   bool overflow = a == b && a == std::numeric_limits<std::int16_t>::min();
 345:C:/Renesas/e2studio_2021_01_workspace_RZA2M_ANPR/ANPR_RZA2M_EBK/src/tensorflow_lite/third_party/gemmlowp/fixedpoint\fixedpoint.h ****   std::int32_t a_32(a);
 346:C:/Renesas/e2studio_2021_01_workspace_RZA2M_ANPR/ANPR_RZA2M_EBK/src/tensorflow_lite/third_party/gemmlowp/fixedpoint\fixedpoint.h ****   std::int32_t b_32(b);
 347:C:/Renesas/e2studio_2021_01_workspace_RZA2M_ANPR/ANPR_RZA2M_EBK/src/tensorflow_lite/third_party/gemmlowp/fixedpoint\fixedpoint.h ****   std::int32_t ab_32 = a_32 * b_32;
 348:C:/Renesas/e2studio_2021_01_workspace_RZA2M_ANPR/ANPR_RZA2M_EBK/src/tensorflow_lite/third_party/gemmlowp/fixedpoint\fixedpoint.h ****   std::int16_t nudge = ab_32 >= 0 ? (1 << 14) : (1 - (1 << 14));
 349:C:/Renesas/e2studio_2021_01_workspace_RZA2M_ANPR/ANPR_RZA2M_EBK/src/tensorflow_lite/third_party/gemmlowp/fixedpoint\fixedpoint.h ****   std::int16_t ab_x2_high16 =
 350:C:/Renesas/e2studio_2021_01_workspace_RZA2M_ANPR/ANPR_RZA2M_EBK/src/tensorflow_lite/third_party/gemmlowp/fixedpoint\fixedpoint.h ****       static_cast<std::int16_t>((ab_32 + nudge) / (1 << 15));
 351:C:/Renesas/e2studio_2021_01_workspace_RZA2M_ANPR/ANPR_RZA2M_EBK/src/tensorflow_lite/third_party/gemmlowp/fixedpoint\fixedpoint.h ****   return overflow ? std::numeric_limits<std::int16_t>::max() : ab_x2_high16;
 352:C:/Renesas/e2studio_2021_01_workspace_RZA2M_ANPR/ANPR_RZA2M_EBK/src/tensorflow_lite/third_party/gemmlowp/fixedpoint\fixedpoint.h **** }
 353:C:/Renesas/e2studio_2021_01_workspace_RZA2M_ANPR/ANPR_RZA2M_EBK/src/tensorflow_lite/third_party/gemmlowp/fixedpoint\fixedpoint.h **** 
 354:C:/Renesas/e2studio_2021_01_workspace_RZA2M_ANPR/ANPR_RZA2M_EBK/src/tensorflow_lite/third_party/gemmlowp/fixedpoint\fixedpoint.h **** // Correctly-rounded-to-nearest division by a power-of-two.
 355:C:/Renesas/e2studio_2021_01_workspace_RZA2M_ANPR/ANPR_RZA2M_EBK/src/tensorflow_lite/third_party/gemmlowp/fixedpoint\fixedpoint.h **** // Also known as a rounding arithmetic right shift.
 356:C:/Renesas/e2studio_2021_01_workspace_RZA2M_ANPR/ANPR_RZA2M_EBK/src/tensorflow_lite/third_party/gemmlowp/fixedpoint\fixedpoint.h **** template <typename IntegerType>
 357:C:/Renesas/e2studio_2021_01_workspace_RZA2M_ANPR/ANPR_RZA2M_EBK/src/tensorflow_lite/third_party/gemmlowp/fixedpoint\fixedpoint.h **** inline IntegerType RoundingDivideByPOT(IntegerType x, int exponent) {
 358:C:/Renesas/e2studio_2021_01_workspace_RZA2M_ANPR/ANPR_RZA2M_EBK/src/tensorflow_lite/third_party/gemmlowp/fixedpoint\fixedpoint.h ****   assert(exponent >= 0);
 359:C:/Renesas/e2studio_2021_01_workspace_RZA2M_ANPR/ANPR_RZA2M_EBK/src/tensorflow_lite/third_party/gemmlowp/fixedpoint\fixedpoint.h ****   assert(exponent <= 31);
 360:C:/Renesas/e2studio_2021_01_workspace_RZA2M_ANPR/ANPR_RZA2M_EBK/src/tensorflow_lite/third_party/gemmlowp/fixedpoint\fixedpoint.h ****   const IntegerType mask = Dup<IntegerType>((1ll << exponent) - 1);
 361:C:/Renesas/e2studio_2021_01_workspace_RZA2M_ANPR/ANPR_RZA2M_EBK/src/tensorflow_lite/third_party/gemmlowp/fixedpoint\fixedpoint.h ****   const IntegerType zero = Dup<IntegerType>(0);
 362:C:/Renesas/e2studio_2021_01_workspace_RZA2M_ANPR/ANPR_RZA2M_EBK/src/tensorflow_lite/third_party/gemmlowp/fixedpoint\fixedpoint.h ****   const IntegerType one = Dup<IntegerType>(1);
 363:C:/Renesas/e2studio_2021_01_workspace_RZA2M_ANPR/ANPR_RZA2M_EBK/src/tensorflow_lite/third_party/gemmlowp/fixedpoint\fixedpoint.h ****   const IntegerType remainder = BitAnd(x, mask);
 364:C:/Renesas/e2studio_2021_01_workspace_RZA2M_ANPR/ANPR_RZA2M_EBK/src/tensorflow_lite/third_party/gemmlowp/fixedpoint\fixedpoint.h ****   const IntegerType threshold =
 365:C:/Renesas/e2studio_2021_01_workspace_RZA2M_ANPR/ANPR_RZA2M_EBK/src/tensorflow_lite/third_party/gemmlowp/fixedpoint\fixedpoint.h ****       Add(ShiftRight(mask, 1), BitAnd(MaskIfLessThan(x, zero), one));
 366:C:/Renesas/e2studio_2021_01_workspace_RZA2M_ANPR/ANPR_RZA2M_EBK/src/tensorflow_lite/third_party/gemmlowp/fixedpoint\fixedpoint.h ****   return Add(ShiftRight(x, exponent),
 367:C:/Renesas/e2studio_2021_01_workspace_RZA2M_ANPR/ANPR_RZA2M_EBK/src/tensorflow_lite/third_party/gemmlowp/fixedpoint\fixedpoint.h ****              BitAnd(MaskIfGreaterThan(remainder, threshold), one));
 368:C:/Renesas/e2studio_2021_01_workspace_RZA2M_ANPR/ANPR_RZA2M_EBK/src/tensorflow_lite/third_party/gemmlowp/fixedpoint\fixedpoint.h **** }
 369:C:/Renesas/e2studio_2021_01_workspace_RZA2M_ANPR/ANPR_RZA2M_EBK/src/tensorflow_lite/third_party/gemmlowp/fixedpoint\fixedpoint.h **** 
 370:C:/Renesas/e2studio_2021_01_workspace_RZA2M_ANPR/ANPR_RZA2M_EBK/src/tensorflow_lite/third_party/gemmlowp/fixedpoint\fixedpoint.h **** // Returns the product of a run-time integer value by a compile-time power
 371:C:/Renesas/e2studio_2021_01_workspace_RZA2M_ANPR/ANPR_RZA2M_EBK/src/tensorflow_lite/third_party/gemmlowp/fixedpoint\fixedpoint.h **** // of two, with either a positive exponent (equivalent to an arithmetic
 372:C:/Renesas/e2studio_2021_01_workspace_RZA2M_ANPR/ANPR_RZA2M_EBK/src/tensorflow_lite/third_party/gemmlowp/fixedpoint\fixedpoint.h **** // left shift, saturating) or a negative exponent (equivalent to an arithmetic
 373:C:/Renesas/e2studio_2021_01_workspace_RZA2M_ANPR/ANPR_RZA2M_EBK/src/tensorflow_lite/third_party/gemmlowp/fixedpoint\fixedpoint.h **** // right shift, rounding to nearest).
 374:C:/Renesas/e2studio_2021_01_workspace_RZA2M_ANPR/ANPR_RZA2M_EBK/src/tensorflow_lite/third_party/gemmlowp/fixedpoint\fixedpoint.h **** template <int Exponent, typename IntegerType,
 375:C:/Renesas/e2studio_2021_01_workspace_RZA2M_ANPR/ANPR_RZA2M_EBK/src/tensorflow_lite/third_party/gemmlowp/fixedpoint\fixedpoint.h ****           int ExponentSign = (Exponent > 0 ? 1 : Exponent < 0 ? -1 : 0)>
 376:C:/Renesas/e2studio_2021_01_workspace_RZA2M_ANPR/ANPR_RZA2M_EBK/src/tensorflow_lite/third_party/gemmlowp/fixedpoint\fixedpoint.h **** struct ImplSaturatingRoundingMultiplyByPOT {};
 377:C:/Renesas/e2studio_2021_01_workspace_RZA2M_ANPR/ANPR_RZA2M_EBK/src/tensorflow_lite/third_party/gemmlowp/fixedpoint\fixedpoint.h **** 
 378:C:/Renesas/e2studio_2021_01_workspace_RZA2M_ANPR/ANPR_RZA2M_EBK/src/tensorflow_lite/third_party/gemmlowp/fixedpoint\fixedpoint.h **** template <int Exponent, typename IntegerType>
 379:C:/Renesas/e2studio_2021_01_workspace_RZA2M_ANPR/ANPR_RZA2M_EBK/src/tensorflow_lite/third_party/gemmlowp/fixedpoint\fixedpoint.h **** struct ImplSaturatingRoundingMultiplyByPOT<Exponent, IntegerType, 0> {
 380:C:/Renesas/e2studio_2021_01_workspace_RZA2M_ANPR/ANPR_RZA2M_EBK/src/tensorflow_lite/third_party/gemmlowp/fixedpoint\fixedpoint.h ****   static IntegerType eval(IntegerType x) { return x; }
 381:C:/Renesas/e2studio_2021_01_workspace_RZA2M_ANPR/ANPR_RZA2M_EBK/src/tensorflow_lite/third_party/gemmlowp/fixedpoint\fixedpoint.h **** };
 382:C:/Renesas/e2studio_2021_01_workspace_RZA2M_ANPR/ANPR_RZA2M_EBK/src/tensorflow_lite/third_party/gemmlowp/fixedpoint\fixedpoint.h **** 
 383:C:/Renesas/e2studio_2021_01_workspace_RZA2M_ANPR/ANPR_RZA2M_EBK/src/tensorflow_lite/third_party/gemmlowp/fixedpoint\fixedpoint.h **** template <int Exponent, typename IntegerType>
 384:C:/Renesas/e2studio_2021_01_workspace_RZA2M_ANPR/ANPR_RZA2M_EBK/src/tensorflow_lite/third_party/gemmlowp/fixedpoint\fixedpoint.h **** struct ImplSaturatingRoundingMultiplyByPOT<Exponent, IntegerType, 1> {
 385:C:/Renesas/e2studio_2021_01_workspace_RZA2M_ANPR/ANPR_RZA2M_EBK/src/tensorflow_lite/third_party/gemmlowp/fixedpoint\fixedpoint.h ****   static IntegerType eval(IntegerType x) {
 386:C:/Renesas/e2studio_2021_01_workspace_RZA2M_ANPR/ANPR_RZA2M_EBK/src/tensorflow_lite/third_party/gemmlowp/fixedpoint\fixedpoint.h ****     using ScalarIntegerType =
 387:C:/Renesas/e2studio_2021_01_workspace_RZA2M_ANPR/ANPR_RZA2M_EBK/src/tensorflow_lite/third_party/gemmlowp/fixedpoint\fixedpoint.h ****         typename FixedPointRawTypeTraits<IntegerType>::ScalarRawType;
 388:C:/Renesas/e2studio_2021_01_workspace_RZA2M_ANPR/ANPR_RZA2M_EBK/src/tensorflow_lite/third_party/gemmlowp/fixedpoint\fixedpoint.h ****     const IntegerType min =
 389:C:/Renesas/e2studio_2021_01_workspace_RZA2M_ANPR/ANPR_RZA2M_EBK/src/tensorflow_lite/third_party/gemmlowp/fixedpoint\fixedpoint.h ****         Dup<IntegerType>(std::numeric_limits<ScalarIntegerType>::min());
 390:C:/Renesas/e2studio_2021_01_workspace_RZA2M_ANPR/ANPR_RZA2M_EBK/src/tensorflow_lite/third_party/gemmlowp/fixedpoint\fixedpoint.h ****     const IntegerType max =
 391:C:/Renesas/e2studio_2021_01_workspace_RZA2M_ANPR/ANPR_RZA2M_EBK/src/tensorflow_lite/third_party/gemmlowp/fixedpoint\fixedpoint.h ****         Dup<IntegerType>(std::numeric_limits<ScalarIntegerType>::max());
 392:C:/Renesas/e2studio_2021_01_workspace_RZA2M_ANPR/ANPR_RZA2M_EBK/src/tensorflow_lite/third_party/gemmlowp/fixedpoint\fixedpoint.h ****     const int ScalarIntegerTypeBits = 8 * sizeof(ScalarIntegerType);
 393:C:/Renesas/e2studio_2021_01_workspace_RZA2M_ANPR/ANPR_RZA2M_EBK/src/tensorflow_lite/third_party/gemmlowp/fixedpoint\fixedpoint.h **** 
 394:C:/Renesas/e2studio_2021_01_workspace_RZA2M_ANPR/ANPR_RZA2M_EBK/src/tensorflow_lite/third_party/gemmlowp/fixedpoint\fixedpoint.h ****     const std::int32_t threshold =
 395:C:/Renesas/e2studio_2021_01_workspace_RZA2M_ANPR/ANPR_RZA2M_EBK/src/tensorflow_lite/third_party/gemmlowp/fixedpoint\fixedpoint.h ****         ((1 << (ScalarIntegerTypeBits - 1 - Exponent)) - 1);
 396:C:/Renesas/e2studio_2021_01_workspace_RZA2M_ANPR/ANPR_RZA2M_EBK/src/tensorflow_lite/third_party/gemmlowp/fixedpoint\fixedpoint.h ****     const IntegerType positive_mask =
 397:C:/Renesas/e2studio_2021_01_workspace_RZA2M_ANPR/ANPR_RZA2M_EBK/src/tensorflow_lite/third_party/gemmlowp/fixedpoint\fixedpoint.h ****         MaskIfGreaterThan(x, Dup<IntegerType>(threshold));
 398:C:/Renesas/e2studio_2021_01_workspace_RZA2M_ANPR/ANPR_RZA2M_EBK/src/tensorflow_lite/third_party/gemmlowp/fixedpoint\fixedpoint.h ****     const IntegerType negative_mask =
 399:C:/Renesas/e2studio_2021_01_workspace_RZA2M_ANPR/ANPR_RZA2M_EBK/src/tensorflow_lite/third_party/gemmlowp/fixedpoint\fixedpoint.h ****         MaskIfLessThan(x, Dup<IntegerType>(-threshold));
 400:C:/Renesas/e2studio_2021_01_workspace_RZA2M_ANPR/ANPR_RZA2M_EBK/src/tensorflow_lite/third_party/gemmlowp/fixedpoint\fixedpoint.h **** 
 401:C:/Renesas/e2studio_2021_01_workspace_RZA2M_ANPR/ANPR_RZA2M_EBK/src/tensorflow_lite/third_party/gemmlowp/fixedpoint\fixedpoint.h ****     IntegerType result = ShiftLeft(x, Exponent);
 402:C:/Renesas/e2studio_2021_01_workspace_RZA2M_ANPR/ANPR_RZA2M_EBK/src/tensorflow_lite/third_party/gemmlowp/fixedpoint\fixedpoint.h ****     result = SelectUsingMask(positive_mask, max, result);
 403:C:/Renesas/e2studio_2021_01_workspace_RZA2M_ANPR/ANPR_RZA2M_EBK/src/tensorflow_lite/third_party/gemmlowp/fixedpoint\fixedpoint.h ****     result = SelectUsingMask(negative_mask, min, result);
 404:C:/Renesas/e2studio_2021_01_workspace_RZA2M_ANPR/ANPR_RZA2M_EBK/src/tensorflow_lite/third_party/gemmlowp/fixedpoint\fixedpoint.h ****     return result;
 405:C:/Renesas/e2studio_2021_01_workspace_RZA2M_ANPR/ANPR_RZA2M_EBK/src/tensorflow_lite/third_party/gemmlowp/fixedpoint\fixedpoint.h ****   }
 406:C:/Renesas/e2studio_2021_01_workspace_RZA2M_ANPR/ANPR_RZA2M_EBK/src/tensorflow_lite/third_party/gemmlowp/fixedpoint\fixedpoint.h **** };
 407:C:/Renesas/e2studio_2021_01_workspace_RZA2M_ANPR/ANPR_RZA2M_EBK/src/tensorflow_lite/third_party/gemmlowp/fixedpoint\fixedpoint.h **** 
 408:C:/Renesas/e2studio_2021_01_workspace_RZA2M_ANPR/ANPR_RZA2M_EBK/src/tensorflow_lite/third_party/gemmlowp/fixedpoint\fixedpoint.h **** template <int Exponent, typename IntegerType>
 409:C:/Renesas/e2studio_2021_01_workspace_RZA2M_ANPR/ANPR_RZA2M_EBK/src/tensorflow_lite/third_party/gemmlowp/fixedpoint\fixedpoint.h **** struct ImplSaturatingRoundingMultiplyByPOT<Exponent, IntegerType, -1> {
 410:C:/Renesas/e2studio_2021_01_workspace_RZA2M_ANPR/ANPR_RZA2M_EBK/src/tensorflow_lite/third_party/gemmlowp/fixedpoint\fixedpoint.h ****   static IntegerType eval(IntegerType x) {
 411:C:/Renesas/e2studio_2021_01_workspace_RZA2M_ANPR/ANPR_RZA2M_EBK/src/tensorflow_lite/third_party/gemmlowp/fixedpoint\fixedpoint.h ****     return RoundingDivideByPOT<IntegerType>(x, -Exponent);
 412:C:/Renesas/e2studio_2021_01_workspace_RZA2M_ANPR/ANPR_RZA2M_EBK/src/tensorflow_lite/third_party/gemmlowp/fixedpoint\fixedpoint.h ****   }
 413:C:/Renesas/e2studio_2021_01_workspace_RZA2M_ANPR/ANPR_RZA2M_EBK/src/tensorflow_lite/third_party/gemmlowp/fixedpoint\fixedpoint.h **** };
 414:C:/Renesas/e2studio_2021_01_workspace_RZA2M_ANPR/ANPR_RZA2M_EBK/src/tensorflow_lite/third_party/gemmlowp/fixedpoint\fixedpoint.h **** 
 415:C:/Renesas/e2studio_2021_01_workspace_RZA2M_ANPR/ANPR_RZA2M_EBK/src/tensorflow_lite/third_party/gemmlowp/fixedpoint\fixedpoint.h **** template <int Exponent, typename IntegerType>
 416:C:/Renesas/e2studio_2021_01_workspace_RZA2M_ANPR/ANPR_RZA2M_EBK/src/tensorflow_lite/third_party/gemmlowp/fixedpoint\fixedpoint.h **** IntegerType SaturatingRoundingMultiplyByPOT(IntegerType x) {
 417:C:/Renesas/e2studio_2021_01_workspace_RZA2M_ANPR/ANPR_RZA2M_EBK/src/tensorflow_lite/third_party/gemmlowp/fixedpoint\fixedpoint.h ****   return ImplSaturatingRoundingMultiplyByPOT<Exponent, IntegerType>::eval(x);
 418:C:/Renesas/e2studio_2021_01_workspace_RZA2M_ANPR/ANPR_RZA2M_EBK/src/tensorflow_lite/third_party/gemmlowp/fixedpoint\fixedpoint.h **** }
 419:C:/Renesas/e2studio_2021_01_workspace_RZA2M_ANPR/ANPR_RZA2M_EBK/src/tensorflow_lite/third_party/gemmlowp/fixedpoint\fixedpoint.h **** 
 420:C:/Renesas/e2studio_2021_01_workspace_RZA2M_ANPR/ANPR_RZA2M_EBK/src/tensorflow_lite/third_party/gemmlowp/fixedpoint\fixedpoint.h **** // Part 2: the FixedPoint class.
 421:C:/Renesas/e2studio_2021_01_workspace_RZA2M_ANPR/ANPR_RZA2M_EBK/src/tensorflow_lite/third_party/gemmlowp/fixedpoint\fixedpoint.h **** 
 422:C:/Renesas/e2studio_2021_01_workspace_RZA2M_ANPR/ANPR_RZA2M_EBK/src/tensorflow_lite/third_party/gemmlowp/fixedpoint\fixedpoint.h **** // A FixedPoint object represents a fixed-point value stored in the underlying
 423:C:/Renesas/e2studio_2021_01_workspace_RZA2M_ANPR/ANPR_RZA2M_EBK/src/tensorflow_lite/third_party/gemmlowp/fixedpoint\fixedpoint.h **** // integer type tRawType, if tRawType is a plain scalar integer type.
 424:C:/Renesas/e2studio_2021_01_workspace_RZA2M_ANPR/ANPR_RZA2M_EBK/src/tensorflow_lite/third_party/gemmlowp/fixedpoint\fixedpoint.h **** // Alternatively, tRawType may be a SIMD type (e.g. NEON int32x4_t) in which
 425:C:/Renesas/e2studio_2021_01_workspace_RZA2M_ANPR/ANPR_RZA2M_EBK/src/tensorflow_lite/third_party/gemmlowp/fixedpoint\fixedpoint.h **** // case a FixedPoint object represents a corresponding SIMD vector of fixed
 426:C:/Renesas/e2studio_2021_01_workspace_RZA2M_ANPR/ANPR_RZA2M_EBK/src/tensorflow_lite/third_party/gemmlowp/fixedpoint\fixedpoint.h **** // point values.
 427:C:/Renesas/e2studio_2021_01_workspace_RZA2M_ANPR/ANPR_RZA2M_EBK/src/tensorflow_lite/third_party/gemmlowp/fixedpoint\fixedpoint.h **** //
 428:C:/Renesas/e2studio_2021_01_workspace_RZA2M_ANPR/ANPR_RZA2M_EBK/src/tensorflow_lite/third_party/gemmlowp/fixedpoint\fixedpoint.h **** // tIntegerBits describes the range of the fixed-point format: if
 429:C:/Renesas/e2studio_2021_01_workspace_RZA2M_ANPR/ANPR_RZA2M_EBK/src/tensorflow_lite/third_party/gemmlowp/fixedpoint\fixedpoint.h **** // tIntegerBits == m then the range of representable values is the half-open
 430:C:/Renesas/e2studio_2021_01_workspace_RZA2M_ANPR/ANPR_RZA2M_EBK/src/tensorflow_lite/third_party/gemmlowp/fixedpoint\fixedpoint.h **** // interval [-2^m; 2^m) where the open boundary on the right side means that
 431:C:/Renesas/e2studio_2021_01_workspace_RZA2M_ANPR/ANPR_RZA2M_EBK/src/tensorflow_lite/third_party/gemmlowp/fixedpoint\fixedpoint.h **** // 2^m is not representable (how close the maximum representable value is to
 432:C:/Renesas/e2studio_2021_01_workspace_RZA2M_ANPR/ANPR_RZA2M_EBK/src/tensorflow_lite/third_party/gemmlowp/fixedpoint\fixedpoint.h **** // it, depends on bit-depth of tRawType).
 433:C:/Renesas/e2studio_2021_01_workspace_RZA2M_ANPR/ANPR_RZA2M_EBK/src/tensorflow_lite/third_party/gemmlowp/fixedpoint\fixedpoint.h **** //
 434:C:/Renesas/e2studio_2021_01_workspace_RZA2M_ANPR/ANPR_RZA2M_EBK/src/tensorflow_lite/third_party/gemmlowp/fixedpoint\fixedpoint.h **** // In "Q format notation",
 435:C:/Renesas/e2studio_2021_01_workspace_RZA2M_ANPR/ANPR_RZA2M_EBK/src/tensorflow_lite/third_party/gemmlowp/fixedpoint\fixedpoint.h **** //   https://en.wikipedia.org/wiki/Q_(number_format)
 436:C:/Renesas/e2studio_2021_01_workspace_RZA2M_ANPR/ANPR_RZA2M_EBK/src/tensorflow_lite/third_party/gemmlowp/fixedpoint\fixedpoint.h **** // we are describing the format
 437:C:/Renesas/e2studio_2021_01_workspace_RZA2M_ANPR/ANPR_RZA2M_EBK/src/tensorflow_lite/third_party/gemmlowp/fixedpoint\fixedpoint.h **** //   Qm.n
 438:C:/Renesas/e2studio_2021_01_workspace_RZA2M_ANPR/ANPR_RZA2M_EBK/src/tensorflow_lite/third_party/gemmlowp/fixedpoint\fixedpoint.h **** // where
 439:C:/Renesas/e2studio_2021_01_workspace_RZA2M_ANPR/ANPR_RZA2M_EBK/src/tensorflow_lite/third_party/gemmlowp/fixedpoint\fixedpoint.h **** //   m = tIntegerBits
 440:C:/Renesas/e2studio_2021_01_workspace_RZA2M_ANPR/ANPR_RZA2M_EBK/src/tensorflow_lite/third_party/gemmlowp/fixedpoint\fixedpoint.h **** // and
 441:C:/Renesas/e2studio_2021_01_workspace_RZA2M_ANPR/ANPR_RZA2M_EBK/src/tensorflow_lite/third_party/gemmlowp/fixedpoint\fixedpoint.h **** //   n = NumberOfBits(tRawType) - (m + 1)
 442:C:/Renesas/e2studio_2021_01_workspace_RZA2M_ANPR/ANPR_RZA2M_EBK/src/tensorflow_lite/third_party/gemmlowp/fixedpoint\fixedpoint.h **** // Note that the (m + 1) in the above line is because we adopt the convention
 443:C:/Renesas/e2studio_2021_01_workspace_RZA2M_ANPR/ANPR_RZA2M_EBK/src/tensorflow_lite/third_party/gemmlowp/fixedpoint\fixedpoint.h **** // that we count the integer bits exclusively of the sign bit; so (m + 1) is
 444:C:/Renesas/e2studio_2021_01_workspace_RZA2M_ANPR/ANPR_RZA2M_EBK/src/tensorflow_lite/third_party/gemmlowp/fixedpoint\fixedpoint.h **** // the total number of integer bits inclusive of the sign bit.
 445:C:/Renesas/e2studio_2021_01_workspace_RZA2M_ANPR/ANPR_RZA2M_EBK/src/tensorflow_lite/third_party/gemmlowp/fixedpoint\fixedpoint.h **** //
 446:C:/Renesas/e2studio_2021_01_workspace_RZA2M_ANPR/ANPR_RZA2M_EBK/src/tensorflow_lite/third_party/gemmlowp/fixedpoint\fixedpoint.h **** // Accordingly, the number of integral representable values in our range
 447:C:/Renesas/e2studio_2021_01_workspace_RZA2M_ANPR/ANPR_RZA2M_EBK/src/tensorflow_lite/third_party/gemmlowp/fixedpoint\fixedpoint.h **** //   [-2^m ; 2^m)
 448:C:/Renesas/e2studio_2021_01_workspace_RZA2M_ANPR/ANPR_RZA2M_EBK/src/tensorflow_lite/third_party/gemmlowp/fixedpoint\fixedpoint.h **** // is equal to 2^(m+1).
 449:C:/Renesas/e2studio_2021_01_workspace_RZA2M_ANPR/ANPR_RZA2M_EBK/src/tensorflow_lite/third_party/gemmlowp/fixedpoint\fixedpoint.h **** template <typename tRawType, int tIntegerBits>
 450:C:/Renesas/e2studio_2021_01_workspace_RZA2M_ANPR/ANPR_RZA2M_EBK/src/tensorflow_lite/third_party/gemmlowp/fixedpoint\fixedpoint.h **** class FixedPoint {
 451:C:/Renesas/e2studio_2021_01_workspace_RZA2M_ANPR/ANPR_RZA2M_EBK/src/tensorflow_lite/third_party/gemmlowp/fixedpoint\fixedpoint.h ****  public:
 452:C:/Renesas/e2studio_2021_01_workspace_RZA2M_ANPR/ANPR_RZA2M_EBK/src/tensorflow_lite/third_party/gemmlowp/fixedpoint\fixedpoint.h ****   typedef tRawType RawType;
 453:C:/Renesas/e2studio_2021_01_workspace_RZA2M_ANPR/ANPR_RZA2M_EBK/src/tensorflow_lite/third_party/gemmlowp/fixedpoint\fixedpoint.h **** 
 454:C:/Renesas/e2studio_2021_01_workspace_RZA2M_ANPR/ANPR_RZA2M_EBK/src/tensorflow_lite/third_party/gemmlowp/fixedpoint\fixedpoint.h ****   typedef FixedPointRawTypeTraits<RawType> RawTypeTraits;
 455:C:/Renesas/e2studio_2021_01_workspace_RZA2M_ANPR/ANPR_RZA2M_EBK/src/tensorflow_lite/third_party/gemmlowp/fixedpoint\fixedpoint.h ****   typedef typename RawTypeTraits::ScalarRawType ScalarRawType;
 456:C:/Renesas/e2studio_2021_01_workspace_RZA2M_ANPR/ANPR_RZA2M_EBK/src/tensorflow_lite/third_party/gemmlowp/fixedpoint\fixedpoint.h **** 
 457:C:/Renesas/e2studio_2021_01_workspace_RZA2M_ANPR/ANPR_RZA2M_EBK/src/tensorflow_lite/third_party/gemmlowp/fixedpoint\fixedpoint.h ****   static constexpr int kTotalBits = 8 * sizeof(ScalarRawType);
 458:C:/Renesas/e2studio_2021_01_workspace_RZA2M_ANPR/ANPR_RZA2M_EBK/src/tensorflow_lite/third_party/gemmlowp/fixedpoint\fixedpoint.h ****   static constexpr int kIntegerBits = tIntegerBits;
 459:C:/Renesas/e2studio_2021_01_workspace_RZA2M_ANPR/ANPR_RZA2M_EBK/src/tensorflow_lite/third_party/gemmlowp/fixedpoint\fixedpoint.h ****   static constexpr int kFractionalBits = kTotalBits - 1 - kIntegerBits;
 460:C:/Renesas/e2studio_2021_01_workspace_RZA2M_ANPR/ANPR_RZA2M_EBK/src/tensorflow_lite/third_party/gemmlowp/fixedpoint\fixedpoint.h ****   static_assert(kIntegerBits >= 0 && kIntegerBits < kTotalBits,
 461:C:/Renesas/e2studio_2021_01_workspace_RZA2M_ANPR/ANPR_RZA2M_EBK/src/tensorflow_lite/third_party/gemmlowp/fixedpoint\fixedpoint.h ****                 "bad IntegerBits");
 462:C:/Renesas/e2studio_2021_01_workspace_RZA2M_ANPR/ANPR_RZA2M_EBK/src/tensorflow_lite/third_party/gemmlowp/fixedpoint\fixedpoint.h **** 
 463:C:/Renesas/e2studio_2021_01_workspace_RZA2M_ANPR/ANPR_RZA2M_EBK/src/tensorflow_lite/third_party/gemmlowp/fixedpoint\fixedpoint.h ****   typedef FixedPoint<ScalarRawType, kIntegerBits> ScalarFixedPointType;
 464:C:/Renesas/e2studio_2021_01_workspace_RZA2M_ANPR/ANPR_RZA2M_EBK/src/tensorflow_lite/third_party/gemmlowp/fixedpoint\fixedpoint.h **** 
 465:C:/Renesas/e2studio_2021_01_workspace_RZA2M_ANPR/ANPR_RZA2M_EBK/src/tensorflow_lite/third_party/gemmlowp/fixedpoint\fixedpoint.h ****   static const ScalarRawType ScalarRawMin() {
 466:C:/Renesas/e2studio_2021_01_workspace_RZA2M_ANPR/ANPR_RZA2M_EBK/src/tensorflow_lite/third_party/gemmlowp/fixedpoint\fixedpoint.h ****     return std::numeric_limits<ScalarRawType>::min();
 467:C:/Renesas/e2studio_2021_01_workspace_RZA2M_ANPR/ANPR_RZA2M_EBK/src/tensorflow_lite/third_party/gemmlowp/fixedpoint\fixedpoint.h ****   }
 468:C:/Renesas/e2studio_2021_01_workspace_RZA2M_ANPR/ANPR_RZA2M_EBK/src/tensorflow_lite/third_party/gemmlowp/fixedpoint\fixedpoint.h **** 
 469:C:/Renesas/e2studio_2021_01_workspace_RZA2M_ANPR/ANPR_RZA2M_EBK/src/tensorflow_lite/third_party/gemmlowp/fixedpoint\fixedpoint.h ****   static const ScalarRawType ScalarRawMax() {
 470:C:/Renesas/e2studio_2021_01_workspace_RZA2M_ANPR/ANPR_RZA2M_EBK/src/tensorflow_lite/third_party/gemmlowp/fixedpoint\fixedpoint.h ****     return std::numeric_limits<ScalarRawType>::max();
 471:C:/Renesas/e2studio_2021_01_workspace_RZA2M_ANPR/ANPR_RZA2M_EBK/src/tensorflow_lite/third_party/gemmlowp/fixedpoint\fixedpoint.h ****   }
 472:C:/Renesas/e2studio_2021_01_workspace_RZA2M_ANPR/ANPR_RZA2M_EBK/src/tensorflow_lite/third_party/gemmlowp/fixedpoint\fixedpoint.h **** 
 473:C:/Renesas/e2studio_2021_01_workspace_RZA2M_ANPR/ANPR_RZA2M_EBK/src/tensorflow_lite/third_party/gemmlowp/fixedpoint\fixedpoint.h ****   static const ScalarRawType RawMin() {
 474:C:/Renesas/e2studio_2021_01_workspace_RZA2M_ANPR/ANPR_RZA2M_EBK/src/tensorflow_lite/third_party/gemmlowp/fixedpoint\fixedpoint.h ****     return VectorFromScalar(ScalarRawMin());
 475:C:/Renesas/e2studio_2021_01_workspace_RZA2M_ANPR/ANPR_RZA2M_EBK/src/tensorflow_lite/third_party/gemmlowp/fixedpoint\fixedpoint.h ****   }
 476:C:/Renesas/e2studio_2021_01_workspace_RZA2M_ANPR/ANPR_RZA2M_EBK/src/tensorflow_lite/third_party/gemmlowp/fixedpoint\fixedpoint.h **** 
 477:C:/Renesas/e2studio_2021_01_workspace_RZA2M_ANPR/ANPR_RZA2M_EBK/src/tensorflow_lite/third_party/gemmlowp/fixedpoint\fixedpoint.h ****   static const ScalarRawType RawMax() {
 478:C:/Renesas/e2studio_2021_01_workspace_RZA2M_ANPR/ANPR_RZA2M_EBK/src/tensorflow_lite/third_party/gemmlowp/fixedpoint\fixedpoint.h ****     return VectorFromScalar(ScalarRawMax());
 479:C:/Renesas/e2studio_2021_01_workspace_RZA2M_ANPR/ANPR_RZA2M_EBK/src/tensorflow_lite/third_party/gemmlowp/fixedpoint\fixedpoint.h ****   }
 480:C:/Renesas/e2studio_2021_01_workspace_RZA2M_ANPR/ANPR_RZA2M_EBK/src/tensorflow_lite/third_party/gemmlowp/fixedpoint\fixedpoint.h **** 
 481:C:/Renesas/e2studio_2021_01_workspace_RZA2M_ANPR/ANPR_RZA2M_EBK/src/tensorflow_lite/third_party/gemmlowp/fixedpoint\fixedpoint.h ****   static FixedPoint FromRaw(RawType x) {
 482:C:/Renesas/e2studio_2021_01_workspace_RZA2M_ANPR/ANPR_RZA2M_EBK/src/tensorflow_lite/third_party/gemmlowp/fixedpoint\fixedpoint.h ****     FixedPoint retval;
 483:C:/Renesas/e2studio_2021_01_workspace_RZA2M_ANPR/ANPR_RZA2M_EBK/src/tensorflow_lite/third_party/gemmlowp/fixedpoint\fixedpoint.h ****     retval.raw() = x;
 484:C:/Renesas/e2studio_2021_01_workspace_RZA2M_ANPR/ANPR_RZA2M_EBK/src/tensorflow_lite/third_party/gemmlowp/fixedpoint\fixedpoint.h ****     return retval;
 485:C:/Renesas/e2studio_2021_01_workspace_RZA2M_ANPR/ANPR_RZA2M_EBK/src/tensorflow_lite/third_party/gemmlowp/fixedpoint\fixedpoint.h ****   }
 486:C:/Renesas/e2studio_2021_01_workspace_RZA2M_ANPR/ANPR_RZA2M_EBK/src/tensorflow_lite/third_party/gemmlowp/fixedpoint\fixedpoint.h **** 
 487:C:/Renesas/e2studio_2021_01_workspace_RZA2M_ANPR/ANPR_RZA2M_EBK/src/tensorflow_lite/third_party/gemmlowp/fixedpoint\fixedpoint.h ****   static FixedPoint FromScalarRaw(ScalarRawType x) {
 488:C:/Renesas/e2studio_2021_01_workspace_RZA2M_ANPR/ANPR_RZA2M_EBK/src/tensorflow_lite/third_party/gemmlowp/fixedpoint\fixedpoint.h ****     FixedPoint retval;
 489:C:/Renesas/e2studio_2021_01_workspace_RZA2M_ANPR/ANPR_RZA2M_EBK/src/tensorflow_lite/third_party/gemmlowp/fixedpoint\fixedpoint.h ****     retval.raw() = Dup<RawType>(x);
 490:C:/Renesas/e2studio_2021_01_workspace_RZA2M_ANPR/ANPR_RZA2M_EBK/src/tensorflow_lite/third_party/gemmlowp/fixedpoint\fixedpoint.h ****     return retval;
 491:C:/Renesas/e2studio_2021_01_workspace_RZA2M_ANPR/ANPR_RZA2M_EBK/src/tensorflow_lite/third_party/gemmlowp/fixedpoint\fixedpoint.h ****   }
 492:C:/Renesas/e2studio_2021_01_workspace_RZA2M_ANPR/ANPR_RZA2M_EBK/src/tensorflow_lite/third_party/gemmlowp/fixedpoint\fixedpoint.h **** 
 493:C:/Renesas/e2studio_2021_01_workspace_RZA2M_ANPR/ANPR_RZA2M_EBK/src/tensorflow_lite/third_party/gemmlowp/fixedpoint\fixedpoint.h ****   static FixedPoint FromScalarFixedPoint(ScalarFixedPointType x) {
 494:C:/Renesas/e2studio_2021_01_workspace_RZA2M_ANPR/ANPR_RZA2M_EBK/src/tensorflow_lite/third_party/gemmlowp/fixedpoint\fixedpoint.h ****     return FromScalarRaw(x.raw());
 495:C:/Renesas/e2studio_2021_01_workspace_RZA2M_ANPR/ANPR_RZA2M_EBK/src/tensorflow_lite/third_party/gemmlowp/fixedpoint\fixedpoint.h ****   }
 496:C:/Renesas/e2studio_2021_01_workspace_RZA2M_ANPR/ANPR_RZA2M_EBK/src/tensorflow_lite/third_party/gemmlowp/fixedpoint\fixedpoint.h **** 
 497:C:/Renesas/e2studio_2021_01_workspace_RZA2M_ANPR/ANPR_RZA2M_EBK/src/tensorflow_lite/third_party/gemmlowp/fixedpoint\fixedpoint.h ****   template <int Exponent>
 498:C:/Renesas/e2studio_2021_01_workspace_RZA2M_ANPR/ANPR_RZA2M_EBK/src/tensorflow_lite/third_party/gemmlowp/fixedpoint\fixedpoint.h ****   static FixedPoint ConstantPOT() {
 499:C:/Renesas/e2studio_2021_01_workspace_RZA2M_ANPR/ANPR_RZA2M_EBK/src/tensorflow_lite/third_party/gemmlowp/fixedpoint\fixedpoint.h ****     static constexpr int kOffset = kFractionalBits + Exponent;
 500:C:/Renesas/e2studio_2021_01_workspace_RZA2M_ANPR/ANPR_RZA2M_EBK/src/tensorflow_lite/third_party/gemmlowp/fixedpoint\fixedpoint.h ****     static_assert(
 501:C:/Renesas/e2studio_2021_01_workspace_RZA2M_ANPR/ANPR_RZA2M_EBK/src/tensorflow_lite/third_party/gemmlowp/fixedpoint\fixedpoint.h ****         kOffset < 31,
 502:C:/Renesas/e2studio_2021_01_workspace_RZA2M_ANPR/ANPR_RZA2M_EBK/src/tensorflow_lite/third_party/gemmlowp/fixedpoint\fixedpoint.h ****         "Constant not exactly representable in this fixed-point format");
 503:C:/Renesas/e2studio_2021_01_workspace_RZA2M_ANPR/ANPR_RZA2M_EBK/src/tensorflow_lite/third_party/gemmlowp/fixedpoint\fixedpoint.h ****     return FromScalarRaw(ScalarRawType(1) << kOffset);
 504:C:/Renesas/e2studio_2021_01_workspace_RZA2M_ANPR/ANPR_RZA2M_EBK/src/tensorflow_lite/third_party/gemmlowp/fixedpoint\fixedpoint.h ****   }
 505:C:/Renesas/e2studio_2021_01_workspace_RZA2M_ANPR/ANPR_RZA2M_EBK/src/tensorflow_lite/third_party/gemmlowp/fixedpoint\fixedpoint.h **** 
 506:C:/Renesas/e2studio_2021_01_workspace_RZA2M_ANPR/ANPR_RZA2M_EBK/src/tensorflow_lite/third_party/gemmlowp/fixedpoint\fixedpoint.h ****   static FixedPoint Zero() { return FromScalarRaw(0); }
 507:C:/Renesas/e2studio_2021_01_workspace_RZA2M_ANPR/ANPR_RZA2M_EBK/src/tensorflow_lite/third_party/gemmlowp/fixedpoint\fixedpoint.h **** 
 508:C:/Renesas/e2studio_2021_01_workspace_RZA2M_ANPR/ANPR_RZA2M_EBK/src/tensorflow_lite/third_party/gemmlowp/fixedpoint\fixedpoint.h ****   static FixedPoint One() {
 509:C:/Renesas/e2studio_2021_01_workspace_RZA2M_ANPR/ANPR_RZA2M_EBK/src/tensorflow_lite/third_party/gemmlowp/fixedpoint\fixedpoint.h ****     return FromScalarRaw(
 510:C:/Renesas/e2studio_2021_01_workspace_RZA2M_ANPR/ANPR_RZA2M_EBK/src/tensorflow_lite/third_party/gemmlowp/fixedpoint\fixedpoint.h ****         kIntegerBits == 0
 511:C:/Renesas/e2studio_2021_01_workspace_RZA2M_ANPR/ANPR_RZA2M_EBK/src/tensorflow_lite/third_party/gemmlowp/fixedpoint\fixedpoint.h ****             ? ScalarRawMax()
 512:C:/Renesas/e2studio_2021_01_workspace_RZA2M_ANPR/ANPR_RZA2M_EBK/src/tensorflow_lite/third_party/gemmlowp/fixedpoint\fixedpoint.h ****             : (ScalarRawType(1) << (kIntegerBits == 0 ? 0 : kFractionalBits)));
 513:C:/Renesas/e2studio_2021_01_workspace_RZA2M_ANPR/ANPR_RZA2M_EBK/src/tensorflow_lite/third_party/gemmlowp/fixedpoint\fixedpoint.h ****   }
 514:C:/Renesas/e2studio_2021_01_workspace_RZA2M_ANPR/ANPR_RZA2M_EBK/src/tensorflow_lite/third_party/gemmlowp/fixedpoint\fixedpoint.h **** 
 515:C:/Renesas/e2studio_2021_01_workspace_RZA2M_ANPR/ANPR_RZA2M_EBK/src/tensorflow_lite/third_party/gemmlowp/fixedpoint\fixedpoint.h ****   static FixedPoint FromDouble(double x) {
 516:C:/Renesas/e2studio_2021_01_workspace_RZA2M_ANPR/ANPR_RZA2M_EBK/src/tensorflow_lite/third_party/gemmlowp/fixedpoint\fixedpoint.h ****     const double min_bound = static_cast<double>(ScalarRawMin());
 517:C:/Renesas/e2studio_2021_01_workspace_RZA2M_ANPR/ANPR_RZA2M_EBK/src/tensorflow_lite/third_party/gemmlowp/fixedpoint\fixedpoint.h ****     const double max_bound = static_cast<double>(ScalarRawMax());
 518:C:/Renesas/e2studio_2021_01_workspace_RZA2M_ANPR/ANPR_RZA2M_EBK/src/tensorflow_lite/third_party/gemmlowp/fixedpoint\fixedpoint.h ****     return FromScalarRaw(static_cast<ScalarRawType>(std::min(
 519:C:/Renesas/e2studio_2021_01_workspace_RZA2M_ANPR/ANPR_RZA2M_EBK/src/tensorflow_lite/third_party/gemmlowp/fixedpoint\fixedpoint.h ****         std::max(round(x * static_cast<double>(1ll << kFractionalBits)),
 520:C:/Renesas/e2studio_2021_01_workspace_RZA2M_ANPR/ANPR_RZA2M_EBK/src/tensorflow_lite/third_party/gemmlowp/fixedpoint\fixedpoint.h ****                  min_bound),
 521:C:/Renesas/e2studio_2021_01_workspace_RZA2M_ANPR/ANPR_RZA2M_EBK/src/tensorflow_lite/third_party/gemmlowp/fixedpoint\fixedpoint.h ****         max_bound)));
 522:C:/Renesas/e2studio_2021_01_workspace_RZA2M_ANPR/ANPR_RZA2M_EBK/src/tensorflow_lite/third_party/gemmlowp/fixedpoint\fixedpoint.h ****   }
 523:C:/Renesas/e2studio_2021_01_workspace_RZA2M_ANPR/ANPR_RZA2M_EBK/src/tensorflow_lite/third_party/gemmlowp/fixedpoint\fixedpoint.h **** 
 524:C:/Renesas/e2studio_2021_01_workspace_RZA2M_ANPR/ANPR_RZA2M_EBK/src/tensorflow_lite/third_party/gemmlowp/fixedpoint\fixedpoint.h ****   RawType raw() const { return i_; }
 525:C:/Renesas/e2studio_2021_01_workspace_RZA2M_ANPR/ANPR_RZA2M_EBK/src/tensorflow_lite/third_party/gemmlowp/fixedpoint\fixedpoint.h ****   RawType& raw() { return i_; }
 526:C:/Renesas/e2studio_2021_01_workspace_RZA2M_ANPR/ANPR_RZA2M_EBK/src/tensorflow_lite/third_party/gemmlowp/fixedpoint\fixedpoint.h **** 
 527:C:/Renesas/e2studio_2021_01_workspace_RZA2M_ANPR/ANPR_RZA2M_EBK/src/tensorflow_lite/third_party/gemmlowp/fixedpoint\fixedpoint.h ****  private:
 528:C:/Renesas/e2studio_2021_01_workspace_RZA2M_ANPR/ANPR_RZA2M_EBK/src/tensorflow_lite/third_party/gemmlowp/fixedpoint\fixedpoint.h ****   RawType i_;
 529:C:/Renesas/e2studio_2021_01_workspace_RZA2M_ANPR/ANPR_RZA2M_EBK/src/tensorflow_lite/third_party/gemmlowp/fixedpoint\fixedpoint.h **** };
 530:C:/Renesas/e2studio_2021_01_workspace_RZA2M_ANPR/ANPR_RZA2M_EBK/src/tensorflow_lite/third_party/gemmlowp/fixedpoint\fixedpoint.h **** 
 531:C:/Renesas/e2studio_2021_01_workspace_RZA2M_ANPR/ANPR_RZA2M_EBK/src/tensorflow_lite/third_party/gemmlowp/fixedpoint\fixedpoint.h **** // Part 3: implementation of arithmetic operators for the
 532:C:/Renesas/e2studio_2021_01_workspace_RZA2M_ANPR/ANPR_RZA2M_EBK/src/tensorflow_lite/third_party/gemmlowp/fixedpoint\fixedpoint.h **** // FixedPoint class, and a few related functions.
 533:C:/Renesas/e2studio_2021_01_workspace_RZA2M_ANPR/ANPR_RZA2M_EBK/src/tensorflow_lite/third_party/gemmlowp/fixedpoint\fixedpoint.h **** 
 534:C:/Renesas/e2studio_2021_01_workspace_RZA2M_ANPR/ANPR_RZA2M_EBK/src/tensorflow_lite/third_party/gemmlowp/fixedpoint\fixedpoint.h **** // A FixedPoint multiplication is just a
 535:C:/Renesas/e2studio_2021_01_workspace_RZA2M_ANPR/ANPR_RZA2M_EBK/src/tensorflow_lite/third_party/gemmlowp/fixedpoint\fixedpoint.h **** // SaturatingRoundingDoublingHighMul operation on the underlying
 536:C:/Renesas/e2studio_2021_01_workspace_RZA2M_ANPR/ANPR_RZA2M_EBK/src/tensorflow_lite/third_party/gemmlowp/fixedpoint\fixedpoint.h **** // raw integer values. The IntegerBits simply add up, as is obvious
 537:C:/Renesas/e2studio_2021_01_workspace_RZA2M_ANPR/ANPR_RZA2M_EBK/src/tensorflow_lite/third_party/gemmlowp/fixedpoint\fixedpoint.h **** // from the fact that the range is [-2^IntegerBits, 2^IntegerBits).
 538:C:/Renesas/e2studio_2021_01_workspace_RZA2M_ANPR/ANPR_RZA2M_EBK/src/tensorflow_lite/third_party/gemmlowp/fixedpoint\fixedpoint.h **** template <typename tRawType, int tIntegerBits_a, int tIntegerBits_b>
 539:C:/Renesas/e2studio_2021_01_workspace_RZA2M_ANPR/ANPR_RZA2M_EBK/src/tensorflow_lite/third_party/gemmlowp/fixedpoint\fixedpoint.h **** FixedPoint<tRawType, tIntegerBits_a + tIntegerBits_b> operator*(
 540:C:/Renesas/e2studio_2021_01_workspace_RZA2M_ANPR/ANPR_RZA2M_EBK/src/tensorflow_lite/third_party/gemmlowp/fixedpoint\fixedpoint.h ****     FixedPoint<tRawType, tIntegerBits_a> a,
 541:C:/Renesas/e2studio_2021_01_workspace_RZA2M_ANPR/ANPR_RZA2M_EBK/src/tensorflow_lite/third_party/gemmlowp/fixedpoint\fixedpoint.h ****     FixedPoint<tRawType, tIntegerBits_b> b) {
 542:C:/Renesas/e2studio_2021_01_workspace_RZA2M_ANPR/ANPR_RZA2M_EBK/src/tensorflow_lite/third_party/gemmlowp/fixedpoint\fixedpoint.h ****   FixedPoint<tRawType, tIntegerBits_a + tIntegerBits_b> c;
 543:C:/Renesas/e2studio_2021_01_workspace_RZA2M_ANPR/ANPR_RZA2M_EBK/src/tensorflow_lite/third_party/gemmlowp/fixedpoint\fixedpoint.h ****   c.raw() = SaturatingRoundingDoublingHighMul(a.raw(), b.raw());
 544:C:/Renesas/e2studio_2021_01_workspace_RZA2M_ANPR/ANPR_RZA2M_EBK/src/tensorflow_lite/third_party/gemmlowp/fixedpoint\fixedpoint.h ****   return c;
 545:C:/Renesas/e2studio_2021_01_workspace_RZA2M_ANPR/ANPR_RZA2M_EBK/src/tensorflow_lite/third_party/gemmlowp/fixedpoint\fixedpoint.h **** }
 546:C:/Renesas/e2studio_2021_01_workspace_RZA2M_ANPR/ANPR_RZA2M_EBK/src/tensorflow_lite/third_party/gemmlowp/fixedpoint\fixedpoint.h **** 
 547:C:/Renesas/e2studio_2021_01_workspace_RZA2M_ANPR/ANPR_RZA2M_EBK/src/tensorflow_lite/third_party/gemmlowp/fixedpoint\fixedpoint.h **** // Tweaking IntegerBits gives exact multiplication by a power of two.
 548:C:/Renesas/e2studio_2021_01_workspace_RZA2M_ANPR/ANPR_RZA2M_EBK/src/tensorflow_lite/third_party/gemmlowp/fixedpoint\fixedpoint.h **** template <int tExponent, typename tRawType, int tIntegerBits>
 549:C:/Renesas/e2studio_2021_01_workspace_RZA2M_ANPR/ANPR_RZA2M_EBK/src/tensorflow_lite/third_party/gemmlowp/fixedpoint\fixedpoint.h **** FixedPoint<tRawType, tExponent + tIntegerBits> ExactMulByPot(
 550:C:/Renesas/e2studio_2021_01_workspace_RZA2M_ANPR/ANPR_RZA2M_EBK/src/tensorflow_lite/third_party/gemmlowp/fixedpoint\fixedpoint.h ****     FixedPoint<tRawType, tIntegerBits> a) {
 551:C:/Renesas/e2studio_2021_01_workspace_RZA2M_ANPR/ANPR_RZA2M_EBK/src/tensorflow_lite/third_party/gemmlowp/fixedpoint\fixedpoint.h ****   FixedPoint<tRawType, tExponent + tIntegerBits> c;
 552:C:/Renesas/e2studio_2021_01_workspace_RZA2M_ANPR/ANPR_RZA2M_EBK/src/tensorflow_lite/third_party/gemmlowp/fixedpoint\fixedpoint.h ****   c.raw() = a.raw();
 553:C:/Renesas/e2studio_2021_01_workspace_RZA2M_ANPR/ANPR_RZA2M_EBK/src/tensorflow_lite/third_party/gemmlowp/fixedpoint\fixedpoint.h ****   return c;
 554:C:/Renesas/e2studio_2021_01_workspace_RZA2M_ANPR/ANPR_RZA2M_EBK/src/tensorflow_lite/third_party/gemmlowp/fixedpoint\fixedpoint.h **** }
 555:C:/Renesas/e2studio_2021_01_workspace_RZA2M_ANPR/ANPR_RZA2M_EBK/src/tensorflow_lite/third_party/gemmlowp/fixedpoint\fixedpoint.h **** 
 556:C:/Renesas/e2studio_2021_01_workspace_RZA2M_ANPR/ANPR_RZA2M_EBK/src/tensorflow_lite/third_party/gemmlowp/fixedpoint\fixedpoint.h **** // If we want to leave IntegerBits fixed, then multiplication
 557:C:/Renesas/e2studio_2021_01_workspace_RZA2M_ANPR/ANPR_RZA2M_EBK/src/tensorflow_lite/third_party/gemmlowp/fixedpoint\fixedpoint.h **** // by a power of two has to be saturating/rounding, not exact anymore.
 558:C:/Renesas/e2studio_2021_01_workspace_RZA2M_ANPR/ANPR_RZA2M_EBK/src/tensorflow_lite/third_party/gemmlowp/fixedpoint\fixedpoint.h **** template <int tExponent, typename tRawType, int tIntegerBits>
 559:C:/Renesas/e2studio_2021_01_workspace_RZA2M_ANPR/ANPR_RZA2M_EBK/src/tensorflow_lite/third_party/gemmlowp/fixedpoint\fixedpoint.h **** FixedPoint<tRawType, tIntegerBits> SaturatingRoundingMultiplyByPOT(
 560:C:/Renesas/e2studio_2021_01_workspace_RZA2M_ANPR/ANPR_RZA2M_EBK/src/tensorflow_lite/third_party/gemmlowp/fixedpoint\fixedpoint.h ****     FixedPoint<tRawType, tIntegerBits> a) {
 561:C:/Renesas/e2studio_2021_01_workspace_RZA2M_ANPR/ANPR_RZA2M_EBK/src/tensorflow_lite/third_party/gemmlowp/fixedpoint\fixedpoint.h ****   return FixedPoint<tRawType, tIntegerBits>::FromRaw(
 562:C:/Renesas/e2studio_2021_01_workspace_RZA2M_ANPR/ANPR_RZA2M_EBK/src/tensorflow_lite/third_party/gemmlowp/fixedpoint\fixedpoint.h ****       SaturatingRoundingMultiplyByPOT<tExponent>(a.raw()));
 563:C:/Renesas/e2studio_2021_01_workspace_RZA2M_ANPR/ANPR_RZA2M_EBK/src/tensorflow_lite/third_party/gemmlowp/fixedpoint\fixedpoint.h **** }
 564:C:/Renesas/e2studio_2021_01_workspace_RZA2M_ANPR/ANPR_RZA2M_EBK/src/tensorflow_lite/third_party/gemmlowp/fixedpoint\fixedpoint.h **** 
 565:C:/Renesas/e2studio_2021_01_workspace_RZA2M_ANPR/ANPR_RZA2M_EBK/src/tensorflow_lite/third_party/gemmlowp/fixedpoint\fixedpoint.h **** // Generic arithmetic operators.
 566:C:/Renesas/e2studio_2021_01_workspace_RZA2M_ANPR/ANPR_RZA2M_EBK/src/tensorflow_lite/third_party/gemmlowp/fixedpoint\fixedpoint.h **** 
 567:C:/Renesas/e2studio_2021_01_workspace_RZA2M_ANPR/ANPR_RZA2M_EBK/src/tensorflow_lite/third_party/gemmlowp/fixedpoint\fixedpoint.h **** #define MAKE_FIXEDPOINT_UNARY_FUNC(FuncName, ImplFuncName)                     \
 568:C:/Renesas/e2studio_2021_01_workspace_RZA2M_ANPR/ANPR_RZA2M_EBK/src/tensorflow_lite/third_party/gemmlowp/fixedpoint\fixedpoint.h ****   template <typename tRawType, int tIntegerBits>                               \
 569:C:/Renesas/e2studio_2021_01_workspace_RZA2M_ANPR/ANPR_RZA2M_EBK/src/tensorflow_lite/third_party/gemmlowp/fixedpoint\fixedpoint.h ****   FixedPoint<tRawType, tIntegerBits> FuncName(                                 \
 570:C:/Renesas/e2studio_2021_01_workspace_RZA2M_ANPR/ANPR_RZA2M_EBK/src/tensorflow_lite/third_party/gemmlowp/fixedpoint\fixedpoint.h ****       FixedPoint<tRawType, tIntegerBits> a) {                                  \
 571:C:/Renesas/e2studio_2021_01_workspace_RZA2M_ANPR/ANPR_RZA2M_EBK/src/tensorflow_lite/third_party/gemmlowp/fixedpoint\fixedpoint.h ****     return FixedPoint<tRawType, tIntegerBits>::FromRaw(ImplFuncName(a.raw())); \
 572:C:/Renesas/e2studio_2021_01_workspace_RZA2M_ANPR/ANPR_RZA2M_EBK/src/tensorflow_lite/third_party/gemmlowp/fixedpoint\fixedpoint.h ****   }
 573:C:/Renesas/e2studio_2021_01_workspace_RZA2M_ANPR/ANPR_RZA2M_EBK/src/tensorflow_lite/third_party/gemmlowp/fixedpoint\fixedpoint.h **** 
 574:C:/Renesas/e2studio_2021_01_workspace_RZA2M_ANPR/ANPR_RZA2M_EBK/src/tensorflow_lite/third_party/gemmlowp/fixedpoint\fixedpoint.h **** #define MAKE_FIXEDPOINT_BINARY_FUNC(FuncName, ImplFuncName) \
 575:C:/Renesas/e2studio_2021_01_workspace_RZA2M_ANPR/ANPR_RZA2M_EBK/src/tensorflow_lite/third_party/gemmlowp/fixedpoint\fixedpoint.h ****   template <typename tRawType, int tIntegerBits>            \
 576:C:/Renesas/e2studio_2021_01_workspace_RZA2M_ANPR/ANPR_RZA2M_EBK/src/tensorflow_lite/third_party/gemmlowp/fixedpoint\fixedpoint.h ****   FixedPoint<tRawType, tIntegerBits> FuncName(              \
 577:C:/Renesas/e2studio_2021_01_workspace_RZA2M_ANPR/ANPR_RZA2M_EBK/src/tensorflow_lite/third_party/gemmlowp/fixedpoint\fixedpoint.h ****       FixedPoint<tRawType, tIntegerBits> a,                 \
 578:C:/Renesas/e2studio_2021_01_workspace_RZA2M_ANPR/ANPR_RZA2M_EBK/src/tensorflow_lite/third_party/gemmlowp/fixedpoint\fixedpoint.h ****       FixedPoint<tRawType, tIntegerBits> b) {               \
 579:C:/Renesas/e2studio_2021_01_workspace_RZA2M_ANPR/ANPR_RZA2M_EBK/src/tensorflow_lite/third_party/gemmlowp/fixedpoint\fixedpoint.h ****     return FixedPoint<tRawType, tIntegerBits>::FromRaw(     \
 580:C:/Renesas/e2studio_2021_01_workspace_RZA2M_ANPR/ANPR_RZA2M_EBK/src/tensorflow_lite/third_party/gemmlowp/fixedpoint\fixedpoint.h ****         ImplFuncName(a.raw(), b.raw()));                    \
 581:C:/Renesas/e2studio_2021_01_workspace_RZA2M_ANPR/ANPR_RZA2M_EBK/src/tensorflow_lite/third_party/gemmlowp/fixedpoint\fixedpoint.h ****   }
 582:C:/Renesas/e2studio_2021_01_workspace_RZA2M_ANPR/ANPR_RZA2M_EBK/src/tensorflow_lite/third_party/gemmlowp/fixedpoint\fixedpoint.h **** 
 583:C:/Renesas/e2studio_2021_01_workspace_RZA2M_ANPR/ANPR_RZA2M_EBK/src/tensorflow_lite/third_party/gemmlowp/fixedpoint\fixedpoint.h **** MAKE_FIXEDPOINT_UNARY_FUNC(operator-, Neg)
 584:C:/Renesas/e2studio_2021_01_workspace_RZA2M_ANPR/ANPR_RZA2M_EBK/src/tensorflow_lite/third_party/gemmlowp/fixedpoint\fixedpoint.h **** MAKE_FIXEDPOINT_UNARY_FUNC(operator~, BitNot)
 585:C:/Renesas/e2studio_2021_01_workspace_RZA2M_ANPR/ANPR_RZA2M_EBK/src/tensorflow_lite/third_party/gemmlowp/fixedpoint\fixedpoint.h **** MAKE_FIXEDPOINT_BINARY_FUNC(operator+, Add)
 586:C:/Renesas/e2studio_2021_01_workspace_RZA2M_ANPR/ANPR_RZA2M_EBK/src/tensorflow_lite/third_party/gemmlowp/fixedpoint\fixedpoint.h **** MAKE_FIXEDPOINT_BINARY_FUNC(operator-, Sub)
 587:C:/Renesas/e2studio_2021_01_workspace_RZA2M_ANPR/ANPR_RZA2M_EBK/src/tensorflow_lite/third_party/gemmlowp/fixedpoint\fixedpoint.h **** MAKE_FIXEDPOINT_BINARY_FUNC(operator&, BitAnd)
 588:C:/Renesas/e2studio_2021_01_workspace_RZA2M_ANPR/ANPR_RZA2M_EBK/src/tensorflow_lite/third_party/gemmlowp/fixedpoint\fixedpoint.h **** MAKE_FIXEDPOINT_BINARY_FUNC(operator^, BitXor)
 589:C:/Renesas/e2studio_2021_01_workspace_RZA2M_ANPR/ANPR_RZA2M_EBK/src/tensorflow_lite/third_party/gemmlowp/fixedpoint\fixedpoint.h **** MAKE_FIXEDPOINT_BINARY_FUNC(operator|, BitOr)
 590:C:/Renesas/e2studio_2021_01_workspace_RZA2M_ANPR/ANPR_RZA2M_EBK/src/tensorflow_lite/third_party/gemmlowp/fixedpoint\fixedpoint.h **** MAKE_FIXEDPOINT_BINARY_FUNC(RoundingHalfSum, RoundingHalfSum)
 591:C:/Renesas/e2studio_2021_01_workspace_RZA2M_ANPR/ANPR_RZA2M_EBK/src/tensorflow_lite/third_party/gemmlowp/fixedpoint\fixedpoint.h **** 
 592:C:/Renesas/e2studio_2021_01_workspace_RZA2M_ANPR/ANPR_RZA2M_EBK/src/tensorflow_lite/third_party/gemmlowp/fixedpoint\fixedpoint.h **** #undef MAKE_FIXEDPOINT_UNARY_FUNC
 593:C:/Renesas/e2studio_2021_01_workspace_RZA2M_ANPR/ANPR_RZA2M_EBK/src/tensorflow_lite/third_party/gemmlowp/fixedpoint\fixedpoint.h **** #undef MAKE_FIXEDPOINT_BINARY_FUNC
 594:C:/Renesas/e2studio_2021_01_workspace_RZA2M_ANPR/ANPR_RZA2M_EBK/src/tensorflow_lite/third_party/gemmlowp/fixedpoint\fixedpoint.h **** 
 595:C:/Renesas/e2studio_2021_01_workspace_RZA2M_ANPR/ANPR_RZA2M_EBK/src/tensorflow_lite/third_party/gemmlowp/fixedpoint\fixedpoint.h **** #define MAKE_FIXEDPOINT_UNARY_FUNC_RETURNING_RAW(FuncName)  \
 596:C:/Renesas/e2studio_2021_01_workspace_RZA2M_ANPR/ANPR_RZA2M_EBK/src/tensorflow_lite/third_party/gemmlowp/fixedpoint\fixedpoint.h ****   template <typename tRawType, int tIntegerBits>            \
 597:C:/Renesas/e2studio_2021_01_workspace_RZA2M_ANPR/ANPR_RZA2M_EBK/src/tensorflow_lite/third_party/gemmlowp/fixedpoint\fixedpoint.h ****   tRawType FuncName(FixedPoint<tRawType, tIntegerBits> a) { \
 598:C:/Renesas/e2studio_2021_01_workspace_RZA2M_ANPR/ANPR_RZA2M_EBK/src/tensorflow_lite/third_party/gemmlowp/fixedpoint\fixedpoint.h ****     return FuncName(a.raw());                               \
 599:C:/Renesas/e2studio_2021_01_workspace_RZA2M_ANPR/ANPR_RZA2M_EBK/src/tensorflow_lite/third_party/gemmlowp/fixedpoint\fixedpoint.h ****   }
 600:C:/Renesas/e2studio_2021_01_workspace_RZA2M_ANPR/ANPR_RZA2M_EBK/src/tensorflow_lite/third_party/gemmlowp/fixedpoint\fixedpoint.h **** 
 601:C:/Renesas/e2studio_2021_01_workspace_RZA2M_ANPR/ANPR_RZA2M_EBK/src/tensorflow_lite/third_party/gemmlowp/fixedpoint\fixedpoint.h **** #define MAKE_FIXEDPOINT_BINARY_FUNC_RETURNING_RAW(FuncName) \
 602:C:/Renesas/e2studio_2021_01_workspace_RZA2M_ANPR/ANPR_RZA2M_EBK/src/tensorflow_lite/third_party/gemmlowp/fixedpoint\fixedpoint.h ****   template <typename tRawType, int tIntegerBits>            \
 603:C:/Renesas/e2studio_2021_01_workspace_RZA2M_ANPR/ANPR_RZA2M_EBK/src/tensorflow_lite/third_party/gemmlowp/fixedpoint\fixedpoint.h ****   tRawType FuncName(FixedPoint<tRawType, tIntegerBits> a,   \
 604:C:/Renesas/e2studio_2021_01_workspace_RZA2M_ANPR/ANPR_RZA2M_EBK/src/tensorflow_lite/third_party/gemmlowp/fixedpoint\fixedpoint.h ****                     FixedPoint<tRawType, tIntegerBits> b) { \
 605:C:/Renesas/e2studio_2021_01_workspace_RZA2M_ANPR/ANPR_RZA2M_EBK/src/tensorflow_lite/third_party/gemmlowp/fixedpoint\fixedpoint.h ****     return FuncName(a.raw(), b.raw());                      \
 606:C:/Renesas/e2studio_2021_01_workspace_RZA2M_ANPR/ANPR_RZA2M_EBK/src/tensorflow_lite/third_party/gemmlowp/fixedpoint\fixedpoint.h ****   }
 607:C:/Renesas/e2studio_2021_01_workspace_RZA2M_ANPR/ANPR_RZA2M_EBK/src/tensorflow_lite/third_party/gemmlowp/fixedpoint\fixedpoint.h **** 
 608:C:/Renesas/e2studio_2021_01_workspace_RZA2M_ANPR/ANPR_RZA2M_EBK/src/tensorflow_lite/third_party/gemmlowp/fixedpoint\fixedpoint.h **** MAKE_FIXEDPOINT_UNARY_FUNC_RETURNING_RAW(MaskIfZero)
 609:C:/Renesas/e2studio_2021_01_workspace_RZA2M_ANPR/ANPR_RZA2M_EBK/src/tensorflow_lite/third_party/gemmlowp/fixedpoint\fixedpoint.h **** MAKE_FIXEDPOINT_UNARY_FUNC_RETURNING_RAW(MaskIfNonZero)
 610:C:/Renesas/e2studio_2021_01_workspace_RZA2M_ANPR/ANPR_RZA2M_EBK/src/tensorflow_lite/third_party/gemmlowp/fixedpoint\fixedpoint.h **** MAKE_FIXEDPOINT_BINARY_FUNC_RETURNING_RAW(MaskIfEqual)
 611:C:/Renesas/e2studio_2021_01_workspace_RZA2M_ANPR/ANPR_RZA2M_EBK/src/tensorflow_lite/third_party/gemmlowp/fixedpoint\fixedpoint.h **** MAKE_FIXEDPOINT_BINARY_FUNC_RETURNING_RAW(MaskIfNotEqual)
 612:C:/Renesas/e2studio_2021_01_workspace_RZA2M_ANPR/ANPR_RZA2M_EBK/src/tensorflow_lite/third_party/gemmlowp/fixedpoint\fixedpoint.h **** MAKE_FIXEDPOINT_BINARY_FUNC_RETURNING_RAW(MaskIfGreaterThan)
 613:C:/Renesas/e2studio_2021_01_workspace_RZA2M_ANPR/ANPR_RZA2M_EBK/src/tensorflow_lite/third_party/gemmlowp/fixedpoint\fixedpoint.h **** MAKE_FIXEDPOINT_BINARY_FUNC_RETURNING_RAW(MaskIfGreaterThanOrEqual)
 614:C:/Renesas/e2studio_2021_01_workspace_RZA2M_ANPR/ANPR_RZA2M_EBK/src/tensorflow_lite/third_party/gemmlowp/fixedpoint\fixedpoint.h **** MAKE_FIXEDPOINT_BINARY_FUNC_RETURNING_RAW(MaskIfLessThan)
 615:C:/Renesas/e2studio_2021_01_workspace_RZA2M_ANPR/ANPR_RZA2M_EBK/src/tensorflow_lite/third_party/gemmlowp/fixedpoint\fixedpoint.h **** MAKE_FIXEDPOINT_BINARY_FUNC_RETURNING_RAW(MaskIfLessThanOrEqual)
 616:C:/Renesas/e2studio_2021_01_workspace_RZA2M_ANPR/ANPR_RZA2M_EBK/src/tensorflow_lite/third_party/gemmlowp/fixedpoint\fixedpoint.h **** 
 617:C:/Renesas/e2studio_2021_01_workspace_RZA2M_ANPR/ANPR_RZA2M_EBK/src/tensorflow_lite/third_party/gemmlowp/fixedpoint\fixedpoint.h **** #undef MAKE_FIXEDPOINT_UNARY_FUNC_RETURNING_RAW
 618:C:/Renesas/e2studio_2021_01_workspace_RZA2M_ANPR/ANPR_RZA2M_EBK/src/tensorflow_lite/third_party/gemmlowp/fixedpoint\fixedpoint.h **** #undef MAKE_FIXEDPOINT_BINARY_FUNC_RETURNING_RAW
 619:C:/Renesas/e2studio_2021_01_workspace_RZA2M_ANPR/ANPR_RZA2M_EBK/src/tensorflow_lite/third_party/gemmlowp/fixedpoint\fixedpoint.h **** 
 620:C:/Renesas/e2studio_2021_01_workspace_RZA2M_ANPR/ANPR_RZA2M_EBK/src/tensorflow_lite/third_party/gemmlowp/fixedpoint\fixedpoint.h **** template <typename tRawType, int tIntegerBits>
 621:C:/Renesas/e2studio_2021_01_workspace_RZA2M_ANPR/ANPR_RZA2M_EBK/src/tensorflow_lite/third_party/gemmlowp/fixedpoint\fixedpoint.h **** FixedPoint<tRawType, tIntegerBits> SelectUsingMask(
 622:C:/Renesas/e2studio_2021_01_workspace_RZA2M_ANPR/ANPR_RZA2M_EBK/src/tensorflow_lite/third_party/gemmlowp/fixedpoint\fixedpoint.h ****     tRawType if_mask, FixedPoint<tRawType, tIntegerBits> then_val,
 623:C:/Renesas/e2studio_2021_01_workspace_RZA2M_ANPR/ANPR_RZA2M_EBK/src/tensorflow_lite/third_party/gemmlowp/fixedpoint\fixedpoint.h ****     FixedPoint<tRawType, tIntegerBits> else_val) {
 624:C:/Renesas/e2studio_2021_01_workspace_RZA2M_ANPR/ANPR_RZA2M_EBK/src/tensorflow_lite/third_party/gemmlowp/fixedpoint\fixedpoint.h ****   return FixedPoint<tRawType, tIntegerBits>::FromRaw(
 625:C:/Renesas/e2studio_2021_01_workspace_RZA2M_ANPR/ANPR_RZA2M_EBK/src/tensorflow_lite/third_party/gemmlowp/fixedpoint\fixedpoint.h ****       SelectUsingMask(if_mask, then_val.raw(), else_val.raw()));
 626:C:/Renesas/e2studio_2021_01_workspace_RZA2M_ANPR/ANPR_RZA2M_EBK/src/tensorflow_lite/third_party/gemmlowp/fixedpoint\fixedpoint.h **** }
 627:C:/Renesas/e2studio_2021_01_workspace_RZA2M_ANPR/ANPR_RZA2M_EBK/src/tensorflow_lite/third_party/gemmlowp/fixedpoint\fixedpoint.h **** 
 628:C:/Renesas/e2studio_2021_01_workspace_RZA2M_ANPR/ANPR_RZA2M_EBK/src/tensorflow_lite/third_party/gemmlowp/fixedpoint\fixedpoint.h **** template <typename tRawType, int tIntegerBits>
 629:C:/Renesas/e2studio_2021_01_workspace_RZA2M_ANPR/ANPR_RZA2M_EBK/src/tensorflow_lite/third_party/gemmlowp/fixedpoint\fixedpoint.h **** bool operator==(FixedPoint<tRawType, tIntegerBits> a,
 630:C:/Renesas/e2studio_2021_01_workspace_RZA2M_ANPR/ANPR_RZA2M_EBK/src/tensorflow_lite/third_party/gemmlowp/fixedpoint\fixedpoint.h ****                 FixedPoint<tRawType, tIntegerBits> b) {
 631:C:/Renesas/e2studio_2021_01_workspace_RZA2M_ANPR/ANPR_RZA2M_EBK/src/tensorflow_lite/third_party/gemmlowp/fixedpoint\fixedpoint.h ****   return All(MaskIfEqual(a.raw(), b.raw()));
 632:C:/Renesas/e2studio_2021_01_workspace_RZA2M_ANPR/ANPR_RZA2M_EBK/src/tensorflow_lite/third_party/gemmlowp/fixedpoint\fixedpoint.h **** }
 633:C:/Renesas/e2studio_2021_01_workspace_RZA2M_ANPR/ANPR_RZA2M_EBK/src/tensorflow_lite/third_party/gemmlowp/fixedpoint\fixedpoint.h **** 
 634:C:/Renesas/e2studio_2021_01_workspace_RZA2M_ANPR/ANPR_RZA2M_EBK/src/tensorflow_lite/third_party/gemmlowp/fixedpoint\fixedpoint.h **** template <typename tRawType, int tIntegerBits>
 635:C:/Renesas/e2studio_2021_01_workspace_RZA2M_ANPR/ANPR_RZA2M_EBK/src/tensorflow_lite/third_party/gemmlowp/fixedpoint\fixedpoint.h **** bool operator!=(FixedPoint<tRawType, tIntegerBits> a,
 636:C:/Renesas/e2studio_2021_01_workspace_RZA2M_ANPR/ANPR_RZA2M_EBK/src/tensorflow_lite/third_party/gemmlowp/fixedpoint\fixedpoint.h ****                 FixedPoint<tRawType, tIntegerBits> b) {
 637:C:/Renesas/e2studio_2021_01_workspace_RZA2M_ANPR/ANPR_RZA2M_EBK/src/tensorflow_lite/third_party/gemmlowp/fixedpoint\fixedpoint.h ****   return !(a == b);
 638:C:/Renesas/e2studio_2021_01_workspace_RZA2M_ANPR/ANPR_RZA2M_EBK/src/tensorflow_lite/third_party/gemmlowp/fixedpoint\fixedpoint.h **** }
 639:C:/Renesas/e2studio_2021_01_workspace_RZA2M_ANPR/ANPR_RZA2M_EBK/src/tensorflow_lite/third_party/gemmlowp/fixedpoint\fixedpoint.h **** 
 640:C:/Renesas/e2studio_2021_01_workspace_RZA2M_ANPR/ANPR_RZA2M_EBK/src/tensorflow_lite/third_party/gemmlowp/fixedpoint\fixedpoint.h **** template <typename tRawType, int tIntegerBits>
 641:C:/Renesas/e2studio_2021_01_workspace_RZA2M_ANPR/ANPR_RZA2M_EBK/src/tensorflow_lite/third_party/gemmlowp/fixedpoint\fixedpoint.h **** FixedPoint<tRawType, tIntegerBits> SaturatingAdd(
 642:C:/Renesas/e2studio_2021_01_workspace_RZA2M_ANPR/ANPR_RZA2M_EBK/src/tensorflow_lite/third_party/gemmlowp/fixedpoint\fixedpoint.h ****     FixedPoint<tRawType, tIntegerBits> a,
 643:C:/Renesas/e2studio_2021_01_workspace_RZA2M_ANPR/ANPR_RZA2M_EBK/src/tensorflow_lite/third_party/gemmlowp/fixedpoint\fixedpoint.h ****     FixedPoint<tRawType, tIntegerBits> b) {
 644:C:/Renesas/e2studio_2021_01_workspace_RZA2M_ANPR/ANPR_RZA2M_EBK/src/tensorflow_lite/third_party/gemmlowp/fixedpoint\fixedpoint.h ****   return FixedPoint<tRawType, tIntegerBits>::FromRaw(
 645:C:/Renesas/e2studio_2021_01_workspace_RZA2M_ANPR/ANPR_RZA2M_EBK/src/tensorflow_lite/third_party/gemmlowp/fixedpoint\fixedpoint.h ****       SaturatingAdd(a.raw(), b.raw()));
 646:C:/Renesas/e2studio_2021_01_workspace_RZA2M_ANPR/ANPR_RZA2M_EBK/src/tensorflow_lite/third_party/gemmlowp/fixedpoint\fixedpoint.h **** }
 647:C:/Renesas/e2studio_2021_01_workspace_RZA2M_ANPR/ANPR_RZA2M_EBK/src/tensorflow_lite/third_party/gemmlowp/fixedpoint\fixedpoint.h **** 
 648:C:/Renesas/e2studio_2021_01_workspace_RZA2M_ANPR/ANPR_RZA2M_EBK/src/tensorflow_lite/third_party/gemmlowp/fixedpoint\fixedpoint.h **** template <typename tRawType, int tIntegerBits>
 649:C:/Renesas/e2studio_2021_01_workspace_RZA2M_ANPR/ANPR_RZA2M_EBK/src/tensorflow_lite/third_party/gemmlowp/fixedpoint\fixedpoint.h **** FixedPoint<tRawType, tIntegerBits> AddSaturatingIf16Bit(
 650:C:/Renesas/e2studio_2021_01_workspace_RZA2M_ANPR/ANPR_RZA2M_EBK/src/tensorflow_lite/third_party/gemmlowp/fixedpoint\fixedpoint.h ****     FixedPoint<tRawType, tIntegerBits> a,
 651:C:/Renesas/e2studio_2021_01_workspace_RZA2M_ANPR/ANPR_RZA2M_EBK/src/tensorflow_lite/third_party/gemmlowp/fixedpoint\fixedpoint.h ****     FixedPoint<tRawType, tIntegerBits> b) {
 652:C:/Renesas/e2studio_2021_01_workspace_RZA2M_ANPR/ANPR_RZA2M_EBK/src/tensorflow_lite/third_party/gemmlowp/fixedpoint\fixedpoint.h ****   return FixedPoint<tRawType, tIntegerBits>::FromRaw(
 653:C:/Renesas/e2studio_2021_01_workspace_RZA2M_ANPR/ANPR_RZA2M_EBK/src/tensorflow_lite/third_party/gemmlowp/fixedpoint\fixedpoint.h ****       AddSaturatingIf16Bit(a.raw(), b.raw()));
 654:C:/Renesas/e2studio_2021_01_workspace_RZA2M_ANPR/ANPR_RZA2M_EBK/src/tensorflow_lite/third_party/gemmlowp/fixedpoint\fixedpoint.h **** }
 655:C:/Renesas/e2studio_2021_01_workspace_RZA2M_ANPR/ANPR_RZA2M_EBK/src/tensorflow_lite/third_party/gemmlowp/fixedpoint\fixedpoint.h **** 
 656:C:/Renesas/e2studio_2021_01_workspace_RZA2M_ANPR/ANPR_RZA2M_EBK/src/tensorflow_lite/third_party/gemmlowp/fixedpoint\fixedpoint.h **** // Conversion to floating-point.
 657:C:/Renesas/e2studio_2021_01_workspace_RZA2M_ANPR/ANPR_RZA2M_EBK/src/tensorflow_lite/third_party/gemmlowp/fixedpoint\fixedpoint.h **** template <typename tRawType, int tIntegerBits>
 658:C:/Renesas/e2studio_2021_01_workspace_RZA2M_ANPR/ANPR_RZA2M_EBK/src/tensorflow_lite/third_party/gemmlowp/fixedpoint\fixedpoint.h **** double ToDouble(FixedPoint<tRawType, tIntegerBits> x) {
 659:C:/Renesas/e2studio_2021_01_workspace_RZA2M_ANPR/ANPR_RZA2M_EBK/src/tensorflow_lite/third_party/gemmlowp/fixedpoint\fixedpoint.h ****   static_assert(FixedPointRawTypeTraits<tRawType>::kLanes == 1,
 660:C:/Renesas/e2studio_2021_01_workspace_RZA2M_ANPR/ANPR_RZA2M_EBK/src/tensorflow_lite/third_party/gemmlowp/fixedpoint\fixedpoint.h ****                 "not applicable to SIMD types");
 661:C:/Renesas/e2studio_2021_01_workspace_RZA2M_ANPR/ANPR_RZA2M_EBK/src/tensorflow_lite/third_party/gemmlowp/fixedpoint\fixedpoint.h ****   typedef FixedPoint<tRawType, tIntegerBits> F;
 662:C:/Renesas/e2studio_2021_01_workspace_RZA2M_ANPR/ANPR_RZA2M_EBK/src/tensorflow_lite/third_party/gemmlowp/fixedpoint\fixedpoint.h ****   return x.raw() / static_cast<double>(1ll << F::kFractionalBits);
 663:C:/Renesas/e2studio_2021_01_workspace_RZA2M_ANPR/ANPR_RZA2M_EBK/src/tensorflow_lite/third_party/gemmlowp/fixedpoint\fixedpoint.h **** }
 664:C:/Renesas/e2studio_2021_01_workspace_RZA2M_ANPR/ANPR_RZA2M_EBK/src/tensorflow_lite/third_party/gemmlowp/fixedpoint\fixedpoint.h **** 
 665:C:/Renesas/e2studio_2021_01_workspace_RZA2M_ANPR/ANPR_RZA2M_EBK/src/tensorflow_lite/third_party/gemmlowp/fixedpoint\fixedpoint.h **** // Rescale changes the number of IntegerBits and updates the underlying
 666:C:/Renesas/e2studio_2021_01_workspace_RZA2M_ANPR/ANPR_RZA2M_EBK/src/tensorflow_lite/third_party/gemmlowp/fixedpoint\fixedpoint.h **** // raw integer value accordingly.
 667:C:/Renesas/e2studio_2021_01_workspace_RZA2M_ANPR/ANPR_RZA2M_EBK/src/tensorflow_lite/third_party/gemmlowp/fixedpoint\fixedpoint.h **** template <int tIntegerBitsDst, typename tRawType, int tIntegerBitsSrc>
 668:C:/Renesas/e2studio_2021_01_workspace_RZA2M_ANPR/ANPR_RZA2M_EBK/src/tensorflow_lite/third_party/gemmlowp/fixedpoint\fixedpoint.h **** FixedPoint<tRawType, tIntegerBitsDst> Rescale(
 669:C:/Renesas/e2studio_2021_01_workspace_RZA2M_ANPR/ANPR_RZA2M_EBK/src/tensorflow_lite/third_party/gemmlowp/fixedpoint\fixedpoint.h ****     FixedPoint<tRawType, tIntegerBitsSrc> x) {
 670:C:/Renesas/e2studio_2021_01_workspace_RZA2M_ANPR/ANPR_RZA2M_EBK/src/tensorflow_lite/third_party/gemmlowp/fixedpoint\fixedpoint.h ****   static constexpr int kExponent = tIntegerBitsSrc - tIntegerBitsDst;
 671:C:/Renesas/e2studio_2021_01_workspace_RZA2M_ANPR/ANPR_RZA2M_EBK/src/tensorflow_lite/third_party/gemmlowp/fixedpoint\fixedpoint.h ****   FixedPoint<tRawType, tIntegerBitsDst> result;
 672:C:/Renesas/e2studio_2021_01_workspace_RZA2M_ANPR/ANPR_RZA2M_EBK/src/tensorflow_lite/third_party/gemmlowp/fixedpoint\fixedpoint.h ****   result.raw() = SaturatingRoundingMultiplyByPOT<kExponent>(x.raw());
 673:C:/Renesas/e2studio_2021_01_workspace_RZA2M_ANPR/ANPR_RZA2M_EBK/src/tensorflow_lite/third_party/gemmlowp/fixedpoint\fixedpoint.h ****   return result;
 674:C:/Renesas/e2studio_2021_01_workspace_RZA2M_ANPR/ANPR_RZA2M_EBK/src/tensorflow_lite/third_party/gemmlowp/fixedpoint\fixedpoint.h **** }
 675:C:/Renesas/e2studio_2021_01_workspace_RZA2M_ANPR/ANPR_RZA2M_EBK/src/tensorflow_lite/third_party/gemmlowp/fixedpoint\fixedpoint.h **** 
 676:C:/Renesas/e2studio_2021_01_workspace_RZA2M_ANPR/ANPR_RZA2M_EBK/src/tensorflow_lite/third_party/gemmlowp/fixedpoint\fixedpoint.h **** // CheckedFixedPointConstant allows to specify fixed-point constants
 677:C:/Renesas/e2studio_2021_01_workspace_RZA2M_ANPR/ANPR_RZA2M_EBK/src/tensorflow_lite/third_party/gemmlowp/fixedpoint\fixedpoint.h **** // initialized as real numbers, in a way that does not compile floating-point
 678:C:/Renesas/e2studio_2021_01_workspace_RZA2M_ANPR/ANPR_RZA2M_EBK/src/tensorflow_lite/third_party/gemmlowp/fixedpoint\fixedpoint.h **** // arithmetic in production code, yet still checks agreement with the
 679:C:/Renesas/e2studio_2021_01_workspace_RZA2M_ANPR/ANPR_RZA2M_EBK/src/tensorflow_lite/third_party/gemmlowp/fixedpoint\fixedpoint.h **** // floating-point expressions when asserts are enabled.
 680:C:/Renesas/e2studio_2021_01_workspace_RZA2M_ANPR/ANPR_RZA2M_EBK/src/tensorflow_lite/third_party/gemmlowp/fixedpoint\fixedpoint.h **** //
 681:C:/Renesas/e2studio_2021_01_workspace_RZA2M_ANPR/ANPR_RZA2M_EBK/src/tensorflow_lite/third_party/gemmlowp/fixedpoint\fixedpoint.h **** // The raw integer value provided is always a int32, encoding a 32-bit
 682:C:/Renesas/e2studio_2021_01_workspace_RZA2M_ANPR/ANPR_RZA2M_EBK/src/tensorflow_lite/third_party/gemmlowp/fixedpoint\fixedpoint.h **** // fixed-point value, regardless of the actual Scalar type. This allows
 683:C:/Renesas/e2studio_2021_01_workspace_RZA2M_ANPR/ANPR_RZA2M_EBK/src/tensorflow_lite/third_party/gemmlowp/fixedpoint\fixedpoint.h **** // writing generic code that applies just as well to the 32-bit and 16-bit
 684:C:/Renesas/e2studio_2021_01_workspace_RZA2M_ANPR/ANPR_RZA2M_EBK/src/tensorflow_lite/third_party/gemmlowp/fixedpoint\fixedpoint.h **** // cases. In the 16-bit case, the raw integer value is internally
 685:C:/Renesas/e2studio_2021_01_workspace_RZA2M_ANPR/ANPR_RZA2M_EBK/src/tensorflow_lite/third_party/gemmlowp/fixedpoint\fixedpoint.h **** // rounding-shifted by 16 bits to the right.
 686:C:/Renesas/e2studio_2021_01_workspace_RZA2M_ANPR/ANPR_RZA2M_EBK/src/tensorflow_lite/third_party/gemmlowp/fixedpoint\fixedpoint.h **** template <typename FixedPointType>
 687:C:/Renesas/e2studio_2021_01_workspace_RZA2M_ANPR/ANPR_RZA2M_EBK/src/tensorflow_lite/third_party/gemmlowp/fixedpoint\fixedpoint.h **** inline typename FixedPointType::ScalarRawType RescaleConstantInitializer(
 688:C:/Renesas/e2studio_2021_01_workspace_RZA2M_ANPR/ANPR_RZA2M_EBK/src/tensorflow_lite/third_party/gemmlowp/fixedpoint\fixedpoint.h ****     std::int32_t int32_value) {
 689:C:/Renesas/e2studio_2021_01_workspace_RZA2M_ANPR/ANPR_RZA2M_EBK/src/tensorflow_lite/third_party/gemmlowp/fixedpoint\fixedpoint.h ****   typedef typename FixedPointType::ScalarRawType ScalarRawType;
 690:C:/Renesas/e2studio_2021_01_workspace_RZA2M_ANPR/ANPR_RZA2M_EBK/src/tensorflow_lite/third_party/gemmlowp/fixedpoint\fixedpoint.h ****   static constexpr int ScalarTypeBits = 8 * sizeof(ScalarRawType);
 691:C:/Renesas/e2studio_2021_01_workspace_RZA2M_ANPR/ANPR_RZA2M_EBK/src/tensorflow_lite/third_party/gemmlowp/fixedpoint\fixedpoint.h ****   return static_cast<ScalarRawType>(
 692:C:/Renesas/e2studio_2021_01_workspace_RZA2M_ANPR/ANPR_RZA2M_EBK/src/tensorflow_lite/third_party/gemmlowp/fixedpoint\fixedpoint.h ****       RoundingDivideByPOT<std::int32_t>(int32_value, 32 - ScalarTypeBits));
 693:C:/Renesas/e2studio_2021_01_workspace_RZA2M_ANPR/ANPR_RZA2M_EBK/src/tensorflow_lite/third_party/gemmlowp/fixedpoint\fixedpoint.h **** }
 694:C:/Renesas/e2studio_2021_01_workspace_RZA2M_ANPR/ANPR_RZA2M_EBK/src/tensorflow_lite/third_party/gemmlowp/fixedpoint\fixedpoint.h **** #ifdef GEMMLOWP_ENABLE_FIXEDPOINT_CONSTANTS_CHECKS
 695:C:/Renesas/e2studio_2021_01_workspace_RZA2M_ANPR/ANPR_RZA2M_EBK/src/tensorflow_lite/third_party/gemmlowp/fixedpoint\fixedpoint.h **** template <typename FixedPointType>
 696:C:/Renesas/e2studio_2021_01_workspace_RZA2M_ANPR/ANPR_RZA2M_EBK/src/tensorflow_lite/third_party/gemmlowp/fixedpoint\fixedpoint.h **** FixedPointType CheckedFixedPointConstant(std::int32_t raw_value,
 697:C:/Renesas/e2studio_2021_01_workspace_RZA2M_ANPR/ANPR_RZA2M_EBK/src/tensorflow_lite/third_party/gemmlowp/fixedpoint\fixedpoint.h ****                                          double double_value) {
 698:C:/Renesas/e2studio_2021_01_workspace_RZA2M_ANPR/ANPR_RZA2M_EBK/src/tensorflow_lite/third_party/gemmlowp/fixedpoint\fixedpoint.h ****   const FixedPointType result = FixedPointType::FromScalarRaw(raw_value);
 699:C:/Renesas/e2studio_2021_01_workspace_RZA2M_ANPR/ANPR_RZA2M_EBK/src/tensorflow_lite/third_party/gemmlowp/fixedpoint\fixedpoint.h ****   assert(result == FixedPointType::FromDouble(double_value));
 700:C:/Renesas/e2studio_2021_01_workspace_RZA2M_ANPR/ANPR_RZA2M_EBK/src/tensorflow_lite/third_party/gemmlowp/fixedpoint\fixedpoint.h ****   return result;
 701:C:/Renesas/e2studio_2021_01_workspace_RZA2M_ANPR/ANPR_RZA2M_EBK/src/tensorflow_lite/third_party/gemmlowp/fixedpoint\fixedpoint.h **** }
 702:C:/Renesas/e2studio_2021_01_workspace_RZA2M_ANPR/ANPR_RZA2M_EBK/src/tensorflow_lite/third_party/gemmlowp/fixedpoint\fixedpoint.h **** #define GEMMLOWP_CHECKED_FIXEDPOINT_CONSTANT(FixedPointType,                   \
 703:C:/Renesas/e2studio_2021_01_workspace_RZA2M_ANPR/ANPR_RZA2M_EBK/src/tensorflow_lite/third_party/gemmlowp/fixedpoint\fixedpoint.h ****                                              ScalarRawInt32Value, DoubleValue) \
 704:C:/Renesas/e2studio_2021_01_workspace_RZA2M_ANPR/ANPR_RZA2M_EBK/src/tensorflow_lite/third_party/gemmlowp/fixedpoint\fixedpoint.h ****   (gemmlowp::CheckedFixedPointConstant<FixedPointType>(                        \
 705:C:/Renesas/e2studio_2021_01_workspace_RZA2M_ANPR/ANPR_RZA2M_EBK/src/tensorflow_lite/third_party/gemmlowp/fixedpoint\fixedpoint.h ****       gemmlowp::RescaleConstantInitializer<FixedPointType>(                    \
 706:C:/Renesas/e2studio_2021_01_workspace_RZA2M_ANPR/ANPR_RZA2M_EBK/src/tensorflow_lite/third_party/gemmlowp/fixedpoint\fixedpoint.h ****           ScalarRawInt32Value),                                                \
 707:C:/Renesas/e2studio_2021_01_workspace_RZA2M_ANPR/ANPR_RZA2M_EBK/src/tensorflow_lite/third_party/gemmlowp/fixedpoint\fixedpoint.h ****       DoubleValue))
 708:C:/Renesas/e2studio_2021_01_workspace_RZA2M_ANPR/ANPR_RZA2M_EBK/src/tensorflow_lite/third_party/gemmlowp/fixedpoint\fixedpoint.h **** 
 709:C:/Renesas/e2studio_2021_01_workspace_RZA2M_ANPR/ANPR_RZA2M_EBK/src/tensorflow_lite/third_party/gemmlowp/fixedpoint\fixedpoint.h **** #else
 710:C:/Renesas/e2studio_2021_01_workspace_RZA2M_ANPR/ANPR_RZA2M_EBK/src/tensorflow_lite/third_party/gemmlowp/fixedpoint\fixedpoint.h **** #define GEMMLOWP_CHECKED_FIXEDPOINT_CONSTANT(FixedPointType,                   \
 711:C:/Renesas/e2studio_2021_01_workspace_RZA2M_ANPR/ANPR_RZA2M_EBK/src/tensorflow_lite/third_party/gemmlowp/fixedpoint\fixedpoint.h ****                                              ScalarRawInt32Value, DoubleValue) \
 712:C:/Renesas/e2studio_2021_01_workspace_RZA2M_ANPR/ANPR_RZA2M_EBK/src/tensorflow_lite/third_party/gemmlowp/fixedpoint\fixedpoint.h ****   (FixedPointType::FromScalarRaw(                                              \
 713:C:/Renesas/e2studio_2021_01_workspace_RZA2M_ANPR/ANPR_RZA2M_EBK/src/tensorflow_lite/third_party/gemmlowp/fixedpoint\fixedpoint.h ****       gemmlowp::RescaleConstantInitializer<FixedPointType>(                    \
 714:C:/Renesas/e2studio_2021_01_workspace_RZA2M_ANPR/ANPR_RZA2M_EBK/src/tensorflow_lite/third_party/gemmlowp/fixedpoint\fixedpoint.h ****           ScalarRawInt32Value)))
 715:C:/Renesas/e2studio_2021_01_workspace_RZA2M_ANPR/ANPR_RZA2M_EBK/src/tensorflow_lite/third_party/gemmlowp/fixedpoint\fixedpoint.h **** #endif
 716:C:/Renesas/e2studio_2021_01_workspace_RZA2M_ANPR/ANPR_RZA2M_EBK/src/tensorflow_lite/third_party/gemmlowp/fixedpoint\fixedpoint.h **** 
 717:C:/Renesas/e2studio_2021_01_workspace_RZA2M_ANPR/ANPR_RZA2M_EBK/src/tensorflow_lite/third_party/gemmlowp/fixedpoint\fixedpoint.h **** // Implementation of exponential function.
 718:C:/Renesas/e2studio_2021_01_workspace_RZA2M_ANPR/ANPR_RZA2M_EBK/src/tensorflow_lite/third_party/gemmlowp/fixedpoint\fixedpoint.h **** 
 719:C:/Renesas/e2studio_2021_01_workspace_RZA2M_ANPR/ANPR_RZA2M_EBK/src/tensorflow_lite/third_party/gemmlowp/fixedpoint\fixedpoint.h **** // Returns exp(x) for x in [-1/4, 0).
 720:C:/Renesas/e2studio_2021_01_workspace_RZA2M_ANPR/ANPR_RZA2M_EBK/src/tensorflow_lite/third_party/gemmlowp/fixedpoint\fixedpoint.h **** template <typename tRawType>
 721:C:/Renesas/e2studio_2021_01_workspace_RZA2M_ANPR/ANPR_RZA2M_EBK/src/tensorflow_lite/third_party/gemmlowp/fixedpoint\fixedpoint.h **** FixedPoint<tRawType, 0> exp_on_interval_between_negative_one_quarter_and_0_excl(
 722:C:/Renesas/e2studio_2021_01_workspace_RZA2M_ANPR/ANPR_RZA2M_EBK/src/tensorflow_lite/third_party/gemmlowp/fixedpoint\fixedpoint.h ****     FixedPoint<tRawType, 0> a) {
 723:C:/Renesas/e2studio_2021_01_workspace_RZA2M_ANPR/ANPR_RZA2M_EBK/src/tensorflow_lite/third_party/gemmlowp/fixedpoint\fixedpoint.h ****   typedef FixedPoint<tRawType, 0> F;
 724:C:/Renesas/e2studio_2021_01_workspace_RZA2M_ANPR/ANPR_RZA2M_EBK/src/tensorflow_lite/third_party/gemmlowp/fixedpoint\fixedpoint.h ****   const F constant_term =
 725:C:/Renesas/e2studio_2021_01_workspace_RZA2M_ANPR/ANPR_RZA2M_EBK/src/tensorflow_lite/third_party/gemmlowp/fixedpoint\fixedpoint.h ****       GEMMLOWP_CHECKED_FIXEDPOINT_CONSTANT(F, 1895147668, std::exp(-1.0 / 8.0));
 726:C:/Renesas/e2studio_2021_01_workspace_RZA2M_ANPR/ANPR_RZA2M_EBK/src/tensorflow_lite/third_party/gemmlowp/fixedpoint\fixedpoint.h ****   const F constant_1_over_3 =
 727:C:/Renesas/e2studio_2021_01_workspace_RZA2M_ANPR/ANPR_RZA2M_EBK/src/tensorflow_lite/third_party/gemmlowp/fixedpoint\fixedpoint.h ****       GEMMLOWP_CHECKED_FIXEDPOINT_CONSTANT(F, 715827883, 1.0 / 3.0);
 728:C:/Renesas/e2studio_2021_01_workspace_RZA2M_ANPR/ANPR_RZA2M_EBK/src/tensorflow_lite/third_party/gemmlowp/fixedpoint\fixedpoint.h ****   // We're evaluating a Taylor expansion around -1/8, so we do the change of
 729:C:/Renesas/e2studio_2021_01_workspace_RZA2M_ANPR/ANPR_RZA2M_EBK/src/tensorflow_lite/third_party/gemmlowp/fixedpoint\fixedpoint.h ****   // variable: x = a + 1/8.
 730:C:/Renesas/e2studio_2021_01_workspace_RZA2M_ANPR/ANPR_RZA2M_EBK/src/tensorflow_lite/third_party/gemmlowp/fixedpoint\fixedpoint.h ****   // In fixed-point with 0 integer bits, 1/8 is represented by 1 << 28.
 731:C:/Renesas/e2studio_2021_01_workspace_RZA2M_ANPR/ANPR_RZA2M_EBK/src/tensorflow_lite/third_party/gemmlowp/fixedpoint\fixedpoint.h ****   F x = a + F::template ConstantPOT<-3>();
 732:C:/Renesas/e2studio_2021_01_workspace_RZA2M_ANPR/ANPR_RZA2M_EBK/src/tensorflow_lite/third_party/gemmlowp/fixedpoint\fixedpoint.h ****   F x2 = x * x;
 733:C:/Renesas/e2studio_2021_01_workspace_RZA2M_ANPR/ANPR_RZA2M_EBK/src/tensorflow_lite/third_party/gemmlowp/fixedpoint\fixedpoint.h ****   F x3 = x2 * x;
 734:C:/Renesas/e2studio_2021_01_workspace_RZA2M_ANPR/ANPR_RZA2M_EBK/src/tensorflow_lite/third_party/gemmlowp/fixedpoint\fixedpoint.h ****   F x4 = x2 * x2;
 735:C:/Renesas/e2studio_2021_01_workspace_RZA2M_ANPR/ANPR_RZA2M_EBK/src/tensorflow_lite/third_party/gemmlowp/fixedpoint\fixedpoint.h ****   F x4_over_4 = SaturatingRoundingMultiplyByPOT<-2>(x4);
 736:C:/Renesas/e2studio_2021_01_workspace_RZA2M_ANPR/ANPR_RZA2M_EBK/src/tensorflow_lite/third_party/gemmlowp/fixedpoint\fixedpoint.h ****   F x4_over_24_plus_x3_over_6_plus_x2_over_2 =
 737:C:/Renesas/e2studio_2021_01_workspace_RZA2M_ANPR/ANPR_RZA2M_EBK/src/tensorflow_lite/third_party/gemmlowp/fixedpoint\fixedpoint.h ****       SaturatingRoundingMultiplyByPOT<-1>(
 738:C:/Renesas/e2studio_2021_01_workspace_RZA2M_ANPR/ANPR_RZA2M_EBK/src/tensorflow_lite/third_party/gemmlowp/fixedpoint\fixedpoint.h ****           ((x4_over_4 + x3) * constant_1_over_3) + x2);
 739:C:/Renesas/e2studio_2021_01_workspace_RZA2M_ANPR/ANPR_RZA2M_EBK/src/tensorflow_lite/third_party/gemmlowp/fixedpoint\fixedpoint.h ****   return AddSaturatingIf16Bit(
 740:C:/Renesas/e2studio_2021_01_workspace_RZA2M_ANPR/ANPR_RZA2M_EBK/src/tensorflow_lite/third_party/gemmlowp/fixedpoint\fixedpoint.h ****       constant_term,
 741:C:/Renesas/e2studio_2021_01_workspace_RZA2M_ANPR/ANPR_RZA2M_EBK/src/tensorflow_lite/third_party/gemmlowp/fixedpoint\fixedpoint.h ****       constant_term * (x + x4_over_24_plus_x3_over_6_plus_x2_over_2));
 742:C:/Renesas/e2studio_2021_01_workspace_RZA2M_ANPR/ANPR_RZA2M_EBK/src/tensorflow_lite/third_party/gemmlowp/fixedpoint\fixedpoint.h **** }
 743:C:/Renesas/e2studio_2021_01_workspace_RZA2M_ANPR/ANPR_RZA2M_EBK/src/tensorflow_lite/third_party/gemmlowp/fixedpoint\fixedpoint.h **** 
 744:C:/Renesas/e2studio_2021_01_workspace_RZA2M_ANPR/ANPR_RZA2M_EBK/src/tensorflow_lite/third_party/gemmlowp/fixedpoint\fixedpoint.h **** // Returns exp(x) for x < 0.
 745:C:/Renesas/e2studio_2021_01_workspace_RZA2M_ANPR/ANPR_RZA2M_EBK/src/tensorflow_lite/third_party/gemmlowp/fixedpoint\fixedpoint.h **** template <typename tRawType, int tIntegerBits>
 746:C:/Renesas/e2studio_2021_01_workspace_RZA2M_ANPR/ANPR_RZA2M_EBK/src/tensorflow_lite/third_party/gemmlowp/fixedpoint\fixedpoint.h **** FixedPoint<tRawType, 0> exp_on_negative_values(
 747:C:/Renesas/e2studio_2021_01_workspace_RZA2M_ANPR/ANPR_RZA2M_EBK/src/tensorflow_lite/third_party/gemmlowp/fixedpoint\fixedpoint.h ****     FixedPoint<tRawType, tIntegerBits> a) {
 748:C:/Renesas/e2studio_2021_01_workspace_RZA2M_ANPR/ANPR_RZA2M_EBK/src/tensorflow_lite/third_party/gemmlowp/fixedpoint\fixedpoint.h ****   typedef FixedPoint<tRawType, tIntegerBits> InputF;
 749:C:/Renesas/e2studio_2021_01_workspace_RZA2M_ANPR/ANPR_RZA2M_EBK/src/tensorflow_lite/third_party/gemmlowp/fixedpoint\fixedpoint.h ****   typedef FixedPoint<tRawType, 0> ResultF;
 750:C:/Renesas/e2studio_2021_01_workspace_RZA2M_ANPR/ANPR_RZA2M_EBK/src/tensorflow_lite/third_party/gemmlowp/fixedpoint\fixedpoint.h ****   static constexpr int kFractionalBits = InputF::kFractionalBits;
 751:C:/Renesas/e2studio_2021_01_workspace_RZA2M_ANPR/ANPR_RZA2M_EBK/src/tensorflow_lite/third_party/gemmlowp/fixedpoint\fixedpoint.h ****   static constexpr int kIntegerBits = InputF::kIntegerBits;
 752:C:/Renesas/e2studio_2021_01_workspace_RZA2M_ANPR/ANPR_RZA2M_EBK/src/tensorflow_lite/third_party/gemmlowp/fixedpoint\fixedpoint.h ****   const InputF kOneQuarter = InputF::template ConstantPOT<-2>();
 753:C:/Renesas/e2studio_2021_01_workspace_RZA2M_ANPR/ANPR_RZA2M_EBK/src/tensorflow_lite/third_party/gemmlowp/fixedpoint\fixedpoint.h ****   InputF mask = kOneQuarter - InputF::FromScalarRaw(1);
 754:C:/Renesas/e2studio_2021_01_workspace_RZA2M_ANPR/ANPR_RZA2M_EBK/src/tensorflow_lite/third_party/gemmlowp/fixedpoint\fixedpoint.h ****   InputF a_mod_quarter_minus_one_quarter = (a & mask) - kOneQuarter;
 755:C:/Renesas/e2studio_2021_01_workspace_RZA2M_ANPR/ANPR_RZA2M_EBK/src/tensorflow_lite/third_party/gemmlowp/fixedpoint\fixedpoint.h ****   ResultF result = exp_on_interval_between_negative_one_quarter_and_0_excl(
 756:C:/Renesas/e2studio_2021_01_workspace_RZA2M_ANPR/ANPR_RZA2M_EBK/src/tensorflow_lite/third_party/gemmlowp/fixedpoint\fixedpoint.h ****       Rescale<0>(a_mod_quarter_minus_one_quarter));
 757:C:/Renesas/e2studio_2021_01_workspace_RZA2M_ANPR/ANPR_RZA2M_EBK/src/tensorflow_lite/third_party/gemmlowp/fixedpoint\fixedpoint.h ****   tRawType remainder = (a_mod_quarter_minus_one_quarter - a).raw();
 758:C:/Renesas/e2studio_2021_01_workspace_RZA2M_ANPR/ANPR_RZA2M_EBK/src/tensorflow_lite/third_party/gemmlowp/fixedpoint\fixedpoint.h **** 
 759:C:/Renesas/e2studio_2021_01_workspace_RZA2M_ANPR/ANPR_RZA2M_EBK/src/tensorflow_lite/third_party/gemmlowp/fixedpoint\fixedpoint.h **** #define GEMMLOWP_EXP_BARREL_SHIFTER(Exponent, FixedPointMultiplier)         \
 760:C:/Renesas/e2studio_2021_01_workspace_RZA2M_ANPR/ANPR_RZA2M_EBK/src/tensorflow_lite/third_party/gemmlowp/fixedpoint\fixedpoint.h ****   if (kIntegerBits > Exponent) {                                            \
 761:C:/Renesas/e2studio_2021_01_workspace_RZA2M_ANPR/ANPR_RZA2M_EBK/src/tensorflow_lite/third_party/gemmlowp/fixedpoint\fixedpoint.h ****     const ResultF kMultiplier = GEMMLOWP_CHECKED_FIXEDPOINT_CONSTANT(       \
 762:C:/Renesas/e2studio_2021_01_workspace_RZA2M_ANPR/ANPR_RZA2M_EBK/src/tensorflow_lite/third_party/gemmlowp/fixedpoint\fixedpoint.h ****         ResultF, FixedPointMultiplier, std::exp(-std::pow(2.0, Exponent))); \
 763:C:/Renesas/e2studio_2021_01_workspace_RZA2M_ANPR/ANPR_RZA2M_EBK/src/tensorflow_lite/third_party/gemmlowp/fixedpoint\fixedpoint.h ****     static constexpr int kShiftAmount =                                     \
 764:C:/Renesas/e2studio_2021_01_workspace_RZA2M_ANPR/ANPR_RZA2M_EBK/src/tensorflow_lite/third_party/gemmlowp/fixedpoint\fixedpoint.h ****         kIntegerBits > Exponent ? kFractionalBits + Exponent : 0;           \
 765:C:/Renesas/e2studio_2021_01_workspace_RZA2M_ANPR/ANPR_RZA2M_EBK/src/tensorflow_lite/third_party/gemmlowp/fixedpoint\fixedpoint.h ****     result = SelectUsingMask(                                               \
 766:C:/Renesas/e2studio_2021_01_workspace_RZA2M_ANPR/ANPR_RZA2M_EBK/src/tensorflow_lite/third_party/gemmlowp/fixedpoint\fixedpoint.h ****         MaskIfNonZero(BitAnd(remainder, Dup<tRawType>(1 << kShiftAmount))), \
 767:C:/Renesas/e2studio_2021_01_workspace_RZA2M_ANPR/ANPR_RZA2M_EBK/src/tensorflow_lite/third_party/gemmlowp/fixedpoint\fixedpoint.h ****         result * kMultiplier, result);                                      \
 768:C:/Renesas/e2studio_2021_01_workspace_RZA2M_ANPR/ANPR_RZA2M_EBK/src/tensorflow_lite/third_party/gemmlowp/fixedpoint\fixedpoint.h ****   }
 769:C:/Renesas/e2studio_2021_01_workspace_RZA2M_ANPR/ANPR_RZA2M_EBK/src/tensorflow_lite/third_party/gemmlowp/fixedpoint\fixedpoint.h **** 
 770:C:/Renesas/e2studio_2021_01_workspace_RZA2M_ANPR/ANPR_RZA2M_EBK/src/tensorflow_lite/third_party/gemmlowp/fixedpoint\fixedpoint.h ****   GEMMLOWP_EXP_BARREL_SHIFTER(-2, 1672461947);
 771:C:/Renesas/e2studio_2021_01_workspace_RZA2M_ANPR/ANPR_RZA2M_EBK/src/tensorflow_lite/third_party/gemmlowp/fixedpoint\fixedpoint.h ****   GEMMLOWP_EXP_BARREL_SHIFTER(-1, 1302514674);
 772:C:/Renesas/e2studio_2021_01_workspace_RZA2M_ANPR/ANPR_RZA2M_EBK/src/tensorflow_lite/third_party/gemmlowp/fixedpoint\fixedpoint.h ****   GEMMLOWP_EXP_BARREL_SHIFTER(+0, 790015084);
 773:C:/Renesas/e2studio_2021_01_workspace_RZA2M_ANPR/ANPR_RZA2M_EBK/src/tensorflow_lite/third_party/gemmlowp/fixedpoint\fixedpoint.h ****   GEMMLOWP_EXP_BARREL_SHIFTER(+1, 290630308);
 774:C:/Renesas/e2studio_2021_01_workspace_RZA2M_ANPR/ANPR_RZA2M_EBK/src/tensorflow_lite/third_party/gemmlowp/fixedpoint\fixedpoint.h ****   GEMMLOWP_EXP_BARREL_SHIFTER(+2, 39332535);
 775:C:/Renesas/e2studio_2021_01_workspace_RZA2M_ANPR/ANPR_RZA2M_EBK/src/tensorflow_lite/third_party/gemmlowp/fixedpoint\fixedpoint.h ****   GEMMLOWP_EXP_BARREL_SHIFTER(+3, 720401);
 776:C:/Renesas/e2studio_2021_01_workspace_RZA2M_ANPR/ANPR_RZA2M_EBK/src/tensorflow_lite/third_party/gemmlowp/fixedpoint\fixedpoint.h ****   GEMMLOWP_EXP_BARREL_SHIFTER(+4, 242);
 777:C:/Renesas/e2studio_2021_01_workspace_RZA2M_ANPR/ANPR_RZA2M_EBK/src/tensorflow_lite/third_party/gemmlowp/fixedpoint\fixedpoint.h **** 
 778:C:/Renesas/e2studio_2021_01_workspace_RZA2M_ANPR/ANPR_RZA2M_EBK/src/tensorflow_lite/third_party/gemmlowp/fixedpoint\fixedpoint.h **** #undef GEMMLOWP_EXP_BARREL_SHIFTER
 779:C:/Renesas/e2studio_2021_01_workspace_RZA2M_ANPR/ANPR_RZA2M_EBK/src/tensorflow_lite/third_party/gemmlowp/fixedpoint\fixedpoint.h **** 
 780:C:/Renesas/e2studio_2021_01_workspace_RZA2M_ANPR/ANPR_RZA2M_EBK/src/tensorflow_lite/third_party/gemmlowp/fixedpoint\fixedpoint.h ****   static constexpr int clampB = kIntegerBits > 5 ? 36 - kIntegerBits : 0;
 781:C:/Renesas/e2studio_2021_01_workspace_RZA2M_ANPR/ANPR_RZA2M_EBK/src/tensorflow_lite/third_party/gemmlowp/fixedpoint\fixedpoint.h ****   if (kIntegerBits > 5) {
 782:C:/Renesas/e2studio_2021_01_workspace_RZA2M_ANPR/ANPR_RZA2M_EBK/src/tensorflow_lite/third_party/gemmlowp/fixedpoint\fixedpoint.h ****     const InputF clamp =
 783:C:/Renesas/e2studio_2021_01_workspace_RZA2M_ANPR/ANPR_RZA2M_EBK/src/tensorflow_lite/third_party/gemmlowp/fixedpoint\fixedpoint.h ****         GEMMLOWP_CHECKED_FIXEDPOINT_CONSTANT(InputF, -(1 << clampB), -32.0);
 784:C:/Renesas/e2studio_2021_01_workspace_RZA2M_ANPR/ANPR_RZA2M_EBK/src/tensorflow_lite/third_party/gemmlowp/fixedpoint\fixedpoint.h ****     result = SelectUsingMask(MaskIfLessThan(a, clamp), ResultF::Zero(), result);
 785:C:/Renesas/e2studio_2021_01_workspace_RZA2M_ANPR/ANPR_RZA2M_EBK/src/tensorflow_lite/third_party/gemmlowp/fixedpoint\fixedpoint.h ****   }
 786:C:/Renesas/e2studio_2021_01_workspace_RZA2M_ANPR/ANPR_RZA2M_EBK/src/tensorflow_lite/third_party/gemmlowp/fixedpoint\fixedpoint.h **** 
 787:C:/Renesas/e2studio_2021_01_workspace_RZA2M_ANPR/ANPR_RZA2M_EBK/src/tensorflow_lite/third_party/gemmlowp/fixedpoint\fixedpoint.h ****   result = SelectUsingMask(MaskIfZero(a), ResultF::One(), result);
 788:C:/Renesas/e2studio_2021_01_workspace_RZA2M_ANPR/ANPR_RZA2M_EBK/src/tensorflow_lite/third_party/gemmlowp/fixedpoint\fixedpoint.h ****   return result;
 789:C:/Renesas/e2studio_2021_01_workspace_RZA2M_ANPR/ANPR_RZA2M_EBK/src/tensorflow_lite/third_party/gemmlowp/fixedpoint\fixedpoint.h **** }
 790:C:/Renesas/e2studio_2021_01_workspace_RZA2M_ANPR/ANPR_RZA2M_EBK/src/tensorflow_lite/third_party/gemmlowp/fixedpoint\fixedpoint.h **** 
 791:C:/Renesas/e2studio_2021_01_workspace_RZA2M_ANPR/ANPR_RZA2M_EBK/src/tensorflow_lite/third_party/gemmlowp/fixedpoint\fixedpoint.h **** // Implementation of tanh: (1 - exp(-2x)) / (1 + exp(-2x)).
 792:C:/Renesas/e2studio_2021_01_workspace_RZA2M_ANPR/ANPR_RZA2M_EBK/src/tensorflow_lite/third_party/gemmlowp/fixedpoint\fixedpoint.h **** 
 793:C:/Renesas/e2studio_2021_01_workspace_RZA2M_ANPR/ANPR_RZA2M_EBK/src/tensorflow_lite/third_party/gemmlowp/fixedpoint\fixedpoint.h **** // Returns (1 - x) / (1 + x) for x in (0, 1).
 794:C:/Renesas/e2studio_2021_01_workspace_RZA2M_ANPR/ANPR_RZA2M_EBK/src/tensorflow_lite/third_party/gemmlowp/fixedpoint\fixedpoint.h **** template <typename tRawType>
 795:C:/Renesas/e2studio_2021_01_workspace_RZA2M_ANPR/ANPR_RZA2M_EBK/src/tensorflow_lite/third_party/gemmlowp/fixedpoint\fixedpoint.h **** FixedPoint<tRawType, 0> one_minus_x_over_one_plus_x_for_x_in_0_1(
 796:C:/Renesas/e2studio_2021_01_workspace_RZA2M_ANPR/ANPR_RZA2M_EBK/src/tensorflow_lite/third_party/gemmlowp/fixedpoint\fixedpoint.h ****     FixedPoint<tRawType, 0> a) {
 797:C:/Renesas/e2studio_2021_01_workspace_RZA2M_ANPR/ANPR_RZA2M_EBK/src/tensorflow_lite/third_party/gemmlowp/fixedpoint\fixedpoint.h ****   typedef FixedPoint<tRawType, 0> F0;
 798:C:/Renesas/e2studio_2021_01_workspace_RZA2M_ANPR/ANPR_RZA2M_EBK/src/tensorflow_lite/third_party/gemmlowp/fixedpoint\fixedpoint.h ****   typedef FixedPoint<tRawType, 2> F2;
 799:C:/Renesas/e2studio_2021_01_workspace_RZA2M_ANPR/ANPR_RZA2M_EBK/src/tensorflow_lite/third_party/gemmlowp/fixedpoint\fixedpoint.h ****   F0 half_denominator = RoundingHalfSum(a, F0::One());
 800:C:/Renesas/e2studio_2021_01_workspace_RZA2M_ANPR/ANPR_RZA2M_EBK/src/tensorflow_lite/third_party/gemmlowp/fixedpoint\fixedpoint.h ****   // Newton-Raphson division
 801:C:/Renesas/e2studio_2021_01_workspace_RZA2M_ANPR/ANPR_RZA2M_EBK/src/tensorflow_lite/third_party/gemmlowp/fixedpoint\fixedpoint.h ****   // https://en.wikipedia.org/wiki/Division_algorithm#Newton.E2.80.93Raphson_division
 802:C:/Renesas/e2studio_2021_01_workspace_RZA2M_ANPR/ANPR_RZA2M_EBK/src/tensorflow_lite/third_party/gemmlowp/fixedpoint\fixedpoint.h ****   // Refer to that page for the logic behind the 48/17 and 32/17 constants.
 803:C:/Renesas/e2studio_2021_01_workspace_RZA2M_ANPR/ANPR_RZA2M_EBK/src/tensorflow_lite/third_party/gemmlowp/fixedpoint\fixedpoint.h ****   const F2 constant_48_over_17 =
 804:C:/Renesas/e2studio_2021_01_workspace_RZA2M_ANPR/ANPR_RZA2M_EBK/src/tensorflow_lite/third_party/gemmlowp/fixedpoint\fixedpoint.h ****       GEMMLOWP_CHECKED_FIXEDPOINT_CONSTANT(F2, 1515870810, 48.0 / 17.0);
 805:C:/Renesas/e2studio_2021_01_workspace_RZA2M_ANPR/ANPR_RZA2M_EBK/src/tensorflow_lite/third_party/gemmlowp/fixedpoint\fixedpoint.h ****   const F2 constant_neg_32_over_17 =
 806:C:/Renesas/e2studio_2021_01_workspace_RZA2M_ANPR/ANPR_RZA2M_EBK/src/tensorflow_lite/third_party/gemmlowp/fixedpoint\fixedpoint.h ****       GEMMLOWP_CHECKED_FIXEDPOINT_CONSTANT(F2, -1010580540, -32.0 / 17.0);
 807:C:/Renesas/e2studio_2021_01_workspace_RZA2M_ANPR/ANPR_RZA2M_EBK/src/tensorflow_lite/third_party/gemmlowp/fixedpoint\fixedpoint.h ****   F2 x = constant_48_over_17 + half_denominator * constant_neg_32_over_17;
 808:C:/Renesas/e2studio_2021_01_workspace_RZA2M_ANPR/ANPR_RZA2M_EBK/src/tensorflow_lite/third_party/gemmlowp/fixedpoint\fixedpoint.h ****   for (int i = 0; i < 3; i++) {
 809:C:/Renesas/e2studio_2021_01_workspace_RZA2M_ANPR/ANPR_RZA2M_EBK/src/tensorflow_lite/third_party/gemmlowp/fixedpoint\fixedpoint.h ****     F2 half_denominator_times_x = half_denominator * x;
 810:C:/Renesas/e2studio_2021_01_workspace_RZA2M_ANPR/ANPR_RZA2M_EBK/src/tensorflow_lite/third_party/gemmlowp/fixedpoint\fixedpoint.h ****     F2 one_minus_half_denominator_times_x =
 811:C:/Renesas/e2studio_2021_01_workspace_RZA2M_ANPR/ANPR_RZA2M_EBK/src/tensorflow_lite/third_party/gemmlowp/fixedpoint\fixedpoint.h ****         F2::One() - half_denominator_times_x;
 812:C:/Renesas/e2studio_2021_01_workspace_RZA2M_ANPR/ANPR_RZA2M_EBK/src/tensorflow_lite/third_party/gemmlowp/fixedpoint\fixedpoint.h ****     x = x + Rescale<2>(x * one_minus_half_denominator_times_x);
 813:C:/Renesas/e2studio_2021_01_workspace_RZA2M_ANPR/ANPR_RZA2M_EBK/src/tensorflow_lite/third_party/gemmlowp/fixedpoint\fixedpoint.h ****   }
 814:C:/Renesas/e2studio_2021_01_workspace_RZA2M_ANPR/ANPR_RZA2M_EBK/src/tensorflow_lite/third_party/gemmlowp/fixedpoint\fixedpoint.h ****   return Rescale<0>(x - F2::One());
 815:C:/Renesas/e2studio_2021_01_workspace_RZA2M_ANPR/ANPR_RZA2M_EBK/src/tensorflow_lite/third_party/gemmlowp/fixedpoint\fixedpoint.h **** }
 816:C:/Renesas/e2studio_2021_01_workspace_RZA2M_ANPR/ANPR_RZA2M_EBK/src/tensorflow_lite/third_party/gemmlowp/fixedpoint\fixedpoint.h **** 
 817:C:/Renesas/e2studio_2021_01_workspace_RZA2M_ANPR/ANPR_RZA2M_EBK/src/tensorflow_lite/third_party/gemmlowp/fixedpoint\fixedpoint.h **** // Returns -tanh(x) for x < 0.
 818:C:/Renesas/e2studio_2021_01_workspace_RZA2M_ANPR/ANPR_RZA2M_EBK/src/tensorflow_lite/third_party/gemmlowp/fixedpoint\fixedpoint.h **** template <typename tRawType, int tIntegerBits>
 819:C:/Renesas/e2studio_2021_01_workspace_RZA2M_ANPR/ANPR_RZA2M_EBK/src/tensorflow_lite/third_party/gemmlowp/fixedpoint\fixedpoint.h **** FixedPoint<tRawType, 0> neg_tanh_on_negative_values(
 820:C:/Renesas/e2studio_2021_01_workspace_RZA2M_ANPR/ANPR_RZA2M_EBK/src/tensorflow_lite/third_party/gemmlowp/fixedpoint\fixedpoint.h ****     FixedPoint<tRawType, tIntegerBits> a) {
 821:C:/Renesas/e2studio_2021_01_workspace_RZA2M_ANPR/ANPR_RZA2M_EBK/src/tensorflow_lite/third_party/gemmlowp/fixedpoint\fixedpoint.h ****   return one_minus_x_over_one_plus_x_for_x_in_0_1(
 822:C:/Renesas/e2studio_2021_01_workspace_RZA2M_ANPR/ANPR_RZA2M_EBK/src/tensorflow_lite/third_party/gemmlowp/fixedpoint\fixedpoint.h ****       exp_on_negative_values(ExactMulByPot<1>(a)));
 823:C:/Renesas/e2studio_2021_01_workspace_RZA2M_ANPR/ANPR_RZA2M_EBK/src/tensorflow_lite/third_party/gemmlowp/fixedpoint\fixedpoint.h **** }
 824:C:/Renesas/e2studio_2021_01_workspace_RZA2M_ANPR/ANPR_RZA2M_EBK/src/tensorflow_lite/third_party/gemmlowp/fixedpoint\fixedpoint.h **** 
 825:C:/Renesas/e2studio_2021_01_workspace_RZA2M_ANPR/ANPR_RZA2M_EBK/src/tensorflow_lite/third_party/gemmlowp/fixedpoint\fixedpoint.h **** // Returns tanh(x) for any x.
 826:C:/Renesas/e2studio_2021_01_workspace_RZA2M_ANPR/ANPR_RZA2M_EBK/src/tensorflow_lite/third_party/gemmlowp/fixedpoint\fixedpoint.h **** template <typename tRawType, int tIntegerBits>
 827:C:/Renesas/e2studio_2021_01_workspace_RZA2M_ANPR/ANPR_RZA2M_EBK/src/tensorflow_lite/third_party/gemmlowp/fixedpoint\fixedpoint.h **** FixedPoint<tRawType, 0> tanh(FixedPoint<tRawType, tIntegerBits> a) {
 828:C:/Renesas/e2studio_2021_01_workspace_RZA2M_ANPR/ANPR_RZA2M_EBK/src/tensorflow_lite/third_party/gemmlowp/fixedpoint\fixedpoint.h ****   typedef FixedPoint<tRawType, tIntegerBits> InputF;
 829:C:/Renesas/e2studio_2021_01_workspace_RZA2M_ANPR/ANPR_RZA2M_EBK/src/tensorflow_lite/third_party/gemmlowp/fixedpoint\fixedpoint.h ****   typedef FixedPoint<tRawType, 0> ResultF;
 830:C:/Renesas/e2studio_2021_01_workspace_RZA2M_ANPR/ANPR_RZA2M_EBK/src/tensorflow_lite/third_party/gemmlowp/fixedpoint\fixedpoint.h ****   tRawType mask_if_negative = MaskIfLessThan(a, InputF::Zero());
 831:C:/Renesas/e2studio_2021_01_workspace_RZA2M_ANPR/ANPR_RZA2M_EBK/src/tensorflow_lite/third_party/gemmlowp/fixedpoint\fixedpoint.h ****   tRawType mask_if_zero = MaskIfZero(a);
 832:C:/Renesas/e2studio_2021_01_workspace_RZA2M_ANPR/ANPR_RZA2M_EBK/src/tensorflow_lite/third_party/gemmlowp/fixedpoint\fixedpoint.h ****   InputF n = SelectUsingMask(mask_if_negative, a, -a);
 833:C:/Renesas/e2studio_2021_01_workspace_RZA2M_ANPR/ANPR_RZA2M_EBK/src/tensorflow_lite/third_party/gemmlowp/fixedpoint\fixedpoint.h ****   ResultF t = neg_tanh_on_negative_values(n);
 834:C:/Renesas/e2studio_2021_01_workspace_RZA2M_ANPR/ANPR_RZA2M_EBK/src/tensorflow_lite/third_party/gemmlowp/fixedpoint\fixedpoint.h ****   return SelectUsingMask(mask_if_zero, ResultF::Zero(),
 835:C:/Renesas/e2studio_2021_01_workspace_RZA2M_ANPR/ANPR_RZA2M_EBK/src/tensorflow_lite/third_party/gemmlowp/fixedpoint\fixedpoint.h ****                          SelectUsingMask(mask_if_negative, -t, t));
 836:C:/Renesas/e2studio_2021_01_workspace_RZA2M_ANPR/ANPR_RZA2M_EBK/src/tensorflow_lite/third_party/gemmlowp/fixedpoint\fixedpoint.h **** }
 837:C:/Renesas/e2studio_2021_01_workspace_RZA2M_ANPR/ANPR_RZA2M_EBK/src/tensorflow_lite/third_party/gemmlowp/fixedpoint\fixedpoint.h **** 
 838:C:/Renesas/e2studio_2021_01_workspace_RZA2M_ANPR/ANPR_RZA2M_EBK/src/tensorflow_lite/third_party/gemmlowp/fixedpoint\fixedpoint.h **** // Implementation of logistic function.
 839:C:/Renesas/e2studio_2021_01_workspace_RZA2M_ANPR/ANPR_RZA2M_EBK/src/tensorflow_lite/third_party/gemmlowp/fixedpoint\fixedpoint.h **** 
 840:C:/Renesas/e2studio_2021_01_workspace_RZA2M_ANPR/ANPR_RZA2M_EBK/src/tensorflow_lite/third_party/gemmlowp/fixedpoint\fixedpoint.h **** // Returns 1 / (1 + x) for x in (0, 1).
 841:C:/Renesas/e2studio_2021_01_workspace_RZA2M_ANPR/ANPR_RZA2M_EBK/src/tensorflow_lite/third_party/gemmlowp/fixedpoint\fixedpoint.h **** template <typename tRawType>
 842:C:/Renesas/e2studio_2021_01_workspace_RZA2M_ANPR/ANPR_RZA2M_EBK/src/tensorflow_lite/third_party/gemmlowp/fixedpoint\fixedpoint.h **** FixedPoint<tRawType, 0> one_over_one_plus_x_for_x_in_0_1(
 684              		.loc 5 842 0
 685              		.cfi_startproc
 686              		@ args = 0, pretend = 0, frame = 0
 687              		@ frame_needed = 0, uses_anonymous_args = 0
 688              	.LVL72:
 689              	.LBB1726:
 690              	.LBB1727:
 691              	.LBB1728:
 240:C:/Renesas/e2studio_2021_01_workspace_RZA2M_ANPR/ANPR_RZA2M_EBK/src/tensorflow_lite/third_party/gemmlowp/fixedpoint\fixedpoint.h ****   return static_cast<std::int32_t>((sum + sign) / 2);
 692              		.loc 5 240 0
 693 0000 020150E3 		cmp	r0, #-2147483648
 694              	.LBE1728:
 695              	.LBE1727:
 696              	.LBE1726:
 697              		.loc 5 842 0
 698 0004 F0432DE9 		push	{r4, r5, r6, r7, r8, r9, lr}
 699              		.cfi_def_cfa_offset 28
 700              		.cfi_offset 4, -28
 701              		.cfi_offset 5, -24
 702              		.cfi_offset 6, -20
 703              		.cfi_offset 7, -16
 704              		.cfi_offset 8, -12
 705              		.cfi_offset 9, -8
 706              		.cfi_offset 14, -4
 707              	.LBB1739:
 708              	.LBB1734:
 709              	.LBB1729:
 240:C:/Renesas/e2studio_2021_01_workspace_RZA2M_ANPR/ANPR_RZA2M_EBK/src/tensorflow_lite/third_party/gemmlowp/fixedpoint\fixedpoint.h ****   return static_cast<std::int32_t>((sum + sign) / 2);
 710              		.loc 5 240 0
 711 0008 1C01000A 		beq	.L66
 712              	.LVL73:
 713 000c C01FA0E1 		asr	r1, r0, #31
 241:C:/Renesas/e2studio_2021_01_workspace_RZA2M_ANPR/ANPR_RZA2M_EBK/src/tensorflow_lite/third_party/gemmlowp/fixedpoint\fixedpoint.h **** }
 714              		.loc 5 241 0
 715 0010 020190E2 		adds	r0, r0, #-2147483648
 716              	.LVL74:
 717              	.LBE1729:
 718              	.LBE1734:
 719              	.LBE1739:
 720              	.LBB1740:
 721              	.LBB1741:
 722              	.LBB1742:
 723              	.LBB1743:
 334:C:/Renesas/e2studio_2021_01_workspace_RZA2M_ANPR/ANPR_RZA2M_EBK/src/tensorflow_lite/third_party/gemmlowp/fixedpoint\fixedpoint.h ****   std::int32_t nudge = ab_64 >= 0 ? (1 << 30) : (1 - (1 << 30));
 724              		.loc 5 334 0
 725 0014 C4330CE3 		movw	r3, #50116
 726              	.LBE1743:
 727              	.LBE1742:
 728              	.LBE1741:
 729              	.LBE1740:
 730              	.LBB1753:
 731              	.LBB1735:
 732              	.LBB1730:
 241:C:/Renesas/e2studio_2021_01_workspace_RZA2M_ANPR/ANPR_RZA2M_EBK/src/tensorflow_lite/third_party/gemmlowp/fixedpoint\fixedpoint.h **** }
 733              		.loc 5 241 0
 734 0018 0010A1E2 		adc	r1, r1, #0
 735              	.LBE1730:
 736              	.LBE1735:
 737              	.LBE1753:
 738              	.LBB1754:
 739              	.LBB1750:
 740              	.LBB1747:
 741              	.LBB1744:
 334:C:/Renesas/e2studio_2021_01_workspace_RZA2M_ANPR/ANPR_RZA2M_EBK/src/tensorflow_lite/third_party/gemmlowp/fixedpoint\fixedpoint.h ****   std::int32_t nudge = ab_64 >= 0 ? (1 << 30) : (1 - (1 << 30));
 742              		.loc 5 334 0
 743 001c C3334CE3 		movt	r3, 50115
 744              	.LBE1744:
 745              	.LBE1747:
 746              	.LBE1750:
 747              	.LBE1754:
 748              	.LBB1755:
 749              	.LBB1736:
 750              	.LBB1731:
 241:C:/Renesas/e2studio_2021_01_workspace_RZA2M_ANPR/ANPR_RZA2M_EBK/src/tensorflow_lite/third_party/gemmlowp/fixedpoint\fixedpoint.h **** }
 751              		.loc 5 241 0
 752 0020 C110B0E1 		movs	r1, r1, asr #1
 753 0024 6000A0E1 		mov	r0, r0, rrx
 754              	.LVL75:
 755              	.LBE1731:
 756              	.LBE1736:
 757              	.LBE1755:
 758              	.LBB1756:
 759              	.LBB1757:
 760              	.LBB1758:
  95:C:/Renesas/e2studio_2021_01_workspace_RZA2M_ANPR/ANPR_RZA2M_EBK/src/tensorflow_lite/third_party/gemmlowp/fixedpoint\fixedpoint.h **** }
 761              		.loc 5 95 0
 762 0028 5ACA05E3 		movw	ip, #23130
 763              	.LBE1758:
 764              	.LBE1757:
 765              	.LBE1756:
 766              	.LBB1767:
 767              	.LBB1751:
 768              	.LBB1748:
 769              	.LBB1745:
 334:C:/Renesas/e2studio_2021_01_workspace_RZA2M_ANPR/ANPR_RZA2M_EBK/src/tensorflow_lite/third_party/gemmlowp/fixedpoint\fixedpoint.h ****   std::int32_t nudge = ab_64 >= 0 ? (1 << 30) : (1 - (1 << 30));
 770              		.loc 5 334 0
 771 002c 002060E2 		rsb	r2, r0, #0
 772 0030 904385E0 		umull	r4, r5, r0, r3
 773              	.LBE1745:
 774              	.LBE1748:
 775              	.LBE1751:
 776              	.LBE1767:
 777              	.LBB1768:
 778              	.LBB1763:
 779              	.LBB1759:
  95:C:/Renesas/e2studio_2021_01_workspace_RZA2M_ANPR/ANPR_RZA2M_EBK/src/tensorflow_lite/third_party/gemmlowp/fixedpoint\fixedpoint.h **** }
 780              		.loc 5 95 0
 781 0034 5ACA45E3 		movt	ip, 23130
 782              	.LBE1759:
 783              	.LBE1763:
 784              	.LBE1768:
 785              	.LBB1769:
 786              	.LBB1752:
 787              	.LBB1749:
 788              	.LBB1746:
 334:C:/Renesas/e2studio_2021_01_workspace_RZA2M_ANPR/ANPR_RZA2M_EBK/src/tensorflow_lite/third_party/gemmlowp/fixedpoint\fixedpoint.h ****   std::int32_t nudge = ab_64 >= 0 ? (1 << 30) : (1 - (1 << 30));
 789              		.loc 5 334 0
 790 0038 932123E0 		mla	r3, r3, r1, r2
 791 003c 055083E0 		add	r5, r3, r5
 792              	.LVL76:
 335:C:/Renesas/e2studio_2021_01_workspace_RZA2M_ANPR/ANPR_RZA2M_EBK/src/tensorflow_lite/third_party/gemmlowp/fixedpoint\fixedpoint.h ****   std::int32_t ab_x2_high32 =
 793              		.loc 5 335 0
 794 0040 053094E1 		orrs	r3, r4, r5
 795 0044 0121A003 		moveq	r2, #1073741824
 796 0048 0721A013 		movne	r2, #-1073741823
 797 004c 0030A003 		moveq	r3, #0
 798 0050 0030E013 		mvnne	r3, #0
 799              	.LVL77:
 337:C:/Renesas/e2studio_2021_01_workspace_RZA2M_ANPR/ANPR_RZA2M_EBK/src/tensorflow_lite/third_party/gemmlowp/fixedpoint\fixedpoint.h ****   return overflow ? std::numeric_limits<std::int32_t>::max() : ab_x2_high32;
 800              		.loc 5 337 0
 801 0054 024094E0 		adds	r4, r4, r2
 802              	.LVL78:
 803 0058 0350A5E0 		adc	r5, r5, r3
 804 005c 0030A0E3 		mov	r3, #0
 805 0060 C52FA0E1 		asr	r2, r5, #31
 806 0064 0221C2E3 		bic	r2, r2, #-2147483648
 807 0068 042092E0 		adds	r2, r2, r4
 808 006c A22FA0E1 		lsr	r2, r2, #31
 809 0070 0530A3E0 		adc	r3, r3, r5
 810 0074 832082E1 		orr	r2, r2, r3, lsl #1
 811              	.LBE1746:
 812              	.LBE1749:
 813              	.LBE1752:
 814              	.LBE1769:
 815              	.LBB1770:
 816              	.LBB1764:
 817              	.LBB1760:
  95:C:/Renesas/e2studio_2021_01_workspace_RZA2M_ANPR/ANPR_RZA2M_EBK/src/tensorflow_lite/third_party/gemmlowp/fixedpoint\fixedpoint.h **** }
 818              		.loc 5 95 0
 819 0078 02C08CE0 		add	ip, ip, r2
 820              	.LVL79:
 821              	.LBE1760:
 822              	.LBE1764:
 823              	.LBE1770:
 824              	.LBB1771:
 825              	.LBB1772:
 826              	.LBB1773:
 827              	.LBB1774:
 828              	.LBB1775:
 829              	.LBB1776:
 333:C:/Renesas/e2studio_2021_01_workspace_RZA2M_ANPR/ANPR_RZA2M_EBK/src/tensorflow_lite/third_party/gemmlowp/fixedpoint\fixedpoint.h ****   std::int64_t ab_64 = a_64 * b_64;
 830              		.loc 5 333 0
 831 007c CC5FA0E1 		asr	r5, ip, #31
 334:C:/Renesas/e2studio_2021_01_workspace_RZA2M_ANPR/ANPR_RZA2M_EBK/src/tensorflow_lite/third_party/gemmlowp/fixedpoint\fixedpoint.h ****   std::int32_t nudge = ab_64 >= 0 ? (1 << 30) : (1 - (1 << 30));
 832              		.loc 5 334 0
 833 0080 902C83E0 		umull	r2, r3, r0, ip
 333:C:/Renesas/e2studio_2021_01_workspace_RZA2M_ANPR/ANPR_RZA2M_EBK/src/tensorflow_lite/third_party/gemmlowp/fixedpoint\fixedpoint.h ****   std::int64_t ab_64 = a_64 * b_64;
 834              		.loc 5 333 0
 835 0084 0C40A0E1 		mov	r4, ip
 836              	.LVL80:
 334:C:/Renesas/e2studio_2021_01_workspace_RZA2M_ANPR/ANPR_RZA2M_EBK/src/tensorflow_lite/third_party/gemmlowp/fixedpoint\fixedpoint.h ****   std::int32_t nudge = ab_64 >= 0 ? (1 << 30) : (1 - (1 << 30));
 837              		.loc 5 334 0
 838 0088 90050EE0 		mul	lr, r0, r5
 335:C:/Renesas/e2studio_2021_01_workspace_RZA2M_ANPR/ANPR_RZA2M_EBK/src/tensorflow_lite/third_party/gemmlowp/fixedpoint\fixedpoint.h ****   std::int32_t ab_x2_high32 =
 839              		.loc 5 335 0
 840 008c 000052E3 		cmp	r2, #0
 334:C:/Renesas/e2studio_2021_01_workspace_RZA2M_ANPR/ANPR_RZA2M_EBK/src/tensorflow_lite/third_party/gemmlowp/fixedpoint\fixedpoint.h ****   std::int32_t nudge = ab_64 >= 0 ? (1 << 30) : (1 - (1 << 30));
 841              		.loc 5 334 0
 842 0090 9CE12EE0 		mla	lr, ip, r1, lr
 843 0094 03308EE0 		add	r3, lr, r3
 844              	.LVL81:
 335:C:/Renesas/e2studio_2021_01_workspace_RZA2M_ANPR/ANPR_RZA2M_EBK/src/tensorflow_lite/third_party/gemmlowp/fixedpoint\fixedpoint.h ****   std::int32_t ab_x2_high32 =
 845              		.loc 5 335 0
 846 0098 00E0D3E2 		sbcs	lr, r3, #0
 847 009c 0161A0A3 		movge	r6, #1073741824
 848 00a0 0070A0A3 		movge	r7, #0
 849 00a4 FE0000BA 		blt	.L45
 850              	.LVL82:
 851              	.L47:
 337:C:/Renesas/e2studio_2021_01_workspace_RZA2M_ANPR/ANPR_RZA2M_EBK/src/tensorflow_lite/third_party/gemmlowp/fixedpoint\fixedpoint.h ****   return overflow ? std::numeric_limits<std::int32_t>::max() : ab_x2_high32;
 852              		.loc 5 337 0
 853 00a8 026096E0 		adds	r6, r6, r2
 854              	.LVL83:
 855 00ac 0370A7E0 		adc	r7, r7, r3
 856 00b0 0030A0E3 		mov	r3, #0
 857 00b4 C72FA0E1 		asr	r2, r7, #31
 858 00b8 0221C2E3 		bic	r2, r2, #-2147483648
 859 00bc 062092E0 		adds	r2, r2, r6
 860 00c0 A22FA0E1 		lsr	r2, r2, #31
 861 00c4 0730A3E0 		adc	r3, r3, r7
 862 00c8 832082E1 		orr	r2, r2, r3, lsl #1
 863              	.LBE1776:
 864              	.LBE1775:
 865              	.LBE1774:
 866              	.LBE1773:
 867              	.LBB1792:
 868              	.LBB1793:
 869              	.LBB1794:
 106:C:/Renesas/e2studio_2021_01_workspace_RZA2M_ANPR/ANPR_RZA2M_EBK/src/tensorflow_lite/third_party/gemmlowp/fixedpoint\fixedpoint.h **** }
 870              		.loc 5 106 0
 871 00cc 022262E2 		rsb	r2, r2, #536870912
 872              	.LBE1794:
 873              	.LBE1793:
 874              	.LBE1792:
 875              	.LBB1799:
 876              	.LBB1800:
 877              	.LBB1801:
 878              	.LBB1802:
 334:C:/Renesas/e2studio_2021_01_workspace_RZA2M_ANPR/ANPR_RZA2M_EBK/src/tensorflow_lite/third_party/gemmlowp/fixedpoint\fixedpoint.h ****   std::int32_t nudge = ab_64 >= 0 ? (1 << 30) : (1 - (1 << 30));
 879              		.loc 5 334 0
 880 00d0 92050EE0 		mul	lr, r2, r5
 333:C:/Renesas/e2studio_2021_01_workspace_RZA2M_ANPR/ANPR_RZA2M_EBK/src/tensorflow_lite/third_party/gemmlowp/fixedpoint\fixedpoint.h ****   std::int64_t ab_64 = a_64 * b_64;
 881              		.loc 5 333 0
 882 00d4 C27FA0E1 		asr	r7, r2, #31
 883 00d8 0260A0E1 		mov	r6, r2
 334:C:/Renesas/e2studio_2021_01_workspace_RZA2M_ANPR/ANPR_RZA2M_EBK/src/tensorflow_lite/third_party/gemmlowp/fixedpoint\fixedpoint.h ****   std::int32_t nudge = ab_64 >= 0 ? (1 << 30) : (1 - (1 << 30));
 884              		.loc 5 334 0
 885 00dc 922483E0 		umull	r2, r3, r2, r4
 886              	.LBE1802:
 887              	.LBE1801:
 888              	.LBE1800:
 889              	.LBE1799:
 890              	.LBB1818:
 891              	.LBB1819:
 892              	.LBB1820:
 893              	.LBB1821:
 894              	.LBB1822:
 895              	.LBB1823:
 896              	.LBB1824:
 131:C:/Renesas/e2studio_2021_01_workspace_RZA2M_ANPR/ANPR_RZA2M_EBK/src/tensorflow_lite/third_party/gemmlowp/fixedpoint\fixedpoint.h ****              : wide_shifted > max ? max
 897              		.loc 5 131 0
 898 00e0 0050E0E3 		mvn	r5, #0
 899              	.LBE1824:
 900              	.LBE1823:
 901              	.LBE1822:
 902              	.LBE1821:
 903              	.LBE1820:
 904              	.LBE1819:
 905              	.LBE1818:
 906              	.LBB1866:
 907              	.LBB1813:
 908              	.LBB1808:
 909              	.LBB1803:
 334:C:/Renesas/e2studio_2021_01_workspace_RZA2M_ANPR/ANPR_RZA2M_EBK/src/tensorflow_lite/third_party/gemmlowp/fixedpoint\fixedpoint.h ****   std::int32_t nudge = ab_64 >= 0 ? (1 << 30) : (1 - (1 << 30));
 910              		.loc 5 334 0
 911 00e4 94E724E0 		mla	r4, r4, r7, lr
 912              	.LVL84:
 335:C:/Renesas/e2studio_2021_01_workspace_RZA2M_ANPR/ANPR_RZA2M_EBK/src/tensorflow_lite/third_party/gemmlowp/fixedpoint\fixedpoint.h ****   std::int32_t ab_x2_high32 =
 913              		.loc 5 335 0
 914 00e8 000052E3 		cmp	r2, #0
 334:C:/Renesas/e2studio_2021_01_workspace_RZA2M_ANPR/ANPR_RZA2M_EBK/src/tensorflow_lite/third_party/gemmlowp/fixedpoint\fixedpoint.h ****   std::int32_t nudge = ab_64 >= 0 ? (1 << 30) : (1 - (1 << 30));
 915              		.loc 5 334 0
 916 00ec 033084E0 		add	r3, r4, r3
 917              	.LVL85:
 918              	.LBE1803:
 919              	.LBE1808:
 920              	.LBE1813:
 921              	.LBE1866:
 922              	.LBB1867:
 923              	.LBB1862:
 924              	.LBB1858:
 925              	.LBB1854:
 926              	.LBB1850:
 927              	.LBB1830:
 928              	.LBB1825:
 131:C:/Renesas/e2studio_2021_01_workspace_RZA2M_ANPR/ANPR_RZA2M_EBK/src/tensorflow_lite/third_party/gemmlowp/fixedpoint\fixedpoint.h ****              : wide_shifted > max ? max
 929              		.loc 5 131 0
 930 00f0 0241A0E3 		mov	r4, #-2147483648
 931              	.LBE1825:
 932              	.LBE1830:
 933              	.LBE1850:
 934              	.LBE1854:
 935              	.LBE1858:
 936              	.LBE1862:
 937              	.LBE1867:
 938              	.LBB1868:
 939              	.LBB1814:
 940              	.LBB1809:
 941              	.LBB1804:
 335:C:/Renesas/e2studio_2021_01_workspace_RZA2M_ANPR/ANPR_RZA2M_EBK/src/tensorflow_lite/third_party/gemmlowp/fixedpoint\fixedpoint.h ****   std::int32_t ab_x2_high32 =
 942              		.loc 5 335 0
 943 00f4 00E0D3E2 		sbcs	lr, r3, #0
 944 00f8 0161A0A3 		movge	r6, #1073741824
 945 00fc 0761A0B3 		movlt	r6, #-1073741823
 946 0100 0070A0A3 		movge	r7, #0
 947 0104 0070E0B3 		mvnlt	r7, #0
 948              	.LVL86:
 337:C:/Renesas/e2studio_2021_01_workspace_RZA2M_ANPR/ANPR_RZA2M_EBK/src/tensorflow_lite/third_party/gemmlowp/fixedpoint\fixedpoint.h ****   return overflow ? std::numeric_limits<std::int32_t>::max() : ab_x2_high32;
 949              		.loc 5 337 0
 950 0108 026096E0 		adds	r6, r6, r2
 951              	.LVL87:
 952 010c 0370A7E0 		adc	r7, r7, r3
 953 0110 0030A0E3 		mov	r3, #0
 954 0114 C72FA0E1 		asr	r2, r7, #31
 955              	.LVL88:
 956 0118 0221C2E3 		bic	r2, r2, #-2147483648
 957 011c 062092E0 		adds	r2, r2, r6
 958 0120 A22FA0E1 		lsr	r2, r2, #31
 959 0124 0730A3E0 		adc	r3, r3, r7
 960 0128 832082E1 		orr	r2, r2, r3, lsl #1
 961 012c C33FA0E1 		asr	r3, r3, #31
 962              	.LVL89:
 963              	.LBE1804:
 964              	.LBE1809:
 965              	.LBE1814:
 966              	.LBE1868:
 967              	.LBB1869:
 968              	.LBB1863:
 969              	.LBB1859:
 970              	.LBB1855:
 971              	.LBB1851:
 972              	.LBB1831:
 973              	.LBB1826:
 127:C:/Renesas/e2studio_2021_01_workspace_RZA2M_ANPR/ANPR_RZA2M_EBK/src/tensorflow_lite/third_party/gemmlowp/fixedpoint\fixedpoint.h ****   const auto min = std::numeric_limits<tIntegerType>::min();
 974              		.loc 5 127 0
 975 0130 0371A0E1 		lsl	r7, r3, #2
 976 0134 0261A0E1 		lsl	r6, r2, #2
 977 0138 227F87E1 		orr	r7, r7, r2, lsr #30
 978              	.LBE1826:
 979              	.LBE1831:
 980              	.LBB1832:
 981              	.LBB1833:
 982              	.LBB1834:
 158:C:/Renesas/e2studio_2021_01_workspace_RZA2M_ANPR/ANPR_RZA2M_EBK/src/tensorflow_lite/third_party/gemmlowp/fixedpoint\fixedpoint.h **** }
 983              		.loc 5 158 0
 984 013c 1E0252E3 		cmp	r2, #-536870911
 985 0140 0020A0A3 		movge	r2, #0
 986 0144 0120A0B3 		movlt	r2, #1
 987              	.LBE1834:
 988              	.LBE1833:
 989              	.LBE1832:
 990              	.LBB1839:
 991              	.LBB1827:
 131:C:/Renesas/e2studio_2021_01_workspace_RZA2M_ANPR/ANPR_RZA2M_EBK/src/tensorflow_lite/third_party/gemmlowp/fixedpoint\fixedpoint.h ****              : wide_shifted > max ? max
 992              		.loc 5 131 0
 993 0148 040056E1 		cmp	r6, r4
 994 014c 0530D7E0 		sbcs	r3, r7, r5
 995              	.LBE1827:
 996              	.LBE1839:
 997              	.LBB1840:
 998              	.LBB1837:
 999              	.LBB1835:
 158:C:/Renesas/e2studio_2021_01_workspace_RZA2M_ANPR/ANPR_RZA2M_EBK/src/tensorflow_lite/third_party/gemmlowp/fixedpoint\fixedpoint.h **** }
 1000              		.loc 5 158 0
 1001 0150 003062E2 		rsb	r3, r2, #0
 1002 0154 012042E2 		sub	r2, r2, #1
 1003              	.LVL90:
 1004 0158 02E103E2 		and	lr, r3, #-2147483648
 1005 015c 062002A0 		andge	r2, r2, r6
 1006 0160 023023B0 		eorlt	r3, r3, r2
 1007 0164 0E3022A0 		eorge	r3, r2, lr
 1008 0168 023103B2 		andlt	r3, r3, #-2147483648
 1009              	.LBE1835:
 1010              	.LBE1837:
 1011              	.LBE1840:
 1012              	.LBE1851:
 1013              	.LBE1855:
 1014              	.LBE1859:
 1015              	.LBE1863:
 1016              	.LBE1869:
 1017              	.LBB1870:
 1018              	.LBB1871:
 1019              	.LBB1872:
  95:C:/Renesas/e2studio_2021_01_workspace_RZA2M_ANPR/ANPR_RZA2M_EBK/src/tensorflow_lite/third_party/gemmlowp/fixedpoint\fixedpoint.h **** }
 1020              		.loc 5 95 0
 1021 016c 0C3083E0 		add	r3, r3, ip
 1022              	.LVL91:
 1023              	.LBE1872:
 1024              	.LBE1871:
 1025              	.LBE1870:
 1026              	.LBB1877:
 1027              	.LBB1787:
 1028              	.LBB1782:
 1029              	.LBB1777:
 334:C:/Renesas/e2studio_2021_01_workspace_RZA2M_ANPR/ANPR_RZA2M_EBK/src/tensorflow_lite/third_party/gemmlowp/fixedpoint\fixedpoint.h ****   std::int32_t nudge = ab_64 >= 0 ? (1 << 30) : (1 - (1 << 30));
 1030              		.loc 5 334 0
 1031 0170 930102E0 		mul	r2, r3, r1
 333:C:/Renesas/e2studio_2021_01_workspace_RZA2M_ANPR/ANPR_RZA2M_EBK/src/tensorflow_lite/third_party/gemmlowp/fixedpoint\fixedpoint.h ****   std::int64_t ab_64 = a_64 * b_64;
 1032              		.loc 5 333 0
 1033 0174 C37FA0E1 		asr	r7, r3, #31
 1034 0178 0360A0E1 		mov	r6, r3
 334:C:/Renesas/e2studio_2021_01_workspace_RZA2M_ANPR/ANPR_RZA2M_EBK/src/tensorflow_lite/third_party/gemmlowp/fixedpoint\fixedpoint.h ****   std::int32_t nudge = ab_64 >= 0 ? (1 << 30) : (1 - (1 << 30));
 1035              		.loc 5 334 0
 1036 017c 934085E0 		umull	r4, r5, r3, r0
 1037 0180 902722E0 		mla	r2, r0, r7, r2
 335:C:/Renesas/e2studio_2021_01_workspace_RZA2M_ANPR/ANPR_RZA2M_EBK/src/tensorflow_lite/third_party/gemmlowp/fixedpoint\fixedpoint.h ****   std::int32_t ab_x2_high32 =
 1038              		.loc 5 335 0
 1039 0184 000054E3 		cmp	r4, #0
 334:C:/Renesas/e2studio_2021_01_workspace_RZA2M_ANPR/ANPR_RZA2M_EBK/src/tensorflow_lite/third_party/gemmlowp/fixedpoint\fixedpoint.h ****   std::int32_t nudge = ab_64 >= 0 ? (1 << 30) : (1 - (1 << 30));
 1040              		.loc 5 334 0
 1041 0188 055082E0 		add	r5, r2, r5
 1042              	.LVL92:
 335:C:/Renesas/e2studio_2021_01_workspace_RZA2M_ANPR/ANPR_RZA2M_EBK/src/tensorflow_lite/third_party/gemmlowp/fixedpoint\fixedpoint.h ****   std::int32_t ab_x2_high32 =
 1043              		.loc 5 335 0
 1044 018c 0020D5E2 		sbcs	r2, r5, #0
 1045 0190 0161A0A3 		movge	r6, #1073741824
 1046 0194 0761A0B3 		movlt	r6, #-1073741823
 1047 0198 0070A0A3 		movge	r7, #0
 1048 019c 0070E0B3 		mvnlt	r7, #0
 1049              	.LVL93:
 337:C:/Renesas/e2studio_2021_01_workspace_RZA2M_ANPR/ANPR_RZA2M_EBK/src/tensorflow_lite/third_party/gemmlowp/fixedpoint\fixedpoint.h ****   return overflow ? std::numeric_limits<std::int32_t>::max() : ab_x2_high32;
 1050              		.loc 5 337 0
 1051 01a0 046096E0 		adds	r6, r6, r4
 1052              	.LVL94:
 1053 01a4 0570A7E0 		adc	r7, r7, r5
 1054 01a8 0050A0E3 		mov	r5, #0
 1055 01ac C74FA0E1 		asr	r4, r7, #31
 1056 01b0 0241C4E3 		bic	r4, r4, #-2147483648
 1057 01b4 064094E0 		adds	r4, r4, r6
 1058 01b8 A44FA0E1 		lsr	r4, r4, #31
 1059 01bc 0750A5E0 		adc	r5, r5, r7
 1060 01c0 854084E1 		orr	r4, r4, r5, lsl #1
 1061              	.LBE1777:
 1062              	.LBE1782:
 1063              	.LBE1787:
 1064              	.LBE1877:
 1065              	.LBB1878:
 1066              	.LBB1797:
 1067              	.LBB1795:
 106:C:/Renesas/e2studio_2021_01_workspace_RZA2M_ANPR/ANPR_RZA2M_EBK/src/tensorflow_lite/third_party/gemmlowp/fixedpoint\fixedpoint.h **** }
 1068              		.loc 5 106 0
 1069 01c4 024264E2 		rsb	r4, r4, #536870912
 1070              	.LVL95:
 1071              	.LBE1795:
 1072              	.LBE1797:
 1073              	.LBE1878:
 1074              	.LBB1879:
 1075              	.LBB1815:
 1076              	.LBB1810:
 1077              	.LBB1805:
 334:C:/Renesas/e2studio_2021_01_workspace_RZA2M_ANPR/ANPR_RZA2M_EBK/src/tensorflow_lite/third_party/gemmlowp/fixedpoint\fixedpoint.h ****   std::int32_t nudge = ab_64 >= 0 ? (1 << 30) : (1 - (1 << 30));
 1078              		.loc 5 334 0
 1079 01c8 9463C7E0 		smull	r6, r7, r4, r3
 331:C:/Renesas/e2studio_2021_01_workspace_RZA2M_ANPR/ANPR_RZA2M_EBK/src/tensorflow_lite/third_party/gemmlowp/fixedpoint\fixedpoint.h ****   std::int64_t a_64(a);
 1080              		.loc 5 331 0
 1081 01cc 020153E3 		cmp	r3, #-2147483648
 1082 01d0 03005401 		cmpeq	r4, r3
 1083 01d4 0140A003 		moveq	r4, #1
 1084              	.LVL96:
 1085 01d8 0040A013 		movne	r4, #0
 1086              	.LVL97:
 335:C:/Renesas/e2studio_2021_01_workspace_RZA2M_ANPR/ANPR_RZA2M_EBK/src/tensorflow_lite/third_party/gemmlowp/fixedpoint\fixedpoint.h ****   std::int32_t ab_x2_high32 =
 1087              		.loc 5 335 0
 1088 01dc 000056E3 		cmp	r6, #0
 1089 01e0 0020D7E2 		sbcs	r2, r7, #0
 1090 01e4 0181A0A3 		movge	r8, #1073741824
 1091 01e8 0090A0A3 		movge	r9, #0
 1092 01ec 0781A0B3 		movlt	r8, #-1073741823
 1093 01f0 0090E0B3 		mvnlt	r9, #0
 1094              	.LVL98:
 338:C:/Renesas/e2studio_2021_01_workspace_RZA2M_ANPR/ANPR_RZA2M_EBK/src/tensorflow_lite/third_party/gemmlowp/fixedpoint\fixedpoint.h **** }
 1095              		.loc 5 338 0
 1096 01f4 000054E3 		cmp	r4, #0
 1097 01f8 0241E013 		mvnne	r4, #-2147483648
 1098              	.LVL99:
 1099 01fc 2000001A 		bne	.L53
 337:C:/Renesas/e2studio_2021_01_workspace_RZA2M_ANPR/ANPR_RZA2M_EBK/src/tensorflow_lite/third_party/gemmlowp/fixedpoint\fixedpoint.h ****   return overflow ? std::numeric_limits<std::int32_t>::max() : ab_x2_high32;
 1100              		.loc 5 337 0
 1101 0200 068098E0 		adds	r8, r8, r6
 1102              	.LVL100:
 1103 0204 0790A9E0 		adc	r9, r9, r7
 1104 0208 0070A0E3 		mov	r7, #0
 1105 020c C96FA0E1 		asr	r6, r9, #31
 1106              	.LVL101:
 1107 0210 0261C6E3 		bic	r6, r6, #-2147483648
 1108 0214 086096E0 		adds	r6, r6, r8
 1109 0218 A66FA0E1 		lsr	r6, r6, #31
 1110 021c 0970A7E0 		adc	r7, r7, r9
 1111 0220 876086E1 		orr	r6, r6, r7, lsl #1
 1112              	.LVL102:
 1113              	.LBE1805:
 1114              	.LBE1810:
 1115              	.LBE1815:
 1116              	.LBE1879:
 1117              	.LBB1880:
 1118              	.LBB1864:
 1119              	.LBB1860:
 1120              	.LBB1856:
 1121              	.LBB1852:
 1122              	.LBB1841:
 1123              	.LBB1842:
 1124              	.LBB1843:
 158:C:/Renesas/e2studio_2021_01_workspace_RZA2M_ANPR/ANPR_RZA2M_EBK/src/tensorflow_lite/third_party/gemmlowp/fixedpoint\fixedpoint.h **** }
 1125              		.loc 5 158 0
 1126 0224 1E0276E3 		cmn	r6, #-536870911
 1127 0228 8A0000DA 		ble	.L54
 1128 022c 02C1E0E3 		mvn	ip, #-2147483648
 1129              	.LVL103:
 1130 0230 0420A0E1 		mov	r2, r4
 1131 0234 0C50A0E1 		mov	r5, ip
 1132 0238 00E0E0E3 		mvn	lr, #0
 1133              	.L57:
 1134              	.LVL104:
 1135              	.LBE1843:
 1136              	.LBE1842:
 1137              	.LBE1841:
 1138              	.LBB1846:
 1139              	.LBB1828:
 127:C:/Renesas/e2studio_2021_01_workspace_RZA2M_ANPR/ANPR_RZA2M_EBK/src/tensorflow_lite/third_party/gemmlowp/fixedpoint\fixedpoint.h ****   const auto min = std::numeric_limits<tIntegerType>::min();
 1140              		.loc 5 127 0
 1141 023c 906B80EE 		vdup.32	d16, r6
 131:C:/Renesas/e2studio_2021_01_workspace_RZA2M_ANPR/ANPR_RZA2M_EBK/src/tensorflow_lite/third_party/gemmlowp/fixedpoint\fixedpoint.h ****              : wide_shifted > max ? max
 1142              		.loc 5 131 0
 1143 0240 0261A0E3 		mov	r6, #-2147483648
 1144              	.LVL105:
 1145 0244 0070E0E3 		mvn	r7, #0
 1146              	.LVL106:
 127:C:/Renesas/e2studio_2021_01_workspace_RZA2M_ANPR/ANPR_RZA2M_EBK/src/tensorflow_lite/third_party/gemmlowp/fixedpoint\fixedpoint.h ****   const auto min = std::numeric_limits<tIntegerType>::min();
 1147              		.loc 5 127 0
 1148 0248 B000E0F2 		vshr.s64	d16, d16, #32
 1149 024c B015C2F2 		vshl.u64	d17, d16, #2
 1150 0250 318B59EC 		vmov	r8, r9, d17	@ int
 1151              	.LVL107:
 131:C:/Renesas/e2studio_2021_01_workspace_RZA2M_ANPR/ANPR_RZA2M_EBK/src/tensorflow_lite/third_party/gemmlowp/fixedpoint\fixedpoint.h ****              : wide_shifted > max ? max
 1152              		.loc 5 131 0
 1153 0254 060058E1 		cmp	r8, r6
 1154 0258 0760D9E0 		sbcs	r6, r9, r7
 1155 025c 0E400CB0 		andlt	r4, ip, lr
 1156 0260 024024B0 		eorlt	r4, r4, r2
 1157 0264 060000BA 		blt	.L53
 132:C:/Renesas/e2studio_2021_01_workspace_RZA2M_ANPR/ANPR_RZA2M_EBK/src/tensorflow_lite/third_party/gemmlowp/fixedpoint\fixedpoint.h ****                                   : static_cast<tIntegerType>(wide_shifted);
 1158              		.loc 5 132 0
 1159 0268 020158E3 		cmp	r8, #-2147483648
 1160 026c 00C0D9E2 		sbcs	ip, r9, #0
 1161 0270 08C004B0 		andlt	ip, r4, r8
 1162 0274 0241CEA3 		bicge	r4, lr, #-2147483648
 1163 0278 05402CB0 		eorlt	r4, ip, r5
 1164 027c 0E4004B0 		andlt	r4, r4, lr
 1165 0280 024024E0 		eor	r4, r4, r2
 1166              	.LVL108:
 1167              	.L53:
 1168              	.LBE1828:
 1169              	.LBE1846:
 1170              	.LBE1852:
 1171              	.LBE1856:
 1172              	.LBE1860:
 1173              	.LBE1864:
 1174              	.LBE1880:
 1175              	.LBB1881:
 1176              	.LBB1875:
 1177              	.LBB1873:
  95:C:/Renesas/e2studio_2021_01_workspace_RZA2M_ANPR/ANPR_RZA2M_EBK/src/tensorflow_lite/third_party/gemmlowp/fixedpoint\fixedpoint.h **** }
 1178              		.loc 5 95 0
 1179 0284 033084E0 		add	r3, r4, r3
 1180              	.LVL109:
 1181              	.LBE1873:
 1182              	.LBE1875:
 1183              	.LBE1881:
 1184              	.LBB1882:
 1185              	.LBB1788:
 1186              	.LBB1783:
 1187              	.LBB1778:
 334:C:/Renesas/e2studio_2021_01_workspace_RZA2M_ANPR/ANPR_RZA2M_EBK/src/tensorflow_lite/third_party/gemmlowp/fixedpoint\fixedpoint.h ****   std::int32_t nudge = ab_64 >= 0 ? (1 << 30) : (1 - (1 << 30));
 1188              		.loc 5 334 0
 1189 0288 930102E0 		mul	r2, r3, r1
 333:C:/Renesas/e2studio_2021_01_workspace_RZA2M_ANPR/ANPR_RZA2M_EBK/src/tensorflow_lite/third_party/gemmlowp/fixedpoint\fixedpoint.h ****   std::int64_t ab_64 = a_64 * b_64;
 1190              		.loc 5 333 0
 1191 028c C37FA0E1 		asr	r7, r3, #31
 1192 0290 0360A0E1 		mov	r6, r3
 334:C:/Renesas/e2studio_2021_01_workspace_RZA2M_ANPR/ANPR_RZA2M_EBK/src/tensorflow_lite/third_party/gemmlowp/fixedpoint\fixedpoint.h ****   std::int32_t nudge = ab_64 >= 0 ? (1 << 30) : (1 - (1 << 30));
 1193              		.loc 5 334 0
 1194 0294 934085E0 		umull	r4, r5, r3, r0
 1195 0298 902720E0 		mla	r0, r0, r7, r2
 1196              	.LVL110:
 335:C:/Renesas/e2studio_2021_01_workspace_RZA2M_ANPR/ANPR_RZA2M_EBK/src/tensorflow_lite/third_party/gemmlowp/fixedpoint\fixedpoint.h ****   std::int32_t ab_x2_high32 =
 1197              		.loc 5 335 0
 1198 029c 000054E3 		cmp	r4, #0
 334:C:/Renesas/e2studio_2021_01_workspace_RZA2M_ANPR/ANPR_RZA2M_EBK/src/tensorflow_lite/third_party/gemmlowp/fixedpoint\fixedpoint.h ****   std::int32_t nudge = ab_64 >= 0 ? (1 << 30) : (1 - (1 << 30));
 1199              		.loc 5 334 0
 1200 02a0 055080E0 		add	r5, r0, r5
 1201              	.LVL111:
 335:C:/Renesas/e2studio_2021_01_workspace_RZA2M_ANPR/ANPR_RZA2M_EBK/src/tensorflow_lite/third_party/gemmlowp/fixedpoint\fixedpoint.h ****   std::int32_t ab_x2_high32 =
 1202              		.loc 5 335 0
 1203 02a4 0020D5E2 		sbcs	r2, r5, #0
 1204 02a8 0101A0A3 		movge	r0, #1073741824
 1205 02ac 0701A0B3 		movlt	r0, #-1073741823
 1206 02b0 0010A0A3 		movge	r1, #0
 1207 02b4 0010E0B3 		mvnlt	r1, #0
 1208              	.LVL112:
 337:C:/Renesas/e2studio_2021_01_workspace_RZA2M_ANPR/ANPR_RZA2M_EBK/src/tensorflow_lite/third_party/gemmlowp/fixedpoint\fixedpoint.h ****   return overflow ? std::numeric_limits<std::int32_t>::max() : ab_x2_high32;
 1209              		.loc 5 337 0
 1210 02b8 004094E0 		adds	r4, r4, r0
 1211              	.LVL113:
 1212 02bc 0150A5E0 		adc	r5, r5, r1
 1213 02c0 0010A0E3 		mov	r1, #0
 1214 02c4 C50FA0E1 		asr	r0, r5, #31
 1215 02c8 0201C0E3 		bic	r0, r0, #-2147483648
 1216 02cc 040090E0 		adds	r0, r0, r4
 1217 02d0 A00FA0E1 		lsr	r0, r0, #31
 1218 02d4 0510A1E0 		adc	r1, r1, r5
 1219 02d8 810080E1 		orr	r0, r0, r1, lsl #1
 1220 02dc C11FA0E1 		asr	r1, r1, #31
 1221              	.LBE1778:
 1222              	.LBE1783:
 1223              	.LBE1788:
 1224              	.LBE1882:
 1225              	.LBB1883:
 1226              	.LBB1798:
 1227              	.LBB1796:
 106:C:/Renesas/e2studio_2021_01_workspace_RZA2M_ANPR/ANPR_RZA2M_EBK/src/tensorflow_lite/third_party/gemmlowp/fixedpoint\fixedpoint.h **** }
 1228              		.loc 5 106 0
 1229 02e0 020260E2 		rsb	r0, r0, #536870912
 1230              	.LVL114:
 1231              	.LBE1796:
 1232              	.LBE1798:
 1233              	.LBE1883:
 1234              	.LBB1884:
 1235              	.LBB1816:
 1236              	.LBB1811:
 1237              	.LBB1806:
 334:C:/Renesas/e2studio_2021_01_workspace_RZA2M_ANPR/ANPR_RZA2M_EBK/src/tensorflow_lite/third_party/gemmlowp/fixedpoint\fixedpoint.h ****   std::int32_t nudge = ab_64 >= 0 ? (1 << 30) : (1 - (1 << 30));
 1238              		.loc 5 334 0
 1239 02e4 9043C5E0 		smull	r4, r5, r0, r3
 331:C:/Renesas/e2studio_2021_01_workspace_RZA2M_ANPR/ANPR_RZA2M_EBK/src/tensorflow_lite/third_party/gemmlowp/fixedpoint\fixedpoint.h ****   std::int64_t a_64(a);
 1240              		.loc 5 331 0
 1241 02e8 030050E1 		cmp	r0, r3
 1242 02ec 02015303 		cmpeq	r3, #-2147483648
 1243 02f0 0100A003 		moveq	r0, #1
 1244              	.LVL115:
 1245 02f4 0000A013 		movne	r0, #0
 1246              	.LVL116:
 335:C:/Renesas/e2studio_2021_01_workspace_RZA2M_ANPR/ANPR_RZA2M_EBK/src/tensorflow_lite/third_party/gemmlowp/fixedpoint\fixedpoint.h ****   std::int32_t ab_x2_high32 =
 1247              		.loc 5 335 0
 1248 02f8 000054E3 		cmp	r4, #0
 1249 02fc 0020D5E2 		sbcs	r2, r5, #0
 1250 0300 0161A0A3 		movge	r6, #1073741824
 1251 0304 0070A0A3 		movge	r7, #0
 1252 0308 0761A0B3 		movlt	r6, #-1073741823
 1253 030c 0070E0B3 		mvnlt	r7, #0
 1254              	.LVL117:
 338:C:/Renesas/e2studio_2021_01_workspace_RZA2M_ANPR/ANPR_RZA2M_EBK/src/tensorflow_lite/third_party/gemmlowp/fixedpoint\fixedpoint.h **** }
 1255              		.loc 5 338 0
 1256 0310 000050E3 		cmp	r0, #0
 1257 0314 0221E013 		mvnne	r2, #-2147483648
 1258 0318 2200000A 		beq	.L80
 1259              	.LVL118:
 1260              	.L60:
 1261              	.LBE1806:
 1262              	.LBE1811:
 1263              	.LBE1816:
 1264              	.LBE1884:
 1265              	.LBB1885:
 1266              	.LBB1876:
 1267              	.LBB1874:
  95:C:/Renesas/e2studio_2021_01_workspace_RZA2M_ANPR/ANPR_RZA2M_EBK/src/tensorflow_lite/third_party/gemmlowp/fixedpoint\fixedpoint.h **** }
 1268              		.loc 5 95 0
 1269 031c 023083E0 		add	r3, r3, r2
 1270              	.LVL119:
 1271              	.LBE1874:
 1272              	.LBE1876:
 1273              	.LBE1885:
 1274              	.LBE1772:
 1275              	.LBE1771:
 1276              	.LBB1894:
 1277              	.LBB1895:
 1278              	.LBB1896:
 1279              	.LBB1897:
 1280              	.LBB1898:
 1281              	.LBB1899:
 1282              	.LBB1900:
 1283              	.LBB1901:
 158:C:/Renesas/e2studio_2021_01_workspace_RZA2M_ANPR/ANPR_RZA2M_EBK/src/tensorflow_lite/third_party/gemmlowp/fixedpoint\fixedpoint.h **** }
 1284              		.loc 5 158 0
 1285 0320 070173E3 		cmn	r3, #-1073741823
 1286 0324 190000CA 		bgt	.L77
 1287              	.LVL120:
 1288              	.LBE1901:
 1289              	.LBE1900:
 1290              	.LBE1899:
 1291              	.LBB1904:
 1292              	.LBB1905:
 1293              	.LBB1906:
 1294 0328 070153E3 		cmp	r3, #-1073741823
 1295 032c 02C1A0E3 		mov	ip, #-2147483648
 1296 0330 0010A0A3 		movge	r1, #0
 1297 0334 0110A0B3 		movlt	r1, #1
 1298 0338 000061E2 		rsb	r0, r1, #0
 1299 033c 00E0E0E3 		mvn	lr, #0
 1300 0340 011041E2 		sub	r1, r1, #1
 1301 0344 0C0000E0 		and	r0, r0, ip
 1302 0348 0060A0E3 		mov	r6, #0
 1303              	.LVL121:
 1304              	.L64:
 1305              	.LBE1906:
 1306              	.LBE1905:
 1307              	.LBE1904:
 1308              	.LBB1907:
 1309              	.LBB1908:
 127:C:/Renesas/e2studio_2021_01_workspace_RZA2M_ANPR/ANPR_RZA2M_EBK/src/tensorflow_lite/third_party/gemmlowp/fixedpoint\fixedpoint.h ****   const auto min = std::numeric_limits<tIntegerType>::min();
 1310              		.loc 5 127 0
 1311 034c 0320A0E1 		mov	r2, r3
 1312 0350 C33FA0E1 		asr	r3, r3, #31
 1313              	.LVL122:
 131:C:/Renesas/e2studio_2021_01_workspace_RZA2M_ANPR/ANPR_RZA2M_EBK/src/tensorflow_lite/third_party/gemmlowp/fixedpoint\fixedpoint.h ****              : wide_shifted > max ? max
 1314              		.loc 5 131 0
 1315 0354 0241A0E3 		mov	r4, #-2147483648
 127:C:/Renesas/e2studio_2021_01_workspace_RZA2M_ANPR/ANPR_RZA2M_EBK/src/tensorflow_lite/third_party/gemmlowp/fixedpoint\fixedpoint.h ****   const auto min = std::numeric_limits<tIntegerType>::min();
 1316              		.loc 5 127 0
 1317 0358 022092E0 		adds	r2, r2, r2
 1318              	.LVL123:
 131:C:/Renesas/e2studio_2021_01_workspace_RZA2M_ANPR/ANPR_RZA2M_EBK/src/tensorflow_lite/third_party/gemmlowp/fixedpoint\fixedpoint.h ****              : wide_shifted > max ? max
 1319              		.loc 5 131 0
 1320 035c 0050E0E3 		mvn	r5, #0
 127:C:/Renesas/e2studio_2021_01_workspace_RZA2M_ANPR/ANPR_RZA2M_EBK/src/tensorflow_lite/third_party/gemmlowp/fixedpoint\fixedpoint.h ****   const auto min = std::numeric_limits<tIntegerType>::min();
 1321              		.loc 5 127 0
 1322 0360 0330A3E0 		adc	r3, r3, r3
 1323              	.LVL124:
 131:C:/Renesas/e2studio_2021_01_workspace_RZA2M_ANPR/ANPR_RZA2M_EBK/src/tensorflow_lite/third_party/gemmlowp/fixedpoint\fixedpoint.h ****              : wide_shifted > max ? max
 1324              		.loc 5 131 0
 1325 0364 040052E1 		cmp	r2, r4
 1326 0368 0540D3E0 		sbcs	r4, r3, r5
 1327 036c 040000BA 		blt	.L65
 132:C:/Renesas/e2studio_2021_01_workspace_RZA2M_ANPR/ANPR_RZA2M_EBK/src/tensorflow_lite/third_party/gemmlowp/fixedpoint\fixedpoint.h ****                                   : static_cast<tIntegerType>(wide_shifted);
 1328              		.loc 5 132 0
 1329 0370 020152E3 		cmp	r2, #-2147483648
 1330 0374 00C0D3E2 		sbcs	ip, r3, #0
 1331 0378 0E2002B0 		andlt	r2, r2, lr
 1332              	.LVL125:
 1333 037c 02C1E0A3 		mvnge	ip, #-2147483648
 1334 0380 06C022B0 		eorlt	ip, r2, r6
 1335              	.L65:
 1336              	.LVL126:
 1337              	.LBE1908:
 1338              	.LBE1907:
 1339              	.LBB1909:
 1340              	.LBB1910:
 1341              	.LBB1911:
  71:C:/Renesas/e2studio_2021_01_workspace_RZA2M_ANPR/ANPR_RZA2M_EBK/src/tensorflow_lite/third_party/gemmlowp/fixedpoint\fixedpoint.h **** }
 1342              		.loc 5 71 0
 1343 0384 0C1001E0 		and	r1, r1, ip
 1344              	.LVL127:
 1345              	.LBE1911:
 1346              	.LBE1910:
 1347              	.LBE1909:
 1348              	.LBE1898:
 1349              	.LBE1897:
 1350              	.LBE1896:
 1351              	.LBE1895:
 1352              	.LBE1894:
 843:C:/Renesas/e2studio_2021_01_workspace_RZA2M_ANPR/ANPR_RZA2M_EBK/src/tensorflow_lite/third_party/gemmlowp/fixedpoint\fixedpoint.h ****     FixedPoint<tRawType, 0> a) {
 844:C:/Renesas/e2studio_2021_01_workspace_RZA2M_ANPR/ANPR_RZA2M_EBK/src/tensorflow_lite/third_party/gemmlowp/fixedpoint\fixedpoint.h ****   typedef FixedPoint<tRawType, 0> F0;
 845:C:/Renesas/e2studio_2021_01_workspace_RZA2M_ANPR/ANPR_RZA2M_EBK/src/tensorflow_lite/third_party/gemmlowp/fixedpoint\fixedpoint.h ****   typedef FixedPoint<tRawType, 2> F2;
 846:C:/Renesas/e2studio_2021_01_workspace_RZA2M_ANPR/ANPR_RZA2M_EBK/src/tensorflow_lite/third_party/gemmlowp/fixedpoint\fixedpoint.h ****   F0 half_denominator = RoundingHalfSum(a, F0::One());
 847:C:/Renesas/e2studio_2021_01_workspace_RZA2M_ANPR/ANPR_RZA2M_EBK/src/tensorflow_lite/third_party/gemmlowp/fixedpoint\fixedpoint.h ****   // Newton-Raphson division
 848:C:/Renesas/e2studio_2021_01_workspace_RZA2M_ANPR/ANPR_RZA2M_EBK/src/tensorflow_lite/third_party/gemmlowp/fixedpoint\fixedpoint.h ****   // https://en.wikipedia.org/wiki/Division_algorithm#Newton.E2.80.93Raphson_division
 849:C:/Renesas/e2studio_2021_01_workspace_RZA2M_ANPR/ANPR_RZA2M_EBK/src/tensorflow_lite/third_party/gemmlowp/fixedpoint\fixedpoint.h ****   // Refer to that page for the logic behind the 48/17 and 32/17 constants.
 850:C:/Renesas/e2studio_2021_01_workspace_RZA2M_ANPR/ANPR_RZA2M_EBK/src/tensorflow_lite/third_party/gemmlowp/fixedpoint\fixedpoint.h ****   const F2 constant_48_over_17 =
 851:C:/Renesas/e2studio_2021_01_workspace_RZA2M_ANPR/ANPR_RZA2M_EBK/src/tensorflow_lite/third_party/gemmlowp/fixedpoint\fixedpoint.h ****       GEMMLOWP_CHECKED_FIXEDPOINT_CONSTANT(F2, 1515870810, 48.0 / 17.0);
 852:C:/Renesas/e2studio_2021_01_workspace_RZA2M_ANPR/ANPR_RZA2M_EBK/src/tensorflow_lite/third_party/gemmlowp/fixedpoint\fixedpoint.h ****   const F2 constant_neg_32_over_17 =
 853:C:/Renesas/e2studio_2021_01_workspace_RZA2M_ANPR/ANPR_RZA2M_EBK/src/tensorflow_lite/third_party/gemmlowp/fixedpoint\fixedpoint.h ****       GEMMLOWP_CHECKED_FIXEDPOINT_CONSTANT(F2, -1010580540, -32.0 / 17.0);
 854:C:/Renesas/e2studio_2021_01_workspace_RZA2M_ANPR/ANPR_RZA2M_EBK/src/tensorflow_lite/third_party/gemmlowp/fixedpoint\fixedpoint.h ****   F2 x = constant_48_over_17 + half_denominator * constant_neg_32_over_17;
 855:C:/Renesas/e2studio_2021_01_workspace_RZA2M_ANPR/ANPR_RZA2M_EBK/src/tensorflow_lite/third_party/gemmlowp/fixedpoint\fixedpoint.h ****   for (int i = 0; i < 3; i++) {
 856:C:/Renesas/e2studio_2021_01_workspace_RZA2M_ANPR/ANPR_RZA2M_EBK/src/tensorflow_lite/third_party/gemmlowp/fixedpoint\fixedpoint.h ****     F2 half_denominator_times_x = half_denominator * x;
 857:C:/Renesas/e2studio_2021_01_workspace_RZA2M_ANPR/ANPR_RZA2M_EBK/src/tensorflow_lite/third_party/gemmlowp/fixedpoint\fixedpoint.h ****     F2 one_minus_half_denominator_times_x =
 858:C:/Renesas/e2studio_2021_01_workspace_RZA2M_ANPR/ANPR_RZA2M_EBK/src/tensorflow_lite/third_party/gemmlowp/fixedpoint\fixedpoint.h ****         F2::One() - half_denominator_times_x;
 859:C:/Renesas/e2studio_2021_01_workspace_RZA2M_ANPR/ANPR_RZA2M_EBK/src/tensorflow_lite/third_party/gemmlowp/fixedpoint\fixedpoint.h ****     x = x + Rescale<2>(x * one_minus_half_denominator_times_x);
 860:C:/Renesas/e2studio_2021_01_workspace_RZA2M_ANPR/ANPR_RZA2M_EBK/src/tensorflow_lite/third_party/gemmlowp/fixedpoint\fixedpoint.h ****   }
 861:C:/Renesas/e2studio_2021_01_workspace_RZA2M_ANPR/ANPR_RZA2M_EBK/src/tensorflow_lite/third_party/gemmlowp/fixedpoint\fixedpoint.h ****   return Rescale<0>(ExactMulByPot<-1>(x));
 862:C:/Renesas/e2studio_2021_01_workspace_RZA2M_ANPR/ANPR_RZA2M_EBK/src/tensorflow_lite/third_party/gemmlowp/fixedpoint\fixedpoint.h **** }
 1353              		.loc 5 862 0
 1354 0388 010020E0 		eor	r0, r0, r1
 1355              	.LVL128:
 1356 038c F083BDE8 		pop	{r4, r5, r6, r7, r8, r9, pc}
 1357              	.LVL129:
 1358              	.L77:
 1359              	.LBB1917:
 1360              	.LBB1916:
 1361              	.LBB1915:
 1362              	.LBB1914:
 1363              	.LBB1913:
 1364              	.LBB1912:
 1365              	.LBB1903:
 1366              	.LBB1902:
 158:C:/Renesas/e2studio_2021_01_workspace_RZA2M_ANPR/ANPR_RZA2M_EBK/src/tensorflow_lite/third_party/gemmlowp/fixedpoint\fixedpoint.h **** }
 1367              		.loc 5 158 0
 1368 0390 02C1E0E3 		mvn	ip, #-2147483648
 1369 0394 0000A0E3 		mov	r0, #0
 1370 0398 0C60A0E1 		mov	r6, ip
 1371 039c 00E0A0E1 		mov	lr, r0
 1372 03a0 0010E0E3 		mvn	r1, #0
 1373 03a4 E8FFFFEA 		b	.L64
 1374              	.LVL130:
 1375              	.L80:
 1376              	.LBE1902:
 1377              	.LBE1903:
 1378              	.LBE1912:
 1379              	.LBE1913:
 1380              	.LBE1914:
 1381              	.LBE1915:
 1382              	.LBE1916:
 1383              	.LBE1917:
 1384              	.LBB1918:
 1385              	.LBB1891:
 1386              	.LBB1886:
 1387              	.LBB1817:
 1388              	.LBB1812:
 1389              	.LBB1807:
 337:C:/Renesas/e2studio_2021_01_workspace_RZA2M_ANPR/ANPR_RZA2M_EBK/src/tensorflow_lite/third_party/gemmlowp/fixedpoint\fixedpoint.h ****   return overflow ? std::numeric_limits<std::int32_t>::max() : ab_x2_high32;
 1390              		.loc 5 337 0
 1391 03a8 046096E0 		adds	r6, r6, r4
 1392              	.LVL131:
 1393 03ac 0570A7E0 		adc	r7, r7, r5
 1394 03b0 0050A0E3 		mov	r5, #0
 1395 03b4 C74FA0E1 		asr	r4, r7, #31
 1396              	.LVL132:
 1397 03b8 0241C4E3 		bic	r4, r4, #-2147483648
 1398 03bc 064094E0 		adds	r4, r4, r6
 1399 03c0 A44FA0E1 		lsr	r4, r4, #31
 1400 03c4 0750A5E0 		adc	r5, r5, r7
 1401 03c8 854084E1 		orr	r4, r4, r5, lsl #1
 1402              	.LVL133:
 1403              	.LBE1807:
 1404              	.LBE1812:
 1405              	.LBE1817:
 1406              	.LBE1886:
 1407              	.LBB1887:
 1408              	.LBB1865:
 1409              	.LBB1861:
 1410              	.LBB1857:
 1411              	.LBB1853:
 1412              	.LBB1847:
 1413              	.LBB1845:
 1414              	.LBB1844:
 158:C:/Renesas/e2studio_2021_01_workspace_RZA2M_ANPR/ANPR_RZA2M_EBK/src/tensorflow_lite/third_party/gemmlowp/fixedpoint\fixedpoint.h **** }
 1415              		.loc 5 158 0
 1416 03cc 1E0274E3 		cmn	r4, #-536870911
 1417 03d0 160000DA 		ble	.L81
 1418 03d4 0211E0E3 		mvn	r1, #-2147483648
 1419 03d8 0020A0E1 		mov	r2, r0
 1420 03dc 01E0A0E1 		mov	lr, r1
 1421 03e0 00C0E0E3 		mvn	ip, #0
 1422              	.L61:
 1423              	.LVL134:
 1424              	.LBE1844:
 1425              	.LBE1845:
 1426              	.LBE1847:
 1427              	.LBB1848:
 1428              	.LBB1829:
 127:C:/Renesas/e2studio_2021_01_workspace_RZA2M_ANPR/ANPR_RZA2M_EBK/src/tensorflow_lite/third_party/gemmlowp/fixedpoint\fixedpoint.h ****   const auto min = std::numeric_limits<tIntegerType>::min();
 1429              		.loc 5 127 0
 1430 03e4 904B80EE 		vdup.32	d16, r4
 131:C:/Renesas/e2studio_2021_01_workspace_RZA2M_ANPR/ANPR_RZA2M_EBK/src/tensorflow_lite/third_party/gemmlowp/fixedpoint\fixedpoint.h ****              : wide_shifted > max ? max
 1431              		.loc 5 131 0
 1432 03e8 0261A0E3 		mov	r6, #-2147483648
 1433 03ec 0070E0E3 		mvn	r7, #0
 127:C:/Renesas/e2studio_2021_01_workspace_RZA2M_ANPR/ANPR_RZA2M_EBK/src/tensorflow_lite/third_party/gemmlowp/fixedpoint\fixedpoint.h ****   const auto min = std::numeric_limits<tIntegerType>::min();
 1434              		.loc 5 127 0
 1435 03f0 B000E0F2 		vshr.s64	d16, d16, #32
 1436 03f4 B015C2F2 		vshl.u64	d17, d16, #2
 1437 03f8 314B55EC 		vmov	r4, r5, d17	@ int
 1438              	.LVL135:
 131:C:/Renesas/e2studio_2021_01_workspace_RZA2M_ANPR/ANPR_RZA2M_EBK/src/tensorflow_lite/third_party/gemmlowp/fixedpoint\fixedpoint.h ****              : wide_shifted > max ? max
 1439              		.loc 5 131 0
 1440 03fc 060054E1 		cmp	r4, r6
 1441 0400 0760D5E0 		sbcs	r6, r5, r7
 1442 0404 01000CB0 		andlt	r0, ip, r1
 1443 0408 002022B0 		eorlt	r2, r2, r0
 1444 040c C2FFFFBA 		blt	.L60
 132:C:/Renesas/e2studio_2021_01_workspace_RZA2M_ANPR/ANPR_RZA2M_EBK/src/tensorflow_lite/third_party/gemmlowp/fixedpoint\fixedpoint.h ****                                   : static_cast<tIntegerType>(wide_shifted);
 1445              		.loc 5 132 0
 1446 0410 020154E3 		cmp	r4, #-2147483648
 1447 0414 0010D5E2 		sbcs	r1, r5, #0
 1448 0418 041000B0 		andlt	r1, r0, r4
 1449 041c 0201CCA3 		bicge	r0, ip, #-2147483648
 1450 0420 0E0021B0 		eorlt	r0, r1, lr
 1451 0424 0C0000B0 		andlt	r0, r0, ip
 1452 0428 002022E0 		eor	r2, r2, r0
 1453 042c BAFFFFEA 		b	.L60
 1454              	.LVL136:
 1455              	.L81:
 1456              	.LBE1829:
 1457              	.LBE1848:
 1458              	.LBB1849:
 1459              	.LBB1838:
 1460              	.LBB1836:
 158:C:/Renesas/e2studio_2021_01_workspace_RZA2M_ANPR/ANPR_RZA2M_EBK/src/tensorflow_lite/third_party/gemmlowp/fixedpoint\fixedpoint.h **** }
 1461              		.loc 5 158 0
 1462 0430 1E0254E3 		cmp	r4, #-536870911
 1463 0434 00E0A0E1 		mov	lr, r0
 1464 0438 0010A0A3 		movge	r1, #0
 1465 043c 0110A0B3 		movlt	r1, #1
 1466 0440 002061E2 		rsb	r2, r1, #0
 1467 0444 01C041E2 		sub	ip, r1, #1
 1468 0448 022102E2 		and	r2, r2, #-2147483648
 1469 044c 0211A0E3 		mov	r1, #-2147483648
 1470 0450 0000E0E3 		mvn	r0, #0
 1471 0454 E2FFFFEA 		b	.L61
 1472              	.LVL137:
 1473              	.L54:
 1474 0458 1E0256E3 		cmp	r6, #-536870911
 1475 045c 0450A0E1 		mov	r5, r4
 1476 0460 00E0A0A3 		movge	lr, #0
 1477 0464 01E0A0B3 		movlt	lr, #1
 1478 0468 00406EE2 		rsb	r4, lr, #0
 1479 046c 02C1A0E3 		mov	ip, #-2147483648
 1480              	.LVL138:
 1481 0470 022104E2 		and	r2, r4, #-2147483648
 1482 0474 01E04EE2 		sub	lr, lr, #1
 1483 0478 0040E0E3 		mvn	r4, #0
 1484 047c 6EFFFFEA 		b	.L57
 1485              	.LVL139:
 1486              	.L66:
 1487              	.LBE1836:
 1488              	.LBE1838:
 1489              	.LBE1849:
 1490              	.LBE1853:
 1491              	.LBE1857:
 1492              	.LBE1861:
 1493              	.LBE1865:
 1494              	.LBE1887:
 1495              	.LBB1888:
 1496              	.LBB1789:
 1497              	.LBB1784:
 1498              	.LBB1779:
 334:C:/Renesas/e2studio_2021_01_workspace_RZA2M_ANPR/ANPR_RZA2M_EBK/src/tensorflow_lite/third_party/gemmlowp/fixedpoint\fixedpoint.h ****   std::int32_t nudge = ab_64 >= 0 ? (1 << 30) : (1 - (1 << 30));
 1499              		.loc 5 334 0
 1500 0480 28308FE2 		adr	r3, .L82
 1501 0484 D020C3E1 		ldrd	r2, [r3]
 1502              	.LBE1779:
 1503              	.LBE1784:
 1504              	.LBE1789:
 1505              	.LBE1888:
 1506              	.LBE1891:
 1507              	.LBE1918:
 1508              	.LBB1919:
 1509              	.LBB1765:
 1510              	.LBB1761:
  95:C:/Renesas/e2studio_2021_01_workspace_RZA2M_ANPR/ANPR_RZA2M_EBK/src/tensorflow_lite/third_party/gemmlowp/fixedpoint\fixedpoint.h **** }
 1511              		.loc 5 95 0
 1512 0488 5ACA05E3 		movw	ip, #23130
 1513              	.LBE1761:
 1514              	.LBE1765:
 1515              	.LBE1919:
 1516              	.LBB1920:
 1517              	.LBB1892:
 1518              	.LBB1889:
 1519              	.LBB1790:
 1520              	.LBB1785:
 1521              	.LBB1780:
 333:C:/Renesas/e2studio_2021_01_workspace_RZA2M_ANPR/ANPR_RZA2M_EBK/src/tensorflow_lite/third_party/gemmlowp/fixedpoint\fixedpoint.h ****   std::int64_t ab_64 = a_64 * b_64;
 1522              		.loc 5 333 0
 1523 048c 5A4A05E3 		movw	r4, #23130
 1524              	.LBE1780:
 1525              	.LBE1785:
 1526              	.LBE1790:
 1527              	.LBE1889:
 1528              	.LBE1892:
 1529              	.LBE1920:
 1530              	.LBB1921:
 1531              	.LBB1737:
 1532              	.LBB1732:
 241:C:/Renesas/e2studio_2021_01_workspace_RZA2M_ANPR/ANPR_RZA2M_EBK/src/tensorflow_lite/third_party/gemmlowp/fixedpoint\fixedpoint.h **** }
 1533              		.loc 5 241 0
 1534 0490 0000E0E3 		mvn	r0, #0
 1535              	.LVL140:
 1536 0494 0010E0E3 		mvn	r1, #0
 1537              	.LBE1732:
 1538              	.LBE1737:
 1539              	.LBE1921:
 1540              	.LBB1922:
 1541              	.LBB1766:
 1542              	.LBB1762:
  95:C:/Renesas/e2studio_2021_01_workspace_RZA2M_ANPR/ANPR_RZA2M_EBK/src/tensorflow_lite/third_party/gemmlowp/fixedpoint\fixedpoint.h **** }
 1543              		.loc 5 95 0
 1544 0498 5ACA45E3 		movt	ip, 23130
 1545              	.LBE1762:
 1546              	.LBE1766:
 1547              	.LBE1922:
 1548              	.LBB1923:
 1549              	.LBB1893:
 1550              	.LBB1890:
 1551              	.LBB1791:
 1552              	.LBB1786:
 1553              	.LBB1781:
 333:C:/Renesas/e2studio_2021_01_workspace_RZA2M_ANPR/ANPR_RZA2M_EBK/src/tensorflow_lite/third_party/gemmlowp/fixedpoint\fixedpoint.h ****   std::int64_t ab_64 = a_64 * b_64;
 1554              		.loc 5 333 0
 1555 049c 5A4A45E3 		movt	r4, 23130
 1556 04a0 0050A0E3 		mov	r5, #0
 1557              	.LVL141:
 1558              	.L45:
 1559              	.LBE1781:
 1560              	.LBE1786:
 1561              	.LBE1791:
 1562              	.LBE1890:
 1563              	.LBE1893:
 1564              	.LBE1923:
 1565              	.LBB1924:
 1566              	.LBB1738:
 1567              	.LBB1733:
 241:C:/Renesas/e2studio_2021_01_workspace_RZA2M_ANPR/ANPR_RZA2M_EBK/src/tensorflow_lite/third_party/gemmlowp/fixedpoint\fixedpoint.h **** }
 1568              		.loc 5 241 0
 1569 04a4 0761A0E3 		mov	r6, #-1073741823
 1570 04a8 0070E0E3 		mvn	r7, #0
 1571 04ac FDFEFFEA 		b	.L47
 1572              	.L83:
 1573              		.align	3
 1574              	.L82:
 1575 04b0 A6A5A5A5 		.word	-1515870810
 1576 04b4 FFFFFFFF 		.word	-1
 1577              	.LBE1733:
 1578              	.LBE1738:
 1579              	.LBE1924:
 1580              		.cfi_endproc
 1581              	.LFE4342:
 1582              		.cantunwind
 1583              		.fnend
 1585              		.section	.text._ZN8gemmlowp55exp_on_interval_between_negative_one_quarter_and_0_exclIlEENS_10Fixed
 1586              		.align	2
 1587              		.weak	_ZN8gemmlowp55exp_on_interval_between_negative_one_quarter_and_0_exclIlEENS_10FixedPointIT_L
 1588              		.syntax unified
 1589              		.arm
 1590              		.fpu neon
 1592              	_ZN8gemmlowp55exp_on_interval_between_negative_one_quarter_and_0_exclIlEENS_10FixedPointIT_Li0EEES3
 1593              		.fnstart
 1594              	.LFB4448:
 721:C:/Renesas/e2studio_2021_01_workspace_RZA2M_ANPR/ANPR_RZA2M_EBK/src/tensorflow_lite/third_party/gemmlowp/fixedpoint\fixedpoint.h ****     FixedPoint<tRawType, 0> a) {
 1595              		.loc 5 721 0
 1596              		.cfi_startproc
 1597              		@ args = 0, pretend = 0, frame = 0
 1598              		@ frame_needed = 0, uses_anonymous_args = 0
 1599              		@ link register save eliminated.
 1600              	.LVL142:
 1601 0000 F0032DE9 		push	{r4, r5, r6, r7, r8, r9}
 1602              		.cfi_def_cfa_offset 24
 1603              		.cfi_offset 4, -24
 1604              		.cfi_offset 5, -20
 1605              		.cfi_offset 6, -16
 1606              		.cfi_offset 7, -12
 1607              		.cfi_offset 8, -8
 1608              		.cfi_offset 9, -4
 1609              	.LBB2063:
 1610              	.LBB2064:
 1611              	.LBB2065:
 1612              	.LBB2066:
 337:C:/Renesas/e2studio_2021_01_workspace_RZA2M_ANPR/ANPR_RZA2M_EBK/src/tensorflow_lite/third_party/gemmlowp/fixedpoint\fixedpoint.h ****   return overflow ? std::numeric_limits<std::int32_t>::max() : ab_x2_high32;
 1613              		.loc 5 337 0
 1614 0004 0141A0E3 		mov	r4, #1073741824
 1615 0008 0050A0E3 		mov	r5, #0
 1616              	.LBE2066:
 1617              	.LBE2065:
 1618              	.LBE2064:
 1619              	.LBE2063:
 1620              	.LBB2070:
 1621              	.LBB2071:
 1622              	.LBB2072:
  95:C:/Renesas/e2studio_2021_01_workspace_RZA2M_ANPR/ANPR_RZA2M_EBK/src/tensorflow_lite/third_party/gemmlowp/fixedpoint\fixedpoint.h **** }
 1623              		.loc 5 95 0
 1624 000c 010280E2 		add	r0, r0, #268435456
 1625              	.LVL143:
 1626              	.LBE2072:
 1627              	.LBE2071:
 1628              	.LBE2070:
 1629              	.LBB2073:
 1630              	.LBB2069:
 1631              	.LBB2068:
 1632              	.LBB2067:
 337:C:/Renesas/e2studio_2021_01_workspace_RZA2M_ANPR/ANPR_RZA2M_EBK/src/tensorflow_lite/third_party/gemmlowp/fixedpoint\fixedpoint.h ****   return overflow ? std::numeric_limits<std::int32_t>::max() : ab_x2_high32;
 1633              		.loc 5 337 0
 1634 0010 0460A0E1 		mov	r6, r4
 1635 0014 0570A0E1 		mov	r7, r5
 1636 0018 9060E7E0 		smlal	r6, r7, r0, r0
 1637 001c 0030A0E3 		mov	r3, #0
 1638 0020 C72FA0E1 		asr	r2, r7, #31
 1639 0024 0221C2E3 		bic	r2, r2, #-2147483648
 1640 0028 062092E0 		adds	r2, r2, r6
 1641 002c A22FA0E1 		lsr	r2, r2, #31
 1642 0030 0730A3E0 		adc	r3, r3, r7
 1643 0034 832082E1 		orr	r2, r2, r3, lsl #1
 1644              	.LVL144:
 1645              	.LBE2067:
 1646              	.LBE2068:
 1647              	.LBE2069:
 1648              	.LBE2073:
 1649              	.LBB2074:
 1650              	.LBB2075:
 1651              	.LBB2076:
 1652              	.LBB2077:
 334:C:/Renesas/e2studio_2021_01_workspace_RZA2M_ANPR/ANPR_RZA2M_EBK/src/tensorflow_lite/third_party/gemmlowp/fixedpoint\fixedpoint.h ****   std::int32_t nudge = ab_64 >= 0 ? (1 << 30) : (1 - (1 << 30));
 1653              		.loc 5 334 0
 1654 0038 9260C7E0 		smull	r6, r7, r2, r0
 331:C:/Renesas/e2studio_2021_01_workspace_RZA2M_ANPR/ANPR_RZA2M_EBK/src/tensorflow_lite/third_party/gemmlowp/fixedpoint\fixedpoint.h ****   std::int64_t a_64(a);
 1655              		.loc 5 331 0
 1656 003c 020050E1 		cmp	r0, r2
 1657 0040 02015203 		cmpeq	r2, #-2147483648
 1658 0044 0110A003 		moveq	r1, #1
 1659 0048 0010A013 		movne	r1, #0
 1660              	.LVL145:
 335:C:/Renesas/e2studio_2021_01_workspace_RZA2M_ANPR/ANPR_RZA2M_EBK/src/tensorflow_lite/third_party/gemmlowp/fixedpoint\fixedpoint.h ****   std::int32_t ab_x2_high32 =
 1661              		.loc 5 335 0
 1662 004c 000056E3 		cmp	r6, #0
 1663 0050 00C0D7E2 		sbcs	ip, r7, #0
 1664 0054 0741A0B3 		movlt	r4, #-1073741823
 1665 0058 0050E0B3 		mvnlt	r5, #0
 1666              	.LVL146:
 338:C:/Renesas/e2studio_2021_01_workspace_RZA2M_ANPR/ANPR_RZA2M_EBK/src/tensorflow_lite/third_party/gemmlowp/fixedpoint\fixedpoint.h **** }
 1667              		.loc 5 338 0
 1668 005c 000051E3 		cmp	r1, #0
 1669 0060 4D00001A 		bne	.L92
 337:C:/Renesas/e2studio_2021_01_workspace_RZA2M_ANPR/ANPR_RZA2M_EBK/src/tensorflow_lite/third_party/gemmlowp/fixedpoint\fixedpoint.h ****   return overflow ? std::numeric_limits<std::int32_t>::max() : ab_x2_high32;
 1670              		.loc 5 337 0
 1671 0064 046096E0 		adds	r6, r6, r4
 1672              	.LVL147:
 1673 0068 0570A7E0 		adc	r7, r7, r5
 1674 006c 0050A0E3 		mov	r5, #0
 1675 0070 C74FA0E1 		asr	r4, r7, #31
 1676              	.LVL148:
 1677 0074 0241C4E3 		bic	r4, r4, #-2147483648
 1678 0078 046096E0 		adds	r6, r6, r4
 1679 007c 0570A7E0 		adc	r7, r7, r5
 1680 0080 A66FA0E1 		lsr	r6, r6, #31
 1681              	.LBE2077:
 1682              	.LBE2076:
 1683              	.LBE2075:
 1684              	.LBE2074:
 1685              	.LBB2084:
 1686              	.LBB2085:
 1687              	.LBB2086:
 1688              	.LBB2087:
 338:C:/Renesas/e2studio_2021_01_workspace_RZA2M_ANPR/ANPR_RZA2M_EBK/src/tensorflow_lite/third_party/gemmlowp/fixedpoint\fixedpoint.h **** }
 1689              		.loc 5 338 0
 1690 0084 020152E3 		cmp	r2, #-2147483648
 1691              	.LBE2087:
 1692              	.LBE2086:
 1693              	.LBE2085:
 1694              	.LBE2084:
 1695              	.LBB2094:
 1696              	.LBB2082:
 1697              	.LBB2080:
 1698              	.LBB2078:
 337:C:/Renesas/e2studio_2021_01_workspace_RZA2M_ANPR/ANPR_RZA2M_EBK/src/tensorflow_lite/third_party/gemmlowp/fixedpoint\fixedpoint.h ****   return overflow ? std::numeric_limits<std::int32_t>::max() : ab_x2_high32;
 1699              		.loc 5 337 0
 1700 0088 876086E1 		orr	r6, r6, r7, lsl #1
 1701              	.LVL149:
 1702              	.LBE2078:
 1703              	.LBE2080:
 1704              	.LBE2082:
 1705              	.LBE2094:
 1706              	.LBB2095:
 1707              	.LBB2092:
 1708              	.LBB2090:
 1709              	.LBB2088:
 338:C:/Renesas/e2studio_2021_01_workspace_RZA2M_ANPR/ANPR_RZA2M_EBK/src/tensorflow_lite/third_party/gemmlowp/fixedpoint\fixedpoint.h **** }
 1710              		.loc 5 338 0
 1711 008c 0242A003 		moveq	r4, #536870912
 1712 0090 2F00001A 		bne	.L98
 1713              	.LVL150:
 1714              	.L87:
 1715              	.LBE2088:
 1716              	.LBE2090:
 1717              	.LBE2092:
 1718              	.LBE2095:
 1719              	.LBB2096:
 1720              	.LBB2097:
 1721              	.LBB2098:
 1722              	.LBB2099:
 334:C:/Renesas/e2studio_2021_01_workspace_RZA2M_ANPR/ANPR_RZA2M_EBK/src/tensorflow_lite/third_party/gemmlowp/fixedpoint\fixedpoint.h ****   std::int32_t nudge = ab_64 >= 0 ? (1 << 30) : (1 - (1 << 30));
 1723              		.loc 5 334 0
 1724 0094 AB1A0AE3 		movw	r1, #43691
 1725              	.LBE2099:
 1726              	.LBE2098:
 1727              	.LBE2097:
 1728              	.LBE2096:
 1729              	.LBB2109:
 1730              	.LBB2110:
 1731              	.LBB2111:
  95:C:/Renesas/e2studio_2021_01_workspace_RZA2M_ANPR/ANPR_RZA2M_EBK/src/tensorflow_lite/third_party/gemmlowp/fixedpoint\fixedpoint.h **** }
 1732              		.loc 5 95 0
 1733 0098 064084E0 		add	r4, r4, r6
 1734              	.LVL151:
 1735              	.LBE2111:
 1736              	.LBE2110:
 1737              	.LBE2109:
 1738              	.LBB2112:
 1739              	.LBB2106:
 1740              	.LBB2103:
 1741              	.LBB2100:
 334:C:/Renesas/e2studio_2021_01_workspace_RZA2M_ANPR/ANPR_RZA2M_EBK/src/tensorflow_lite/third_party/gemmlowp/fixedpoint\fixedpoint.h ****   std::int32_t nudge = ab_64 >= 0 ? (1 << 30) : (1 - (1 << 30));
 1742              		.loc 5 334 0
 1743 009c AA1A42E3 		movt	r1, 10922
 1744 00a0 9441C5E0 		smull	r4, r5, r4, r1
 1745              	.LVL152:
 335:C:/Renesas/e2studio_2021_01_workspace_RZA2M_ANPR/ANPR_RZA2M_EBK/src/tensorflow_lite/third_party/gemmlowp/fixedpoint\fixedpoint.h ****   std::int32_t ab_x2_high32 =
 1746              		.loc 5 335 0
 1747 00a4 000054E3 		cmp	r4, #0
 1748 00a8 0010D5E2 		sbcs	r1, r5, #0
 1749 00ac 3F0000BA 		blt	.L94
 1750 00b0 0161A0E3 		mov	r6, #1073741824
 1751 00b4 0070A0E3 		mov	r7, #0
 1752              	.LVL153:
 1753              	.L86:
 337:C:/Renesas/e2studio_2021_01_workspace_RZA2M_ANPR/ANPR_RZA2M_EBK/src/tensorflow_lite/third_party/gemmlowp/fixedpoint\fixedpoint.h ****   return overflow ? std::numeric_limits<std::int32_t>::max() : ab_x2_high32;
 1754              		.loc 5 337 0
 1755 00b8 046096E0 		adds	r6, r6, r4
 1756              	.LVL154:
 1757 00bc 0570A7E0 		adc	r7, r7, r5
 1758 00c0 0050A0E3 		mov	r5, #0
 1759 00c4 C74FA0E1 		asr	r4, r7, #31
 1760 00c8 0241C4E3 		bic	r4, r4, #-2147483648
 1761 00cc 064094E0 		adds	r4, r4, r6
 1762 00d0 A44FA0E1 		lsr	r4, r4, #31
 1763 00d4 0750A5E0 		adc	r5, r5, r7
 1764 00d8 854084E1 		orr	r4, r4, r5, lsl #1
 1765              	.LVL155:
 1766              	.LBE2100:
 1767              	.LBE2103:
 1768              	.LBE2106:
 1769              	.LBE2112:
 1770              	.LBB2113:
 1771              	.LBB2114:
 1772              	.LBB2115:
 1773              	.LBB2116:
 1774              	.LBB2117:
 1775              	.LBB2118:
 1776              	.LBB2119:
 1777              	.LBB2120:
 158:C:/Renesas/e2studio_2021_01_workspace_RZA2M_ANPR/ANPR_RZA2M_EBK/src/tensorflow_lite/third_party/gemmlowp/fixedpoint\fixedpoint.h **** }
 1778              		.loc 5 158 0
 1779 00dc 042092E0 		adds	r2, r2, r4
 1780              	.LVL156:
 1781              	.LBE2120:
 1782              	.LBE2119:
 1783              	.LBE2118:
 1784              	.LBE2117:
 1785              	.LBE2116:
 1786              	.LBE2115:
 1787              	.LBE2114:
 1788              	.LBE2113:
 742:C:/Renesas/e2studio_2021_01_workspace_RZA2M_ANPR/ANPR_RZA2M_EBK/src/tensorflow_lite/third_party/gemmlowp/fixedpoint\fixedpoint.h **** 
 1789              		.loc 5 742 0
 1790 00e0 F003BDE8 		pop	{r4, r5, r6, r7, r8, r9}
 1791              		.cfi_remember_state
 1792              		.cfi_restore 9
 1793              		.cfi_restore 8
 1794              		.cfi_restore 7
 1795              		.cfi_restore 6
 1796              		.cfi_restore 5
 1797              		.cfi_restore 4
 1798              		.cfi_def_cfa_offset 0
 1799              	.LBB2129:
 1800              	.LBB2128:
 1801              	.LBB2127:
 1802              	.LBB2126:
 1803              	.LBB2125:
 1804              	.LBB2121:
 1805              	.LBB2122:
 141:C:/Renesas/e2studio_2021_01_workspace_RZA2M_ANPR/ANPR_RZA2M_EBK/src/tensorflow_lite/third_party/gemmlowp/fixedpoint\fixedpoint.h **** }
 1806              		.loc 5 141 0
 1807 00e4 C230A0E1 		asr	r3, r2, #1
 1808 00e8 0020A043 		movmi	r2, #0
 1809              	.LVL157:
 1810 00ec 01200252 		andpl	r2, r2, #1
 1811              	.LVL158:
 1812              	.LBE2122:
 1813              	.LBE2121:
 1814              	.LBB2123:
 1815              	.LBB2124:
  95:C:/Renesas/e2studio_2021_01_workspace_RZA2M_ANPR/ANPR_RZA2M_EBK/src/tensorflow_lite/third_party/gemmlowp/fixedpoint\fixedpoint.h **** }
 1816              		.loc 5 95 0
 1817 00f0 022083E0 		add	r2, r3, r2
 1818              	.LVL159:
 1819              	.LBE2124:
 1820              	.LBE2123:
 1821              	.LBE2125:
 1822              	.LBE2126:
 1823              	.LBE2127:
 1824              	.LBE2128:
 1825              	.LBE2129:
 1826              	.LBB2130:
 1827              	.LBB2131:
 1828              	.LBB2132:
 1829              	.LBB2133:
 334:C:/Renesas/e2studio_2021_01_workspace_RZA2M_ANPR/ANPR_RZA2M_EBK/src/tensorflow_lite/third_party/gemmlowp/fixedpoint\fixedpoint.h ****   std::int32_t nudge = ab_64 >= 0 ? (1 << 30) : (1 - (1 << 30));
 1830              		.loc 5 334 0
 1831 00f4 94380AE3 		movw	r3, #43156
 1832              	.LBE2133:
 1833              	.LBE2132:
 1834              	.LBE2131:
 1835              	.LBE2130:
 1836              	.LBB2137:
 1837              	.LBB2138:
 1838              	.LBB2139:
  95:C:/Renesas/e2studio_2021_01_workspace_RZA2M_ANPR/ANPR_RZA2M_EBK/src/tensorflow_lite/third_party/gemmlowp/fixedpoint\fixedpoint.h **** }
 1839              		.loc 5 95 0
 1840 00f8 002082E0 		add	r2, r2, r0
 1841              	.LBE2139:
 1842              	.LBE2138:
 1843              	.LBE2137:
 1844              	.LBB2140:
 1845              	.LBB2136:
 1846              	.LBB2135:
 1847              	.LBB2134:
 334:C:/Renesas/e2studio_2021_01_workspace_RZA2M_ANPR/ANPR_RZA2M_EBK/src/tensorflow_lite/third_party/gemmlowp/fixedpoint\fixedpoint.h ****   std::int32_t nudge = ab_64 >= 0 ? (1 << 30) : (1 - (1 << 30));
 1848              		.loc 5 334 0
 1849 00fc F53047E3 		movt	r3, 28917
 1850 0100 9203C1E0 		smull	r0, r1, r2, r3
 1851              	.LVL160:
 335:C:/Renesas/e2studio_2021_01_workspace_RZA2M_ANPR/ANPR_RZA2M_EBK/src/tensorflow_lite/third_party/gemmlowp/fixedpoint\fixedpoint.h ****   std::int32_t ab_x2_high32 =
 1852              		.loc 5 335 0
 1853 0104 000050E3 		cmp	r0, #0
 1854 0108 0030D1E2 		sbcs	r3, r1, #0
 1855 010c 0121A0A3 		movge	r2, #1073741824
 1856 0110 0721A0B3 		movlt	r2, #-1073741823
 1857 0114 0030A0A3 		movge	r3, #0
 1858 0118 0030E0B3 		mvnlt	r3, #0
 1859              	.LVL161:
 337:C:/Renesas/e2studio_2021_01_workspace_RZA2M_ANPR/ANPR_RZA2M_EBK/src/tensorflow_lite/third_party/gemmlowp/fixedpoint\fixedpoint.h ****   return overflow ? std::numeric_limits<std::int32_t>::max() : ab_x2_high32;
 1860              		.loc 5 337 0
 1861 011c 002092E0 		adds	r2, r2, r0
 1862              	.LVL162:
 1863 0120 0130A3E0 		adc	r3, r3, r1
 1864 0124 0010A0E3 		mov	r1, #0
 1865 0128 C30FA0E1 		asr	r0, r3, #31
 1866 012c 0201C0E3 		bic	r0, r0, #-2147483648
 1867 0130 020090E0 		adds	r0, r0, r2
 1868 0134 A00FA0E1 		lsr	r0, r0, #31
 1869 0138 0310A1E0 		adc	r1, r1, r3
 1870 013c 810080E1 		orr	r0, r0, r1, lsl #1
 1871              	.LBE2134:
 1872              	.LBE2135:
 1873              	.LBE2136:
 1874              	.LBE2140:
 1875              	.LBB2141:
 1876              	.LBB2142:
 1877              	.LBB2143:
 1878              	.LBB2144:
 1879              	.LBB2145:
 1880              	.LBB2146:
  95:C:/Renesas/e2studio_2021_01_workspace_RZA2M_ANPR/ANPR_RZA2M_EBK/src/tensorflow_lite/third_party/gemmlowp/fixedpoint\fixedpoint.h **** }
 1881              		.loc 5 95 0
 1882 0140 070280E2 		add	r0, r0, #1879048192
 1883 0144 F50880E2 		add	r0, r0, #16056320
 1884 0148 2A0B80E2 		add	r0, r0, #43008
 1885 014c 940080E2 		add	r0, r0, #148
 1886              	.LVL163:
 1887              	.LBE2146:
 1888              	.LBE2145:
 1889              	.LBE2144:
 1890              	.LBE2143:
 1891              	.LBE2142:
 1892              	.LBE2141:
 742:C:/Renesas/e2studio_2021_01_workspace_RZA2M_ANPR/ANPR_RZA2M_EBK/src/tensorflow_lite/third_party/gemmlowp/fixedpoint\fixedpoint.h **** 
 1893              		.loc 5 742 0
 1894 0150 1EFF2FE1 		bx	lr
 1895              	.LVL164:
 1896              	.L98:
 1897              		.cfi_restore_state
 1898              	.LBB2147:
 1899              	.LBB2093:
 1900              	.LBB2091:
 1901              	.LBB2089:
 337:C:/Renesas/e2studio_2021_01_workspace_RZA2M_ANPR/ANPR_RZA2M_EBK/src/tensorflow_lite/third_party/gemmlowp/fixedpoint\fixedpoint.h ****   return overflow ? std::numeric_limits<std::int32_t>::max() : ab_x2_high32;
 1902              		.loc 5 337 0
 1903 0154 0141A0E3 		mov	r4, #1073741824
 1904 0158 0050A0E3 		mov	r5, #0
 1905 015c 9242E5E0 		smlal	r4, r5, r2, r2
 1906 0160 0090A0E3 		mov	r9, #0
 1907 0164 C58FA0E1 		asr	r8, r5, #31
 1908 0168 0281C8E3 		bic	r8, r8, #-2147483648
 1909 016c 048098E0 		adds	r8, r8, r4
 1910 0170 A88FA0E1 		lsr	r8, r8, #31
 1911 0174 0590A9E0 		adc	r9, r9, r5
 1912 0178 898088E1 		orr	r8, r8, r9, lsl #1
 1913              	.LVL165:
 1914 017c A84FA0E1 		lsr	r4, r8, #31
 1915 0180 4811A0E1 		asr	r1, r8, #2
 1916 0184 01C084E2 		add	ip, r4, #1
 1917              	.LBE2089:
 1918              	.LBE2091:
 1919              	.LBE2093:
 1920              	.LBE2147:
 1921              	.LBB2148:
 1922              	.LBB2149:
 1923              	.LBB2150:
 1924              	.LBB2151:
 1925              	.LBB2152:
 1926              	.LBB2153:
 1927              	.LBB2154:
  71:C:/Renesas/e2studio_2021_01_workspace_RZA2M_ANPR/ANPR_RZA2M_EBK/src/tensorflow_lite/third_party/gemmlowp/fixedpoint\fixedpoint.h **** }
 1928              		.loc 5 71 0
 1929 0188 034008E2 		and	r4, r8, #3
 1930 018c 0C0054E1 		cmp	r4, ip
 1931 0190 0140A0D1 		movle	r4, r1
 1932 0194 014081C2 		addgt	r4, r1, #1
 1933 0198 BDFFFFEA 		b	.L87
 1934              	.LVL166:
 1935              	.L92:
 1936              	.LBE2154:
 1937              	.LBE2153:
 1938              	.LBE2152:
 1939              	.LBE2151:
 1940              	.LBE2150:
 1941              	.LBE2149:
 1942              	.LBE2148:
 1943              	.LBB2155:
 1944              	.LBB2107:
 1945              	.LBB2104:
 1946              	.LBB2101:
 334:C:/Renesas/e2studio_2021_01_workspace_RZA2M_ANPR/ANPR_RZA2M_EBK/src/tensorflow_lite/third_party/gemmlowp/fixedpoint\fixedpoint.h ****   std::int32_t nudge = ab_64 >= 0 ? (1 << 30) : (1 - (1 << 30));
 1947              		.loc 5 334 0
 1948 019c 1C508FE2 		adr	r5, .L99
 1949 01a0 D040C5E1 		ldrd	r4, [r5]
 1950              	.LVL167:
 1951              	.LBE2101:
 1952              	.LBE2104:
 1953              	.LBE2107:
 1954              	.LBE2155:
 1955              	.LBB2156:
 1956              	.LBB2083:
 1957              	.LBB2081:
 1958              	.LBB2079:
 338:C:/Renesas/e2studio_2021_01_workspace_RZA2M_ANPR/ANPR_RZA2M_EBK/src/tensorflow_lite/third_party/gemmlowp/fixedpoint\fixedpoint.h **** }
 1959              		.loc 5 338 0
 1960 01a4 0761A0E3 		mov	r6, #-1073741823
 1961              	.LVL168:
 1962 01a8 0070E0E3 		mvn	r7, #0
 1963 01ac C1FFFFEA 		b	.L86
 1964              	.LVL169:
 1965              	.L94:
 1966              	.LBE2079:
 1967              	.LBE2081:
 1968              	.LBE2083:
 1969              	.LBE2156:
 1970              	.LBB2157:
 1971              	.LBB2108:
 1972              	.LBB2105:
 1973              	.LBB2102:
 335:C:/Renesas/e2studio_2021_01_workspace_RZA2M_ANPR/ANPR_RZA2M_EBK/src/tensorflow_lite/third_party/gemmlowp/fixedpoint\fixedpoint.h ****   std::int32_t ab_x2_high32 =
 1974              		.loc 5 335 0
 1975 01b0 0761A0E3 		mov	r6, #-1073741823
 1976 01b4 0070E0E3 		mvn	r7, #0
 1977 01b8 BEFFFFEA 		b	.L86
 1978              	.L100:
 1979 01bc 00F020E3 		.align	3
 1980              	.L99:
 1981 01c0 555555B5 		.word	-1252698795
 1982 01c4 FFFFFFEF 		.word	-268435457
 1983              	.LBE2102:
 1984              	.LBE2105:
 1985              	.LBE2108:
 1986              	.LBE2157:
 1987              		.cfi_endproc
 1988              	.LFE4448:
 1989              		.cantunwind
 1990              		.fnend
 1992              		.section	.text._ZN8gemmlowp22exp_on_negative_valuesIlLi5EEENS_10FixedPointIT_Li0EEENS1_IS2_XT0_EEE
 1993              		.align	2
 1994              		.weak	_ZN8gemmlowp22exp_on_negative_valuesIlLi5EEENS_10FixedPointIT_Li0EEENS1_IS2_XT0_EEE
 1995              		.syntax unified
 1996              		.arm
 1997              		.fpu neon
 1999              	_ZN8gemmlowp22exp_on_negative_valuesIlLi5EEENS_10FixedPointIT_Li0EEENS1_IS2_XT0_EEE:
 2000              		.fnstart
 2001              	.LFB4361:
 746:C:/Renesas/e2studio_2021_01_workspace_RZA2M_ANPR/ANPR_RZA2M_EBK/src/tensorflow_lite/third_party/gemmlowp/fixedpoint\fixedpoint.h ****     FixedPoint<tRawType, tIntegerBits> a) {
 2002              		.loc 5 746 0
 2003              		.cfi_startproc
 2004              		@ args = 0, pretend = 0, frame = 0
 2005              		@ frame_needed = 0, uses_anonymous_args = 0
 2006              	.LVL170:
 2007 0000 F84F2DE9 		push	{r3, r4, r5, r6, r7, r8, r9, r10, fp, lr}
 2008              		.cfi_def_cfa_offset 40
 2009              		.cfi_offset 3, -40
 2010              		.cfi_offset 4, -36
 2011              		.cfi_offset 5, -32
 2012              		.cfi_offset 6, -28
 2013              		.cfi_offset 7, -24
 2014              		.cfi_offset 8, -20
 2015              		.cfi_offset 9, -16
 2016              		.cfi_offset 10, -12
 2017              		.cfi_offset 11, -8
 2018              		.cfi_offset 14, -4
 2019              	.LBB2513:
 2020              	.LBB2514:
 2021              	.LBB2515:
 106:C:/Renesas/e2studio_2021_01_workspace_RZA2M_ANPR/ANPR_RZA2M_EBK/src/tensorflow_lite/third_party/gemmlowp/fixedpoint\fixedpoint.h **** }
 2022              		.loc 5 106 0
 2023 0004 FF5480E3 		orr	r5, r0, #-16777216
 2024              	.LBE2515:
 2025              	.LBE2514:
 2026              	.LBE2513:
 2027              	.LBB2516:
 2028              	.LBB2517:
 2029              	.LBB2518:
 2030              	.LBB2519:
 2031              	.LBB2520:
 334:C:/Renesas/e2studio_2021_01_workspace_RZA2M_ANPR/ANPR_RZA2M_EBK/src/tensorflow_lite/third_party/gemmlowp/fixedpoint\fixedpoint.h ****   std::int32_t nudge = ab_64 >= 0 ? (1 << 30) : (1 - (1 << 30));
 2032              		.loc 5 334 0
 2033 0008 7B8E0BE3 		movw	r8, #48763
 2034              	.LBE2520:
 2035              	.LBE2519:
 2036              	.LBE2518:
 2037              	.LBE2517:
 2038              	.LBE2516:
 746:C:/Renesas/e2studio_2021_01_workspace_RZA2M_ANPR/ANPR_RZA2M_EBK/src/tensorflow_lite/third_party/gemmlowp/fixedpoint\fixedpoint.h ****     FixedPoint<tRawType, tIntegerBits> a) {
 2039              		.loc 5 746 0
 2040 000c 0040A0E1 		mov	r4, r0
 2041              	.LVL171:
 2042              	.LBB2563:
 2043              	.LBB2542:
 2044              	.LBB2535:
 2045              	.LBB2528:
 2046              	.LBB2521:
 334:C:/Renesas/e2studio_2021_01_workspace_RZA2M_ANPR/ANPR_RZA2M_EBK/src/tensorflow_lite/third_party/gemmlowp/fixedpoint\fixedpoint.h ****   std::int32_t nudge = ab_64 >= 0 ? (1 << 30) : (1 - (1 << 30));
 2047              		.loc 5 334 0
 2048 0010 AF8346E3 		movt	r8, 25519
 2049              	.LBE2521:
 2050              	.LBE2528:
 2051              	.LBE2535:
 2052              	.LBE2542:
 2053              	.LBE2563:
 756:C:/Renesas/e2studio_2021_01_workspace_RZA2M_ANPR/ANPR_RZA2M_EBK/src/tensorflow_lite/third_party/gemmlowp/fixedpoint\fixedpoint.h ****   tRawType remainder = (a_mod_quarter_minus_one_quarter - a).raw();
 2054              		.loc 5 756 0
 2055 0014 8502A0E1 		lsl	r0, r5, #5
 2056              	.LVL172:
 2057 0018 FEFFFFEB 		bl	_ZN8gemmlowp55exp_on_interval_between_negative_one_quarter_and_0_exclIlEENS_10FixedPointIT_Li0E
 2058              	.LVL173:
 2059              	.LBB2564:
 2060              	.LBB2543:
 2061              	.LBB2536:
 2062              	.LBB2529:
 2063              	.LBB2522:
 334:C:/Renesas/e2studio_2021_01_workspace_RZA2M_ANPR/ANPR_RZA2M_EBK/src/tensorflow_lite/third_party/gemmlowp/fixedpoint\fixedpoint.h ****   std::int32_t nudge = ab_64 >= 0 ? (1 << 30) : (1 - (1 << 30));
 2064              		.loc 5 334 0
 2065 001c 9088C9E0 		smull	r8, r9, r0, r8
 2066              	.LBE2522:
 2067              	.LBE2529:
 2068              	.LBE2536:
 2069              	.LBE2543:
 2070              	.LBE2564:
 2071              	.LBB2565:
 2072              	.LBB2566:
 2073              	.LBB2567:
 106:C:/Renesas/e2studio_2021_01_workspace_RZA2M_ANPR/ANPR_RZA2M_EBK/src/tensorflow_lite/third_party/gemmlowp/fixedpoint\fixedpoint.h **** }
 2074              		.loc 5 106 0
 2075 0020 043045E0 		sub	r3, r5, r4
 2076              	.LVL174:
 2077              	.LBE2567:
 2078              	.LBE2566:
 2079              	.LBE2565:
 2080              	.LBB2568:
 2081              	.LBB2544:
 2082              	.LBB2545:
 158:C:/Renesas/e2studio_2021_01_workspace_RZA2M_ANPR/ANPR_RZA2M_EBK/src/tensorflow_lite/third_party/gemmlowp/fixedpoint\fixedpoint.h **** }
 2083              		.loc 5 158 0
 2084 0024 532CE0E7 		ubfx	r2, r3, #24, #1
 2085              	.LBE2545:
 2086              	.LBE2544:
 2087              	.LBE2568:
 2088              	.LBB2569:
 2089              	.LBB2570:
 2090              	.LBB2571:
 2091 0028 535DE0E7 		ubfx	r5, r3, #26, #1
 2092              	.LVL175:
 2093              	.LBE2571:
 2094              	.LBE2570:
 2095              	.LBE2569:
 2096              	.LBB2604:
 2097              	.LBB2547:
 2098              	.LBB2546:
 2099 002c 001062E2 		rsb	r1, r2, #0
 2100              	.LVL176:
 2101              	.LBE2546:
 2102              	.LBE2547:
 2103              	.LBB2548:
 2104              	.LBB2549:
 2105              	.LBB2550:
 2106              	.LBB2551:
  71:C:/Renesas/e2studio_2021_01_workspace_RZA2M_ANPR/ANPR_RZA2M_EBK/src/tensorflow_lite/third_party/gemmlowp/fixedpoint\fixedpoint.h **** }
 2107              		.loc 5 71 0
 2108 0030 012042E2 		sub	r2, r2, #1
 2109 0034 020000E0 		and	r0, r0, r2
 2110              	.LVL177:
 2111              	.LBE2551:
 2112              	.LBE2550:
 2113              	.LBE2549:
 2114              	.LBE2548:
 2115              	.LBE2604:
 2116              	.LBB2605:
 2117              	.LBB2606:
 2118              	.LBB2607:
 2119              	.LBB2608:
 2120              	.LBB2609:
 334:C:/Renesas/e2studio_2021_01_workspace_RZA2M_ANPR/ANPR_RZA2M_EBK/src/tensorflow_lite/third_party/gemmlowp/fixedpoint\fixedpoint.h ****   std::int32_t nudge = ab_64 >= 0 ? (1 << 30) : (1 - (1 << 30));
 2121              		.loc 5 334 0
 2122 0038 F22B0CE3 		movw	r2, #52210
 2123              	.LBE2609:
 2124              	.LBE2608:
 2125              	.LBE2607:
 2126              	.LBE2606:
 2127              	.LBE2605:
 2128              	.LBB2650:
 2129              	.LBB2651:
 2130              	.LBB2652:
 2131              	.LBB2653:
 158:C:/Renesas/e2studio_2021_01_workspace_RZA2M_ANPR/ANPR_RZA2M_EBK/src/tensorflow_lite/third_party/gemmlowp/fixedpoint\fixedpoint.h **** }
 2132              		.loc 5 158 0
 2133 003c 144F6FE1 		clz	r4, r4
 2134              	.LVL178:
 2135              	.LBE2653:
 2136              	.LBE2652:
 2137              	.LBE2651:
 2138              	.LBE2650:
 2139              	.LBB2660:
 2140              	.LBB2557:
 2141              	.LBB2537:
 2142              	.LBB2530:
 2143              	.LBB2523:
 335:C:/Renesas/e2studio_2021_01_workspace_RZA2M_ANPR/ANPR_RZA2M_EBK/src/tensorflow_lite/third_party/gemmlowp/fixedpoint\fixedpoint.h ****   std::int32_t ab_x2_high32 =
 2144              		.loc 5 335 0
 2145 0040 000058E3 		cmp	r8, #0
 2146              	.LBE2523:
 2147              	.LBE2530:
 2148              	.LBE2537:
 2149              	.LBE2557:
 2150              	.LBE2660:
 2151              	.LBB2661:
 2152              	.LBB2625:
 2153              	.LBB2620:
 2154              	.LBB2615:
 2155              	.LBB2610:
 334:C:/Renesas/e2studio_2021_01_workspace_RZA2M_ANPR/ANPR_RZA2M_EBK/src/tensorflow_lite/third_party/gemmlowp/fixedpoint\fixedpoint.h ****   std::int32_t nudge = ab_64 >= 0 ? (1 << 30) : (1 - (1 << 30));
 2156              		.loc 5 334 0
 2157 0044 A22D44E3 		movt	r2, 19874
 2158              	.LBE2610:
 2159              	.LBE2615:
 2160              	.LBE2620:
 2161              	.LBE2625:
 2162              	.LBE2661:
 2163              	.LBB2662:
 2164              	.LBB2558:
 2165              	.LBB2538:
 2166              	.LBB2531:
 2167              	.LBB2524:
 335:C:/Renesas/e2studio_2021_01_workspace_RZA2M_ANPR/ANPR_RZA2M_EBK/src/tensorflow_lite/third_party/gemmlowp/fixedpoint\fixedpoint.h ****   std::int32_t ab_x2_high32 =
 2168              		.loc 5 335 0
 2169 0048 00C0D9E2 		sbcs	ip, r9, #0
 2170              	.LBE2524:
 2171              	.LBE2531:
 2172              	.LBE2538:
 2173              	.LBE2558:
 2174              	.LBE2662:
 2175              	.LBB2663:
 2176              	.LBB2626:
 2177              	.LBB2627:
 158:C:/Renesas/e2studio_2021_01_workspace_RZA2M_ANPR/ANPR_RZA2M_EBK/src/tensorflow_lite/third_party/gemmlowp/fixedpoint\fixedpoint.h **** }
 2178              		.loc 5 158 0
 2179 004c D3CCE0E7 		ubfx	ip, r3, #25, #1
 2180              	.LBE2627:
 2181              	.LBE2626:
 2182              	.LBE2663:
 2183              	.LBB2664:
 2184              	.LBB2559:
 2185              	.LBB2539:
 2186              	.LBB2532:
 2187              	.LBB2525:
 335:C:/Renesas/e2studio_2021_01_workspace_RZA2M_ANPR/ANPR_RZA2M_EBK/src/tensorflow_lite/third_party/gemmlowp/fixedpoint\fixedpoint.h ****   std::int32_t ab_x2_high32 =
 2188              		.loc 5 335 0
 2189 0050 0161A0A3 		movge	r6, #1073741824
 2190 0054 0761A0B3 		movlt	r6, #-1073741823
 2191 0058 0070A0A3 		movge	r7, #0
 2192 005c 0070E0B3 		mvnlt	r7, #0
 2193              	.LVL179:
 337:C:/Renesas/e2studio_2021_01_workspace_RZA2M_ANPR/ANPR_RZA2M_EBK/src/tensorflow_lite/third_party/gemmlowp/fixedpoint\fixedpoint.h ****   return overflow ? std::numeric_limits<std::int32_t>::max() : ab_x2_high32;
 2194              		.loc 5 337 0
 2195 0060 068098E0 		adds	r8, r8, r6
 2196              	.LVL180:
 2197              	.LBE2525:
 2198              	.LBE2532:
 2199              	.LBE2539:
 2200              	.LBE2559:
 2201              	.LBE2664:
 2202              	.LBB2665:
 2203              	.LBB2629:
 2204              	.LBB2628:
 158:C:/Renesas/e2studio_2021_01_workspace_RZA2M_ANPR/ANPR_RZA2M_EBK/src/tensorflow_lite/third_party/gemmlowp/fixedpoint\fixedpoint.h **** }
 2205              		.loc 5 158 0
 2206 0064 00E06CE2 		rsb	lr, ip, #0
 2207              	.LBE2628:
 2208              	.LBE2629:
 2209              	.LBE2665:
 2210              	.LBB2666:
 2211              	.LBB2560:
 2212              	.LBB2540:
 2213              	.LBB2533:
 2214              	.LBB2526:
 337:C:/Renesas/e2studio_2021_01_workspace_RZA2M_ANPR/ANPR_RZA2M_EBK/src/tensorflow_lite/third_party/gemmlowp/fixedpoint\fixedpoint.h ****   return overflow ? std::numeric_limits<std::int32_t>::max() : ab_x2_high32;
 2215              		.loc 5 337 0
 2216 0068 0790A9E0 		adc	r9, r9, r7
 2217 006c 0070A0E3 		mov	r7, #0
 2218 0070 C96FA0E1 		asr	r6, r9, #31
 2219              	.LBE2526:
 2220              	.LBE2533:
 2221              	.LBE2540:
 2222              	.LBE2560:
 2223              	.LBE2666:
 2224              	.LBB2667:
 2225              	.LBB2630:
 2226              	.LBB2631:
 2227              	.LBB2632:
 2228              	.LBB2633:
  71:C:/Renesas/e2studio_2021_01_workspace_RZA2M_ANPR/ANPR_RZA2M_EBK/src/tensorflow_lite/third_party/gemmlowp/fixedpoint\fixedpoint.h **** }
 2229              		.loc 5 71 0
 2230 0074 01C04CE2 		sub	ip, ip, #1
 2231              	.LBE2633:
 2232              	.LBE2632:
 2233              	.LBE2631:
 2234              	.LBE2630:
 2235              	.LBE2667:
 2236              	.LBB2668:
 2237              	.LBB2658:
 2238              	.LBB2656:
 2239              	.LBB2654:
 158:C:/Renesas/e2studio_2021_01_workspace_RZA2M_ANPR/ANPR_RZA2M_EBK/src/tensorflow_lite/third_party/gemmlowp/fixedpoint\fixedpoint.h **** }
 2240              		.loc 5 158 0
 2241 0078 A442A0E1 		lsr	r4, r4, #5
 2242              	.LBE2654:
 2243              	.LBE2656:
 2244              	.LBE2658:
 2245              	.LBE2668:
 2246              	.LBB2669:
 2247              	.LBB2561:
 2248              	.LBB2541:
 2249              	.LBB2534:
 2250              	.LBB2527:
 337:C:/Renesas/e2studio_2021_01_workspace_RZA2M_ANPR/ANPR_RZA2M_EBK/src/tensorflow_lite/third_party/gemmlowp/fixedpoint\fixedpoint.h ****   return overflow ? std::numeric_limits<std::int32_t>::max() : ab_x2_high32;
 2251              		.loc 5 337 0
 2252 007c 0261C6E3 		bic	r6, r6, #-2147483648
 2253 0080 086096E0 		adds	r6, r6, r8
 2254 0084 A66FA0E1 		lsr	r6, r6, #31
 2255 0088 0970A7E0 		adc	r7, r7, r9
 2256 008c 876086E1 		orr	r6, r6, r7, lsl #1
 2257              	.LBE2527:
 2258              	.LBE2534:
 2259              	.LBE2541:
 2260              	.LBE2561:
 2261              	.LBB2562:
 2262              	.LBB2556:
 2263              	.LBB2552:
 2264              	.LBB2553:
  71:C:/Renesas/e2studio_2021_01_workspace_RZA2M_ANPR/ANPR_RZA2M_EBK/src/tensorflow_lite/third_party/gemmlowp/fixedpoint\fixedpoint.h **** }
 2265              		.loc 5 71 0
 2266 0090 061001E0 		and	r1, r1, r6
 2267              	.LVL181:
 2268              	.LBE2553:
 2269              	.LBE2552:
 2270              	.LBB2554:
 2271              	.LBB2555:
  83:C:/Renesas/e2studio_2021_01_workspace_RZA2M_ANPR/ANPR_RZA2M_EBK/src/tensorflow_lite/third_party/gemmlowp/fixedpoint\fixedpoint.h **** }
 2272              		.loc 5 83 0
 2273 0094 010020E0 		eor	r0, r0, r1
 2274              	.LVL182:
 2275              	.LBE2555:
 2276              	.LBE2554:
 2277              	.LBE2556:
 2278              	.LBE2562:
 2279              	.LBE2669:
 2280              	.LBB2670:
 2281              	.LBB2573:
 2282              	.LBB2574:
 2283              	.LBB2575:
 2284              	.LBB2576:
 334:C:/Renesas/e2studio_2021_01_workspace_RZA2M_ANPR/ANPR_RZA2M_EBK/src/tensorflow_lite/third_party/gemmlowp/fixedpoint\fixedpoint.h ****   std::int32_t nudge = ab_64 >= 0 ? (1 << 30) : (1 - (1 << 30));
 2285              		.loc 5 334 0
 2286 0098 6C1C0AE3 		movw	r1, #44140
 2287              	.LBE2576:
 2288              	.LBE2575:
 2289              	.LBE2574:
 2290              	.LBE2573:
 2291              	.LBE2670:
 2292              	.LBB2671:
 2293              	.LBB2643:
 2294              	.LBB2621:
 2295              	.LBB2616:
 2296              	.LBB2611:
 2297 009c 9082C9E0 		smull	r8, r9, r0, r2
 2298              	.LVL183:
 2299              	.LBE2611:
 2300              	.LBE2616:
 2301              	.LBE2621:
 2302              	.LBE2643:
 2303              	.LBB2644:
 2304              	.LBB2640:
 2305              	.LBB2635:
 2306              	.LBB2634:
  71:C:/Renesas/e2studio_2021_01_workspace_RZA2M_ANPR/ANPR_RZA2M_EBK/src/tensorflow_lite/third_party/gemmlowp/fixedpoint\fixedpoint.h **** }
 2307              		.loc 5 71 0
 2308 00a0 0C0000E0 		and	r0, r0, ip
 2309              	.LVL184:
 2310              	.LBE2634:
 2311              	.LBE2635:
 2312              	.LBE2640:
 2313              	.LBE2644:
 2314              	.LBE2671:
 2315              	.LBB2672:
 2316              	.LBB2586:
 2317              	.LBB2583:
 2318              	.LBB2580:
 2319              	.LBB2577:
 334:C:/Renesas/e2studio_2021_01_workspace_RZA2M_ANPR/ANPR_RZA2M_EBK/src/tensorflow_lite/third_party/gemmlowp/fixedpoint\fixedpoint.h ****   std::int32_t nudge = ab_64 >= 0 ? (1 << 30) : (1 - (1 << 30));
 2320              		.loc 5 334 0
 2321 00a4 161F42E3 		movt	r1, 12054
 2322              	.LBE2577:
 2323              	.LBE2580:
 2324              	.LBE2583:
 2325              	.LBE2586:
 2326              	.LBE2672:
 2327              	.LBB2673:
 2328              	.LBB2674:
 2329              	.LBB2675:
 2330              	.LBB2676:
 2331              	.LBB2677:
 2332 00a8 A4CA0AE3 		movw	ip, #43684
 2333 00ac 52C141E3 		movt	ip, 4434
 2334              	.LBE2677:
 2335              	.LBE2676:
 2336              	.LBE2675:
 2337              	.LBE2674:
 2338              	.LBE2673:
 2339              	.LBB2718:
 2340              	.LBB2645:
 2341              	.LBB2622:
 2342              	.LBB2617:
 2343              	.LBB2612:
 335:C:/Renesas/e2studio_2021_01_workspace_RZA2M_ANPR/ANPR_RZA2M_EBK/src/tensorflow_lite/third_party/gemmlowp/fixedpoint\fixedpoint.h ****   std::int32_t ab_x2_high32 =
 2344              		.loc 5 335 0
 2345 00b0 000058E3 		cmp	r8, #0
 2346 00b4 0020D9E2 		sbcs	r2, r9, #0
 2347              	.LBE2612:
 2348              	.LBE2617:
 2349              	.LBE2622:
 2350              	.LBE2645:
 2351              	.LBE2718:
 2352              	.LBB2719:
 2353              	.LBB2587:
 2354              	.LBB2572:
 158:C:/Renesas/e2studio_2021_01_workspace_RZA2M_ANPR/ANPR_RZA2M_EBK/src/tensorflow_lite/third_party/gemmlowp/fixedpoint\fixedpoint.h **** }
 2355              		.loc 5 158 0
 2356 00b8 002065E2 		rsb	r2, r5, #0
 2357              	.LBE2572:
 2358              	.LBE2587:
 2359              	.LBE2719:
 2360              	.LBB2720:
 2361              	.LBB2646:
 2362              	.LBB2623:
 2363              	.LBB2618:
 2364              	.LBB2613:
 335:C:/Renesas/e2studio_2021_01_workspace_RZA2M_ANPR/ANPR_RZA2M_EBK/src/tensorflow_lite/third_party/gemmlowp/fixedpoint\fixedpoint.h ****   std::int32_t ab_x2_high32 =
 2365              		.loc 5 335 0
 2366 00bc 0161A0A3 		movge	r6, #1073741824
 2367 00c0 0761A0B3 		movlt	r6, #-1073741823
 2368 00c4 0070A0A3 		movge	r7, #0
 2369 00c8 0070E0B3 		mvnlt	r7, #0
 2370              	.LVL185:
 337:C:/Renesas/e2studio_2021_01_workspace_RZA2M_ANPR/ANPR_RZA2M_EBK/src/tensorflow_lite/third_party/gemmlowp/fixedpoint\fixedpoint.h ****   return overflow ? std::numeric_limits<std::int32_t>::max() : ab_x2_high32;
 2371              		.loc 5 337 0
 2372 00cc 068098E0 		adds	r8, r8, r6
 2373              	.LVL186:
 2374              	.LBE2613:
 2375              	.LBE2618:
 2376              	.LBE2623:
 2377              	.LBE2646:
 2378              	.LBE2720:
 2379              	.LBB2721:
 2380              	.LBB2588:
 2381              	.LBB2589:
 2382              	.LBB2590:
 2383              	.LBB2591:
  71:C:/Renesas/e2studio_2021_01_workspace_RZA2M_ANPR/ANPR_RZA2M_EBK/src/tensorflow_lite/third_party/gemmlowp/fixedpoint\fixedpoint.h **** }
 2384              		.loc 5 71 0
 2385 00d0 015045E2 		sub	r5, r5, #1
 2386              	.LBE2591:
 2387              	.LBE2590:
 2388              	.LBE2589:
 2389              	.LBE2588:
 2390              	.LBE2721:
 2391              	.LBB2722:
 2392              	.LBB2647:
 2393              	.LBB2624:
 2394              	.LBB2619:
 2395              	.LBB2614:
 337:C:/Renesas/e2studio_2021_01_workspace_RZA2M_ANPR/ANPR_RZA2M_EBK/src/tensorflow_lite/third_party/gemmlowp/fixedpoint\fixedpoint.h ****   return overflow ? std::numeric_limits<std::int32_t>::max() : ab_x2_high32;
 2396              		.loc 5 337 0
 2397 00d4 0790A9E0 		adc	r9, r9, r7
 2398 00d8 0070A0E3 		mov	r7, #0
 2399 00dc C96FA0E1 		asr	r6, r9, #31
 2400 00e0 0261C6E3 		bic	r6, r6, #-2147483648
 2401 00e4 086096E0 		adds	r6, r6, r8
 2402 00e8 A66FA0E1 		lsr	r6, r6, #31
 2403 00ec 0970A7E0 		adc	r7, r7, r9
 2404 00f0 876086E1 		orr	r6, r6, r7, lsl #1
 2405              	.LBE2614:
 2406              	.LBE2619:
 2407              	.LBE2624:
 2408              	.LBE2647:
 2409              	.LBB2648:
 2410              	.LBB2641:
 2411              	.LBB2636:
 2412              	.LBB2637:
  71:C:/Renesas/e2studio_2021_01_workspace_RZA2M_ANPR/ANPR_RZA2M_EBK/src/tensorflow_lite/third_party/gemmlowp/fixedpoint\fixedpoint.h **** }
 2413              		.loc 5 71 0
 2414 00f4 06E00EE0 		and	lr, lr, r6
 2415              	.LVL187:
 2416              	.LBE2637:
 2417              	.LBE2636:
 2418              	.LBE2641:
 2419              	.LBE2648:
 2420              	.LBE2722:
 2421              	.LBB2723:
 2422              	.LBB2724:
 2423              	.LBB2725:
 158:C:/Renesas/e2studio_2021_01_workspace_RZA2M_ANPR/ANPR_RZA2M_EBK/src/tensorflow_lite/third_party/gemmlowp/fixedpoint\fixedpoint.h **** }
 2424              		.loc 5 158 0
 2425 00f8 536EE0E7 		ubfx	r6, r3, #28, #1
 2426              	.LBE2725:
 2427              	.LBE2724:
 2428              	.LBE2723:
 2429              	.LBB2766:
 2430              	.LBB2649:
 2431              	.LBB2642:
 2432              	.LBB2638:
 2433              	.LBB2639:
  83:C:/Renesas/e2studio_2021_01_workspace_RZA2M_ANPR/ANPR_RZA2M_EBK/src/tensorflow_lite/third_party/gemmlowp/fixedpoint\fixedpoint.h **** }
 2434              		.loc 5 83 0
 2435 00fc 0E0020E0 		eor	r0, r0, lr
 2436              	.LVL188:
 2437              	.LBE2639:
 2438              	.LBE2638:
 2439              	.LBE2642:
 2440              	.LBE2649:
 2441              	.LBE2766:
 2442              	.LBB2767:
 2443              	.LBB2693:
 2444              	.LBB2694:
 158:C:/Renesas/e2studio_2021_01_workspace_RZA2M_ANPR/ANPR_RZA2M_EBK/src/tensorflow_lite/third_party/gemmlowp/fixedpoint\fixedpoint.h **** }
 2445              		.loc 5 158 0
 2446 0100 D3EDE0E7 		ubfx	lr, r3, #27, #1
 2447              	.LBE2694:
 2448              	.LBE2693:
 2449              	.LBE2767:
 2450              	.LBB2768:
 2451              	.LBB2600:
 2452              	.LBB2584:
 2453              	.LBB2581:
 2454              	.LBB2578:
 334:C:/Renesas/e2studio_2021_01_workspace_RZA2M_ANPR/ANPR_RZA2M_EBK/src/tensorflow_lite/third_party/gemmlowp/fixedpoint\fixedpoint.h ****   std::int32_t nudge = ab_64 >= 0 ? (1 << 30) : (1 - (1 << 30));
 2455              		.loc 5 334 0
 2456 0104 9081C9E0 		smull	r8, r9, r0, r1
 2457              	.LVL189:
 2458              	.LBE2578:
 2459              	.LBE2581:
 2460              	.LBE2584:
 2461              	.LBE2600:
 2462              	.LBB2601:
 2463              	.LBB2598:
 2464              	.LBB2593:
 2465              	.LBB2592:
  71:C:/Renesas/e2studio_2021_01_workspace_RZA2M_ANPR/ANPR_RZA2M_EBK/src/tensorflow_lite/third_party/gemmlowp/fixedpoint\fixedpoint.h **** }
 2466              		.loc 5 71 0
 2467 0108 005005E0 		and	r5, r5, r0
 2468              	.LBE2592:
 2469              	.LBE2593:
 2470              	.LBE2598:
 2471              	.LBE2601:
 2472              	.LBE2768:
 2473              	.LBB2769:
 2474              	.LBB2696:
 2475              	.LBB2695:
 158:C:/Renesas/e2studio_2021_01_workspace_RZA2M_ANPR/ANPR_RZA2M_EBK/src/tensorflow_lite/third_party/gemmlowp/fixedpoint\fixedpoint.h **** }
 2476              		.loc 5 158 0
 2477 010c 00706EE2 		rsb	r7, lr, #0
 2478              	.LBE2695:
 2479              	.LBE2696:
 2480              	.LBB2697:
 2481              	.LBB2698:
 2482              	.LBB2699:
 2483              	.LBB2700:
  71:C:/Renesas/e2studio_2021_01_workspace_RZA2M_ANPR/ANPR_RZA2M_EBK/src/tensorflow_lite/third_party/gemmlowp/fixedpoint\fixedpoint.h **** }
 2484              		.loc 5 71 0
 2485 0110 01E04EE2 		sub	lr, lr, #1
 2486              	.LBE2700:
 2487              	.LBE2699:
 2488              	.LBE2698:
 2489              	.LBE2697:
 2490              	.LBE2769:
 2491              	.LBB2770:
 2492              	.LBB2602:
 2493              	.LBB2585:
 2494              	.LBB2582:
 2495              	.LBB2579:
 335:C:/Renesas/e2studio_2021_01_workspace_RZA2M_ANPR/ANPR_RZA2M_EBK/src/tensorflow_lite/third_party/gemmlowp/fixedpoint\fixedpoint.h ****   std::int32_t ab_x2_high32 =
 2496              		.loc 5 335 0
 2497 0114 000058E3 		cmp	r8, #0
 2498 0118 0010D9E2 		sbcs	r1, r9, #0
 337:C:/Renesas/e2studio_2021_01_workspace_RZA2M_ANPR/ANPR_RZA2M_EBK/src/tensorflow_lite/third_party/gemmlowp/fixedpoint\fixedpoint.h ****   return overflow ? std::numeric_limits<std::int32_t>::max() : ab_x2_high32;
 2499              		.loc 5 337 0
 2500 011c 0010A0E3 		mov	r1, #0
 335:C:/Renesas/e2studio_2021_01_workspace_RZA2M_ANPR/ANPR_RZA2M_EBK/src/tensorflow_lite/third_party/gemmlowp/fixedpoint\fixedpoint.h ****   std::int32_t ab_x2_high32 =
 2501              		.loc 5 335 0
 2502 0120 01A1A0A3 		movge	r10, #1073741824
 2503 0124 07A1A0B3 		movlt	r10, #-1073741823
 2504 0128 00B0A0A3 		movge	fp, #0
 2505 012c 00B0E0B3 		mvnlt	fp, #0
 2506              	.LVL190:
 337:C:/Renesas/e2studio_2021_01_workspace_RZA2M_ANPR/ANPR_RZA2M_EBK/src/tensorflow_lite/third_party/gemmlowp/fixedpoint\fixedpoint.h ****   return overflow ? std::numeric_limits<std::int32_t>::max() : ab_x2_high32;
 2507              		.loc 5 337 0
 2508 0130 0A8098E0 		adds	r8, r8, r10
 2509              	.LVL191:
 2510 0134 0B90A9E0 		adc	r9, r9, fp
 2511 0138 C90FA0E1 		asr	r0, r9, #31
 2512              	.LVL192:
 2513 013c 0201C0E3 		bic	r0, r0, #-2147483648
 2514 0140 080090E0 		adds	r0, r0, r8
 2515 0144 A00FA0E1 		lsr	r0, r0, #31
 2516 0148 0910A1E0 		adc	r1, r1, r9
 2517 014c 810080E1 		orr	r0, r0, r1, lsl #1
 2518              	.LBE2579:
 2519              	.LBE2582:
 2520              	.LBE2585:
 2521              	.LBE2602:
 2522              	.LBE2770:
 2523              	.LBB2771:
 2524              	.LBB2710:
 2525              	.LBB2688:
 2526              	.LBB2683:
 2527              	.LBB2678:
 2528 0150 0010A0E3 		mov	r1, #0
 2529              	.LBE2678:
 2530              	.LBE2683:
 2531              	.LBE2688:
 2532              	.LBE2710:
 2533              	.LBE2771:
 2534              	.LBB2772:
 2535              	.LBB2603:
 2536              	.LBB2599:
 2537              	.LBB2594:
 2538              	.LBB2595:
  71:C:/Renesas/e2studio_2021_01_workspace_RZA2M_ANPR/ANPR_RZA2M_EBK/src/tensorflow_lite/third_party/gemmlowp/fixedpoint\fixedpoint.h **** }
 2539              		.loc 5 71 0
 2540 0154 002002E0 		and	r2, r2, r0
 2541              	.LVL193:
 2542              	.LBE2595:
 2543              	.LBE2594:
 2544              	.LBB2596:
 2545              	.LBB2597:
  83:C:/Renesas/e2studio_2021_01_workspace_RZA2M_ANPR/ANPR_RZA2M_EBK/src/tensorflow_lite/third_party/gemmlowp/fixedpoint\fixedpoint.h **** }
 2546              		.loc 5 83 0
 2547 0158 025025E0 		eor	r5, r5, r2
 2548              	.LVL194:
 2549              	.LBE2597:
 2550              	.LBE2596:
 2551              	.LBE2599:
 2552              	.LBE2603:
 2553              	.LBE2772:
 2554              	.LBB2773:
 2555              	.LBB2711:
 2556              	.LBB2689:
 2557              	.LBB2684:
 2558              	.LBB2679:
 334:C:/Renesas/e2studio_2021_01_workspace_RZA2M_ANPR/ANPR_RZA2M_EBK/src/tensorflow_lite/third_party/gemmlowp/fixedpoint\fixedpoint.h ****   std::int32_t nudge = ab_64 >= 0 ? (1 << 30) : (1 - (1 << 30));
 2559              		.loc 5 334 0
 2560 015c 958CC9E0 		smull	r8, r9, r5, ip
 2561              	.LVL195:
 2562              	.LBE2679:
 2563              	.LBE2684:
 2564              	.LBE2689:
 2565              	.LBE2711:
 2566              	.LBB2712:
 2567              	.LBB2707:
 2568              	.LBB2702:
 2569              	.LBB2701:
  71:C:/Renesas/e2studio_2021_01_workspace_RZA2M_ANPR/ANPR_RZA2M_EBK/src/tensorflow_lite/third_party/gemmlowp/fixedpoint\fixedpoint.h **** }
 2570              		.loc 5 71 0
 2571 0160 05E00EE0 		and	lr, lr, r5
 2572              	.LBE2701:
 2573              	.LBE2702:
 2574              	.LBE2707:
 2575              	.LBE2712:
 2576              	.LBE2773:
 2577              	.LBB2774:
 2578              	.LBB2727:
 2579              	.LBB2726:
 158:C:/Renesas/e2studio_2021_01_workspace_RZA2M_ANPR/ANPR_RZA2M_EBK/src/tensorflow_lite/third_party/gemmlowp/fixedpoint\fixedpoint.h **** }
 2580              		.loc 5 158 0
 2581 0164 00C066E2 		rsb	ip, r6, #0
 2582              	.LBE2726:
 2583              	.LBE2727:
 2584              	.LBB2728:
 2585              	.LBB2729:
 2586              	.LBB2730:
 2587              	.LBB2731:
  71:C:/Renesas/e2studio_2021_01_workspace_RZA2M_ANPR/ANPR_RZA2M_EBK/src/tensorflow_lite/third_party/gemmlowp/fixedpoint\fixedpoint.h **** }
 2588              		.loc 5 71 0
 2589 0168 016046E2 		sub	r6, r6, #1
 2590              	.LBE2731:
 2591              	.LBE2730:
 2592              	.LBE2729:
 2593              	.LBE2728:
 2594              	.LBE2774:
 2595              	.LBB2775:
 2596              	.LBB2776:
 2597              	.LBB2777:
 2598              	.LBB2778:
 2599              	.LBB2779:
 334:C:/Renesas/e2studio_2021_01_workspace_RZA2M_ANPR/ANPR_RZA2M_EBK/src/tensorflow_lite/third_party/gemmlowp/fixedpoint\fixedpoint.h ****   std::int32_t nudge = ab_64 >= 0 ? (1 << 30) : (1 - (1 << 30));
 2600              		.loc 5 334 0
 2601 016c F250A0E3 		mov	r5, #242
 2602              	.LVL196:
 2603              	.LBE2779:
 2604              	.LBE2778:
 2605              	.LBE2777:
 2606              	.LBE2776:
 2607              	.LBE2775:
 2608              	.LBB2818:
 2609              	.LBB2713:
 2610              	.LBB2690:
 2611              	.LBB2685:
 2612              	.LBB2680:
 335:C:/Renesas/e2studio_2021_01_workspace_RZA2M_ANPR/ANPR_RZA2M_EBK/src/tensorflow_lite/third_party/gemmlowp/fixedpoint\fixedpoint.h ****   std::int32_t ab_x2_high32 =
 2613              		.loc 5 335 0
 2614 0170 000058E3 		cmp	r8, #0
 2615 0174 0020D9E2 		sbcs	r2, r9, #0
 2616              	.LBE2680:
 2617              	.LBE2685:
 2618              	.LBE2690:
 2619              	.LBE2713:
 2620              	.LBE2818:
 2621              	.LBB2819:
 2622              	.LBB2740:
 2623              	.LBB2741:
 2624              	.LBB2742:
 2625              	.LBB2743:
 334:C:/Renesas/e2studio_2021_01_workspace_RZA2M_ANPR/ANPR_RZA2M_EBK/src/tensorflow_lite/third_party/gemmlowp/fixedpoint\fixedpoint.h ****   std::int32_t nudge = ab_64 >= 0 ? (1 << 30) : (1 - (1 << 30));
 2626              		.loc 5 334 0
 2627 0178 B72A02E3 		movw	r2, #10935
 2628              	.LBE2743:
 2629              	.LBE2742:
 2630              	.LBE2741:
 2631              	.LBE2740:
 2632              	.LBE2819:
 2633              	.LBB2820:
 2634              	.LBB2714:
 2635              	.LBB2691:
 2636              	.LBB2686:
 2637              	.LBB2681:
 335:C:/Renesas/e2studio_2021_01_workspace_RZA2M_ANPR/ANPR_RZA2M_EBK/src/tensorflow_lite/third_party/gemmlowp/fixedpoint\fixedpoint.h ****   std::int32_t ab_x2_high32 =
 2638              		.loc 5 335 0
 2639 017c 01A1A0A3 		movge	r10, #1073741824
 2640 0180 07A1A0B3 		movlt	r10, #-1073741823
 2641 0184 00B0A0A3 		movge	fp, #0
 2642 0188 00B0E0B3 		mvnlt	fp, #0
 2643              	.LVL197:
 337:C:/Renesas/e2studio_2021_01_workspace_RZA2M_ANPR/ANPR_RZA2M_EBK/src/tensorflow_lite/third_party/gemmlowp/fixedpoint\fixedpoint.h ****   return overflow ? std::numeric_limits<std::int32_t>::max() : ab_x2_high32;
 2644              		.loc 5 337 0
 2645 018c 0A8098E0 		adds	r8, r8, r10
 2646              	.LVL198:
 2647              	.LBE2681:
 2648              	.LBE2686:
 2649              	.LBE2691:
 2650              	.LBE2714:
 2651              	.LBE2820:
 2652              	.LBB2821:
 2653              	.LBB2759:
 2654              	.LBB2754:
 2655              	.LBB2749:
 2656              	.LBB2744:
 334:C:/Renesas/e2studio_2021_01_workspace_RZA2M_ANPR/ANPR_RZA2M_EBK/src/tensorflow_lite/third_party/gemmlowp/fixedpoint\fixedpoint.h ****   std::int32_t nudge = ab_64 >= 0 ? (1 << 30) : (1 - (1 << 30));
 2657              		.loc 5 334 0
 2658 0190 582240E3 		movt	r2, 600
 2659              	.LBE2744:
 2660              	.LBE2749:
 2661              	.LBE2754:
 2662              	.LBE2759:
 2663              	.LBE2821:
 2664              	.LBB2822:
 2665              	.LBB2715:
 2666              	.LBB2692:
 2667              	.LBB2687:
 2668              	.LBB2682:
 337:C:/Renesas/e2studio_2021_01_workspace_RZA2M_ANPR/ANPR_RZA2M_EBK/src/tensorflow_lite/third_party/gemmlowp/fixedpoint\fixedpoint.h ****   return overflow ? std::numeric_limits<std::int32_t>::max() : ab_x2_high32;
 2669              		.loc 5 337 0
 2670 0194 0B90A9E0 		adc	r9, r9, fp
 2671 0198 C90FA0E1 		asr	r0, r9, #31
 2672 019c 0201C0E3 		bic	r0, r0, #-2147483648
 2673 01a0 080090E0 		adds	r0, r0, r8
 2674 01a4 A00FA0E1 		lsr	r0, r0, #31
 2675 01a8 0910A1E0 		adc	r1, r1, r9
 2676 01ac 810080E1 		orr	r0, r0, r1, lsl #1
 2677              	.LBE2682:
 2678              	.LBE2687:
 2679              	.LBE2692:
 2680              	.LBE2715:
 2681              	.LBE2822:
 2682              	.LBB2823:
 2683              	.LBB2824:
 2684              	.LBB2825:
 2685              	.LBB2826:
 2686              	.LBB2827:
 334:C:/Renesas/e2studio_2021_01_workspace_RZA2M_ANPR/ANPR_RZA2M_EBK/src/tensorflow_lite/third_party/gemmlowp/fixedpoint\fixedpoint.h ****   std::int32_t nudge = ab_64 >= 0 ? (1 << 30) : (1 - (1 << 30));
 2687              		.loc 5 334 0
 2688 01b0 111E0FE3 		movw	r1, #65041
 2689 01b4 0A1040E3 		movt	r1, 10
 2690              	.LBE2827:
 2691              	.LBE2826:
 2692              	.LBE2825:
 2693              	.LBE2824:
 2694              	.LBE2823:
 2695              	.LBB2862:
 2696              	.LBB2716:
 2697              	.LBB2708:
 2698              	.LBB2703:
 2699              	.LBB2704:
  71:C:/Renesas/e2studio_2021_01_workspace_RZA2M_ANPR/ANPR_RZA2M_EBK/src/tensorflow_lite/third_party/gemmlowp/fixedpoint\fixedpoint.h **** }
 2700              		.loc 5 71 0
 2701 01b8 007007E0 		and	r7, r7, r0
 2702              	.LVL199:
 2703              	.LBE2704:
 2704              	.LBE2703:
 2705              	.LBE2708:
 2706              	.LBE2716:
 2707              	.LBE2862:
 2708              	.LBB2863:
 2709              	.LBB2840:
 2710              	.LBB2841:
 158:C:/Renesas/e2studio_2021_01_workspace_RZA2M_ANPR/ANPR_RZA2M_EBK/src/tensorflow_lite/third_party/gemmlowp/fixedpoint\fixedpoint.h **** }
 2711              		.loc 5 158 0
 2712 01bc D30EE0E7 		ubfx	r0, r3, #29, #1
 2713              	.LBE2841:
 2714              	.LBE2840:
 2715              	.LBE2863:
 2716              	.LBB2864:
 2717              	.LBB2717:
 2718              	.LBB2709:
 2719              	.LBB2705:
 2720              	.LBB2706:
  83:C:/Renesas/e2studio_2021_01_workspace_RZA2M_ANPR/ANPR_RZA2M_EBK/src/tensorflow_lite/third_party/gemmlowp/fixedpoint\fixedpoint.h **** }
 2721              		.loc 5 83 0
 2722 01c0 07E02EE0 		eor	lr, lr, r7
 2723              	.LVL200:
 2724              	.LBE2706:
 2725              	.LBE2705:
 2726              	.LBE2709:
 2727              	.LBE2717:
 2728              	.LBE2864:
 2729              	.LBB2865:
 2730              	.LBB2760:
 2731              	.LBB2755:
 2732              	.LBB2750:
 2733              	.LBB2745:
 337:C:/Renesas/e2studio_2021_01_workspace_RZA2M_ANPR/ANPR_RZA2M_EBK/src/tensorflow_lite/third_party/gemmlowp/fixedpoint\fixedpoint.h ****   return overflow ? std::numeric_limits<std::int32_t>::max() : ab_x2_high32;
 2734              		.loc 5 337 0
 2735 01c4 0070A0E3 		mov	r7, #0
 334:C:/Renesas/e2studio_2021_01_workspace_RZA2M_ANPR/ANPR_RZA2M_EBK/src/tensorflow_lite/third_party/gemmlowp/fixedpoint\fixedpoint.h ****   std::int32_t nudge = ab_64 >= 0 ? (1 << 30) : (1 - (1 << 30));
 2736              		.loc 5 334 0
 2737 01c8 9E82C9E0 		smull	r8, r9, lr, r2
 2738              	.LVL201:
 2739              	.LBE2745:
 2740              	.LBE2750:
 2741              	.LBE2755:
 2742              	.LBE2760:
 2743              	.LBB2761:
 2744              	.LBB2738:
 2745              	.LBB2733:
 2746              	.LBB2732:
  71:C:/Renesas/e2studio_2021_01_workspace_RZA2M_ANPR/ANPR_RZA2M_EBK/src/tensorflow_lite/third_party/gemmlowp/fixedpoint\fixedpoint.h **** }
 2747              		.loc 5 71 0
 2748 01cc 06E00EE0 		and	lr, lr, r6
 2749              	.LVL202:
 2750              	.LBE2732:
 2751              	.LBE2733:
 2752              	.LBE2738:
 2753              	.LBE2761:
 2754              	.LBE2865:
 2755              	.LBB2866:
 2756              	.LBB2795:
 2757              	.LBB2796:
 158:C:/Renesas/e2studio_2021_01_workspace_RZA2M_ANPR/ANPR_RZA2M_EBK/src/tensorflow_lite/third_party/gemmlowp/fixedpoint\fixedpoint.h **** }
 2758              		.loc 5 158 0
 2759 01d0 533FE0E7 		ubfx	r3, r3, #30, #1
 2760              	.LVL203:
 2761              	.LBE2796:
 2762              	.LBE2795:
 2763              	.LBE2866:
 2764              	.LBB2867:
 2765              	.LBB2762:
 2766              	.LBB2756:
 2767              	.LBB2751:
 2768              	.LBB2746:
 335:C:/Renesas/e2studio_2021_01_workspace_RZA2M_ANPR/ANPR_RZA2M_EBK/src/tensorflow_lite/third_party/gemmlowp/fixedpoint\fixedpoint.h ****   std::int32_t ab_x2_high32 =
 2769              		.loc 5 335 0
 2770 01d4 000058E3 		cmp	r8, #0
 2771 01d8 0020D9E2 		sbcs	r2, r9, #0
 2772              	.LBE2746:
 2773              	.LBE2751:
 2774              	.LBE2756:
 2775              	.LBE2762:
 2776              	.LBE2867:
 2777              	.LBB2868:
 2778              	.LBB2843:
 2779              	.LBB2842:
 158:C:/Renesas/e2studio_2021_01_workspace_RZA2M_ANPR/ANPR_RZA2M_EBK/src/tensorflow_lite/third_party/gemmlowp/fixedpoint\fixedpoint.h **** }
 2780              		.loc 5 158 0
 2781 01dc 002060E2 		rsb	r2, r0, #0
 2782              	.LBE2842:
 2783              	.LBE2843:
 2784              	.LBE2868:
 2785              	.LBB2869:
 2786              	.LBB2763:
 2787              	.LBB2757:
 2788              	.LBB2752:
 2789              	.LBB2747:
 335:C:/Renesas/e2studio_2021_01_workspace_RZA2M_ANPR/ANPR_RZA2M_EBK/src/tensorflow_lite/third_party/gemmlowp/fixedpoint\fixedpoint.h ****   std::int32_t ab_x2_high32 =
 2790              		.loc 5 335 0
 2791 01e0 01A1A0A3 		movge	r10, #1073741824
 2792 01e4 07A1A0B3 		movlt	r10, #-1073741823
 2793 01e8 00B0A0A3 		movge	fp, #0
 2794 01ec 00B0E0B3 		mvnlt	fp, #0
 2795              	.LVL204:
 337:C:/Renesas/e2studio_2021_01_workspace_RZA2M_ANPR/ANPR_RZA2M_EBK/src/tensorflow_lite/third_party/gemmlowp/fixedpoint\fixedpoint.h ****   return overflow ? std::numeric_limits<std::int32_t>::max() : ab_x2_high32;
 2796              		.loc 5 337 0
 2797 01f0 0A8098E0 		adds	r8, r8, r10
 2798              	.LVL205:
 2799              	.LBE2747:
 2800              	.LBE2752:
 2801              	.LBE2757:
 2802              	.LBE2763:
 2803              	.LBE2869:
 2804              	.LBB2870:
 2805              	.LBB2844:
 2806              	.LBB2845:
 2807              	.LBB2846:
 2808              	.LBB2847:
  71:C:/Renesas/e2studio_2021_01_workspace_RZA2M_ANPR/ANPR_RZA2M_EBK/src/tensorflow_lite/third_party/gemmlowp/fixedpoint\fixedpoint.h **** }
 2809              		.loc 5 71 0
 2810 01f4 010040E2 		sub	r0, r0, #1
 2811              	.LBE2847:
 2812              	.LBE2846:
 2813              	.LBE2845:
 2814              	.LBE2844:
 2815              	.LBE2870:
 2816              	.LBB2871:
 2817              	.LBB2764:
 2818              	.LBB2758:
 2819              	.LBB2753:
 2820              	.LBB2748:
 337:C:/Renesas/e2studio_2021_01_workspace_RZA2M_ANPR/ANPR_RZA2M_EBK/src/tensorflow_lite/third_party/gemmlowp/fixedpoint\fixedpoint.h ****   return overflow ? std::numeric_limits<std::int32_t>::max() : ab_x2_high32;
 2821              		.loc 5 337 0
 2822 01f8 0B90A9E0 		adc	r9, r9, fp
 2823 01fc C96FA0E1 		asr	r6, r9, #31
 2824 0200 0261C6E3 		bic	r6, r6, #-2147483648
 2825 0204 068098E0 		adds	r8, r8, r6
 2826 0208 A88FA0E1 		lsr	r8, r8, #31
 2827 020c 0790A9E0 		adc	r9, r9, r7
 2828 0210 898088E1 		orr	r8, r8, r9, lsl #1
 2829              	.LBE2748:
 2830              	.LBE2753:
 2831              	.LBE2758:
 2832              	.LBE2764:
 2833              	.LBB2765:
 2834              	.LBB2739:
 2835              	.LBB2734:
 2836              	.LBB2735:
  71:C:/Renesas/e2studio_2021_01_workspace_RZA2M_ANPR/ANPR_RZA2M_EBK/src/tensorflow_lite/third_party/gemmlowp/fixedpoint\fixedpoint.h **** }
 2837              		.loc 5 71 0
 2838 0214 0C8008E0 		and	r8, r8, ip
 2839              	.LBE2735:
 2840              	.LBE2734:
 2841              	.LBB2736:
 2842              	.LBB2737:
  83:C:/Renesas/e2studio_2021_01_workspace_RZA2M_ANPR/ANPR_RZA2M_EBK/src/tensorflow_lite/third_party/gemmlowp/fixedpoint\fixedpoint.h **** }
 2843              		.loc 5 83 0
 2844 0218 08E02EE0 		eor	lr, lr, r8
 2845              	.LVL206:
 2846              	.LBE2737:
 2847              	.LBE2736:
 2848              	.LBE2739:
 2849              	.LBE2765:
 2850              	.LBE2871:
 2851              	.LBB2872:
 2852              	.LBB2856:
 2853              	.LBB2836:
 2854              	.LBB2832:
 2855              	.LBB2828:
 334:C:/Renesas/e2studio_2021_01_workspace_RZA2M_ANPR/ANPR_RZA2M_EBK/src/tensorflow_lite/third_party/gemmlowp/fixedpoint\fixedpoint.h ****   std::int32_t nudge = ab_64 >= 0 ? (1 << 30) : (1 - (1 << 30));
 2856              		.loc 5 334 0
 2857 021c 9EA1CBE0 		smull	r10, fp, lr, r1
 2858              	.LVL207:
 2859              	.LBE2828:
 2860              	.LBE2832:
 2861              	.LBE2836:
 2862              	.LBE2856:
 2863              	.LBB2857:
 2864              	.LBB2854:
 2865              	.LBB2849:
 2866              	.LBB2848:
  71:C:/Renesas/e2studio_2021_01_workspace_RZA2M_ANPR/ANPR_RZA2M_EBK/src/tensorflow_lite/third_party/gemmlowp/fixedpoint\fixedpoint.h **** }
 2867              		.loc 5 71 0
 2868 0220 0E0000E0 		and	r0, r0, lr
 2869              	.LBE2848:
 2870              	.LBE2849:
 2871              	.LBE2854:
 2872              	.LBE2857:
 2873              	.LBB2858:
 2874              	.LBB2837:
 2875              	.LBB2833:
 2876              	.LBB2829:
 335:C:/Renesas/e2studio_2021_01_workspace_RZA2M_ANPR/ANPR_RZA2M_EBK/src/tensorflow_lite/third_party/gemmlowp/fixedpoint\fixedpoint.h ****   std::int32_t ab_x2_high32 =
 2877              		.loc 5 335 0
 2878 0224 00005AE3 		cmp	r10, #0
 2879 0228 0010DBE2 		sbcs	r1, fp, #0
 2880              	.LBE2829:
 2881              	.LBE2833:
 2882              	.LBE2837:
 2883              	.LBE2858:
 2884              	.LBE2872:
 2885              	.LBB2873:
 2886              	.LBB2798:
 2887              	.LBB2797:
 158:C:/Renesas/e2studio_2021_01_workspace_RZA2M_ANPR/ANPR_RZA2M_EBK/src/tensorflow_lite/third_party/gemmlowp/fixedpoint\fixedpoint.h **** }
 2888              		.loc 5 158 0
 2889 022c 001063E2 		rsb	r1, r3, #0
 2890              	.LBE2797:
 2891              	.LBE2798:
 2892              	.LBE2873:
 2893              	.LBB2874:
 2894              	.LBB2859:
 2895              	.LBB2838:
 2896              	.LBB2834:
 2897              	.LBB2830:
 335:C:/Renesas/e2studio_2021_01_workspace_RZA2M_ANPR/ANPR_RZA2M_EBK/src/tensorflow_lite/third_party/gemmlowp/fixedpoint\fixedpoint.h ****   std::int32_t ab_x2_high32 =
 2898              		.loc 5 335 0
 2899 0230 0161A0A3 		movge	r6, #1073741824
 2900 0234 0761A0B3 		movlt	r6, #-1073741823
 2901 0238 0070A0A3 		movge	r7, #0
 2902 023c 0070E0B3 		mvnlt	r7, #0
 2903              	.LVL208:
 337:C:/Renesas/e2studio_2021_01_workspace_RZA2M_ANPR/ANPR_RZA2M_EBK/src/tensorflow_lite/third_party/gemmlowp/fixedpoint\fixedpoint.h ****   return overflow ? std::numeric_limits<std::int32_t>::max() : ab_x2_high32;
 2904              		.loc 5 337 0
 2905 0240 06A09AE0 		adds	r10, r10, r6
 2906              	.LVL209:
 2907              	.LBE2830:
 2908              	.LBE2834:
 2909              	.LBE2838:
 2910              	.LBE2859:
 2911              	.LBE2874:
 2912              	.LBB2875:
 2913              	.LBB2799:
 2914              	.LBB2800:
 2915              	.LBB2801:
 2916              	.LBB2802:
  71:C:/Renesas/e2studio_2021_01_workspace_RZA2M_ANPR/ANPR_RZA2M_EBK/src/tensorflow_lite/third_party/gemmlowp/fixedpoint\fixedpoint.h **** }
 2917              		.loc 5 71 0
 2918 0244 013043E2 		sub	r3, r3, #1
 2919              	.LBE2802:
 2920              	.LBE2801:
 2921              	.LBE2800:
 2922              	.LBE2799:
 2923              	.LBE2875:
 2924              	.LBB2876:
 2925              	.LBB2860:
 2926              	.LBB2839:
 2927              	.LBB2835:
 2928              	.LBB2831:
 337:C:/Renesas/e2studio_2021_01_workspace_RZA2M_ANPR/ANPR_RZA2M_EBK/src/tensorflow_lite/third_party/gemmlowp/fixedpoint\fixedpoint.h ****   return overflow ? std::numeric_limits<std::int32_t>::max() : ab_x2_high32;
 2929              		.loc 5 337 0
 2930 0248 07B0ABE0 		adc	fp, fp, r7
 2931 024c 0070A0E3 		mov	r7, #0
 2932 0250 CB6FA0E1 		asr	r6, fp, #31
 2933 0254 0261C6E3 		bic	r6, r6, #-2147483648
 2934 0258 06A09AE0 		adds	r10, r10, r6
 2935 025c AAAFA0E1 		lsr	r10, r10, #31
 2936 0260 07B0ABE0 		adc	fp, fp, r7
 2937 0264 8BA08AE1 		orr	r10, r10, fp, lsl #1
 2938 0268 CBBFA0E1 		asr	fp, fp, #31
 2939              	.LBE2831:
 2940              	.LBE2835:
 2941              	.LBE2839:
 2942              	.LBE2860:
 2943              	.LBB2861:
 2944              	.LBB2855:
 2945              	.LBB2850:
 2946              	.LBB2851:
  71:C:/Renesas/e2studio_2021_01_workspace_RZA2M_ANPR/ANPR_RZA2M_EBK/src/tensorflow_lite/third_party/gemmlowp/fixedpoint\fixedpoint.h **** }
 2947              		.loc 5 71 0
 2948 026c 02A00AE0 		and	r10, r10, r2
 2949              	.LBE2851:
 2950              	.LBE2850:
 2951              	.LBB2852:
 2952              	.LBB2853:
  83:C:/Renesas/e2studio_2021_01_workspace_RZA2M_ANPR/ANPR_RZA2M_EBK/src/tensorflow_lite/third_party/gemmlowp/fixedpoint\fixedpoint.h **** }
 2953              		.loc 5 83 0
 2954 0270 0A0020E0 		eor	r0, r0, r10
 2955              	.LVL210:
 2956              	.LBE2853:
 2957              	.LBE2852:
 2958              	.LBE2855:
 2959              	.LBE2861:
 2960              	.LBE2876:
 2961              	.LBB2877:
 2962              	.LBB2811:
 2963              	.LBB2790:
 2964              	.LBB2785:
 2965              	.LBB2780:
 334:C:/Renesas/e2studio_2021_01_workspace_RZA2M_ANPR/ANPR_RZA2M_EBK/src/tensorflow_lite/third_party/gemmlowp/fixedpoint\fixedpoint.h ****   std::int32_t nudge = ab_64 >= 0 ? (1 << 30) : (1 - (1 << 30));
 2966              		.loc 5 334 0
 2967 0274 9065C7E0 		smull	r6, r7, r0, r5
 2968              	.LVL211:
 2969              	.LBE2780:
 2970              	.LBE2785:
 2971              	.LBE2790:
 2972              	.LBE2811:
 2973              	.LBB2812:
 2974              	.LBB2809:
 2975              	.LBB2804:
 2976              	.LBB2803:
  71:C:/Renesas/e2studio_2021_01_workspace_RZA2M_ANPR/ANPR_RZA2M_EBK/src/tensorflow_lite/third_party/gemmlowp/fixedpoint\fixedpoint.h **** }
 2977              		.loc 5 71 0
 2978 0278 003003E0 		and	r3, r3, r0
 2979              	.LBE2803:
 2980              	.LBE2804:
 2981              	.LBE2809:
 2982              	.LBE2812:
 2983              	.LBB2813:
 2984              	.LBB2791:
 2985              	.LBB2786:
 2986              	.LBB2781:
 335:C:/Renesas/e2studio_2021_01_workspace_RZA2M_ANPR/ANPR_RZA2M_EBK/src/tensorflow_lite/third_party/gemmlowp/fixedpoint\fixedpoint.h ****   std::int32_t ab_x2_high32 =
 2987              		.loc 5 335 0
 2988 027c 000056E3 		cmp	r6, #0
 2989 0280 0020D7E2 		sbcs	r2, r7, #0
 2990              	.LBE2781:
 2991              	.LBE2786:
 2992              	.LBE2791:
 2993              	.LBE2813:
 2994              	.LBE2877:
 2995              	.LBB2878:
 2996              	.LBB2879:
 2997              	.LBB2880:
 2998              	.LBB2881:
  71:C:/Renesas/e2studio_2021_01_workspace_RZA2M_ANPR/ANPR_RZA2M_EBK/src/tensorflow_lite/third_party/gemmlowp/fixedpoint\fixedpoint.h **** }
 2999              		.loc 5 71 0
 3000 0284 012044E2 		sub	r2, r4, #1
 3001              	.LBE2881:
 3002              	.LBE2880:
 3003              	.LBE2879:
 3004              	.LBE2878:
 3005              	.LBB2888:
 3006              	.LBB2814:
 3007              	.LBB2792:
 3008              	.LBB2787:
 3009              	.LBB2782:
 335:C:/Renesas/e2studio_2021_01_workspace_RZA2M_ANPR/ANPR_RZA2M_EBK/src/tensorflow_lite/third_party/gemmlowp/fixedpoint\fixedpoint.h ****   std::int32_t ab_x2_high32 =
 3010              		.loc 5 335 0
 3011 0288 0181A0A3 		movge	r8, #1073741824
 3012 028c 0781A0B3 		movlt	r8, #-1073741823
 3013 0290 0090A0A3 		movge	r9, #0
 3014 0294 0090E0B3 		mvnlt	r9, #0
 3015              	.LVL212:
 337:C:/Renesas/e2studio_2021_01_workspace_RZA2M_ANPR/ANPR_RZA2M_EBK/src/tensorflow_lite/third_party/gemmlowp/fixedpoint\fixedpoint.h ****   return overflow ? std::numeric_limits<std::int32_t>::max() : ab_x2_high32;
 3016              		.loc 5 337 0
 3017 0298 086096E0 		adds	r6, r6, r8
 3018              	.LVL213:
 3019              	.LBE2782:
 3020              	.LBE2787:
 3021              	.LBE2792:
 3022              	.LBE2814:
 3023              	.LBE2888:
 3024              	.LBB2889:
 3025              	.LBB2659:
 3026              	.LBB2657:
 3027              	.LBB2655:
 158:C:/Renesas/e2studio_2021_01_workspace_RZA2M_ANPR/ANPR_RZA2M_EBK/src/tensorflow_lite/third_party/gemmlowp/fixedpoint\fixedpoint.h **** }
 3028              		.loc 5 158 0
 3029 029c 004064E2 		rsb	r4, r4, #0
 3030              	.LBE2655:
 3031              	.LBE2657:
 3032              	.LBE2659:
 3033              	.LBE2889:
 3034              	.LBB2890:
 3035              	.LBB2815:
 3036              	.LBB2793:
 3037              	.LBB2788:
 3038              	.LBB2783:
 337:C:/Renesas/e2studio_2021_01_workspace_RZA2M_ANPR/ANPR_RZA2M_EBK/src/tensorflow_lite/third_party/gemmlowp/fixedpoint\fixedpoint.h ****   return overflow ? std::numeric_limits<std::int32_t>::max() : ab_x2_high32;
 3039              		.loc 5 337 0
 3040 02a0 0970A7E0 		adc	r7, r7, r9
 3041 02a4 0090A0E3 		mov	r9, #0
 3042 02a8 C78FA0E1 		asr	r8, r7, #31
 3043              	.LVL214:
 3044              	.LBE2783:
 3045              	.LBE2788:
 3046              	.LBE2793:
 3047              	.LBE2815:
 3048              	.LBE2890:
 3049              	.LBB2891:
 3050              	.LBB2886:
 3051              	.LBB2883:
 3052              	.LBB2884:
  71:C:/Renesas/e2studio_2021_01_workspace_RZA2M_ANPR/ANPR_RZA2M_EBK/src/tensorflow_lite/third_party/gemmlowp/fixedpoint\fixedpoint.h **** }
 3053              		.loc 5 71 0
 3054 02ac 0241C4E3 		bic	r4, r4, #-2147483648
 3055              	.LBE2884:
 3056              	.LBE2883:
 3057              	.LBE2886:
 3058              	.LBE2891:
 3059              	.LBB2892:
 3060              	.LBB2816:
 3061              	.LBB2794:
 3062              	.LBB2789:
 3063              	.LBB2784:
 337:C:/Renesas/e2studio_2021_01_workspace_RZA2M_ANPR/ANPR_RZA2M_EBK/src/tensorflow_lite/third_party/gemmlowp/fixedpoint\fixedpoint.h ****   return overflow ? std::numeric_limits<std::int32_t>::max() : ab_x2_high32;
 3064              		.loc 5 337 0
 3065 02b0 0281C8E3 		bic	r8, r8, #-2147483648
 3066 02b4 086096E0 		adds	r6, r6, r8
 3067 02b8 A66FA0E1 		lsr	r6, r6, #31
 3068 02bc 0970A7E0 		adc	r7, r7, r9
 3069 02c0 876086E1 		orr	r6, r6, r7, lsl #1
 3070 02c4 C77FA0E1 		asr	r7, r7, #31
 3071              	.LBE2784:
 3072              	.LBE2789:
 3073              	.LBE2794:
 3074              	.LBE2816:
 3075              	.LBB2817:
 3076              	.LBB2810:
 3077              	.LBB2805:
 3078              	.LBB2806:
  71:C:/Renesas/e2studio_2021_01_workspace_RZA2M_ANPR/ANPR_RZA2M_EBK/src/tensorflow_lite/third_party/gemmlowp/fixedpoint\fixedpoint.h **** }
 3079              		.loc 5 71 0
 3080 02c8 060001E0 		and	r0, r1, r6
 3081              	.LVL215:
 3082              	.LBE2806:
 3083              	.LBE2805:
 3084              	.LBB2807:
 3085              	.LBB2808:
  83:C:/Renesas/e2studio_2021_01_workspace_RZA2M_ANPR/ANPR_RZA2M_EBK/src/tensorflow_lite/third_party/gemmlowp/fixedpoint\fixedpoint.h **** }
 3086              		.loc 5 83 0
 3087 02cc 030020E0 		eor	r0, r0, r3
 3088              	.LBE2808:
 3089              	.LBE2807:
 3090              	.LBE2810:
 3091              	.LBE2817:
 3092              	.LBE2892:
 3093              	.LBB2893:
 3094              	.LBB2887:
 3095              	.LBB2885:
 3096              	.LBB2882:
  71:C:/Renesas/e2studio_2021_01_workspace_RZA2M_ANPR/ANPR_RZA2M_EBK/src/tensorflow_lite/third_party/gemmlowp/fixedpoint\fixedpoint.h **** }
 3097              		.loc 5 71 0
 3098 02d0 020000E0 		and	r0, r0, r2
 3099              	.LBE2882:
 3100              	.LBE2885:
 3101              	.LBE2887:
 3102              	.LBE2893:
 789:C:/Renesas/e2studio_2021_01_workspace_RZA2M_ANPR/ANPR_RZA2M_EBK/src/tensorflow_lite/third_party/gemmlowp/fixedpoint\fixedpoint.h **** 
 3103              		.loc 5 789 0
 3104 02d4 040020E0 		eor	r0, r0, r4
 3105 02d8 F88FBDE8 		pop	{r3, r4, r5, r6, r7, r8, r9, r10, fp, pc}
 3106              		.cfi_endproc
 3107              	.LFE4361:
 3108              		.cantunwind
 3109              		.fnend
 3111              		.section	.text._ZN6tflite12_GLOBAL__N_114LogSoftmaxEvalEP13TfLiteContextP10TfLiteNode,"ax",%progbi
 3112              		.align	2
 3113              		.syntax unified
 3114              		.arm
 3115              		.fpu neon
 3117              	_ZN6tflite12_GLOBAL__N_114LogSoftmaxEvalEP13TfLiteContextP10TfLiteNode:
 3118              		.fnstart
 3119              	.LFB4173:
  99:../src/tensorflow_lite/tensorflow/lite/micro/kernels/log_softmax.cc ****   const LogSoftmaxOpData* data =
 3120              		.loc 1 99 0
 3121              		.cfi_startproc
 3122              		.cfi_personality 0,__gxx_personality_v0
 3123              		.cfi_lsda 0,.LLSDA4173
 3124              		@ args = 0, pretend = 0, frame = 184
 3125              		@ frame_needed = 0, uses_anonymous_args = 0
 3126              	.LVL216:
 3127 0000 F04F2DE9 		push	{r4, r5, r6, r7, r8, r9, r10, fp, lr}
 3128              		.save {r4, r5, r6, r7, r8, r9, r10, fp, lr}
 3129              		.cfi_def_cfa_offset 36
 3130              		.cfi_offset 4, -36
 3131              		.cfi_offset 5, -32
 3132              		.cfi_offset 6, -28
 3133              		.cfi_offset 7, -24
 3134              		.cfi_offset 8, -20
 3135              		.cfi_offset 9, -16
 3136              		.cfi_offset 10, -12
 3137              		.cfi_offset 11, -8
 3138              		.cfi_offset 14, -4
 3139              	.LBB3640:
 3140              	.LBB3641:
 3141              	.LBB3642:
 3142              		.file 6 "C:/Renesas/e2studio_2021_01_workspace_RZA2M_ANPR/ANPR_RZA2M_EBK/src/tensorflow_lite/tenso
   1:C:/Renesas/e2studio_2021_01_workspace_RZA2M_ANPR/ANPR_RZA2M_EBK/src/tensorflow_lite/tensorflow/lite/micro/kernels\kernel_util.h **** /* Copyright 2020 The TensorFlow Authors. All Rights Reserved.
   2:C:/Renesas/e2studio_2021_01_workspace_RZA2M_ANPR/ANPR_RZA2M_EBK/src/tensorflow_lite/tensorflow/lite/micro/kernels\kernel_util.h **** 
   3:C:/Renesas/e2studio_2021_01_workspace_RZA2M_ANPR/ANPR_RZA2M_EBK/src/tensorflow_lite/tensorflow/lite/micro/kernels\kernel_util.h **** Licensed under the Apache License, Version 2.0 (the "License");
   4:C:/Renesas/e2studio_2021_01_workspace_RZA2M_ANPR/ANPR_RZA2M_EBK/src/tensorflow_lite/tensorflow/lite/micro/kernels\kernel_util.h **** you may not use this file except in compliance with the License.
   5:C:/Renesas/e2studio_2021_01_workspace_RZA2M_ANPR/ANPR_RZA2M_EBK/src/tensorflow_lite/tensorflow/lite/micro/kernels\kernel_util.h **** You may obtain a copy of the License at
   6:C:/Renesas/e2studio_2021_01_workspace_RZA2M_ANPR/ANPR_RZA2M_EBK/src/tensorflow_lite/tensorflow/lite/micro/kernels\kernel_util.h **** 
   7:C:/Renesas/e2studio_2021_01_workspace_RZA2M_ANPR/ANPR_RZA2M_EBK/src/tensorflow_lite/tensorflow/lite/micro/kernels\kernel_util.h ****     http://www.apache.org/licenses/LICENSE-2.0
   8:C:/Renesas/e2studio_2021_01_workspace_RZA2M_ANPR/ANPR_RZA2M_EBK/src/tensorflow_lite/tensorflow/lite/micro/kernels\kernel_util.h **** 
   9:C:/Renesas/e2studio_2021_01_workspace_RZA2M_ANPR/ANPR_RZA2M_EBK/src/tensorflow_lite/tensorflow/lite/micro/kernels\kernel_util.h **** Unless required by applicable law or agreed to in writing, software
  10:C:/Renesas/e2studio_2021_01_workspace_RZA2M_ANPR/ANPR_RZA2M_EBK/src/tensorflow_lite/tensorflow/lite/micro/kernels\kernel_util.h **** distributed under the License is distributed on an "AS IS" BASIS,
  11:C:/Renesas/e2studio_2021_01_workspace_RZA2M_ANPR/ANPR_RZA2M_EBK/src/tensorflow_lite/tensorflow/lite/micro/kernels\kernel_util.h **** WITHOUT WARRANTIES OR CONDITIONS OF ANY KIND, either express or implied.
  12:C:/Renesas/e2studio_2021_01_workspace_RZA2M_ANPR/ANPR_RZA2M_EBK/src/tensorflow_lite/tensorflow/lite/micro/kernels\kernel_util.h **** See the License for the specific language governing permissions and
  13:C:/Renesas/e2studio_2021_01_workspace_RZA2M_ANPR/ANPR_RZA2M_EBK/src/tensorflow_lite/tensorflow/lite/micro/kernels\kernel_util.h **** limitations under the License.
  14:C:/Renesas/e2studio_2021_01_workspace_RZA2M_ANPR/ANPR_RZA2M_EBK/src/tensorflow_lite/tensorflow/lite/micro/kernels\kernel_util.h **** ==============================================================================*/
  15:C:/Renesas/e2studio_2021_01_workspace_RZA2M_ANPR/ANPR_RZA2M_EBK/src/tensorflow_lite/tensorflow/lite/micro/kernels\kernel_util.h **** 
  16:C:/Renesas/e2studio_2021_01_workspace_RZA2M_ANPR/ANPR_RZA2M_EBK/src/tensorflow_lite/tensorflow/lite/micro/kernels\kernel_util.h **** #ifndef TENSORFLOW_LITE_MICRO_KERNELS_KERNEL_UTIL_H_
  17:C:/Renesas/e2studio_2021_01_workspace_RZA2M_ANPR/ANPR_RZA2M_EBK/src/tensorflow_lite/tensorflow/lite/micro/kernels\kernel_util.h **** #define TENSORFLOW_LITE_MICRO_KERNELS_KERNEL_UTIL_H_
  18:C:/Renesas/e2studio_2021_01_workspace_RZA2M_ANPR/ANPR_RZA2M_EBK/src/tensorflow_lite/tensorflow/lite/micro/kernels\kernel_util.h **** 
  19:C:/Renesas/e2studio_2021_01_workspace_RZA2M_ANPR/ANPR_RZA2M_EBK/src/tensorflow_lite/tensorflow/lite/micro/kernels\kernel_util.h **** #include <cstdint>
  20:C:/Renesas/e2studio_2021_01_workspace_RZA2M_ANPR/ANPR_RZA2M_EBK/src/tensorflow_lite/tensorflow/lite/micro/kernels\kernel_util.h **** 
  21:C:/Renesas/e2studio_2021_01_workspace_RZA2M_ANPR/ANPR_RZA2M_EBK/src/tensorflow_lite/tensorflow/lite/micro/kernels\kernel_util.h **** #include "tensorflow/lite/c/builtin_op_data.h"
  22:C:/Renesas/e2studio_2021_01_workspace_RZA2M_ANPR/ANPR_RZA2M_EBK/src/tensorflow_lite/tensorflow/lite/micro/kernels\kernel_util.h **** #include "tensorflow/lite/c/common.h"
  23:C:/Renesas/e2studio_2021_01_workspace_RZA2M_ANPR/ANPR_RZA2M_EBK/src/tensorflow_lite/tensorflow/lite/micro/kernels\kernel_util.h **** #include "tensorflow/lite/kernels/internal/compatibility.h"
  24:C:/Renesas/e2studio_2021_01_workspace_RZA2M_ANPR/ANPR_RZA2M_EBK/src/tensorflow_lite/tensorflow/lite/micro/kernels\kernel_util.h **** #include "tensorflow/lite/kernels/internal/types.h"
  25:C:/Renesas/e2studio_2021_01_workspace_RZA2M_ANPR/ANPR_RZA2M_EBK/src/tensorflow_lite/tensorflow/lite/micro/kernels\kernel_util.h **** 
  26:C:/Renesas/e2studio_2021_01_workspace_RZA2M_ANPR/ANPR_RZA2M_EBK/src/tensorflow_lite/tensorflow/lite/micro/kernels\kernel_util.h **** namespace tflite {
  27:C:/Renesas/e2studio_2021_01_workspace_RZA2M_ANPR/ANPR_RZA2M_EBK/src/tensorflow_lite/tensorflow/lite/micro/kernels\kernel_util.h **** namespace micro {
  28:C:/Renesas/e2studio_2021_01_workspace_RZA2M_ANPR/ANPR_RZA2M_EBK/src/tensorflow_lite/tensorflow/lite/micro/kernels\kernel_util.h **** 
  29:C:/Renesas/e2studio_2021_01_workspace_RZA2M_ANPR/ANPR_RZA2M_EBK/src/tensorflow_lite/tensorflow/lite/micro/kernels\kernel_util.h **** // Returns a mutable tensor for a given input index. is_variable must be checked
  30:C:/Renesas/e2studio_2021_01_workspace_RZA2M_ANPR/ANPR_RZA2M_EBK/src/tensorflow_lite/tensorflow/lite/micro/kernels\kernel_util.h **** // during prepare when the full TfLiteTensor is available.
  31:C:/Renesas/e2studio_2021_01_workspace_RZA2M_ANPR/ANPR_RZA2M_EBK/src/tensorflow_lite/tensorflow/lite/micro/kernels\kernel_util.h **** inline TfLiteEvalTensor* GetMutableEvalInput(const TfLiteContext* context,
  32:C:/Renesas/e2studio_2021_01_workspace_RZA2M_ANPR/ANPR_RZA2M_EBK/src/tensorflow_lite/tensorflow/lite/micro/kernels\kernel_util.h ****                                              const TfLiteNode* node,
  33:C:/Renesas/e2studio_2021_01_workspace_RZA2M_ANPR/ANPR_RZA2M_EBK/src/tensorflow_lite/tensorflow/lite/micro/kernels\kernel_util.h ****                                              int index) {
  34:C:/Renesas/e2studio_2021_01_workspace_RZA2M_ANPR/ANPR_RZA2M_EBK/src/tensorflow_lite/tensorflow/lite/micro/kernels\kernel_util.h ****   TFLITE_DCHECK(context != nullptr);
 3143              		.loc 6 34 0
 3144 0004 005050E2 		subs	r5, r0, #0
 3145              	.LBE3642:
 3146              	.LBE3641:
 3147              	.LBE3640:
  99:../src/tensorflow_lite/tensorflow/lite/micro/kernels/log_softmax.cc ****   const LogSoftmaxOpData* data =
 3148              		.loc 1 99 0
 3149 0008 048B2DED 		vpush.64	{d8, d9}
 3150              		.vsave {d8, d9}
 3151              		.cfi_def_cfa_offset 52
 3152              		.cfi_offset 80, -52
 3153              		.cfi_offset 81, -48
 3154              		.cfi_offset 82, -44
 3155              		.cfi_offset 83, -40
 3156              		.pad #188
 3157 000c BCD04DE2 		sub	sp, sp, #188
 3158              		.cfi_def_cfa_offset 240
 101:../src/tensorflow_lite/tensorflow/lite/micro/kernels/log_softmax.cc ****   const TfLiteEvalTensor* input =
 3159              		.loc 1 101 0
 3160 0010 107091E5 		ldr	r7, [r1, #16]
 3161              	.LVL217:
 3162              	.LBB3649:
 3163              	.LBB3646:
 3164              	.LBB3643:
 3165              		.loc 6 34 0
 3166 0014 6D05000A 		beq	.L389
  35:C:/Renesas/e2studio_2021_01_workspace_RZA2M_ANPR/ANPR_RZA2M_EBK/src/tensorflow_lite/tensorflow/lite/micro/kernels\kernel_util.h ****   TFLITE_DCHECK(node != nullptr);
  36:C:/Renesas/e2studio_2021_01_workspace_RZA2M_ANPR/ANPR_RZA2M_EBK/src/tensorflow_lite/tensorflow/lite/micro/kernels\kernel_util.h ****   return context->GetEvalTensor(context, node->inputs->data[index]);
 3167              		.loc 6 36 0
 3168 0018 002091E5 		ldr	r2, [r1]
 3169 001c 0140A0E1 		mov	r4, r1
 3170 0020 543095E5 		ldr	r3, [r5, #84]
 3171 0024 004BCDED 		vstr.64	d20, [sp]	@ int
 3172 0028 041092E5 		ldr	r1, [r2, #4]
 3173              	.LVL218:
 3174              	.LEHB3:
 3175 002c 33FF2FE1 		blx	r3
 3176              	.LVL219:
 3177              	.LBE3643:
 3178              	.LBE3646:
 3179              	.LBE3649:
 3180              	.LBB3650:
 3181              	.LBB3651:
  37:C:/Renesas/e2studio_2021_01_workspace_RZA2M_ANPR/ANPR_RZA2M_EBK/src/tensorflow_lite/tensorflow/lite/micro/kernels\kernel_util.h **** }
  38:C:/Renesas/e2studio_2021_01_workspace_RZA2M_ANPR/ANPR_RZA2M_EBK/src/tensorflow_lite/tensorflow/lite/micro/kernels\kernel_util.h **** 
  39:C:/Renesas/e2studio_2021_01_workspace_RZA2M_ANPR/ANPR_RZA2M_EBK/src/tensorflow_lite/tensorflow/lite/micro/kernels\kernel_util.h **** // Returns the TfLiteEvalTensor struct for a given input index in a node.
  40:C:/Renesas/e2studio_2021_01_workspace_RZA2M_ANPR/ANPR_RZA2M_EBK/src/tensorflow_lite/tensorflow/lite/micro/kernels\kernel_util.h **** inline const TfLiteEvalTensor* GetEvalInput(const TfLiteContext* context,
  41:C:/Renesas/e2studio_2021_01_workspace_RZA2M_ANPR/ANPR_RZA2M_EBK/src/tensorflow_lite/tensorflow/lite/micro/kernels\kernel_util.h ****                                             const TfLiteNode* node, int index) {
  42:C:/Renesas/e2studio_2021_01_workspace_RZA2M_ANPR/ANPR_RZA2M_EBK/src/tensorflow_lite/tensorflow/lite/micro/kernels\kernel_util.h ****   return GetMutableEvalInput(context, node, index);
  43:C:/Renesas/e2studio_2021_01_workspace_RZA2M_ANPR/ANPR_RZA2M_EBK/src/tensorflow_lite/tensorflow/lite/micro/kernels\kernel_util.h **** }
  44:C:/Renesas/e2studio_2021_01_workspace_RZA2M_ANPR/ANPR_RZA2M_EBK/src/tensorflow_lite/tensorflow/lite/micro/kernels\kernel_util.h **** 
  45:C:/Renesas/e2studio_2021_01_workspace_RZA2M_ANPR/ANPR_RZA2M_EBK/src/tensorflow_lite/tensorflow/lite/micro/kernels\kernel_util.h **** // Returns the TfLiteEvalTensor struct for a given output index in a node.
  46:C:/Renesas/e2studio_2021_01_workspace_RZA2M_ANPR/ANPR_RZA2M_EBK/src/tensorflow_lite/tensorflow/lite/micro/kernels\kernel_util.h **** inline TfLiteEvalTensor* GetEvalOutput(const TfLiteContext* context,
  47:C:/Renesas/e2studio_2021_01_workspace_RZA2M_ANPR/ANPR_RZA2M_EBK/src/tensorflow_lite/tensorflow/lite/micro/kernels\kernel_util.h ****                                        const TfLiteNode* node, int index) {
  48:C:/Renesas/e2studio_2021_01_workspace_RZA2M_ANPR/ANPR_RZA2M_EBK/src/tensorflow_lite/tensorflow/lite/micro/kernels\kernel_util.h ****   TFLITE_DCHECK(context != nullptr);
  49:C:/Renesas/e2studio_2021_01_workspace_RZA2M_ANPR/ANPR_RZA2M_EBK/src/tensorflow_lite/tensorflow/lite/micro/kernels\kernel_util.h ****   TFLITE_DCHECK(node != nullptr);
  50:C:/Renesas/e2studio_2021_01_workspace_RZA2M_ANPR/ANPR_RZA2M_EBK/src/tensorflow_lite/tensorflow/lite/micro/kernels\kernel_util.h ****   return context->GetEvalTensor(context, node->outputs->data[index]);
 3182              		.loc 6 50 0
 3183 0030 042094E5 		ldr	r2, [r4, #4]
 3184              	.LBE3651:
 3185              	.LBE3650:
 3186              	.LBB3653:
 3187              	.LBB3647:
 3188              	.LBB3644:
  36:C:/Renesas/e2studio_2021_01_workspace_RZA2M_ANPR/ANPR_RZA2M_EBK/src/tensorflow_lite/tensorflow/lite/micro/kernels\kernel_util.h **** }
 3189              		.loc 6 36 0
 3190 0034 0060A0E1 		mov	r6, r0
 3191              	.LVL220:
 3192              	.LBE3644:
 3193              	.LBE3647:
 3194              	.LBE3653:
 3195              	.LBB3654:
 3196              	.LBB3652:
 3197              		.loc 6 50 0
 3198 0038 543095E5 		ldr	r3, [r5, #84]
 3199 003c 0500A0E1 		mov	r0, r5
 3200 0040 041092E5 		ldr	r1, [r2, #4]
 3201 0044 33FF2FE1 		blx	r3
 3202              	.LVL221:
 3203 0048 0040A0E1 		mov	r4, r0
 3204              	.LVL222:
 3205              	.LBE3652:
 3206              	.LBE3654:
 3207              	.LBB3655:
 106:../src/tensorflow_lite/tensorflow/lite/micro/kernels/log_softmax.cc ****     case kTfLiteFloat32: {
 3208              		.loc 1 106 0
 3209 004c 0800D6E5 		ldrb	r0, [r6, #8]	@ zero_extendqisi2
 3210 0050 010050E3 		cmp	r0, #1
 3211 0054 9E03000A 		beq	.L120
 3212 0058 090050E3 		cmp	r0, #9
 3213 005c 004BDDED 		vldr.64	d20, [sp]	@ int
 3214 0060 0C03001A 		bne	.L390
 3215              	.LBB3656:
 3216              	.LBB3657:
 117:../src/tensorflow_lite/tensorflow/lite/micro/kernels/log_softmax.cc ****       op_params.input_left_shift = data->input_left_shift;
 3217              		.loc 1 117 0
 3218 0064 003097E5 		ldr	r3, [r7]
 123:../src/tensorflow_lite/tensorflow/lite/micro/kernels/log_softmax.cc ****                                 tflite::micro::GetTensorData<int8_t>(input),
 3219              		.loc 1 123 0
 3220 0068 0610A0E1 		mov	r1, r6
 3221 006c 88008DE2 		add	r0, sp, #136
 3222 0070 004BCDED 		vstr.64	d20, [sp]	@ int
 117:../src/tensorflow_lite/tensorflow/lite/micro/kernels/log_softmax.cc ****       op_params.input_left_shift = data->input_left_shift;
 3223              		.loc 1 117 0
 3224 0074 48308DE5 		str	r3, [sp, #72]
 118:../src/tensorflow_lite/tensorflow/lite/micro/kernels/log_softmax.cc ****       op_params.reverse_scaling_divisor = data->reverse_scaling_divisor;
 3225              		.loc 1 118 0
 3226 0078 043097E5 		ldr	r3, [r7, #4]
 3227 007c 3C308DE5 		str	r3, [sp, #60]
 119:../src/tensorflow_lite/tensorflow/lite/micro/kernels/log_softmax.cc ****       op_params.reverse_scaling_right_shift = data->reverse_scaling_right_shift;
 3228              		.loc 1 119 0
 3229 0080 083097E5 		ldr	r3, [r7, #8]
 3230 0084 5C308DE5 		str	r3, [sp, #92]
 120:../src/tensorflow_lite/tensorflow/lite/micro/kernels/log_softmax.cc ****       op_params.diff_min = data->diff_min;
 3231              		.loc 1 120 0
 3232 0088 0C3097E5 		ldr	r3, [r7, #12]
 3233 008c 54308DE5 		str	r3, [sp, #84]
 121:../src/tensorflow_lite/tensorflow/lite/micro/kernels/log_softmax.cc ****       reference_ops::LogSoftmax(op_params, data->outer_size, data->depth,
 3234              		.loc 1 121 0
 3235 0090 103097E5 		ldr	r3, [r7, #16]
 3236 0094 38308DE5 		str	r3, [sp, #56]
 122:../src/tensorflow_lite/tensorflow/lite/micro/kernels/log_softmax.cc ****                                 tflite::micro::GetTensorShape(input),
 3237              		.loc 1 122 0
 3238 0098 143097E5 		ldr	r3, [r7, #20]
 3239 009c 58308DE5 		str	r3, [sp, #88]
 3240 00a0 183097E5 		ldr	r3, [r7, #24]
 3241 00a4 14308DE5 		str	r3, [sp, #20]
 123:../src/tensorflow_lite/tensorflow/lite/micro/kernels/log_softmax.cc ****                                 tflite::micro::GetTensorData<int8_t>(input),
 3242              		.loc 1 123 0
 3243 00a8 FEFFFFEB 		bl	_ZN6tflite5micro14GetTensorShapeEPK16TfLiteEvalTensor
 3244              	.LVL223:
 3245              	.LEHE3:
 3246              	.LBB3658:
 3247              	.LBB3659:
  51:C:/Renesas/e2studio_2021_01_workspace_RZA2M_ANPR/ANPR_RZA2M_EBK/src/tensorflow_lite/tensorflow/lite/micro/kernels\kernel_util.h **** }
  52:C:/Renesas/e2studio_2021_01_workspace_RZA2M_ANPR/ANPR_RZA2M_EBK/src/tensorflow_lite/tensorflow/lite/micro/kernels\kernel_util.h **** 
  53:C:/Renesas/e2studio_2021_01_workspace_RZA2M_ANPR/ANPR_RZA2M_EBK/src/tensorflow_lite/tensorflow/lite/micro/kernels\kernel_util.h **** // Returns data for a TfLiteEvalTensor struct.
  54:C:/Renesas/e2studio_2021_01_workspace_RZA2M_ANPR/ANPR_RZA2M_EBK/src/tensorflow_lite/tensorflow/lite/micro/kernels\kernel_util.h **** template <typename T>
  55:C:/Renesas/e2studio_2021_01_workspace_RZA2M_ANPR/ANPR_RZA2M_EBK/src/tensorflow_lite/tensorflow/lite/micro/kernels\kernel_util.h **** T* GetTensorData(TfLiteEvalTensor* tensor) {
  56:C:/Renesas/e2studio_2021_01_workspace_RZA2M_ANPR/ANPR_RZA2M_EBK/src/tensorflow_lite/tensorflow/lite/micro/kernels\kernel_util.h ****   return tensor != nullptr ? reinterpret_cast<T*>(tensor->data.raw) : nullptr;
  57:C:/Renesas/e2studio_2021_01_workspace_RZA2M_ANPR/ANPR_RZA2M_EBK/src/tensorflow_lite/tensorflow/lite/micro/kernels\kernel_util.h **** }
  58:C:/Renesas/e2studio_2021_01_workspace_RZA2M_ANPR/ANPR_RZA2M_EBK/src/tensorflow_lite/tensorflow/lite/micro/kernels\kernel_util.h **** 
  59:C:/Renesas/e2studio_2021_01_workspace_RZA2M_ANPR/ANPR_RZA2M_EBK/src/tensorflow_lite/tensorflow/lite/micro/kernels\kernel_util.h **** // Returns const data for a TfLiteEvalTensor struct.
  60:C:/Renesas/e2studio_2021_01_workspace_RZA2M_ANPR/ANPR_RZA2M_EBK/src/tensorflow_lite/tensorflow/lite/micro/kernels\kernel_util.h **** template <typename T>
  61:C:/Renesas/e2studio_2021_01_workspace_RZA2M_ANPR/ANPR_RZA2M_EBK/src/tensorflow_lite/tensorflow/lite/micro/kernels\kernel_util.h **** const T* GetTensorData(const TfLiteEvalTensor* tensor) {
  62:C:/Renesas/e2studio_2021_01_workspace_RZA2M_ANPR/ANPR_RZA2M_EBK/src/tensorflow_lite/tensorflow/lite/micro/kernels\kernel_util.h ****   TFLITE_DCHECK(tensor != nullptr);
  63:C:/Renesas/e2studio_2021_01_workspace_RZA2M_ANPR/ANPR_RZA2M_EBK/src/tensorflow_lite/tensorflow/lite/micro/kernels\kernel_util.h ****   return reinterpret_cast<const T*>(tensor->data.raw);
 3248              		.loc 6 63 0
 3249 00ac 003096E5 		ldr	r3, [r6]
 3250              	.LBE3659:
 3251              	.LBE3658:
 125:../src/tensorflow_lite/tensorflow/lite/micro/kernels/log_softmax.cc ****                                 tflite::micro::GetTensorData<int8_t>(output));
 3252              		.loc 1 125 0
 3253 00b0 0410A0E1 		mov	r1, r4
 3254 00b4 A0008DE2 		add	r0, sp, #160
 3255              	.LBB3661:
 3256              	.LBB3660:
 3257              		.loc 6 63 0
 3258 00b8 50308DE5 		str	r3, [sp, #80]
 3259              	.LEHB4:
 3260              	.LBE3660:
 3261              	.LBE3661:
 125:../src/tensorflow_lite/tensorflow/lite/micro/kernels/log_softmax.cc ****                                 tflite::micro::GetTensorData<int8_t>(output));
 3262              		.loc 1 125 0
 3263 00bc FEFFFFEB 		bl	_ZN6tflite5micro14GetTensorShapeEPK16TfLiteEvalTensor
 3264              	.LVL224:
 3265              	.LEHE4:
 3266              	.LBB3662:
 3267              	.LBB3663:
  56:C:/Renesas/e2studio_2021_01_workspace_RZA2M_ANPR/ANPR_RZA2M_EBK/src/tensorflow_lite/tensorflow/lite/micro/kernels\kernel_util.h **** }
 3268              		.loc 6 56 0
 3269 00c0 000054E3 		cmp	r4, #0
 3270 00c4 004BDDED 		vldr.64	d20, [sp]	@ int
 3271 00c8 00309415 		ldrne	r3, [r4]
 3272 00cc 60408D05 		streq	r4, [sp, #96]
 3273              	.LVL225:
 3274 00d0 60308D15 		strne	r3, [sp, #96]
 3275              	.LVL226:
 3276              	.LBE3663:
 3277              	.LBE3662:
 3278              	.LBB3664:
 3279              	.LBB3665:
 3280              	.LBB3666:
 3281              	.LBB3667:
 3282              		.file 7 "C:/Renesas/e2studio_2021_01_workspace_RZA2M_ANPR/ANPR_RZA2M_EBK/src/tensorflow_lite/tenso
   1:C:/Renesas/e2studio_2021_01_workspace_RZA2M_ANPR/ANPR_RZA2M_EBK/src/tensorflow_lite/tensorflow/lite/kernels/internal/reference\log_softmax.h **** /* Copyright 2021 The TensorFlow Authors. All Rights Reserved.
   2:C:/Renesas/e2studio_2021_01_workspace_RZA2M_ANPR/ANPR_RZA2M_EBK/src/tensorflow_lite/tensorflow/lite/kernels/internal/reference\log_softmax.h **** 
   3:C:/Renesas/e2studio_2021_01_workspace_RZA2M_ANPR/ANPR_RZA2M_EBK/src/tensorflow_lite/tensorflow/lite/kernels/internal/reference\log_softmax.h **** Licensed under the Apache License, Version 2.0 (the "License");
   4:C:/Renesas/e2studio_2021_01_workspace_RZA2M_ANPR/ANPR_RZA2M_EBK/src/tensorflow_lite/tensorflow/lite/kernels/internal/reference\log_softmax.h **** you may not use this file except in compliance with the License.
   5:C:/Renesas/e2studio_2021_01_workspace_RZA2M_ANPR/ANPR_RZA2M_EBK/src/tensorflow_lite/tensorflow/lite/kernels/internal/reference\log_softmax.h **** You may obtain a copy of the License at
   6:C:/Renesas/e2studio_2021_01_workspace_RZA2M_ANPR/ANPR_RZA2M_EBK/src/tensorflow_lite/tensorflow/lite/kernels/internal/reference\log_softmax.h **** 
   7:C:/Renesas/e2studio_2021_01_workspace_RZA2M_ANPR/ANPR_RZA2M_EBK/src/tensorflow_lite/tensorflow/lite/kernels/internal/reference\log_softmax.h ****     http://www.apache.org/licenses/LICENSE-2.0
   8:C:/Renesas/e2studio_2021_01_workspace_RZA2M_ANPR/ANPR_RZA2M_EBK/src/tensorflow_lite/tensorflow/lite/kernels/internal/reference\log_softmax.h **** 
   9:C:/Renesas/e2studio_2021_01_workspace_RZA2M_ANPR/ANPR_RZA2M_EBK/src/tensorflow_lite/tensorflow/lite/kernels/internal/reference\log_softmax.h **** Unless required by applicable law or agreed to in writing, software
  10:C:/Renesas/e2studio_2021_01_workspace_RZA2M_ANPR/ANPR_RZA2M_EBK/src/tensorflow_lite/tensorflow/lite/kernels/internal/reference\log_softmax.h **** distributed under the License is distributed on an "AS IS" BASIS,
  11:C:/Renesas/e2studio_2021_01_workspace_RZA2M_ANPR/ANPR_RZA2M_EBK/src/tensorflow_lite/tensorflow/lite/kernels/internal/reference\log_softmax.h **** WITHOUT WARRANTIES OR CONDITIONS OF ANY KIND, either express or implied.
  12:C:/Renesas/e2studio_2021_01_workspace_RZA2M_ANPR/ANPR_RZA2M_EBK/src/tensorflow_lite/tensorflow/lite/kernels/internal/reference\log_softmax.h **** See the License for the specific language governing permissions and
  13:C:/Renesas/e2studio_2021_01_workspace_RZA2M_ANPR/ANPR_RZA2M_EBK/src/tensorflow_lite/tensorflow/lite/kernels/internal/reference\log_softmax.h **** limitations under the License.
  14:C:/Renesas/e2studio_2021_01_workspace_RZA2M_ANPR/ANPR_RZA2M_EBK/src/tensorflow_lite/tensorflow/lite/kernels/internal/reference\log_softmax.h **** ==============================================================================*/
  15:C:/Renesas/e2studio_2021_01_workspace_RZA2M_ANPR/ANPR_RZA2M_EBK/src/tensorflow_lite/tensorflow/lite/kernels/internal/reference\log_softmax.h **** #ifndef TENSORFLOW_LITE_KERNELS_INTERNAL_REFERENCE_LOG_SOFTMAX_H_
  16:C:/Renesas/e2studio_2021_01_workspace_RZA2M_ANPR/ANPR_RZA2M_EBK/src/tensorflow_lite/tensorflow/lite/kernels/internal/reference\log_softmax.h **** #define TENSORFLOW_LITE_KERNELS_INTERNAL_REFERENCE_LOG_SOFTMAX_H_
  17:C:/Renesas/e2studio_2021_01_workspace_RZA2M_ANPR/ANPR_RZA2M_EBK/src/tensorflow_lite/tensorflow/lite/kernels/internal/reference\log_softmax.h **** 
  18:C:/Renesas/e2studio_2021_01_workspace_RZA2M_ANPR/ANPR_RZA2M_EBK/src/tensorflow_lite/tensorflow/lite/kernels/internal/reference\log_softmax.h **** #include <algorithm>
  19:C:/Renesas/e2studio_2021_01_workspace_RZA2M_ANPR/ANPR_RZA2M_EBK/src/tensorflow_lite/tensorflow/lite/kernels/internal/reference\log_softmax.h **** #include <cstddef>
  20:C:/Renesas/e2studio_2021_01_workspace_RZA2M_ANPR/ANPR_RZA2M_EBK/src/tensorflow_lite/tensorflow/lite/kernels/internal/reference\log_softmax.h **** #include <limits>
  21:C:/Renesas/e2studio_2021_01_workspace_RZA2M_ANPR/ANPR_RZA2M_EBK/src/tensorflow_lite/tensorflow/lite/kernels/internal/reference\log_softmax.h **** 
  22:C:/Renesas/e2studio_2021_01_workspace_RZA2M_ANPR/ANPR_RZA2M_EBK/src/tensorflow_lite/tensorflow/lite/kernels/internal/reference\log_softmax.h **** #include "fixedpoint/fixedpoint.h"
  23:C:/Renesas/e2studio_2021_01_workspace_RZA2M_ANPR/ANPR_RZA2M_EBK/src/tensorflow_lite/tensorflow/lite/kernels/internal/reference\log_softmax.h **** #include "tensorflow/lite/kernels/internal/common.h"
  24:C:/Renesas/e2studio_2021_01_workspace_RZA2M_ANPR/ANPR_RZA2M_EBK/src/tensorflow_lite/tensorflow/lite/kernels/internal/reference\log_softmax.h **** 
  25:C:/Renesas/e2studio_2021_01_workspace_RZA2M_ANPR/ANPR_RZA2M_EBK/src/tensorflow_lite/tensorflow/lite/kernels/internal/reference\log_softmax.h **** namespace tflite {
  26:C:/Renesas/e2studio_2021_01_workspace_RZA2M_ANPR/ANPR_RZA2M_EBK/src/tensorflow_lite/tensorflow/lite/kernels/internal/reference\log_softmax.h **** namespace reference_ops {
  27:C:/Renesas/e2studio_2021_01_workspace_RZA2M_ANPR/ANPR_RZA2M_EBK/src/tensorflow_lite/tensorflow/lite/kernels/internal/reference\log_softmax.h **** 
  28:C:/Renesas/e2studio_2021_01_workspace_RZA2M_ANPR/ANPR_RZA2M_EBK/src/tensorflow_lite/tensorflow/lite/kernels/internal/reference\log_softmax.h **** inline void LogSoftmax(const SoftmaxParams& params,
  29:C:/Renesas/e2studio_2021_01_workspace_RZA2M_ANPR/ANPR_RZA2M_EBK/src/tensorflow_lite/tensorflow/lite/kernels/internal/reference\log_softmax.h ****                        const RuntimeShape& input_shape, const float* input_data,
  30:C:/Renesas/e2studio_2021_01_workspace_RZA2M_ANPR/ANPR_RZA2M_EBK/src/tensorflow_lite/tensorflow/lite/kernels/internal/reference\log_softmax.h ****                        const RuntimeShape& output_shape, float* output_data) {
  31:C:/Renesas/e2studio_2021_01_workspace_RZA2M_ANPR/ANPR_RZA2M_EBK/src/tensorflow_lite/tensorflow/lite/kernels/internal/reference\log_softmax.h ****   const int trailing_dim = input_shape.DimensionsCount() - 1;
  32:C:/Renesas/e2studio_2021_01_workspace_RZA2M_ANPR/ANPR_RZA2M_EBK/src/tensorflow_lite/tensorflow/lite/kernels/internal/reference\log_softmax.h ****   const int outer_size =
  33:C:/Renesas/e2studio_2021_01_workspace_RZA2M_ANPR/ANPR_RZA2M_EBK/src/tensorflow_lite/tensorflow/lite/kernels/internal/reference\log_softmax.h ****       MatchingFlatSizeSkipDim(input_shape, trailing_dim, output_shape);
  34:C:/Renesas/e2studio_2021_01_workspace_RZA2M_ANPR/ANPR_RZA2M_EBK/src/tensorflow_lite/tensorflow/lite/kernels/internal/reference\log_softmax.h ****   const int depth =
  35:C:/Renesas/e2studio_2021_01_workspace_RZA2M_ANPR/ANPR_RZA2M_EBK/src/tensorflow_lite/tensorflow/lite/kernels/internal/reference\log_softmax.h ****       MatchingDim(input_shape, trailing_dim, output_shape, trailing_dim);
  36:C:/Renesas/e2studio_2021_01_workspace_RZA2M_ANPR/ANPR_RZA2M_EBK/src/tensorflow_lite/tensorflow/lite/kernels/internal/reference\log_softmax.h **** 
  37:C:/Renesas/e2studio_2021_01_workspace_RZA2M_ANPR/ANPR_RZA2M_EBK/src/tensorflow_lite/tensorflow/lite/kernels/internal/reference\log_softmax.h ****   for (int i = 0; i < outer_size; ++i) {
  38:C:/Renesas/e2studio_2021_01_workspace_RZA2M_ANPR/ANPR_RZA2M_EBK/src/tensorflow_lite/tensorflow/lite/kernels/internal/reference\log_softmax.h ****     // Find max element value which we'll use to ensure numerical stability
  39:C:/Renesas/e2studio_2021_01_workspace_RZA2M_ANPR/ANPR_RZA2M_EBK/src/tensorflow_lite/tensorflow/lite/kernels/internal/reference\log_softmax.h ****     // taking advantage of the following equality:
  40:C:/Renesas/e2studio_2021_01_workspace_RZA2M_ANPR/ANPR_RZA2M_EBK/src/tensorflow_lite/tensorflow/lite/kernels/internal/reference\log_softmax.h ****     // log(exp(x[i])/sum(exp(x[i]))) == log(exp(x[i]+C)/sum(exp(x[i]+C)))
  41:C:/Renesas/e2studio_2021_01_workspace_RZA2M_ANPR/ANPR_RZA2M_EBK/src/tensorflow_lite/tensorflow/lite/kernels/internal/reference\log_softmax.h ****     float max = std::numeric_limits<float>::lowest();
  42:C:/Renesas/e2studio_2021_01_workspace_RZA2M_ANPR/ANPR_RZA2M_EBK/src/tensorflow_lite/tensorflow/lite/kernels/internal/reference\log_softmax.h ****     for (int c = 0; c < depth; ++c) {
  43:C:/Renesas/e2studio_2021_01_workspace_RZA2M_ANPR/ANPR_RZA2M_EBK/src/tensorflow_lite/tensorflow/lite/kernels/internal/reference\log_softmax.h ****       max = std::max(max, input_data[i * depth + c]);
  44:C:/Renesas/e2studio_2021_01_workspace_RZA2M_ANPR/ANPR_RZA2M_EBK/src/tensorflow_lite/tensorflow/lite/kernels/internal/reference\log_softmax.h ****     }
  45:C:/Renesas/e2studio_2021_01_workspace_RZA2M_ANPR/ANPR_RZA2M_EBK/src/tensorflow_lite/tensorflow/lite/kernels/internal/reference\log_softmax.h **** 
  46:C:/Renesas/e2studio_2021_01_workspace_RZA2M_ANPR/ANPR_RZA2M_EBK/src/tensorflow_lite/tensorflow/lite/kernels/internal/reference\log_softmax.h ****     // Compute sum.
  47:C:/Renesas/e2studio_2021_01_workspace_RZA2M_ANPR/ANPR_RZA2M_EBK/src/tensorflow_lite/tensorflow/lite/kernels/internal/reference\log_softmax.h ****     float sum = 0.f;
  48:C:/Renesas/e2studio_2021_01_workspace_RZA2M_ANPR/ANPR_RZA2M_EBK/src/tensorflow_lite/tensorflow/lite/kernels/internal/reference\log_softmax.h ****     for (int c = 0; c < depth; ++c) {
  49:C:/Renesas/e2studio_2021_01_workspace_RZA2M_ANPR/ANPR_RZA2M_EBK/src/tensorflow_lite/tensorflow/lite/kernels/internal/reference\log_softmax.h ****       sum += std::exp(input_data[i * depth + c] - max);
  50:C:/Renesas/e2studio_2021_01_workspace_RZA2M_ANPR/ANPR_RZA2M_EBK/src/tensorflow_lite/tensorflow/lite/kernels/internal/reference\log_softmax.h ****     }
  51:C:/Renesas/e2studio_2021_01_workspace_RZA2M_ANPR/ANPR_RZA2M_EBK/src/tensorflow_lite/tensorflow/lite/kernels/internal/reference\log_softmax.h **** 
  52:C:/Renesas/e2studio_2021_01_workspace_RZA2M_ANPR/ANPR_RZA2M_EBK/src/tensorflow_lite/tensorflow/lite/kernels/internal/reference\log_softmax.h ****     // Compute result.
  53:C:/Renesas/e2studio_2021_01_workspace_RZA2M_ANPR/ANPR_RZA2M_EBK/src/tensorflow_lite/tensorflow/lite/kernels/internal/reference\log_softmax.h ****     const float log_sum = std::log(sum);
  54:C:/Renesas/e2studio_2021_01_workspace_RZA2M_ANPR/ANPR_RZA2M_EBK/src/tensorflow_lite/tensorflow/lite/kernels/internal/reference\log_softmax.h ****     for (int c = 0; c < depth; ++c) {
  55:C:/Renesas/e2studio_2021_01_workspace_RZA2M_ANPR/ANPR_RZA2M_EBK/src/tensorflow_lite/tensorflow/lite/kernels/internal/reference\log_softmax.h ****       output_data[i * depth + c] = input_data[i * depth + c] - max - log_sum;
  56:C:/Renesas/e2studio_2021_01_workspace_RZA2M_ANPR/ANPR_RZA2M_EBK/src/tensorflow_lite/tensorflow/lite/kernels/internal/reference\log_softmax.h ****     }
  57:C:/Renesas/e2studio_2021_01_workspace_RZA2M_ANPR/ANPR_RZA2M_EBK/src/tensorflow_lite/tensorflow/lite/kernels/internal/reference\log_softmax.h ****   }
  58:C:/Renesas/e2studio_2021_01_workspace_RZA2M_ANPR/ANPR_RZA2M_EBK/src/tensorflow_lite/tensorflow/lite/kernels/internal/reference\log_softmax.h **** }
  59:C:/Renesas/e2studio_2021_01_workspace_RZA2M_ANPR/ANPR_RZA2M_EBK/src/tensorflow_lite/tensorflow/lite/kernels/internal/reference\log_softmax.h **** 
  60:C:/Renesas/e2studio_2021_01_workspace_RZA2M_ANPR/ANPR_RZA2M_EBK/src/tensorflow_lite/tensorflow/lite/kernels/internal/reference\log_softmax.h **** inline void LogSoftmax(const SoftmaxParams& params,
  61:C:/Renesas/e2studio_2021_01_workspace_RZA2M_ANPR/ANPR_RZA2M_EBK/src/tensorflow_lite/tensorflow/lite/kernels/internal/reference\log_softmax.h ****                        const RuntimeShape& input_shape,
  62:C:/Renesas/e2studio_2021_01_workspace_RZA2M_ANPR/ANPR_RZA2M_EBK/src/tensorflow_lite/tensorflow/lite/kernels/internal/reference\log_softmax.h ****                        const uint8_t* input_data,
  63:C:/Renesas/e2studio_2021_01_workspace_RZA2M_ANPR/ANPR_RZA2M_EBK/src/tensorflow_lite/tensorflow/lite/kernels/internal/reference\log_softmax.h ****                        const RuntimeShape& output_shape, uint8_t* output_data) {
  64:C:/Renesas/e2studio_2021_01_workspace_RZA2M_ANPR/ANPR_RZA2M_EBK/src/tensorflow_lite/tensorflow/lite/kernels/internal/reference\log_softmax.h ****   const int32_t input_multiplier = params.input_multiplier;
  65:C:/Renesas/e2studio_2021_01_workspace_RZA2M_ANPR/ANPR_RZA2M_EBK/src/tensorflow_lite/tensorflow/lite/kernels/internal/reference\log_softmax.h ****   const int32_t input_left_shift = params.input_left_shift;
  66:C:/Renesas/e2studio_2021_01_workspace_RZA2M_ANPR/ANPR_RZA2M_EBK/src/tensorflow_lite/tensorflow/lite/kernels/internal/reference\log_softmax.h ****   const int32_t reverse_scaling_divisor = params.reverse_scaling_divisor;
  67:C:/Renesas/e2studio_2021_01_workspace_RZA2M_ANPR/ANPR_RZA2M_EBK/src/tensorflow_lite/tensorflow/lite/kernels/internal/reference\log_softmax.h ****   const int32_t reverse_scaling_right_shift =
  68:C:/Renesas/e2studio_2021_01_workspace_RZA2M_ANPR/ANPR_RZA2M_EBK/src/tensorflow_lite/tensorflow/lite/kernels/internal/reference\log_softmax.h ****       params.reverse_scaling_right_shift;
  69:C:/Renesas/e2studio_2021_01_workspace_RZA2M_ANPR/ANPR_RZA2M_EBK/src/tensorflow_lite/tensorflow/lite/kernels/internal/reference\log_softmax.h ****   const int diff_min = params.diff_min;
  70:C:/Renesas/e2studio_2021_01_workspace_RZA2M_ANPR/ANPR_RZA2M_EBK/src/tensorflow_lite/tensorflow/lite/kernels/internal/reference\log_softmax.h ****   // The representation chosen for the input to the exp() function is Q5.26.
  71:C:/Renesas/e2studio_2021_01_workspace_RZA2M_ANPR/ANPR_RZA2M_EBK/src/tensorflow_lite/tensorflow/lite/kernels/internal/reference\log_softmax.h ****   // We need to leave extra space since values that we skip might be as large
  72:C:/Renesas/e2studio_2021_01_workspace_RZA2M_ANPR/ANPR_RZA2M_EBK/src/tensorflow_lite/tensorflow/lite/kernels/internal/reference\log_softmax.h ****   // as -32 before multiplying by input_beta_multiplier, and therefore as
  73:C:/Renesas/e2studio_2021_01_workspace_RZA2M_ANPR/ANPR_RZA2M_EBK/src/tensorflow_lite/tensorflow/lite/kernels/internal/reference\log_softmax.h ****   // large as -16 afterwards.  Note that exp(-8) is definitely not
  74:C:/Renesas/e2studio_2021_01_workspace_RZA2M_ANPR/ANPR_RZA2M_EBK/src/tensorflow_lite/tensorflow/lite/kernels/internal/reference\log_softmax.h ****   // insignificant to accumulation, but exp(-16) definitely is.
  75:C:/Renesas/e2studio_2021_01_workspace_RZA2M_ANPR/ANPR_RZA2M_EBK/src/tensorflow_lite/tensorflow/lite/kernels/internal/reference\log_softmax.h ****   static constexpr int kScaledDiffIntegerBits = 5;
  76:C:/Renesas/e2studio_2021_01_workspace_RZA2M_ANPR/ANPR_RZA2M_EBK/src/tensorflow_lite/tensorflow/lite/kernels/internal/reference\log_softmax.h ****   static constexpr int kAccumulationIntegerBits = 12;
  77:C:/Renesas/e2studio_2021_01_workspace_RZA2M_ANPR/ANPR_RZA2M_EBK/src/tensorflow_lite/tensorflow/lite/kernels/internal/reference\log_softmax.h ****   static constexpr int kOutputIntegerBits = 4;
  78:C:/Renesas/e2studio_2021_01_workspace_RZA2M_ANPR/ANPR_RZA2M_EBK/src/tensorflow_lite/tensorflow/lite/kernels/internal/reference\log_softmax.h ****   using FixedPointScaledDiff =
  79:C:/Renesas/e2studio_2021_01_workspace_RZA2M_ANPR/ANPR_RZA2M_EBK/src/tensorflow_lite/tensorflow/lite/kernels/internal/reference\log_softmax.h ****       gemmlowp::FixedPoint<int32_t, kScaledDiffIntegerBits>;
  80:C:/Renesas/e2studio_2021_01_workspace_RZA2M_ANPR/ANPR_RZA2M_EBK/src/tensorflow_lite/tensorflow/lite/kernels/internal/reference\log_softmax.h ****   using FixedPointAccum =
  81:C:/Renesas/e2studio_2021_01_workspace_RZA2M_ANPR/ANPR_RZA2M_EBK/src/tensorflow_lite/tensorflow/lite/kernels/internal/reference\log_softmax.h ****       gemmlowp::FixedPoint<int32_t, kAccumulationIntegerBits>;
  82:C:/Renesas/e2studio_2021_01_workspace_RZA2M_ANPR/ANPR_RZA2M_EBK/src/tensorflow_lite/tensorflow/lite/kernels/internal/reference\log_softmax.h **** 
  83:C:/Renesas/e2studio_2021_01_workspace_RZA2M_ANPR/ANPR_RZA2M_EBK/src/tensorflow_lite/tensorflow/lite/kernels/internal/reference\log_softmax.h ****   const int trailing_dim = input_shape.DimensionsCount() - 1;
  84:C:/Renesas/e2studio_2021_01_workspace_RZA2M_ANPR/ANPR_RZA2M_EBK/src/tensorflow_lite/tensorflow/lite/kernels/internal/reference\log_softmax.h ****   const int outer_size =
  85:C:/Renesas/e2studio_2021_01_workspace_RZA2M_ANPR/ANPR_RZA2M_EBK/src/tensorflow_lite/tensorflow/lite/kernels/internal/reference\log_softmax.h ****       MatchingFlatSizeSkipDim(input_shape, trailing_dim, output_shape);
  86:C:/Renesas/e2studio_2021_01_workspace_RZA2M_ANPR/ANPR_RZA2M_EBK/src/tensorflow_lite/tensorflow/lite/kernels/internal/reference\log_softmax.h ****   const int depth =
  87:C:/Renesas/e2studio_2021_01_workspace_RZA2M_ANPR/ANPR_RZA2M_EBK/src/tensorflow_lite/tensorflow/lite/kernels/internal/reference\log_softmax.h ****       MatchingDim(input_shape, trailing_dim, output_shape, trailing_dim);
  88:C:/Renesas/e2studio_2021_01_workspace_RZA2M_ANPR/ANPR_RZA2M_EBK/src/tensorflow_lite/tensorflow/lite/kernels/internal/reference\log_softmax.h **** 
  89:C:/Renesas/e2studio_2021_01_workspace_RZA2M_ANPR/ANPR_RZA2M_EBK/src/tensorflow_lite/tensorflow/lite/kernels/internal/reference\log_softmax.h ****   for (int i = 0; i < outer_size; ++i) {
  90:C:/Renesas/e2studio_2021_01_workspace_RZA2M_ANPR/ANPR_RZA2M_EBK/src/tensorflow_lite/tensorflow/lite/kernels/internal/reference\log_softmax.h ****     uint8_t max_in_row = 0;
  91:C:/Renesas/e2studio_2021_01_workspace_RZA2M_ANPR/ANPR_RZA2M_EBK/src/tensorflow_lite/tensorflow/lite/kernels/internal/reference\log_softmax.h ****     for (int c = 0; c < depth; ++c) {
  92:C:/Renesas/e2studio_2021_01_workspace_RZA2M_ANPR/ANPR_RZA2M_EBK/src/tensorflow_lite/tensorflow/lite/kernels/internal/reference\log_softmax.h ****       max_in_row = std::max(max_in_row, input_data[i * depth + c]);
  93:C:/Renesas/e2studio_2021_01_workspace_RZA2M_ANPR/ANPR_RZA2M_EBK/src/tensorflow_lite/tensorflow/lite/kernels/internal/reference\log_softmax.h ****     }
  94:C:/Renesas/e2studio_2021_01_workspace_RZA2M_ANPR/ANPR_RZA2M_EBK/src/tensorflow_lite/tensorflow/lite/kernels/internal/reference\log_softmax.h **** 
  95:C:/Renesas/e2studio_2021_01_workspace_RZA2M_ANPR/ANPR_RZA2M_EBK/src/tensorflow_lite/tensorflow/lite/kernels/internal/reference\log_softmax.h ****     FixedPointAccum sum_of_exps = FixedPointAccum::Zero();
  96:C:/Renesas/e2studio_2021_01_workspace_RZA2M_ANPR/ANPR_RZA2M_EBK/src/tensorflow_lite/tensorflow/lite/kernels/internal/reference\log_softmax.h ****     for (int c = 0; c < depth; ++c) {
  97:C:/Renesas/e2studio_2021_01_workspace_RZA2M_ANPR/ANPR_RZA2M_EBK/src/tensorflow_lite/tensorflow/lite/kernels/internal/reference\log_softmax.h ****       int32_t input_diff =
  98:C:/Renesas/e2studio_2021_01_workspace_RZA2M_ANPR/ANPR_RZA2M_EBK/src/tensorflow_lite/tensorflow/lite/kernels/internal/reference\log_softmax.h ****           static_cast<int32_t>(input_data[i * depth + c]) - max_in_row;
  99:C:/Renesas/e2studio_2021_01_workspace_RZA2M_ANPR/ANPR_RZA2M_EBK/src/tensorflow_lite/tensorflow/lite/kernels/internal/reference\log_softmax.h ****       if (input_diff >= diff_min) {
 100:C:/Renesas/e2studio_2021_01_workspace_RZA2M_ANPR/ANPR_RZA2M_EBK/src/tensorflow_lite/tensorflow/lite/kernels/internal/reference\log_softmax.h ****         const int32_t input_diff_rescaled =
 101:C:/Renesas/e2studio_2021_01_workspace_RZA2M_ANPR/ANPR_RZA2M_EBK/src/tensorflow_lite/tensorflow/lite/kernels/internal/reference\log_softmax.h ****             MultiplyByQuantizedMultiplierGreaterThanOne(
 102:C:/Renesas/e2studio_2021_01_workspace_RZA2M_ANPR/ANPR_RZA2M_EBK/src/tensorflow_lite/tensorflow/lite/kernels/internal/reference\log_softmax.h ****                 input_diff, input_multiplier, input_left_shift);
 103:C:/Renesas/e2studio_2021_01_workspace_RZA2M_ANPR/ANPR_RZA2M_EBK/src/tensorflow_lite/tensorflow/lite/kernels/internal/reference\log_softmax.h ****         const FixedPointScaledDiff scaled_diff_f8 =
 104:C:/Renesas/e2studio_2021_01_workspace_RZA2M_ANPR/ANPR_RZA2M_EBK/src/tensorflow_lite/tensorflow/lite/kernels/internal/reference\log_softmax.h ****             FixedPointScaledDiff::FromRaw(input_diff_rescaled);
 105:C:/Renesas/e2studio_2021_01_workspace_RZA2M_ANPR/ANPR_RZA2M_EBK/src/tensorflow_lite/tensorflow/lite/kernels/internal/reference\log_softmax.h ****         sum_of_exps = sum_of_exps + gemmlowp::Rescale<kAccumulationIntegerBits>(
 106:C:/Renesas/e2studio_2021_01_workspace_RZA2M_ANPR/ANPR_RZA2M_EBK/src/tensorflow_lite/tensorflow/lite/kernels/internal/reference\log_softmax.h ****                                         exp_on_negative_values(scaled_diff_f8));
 107:C:/Renesas/e2studio_2021_01_workspace_RZA2M_ANPR/ANPR_RZA2M_EBK/src/tensorflow_lite/tensorflow/lite/kernels/internal/reference\log_softmax.h ****       }
 108:C:/Renesas/e2studio_2021_01_workspace_RZA2M_ANPR/ANPR_RZA2M_EBK/src/tensorflow_lite/tensorflow/lite/kernels/internal/reference\log_softmax.h ****     }
 109:C:/Renesas/e2studio_2021_01_workspace_RZA2M_ANPR/ANPR_RZA2M_EBK/src/tensorflow_lite/tensorflow/lite/kernels/internal/reference\log_softmax.h **** 
 110:C:/Renesas/e2studio_2021_01_workspace_RZA2M_ANPR/ANPR_RZA2M_EBK/src/tensorflow_lite/tensorflow/lite/kernels/internal/reference\log_softmax.h ****     const int32_t fixed_log_sum_of_exps =
 111:C:/Renesas/e2studio_2021_01_workspace_RZA2M_ANPR/ANPR_RZA2M_EBK/src/tensorflow_lite/tensorflow/lite/kernels/internal/reference\log_softmax.h ****         log_x_for_x_greater_than_or_equal_to_1<kScaledDiffIntegerBits>(
 112:C:/Renesas/e2studio_2021_01_workspace_RZA2M_ANPR/ANPR_RZA2M_EBK/src/tensorflow_lite/tensorflow/lite/kernels/internal/reference\log_softmax.h ****             sum_of_exps)
 113:C:/Renesas/e2studio_2021_01_workspace_RZA2M_ANPR/ANPR_RZA2M_EBK/src/tensorflow_lite/tensorflow/lite/kernels/internal/reference\log_softmax.h ****             .raw();
 114:C:/Renesas/e2studio_2021_01_workspace_RZA2M_ANPR/ANPR_RZA2M_EBK/src/tensorflow_lite/tensorflow/lite/kernels/internal/reference\log_softmax.h **** 
 115:C:/Renesas/e2studio_2021_01_workspace_RZA2M_ANPR/ANPR_RZA2M_EBK/src/tensorflow_lite/tensorflow/lite/kernels/internal/reference\log_softmax.h ****     // rescaled_diff_min is smallest representable in
 116:C:/Renesas/e2studio_2021_01_workspace_RZA2M_ANPR/ANPR_RZA2M_EBK/src/tensorflow_lite/tensorflow/lite/kernels/internal/reference\log_softmax.h ****     // Q(kScaledDiffIntegerBits).(31-kScaledDiffIntegerBits) plus the
 117:C:/Renesas/e2studio_2021_01_workspace_RZA2M_ANPR/ANPR_RZA2M_EBK/src/tensorflow_lite/tensorflow/lite/kernels/internal/reference\log_softmax.h ****     // log-sub-exps that will be subtracted in the loop.
 118:C:/Renesas/e2studio_2021_01_workspace_RZA2M_ANPR/ANPR_RZA2M_EBK/src/tensorflow_lite/tensorflow/lite/kernels/internal/reference\log_softmax.h ****     //
 119:C:/Renesas/e2studio_2021_01_workspace_RZA2M_ANPR/ANPR_RZA2M_EBK/src/tensorflow_lite/tensorflow/lite/kernels/internal/reference\log_softmax.h ****     // The thresholds diff_min, etc are negative.
 120:C:/Renesas/e2studio_2021_01_workspace_RZA2M_ANPR/ANPR_RZA2M_EBK/src/tensorflow_lite/tensorflow/lite/kernels/internal/reference\log_softmax.h ****     const int rescaled_diff_min =
 121:C:/Renesas/e2studio_2021_01_workspace_RZA2M_ANPR/ANPR_RZA2M_EBK/src/tensorflow_lite/tensorflow/lite/kernels/internal/reference\log_softmax.h ****         fixed_log_sum_of_exps + std::numeric_limits<int32_t>::lowest();
 122:C:/Renesas/e2studio_2021_01_workspace_RZA2M_ANPR/ANPR_RZA2M_EBK/src/tensorflow_lite/tensorflow/lite/kernels/internal/reference\log_softmax.h ****     const int adjusted_diff_min =
 123:C:/Renesas/e2studio_2021_01_workspace_RZA2M_ANPR/ANPR_RZA2M_EBK/src/tensorflow_lite/tensorflow/lite/kernels/internal/reference\log_softmax.h ****         std::max(static_cast<int32_t>(
 124:C:/Renesas/e2studio_2021_01_workspace_RZA2M_ANPR/ANPR_RZA2M_EBK/src/tensorflow_lite/tensorflow/lite/kernels/internal/reference\log_softmax.h ****                      diff_min - 1),  // Note use of > below instead of >= above.
 125:C:/Renesas/e2studio_2021_01_workspace_RZA2M_ANPR/ANPR_RZA2M_EBK/src/tensorflow_lite/tensorflow/lite/kernels/internal/reference\log_softmax.h ****                  MultiplyByQuantizedMultiplierSmallerThanOneExp(
 126:C:/Renesas/e2studio_2021_01_workspace_RZA2M_ANPR/ANPR_RZA2M_EBK/src/tensorflow_lite/tensorflow/lite/kernels/internal/reference\log_softmax.h ****                      rescaled_diff_min, reverse_scaling_divisor,
 127:C:/Renesas/e2studio_2021_01_workspace_RZA2M_ANPR/ANPR_RZA2M_EBK/src/tensorflow_lite/tensorflow/lite/kernels/internal/reference\log_softmax.h ****                      -reverse_scaling_right_shift));
 128:C:/Renesas/e2studio_2021_01_workspace_RZA2M_ANPR/ANPR_RZA2M_EBK/src/tensorflow_lite/tensorflow/lite/kernels/internal/reference\log_softmax.h **** 
 129:C:/Renesas/e2studio_2021_01_workspace_RZA2M_ANPR/ANPR_RZA2M_EBK/src/tensorflow_lite/tensorflow/lite/kernels/internal/reference\log_softmax.h ****     for (int c = 0; c < depth; ++c) {
 130:C:/Renesas/e2studio_2021_01_workspace_RZA2M_ANPR/ANPR_RZA2M_EBK/src/tensorflow_lite/tensorflow/lite/kernels/internal/reference\log_softmax.h ****       int32_t input_diff =
 131:C:/Renesas/e2studio_2021_01_workspace_RZA2M_ANPR/ANPR_RZA2M_EBK/src/tensorflow_lite/tensorflow/lite/kernels/internal/reference\log_softmax.h ****           static_cast<int32_t>(input_data[i * depth + c]) - max_in_row;
 132:C:/Renesas/e2studio_2021_01_workspace_RZA2M_ANPR/ANPR_RZA2M_EBK/src/tensorflow_lite/tensorflow/lite/kernels/internal/reference\log_softmax.h ****       if (input_diff > adjusted_diff_min) {
 133:C:/Renesas/e2studio_2021_01_workspace_RZA2M_ANPR/ANPR_RZA2M_EBK/src/tensorflow_lite/tensorflow/lite/kernels/internal/reference\log_softmax.h ****         const int32_t input_diff_rescaled =
 134:C:/Renesas/e2studio_2021_01_workspace_RZA2M_ANPR/ANPR_RZA2M_EBK/src/tensorflow_lite/tensorflow/lite/kernels/internal/reference\log_softmax.h ****             MultiplyByQuantizedMultiplierGreaterThanOne(
 135:C:/Renesas/e2studio_2021_01_workspace_RZA2M_ANPR/ANPR_RZA2M_EBK/src/tensorflow_lite/tensorflow/lite/kernels/internal/reference\log_softmax.h ****                 input_diff, input_multiplier, input_left_shift);
 136:C:/Renesas/e2studio_2021_01_workspace_RZA2M_ANPR/ANPR_RZA2M_EBK/src/tensorflow_lite/tensorflow/lite/kernels/internal/reference\log_softmax.h ****         int32_t unsat_output =
 137:C:/Renesas/e2studio_2021_01_workspace_RZA2M_ANPR/ANPR_RZA2M_EBK/src/tensorflow_lite/tensorflow/lite/kernels/internal/reference\log_softmax.h ****             gemmlowp::RoundingDivideByPOT(
 138:C:/Renesas/e2studio_2021_01_workspace_RZA2M_ANPR/ANPR_RZA2M_EBK/src/tensorflow_lite/tensorflow/lite/kernels/internal/reference\log_softmax.h ****                 (input_diff_rescaled - fixed_log_sum_of_exps),
 139:C:/Renesas/e2studio_2021_01_workspace_RZA2M_ANPR/ANPR_RZA2M_EBK/src/tensorflow_lite/tensorflow/lite/kernels/internal/reference\log_softmax.h ****                 31 - kScaledDiffIntegerBits - kOutputIntegerBits) +
 140:C:/Renesas/e2studio_2021_01_workspace_RZA2M_ANPR/ANPR_RZA2M_EBK/src/tensorflow_lite/tensorflow/lite/kernels/internal/reference\log_softmax.h ****             255;
 141:C:/Renesas/e2studio_2021_01_workspace_RZA2M_ANPR/ANPR_RZA2M_EBK/src/tensorflow_lite/tensorflow/lite/kernels/internal/reference\log_softmax.h **** 
 142:C:/Renesas/e2studio_2021_01_workspace_RZA2M_ANPR/ANPR_RZA2M_EBK/src/tensorflow_lite/tensorflow/lite/kernels/internal/reference\log_softmax.h ****         output_data[i * depth + c] = static_cast<uint8_t>(
 143:C:/Renesas/e2studio_2021_01_workspace_RZA2M_ANPR/ANPR_RZA2M_EBK/src/tensorflow_lite/tensorflow/lite/kernels/internal/reference\log_softmax.h ****             std::max(std::min(unsat_output, static_cast<int32_t>(255)),
 144:C:/Renesas/e2studio_2021_01_workspace_RZA2M_ANPR/ANPR_RZA2M_EBK/src/tensorflow_lite/tensorflow/lite/kernels/internal/reference\log_softmax.h ****                      static_cast<int32_t>(0)));
 145:C:/Renesas/e2studio_2021_01_workspace_RZA2M_ANPR/ANPR_RZA2M_EBK/src/tensorflow_lite/tensorflow/lite/kernels/internal/reference\log_softmax.h ****       } else {
 146:C:/Renesas/e2studio_2021_01_workspace_RZA2M_ANPR/ANPR_RZA2M_EBK/src/tensorflow_lite/tensorflow/lite/kernels/internal/reference\log_softmax.h ****         // Set output to smallest value.
 147:C:/Renesas/e2studio_2021_01_workspace_RZA2M_ANPR/ANPR_RZA2M_EBK/src/tensorflow_lite/tensorflow/lite/kernels/internal/reference\log_softmax.h ****         output_data[i * depth + c] = 0;
 148:C:/Renesas/e2studio_2021_01_workspace_RZA2M_ANPR/ANPR_RZA2M_EBK/src/tensorflow_lite/tensorflow/lite/kernels/internal/reference\log_softmax.h ****       }
 149:C:/Renesas/e2studio_2021_01_workspace_RZA2M_ANPR/ANPR_RZA2M_EBK/src/tensorflow_lite/tensorflow/lite/kernels/internal/reference\log_softmax.h ****     }
 150:C:/Renesas/e2studio_2021_01_workspace_RZA2M_ANPR/ANPR_RZA2M_EBK/src/tensorflow_lite/tensorflow/lite/kernels/internal/reference\log_softmax.h ****   }
 151:C:/Renesas/e2studio_2021_01_workspace_RZA2M_ANPR/ANPR_RZA2M_EBK/src/tensorflow_lite/tensorflow/lite/kernels/internal/reference\log_softmax.h **** }
 152:C:/Renesas/e2studio_2021_01_workspace_RZA2M_ANPR/ANPR_RZA2M_EBK/src/tensorflow_lite/tensorflow/lite/kernels/internal/reference\log_softmax.h **** 
 153:C:/Renesas/e2studio_2021_01_workspace_RZA2M_ANPR/ANPR_RZA2M_EBK/src/tensorflow_lite/tensorflow/lite/kernels/internal/reference\log_softmax.h **** template <typename T>
 154:C:/Renesas/e2studio_2021_01_workspace_RZA2M_ANPR/ANPR_RZA2M_EBK/src/tensorflow_lite/tensorflow/lite/kernels/internal/reference\log_softmax.h **** inline void LogSoftmaxQuantized(const SoftmaxParams& params,
 155:C:/Renesas/e2studio_2021_01_workspace_RZA2M_ANPR/ANPR_RZA2M_EBK/src/tensorflow_lite/tensorflow/lite/kernels/internal/reference\log_softmax.h ****                                 const size_t outer_size, const size_t depth,
 156:C:/Renesas/e2studio_2021_01_workspace_RZA2M_ANPR/ANPR_RZA2M_EBK/src/tensorflow_lite/tensorflow/lite/kernels/internal/reference\log_softmax.h ****                                 const RuntimeShape& input_shape,
 157:C:/Renesas/e2studio_2021_01_workspace_RZA2M_ANPR/ANPR_RZA2M_EBK/src/tensorflow_lite/tensorflow/lite/kernels/internal/reference\log_softmax.h ****                                 const T* input_data,
 158:C:/Renesas/e2studio_2021_01_workspace_RZA2M_ANPR/ANPR_RZA2M_EBK/src/tensorflow_lite/tensorflow/lite/kernels/internal/reference\log_softmax.h ****                                 const RuntimeShape& output_shape,
 159:C:/Renesas/e2studio_2021_01_workspace_RZA2M_ANPR/ANPR_RZA2M_EBK/src/tensorflow_lite/tensorflow/lite/kernels/internal/reference\log_softmax.h ****                                 T* output_data) {
 160:C:/Renesas/e2studio_2021_01_workspace_RZA2M_ANPR/ANPR_RZA2M_EBK/src/tensorflow_lite/tensorflow/lite/kernels/internal/reference\log_softmax.h ****   const int32_t input_multiplier = params.input_multiplier;
 161:C:/Renesas/e2studio_2021_01_workspace_RZA2M_ANPR/ANPR_RZA2M_EBK/src/tensorflow_lite/tensorflow/lite/kernels/internal/reference\log_softmax.h ****   const int32_t input_left_shift = params.input_left_shift;
 162:C:/Renesas/e2studio_2021_01_workspace_RZA2M_ANPR/ANPR_RZA2M_EBK/src/tensorflow_lite/tensorflow/lite/kernels/internal/reference\log_softmax.h ****   const int32_t reverse_scaling_divisor = params.reverse_scaling_divisor;
 163:C:/Renesas/e2studio_2021_01_workspace_RZA2M_ANPR/ANPR_RZA2M_EBK/src/tensorflow_lite/tensorflow/lite/kernels/internal/reference\log_softmax.h ****   const int32_t reverse_scaling_right_shift =
 164:C:/Renesas/e2studio_2021_01_workspace_RZA2M_ANPR/ANPR_RZA2M_EBK/src/tensorflow_lite/tensorflow/lite/kernels/internal/reference\log_softmax.h ****       params.reverse_scaling_right_shift;
 165:C:/Renesas/e2studio_2021_01_workspace_RZA2M_ANPR/ANPR_RZA2M_EBK/src/tensorflow_lite/tensorflow/lite/kernels/internal/reference\log_softmax.h ****   const int diff_min = params.diff_min;
 166:C:/Renesas/e2studio_2021_01_workspace_RZA2M_ANPR/ANPR_RZA2M_EBK/src/tensorflow_lite/tensorflow/lite/kernels/internal/reference\log_softmax.h **** 
 167:C:/Renesas/e2studio_2021_01_workspace_RZA2M_ANPR/ANPR_RZA2M_EBK/src/tensorflow_lite/tensorflow/lite/kernels/internal/reference\log_softmax.h ****   static constexpr T kMinT8 = std::numeric_limits<T>::min();
 168:C:/Renesas/e2studio_2021_01_workspace_RZA2M_ANPR/ANPR_RZA2M_EBK/src/tensorflow_lite/tensorflow/lite/kernels/internal/reference\log_softmax.h ****   static constexpr T kMaxT8 = std::numeric_limits<T>::max();
 169:C:/Renesas/e2studio_2021_01_workspace_RZA2M_ANPR/ANPR_RZA2M_EBK/src/tensorflow_lite/tensorflow/lite/kernels/internal/reference\log_softmax.h ****   static constexpr int32_t kMinInt32 = std::numeric_limits<int32_t>::min();
 170:C:/Renesas/e2studio_2021_01_workspace_RZA2M_ANPR/ANPR_RZA2M_EBK/src/tensorflow_lite/tensorflow/lite/kernels/internal/reference\log_softmax.h **** 
 171:C:/Renesas/e2studio_2021_01_workspace_RZA2M_ANPR/ANPR_RZA2M_EBK/src/tensorflow_lite/tensorflow/lite/kernels/internal/reference\log_softmax.h ****   // All IntegerBits must agree with Prepare function.
 172:C:/Renesas/e2studio_2021_01_workspace_RZA2M_ANPR/ANPR_RZA2M_EBK/src/tensorflow_lite/tensorflow/lite/kernels/internal/reference\log_softmax.h ****   // Input is chosen as Q5.26 so exp(-1 * 2^5 * 2^-1) = exp(-16) is negligible.
 173:C:/Renesas/e2studio_2021_01_workspace_RZA2M_ANPR/ANPR_RZA2M_EBK/src/tensorflow_lite/tensorflow/lite/kernels/internal/reference\log_softmax.h ****   static constexpr int kInputIntegerBits = 5;
 174:C:/Renesas/e2studio_2021_01_workspace_RZA2M_ANPR/ANPR_RZA2M_EBK/src/tensorflow_lite/tensorflow/lite/kernels/internal/reference\log_softmax.h ****   static constexpr int kAccumulationIntegerBits = 12;
 175:C:/Renesas/e2studio_2021_01_workspace_RZA2M_ANPR/ANPR_RZA2M_EBK/src/tensorflow_lite/tensorflow/lite/kernels/internal/reference\log_softmax.h ****   static constexpr int kOutputIntegerBits = 4;
 176:C:/Renesas/e2studio_2021_01_workspace_RZA2M_ANPR/ANPR_RZA2M_EBK/src/tensorflow_lite/tensorflow/lite/kernels/internal/reference\log_softmax.h ****   using F5 = gemmlowp::FixedPoint<int32_t, kInputIntegerBits>;
 177:C:/Renesas/e2studio_2021_01_workspace_RZA2M_ANPR/ANPR_RZA2M_EBK/src/tensorflow_lite/tensorflow/lite/kernels/internal/reference\log_softmax.h ****   using F12 = gemmlowp::FixedPoint<int32_t, kAccumulationIntegerBits>;
 178:C:/Renesas/e2studio_2021_01_workspace_RZA2M_ANPR/ANPR_RZA2M_EBK/src/tensorflow_lite/tensorflow/lite/kernels/internal/reference\log_softmax.h **** 
 179:C:/Renesas/e2studio_2021_01_workspace_RZA2M_ANPR/ANPR_RZA2M_EBK/src/tensorflow_lite/tensorflow/lite/kernels/internal/reference\log_softmax.h ****   for (size_t outer_index = 0; outer_index < outer_size; ++outer_index) {
 3283              		.loc 7 179 0
 3284 00d4 58309DE5 		ldr	r3, [sp, #88]
 3285 00d8 000053E3 		cmp	r3, #0
 3286 00dc DF02000A 		beq	.L218
 3287 00e0 3C309DE5 		ldr	r3, [sp, #60]
 3288              	.LBB3668:
 3289              	.LBB3669:
 3290              	.LBB3670:
 3291              	.LBB3671:
 3292              	.LBB3672:
 3293              	.LBB3673:
 3294              	.LBB3674:
 3295              	.LBB3675:
 3296              	.LBB3676:
 360:C:/Renesas/e2studio_2021_01_workspace_RZA2M_ANPR/ANPR_RZA2M_EBK/src/tensorflow_lite/third_party/gemmlowp/fixedpoint\fixedpoint.h ****   const IntegerType zero = Dup<IntegerType>(0);
 3297              		.loc 5 360 0
 3298 00e4 CB0BDFED 		vldr.64	d16, .L410	@ int
 3299 00e8 54209DE5 		ldr	r2, [sp, #84]
 3300 00ec 000053E3 		cmp	r3, #0
 3301              	.LBE3676:
 3302              	.LBE3675:
 3303              		.file 8 "C:/Renesas/e2studio_2021_01_workspace_RZA2M_ANPR/ANPR_RZA2M_EBK/src/tensorflow_lite/tenso
   1:C:/Renesas/e2studio_2021_01_workspace_RZA2M_ANPR/ANPR_RZA2M_EBK/src/tensorflow_lite/tensorflow/lite/kernels/internal\common.h **** /* Copyright 2017 The TensorFlow Authors. All Rights Reserved.
   2:C:/Renesas/e2studio_2021_01_workspace_RZA2M_ANPR/ANPR_RZA2M_EBK/src/tensorflow_lite/tensorflow/lite/kernels/internal\common.h **** 
   3:C:/Renesas/e2studio_2021_01_workspace_RZA2M_ANPR/ANPR_RZA2M_EBK/src/tensorflow_lite/tensorflow/lite/kernels/internal\common.h **** Licensed under the Apache License, Version 2.0 (the "License");
   4:C:/Renesas/e2studio_2021_01_workspace_RZA2M_ANPR/ANPR_RZA2M_EBK/src/tensorflow_lite/tensorflow/lite/kernels/internal\common.h **** you may not use this file except in compliance with the License.
   5:C:/Renesas/e2studio_2021_01_workspace_RZA2M_ANPR/ANPR_RZA2M_EBK/src/tensorflow_lite/tensorflow/lite/kernels/internal\common.h **** You may obtain a copy of the License at
   6:C:/Renesas/e2studio_2021_01_workspace_RZA2M_ANPR/ANPR_RZA2M_EBK/src/tensorflow_lite/tensorflow/lite/kernels/internal\common.h **** 
   7:C:/Renesas/e2studio_2021_01_workspace_RZA2M_ANPR/ANPR_RZA2M_EBK/src/tensorflow_lite/tensorflow/lite/kernels/internal\common.h ****     http://www.apache.org/licenses/LICENSE-2.0
   8:C:/Renesas/e2studio_2021_01_workspace_RZA2M_ANPR/ANPR_RZA2M_EBK/src/tensorflow_lite/tensorflow/lite/kernels/internal\common.h **** 
   9:C:/Renesas/e2studio_2021_01_workspace_RZA2M_ANPR/ANPR_RZA2M_EBK/src/tensorflow_lite/tensorflow/lite/kernels/internal\common.h **** Unless required by applicable law or agreed to in writing, software
  10:C:/Renesas/e2studio_2021_01_workspace_RZA2M_ANPR/ANPR_RZA2M_EBK/src/tensorflow_lite/tensorflow/lite/kernels/internal\common.h **** distributed under the License is distributed on an "AS IS" BASIS,
  11:C:/Renesas/e2studio_2021_01_workspace_RZA2M_ANPR/ANPR_RZA2M_EBK/src/tensorflow_lite/tensorflow/lite/kernels/internal\common.h **** WITHOUT WARRANTIES OR CONDITIONS OF ANY KIND, either express or implied.
  12:C:/Renesas/e2studio_2021_01_workspace_RZA2M_ANPR/ANPR_RZA2M_EBK/src/tensorflow_lite/tensorflow/lite/kernels/internal\common.h **** See the License for the specific language governing permissions and
  13:C:/Renesas/e2studio_2021_01_workspace_RZA2M_ANPR/ANPR_RZA2M_EBK/src/tensorflow_lite/tensorflow/lite/kernels/internal\common.h **** limitations under the License.
  14:C:/Renesas/e2studio_2021_01_workspace_RZA2M_ANPR/ANPR_RZA2M_EBK/src/tensorflow_lite/tensorflow/lite/kernels/internal\common.h **** ==============================================================================*/
  15:C:/Renesas/e2studio_2021_01_workspace_RZA2M_ANPR/ANPR_RZA2M_EBK/src/tensorflow_lite/tensorflow/lite/kernels/internal\common.h **** #ifndef TENSORFLOW_LITE_KERNELS_INTERNAL_COMMON_H_
  16:C:/Renesas/e2studio_2021_01_workspace_RZA2M_ANPR/ANPR_RZA2M_EBK/src/tensorflow_lite/tensorflow/lite/kernels/internal\common.h **** #define TENSORFLOW_LITE_KERNELS_INTERNAL_COMMON_H_
  17:C:/Renesas/e2studio_2021_01_workspace_RZA2M_ANPR/ANPR_RZA2M_EBK/src/tensorflow_lite/tensorflow/lite/kernels/internal\common.h **** 
  18:C:/Renesas/e2studio_2021_01_workspace_RZA2M_ANPR/ANPR_RZA2M_EBK/src/tensorflow_lite/tensorflow/lite/kernels/internal\common.h **** #ifndef ALLOW_SLOW_GENERIC_DEPTHWISECONV_FALLBACK
  19:C:/Renesas/e2studio_2021_01_workspace_RZA2M_ANPR/ANPR_RZA2M_EBK/src/tensorflow_lite/tensorflow/lite/kernels/internal\common.h **** #ifdef GEMMLOWP_ALLOW_SLOW_SCALAR_FALLBACK
  20:C:/Renesas/e2studio_2021_01_workspace_RZA2M_ANPR/ANPR_RZA2M_EBK/src/tensorflow_lite/tensorflow/lite/kernels/internal\common.h **** #define ALLOW_SLOW_GENERIC_DEPTHWISECONV_FALLBACK
  21:C:/Renesas/e2studio_2021_01_workspace_RZA2M_ANPR/ANPR_RZA2M_EBK/src/tensorflow_lite/tensorflow/lite/kernels/internal\common.h **** #endif
  22:C:/Renesas/e2studio_2021_01_workspace_RZA2M_ANPR/ANPR_RZA2M_EBK/src/tensorflow_lite/tensorflow/lite/kernels/internal\common.h **** #endif
  23:C:/Renesas/e2studio_2021_01_workspace_RZA2M_ANPR/ANPR_RZA2M_EBK/src/tensorflow_lite/tensorflow/lite/kernels/internal\common.h **** 
  24:C:/Renesas/e2studio_2021_01_workspace_RZA2M_ANPR/ANPR_RZA2M_EBK/src/tensorflow_lite/tensorflow/lite/kernels/internal\common.h **** #include <functional>
  25:C:/Renesas/e2studio_2021_01_workspace_RZA2M_ANPR/ANPR_RZA2M_EBK/src/tensorflow_lite/tensorflow/lite/kernels/internal\common.h **** 
  26:C:/Renesas/e2studio_2021_01_workspace_RZA2M_ANPR/ANPR_RZA2M_EBK/src/tensorflow_lite/tensorflow/lite/kernels/internal\common.h **** #include "fixedpoint/fixedpoint.h"
  27:C:/Renesas/e2studio_2021_01_workspace_RZA2M_ANPR/ANPR_RZA2M_EBK/src/tensorflow_lite/tensorflow/lite/kernels/internal\common.h **** #include "tensorflow/lite/kernels/internal/cppmath.h"
  28:C:/Renesas/e2studio_2021_01_workspace_RZA2M_ANPR/ANPR_RZA2M_EBK/src/tensorflow_lite/tensorflow/lite/kernels/internal\common.h **** #include "tensorflow/lite/kernels/internal/optimized/neon_check.h"
  29:C:/Renesas/e2studio_2021_01_workspace_RZA2M_ANPR/ANPR_RZA2M_EBK/src/tensorflow_lite/tensorflow/lite/kernels/internal\common.h **** #include "tensorflow/lite/kernels/internal/types.h"
  30:C:/Renesas/e2studio_2021_01_workspace_RZA2M_ANPR/ANPR_RZA2M_EBK/src/tensorflow_lite/tensorflow/lite/kernels/internal\common.h **** 
  31:C:/Renesas/e2studio_2021_01_workspace_RZA2M_ANPR/ANPR_RZA2M_EBK/src/tensorflow_lite/tensorflow/lite/kernels/internal\common.h **** namespace tflite {
  32:C:/Renesas/e2studio_2021_01_workspace_RZA2M_ANPR/ANPR_RZA2M_EBK/src/tensorflow_lite/tensorflow/lite/kernels/internal\common.h **** 
  33:C:/Renesas/e2studio_2021_01_workspace_RZA2M_ANPR/ANPR_RZA2M_EBK/src/tensorflow_lite/tensorflow/lite/kernels/internal\common.h **** constexpr int kReverseShift = -1;
  34:C:/Renesas/e2studio_2021_01_workspace_RZA2M_ANPR/ANPR_RZA2M_EBK/src/tensorflow_lite/tensorflow/lite/kernels/internal\common.h **** 
  35:C:/Renesas/e2studio_2021_01_workspace_RZA2M_ANPR/ANPR_RZA2M_EBK/src/tensorflow_lite/tensorflow/lite/kernels/internal\common.h **** inline void GetActivationMinMax(FusedActivationFunctionType ac,
  36:C:/Renesas/e2studio_2021_01_workspace_RZA2M_ANPR/ANPR_RZA2M_EBK/src/tensorflow_lite/tensorflow/lite/kernels/internal\common.h ****                                 float* output_activation_min,
  37:C:/Renesas/e2studio_2021_01_workspace_RZA2M_ANPR/ANPR_RZA2M_EBK/src/tensorflow_lite/tensorflow/lite/kernels/internal\common.h ****                                 float* output_activation_max) {
  38:C:/Renesas/e2studio_2021_01_workspace_RZA2M_ANPR/ANPR_RZA2M_EBK/src/tensorflow_lite/tensorflow/lite/kernels/internal\common.h ****   switch (ac) {
  39:C:/Renesas/e2studio_2021_01_workspace_RZA2M_ANPR/ANPR_RZA2M_EBK/src/tensorflow_lite/tensorflow/lite/kernels/internal\common.h ****     case FusedActivationFunctionType::kNone:
  40:C:/Renesas/e2studio_2021_01_workspace_RZA2M_ANPR/ANPR_RZA2M_EBK/src/tensorflow_lite/tensorflow/lite/kernels/internal\common.h ****       *output_activation_min = std::numeric_limits<float>::lowest();
  41:C:/Renesas/e2studio_2021_01_workspace_RZA2M_ANPR/ANPR_RZA2M_EBK/src/tensorflow_lite/tensorflow/lite/kernels/internal\common.h ****       *output_activation_max = std::numeric_limits<float>::max();
  42:C:/Renesas/e2studio_2021_01_workspace_RZA2M_ANPR/ANPR_RZA2M_EBK/src/tensorflow_lite/tensorflow/lite/kernels/internal\common.h ****       break;
  43:C:/Renesas/e2studio_2021_01_workspace_RZA2M_ANPR/ANPR_RZA2M_EBK/src/tensorflow_lite/tensorflow/lite/kernels/internal\common.h ****     case FusedActivationFunctionType::kRelu:
  44:C:/Renesas/e2studio_2021_01_workspace_RZA2M_ANPR/ANPR_RZA2M_EBK/src/tensorflow_lite/tensorflow/lite/kernels/internal\common.h ****       *output_activation_min = 0.f;
  45:C:/Renesas/e2studio_2021_01_workspace_RZA2M_ANPR/ANPR_RZA2M_EBK/src/tensorflow_lite/tensorflow/lite/kernels/internal\common.h ****       *output_activation_max = std::numeric_limits<float>::max();
  46:C:/Renesas/e2studio_2021_01_workspace_RZA2M_ANPR/ANPR_RZA2M_EBK/src/tensorflow_lite/tensorflow/lite/kernels/internal\common.h ****       break;
  47:C:/Renesas/e2studio_2021_01_workspace_RZA2M_ANPR/ANPR_RZA2M_EBK/src/tensorflow_lite/tensorflow/lite/kernels/internal\common.h ****     case FusedActivationFunctionType::kRelu1:
  48:C:/Renesas/e2studio_2021_01_workspace_RZA2M_ANPR/ANPR_RZA2M_EBK/src/tensorflow_lite/tensorflow/lite/kernels/internal\common.h ****       *output_activation_min = -1.f;
  49:C:/Renesas/e2studio_2021_01_workspace_RZA2M_ANPR/ANPR_RZA2M_EBK/src/tensorflow_lite/tensorflow/lite/kernels/internal\common.h ****       *output_activation_max = 1.f;
  50:C:/Renesas/e2studio_2021_01_workspace_RZA2M_ANPR/ANPR_RZA2M_EBK/src/tensorflow_lite/tensorflow/lite/kernels/internal\common.h ****       break;
  51:C:/Renesas/e2studio_2021_01_workspace_RZA2M_ANPR/ANPR_RZA2M_EBK/src/tensorflow_lite/tensorflow/lite/kernels/internal\common.h ****     case FusedActivationFunctionType::kRelu6:
  52:C:/Renesas/e2studio_2021_01_workspace_RZA2M_ANPR/ANPR_RZA2M_EBK/src/tensorflow_lite/tensorflow/lite/kernels/internal\common.h ****       *output_activation_min = 0.f;
  53:C:/Renesas/e2studio_2021_01_workspace_RZA2M_ANPR/ANPR_RZA2M_EBK/src/tensorflow_lite/tensorflow/lite/kernels/internal\common.h ****       *output_activation_max = 6.f;
  54:C:/Renesas/e2studio_2021_01_workspace_RZA2M_ANPR/ANPR_RZA2M_EBK/src/tensorflow_lite/tensorflow/lite/kernels/internal\common.h ****       break;
  55:C:/Renesas/e2studio_2021_01_workspace_RZA2M_ANPR/ANPR_RZA2M_EBK/src/tensorflow_lite/tensorflow/lite/kernels/internal\common.h ****   }
  56:C:/Renesas/e2studio_2021_01_workspace_RZA2M_ANPR/ANPR_RZA2M_EBK/src/tensorflow_lite/tensorflow/lite/kernels/internal\common.h **** }
  57:C:/Renesas/e2studio_2021_01_workspace_RZA2M_ANPR/ANPR_RZA2M_EBK/src/tensorflow_lite/tensorflow/lite/kernels/internal\common.h **** 
  58:C:/Renesas/e2studio_2021_01_workspace_RZA2M_ANPR/ANPR_RZA2M_EBK/src/tensorflow_lite/tensorflow/lite/kernels/internal\common.h **** template <typename T>
  59:C:/Renesas/e2studio_2021_01_workspace_RZA2M_ANPR/ANPR_RZA2M_EBK/src/tensorflow_lite/tensorflow/lite/kernels/internal\common.h **** inline T ActivationFunctionWithMinMax(T x, T output_activation_min,
  60:C:/Renesas/e2studio_2021_01_workspace_RZA2M_ANPR/ANPR_RZA2M_EBK/src/tensorflow_lite/tensorflow/lite/kernels/internal\common.h ****                                       T output_activation_max) {
  61:C:/Renesas/e2studio_2021_01_workspace_RZA2M_ANPR/ANPR_RZA2M_EBK/src/tensorflow_lite/tensorflow/lite/kernels/internal\common.h ****   using std::max;
  62:C:/Renesas/e2studio_2021_01_workspace_RZA2M_ANPR/ANPR_RZA2M_EBK/src/tensorflow_lite/tensorflow/lite/kernels/internal\common.h ****   using std::min;
  63:C:/Renesas/e2studio_2021_01_workspace_RZA2M_ANPR/ANPR_RZA2M_EBK/src/tensorflow_lite/tensorflow/lite/kernels/internal\common.h ****   return min(max(x, output_activation_min), output_activation_max);
  64:C:/Renesas/e2studio_2021_01_workspace_RZA2M_ANPR/ANPR_RZA2M_EBK/src/tensorflow_lite/tensorflow/lite/kernels/internal\common.h **** }
  65:C:/Renesas/e2studio_2021_01_workspace_RZA2M_ANPR/ANPR_RZA2M_EBK/src/tensorflow_lite/tensorflow/lite/kernels/internal\common.h **** 
  66:C:/Renesas/e2studio_2021_01_workspace_RZA2M_ANPR/ANPR_RZA2M_EBK/src/tensorflow_lite/tensorflow/lite/kernels/internal\common.h **** // Legacy function, left for compatibility only.
  67:C:/Renesas/e2studio_2021_01_workspace_RZA2M_ANPR/ANPR_RZA2M_EBK/src/tensorflow_lite/tensorflow/lite/kernels/internal\common.h **** template <FusedActivationFunctionType Ac>
  68:C:/Renesas/e2studio_2021_01_workspace_RZA2M_ANPR/ANPR_RZA2M_EBK/src/tensorflow_lite/tensorflow/lite/kernels/internal\common.h **** float ActivationFunction(float x) {
  69:C:/Renesas/e2studio_2021_01_workspace_RZA2M_ANPR/ANPR_RZA2M_EBK/src/tensorflow_lite/tensorflow/lite/kernels/internal\common.h ****   float output_activation_min, output_activation_max;
  70:C:/Renesas/e2studio_2021_01_workspace_RZA2M_ANPR/ANPR_RZA2M_EBK/src/tensorflow_lite/tensorflow/lite/kernels/internal\common.h ****   GetActivationMinMax(Ac, &output_activation_min, &output_activation_max);
  71:C:/Renesas/e2studio_2021_01_workspace_RZA2M_ANPR/ANPR_RZA2M_EBK/src/tensorflow_lite/tensorflow/lite/kernels/internal\common.h ****   return ActivationFunctionWithMinMax(x, output_activation_min,
  72:C:/Renesas/e2studio_2021_01_workspace_RZA2M_ANPR/ANPR_RZA2M_EBK/src/tensorflow_lite/tensorflow/lite/kernels/internal\common.h ****                                       output_activation_max);
  73:C:/Renesas/e2studio_2021_01_workspace_RZA2M_ANPR/ANPR_RZA2M_EBK/src/tensorflow_lite/tensorflow/lite/kernels/internal\common.h **** }
  74:C:/Renesas/e2studio_2021_01_workspace_RZA2M_ANPR/ANPR_RZA2M_EBK/src/tensorflow_lite/tensorflow/lite/kernels/internal\common.h **** 
  75:C:/Renesas/e2studio_2021_01_workspace_RZA2M_ANPR/ANPR_RZA2M_EBK/src/tensorflow_lite/tensorflow/lite/kernels/internal\common.h **** inline void BiasAndClamp(float clamp_min, float clamp_max, int bias_size,
  76:C:/Renesas/e2studio_2021_01_workspace_RZA2M_ANPR/ANPR_RZA2M_EBK/src/tensorflow_lite/tensorflow/lite/kernels/internal\common.h ****                          const float* bias_data, int array_size,
  77:C:/Renesas/e2studio_2021_01_workspace_RZA2M_ANPR/ANPR_RZA2M_EBK/src/tensorflow_lite/tensorflow/lite/kernels/internal\common.h ****                          float* array_data) {
  78:C:/Renesas/e2studio_2021_01_workspace_RZA2M_ANPR/ANPR_RZA2M_EBK/src/tensorflow_lite/tensorflow/lite/kernels/internal\common.h ****   // Note: see b/132215220: in May 2019 we thought it would be OK to replace
  79:C:/Renesas/e2studio_2021_01_workspace_RZA2M_ANPR/ANPR_RZA2M_EBK/src/tensorflow_lite/tensorflow/lite/kernels/internal\common.h ****   // this with the Eigen one-liner:
  80:C:/Renesas/e2studio_2021_01_workspace_RZA2M_ANPR/ANPR_RZA2M_EBK/src/tensorflow_lite/tensorflow/lite/kernels/internal\common.h ****   //   return (array.colwise() + bias).cwiseMin(clamp_max).cwiseMin(clamp_max).
  81:C:/Renesas/e2studio_2021_01_workspace_RZA2M_ANPR/ANPR_RZA2M_EBK/src/tensorflow_lite/tensorflow/lite/kernels/internal\common.h ****   // This turned out to severely regress performance: +4ms (i.e. 8%) on
  82:C:/Renesas/e2studio_2021_01_workspace_RZA2M_ANPR/ANPR_RZA2M_EBK/src/tensorflow_lite/tensorflow/lite/kernels/internal\common.h ****   // MobileNet v2 / 1.0 / 224. So we keep custom NEON code for now.
  83:C:/Renesas/e2studio_2021_01_workspace_RZA2M_ANPR/ANPR_RZA2M_EBK/src/tensorflow_lite/tensorflow/lite/kernels/internal\common.h ****   TFLITE_DCHECK_EQ((array_size % bias_size), 0);
  84:C:/Renesas/e2studio_2021_01_workspace_RZA2M_ANPR/ANPR_RZA2M_EBK/src/tensorflow_lite/tensorflow/lite/kernels/internal\common.h **** #ifdef USE_NEON
  85:C:/Renesas/e2studio_2021_01_workspace_RZA2M_ANPR/ANPR_RZA2M_EBK/src/tensorflow_lite/tensorflow/lite/kernels/internal\common.h ****   float* array_ptr = array_data;
  86:C:/Renesas/e2studio_2021_01_workspace_RZA2M_ANPR/ANPR_RZA2M_EBK/src/tensorflow_lite/tensorflow/lite/kernels/internal\common.h ****   float* array_end_ptr = array_ptr + array_size;
  87:C:/Renesas/e2studio_2021_01_workspace_RZA2M_ANPR/ANPR_RZA2M_EBK/src/tensorflow_lite/tensorflow/lite/kernels/internal\common.h ****   const auto clamp_min_vec = vdupq_n_f32(clamp_min);
  88:C:/Renesas/e2studio_2021_01_workspace_RZA2M_ANPR/ANPR_RZA2M_EBK/src/tensorflow_lite/tensorflow/lite/kernels/internal\common.h ****   const auto clamp_max_vec = vdupq_n_f32(clamp_max);
  89:C:/Renesas/e2studio_2021_01_workspace_RZA2M_ANPR/ANPR_RZA2M_EBK/src/tensorflow_lite/tensorflow/lite/kernels/internal\common.h ****   for (; array_ptr != array_end_ptr; array_ptr += bias_size) {
  90:C:/Renesas/e2studio_2021_01_workspace_RZA2M_ANPR/ANPR_RZA2M_EBK/src/tensorflow_lite/tensorflow/lite/kernels/internal\common.h ****     int i = 0;
  91:C:/Renesas/e2studio_2021_01_workspace_RZA2M_ANPR/ANPR_RZA2M_EBK/src/tensorflow_lite/tensorflow/lite/kernels/internal\common.h ****     for (; i <= bias_size - 16; i += 16) {
  92:C:/Renesas/e2studio_2021_01_workspace_RZA2M_ANPR/ANPR_RZA2M_EBK/src/tensorflow_lite/tensorflow/lite/kernels/internal\common.h ****       auto b0 = vld1q_f32(bias_data + i);
  93:C:/Renesas/e2studio_2021_01_workspace_RZA2M_ANPR/ANPR_RZA2M_EBK/src/tensorflow_lite/tensorflow/lite/kernels/internal\common.h ****       auto b1 = vld1q_f32(bias_data + i + 4);
  94:C:/Renesas/e2studio_2021_01_workspace_RZA2M_ANPR/ANPR_RZA2M_EBK/src/tensorflow_lite/tensorflow/lite/kernels/internal\common.h ****       auto b2 = vld1q_f32(bias_data + i + 8);
  95:C:/Renesas/e2studio_2021_01_workspace_RZA2M_ANPR/ANPR_RZA2M_EBK/src/tensorflow_lite/tensorflow/lite/kernels/internal\common.h ****       auto b3 = vld1q_f32(bias_data + i + 12);
  96:C:/Renesas/e2studio_2021_01_workspace_RZA2M_ANPR/ANPR_RZA2M_EBK/src/tensorflow_lite/tensorflow/lite/kernels/internal\common.h ****       auto a0 = vld1q_f32(array_ptr + i);
  97:C:/Renesas/e2studio_2021_01_workspace_RZA2M_ANPR/ANPR_RZA2M_EBK/src/tensorflow_lite/tensorflow/lite/kernels/internal\common.h ****       auto a1 = vld1q_f32(array_ptr + i + 4);
  98:C:/Renesas/e2studio_2021_01_workspace_RZA2M_ANPR/ANPR_RZA2M_EBK/src/tensorflow_lite/tensorflow/lite/kernels/internal\common.h ****       auto a2 = vld1q_f32(array_ptr + i + 8);
  99:C:/Renesas/e2studio_2021_01_workspace_RZA2M_ANPR/ANPR_RZA2M_EBK/src/tensorflow_lite/tensorflow/lite/kernels/internal\common.h ****       auto a3 = vld1q_f32(array_ptr + i + 12);
 100:C:/Renesas/e2studio_2021_01_workspace_RZA2M_ANPR/ANPR_RZA2M_EBK/src/tensorflow_lite/tensorflow/lite/kernels/internal\common.h ****       auto x0 = vaddq_f32(a0, b0);
 101:C:/Renesas/e2studio_2021_01_workspace_RZA2M_ANPR/ANPR_RZA2M_EBK/src/tensorflow_lite/tensorflow/lite/kernels/internal\common.h ****       auto x1 = vaddq_f32(a1, b1);
 102:C:/Renesas/e2studio_2021_01_workspace_RZA2M_ANPR/ANPR_RZA2M_EBK/src/tensorflow_lite/tensorflow/lite/kernels/internal\common.h ****       auto x2 = vaddq_f32(a2, b2);
 103:C:/Renesas/e2studio_2021_01_workspace_RZA2M_ANPR/ANPR_RZA2M_EBK/src/tensorflow_lite/tensorflow/lite/kernels/internal\common.h ****       auto x3 = vaddq_f32(a3, b3);
 104:C:/Renesas/e2studio_2021_01_workspace_RZA2M_ANPR/ANPR_RZA2M_EBK/src/tensorflow_lite/tensorflow/lite/kernels/internal\common.h ****       x0 = vmaxq_f32(clamp_min_vec, x0);
 105:C:/Renesas/e2studio_2021_01_workspace_RZA2M_ANPR/ANPR_RZA2M_EBK/src/tensorflow_lite/tensorflow/lite/kernels/internal\common.h ****       x1 = vmaxq_f32(clamp_min_vec, x1);
 106:C:/Renesas/e2studio_2021_01_workspace_RZA2M_ANPR/ANPR_RZA2M_EBK/src/tensorflow_lite/tensorflow/lite/kernels/internal\common.h ****       x2 = vmaxq_f32(clamp_min_vec, x2);
 107:C:/Renesas/e2studio_2021_01_workspace_RZA2M_ANPR/ANPR_RZA2M_EBK/src/tensorflow_lite/tensorflow/lite/kernels/internal\common.h ****       x3 = vmaxq_f32(clamp_min_vec, x3);
 108:C:/Renesas/e2studio_2021_01_workspace_RZA2M_ANPR/ANPR_RZA2M_EBK/src/tensorflow_lite/tensorflow/lite/kernels/internal\common.h ****       x0 = vminq_f32(clamp_max_vec, x0);
 109:C:/Renesas/e2studio_2021_01_workspace_RZA2M_ANPR/ANPR_RZA2M_EBK/src/tensorflow_lite/tensorflow/lite/kernels/internal\common.h ****       x1 = vminq_f32(clamp_max_vec, x1);
 110:C:/Renesas/e2studio_2021_01_workspace_RZA2M_ANPR/ANPR_RZA2M_EBK/src/tensorflow_lite/tensorflow/lite/kernels/internal\common.h ****       x2 = vminq_f32(clamp_max_vec, x2);
 111:C:/Renesas/e2studio_2021_01_workspace_RZA2M_ANPR/ANPR_RZA2M_EBK/src/tensorflow_lite/tensorflow/lite/kernels/internal\common.h ****       x3 = vminq_f32(clamp_max_vec, x3);
 112:C:/Renesas/e2studio_2021_01_workspace_RZA2M_ANPR/ANPR_RZA2M_EBK/src/tensorflow_lite/tensorflow/lite/kernels/internal\common.h ****       vst1q_f32(array_ptr + i, x0);
 113:C:/Renesas/e2studio_2021_01_workspace_RZA2M_ANPR/ANPR_RZA2M_EBK/src/tensorflow_lite/tensorflow/lite/kernels/internal\common.h ****       vst1q_f32(array_ptr + i + 4, x1);
 114:C:/Renesas/e2studio_2021_01_workspace_RZA2M_ANPR/ANPR_RZA2M_EBK/src/tensorflow_lite/tensorflow/lite/kernels/internal\common.h ****       vst1q_f32(array_ptr + i + 8, x2);
 115:C:/Renesas/e2studio_2021_01_workspace_RZA2M_ANPR/ANPR_RZA2M_EBK/src/tensorflow_lite/tensorflow/lite/kernels/internal\common.h ****       vst1q_f32(array_ptr + i + 12, x3);
 116:C:/Renesas/e2studio_2021_01_workspace_RZA2M_ANPR/ANPR_RZA2M_EBK/src/tensorflow_lite/tensorflow/lite/kernels/internal\common.h ****     }
 117:C:/Renesas/e2studio_2021_01_workspace_RZA2M_ANPR/ANPR_RZA2M_EBK/src/tensorflow_lite/tensorflow/lite/kernels/internal\common.h ****     for (; i <= bias_size - 4; i += 4) {
 118:C:/Renesas/e2studio_2021_01_workspace_RZA2M_ANPR/ANPR_RZA2M_EBK/src/tensorflow_lite/tensorflow/lite/kernels/internal\common.h ****       auto b = vld1q_f32(bias_data + i);
 119:C:/Renesas/e2studio_2021_01_workspace_RZA2M_ANPR/ANPR_RZA2M_EBK/src/tensorflow_lite/tensorflow/lite/kernels/internal\common.h ****       auto a = vld1q_f32(array_ptr + i);
 120:C:/Renesas/e2studio_2021_01_workspace_RZA2M_ANPR/ANPR_RZA2M_EBK/src/tensorflow_lite/tensorflow/lite/kernels/internal\common.h ****       auto x = vaddq_f32(a, b);
 121:C:/Renesas/e2studio_2021_01_workspace_RZA2M_ANPR/ANPR_RZA2M_EBK/src/tensorflow_lite/tensorflow/lite/kernels/internal\common.h ****       x = vmaxq_f32(clamp_min_vec, x);
 122:C:/Renesas/e2studio_2021_01_workspace_RZA2M_ANPR/ANPR_RZA2M_EBK/src/tensorflow_lite/tensorflow/lite/kernels/internal\common.h ****       x = vminq_f32(clamp_max_vec, x);
 123:C:/Renesas/e2studio_2021_01_workspace_RZA2M_ANPR/ANPR_RZA2M_EBK/src/tensorflow_lite/tensorflow/lite/kernels/internal\common.h ****       vst1q_f32(array_ptr + i, x);
 124:C:/Renesas/e2studio_2021_01_workspace_RZA2M_ANPR/ANPR_RZA2M_EBK/src/tensorflow_lite/tensorflow/lite/kernels/internal\common.h ****     }
 125:C:/Renesas/e2studio_2021_01_workspace_RZA2M_ANPR/ANPR_RZA2M_EBK/src/tensorflow_lite/tensorflow/lite/kernels/internal\common.h ****     for (; i < bias_size; i++) {
 126:C:/Renesas/e2studio_2021_01_workspace_RZA2M_ANPR/ANPR_RZA2M_EBK/src/tensorflow_lite/tensorflow/lite/kernels/internal\common.h ****       array_ptr[i] = ActivationFunctionWithMinMax(array_ptr[i] + bias_data[i],
 127:C:/Renesas/e2studio_2021_01_workspace_RZA2M_ANPR/ANPR_RZA2M_EBK/src/tensorflow_lite/tensorflow/lite/kernels/internal\common.h ****                                                   clamp_min, clamp_max);
 128:C:/Renesas/e2studio_2021_01_workspace_RZA2M_ANPR/ANPR_RZA2M_EBK/src/tensorflow_lite/tensorflow/lite/kernels/internal\common.h ****     }
 129:C:/Renesas/e2studio_2021_01_workspace_RZA2M_ANPR/ANPR_RZA2M_EBK/src/tensorflow_lite/tensorflow/lite/kernels/internal\common.h ****   }
 130:C:/Renesas/e2studio_2021_01_workspace_RZA2M_ANPR/ANPR_RZA2M_EBK/src/tensorflow_lite/tensorflow/lite/kernels/internal\common.h **** #else  // not NEON
 131:C:/Renesas/e2studio_2021_01_workspace_RZA2M_ANPR/ANPR_RZA2M_EBK/src/tensorflow_lite/tensorflow/lite/kernels/internal\common.h ****   for (int array_offset = 0; array_offset < array_size;
 132:C:/Renesas/e2studio_2021_01_workspace_RZA2M_ANPR/ANPR_RZA2M_EBK/src/tensorflow_lite/tensorflow/lite/kernels/internal\common.h ****        array_offset += bias_size) {
 133:C:/Renesas/e2studio_2021_01_workspace_RZA2M_ANPR/ANPR_RZA2M_EBK/src/tensorflow_lite/tensorflow/lite/kernels/internal\common.h ****     for (int i = 0; i < bias_size; i++) {
 134:C:/Renesas/e2studio_2021_01_workspace_RZA2M_ANPR/ANPR_RZA2M_EBK/src/tensorflow_lite/tensorflow/lite/kernels/internal\common.h ****       array_data[array_offset + i] = ActivationFunctionWithMinMax(
 135:C:/Renesas/e2studio_2021_01_workspace_RZA2M_ANPR/ANPR_RZA2M_EBK/src/tensorflow_lite/tensorflow/lite/kernels/internal\common.h ****           array_data[array_offset + i] + bias_data[i], clamp_min, clamp_max);
 136:C:/Renesas/e2studio_2021_01_workspace_RZA2M_ANPR/ANPR_RZA2M_EBK/src/tensorflow_lite/tensorflow/lite/kernels/internal\common.h ****     }
 137:C:/Renesas/e2studio_2021_01_workspace_RZA2M_ANPR/ANPR_RZA2M_EBK/src/tensorflow_lite/tensorflow/lite/kernels/internal\common.h ****   }
 138:C:/Renesas/e2studio_2021_01_workspace_RZA2M_ANPR/ANPR_RZA2M_EBK/src/tensorflow_lite/tensorflow/lite/kernels/internal\common.h **** #endif
 139:C:/Renesas/e2studio_2021_01_workspace_RZA2M_ANPR/ANPR_RZA2M_EBK/src/tensorflow_lite/tensorflow/lite/kernels/internal\common.h **** }
 140:C:/Renesas/e2studio_2021_01_workspace_RZA2M_ANPR/ANPR_RZA2M_EBK/src/tensorflow_lite/tensorflow/lite/kernels/internal\common.h **** 
 141:C:/Renesas/e2studio_2021_01_workspace_RZA2M_ANPR/ANPR_RZA2M_EBK/src/tensorflow_lite/tensorflow/lite/kernels/internal\common.h **** inline int32_t MultiplyByQuantizedMultiplierSmallerThanOneExp(
 142:C:/Renesas/e2studio_2021_01_workspace_RZA2M_ANPR/ANPR_RZA2M_EBK/src/tensorflow_lite/tensorflow/lite/kernels/internal\common.h ****     int32_t x, int32_t quantized_multiplier, int left_shift) {
 143:C:/Renesas/e2studio_2021_01_workspace_RZA2M_ANPR/ANPR_RZA2M_EBK/src/tensorflow_lite/tensorflow/lite/kernels/internal\common.h ****   using gemmlowp::RoundingDivideByPOT;
 144:C:/Renesas/e2studio_2021_01_workspace_RZA2M_ANPR/ANPR_RZA2M_EBK/src/tensorflow_lite/tensorflow/lite/kernels/internal\common.h ****   using gemmlowp::SaturatingRoundingDoublingHighMul;
 145:C:/Renesas/e2studio_2021_01_workspace_RZA2M_ANPR/ANPR_RZA2M_EBK/src/tensorflow_lite/tensorflow/lite/kernels/internal\common.h ****   return RoundingDivideByPOT(
 146:C:/Renesas/e2studio_2021_01_workspace_RZA2M_ANPR/ANPR_RZA2M_EBK/src/tensorflow_lite/tensorflow/lite/kernels/internal\common.h ****       SaturatingRoundingDoublingHighMul(x, quantized_multiplier), -left_shift);
 147:C:/Renesas/e2studio_2021_01_workspace_RZA2M_ANPR/ANPR_RZA2M_EBK/src/tensorflow_lite/tensorflow/lite/kernels/internal\common.h **** }
 148:C:/Renesas/e2studio_2021_01_workspace_RZA2M_ANPR/ANPR_RZA2M_EBK/src/tensorflow_lite/tensorflow/lite/kernels/internal\common.h **** 
 149:C:/Renesas/e2studio_2021_01_workspace_RZA2M_ANPR/ANPR_RZA2M_EBK/src/tensorflow_lite/tensorflow/lite/kernels/internal\common.h **** inline int32_t MultiplyByQuantizedMultiplierGreaterThanOne(
 150:C:/Renesas/e2studio_2021_01_workspace_RZA2M_ANPR/ANPR_RZA2M_EBK/src/tensorflow_lite/tensorflow/lite/kernels/internal\common.h ****     int32_t x, int32_t quantized_multiplier, int left_shift) {
 151:C:/Renesas/e2studio_2021_01_workspace_RZA2M_ANPR/ANPR_RZA2M_EBK/src/tensorflow_lite/tensorflow/lite/kernels/internal\common.h ****   using gemmlowp::SaturatingRoundingDoublingHighMul;
 152:C:/Renesas/e2studio_2021_01_workspace_RZA2M_ANPR/ANPR_RZA2M_EBK/src/tensorflow_lite/tensorflow/lite/kernels/internal\common.h ****   return SaturatingRoundingDoublingHighMul(x * (1 << left_shift),
 153:C:/Renesas/e2studio_2021_01_workspace_RZA2M_ANPR/ANPR_RZA2M_EBK/src/tensorflow_lite/tensorflow/lite/kernels/internal\common.h ****                                            quantized_multiplier);
 154:C:/Renesas/e2studio_2021_01_workspace_RZA2M_ANPR/ANPR_RZA2M_EBK/src/tensorflow_lite/tensorflow/lite/kernels/internal\common.h **** }
 155:C:/Renesas/e2studio_2021_01_workspace_RZA2M_ANPR/ANPR_RZA2M_EBK/src/tensorflow_lite/tensorflow/lite/kernels/internal\common.h **** 
 156:C:/Renesas/e2studio_2021_01_workspace_RZA2M_ANPR/ANPR_RZA2M_EBK/src/tensorflow_lite/tensorflow/lite/kernels/internal\common.h **** inline int32_t MultiplyByQuantizedMultiplier(int32_t x,
 157:C:/Renesas/e2studio_2021_01_workspace_RZA2M_ANPR/ANPR_RZA2M_EBK/src/tensorflow_lite/tensorflow/lite/kernels/internal\common.h ****                                              int32_t quantized_multiplier,
 158:C:/Renesas/e2studio_2021_01_workspace_RZA2M_ANPR/ANPR_RZA2M_EBK/src/tensorflow_lite/tensorflow/lite/kernels/internal\common.h ****                                              int shift) {
 159:C:/Renesas/e2studio_2021_01_workspace_RZA2M_ANPR/ANPR_RZA2M_EBK/src/tensorflow_lite/tensorflow/lite/kernels/internal\common.h ****   using gemmlowp::RoundingDivideByPOT;
 160:C:/Renesas/e2studio_2021_01_workspace_RZA2M_ANPR/ANPR_RZA2M_EBK/src/tensorflow_lite/tensorflow/lite/kernels/internal\common.h ****   using gemmlowp::SaturatingRoundingDoublingHighMul;
 161:C:/Renesas/e2studio_2021_01_workspace_RZA2M_ANPR/ANPR_RZA2M_EBK/src/tensorflow_lite/tensorflow/lite/kernels/internal\common.h ****   int left_shift = shift > 0 ? shift : 0;
 162:C:/Renesas/e2studio_2021_01_workspace_RZA2M_ANPR/ANPR_RZA2M_EBK/src/tensorflow_lite/tensorflow/lite/kernels/internal\common.h ****   int right_shift = shift > 0 ? 0 : -shift;
 3304              		.loc 8 162 0
 3305 00f0 003063E2 		rsb	r3, r3, #0
 3306 00f4 0030A0C3 		movgt	r3, #0
 3307 00f8 1C308DE5 		str	r3, [sp, #28]
 3308              	.LBB3697:
 3309              	.LBB3691:
 360:C:/Renesas/e2studio_2021_01_workspace_RZA2M_ANPR/ANPR_RZA2M_EBK/src/tensorflow_lite/third_party/gemmlowp/fixedpoint\fixedpoint.h ****   const IntegerType zero = Dup<IntegerType>(0);
 3310              		.loc 5 360 0
 3311 00fc 903B02EE 		vmov.32	d18[0], r3
 3312 0100 C22FC2E1 		bic	r2, r2, r2, asr #31
 3313 0104 A01472F3 		vshl.u64	d17, d16, d18
 3314 0108 30208DE5 		str	r2, [sp, #48]
 3315 010c 310B51EC 		vmov	r0, r1, d17	@ int
 3316              	.LBE3691:
 3317              	.LBE3697:
 3318              	.LBE3674:
 3319              	.LBE3673:
 3320              	.LBE3672:
 3321              	.LBE3671:
 3322              	.LBE3670:
 3323              	.LBE3669:
 3324              	.LBB3789:
 3325              	.LBB3790:
 3326              	.LBB3791:
 3327              	.LBB3792:
 3328 0110 902B01EE 		vmov.32	d17[0], r2
 3329              	.LBE3792:
 3330              	.LBE3791:
 3331              	.LBE3790:
 3332              	.LBE3789:
 3333              	.LBB3844:
 3334              	.LBB3778:
 3335              	.LBB3767:
 3336              	.LBB3757:
 3337              	.LBB3720:
 3338              	.LBB3711:
 3339              	.LBB3698:
 3340              	.LBB3692:
 3341 0114 011040E2 		sub	r1, r0, #1
 3342 0118 10108DE5 		str	r1, [sp, #16]
 3343              	.LBE3692:
 3344              	.LBE3698:
 3345              	.LBE3711:
 3346              	.LBE3720:
 3347              	.LBE3757:
 3348              	.LBE3767:
 3349              	.LBE3778:
 3350              	.LBE3844:
 3351              	.LBB3845:
 3352              	.LBB3846:
 3353              	.LBB3847:
 3354              	.LBB3848:
 3355              	.LBB3849:
 3356              	.LBB3850:
 3357              	.LBB3851:
 334:C:/Renesas/e2studio_2021_01_workspace_RZA2M_ANPR/ANPR_RZA2M_EBK/src/tensorflow_lite/third_party/gemmlowp/fixedpoint\fixedpoint.h ****   std::int32_t nudge = ab_64 >= 0 ? (1 << 30) : (1 - (1 << 30));
 3358              		.loc 5 334 0
 3359 011c D10700E3 		movw	r0, #2001
 3360              	.LBE3851:
 3361              	.LBE3850:
 3362              	.LBE3849:
 3363              	.LBE3848:
 3364              	.LBE3847:
 3365              	.LBE3846:
 3366              	.LBE3845:
 3367              	.LBB4332:
 3368              	.LBB3833:
 3369              	.LBB3818:
 3370              	.LBB3811:
 360:C:/Renesas/e2studio_2021_01_workspace_RZA2M_ANPR/ANPR_RZA2M_EBK/src/tensorflow_lite/third_party/gemmlowp/fixedpoint\fixedpoint.h ****   const IntegerType zero = Dup<IntegerType>(0);
 3371              		.loc 5 360 0
 3372 0120 A00471F3 		vshl.u64	d16, d16, d17
 3373              	.LBE3811:
 3374              	.LBE3818:
 3375              	.LBE3833:
 3376              	.LBE4332:
 3377              	.LBB4333:
 3378              	.LBB4316:
 3379              	.LBB4300:
 3380              	.LBB3861:
 3381              	.LBB3858:
 3382              	.LBB3855:
 3383              	.LBB3852:
 334:C:/Renesas/e2studio_2021_01_workspace_RZA2M_ANPR/ANPR_RZA2M_EBK/src/tensorflow_lite/third_party/gemmlowp/fixedpoint\fixedpoint.h ****   std::int32_t nudge = ab_64 >= 0 ? (1 << 30) : (1 - (1 << 30));
 3384              		.loc 5 334 0
 3385 0124 FA0640E3 		movt	r0, 1786
 3386 0128 70008DE5 		str	r0, [sp, #112]
 3387              	.LBE3852:
 3388              	.LBE3855:
 3389              	.LBE3858:
 3390              	.LBE3861:
 3391              	.LBE4300:
 3392              	.LBE4316:
 3393              	.LBE4333:
 3394              	.LBB4334:
 3395              	.LBB3834:
 3396              	.LBB3819:
 3397              	.LBB3812:
 360:C:/Renesas/e2studio_2021_01_workspace_RZA2M_ANPR/ANPR_RZA2M_EBK/src/tensorflow_lite/third_party/gemmlowp/fixedpoint\fixedpoint.h ****   const IntegerType zero = Dup<IntegerType>(0);
 3398              		.loc 5 360 0
 3399 012c 302B53EC 		vmov	r2, r3, d16	@ int
 3400 0130 013042E2 		sub	r3, r2, #1
 3401              	.LBE3812:
 3402              	.LBE3819:
 3403              	.LBE3834:
 3404              	.LBE4334:
 3405              	.LBB4335:
 3406              	.LBB3779:
 3407              	.LBB3768:
 3408              	.LBB3758:
 3409              	.LBB3721:
 3410              	.LBB3712:
 3411              	.LBB3699:
 3412              	.LBB3693:
 3413              	.LBB3677:
 3414              	.LBB3678:
 141:C:/Renesas/e2studio_2021_01_workspace_RZA2M_ANPR/ANPR_RZA2M_EBK/src/tensorflow_lite/third_party/gemmlowp/fixedpoint\fixedpoint.h **** }
 3415              		.loc 5 141 0
 3416 0134 C120A0E1 		asr	r2, r1, #1
 3417              	.LBE3678:
 3418              	.LBE3677:
 3419              	.LBE3693:
 3420              	.LBE3699:
 3421              	.LBE3712:
 3422              	.LBE3721:
 3423              	.LBE3758:
 3424              	.LBE3768:
 3425              	.LBE3779:
 3426              	.LBE4335:
 3427              	.LBB4336:
 3428              	.LBB3835:
 3429              	.LBB3820:
 3430              	.LBB3813:
 360:C:/Renesas/e2studio_2021_01_workspace_RZA2M_ANPR/ANPR_RZA2M_EBK/src/tensorflow_lite/third_party/gemmlowp/fixedpoint\fixedpoint.h ****   const IntegerType zero = Dup<IntegerType>(0);
 3431              		.loc 5 360 0
 3432 0138 64308DE5 		str	r3, [sp, #100]
 3433              	.LBB3793:
 3434              	.LBB3794:
 141:C:/Renesas/e2studio_2021_01_workspace_RZA2M_ANPR/ANPR_RZA2M_EBK/src/tensorflow_lite/third_party/gemmlowp/fixedpoint\fixedpoint.h **** }
 3435              		.loc 5 141 0
 3436 013c C330A0E1 		asr	r3, r3, #1
 3437              	.LBE3794:
 3438              	.LBE3793:
 3439              	.LBE3813:
 3440              	.LBE3820:
 3441              	.LBE3835:
 3442              	.LBE4336:
 3443              	.LBB4337:
 3444              	.LBB3780:
 3445              	.LBB3769:
 3446              	.LBB3759:
 3447              	.LBB3722:
 3448              	.LBB3713:
 3449              	.LBB3700:
 3450              	.LBB3694:
 3451              	.LBB3680:
 3452              	.LBB3679:
 3453 0140 20208DE5 		str	r2, [sp, #32]
 3454              	.LBE3679:
 3455              	.LBE3680:
 3456              	.LBE3694:
 3457              	.LBE3700:
 3458              	.LBE3713:
 3459              	.LBE3722:
 3460              	.LBE3759:
 3461              	.LBE3769:
 3462              	.LBE3780:
 3463              	.LBE4337:
 3464              	.LBB4338:
 3465              	.LBB4317:
 3466              	.LBB4301:
 3467              	.LBB3862:
 3468              	.LBB3863:
 3469              	.LBB3864:
 106:C:/Renesas/e2studio_2021_01_workspace_RZA2M_ANPR/ANPR_RZA2M_EBK/src/tensorflow_lite/third_party/gemmlowp/fixedpoint\fixedpoint.h **** }
 3470              		.loc 5 106 0
 3471 0144 9B2108E3 		movw	r2, #33179
 3472              	.LBE3864:
 3473              	.LBE3863:
 3474              	.LBE3862:
 3475              	.LBE4301:
 3476              	.LBE4317:
 3477              	.LBE4338:
 3478              	.LBB4339:
 3479              	.LBB3836:
 3480              	.LBB3821:
 3481              	.LBB3814:
 3482              	.LBB3797:
 3483              	.LBB3795:
 141:C:/Renesas/e2studio_2021_01_workspace_RZA2M_ANPR/ANPR_RZA2M_EBK/src/tensorflow_lite/third_party/gemmlowp/fixedpoint\fixedpoint.h **** }
 3484              		.loc 5 141 0
 3485 0148 68308DE5 		str	r3, [sp, #104]
 3486 014c 9A3907E3 		movw	r3, #31130
 3487 0150 823A45E3 		movt	r3, 23170
 3488              	.LBE3795:
 3489              	.LBE3797:
 3490              	.LBE3814:
 3491              	.LBE3821:
 3492              	.LBE3836:
 3493              	.LBE4339:
 3494              	.LBB4340:
 3495              	.LBB4318:
 3496              	.LBB4302:
 3497              	.LBB3869:
 3498              	.LBB3867:
 3499              	.LBB3865:
 106:C:/Renesas/e2studio_2021_01_workspace_RZA2M_ANPR/ANPR_RZA2M_EBK/src/tensorflow_lite/third_party/gemmlowp/fixedpoint\fixedpoint.h **** }
 3500              		.loc 5 106 0
 3501 0154 5D2449E3 		movt	r2, 37981
 3502 0158 4C308DE5 		str	r3, [sp, #76]
 3503 015c 9E1506E3 		movw	r1, #26014
 3504 0160 50309DE5 		ldr	r3, [sp, #80]
 3505 0164 9C1740E3 		movt	r1, 1948
 3506 0168 6C208DE5 		str	r2, [sp, #108]
 3507 016c 14209DE5 		ldr	r2, [sp, #20]
 3508 0170 18308DE5 		str	r3, [sp, #24]
 3509 0174 74108DE5 		str	r1, [sp, #116]
 3510 0178 02B083E0 		add	fp, r3, r2
 3511              	.LBE3865:
 3512              	.LBE3867:
 3513              	.LBE3869:
 3514              	.LBE4302:
 3515              	.LBE4318:
 3516              	.LBE4340:
 3517              	.LBB4341:
 3518              	.LBB3837:
 3519              	.LBB3822:
 3520              	.LBB3815:
 3521              	.LBB3798:
 3522              	.LBB3796:
 141:C:/Renesas/e2studio_2021_01_workspace_RZA2M_ANPR/ANPR_RZA2M_EBK/src/tensorflow_lite/third_party/gemmlowp/fixedpoint\fixedpoint.h **** }
 3523              		.loc 5 141 0
 3524 017c 60309DE5 		ldr	r3, [sp, #96]
 3525 0180 24308DE5 		str	r3, [sp, #36]
 3526 0184 0030A0E3 		mov	r3, #0
 3527 0188 34308DE5 		str	r3, [sp, #52]
 3528              	.LVL227:
 3529              	.L219:
 3530              	.LBE3796:
 3531              	.LBE3798:
 3532              	.LBE3815:
 3533              	.LBE3822:
 3534              	.LBE3837:
 3535              	.LBE4341:
 3536              	.LBB4342:
 180:C:/Renesas/e2studio_2021_01_workspace_RZA2M_ANPR/ANPR_RZA2M_EBK/src/tensorflow_lite/tensorflow/lite/kernels/internal/reference\log_softmax.h ****     T max_in_row = kMinT8;
 181:C:/Renesas/e2studio_2021_01_workspace_RZA2M_ANPR/ANPR_RZA2M_EBK/src/tensorflow_lite/tensorflow/lite/kernels/internal/reference\log_softmax.h ****     for (size_t inner_index = 0; inner_index < depth; ++inner_index) {
 3537              		.loc 7 181 0
 3538 018c 14309DE5 		ldr	r3, [sp, #20]
 3539              	.LBE4342:
 180:C:/Renesas/e2studio_2021_01_workspace_RZA2M_ANPR/ANPR_RZA2M_EBK/src/tensorflow_lite/tensorflow/lite/kernels/internal/reference\log_softmax.h ****     T max_in_row = kMinT8;
 3540              		.loc 7 180 0
 3541 0190 7F40E0E3 		mvn	r4, #127
 3542 0194 7B40CDE5 		strb	r4, [sp, #123]
 3543              	.LVL228:
 3544              	.LBB4351:
 3545              		.loc 7 181 0
 3546 0198 000053E3 		cmp	r3, #0
 3547 019c 6E04000A 		beq	.L265
 3548 01a0 18209DE5 		ldr	r2, [sp, #24]
 3549 01a4 24109DE5 		ldr	r1, [sp, #36]
 3550 01a8 60009DE5 		ldr	r0, [sp, #96]
 3551 01ac 072002E2 		and	r2, r2, #7
 3552 01b0 002062E2 		rsb	r2, r2, #0
 3553 01b4 0F2002E2 		and	r2, r2, #15
 3554 01b8 001041E0 		sub	r1, r1, r0
 3555 01bc 030052E1 		cmp	r2, r3
 3556 01c0 0320A021 		movcs	r2, r3
 3557 01c4 120053E3 		cmp	r3, #18
 3558 01c8 0320A091 		movls	r2, r3
 3559 01cc 2503008A 		bhi	.L391
 3560              	.L176:
 3561 01d0 18C09DE5 		ldr	ip, [sp, #24]
 3562 01d4 7F40E0E3 		mvn	r4, #127
 3563 01d8 0030A0E3 		mov	r3, #0
 3564              	.LVL229:
 3565              	.L178:
 3566              	.LBB4343:
 3567              	.LBB4344:
 3568              		.file 9 "c:\\program files (x86)\\gnu tools arm embedded\\6 2017-q2-update\\arm-none-eabi\\include
   1:c:\program files (x86)\gnu tools arm embedded\6 2017-q2-update\arm-none-eabi\include\c++\6.3.1\bits\stl_algobase.h **** // Core algorithmic facilities -*- C++ -*-
   2:c:\program files (x86)\gnu tools arm embedded\6 2017-q2-update\arm-none-eabi\include\c++\6.3.1\bits\stl_algobase.h **** 
   3:c:\program files (x86)\gnu tools arm embedded\6 2017-q2-update\arm-none-eabi\include\c++\6.3.1\bits\stl_algobase.h **** // Copyright (C) 2001-2016 Free Software Foundation, Inc.
   4:c:\program files (x86)\gnu tools arm embedded\6 2017-q2-update\arm-none-eabi\include\c++\6.3.1\bits\stl_algobase.h **** //
   5:c:\program files (x86)\gnu tools arm embedded\6 2017-q2-update\arm-none-eabi\include\c++\6.3.1\bits\stl_algobase.h **** // This file is part of the GNU ISO C++ Library.  This library is free
   6:c:\program files (x86)\gnu tools arm embedded\6 2017-q2-update\arm-none-eabi\include\c++\6.3.1\bits\stl_algobase.h **** // software; you can redistribute it and/or modify it under the
   7:c:\program files (x86)\gnu tools arm embedded\6 2017-q2-update\arm-none-eabi\include\c++\6.3.1\bits\stl_algobase.h **** // terms of the GNU General Public License as published by the
   8:c:\program files (x86)\gnu tools arm embedded\6 2017-q2-update\arm-none-eabi\include\c++\6.3.1\bits\stl_algobase.h **** // Free Software Foundation; either version 3, or (at your option)
   9:c:\program files (x86)\gnu tools arm embedded\6 2017-q2-update\arm-none-eabi\include\c++\6.3.1\bits\stl_algobase.h **** // any later version.
  10:c:\program files (x86)\gnu tools arm embedded\6 2017-q2-update\arm-none-eabi\include\c++\6.3.1\bits\stl_algobase.h **** 
  11:c:\program files (x86)\gnu tools arm embedded\6 2017-q2-update\arm-none-eabi\include\c++\6.3.1\bits\stl_algobase.h **** // This library is distributed in the hope that it will be useful,
  12:c:\program files (x86)\gnu tools arm embedded\6 2017-q2-update\arm-none-eabi\include\c++\6.3.1\bits\stl_algobase.h **** // but WITHOUT ANY WARRANTY; without even the implied warranty of
  13:c:\program files (x86)\gnu tools arm embedded\6 2017-q2-update\arm-none-eabi\include\c++\6.3.1\bits\stl_algobase.h **** // MERCHANTABILITY or FITNESS FOR A PARTICULAR PURPOSE.  See the
  14:c:\program files (x86)\gnu tools arm embedded\6 2017-q2-update\arm-none-eabi\include\c++\6.3.1\bits\stl_algobase.h **** // GNU General Public License for more details.
  15:c:\program files (x86)\gnu tools arm embedded\6 2017-q2-update\arm-none-eabi\include\c++\6.3.1\bits\stl_algobase.h **** 
  16:c:\program files (x86)\gnu tools arm embedded\6 2017-q2-update\arm-none-eabi\include\c++\6.3.1\bits\stl_algobase.h **** // Under Section 7 of GPL version 3, you are granted additional
  17:c:\program files (x86)\gnu tools arm embedded\6 2017-q2-update\arm-none-eabi\include\c++\6.3.1\bits\stl_algobase.h **** // permissions described in the GCC Runtime Library Exception, version
  18:c:\program files (x86)\gnu tools arm embedded\6 2017-q2-update\arm-none-eabi\include\c++\6.3.1\bits\stl_algobase.h **** // 3.1, as published by the Free Software Foundation.
  19:c:\program files (x86)\gnu tools arm embedded\6 2017-q2-update\arm-none-eabi\include\c++\6.3.1\bits\stl_algobase.h **** 
  20:c:\program files (x86)\gnu tools arm embedded\6 2017-q2-update\arm-none-eabi\include\c++\6.3.1\bits\stl_algobase.h **** // You should have received a copy of the GNU General Public License and
  21:c:\program files (x86)\gnu tools arm embedded\6 2017-q2-update\arm-none-eabi\include\c++\6.3.1\bits\stl_algobase.h **** // a copy of the GCC Runtime Library Exception along with this program;
  22:c:\program files (x86)\gnu tools arm embedded\6 2017-q2-update\arm-none-eabi\include\c++\6.3.1\bits\stl_algobase.h **** // see the files COPYING3 and COPYING.RUNTIME respectively.  If not, see
  23:c:\program files (x86)\gnu tools arm embedded\6 2017-q2-update\arm-none-eabi\include\c++\6.3.1\bits\stl_algobase.h **** // <http://www.gnu.org/licenses/>.
  24:c:\program files (x86)\gnu tools arm embedded\6 2017-q2-update\arm-none-eabi\include\c++\6.3.1\bits\stl_algobase.h **** 
  25:c:\program files (x86)\gnu tools arm embedded\6 2017-q2-update\arm-none-eabi\include\c++\6.3.1\bits\stl_algobase.h **** /*
  26:c:\program files (x86)\gnu tools arm embedded\6 2017-q2-update\arm-none-eabi\include\c++\6.3.1\bits\stl_algobase.h ****  *
  27:c:\program files (x86)\gnu tools arm embedded\6 2017-q2-update\arm-none-eabi\include\c++\6.3.1\bits\stl_algobase.h ****  * Copyright (c) 1994
  28:c:\program files (x86)\gnu tools arm embedded\6 2017-q2-update\arm-none-eabi\include\c++\6.3.1\bits\stl_algobase.h ****  * Hewlett-Packard Company
  29:c:\program files (x86)\gnu tools arm embedded\6 2017-q2-update\arm-none-eabi\include\c++\6.3.1\bits\stl_algobase.h ****  *
  30:c:\program files (x86)\gnu tools arm embedded\6 2017-q2-update\arm-none-eabi\include\c++\6.3.1\bits\stl_algobase.h ****  * Permission to use, copy, modify, distribute and sell this software
  31:c:\program files (x86)\gnu tools arm embedded\6 2017-q2-update\arm-none-eabi\include\c++\6.3.1\bits\stl_algobase.h ****  * and its documentation for any purpose is hereby granted without fee,
  32:c:\program files (x86)\gnu tools arm embedded\6 2017-q2-update\arm-none-eabi\include\c++\6.3.1\bits\stl_algobase.h ****  * provided that the above copyright notice appear in all copies and
  33:c:\program files (x86)\gnu tools arm embedded\6 2017-q2-update\arm-none-eabi\include\c++\6.3.1\bits\stl_algobase.h ****  * that both that copyright notice and this permission notice appear
  34:c:\program files (x86)\gnu tools arm embedded\6 2017-q2-update\arm-none-eabi\include\c++\6.3.1\bits\stl_algobase.h ****  * in supporting documentation.  Hewlett-Packard Company makes no
  35:c:\program files (x86)\gnu tools arm embedded\6 2017-q2-update\arm-none-eabi\include\c++\6.3.1\bits\stl_algobase.h ****  * representations about the suitability of this software for any
  36:c:\program files (x86)\gnu tools arm embedded\6 2017-q2-update\arm-none-eabi\include\c++\6.3.1\bits\stl_algobase.h ****  * purpose.  It is provided "as is" without express or implied warranty.
  37:c:\program files (x86)\gnu tools arm embedded\6 2017-q2-update\arm-none-eabi\include\c++\6.3.1\bits\stl_algobase.h ****  *
  38:c:\program files (x86)\gnu tools arm embedded\6 2017-q2-update\arm-none-eabi\include\c++\6.3.1\bits\stl_algobase.h ****  *
  39:c:\program files (x86)\gnu tools arm embedded\6 2017-q2-update\arm-none-eabi\include\c++\6.3.1\bits\stl_algobase.h ****  * Copyright (c) 1996-1998
  40:c:\program files (x86)\gnu tools arm embedded\6 2017-q2-update\arm-none-eabi\include\c++\6.3.1\bits\stl_algobase.h ****  * Silicon Graphics Computer Systems, Inc.
  41:c:\program files (x86)\gnu tools arm embedded\6 2017-q2-update\arm-none-eabi\include\c++\6.3.1\bits\stl_algobase.h ****  *
  42:c:\program files (x86)\gnu tools arm embedded\6 2017-q2-update\arm-none-eabi\include\c++\6.3.1\bits\stl_algobase.h ****  * Permission to use, copy, modify, distribute and sell this software
  43:c:\program files (x86)\gnu tools arm embedded\6 2017-q2-update\arm-none-eabi\include\c++\6.3.1\bits\stl_algobase.h ****  * and its documentation for any purpose is hereby granted without fee,
  44:c:\program files (x86)\gnu tools arm embedded\6 2017-q2-update\arm-none-eabi\include\c++\6.3.1\bits\stl_algobase.h ****  * provided that the above copyright notice appear in all copies and
  45:c:\program files (x86)\gnu tools arm embedded\6 2017-q2-update\arm-none-eabi\include\c++\6.3.1\bits\stl_algobase.h ****  * that both that copyright notice and this permission notice appear
  46:c:\program files (x86)\gnu tools arm embedded\6 2017-q2-update\arm-none-eabi\include\c++\6.3.1\bits\stl_algobase.h ****  * in supporting documentation.  Silicon Graphics makes no
  47:c:\program files (x86)\gnu tools arm embedded\6 2017-q2-update\arm-none-eabi\include\c++\6.3.1\bits\stl_algobase.h ****  * representations about the suitability of this software for any
  48:c:\program files (x86)\gnu tools arm embedded\6 2017-q2-update\arm-none-eabi\include\c++\6.3.1\bits\stl_algobase.h ****  * purpose.  It is provided "as is" without express or implied warranty.
  49:c:\program files (x86)\gnu tools arm embedded\6 2017-q2-update\arm-none-eabi\include\c++\6.3.1\bits\stl_algobase.h ****  */
  50:c:\program files (x86)\gnu tools arm embedded\6 2017-q2-update\arm-none-eabi\include\c++\6.3.1\bits\stl_algobase.h **** 
  51:c:\program files (x86)\gnu tools arm embedded\6 2017-q2-update\arm-none-eabi\include\c++\6.3.1\bits\stl_algobase.h **** /** @file bits/stl_algobase.h
  52:c:\program files (x86)\gnu tools arm embedded\6 2017-q2-update\arm-none-eabi\include\c++\6.3.1\bits\stl_algobase.h ****  *  This is an internal header file, included by other library headers.
  53:c:\program files (x86)\gnu tools arm embedded\6 2017-q2-update\arm-none-eabi\include\c++\6.3.1\bits\stl_algobase.h ****  *  Do not attempt to use it directly. @headername{algorithm}
  54:c:\program files (x86)\gnu tools arm embedded\6 2017-q2-update\arm-none-eabi\include\c++\6.3.1\bits\stl_algobase.h ****  */
  55:c:\program files (x86)\gnu tools arm embedded\6 2017-q2-update\arm-none-eabi\include\c++\6.3.1\bits\stl_algobase.h **** 
  56:c:\program files (x86)\gnu tools arm embedded\6 2017-q2-update\arm-none-eabi\include\c++\6.3.1\bits\stl_algobase.h **** #ifndef _STL_ALGOBASE_H
  57:c:\program files (x86)\gnu tools arm embedded\6 2017-q2-update\arm-none-eabi\include\c++\6.3.1\bits\stl_algobase.h **** #define _STL_ALGOBASE_H 1
  58:c:\program files (x86)\gnu tools arm embedded\6 2017-q2-update\arm-none-eabi\include\c++\6.3.1\bits\stl_algobase.h **** 
  59:c:\program files (x86)\gnu tools arm embedded\6 2017-q2-update\arm-none-eabi\include\c++\6.3.1\bits\stl_algobase.h **** #include <bits/c++config.h>
  60:c:\program files (x86)\gnu tools arm embedded\6 2017-q2-update\arm-none-eabi\include\c++\6.3.1\bits\stl_algobase.h **** #include <bits/functexcept.h>
  61:c:\program files (x86)\gnu tools arm embedded\6 2017-q2-update\arm-none-eabi\include\c++\6.3.1\bits\stl_algobase.h **** #include <bits/cpp_type_traits.h>
  62:c:\program files (x86)\gnu tools arm embedded\6 2017-q2-update\arm-none-eabi\include\c++\6.3.1\bits\stl_algobase.h **** #include <ext/type_traits.h>
  63:c:\program files (x86)\gnu tools arm embedded\6 2017-q2-update\arm-none-eabi\include\c++\6.3.1\bits\stl_algobase.h **** #include <ext/numeric_traits.h>
  64:c:\program files (x86)\gnu tools arm embedded\6 2017-q2-update\arm-none-eabi\include\c++\6.3.1\bits\stl_algobase.h **** #include <bits/stl_pair.h>
  65:c:\program files (x86)\gnu tools arm embedded\6 2017-q2-update\arm-none-eabi\include\c++\6.3.1\bits\stl_algobase.h **** #include <bits/stl_iterator_base_types.h>
  66:c:\program files (x86)\gnu tools arm embedded\6 2017-q2-update\arm-none-eabi\include\c++\6.3.1\bits\stl_algobase.h **** #include <bits/stl_iterator_base_funcs.h>
  67:c:\program files (x86)\gnu tools arm embedded\6 2017-q2-update\arm-none-eabi\include\c++\6.3.1\bits\stl_algobase.h **** #include <bits/stl_iterator.h>
  68:c:\program files (x86)\gnu tools arm embedded\6 2017-q2-update\arm-none-eabi\include\c++\6.3.1\bits\stl_algobase.h **** #include <bits/concept_check.h>
  69:c:\program files (x86)\gnu tools arm embedded\6 2017-q2-update\arm-none-eabi\include\c++\6.3.1\bits\stl_algobase.h **** #include <debug/debug.h>
  70:c:\program files (x86)\gnu tools arm embedded\6 2017-q2-update\arm-none-eabi\include\c++\6.3.1\bits\stl_algobase.h **** #include <bits/move.h> // For std::swap and _GLIBCXX_MOVE
  71:c:\program files (x86)\gnu tools arm embedded\6 2017-q2-update\arm-none-eabi\include\c++\6.3.1\bits\stl_algobase.h **** #include <bits/predefined_ops.h>
  72:c:\program files (x86)\gnu tools arm embedded\6 2017-q2-update\arm-none-eabi\include\c++\6.3.1\bits\stl_algobase.h **** 
  73:c:\program files (x86)\gnu tools arm embedded\6 2017-q2-update\arm-none-eabi\include\c++\6.3.1\bits\stl_algobase.h **** namespace std _GLIBCXX_VISIBILITY(default)
  74:c:\program files (x86)\gnu tools arm embedded\6 2017-q2-update\arm-none-eabi\include\c++\6.3.1\bits\stl_algobase.h **** {
  75:c:\program files (x86)\gnu tools arm embedded\6 2017-q2-update\arm-none-eabi\include\c++\6.3.1\bits\stl_algobase.h **** _GLIBCXX_BEGIN_NAMESPACE_VERSION
  76:c:\program files (x86)\gnu tools arm embedded\6 2017-q2-update\arm-none-eabi\include\c++\6.3.1\bits\stl_algobase.h **** 
  77:c:\program files (x86)\gnu tools arm embedded\6 2017-q2-update\arm-none-eabi\include\c++\6.3.1\bits\stl_algobase.h **** #if __cplusplus < 201103L
  78:c:\program files (x86)\gnu tools arm embedded\6 2017-q2-update\arm-none-eabi\include\c++\6.3.1\bits\stl_algobase.h ****   // See http://gcc.gnu.org/ml/libstdc++/2004-08/msg00167.html: in a
  79:c:\program files (x86)\gnu tools arm embedded\6 2017-q2-update\arm-none-eabi\include\c++\6.3.1\bits\stl_algobase.h ****   // nutshell, we are partially implementing the resolution of DR 187,
  80:c:\program files (x86)\gnu tools arm embedded\6 2017-q2-update\arm-none-eabi\include\c++\6.3.1\bits\stl_algobase.h ****   // when it's safe, i.e., the value_types are equal.
  81:c:\program files (x86)\gnu tools arm embedded\6 2017-q2-update\arm-none-eabi\include\c++\6.3.1\bits\stl_algobase.h ****   template<bool _BoolType>
  82:c:\program files (x86)\gnu tools arm embedded\6 2017-q2-update\arm-none-eabi\include\c++\6.3.1\bits\stl_algobase.h ****     struct __iter_swap
  83:c:\program files (x86)\gnu tools arm embedded\6 2017-q2-update\arm-none-eabi\include\c++\6.3.1\bits\stl_algobase.h ****     {
  84:c:\program files (x86)\gnu tools arm embedded\6 2017-q2-update\arm-none-eabi\include\c++\6.3.1\bits\stl_algobase.h ****       template<typename _ForwardIterator1, typename _ForwardIterator2>
  85:c:\program files (x86)\gnu tools arm embedded\6 2017-q2-update\arm-none-eabi\include\c++\6.3.1\bits\stl_algobase.h ****         static void
  86:c:\program files (x86)\gnu tools arm embedded\6 2017-q2-update\arm-none-eabi\include\c++\6.3.1\bits\stl_algobase.h ****         iter_swap(_ForwardIterator1 __a, _ForwardIterator2 __b)
  87:c:\program files (x86)\gnu tools arm embedded\6 2017-q2-update\arm-none-eabi\include\c++\6.3.1\bits\stl_algobase.h ****         {
  88:c:\program files (x86)\gnu tools arm embedded\6 2017-q2-update\arm-none-eabi\include\c++\6.3.1\bits\stl_algobase.h ****           typedef typename iterator_traits<_ForwardIterator1>::value_type
  89:c:\program files (x86)\gnu tools arm embedded\6 2017-q2-update\arm-none-eabi\include\c++\6.3.1\bits\stl_algobase.h ****             _ValueType1;
  90:c:\program files (x86)\gnu tools arm embedded\6 2017-q2-update\arm-none-eabi\include\c++\6.3.1\bits\stl_algobase.h ****           _ValueType1 __tmp = _GLIBCXX_MOVE(*__a);
  91:c:\program files (x86)\gnu tools arm embedded\6 2017-q2-update\arm-none-eabi\include\c++\6.3.1\bits\stl_algobase.h ****           *__a = _GLIBCXX_MOVE(*__b);
  92:c:\program files (x86)\gnu tools arm embedded\6 2017-q2-update\arm-none-eabi\include\c++\6.3.1\bits\stl_algobase.h ****           *__b = _GLIBCXX_MOVE(__tmp);
  93:c:\program files (x86)\gnu tools arm embedded\6 2017-q2-update\arm-none-eabi\include\c++\6.3.1\bits\stl_algobase.h **** 	}
  94:c:\program files (x86)\gnu tools arm embedded\6 2017-q2-update\arm-none-eabi\include\c++\6.3.1\bits\stl_algobase.h ****     };
  95:c:\program files (x86)\gnu tools arm embedded\6 2017-q2-update\arm-none-eabi\include\c++\6.3.1\bits\stl_algobase.h **** 
  96:c:\program files (x86)\gnu tools arm embedded\6 2017-q2-update\arm-none-eabi\include\c++\6.3.1\bits\stl_algobase.h ****   template<>
  97:c:\program files (x86)\gnu tools arm embedded\6 2017-q2-update\arm-none-eabi\include\c++\6.3.1\bits\stl_algobase.h ****     struct __iter_swap<true>
  98:c:\program files (x86)\gnu tools arm embedded\6 2017-q2-update\arm-none-eabi\include\c++\6.3.1\bits\stl_algobase.h ****     {
  99:c:\program files (x86)\gnu tools arm embedded\6 2017-q2-update\arm-none-eabi\include\c++\6.3.1\bits\stl_algobase.h ****       template<typename _ForwardIterator1, typename _ForwardIterator2>
 100:c:\program files (x86)\gnu tools arm embedded\6 2017-q2-update\arm-none-eabi\include\c++\6.3.1\bits\stl_algobase.h ****         static void 
 101:c:\program files (x86)\gnu tools arm embedded\6 2017-q2-update\arm-none-eabi\include\c++\6.3.1\bits\stl_algobase.h ****         iter_swap(_ForwardIterator1 __a, _ForwardIterator2 __b)
 102:c:\program files (x86)\gnu tools arm embedded\6 2017-q2-update\arm-none-eabi\include\c++\6.3.1\bits\stl_algobase.h ****         {
 103:c:\program files (x86)\gnu tools arm embedded\6 2017-q2-update\arm-none-eabi\include\c++\6.3.1\bits\stl_algobase.h ****           swap(*__a, *__b);
 104:c:\program files (x86)\gnu tools arm embedded\6 2017-q2-update\arm-none-eabi\include\c++\6.3.1\bits\stl_algobase.h ****         }
 105:c:\program files (x86)\gnu tools arm embedded\6 2017-q2-update\arm-none-eabi\include\c++\6.3.1\bits\stl_algobase.h ****     };
 106:c:\program files (x86)\gnu tools arm embedded\6 2017-q2-update\arm-none-eabi\include\c++\6.3.1\bits\stl_algobase.h **** #endif
 107:c:\program files (x86)\gnu tools arm embedded\6 2017-q2-update\arm-none-eabi\include\c++\6.3.1\bits\stl_algobase.h **** 
 108:c:\program files (x86)\gnu tools arm embedded\6 2017-q2-update\arm-none-eabi\include\c++\6.3.1\bits\stl_algobase.h ****   /**
 109:c:\program files (x86)\gnu tools arm embedded\6 2017-q2-update\arm-none-eabi\include\c++\6.3.1\bits\stl_algobase.h ****    *  @brief Swaps the contents of two iterators.
 110:c:\program files (x86)\gnu tools arm embedded\6 2017-q2-update\arm-none-eabi\include\c++\6.3.1\bits\stl_algobase.h ****    *  @ingroup mutating_algorithms
 111:c:\program files (x86)\gnu tools arm embedded\6 2017-q2-update\arm-none-eabi\include\c++\6.3.1\bits\stl_algobase.h ****    *  @param  __a  An iterator.
 112:c:\program files (x86)\gnu tools arm embedded\6 2017-q2-update\arm-none-eabi\include\c++\6.3.1\bits\stl_algobase.h ****    *  @param  __b  Another iterator.
 113:c:\program files (x86)\gnu tools arm embedded\6 2017-q2-update\arm-none-eabi\include\c++\6.3.1\bits\stl_algobase.h ****    *  @return   Nothing.
 114:c:\program files (x86)\gnu tools arm embedded\6 2017-q2-update\arm-none-eabi\include\c++\6.3.1\bits\stl_algobase.h ****    *
 115:c:\program files (x86)\gnu tools arm embedded\6 2017-q2-update\arm-none-eabi\include\c++\6.3.1\bits\stl_algobase.h ****    *  This function swaps the values pointed to by two iterators, not the
 116:c:\program files (x86)\gnu tools arm embedded\6 2017-q2-update\arm-none-eabi\include\c++\6.3.1\bits\stl_algobase.h ****    *  iterators themselves.
 117:c:\program files (x86)\gnu tools arm embedded\6 2017-q2-update\arm-none-eabi\include\c++\6.3.1\bits\stl_algobase.h ****   */
 118:c:\program files (x86)\gnu tools arm embedded\6 2017-q2-update\arm-none-eabi\include\c++\6.3.1\bits\stl_algobase.h ****   template<typename _ForwardIterator1, typename _ForwardIterator2>
 119:c:\program files (x86)\gnu tools arm embedded\6 2017-q2-update\arm-none-eabi\include\c++\6.3.1\bits\stl_algobase.h ****     inline void
 120:c:\program files (x86)\gnu tools arm embedded\6 2017-q2-update\arm-none-eabi\include\c++\6.3.1\bits\stl_algobase.h ****     iter_swap(_ForwardIterator1 __a, _ForwardIterator2 __b)
 121:c:\program files (x86)\gnu tools arm embedded\6 2017-q2-update\arm-none-eabi\include\c++\6.3.1\bits\stl_algobase.h ****     {
 122:c:\program files (x86)\gnu tools arm embedded\6 2017-q2-update\arm-none-eabi\include\c++\6.3.1\bits\stl_algobase.h ****       // concept requirements
 123:c:\program files (x86)\gnu tools arm embedded\6 2017-q2-update\arm-none-eabi\include\c++\6.3.1\bits\stl_algobase.h ****       __glibcxx_function_requires(_Mutable_ForwardIteratorConcept<
 124:c:\program files (x86)\gnu tools arm embedded\6 2017-q2-update\arm-none-eabi\include\c++\6.3.1\bits\stl_algobase.h **** 				  _ForwardIterator1>)
 125:c:\program files (x86)\gnu tools arm embedded\6 2017-q2-update\arm-none-eabi\include\c++\6.3.1\bits\stl_algobase.h ****       __glibcxx_function_requires(_Mutable_ForwardIteratorConcept<
 126:c:\program files (x86)\gnu tools arm embedded\6 2017-q2-update\arm-none-eabi\include\c++\6.3.1\bits\stl_algobase.h **** 				  _ForwardIterator2>)
 127:c:\program files (x86)\gnu tools arm embedded\6 2017-q2-update\arm-none-eabi\include\c++\6.3.1\bits\stl_algobase.h **** 
 128:c:\program files (x86)\gnu tools arm embedded\6 2017-q2-update\arm-none-eabi\include\c++\6.3.1\bits\stl_algobase.h **** #if __cplusplus < 201103L
 129:c:\program files (x86)\gnu tools arm embedded\6 2017-q2-update\arm-none-eabi\include\c++\6.3.1\bits\stl_algobase.h ****       typedef typename iterator_traits<_ForwardIterator1>::value_type
 130:c:\program files (x86)\gnu tools arm embedded\6 2017-q2-update\arm-none-eabi\include\c++\6.3.1\bits\stl_algobase.h **** 	_ValueType1;
 131:c:\program files (x86)\gnu tools arm embedded\6 2017-q2-update\arm-none-eabi\include\c++\6.3.1\bits\stl_algobase.h ****       typedef typename iterator_traits<_ForwardIterator2>::value_type
 132:c:\program files (x86)\gnu tools arm embedded\6 2017-q2-update\arm-none-eabi\include\c++\6.3.1\bits\stl_algobase.h **** 	_ValueType2;
 133:c:\program files (x86)\gnu tools arm embedded\6 2017-q2-update\arm-none-eabi\include\c++\6.3.1\bits\stl_algobase.h **** 
 134:c:\program files (x86)\gnu tools arm embedded\6 2017-q2-update\arm-none-eabi\include\c++\6.3.1\bits\stl_algobase.h ****       __glibcxx_function_requires(_ConvertibleConcept<_ValueType1,
 135:c:\program files (x86)\gnu tools arm embedded\6 2017-q2-update\arm-none-eabi\include\c++\6.3.1\bits\stl_algobase.h **** 				  _ValueType2>)
 136:c:\program files (x86)\gnu tools arm embedded\6 2017-q2-update\arm-none-eabi\include\c++\6.3.1\bits\stl_algobase.h ****       __glibcxx_function_requires(_ConvertibleConcept<_ValueType2,
 137:c:\program files (x86)\gnu tools arm embedded\6 2017-q2-update\arm-none-eabi\include\c++\6.3.1\bits\stl_algobase.h **** 				  _ValueType1>)
 138:c:\program files (x86)\gnu tools arm embedded\6 2017-q2-update\arm-none-eabi\include\c++\6.3.1\bits\stl_algobase.h **** 
 139:c:\program files (x86)\gnu tools arm embedded\6 2017-q2-update\arm-none-eabi\include\c++\6.3.1\bits\stl_algobase.h ****       typedef typename iterator_traits<_ForwardIterator1>::reference
 140:c:\program files (x86)\gnu tools arm embedded\6 2017-q2-update\arm-none-eabi\include\c++\6.3.1\bits\stl_algobase.h **** 	_ReferenceType1;
 141:c:\program files (x86)\gnu tools arm embedded\6 2017-q2-update\arm-none-eabi\include\c++\6.3.1\bits\stl_algobase.h ****       typedef typename iterator_traits<_ForwardIterator2>::reference
 142:c:\program files (x86)\gnu tools arm embedded\6 2017-q2-update\arm-none-eabi\include\c++\6.3.1\bits\stl_algobase.h **** 	_ReferenceType2;
 143:c:\program files (x86)\gnu tools arm embedded\6 2017-q2-update\arm-none-eabi\include\c++\6.3.1\bits\stl_algobase.h ****       std::__iter_swap<__are_same<_ValueType1, _ValueType2>::__value
 144:c:\program files (x86)\gnu tools arm embedded\6 2017-q2-update\arm-none-eabi\include\c++\6.3.1\bits\stl_algobase.h **** 	&& __are_same<_ValueType1&, _ReferenceType1>::__value
 145:c:\program files (x86)\gnu tools arm embedded\6 2017-q2-update\arm-none-eabi\include\c++\6.3.1\bits\stl_algobase.h **** 	&& __are_same<_ValueType2&, _ReferenceType2>::__value>::
 146:c:\program files (x86)\gnu tools arm embedded\6 2017-q2-update\arm-none-eabi\include\c++\6.3.1\bits\stl_algobase.h **** 	iter_swap(__a, __b);
 147:c:\program files (x86)\gnu tools arm embedded\6 2017-q2-update\arm-none-eabi\include\c++\6.3.1\bits\stl_algobase.h **** #else
 148:c:\program files (x86)\gnu tools arm embedded\6 2017-q2-update\arm-none-eabi\include\c++\6.3.1\bits\stl_algobase.h ****       swap(*__a, *__b);
 149:c:\program files (x86)\gnu tools arm embedded\6 2017-q2-update\arm-none-eabi\include\c++\6.3.1\bits\stl_algobase.h **** #endif
 150:c:\program files (x86)\gnu tools arm embedded\6 2017-q2-update\arm-none-eabi\include\c++\6.3.1\bits\stl_algobase.h ****     }
 151:c:\program files (x86)\gnu tools arm embedded\6 2017-q2-update\arm-none-eabi\include\c++\6.3.1\bits\stl_algobase.h **** 
 152:c:\program files (x86)\gnu tools arm embedded\6 2017-q2-update\arm-none-eabi\include\c++\6.3.1\bits\stl_algobase.h ****   /**
 153:c:\program files (x86)\gnu tools arm embedded\6 2017-q2-update\arm-none-eabi\include\c++\6.3.1\bits\stl_algobase.h ****    *  @brief Swap the elements of two sequences.
 154:c:\program files (x86)\gnu tools arm embedded\6 2017-q2-update\arm-none-eabi\include\c++\6.3.1\bits\stl_algobase.h ****    *  @ingroup mutating_algorithms
 155:c:\program files (x86)\gnu tools arm embedded\6 2017-q2-update\arm-none-eabi\include\c++\6.3.1\bits\stl_algobase.h ****    *  @param  __first1  A forward iterator.
 156:c:\program files (x86)\gnu tools arm embedded\6 2017-q2-update\arm-none-eabi\include\c++\6.3.1\bits\stl_algobase.h ****    *  @param  __last1   A forward iterator.
 157:c:\program files (x86)\gnu tools arm embedded\6 2017-q2-update\arm-none-eabi\include\c++\6.3.1\bits\stl_algobase.h ****    *  @param  __first2  A forward iterator.
 158:c:\program files (x86)\gnu tools arm embedded\6 2017-q2-update\arm-none-eabi\include\c++\6.3.1\bits\stl_algobase.h ****    *  @return   An iterator equal to @p first2+(last1-first1).
 159:c:\program files (x86)\gnu tools arm embedded\6 2017-q2-update\arm-none-eabi\include\c++\6.3.1\bits\stl_algobase.h ****    *
 160:c:\program files (x86)\gnu tools arm embedded\6 2017-q2-update\arm-none-eabi\include\c++\6.3.1\bits\stl_algobase.h ****    *  Swaps each element in the range @p [first1,last1) with the
 161:c:\program files (x86)\gnu tools arm embedded\6 2017-q2-update\arm-none-eabi\include\c++\6.3.1\bits\stl_algobase.h ****    *  corresponding element in the range @p [first2,(last1-first1)).
 162:c:\program files (x86)\gnu tools arm embedded\6 2017-q2-update\arm-none-eabi\include\c++\6.3.1\bits\stl_algobase.h ****    *  The ranges must not overlap.
 163:c:\program files (x86)\gnu tools arm embedded\6 2017-q2-update\arm-none-eabi\include\c++\6.3.1\bits\stl_algobase.h ****   */
 164:c:\program files (x86)\gnu tools arm embedded\6 2017-q2-update\arm-none-eabi\include\c++\6.3.1\bits\stl_algobase.h ****   template<typename _ForwardIterator1, typename _ForwardIterator2>
 165:c:\program files (x86)\gnu tools arm embedded\6 2017-q2-update\arm-none-eabi\include\c++\6.3.1\bits\stl_algobase.h ****     _ForwardIterator2
 166:c:\program files (x86)\gnu tools arm embedded\6 2017-q2-update\arm-none-eabi\include\c++\6.3.1\bits\stl_algobase.h ****     swap_ranges(_ForwardIterator1 __first1, _ForwardIterator1 __last1,
 167:c:\program files (x86)\gnu tools arm embedded\6 2017-q2-update\arm-none-eabi\include\c++\6.3.1\bits\stl_algobase.h **** 		_ForwardIterator2 __first2)
 168:c:\program files (x86)\gnu tools arm embedded\6 2017-q2-update\arm-none-eabi\include\c++\6.3.1\bits\stl_algobase.h ****     {
 169:c:\program files (x86)\gnu tools arm embedded\6 2017-q2-update\arm-none-eabi\include\c++\6.3.1\bits\stl_algobase.h ****       // concept requirements
 170:c:\program files (x86)\gnu tools arm embedded\6 2017-q2-update\arm-none-eabi\include\c++\6.3.1\bits\stl_algobase.h ****       __glibcxx_function_requires(_Mutable_ForwardIteratorConcept<
 171:c:\program files (x86)\gnu tools arm embedded\6 2017-q2-update\arm-none-eabi\include\c++\6.3.1\bits\stl_algobase.h **** 				  _ForwardIterator1>)
 172:c:\program files (x86)\gnu tools arm embedded\6 2017-q2-update\arm-none-eabi\include\c++\6.3.1\bits\stl_algobase.h ****       __glibcxx_function_requires(_Mutable_ForwardIteratorConcept<
 173:c:\program files (x86)\gnu tools arm embedded\6 2017-q2-update\arm-none-eabi\include\c++\6.3.1\bits\stl_algobase.h **** 				  _ForwardIterator2>)
 174:c:\program files (x86)\gnu tools arm embedded\6 2017-q2-update\arm-none-eabi\include\c++\6.3.1\bits\stl_algobase.h ****       __glibcxx_requires_valid_range(__first1, __last1);
 175:c:\program files (x86)\gnu tools arm embedded\6 2017-q2-update\arm-none-eabi\include\c++\6.3.1\bits\stl_algobase.h **** 
 176:c:\program files (x86)\gnu tools arm embedded\6 2017-q2-update\arm-none-eabi\include\c++\6.3.1\bits\stl_algobase.h ****       for (; __first1 != __last1; ++__first1, (void)++__first2)
 177:c:\program files (x86)\gnu tools arm embedded\6 2017-q2-update\arm-none-eabi\include\c++\6.3.1\bits\stl_algobase.h **** 	std::iter_swap(__first1, __first2);
 178:c:\program files (x86)\gnu tools arm embedded\6 2017-q2-update\arm-none-eabi\include\c++\6.3.1\bits\stl_algobase.h ****       return __first2;
 179:c:\program files (x86)\gnu tools arm embedded\6 2017-q2-update\arm-none-eabi\include\c++\6.3.1\bits\stl_algobase.h ****     }
 180:c:\program files (x86)\gnu tools arm embedded\6 2017-q2-update\arm-none-eabi\include\c++\6.3.1\bits\stl_algobase.h **** 
 181:c:\program files (x86)\gnu tools arm embedded\6 2017-q2-update\arm-none-eabi\include\c++\6.3.1\bits\stl_algobase.h ****   /**
 182:c:\program files (x86)\gnu tools arm embedded\6 2017-q2-update\arm-none-eabi\include\c++\6.3.1\bits\stl_algobase.h ****    *  @brief This does what you think it does.
 183:c:\program files (x86)\gnu tools arm embedded\6 2017-q2-update\arm-none-eabi\include\c++\6.3.1\bits\stl_algobase.h ****    *  @ingroup sorting_algorithms
 184:c:\program files (x86)\gnu tools arm embedded\6 2017-q2-update\arm-none-eabi\include\c++\6.3.1\bits\stl_algobase.h ****    *  @param  __a  A thing of arbitrary type.
 185:c:\program files (x86)\gnu tools arm embedded\6 2017-q2-update\arm-none-eabi\include\c++\6.3.1\bits\stl_algobase.h ****    *  @param  __b  Another thing of arbitrary type.
 186:c:\program files (x86)\gnu tools arm embedded\6 2017-q2-update\arm-none-eabi\include\c++\6.3.1\bits\stl_algobase.h ****    *  @return   The lesser of the parameters.
 187:c:\program files (x86)\gnu tools arm embedded\6 2017-q2-update\arm-none-eabi\include\c++\6.3.1\bits\stl_algobase.h ****    *
 188:c:\program files (x86)\gnu tools arm embedded\6 2017-q2-update\arm-none-eabi\include\c++\6.3.1\bits\stl_algobase.h ****    *  This is the simple classic generic implementation.  It will work on
 189:c:\program files (x86)\gnu tools arm embedded\6 2017-q2-update\arm-none-eabi\include\c++\6.3.1\bits\stl_algobase.h ****    *  temporary expressions, since they are only evaluated once, unlike a
 190:c:\program files (x86)\gnu tools arm embedded\6 2017-q2-update\arm-none-eabi\include\c++\6.3.1\bits\stl_algobase.h ****    *  preprocessor macro.
 191:c:\program files (x86)\gnu tools arm embedded\6 2017-q2-update\arm-none-eabi\include\c++\6.3.1\bits\stl_algobase.h ****   */
 192:c:\program files (x86)\gnu tools arm embedded\6 2017-q2-update\arm-none-eabi\include\c++\6.3.1\bits\stl_algobase.h ****   template<typename _Tp>
 193:c:\program files (x86)\gnu tools arm embedded\6 2017-q2-update\arm-none-eabi\include\c++\6.3.1\bits\stl_algobase.h ****     _GLIBCXX14_CONSTEXPR
 194:c:\program files (x86)\gnu tools arm embedded\6 2017-q2-update\arm-none-eabi\include\c++\6.3.1\bits\stl_algobase.h ****     inline const _Tp&
 195:c:\program files (x86)\gnu tools arm embedded\6 2017-q2-update\arm-none-eabi\include\c++\6.3.1\bits\stl_algobase.h ****     min(const _Tp& __a, const _Tp& __b)
 196:c:\program files (x86)\gnu tools arm embedded\6 2017-q2-update\arm-none-eabi\include\c++\6.3.1\bits\stl_algobase.h ****     {
 197:c:\program files (x86)\gnu tools arm embedded\6 2017-q2-update\arm-none-eabi\include\c++\6.3.1\bits\stl_algobase.h ****       // concept requirements
 198:c:\program files (x86)\gnu tools arm embedded\6 2017-q2-update\arm-none-eabi\include\c++\6.3.1\bits\stl_algobase.h ****       __glibcxx_function_requires(_LessThanComparableConcept<_Tp>)
 199:c:\program files (x86)\gnu tools arm embedded\6 2017-q2-update\arm-none-eabi\include\c++\6.3.1\bits\stl_algobase.h ****       //return __b < __a ? __b : __a;
 200:c:\program files (x86)\gnu tools arm embedded\6 2017-q2-update\arm-none-eabi\include\c++\6.3.1\bits\stl_algobase.h ****       if (__b < __a)
 201:c:\program files (x86)\gnu tools arm embedded\6 2017-q2-update\arm-none-eabi\include\c++\6.3.1\bits\stl_algobase.h **** 	return __b;
 202:c:\program files (x86)\gnu tools arm embedded\6 2017-q2-update\arm-none-eabi\include\c++\6.3.1\bits\stl_algobase.h ****       return __a;
 203:c:\program files (x86)\gnu tools arm embedded\6 2017-q2-update\arm-none-eabi\include\c++\6.3.1\bits\stl_algobase.h ****     }
 204:c:\program files (x86)\gnu tools arm embedded\6 2017-q2-update\arm-none-eabi\include\c++\6.3.1\bits\stl_algobase.h **** 
 205:c:\program files (x86)\gnu tools arm embedded\6 2017-q2-update\arm-none-eabi\include\c++\6.3.1\bits\stl_algobase.h ****   /**
 206:c:\program files (x86)\gnu tools arm embedded\6 2017-q2-update\arm-none-eabi\include\c++\6.3.1\bits\stl_algobase.h ****    *  @brief This does what you think it does.
 207:c:\program files (x86)\gnu tools arm embedded\6 2017-q2-update\arm-none-eabi\include\c++\6.3.1\bits\stl_algobase.h ****    *  @ingroup sorting_algorithms
 208:c:\program files (x86)\gnu tools arm embedded\6 2017-q2-update\arm-none-eabi\include\c++\6.3.1\bits\stl_algobase.h ****    *  @param  __a  A thing of arbitrary type.
 209:c:\program files (x86)\gnu tools arm embedded\6 2017-q2-update\arm-none-eabi\include\c++\6.3.1\bits\stl_algobase.h ****    *  @param  __b  Another thing of arbitrary type.
 210:c:\program files (x86)\gnu tools arm embedded\6 2017-q2-update\arm-none-eabi\include\c++\6.3.1\bits\stl_algobase.h ****    *  @return   The greater of the parameters.
 211:c:\program files (x86)\gnu tools arm embedded\6 2017-q2-update\arm-none-eabi\include\c++\6.3.1\bits\stl_algobase.h ****    *
 212:c:\program files (x86)\gnu tools arm embedded\6 2017-q2-update\arm-none-eabi\include\c++\6.3.1\bits\stl_algobase.h ****    *  This is the simple classic generic implementation.  It will work on
 213:c:\program files (x86)\gnu tools arm embedded\6 2017-q2-update\arm-none-eabi\include\c++\6.3.1\bits\stl_algobase.h ****    *  temporary expressions, since they are only evaluated once, unlike a
 214:c:\program files (x86)\gnu tools arm embedded\6 2017-q2-update\arm-none-eabi\include\c++\6.3.1\bits\stl_algobase.h ****    *  preprocessor macro.
 215:c:\program files (x86)\gnu tools arm embedded\6 2017-q2-update\arm-none-eabi\include\c++\6.3.1\bits\stl_algobase.h ****   */
 216:c:\program files (x86)\gnu tools arm embedded\6 2017-q2-update\arm-none-eabi\include\c++\6.3.1\bits\stl_algobase.h ****   template<typename _Tp>
 217:c:\program files (x86)\gnu tools arm embedded\6 2017-q2-update\arm-none-eabi\include\c++\6.3.1\bits\stl_algobase.h ****     _GLIBCXX14_CONSTEXPR
 218:c:\program files (x86)\gnu tools arm embedded\6 2017-q2-update\arm-none-eabi\include\c++\6.3.1\bits\stl_algobase.h ****     inline const _Tp&
 219:c:\program files (x86)\gnu tools arm embedded\6 2017-q2-update\arm-none-eabi\include\c++\6.3.1\bits\stl_algobase.h ****     max(const _Tp& __a, const _Tp& __b)
 220:c:\program files (x86)\gnu tools arm embedded\6 2017-q2-update\arm-none-eabi\include\c++\6.3.1\bits\stl_algobase.h ****     {
 221:c:\program files (x86)\gnu tools arm embedded\6 2017-q2-update\arm-none-eabi\include\c++\6.3.1\bits\stl_algobase.h ****       // concept requirements
 222:c:\program files (x86)\gnu tools arm embedded\6 2017-q2-update\arm-none-eabi\include\c++\6.3.1\bits\stl_algobase.h ****       __glibcxx_function_requires(_LessThanComparableConcept<_Tp>)
 223:c:\program files (x86)\gnu tools arm embedded\6 2017-q2-update\arm-none-eabi\include\c++\6.3.1\bits\stl_algobase.h ****       //return  __a < __b ? __b : __a;
 224:c:\program files (x86)\gnu tools arm embedded\6 2017-q2-update\arm-none-eabi\include\c++\6.3.1\bits\stl_algobase.h ****       if (__a < __b)
 3569              		.loc 9 224 0
 3570 01dc D100DCE0 		ldrsb	r0, [ip], #1
 3571              	.LBE4344:
 3572              	.LBE4343:
 3573              		.loc 7 181 0
 3574 01e0 013083E2 		add	r3, r3, #1
 3575 01e4 000054E1 		cmp	r4, r0
 3576 01e8 0040A0B1 		movlt	r4, r0
 3577              	.LVL230:
 3578 01ec 030052E1 		cmp	r2, r3
 3579 01f0 F9FFFF1A 		bne	.L178
 3580 01f4 14009DE5 		ldr	r0, [sp, #20]
 3581 01f8 020050E1 		cmp	r0, r2
 3582 01fc 7700000A 		beq	.L179
 3583              	.LVL231:
 3584              	.L177:
 3585 0200 02C040E0 		sub	ip, r0, r2
 3586 0204 01E040E2 		sub	lr, r0, #1
 3587 0208 10004CE2 		sub	r0, ip, #16
 3588 020c 02E04EE0 		sub	lr, lr, r2
 3589 0210 2002A0E1 		lsr	r0, r0, #4
 3590 0214 0E005EE3 		cmp	lr, #14
 3591 0218 010080E2 		add	r0, r0, #1
 3592 021c 00E2A0E1 		lsl	lr, r0, #4
 3593 0220 1200009A 		bls	.L180
 3594 0224 904BE0EE 		vdup.8	q8, r4
 3595 0228 022081E0 		add	r2, r1, r2
 3596 022c 50409DE5 		ldr	r4, [sp, #80]
 3597 0230 022084E0 		add	r2, r4, r2
 3598 0234 0040A0E3 		mov	r4, #0
 3599              	.L182:
 3600 0238 014084E2 		add	r4, r4, #1
 3601 023c DF2A62F4 		vld1.64	{d18-d19}, [r2:64]
 3602 0240 000054E1 		cmp	r4, r0
 3603 0244 102082E2 		add	r2, r2, #16
 3604 0248 E20640F2 		vmax.s8	q8, q8, q9
 3605 024c F9FFFF3A 		bcc	.L182
 3606 0250 A14640F2 		vmax.s8	d20, d16, d17
 3607 0254 0C005EE1 		cmp	lr, ip
 3608 0258 0E3083E0 		add	r3, r3, lr
 3609 025c A40A44F2 		vpmax.s8	d16, d20, d20
 3610 0260 A00A40F2 		vpmax.s8	d16, d16, d16
 3611 0264 A00A40F2 		vpmax.s8	d16, d16, d16
 3612 0268 904B50EE 		vmov.s8	r4, d16[0]
 3613 026c 5B00000A 		beq	.L179
 3614              	.L180:
 3615              	.LBB4348:
 3616              	.LBB4345:
 3617              		.loc 9 224 0
 3618 0270 50E09DE5 		ldr	lr, [sp, #80]
 3619              	.LBE4345:
 3620              	.LBE4348:
 3621              		.loc 7 181 0
 3622 0274 012083E2 		add	r2, r3, #1
 3623 0278 14C09DE5 		ldr	ip, [sp, #20]
 3624              	.LBB4349:
 3625              	.LBB4346:
 3626              		.loc 9 224 0
 3627 027c 03008EE0 		add	r0, lr, r3
 3628 0280 D10090E1 		ldrsb	r0, [r0, r1]
 3629 0284 040050E1 		cmp	r0, r4
 3630 0288 0040A0A1 		movge	r4, r0
 3631              	.LVL232:
 3632              	.LBE4346:
 3633              	.LBE4349:
 3634              		.loc 7 181 0
 3635 028c 02005CE1 		cmp	ip, r2
 3636 0290 5200009A 		bls	.L179
 3637              	.LVL233:
 3638              	.LBB4350:
 3639              	.LBB4347:
 3640              		.loc 9 224 0
 3641 0294 01108EE0 		add	r1, lr, r1
 3642              	.LBE4347:
 3643              	.LBE4350:
 3644              		.loc 7 181 0
 3645 0298 020083E2 		add	r0, r3, #2
 3646 029c D22091E1 		ldrsb	r2, [r1, r2]
 3647 02a0 040052E1 		cmp	r2, r4
 3648 02a4 0240A0A1 		movge	r4, r2
 3649 02a8 00005CE1 		cmp	ip, r0
 3650 02ac 7440AFE6 		sxtb	r4, r4
 3651              	.LVL234:
 3652 02b0 4A00009A 		bls	.L179
 3653              	.LVL235:
 3654 02b4 D00091E1 		ldrsb	r0, [r1, r0]
 3655 02b8 032083E2 		add	r2, r3, #3
 3656 02bc 040050E1 		cmp	r0, r4
 3657 02c0 0040A0A1 		movge	r4, r0
 3658              	.LVL236:
 3659 02c4 02005CE1 		cmp	ip, r2
 3660 02c8 4400009A 		bls	.L179
 3661              	.LVL237:
 3662 02cc D20091E1 		ldrsb	r0, [r1, r2]
 3663 02d0 042083E2 		add	r2, r3, #4
 3664 02d4 040050E1 		cmp	r0, r4
 3665 02d8 0040A0A1 		movge	r4, r0
 3666              	.LVL238:
 3667 02dc 02005CE1 		cmp	ip, r2
 3668 02e0 3E00009A 		bls	.L179
 3669              	.LVL239:
 3670 02e4 D20091E1 		ldrsb	r0, [r1, r2]
 3671 02e8 052083E2 		add	r2, r3, #5
 3672 02ec 040050E1 		cmp	r0, r4
 3673 02f0 0040A0A1 		movge	r4, r0
 3674              	.LVL240:
 3675 02f4 02005CE1 		cmp	ip, r2
 3676 02f8 3800009A 		bls	.L179
 3677              	.LVL241:
 3678 02fc D20091E1 		ldrsb	r0, [r1, r2]
 3679 0300 062083E2 		add	r2, r3, #6
 3680 0304 040050E1 		cmp	r0, r4
 3681 0308 0040A0A1 		movge	r4, r0
 3682              	.LVL242:
 3683 030c 02005CE1 		cmp	ip, r2
 3684 0310 3200009A 		bls	.L179
 3685              	.LVL243:
 3686 0314 D20091E1 		ldrsb	r0, [r1, r2]
 3687 0318 072083E2 		add	r2, r3, #7
 3688 031c 040050E1 		cmp	r0, r4
 3689 0320 0040A0A1 		movge	r4, r0
 3690              	.LVL244:
 3691 0324 02005CE1 		cmp	ip, r2
 3692 0328 2C00009A 		bls	.L179
 3693              	.LVL245:
 3694 032c D20091E1 		ldrsb	r0, [r1, r2]
 3695 0330 082083E2 		add	r2, r3, #8
 3696 0334 040050E1 		cmp	r0, r4
 3697 0338 0040A0A1 		movge	r4, r0
 3698              	.LVL246:
 3699 033c 02005CE1 		cmp	ip, r2
 3700 0340 2600009A 		bls	.L179
 3701              	.LVL247:
 3702 0344 D20091E1 		ldrsb	r0, [r1, r2]
 3703 0348 092083E2 		add	r2, r3, #9
 3704 034c 040050E1 		cmp	r0, r4
 3705 0350 0040A0A1 		movge	r4, r0
 3706              	.LVL248:
 3707 0354 02005CE1 		cmp	ip, r2
 3708 0358 2000009A 		bls	.L179
 3709              	.LVL249:
 3710 035c D20091E1 		ldrsb	r0, [r1, r2]
 3711 0360 0A2083E2 		add	r2, r3, #10
 3712 0364 040050E1 		cmp	r0, r4
 3713 0368 0040A0A1 		movge	r4, r0
 3714              	.LVL250:
 3715 036c 02005CE1 		cmp	ip, r2
 3716 0370 1A00009A 		bls	.L179
 3717              	.LVL251:
 3718 0374 D20091E1 		ldrsb	r0, [r1, r2]
 3719 0378 0B2083E2 		add	r2, r3, #11
 3720 037c 040050E1 		cmp	r0, r4
 3721 0380 0040A0A1 		movge	r4, r0
 3722              	.LVL252:
 3723 0384 02005CE1 		cmp	ip, r2
 3724 0388 1400009A 		bls	.L179
 3725              	.LVL253:
 3726 038c D20091E1 		ldrsb	r0, [r1, r2]
 3727 0390 0C2083E2 		add	r2, r3, #12
 3728 0394 040050E1 		cmp	r0, r4
 3729 0398 0040A0A1 		movge	r4, r0
 3730              	.LVL254:
 3731 039c 02005CE1 		cmp	ip, r2
 3732 03a0 0E00009A 		bls	.L179
 3733              	.LVL255:
 3734 03a4 D20091E1 		ldrsb	r0, [r1, r2]
 3735 03a8 0D2083E2 		add	r2, r3, #13
 3736 03ac 040050E1 		cmp	r0, r4
 3737 03b0 0040A0A1 		movge	r4, r0
 3738              	.LVL256:
 3739 03b4 02005CE1 		cmp	ip, r2
 3740 03b8 0800009A 		bls	.L179
 3741              	.LVL257:
 3742 03bc D22091E1 		ldrsb	r2, [r1, r2]
 3743 03c0 0E3083E2 		add	r3, r3, #14
 3744 03c4 040052E1 		cmp	r2, r4
 3745 03c8 0240A0A1 		movge	r4, r2
 3746              	.LVL258:
 3747 03cc 03005CE1 		cmp	ip, r3
 3748 03d0 0200009A 		bls	.L179
 3749              	.LVL259:
 3750 03d4 D33091E1 		ldrsb	r3, [r1, r3]
 3751 03d8 040053E1 		cmp	r3, r4
 3752 03dc 0340A0A1 		movge	r4, r3
 3753              	.L179:
 3754 03e0 1C309DE5 		ldr	r3, [sp, #28]
 3755 03e4 7B40CDE5 		strb	r4, [sp, #123]
 3756              	.LVL260:
 3757 03e8 1F0053E3 		cmp	r3, #31
 3758 03ec 6D0400CA 		bgt	.L392
 3759              	.LBE4351:
 3760              	.LBB4352:
 3761              	.LBB3781:
 3762              	.LBB3770:
 3763              	.LBB3760:
 3764              	.LBB3723:
 3765              	.LBB3714:
 161:C:/Renesas/e2studio_2021_01_workspace_RZA2M_ANPR/ANPR_RZA2M_EBK/src/tensorflow_lite/tensorflow/lite/kernels/internal\common.h ****   int right_shift = shift > 0 ? 0 : -shift;
 3766              		.loc 8 161 0
 3767 03f0 3C309DE5 		ldr	r3, [sp, #60]
 3768              	.LBE3714:
 3769              	.LBE3723:
 3770              	.LBE3760:
 3771              	.LBE3770:
 3772              	.LBE3781:
 3773              	.LBE4352:
 3774              	.LBB4353:
 3775              		.loc 7 181 0
 3776 03f4 0070A0E3 		mov	r7, #0
 3777 03f8 18609DE5 		ldr	r6, [sp, #24]
 3778 03fc 20A09DE5 		ldr	r10, [sp, #32]
 3779              	.LBE4353:
 3780              	.LBB4354:
 3781              	.LBB3782:
 3782              	.LBB3771:
 3783              	.LBB3761:
 3784              	.LBB3724:
 3785              	.LBB3715:
 161:C:/Renesas/e2studio_2021_01_workspace_RZA2M_ANPR/ANPR_RZA2M_EBK/src/tensorflow_lite/tensorflow/lite/kernels/internal\common.h ****   int right_shift = shift > 0 ? 0 : -shift;
 3786              		.loc 8 161 0
 3787 0400 C35FC3E1 		bic	r5, r3, r3, asr #31
 3788              	.LBE3715:
 3789              	.LBE3724:
 3790              	.LBE3761:
 3791              	.LBE3771:
 3792              	.LBE3782:
 3793              	.LBE4354:
 3794              	.LBB4355:
 3795              		.loc 7 181 0
 3796 0404 48309DE5 		ldr	r3, [sp, #72]
 3797 0408 28508DE5 		str	r5, [sp, #40]
 3798 040c 00308DE5 		str	r3, [sp]
 3799 0410 38509DE5 		ldr	r5, [sp, #56]
 3800 0414 050000EA 		b	.L186
 3801              	.L411:
 3802              		.align	3
 3803              	.L410:
 3804 0418 01000000 		.word	1
 3805 041c 00000000 		.word	0
 3806 0420 657EA26B 		.word	1805811301
 3807 0424 00000000 		.word	0
 3808              	.LVL261:
 3809              	.L190:
 3810              	.LBE4355:
 3811              	.LBB4356:
 182:C:/Renesas/e2studio_2021_01_workspace_RZA2M_ANPR/ANPR_RZA2M_EBK/src/tensorflow_lite/tensorflow/lite/kernels/internal/reference\log_softmax.h ****       max_in_row =
 183:C:/Renesas/e2studio_2021_01_workspace_RZA2M_ANPR/ANPR_RZA2M_EBK/src/tensorflow_lite/tensorflow/lite/kernels/internal/reference\log_softmax.h ****           std::max(max_in_row, input_data[outer_index * depth + inner_index]);
 184:C:/Renesas/e2studio_2021_01_workspace_RZA2M_ANPR/ANPR_RZA2M_EBK/src/tensorflow_lite/tensorflow/lite/kernels/internal/reference\log_softmax.h ****     }
 185:C:/Renesas/e2studio_2021_01_workspace_RZA2M_ANPR/ANPR_RZA2M_EBK/src/tensorflow_lite/tensorflow/lite/kernels/internal/reference\log_softmax.h **** 
 186:C:/Renesas/e2studio_2021_01_workspace_RZA2M_ANPR/ANPR_RZA2M_EBK/src/tensorflow_lite/tensorflow/lite/kernels/internal/reference\log_softmax.h ****     // Accumulator "sum_of_exps_in_q12" is safe from overflowing in 2^12 steps.
 187:C:/Renesas/e2studio_2021_01_workspace_RZA2M_ANPR/ANPR_RZA2M_EBK/src/tensorflow_lite/tensorflow/lite/kernels/internal/reference\log_softmax.h ****     F12 sum_of_exps_in_q12 = F12::FromRaw(0);
 188:C:/Renesas/e2studio_2021_01_workspace_RZA2M_ANPR/ANPR_RZA2M_EBK/src/tensorflow_lite/tensorflow/lite/kernels/internal/reference\log_softmax.h ****     for (size_t inner_index = 0; inner_index < depth; ++inner_index) {
 3812              		.loc 7 188 0
 3813 0428 06005BE1 		cmp	fp, r6
 3814 042c 3100000A 		beq	.L188
 3815              	.LVL262:
 3816              	.L186:
 3817              	.LBB3783:
 189:C:/Renesas/e2studio_2021_01_workspace_RZA2M_ANPR/ANPR_RZA2M_EBK/src/tensorflow_lite/tensorflow/lite/kernels/internal/reference\log_softmax.h ****       int32_t input_diff =
 190:C:/Renesas/e2studio_2021_01_workspace_RZA2M_ANPR/ANPR_RZA2M_EBK/src/tensorflow_lite/tensorflow/lite/kernels/internal/reference\log_softmax.h ****           static_cast<int32_t>(input_data[outer_index * depth + inner_index]) -
 3818              		.loc 7 190 0
 3819 0430 D130D6E0 		ldrsb	r3, [r6], #1
 191:C:/Renesas/e2studio_2021_01_workspace_RZA2M_ANPR/ANPR_RZA2M_EBK/src/tensorflow_lite/tensorflow/lite/kernels/internal/reference\log_softmax.h ****           max_in_row;
 3820              		.loc 7 191 0
 3821 0434 043043E0 		sub	r3, r3, r4
 3822              	.LVL263:
 3823              	.LBB3772:
 192:C:/Renesas/e2studio_2021_01_workspace_RZA2M_ANPR/ANPR_RZA2M_EBK/src/tensorflow_lite/tensorflow/lite/kernels/internal/reference\log_softmax.h ****       if (input_diff >= diff_min) {
 3824              		.loc 7 192 0
 3825 0438 030055E1 		cmp	r5, r3
 3826 043c F9FFFFCA 		bgt	.L190
 3827              	.LVL264:
 3828              	.LBB3762:
 3829              	.LBB3725:
 3830              	.LBB3716:
 163:C:/Renesas/e2studio_2021_01_workspace_RZA2M_ANPR/ANPR_RZA2M_EBK/src/tensorflow_lite/tensorflow/lite/kernels/internal\common.h ****   return RoundingDivideByPOT(SaturatingRoundingDoublingHighMul(
 3831              		.loc 8 163 0
 3832 0440 28209DE5 		ldr	r2, [sp, #40]
 3833              	.LBB3701:
 3834              	.LBB3702:
 331:C:/Renesas/e2studio_2021_01_workspace_RZA2M_ANPR/ANPR_RZA2M_EBK/src/tensorflow_lite/third_party/gemmlowp/fixedpoint\fixedpoint.h ****   std::int64_t a_64(a);
 3835              		.loc 5 331 0
 3836 0444 00009DE5 		ldr	r0, [sp]
 3837              	.LBE3702:
 3838              	.LBE3701:
 3839              		.loc 8 163 0
 3840 0448 1312A0E1 		lsl	r1, r3, r2
 3841              	.LVL265:
 3842              	.LBB3706:
 3843              	.LBB3703:
 334:C:/Renesas/e2studio_2021_01_workspace_RZA2M_ANPR/ANPR_RZA2M_EBK/src/tensorflow_lite/third_party/gemmlowp/fixedpoint\fixedpoint.h ****   std::int32_t nudge = ab_64 >= 0 ? (1 << 30) : (1 - (1 << 30));
 3844              		.loc 5 334 0
 3845 044c 00309DE5 		ldr	r3, [sp]
 3846              	.LVL266:
 331:C:/Renesas/e2studio_2021_01_workspace_RZA2M_ANPR/ANPR_RZA2M_EBK/src/tensorflow_lite/third_party/gemmlowp/fixedpoint\fixedpoint.h ****   std::int64_t a_64(a);
 3847              		.loc 5 331 0
 3848 0450 010050E1 		cmp	r0, r1
 3849 0454 02015103 		cmpeq	r1, #-2147483648
 3850 0458 01C0A003 		moveq	ip, #1
 3851 045c 00C0A013 		movne	ip, #0
 334:C:/Renesas/e2studio_2021_01_workspace_RZA2M_ANPR/ANPR_RZA2M_EBK/src/tensorflow_lite/third_party/gemmlowp/fixedpoint\fixedpoint.h ****   std::int32_t nudge = ab_64 >= 0 ? (1 << 30) : (1 - (1 << 30));
 3852              		.loc 5 334 0
 3853 0460 9123C3E0 		smull	r2, r3, r1, r3
 3854              	.LVL267:
 335:C:/Renesas/e2studio_2021_01_workspace_RZA2M_ANPR/ANPR_RZA2M_EBK/src/tensorflow_lite/third_party/gemmlowp/fixedpoint\fixedpoint.h ****   std::int32_t ab_x2_high32 =
 3855              		.loc 5 335 0
 3856 0464 000052E3 		cmp	r2, #0
 3857 0468 0010D3E2 		sbcs	r1, r3, #0
 3858              	.LVL268:
 3859 046c 2C0200BA 		blt	.L270
 3860 0470 0101A0E3 		mov	r0, #1073741824
 3861 0474 0010A0E3 		mov	r1, #0
 3862              	.L191:
 3863              	.LVL269:
 338:C:/Renesas/e2studio_2021_01_workspace_RZA2M_ANPR/ANPR_RZA2M_EBK/src/tensorflow_lite/third_party/gemmlowp/fixedpoint\fixedpoint.h **** }
 3864              		.loc 5 338 0
 3865 0478 00005CE3 		cmp	ip, #0
 3866 047c 1002001A 		bne	.L393
 337:C:/Renesas/e2studio_2021_01_workspace_RZA2M_ANPR/ANPR_RZA2M_EBK/src/tensorflow_lite/third_party/gemmlowp/fixedpoint\fixedpoint.h ****   return overflow ? std::numeric_limits<std::int32_t>::max() : ab_x2_high32;
 3867              		.loc 5 337 0
 3868 0480 028090E0 		adds	r8, r0, r2
 3869 0484 0390A1E0 		adc	r9, r1, r3
 3870 0488 0030A0E3 		mov	r3, #0
 3871 048c C92FA0E1 		asr	r2, r9, #31
 3872              	.LVL270:
 3873 0490 0221C2E3 		bic	r2, r2, #-2147483648
 3874 0494 020098E0 		adds	r0, r8, r2
 3875              	.LVL271:
 3876 0498 A00FA0E1 		lsr	r0, r0, #31
 3877 049c 0310A9E0 		adc	r1, r9, r3
 3878 04a0 810080E1 		orr	r0, r0, r1, lsl #1
 3879              	.L237:
 3880              	.LVL272:
 3881              	.LBE3703:
 3882              	.LBE3706:
 3883              	.LBB3707:
 3884              	.LBB3695:
 3885              	.LBB3681:
 3886              	.LBB3682:
 141:C:/Renesas/e2studio_2021_01_workspace_RZA2M_ANPR/ANPR_RZA2M_EBK/src/tensorflow_lite/third_party/gemmlowp/fixedpoint\fixedpoint.h **** }
 3887              		.loc 5 141 0
 3888 04a4 1C309DE5 		ldr	r3, [sp, #28]
 3889              	.LBE3682:
 3890              	.LBE3681:
 3891              	.LBB3684:
 3892              	.LBB3685:
  95:C:/Renesas/e2studio_2021_01_workspace_RZA2M_ANPR/ANPR_RZA2M_EBK/src/tensorflow_lite/third_party/gemmlowp/fixedpoint\fixedpoint.h **** }
 3893              		.loc 5 95 0
 3894 04a8 A02F8AE0 		add	r2, r10, r0, lsr #31
 3895              	.LBE3685:
 3896              	.LBE3684:
 3897              	.LBB3686:
 3898              	.LBB3687:
  71:C:/Renesas/e2studio_2021_01_workspace_RZA2M_ANPR/ANPR_RZA2M_EBK/src/tensorflow_lite/third_party/gemmlowp/fixedpoint\fixedpoint.h **** }
 3899              		.loc 5 71 0
 3900 04ac 10109DE5 		ldr	r1, [sp, #16]
 3901 04b0 024BCDED 		vstr.64	d20, [sp, #8]	@ int
 3902              	.LBE3687:
 3903              	.LBE3686:
 3904              	.LBB3689:
 3905              	.LBB3683:
 141:C:/Renesas/e2studio_2021_01_workspace_RZA2M_ANPR/ANPR_RZA2M_EBK/src/tensorflow_lite/third_party/gemmlowp/fixedpoint\fixedpoint.h **** }
 3906              		.loc 5 141 0
 3907 04b4 5033A0E1 		asr	r3, r0, r3
 3908              	.LBE3683:
 3909              	.LBE3689:
 3910              	.LBB3690:
 3911              	.LBB3688:
  71:C:/Renesas/e2studio_2021_01_workspace_RZA2M_ANPR/ANPR_RZA2M_EBK/src/tensorflow_lite/third_party/gemmlowp/fixedpoint\fixedpoint.h **** }
 3912              		.loc 5 71 0
 3913 04b8 010000E0 		and	r0, r0, r1
 3914              	.LBE3688:
 3915              	.LBE3690:
 3916              	.LBE3695:
 3917              	.LBE3707:
 3918              	.LBE3716:
 3919              	.LBE3725:
 193:C:/Renesas/e2studio_2021_01_workspace_RZA2M_ANPR/ANPR_RZA2M_EBK/src/tensorflow_lite/tensorflow/lite/kernels/internal/reference\log_softmax.h ****         const int32_t input_diff_in_q5 = MultiplyByQuantizedMultiplier(
 194:C:/Renesas/e2studio_2021_01_workspace_RZA2M_ANPR/ANPR_RZA2M_EBK/src/tensorflow_lite/tensorflow/lite/kernels/internal/reference\log_softmax.h ****             input_diff, input_multiplier, input_left_shift);
 195:C:/Renesas/e2studio_2021_01_workspace_RZA2M_ANPR/ANPR_RZA2M_EBK/src/tensorflow_lite/tensorflow/lite/kernels/internal/reference\log_softmax.h ****         sum_of_exps_in_q12 =
 196:C:/Renesas/e2studio_2021_01_workspace_RZA2M_ANPR/ANPR_RZA2M_EBK/src/tensorflow_lite/tensorflow/lite/kernels/internal/reference\log_softmax.h ****             sum_of_exps_in_q12 +
 3920              		.loc 7 196 0
 3921 04bc 020050E1 		cmp	r0, r2
 3922 04c0 0300A0D1 		movle	r0, r3
 3923 04c4 010083C2 		addgt	r0, r3, #1
 3924 04c8 FEFFFFEB 		bl	_ZN8gemmlowp22exp_on_negative_valuesIlLi5EEENS_10FixedPointIT_Li0EEENS1_IS2_XT0_EEE
 3925              	.LVL273:
 3926              	.LBB3726:
 3927              	.LBB3727:
 3928              	.LBB3728:
 3929              	.LBB3729:
 3930              	.LBB3730:
 3931              	.LBB3731:
 3932              	.LBB3732:
 3933              	.LBB3733:
  95:C:/Renesas/e2studio_2021_01_workspace_RZA2M_ANPR/ANPR_RZA2M_EBK/src/tensorflow_lite/third_party/gemmlowp/fixedpoint\fixedpoint.h **** }
 3934              		.loc 5 95 0
 3935 04cc FF2700E3 		movw	r2, #2047
 3936              	.LBE3733:
 3937              	.LBE3732:
 3938              	.LBB3735:
 3939              	.LBB3736:
 141:C:/Renesas/e2studio_2021_01_workspace_RZA2M_ANPR/ANPR_RZA2M_EBK/src/tensorflow_lite/third_party/gemmlowp/fixedpoint\fixedpoint.h **** }
 3940              		.loc 5 141 0
 3941 04d0 4036A0E1 		asr	r3, r0, #12
 3942              	.LBE3736:
 3943              	.LBE3735:
 3944              	.LBB3737:
 3945              	.LBB3734:
  95:C:/Renesas/e2studio_2021_01_workspace_RZA2M_ANPR/ANPR_RZA2M_EBK/src/tensorflow_lite/third_party/gemmlowp/fixedpoint\fixedpoint.h **** }
 3946              		.loc 5 95 0
 3947 04d4 A02F82E0 		add	r2, r2, r0, lsr #31
 3948              	.LBE3734:
 3949              	.LBE3737:
 3950              	.LBB3738:
 3951              	.LBB3739:
  71:C:/Renesas/e2studio_2021_01_workspace_RZA2M_ANPR/ANPR_RZA2M_EBK/src/tensorflow_lite/third_party/gemmlowp/fixedpoint\fixedpoint.h **** }
 3952              		.loc 5 71 0
 3953 04d8 5000EBE7 		ubfx	r0, r0, #0, #12
 3954              	.LVL274:
 3955              	.LBE3739:
 3956              	.LBE3738:
 3957              	.LBE3731:
 3958              	.LBE3730:
 3959              	.LBE3729:
 3960              	.LBE3728:
 3961              	.LBE3727:
 3962              	.LBE3726:
 3963              	.LBB3747:
 3964              	.LBB3748:
 3965              	.LBB3749:
  95:C:/Renesas/e2studio_2021_01_workspace_RZA2M_ANPR/ANPR_RZA2M_EBK/src/tensorflow_lite/third_party/gemmlowp/fixedpoint\fixedpoint.h **** }
 3966              		.loc 5 95 0
 3967 04dc 024BDDED 		vldr.64	d20, [sp, #8]	@ int
 3968              	.LBE3749:
 3969              	.LBE3748:
 3970              	.LBE3747:
 3971              	.LBB3752:
 3972              	.LBB3746:
 3973              	.LBB3745:
 3974              	.LBB3744:
 3975              	.LBB3743:
 3976              	.LBB3742:
 3977              	.LBB3740:
 3978              	.LBB3741:
 3979 04e0 020050E1 		cmp	r0, r2
 3980 04e4 0300A0D1 		movle	r0, r3
 3981 04e8 010083C2 		addgt	r0, r3, #1
 3982              	.LVL275:
 3983              	.LBE3741:
 3984              	.LBE3740:
 3985              	.LBE3742:
 3986              	.LBE3743:
 3987              	.LBE3744:
 3988              	.LBE3745:
 3989              	.LBE3746:
 3990              	.LBE3752:
 3991              	.LBE3762:
 3992              	.LBE3772:
 3993              	.LBE3783:
 188:C:/Renesas/e2studio_2021_01_workspace_RZA2M_ANPR/ANPR_RZA2M_EBK/src/tensorflow_lite/tensorflow/lite/kernels/internal/reference\log_softmax.h ****       int32_t input_diff =
 3994              		.loc 7 188 0
 3995 04ec 06005BE1 		cmp	fp, r6
 3996              	.LBB3784:
 3997              	.LBB3773:
 3998              	.LBB3763:
 3999              	.LBB3753:
 4000              	.LBB3751:
 4001              	.LBB3750:
  95:C:/Renesas/e2studio_2021_01_workspace_RZA2M_ANPR/ANPR_RZA2M_EBK/src/tensorflow_lite/third_party/gemmlowp/fixedpoint\fixedpoint.h **** }
 4002              		.loc 5 95 0
 4003 04f0 007087E0 		add	r7, r7, r0
 4004              	.LVL276:
 4005              	.LBE3750:
 4006              	.LBE3751:
 4007              	.LBE3753:
 4008              	.LBE3763:
 4009              	.LBE3773:
 4010              	.LBE3784:
 188:C:/Renesas/e2studio_2021_01_workspace_RZA2M_ANPR/ANPR_RZA2M_EBK/src/tensorflow_lite/tensorflow/lite/kernels/internal/reference\log_softmax.h ****       int32_t input_diff =
 4011              		.loc 7 188 0
 4012 04f4 CDFFFF1A 		bne	.L186
 4013              	.LVL277:
 4014              	.L188:
 4015 04f8 907B80EE 		vdup.32	d16, r7
 4016              	.LBE4356:
 4017              	.LBB4357:
 4018              	.LBB4319:
 4019              	.LBB4303:
 4020              	.LBB3870:
 4021              	.LBB3871:
 164:C:/Renesas/e2studio_2021_01_workspace_RZA2M_ANPR/ANPR_RZA2M_EBK/src/tensorflow_lite/tensorflow/lite/kernels/internal\common.h ****                                  x * (1 << left_shift), quantized_multiplier),
 165:C:/Renesas/e2studio_2021_01_workspace_RZA2M_ANPR/ANPR_RZA2M_EBK/src/tensorflow_lite/tensorflow/lite/kernels/internal\common.h ****                              right_shift);
 166:C:/Renesas/e2studio_2021_01_workspace_RZA2M_ANPR/ANPR_RZA2M_EBK/src/tensorflow_lite/tensorflow/lite/kernels/internal\common.h **** }
 167:C:/Renesas/e2studio_2021_01_workspace_RZA2M_ANPR/ANPR_RZA2M_EBK/src/tensorflow_lite/tensorflow/lite/kernels/internal\common.h **** 
 168:C:/Renesas/e2studio_2021_01_workspace_RZA2M_ANPR/ANPR_RZA2M_EBK/src/tensorflow_lite/tensorflow/lite/kernels/internal\common.h **** inline int32_t MultiplyByQuantizedMultiplier(int64_t x,
 169:C:/Renesas/e2studio_2021_01_workspace_RZA2M_ANPR/ANPR_RZA2M_EBK/src/tensorflow_lite/tensorflow/lite/kernels/internal\common.h ****                                              int32_t quantized_multiplier,
 170:C:/Renesas/e2studio_2021_01_workspace_RZA2M_ANPR/ANPR_RZA2M_EBK/src/tensorflow_lite/tensorflow/lite/kernels/internal\common.h ****                                              int shift) {
 171:C:/Renesas/e2studio_2021_01_workspace_RZA2M_ANPR/ANPR_RZA2M_EBK/src/tensorflow_lite/tensorflow/lite/kernels/internal\common.h ****   // Inputs:
 172:C:/Renesas/e2studio_2021_01_workspace_RZA2M_ANPR/ANPR_RZA2M_EBK/src/tensorflow_lite/tensorflow/lite/kernels/internal\common.h ****   // - quantized_multiplier has fixed point at bit 31
 173:C:/Renesas/e2studio_2021_01_workspace_RZA2M_ANPR/ANPR_RZA2M_EBK/src/tensorflow_lite/tensorflow/lite/kernels/internal\common.h ****   // - shift is -31 to +7 (negative for right shift)
 174:C:/Renesas/e2studio_2021_01_workspace_RZA2M_ANPR/ANPR_RZA2M_EBK/src/tensorflow_lite/tensorflow/lite/kernels/internal\common.h ****   //
 175:C:/Renesas/e2studio_2021_01_workspace_RZA2M_ANPR/ANPR_RZA2M_EBK/src/tensorflow_lite/tensorflow/lite/kernels/internal\common.h ****   // Assumptions: The following input ranges are assumed
 176:C:/Renesas/e2studio_2021_01_workspace_RZA2M_ANPR/ANPR_RZA2M_EBK/src/tensorflow_lite/tensorflow/lite/kernels/internal\common.h ****   // - quantize_scale>=0  (the usual range is (1<<30) to (1>>31)-1)
 177:C:/Renesas/e2studio_2021_01_workspace_RZA2M_ANPR/ANPR_RZA2M_EBK/src/tensorflow_lite/tensorflow/lite/kernels/internal\common.h ****   // - scaling is chosen so final scaled result fits in int32_t
 178:C:/Renesas/e2studio_2021_01_workspace_RZA2M_ANPR/ANPR_RZA2M_EBK/src/tensorflow_lite/tensorflow/lite/kernels/internal\common.h ****   // - input x is in the range -(1<<47) <= x < (1<<47)
 179:C:/Renesas/e2studio_2021_01_workspace_RZA2M_ANPR/ANPR_RZA2M_EBK/src/tensorflow_lite/tensorflow/lite/kernels/internal\common.h ****   assert(quantized_multiplier >= 0);
 180:C:/Renesas/e2studio_2021_01_workspace_RZA2M_ANPR/ANPR_RZA2M_EBK/src/tensorflow_lite/tensorflow/lite/kernels/internal\common.h ****   assert(shift >= -31 && shift < 8);
 181:C:/Renesas/e2studio_2021_01_workspace_RZA2M_ANPR/ANPR_RZA2M_EBK/src/tensorflow_lite/tensorflow/lite/kernels/internal\common.h ****   assert(x >= -(static_cast<int64_t>(1) << 47) &&
 182:C:/Renesas/e2studio_2021_01_workspace_RZA2M_ANPR/ANPR_RZA2M_EBK/src/tensorflow_lite/tensorflow/lite/kernels/internal\common.h ****          x < (static_cast<int64_t>(1) << 47));
 183:C:/Renesas/e2studio_2021_01_workspace_RZA2M_ANPR/ANPR_RZA2M_EBK/src/tensorflow_lite/tensorflow/lite/kernels/internal\common.h **** 
 184:C:/Renesas/e2studio_2021_01_workspace_RZA2M_ANPR/ANPR_RZA2M_EBK/src/tensorflow_lite/tensorflow/lite/kernels/internal\common.h ****   int32_t reduced_multiplier = (quantized_multiplier < 0x7FFF0000)
 185:C:/Renesas/e2studio_2021_01_workspace_RZA2M_ANPR/ANPR_RZA2M_EBK/src/tensorflow_lite/tensorflow/lite/kernels/internal\common.h ****                                    ? ((quantized_multiplier + (1 << 15)) >> 16)
 186:C:/Renesas/e2studio_2021_01_workspace_RZA2M_ANPR/ANPR_RZA2M_EBK/src/tensorflow_lite/tensorflow/lite/kernels/internal\common.h ****                                    : 0x7FFF;
 187:C:/Renesas/e2studio_2021_01_workspace_RZA2M_ANPR/ANPR_RZA2M_EBK/src/tensorflow_lite/tensorflow/lite/kernels/internal\common.h ****   int total_shift = 15 - shift;
 188:C:/Renesas/e2studio_2021_01_workspace_RZA2M_ANPR/ANPR_RZA2M_EBK/src/tensorflow_lite/tensorflow/lite/kernels/internal\common.h ****   x = (x * (int64_t)reduced_multiplier) + ((int64_t)1 << (total_shift - 1));
 189:C:/Renesas/e2studio_2021_01_workspace_RZA2M_ANPR/ANPR_RZA2M_EBK/src/tensorflow_lite/tensorflow/lite/kernels/internal\common.h ****   int32_t result = x >> total_shift;
 190:C:/Renesas/e2studio_2021_01_workspace_RZA2M_ANPR/ANPR_RZA2M_EBK/src/tensorflow_lite/tensorflow/lite/kernels/internal\common.h ****   return result;
 191:C:/Renesas/e2studio_2021_01_workspace_RZA2M_ANPR/ANPR_RZA2M_EBK/src/tensorflow_lite/tensorflow/lite/kernels/internal\common.h **** }
 192:C:/Renesas/e2studio_2021_01_workspace_RZA2M_ANPR/ANPR_RZA2M_EBK/src/tensorflow_lite/tensorflow/lite/kernels/internal\common.h **** 
 193:C:/Renesas/e2studio_2021_01_workspace_RZA2M_ANPR/ANPR_RZA2M_EBK/src/tensorflow_lite/tensorflow/lite/kernels/internal\common.h **** #ifdef USE_NEON
 194:C:/Renesas/e2studio_2021_01_workspace_RZA2M_ANPR/ANPR_RZA2M_EBK/src/tensorflow_lite/tensorflow/lite/kernels/internal\common.h **** // Round uses ARM's rounding shift right.
 195:C:/Renesas/e2studio_2021_01_workspace_RZA2M_ANPR/ANPR_RZA2M_EBK/src/tensorflow_lite/tensorflow/lite/kernels/internal\common.h **** inline int32x4x4_t MultiplyByQuantizedMultiplier4Rows(
 196:C:/Renesas/e2studio_2021_01_workspace_RZA2M_ANPR/ANPR_RZA2M_EBK/src/tensorflow_lite/tensorflow/lite/kernels/internal\common.h ****     int32x4x4_t input_val, int32_t quantized_multiplier, int shift) {
 197:C:/Renesas/e2studio_2021_01_workspace_RZA2M_ANPR/ANPR_RZA2M_EBK/src/tensorflow_lite/tensorflow/lite/kernels/internal\common.h ****   const int left_shift = std::max(shift, 0);
 198:C:/Renesas/e2studio_2021_01_workspace_RZA2M_ANPR/ANPR_RZA2M_EBK/src/tensorflow_lite/tensorflow/lite/kernels/internal\common.h ****   const int right_shift = std::min(shift, 0);
 199:C:/Renesas/e2studio_2021_01_workspace_RZA2M_ANPR/ANPR_RZA2M_EBK/src/tensorflow_lite/tensorflow/lite/kernels/internal\common.h ****   int32x4x4_t result;
 200:C:/Renesas/e2studio_2021_01_workspace_RZA2M_ANPR/ANPR_RZA2M_EBK/src/tensorflow_lite/tensorflow/lite/kernels/internal\common.h **** 
 201:C:/Renesas/e2studio_2021_01_workspace_RZA2M_ANPR/ANPR_RZA2M_EBK/src/tensorflow_lite/tensorflow/lite/kernels/internal\common.h ****   int32x4_t multiplier_dup = vdupq_n_s32(quantized_multiplier);
 202:C:/Renesas/e2studio_2021_01_workspace_RZA2M_ANPR/ANPR_RZA2M_EBK/src/tensorflow_lite/tensorflow/lite/kernels/internal\common.h ****   int32x4_t left_shift_dup = vdupq_n_s32(left_shift);
 203:C:/Renesas/e2studio_2021_01_workspace_RZA2M_ANPR/ANPR_RZA2M_EBK/src/tensorflow_lite/tensorflow/lite/kernels/internal\common.h ****   int32x4_t right_shift_dup = vdupq_n_s32(right_shift);
 204:C:/Renesas/e2studio_2021_01_workspace_RZA2M_ANPR/ANPR_RZA2M_EBK/src/tensorflow_lite/tensorflow/lite/kernels/internal\common.h **** 
 205:C:/Renesas/e2studio_2021_01_workspace_RZA2M_ANPR/ANPR_RZA2M_EBK/src/tensorflow_lite/tensorflow/lite/kernels/internal\common.h ****   result.val[0] =
 206:C:/Renesas/e2studio_2021_01_workspace_RZA2M_ANPR/ANPR_RZA2M_EBK/src/tensorflow_lite/tensorflow/lite/kernels/internal\common.h ****       vrshlq_s32(vqrdmulhq_s32(vshlq_s32(input_val.val[0], left_shift_dup),
 207:C:/Renesas/e2studio_2021_01_workspace_RZA2M_ANPR/ANPR_RZA2M_EBK/src/tensorflow_lite/tensorflow/lite/kernels/internal\common.h ****                                multiplier_dup),
 208:C:/Renesas/e2studio_2021_01_workspace_RZA2M_ANPR/ANPR_RZA2M_EBK/src/tensorflow_lite/tensorflow/lite/kernels/internal\common.h ****                  right_shift_dup);
 209:C:/Renesas/e2studio_2021_01_workspace_RZA2M_ANPR/ANPR_RZA2M_EBK/src/tensorflow_lite/tensorflow/lite/kernels/internal\common.h **** 
 210:C:/Renesas/e2studio_2021_01_workspace_RZA2M_ANPR/ANPR_RZA2M_EBK/src/tensorflow_lite/tensorflow/lite/kernels/internal\common.h ****   result.val[1] =
 211:C:/Renesas/e2studio_2021_01_workspace_RZA2M_ANPR/ANPR_RZA2M_EBK/src/tensorflow_lite/tensorflow/lite/kernels/internal\common.h ****       vrshlq_s32(vqrdmulhq_s32(vshlq_s32(input_val.val[1], left_shift_dup),
 212:C:/Renesas/e2studio_2021_01_workspace_RZA2M_ANPR/ANPR_RZA2M_EBK/src/tensorflow_lite/tensorflow/lite/kernels/internal\common.h ****                                multiplier_dup),
 213:C:/Renesas/e2studio_2021_01_workspace_RZA2M_ANPR/ANPR_RZA2M_EBK/src/tensorflow_lite/tensorflow/lite/kernels/internal\common.h ****                  right_shift_dup);
 214:C:/Renesas/e2studio_2021_01_workspace_RZA2M_ANPR/ANPR_RZA2M_EBK/src/tensorflow_lite/tensorflow/lite/kernels/internal\common.h **** 
 215:C:/Renesas/e2studio_2021_01_workspace_RZA2M_ANPR/ANPR_RZA2M_EBK/src/tensorflow_lite/tensorflow/lite/kernels/internal\common.h ****   result.val[2] =
 216:C:/Renesas/e2studio_2021_01_workspace_RZA2M_ANPR/ANPR_RZA2M_EBK/src/tensorflow_lite/tensorflow/lite/kernels/internal\common.h ****       vrshlq_s32(vqrdmulhq_s32(vshlq_s32(input_val.val[2], left_shift_dup),
 217:C:/Renesas/e2studio_2021_01_workspace_RZA2M_ANPR/ANPR_RZA2M_EBK/src/tensorflow_lite/tensorflow/lite/kernels/internal\common.h ****                                multiplier_dup),
 218:C:/Renesas/e2studio_2021_01_workspace_RZA2M_ANPR/ANPR_RZA2M_EBK/src/tensorflow_lite/tensorflow/lite/kernels/internal\common.h ****                  right_shift_dup);
 219:C:/Renesas/e2studio_2021_01_workspace_RZA2M_ANPR/ANPR_RZA2M_EBK/src/tensorflow_lite/tensorflow/lite/kernels/internal\common.h **** 
 220:C:/Renesas/e2studio_2021_01_workspace_RZA2M_ANPR/ANPR_RZA2M_EBK/src/tensorflow_lite/tensorflow/lite/kernels/internal\common.h ****   result.val[3] =
 221:C:/Renesas/e2studio_2021_01_workspace_RZA2M_ANPR/ANPR_RZA2M_EBK/src/tensorflow_lite/tensorflow/lite/kernels/internal\common.h ****       vrshlq_s32(vqrdmulhq_s32(vshlq_s32(input_val.val[3], left_shift_dup),
 222:C:/Renesas/e2studio_2021_01_workspace_RZA2M_ANPR/ANPR_RZA2M_EBK/src/tensorflow_lite/tensorflow/lite/kernels/internal\common.h ****                                multiplier_dup),
 223:C:/Renesas/e2studio_2021_01_workspace_RZA2M_ANPR/ANPR_RZA2M_EBK/src/tensorflow_lite/tensorflow/lite/kernels/internal\common.h ****                  right_shift_dup);
 224:C:/Renesas/e2studio_2021_01_workspace_RZA2M_ANPR/ANPR_RZA2M_EBK/src/tensorflow_lite/tensorflow/lite/kernels/internal\common.h **** 
 225:C:/Renesas/e2studio_2021_01_workspace_RZA2M_ANPR/ANPR_RZA2M_EBK/src/tensorflow_lite/tensorflow/lite/kernels/internal\common.h ****   return result;
 226:C:/Renesas/e2studio_2021_01_workspace_RZA2M_ANPR/ANPR_RZA2M_EBK/src/tensorflow_lite/tensorflow/lite/kernels/internal\common.h **** }
 227:C:/Renesas/e2studio_2021_01_workspace_RZA2M_ANPR/ANPR_RZA2M_EBK/src/tensorflow_lite/tensorflow/lite/kernels/internal\common.h **** #endif
 228:C:/Renesas/e2studio_2021_01_workspace_RZA2M_ANPR/ANPR_RZA2M_EBK/src/tensorflow_lite/tensorflow/lite/kernels/internal\common.h **** 
 229:C:/Renesas/e2studio_2021_01_workspace_RZA2M_ANPR/ANPR_RZA2M_EBK/src/tensorflow_lite/tensorflow/lite/kernels/internal\common.h **** template <typename T>
 230:C:/Renesas/e2studio_2021_01_workspace_RZA2M_ANPR/ANPR_RZA2M_EBK/src/tensorflow_lite/tensorflow/lite/kernels/internal\common.h **** int CountLeadingZeros(T integer_input) {
 231:C:/Renesas/e2studio_2021_01_workspace_RZA2M_ANPR/ANPR_RZA2M_EBK/src/tensorflow_lite/tensorflow/lite/kernels/internal\common.h ****   static_assert(std::is_unsigned<T>::value,
 232:C:/Renesas/e2studio_2021_01_workspace_RZA2M_ANPR/ANPR_RZA2M_EBK/src/tensorflow_lite/tensorflow/lite/kernels/internal\common.h ****                 "Only unsigned integer types handled.");
 233:C:/Renesas/e2studio_2021_01_workspace_RZA2M_ANPR/ANPR_RZA2M_EBK/src/tensorflow_lite/tensorflow/lite/kernels/internal\common.h **** #if defined(__GNUC__)
 234:C:/Renesas/e2studio_2021_01_workspace_RZA2M_ANPR/ANPR_RZA2M_EBK/src/tensorflow_lite/tensorflow/lite/kernels/internal\common.h ****   return integer_input ? __builtin_clz(integer_input)
 4022              		.loc 8 234 0
 4023 04fc 000057E3 		cmp	r7, #0
 4024 0500 4C309DE5 		ldr	r3, [sp, #76]
 4025 0504 B000E0F2 		vshr.s64	d16, d16, #32
 4026 0508 9723C3E0 		smull	r2, r3, r7, r3
 4027              	.LVL278:
 4028 050c 020BCDED 		vstr.64	d16, [sp, #8]	@ int
 4029 0510 4402001A 		bne	.L192
 4030 0514 308B59EC 		vmov	r8, r9, d16	@ int
 4031              	.L175:
 4032 0518 000057E3 		cmp	r7, #0
 4033 051c 0010A0D3 		movle	r1, #0
 4034 0520 0110A0C3 		movgt	r1, #1
 4035 0524 008078E2 		rsbs	r8, r8, #0
 4036 0528 000061E2 		rsb	r0, r1, #0
 4037 052c 0090E9E2 		rsc	r9, r9, #0
 4038              	.LBE3871:
 4039              	.LBE3870:
 4040              	.LBE4303:
 4041              	.LBE4319:
 4042              	.LBE4357:
 4043              	.LBB4358:
 181:C:/Renesas/e2studio_2021_01_workspace_RZA2M_ANPR/ANPR_RZA2M_EBK/src/tensorflow_lite/tensorflow/lite/kernels/internal/reference\log_softmax.h ****       max_in_row =
 4044              		.loc 7 181 0
 4045 0530 0040A0E3 		mov	r4, #0
 4046 0534 899FA0E1 		lsl	r9, r9, #31
 4047 0538 011041E2 		sub	r1, r1, #1
 4048 053c 0201C0E3 		bic	r0, r0, #-2147483648
 4049 0540 A89089E1 		orr	r9, r9, r8, lsr #1
 4050 0544 888FA0E1 		lsl	r8, r8, #31
 4051 0548 00C0E0E3 		mvn	ip, #0
 4052 054c 00E0A0E3 		mov	lr, #0
 4053              	.LVL279:
 4054 0550 80484DE3 		movt	r4, 55424
 4055 0554 0050E0E3 		mvn	r5, #0
 4056 0558 F040CDE1 		strd	r4, [sp]
 4057              	.LVL280:
 4058              	.L193:
 4059              	.LBE4358:
 4060              	.LBB4359:
 4061              	.LBB4320:
 4062              	.LBB4304:
 4063              	.LBB3873:
 4064              	.LBB3874:
 4065              	.LBB3875:
 4066              	.LBB3876:
 4067              	.LBB3877:
 4068              	.LBB3878:
 4069              	.LBB3879:
 131:C:/Renesas/e2studio_2021_01_workspace_RZA2M_ANPR/ANPR_RZA2M_EBK/src/tensorflow_lite/third_party/gemmlowp/fixedpoint\fixedpoint.h ****              : wide_shifted > max ? max
 4070              		.loc 5 131 0
 4071 055c 0241A0E3 		mov	r4, #-2147483648
 4072 0560 0050E0E3 		mvn	r5, #0
 4073 0564 040058E1 		cmp	r8, r4
 4074 0568 0540D9E0 		sbcs	r4, r9, r5
 4075 056c 0281A0B3 		movlt	r8, #-2147483648
 4076 0570 040000BA 		blt	.L195
 132:C:/Renesas/e2studio_2021_01_workspace_RZA2M_ANPR/ANPR_RZA2M_EBK/src/tensorflow_lite/third_party/gemmlowp/fixedpoint\fixedpoint.h ****                                   : static_cast<tIntegerType>(wide_shifted);
 4077              		.loc 5 132 0
 4078 0574 0241E0E3 		mvn	r4, #-2147483648
 4079 0578 0050A0E3 		mov	r5, #0
 4080 057c 080054E1 		cmp	r4, r8
 4081 0580 0940D5E0 		sbcs	r4, r5, r9
 4082 0584 0281E0B3 		mvnlt	r8, #-2147483648
 4083              	.L195:
 4084              	.LVL281:
 4085              	.LBE3879:
 4086              	.LBE3878:
 4087              	.LBB3880:
 4088              	.LBB3881:
 4089              	.LBB3882:
  71:C:/Renesas/e2studio_2021_01_workspace_RZA2M_ANPR/ANPR_RZA2M_EBK/src/tensorflow_lite/third_party/gemmlowp/fixedpoint\fixedpoint.h **** }
 4090              		.loc 5 71 0
 4091 0588 081001E0 		and	r1, r1, r8
 4092              	.LBE3882:
 4093              	.LBE3881:
 4094              	.LBE3880:
 4095              	.LBB3885:
 4096              	.LBB3886:
 4097              	.LBB3887:
  83:C:/Renesas/e2studio_2021_01_workspace_RZA2M_ANPR/ANPR_RZA2M_EBK/src/tensorflow_lite/third_party/gemmlowp/fixedpoint\fixedpoint.h **** }
 4098              		.loc 5 83 0
 4099 058c 0390A0E1 		mov	r9, r3
 4100 0590 4C309DE5 		ldr	r3, [sp, #76]
 4101              	.LBE3887:
 4102              	.LBE3886:
 4103              	.LBE3885:
 4104              	.LBB3892:
 4105              	.LBB3883:
 4106              	.LBB3884:
 4107 0594 001021E0 		eor	r1, r1, r0
 4108              	.LBE3884:
 4109              	.LBE3883:
 4110              	.LBE3892:
 4111              	.LBB3893:
 4112              	.LBB3889:
 4113              	.LBB3890:
  71:C:/Renesas/e2studio_2021_01_workspace_RZA2M_ANPR/ANPR_RZA2M_EBK/src/tensorflow_lite/third_party/gemmlowp/fixedpoint\fixedpoint.h **** }
 4114              		.loc 5 71 0
 4115 0598 0C1001E0 		and	r1, r1, ip
 4116              	.LBE3890:
 4117              	.LBE3889:
 4118              	.LBB3891:
 4119              	.LBB3888:
  83:C:/Renesas/e2studio_2021_01_workspace_RZA2M_ANPR/ANPR_RZA2M_EBK/src/tensorflow_lite/third_party/gemmlowp/fixedpoint\fixedpoint.h **** }
 4120              		.loc 5 83 0
 4121 059c 0280A0E1 		mov	r8, r2
 4122 05a0 0E1021E0 		eor	r1, r1, lr
 4123 05a4 9123C3E0 		smull	r2, r3, r1, r3
 4124              	.LVL282:
 4125              	.LBE3888:
 4126              	.LBE3891:
 4127              	.LBE3893:
 4128              	.LBE3877:
 4129              	.LBE3876:
 4130              	.LBE3875:
 4131              	.LBE3874:
 4132              	.LBE3873:
 4133              	.LBB3900:
 4134              	.LBB3901:
 4135              	.LBB3902:
 4136              	.LBB3903:
 335:C:/Renesas/e2studio_2021_01_workspace_RZA2M_ANPR/ANPR_RZA2M_EBK/src/tensorflow_lite/third_party/gemmlowp/fixedpoint\fixedpoint.h ****   std::int32_t ab_x2_high32 =
 4137              		.loc 5 335 0
 4138 05a8 000052E3 		cmp	r2, #0
 4139 05ac 0010D3E2 		sbcs	r1, r3, #0
 4140 05b0 270200BA 		blt	.L274
 4141              	.LVL283:
 4142              	.L405:
 4143 05b4 0101A0E3 		mov	r0, #1073741824
 4144 05b8 0010A0E3 		mov	r1, #0
 4145              	.L196:
 337:C:/Renesas/e2studio_2021_01_workspace_RZA2M_ANPR/ANPR_RZA2M_EBK/src/tensorflow_lite/third_party/gemmlowp/fixedpoint\fixedpoint.h ****   return overflow ? std::numeric_limits<std::int32_t>::max() : ab_x2_high32;
 4146              		.loc 5 337 0
 4147 05bc 024090E0 		adds	r4, r0, r2
 4148 05c0 0350A1E0 		adc	r5, r1, r3
 4149 05c4 0010A0E3 		mov	r1, #0
 4150 05c8 C52FA0E1 		asr	r2, r5, #31
 4151 05cc 0201C2E3 		bic	r0, r2, #-2147483648
 4152 05d0 042090E0 		adds	r2, r0, r4
 4153 05d4 A20FA0E1 		lsr	r0, r2, #31
 4154 05d8 0530A1E0 		adc	r3, r1, r5
 4155 05dc C31FA0E1 		asr	r1, r3, #31
 4156 05e0 830080E1 		orr	r0, r0, r3, lsl #1
 4157              	.LVL284:
 4158              	.LBE3903:
 4159              	.LBE3902:
 4160              	.LBE3901:
 4161              	.LBE3900:
 4162              	.LBB3913:
 4163              	.LBB3914:
 4164              	.LBB3915:
 4165              	.LBB3916:
 4166              	.LBB3917:
 4167              	.LBB3918:
 4168              	.LBB3919:
 158:C:/Renesas/e2studio_2021_01_workspace_RZA2M_ANPR/ANPR_RZA2M_EBK/src/tensorflow_lite/third_party/gemmlowp/fixedpoint\fixedpoint.h **** }
 4169              		.loc 5 158 0
 4170 05e4 070170E3 		cmn	r0, #-1073741823
 4171 05e8 E80300CA 		bgt	.L394
 4172              	.LVL285:
 4173              	.LBE3919:
 4174              	.LBE3918:
 4175              	.LBE3917:
 4176              	.LBB3922:
 4177              	.LBB3923:
 4178              	.LBB3924:
 4179 05ec 070150E3 		cmp	r0, #-1073741823
 4180 05f0 0251A0E3 		mov	r5, #-2147483648
 4181 05f4 00E0A0A3 		movge	lr, #0
 4182 05f8 01E0A0B3 		movlt	lr, #1
 4183 05fc 00C06EE2 		rsb	ip, lr, #0
 4184 0600 0040E0E3 		mvn	r4, #0
 4185 0604 01E04EE2 		sub	lr, lr, #1
 4186 0608 05C00CE0 		and	ip, ip, r5
 4187 060c 0060A0E3 		mov	r6, #0
 4188              	.LVL286:
 4189              	.L197:
 4190              	.LBE3924:
 4191              	.LBE3923:
 4192              	.LBE3922:
 4193              	.LBB3925:
 4194              	.LBB3926:
 127:C:/Renesas/e2studio_2021_01_workspace_RZA2M_ANPR/ANPR_RZA2M_EBK/src/tensorflow_lite/third_party/gemmlowp/fixedpoint\fixedpoint.h ****   const auto min = std::numeric_limits<tIntegerType>::min();
 4195              		.loc 5 127 0
 4196 0610 002090E0 		adds	r2, r0, r0
 131:C:/Renesas/e2studio_2021_01_workspace_RZA2M_ANPR/ANPR_RZA2M_EBK/src/tensorflow_lite/third_party/gemmlowp/fixedpoint\fixedpoint.h ****              : wide_shifted > max ? max
 4197              		.loc 5 131 0
 4198 0614 0201A0E3 		mov	r0, #-2147483648
 4199              	.LVL287:
 127:C:/Renesas/e2studio_2021_01_workspace_RZA2M_ANPR/ANPR_RZA2M_EBK/src/tensorflow_lite/third_party/gemmlowp/fixedpoint\fixedpoint.h ****   const auto min = std::numeric_limits<tIntegerType>::min();
 4200              		.loc 5 127 0
 4201 0618 0130A1E0 		adc	r3, r1, r1
 4202              	.LVL288:
 131:C:/Renesas/e2studio_2021_01_workspace_RZA2M_ANPR/ANPR_RZA2M_EBK/src/tensorflow_lite/third_party/gemmlowp/fixedpoint\fixedpoint.h ****              : wide_shifted > max ? max
 4203              		.loc 5 131 0
 4204 061c 0010E0E3 		mvn	r1, #0
 4205 0620 000052E1 		cmp	r2, r0
 4206 0624 0110D3E0 		sbcs	r1, r3, r1
 4207              	.LBE3926:
 4208              	.LBE3925:
 4209              	.LBB3928:
 4210              	.LBB3929:
 4211              	.LBB3930:
  71:C:/Renesas/e2studio_2021_01_workspace_RZA2M_ANPR/ANPR_RZA2M_EBK/src/tensorflow_lite/third_party/gemmlowp/fixedpoint\fixedpoint.h **** }
 4212              		.loc 5 71 0
 4213 0628 05E00EB0 		andlt	lr, lr, r5
 4214              	.LBE3930:
 4215              	.LBE3929:
 4216              	.LBB3932:
 4217              	.LBB3933:
  83:C:/Renesas/e2studio_2021_01_workspace_RZA2M_ANPR/ANPR_RZA2M_EBK/src/tensorflow_lite/third_party/gemmlowp/fixedpoint\fixedpoint.h **** }
 4218              		.loc 5 83 0
 4219 062c 0EC02CB0 		eorlt	ip, ip, lr
 4220              	.LBE3933:
 4221              	.LBE3932:
 4222              	.LBE3928:
 4223              	.LBB3937:
 4224              	.LBB3927:
 131:C:/Renesas/e2studio_2021_01_workspace_RZA2M_ANPR/ANPR_RZA2M_EBK/src/tensorflow_lite/third_party/gemmlowp/fixedpoint\fixedpoint.h ****              : wide_shifted > max ? max
 4225              		.loc 5 131 0
 4226 0630 060000BA 		blt	.L257
 132:C:/Renesas/e2studio_2021_01_workspace_RZA2M_ANPR/ANPR_RZA2M_EBK/src/tensorflow_lite/third_party/gemmlowp/fixedpoint\fixedpoint.h ****                                   : static_cast<tIntegerType>(wide_shifted);
 4227              		.loc 5 132 0
 4228 0634 020152E3 		cmp	r2, #-2147483648
 4229 0638 0010D3E2 		sbcs	r1, r3, #0
 4230 063c 042002B0 		andlt	r2, r2, r4
 4231              	.LVL289:
 4232 0640 0221E0A3 		mvnge	r2, #-2147483648
 4233              	.LVL290:
 4234 0644 062022B0 		eorlt	r2, r2, r6
 4235              	.LBE3927:
 4236              	.LBE3937:
 4237              	.LBB3938:
 4238              	.LBB3935:
 4239              	.LBB3931:
  71:C:/Renesas/e2studio_2021_01_workspace_RZA2M_ANPR/ANPR_RZA2M_EBK/src/tensorflow_lite/third_party/gemmlowp/fixedpoint\fixedpoint.h **** }
 4240              		.loc 5 71 0
 4241 0648 0E2002E0 		and	r2, r2, lr
 4242              	.LBE3931:
 4243              	.LBE3935:
 4244              	.LBB3936:
 4245              	.LBB3934:
  83:C:/Renesas/e2studio_2021_01_workspace_RZA2M_ANPR/ANPR_RZA2M_EBK/src/tensorflow_lite/third_party/gemmlowp/fixedpoint\fixedpoint.h **** }
 4246              		.loc 5 83 0
 4247 064c 02C02CE0 		eor	ip, ip, r2
 4248              	.LVL291:
 4249              	.L257:
 4250              	.LBE3934:
 4251              	.LBE3936:
 4252              	.LBE3938:
 4253              	.LBE3916:
 4254              	.LBE3915:
 4255              	.LBE3914:
 4256              	.LBE3913:
 4257              	.LBB3943:
 4258              	.LBB3944:
 4259              	.LBB3945:
 4260              	.LBB3946:
 335:C:/Renesas/e2studio_2021_01_workspace_RZA2M_ANPR/ANPR_RZA2M_EBK/src/tensorflow_lite/third_party/gemmlowp/fixedpoint\fixedpoint.h ****   std::int32_t ab_x2_high32 =
 4261              		.loc 5 335 0
 4262 0650 000058E3 		cmp	r8, #0
 4263 0654 00E09DE5 		ldr	lr, [sp]
 4264              	.LVL292:
 4265 0658 0030D9E2 		sbcs	r3, r9, #0
 4266 065c 0101A0A3 		movge	r0, #1073741824
 4267 0660 0701A0B3 		movlt	r0, #-1073741823
 4268 0664 0010A0A3 		movge	r1, #0
 4269 0668 0010E0B3 		mvnlt	r1, #0
 4270              	.LVL293:
 337:C:/Renesas/e2studio_2021_01_workspace_RZA2M_ANPR/ANPR_RZA2M_EBK/src/tensorflow_lite/third_party/gemmlowp/fixedpoint\fixedpoint.h ****   return overflow ? std::numeric_limits<std::int32_t>::max() : ab_x2_high32;
 4271              		.loc 5 337 0
 4272 066c 084090E0 		adds	r4, r0, r8
 4273 0670 0950A1E0 		adc	r5, r1, r9
 4274 0674 0010A0E3 		mov	r1, #0
 4275 0678 C52FA0E1 		asr	r2, r5, #31
 4276 067c 0201C2E3 		bic	r0, r2, #-2147483648
 4277              	.LVL294:
 4278 0680 042090E0 		adds	r2, r0, r4
 4279 0684 A20FA0E1 		lsr	r0, r2, #31
 4280 0688 0530A1E0 		adc	r3, r1, r5
 4281 068c 830080E1 		orr	r0, r0, r3, lsl #1
 4282              	.LVL295:
 4283              	.LBE3946:
 4284              	.LBE3945:
 4285              	.LBE3944:
 4286              	.LBE3943:
 4287              	.LBB3947:
 4288              	.LBB3948:
 4289              		.loc 8 234 0
 4290 0690 000050E3 		cmp	r0, #0
 4291 0694 A203001A 		bne	.L395
 4292 0698 0030A0E3 		mov	r3, #0
 4293 069c 0080A0E1 		mov	r8, r0
 4294 06a0 80394DE3 		movt	r3, 55680
 4295 06a4 0020A0E1 		mov	r2, r0
 4296 06a8 0241A0E3 		mov	r4, #-2147483648
 4297 06ac 0050E0E3 		mvn	r5, #0
 4298 06b0 F040CDE1 		strd	r4, [sp]
 4299              	.LVL296:
 4300              	.L200:
 4301              	.LBE3948:
 4302              	.LBE3947:
 4303              	.LBB3950:
 4304              	.LBB3951:
 4305              	.LBB3952:
 4306              	.LBB3953:
 4307              	.LBB3954:
 4308              	.LBB3955:
 127:C:/Renesas/e2studio_2021_01_workspace_RZA2M_ANPR/ANPR_RZA2M_EBK/src/tensorflow_lite/third_party/gemmlowp/fixedpoint\fixedpoint.h ****   const auto min = std::numeric_limits<tIntegerType>::min();
 4309              		.loc 5 127 0
 4310 06b4 D840CDE1 		ldrd	r4, [sp, #8]
 4311              	.LBE3955:
 4312              	.LBE3954:
 4313              	.LBB3960:
 4314              	.LBB3961:
 4315              	.LBB3962:
 158:C:/Renesas/e2studio_2021_01_workspace_RZA2M_ANPR/ANPR_RZA2M_EBK/src/tensorflow_lite/third_party/gemmlowp/fixedpoint\fixedpoint.h **** }
 4316              		.loc 5 158 0
 4317 06b8 020057E1 		cmp	r7, r2
 4318              	.LBE3962:
 4319              	.LBE3961:
 4320              	.LBE3960:
 4321              	.LBB3967:
 4322              	.LBB3956:
 127:C:/Renesas/e2studio_2021_01_workspace_RZA2M_ANPR/ANPR_RZA2M_EBK/src/tensorflow_lite/third_party/gemmlowp/fixedpoint\fixedpoint.h ****   const auto min = std::numeric_limits<tIntegerType>::min();
 4323              		.loc 5 127 0
 4324 06bc 04009DE5 		ldr	r0, [sp, #4]
 4325              	.LBE3956:
 4326              	.LBE3967:
 4327              	.LBB3968:
 4328              	.LBB3965:
 4329              	.LBB3963:
 158:C:/Renesas/e2studio_2021_01_workspace_RZA2M_ANPR/ANPR_RZA2M_EBK/src/tensorflow_lite/third_party/gemmlowp/fixedpoint\fixedpoint.h **** }
 4330              		.loc 5 158 0
 4331 06c0 0020A0D3 		movle	r2, #0
 4332 06c4 0120A0C3 		movgt	r2, #1
 4333              	.LBE3963:
 4334              	.LBE3965:
 4335              	.LBE3968:
 4336              	.LBB3969:
 4337              	.LBB3970:
 4338              	.LBB3971:
 4339 06c8 080057E1 		cmp	r7, r8
 4340              	.LBE3971:
 4341              	.LBE3970:
 4342              	.LBE3969:
 4343              	.LBB3976:
 4344              	.LBB3957:
 127:C:/Renesas/e2studio_2021_01_workspace_RZA2M_ANPR/ANPR_RZA2M_EBK/src/tensorflow_lite/third_party/gemmlowp/fixedpoint\fixedpoint.h ****   const auto min = std::numeric_limits<tIntegerType>::min();
 4345              		.loc 5 127 0
 4346 06cc 0460A0E1 		mov	r6, r4
 4347 06d0 0570A0E1 		mov	r7, r5
 4348              	.LBE3957:
 4349              	.LBE3976:
 4350              	.LBB3977:
 4351              	.LBB3974:
 4352              	.LBB3972:
 158:C:/Renesas/e2studio_2021_01_workspace_RZA2M_ANPR/ANPR_RZA2M_EBK/src/tensorflow_lite/third_party/gemmlowp/fixedpoint\fixedpoint.h **** }
 4353              		.loc 5 158 0
 4354 06d4 0080A0A3 		movge	r8, #0
 4355 06d8 0180A0B3 		movlt	r8, #1
 4356              	.LBE3972:
 4357              	.LBE3974:
 4358              	.LBE3977:
 4359              	.LBB3978:
 4360              	.LBB3958:
 127:C:/Renesas/e2studio_2021_01_workspace_RZA2M_ANPR/ANPR_RZA2M_EBK/src/tensorflow_lite/third_party/gemmlowp/fixedpoint\fixedpoint.h ****   const auto min = std::numeric_limits<tIntegerType>::min();
 4361              		.loc 5 127 0
 4362 06dc 940001E0 		mul	r1, r4, r0
 4363 06e0 00409DE5 		ldr	r4, [sp]
 4364              	.LBE3958:
 4365              	.LBE3978:
 4366              	.LBB3979:
 4367              	.LBB3966:
 4368              	.LBB3964:
 158:C:/Renesas/e2studio_2021_01_workspace_RZA2M_ANPR/ANPR_RZA2M_EBK/src/tensorflow_lite/third_party/gemmlowp/fixedpoint\fixedpoint.h **** }
 4369              		.loc 5 158 0
 4370 06e4 009062E2 		rsb	r9, r2, #0
 4371              	.LVL297:
 4372              	.LBE3964:
 4373              	.LBE3966:
 4374              	.LBE3979:
 4375              	.LBB3980:
 4376              	.LBB3975:
 4377              	.LBB3973:
 4378 06e8 00A068E2 		rsb	r10, r8, #0
 4379              	.LVL298:
 4380              	.LBE3973:
 4381              	.LBE3975:
 4382              	.LBE3980:
 4383              	.LBB3981:
 4384              	.LBB3959:
 127:C:/Renesas/e2studio_2021_01_workspace_RZA2M_ANPR/ANPR_RZA2M_EBK/src/tensorflow_lite/third_party/gemmlowp/fixedpoint\fixedpoint.h ****   const auto min = std::numeric_limits<tIntegerType>::min();
 4385              		.loc 5 127 0
 4386 06ec 964485E0 		umull	r4, r5, r6, r4
 4387 06f0 00609DE5 		ldr	r6, [sp]
 4388 06f4 961720E0 		mla	r0, r6, r7, r1
 131:C:/Renesas/e2studio_2021_01_workspace_RZA2M_ANPR/ANPR_RZA2M_EBK/src/tensorflow_lite/third_party/gemmlowp/fixedpoint\fixedpoint.h ****              : wide_shifted > max ? max
 4389              		.loc 5 131 0
 4390 06f8 0261A0E3 		mov	r6, #-2147483648
 4391 06fc 060054E1 		cmp	r4, r6
 4392 0700 0070E0E3 		mvn	r7, #0
 127:C:/Renesas/e2studio_2021_01_workspace_RZA2M_ANPR/ANPR_RZA2M_EBK/src/tensorflow_lite/third_party/gemmlowp/fixedpoint\fixedpoint.h ****   const auto min = std::numeric_limits<tIntegerType>::min();
 4393              		.loc 5 127 0
 4394 0704 055080E0 		add	r5, r0, r5
 4395              	.LVL299:
 131:C:/Renesas/e2studio_2021_01_workspace_RZA2M_ANPR/ANPR_RZA2M_EBK/src/tensorflow_lite/third_party/gemmlowp/fixedpoint\fixedpoint.h ****              : wide_shifted > max ? max
 4396              		.loc 5 131 0
 4397 0708 0710D5E0 		sbcs	r1, r5, r7
 4398 070c 0241A0B3 		movlt	r4, #-2147483648
 4399              	.LVL300:
 4400 0710 040000BA 		blt	.L202
 132:C:/Renesas/e2studio_2021_01_workspace_RZA2M_ANPR/ANPR_RZA2M_EBK/src/tensorflow_lite/third_party/gemmlowp/fixedpoint\fixedpoint.h ****                                   : static_cast<tIntegerType>(wide_shifted);
 4401              		.loc 5 132 0
 4402 0714 0201E0E3 		mvn	r0, #-2147483648
 4403 0718 0010A0E3 		mov	r1, #0
 4404 071c 040050E1 		cmp	r0, r4
 4405 0720 0510D1E0 		sbcs	r1, r1, r5
 4406 0724 0241E0B3 		mvnlt	r4, #-2147483648
 4407              	.L202:
 4408              	.LVL301:
 4409              	.LBE3959:
 4410              	.LBE3981:
 4411              	.LBB3982:
 4412              	.LBB3983:
 4413              	.LBB3984:
  71:C:/Renesas/e2studio_2021_01_workspace_RZA2M_ANPR/ANPR_RZA2M_EBK/src/tensorflow_lite/third_party/gemmlowp/fixedpoint\fixedpoint.h **** }
 4414              		.loc 5 71 0
 4415 0728 012042E2 		sub	r2, r2, #1
 4416              	.LVL302:
 4417              	.LBE3984:
 4418              	.LBE3983:
 4419              	.LBB3986:
 4420              	.LBB3987:
 4421 072c 0291C9E3 		bic	r9, r9, #-2147483648
 4422              	.LVL303:
 4423              	.LBE3987:
 4424              	.LBE3986:
 4425              	.LBB3988:
 4426              	.LBB3985:
 4427 0730 024004E0 		and	r4, r4, r2
 4428              	.LVL304:
 4429              	.LBE3985:
 4430              	.LBE3988:
 4431              	.LBE3982:
 4432              	.LBB3991:
 4433              	.LBB3992:
 4434              	.LBB3993:
 4435 0734 018048E2 		sub	r8, r8, #1
 4436              	.LBE3993:
 4437              	.LBE3992:
 4438              	.LBE3991:
 4439              	.LBB4000:
 4440              	.LBB3989:
 4441              	.LBB3990:
  83:C:/Renesas/e2studio_2021_01_workspace_RZA2M_ANPR/ANPR_RZA2M_EBK/src/tensorflow_lite/third_party/gemmlowp/fixedpoint\fixedpoint.h **** }
 4442              		.loc 5 83 0
 4443 0738 094024E0 		eor	r4, r4, r9
 4444              	.LVL305:
 4445              	.LBE3990:
 4446              	.LBE3989:
 4447              	.LBE4000:
 4448              	.LBB4001:
 4449              	.LBB3995:
 4450              	.LBB3996:
  71:C:/Renesas/e2studio_2021_01_workspace_RZA2M_ANPR/ANPR_RZA2M_EBK/src/tensorflow_lite/third_party/gemmlowp/fixedpoint\fixedpoint.h **** }
 4451              		.loc 5 71 0
 4452 073c 02A10AE2 		and	r10, r10, #-2147483648
 4453              	.LVL306:
 4454              	.LBE3996:
 4455              	.LBE3995:
 4456              	.LBB3997:
 4457              	.LBB3994:
 4458 0740 084004E0 		and	r4, r4, r8
 4459              	.LVL307:
 4460              	.LBE3994:
 4461              	.LBE3997:
 4462              	.LBB3998:
 4463              	.LBB3999:
  83:C:/Renesas/e2studio_2021_01_workspace_RZA2M_ANPR/ANPR_RZA2M_EBK/src/tensorflow_lite/third_party/gemmlowp/fixedpoint\fixedpoint.h **** }
 4464              		.loc 5 83 0
 4465 0744 0A7024E0 		eor	r7, r4, r10
 4466              	.LVL308:
 4467              	.L201:
 4468 0748 0C0057E1 		cmp	r7, ip
 4469 074c 0C70A0A1 		movge	r7, ip
 4470              	.LVL309:
 4471 0750 03005EE1 		cmp	lr, r3
 4472 0754 03A0A0B1 		movlt	r10, r3
 4473              	.LVL310:
 4474              	.LBE3999:
 4475              	.LBE3998:
 4476              	.LBE4001:
 4477              	.LBE3953:
 4478              	.LBE3952:
 4479              	.LBE3951:
 4480              	.LBE3950:
 4481              	.LBB4003:
 4482              	.LBB4004:
 4483              	.LBB4005:
 239:C:/Renesas/e2studio_2021_01_workspace_RZA2M_ANPR/ANPR_RZA2M_EBK/src/tensorflow_lite/third_party/gemmlowp/fixedpoint\fixedpoint.h ****   std::int64_t sign = sum >= 0 ? 1 : -1;
 4484              		.loc 5 239 0
 4485 0758 0D3D4FE2 		adr	r3, .L410+8
 4486 075c D020C3E1 		ldrd	r2, [r3]
 4487 0760 0EA0A0A1 		movge	r10, lr
 4488 0764 072092E0 		adds	r2, r2, r7
 4489 0768 C73FA3E0 		adc	r3, r3, r7, asr #31
 4490              	.LVL311:
 240:C:/Renesas/e2studio_2021_01_workspace_RZA2M_ANPR/ANPR_RZA2M_EBK/src/tensorflow_lite/third_party/gemmlowp/fixedpoint\fixedpoint.h ****   return static_cast<std::int32_t>((sum + sign) / 2);
 4491              		.loc 5 240 0
 4492 076c 000052E3 		cmp	r2, #0
 4493 0770 0010D3E2 		sbcs	r1, r3, #0
 4494 0774 0100A0A3 		movge	r0, #1
 4495 0778 0000E0B3 		mvnlt	r0, #0
 4496 077c 0010A0A3 		movge	r1, #0
 4497 0780 0010E0B3 		mvnlt	r1, #0
 4498              	.LVL312:
 241:C:/Renesas/e2studio_2021_01_workspace_RZA2M_ANPR/ANPR_RZA2M_EBK/src/tensorflow_lite/third_party/gemmlowp/fixedpoint\fixedpoint.h **** }
 4499              		.loc 5 241 0
 4500 0784 024090E0 		adds	r4, r0, r2
 4501 0788 0350A1E0 		adc	r5, r1, r3
 4502              	.LBE4005:
 4503              	.LBE4004:
 4504              	.LBE4003:
 4505              	.LBB4014:
 4506              	.LBB3868:
 4507              	.LBB3866:
 106:C:/Renesas/e2studio_2021_01_workspace_RZA2M_ANPR/ANPR_RZA2M_EBK/src/tensorflow_lite/third_party/gemmlowp/fixedpoint\fixedpoint.h **** }
 4508              		.loc 5 106 0
 4509 078c 6C309DE5 		ldr	r3, [sp, #108]
 4510 0790 032087E0 		add	r2, r7, r3
 4511              	.LVL313:
 4512              	.LBE3866:
 4513              	.LBE3868:
 4514              	.LBE4014:
 4515              	.LBB4015:
 4516              	.LBB4010:
 4517              	.LBB4006:
 241:C:/Renesas/e2studio_2021_01_workspace_RZA2M_ANPR/ANPR_RZA2M_EBK/src/tensorflow_lite/third_party/gemmlowp/fixedpoint\fixedpoint.h **** }
 4518              		.loc 5 241 0
 4519 0794 A53FA0E1 		lsr	r3, r5, #31
 4520              	.LBE4006:
 4521              	.LBE4010:
 4522              	.LBE4015:
 4523              	.LBB4016:
 4524              	.LBB4017:
 4525              	.LBB4018:
  95:C:/Renesas/e2studio_2021_01_workspace_RZA2M_ANPR/ANPR_RZA2M_EBK/src/tensorflow_lite/third_party/gemmlowp/fixedpoint\fixedpoint.h **** }
 4526              		.loc 5 95 0
 4527 0798 8220A0E1 		lsl	r2, r2, #1
 4528              	.LBE4018:
 4529              	.LBE4017:
 4530              	.LBE4016:
 4531              	.LBB4019:
 4532              	.LBB4011:
 4533              	.LBB4007:
 241:C:/Renesas/e2studio_2021_01_workspace_RZA2M_ANPR/ANPR_RZA2M_EBK/src/tensorflow_lite/third_party/gemmlowp/fixedpoint\fixedpoint.h **** }
 4534              		.loc 5 241 0
 4535 079c 030094E0 		adds	r0, r4, r3
 4536              	.LVL314:
 4537 07a0 0010A5E2 		adc	r1, r5, #0
 4538              	.LBE4007:
 4539              	.LBE4011:
 4540              	.LBE4019:
 4541              	.LBB4020:
 4542              	.LBB4021:
 4543              	.LBB4022:
 4544              	.LBB4023:
 334:C:/Renesas/e2studio_2021_01_workspace_RZA2M_ANPR/ANPR_RZA2M_EBK/src/tensorflow_lite/third_party/gemmlowp/fixedpoint\fixedpoint.h ****   std::int32_t nudge = ab_64 >= 0 ? (1 << 30) : (1 - (1 << 30));
 4545              		.loc 5 334 0
 4546 07a4 9742C5E0 		smull	r4, r5, r7, r2
 4547              	.LBE4023:
 4548              	.LBE4022:
 4549              	.LBE4021:
 4550              	.LBE4020:
 4551              	.LBB4048:
 4552              	.LBB4049:
 4553              	.LBB4050:
 4554              	.LBB4051:
 332:C:/Renesas/e2studio_2021_01_workspace_RZA2M_ANPR/ANPR_RZA2M_EBK/src/tensorflow_lite/third_party/gemmlowp/fixedpoint\fixedpoint.h ****   std::int64_t b_64(b);
 4555              		.loc 5 332 0
 4556 07a8 902B80EE 		vdup.32	d16, r2
 4557              	.LBE4051:
 4558              	.LBE4050:
 4559              	.LBE4049:
 4560              	.LBE4048:
 4561              	.LBB4064:
 4562              	.LBB4012:
 4563              	.LBB4008:
 241:C:/Renesas/e2studio_2021_01_workspace_RZA2M_ANPR/ANPR_RZA2M_EBK/src/tensorflow_lite/third_party/gemmlowp/fixedpoint\fixedpoint.h **** }
 4564              		.loc 5 241 0
 4565 07ac C110B0E1 		movs	r1, r1, asr #1
 4566 07b0 6000A0E1 		mov	r0, r0, rrx
 4567              	.LBE4008:
 4568              	.LBE4012:
 4569              	.LBE4064:
 4570              	.LBB4065:
 4571              	.LBB4060:
 4572              	.LBB4056:
 4573              	.LBB4052:
 331:C:/Renesas/e2studio_2021_01_workspace_RZA2M_ANPR/ANPR_RZA2M_EBK/src/tensorflow_lite/third_party/gemmlowp/fixedpoint\fixedpoint.h ****   std::int64_t a_64(a);
 4574              		.loc 5 331 0
 4575 07b4 020152E3 		cmp	r2, #-2147483648
 4576              	.LBE4052:
 4577              	.LBE4056:
 4578              	.LBE4060:
 4579              	.LBE4065:
 4580              	.LBB4066:
 4581              	.LBB4013:
 4582              	.LBB4009:
 241:C:/Renesas/e2studio_2021_01_workspace_RZA2M_ANPR/ANPR_RZA2M_EBK/src/tensorflow_lite/third_party/gemmlowp/fixedpoint\fixedpoint.h **** }
 4583              		.loc 5 241 0
 4584 07b8 F802CDE1 		strd	r0, [sp, #40]
 4585              	.LVL315:
 4586              	.LBE4009:
 4587              	.LBE4013:
 4588              	.LBE4066:
 4589              	.LBB4067:
 4590              	.LBB4061:
 4591              	.LBB4057:
 4592              	.LBB4053:
 332:C:/Renesas/e2studio_2021_01_workspace_RZA2M_ANPR/ANPR_RZA2M_EBK/src/tensorflow_lite/third_party/gemmlowp/fixedpoint\fixedpoint.h ****   std::int64_t b_64(b);
 4593              		.loc 5 332 0
 4594 07bc B000E0F2 		vshr.s64	d16, d16, #32
 331:C:/Renesas/e2studio_2021_01_workspace_RZA2M_ANPR/ANPR_RZA2M_EBK/src/tensorflow_lite/third_party/gemmlowp/fixedpoint\fixedpoint.h ****   std::int64_t a_64(a);
 4595              		.loc 5 331 0
 4596 07c0 01E0A003 		moveq	lr, #1
 4597 07c4 00E0A013 		movne	lr, #0
 4598              	.LVL316:
 332:C:/Renesas/e2studio_2021_01_workspace_RZA2M_ANPR/ANPR_RZA2M_EBK/src/tensorflow_lite/third_party/gemmlowp/fixedpoint\fixedpoint.h ****   std::int64_t b_64(b);
 4599              		.loc 5 332 0
 4600 07c8 100BCDED 		vstr.64	d16, [sp, #64]	@ int
 338:C:/Renesas/e2studio_2021_01_workspace_RZA2M_ANPR/ANPR_RZA2M_EBK/src/tensorflow_lite/third_party/gemmlowp/fixedpoint\fixedpoint.h **** }
 4601              		.loc 5 338 0
 4602 07cc 5A01001A 		bne	.L204
 4603              	.LVL317:
 4604              	.LBE4053:
 4605              	.LBE4057:
 4606              	.LBE4061:
 4607              	.LBE4067:
 4608              	.LBB4068:
 4609              	.LBB4040:
 4610              	.LBB4032:
 4611              	.LBB4024:
 335:C:/Renesas/e2studio_2021_01_workspace_RZA2M_ANPR/ANPR_RZA2M_EBK/src/tensorflow_lite/third_party/gemmlowp/fixedpoint\fixedpoint.h ****   std::int32_t ab_x2_high32 =
 4612              		.loc 5 335 0
 4613 07d0 000054E3 		cmp	r4, #0
 4614 07d4 0030D5E2 		sbcs	r3, r5, #0
 4615 07d8 0181A0A3 		movge	r8, #1073741824
 4616 07dc 0090A0A3 		movge	r9, #0
 4617 07e0 0781A0B3 		movlt	r8, #-1073741823
 4618 07e4 0090E0B3 		mvnlt	r9, #0
 4619              	.LVL318:
 338:C:/Renesas/e2studio_2021_01_workspace_RZA2M_ANPR/ANPR_RZA2M_EBK/src/tensorflow_lite/third_party/gemmlowp/fixedpoint\fixedpoint.h **** }
 4620              		.loc 5 338 0
 4621 07e8 070052E1 		cmp	r2, r7
 4622 07ec 5D03001A 		bne	.L396
 4623 07f0 623A09E3 		movw	r3, #39522
 4624 07f4 0241E0E3 		mvn	r4, #-2147483648
 4625              	.LVL319:
 4626 07f8 63384FE3 		movt	r3, 63587
 4627 07fc 0261E0E3 		mvn	r6, #-2147483648
 4628 0800 00308DE5 		str	r3, [sp]
 4629 0804 CE3203E3 		movw	r3, #13006
 4630 0808 CE3340E3 		movt	r3, 974
 4631 080c 0070A0E3 		mov	r7, #0
 4632              	.LVL320:
 4633 0810 04308DE5 		str	r3, [sp, #4]
 4634 0814 0430A0E1 		mov	r3, r4
 4635              	.LVL321:
 4636              	.L206:
 4637              	.LBE4024:
 4638              	.LBE4032:
 4639              	.LBE4040:
 4640              	.LBE4068:
 4641              	.LBB4069:
 4642              	.LBB4070:
 4643              	.LBB4071:
 4644              	.LBB4072:
 334:C:/Renesas/e2studio_2021_01_workspace_RZA2M_ANPR/ANPR_RZA2M_EBK/src/tensorflow_lite/third_party/gemmlowp/fixedpoint\fixedpoint.h ****   std::int32_t nudge = ab_64 >= 0 ? (1 << 30) : (1 - (1 << 30));
 4645              		.loc 5 334 0
 4646 0818 920701E0 		mul	r1, r2, r7
 4647 081c 44009DE5 		ldr	r0, [sp, #68]
 331:C:/Renesas/e2studio_2021_01_workspace_RZA2M_ANPR/ANPR_RZA2M_EBK/src/tensorflow_lite/third_party/gemmlowp/fixedpoint\fixedpoint.h ****   std::int64_t a_64(a);
 4648              		.loc 5 331 0
 4649 0820 030052E1 		cmp	r2, r3
 4650 0824 0030A013 		movne	r3, #0
 4651 0828 01300E02 		andeq	r3, lr, #1
 4652              	.LVL322:
 334:C:/Renesas/e2studio_2021_01_workspace_RZA2M_ANPR/ANPR_RZA2M_EBK/src/tensorflow_lite/third_party/gemmlowp/fixedpoint\fixedpoint.h ****   std::int32_t nudge = ab_64 >= 0 ? (1 << 30) : (1 - (1 << 30));
 4653              		.loc 5 334 0
 4654 082c 928689E0 		umull	r8, r9, r2, r6
 4655 0830 961026E0 		mla	r6, r6, r0, r1
 4656 0834 F880CDE1 		strd	r8, [sp, #8]
 4657 0838 091086E0 		add	r1, r6, r9
 4658 083c 0C108DE5 		str	r1, [sp, #12]
 4659              	.LVL323:
 335:C:/Renesas/e2studio_2021_01_workspace_RZA2M_ANPR/ANPR_RZA2M_EBK/src/tensorflow_lite/third_party/gemmlowp/fixedpoint\fixedpoint.h ****   std::int32_t ab_x2_high32 =
 4660              		.loc 5 335 0
 4661 0840 D800CDE1 		ldrd	r0, [sp, #8]
 4662 0844 000050E3 		cmp	r0, #0
 4663 0848 0010D1E2 		sbcs	r1, r1, #0
 4664 084c 0701A0B3 		movlt	r0, #-1073741823
 4665 0850 0010E0B3 		mvnlt	r1, #0
 4666 0854 0101A0A3 		movge	r0, #1073741824
 4667 0858 0010A0A3 		movge	r1, #0
 4668              	.LVL324:
 338:C:/Renesas/e2studio_2021_01_workspace_RZA2M_ANPR/ANPR_RZA2M_EBK/src/tensorflow_lite/third_party/gemmlowp/fixedpoint\fixedpoint.h **** }
 4669              		.loc 5 338 0
 4670 085c 000053E3 		cmp	r3, #0
 4671 0860 8801000A 		beq	.L397
 4672 0864 70009DE5 		ldr	r0, [sp, #112]
 4673              	.LVL325:
 4674              	.L208:
 4675              	.LBE4072:
 4676              	.LBE4071:
 4677              	.LBE4070:
 4678              	.LBE4069:
 4679              	.LBB4091:
 4680              	.LBB4092:
 4681              	.LBB4093:
 4682              	.LBB4094:
 335:C:/Renesas/e2studio_2021_01_workspace_RZA2M_ANPR/ANPR_RZA2M_EBK/src/tensorflow_lite/third_party/gemmlowp/fixedpoint\fixedpoint.h ****   std::int32_t ab_x2_high32 =
 4683              		.loc 5 335 0
 4684 0868 D060CDE1 		ldrd	r6, [sp]
 4685              	.LBE4094:
 4686              	.LBE4093:
 4687              	.LBE4092:
 4688              	.LBE4091:
 4689              	.LBB4110:
 4690              	.LBB4111:
 4691              	.LBB4112:
  95:C:/Renesas/e2studio_2021_01_workspace_RZA2M_ANPR/ANPR_RZA2M_EBK/src/tensorflow_lite/third_party/gemmlowp/fixedpoint\fixedpoint.h **** }
 4692              		.loc 5 95 0
 4693 086c 004084E0 		add	r4, r4, r0
 4694              	.LVL326:
 4695 0870 004BCDED 		vstr.64	d20, [sp]	@ int
 4696              	.LBE4112:
 4697              	.LBE4111:
 4698              	.LBE4110:
 4699              	.LBB4113:
 4700              	.LBB4105:
 4701              	.LBB4100:
 4702              	.LBB4095:
 335:C:/Renesas/e2studio_2021_01_workspace_RZA2M_ANPR/ANPR_RZA2M_EBK/src/tensorflow_lite/third_party/gemmlowp/fixedpoint\fixedpoint.h ****   std::int32_t ab_x2_high32 =
 4703              		.loc 5 335 0
 4704 0874 000056E3 		cmp	r6, #0
 4705 0878 0030D7E2 		sbcs	r3, r7, #0
 4706              	.LBE4095:
 4707              	.LBE4100:
 4708              	.LBE4105:
 4709              	.LBE4113:
 4710              	.LBB4114:
 4711              	.LBB4115:
 4712              	.LBB4116:
  95:C:/Renesas/e2studio_2021_01_workspace_RZA2M_ANPR/ANPR_RZA2M_EBK/src/tensorflow_lite/third_party/gemmlowp/fixedpoint\fixedpoint.h **** }
 4713              		.loc 5 95 0
 4714 087c 793C00E3 		movw	r3, #3193
 4715              	.LBE4116:
 4716              	.LBE4115:
 4717              	.LBE4114:
 4718              	.LBB4121:
 4719              	.LBB4106:
 4720              	.LBB4101:
 4721              	.LBB4096:
 335:C:/Renesas/e2studio_2021_01_workspace_RZA2M_ANPR/ANPR_RZA2M_EBK/src/tensorflow_lite/third_party/gemmlowp/fixedpoint\fixedpoint.h ****   std::int32_t ab_x2_high32 =
 4722              		.loc 5 335 0
 4723 0880 0181A0A3 		movge	r8, #1073741824
 4724 0884 0781A0B3 		movlt	r8, #-1073741823
 4725 0888 0090A0A3 		movge	r9, #0
 4726 088c 0090E0B3 		mvnlt	r9, #0
 337:C:/Renesas/e2studio_2021_01_workspace_RZA2M_ANPR/ANPR_RZA2M_EBK/src/tensorflow_lite/third_party/gemmlowp/fixedpoint\fixedpoint.h ****   return overflow ? std::numeric_limits<std::int32_t>::max() : ab_x2_high32;
 4727              		.loc 5 337 0
 4728 0890 080096E0 		adds	r0, r6, r8
 4729              	.LBE4096:
 4730              	.LBE4101:
 4731              	.LBE4106:
 4732              	.LBE4121:
 4733              	.LBB4122:
 4734              	.LBB4119:
 4735              	.LBB4117:
  95:C:/Renesas/e2studio_2021_01_workspace_RZA2M_ANPR/ANPR_RZA2M_EBK/src/tensorflow_lite/third_party/gemmlowp/fixedpoint\fixedpoint.h **** }
 4736              		.loc 5 95 0
 4737 0894 0D3F43E3 		movt	r3, 16141
 4738              	.LBE4117:
 4739              	.LBE4119:
 4740              	.LBE4122:
 4741              	.LBB4123:
 4742              	.LBB4107:
 4743              	.LBB4102:
 4744              	.LBB4097:
 337:C:/Renesas/e2studio_2021_01_workspace_RZA2M_ANPR/ANPR_RZA2M_EBK/src/tensorflow_lite/third_party/gemmlowp/fixedpoint\fixedpoint.h ****   return overflow ? std::numeric_limits<std::int32_t>::max() : ab_x2_high32;
 4745              		.loc 5 337 0
 4746 0898 0910A7E0 		adc	r1, r7, r9
 4747 089c 0080A0E1 		mov	r8, r0
 4748 08a0 C16FA0E1 		asr	r6, r1, #31
 4749 08a4 0070A0E3 		mov	r7, #0
 4750              	.LBE4097:
 4751              	.LBE4102:
 4752              	.LBE4107:
 4753              	.LBE4123:
 4754              	.LBB4124:
 4755              	.LBB4120:
 4756              	.LBB4118:
  95:C:/Renesas/e2studio_2021_01_workspace_RZA2M_ANPR/ANPR_RZA2M_EBK/src/tensorflow_lite/third_party/gemmlowp/fixedpoint\fixedpoint.h **** }
 4757              		.loc 5 95 0
 4758 08a8 033082E0 		add	r3, r2, r3
 4759              	.LVL327:
 4760              	.LBE4118:
 4761              	.LBE4120:
 4762              	.LBE4124:
 4763              	.LBB4125:
 4764              	.LBB4108:
 4765              	.LBB4103:
 4766              	.LBB4098:
 337:C:/Renesas/e2studio_2021_01_workspace_RZA2M_ANPR/ANPR_RZA2M_EBK/src/tensorflow_lite/third_party/gemmlowp/fixedpoint\fixedpoint.h ****   return overflow ? std::numeric_limits<std::int32_t>::max() : ab_x2_high32;
 4767              		.loc 5 337 0
 4768 08ac 0261C6E3 		bic	r6, r6, #-2147483648
 4769 08b0 080096E0 		adds	r0, r6, r8
 4770              	.LBE4098:
 4771              	.LBE4103:
 4772              	.LBE4108:
 4773              	.LBE4125:
 4774              	.LBB4126:
 4775              	.LBB4127:
 4776              	.LBB4128:
 4777              	.LBB4129:
 334:C:/Renesas/e2studio_2021_01_workspace_RZA2M_ANPR/ANPR_RZA2M_EBK/src/tensorflow_lite/third_party/gemmlowp/fixedpoint\fixedpoint.h ****   std::int32_t nudge = ab_64 >= 0 ? (1 << 30) : (1 - (1 << 30));
 4778              		.loc 5 334 0
 4779 08b4 D882CDE1 		ldrd	r8, [sp, #40]
 4780              	.LBE4129:
 4781              	.LBE4128:
 4782              	.LBE4127:
 4783              	.LBE4126:
 4784              	.LBB4145:
 4785              	.LBB4109:
 4786              	.LBB4104:
 4787              	.LBB4099:
 337:C:/Renesas/e2studio_2021_01_workspace_RZA2M_ANPR/ANPR_RZA2M_EBK/src/tensorflow_lite/third_party/gemmlowp/fixedpoint\fixedpoint.h ****   return overflow ? std::numeric_limits<std::int32_t>::max() : ab_x2_high32;
 4788              		.loc 5 337 0
 4789 08b8 A00FA0E1 		lsr	r0, r0, #31
 4790 08bc 0110A7E0 		adc	r1, r7, r1
 4791 08c0 810080E1 		orr	r0, r0, r1, lsl #1
 4792              	.LBE4099:
 4793              	.LBE4104:
 4794              	.LBE4109:
 4795              	.LBE4145:
 4796              	.LBB4146:
 4797              	.LBB4147:
 4798              	.LBB4148:
  95:C:/Renesas/e2studio_2021_01_workspace_RZA2M_ANPR/ANPR_RZA2M_EBK/src/tensorflow_lite/third_party/gemmlowp/fixedpoint\fixedpoint.h **** }
 4799              		.loc 5 95 0
 4800 08c4 000083E0 		add	r0, r3, r0
 4801              	.LBE4148:
 4802              	.LBE4147:
 4803              	.LBE4146:
 4804              	.LBB4149:
 4805              	.LBB4140:
 4806              	.LBB4135:
 4807              	.LBB4130:
 334:C:/Renesas/e2studio_2021_01_workspace_RZA2M_ANPR/ANPR_RZA2M_EBK/src/tensorflow_lite/third_party/gemmlowp/fixedpoint\fixedpoint.h ****   std::int32_t nudge = ab_64 >= 0 ? (1 << 30) : (1 - (1 << 30));
 4808              		.loc 5 334 0
 4809 08c8 90090CE0 		mul	ip, r0, r9
 4810              	.LVL328:
 333:C:/Renesas/e2studio_2021_01_workspace_RZA2M_ANPR/ANPR_RZA2M_EBK/src/tensorflow_lite/third_party/gemmlowp/fixedpoint\fixedpoint.h ****   std::int64_t ab_64 = a_64 * b_64;
 4811              		.loc 5 333 0
 4812 08cc C07FA0E1 		asr	r7, r0, #31
 4813 08d0 0060A0E1 		mov	r6, r0
 334:C:/Renesas/e2studio_2021_01_workspace_RZA2M_ANPR/ANPR_RZA2M_EBK/src/tensorflow_lite/third_party/gemmlowp/fixedpoint\fixedpoint.h ****   std::int32_t nudge = ab_64 >= 0 ? (1 << 30) : (1 - (1 << 30));
 4814              		.loc 5 334 0
 4815 08d4 900881E0 		umull	r0, r1, r0, r8
 4816 08d8 98C72CE0 		mla	ip, r8, r7, ip
 335:C:/Renesas/e2studio_2021_01_workspace_RZA2M_ANPR/ANPR_RZA2M_EBK/src/tensorflow_lite/third_party/gemmlowp/fixedpoint\fixedpoint.h ****   std::int32_t ab_x2_high32 =
 4817              		.loc 5 335 0
 4818 08dc 000050E3 		cmp	r0, #0
 334:C:/Renesas/e2studio_2021_01_workspace_RZA2M_ANPR/ANPR_RZA2M_EBK/src/tensorflow_lite/third_party/gemmlowp/fixedpoint\fixedpoint.h ****   std::int32_t nudge = ab_64 >= 0 ? (1 << 30) : (1 - (1 << 30));
 4819              		.loc 5 334 0
 4820 08e0 01308CE0 		add	r3, ip, r1
 4821              	.LVL329:
 4822 08e4 0310A0E1 		mov	r1, r3
 4823              	.LVL330:
 335:C:/Renesas/e2studio_2021_01_workspace_RZA2M_ANPR/ANPR_RZA2M_EBK/src/tensorflow_lite/third_party/gemmlowp/fixedpoint\fixedpoint.h ****   std::int32_t ab_x2_high32 =
 4824              		.loc 5 335 0
 4825 08e8 0030D1E2 		sbcs	r3, r1, #0
 4826              	.LBE4130:
 4827              	.LBE4135:
 4828              	.LBE4140:
 4829              	.LBE4149:
 4830              	.LBB4150:
 4831              	.LBB4151:
 4832              	.LBB4152:
 4833              	.LBB4153:
 334:C:/Renesas/e2studio_2021_01_workspace_RZA2M_ANPR/ANPR_RZA2M_EBK/src/tensorflow_lite/third_party/gemmlowp/fixedpoint\fixedpoint.h ****   std::int32_t nudge = ab_64 >= 0 ? (1 << 30) : (1 - (1 << 30));
 4834              		.loc 5 334 0
 4835 08ec 143C0FE3 		movw	r3, #64532
 4836              	.LBE4153:
 4837              	.LBE4152:
 4838              	.LBE4151:
 4839              	.LBE4150:
 4840              	.LBB4169:
 4841              	.LBB4141:
 4842              	.LBB4136:
 4843              	.LBB4131:
 335:C:/Renesas/e2studio_2021_01_workspace_RZA2M_ANPR/ANPR_RZA2M_EBK/src/tensorflow_lite/third_party/gemmlowp/fixedpoint\fixedpoint.h ****   std::int32_t ab_x2_high32 =
 4844              		.loc 5 335 0
 4845 08f0 0161A0A3 		movge	r6, #1073741824
 4846 08f4 0761A0B3 		movlt	r6, #-1073741823
 4847 08f8 0070A0A3 		movge	r7, #0
 4848 08fc 0070E0B3 		mvnlt	r7, #0
 337:C:/Renesas/e2studio_2021_01_workspace_RZA2M_ANPR/ANPR_RZA2M_EBK/src/tensorflow_lite/third_party/gemmlowp/fixedpoint\fixedpoint.h ****   return overflow ? std::numeric_limits<std::int32_t>::max() : ab_x2_high32;
 4849              		.loc 5 337 0
 4850 0900 060090E0 		adds	r0, r0, r6
 4851              	.LVL331:
 4852              	.LBE4131:
 4853              	.LBE4136:
 4854              	.LBE4141:
 4855              	.LBE4169:
 4856              	.LBB4170:
 4857              	.LBB4164:
 4858              	.LBB4159:
 4859              	.LBB4154:
 334:C:/Renesas/e2studio_2021_01_workspace_RZA2M_ANPR/ANPR_RZA2M_EBK/src/tensorflow_lite/third_party/gemmlowp/fixedpoint\fixedpoint.h ****   std::int32_t nudge = ab_64 >= 0 ? (1 << 30) : (1 - (1 << 30));
 4860              		.loc 5 334 0
 4861 0904 0D3642E3 		movt	r3, 9741
 4862              	.LBE4154:
 4863              	.LBE4159:
 4864              	.LBE4164:
 4865              	.LBE4170:
 4866              	.LBB4171:
 4867              	.LBB4142:
 4868              	.LBB4137:
 4869              	.LBB4132:
 337:C:/Renesas/e2studio_2021_01_workspace_RZA2M_ANPR/ANPR_RZA2M_EBK/src/tensorflow_lite/third_party/gemmlowp/fixedpoint\fixedpoint.h ****   return overflow ? std::numeric_limits<std::int32_t>::max() : ab_x2_high32;
 4870              		.loc 5 337 0
 4871 0908 0710A1E0 		adc	r1, r1, r7
 4872              	.LBE4132:
 4873              	.LBE4137:
 4874              	.LBE4142:
 4875              	.LBE4171:
 4876              	.LBB4172:
 4877              	.LBB4165:
 4878              	.LBB4160:
 4879              	.LBB4155:
 334:C:/Renesas/e2studio_2021_01_workspace_RZA2M_ANPR/ANPR_RZA2M_EBK/src/tensorflow_lite/third_party/gemmlowp/fixedpoint\fixedpoint.h ****   std::int32_t nudge = ab_64 >= 0 ? (1 << 30) : (1 - (1 << 30));
 4880              		.loc 5 334 0
 4881 090c 9283C9E0 		smull	r8, r9, r2, r3
 4882              	.LBE4155:
 4883              	.LBE4160:
 4884              	.LBE4165:
 4885              	.LBE4172:
 4886              	.LBB4173:
 4887              	.LBB4143:
 4888              	.LBB4138:
 4889              	.LBB4133:
 337:C:/Renesas/e2studio_2021_01_workspace_RZA2M_ANPR/ANPR_RZA2M_EBK/src/tensorflow_lite/third_party/gemmlowp/fixedpoint\fixedpoint.h ****   return overflow ? std::numeric_limits<std::int32_t>::max() : ab_x2_high32;
 4890              		.loc 5 337 0
 4891 0910 C16FA0E1 		asr	r6, r1, #31
 4892 0914 0070A0E3 		mov	r7, #0
 4893 0918 0261C6E3 		bic	r6, r6, #-2147483648
 4894 091c 062090E0 		adds	r2, r0, r6
 4895              	.LVL332:
 4896 0920 A20FA0E1 		lsr	r0, r2, #31
 4897 0924 0730A1E0 		adc	r3, r1, r7
 4898              	.LBE4133:
 4899              	.LBE4138:
 4900              	.LBE4143:
 4901              	.LBE4173:
 4902              	.LBB4174:
 4903              	.LBB4166:
 4904              	.LBB4161:
 4905              	.LBB4156:
 335:C:/Renesas/e2studio_2021_01_workspace_RZA2M_ANPR/ANPR_RZA2M_EBK/src/tensorflow_lite/third_party/gemmlowp/fixedpoint\fixedpoint.h ****   std::int32_t ab_x2_high32 =
 4906              		.loc 5 335 0
 4907 0928 000058E3 		cmp	r8, #0
 4908              	.LBE4156:
 4909              	.LBE4161:
 4910              	.LBE4166:
 4911              	.LBE4174:
 4912              	.LBB4175:
 4913              	.LBB4144:
 4914              	.LBB4139:
 4915              	.LBB4134:
 337:C:/Renesas/e2studio_2021_01_workspace_RZA2M_ANPR/ANPR_RZA2M_EBK/src/tensorflow_lite/third_party/gemmlowp/fixedpoint\fixedpoint.h ****   return overflow ? std::numeric_limits<std::int32_t>::max() : ab_x2_high32;
 4916              		.loc 5 337 0
 4917 092c 830080E1 		orr	r0, r0, r3, lsl #1
 4918              	.LVL333:
 4919              	.LBE4134:
 4920              	.LBE4139:
 4921              	.LBE4144:
 4922              	.LBE4175:
 4923              	.LBB4176:
 4924              	.LBB4167:
 4925              	.LBB4162:
 4926              	.LBB4157:
 335:C:/Renesas/e2studio_2021_01_workspace_RZA2M_ANPR/ANPR_RZA2M_EBK/src/tensorflow_lite/third_party/gemmlowp/fixedpoint\fixedpoint.h ****   std::int32_t ab_x2_high32 =
 4927              		.loc 5 335 0
 4928 0930 0030D9E2 		sbcs	r3, r9, #0
 4929 0934 0161A0A3 		movge	r6, #1073741824
 4930 0938 0761A0B3 		movlt	r6, #-1073741823
 4931 093c 0070A0A3 		movge	r7, #0
 4932 0940 0070E0B3 		mvnlt	r7, #0
 4933              	.LVL334:
 337:C:/Renesas/e2studio_2021_01_workspace_RZA2M_ANPR/ANPR_RZA2M_EBK/src/tensorflow_lite/third_party/gemmlowp/fixedpoint\fixedpoint.h ****   return overflow ? std::numeric_limits<std::int32_t>::max() : ab_x2_high32;
 4934              		.loc 5 337 0
 4935 0944 062098E0 		adds	r2, r8, r6
 4936 0948 0730A9E0 		adc	r3, r9, r7
 4937 094c 0090A0E3 		mov	r9, #0
 4938 0950 C38FA0E1 		asr	r8, r3, #31
 4939              	.LVL335:
 4940 0954 0281C8E3 		bic	r8, r8, #-2147483648
 4941 0958 086092E0 		adds	r6, r2, r8
 4942 095c A62FA0E1 		lsr	r2, r6, #31
 4943 0960 0970A3E0 		adc	r7, r3, r9
 4944              	.LBE4157:
 4945              	.LBE4162:
 4946              	.LBE4167:
 4947              	.LBE4176:
 4948              	.LBB4177:
 4949              	.LBB4178:
 4950              	.LBB4179:
 4951              	.LBB4180:
 334:C:/Renesas/e2studio_2021_01_workspace_RZA2M_ANPR/ANPR_RZA2M_EBK/src/tensorflow_lite/third_party/gemmlowp/fixedpoint\fixedpoint.h ****   std::int32_t nudge = ab_64 >= 0 ? (1 << 30) : (1 - (1 << 30));
 4952              		.loc 5 334 0
 4953 0964 FC6B00E3 		movw	r6, #3068
 4954              	.LBE4180:
 4955              	.LBE4179:
 4956              	.LBE4178:
 4957              	.LBE4177:
 4958              	.LBB4202:
 4959              	.LBB4168:
 4960              	.LBB4163:
 4961              	.LBB4158:
 337:C:/Renesas/e2studio_2021_01_workspace_RZA2M_ANPR/ANPR_RZA2M_EBK/src/tensorflow_lite/third_party/gemmlowp/fixedpoint\fixedpoint.h ****   return overflow ? std::numeric_limits<std::int32_t>::max() : ab_x2_high32;
 4962              		.loc 5 337 0
 4963 0968 872082E1 		orr	r2, r2, r7, lsl #1
 4964              	.LBE4158:
 4965              	.LBE4163:
 4966              	.LBE4168:
 4967              	.LBE4202:
 4968              	.LBB4203:
 4969              	.LBB4195:
 4970              	.LBB4188:
 4971              	.LBB4181:
 334:C:/Renesas/e2studio_2021_01_workspace_RZA2M_ANPR/ANPR_RZA2M_EBK/src/tensorflow_lite/third_party/gemmlowp/fixedpoint\fixedpoint.h ****   std::int32_t nudge = ab_64 >= 0 ? (1 << 30) : (1 - (1 << 30));
 4972              		.loc 5 334 0
 4973 096c B96845E3 		movt	r6, 22713
 4974 0970 9A86C9E0 		smull	r8, r9, r10, r6
 4975              	.LBE4181:
 4976              	.LBE4188:
 4977              	.LBE4195:
 4978              	.LBE4203:
 235:C:/Renesas/e2studio_2021_01_workspace_RZA2M_ANPR/ANPR_RZA2M_EBK/src/tensorflow_lite/tensorflow/lite/kernels/internal\common.h ****                        : std::numeric_limits<T>::digits;
 236:C:/Renesas/e2studio_2021_01_workspace_RZA2M_ANPR/ANPR_RZA2M_EBK/src/tensorflow_lite/tensorflow/lite/kernels/internal\common.h **** #else
 237:C:/Renesas/e2studio_2021_01_workspace_RZA2M_ANPR/ANPR_RZA2M_EBK/src/tensorflow_lite/tensorflow/lite/kernels/internal\common.h ****   if (integer_input == 0) {
 238:C:/Renesas/e2studio_2021_01_workspace_RZA2M_ANPR/ANPR_RZA2M_EBK/src/tensorflow_lite/tensorflow/lite/kernels/internal\common.h ****     return std::numeric_limits<T>::digits;
 239:C:/Renesas/e2studio_2021_01_workspace_RZA2M_ANPR/ANPR_RZA2M_EBK/src/tensorflow_lite/tensorflow/lite/kernels/internal\common.h ****   }
 240:C:/Renesas/e2studio_2021_01_workspace_RZA2M_ANPR/ANPR_RZA2M_EBK/src/tensorflow_lite/tensorflow/lite/kernels/internal\common.h **** 
 241:C:/Renesas/e2studio_2021_01_workspace_RZA2M_ANPR/ANPR_RZA2M_EBK/src/tensorflow_lite/tensorflow/lite/kernels/internal\common.h ****   const T one_in_leading_positive = static_cast<T>(1)
 242:C:/Renesas/e2studio_2021_01_workspace_RZA2M_ANPR/ANPR_RZA2M_EBK/src/tensorflow_lite/tensorflow/lite/kernels/internal\common.h ****                                     << (std::numeric_limits<T>::digits - 1);
 243:C:/Renesas/e2studio_2021_01_workspace_RZA2M_ANPR/ANPR_RZA2M_EBK/src/tensorflow_lite/tensorflow/lite/kernels/internal\common.h ****   int leading_zeros = 0;
 244:C:/Renesas/e2studio_2021_01_workspace_RZA2M_ANPR/ANPR_RZA2M_EBK/src/tensorflow_lite/tensorflow/lite/kernels/internal\common.h ****   while (integer_input < one_in_leading_positive) {
 245:C:/Renesas/e2studio_2021_01_workspace_RZA2M_ANPR/ANPR_RZA2M_EBK/src/tensorflow_lite/tensorflow/lite/kernels/internal\common.h ****     integer_input <<= 1;
 246:C:/Renesas/e2studio_2021_01_workspace_RZA2M_ANPR/ANPR_RZA2M_EBK/src/tensorflow_lite/tensorflow/lite/kernels/internal\common.h ****     ++leading_zeros;
 247:C:/Renesas/e2studio_2021_01_workspace_RZA2M_ANPR/ANPR_RZA2M_EBK/src/tensorflow_lite/tensorflow/lite/kernels/internal\common.h ****   }
 248:C:/Renesas/e2studio_2021_01_workspace_RZA2M_ANPR/ANPR_RZA2M_EBK/src/tensorflow_lite/tensorflow/lite/kernels/internal\common.h ****   return leading_zeros;
 249:C:/Renesas/e2studio_2021_01_workspace_RZA2M_ANPR/ANPR_RZA2M_EBK/src/tensorflow_lite/tensorflow/lite/kernels/internal\common.h **** #endif
 250:C:/Renesas/e2studio_2021_01_workspace_RZA2M_ANPR/ANPR_RZA2M_EBK/src/tensorflow_lite/tensorflow/lite/kernels/internal\common.h **** }
 251:C:/Renesas/e2studio_2021_01_workspace_RZA2M_ANPR/ANPR_RZA2M_EBK/src/tensorflow_lite/tensorflow/lite/kernels/internal\common.h **** 
 252:C:/Renesas/e2studio_2021_01_workspace_RZA2M_ANPR/ANPR_RZA2M_EBK/src/tensorflow_lite/tensorflow/lite/kernels/internal\common.h **** template <typename T>
 253:C:/Renesas/e2studio_2021_01_workspace_RZA2M_ANPR/ANPR_RZA2M_EBK/src/tensorflow_lite/tensorflow/lite/kernels/internal\common.h **** inline int CountLeadingSignBits(T integer_input) {
 254:C:/Renesas/e2studio_2021_01_workspace_RZA2M_ANPR/ANPR_RZA2M_EBK/src/tensorflow_lite/tensorflow/lite/kernels/internal\common.h ****   static_assert(std::is_signed<T>::value, "Only signed integer types handled.");
 255:C:/Renesas/e2studio_2021_01_workspace_RZA2M_ANPR/ANPR_RZA2M_EBK/src/tensorflow_lite/tensorflow/lite/kernels/internal\common.h **** #if defined(__GNUC__) && !defined(__clang__)
 256:C:/Renesas/e2studio_2021_01_workspace_RZA2M_ANPR/ANPR_RZA2M_EBK/src/tensorflow_lite/tensorflow/lite/kernels/internal\common.h ****   return integer_input ? __builtin_clrsb(integer_input)
 257:C:/Renesas/e2studio_2021_01_workspace_RZA2M_ANPR/ANPR_RZA2M_EBK/src/tensorflow_lite/tensorflow/lite/kernels/internal\common.h ****                        : std::numeric_limits<T>::digits;
 258:C:/Renesas/e2studio_2021_01_workspace_RZA2M_ANPR/ANPR_RZA2M_EBK/src/tensorflow_lite/tensorflow/lite/kernels/internal\common.h **** #else
 259:C:/Renesas/e2studio_2021_01_workspace_RZA2M_ANPR/ANPR_RZA2M_EBK/src/tensorflow_lite/tensorflow/lite/kernels/internal\common.h ****   using U = typename std::make_unsigned<T>::type;
 260:C:/Renesas/e2studio_2021_01_workspace_RZA2M_ANPR/ANPR_RZA2M_EBK/src/tensorflow_lite/tensorflow/lite/kernels/internal\common.h ****   return integer_input >= 0
 261:C:/Renesas/e2studio_2021_01_workspace_RZA2M_ANPR/ANPR_RZA2M_EBK/src/tensorflow_lite/tensorflow/lite/kernels/internal\common.h ****              ? CountLeadingZeros(static_cast<U>(integer_input)) - 1
 262:C:/Renesas/e2studio_2021_01_workspace_RZA2M_ANPR/ANPR_RZA2M_EBK/src/tensorflow_lite/tensorflow/lite/kernels/internal\common.h ****          : integer_input != std::numeric_limits<T>::min()
 263:C:/Renesas/e2studio_2021_01_workspace_RZA2M_ANPR/ANPR_RZA2M_EBK/src/tensorflow_lite/tensorflow/lite/kernels/internal\common.h ****              ? CountLeadingZeros(2 * static_cast<U>(-integer_input) - 1)
 264:C:/Renesas/e2studio_2021_01_workspace_RZA2M_ANPR/ANPR_RZA2M_EBK/src/tensorflow_lite/tensorflow/lite/kernels/internal\common.h ****              : 0;
 265:C:/Renesas/e2studio_2021_01_workspace_RZA2M_ANPR/ANPR_RZA2M_EBK/src/tensorflow_lite/tensorflow/lite/kernels/internal\common.h **** #endif
 266:C:/Renesas/e2studio_2021_01_workspace_RZA2M_ANPR/ANPR_RZA2M_EBK/src/tensorflow_lite/tensorflow/lite/kernels/internal\common.h **** }
 267:C:/Renesas/e2studio_2021_01_workspace_RZA2M_ANPR/ANPR_RZA2M_EBK/src/tensorflow_lite/tensorflow/lite/kernels/internal\common.h **** 
 268:C:/Renesas/e2studio_2021_01_workspace_RZA2M_ANPR/ANPR_RZA2M_EBK/src/tensorflow_lite/tensorflow/lite/kernels/internal\common.h **** // Use "count leading zeros" helper functions to do a fast Floor(log_2(x)).
 269:C:/Renesas/e2studio_2021_01_workspace_RZA2M_ANPR/ANPR_RZA2M_EBK/src/tensorflow_lite/tensorflow/lite/kernels/internal\common.h **** template <typename Integer>
 270:C:/Renesas/e2studio_2021_01_workspace_RZA2M_ANPR/ANPR_RZA2M_EBK/src/tensorflow_lite/tensorflow/lite/kernels/internal\common.h **** inline Integer FloorLog2(Integer n) {
 271:C:/Renesas/e2studio_2021_01_workspace_RZA2M_ANPR/ANPR_RZA2M_EBK/src/tensorflow_lite/tensorflow/lite/kernels/internal\common.h ****   static_assert(std::is_integral<Integer>::value, "");
 272:C:/Renesas/e2studio_2021_01_workspace_RZA2M_ANPR/ANPR_RZA2M_EBK/src/tensorflow_lite/tensorflow/lite/kernels/internal\common.h ****   static_assert(std::is_signed<Integer>::value, "");
 273:C:/Renesas/e2studio_2021_01_workspace_RZA2M_ANPR/ANPR_RZA2M_EBK/src/tensorflow_lite/tensorflow/lite/kernels/internal\common.h ****   static_assert(sizeof(Integer) == 4 || sizeof(Integer) == 8, "");
 274:C:/Renesas/e2studio_2021_01_workspace_RZA2M_ANPR/ANPR_RZA2M_EBK/src/tensorflow_lite/tensorflow/lite/kernels/internal\common.h ****   TFLITE_CHECK_GT(n, 0);
 275:C:/Renesas/e2studio_2021_01_workspace_RZA2M_ANPR/ANPR_RZA2M_EBK/src/tensorflow_lite/tensorflow/lite/kernels/internal\common.h ****   if (sizeof(Integer) == 4) {
 276:C:/Renesas/e2studio_2021_01_workspace_RZA2M_ANPR/ANPR_RZA2M_EBK/src/tensorflow_lite/tensorflow/lite/kernels/internal\common.h ****     return 30 - CountLeadingSignBits(n);
 277:C:/Renesas/e2studio_2021_01_workspace_RZA2M_ANPR/ANPR_RZA2M_EBK/src/tensorflow_lite/tensorflow/lite/kernels/internal\common.h ****   } else {
 278:C:/Renesas/e2studio_2021_01_workspace_RZA2M_ANPR/ANPR_RZA2M_EBK/src/tensorflow_lite/tensorflow/lite/kernels/internal\common.h ****     return 62 - CountLeadingSignBits(n);
 279:C:/Renesas/e2studio_2021_01_workspace_RZA2M_ANPR/ANPR_RZA2M_EBK/src/tensorflow_lite/tensorflow/lite/kernels/internal\common.h ****   }
 280:C:/Renesas/e2studio_2021_01_workspace_RZA2M_ANPR/ANPR_RZA2M_EBK/src/tensorflow_lite/tensorflow/lite/kernels/internal\common.h **** }
 281:C:/Renesas/e2studio_2021_01_workspace_RZA2M_ANPR/ANPR_RZA2M_EBK/src/tensorflow_lite/tensorflow/lite/kernels/internal\common.h **** 
 282:C:/Renesas/e2studio_2021_01_workspace_RZA2M_ANPR/ANPR_RZA2M_EBK/src/tensorflow_lite/tensorflow/lite/kernels/internal\common.h **** // generate INT16 LUT for function(), e.g., table exp(x) and 1/(1+x) used in
 283:C:/Renesas/e2studio_2021_01_workspace_RZA2M_ANPR/ANPR_RZA2M_EBK/src/tensorflow_lite/tensorflow/lite/kernels/internal\common.h **** // softmax
 284:C:/Renesas/e2studio_2021_01_workspace_RZA2M_ANPR/ANPR_RZA2M_EBK/src/tensorflow_lite/tensorflow/lite/kernels/internal\common.h **** // func - the function to build the LUT for (e.g exp(x))
 285:C:/Renesas/e2studio_2021_01_workspace_RZA2M_ANPR/ANPR_RZA2M_EBK/src/tensorflow_lite/tensorflow/lite/kernels/internal\common.h **** // min,max - table limits
 286:C:/Renesas/e2studio_2021_01_workspace_RZA2M_ANPR/ANPR_RZA2M_EBK/src/tensorflow_lite/tensorflow/lite/kernels/internal\common.h **** // table - pointer to buffer
 287:C:/Renesas/e2studio_2021_01_workspace_RZA2M_ANPR/ANPR_RZA2M_EBK/src/tensorflow_lite/tensorflow/lite/kernels/internal\common.h **** // num - number of elements in the LUT
 288:C:/Renesas/e2studio_2021_01_workspace_RZA2M_ANPR/ANPR_RZA2M_EBK/src/tensorflow_lite/tensorflow/lite/kernels/internal\common.h **** inline void gen_lut(double (*func)(double), double min, double max,
 289:C:/Renesas/e2studio_2021_01_workspace_RZA2M_ANPR/ANPR_RZA2M_EBK/src/tensorflow_lite/tensorflow/lite/kernels/internal\common.h ****                     int16_t* table, const int num) {
 290:C:/Renesas/e2studio_2021_01_workspace_RZA2M_ANPR/ANPR_RZA2M_EBK/src/tensorflow_lite/tensorflow/lite/kernels/internal\common.h ****   // size of table should equal to num + 1
 291:C:/Renesas/e2studio_2021_01_workspace_RZA2M_ANPR/ANPR_RZA2M_EBK/src/tensorflow_lite/tensorflow/lite/kernels/internal\common.h ****   // last element only for slope calculation
 292:C:/Renesas/e2studio_2021_01_workspace_RZA2M_ANPR/ANPR_RZA2M_EBK/src/tensorflow_lite/tensorflow/lite/kernels/internal\common.h ****   double step = (max - min) / (num - 1);
 293:C:/Renesas/e2studio_2021_01_workspace_RZA2M_ANPR/ANPR_RZA2M_EBK/src/tensorflow_lite/tensorflow/lite/kernels/internal\common.h ****   double half_step = step / 2.0;
 294:C:/Renesas/e2studio_2021_01_workspace_RZA2M_ANPR/ANPR_RZA2M_EBK/src/tensorflow_lite/tensorflow/lite/kernels/internal\common.h ****   for (int i = 0; i < num - 1; i++) {
 295:C:/Renesas/e2studio_2021_01_workspace_RZA2M_ANPR/ANPR_RZA2M_EBK/src/tensorflow_lite/tensorflow/lite/kernels/internal\common.h ****     double sample_val = TfLiteRound(func(min + i * step) * 32768.0);
 296:C:/Renesas/e2studio_2021_01_workspace_RZA2M_ANPR/ANPR_RZA2M_EBK/src/tensorflow_lite/tensorflow/lite/kernels/internal\common.h ****     double midpoint_interp_val =
 297:C:/Renesas/e2studio_2021_01_workspace_RZA2M_ANPR/ANPR_RZA2M_EBK/src/tensorflow_lite/tensorflow/lite/kernels/internal\common.h ****         TfLiteRound((func(min + (i + 1) * step) * 32768.0 +
 298:C:/Renesas/e2studio_2021_01_workspace_RZA2M_ANPR/ANPR_RZA2M_EBK/src/tensorflow_lite/tensorflow/lite/kernels/internal\common.h ****                      TfLiteRound(func(min + i * step) * 32768.0)) /
 299:C:/Renesas/e2studio_2021_01_workspace_RZA2M_ANPR/ANPR_RZA2M_EBK/src/tensorflow_lite/tensorflow/lite/kernels/internal\common.h ****                     2.0);
 300:C:/Renesas/e2studio_2021_01_workspace_RZA2M_ANPR/ANPR_RZA2M_EBK/src/tensorflow_lite/tensorflow/lite/kernels/internal\common.h ****     double midpoint_val =
 301:C:/Renesas/e2studio_2021_01_workspace_RZA2M_ANPR/ANPR_RZA2M_EBK/src/tensorflow_lite/tensorflow/lite/kernels/internal\common.h ****         TfLiteRound(func(min + i * step + half_step) * 32768.0);
 302:C:/Renesas/e2studio_2021_01_workspace_RZA2M_ANPR/ANPR_RZA2M_EBK/src/tensorflow_lite/tensorflow/lite/kernels/internal\common.h ****     double midpoint_err = midpoint_interp_val - midpoint_val;
 303:C:/Renesas/e2studio_2021_01_workspace_RZA2M_ANPR/ANPR_RZA2M_EBK/src/tensorflow_lite/tensorflow/lite/kernels/internal\common.h ****     double bias = TfLiteRound(midpoint_err / 2.0);
 304:C:/Renesas/e2studio_2021_01_workspace_RZA2M_ANPR/ANPR_RZA2M_EBK/src/tensorflow_lite/tensorflow/lite/kernels/internal\common.h ****     table[i] = std::min<double>(std::max<double>(sample_val - bias, -32768.0),
 305:C:/Renesas/e2studio_2021_01_workspace_RZA2M_ANPR/ANPR_RZA2M_EBK/src/tensorflow_lite/tensorflow/lite/kernels/internal\common.h ****                                 32767.0);
 306:C:/Renesas/e2studio_2021_01_workspace_RZA2M_ANPR/ANPR_RZA2M_EBK/src/tensorflow_lite/tensorflow/lite/kernels/internal\common.h ****   }
 307:C:/Renesas/e2studio_2021_01_workspace_RZA2M_ANPR/ANPR_RZA2M_EBK/src/tensorflow_lite/tensorflow/lite/kernels/internal\common.h ****   table[num - 1] = std::min<double>(
 308:C:/Renesas/e2studio_2021_01_workspace_RZA2M_ANPR/ANPR_RZA2M_EBK/src/tensorflow_lite/tensorflow/lite/kernels/internal\common.h ****       std::max<double>(TfLiteRound(func(max) * 32768.0), -32768.0), 32767.0);
 309:C:/Renesas/e2studio_2021_01_workspace_RZA2M_ANPR/ANPR_RZA2M_EBK/src/tensorflow_lite/tensorflow/lite/kernels/internal\common.h **** }
 310:C:/Renesas/e2studio_2021_01_workspace_RZA2M_ANPR/ANPR_RZA2M_EBK/src/tensorflow_lite/tensorflow/lite/kernels/internal\common.h **** 
 311:C:/Renesas/e2studio_2021_01_workspace_RZA2M_ANPR/ANPR_RZA2M_EBK/src/tensorflow_lite/tensorflow/lite/kernels/internal\common.h **** // generate INT16 LUT for function(), e.g., table exp(x) and 1/(1+x) used in
 312:C:/Renesas/e2studio_2021_01_workspace_RZA2M_ANPR/ANPR_RZA2M_EBK/src/tensorflow_lite/tensorflow/lite/kernels/internal\common.h **** // softmax
 313:C:/Renesas/e2studio_2021_01_workspace_RZA2M_ANPR/ANPR_RZA2M_EBK/src/tensorflow_lite/tensorflow/lite/kernels/internal\common.h **** // func - the function to build the LUT for (e.g exp(x))
 314:C:/Renesas/e2studio_2021_01_workspace_RZA2M_ANPR/ANPR_RZA2M_EBK/src/tensorflow_lite/tensorflow/lite/kernels/internal\common.h **** // min,max - table limits
 315:C:/Renesas/e2studio_2021_01_workspace_RZA2M_ANPR/ANPR_RZA2M_EBK/src/tensorflow_lite/tensorflow/lite/kernels/internal\common.h **** // table - pointer to buffer
 316:C:/Renesas/e2studio_2021_01_workspace_RZA2M_ANPR/ANPR_RZA2M_EBK/src/tensorflow_lite/tensorflow/lite/kernels/internal\common.h **** // num - number of elements in the LUT
 317:C:/Renesas/e2studio_2021_01_workspace_RZA2M_ANPR/ANPR_RZA2M_EBK/src/tensorflow_lite/tensorflow/lite/kernels/internal\common.h **** inline void gen_lut(float (*func)(float), float min, float max, int16_t* table,
 318:C:/Renesas/e2studio_2021_01_workspace_RZA2M_ANPR/ANPR_RZA2M_EBK/src/tensorflow_lite/tensorflow/lite/kernels/internal\common.h ****                     const int num) {
 319:C:/Renesas/e2studio_2021_01_workspace_RZA2M_ANPR/ANPR_RZA2M_EBK/src/tensorflow_lite/tensorflow/lite/kernels/internal\common.h ****   // size of table should equal to num + 1
 320:C:/Renesas/e2studio_2021_01_workspace_RZA2M_ANPR/ANPR_RZA2M_EBK/src/tensorflow_lite/tensorflow/lite/kernels/internal\common.h ****   // last element only for slope calculation
 321:C:/Renesas/e2studio_2021_01_workspace_RZA2M_ANPR/ANPR_RZA2M_EBK/src/tensorflow_lite/tensorflow/lite/kernels/internal\common.h ****   float step = (max - min) / (num - 1);
 322:C:/Renesas/e2studio_2021_01_workspace_RZA2M_ANPR/ANPR_RZA2M_EBK/src/tensorflow_lite/tensorflow/lite/kernels/internal\common.h ****   float half_step = step / 2.0f;
 323:C:/Renesas/e2studio_2021_01_workspace_RZA2M_ANPR/ANPR_RZA2M_EBK/src/tensorflow_lite/tensorflow/lite/kernels/internal\common.h ****   for (int i = 0; i < num - 1; i++) {
 324:C:/Renesas/e2studio_2021_01_workspace_RZA2M_ANPR/ANPR_RZA2M_EBK/src/tensorflow_lite/tensorflow/lite/kernels/internal\common.h ****     float sample_val = TfLiteRound(func(min + i * step) * 32768.0f);
 325:C:/Renesas/e2studio_2021_01_workspace_RZA2M_ANPR/ANPR_RZA2M_EBK/src/tensorflow_lite/tensorflow/lite/kernels/internal\common.h ****     float midpoint_interp_val =
 326:C:/Renesas/e2studio_2021_01_workspace_RZA2M_ANPR/ANPR_RZA2M_EBK/src/tensorflow_lite/tensorflow/lite/kernels/internal\common.h ****         TfLiteRound((func(min + (i + 1) * step) * 32768.0f +
 327:C:/Renesas/e2studio_2021_01_workspace_RZA2M_ANPR/ANPR_RZA2M_EBK/src/tensorflow_lite/tensorflow/lite/kernels/internal\common.h ****                      TfLiteRound(func(min + i * step) * 32768.0f)) /
 328:C:/Renesas/e2studio_2021_01_workspace_RZA2M_ANPR/ANPR_RZA2M_EBK/src/tensorflow_lite/tensorflow/lite/kernels/internal\common.h ****                     2.0f);
 329:C:/Renesas/e2studio_2021_01_workspace_RZA2M_ANPR/ANPR_RZA2M_EBK/src/tensorflow_lite/tensorflow/lite/kernels/internal\common.h ****     float midpoint_val =
 330:C:/Renesas/e2studio_2021_01_workspace_RZA2M_ANPR/ANPR_RZA2M_EBK/src/tensorflow_lite/tensorflow/lite/kernels/internal\common.h ****         TfLiteRound(func(min + i * step + half_step) * 32768.0f);
 331:C:/Renesas/e2studio_2021_01_workspace_RZA2M_ANPR/ANPR_RZA2M_EBK/src/tensorflow_lite/tensorflow/lite/kernels/internal\common.h ****     float midpoint_err = midpoint_interp_val - midpoint_val;
 332:C:/Renesas/e2studio_2021_01_workspace_RZA2M_ANPR/ANPR_RZA2M_EBK/src/tensorflow_lite/tensorflow/lite/kernels/internal\common.h ****     float bias = TfLiteRound(midpoint_err / 2.0f);
 333:C:/Renesas/e2studio_2021_01_workspace_RZA2M_ANPR/ANPR_RZA2M_EBK/src/tensorflow_lite/tensorflow/lite/kernels/internal\common.h ****     table[i] = std::min<float>(std::max<float>(sample_val - bias, -32768.0f),
 334:C:/Renesas/e2studio_2021_01_workspace_RZA2M_ANPR/ANPR_RZA2M_EBK/src/tensorflow_lite/tensorflow/lite/kernels/internal\common.h ****                                32767.0f);
 335:C:/Renesas/e2studio_2021_01_workspace_RZA2M_ANPR/ANPR_RZA2M_EBK/src/tensorflow_lite/tensorflow/lite/kernels/internal\common.h ****   }
 336:C:/Renesas/e2studio_2021_01_workspace_RZA2M_ANPR/ANPR_RZA2M_EBK/src/tensorflow_lite/tensorflow/lite/kernels/internal\common.h ****   table[num - 1] = std::min<float>(
 337:C:/Renesas/e2studio_2021_01_workspace_RZA2M_ANPR/ANPR_RZA2M_EBK/src/tensorflow_lite/tensorflow/lite/kernels/internal\common.h ****       std::max<float>(TfLiteRound(func(max) * 32768.0f), -32768.0f), 32767.0f);
 338:C:/Renesas/e2studio_2021_01_workspace_RZA2M_ANPR/ANPR_RZA2M_EBK/src/tensorflow_lite/tensorflow/lite/kernels/internal\common.h **** }
 339:C:/Renesas/e2studio_2021_01_workspace_RZA2M_ANPR/ANPR_RZA2M_EBK/src/tensorflow_lite/tensorflow/lite/kernels/internal\common.h **** 
 340:C:/Renesas/e2studio_2021_01_workspace_RZA2M_ANPR/ANPR_RZA2M_EBK/src/tensorflow_lite/tensorflow/lite/kernels/internal\common.h **** // int16_t func table lookup, e.g., lookup exp() and 1/(1+x) used in softmax
 341:C:/Renesas/e2studio_2021_01_workspace_RZA2M_ANPR/ANPR_RZA2M_EBK/src/tensorflow_lite/tensorflow/lite/kernels/internal\common.h **** inline int16_t generic_int16_table_lookup(int16_t value, const int16_t* lut) {
 342:C:/Renesas/e2studio_2021_01_workspace_RZA2M_ANPR/ANPR_RZA2M_EBK/src/tensorflow_lite/tensorflow/lite/kernels/internal\common.h ****   // 512 base value, lut[513] only for calculate slope
 343:C:/Renesas/e2studio_2021_01_workspace_RZA2M_ANPR/ANPR_RZA2M_EBK/src/tensorflow_lite/tensorflow/lite/kernels/internal\common.h ****   uint16_t index = static_cast<uint16_t>(256 + (value >> 7));
 344:C:/Renesas/e2studio_2021_01_workspace_RZA2M_ANPR/ANPR_RZA2M_EBK/src/tensorflow_lite/tensorflow/lite/kernels/internal\common.h ****   assert(index < 512 && "LUT index out of range.");
 345:C:/Renesas/e2studio_2021_01_workspace_RZA2M_ANPR/ANPR_RZA2M_EBK/src/tensorflow_lite/tensorflow/lite/kernels/internal\common.h ****   int16_t offset = value & 0x7f;
 346:C:/Renesas/e2studio_2021_01_workspace_RZA2M_ANPR/ANPR_RZA2M_EBK/src/tensorflow_lite/tensorflow/lite/kernels/internal\common.h **** 
 347:C:/Renesas/e2studio_2021_01_workspace_RZA2M_ANPR/ANPR_RZA2M_EBK/src/tensorflow_lite/tensorflow/lite/kernels/internal\common.h ****   // base and slope are Q0.15
 348:C:/Renesas/e2studio_2021_01_workspace_RZA2M_ANPR/ANPR_RZA2M_EBK/src/tensorflow_lite/tensorflow/lite/kernels/internal\common.h ****   int16_t base = lut[index];
 349:C:/Renesas/e2studio_2021_01_workspace_RZA2M_ANPR/ANPR_RZA2M_EBK/src/tensorflow_lite/tensorflow/lite/kernels/internal\common.h ****   int16_t slope = lut[index + 1] - lut[index];
 350:C:/Renesas/e2studio_2021_01_workspace_RZA2M_ANPR/ANPR_RZA2M_EBK/src/tensorflow_lite/tensorflow/lite/kernels/internal\common.h **** 
 351:C:/Renesas/e2studio_2021_01_workspace_RZA2M_ANPR/ANPR_RZA2M_EBK/src/tensorflow_lite/tensorflow/lite/kernels/internal\common.h ****   // Q0.15 * Q0.7 = Q0.22
 352:C:/Renesas/e2studio_2021_01_workspace_RZA2M_ANPR/ANPR_RZA2M_EBK/src/tensorflow_lite/tensorflow/lite/kernels/internal\common.h ****   // Round and convert from Q0.22 to Q0.15
 353:C:/Renesas/e2studio_2021_01_workspace_RZA2M_ANPR/ANPR_RZA2M_EBK/src/tensorflow_lite/tensorflow/lite/kernels/internal\common.h ****   int32_t delta = (static_cast<int32_t>(slope) * offset + 64) >> 7;
 354:C:/Renesas/e2studio_2021_01_workspace_RZA2M_ANPR/ANPR_RZA2M_EBK/src/tensorflow_lite/tensorflow/lite/kernels/internal\common.h **** 
 355:C:/Renesas/e2studio_2021_01_workspace_RZA2M_ANPR/ANPR_RZA2M_EBK/src/tensorflow_lite/tensorflow/lite/kernels/internal\common.h ****   // Q0.15 + Q0.15
 356:C:/Renesas/e2studio_2021_01_workspace_RZA2M_ANPR/ANPR_RZA2M_EBK/src/tensorflow_lite/tensorflow/lite/kernels/internal\common.h ****   return base + delta;
 357:C:/Renesas/e2studio_2021_01_workspace_RZA2M_ANPR/ANPR_RZA2M_EBK/src/tensorflow_lite/tensorflow/lite/kernels/internal\common.h **** }
 358:C:/Renesas/e2studio_2021_01_workspace_RZA2M_ANPR/ANPR_RZA2M_EBK/src/tensorflow_lite/tensorflow/lite/kernels/internal\common.h **** 
 359:C:/Renesas/e2studio_2021_01_workspace_RZA2M_ANPR/ANPR_RZA2M_EBK/src/tensorflow_lite/tensorflow/lite/kernels/internal\common.h **** // Table of sigmoid(i/24) at 0.16 format - 256 elements.
 360:C:/Renesas/e2studio_2021_01_workspace_RZA2M_ANPR/ANPR_RZA2M_EBK/src/tensorflow_lite/tensorflow/lite/kernels/internal\common.h **** 
 361:C:/Renesas/e2studio_2021_01_workspace_RZA2M_ANPR/ANPR_RZA2M_EBK/src/tensorflow_lite/tensorflow/lite/kernels/internal\common.h **** // We use combined sigmoid and tanh look-up table, since
 362:C:/Renesas/e2studio_2021_01_workspace_RZA2M_ANPR/ANPR_RZA2M_EBK/src/tensorflow_lite/tensorflow/lite/kernels/internal\common.h **** // tanh(x) = 2*sigmoid(2*x) -1.
 363:C:/Renesas/e2studio_2021_01_workspace_RZA2M_ANPR/ANPR_RZA2M_EBK/src/tensorflow_lite/tensorflow/lite/kernels/internal\common.h **** // Both functions are symmetric, so the LUT table is only needed
 364:C:/Renesas/e2studio_2021_01_workspace_RZA2M_ANPR/ANPR_RZA2M_EBK/src/tensorflow_lite/tensorflow/lite/kernels/internal\common.h **** // for the absolute value of the input.
 365:C:/Renesas/e2studio_2021_01_workspace_RZA2M_ANPR/ANPR_RZA2M_EBK/src/tensorflow_lite/tensorflow/lite/kernels/internal\common.h **** static const uint16_t sigmoid_table_uint16[256] = {
 366:C:/Renesas/e2studio_2021_01_workspace_RZA2M_ANPR/ANPR_RZA2M_EBK/src/tensorflow_lite/tensorflow/lite/kernels/internal\common.h ****     32768, 33451, 34133, 34813, 35493, 36169, 36843, 37513, 38180, 38841, 39498,
 367:C:/Renesas/e2studio_2021_01_workspace_RZA2M_ANPR/ANPR_RZA2M_EBK/src/tensorflow_lite/tensorflow/lite/kernels/internal\common.h ****     40149, 40794, 41432, 42064, 42688, 43304, 43912, 44511, 45102, 45683, 46255,
 368:C:/Renesas/e2studio_2021_01_workspace_RZA2M_ANPR/ANPR_RZA2M_EBK/src/tensorflow_lite/tensorflow/lite/kernels/internal\common.h ****     46817, 47369, 47911, 48443, 48964, 49475, 49975, 50464, 50942, 51409, 51865,
 369:C:/Renesas/e2studio_2021_01_workspace_RZA2M_ANPR/ANPR_RZA2M_EBK/src/tensorflow_lite/tensorflow/lite/kernels/internal\common.h ****     52311, 52745, 53169, 53581, 53983, 54374, 54755, 55125, 55485, 55834, 56174,
 370:C:/Renesas/e2studio_2021_01_workspace_RZA2M_ANPR/ANPR_RZA2M_EBK/src/tensorflow_lite/tensorflow/lite/kernels/internal\common.h ****     56503, 56823, 57133, 57433, 57724, 58007, 58280, 58544, 58800, 59048, 59288,
 371:C:/Renesas/e2studio_2021_01_workspace_RZA2M_ANPR/ANPR_RZA2M_EBK/src/tensorflow_lite/tensorflow/lite/kernels/internal\common.h ****     59519, 59743, 59959, 60168, 60370, 60565, 60753, 60935, 61110, 61279, 61441,
 372:C:/Renesas/e2studio_2021_01_workspace_RZA2M_ANPR/ANPR_RZA2M_EBK/src/tensorflow_lite/tensorflow/lite/kernels/internal\common.h ****     61599, 61750, 61896, 62036, 62172, 62302, 62428, 62549, 62666, 62778, 62886,
 373:C:/Renesas/e2studio_2021_01_workspace_RZA2M_ANPR/ANPR_RZA2M_EBK/src/tensorflow_lite/tensorflow/lite/kernels/internal\common.h ****     62990, 63090, 63186, 63279, 63368, 63454, 63536, 63615, 63691, 63765, 63835,
 374:C:/Renesas/e2studio_2021_01_workspace_RZA2M_ANPR/ANPR_RZA2M_EBK/src/tensorflow_lite/tensorflow/lite/kernels/internal\common.h ****     63903, 63968, 64030, 64090, 64148, 64204, 64257, 64308, 64357, 64405, 64450,
 375:C:/Renesas/e2studio_2021_01_workspace_RZA2M_ANPR/ANPR_RZA2M_EBK/src/tensorflow_lite/tensorflow/lite/kernels/internal\common.h ****     64494, 64536, 64576, 64614, 64652, 64687, 64721, 64754, 64786, 64816, 64845,
 376:C:/Renesas/e2studio_2021_01_workspace_RZA2M_ANPR/ANPR_RZA2M_EBK/src/tensorflow_lite/tensorflow/lite/kernels/internal\common.h ****     64873, 64900, 64926, 64950, 64974, 64997, 65019, 65039, 65060, 65079, 65097,
 377:C:/Renesas/e2studio_2021_01_workspace_RZA2M_ANPR/ANPR_RZA2M_EBK/src/tensorflow_lite/tensorflow/lite/kernels/internal\common.h ****     65115, 65132, 65149, 65164, 65179, 65194, 65208, 65221, 65234, 65246, 65258,
 378:C:/Renesas/e2studio_2021_01_workspace_RZA2M_ANPR/ANPR_RZA2M_EBK/src/tensorflow_lite/tensorflow/lite/kernels/internal\common.h ****     65269, 65280, 65291, 65301, 65310, 65319, 65328, 65337, 65345, 65352, 65360,
 379:C:/Renesas/e2studio_2021_01_workspace_RZA2M_ANPR/ANPR_RZA2M_EBK/src/tensorflow_lite/tensorflow/lite/kernels/internal\common.h ****     65367, 65374, 65381, 65387, 65393, 65399, 65404, 65410, 65415, 65420, 65425,
 380:C:/Renesas/e2studio_2021_01_workspace_RZA2M_ANPR/ANPR_RZA2M_EBK/src/tensorflow_lite/tensorflow/lite/kernels/internal\common.h ****     65429, 65433, 65438, 65442, 65445, 65449, 65453, 65456, 65459, 65462, 65465,
 381:C:/Renesas/e2studio_2021_01_workspace_RZA2M_ANPR/ANPR_RZA2M_EBK/src/tensorflow_lite/tensorflow/lite/kernels/internal\common.h ****     65468, 65471, 65474, 65476, 65479, 65481, 65483, 65485, 65488, 65489, 65491,
 382:C:/Renesas/e2studio_2021_01_workspace_RZA2M_ANPR/ANPR_RZA2M_EBK/src/tensorflow_lite/tensorflow/lite/kernels/internal\common.h ****     65493, 65495, 65497, 65498, 65500, 65501, 65503, 65504, 65505, 65507, 65508,
 383:C:/Renesas/e2studio_2021_01_workspace_RZA2M_ANPR/ANPR_RZA2M_EBK/src/tensorflow_lite/tensorflow/lite/kernels/internal\common.h ****     65509, 65510, 65511, 65512, 65513, 65514, 65515, 65516, 65517, 65517, 65518,
 384:C:/Renesas/e2studio_2021_01_workspace_RZA2M_ANPR/ANPR_RZA2M_EBK/src/tensorflow_lite/tensorflow/lite/kernels/internal\common.h ****     65519, 65520, 65520, 65521, 65522, 65522, 65523, 65523, 65524, 65524, 65525,
 385:C:/Renesas/e2studio_2021_01_workspace_RZA2M_ANPR/ANPR_RZA2M_EBK/src/tensorflow_lite/tensorflow/lite/kernels/internal\common.h ****     65525, 65526, 65526, 65526, 65527, 65527, 65528, 65528, 65528, 65529, 65529,
 386:C:/Renesas/e2studio_2021_01_workspace_RZA2M_ANPR/ANPR_RZA2M_EBK/src/tensorflow_lite/tensorflow/lite/kernels/internal\common.h ****     65529, 65529, 65530, 65530, 65530, 65530, 65531, 65531, 65531, 65531, 65531,
 387:C:/Renesas/e2studio_2021_01_workspace_RZA2M_ANPR/ANPR_RZA2M_EBK/src/tensorflow_lite/tensorflow/lite/kernels/internal\common.h ****     65532, 65532, 65532, 65532, 65532, 65532, 65533, 65533, 65533, 65533, 65533,
 388:C:/Renesas/e2studio_2021_01_workspace_RZA2M_ANPR/ANPR_RZA2M_EBK/src/tensorflow_lite/tensorflow/lite/kernels/internal\common.h ****     65533, 65533, 65533, 65534, 65534, 65534, 65534, 65534, 65534, 65534, 65534,
 389:C:/Renesas/e2studio_2021_01_workspace_RZA2M_ANPR/ANPR_RZA2M_EBK/src/tensorflow_lite/tensorflow/lite/kernels/internal\common.h ****     65534, 65534, 65535};
 390:C:/Renesas/e2studio_2021_01_workspace_RZA2M_ANPR/ANPR_RZA2M_EBK/src/tensorflow_lite/tensorflow/lite/kernels/internal\common.h **** 
 391:C:/Renesas/e2studio_2021_01_workspace_RZA2M_ANPR/ANPR_RZA2M_EBK/src/tensorflow_lite/tensorflow/lite/kernels/internal\common.h **** // TODO(b/77858996): Add these to gemmlowp.
 392:C:/Renesas/e2studio_2021_01_workspace_RZA2M_ANPR/ANPR_RZA2M_EBK/src/tensorflow_lite/tensorflow/lite/kernels/internal\common.h **** template <typename IntegerType>
 393:C:/Renesas/e2studio_2021_01_workspace_RZA2M_ANPR/ANPR_RZA2M_EBK/src/tensorflow_lite/tensorflow/lite/kernels/internal\common.h **** IntegerType SaturatingAddNonGemmlowp(IntegerType a, IntegerType b) {
 394:C:/Renesas/e2studio_2021_01_workspace_RZA2M_ANPR/ANPR_RZA2M_EBK/src/tensorflow_lite/tensorflow/lite/kernels/internal\common.h ****   static_assert(std::is_same<IntegerType, void>::value, "unimplemented");
 395:C:/Renesas/e2studio_2021_01_workspace_RZA2M_ANPR/ANPR_RZA2M_EBK/src/tensorflow_lite/tensorflow/lite/kernels/internal\common.h ****   return a;
 396:C:/Renesas/e2studio_2021_01_workspace_RZA2M_ANPR/ANPR_RZA2M_EBK/src/tensorflow_lite/tensorflow/lite/kernels/internal\common.h **** }
 397:C:/Renesas/e2studio_2021_01_workspace_RZA2M_ANPR/ANPR_RZA2M_EBK/src/tensorflow_lite/tensorflow/lite/kernels/internal\common.h **** 
 398:C:/Renesas/e2studio_2021_01_workspace_RZA2M_ANPR/ANPR_RZA2M_EBK/src/tensorflow_lite/tensorflow/lite/kernels/internal\common.h **** template <>
 399:C:/Renesas/e2studio_2021_01_workspace_RZA2M_ANPR/ANPR_RZA2M_EBK/src/tensorflow_lite/tensorflow/lite/kernels/internal\common.h **** inline std::int32_t SaturatingAddNonGemmlowp(std::int32_t a, std::int32_t b) {
 400:C:/Renesas/e2studio_2021_01_workspace_RZA2M_ANPR/ANPR_RZA2M_EBK/src/tensorflow_lite/tensorflow/lite/kernels/internal\common.h ****   std::int64_t a64 = a;
 401:C:/Renesas/e2studio_2021_01_workspace_RZA2M_ANPR/ANPR_RZA2M_EBK/src/tensorflow_lite/tensorflow/lite/kernels/internal\common.h ****   std::int64_t b64 = b;
 402:C:/Renesas/e2studio_2021_01_workspace_RZA2M_ANPR/ANPR_RZA2M_EBK/src/tensorflow_lite/tensorflow/lite/kernels/internal\common.h ****   std::int64_t sum = a64 + b64;
 403:C:/Renesas/e2studio_2021_01_workspace_RZA2M_ANPR/ANPR_RZA2M_EBK/src/tensorflow_lite/tensorflow/lite/kernels/internal\common.h ****   return static_cast<std::int32_t>(std::min(
 404:C:/Renesas/e2studio_2021_01_workspace_RZA2M_ANPR/ANPR_RZA2M_EBK/src/tensorflow_lite/tensorflow/lite/kernels/internal\common.h ****       static_cast<std::int64_t>(std::numeric_limits<std::int32_t>::max()),
 405:C:/Renesas/e2studio_2021_01_workspace_RZA2M_ANPR/ANPR_RZA2M_EBK/src/tensorflow_lite/tensorflow/lite/kernels/internal\common.h ****       std::max(
 406:C:/Renesas/e2studio_2021_01_workspace_RZA2M_ANPR/ANPR_RZA2M_EBK/src/tensorflow_lite/tensorflow/lite/kernels/internal\common.h ****           static_cast<std::int64_t>(std::numeric_limits<std::int32_t>::min()),
 407:C:/Renesas/e2studio_2021_01_workspace_RZA2M_ANPR/ANPR_RZA2M_EBK/src/tensorflow_lite/tensorflow/lite/kernels/internal\common.h ****           sum)));
 408:C:/Renesas/e2studio_2021_01_workspace_RZA2M_ANPR/ANPR_RZA2M_EBK/src/tensorflow_lite/tensorflow/lite/kernels/internal\common.h **** }
 409:C:/Renesas/e2studio_2021_01_workspace_RZA2M_ANPR/ANPR_RZA2M_EBK/src/tensorflow_lite/tensorflow/lite/kernels/internal\common.h **** 
 410:C:/Renesas/e2studio_2021_01_workspace_RZA2M_ANPR/ANPR_RZA2M_EBK/src/tensorflow_lite/tensorflow/lite/kernels/internal\common.h **** template <typename tRawType, int tIntegerBits>
 411:C:/Renesas/e2studio_2021_01_workspace_RZA2M_ANPR/ANPR_RZA2M_EBK/src/tensorflow_lite/tensorflow/lite/kernels/internal\common.h **** gemmlowp::FixedPoint<tRawType, tIntegerBits> SaturatingAddNonGemmlowp(
 412:C:/Renesas/e2studio_2021_01_workspace_RZA2M_ANPR/ANPR_RZA2M_EBK/src/tensorflow_lite/tensorflow/lite/kernels/internal\common.h ****     gemmlowp::FixedPoint<tRawType, tIntegerBits> a,
 413:C:/Renesas/e2studio_2021_01_workspace_RZA2M_ANPR/ANPR_RZA2M_EBK/src/tensorflow_lite/tensorflow/lite/kernels/internal\common.h ****     gemmlowp::FixedPoint<tRawType, tIntegerBits> b) {
 414:C:/Renesas/e2studio_2021_01_workspace_RZA2M_ANPR/ANPR_RZA2M_EBK/src/tensorflow_lite/tensorflow/lite/kernels/internal\common.h ****   return gemmlowp::FixedPoint<tRawType, tIntegerBits>::FromRaw(
 415:C:/Renesas/e2studio_2021_01_workspace_RZA2M_ANPR/ANPR_RZA2M_EBK/src/tensorflow_lite/tensorflow/lite/kernels/internal\common.h ****       SaturatingAddNonGemmlowp(a.raw(), b.raw()));
 416:C:/Renesas/e2studio_2021_01_workspace_RZA2M_ANPR/ANPR_RZA2M_EBK/src/tensorflow_lite/tensorflow/lite/kernels/internal\common.h **** }
 417:C:/Renesas/e2studio_2021_01_workspace_RZA2M_ANPR/ANPR_RZA2M_EBK/src/tensorflow_lite/tensorflow/lite/kernels/internal\common.h **** 
 418:C:/Renesas/e2studio_2021_01_workspace_RZA2M_ANPR/ANPR_RZA2M_EBK/src/tensorflow_lite/tensorflow/lite/kernels/internal\common.h **** template <typename IntegerType>
 419:C:/Renesas/e2studio_2021_01_workspace_RZA2M_ANPR/ANPR_RZA2M_EBK/src/tensorflow_lite/tensorflow/lite/kernels/internal\common.h **** IntegerType SaturatingSub(IntegerType a, IntegerType b) {
 420:C:/Renesas/e2studio_2021_01_workspace_RZA2M_ANPR/ANPR_RZA2M_EBK/src/tensorflow_lite/tensorflow/lite/kernels/internal\common.h ****   static_assert(std::is_same<IntegerType, void>::value, "unimplemented");
 421:C:/Renesas/e2studio_2021_01_workspace_RZA2M_ANPR/ANPR_RZA2M_EBK/src/tensorflow_lite/tensorflow/lite/kernels/internal\common.h ****   return a;
 422:C:/Renesas/e2studio_2021_01_workspace_RZA2M_ANPR/ANPR_RZA2M_EBK/src/tensorflow_lite/tensorflow/lite/kernels/internal\common.h **** }
 423:C:/Renesas/e2studio_2021_01_workspace_RZA2M_ANPR/ANPR_RZA2M_EBK/src/tensorflow_lite/tensorflow/lite/kernels/internal\common.h **** 
 424:C:/Renesas/e2studio_2021_01_workspace_RZA2M_ANPR/ANPR_RZA2M_EBK/src/tensorflow_lite/tensorflow/lite/kernels/internal\common.h **** template <>
 425:C:/Renesas/e2studio_2021_01_workspace_RZA2M_ANPR/ANPR_RZA2M_EBK/src/tensorflow_lite/tensorflow/lite/kernels/internal\common.h **** inline std::int16_t SaturatingSub(std::int16_t a, std::int16_t b) {
 426:C:/Renesas/e2studio_2021_01_workspace_RZA2M_ANPR/ANPR_RZA2M_EBK/src/tensorflow_lite/tensorflow/lite/kernels/internal\common.h ****   std::int32_t a32 = a;
 427:C:/Renesas/e2studio_2021_01_workspace_RZA2M_ANPR/ANPR_RZA2M_EBK/src/tensorflow_lite/tensorflow/lite/kernels/internal\common.h ****   std::int32_t b32 = b;
 428:C:/Renesas/e2studio_2021_01_workspace_RZA2M_ANPR/ANPR_RZA2M_EBK/src/tensorflow_lite/tensorflow/lite/kernels/internal\common.h ****   std::int32_t diff = a32 - b32;
 429:C:/Renesas/e2studio_2021_01_workspace_RZA2M_ANPR/ANPR_RZA2M_EBK/src/tensorflow_lite/tensorflow/lite/kernels/internal\common.h ****   return static_cast<std::int16_t>(
 430:C:/Renesas/e2studio_2021_01_workspace_RZA2M_ANPR/ANPR_RZA2M_EBK/src/tensorflow_lite/tensorflow/lite/kernels/internal\common.h ****       std::min(static_cast<int32_t>(32767),
 431:C:/Renesas/e2studio_2021_01_workspace_RZA2M_ANPR/ANPR_RZA2M_EBK/src/tensorflow_lite/tensorflow/lite/kernels/internal\common.h ****                std::max(static_cast<int32_t>(-32768), diff)));
 432:C:/Renesas/e2studio_2021_01_workspace_RZA2M_ANPR/ANPR_RZA2M_EBK/src/tensorflow_lite/tensorflow/lite/kernels/internal\common.h **** }
 433:C:/Renesas/e2studio_2021_01_workspace_RZA2M_ANPR/ANPR_RZA2M_EBK/src/tensorflow_lite/tensorflow/lite/kernels/internal\common.h **** 
 434:C:/Renesas/e2studio_2021_01_workspace_RZA2M_ANPR/ANPR_RZA2M_EBK/src/tensorflow_lite/tensorflow/lite/kernels/internal\common.h **** template <>
 435:C:/Renesas/e2studio_2021_01_workspace_RZA2M_ANPR/ANPR_RZA2M_EBK/src/tensorflow_lite/tensorflow/lite/kernels/internal\common.h **** inline std::int32_t SaturatingSub(std::int32_t a, std::int32_t b) {
 436:C:/Renesas/e2studio_2021_01_workspace_RZA2M_ANPR/ANPR_RZA2M_EBK/src/tensorflow_lite/tensorflow/lite/kernels/internal\common.h ****   std::int64_t a64 = a;
 437:C:/Renesas/e2studio_2021_01_workspace_RZA2M_ANPR/ANPR_RZA2M_EBK/src/tensorflow_lite/tensorflow/lite/kernels/internal\common.h ****   std::int64_t b64 = b;
 438:C:/Renesas/e2studio_2021_01_workspace_RZA2M_ANPR/ANPR_RZA2M_EBK/src/tensorflow_lite/tensorflow/lite/kernels/internal\common.h ****   std::int64_t diff = a64 - b64;
 439:C:/Renesas/e2studio_2021_01_workspace_RZA2M_ANPR/ANPR_RZA2M_EBK/src/tensorflow_lite/tensorflow/lite/kernels/internal\common.h ****   return static_cast<std::int32_t>(std::min(
 440:C:/Renesas/e2studio_2021_01_workspace_RZA2M_ANPR/ANPR_RZA2M_EBK/src/tensorflow_lite/tensorflow/lite/kernels/internal\common.h ****       static_cast<std::int64_t>(std::numeric_limits<std::int32_t>::max()),
 441:C:/Renesas/e2studio_2021_01_workspace_RZA2M_ANPR/ANPR_RZA2M_EBK/src/tensorflow_lite/tensorflow/lite/kernels/internal\common.h ****       std::max(
 442:C:/Renesas/e2studio_2021_01_workspace_RZA2M_ANPR/ANPR_RZA2M_EBK/src/tensorflow_lite/tensorflow/lite/kernels/internal\common.h ****           static_cast<std::int64_t>(std::numeric_limits<std::int32_t>::min()),
 443:C:/Renesas/e2studio_2021_01_workspace_RZA2M_ANPR/ANPR_RZA2M_EBK/src/tensorflow_lite/tensorflow/lite/kernels/internal\common.h ****           diff)));
 444:C:/Renesas/e2studio_2021_01_workspace_RZA2M_ANPR/ANPR_RZA2M_EBK/src/tensorflow_lite/tensorflow/lite/kernels/internal\common.h **** }
 445:C:/Renesas/e2studio_2021_01_workspace_RZA2M_ANPR/ANPR_RZA2M_EBK/src/tensorflow_lite/tensorflow/lite/kernels/internal\common.h **** 
 446:C:/Renesas/e2studio_2021_01_workspace_RZA2M_ANPR/ANPR_RZA2M_EBK/src/tensorflow_lite/tensorflow/lite/kernels/internal\common.h **** template <typename tRawType, int tIntegerBits>
 447:C:/Renesas/e2studio_2021_01_workspace_RZA2M_ANPR/ANPR_RZA2M_EBK/src/tensorflow_lite/tensorflow/lite/kernels/internal\common.h **** gemmlowp::FixedPoint<tRawType, tIntegerBits> SaturatingSub(
 448:C:/Renesas/e2studio_2021_01_workspace_RZA2M_ANPR/ANPR_RZA2M_EBK/src/tensorflow_lite/tensorflow/lite/kernels/internal\common.h ****     gemmlowp::FixedPoint<tRawType, tIntegerBits> a,
 449:C:/Renesas/e2studio_2021_01_workspace_RZA2M_ANPR/ANPR_RZA2M_EBK/src/tensorflow_lite/tensorflow/lite/kernels/internal\common.h ****     gemmlowp::FixedPoint<tRawType, tIntegerBits> b) {
 450:C:/Renesas/e2studio_2021_01_workspace_RZA2M_ANPR/ANPR_RZA2M_EBK/src/tensorflow_lite/tensorflow/lite/kernels/internal\common.h ****   return gemmlowp::FixedPoint<tRawType, tIntegerBits>::FromRaw(
 451:C:/Renesas/e2studio_2021_01_workspace_RZA2M_ANPR/ANPR_RZA2M_EBK/src/tensorflow_lite/tensorflow/lite/kernels/internal\common.h ****       SaturatingSub(a.raw(), b.raw()));
 452:C:/Renesas/e2studio_2021_01_workspace_RZA2M_ANPR/ANPR_RZA2M_EBK/src/tensorflow_lite/tensorflow/lite/kernels/internal\common.h **** }
 453:C:/Renesas/e2studio_2021_01_workspace_RZA2M_ANPR/ANPR_RZA2M_EBK/src/tensorflow_lite/tensorflow/lite/kernels/internal\common.h **** // End section to be moved to gemmlowp.
 454:C:/Renesas/e2studio_2021_01_workspace_RZA2M_ANPR/ANPR_RZA2M_EBK/src/tensorflow_lite/tensorflow/lite/kernels/internal\common.h **** 
 455:C:/Renesas/e2studio_2021_01_workspace_RZA2M_ANPR/ANPR_RZA2M_EBK/src/tensorflow_lite/tensorflow/lite/kernels/internal\common.h **** template <typename IntegerType>
 456:C:/Renesas/e2studio_2021_01_workspace_RZA2M_ANPR/ANPR_RZA2M_EBK/src/tensorflow_lite/tensorflow/lite/kernels/internal\common.h **** IntegerType SaturatingRoundingMultiplyByPOTParam(IntegerType x, int exponent) {
 457:C:/Renesas/e2studio_2021_01_workspace_RZA2M_ANPR/ANPR_RZA2M_EBK/src/tensorflow_lite/tensorflow/lite/kernels/internal\common.h ****   if (exponent == 0) {
 458:C:/Renesas/e2studio_2021_01_workspace_RZA2M_ANPR/ANPR_RZA2M_EBK/src/tensorflow_lite/tensorflow/lite/kernels/internal\common.h ****     return x;
 459:C:/Renesas/e2studio_2021_01_workspace_RZA2M_ANPR/ANPR_RZA2M_EBK/src/tensorflow_lite/tensorflow/lite/kernels/internal\common.h ****   }
 460:C:/Renesas/e2studio_2021_01_workspace_RZA2M_ANPR/ANPR_RZA2M_EBK/src/tensorflow_lite/tensorflow/lite/kernels/internal\common.h ****   using ScalarIntegerType =
 461:C:/Renesas/e2studio_2021_01_workspace_RZA2M_ANPR/ANPR_RZA2M_EBK/src/tensorflow_lite/tensorflow/lite/kernels/internal\common.h ****       typename gemmlowp::FixedPointRawTypeTraits<IntegerType>::ScalarRawType;
 462:C:/Renesas/e2studio_2021_01_workspace_RZA2M_ANPR/ANPR_RZA2M_EBK/src/tensorflow_lite/tensorflow/lite/kernels/internal\common.h ****   const IntegerType min =
 463:C:/Renesas/e2studio_2021_01_workspace_RZA2M_ANPR/ANPR_RZA2M_EBK/src/tensorflow_lite/tensorflow/lite/kernels/internal\common.h ****       gemmlowp::Dup<IntegerType>(std::numeric_limits<ScalarIntegerType>::min());
 464:C:/Renesas/e2studio_2021_01_workspace_RZA2M_ANPR/ANPR_RZA2M_EBK/src/tensorflow_lite/tensorflow/lite/kernels/internal\common.h ****   const IntegerType max =
 465:C:/Renesas/e2studio_2021_01_workspace_RZA2M_ANPR/ANPR_RZA2M_EBK/src/tensorflow_lite/tensorflow/lite/kernels/internal\common.h ****       gemmlowp::Dup<IntegerType>(std::numeric_limits<ScalarIntegerType>::max());
 466:C:/Renesas/e2studio_2021_01_workspace_RZA2M_ANPR/ANPR_RZA2M_EBK/src/tensorflow_lite/tensorflow/lite/kernels/internal\common.h ****   const int ScalarIntegerTypeBits = 8 * sizeof(ScalarIntegerType);
 467:C:/Renesas/e2studio_2021_01_workspace_RZA2M_ANPR/ANPR_RZA2M_EBK/src/tensorflow_lite/tensorflow/lite/kernels/internal\common.h **** 
 468:C:/Renesas/e2studio_2021_01_workspace_RZA2M_ANPR/ANPR_RZA2M_EBK/src/tensorflow_lite/tensorflow/lite/kernels/internal\common.h ****   const std::int32_t threshold =
 469:C:/Renesas/e2studio_2021_01_workspace_RZA2M_ANPR/ANPR_RZA2M_EBK/src/tensorflow_lite/tensorflow/lite/kernels/internal\common.h ****       ((1 << (ScalarIntegerTypeBits - 1 - exponent)) - 1);
 470:C:/Renesas/e2studio_2021_01_workspace_RZA2M_ANPR/ANPR_RZA2M_EBK/src/tensorflow_lite/tensorflow/lite/kernels/internal\common.h ****   const IntegerType positive_mask =
 471:C:/Renesas/e2studio_2021_01_workspace_RZA2M_ANPR/ANPR_RZA2M_EBK/src/tensorflow_lite/tensorflow/lite/kernels/internal\common.h ****       gemmlowp::MaskIfGreaterThan(x, gemmlowp::Dup<IntegerType>(threshold));
 472:C:/Renesas/e2studio_2021_01_workspace_RZA2M_ANPR/ANPR_RZA2M_EBK/src/tensorflow_lite/tensorflow/lite/kernels/internal\common.h ****   const IntegerType negative_mask =
 473:C:/Renesas/e2studio_2021_01_workspace_RZA2M_ANPR/ANPR_RZA2M_EBK/src/tensorflow_lite/tensorflow/lite/kernels/internal\common.h ****       gemmlowp::MaskIfLessThan(x, gemmlowp::Dup<IntegerType>(-threshold));
 474:C:/Renesas/e2studio_2021_01_workspace_RZA2M_ANPR/ANPR_RZA2M_EBK/src/tensorflow_lite/tensorflow/lite/kernels/internal\common.h **** 
 475:C:/Renesas/e2studio_2021_01_workspace_RZA2M_ANPR/ANPR_RZA2M_EBK/src/tensorflow_lite/tensorflow/lite/kernels/internal\common.h ****   IntegerType result = gemmlowp::ShiftLeft(x, exponent);
 476:C:/Renesas/e2studio_2021_01_workspace_RZA2M_ANPR/ANPR_RZA2M_EBK/src/tensorflow_lite/tensorflow/lite/kernels/internal\common.h ****   result = gemmlowp::SelectUsingMask(positive_mask, max, result);
 477:C:/Renesas/e2studio_2021_01_workspace_RZA2M_ANPR/ANPR_RZA2M_EBK/src/tensorflow_lite/tensorflow/lite/kernels/internal\common.h ****   result = gemmlowp::SelectUsingMask(negative_mask, min, result);
 478:C:/Renesas/e2studio_2021_01_workspace_RZA2M_ANPR/ANPR_RZA2M_EBK/src/tensorflow_lite/tensorflow/lite/kernels/internal\common.h ****   return result;
 479:C:/Renesas/e2studio_2021_01_workspace_RZA2M_ANPR/ANPR_RZA2M_EBK/src/tensorflow_lite/tensorflow/lite/kernels/internal\common.h **** }
 480:C:/Renesas/e2studio_2021_01_workspace_RZA2M_ANPR/ANPR_RZA2M_EBK/src/tensorflow_lite/tensorflow/lite/kernels/internal\common.h **** 
 481:C:/Renesas/e2studio_2021_01_workspace_RZA2M_ANPR/ANPR_RZA2M_EBK/src/tensorflow_lite/tensorflow/lite/kernels/internal\common.h **** // If we want to leave IntegerBits fixed, then multiplication
 482:C:/Renesas/e2studio_2021_01_workspace_RZA2M_ANPR/ANPR_RZA2M_EBK/src/tensorflow_lite/tensorflow/lite/kernels/internal\common.h **** // by a power of two has to be saturating/rounding, not exact anymore.
 483:C:/Renesas/e2studio_2021_01_workspace_RZA2M_ANPR/ANPR_RZA2M_EBK/src/tensorflow_lite/tensorflow/lite/kernels/internal\common.h **** template <typename tRawType, int tIntegerBits>
 484:C:/Renesas/e2studio_2021_01_workspace_RZA2M_ANPR/ANPR_RZA2M_EBK/src/tensorflow_lite/tensorflow/lite/kernels/internal\common.h **** gemmlowp::FixedPoint<tRawType, tIntegerBits>
 485:C:/Renesas/e2studio_2021_01_workspace_RZA2M_ANPR/ANPR_RZA2M_EBK/src/tensorflow_lite/tensorflow/lite/kernels/internal\common.h **** SaturatingRoundingMultiplyByPOTParam(
 486:C:/Renesas/e2studio_2021_01_workspace_RZA2M_ANPR/ANPR_RZA2M_EBK/src/tensorflow_lite/tensorflow/lite/kernels/internal\common.h ****     gemmlowp::FixedPoint<tRawType, tIntegerBits> a, int exponent) {
 487:C:/Renesas/e2studio_2021_01_workspace_RZA2M_ANPR/ANPR_RZA2M_EBK/src/tensorflow_lite/tensorflow/lite/kernels/internal\common.h ****   return gemmlowp::FixedPoint<tRawType, tIntegerBits>::FromRaw(
 488:C:/Renesas/e2studio_2021_01_workspace_RZA2M_ANPR/ANPR_RZA2M_EBK/src/tensorflow_lite/tensorflow/lite/kernels/internal\common.h ****       SaturatingRoundingMultiplyByPOTParam(a.raw(), exponent));
 489:C:/Renesas/e2studio_2021_01_workspace_RZA2M_ANPR/ANPR_RZA2M_EBK/src/tensorflow_lite/tensorflow/lite/kernels/internal\common.h **** }
 490:C:/Renesas/e2studio_2021_01_workspace_RZA2M_ANPR/ANPR_RZA2M_EBK/src/tensorflow_lite/tensorflow/lite/kernels/internal\common.h **** 
 491:C:/Renesas/e2studio_2021_01_workspace_RZA2M_ANPR/ANPR_RZA2M_EBK/src/tensorflow_lite/tensorflow/lite/kernels/internal\common.h **** // Convert int32_t multiplier to int16_t with rounding.
 492:C:/Renesas/e2studio_2021_01_workspace_RZA2M_ANPR/ANPR_RZA2M_EBK/src/tensorflow_lite/tensorflow/lite/kernels/internal\common.h **** inline void DownScaleInt32ToInt16Multiplier(int32_t multiplier_int32_t,
 493:C:/Renesas/e2studio_2021_01_workspace_RZA2M_ANPR/ANPR_RZA2M_EBK/src/tensorflow_lite/tensorflow/lite/kernels/internal\common.h ****                                             int16_t* multiplier_int16_t) {
 494:C:/Renesas/e2studio_2021_01_workspace_RZA2M_ANPR/ANPR_RZA2M_EBK/src/tensorflow_lite/tensorflow/lite/kernels/internal\common.h ****   TFLITE_DCHECK_GE(multiplier_int32_t, 0);
 495:C:/Renesas/e2studio_2021_01_workspace_RZA2M_ANPR/ANPR_RZA2M_EBK/src/tensorflow_lite/tensorflow/lite/kernels/internal\common.h ****   static constexpr int32_t kRoundingOffset = 1 << 15;
 496:C:/Renesas/e2studio_2021_01_workspace_RZA2M_ANPR/ANPR_RZA2M_EBK/src/tensorflow_lite/tensorflow/lite/kernels/internal\common.h ****   if (multiplier_int32_t >=
 497:C:/Renesas/e2studio_2021_01_workspace_RZA2M_ANPR/ANPR_RZA2M_EBK/src/tensorflow_lite/tensorflow/lite/kernels/internal\common.h ****       std::numeric_limits<int32_t>::max() - kRoundingOffset) {
 498:C:/Renesas/e2studio_2021_01_workspace_RZA2M_ANPR/ANPR_RZA2M_EBK/src/tensorflow_lite/tensorflow/lite/kernels/internal\common.h ****     *multiplier_int16_t = std::numeric_limits<int16_t>::max();
 499:C:/Renesas/e2studio_2021_01_workspace_RZA2M_ANPR/ANPR_RZA2M_EBK/src/tensorflow_lite/tensorflow/lite/kernels/internal\common.h ****     return;
 500:C:/Renesas/e2studio_2021_01_workspace_RZA2M_ANPR/ANPR_RZA2M_EBK/src/tensorflow_lite/tensorflow/lite/kernels/internal\common.h ****   }
 501:C:/Renesas/e2studio_2021_01_workspace_RZA2M_ANPR/ANPR_RZA2M_EBK/src/tensorflow_lite/tensorflow/lite/kernels/internal\common.h ****   const int32_t result = (multiplier_int32_t + kRoundingOffset) >> 16;
 502:C:/Renesas/e2studio_2021_01_workspace_RZA2M_ANPR/ANPR_RZA2M_EBK/src/tensorflow_lite/tensorflow/lite/kernels/internal\common.h ****   TFLITE_DCHECK_LE(result << 16, multiplier_int32_t + kRoundingOffset);
 503:C:/Renesas/e2studio_2021_01_workspace_RZA2M_ANPR/ANPR_RZA2M_EBK/src/tensorflow_lite/tensorflow/lite/kernels/internal\common.h ****   TFLITE_DCHECK_GT(result << 16, multiplier_int32_t - kRoundingOffset);
 504:C:/Renesas/e2studio_2021_01_workspace_RZA2M_ANPR/ANPR_RZA2M_EBK/src/tensorflow_lite/tensorflow/lite/kernels/internal\common.h ****   *multiplier_int16_t = result;
 505:C:/Renesas/e2studio_2021_01_workspace_RZA2M_ANPR/ANPR_RZA2M_EBK/src/tensorflow_lite/tensorflow/lite/kernels/internal\common.h ****   TFLITE_DCHECK_EQ(*multiplier_int16_t, result);
 506:C:/Renesas/e2studio_2021_01_workspace_RZA2M_ANPR/ANPR_RZA2M_EBK/src/tensorflow_lite/tensorflow/lite/kernels/internal\common.h **** }
 507:C:/Renesas/e2studio_2021_01_workspace_RZA2M_ANPR/ANPR_RZA2M_EBK/src/tensorflow_lite/tensorflow/lite/kernels/internal\common.h **** 
 508:C:/Renesas/e2studio_2021_01_workspace_RZA2M_ANPR/ANPR_RZA2M_EBK/src/tensorflow_lite/tensorflow/lite/kernels/internal\common.h **** // Minimum output bits to accommodate log of maximum input range.  It actually
 509:C:/Renesas/e2studio_2021_01_workspace_RZA2M_ANPR/ANPR_RZA2M_EBK/src/tensorflow_lite/tensorflow/lite/kernels/internal\common.h **** // does not matter if one considers, say, [-64,64] or [-64,64).
 510:C:/Renesas/e2studio_2021_01_workspace_RZA2M_ANPR/ANPR_RZA2M_EBK/src/tensorflow_lite/tensorflow/lite/kernels/internal\common.h **** //
 511:C:/Renesas/e2studio_2021_01_workspace_RZA2M_ANPR/ANPR_RZA2M_EBK/src/tensorflow_lite/tensorflow/lite/kernels/internal\common.h **** // For example, run this through Octave:
 512:C:/Renesas/e2studio_2021_01_workspace_RZA2M_ANPR/ANPR_RZA2M_EBK/src/tensorflow_lite/tensorflow/lite/kernels/internal\common.h **** // [0:127; ...
 513:C:/Renesas/e2studio_2021_01_workspace_RZA2M_ANPR/ANPR_RZA2M_EBK/src/tensorflow_lite/tensorflow/lite/kernels/internal\common.h **** //  ceil(log(abs( log(2.^(0:127))+1 ))/log(2)); ...
 514:C:/Renesas/e2studio_2021_01_workspace_RZA2M_ANPR/ANPR_RZA2M_EBK/src/tensorflow_lite/tensorflow/lite/kernels/internal\common.h **** //  ceil(log(abs( log(2.^(0:127))+1 ))/log(2))]
 515:C:/Renesas/e2studio_2021_01_workspace_RZA2M_ANPR/ANPR_RZA2M_EBK/src/tensorflow_lite/tensorflow/lite/kernels/internal\common.h **** constexpr int min_log_x_output_bits(int input_bits) {
 516:C:/Renesas/e2studio_2021_01_workspace_RZA2M_ANPR/ANPR_RZA2M_EBK/src/tensorflow_lite/tensorflow/lite/kernels/internal\common.h ****   return input_bits > 90   ? 7
 517:C:/Renesas/e2studio_2021_01_workspace_RZA2M_ANPR/ANPR_RZA2M_EBK/src/tensorflow_lite/tensorflow/lite/kernels/internal\common.h ****          : input_bits > 44 ? 6
 518:C:/Renesas/e2studio_2021_01_workspace_RZA2M_ANPR/ANPR_RZA2M_EBK/src/tensorflow_lite/tensorflow/lite/kernels/internal\common.h ****          : input_bits > 21 ? 5
 519:C:/Renesas/e2studio_2021_01_workspace_RZA2M_ANPR/ANPR_RZA2M_EBK/src/tensorflow_lite/tensorflow/lite/kernels/internal\common.h ****          : input_bits > 10 ? 4
 520:C:/Renesas/e2studio_2021_01_workspace_RZA2M_ANPR/ANPR_RZA2M_EBK/src/tensorflow_lite/tensorflow/lite/kernels/internal\common.h ****          : input_bits > 4  ? 3
 521:C:/Renesas/e2studio_2021_01_workspace_RZA2M_ANPR/ANPR_RZA2M_EBK/src/tensorflow_lite/tensorflow/lite/kernels/internal\common.h ****          : input_bits > 1  ? 2
 522:C:/Renesas/e2studio_2021_01_workspace_RZA2M_ANPR/ANPR_RZA2M_EBK/src/tensorflow_lite/tensorflow/lite/kernels/internal\common.h ****                            : 1;
 523:C:/Renesas/e2studio_2021_01_workspace_RZA2M_ANPR/ANPR_RZA2M_EBK/src/tensorflow_lite/tensorflow/lite/kernels/internal\common.h **** }
 524:C:/Renesas/e2studio_2021_01_workspace_RZA2M_ANPR/ANPR_RZA2M_EBK/src/tensorflow_lite/tensorflow/lite/kernels/internal\common.h **** 
 525:C:/Renesas/e2studio_2021_01_workspace_RZA2M_ANPR/ANPR_RZA2M_EBK/src/tensorflow_lite/tensorflow/lite/kernels/internal\common.h **** // Although currently the name of this function says that it cannot handle
 526:C:/Renesas/e2studio_2021_01_workspace_RZA2M_ANPR/ANPR_RZA2M_EBK/src/tensorflow_lite/tensorflow/lite/kernels/internal\common.h **** // values less than 1, in practice it can handle as low as 1/x_max, where
 527:C:/Renesas/e2studio_2021_01_workspace_RZA2M_ANPR/ANPR_RZA2M_EBK/src/tensorflow_lite/tensorflow/lite/kernels/internal\common.h **** // x_max is the largest representable input.  In other words, the output range
 528:C:/Renesas/e2studio_2021_01_workspace_RZA2M_ANPR/ANPR_RZA2M_EBK/src/tensorflow_lite/tensorflow/lite/kernels/internal\common.h **** // is symmetric.
 529:C:/Renesas/e2studio_2021_01_workspace_RZA2M_ANPR/ANPR_RZA2M_EBK/src/tensorflow_lite/tensorflow/lite/kernels/internal\common.h **** template <int OutputIntegerBits, int InputIntegerBits>
 530:C:/Renesas/e2studio_2021_01_workspace_RZA2M_ANPR/ANPR_RZA2M_EBK/src/tensorflow_lite/tensorflow/lite/kernels/internal\common.h **** inline gemmlowp::FixedPoint<int32_t, OutputIntegerBits>
 531:C:/Renesas/e2studio_2021_01_workspace_RZA2M_ANPR/ANPR_RZA2M_EBK/src/tensorflow_lite/tensorflow/lite/kernels/internal\common.h **** log_x_for_x_greater_than_or_equal_to_1_impl(
 532:C:/Renesas/e2studio_2021_01_workspace_RZA2M_ANPR/ANPR_RZA2M_EBK/src/tensorflow_lite/tensorflow/lite/kernels/internal\common.h ****     gemmlowp::FixedPoint<int32_t, InputIntegerBits> input_val) {
 533:C:/Renesas/e2studio_2021_01_workspace_RZA2M_ANPR/ANPR_RZA2M_EBK/src/tensorflow_lite/tensorflow/lite/kernels/internal\common.h ****   // assert(__builtin_clz(0u) >= std::numeric_limits<uint32_t>::digits - 1);
 534:C:/Renesas/e2studio_2021_01_workspace_RZA2M_ANPR/ANPR_RZA2M_EBK/src/tensorflow_lite/tensorflow/lite/kernels/internal\common.h ****   // assert(__builtin_clz(0u) <= std::numeric_limits<uint32_t>::digits);
 535:C:/Renesas/e2studio_2021_01_workspace_RZA2M_ANPR/ANPR_RZA2M_EBK/src/tensorflow_lite/tensorflow/lite/kernels/internal\common.h ****   using FixedPoint0 = gemmlowp::FixedPoint<int32_t, 0>;
 536:C:/Renesas/e2studio_2021_01_workspace_RZA2M_ANPR/ANPR_RZA2M_EBK/src/tensorflow_lite/tensorflow/lite/kernels/internal\common.h ****   // The reason for accumulating the result with an extra bit of headroom is
 537:C:/Renesas/e2studio_2021_01_workspace_RZA2M_ANPR/ANPR_RZA2M_EBK/src/tensorflow_lite/tensorflow/lite/kernels/internal\common.h ****   // that z_pow_2_adj * log_2 might be saturated, and adding num_scaled *
 538:C:/Renesas/e2studio_2021_01_workspace_RZA2M_ANPR/ANPR_RZA2M_EBK/src/tensorflow_lite/tensorflow/lite/kernels/internal\common.h ****   // recip_denom will otherwise introduce an error.
 539:C:/Renesas/e2studio_2021_01_workspace_RZA2M_ANPR/ANPR_RZA2M_EBK/src/tensorflow_lite/tensorflow/lite/kernels/internal\common.h ****   static constexpr int kAccumIntegerBits = OutputIntegerBits + 1;
 540:C:/Renesas/e2studio_2021_01_workspace_RZA2M_ANPR/ANPR_RZA2M_EBK/src/tensorflow_lite/tensorflow/lite/kernels/internal\common.h ****   using FixedPointAccum = gemmlowp::FixedPoint<int32_t, kAccumIntegerBits>;
 541:C:/Renesas/e2studio_2021_01_workspace_RZA2M_ANPR/ANPR_RZA2M_EBK/src/tensorflow_lite/tensorflow/lite/kernels/internal\common.h **** 
 542:C:/Renesas/e2studio_2021_01_workspace_RZA2M_ANPR/ANPR_RZA2M_EBK/src/tensorflow_lite/tensorflow/lite/kernels/internal\common.h ****   const FixedPoint0 log_2 = GEMMLOWP_CHECKED_FIXEDPOINT_CONSTANT(
 543:C:/Renesas/e2studio_2021_01_workspace_RZA2M_ANPR/ANPR_RZA2M_EBK/src/tensorflow_lite/tensorflow/lite/kernels/internal\common.h ****       FixedPoint0, 1488522236, std::log(2.0));
 544:C:/Renesas/e2studio_2021_01_workspace_RZA2M_ANPR/ANPR_RZA2M_EBK/src/tensorflow_lite/tensorflow/lite/kernels/internal\common.h ****   const FixedPoint0 sqrt_sqrt_half = GEMMLOWP_CHECKED_FIXEDPOINT_CONSTANT(
 545:C:/Renesas/e2studio_2021_01_workspace_RZA2M_ANPR/ANPR_RZA2M_EBK/src/tensorflow_lite/tensorflow/lite/kernels/internal\common.h ****       FixedPoint0, 1805811301, std::sqrt(std::sqrt(0.5)));
 546:C:/Renesas/e2studio_2021_01_workspace_RZA2M_ANPR/ANPR_RZA2M_EBK/src/tensorflow_lite/tensorflow/lite/kernels/internal\common.h ****   const FixedPoint0 sqrt_half = GEMMLOWP_CHECKED_FIXEDPOINT_CONSTANT(
 547:C:/Renesas/e2studio_2021_01_workspace_RZA2M_ANPR/ANPR_RZA2M_EBK/src/tensorflow_lite/tensorflow/lite/kernels/internal\common.h ****       FixedPoint0, 1518500250, std::sqrt(0.5));
 548:C:/Renesas/e2studio_2021_01_workspace_RZA2M_ANPR/ANPR_RZA2M_EBK/src/tensorflow_lite/tensorflow/lite/kernels/internal\common.h ****   const FixedPoint0 one_quarter =
 549:C:/Renesas/e2studio_2021_01_workspace_RZA2M_ANPR/ANPR_RZA2M_EBK/src/tensorflow_lite/tensorflow/lite/kernels/internal\common.h ****       GEMMLOWP_CHECKED_FIXEDPOINT_CONSTANT(FixedPoint0, 536870912, 1.0 / 4.0);
 550:C:/Renesas/e2studio_2021_01_workspace_RZA2M_ANPR/ANPR_RZA2M_EBK/src/tensorflow_lite/tensorflow/lite/kernels/internal\common.h **** 
 551:C:/Renesas/e2studio_2021_01_workspace_RZA2M_ANPR/ANPR_RZA2M_EBK/src/tensorflow_lite/tensorflow/lite/kernels/internal\common.h ****   const FixedPoint0 alpha_n = GEMMLOWP_CHECKED_FIXEDPOINT_CONSTANT(
 552:C:/Renesas/e2studio_2021_01_workspace_RZA2M_ANPR/ANPR_RZA2M_EBK/src/tensorflow_lite/tensorflow/lite/kernels/internal\common.h ****       FixedPoint0, 117049297, 11.0 / 240.0 * std::sqrt(std::sqrt(2.0)));
 553:C:/Renesas/e2studio_2021_01_workspace_RZA2M_ANPR/ANPR_RZA2M_EBK/src/tensorflow_lite/tensorflow/lite/kernels/internal\common.h ****   const FixedPoint0 alpha_d = GEMMLOWP_CHECKED_FIXEDPOINT_CONSTANT(
 554:C:/Renesas/e2studio_2021_01_workspace_RZA2M_ANPR/ANPR_RZA2M_EBK/src/tensorflow_lite/tensorflow/lite/kernels/internal\common.h ****       FixedPoint0, 127690142, 1.0 / 20.0 * std::sqrt(std::sqrt(2.0)));
 555:C:/Renesas/e2studio_2021_01_workspace_RZA2M_ANPR/ANPR_RZA2M_EBK/src/tensorflow_lite/tensorflow/lite/kernels/internal\common.h ****   const FixedPoint0 alpha_i = GEMMLOWP_CHECKED_FIXEDPOINT_CONSTANT(
 556:C:/Renesas/e2studio_2021_01_workspace_RZA2M_ANPR/ANPR_RZA2M_EBK/src/tensorflow_lite/tensorflow/lite/kernels/internal\common.h ****       FixedPoint0, 1057819769,
 557:C:/Renesas/e2studio_2021_01_workspace_RZA2M_ANPR/ANPR_RZA2M_EBK/src/tensorflow_lite/tensorflow/lite/kernels/internal\common.h ****       2.0 / std::sqrt(std::sqrt(2.0)) - std::sqrt(std::sqrt(2.0)));
 558:C:/Renesas/e2studio_2021_01_workspace_RZA2M_ANPR/ANPR_RZA2M_EBK/src/tensorflow_lite/tensorflow/lite/kernels/internal\common.h ****   const FixedPoint0 alpha_f = GEMMLOWP_CHECKED_FIXEDPOINT_CONSTANT(
 559:C:/Renesas/e2studio_2021_01_workspace_RZA2M_ANPR/ANPR_RZA2M_EBK/src/tensorflow_lite/tensorflow/lite/kernels/internal\common.h ****       FixedPoint0, 638450708, 1.0 / 4.0 * std::sqrt(std::sqrt(2.0)));
 560:C:/Renesas/e2studio_2021_01_workspace_RZA2M_ANPR/ANPR_RZA2M_EBK/src/tensorflow_lite/tensorflow/lite/kernels/internal\common.h **** 
 561:C:/Renesas/e2studio_2021_01_workspace_RZA2M_ANPR/ANPR_RZA2M_EBK/src/tensorflow_lite/tensorflow/lite/kernels/internal\common.h ****   const FixedPointAccum shifted_quarter =
 562:C:/Renesas/e2studio_2021_01_workspace_RZA2M_ANPR/ANPR_RZA2M_EBK/src/tensorflow_lite/tensorflow/lite/kernels/internal\common.h ****       gemmlowp::Rescale<kAccumIntegerBits>(one_quarter);
 563:C:/Renesas/e2studio_2021_01_workspace_RZA2M_ANPR/ANPR_RZA2M_EBK/src/tensorflow_lite/tensorflow/lite/kernels/internal\common.h **** 
 564:C:/Renesas/e2studio_2021_01_workspace_RZA2M_ANPR/ANPR_RZA2M_EBK/src/tensorflow_lite/tensorflow/lite/kernels/internal\common.h ****   // Reinterpret the input value as Q0.31, because we will figure out the
 565:C:/Renesas/e2studio_2021_01_workspace_RZA2M_ANPR/ANPR_RZA2M_EBK/src/tensorflow_lite/tensorflow/lite/kernels/internal\common.h ****   // required shift "ourselves" instead of using, say, Rescale.
 566:C:/Renesas/e2studio_2021_01_workspace_RZA2M_ANPR/ANPR_RZA2M_EBK/src/tensorflow_lite/tensorflow/lite/kernels/internal\common.h ****   FixedPoint0 z_a = FixedPoint0::FromRaw(input_val.raw());
 567:C:/Renesas/e2studio_2021_01_workspace_RZA2M_ANPR/ANPR_RZA2M_EBK/src/tensorflow_lite/tensorflow/lite/kernels/internal\common.h ****   // z_a_pow_2 = input_integer_bits - z_a_headroom;
 568:C:/Renesas/e2studio_2021_01_workspace_RZA2M_ANPR/ANPR_RZA2M_EBK/src/tensorflow_lite/tensorflow/lite/kernels/internal\common.h ****   int z_a_headroom_plus_1 = CountLeadingZeros(static_cast<uint32_t>(z_a.raw()));
 569:C:/Renesas/e2studio_2021_01_workspace_RZA2M_ANPR/ANPR_RZA2M_EBK/src/tensorflow_lite/tensorflow/lite/kernels/internal\common.h ****   FixedPoint0 r_a_tmp =
 570:C:/Renesas/e2studio_2021_01_workspace_RZA2M_ANPR/ANPR_RZA2M_EBK/src/tensorflow_lite/tensorflow/lite/kernels/internal\common.h ****       SaturatingRoundingMultiplyByPOTParam(z_a, (z_a_headroom_plus_1 - 1));
 571:C:/Renesas/e2studio_2021_01_workspace_RZA2M_ANPR/ANPR_RZA2M_EBK/src/tensorflow_lite/tensorflow/lite/kernels/internal\common.h ****   const int32_t r_a_raw =
 572:C:/Renesas/e2studio_2021_01_workspace_RZA2M_ANPR/ANPR_RZA2M_EBK/src/tensorflow_lite/tensorflow/lite/kernels/internal\common.h ****       SaturatingRoundingMultiplyByPOTParam((r_a_tmp * sqrt_half).raw(), 1);
 573:C:/Renesas/e2studio_2021_01_workspace_RZA2M_ANPR/ANPR_RZA2M_EBK/src/tensorflow_lite/tensorflow/lite/kernels/internal\common.h ****   // z_pow_2_adj = max(z_pow_2_a - 0.75, z_pow_2_b - 0.25);
 574:C:/Renesas/e2studio_2021_01_workspace_RZA2M_ANPR/ANPR_RZA2M_EBK/src/tensorflow_lite/tensorflow/lite/kernels/internal\common.h ****   // z_pow_2_adj = max(InputIntegerBits - z_a_headroom_plus_1 + 0.25,
 575:C:/Renesas/e2studio_2021_01_workspace_RZA2M_ANPR/ANPR_RZA2M_EBK/src/tensorflow_lite/tensorflow/lite/kernels/internal\common.h ****   //                   InputIntegerBits - z_b_headroom - 0.25);
 576:C:/Renesas/e2studio_2021_01_workspace_RZA2M_ANPR/ANPR_RZA2M_EBK/src/tensorflow_lite/tensorflow/lite/kernels/internal\common.h ****   const FixedPointAccum z_a_pow_2_adj = SaturatingAddNonGemmlowp(
 577:C:/Renesas/e2studio_2021_01_workspace_RZA2M_ANPR/ANPR_RZA2M_EBK/src/tensorflow_lite/tensorflow/lite/kernels/internal\common.h ****       FixedPointAccum::FromRaw(SaturatingRoundingMultiplyByPOTParam(
 578:C:/Renesas/e2studio_2021_01_workspace_RZA2M_ANPR/ANPR_RZA2M_EBK/src/tensorflow_lite/tensorflow/lite/kernels/internal\common.h ****           static_cast<int32_t>(InputIntegerBits - z_a_headroom_plus_1),
 579:C:/Renesas/e2studio_2021_01_workspace_RZA2M_ANPR/ANPR_RZA2M_EBK/src/tensorflow_lite/tensorflow/lite/kernels/internal\common.h ****           31 - kAccumIntegerBits)),
 580:C:/Renesas/e2studio_2021_01_workspace_RZA2M_ANPR/ANPR_RZA2M_EBK/src/tensorflow_lite/tensorflow/lite/kernels/internal\common.h ****       shifted_quarter);
 581:C:/Renesas/e2studio_2021_01_workspace_RZA2M_ANPR/ANPR_RZA2M_EBK/src/tensorflow_lite/tensorflow/lite/kernels/internal\common.h **** 
 582:C:/Renesas/e2studio_2021_01_workspace_RZA2M_ANPR/ANPR_RZA2M_EBK/src/tensorflow_lite/tensorflow/lite/kernels/internal\common.h ****   // z_b is treated like z_a, but premultiplying by sqrt(0.5).
 583:C:/Renesas/e2studio_2021_01_workspace_RZA2M_ANPR/ANPR_RZA2M_EBK/src/tensorflow_lite/tensorflow/lite/kernels/internal\common.h ****   FixedPoint0 z_b = z_a * sqrt_half;
 584:C:/Renesas/e2studio_2021_01_workspace_RZA2M_ANPR/ANPR_RZA2M_EBK/src/tensorflow_lite/tensorflow/lite/kernels/internal\common.h ****   int z_b_headroom = CountLeadingZeros(static_cast<uint32_t>(z_b.raw())) - 1;
 585:C:/Renesas/e2studio_2021_01_workspace_RZA2M_ANPR/ANPR_RZA2M_EBK/src/tensorflow_lite/tensorflow/lite/kernels/internal\common.h ****   const int32_t r_b_raw =
 586:C:/Renesas/e2studio_2021_01_workspace_RZA2M_ANPR/ANPR_RZA2M_EBK/src/tensorflow_lite/tensorflow/lite/kernels/internal\common.h ****       SaturatingRoundingMultiplyByPOTParam(z_a.raw(), z_b_headroom);
 587:C:/Renesas/e2studio_2021_01_workspace_RZA2M_ANPR/ANPR_RZA2M_EBK/src/tensorflow_lite/tensorflow/lite/kernels/internal\common.h ****   const FixedPointAccum z_b_pow_2_adj = SaturatingSub(
 588:C:/Renesas/e2studio_2021_01_workspace_RZA2M_ANPR/ANPR_RZA2M_EBK/src/tensorflow_lite/tensorflow/lite/kernels/internal\common.h ****       FixedPointAccum::FromRaw(SaturatingRoundingMultiplyByPOTParam(
 589:C:/Renesas/e2studio_2021_01_workspace_RZA2M_ANPR/ANPR_RZA2M_EBK/src/tensorflow_lite/tensorflow/lite/kernels/internal\common.h ****           static_cast<int32_t>(InputIntegerBits - z_b_headroom),
 590:C:/Renesas/e2studio_2021_01_workspace_RZA2M_ANPR/ANPR_RZA2M_EBK/src/tensorflow_lite/tensorflow/lite/kernels/internal\common.h ****           31 - kAccumIntegerBits)),
 591:C:/Renesas/e2studio_2021_01_workspace_RZA2M_ANPR/ANPR_RZA2M_EBK/src/tensorflow_lite/tensorflow/lite/kernels/internal\common.h ****       shifted_quarter);
 592:C:/Renesas/e2studio_2021_01_workspace_RZA2M_ANPR/ANPR_RZA2M_EBK/src/tensorflow_lite/tensorflow/lite/kernels/internal\common.h **** 
 593:C:/Renesas/e2studio_2021_01_workspace_RZA2M_ANPR/ANPR_RZA2M_EBK/src/tensorflow_lite/tensorflow/lite/kernels/internal\common.h ****   const FixedPoint0 r = FixedPoint0::FromRaw(std::min(r_a_raw, r_b_raw));
 594:C:/Renesas/e2studio_2021_01_workspace_RZA2M_ANPR/ANPR_RZA2M_EBK/src/tensorflow_lite/tensorflow/lite/kernels/internal\common.h ****   const FixedPointAccum z_pow_2_adj = FixedPointAccum::FromRaw(
 595:C:/Renesas/e2studio_2021_01_workspace_RZA2M_ANPR/ANPR_RZA2M_EBK/src/tensorflow_lite/tensorflow/lite/kernels/internal\common.h ****       std::max(z_a_pow_2_adj.raw(), z_b_pow_2_adj.raw()));
 596:C:/Renesas/e2studio_2021_01_workspace_RZA2M_ANPR/ANPR_RZA2M_EBK/src/tensorflow_lite/tensorflow/lite/kernels/internal\common.h **** 
 597:C:/Renesas/e2studio_2021_01_workspace_RZA2M_ANPR/ANPR_RZA2M_EBK/src/tensorflow_lite/tensorflow/lite/kernels/internal\common.h ****   const FixedPoint0 p = gemmlowp::RoundingHalfSum(r, sqrt_sqrt_half);
 598:C:/Renesas/e2studio_2021_01_workspace_RZA2M_ANPR/ANPR_RZA2M_EBK/src/tensorflow_lite/tensorflow/lite/kernels/internal\common.h ****   FixedPoint0 q = r - sqrt_sqrt_half;
 599:C:/Renesas/e2studio_2021_01_workspace_RZA2M_ANPR/ANPR_RZA2M_EBK/src/tensorflow_lite/tensorflow/lite/kernels/internal\common.h ****   q = q + q;
 600:C:/Renesas/e2studio_2021_01_workspace_RZA2M_ANPR/ANPR_RZA2M_EBK/src/tensorflow_lite/tensorflow/lite/kernels/internal\common.h **** 
 601:C:/Renesas/e2studio_2021_01_workspace_RZA2M_ANPR/ANPR_RZA2M_EBK/src/tensorflow_lite/tensorflow/lite/kernels/internal\common.h ****   const FixedPoint0 common_sq = q * q;
 602:C:/Renesas/e2studio_2021_01_workspace_RZA2M_ANPR/ANPR_RZA2M_EBK/src/tensorflow_lite/tensorflow/lite/kernels/internal\common.h ****   const FixedPoint0 num = q * r + q * common_sq * alpha_n;
 603:C:/Renesas/e2studio_2021_01_workspace_RZA2M_ANPR/ANPR_RZA2M_EBK/src/tensorflow_lite/tensorflow/lite/kernels/internal\common.h ****   const FixedPoint0 denom_minus_one_0 =
 604:C:/Renesas/e2studio_2021_01_workspace_RZA2M_ANPR/ANPR_RZA2M_EBK/src/tensorflow_lite/tensorflow/lite/kernels/internal\common.h ****       p * (alpha_i + q + alpha_d * common_sq) + alpha_f * q;
 605:C:/Renesas/e2studio_2021_01_workspace_RZA2M_ANPR/ANPR_RZA2M_EBK/src/tensorflow_lite/tensorflow/lite/kernels/internal\common.h ****   const FixedPoint0 recip_denom =
 606:C:/Renesas/e2studio_2021_01_workspace_RZA2M_ANPR/ANPR_RZA2M_EBK/src/tensorflow_lite/tensorflow/lite/kernels/internal\common.h ****       one_over_one_plus_x_for_x_in_0_1(denom_minus_one_0);
 4979              		.loc 8 606 0
 4980 0974 020080E0 		add	r0, r0, r2
 4981              	.LVL336:
 4982 0978 FEFFFFEB 		bl	_ZN8gemmlowp32one_over_one_plus_x_for_x_in_0_1IlEENS_10FixedPointIT_Li0EEES3_
 4983              	.LVL337:
 4984              	.LBB4204:
 4985              	.LBB4205:
 4986              	.LBB4206:
 4987              	.LBB4207:
 4988              	.LBB4208:
 4989              	.LBB4209:
 4990              	.LBB4210:
 4991              	.LBB4211:
  71:C:/Renesas/e2studio_2021_01_workspace_RZA2M_ANPR/ANPR_RZA2M_EBK/src/tensorflow_lite/third_party/gemmlowp/fixedpoint\fixedpoint.h **** }
 4992              		.loc 5 71 0
 4993 097c A41FA0E1 		lsr	r1, r4, #31
 4994              	.LBE4211:
 4995              	.LBE4210:
 4996              	.LBB4212:
 4997              	.LBB4213:
 141:C:/Renesas/e2studio_2021_01_workspace_RZA2M_ANPR/ANPR_RZA2M_EBK/src/tensorflow_lite/third_party/gemmlowp/fixedpoint\fixedpoint.h **** }
 4998              		.loc 5 141 0
 4999 0980 44C3A0E1 		asr	ip, r4, #6
 5000              	.LBE4213:
 5001              	.LBE4212:
 5002              	.LBE4209:
 5003              	.LBE4208:
 5004              	.LBE4207:
 5005              	.LBE4206:
 5006              	.LBE4205:
 5007              	.LBE4204:
 5008              	.LBB4225:
 5009              	.LBB4196:
 5010              	.LBB4189:
 5011              	.LBB4182:
 335:C:/Renesas/e2studio_2021_01_workspace_RZA2M_ANPR/ANPR_RZA2M_EBK/src/tensorflow_lite/third_party/gemmlowp/fixedpoint\fixedpoint.h ****   std::int32_t ab_x2_high32 =
 5012              		.loc 5 335 0
 5013 0984 004BDDED 		vldr.64	d20, [sp]	@ int
 5014              	.LBE4182:
 5015              	.LBE4189:
 5016              	.LBE4196:
 5017              	.LBE4225:
 5018              	.LBB4226:
 5019              	.LBB4224:
 5020              	.LBB4223:
 5021              	.LBB4222:
 5022              	.LBB4221:
 5023              	.LBB4220:
 5024              	.LBB4214:
 5025              	.LBB4215:
  95:C:/Renesas/e2studio_2021_01_workspace_RZA2M_ANPR/ANPR_RZA2M_EBK/src/tensorflow_lite/third_party/gemmlowp/fixedpoint\fixedpoint.h **** }
 5026              		.loc 5 95 0
 5027 0988 1F1081E2 		add	r1, r1, #31
 5028              	.LBE4215:
 5029              	.LBE4214:
 5030              	.LBB4216:
 5031              	.LBB4217:
  71:C:/Renesas/e2studio_2021_01_workspace_RZA2M_ANPR/ANPR_RZA2M_EBK/src/tensorflow_lite/third_party/gemmlowp/fixedpoint\fixedpoint.h **** }
 5032              		.loc 5 71 0
 5033 098c 3F4004E2 		and	r4, r4, #63
 5034              	.LVL338:
 5035              	.LBE4217:
 5036              	.LBE4216:
 5037              	.LBB4218:
 5038              	.LBB4219:
  95:C:/Renesas/e2studio_2021_01_workspace_RZA2M_ANPR/ANPR_RZA2M_EBK/src/tensorflow_lite/third_party/gemmlowp/fixedpoint\fixedpoint.h **** }
 5039              		.loc 5 95 0
 5040 0990 010054E1 		cmp	r4, r1
 5041 0994 0C40A0D1 		movle	r4, ip
 5042 0998 01408CC2 		addgt	r4, ip, #1
 5043              	.LVL339:
 5044              	.LBE4219:
 5045              	.LBE4218:
 5046              	.LBE4220:
 5047              	.LBE4221:
 5048              	.LBE4222:
 5049              	.LBE4223:
 5050              	.LBE4224:
 5051              	.LBE4226:
 5052              	.LBB4227:
 5053              	.LBB4197:
 5054              	.LBB4190:
 5055              	.LBB4183:
 335:C:/Renesas/e2studio_2021_01_workspace_RZA2M_ANPR/ANPR_RZA2M_EBK/src/tensorflow_lite/third_party/gemmlowp/fixedpoint\fixedpoint.h ****   std::int32_t ab_x2_high32 =
 5056              		.loc 5 335 0
 5057 099c 000058E3 		cmp	r8, #0
 5058 09a0 0030D9E2 		sbcs	r3, r9, #0
 5059              	.LBE4183:
 5060              	.LBE4190:
 5061              	.LBE4197:
 5062              	.LBE4227:
 5063              	.LBE4304:
 5064              	.LBE4320:
 5065              	.LBE4359:
 197:C:/Renesas/e2studio_2021_01_workspace_RZA2M_ANPR/ANPR_RZA2M_EBK/src/tensorflow_lite/tensorflow/lite/kernels/internal/reference\log_softmax.h ****             gemmlowp::Rescale<kAccumulationIntegerBits>(
 198:C:/Renesas/e2studio_2021_01_workspace_RZA2M_ANPR/ANPR_RZA2M_EBK/src/tensorflow_lite/tensorflow/lite/kernels/internal/reference\log_softmax.h ****                 exp_on_negative_values(F5::FromRaw(input_diff_in_q5)));
 199:C:/Renesas/e2studio_2021_01_workspace_RZA2M_ANPR/ANPR_RZA2M_EBK/src/tensorflow_lite/tensorflow/lite/kernels/internal/reference\log_softmax.h ****       }
 200:C:/Renesas/e2studio_2021_01_workspace_RZA2M_ANPR/ANPR_RZA2M_EBK/src/tensorflow_lite/tensorflow/lite/kernels/internal/reference\log_softmax.h ****     }
 201:C:/Renesas/e2studio_2021_01_workspace_RZA2M_ANPR/ANPR_RZA2M_EBK/src/tensorflow_lite/tensorflow/lite/kernels/internal/reference\log_softmax.h **** 
 202:C:/Renesas/e2studio_2021_01_workspace_RZA2M_ANPR/ANPR_RZA2M_EBK/src/tensorflow_lite/tensorflow/lite/kernels/internal/reference\log_softmax.h ****     const int32_t log_sum_of_exps_in_q5 =
 203:C:/Renesas/e2studio_2021_01_workspace_RZA2M_ANPR/ANPR_RZA2M_EBK/src/tensorflow_lite/tensorflow/lite/kernels/internal/reference\log_softmax.h ****         log_x_for_x_greater_than_or_equal_to_1<kInputIntegerBits>(
 204:C:/Renesas/e2studio_2021_01_workspace_RZA2M_ANPR/ANPR_RZA2M_EBK/src/tensorflow_lite/tensorflow/lite/kernels/internal/reference\log_softmax.h ****             sum_of_exps_in_q12)
 205:C:/Renesas/e2studio_2021_01_workspace_RZA2M_ANPR/ANPR_RZA2M_EBK/src/tensorflow_lite/tensorflow/lite/kernels/internal/reference\log_softmax.h ****             .raw();
 206:C:/Renesas/e2studio_2021_01_workspace_RZA2M_ANPR/ANPR_RZA2M_EBK/src/tensorflow_lite/tensorflow/lite/kernels/internal/reference\log_softmax.h **** 
 207:C:/Renesas/e2studio_2021_01_workspace_RZA2M_ANPR/ANPR_RZA2M_EBK/src/tensorflow_lite/tensorflow/lite/kernels/internal/reference\log_softmax.h ****     // Potentially reduced the valid range. shifted_log_sum_of_exps_in_q5 is
 208:C:/Renesas/e2studio_2021_01_workspace_RZA2M_ANPR/ANPR_RZA2M_EBK/src/tensorflow_lite/tensorflow/lite/kernels/internal/reference\log_softmax.h ****     // smallest representable in Q5.26 plus the log_sum_of_exps.
 209:C:/Renesas/e2studio_2021_01_workspace_RZA2M_ANPR/ANPR_RZA2M_EBK/src/tensorflow_lite/tensorflow/lite/kernels/internal/reference\log_softmax.h ****     const int32_t shifted_log_sum_of_exps_in_q5 =
 210:C:/Renesas/e2studio_2021_01_workspace_RZA2M_ANPR/ANPR_RZA2M_EBK/src/tensorflow_lite/tensorflow/lite/kernels/internal/reference\log_softmax.h ****         log_sum_of_exps_in_q5 + kMinInt32;
 211:C:/Renesas/e2studio_2021_01_workspace_RZA2M_ANPR/ANPR_RZA2M_EBK/src/tensorflow_lite/tensorflow/lite/kernels/internal/reference\log_softmax.h ****     const int32_t adjusted_diff_min =
 212:C:/Renesas/e2studio_2021_01_workspace_RZA2M_ANPR/ANPR_RZA2M_EBK/src/tensorflow_lite/tensorflow/lite/kernels/internal/reference\log_softmax.h ****         std::max(static_cast<int32_t>(diff_min - 1),
 213:C:/Renesas/e2studio_2021_01_workspace_RZA2M_ANPR/ANPR_RZA2M_EBK/src/tensorflow_lite/tensorflow/lite/kernels/internal/reference\log_softmax.h ****                  MultiplyByQuantizedMultiplier(shifted_log_sum_of_exps_in_q5,
 5066              		.loc 7 213 0
 5067 09a4 54C09DE5 		ldr	ip, [sp, #84]
 5068              	.LBB4360:
 5069              	.LBB4321:
 5070              	.LBB4305:
 5071              	.LBB4228:
 5072              	.LBB4198:
 5073              	.LBB4191:
 5074              	.LBB4184:
 335:C:/Renesas/e2studio_2021_01_workspace_RZA2M_ANPR/ANPR_RZA2M_EBK/src/tensorflow_lite/third_party/gemmlowp/fixedpoint\fixedpoint.h ****   std::int32_t ab_x2_high32 =
 5075              		.loc 5 335 0
 5076 09a8 0121A0A3 		movge	r2, #1073741824
 5077 09ac 0721A0B3 		movlt	r2, #-1073741823
 5078 09b0 0030A0A3 		movge	r3, #0
 5079 09b4 0030E0B3 		mvnlt	r3, #0
 337:C:/Renesas/e2studio_2021_01_workspace_RZA2M_ANPR/ANPR_RZA2M_EBK/src/tensorflow_lite/third_party/gemmlowp/fixedpoint\fixedpoint.h ****   return overflow ? std::numeric_limits<std::int32_t>::max() : ab_x2_high32;
 5080              		.loc 5 337 0
 5081 09b8 026098E0 		adds	r6, r8, r2
 5082 09bc 0370A9E0 		adc	r7, r9, r3
 5083              	.LVL340:
 5084              	.LBE4184:
 5085              	.LBE4191:
 5086              	.LBE4198:
 5087              	.LBE4228:
 5088              	.LBB4229:
 5089              	.LBB4230:
 5090              	.LBB4231:
 5091              	.LBB4232:
 334:C:/Renesas/e2studio_2021_01_workspace_RZA2M_ANPR/ANPR_RZA2M_EBK/src/tensorflow_lite/third_party/gemmlowp/fixedpoint\fixedpoint.h ****   std::int32_t nudge = ab_64 >= 0 ? (1 << 30) : (1 - (1 << 30));
 5092              		.loc 5 334 0
 5093 09c0 9084C9E0 		smull	r8, r9, r0, r4
 5094              	.LVL341:
 5095              	.LBE4232:
 5096              	.LBE4231:
 5097              	.LBE4230:
 5098              	.LBE4229:
 5099              	.LBB4248:
 5100              	.LBB4199:
 5101              	.LBB4192:
 5102              	.LBB4185:
 337:C:/Renesas/e2studio_2021_01_workspace_RZA2M_ANPR/ANPR_RZA2M_EBK/src/tensorflow_lite/third_party/gemmlowp/fixedpoint\fixedpoint.h ****   return overflow ? std::numeric_limits<std::int32_t>::max() : ab_x2_high32;
 5103              		.loc 5 337 0
 5104 09c4 C72FA0E1 		asr	r2, r7, #31
 5105 09c8 0030A0E3 		mov	r3, #0
 5106 09cc 0221C2E3 		bic	r2, r2, #-2147483648
 5107 09d0 060092E0 		adds	r0, r2, r6
 5108              	.LVL342:
 5109              	.LBE4185:
 5110              	.LBE4192:
 5111              	.LBE4199:
 5112              	.LBE4248:
 5113              	.LBE4305:
 5114              	.LBE4321:
 5115              	.LBE4360:
 5116              		.loc 7 213 0
 5117 09d4 00606CE2 		rsb	r6, ip, #0
 5118              	.LBB4361:
 5119              	.LBB4322:
 5120              	.LBB4306:
 5121              	.LBB4249:
 5122              	.LBB4200:
 5123              	.LBB4193:
 5124              	.LBB4186:
 337:C:/Renesas/e2studio_2021_01_workspace_RZA2M_ANPR/ANPR_RZA2M_EBK/src/tensorflow_lite/third_party/gemmlowp/fixedpoint\fixedpoint.h ****   return overflow ? std::numeric_limits<std::int32_t>::max() : ab_x2_high32;
 5125              		.loc 5 337 0
 5126 09d8 A02FA0E1 		lsr	r2, r0, #31
 5127 09dc 0710A3E0 		adc	r1, r3, r7
 5128              	.LBE4186:
 5129              	.LBE4193:
 5130              	.LBE4200:
 5131              	.LBE4249:
 5132              	.LBB4250:
 5133              	.LBB4243:
 5134              	.LBB4238:
 5135              	.LBB4233:
 335:C:/Renesas/e2studio_2021_01_workspace_RZA2M_ANPR/ANPR_RZA2M_EBK/src/tensorflow_lite/third_party/gemmlowp/fixedpoint\fixedpoint.h ****   std::int32_t ab_x2_high32 =
 5136              		.loc 5 335 0
 5137 09e0 000058E3 		cmp	r8, #0
 5138              	.LBE4233:
 5139              	.LBE4238:
 5140              	.LBE4243:
 5141              	.LBE4250:
 5142              	.LBE4306:
 5143              	.LBE4322:
 5144              	.LBE4361:
 5145              	.LBB4362:
 5146              	.LBB3838:
 5147              	.LBB3823:
 5148              	.LBB3824:
 334:C:/Renesas/e2studio_2021_01_workspace_RZA2M_ANPR/ANPR_RZA2M_EBK/src/tensorflow_lite/third_party/gemmlowp/fixedpoint\fixedpoint.h ****   std::int32_t nudge = ab_64 >= 0 ? (1 << 30) : (1 - (1 << 30));
 5149              		.loc 5 334 0
 5150 09e4 5C309DE5 		ldr	r3, [sp, #92]
 5151              	.LBE3824:
 5152              	.LBE3823:
 5153              	.LBE3838:
 5154              	.LBE4362:
 5155              	.LBB4363:
 5156              	.LBB4323:
 5157              	.LBB4307:
 5158              	.LBB4251:
 5159              	.LBB4201:
 5160              	.LBB4194:
 5161              	.LBB4187:
 337:C:/Renesas/e2studio_2021_01_workspace_RZA2M_ANPR/ANPR_RZA2M_EBK/src/tensorflow_lite/third_party/gemmlowp/fixedpoint\fixedpoint.h ****   return overflow ? std::numeric_limits<std::int32_t>::max() : ab_x2_high32;
 5162              		.loc 5 337 0
 5163 09e8 812082E1 		orr	r2, r2, r1, lsl #1
 5164              	.LVL343:
 5165              	.LBE4187:
 5166              	.LBE4194:
 5167              	.LBE4201:
 5168              	.LBE4251:
 5169              	.LBB4252:
 5170              	.LBB4244:
 5171              	.LBB4239:
 5172              	.LBB4234:
 335:C:/Renesas/e2studio_2021_01_workspace_RZA2M_ANPR/ANPR_RZA2M_EBK/src/tensorflow_lite/third_party/gemmlowp/fixedpoint\fixedpoint.h ****   std::int32_t ab_x2_high32 =
 5173              		.loc 5 335 0
 5174 09ec 0010D9E2 		sbcs	r1, r9, #0
 5175 09f0 0141A0A3 		movge	r4, #1073741824
 5176              	.LBE4234:
 5177              	.LBE4239:
 5178              	.LBE4244:
 5179              	.LBE4252:
 5180              	.LBE4307:
 5181              	.LBE4323:
 5182              	.LBE4363:
 5183              	.LBB4364:
 5184              	.LBB3839:
 161:C:/Renesas/e2studio_2021_01_workspace_RZA2M_ANPR/ANPR_RZA2M_EBK/src/tensorflow_lite/tensorflow/lite/kernels/internal\common.h ****   int right_shift = shift > 0 ? 0 : -shift;
 5185              		.loc 8 161 0
 5186 09f4 C66FC6E1 		bic	r6, r6, r6, asr #31
 5187              	.LBE3839:
 5188              	.LBE4364:
 5189              	.LBB4365:
 5190              	.LBB4324:
 5191              	.LBB4308:
 5192              	.LBB4253:
 5193              	.LBB4245:
 5194              	.LBB4240:
 5195              	.LBB4235:
 335:C:/Renesas/e2studio_2021_01_workspace_RZA2M_ANPR/ANPR_RZA2M_EBK/src/tensorflow_lite/third_party/gemmlowp/fixedpoint\fixedpoint.h ****   std::int32_t ab_x2_high32 =
 5196              		.loc 5 335 0
 5197 09f8 0741A0B3 		movlt	r4, #-1073741823
 5198              	.LBE4235:
 5199              	.LBE4240:
 5200              	.LBE4245:
 5201              	.LBE4253:
 5202              	.LBE4308:
 5203              	.LBE4324:
 5204              	.LBE4365:
 212:C:/Renesas/e2studio_2021_01_workspace_RZA2M_ANPR/ANPR_RZA2M_EBK/src/tensorflow_lite/tensorflow/lite/kernels/internal/reference\log_softmax.h ****                  MultiplyByQuantizedMultiplier(shifted_log_sum_of_exps_in_q5,
 5205              		.loc 7 212 0
 5206 09fc 38C09DE5 		ldr	ip, [sp, #56]
 5207              	.LBB4366:
 5208              	.LBB4325:
 5209              	.LBB4309:
 5210              	.LBB4254:
 5211              	.LBB4246:
 5212              	.LBB4241:
 5213              	.LBB4236:
 335:C:/Renesas/e2studio_2021_01_workspace_RZA2M_ANPR/ANPR_RZA2M_EBK/src/tensorflow_lite/third_party/gemmlowp/fixedpoint\fixedpoint.h ****   std::int32_t ab_x2_high32 =
 5214              		.loc 5 335 0
 5215 0a00 0050A0A3 		movge	r5, #0
 5216 0a04 0050E0B3 		mvnlt	r5, #0
 5217              	.LVL344:
 337:C:/Renesas/e2studio_2021_01_workspace_RZA2M_ANPR/ANPR_RZA2M_EBK/src/tensorflow_lite/third_party/gemmlowp/fixedpoint\fixedpoint.h ****   return overflow ? std::numeric_limits<std::int32_t>::max() : ab_x2_high32;
 5218              		.loc 5 337 0
 5219 0a08 040098E0 		adds	r0, r8, r4
 5220 0a0c 0510A9E0 		adc	r1, r9, r5
 5221 0a10 0050A0E3 		mov	r5, #0
 5222 0a14 C14FA0E1 		asr	r4, r1, #31
 5223              	.LVL345:
 5224              	.LBE4236:
 5225              	.LBE4241:
 5226              	.LBE4246:
 5227              	.LBE4254:
 5228              	.LBE4309:
 5229              	.LBE4325:
 5230              	.LBE4366:
 212:C:/Renesas/e2studio_2021_01_workspace_RZA2M_ANPR/ANPR_RZA2M_EBK/src/tensorflow_lite/tensorflow/lite/kernels/internal/reference\log_softmax.h ****                  MultiplyByQuantizedMultiplier(shifted_log_sum_of_exps_in_q5,
 5231              		.loc 7 212 0
 5232 0a18 01C04CE2 		sub	ip, ip, #1
 5233              	.LBB4367:
 5234              	.LBB4326:
 5235              	.LBB4310:
 5236              	.LBB4255:
 5237              	.LBB4247:
 5238              	.LBB4242:
 5239              	.LBB4237:
 337:C:/Renesas/e2studio_2021_01_workspace_RZA2M_ANPR/ANPR_RZA2M_EBK/src/tensorflow_lite/third_party/gemmlowp/fixedpoint\fixedpoint.h ****   return overflow ? std::numeric_limits<std::int32_t>::max() : ab_x2_high32;
 5240              		.loc 5 337 0
 5241 0a1c 0241C4E3 		bic	r4, r4, #-2147483648
 5242 0a20 048090E0 		adds	r8, r0, r4
 5243 0a24 A80FA0E1 		lsr	r0, r8, #31
 5244 0a28 0590A1E0 		adc	r9, r1, r5
 5245 0a2c 890080E1 		orr	r0, r0, r9, lsl #1
 5246              	.LBE4237:
 5247              	.LBE4242:
 5248              	.LBE4247:
 5249              	.LBE4255:
 5250              	.LBB4256:
 5251              	.LBB4257:
 5252              	.LBB4258:
  95:C:/Renesas/e2studio_2021_01_workspace_RZA2M_ANPR/ANPR_RZA2M_EBK/src/tensorflow_lite/third_party/gemmlowp/fixedpoint\fixedpoint.h **** }
 5253              		.loc 5 95 0
 5254 0a30 000082E0 		add	r0, r2, r0
 5255              	.LBE4258:
 5256              	.LBE4257:
 5257              	.LBE4256:
 5258              	.LBB4259:
 5259              	.LBB4260:
 5260              	.LBB4261:
 5261              	.LBB4262:
 5262              	.LBB4263:
 5263              	.LBB4264:
 5264              	.LBB4265:
 127:C:/Renesas/e2studio_2021_01_workspace_RZA2M_ANPR/ANPR_RZA2M_EBK/src/tensorflow_lite/third_party/gemmlowp/fixedpoint\fixedpoint.h ****   const auto min = std::numeric_limits<tIntegerType>::min();
 5265              		.loc 5 127 0
 5266 0a34 002090E0 		adds	r2, r0, r0
 5267              	.LVL346:
 5268              	.LBE4265:
 5269              	.LBE4264:
 5270              	.LBE4263:
 5271              	.LBE4262:
 5272              	.LBE4261:
 5273              	.LBE4260:
 5274              	.LBE4259:
 5275              	.LBE4310:
 5276              	.LBE4326:
 5277              	.LBE4367:
 210:C:/Renesas/e2studio_2021_01_workspace_RZA2M_ANPR/ANPR_RZA2M_EBK/src/tensorflow_lite/tensorflow/lite/kernels/internal/reference\log_softmax.h ****     const int32_t adjusted_diff_min =
 5278              		.loc 7 210 0
 5279 0a38 02E182E2 		add	lr, r2, #-2147483648
 5280              	.LBB4368:
 5281              	.LBB4327:
 5282              	.LBB4311:
 5283              	.LBB4272:
 5284              	.LBB4271:
 5285              	.LBB4270:
 5286              	.LBB4269:
 5287              	.LBB4268:
 5288              	.LBB4267:
 5289              	.LBB4266:
 132:C:/Renesas/e2studio_2021_01_workspace_RZA2M_ANPR/ANPR_RZA2M_EBK/src/tensorflow_lite/third_party/gemmlowp/fixedpoint\fixedpoint.h ****                                   : static_cast<tIntegerType>(wide_shifted);
 5290              		.loc 5 132 0
 5291 0a3c 0290A0E1 		mov	r9, r2
 5292              	.LVL347:
 5293              	.LBE4266:
 5294              	.LBE4267:
 5295              	.LBE4268:
 5296              	.LBE4269:
 5297              	.LBE4270:
 5298              	.LBE4271:
 5299              	.LBE4272:
 5300              	.LBE4311:
 5301              	.LBE4327:
 5302              	.LBE4368:
 5303              	.LBB4369:
 5304              	.LBB3840:
 163:C:/Renesas/e2studio_2021_01_workspace_RZA2M_ANPR/ANPR_RZA2M_EBK/src/tensorflow_lite/tensorflow/lite/kernels/internal\common.h ****                                  x * (1 << left_shift), quantized_multiplier),
 5305              		.loc 8 163 0
 5306 0a40 1EE6A0E1 		lsl	lr, lr, r6
 5307              	.LVL348:
 5308              	.LBB3828:
 5309              	.LBB3825:
 334:C:/Renesas/e2studio_2021_01_workspace_RZA2M_ANPR/ANPR_RZA2M_EBK/src/tensorflow_lite/third_party/gemmlowp/fixedpoint\fixedpoint.h ****   std::int32_t nudge = ab_64 >= 0 ? (1 << 30) : (1 - (1 << 30));
 5310              		.loc 5 334 0
 5311 0a44 9E43C5E0 		smull	r4, r5, lr, r3
 331:C:/Renesas/e2studio_2021_01_workspace_RZA2M_ANPR/ANPR_RZA2M_EBK/src/tensorflow_lite/third_party/gemmlowp/fixedpoint\fixedpoint.h ****   std::int64_t a_64(a);
 5312              		.loc 5 331 0
 5313 0a48 0E0053E1 		cmp	r3, lr
 5314 0a4c 02015E03 		cmpeq	lr, #-2147483648
 5315 0a50 01E0A003 		moveq	lr, #1
 5316              	.LVL349:
 5317 0a54 00E0A013 		movne	lr, #0
 5318              	.LVL350:
 335:C:/Renesas/e2studio_2021_01_workspace_RZA2M_ANPR/ANPR_RZA2M_EBK/src/tensorflow_lite/third_party/gemmlowp/fixedpoint\fixedpoint.h ****   std::int32_t ab_x2_high32 =
 5319              		.loc 5 335 0
 5320 0a58 000054E3 		cmp	r4, #0
 5321 0a5c 0030D5E2 		sbcs	r3, r5, #0
 5322              	.LVL351:
 5323 0a60 050100BA 		blt	.L292
 5324 0a64 0121A0E3 		mov	r2, #1073741824
 5325              	.LVL352:
 5326 0a68 0030A0E3 		mov	r3, #0
 5327              	.L215:
 5328              	.LVL353:
 338:C:/Renesas/e2studio_2021_01_workspace_RZA2M_ANPR/ANPR_RZA2M_EBK/src/tensorflow_lite/third_party/gemmlowp/fixedpoint\fixedpoint.h **** }
 5329              		.loc 5 338 0
 5330 0a6c 00005EE3 		cmp	lr, #0
 5331 0a70 FA00001A 		bne	.L398
 337:C:/Renesas/e2studio_2021_01_workspace_RZA2M_ANPR/ANPR_RZA2M_EBK/src/tensorflow_lite/third_party/gemmlowp/fixedpoint\fixedpoint.h ****   return overflow ? std::numeric_limits<std::int32_t>::max() : ab_x2_high32;
 5332              		.loc 5 337 0
 5333 0a74 020094E0 		adds	r0, r4, r2
 5334 0a78 0310A5E0 		adc	r1, r5, r3
 5335 0a7c 0030A0E3 		mov	r3, #0
 5336 0a80 C12FA0E1 		asr	r2, r1, #31
 5337              	.LVL354:
 5338 0a84 0221C2E3 		bic	r2, r2, #-2147483648
 5339 0a88 004092E0 		adds	r4, r2, r0
 5340              	.LVL355:
 5341 0a8c A42FA0E1 		lsr	r2, r4, #31
 5342 0a90 0150A3E0 		adc	r5, r3, r1
 5343 0a94 852082E1 		orr	r2, r2, r5, lsl #1
 5344              	.LVL356:
 5345              	.L240:
 5346              	.LBE3825:
 5347              	.LBE3828:
 5348              	.LBB3829:
 5349              	.LBB3816:
 359:C:/Renesas/e2studio_2021_01_workspace_RZA2M_ANPR/ANPR_RZA2M_EBK/src/tensorflow_lite/third_party/gemmlowp/fixedpoint\fixedpoint.h ****   const IntegerType mask = Dup<IntegerType>((1ll << exponent) - 1);
 5350              		.loc 5 359 0
 5351 0a98 30309DE5 		ldr	r3, [sp, #48]
 5352 0a9c 1F0053E3 		cmp	r3, #31
 5353 0aa0 D40200CA 		bgt	.L399
 5354              	.LVL357:
 5355 0aa4 0310A0E1 		mov	r1, r3
 5356              	.LBB3799:
 5357              	.LBB3800:
  95:C:/Renesas/e2studio_2021_01_workspace_RZA2M_ANPR/ANPR_RZA2M_EBK/src/tensorflow_lite/third_party/gemmlowp/fixedpoint\fixedpoint.h **** }
 5358              		.loc 5 95 0
 5359 0aa8 68309DE5 		ldr	r3, [sp, #104]
 5360              	.LBE3800:
 5361              	.LBE3799:
 5362              	.LBB3802:
 5363              	.LBB3803:
 141:C:/Renesas/e2studio_2021_01_workspace_RZA2M_ANPR/ANPR_RZA2M_EBK/src/tensorflow_lite/third_party/gemmlowp/fixedpoint\fixedpoint.h **** }
 5364              		.loc 5 141 0
 5365 0aac 5241A0E1 		asr	r4, r2, r1
 5366              	.LBE3803:
 5367              	.LBE3802:
 5368              	.LBB3804:
 5369              	.LBB3805:
  71:C:/Renesas/e2studio_2021_01_workspace_RZA2M_ANPR/ANPR_RZA2M_EBK/src/tensorflow_lite/third_party/gemmlowp/fixedpoint\fixedpoint.h **** }
 5370              		.loc 5 71 0
 5371 0ab0 64109DE5 		ldr	r1, [sp, #100]
 5372              	.LBE3805:
 5373              	.LBE3804:
 5374              	.LBB3807:
 5375              	.LBB3801:
  95:C:/Renesas/e2studio_2021_01_workspace_RZA2M_ANPR/ANPR_RZA2M_EBK/src/tensorflow_lite/third_party/gemmlowp/fixedpoint\fixedpoint.h **** }
 5376              		.loc 5 95 0
 5377 0ab4 A23F83E0 		add	r3, r3, r2, lsr #31
 5378              	.LBE3801:
 5379              	.LBE3807:
 5380              	.LBB3808:
 5381              	.LBB3806:
  71:C:/Renesas/e2studio_2021_01_workspace_RZA2M_ANPR/ANPR_RZA2M_EBK/src/tensorflow_lite/third_party/gemmlowp/fixedpoint\fixedpoint.h **** }
 5382              		.loc 5 71 0
 5383 0ab8 012002E0 		and	r2, r2, r1
 5384              	.LBE3806:
 5385              	.LBE3808:
 5386              	.LBB3809:
 5387              	.LBB3810:
  95:C:/Renesas/e2studio_2021_01_workspace_RZA2M_ANPR/ANPR_RZA2M_EBK/src/tensorflow_lite/third_party/gemmlowp/fixedpoint\fixedpoint.h **** }
 5388              		.loc 5 95 0
 5389 0abc 030052E1 		cmp	r2, r3
 5390 0ac0 014084C2 		addgt	r4, r4, #1
 5391              	.LBE3810:
 5392              	.LBE3809:
 5393              	.LBE3816:
 5394              	.LBE3829:
 5395              	.LBE3840:
 5396              	.LBE4369:
 5397              	.LBB4370:
 214:C:/Renesas/e2studio_2021_01_workspace_RZA2M_ANPR/ANPR_RZA2M_EBK/src/tensorflow_lite/tensorflow/lite/kernels/internal/reference\log_softmax.h ****                                                reverse_scaling_divisor,
 215:C:/Renesas/e2studio_2021_01_workspace_RZA2M_ANPR/ANPR_RZA2M_EBK/src/tensorflow_lite/tensorflow/lite/kernels/internal/reference\log_softmax.h ****                                                -reverse_scaling_right_shift));
 216:C:/Renesas/e2studio_2021_01_workspace_RZA2M_ANPR/ANPR_RZA2M_EBK/src/tensorflow_lite/tensorflow/lite/kernels/internal/reference\log_softmax.h **** 
 217:C:/Renesas/e2studio_2021_01_workspace_RZA2M_ANPR/ANPR_RZA2M_EBK/src/tensorflow_lite/tensorflow/lite/kernels/internal/reference\log_softmax.h ****     for (size_t inner_index = 0; inner_index < depth; ++inner_index) {
 5398              		.loc 7 217 0
 5399 0ac4 14309DE5 		ldr	r3, [sp, #20]
 5400 0ac8 0C0054E1 		cmp	r4, ip
 5401 0acc 0C40A0B1 		movlt	r4, ip
 5402              	.LVL358:
 5403 0ad0 000053E3 		cmp	r3, #0
 5404 0ad4 5200000A 		beq	.L226
 5405              	.LBB4371:
 5406              	.LBB4372:
 5407              	.LBB4373:
 5408              	.LBB4374:
 5409              	.LBB4375:
 161:C:/Renesas/e2studio_2021_01_workspace_RZA2M_ANPR/ANPR_RZA2M_EBK/src/tensorflow_lite/tensorflow/lite/kernels/internal\common.h ****   int right_shift = shift > 0 ? 0 : -shift;
 5410              		.loc 8 161 0
 5411 0ad8 3C309DE5 		ldr	r3, [sp, #60]
 5412              	.LBE4375:
 5413              	.LBE4374:
 218:C:/Renesas/e2studio_2021_01_workspace_RZA2M_ANPR/ANPR_RZA2M_EBK/src/tensorflow_lite/tensorflow/lite/kernels/internal/reference\log_softmax.h ****       int32_t input_diff =
 219:C:/Renesas/e2studio_2021_01_workspace_RZA2M_ANPR/ANPR_RZA2M_EBK/src/tensorflow_lite/tensorflow/lite/kernels/internal/reference\log_softmax.h ****           static_cast<int32_t>(input_data[outer_index * depth + inner_index]) -
 220:C:/Renesas/e2studio_2021_01_workspace_RZA2M_ANPR/ANPR_RZA2M_EBK/src/tensorflow_lite/tensorflow/lite/kernels/internal/reference\log_softmax.h ****           max_in_row;
 221:C:/Renesas/e2studio_2021_01_workspace_RZA2M_ANPR/ANPR_RZA2M_EBK/src/tensorflow_lite/tensorflow/lite/kernels/internal/reference\log_softmax.h ****       // Note use of > below instead of >= above.
 222:C:/Renesas/e2studio_2021_01_workspace_RZA2M_ANPR/ANPR_RZA2M_EBK/src/tensorflow_lite/tensorflow/lite/kernels/internal/reference\log_softmax.h ****       if (input_diff > adjusted_diff_min) {
 223:C:/Renesas/e2studio_2021_01_workspace_RZA2M_ANPR/ANPR_RZA2M_EBK/src/tensorflow_lite/tensorflow/lite/kernels/internal/reference\log_softmax.h ****         const int32_t input_diff_in_q5 = MultiplyByQuantizedMultiplier(
 224:C:/Renesas/e2studio_2021_01_workspace_RZA2M_ANPR/ANPR_RZA2M_EBK/src/tensorflow_lite/tensorflow/lite/kernels/internal/reference\log_softmax.h ****             input_diff, input_multiplier, input_left_shift);
 225:C:/Renesas/e2studio_2021_01_workspace_RZA2M_ANPR/ANPR_RZA2M_EBK/src/tensorflow_lite/tensorflow/lite/kernels/internal/reference\log_softmax.h **** 
 226:C:/Renesas/e2studio_2021_01_workspace_RZA2M_ANPR/ANPR_RZA2M_EBK/src/tensorflow_lite/tensorflow/lite/kernels/internal/reference\log_softmax.h ****         // Rescale and downcast.
 227:C:/Renesas/e2studio_2021_01_workspace_RZA2M_ANPR/ANPR_RZA2M_EBK/src/tensorflow_lite/tensorflow/lite/kernels/internal/reference\log_softmax.h ****         int32_t output_in_q27 =
 228:C:/Renesas/e2studio_2021_01_workspace_RZA2M_ANPR/ANPR_RZA2M_EBK/src/tensorflow_lite/tensorflow/lite/kernels/internal/reference\log_softmax.h ****             gemmlowp::RoundingDivideByPOT(
 229:C:/Renesas/e2studio_2021_01_workspace_RZA2M_ANPR/ANPR_RZA2M_EBK/src/tensorflow_lite/tensorflow/lite/kernels/internal/reference\log_softmax.h ****                 (input_diff_in_q5 - log_sum_of_exps_in_q5),
 230:C:/Renesas/e2studio_2021_01_workspace_RZA2M_ANPR/ANPR_RZA2M_EBK/src/tensorflow_lite/tensorflow/lite/kernels/internal/reference\log_softmax.h ****                 31 - kInputIntegerBits - kOutputIntegerBits) +
 231:C:/Renesas/e2studio_2021_01_workspace_RZA2M_ANPR/ANPR_RZA2M_EBK/src/tensorflow_lite/tensorflow/lite/kernels/internal/reference\log_softmax.h ****             kMaxT8;
 232:C:/Renesas/e2studio_2021_01_workspace_RZA2M_ANPR/ANPR_RZA2M_EBK/src/tensorflow_lite/tensorflow/lite/kernels/internal/reference\log_softmax.h **** 
 233:C:/Renesas/e2studio_2021_01_workspace_RZA2M_ANPR/ANPR_RZA2M_EBK/src/tensorflow_lite/tensorflow/lite/kernels/internal/reference\log_softmax.h ****         output_in_q27 =
 234:C:/Renesas/e2studio_2021_01_workspace_RZA2M_ANPR/ANPR_RZA2M_EBK/src/tensorflow_lite/tensorflow/lite/kernels/internal/reference\log_softmax.h ****             std::max(std::min(output_in_q27, static_cast<int32_t>(kMaxT8)),
 235:C:/Renesas/e2studio_2021_01_workspace_RZA2M_ANPR/ANPR_RZA2M_EBK/src/tensorflow_lite/tensorflow/lite/kernels/internal/reference\log_softmax.h ****                      static_cast<int32_t>(kMinT8));
 5414              		.loc 7 235 0
 5415 0adc 00908DE5 		str	r9, [sp]
 5416 0ae0 DB57DDE1 		ldrsb	r5, [sp, #123]
 5417              	.LBE4373:
 5418              	.LBE4372:
 5419              	.LBE4371:
 217:C:/Renesas/e2studio_2021_01_workspace_RZA2M_ANPR/ANPR_RZA2M_EBK/src/tensorflow_lite/tensorflow/lite/kernels/internal/reference\log_softmax.h ****       int32_t input_diff =
 5420              		.loc 7 217 0
 5421 0ae4 24E09DE5 		ldr	lr, [sp, #36]
 5422              	.LBB4450:
 5423              	.LBB4443:
 5424              	.LBB4436:
 5425              	.LBB4406:
 5426              	.LBB4400:
 161:C:/Renesas/e2studio_2021_01_workspace_RZA2M_ANPR/ANPR_RZA2M_EBK/src/tensorflow_lite/tensorflow/lite/kernels/internal\common.h ****   int right_shift = shift > 0 ? 0 : -shift;
 5427              		.loc 8 161 0
 5428 0ae8 C38FC3E1 		bic	r8, r3, r3, asr #31
 5429              	.LBE4400:
 5430              	.LBE4406:
 5431              	.LBE4436:
 5432              	.LBE4443:
 5433              	.LBE4450:
 217:C:/Renesas/e2studio_2021_01_workspace_RZA2M_ANPR/ANPR_RZA2M_EBK/src/tensorflow_lite/tensorflow/lite/kernels/internal/reference\log_softmax.h ****       int32_t input_diff =
 5434              		.loc 7 217 0
 5435 0aec 18C09DE5 		ldr	ip, [sp, #24]
 5436              	.LBB4451:
 5437              	.LBB4444:
 5438              	.LBB4437:
 5439              		.loc 7 235 0
 5440 0af0 1C909DE5 		ldr	r9, [sp, #28]
 5441 0af4 08808DE5 		str	r8, [sp, #8]
 5442 0af8 48809DE5 		ldr	r8, [sp, #72]
 5443 0afc 020000EA 		b	.L227
 5444              	.LVL359:
 5445              	.L225:
 5446              	.LBE4437:
 5447              	.LBE4444:
 5448              	.LBE4451:
 217:C:/Renesas/e2studio_2021_01_workspace_RZA2M_ANPR/ANPR_RZA2M_EBK/src/tensorflow_lite/tensorflow/lite/kernels/internal/reference\log_softmax.h ****       int32_t input_diff =
 5449              		.loc 7 217 0
 5450 0b00 0C005BE1 		cmp	fp, ip
 5451 0b04 01E08EE2 		add	lr, lr, #1
 5452 0b08 4500000A 		beq	.L226
 5453              	.LVL360:
 5454              	.L227:
 5455              	.LBB4452:
 219:C:/Renesas/e2studio_2021_01_workspace_RZA2M_ANPR/ANPR_RZA2M_EBK/src/tensorflow_lite/tensorflow/lite/kernels/internal/reference\log_softmax.h ****           max_in_row;
 5456              		.loc 7 219 0
 5457 0b0c D1A0DCE0 		ldrsb	r10, [ip], #1
 220:C:/Renesas/e2studio_2021_01_workspace_RZA2M_ANPR/ANPR_RZA2M_EBK/src/tensorflow_lite/tensorflow/lite/kernels/internal/reference\log_softmax.h ****       // Note use of > below instead of >= above.
 5458              		.loc 7 220 0
 5459 0b10 05A04AE0 		sub	r10, r10, r5
 5460              	.LVL361:
 5461              	.LBB4445:
 222:C:/Renesas/e2studio_2021_01_workspace_RZA2M_ANPR/ANPR_RZA2M_EBK/src/tensorflow_lite/tensorflow/lite/kernels/internal/reference\log_softmax.h ****         const int32_t input_diff_in_q5 = MultiplyByQuantizedMultiplier(
 5462              		.loc 7 222 0
 5463 0b14 04005AE1 		cmp	r10, r4
 236:C:/Renesas/e2studio_2021_01_workspace_RZA2M_ANPR/ANPR_RZA2M_EBK/src/tensorflow_lite/tensorflow/lite/kernels/internal/reference\log_softmax.h ****         output_data[outer_index * depth + inner_index] =
 237:C:/Renesas/e2studio_2021_01_workspace_RZA2M_ANPR/ANPR_RZA2M_EBK/src/tensorflow_lite/tensorflow/lite/kernels/internal/reference\log_softmax.h ****             static_cast<T>(output_in_q27);
 238:C:/Renesas/e2studio_2021_01_workspace_RZA2M_ANPR/ANPR_RZA2M_EBK/src/tensorflow_lite/tensorflow/lite/kernels/internal/reference\log_softmax.h ****       } else {
 239:C:/Renesas/e2studio_2021_01_workspace_RZA2M_ANPR/ANPR_RZA2M_EBK/src/tensorflow_lite/tensorflow/lite/kernels/internal/reference\log_softmax.h ****         output_data[outer_index * depth + inner_index] = kMinT8;
 5464              		.loc 7 239 0
 5465 0b18 7F30E0D3 		mvnle	r3, #127
 5466 0b1c 0030CED5 		strble	r3, [lr]
 222:C:/Renesas/e2studio_2021_01_workspace_RZA2M_ANPR/ANPR_RZA2M_EBK/src/tensorflow_lite/tensorflow/lite/kernels/internal/reference\log_softmax.h ****         const int32_t input_diff_in_q5 = MultiplyByQuantizedMultiplier(
 5467              		.loc 7 222 0
 5468 0b20 F6FFFFDA 		ble	.L225
 5469              	.LVL362:
 5470              	.LBB4438:
 5471              	.LBB4407:
 5472              	.LBB4401:
 163:C:/Renesas/e2studio_2021_01_workspace_RZA2M_ANPR/ANPR_RZA2M_EBK/src/tensorflow_lite/tensorflow/lite/kernels/internal\common.h ****                                  x * (1 << left_shift), quantized_multiplier),
 5473              		.loc 8 163 0
 5474 0b24 08309DE5 		ldr	r3, [sp, #8]
 5475 0b28 1AA3A0E1 		lsl	r10, r10, r3
 5476              	.LVL363:
 5477              	.LBB4376:
 5478              	.LBB4377:
 334:C:/Renesas/e2studio_2021_01_workspace_RZA2M_ANPR/ANPR_RZA2M_EBK/src/tensorflow_lite/third_party/gemmlowp/fixedpoint\fixedpoint.h ****   std::int32_t nudge = ab_64 >= 0 ? (1 << 30) : (1 - (1 << 30));
 5479              		.loc 5 334 0
 5480 0b2c 9A28C3E0 		smull	r2, r3, r10, r8
 331:C:/Renesas/e2studio_2021_01_workspace_RZA2M_ANPR/ANPR_RZA2M_EBK/src/tensorflow_lite/third_party/gemmlowp/fixedpoint\fixedpoint.h ****   std::int64_t a_64(a);
 5481              		.loc 5 331 0
 5482 0b30 0A0058E1 		cmp	r8, r10
 5483 0b34 02015A03 		cmpeq	r10, #-2147483648
 5484 0b38 01A0A003 		moveq	r10, #1
 5485              	.LVL364:
 5486 0b3c 00A0A013 		movne	r10, #0
 335:C:/Renesas/e2studio_2021_01_workspace_RZA2M_ANPR/ANPR_RZA2M_EBK/src/tensorflow_lite/third_party/gemmlowp/fixedpoint\fixedpoint.h ****   std::int32_t ab_x2_high32 =
 5487              		.loc 5 335 0
 5488 0b40 000052E3 		cmp	r2, #0
 334:C:/Renesas/e2studio_2021_01_workspace_RZA2M_ANPR/ANPR_RZA2M_EBK/src/tensorflow_lite/third_party/gemmlowp/fixedpoint\fixedpoint.h ****   std::int32_t nudge = ab_64 >= 0 ? (1 << 30) : (1 - (1 << 30));
 5489              		.loc 5 334 0
 5490 0b44 0310A0E1 		mov	r1, r3
 5491              	.LVL365:
 335:C:/Renesas/e2studio_2021_01_workspace_RZA2M_ANPR/ANPR_RZA2M_EBK/src/tensorflow_lite/third_party/gemmlowp/fixedpoint\fixedpoint.h ****   std::int32_t ab_x2_high32 =
 5492              		.loc 5 335 0
 5493 0b48 0030D3E2 		sbcs	r3, r3, #0
 334:C:/Renesas/e2studio_2021_01_workspace_RZA2M_ANPR/ANPR_RZA2M_EBK/src/tensorflow_lite/third_party/gemmlowp/fixedpoint\fixedpoint.h ****   std::int32_t nudge = ab_64 >= 0 ? (1 << 30) : (1 - (1 << 30));
 5494              		.loc 5 334 0
 5495 0b4c 0200A0E1 		mov	r0, r2
 335:C:/Renesas/e2studio_2021_01_workspace_RZA2M_ANPR/ANPR_RZA2M_EBK/src/tensorflow_lite/third_party/gemmlowp/fixedpoint\fixedpoint.h ****   std::int32_t ab_x2_high32 =
 5496              		.loc 5 335 0
 5497 0b50 760000BA 		blt	.L293
 5498 0b54 0121A0E3 		mov	r2, #1073741824
 5499              	.LVL366:
 5500 0b58 0030A0E3 		mov	r3, #0
 5501              	.L221:
 5502              	.LVL367:
 338:C:/Renesas/e2studio_2021_01_workspace_RZA2M_ANPR/ANPR_RZA2M_EBK/src/tensorflow_lite/third_party/gemmlowp/fixedpoint\fixedpoint.h **** }
 5503              		.loc 5 338 0
 5504 0b5c 00005AE3 		cmp	r10, #0
 5505 0b60 5B00001A 		bne	.L400
 337:C:/Renesas/e2studio_2021_01_workspace_RZA2M_ANPR/ANPR_RZA2M_EBK/src/tensorflow_lite/third_party/gemmlowp/fixedpoint\fixedpoint.h ****   return overflow ? std::numeric_limits<std::int32_t>::max() : ab_x2_high32;
 5506              		.loc 5 337 0
 5507 0b64 020090E0 		adds	r0, r0, r2
 5508              	.LVL368:
 5509 0b68 0310A1E0 		adc	r1, r1, r3
 5510 0b6c C12FA0E1 		asr	r2, r1, #31
 5511 0b70 902B80EE 		vdup.32	d16, r2
 5512 0b74 B000E0F2 		vshr.s64	d16, d16, #32
 5513 0b78 302B53EC 		vmov	r2, r3, d16	@ int
 5514 0b7c 0030A0E3 		mov	r3, #0
 5515 0b80 0221C2E3 		bic	r2, r2, #-2147483648
 5516 0b84 006092E0 		adds	r6, r2, r0
 5517 0b88 A62FA0E1 		lsr	r2, r6, #31
 5518 0b8c 0170A3E0 		adc	r7, r3, r1
 5519 0b90 872082E1 		orr	r2, r2, r7, lsl #1
 5520              	.LVL369:
 5521              	.L242:
 5522              	.LBE4377:
 5523              	.LBE4376:
 5524              	.LBB4380:
 5525              	.LBB4381:
 359:C:/Renesas/e2studio_2021_01_workspace_RZA2M_ANPR/ANPR_RZA2M_EBK/src/tensorflow_lite/third_party/gemmlowp/fixedpoint\fixedpoint.h ****   const IntegerType mask = Dup<IntegerType>((1ll << exponent) - 1);
 5526              		.loc 5 359 0
 5527 0b94 1F0059E3 		cmp	r9, #31
 5528 0b98 560200CA 		bgt	.L401
 5529              	.LVL370:
 5530              	.LBB4382:
 5531              	.LBB4383:
  95:C:/Renesas/e2studio_2021_01_workspace_RZA2M_ANPR/ANPR_RZA2M_EBK/src/tensorflow_lite/third_party/gemmlowp/fixedpoint\fixedpoint.h **** }
 5532              		.loc 5 95 0
 5533 0b9c 20309DE5 		ldr	r3, [sp, #32]
 5534              	.LBE4383:
 5535              	.LBE4382:
 5536              	.LBE4381:
 5537              	.LBE4380:
 5538              	.LBE4401:
 5539              	.LBE4407:
 235:C:/Renesas/e2studio_2021_01_workspace_RZA2M_ANPR/ANPR_RZA2M_EBK/src/tensorflow_lite/tensorflow/lite/kernels/internal/reference\log_softmax.h ****         output_data[outer_index * depth + inner_index] =
 5540              		.loc 7 235 0
 5541 0ba0 7F00A0E3 		mov	r0, #127
 5542 0ba4 84008DE5 		str	r0, [sp, #132]
 5543              	.LBB4408:
 5544              	.LBB4402:
 5545              	.LBB4396:
 5546              	.LBB4394:
 5547              	.LBB4385:
 5548              	.LBB4386:
  71:C:/Renesas/e2studio_2021_01_workspace_RZA2M_ANPR/ANPR_RZA2M_EBK/src/tensorflow_lite/third_party/gemmlowp/fixedpoint\fixedpoint.h **** }
 5549              		.loc 5 71 0
 5550 0ba8 10009DE5 		ldr	r0, [sp, #16]
 5551              	.LBE4386:
 5552              	.LBE4385:
 5553              	.LBB4388:
 5554              	.LBB4384:
  95:C:/Renesas/e2studio_2021_01_workspace_RZA2M_ANPR/ANPR_RZA2M_EBK/src/tensorflow_lite/third_party/gemmlowp/fixedpoint\fixedpoint.h **** }
 5555              		.loc 5 95 0
 5556 0bac A21F83E0 		add	r1, r3, r2, lsr #31
 5557              	.LBE4384:
 5558              	.LBE4388:
 5559              	.LBB4389:
 5560              	.LBB4390:
 141:C:/Renesas/e2studio_2021_01_workspace_RZA2M_ANPR/ANPR_RZA2M_EBK/src/tensorflow_lite/third_party/gemmlowp/fixedpoint\fixedpoint.h **** }
 5561              		.loc 5 141 0
 5562 0bb0 5239A0E1 		asr	r3, r2, r9
 5563              	.LBE4390:
 5564              	.LBE4389:
 5565              	.LBB4391:
 5566              	.LBB4387:
  71:C:/Renesas/e2studio_2021_01_workspace_RZA2M_ANPR/ANPR_RZA2M_EBK/src/tensorflow_lite/third_party/gemmlowp/fixedpoint\fixedpoint.h **** }
 5567              		.loc 5 71 0
 5568 0bb4 002002E0 		and	r2, r2, r0
 5569              	.LBE4387:
 5570              	.LBE4391:
 5571              	.LBB4392:
 5572              	.LBB4393:
  95:C:/Renesas/e2studio_2021_01_workspace_RZA2M_ANPR/ANPR_RZA2M_EBK/src/tensorflow_lite/third_party/gemmlowp/fixedpoint\fixedpoint.h **** }
 5573              		.loc 5 95 0
 5574 0bb8 010052E1 		cmp	r2, r1
 5575 0bbc 0320A0D1 		movle	r2, r3
 5576 0bc0 012083C2 		addgt	r2, r3, #1
 5577              	.LBE4393:
 5578              	.LBE4392:
 5579              	.LBE4394:
 5580              	.LBE4396:
 5581              	.LBE4402:
 5582              	.LBE4408:
 228:C:/Renesas/e2studio_2021_01_workspace_RZA2M_ANPR/ANPR_RZA2M_EBK/src/tensorflow_lite/tensorflow/lite/kernels/internal/reference\log_softmax.h ****                 (input_diff_in_q5 - log_sum_of_exps_in_q5),
 5583              		.loc 7 228 0
 5584 0bc4 00309DE5 		ldr	r3, [sp]
 5585 0bc8 032042E0 		sub	r2, r2, r3
 5586              	.LVL371:
 5587              	.LBB4409:
 5588              	.LBB4410:
 5589              	.LBB4411:
 5590              	.LBB4412:
  71:C:/Renesas/e2studio_2021_01_workspace_RZA2M_ANPR/ANPR_RZA2M_EBK/src/tensorflow_lite/third_party/gemmlowp/fixedpoint\fixedpoint.h **** }
 5591              		.loc 5 71 0
 5592 0bcc A21FA0E1 		lsr	r1, r2, #31
 5593              	.LBE4412:
 5594              	.LBE4411:
 5595              	.LBB4413:
 5596              	.LBB4414:
 141:C:/Renesas/e2studio_2021_01_workspace_RZA2M_ANPR/ANPR_RZA2M_EBK/src/tensorflow_lite/third_party/gemmlowp/fixedpoint\fixedpoint.h **** }
 5597              		.loc 5 141 0
 5598 0bd0 423BA0E1 		asr	r3, r2, #22
 5599              	.LBE4414:
 5600              	.LBE4413:
 5601              	.LBB4415:
 5602              	.LBB4416:
  95:C:/Renesas/e2studio_2021_01_workspace_RZA2M_ANPR/ANPR_RZA2M_EBK/src/tensorflow_lite/third_party/gemmlowp/fixedpoint\fixedpoint.h **** }
 5603              		.loc 5 95 0
 5604 0bd4 7F1341E2 		sub	r1, r1, #-67108863
 5605              	.LBE4416:
 5606              	.LBE4415:
 5607              	.LBB4418:
 5608              	.LBB4419:
  71:C:/Renesas/e2studio_2021_01_workspace_RZA2M_ANPR/ANPR_RZA2M_EBK/src/tensorflow_lite/third_party/gemmlowp/fixedpoint\fixedpoint.h **** }
 5609              		.loc 5 71 0
 5610 0bd8 5220F5E7 		ubfx	r2, r2, #0, #22
 5611              	.LBE4419:
 5612              	.LBE4418:
 5613              	.LBB4420:
 5614              	.LBB4417:
  95:C:/Renesas/e2studio_2021_01_workspace_RZA2M_ANPR/ANPR_RZA2M_EBK/src/tensorflow_lite/third_party/gemmlowp/fixedpoint\fixedpoint.h **** }
 5615              		.loc 5 95 0
 5616 0bdc 3E1641E2 		sub	r1, r1, #65011712
 5617              	.LBE4417:
 5618              	.LBE4420:
 5619              	.LBB4421:
 5620              	.LBB4422:
 5621 0be0 010052E1 		cmp	r2, r1
 5622 0be4 0320A0D1 		movle	r2, r3
 5623 0be8 012083C2 		addgt	r2, r3, #1
 5624              	.LBE4422:
 5625              	.LBE4421:
 5626              	.LBE4410:
 5627              	.LBE4409:
 230:C:/Renesas/e2studio_2021_01_workspace_RZA2M_ANPR/ANPR_RZA2M_EBK/src/tensorflow_lite/tensorflow/lite/kernels/internal/reference\log_softmax.h ****             kMaxT8;
 5628              		.loc 7 230 0
 5629 0bec 7F2082E2 		add	r2, r2, #127
 5630              	.LBB4423:
 5631              	.LBB4424:
 200:c:\program files (x86)\gnu tools arm embedded\6 2017-q2-update\arm-none-eabi\include\c++\6.3.1\bits\stl_algobase.h **** 	return __b;
 5632              		.loc 9 200 0
 5633 0bf0 7F0052E3 		cmp	r2, #127
 5634              	.LBE4424:
 5635              	.LBE4423:
 231:C:/Renesas/e2studio_2021_01_workspace_RZA2M_ANPR/ANPR_RZA2M_EBK/src/tensorflow_lite/tensorflow/lite/kernels/internal/reference\log_softmax.h **** 
 5636              		.loc 7 231 0
 5637 0bf4 7C208DE5 		str	r2, [sp, #124]
 5638              	.LBB4427:
 5639              	.LBB4425:
 200:c:\program files (x86)\gnu tools arm embedded\6 2017-q2-update\arm-none-eabi\include\c++\6.3.1\bits\stl_algobase.h **** 	return __b;
 5640              		.loc 9 200 0
 5641 0bf8 330000CA 		bgt	.L294
 5642              	.LVL372:
 5643              	.LBE4425:
 5644              	.LBE4427:
 5645              	.LBB4428:
 5646              	.LBB4429:
 5647              		.loc 9 224 0
 5648 0bfc 800072E3 		cmn	r2, #128
 5649              	.LBE4429:
 5650              	.LBE4428:
 235:C:/Renesas/e2studio_2021_01_workspace_RZA2M_ANPR/ANPR_RZA2M_EBK/src/tensorflow_lite/tensorflow/lite/kernels/internal/reference\log_softmax.h ****         output_data[outer_index * depth + inner_index] =
 5651              		.loc 7 235 0
 5652 0c00 7F30E0E3 		mvn	r3, #127
 5653 0c04 80308DE5 		str	r3, [sp, #128]
 5654              	.LVL373:
 5655              	.LBB4431:
 5656              	.LBB4430:
 5657              		.loc 9 224 0
 5658 0c08 7F20E0B3 		mvnlt	r2, #127
 5659 0c0c 000000BA 		blt	.L224
 5660              	.LVL374:
 5661              	.L223:
 5662 0c10 7220AFE6 		sxtb	r2, r2
 5663              	.L224:
 5664              	.LVL375:
 5665              	.LBE4430:
 5666              	.LBE4431:
 5667              	.LBE4438:
 5668              	.LBE4445:
 5669              	.LBE4452:
 217:C:/Renesas/e2studio_2021_01_workspace_RZA2M_ANPR/ANPR_RZA2M_EBK/src/tensorflow_lite/tensorflow/lite/kernels/internal/reference\log_softmax.h ****       int32_t input_diff =
 5670              		.loc 7 217 0
 5671 0c14 0C005BE1 		cmp	fp, ip
 5672              	.LBB4453:
 5673              	.LBB4446:
 5674              	.LBB4439:
 236:C:/Renesas/e2studio_2021_01_workspace_RZA2M_ANPR/ANPR_RZA2M_EBK/src/tensorflow_lite/tensorflow/lite/kernels/internal/reference\log_softmax.h ****             static_cast<T>(output_in_q27);
 5675              		.loc 7 236 0
 5676 0c18 0020CEE5 		strb	r2, [lr]
 5677 0c1c 01E08EE2 		add	lr, lr, #1
 5678              	.LBE4439:
 5679              	.LBE4446:
 5680              	.LBE4453:
 217:C:/Renesas/e2studio_2021_01_workspace_RZA2M_ANPR/ANPR_RZA2M_EBK/src/tensorflow_lite/tensorflow/lite/kernels/internal/reference\log_softmax.h ****       int32_t input_diff =
 5681              		.loc 7 217 0
 5682 0c20 B9FFFF1A 		bne	.L227
 5683              	.L226:
 5684              	.LBE4370:
 5685              	.LBE3668:
 179:C:/Renesas/e2studio_2021_01_workspace_RZA2M_ANPR/ANPR_RZA2M_EBK/src/tensorflow_lite/tensorflow/lite/kernels/internal/reference\log_softmax.h ****     T max_in_row = kMinT8;
 5686              		.loc 7 179 0
 5687 0c24 34309DE5 		ldr	r3, [sp, #52]
 5688 0c28 58109DE5 		ldr	r1, [sp, #88]
 5689 0c2c 013083E2 		add	r3, r3, #1
 5690 0c30 0320A0E1 		mov	r2, r3
 5691 0c34 34308DE5 		str	r3, [sp, #52]
 5692              	.LVL376:
 5693 0c38 020051E1 		cmp	r1, r2
 5694 0c3c 14309DE5 		ldr	r3, [sp, #20]
 5695 0c40 18209DE5 		ldr	r2, [sp, #24]
 5696              	.LVL377:
 5697 0c44 03B08BE0 		add	fp, fp, r3
 5698 0c48 032082E0 		add	r2, r2, r3
 5699 0c4c 18208DE5 		str	r2, [sp, #24]
 5700 0c50 24209DE5 		ldr	r2, [sp, #36]
 5701 0c54 033082E0 		add	r3, r2, r3
 5702 0c58 24308DE5 		str	r3, [sp, #36]
 5703 0c5c 4AFDFF1A 		bne	.L219
 5704              	.LVL378:
 5705              	.L218:
 5706              	.LBE3667:
 5707              	.LBE3666:
 5708              	.LBE3665:
 5709              	.LBE3664:
 5710              	.LBB4498:
 5711              	.LBB4499:
 203:C:/Renesas/e2studio_2021_01_workspace_RZA2M_ANPR/ANPR_RZA2M_EBK/src/tensorflow_lite/tensorflow/lite/kernels/internal\types.h **** #ifdef TF_LITE_STATIC_MEMORY
 5712              		.loc 4 203 0
 5713 0c60 A0309DE5 		ldr	r3, [sp, #160]
 5714 0c64 050053E3 		cmp	r3, #5
 5715 0c68 280000CA 		bgt	.L173
 5716              	.LVL379:
 5717              	.L174:
 5718              	.LBE4499:
 5719              	.LBE4498:
 5720              	.LBB4501:
 5721              	.LBB4502:
 5722 0c6c 88309DE5 		ldr	r3, [sp, #136]
 5723 0c70 050053E3 		cmp	r3, #5
 5724 0c74 030000DA 		ble	.L228
 207:C:/Renesas/e2studio_2021_01_workspace_RZA2M_ANPR/ANPR_RZA2M_EBK/src/tensorflow_lite/tensorflow/lite/kernels/internal\types.h **** #endif  // TF_LITE_STATIC_MEMORY
 5725              		.loc 4 207 0
 5726 0c78 8C009DE5 		ldr	r0, [sp, #140]
 5727 0c7c 000050E3 		cmp	r0, #0
 5728 0c80 0000000A 		beq	.L228
 5729 0c84 FEFFFFEB 		bl	_ZdaPv
 5730              	.LVL380:
 5731              	.L228:
 5732              	.LBE4502:
 5733              	.LBE4501:
 127:../src/tensorflow_lite/tensorflow/lite/micro/kernels/log_softmax.cc ****     }
 5734              		.loc 1 127 0
 5735 0c88 0000A0E3 		mov	r0, #0
 5736              	.LBE3657:
 5737              	.LBE3656:
 5738              	.LBE3655:
 135:../src/tensorflow_lite/tensorflow/lite/micro/kernels/log_softmax.cc **** 
 5739              		.loc 1 135 0
 5740 0c8c BCD08DE2 		add	sp, sp, #188
 5741              		.cfi_remember_state
 5742              		.cfi_def_cfa_offset 52
 5743              		@ sp needed
 5744 0c90 048BBDEC 		vldm	sp!, {d8-d9}
 5745              		.cfi_restore 80
 5746              		.cfi_restore 81
 5747              		.cfi_restore 82
 5748              		.cfi_restore 83
 5749              		.cfi_def_cfa_offset 36
 5750 0c94 F08FBDE8 		pop	{r4, r5, r6, r7, r8, r9, r10, fp, pc}
 5751              	.LVL381:
 5752              	.L390:
 5753              		.cfi_restore_state
 5754              	.LBB4688:
 5755              	.LBB4685:
 130:../src/tensorflow_lite/tensorflow/lite/micro/kernels/log_softmax.cc ****                          "LOG_SOFTMAX only supports float32, int8, got %s.",
 5756              		.loc 1 130 0
 5757 0c98 144095E5 		ldr	r4, [r5, #20]
 5758              	.LEHB5:
 5759 0c9c FEFFFFEB 		bl	TfLiteTypeGetName
 5760              	.LVL382:
 5761 0ca0 001000E3 		movw	r1, #:lower16:.LC15
 5762 0ca4 0020A0E1 		mov	r2, r0
 5763 0ca8 001040E3 		movt	r1, #:upper16:.LC15
 5764 0cac 0500A0E1 		mov	r0, r5
 5765 0cb0 34FF2FE1 		blx	r4
 5766              	.LVL383:
 133:../src/tensorflow_lite/tensorflow/lite/micro/kernels/log_softmax.cc ****   }
 5767              		.loc 1 133 0
 5768 0cb4 0100A0E3 		mov	r0, #1
 5769              	.LBE4685:
 5770              	.LBE4688:
 135:../src/tensorflow_lite/tensorflow/lite/micro/kernels/log_softmax.cc **** 
 5771              		.loc 1 135 0
 5772 0cb8 BCD08DE2 		add	sp, sp, #188
 5773              		.cfi_remember_state
 5774              		.cfi_def_cfa_offset 52
 5775              		@ sp needed
 5776 0cbc 048BBDEC 		vldm	sp!, {d8-d9}
 5777              		.cfi_restore 82
 5778              		.cfi_restore 83
 5779              		.cfi_restore 80
 5780              		.cfi_restore 81
 5781              		.cfi_def_cfa_offset 36
 5782 0cc0 F08FBDE8 		pop	{r4, r5, r6, r7, r8, r9, r10, fp, pc}
 5783              	.LVL384:
 5784              	.L393:
 5785              		.cfi_restore_state
 5786              	.LBB4689:
 5787              	.LBB4686:
 5788              	.LBB4514:
 5789              	.LBB4503:
 5790              	.LBB4492:
 5791              	.LBB4486:
 5792              	.LBB4480:
 5793              	.LBB4474:
 5794              	.LBB4457:
 5795              	.LBB3785:
 5796              	.LBB3774:
 5797              	.LBB3764:
 5798              	.LBB3754:
 5799              	.LBB3717:
 5800              	.LBB3708:
 5801              	.LBB3704:
 338:C:/Renesas/e2studio_2021_01_workspace_RZA2M_ANPR/ANPR_RZA2M_EBK/src/tensorflow_lite/third_party/gemmlowp/fixedpoint\fixedpoint.h **** }
 5802              		.loc 5 338 0
 5803 0cc4 0201E0E3 		mvn	r0, #-2147483648
 5804              	.LVL385:
 5805 0cc8 F5FDFFEA 		b	.L237
 5806              	.LVL386:
 5807              	.L294:
 5808              	.LBE3704:
 5809              	.LBE3708:
 5810              	.LBE3717:
 5811              	.LBE3754:
 5812              	.LBE3764:
 5813              	.LBE3774:
 5814              	.LBE3785:
 5815              	.LBE4457:
 5816              	.LBB4458:
 5817              	.LBB4454:
 5818              	.LBB4447:
 5819              	.LBB4440:
 5820              	.LBB4432:
 5821              	.LBB4426:
 200:c:\program files (x86)\gnu tools arm embedded\6 2017-q2-update\arm-none-eabi\include\c++\6.3.1\bits\stl_algobase.h **** 	return __b;
 5822              		.loc 9 200 0
 5823 0ccc 7F20A0E3 		mov	r2, #127
 5824 0cd0 CEFFFFEA 		b	.L223
 5825              	.LVL387:
 5826              	.L400:
 5827              	.LBE4426:
 5828              	.LBE4432:
 5829              	.LBB4433:
 5830              	.LBB4403:
 5831              	.LBB4397:
 5832              	.LBB4378:
 338:C:/Renesas/e2studio_2021_01_workspace_RZA2M_ANPR/ANPR_RZA2M_EBK/src/tensorflow_lite/third_party/gemmlowp/fixedpoint\fixedpoint.h **** }
 5833              		.loc 5 338 0
 5834 0cd4 0221E0E3 		mvn	r2, #-2147483648
 5835              	.LVL388:
 5836 0cd8 ADFFFFEA 		b	.L242
 5837              	.LVL389:
 5838              	.L155:
 5839              	.LBE4378:
 5840              	.LBE4397:
 5841              	.LBE4403:
 5842              	.LBE4433:
 5843              	.LBE4440:
 5844              	.LBE4447:
 5845              	.LBE4454:
 5846              	.LBE4458:
 5847              	.LBE4474:
 5848              	.LBE4480:
 5849              	.LBE4486:
 5850              	.LBE4492:
 5851              	.LBE4503:
 5852              	.LBE4514:
 5853              	.LBB4515:
 5854              	.LBB4516:
 5855              	.LBB4517:
 5856              	.LBB4518:
 5857              	.LBB4519:
 5858              	.LBB4520:
 5859              	.LBB4521:
 5860              		.file 10 "c:\\program files (x86)\\gnu tools arm embedded\\6 2017-q2-update\\arm-none-eabi\\includ
   1:c:\program files (x86)\gnu tools arm embedded\6 2017-q2-update\arm-none-eabi\include\c++\6.3.1\cmath **** // -*- C++ -*- C forwarding header.
   2:c:\program files (x86)\gnu tools arm embedded\6 2017-q2-update\arm-none-eabi\include\c++\6.3.1\cmath **** 
   3:c:\program files (x86)\gnu tools arm embedded\6 2017-q2-update\arm-none-eabi\include\c++\6.3.1\cmath **** // Copyright (C) 1997-2016 Free Software Foundation, Inc.
   4:c:\program files (x86)\gnu tools arm embedded\6 2017-q2-update\arm-none-eabi\include\c++\6.3.1\cmath **** //
   5:c:\program files (x86)\gnu tools arm embedded\6 2017-q2-update\arm-none-eabi\include\c++\6.3.1\cmath **** // This file is part of the GNU ISO C++ Library.  This library is free
   6:c:\program files (x86)\gnu tools arm embedded\6 2017-q2-update\arm-none-eabi\include\c++\6.3.1\cmath **** // software; you can redistribute it and/or modify it under the
   7:c:\program files (x86)\gnu tools arm embedded\6 2017-q2-update\arm-none-eabi\include\c++\6.3.1\cmath **** // terms of the GNU General Public License as published by the
   8:c:\program files (x86)\gnu tools arm embedded\6 2017-q2-update\arm-none-eabi\include\c++\6.3.1\cmath **** // Free Software Foundation; either version 3, or (at your option)
   9:c:\program files (x86)\gnu tools arm embedded\6 2017-q2-update\arm-none-eabi\include\c++\6.3.1\cmath **** // any later version.
  10:c:\program files (x86)\gnu tools arm embedded\6 2017-q2-update\arm-none-eabi\include\c++\6.3.1\cmath **** 
  11:c:\program files (x86)\gnu tools arm embedded\6 2017-q2-update\arm-none-eabi\include\c++\6.3.1\cmath **** // This library is distributed in the hope that it will be useful,
  12:c:\program files (x86)\gnu tools arm embedded\6 2017-q2-update\arm-none-eabi\include\c++\6.3.1\cmath **** // but WITHOUT ANY WARRANTY; without even the implied warranty of
  13:c:\program files (x86)\gnu tools arm embedded\6 2017-q2-update\arm-none-eabi\include\c++\6.3.1\cmath **** // MERCHANTABILITY or FITNESS FOR A PARTICULAR PURPOSE.  See the
  14:c:\program files (x86)\gnu tools arm embedded\6 2017-q2-update\arm-none-eabi\include\c++\6.3.1\cmath **** // GNU General Public License for more details.
  15:c:\program files (x86)\gnu tools arm embedded\6 2017-q2-update\arm-none-eabi\include\c++\6.3.1\cmath **** 
  16:c:\program files (x86)\gnu tools arm embedded\6 2017-q2-update\arm-none-eabi\include\c++\6.3.1\cmath **** // Under Section 7 of GPL version 3, you are granted additional
  17:c:\program files (x86)\gnu tools arm embedded\6 2017-q2-update\arm-none-eabi\include\c++\6.3.1\cmath **** // permissions described in the GCC Runtime Library Exception, version
  18:c:\program files (x86)\gnu tools arm embedded\6 2017-q2-update\arm-none-eabi\include\c++\6.3.1\cmath **** // 3.1, as published by the Free Software Foundation.
  19:c:\program files (x86)\gnu tools arm embedded\6 2017-q2-update\arm-none-eabi\include\c++\6.3.1\cmath **** 
  20:c:\program files (x86)\gnu tools arm embedded\6 2017-q2-update\arm-none-eabi\include\c++\6.3.1\cmath **** // You should have received a copy of the GNU General Public License and
  21:c:\program files (x86)\gnu tools arm embedded\6 2017-q2-update\arm-none-eabi\include\c++\6.3.1\cmath **** // a copy of the GCC Runtime Library Exception along with this program;
  22:c:\program files (x86)\gnu tools arm embedded\6 2017-q2-update\arm-none-eabi\include\c++\6.3.1\cmath **** // see the files COPYING3 and COPYING.RUNTIME respectively.  If not, see
  23:c:\program files (x86)\gnu tools arm embedded\6 2017-q2-update\arm-none-eabi\include\c++\6.3.1\cmath **** // <http://www.gnu.org/licenses/>.
  24:c:\program files (x86)\gnu tools arm embedded\6 2017-q2-update\arm-none-eabi\include\c++\6.3.1\cmath **** 
  25:c:\program files (x86)\gnu tools arm embedded\6 2017-q2-update\arm-none-eabi\include\c++\6.3.1\cmath **** /** @file include/cmath
  26:c:\program files (x86)\gnu tools arm embedded\6 2017-q2-update\arm-none-eabi\include\c++\6.3.1\cmath ****  *  This is a Standard C++ Library file.  You should @c \#include this file
  27:c:\program files (x86)\gnu tools arm embedded\6 2017-q2-update\arm-none-eabi\include\c++\6.3.1\cmath ****  *  in your programs, rather than any of the @a *.h implementation files.
  28:c:\program files (x86)\gnu tools arm embedded\6 2017-q2-update\arm-none-eabi\include\c++\6.3.1\cmath ****  *
  29:c:\program files (x86)\gnu tools arm embedded\6 2017-q2-update\arm-none-eabi\include\c++\6.3.1\cmath ****  *  This is the C++ version of the Standard C Library header @c math.h,
  30:c:\program files (x86)\gnu tools arm embedded\6 2017-q2-update\arm-none-eabi\include\c++\6.3.1\cmath ****  *  and its contents are (mostly) the same as that header, but are all
  31:c:\program files (x86)\gnu tools arm embedded\6 2017-q2-update\arm-none-eabi\include\c++\6.3.1\cmath ****  *  contained in the namespace @c std (except for names which are defined
  32:c:\program files (x86)\gnu tools arm embedded\6 2017-q2-update\arm-none-eabi\include\c++\6.3.1\cmath ****  *  as macros in C).
  33:c:\program files (x86)\gnu tools arm embedded\6 2017-q2-update\arm-none-eabi\include\c++\6.3.1\cmath ****  */
  34:c:\program files (x86)\gnu tools arm embedded\6 2017-q2-update\arm-none-eabi\include\c++\6.3.1\cmath **** 
  35:c:\program files (x86)\gnu tools arm embedded\6 2017-q2-update\arm-none-eabi\include\c++\6.3.1\cmath **** //
  36:c:\program files (x86)\gnu tools arm embedded\6 2017-q2-update\arm-none-eabi\include\c++\6.3.1\cmath **** // ISO C++ 14882: 26.5  C library
  37:c:\program files (x86)\gnu tools arm embedded\6 2017-q2-update\arm-none-eabi\include\c++\6.3.1\cmath **** //
  38:c:\program files (x86)\gnu tools arm embedded\6 2017-q2-update\arm-none-eabi\include\c++\6.3.1\cmath **** 
  39:c:\program files (x86)\gnu tools arm embedded\6 2017-q2-update\arm-none-eabi\include\c++\6.3.1\cmath **** #pragma GCC system_header
  40:c:\program files (x86)\gnu tools arm embedded\6 2017-q2-update\arm-none-eabi\include\c++\6.3.1\cmath **** 
  41:c:\program files (x86)\gnu tools arm embedded\6 2017-q2-update\arm-none-eabi\include\c++\6.3.1\cmath **** #include <bits/c++config.h>
  42:c:\program files (x86)\gnu tools arm embedded\6 2017-q2-update\arm-none-eabi\include\c++\6.3.1\cmath **** #include <bits/cpp_type_traits.h>
  43:c:\program files (x86)\gnu tools arm embedded\6 2017-q2-update\arm-none-eabi\include\c++\6.3.1\cmath **** #include <ext/type_traits.h>
  44:c:\program files (x86)\gnu tools arm embedded\6 2017-q2-update\arm-none-eabi\include\c++\6.3.1\cmath **** #define _GLIBCXX_INCLUDE_NEXT_C_HEADERS
  45:c:\program files (x86)\gnu tools arm embedded\6 2017-q2-update\arm-none-eabi\include\c++\6.3.1\cmath **** #include_next <math.h>
  46:c:\program files (x86)\gnu tools arm embedded\6 2017-q2-update\arm-none-eabi\include\c++\6.3.1\cmath **** #undef _GLIBCXX_INCLUDE_NEXT_C_HEADERS
  47:c:\program files (x86)\gnu tools arm embedded\6 2017-q2-update\arm-none-eabi\include\c++\6.3.1\cmath **** 
  48:c:\program files (x86)\gnu tools arm embedded\6 2017-q2-update\arm-none-eabi\include\c++\6.3.1\cmath **** #ifndef _GLIBCXX_CMATH
  49:c:\program files (x86)\gnu tools arm embedded\6 2017-q2-update\arm-none-eabi\include\c++\6.3.1\cmath **** #define _GLIBCXX_CMATH 1
  50:c:\program files (x86)\gnu tools arm embedded\6 2017-q2-update\arm-none-eabi\include\c++\6.3.1\cmath **** 
  51:c:\program files (x86)\gnu tools arm embedded\6 2017-q2-update\arm-none-eabi\include\c++\6.3.1\cmath **** // Get rid of those macros defined in <math.h> in lieu of real functions.
  52:c:\program files (x86)\gnu tools arm embedded\6 2017-q2-update\arm-none-eabi\include\c++\6.3.1\cmath **** #undef abs
  53:c:\program files (x86)\gnu tools arm embedded\6 2017-q2-update\arm-none-eabi\include\c++\6.3.1\cmath **** #undef div
  54:c:\program files (x86)\gnu tools arm embedded\6 2017-q2-update\arm-none-eabi\include\c++\6.3.1\cmath **** #undef acos
  55:c:\program files (x86)\gnu tools arm embedded\6 2017-q2-update\arm-none-eabi\include\c++\6.3.1\cmath **** #undef asin
  56:c:\program files (x86)\gnu tools arm embedded\6 2017-q2-update\arm-none-eabi\include\c++\6.3.1\cmath **** #undef atan
  57:c:\program files (x86)\gnu tools arm embedded\6 2017-q2-update\arm-none-eabi\include\c++\6.3.1\cmath **** #undef atan2
  58:c:\program files (x86)\gnu tools arm embedded\6 2017-q2-update\arm-none-eabi\include\c++\6.3.1\cmath **** #undef ceil
  59:c:\program files (x86)\gnu tools arm embedded\6 2017-q2-update\arm-none-eabi\include\c++\6.3.1\cmath **** #undef cos
  60:c:\program files (x86)\gnu tools arm embedded\6 2017-q2-update\arm-none-eabi\include\c++\6.3.1\cmath **** #undef cosh
  61:c:\program files (x86)\gnu tools arm embedded\6 2017-q2-update\arm-none-eabi\include\c++\6.3.1\cmath **** #undef exp
  62:c:\program files (x86)\gnu tools arm embedded\6 2017-q2-update\arm-none-eabi\include\c++\6.3.1\cmath **** #undef fabs
  63:c:\program files (x86)\gnu tools arm embedded\6 2017-q2-update\arm-none-eabi\include\c++\6.3.1\cmath **** #undef floor
  64:c:\program files (x86)\gnu tools arm embedded\6 2017-q2-update\arm-none-eabi\include\c++\6.3.1\cmath **** #undef fmod
  65:c:\program files (x86)\gnu tools arm embedded\6 2017-q2-update\arm-none-eabi\include\c++\6.3.1\cmath **** #undef frexp
  66:c:\program files (x86)\gnu tools arm embedded\6 2017-q2-update\arm-none-eabi\include\c++\6.3.1\cmath **** #undef ldexp
  67:c:\program files (x86)\gnu tools arm embedded\6 2017-q2-update\arm-none-eabi\include\c++\6.3.1\cmath **** #undef log
  68:c:\program files (x86)\gnu tools arm embedded\6 2017-q2-update\arm-none-eabi\include\c++\6.3.1\cmath **** #undef log10
  69:c:\program files (x86)\gnu tools arm embedded\6 2017-q2-update\arm-none-eabi\include\c++\6.3.1\cmath **** #undef modf
  70:c:\program files (x86)\gnu tools arm embedded\6 2017-q2-update\arm-none-eabi\include\c++\6.3.1\cmath **** #undef pow
  71:c:\program files (x86)\gnu tools arm embedded\6 2017-q2-update\arm-none-eabi\include\c++\6.3.1\cmath **** #undef sin
  72:c:\program files (x86)\gnu tools arm embedded\6 2017-q2-update\arm-none-eabi\include\c++\6.3.1\cmath **** #undef sinh
  73:c:\program files (x86)\gnu tools arm embedded\6 2017-q2-update\arm-none-eabi\include\c++\6.3.1\cmath **** #undef sqrt
  74:c:\program files (x86)\gnu tools arm embedded\6 2017-q2-update\arm-none-eabi\include\c++\6.3.1\cmath **** #undef tan
  75:c:\program files (x86)\gnu tools arm embedded\6 2017-q2-update\arm-none-eabi\include\c++\6.3.1\cmath **** #undef tanh
  76:c:\program files (x86)\gnu tools arm embedded\6 2017-q2-update\arm-none-eabi\include\c++\6.3.1\cmath **** 
  77:c:\program files (x86)\gnu tools arm embedded\6 2017-q2-update\arm-none-eabi\include\c++\6.3.1\cmath **** extern "C++"
  78:c:\program files (x86)\gnu tools arm embedded\6 2017-q2-update\arm-none-eabi\include\c++\6.3.1\cmath **** {
  79:c:\program files (x86)\gnu tools arm embedded\6 2017-q2-update\arm-none-eabi\include\c++\6.3.1\cmath **** namespace std _GLIBCXX_VISIBILITY(default)
  80:c:\program files (x86)\gnu tools arm embedded\6 2017-q2-update\arm-none-eabi\include\c++\6.3.1\cmath **** {
  81:c:\program files (x86)\gnu tools arm embedded\6 2017-q2-update\arm-none-eabi\include\c++\6.3.1\cmath **** _GLIBCXX_BEGIN_NAMESPACE_VERSION
  82:c:\program files (x86)\gnu tools arm embedded\6 2017-q2-update\arm-none-eabi\include\c++\6.3.1\cmath **** 
  83:c:\program files (x86)\gnu tools arm embedded\6 2017-q2-update\arm-none-eabi\include\c++\6.3.1\cmath **** #ifndef __CORRECT_ISO_CPP_MATH_H_PROTO
  84:c:\program files (x86)\gnu tools arm embedded\6 2017-q2-update\arm-none-eabi\include\c++\6.3.1\cmath ****   inline _GLIBCXX_CONSTEXPR double
  85:c:\program files (x86)\gnu tools arm embedded\6 2017-q2-update\arm-none-eabi\include\c++\6.3.1\cmath ****   abs(double __x)
  86:c:\program files (x86)\gnu tools arm embedded\6 2017-q2-update\arm-none-eabi\include\c++\6.3.1\cmath ****   { return __builtin_fabs(__x); }
  87:c:\program files (x86)\gnu tools arm embedded\6 2017-q2-update\arm-none-eabi\include\c++\6.3.1\cmath **** #endif
  88:c:\program files (x86)\gnu tools arm embedded\6 2017-q2-update\arm-none-eabi\include\c++\6.3.1\cmath **** 
  89:c:\program files (x86)\gnu tools arm embedded\6 2017-q2-update\arm-none-eabi\include\c++\6.3.1\cmath **** #ifndef __CORRECT_ISO_CPP_MATH_H_PROTO
  90:c:\program files (x86)\gnu tools arm embedded\6 2017-q2-update\arm-none-eabi\include\c++\6.3.1\cmath ****   inline _GLIBCXX_CONSTEXPR float
  91:c:\program files (x86)\gnu tools arm embedded\6 2017-q2-update\arm-none-eabi\include\c++\6.3.1\cmath ****   abs(float __x)
  92:c:\program files (x86)\gnu tools arm embedded\6 2017-q2-update\arm-none-eabi\include\c++\6.3.1\cmath ****   { return __builtin_fabsf(__x); }
  93:c:\program files (x86)\gnu tools arm embedded\6 2017-q2-update\arm-none-eabi\include\c++\6.3.1\cmath **** 
  94:c:\program files (x86)\gnu tools arm embedded\6 2017-q2-update\arm-none-eabi\include\c++\6.3.1\cmath ****   inline _GLIBCXX_CONSTEXPR long double
  95:c:\program files (x86)\gnu tools arm embedded\6 2017-q2-update\arm-none-eabi\include\c++\6.3.1\cmath ****   abs(long double __x)
  96:c:\program files (x86)\gnu tools arm embedded\6 2017-q2-update\arm-none-eabi\include\c++\6.3.1\cmath ****   { return __builtin_fabsl(__x); }
  97:c:\program files (x86)\gnu tools arm embedded\6 2017-q2-update\arm-none-eabi\include\c++\6.3.1\cmath **** #endif
  98:c:\program files (x86)\gnu tools arm embedded\6 2017-q2-update\arm-none-eabi\include\c++\6.3.1\cmath **** 
  99:c:\program files (x86)\gnu tools arm embedded\6 2017-q2-update\arm-none-eabi\include\c++\6.3.1\cmath ****   template<typename _Tp>
 100:c:\program files (x86)\gnu tools arm embedded\6 2017-q2-update\arm-none-eabi\include\c++\6.3.1\cmath ****     inline _GLIBCXX_CONSTEXPR
 101:c:\program files (x86)\gnu tools arm embedded\6 2017-q2-update\arm-none-eabi\include\c++\6.3.1\cmath ****     typename __gnu_cxx::__enable_if<__is_integer<_Tp>::__value,
 102:c:\program files (x86)\gnu tools arm embedded\6 2017-q2-update\arm-none-eabi\include\c++\6.3.1\cmath ****                                     double>::__type
 103:c:\program files (x86)\gnu tools arm embedded\6 2017-q2-update\arm-none-eabi\include\c++\6.3.1\cmath ****     abs(_Tp __x)
 104:c:\program files (x86)\gnu tools arm embedded\6 2017-q2-update\arm-none-eabi\include\c++\6.3.1\cmath ****     { return __builtin_fabs(__x); }
 105:c:\program files (x86)\gnu tools arm embedded\6 2017-q2-update\arm-none-eabi\include\c++\6.3.1\cmath **** 
 106:c:\program files (x86)\gnu tools arm embedded\6 2017-q2-update\arm-none-eabi\include\c++\6.3.1\cmath ****   using ::acos;
 107:c:\program files (x86)\gnu tools arm embedded\6 2017-q2-update\arm-none-eabi\include\c++\6.3.1\cmath **** 
 108:c:\program files (x86)\gnu tools arm embedded\6 2017-q2-update\arm-none-eabi\include\c++\6.3.1\cmath **** #ifndef __CORRECT_ISO_CPP_MATH_H_PROTO
 109:c:\program files (x86)\gnu tools arm embedded\6 2017-q2-update\arm-none-eabi\include\c++\6.3.1\cmath ****   inline _GLIBCXX_CONSTEXPR float
 110:c:\program files (x86)\gnu tools arm embedded\6 2017-q2-update\arm-none-eabi\include\c++\6.3.1\cmath ****   acos(float __x)
 111:c:\program files (x86)\gnu tools arm embedded\6 2017-q2-update\arm-none-eabi\include\c++\6.3.1\cmath ****   { return __builtin_acosf(__x); }
 112:c:\program files (x86)\gnu tools arm embedded\6 2017-q2-update\arm-none-eabi\include\c++\6.3.1\cmath **** 
 113:c:\program files (x86)\gnu tools arm embedded\6 2017-q2-update\arm-none-eabi\include\c++\6.3.1\cmath ****   inline _GLIBCXX_CONSTEXPR long double
 114:c:\program files (x86)\gnu tools arm embedded\6 2017-q2-update\arm-none-eabi\include\c++\6.3.1\cmath ****   acos(long double __x)
 115:c:\program files (x86)\gnu tools arm embedded\6 2017-q2-update\arm-none-eabi\include\c++\6.3.1\cmath ****   { return __builtin_acosl(__x); }
 116:c:\program files (x86)\gnu tools arm embedded\6 2017-q2-update\arm-none-eabi\include\c++\6.3.1\cmath **** #endif
 117:c:\program files (x86)\gnu tools arm embedded\6 2017-q2-update\arm-none-eabi\include\c++\6.3.1\cmath **** 
 118:c:\program files (x86)\gnu tools arm embedded\6 2017-q2-update\arm-none-eabi\include\c++\6.3.1\cmath ****   template<typename _Tp>
 119:c:\program files (x86)\gnu tools arm embedded\6 2017-q2-update\arm-none-eabi\include\c++\6.3.1\cmath ****     inline _GLIBCXX_CONSTEXPR
 120:c:\program files (x86)\gnu tools arm embedded\6 2017-q2-update\arm-none-eabi\include\c++\6.3.1\cmath ****     typename __gnu_cxx::__enable_if<__is_integer<_Tp>::__value, 
 121:c:\program files (x86)\gnu tools arm embedded\6 2017-q2-update\arm-none-eabi\include\c++\6.3.1\cmath ****                                     double>::__type
 122:c:\program files (x86)\gnu tools arm embedded\6 2017-q2-update\arm-none-eabi\include\c++\6.3.1\cmath ****     acos(_Tp __x)
 123:c:\program files (x86)\gnu tools arm embedded\6 2017-q2-update\arm-none-eabi\include\c++\6.3.1\cmath ****     { return __builtin_acos(__x); }
 124:c:\program files (x86)\gnu tools arm embedded\6 2017-q2-update\arm-none-eabi\include\c++\6.3.1\cmath **** 
 125:c:\program files (x86)\gnu tools arm embedded\6 2017-q2-update\arm-none-eabi\include\c++\6.3.1\cmath ****   using ::asin;
 126:c:\program files (x86)\gnu tools arm embedded\6 2017-q2-update\arm-none-eabi\include\c++\6.3.1\cmath **** 
 127:c:\program files (x86)\gnu tools arm embedded\6 2017-q2-update\arm-none-eabi\include\c++\6.3.1\cmath **** #ifndef __CORRECT_ISO_CPP_MATH_H_PROTO
 128:c:\program files (x86)\gnu tools arm embedded\6 2017-q2-update\arm-none-eabi\include\c++\6.3.1\cmath ****   inline _GLIBCXX_CONSTEXPR float
 129:c:\program files (x86)\gnu tools arm embedded\6 2017-q2-update\arm-none-eabi\include\c++\6.3.1\cmath ****   asin(float __x)
 130:c:\program files (x86)\gnu tools arm embedded\6 2017-q2-update\arm-none-eabi\include\c++\6.3.1\cmath ****   { return __builtin_asinf(__x); }
 131:c:\program files (x86)\gnu tools arm embedded\6 2017-q2-update\arm-none-eabi\include\c++\6.3.1\cmath **** 
 132:c:\program files (x86)\gnu tools arm embedded\6 2017-q2-update\arm-none-eabi\include\c++\6.3.1\cmath ****   inline _GLIBCXX_CONSTEXPR long double
 133:c:\program files (x86)\gnu tools arm embedded\6 2017-q2-update\arm-none-eabi\include\c++\6.3.1\cmath ****   asin(long double __x)
 134:c:\program files (x86)\gnu tools arm embedded\6 2017-q2-update\arm-none-eabi\include\c++\6.3.1\cmath ****   { return __builtin_asinl(__x); }
 135:c:\program files (x86)\gnu tools arm embedded\6 2017-q2-update\arm-none-eabi\include\c++\6.3.1\cmath **** #endif
 136:c:\program files (x86)\gnu tools arm embedded\6 2017-q2-update\arm-none-eabi\include\c++\6.3.1\cmath **** 
 137:c:\program files (x86)\gnu tools arm embedded\6 2017-q2-update\arm-none-eabi\include\c++\6.3.1\cmath ****   template<typename _Tp>
 138:c:\program files (x86)\gnu tools arm embedded\6 2017-q2-update\arm-none-eabi\include\c++\6.3.1\cmath ****     inline _GLIBCXX_CONSTEXPR
 139:c:\program files (x86)\gnu tools arm embedded\6 2017-q2-update\arm-none-eabi\include\c++\6.3.1\cmath ****     typename __gnu_cxx::__enable_if<__is_integer<_Tp>::__value,
 140:c:\program files (x86)\gnu tools arm embedded\6 2017-q2-update\arm-none-eabi\include\c++\6.3.1\cmath ****                                     double>::__type
 141:c:\program files (x86)\gnu tools arm embedded\6 2017-q2-update\arm-none-eabi\include\c++\6.3.1\cmath ****     asin(_Tp __x)
 142:c:\program files (x86)\gnu tools arm embedded\6 2017-q2-update\arm-none-eabi\include\c++\6.3.1\cmath ****     { return __builtin_asin(__x); }
 143:c:\program files (x86)\gnu tools arm embedded\6 2017-q2-update\arm-none-eabi\include\c++\6.3.1\cmath **** 
 144:c:\program files (x86)\gnu tools arm embedded\6 2017-q2-update\arm-none-eabi\include\c++\6.3.1\cmath ****   using ::atan;
 145:c:\program files (x86)\gnu tools arm embedded\6 2017-q2-update\arm-none-eabi\include\c++\6.3.1\cmath **** 
 146:c:\program files (x86)\gnu tools arm embedded\6 2017-q2-update\arm-none-eabi\include\c++\6.3.1\cmath **** #ifndef __CORRECT_ISO_CPP_MATH_H_PROTO
 147:c:\program files (x86)\gnu tools arm embedded\6 2017-q2-update\arm-none-eabi\include\c++\6.3.1\cmath ****   inline _GLIBCXX_CONSTEXPR float
 148:c:\program files (x86)\gnu tools arm embedded\6 2017-q2-update\arm-none-eabi\include\c++\6.3.1\cmath ****   atan(float __x)
 149:c:\program files (x86)\gnu tools arm embedded\6 2017-q2-update\arm-none-eabi\include\c++\6.3.1\cmath ****   { return __builtin_atanf(__x); }
 150:c:\program files (x86)\gnu tools arm embedded\6 2017-q2-update\arm-none-eabi\include\c++\6.3.1\cmath **** 
 151:c:\program files (x86)\gnu tools arm embedded\6 2017-q2-update\arm-none-eabi\include\c++\6.3.1\cmath ****   inline _GLIBCXX_CONSTEXPR long double
 152:c:\program files (x86)\gnu tools arm embedded\6 2017-q2-update\arm-none-eabi\include\c++\6.3.1\cmath ****   atan(long double __x)
 153:c:\program files (x86)\gnu tools arm embedded\6 2017-q2-update\arm-none-eabi\include\c++\6.3.1\cmath ****   { return __builtin_atanl(__x); }
 154:c:\program files (x86)\gnu tools arm embedded\6 2017-q2-update\arm-none-eabi\include\c++\6.3.1\cmath **** #endif
 155:c:\program files (x86)\gnu tools arm embedded\6 2017-q2-update\arm-none-eabi\include\c++\6.3.1\cmath **** 
 156:c:\program files (x86)\gnu tools arm embedded\6 2017-q2-update\arm-none-eabi\include\c++\6.3.1\cmath ****   template<typename _Tp>
 157:c:\program files (x86)\gnu tools arm embedded\6 2017-q2-update\arm-none-eabi\include\c++\6.3.1\cmath ****     inline _GLIBCXX_CONSTEXPR
 158:c:\program files (x86)\gnu tools arm embedded\6 2017-q2-update\arm-none-eabi\include\c++\6.3.1\cmath ****     typename __gnu_cxx::__enable_if<__is_integer<_Tp>::__value,
 159:c:\program files (x86)\gnu tools arm embedded\6 2017-q2-update\arm-none-eabi\include\c++\6.3.1\cmath ****                                     double>::__type
 160:c:\program files (x86)\gnu tools arm embedded\6 2017-q2-update\arm-none-eabi\include\c++\6.3.1\cmath ****     atan(_Tp __x)
 161:c:\program files (x86)\gnu tools arm embedded\6 2017-q2-update\arm-none-eabi\include\c++\6.3.1\cmath ****     { return __builtin_atan(__x); }
 162:c:\program files (x86)\gnu tools arm embedded\6 2017-q2-update\arm-none-eabi\include\c++\6.3.1\cmath **** 
 163:c:\program files (x86)\gnu tools arm embedded\6 2017-q2-update\arm-none-eabi\include\c++\6.3.1\cmath ****   using ::atan2;
 164:c:\program files (x86)\gnu tools arm embedded\6 2017-q2-update\arm-none-eabi\include\c++\6.3.1\cmath **** 
 165:c:\program files (x86)\gnu tools arm embedded\6 2017-q2-update\arm-none-eabi\include\c++\6.3.1\cmath **** #ifndef __CORRECT_ISO_CPP_MATH_H_PROTO
 166:c:\program files (x86)\gnu tools arm embedded\6 2017-q2-update\arm-none-eabi\include\c++\6.3.1\cmath ****   inline _GLIBCXX_CONSTEXPR float
 167:c:\program files (x86)\gnu tools arm embedded\6 2017-q2-update\arm-none-eabi\include\c++\6.3.1\cmath ****   atan2(float __y, float __x)
 168:c:\program files (x86)\gnu tools arm embedded\6 2017-q2-update\arm-none-eabi\include\c++\6.3.1\cmath ****   { return __builtin_atan2f(__y, __x); }
 169:c:\program files (x86)\gnu tools arm embedded\6 2017-q2-update\arm-none-eabi\include\c++\6.3.1\cmath **** 
 170:c:\program files (x86)\gnu tools arm embedded\6 2017-q2-update\arm-none-eabi\include\c++\6.3.1\cmath ****   inline _GLIBCXX_CONSTEXPR long double
 171:c:\program files (x86)\gnu tools arm embedded\6 2017-q2-update\arm-none-eabi\include\c++\6.3.1\cmath ****   atan2(long double __y, long double __x)
 172:c:\program files (x86)\gnu tools arm embedded\6 2017-q2-update\arm-none-eabi\include\c++\6.3.1\cmath ****   { return __builtin_atan2l(__y, __x); }
 173:c:\program files (x86)\gnu tools arm embedded\6 2017-q2-update\arm-none-eabi\include\c++\6.3.1\cmath **** #endif
 174:c:\program files (x86)\gnu tools arm embedded\6 2017-q2-update\arm-none-eabi\include\c++\6.3.1\cmath **** 
 175:c:\program files (x86)\gnu tools arm embedded\6 2017-q2-update\arm-none-eabi\include\c++\6.3.1\cmath ****   template<typename _Tp, typename _Up>
 176:c:\program files (x86)\gnu tools arm embedded\6 2017-q2-update\arm-none-eabi\include\c++\6.3.1\cmath ****     inline _GLIBCXX_CONSTEXPR
 177:c:\program files (x86)\gnu tools arm embedded\6 2017-q2-update\arm-none-eabi\include\c++\6.3.1\cmath ****     typename __gnu_cxx::__promote_2<_Tp, _Up>::__type
 178:c:\program files (x86)\gnu tools arm embedded\6 2017-q2-update\arm-none-eabi\include\c++\6.3.1\cmath ****     atan2(_Tp __y, _Up __x)
 179:c:\program files (x86)\gnu tools arm embedded\6 2017-q2-update\arm-none-eabi\include\c++\6.3.1\cmath ****     {
 180:c:\program files (x86)\gnu tools arm embedded\6 2017-q2-update\arm-none-eabi\include\c++\6.3.1\cmath ****       typedef typename __gnu_cxx::__promote_2<_Tp, _Up>::__type __type;
 181:c:\program files (x86)\gnu tools arm embedded\6 2017-q2-update\arm-none-eabi\include\c++\6.3.1\cmath ****       return atan2(__type(__y), __type(__x));
 182:c:\program files (x86)\gnu tools arm embedded\6 2017-q2-update\arm-none-eabi\include\c++\6.3.1\cmath ****     }
 183:c:\program files (x86)\gnu tools arm embedded\6 2017-q2-update\arm-none-eabi\include\c++\6.3.1\cmath **** 
 184:c:\program files (x86)\gnu tools arm embedded\6 2017-q2-update\arm-none-eabi\include\c++\6.3.1\cmath ****   using ::ceil;
 185:c:\program files (x86)\gnu tools arm embedded\6 2017-q2-update\arm-none-eabi\include\c++\6.3.1\cmath **** 
 186:c:\program files (x86)\gnu tools arm embedded\6 2017-q2-update\arm-none-eabi\include\c++\6.3.1\cmath **** #ifndef __CORRECT_ISO_CPP_MATH_H_PROTO
 187:c:\program files (x86)\gnu tools arm embedded\6 2017-q2-update\arm-none-eabi\include\c++\6.3.1\cmath ****   inline _GLIBCXX_CONSTEXPR float
 188:c:\program files (x86)\gnu tools arm embedded\6 2017-q2-update\arm-none-eabi\include\c++\6.3.1\cmath ****   ceil(float __x)
 189:c:\program files (x86)\gnu tools arm embedded\6 2017-q2-update\arm-none-eabi\include\c++\6.3.1\cmath ****   { return __builtin_ceilf(__x); }
 190:c:\program files (x86)\gnu tools arm embedded\6 2017-q2-update\arm-none-eabi\include\c++\6.3.1\cmath **** 
 191:c:\program files (x86)\gnu tools arm embedded\6 2017-q2-update\arm-none-eabi\include\c++\6.3.1\cmath ****   inline _GLIBCXX_CONSTEXPR long double
 192:c:\program files (x86)\gnu tools arm embedded\6 2017-q2-update\arm-none-eabi\include\c++\6.3.1\cmath ****   ceil(long double __x)
 193:c:\program files (x86)\gnu tools arm embedded\6 2017-q2-update\arm-none-eabi\include\c++\6.3.1\cmath ****   { return __builtin_ceill(__x); }
 194:c:\program files (x86)\gnu tools arm embedded\6 2017-q2-update\arm-none-eabi\include\c++\6.3.1\cmath **** #endif
 195:c:\program files (x86)\gnu tools arm embedded\6 2017-q2-update\arm-none-eabi\include\c++\6.3.1\cmath **** 
 196:c:\program files (x86)\gnu tools arm embedded\6 2017-q2-update\arm-none-eabi\include\c++\6.3.1\cmath ****   template<typename _Tp>
 197:c:\program files (x86)\gnu tools arm embedded\6 2017-q2-update\arm-none-eabi\include\c++\6.3.1\cmath ****     inline _GLIBCXX_CONSTEXPR
 198:c:\program files (x86)\gnu tools arm embedded\6 2017-q2-update\arm-none-eabi\include\c++\6.3.1\cmath ****     typename __gnu_cxx::__enable_if<__is_integer<_Tp>::__value, 
 199:c:\program files (x86)\gnu tools arm embedded\6 2017-q2-update\arm-none-eabi\include\c++\6.3.1\cmath ****                                     double>::__type
 200:c:\program files (x86)\gnu tools arm embedded\6 2017-q2-update\arm-none-eabi\include\c++\6.3.1\cmath ****     ceil(_Tp __x)
 201:c:\program files (x86)\gnu tools arm embedded\6 2017-q2-update\arm-none-eabi\include\c++\6.3.1\cmath ****     { return __builtin_ceil(__x); }
 202:c:\program files (x86)\gnu tools arm embedded\6 2017-q2-update\arm-none-eabi\include\c++\6.3.1\cmath **** 
 203:c:\program files (x86)\gnu tools arm embedded\6 2017-q2-update\arm-none-eabi\include\c++\6.3.1\cmath ****   using ::cos;
 204:c:\program files (x86)\gnu tools arm embedded\6 2017-q2-update\arm-none-eabi\include\c++\6.3.1\cmath **** 
 205:c:\program files (x86)\gnu tools arm embedded\6 2017-q2-update\arm-none-eabi\include\c++\6.3.1\cmath **** #ifndef __CORRECT_ISO_CPP_MATH_H_PROTO
 206:c:\program files (x86)\gnu tools arm embedded\6 2017-q2-update\arm-none-eabi\include\c++\6.3.1\cmath ****   inline _GLIBCXX_CONSTEXPR float
 207:c:\program files (x86)\gnu tools arm embedded\6 2017-q2-update\arm-none-eabi\include\c++\6.3.1\cmath ****   cos(float __x)
 208:c:\program files (x86)\gnu tools arm embedded\6 2017-q2-update\arm-none-eabi\include\c++\6.3.1\cmath ****   { return __builtin_cosf(__x); }
 209:c:\program files (x86)\gnu tools arm embedded\6 2017-q2-update\arm-none-eabi\include\c++\6.3.1\cmath **** 
 210:c:\program files (x86)\gnu tools arm embedded\6 2017-q2-update\arm-none-eabi\include\c++\6.3.1\cmath ****   inline _GLIBCXX_CONSTEXPR long double
 211:c:\program files (x86)\gnu tools arm embedded\6 2017-q2-update\arm-none-eabi\include\c++\6.3.1\cmath ****   cos(long double __x)
 212:c:\program files (x86)\gnu tools arm embedded\6 2017-q2-update\arm-none-eabi\include\c++\6.3.1\cmath ****   { return __builtin_cosl(__x); }
 213:c:\program files (x86)\gnu tools arm embedded\6 2017-q2-update\arm-none-eabi\include\c++\6.3.1\cmath **** #endif
 214:c:\program files (x86)\gnu tools arm embedded\6 2017-q2-update\arm-none-eabi\include\c++\6.3.1\cmath **** 
 215:c:\program files (x86)\gnu tools arm embedded\6 2017-q2-update\arm-none-eabi\include\c++\6.3.1\cmath ****   template<typename _Tp>
 216:c:\program files (x86)\gnu tools arm embedded\6 2017-q2-update\arm-none-eabi\include\c++\6.3.1\cmath ****     inline _GLIBCXX_CONSTEXPR
 217:c:\program files (x86)\gnu tools arm embedded\6 2017-q2-update\arm-none-eabi\include\c++\6.3.1\cmath ****     typename __gnu_cxx::__enable_if<__is_integer<_Tp>::__value,
 218:c:\program files (x86)\gnu tools arm embedded\6 2017-q2-update\arm-none-eabi\include\c++\6.3.1\cmath ****                                     double>::__type
 219:c:\program files (x86)\gnu tools arm embedded\6 2017-q2-update\arm-none-eabi\include\c++\6.3.1\cmath ****     cos(_Tp __x)
 220:c:\program files (x86)\gnu tools arm embedded\6 2017-q2-update\arm-none-eabi\include\c++\6.3.1\cmath ****     { return __builtin_cos(__x); }
 221:c:\program files (x86)\gnu tools arm embedded\6 2017-q2-update\arm-none-eabi\include\c++\6.3.1\cmath **** 
 222:c:\program files (x86)\gnu tools arm embedded\6 2017-q2-update\arm-none-eabi\include\c++\6.3.1\cmath ****   using ::cosh;
 223:c:\program files (x86)\gnu tools arm embedded\6 2017-q2-update\arm-none-eabi\include\c++\6.3.1\cmath **** 
 224:c:\program files (x86)\gnu tools arm embedded\6 2017-q2-update\arm-none-eabi\include\c++\6.3.1\cmath **** #ifndef __CORRECT_ISO_CPP_MATH_H_PROTO
 225:c:\program files (x86)\gnu tools arm embedded\6 2017-q2-update\arm-none-eabi\include\c++\6.3.1\cmath ****   inline _GLIBCXX_CONSTEXPR float
 226:c:\program files (x86)\gnu tools arm embedded\6 2017-q2-update\arm-none-eabi\include\c++\6.3.1\cmath ****   cosh(float __x)
 227:c:\program files (x86)\gnu tools arm embedded\6 2017-q2-update\arm-none-eabi\include\c++\6.3.1\cmath ****   { return __builtin_coshf(__x); }
 228:c:\program files (x86)\gnu tools arm embedded\6 2017-q2-update\arm-none-eabi\include\c++\6.3.1\cmath **** 
 229:c:\program files (x86)\gnu tools arm embedded\6 2017-q2-update\arm-none-eabi\include\c++\6.3.1\cmath ****   inline _GLIBCXX_CONSTEXPR long double
 230:c:\program files (x86)\gnu tools arm embedded\6 2017-q2-update\arm-none-eabi\include\c++\6.3.1\cmath ****   cosh(long double __x)
 231:c:\program files (x86)\gnu tools arm embedded\6 2017-q2-update\arm-none-eabi\include\c++\6.3.1\cmath ****   { return __builtin_coshl(__x); }
 232:c:\program files (x86)\gnu tools arm embedded\6 2017-q2-update\arm-none-eabi\include\c++\6.3.1\cmath **** #endif
 233:c:\program files (x86)\gnu tools arm embedded\6 2017-q2-update\arm-none-eabi\include\c++\6.3.1\cmath **** 
 234:c:\program files (x86)\gnu tools arm embedded\6 2017-q2-update\arm-none-eabi\include\c++\6.3.1\cmath ****   template<typename _Tp>
 235:c:\program files (x86)\gnu tools arm embedded\6 2017-q2-update\arm-none-eabi\include\c++\6.3.1\cmath ****     inline _GLIBCXX_CONSTEXPR
 236:c:\program files (x86)\gnu tools arm embedded\6 2017-q2-update\arm-none-eabi\include\c++\6.3.1\cmath ****     typename __gnu_cxx::__enable_if<__is_integer<_Tp>::__value,
 237:c:\program files (x86)\gnu tools arm embedded\6 2017-q2-update\arm-none-eabi\include\c++\6.3.1\cmath ****                                     double>::__type
 238:c:\program files (x86)\gnu tools arm embedded\6 2017-q2-update\arm-none-eabi\include\c++\6.3.1\cmath ****     cosh(_Tp __x)
 239:c:\program files (x86)\gnu tools arm embedded\6 2017-q2-update\arm-none-eabi\include\c++\6.3.1\cmath ****     { return __builtin_cosh(__x); }
 240:c:\program files (x86)\gnu tools arm embedded\6 2017-q2-update\arm-none-eabi\include\c++\6.3.1\cmath **** 
 241:c:\program files (x86)\gnu tools arm embedded\6 2017-q2-update\arm-none-eabi\include\c++\6.3.1\cmath ****   using ::exp;
 242:c:\program files (x86)\gnu tools arm embedded\6 2017-q2-update\arm-none-eabi\include\c++\6.3.1\cmath **** 
 243:c:\program files (x86)\gnu tools arm embedded\6 2017-q2-update\arm-none-eabi\include\c++\6.3.1\cmath **** #ifndef __CORRECT_ISO_CPP_MATH_H_PROTO
 244:c:\program files (x86)\gnu tools arm embedded\6 2017-q2-update\arm-none-eabi\include\c++\6.3.1\cmath ****   inline _GLIBCXX_CONSTEXPR float
 245:c:\program files (x86)\gnu tools arm embedded\6 2017-q2-update\arm-none-eabi\include\c++\6.3.1\cmath ****   exp(float __x)
 246:c:\program files (x86)\gnu tools arm embedded\6 2017-q2-update\arm-none-eabi\include\c++\6.3.1\cmath ****   { return __builtin_expf(__x); }
 247:c:\program files (x86)\gnu tools arm embedded\6 2017-q2-update\arm-none-eabi\include\c++\6.3.1\cmath **** 
 248:c:\program files (x86)\gnu tools arm embedded\6 2017-q2-update\arm-none-eabi\include\c++\6.3.1\cmath ****   inline _GLIBCXX_CONSTEXPR long double
 249:c:\program files (x86)\gnu tools arm embedded\6 2017-q2-update\arm-none-eabi\include\c++\6.3.1\cmath ****   exp(long double __x)
 250:c:\program files (x86)\gnu tools arm embedded\6 2017-q2-update\arm-none-eabi\include\c++\6.3.1\cmath ****   { return __builtin_expl(__x); }
 251:c:\program files (x86)\gnu tools arm embedded\6 2017-q2-update\arm-none-eabi\include\c++\6.3.1\cmath **** #endif
 252:c:\program files (x86)\gnu tools arm embedded\6 2017-q2-update\arm-none-eabi\include\c++\6.3.1\cmath **** 
 253:c:\program files (x86)\gnu tools arm embedded\6 2017-q2-update\arm-none-eabi\include\c++\6.3.1\cmath ****   template<typename _Tp>
 254:c:\program files (x86)\gnu tools arm embedded\6 2017-q2-update\arm-none-eabi\include\c++\6.3.1\cmath ****     inline _GLIBCXX_CONSTEXPR
 255:c:\program files (x86)\gnu tools arm embedded\6 2017-q2-update\arm-none-eabi\include\c++\6.3.1\cmath ****     typename __gnu_cxx::__enable_if<__is_integer<_Tp>::__value,
 256:c:\program files (x86)\gnu tools arm embedded\6 2017-q2-update\arm-none-eabi\include\c++\6.3.1\cmath ****                                     double>::__type
 257:c:\program files (x86)\gnu tools arm embedded\6 2017-q2-update\arm-none-eabi\include\c++\6.3.1\cmath ****     exp(_Tp __x)
 258:c:\program files (x86)\gnu tools arm embedded\6 2017-q2-update\arm-none-eabi\include\c++\6.3.1\cmath ****     { return __builtin_exp(__x); }
 259:c:\program files (x86)\gnu tools arm embedded\6 2017-q2-update\arm-none-eabi\include\c++\6.3.1\cmath **** 
 260:c:\program files (x86)\gnu tools arm embedded\6 2017-q2-update\arm-none-eabi\include\c++\6.3.1\cmath ****   using ::fabs;
 261:c:\program files (x86)\gnu tools arm embedded\6 2017-q2-update\arm-none-eabi\include\c++\6.3.1\cmath **** 
 262:c:\program files (x86)\gnu tools arm embedded\6 2017-q2-update\arm-none-eabi\include\c++\6.3.1\cmath **** #ifndef __CORRECT_ISO_CPP_MATH_H_PROTO
 263:c:\program files (x86)\gnu tools arm embedded\6 2017-q2-update\arm-none-eabi\include\c++\6.3.1\cmath ****   inline _GLIBCXX_CONSTEXPR float
 264:c:\program files (x86)\gnu tools arm embedded\6 2017-q2-update\arm-none-eabi\include\c++\6.3.1\cmath ****   fabs(float __x)
 265:c:\program files (x86)\gnu tools arm embedded\6 2017-q2-update\arm-none-eabi\include\c++\6.3.1\cmath ****   { return __builtin_fabsf(__x); }
 266:c:\program files (x86)\gnu tools arm embedded\6 2017-q2-update\arm-none-eabi\include\c++\6.3.1\cmath **** 
 267:c:\program files (x86)\gnu tools arm embedded\6 2017-q2-update\arm-none-eabi\include\c++\6.3.1\cmath ****   inline _GLIBCXX_CONSTEXPR long double
 268:c:\program files (x86)\gnu tools arm embedded\6 2017-q2-update\arm-none-eabi\include\c++\6.3.1\cmath ****   fabs(long double __x)
 269:c:\program files (x86)\gnu tools arm embedded\6 2017-q2-update\arm-none-eabi\include\c++\6.3.1\cmath ****   { return __builtin_fabsl(__x); }
 270:c:\program files (x86)\gnu tools arm embedded\6 2017-q2-update\arm-none-eabi\include\c++\6.3.1\cmath **** #endif
 271:c:\program files (x86)\gnu tools arm embedded\6 2017-q2-update\arm-none-eabi\include\c++\6.3.1\cmath **** 
 272:c:\program files (x86)\gnu tools arm embedded\6 2017-q2-update\arm-none-eabi\include\c++\6.3.1\cmath ****   template<typename _Tp>
 273:c:\program files (x86)\gnu tools arm embedded\6 2017-q2-update\arm-none-eabi\include\c++\6.3.1\cmath ****     inline _GLIBCXX_CONSTEXPR
 274:c:\program files (x86)\gnu tools arm embedded\6 2017-q2-update\arm-none-eabi\include\c++\6.3.1\cmath ****     typename __gnu_cxx::__enable_if<__is_integer<_Tp>::__value,
 275:c:\program files (x86)\gnu tools arm embedded\6 2017-q2-update\arm-none-eabi\include\c++\6.3.1\cmath ****                                     double>::__type
 276:c:\program files (x86)\gnu tools arm embedded\6 2017-q2-update\arm-none-eabi\include\c++\6.3.1\cmath ****     fabs(_Tp __x)
 277:c:\program files (x86)\gnu tools arm embedded\6 2017-q2-update\arm-none-eabi\include\c++\6.3.1\cmath ****     { return __builtin_fabs(__x); }
 278:c:\program files (x86)\gnu tools arm embedded\6 2017-q2-update\arm-none-eabi\include\c++\6.3.1\cmath **** 
 279:c:\program files (x86)\gnu tools arm embedded\6 2017-q2-update\arm-none-eabi\include\c++\6.3.1\cmath ****   using ::floor;
 280:c:\program files (x86)\gnu tools arm embedded\6 2017-q2-update\arm-none-eabi\include\c++\6.3.1\cmath **** 
 281:c:\program files (x86)\gnu tools arm embedded\6 2017-q2-update\arm-none-eabi\include\c++\6.3.1\cmath **** #ifndef __CORRECT_ISO_CPP_MATH_H_PROTO
 282:c:\program files (x86)\gnu tools arm embedded\6 2017-q2-update\arm-none-eabi\include\c++\6.3.1\cmath ****   inline _GLIBCXX_CONSTEXPR float
 283:c:\program files (x86)\gnu tools arm embedded\6 2017-q2-update\arm-none-eabi\include\c++\6.3.1\cmath ****   floor(float __x)
 284:c:\program files (x86)\gnu tools arm embedded\6 2017-q2-update\arm-none-eabi\include\c++\6.3.1\cmath ****   { return __builtin_floorf(__x); }
 285:c:\program files (x86)\gnu tools arm embedded\6 2017-q2-update\arm-none-eabi\include\c++\6.3.1\cmath **** 
 286:c:\program files (x86)\gnu tools arm embedded\6 2017-q2-update\arm-none-eabi\include\c++\6.3.1\cmath ****   inline _GLIBCXX_CONSTEXPR long double
 287:c:\program files (x86)\gnu tools arm embedded\6 2017-q2-update\arm-none-eabi\include\c++\6.3.1\cmath ****   floor(long double __x)
 288:c:\program files (x86)\gnu tools arm embedded\6 2017-q2-update\arm-none-eabi\include\c++\6.3.1\cmath ****   { return __builtin_floorl(__x); }
 289:c:\program files (x86)\gnu tools arm embedded\6 2017-q2-update\arm-none-eabi\include\c++\6.3.1\cmath **** #endif
 290:c:\program files (x86)\gnu tools arm embedded\6 2017-q2-update\arm-none-eabi\include\c++\6.3.1\cmath **** 
 291:c:\program files (x86)\gnu tools arm embedded\6 2017-q2-update\arm-none-eabi\include\c++\6.3.1\cmath ****   template<typename _Tp>
 292:c:\program files (x86)\gnu tools arm embedded\6 2017-q2-update\arm-none-eabi\include\c++\6.3.1\cmath ****     inline _GLIBCXX_CONSTEXPR
 293:c:\program files (x86)\gnu tools arm embedded\6 2017-q2-update\arm-none-eabi\include\c++\6.3.1\cmath ****     typename __gnu_cxx::__enable_if<__is_integer<_Tp>::__value,
 294:c:\program files (x86)\gnu tools arm embedded\6 2017-q2-update\arm-none-eabi\include\c++\6.3.1\cmath ****                                     double>::__type
 295:c:\program files (x86)\gnu tools arm embedded\6 2017-q2-update\arm-none-eabi\include\c++\6.3.1\cmath ****     floor(_Tp __x)
 296:c:\program files (x86)\gnu tools arm embedded\6 2017-q2-update\arm-none-eabi\include\c++\6.3.1\cmath ****     { return __builtin_floor(__x); }
 297:c:\program files (x86)\gnu tools arm embedded\6 2017-q2-update\arm-none-eabi\include\c++\6.3.1\cmath **** 
 298:c:\program files (x86)\gnu tools arm embedded\6 2017-q2-update\arm-none-eabi\include\c++\6.3.1\cmath ****   using ::fmod;
 299:c:\program files (x86)\gnu tools arm embedded\6 2017-q2-update\arm-none-eabi\include\c++\6.3.1\cmath **** 
 300:c:\program files (x86)\gnu tools arm embedded\6 2017-q2-update\arm-none-eabi\include\c++\6.3.1\cmath **** #ifndef __CORRECT_ISO_CPP_MATH_H_PROTO
 301:c:\program files (x86)\gnu tools arm embedded\6 2017-q2-update\arm-none-eabi\include\c++\6.3.1\cmath ****   inline _GLIBCXX_CONSTEXPR float
 302:c:\program files (x86)\gnu tools arm embedded\6 2017-q2-update\arm-none-eabi\include\c++\6.3.1\cmath ****   fmod(float __x, float __y)
 303:c:\program files (x86)\gnu tools arm embedded\6 2017-q2-update\arm-none-eabi\include\c++\6.3.1\cmath ****   { return __builtin_fmodf(__x, __y); }
 304:c:\program files (x86)\gnu tools arm embedded\6 2017-q2-update\arm-none-eabi\include\c++\6.3.1\cmath **** 
 305:c:\program files (x86)\gnu tools arm embedded\6 2017-q2-update\arm-none-eabi\include\c++\6.3.1\cmath ****   inline _GLIBCXX_CONSTEXPR long double
 306:c:\program files (x86)\gnu tools arm embedded\6 2017-q2-update\arm-none-eabi\include\c++\6.3.1\cmath ****   fmod(long double __x, long double __y)
 307:c:\program files (x86)\gnu tools arm embedded\6 2017-q2-update\arm-none-eabi\include\c++\6.3.1\cmath ****   { return __builtin_fmodl(__x, __y); }
 308:c:\program files (x86)\gnu tools arm embedded\6 2017-q2-update\arm-none-eabi\include\c++\6.3.1\cmath **** #endif
 309:c:\program files (x86)\gnu tools arm embedded\6 2017-q2-update\arm-none-eabi\include\c++\6.3.1\cmath **** 
 310:c:\program files (x86)\gnu tools arm embedded\6 2017-q2-update\arm-none-eabi\include\c++\6.3.1\cmath ****   template<typename _Tp, typename _Up>
 311:c:\program files (x86)\gnu tools arm embedded\6 2017-q2-update\arm-none-eabi\include\c++\6.3.1\cmath ****     inline _GLIBCXX_CONSTEXPR
 312:c:\program files (x86)\gnu tools arm embedded\6 2017-q2-update\arm-none-eabi\include\c++\6.3.1\cmath ****     typename __gnu_cxx::__promote_2<_Tp, _Up>::__type
 313:c:\program files (x86)\gnu tools arm embedded\6 2017-q2-update\arm-none-eabi\include\c++\6.3.1\cmath ****     fmod(_Tp __x, _Up __y)
 314:c:\program files (x86)\gnu tools arm embedded\6 2017-q2-update\arm-none-eabi\include\c++\6.3.1\cmath ****     {
 315:c:\program files (x86)\gnu tools arm embedded\6 2017-q2-update\arm-none-eabi\include\c++\6.3.1\cmath ****       typedef typename __gnu_cxx::__promote_2<_Tp, _Up>::__type __type;
 316:c:\program files (x86)\gnu tools arm embedded\6 2017-q2-update\arm-none-eabi\include\c++\6.3.1\cmath ****       return fmod(__type(__x), __type(__y));
 317:c:\program files (x86)\gnu tools arm embedded\6 2017-q2-update\arm-none-eabi\include\c++\6.3.1\cmath ****     }
 318:c:\program files (x86)\gnu tools arm embedded\6 2017-q2-update\arm-none-eabi\include\c++\6.3.1\cmath **** 
 319:c:\program files (x86)\gnu tools arm embedded\6 2017-q2-update\arm-none-eabi\include\c++\6.3.1\cmath ****   using ::frexp;
 320:c:\program files (x86)\gnu tools arm embedded\6 2017-q2-update\arm-none-eabi\include\c++\6.3.1\cmath **** 
 321:c:\program files (x86)\gnu tools arm embedded\6 2017-q2-update\arm-none-eabi\include\c++\6.3.1\cmath **** #ifndef __CORRECT_ISO_CPP_MATH_H_PROTO
 322:c:\program files (x86)\gnu tools arm embedded\6 2017-q2-update\arm-none-eabi\include\c++\6.3.1\cmath ****   inline float
 323:c:\program files (x86)\gnu tools arm embedded\6 2017-q2-update\arm-none-eabi\include\c++\6.3.1\cmath ****   frexp(float __x, int* __exp)
 324:c:\program files (x86)\gnu tools arm embedded\6 2017-q2-update\arm-none-eabi\include\c++\6.3.1\cmath ****   { return __builtin_frexpf(__x, __exp); }
 325:c:\program files (x86)\gnu tools arm embedded\6 2017-q2-update\arm-none-eabi\include\c++\6.3.1\cmath **** 
 326:c:\program files (x86)\gnu tools arm embedded\6 2017-q2-update\arm-none-eabi\include\c++\6.3.1\cmath ****   inline long double
 327:c:\program files (x86)\gnu tools arm embedded\6 2017-q2-update\arm-none-eabi\include\c++\6.3.1\cmath ****   frexp(long double __x, int* __exp)
 328:c:\program files (x86)\gnu tools arm embedded\6 2017-q2-update\arm-none-eabi\include\c++\6.3.1\cmath ****   { return __builtin_frexpl(__x, __exp); }
 329:c:\program files (x86)\gnu tools arm embedded\6 2017-q2-update\arm-none-eabi\include\c++\6.3.1\cmath **** #endif
 330:c:\program files (x86)\gnu tools arm embedded\6 2017-q2-update\arm-none-eabi\include\c++\6.3.1\cmath **** 
 331:c:\program files (x86)\gnu tools arm embedded\6 2017-q2-update\arm-none-eabi\include\c++\6.3.1\cmath ****   template<typename _Tp>
 332:c:\program files (x86)\gnu tools arm embedded\6 2017-q2-update\arm-none-eabi\include\c++\6.3.1\cmath ****     inline _GLIBCXX_CONSTEXPR
 333:c:\program files (x86)\gnu tools arm embedded\6 2017-q2-update\arm-none-eabi\include\c++\6.3.1\cmath ****     typename __gnu_cxx::__enable_if<__is_integer<_Tp>::__value, 
 334:c:\program files (x86)\gnu tools arm embedded\6 2017-q2-update\arm-none-eabi\include\c++\6.3.1\cmath ****                                     double>::__type
 335:c:\program files (x86)\gnu tools arm embedded\6 2017-q2-update\arm-none-eabi\include\c++\6.3.1\cmath ****     frexp(_Tp __x, int* __exp)
 336:c:\program files (x86)\gnu tools arm embedded\6 2017-q2-update\arm-none-eabi\include\c++\6.3.1\cmath ****     { return __builtin_frexp(__x, __exp); }
 337:c:\program files (x86)\gnu tools arm embedded\6 2017-q2-update\arm-none-eabi\include\c++\6.3.1\cmath **** 
 338:c:\program files (x86)\gnu tools arm embedded\6 2017-q2-update\arm-none-eabi\include\c++\6.3.1\cmath ****   using ::ldexp;
 339:c:\program files (x86)\gnu tools arm embedded\6 2017-q2-update\arm-none-eabi\include\c++\6.3.1\cmath **** 
 340:c:\program files (x86)\gnu tools arm embedded\6 2017-q2-update\arm-none-eabi\include\c++\6.3.1\cmath **** #ifndef __CORRECT_ISO_CPP_MATH_H_PROTO
 341:c:\program files (x86)\gnu tools arm embedded\6 2017-q2-update\arm-none-eabi\include\c++\6.3.1\cmath ****   inline _GLIBCXX_CONSTEXPR float
 342:c:\program files (x86)\gnu tools arm embedded\6 2017-q2-update\arm-none-eabi\include\c++\6.3.1\cmath ****   ldexp(float __x, int __exp)
 343:c:\program files (x86)\gnu tools arm embedded\6 2017-q2-update\arm-none-eabi\include\c++\6.3.1\cmath ****   { return __builtin_ldexpf(__x, __exp); }
 344:c:\program files (x86)\gnu tools arm embedded\6 2017-q2-update\arm-none-eabi\include\c++\6.3.1\cmath **** 
 345:c:\program files (x86)\gnu tools arm embedded\6 2017-q2-update\arm-none-eabi\include\c++\6.3.1\cmath ****   inline _GLIBCXX_CONSTEXPR long double
 346:c:\program files (x86)\gnu tools arm embedded\6 2017-q2-update\arm-none-eabi\include\c++\6.3.1\cmath ****   ldexp(long double __x, int __exp)
 347:c:\program files (x86)\gnu tools arm embedded\6 2017-q2-update\arm-none-eabi\include\c++\6.3.1\cmath ****   { return __builtin_ldexpl(__x, __exp); }
 348:c:\program files (x86)\gnu tools arm embedded\6 2017-q2-update\arm-none-eabi\include\c++\6.3.1\cmath **** #endif
 349:c:\program files (x86)\gnu tools arm embedded\6 2017-q2-update\arm-none-eabi\include\c++\6.3.1\cmath **** 
 350:c:\program files (x86)\gnu tools arm embedded\6 2017-q2-update\arm-none-eabi\include\c++\6.3.1\cmath ****   template<typename _Tp>
 351:c:\program files (x86)\gnu tools arm embedded\6 2017-q2-update\arm-none-eabi\include\c++\6.3.1\cmath ****     inline _GLIBCXX_CONSTEXPR
 352:c:\program files (x86)\gnu tools arm embedded\6 2017-q2-update\arm-none-eabi\include\c++\6.3.1\cmath ****     typename __gnu_cxx::__enable_if<__is_integer<_Tp>::__value, 
 353:c:\program files (x86)\gnu tools arm embedded\6 2017-q2-update\arm-none-eabi\include\c++\6.3.1\cmath ****                                     double>::__type
 354:c:\program files (x86)\gnu tools arm embedded\6 2017-q2-update\arm-none-eabi\include\c++\6.3.1\cmath ****     ldexp(_Tp __x, int __exp)
 355:c:\program files (x86)\gnu tools arm embedded\6 2017-q2-update\arm-none-eabi\include\c++\6.3.1\cmath ****     { return __builtin_ldexp(__x, __exp); }
 356:c:\program files (x86)\gnu tools arm embedded\6 2017-q2-update\arm-none-eabi\include\c++\6.3.1\cmath **** 
 357:c:\program files (x86)\gnu tools arm embedded\6 2017-q2-update\arm-none-eabi\include\c++\6.3.1\cmath ****   using ::log;
 358:c:\program files (x86)\gnu tools arm embedded\6 2017-q2-update\arm-none-eabi\include\c++\6.3.1\cmath **** 
 359:c:\program files (x86)\gnu tools arm embedded\6 2017-q2-update\arm-none-eabi\include\c++\6.3.1\cmath **** #ifndef __CORRECT_ISO_CPP_MATH_H_PROTO
 360:c:\program files (x86)\gnu tools arm embedded\6 2017-q2-update\arm-none-eabi\include\c++\6.3.1\cmath ****   inline _GLIBCXX_CONSTEXPR float
 361:c:\program files (x86)\gnu tools arm embedded\6 2017-q2-update\arm-none-eabi\include\c++\6.3.1\cmath ****   log(float __x)
 362:c:\program files (x86)\gnu tools arm embedded\6 2017-q2-update\arm-none-eabi\include\c++\6.3.1\cmath ****   { return __builtin_logf(__x); }
 5861              		.loc 10 362 0
 5862 0cdc 680AB0EE 		vmov.f32	s0, s17
 5863 0ce0 FEFFFFEB 		bl	logf
 5864              	.LVL390:
 5865              	.L166:
 5866              	.LBE4521:
 5867              	.LBE4520:
 5868              	.LBE4519:
  37:C:/Renesas/e2studio_2021_01_workspace_RZA2M_ANPR/ANPR_RZA2M_EBK/src/tensorflow_lite/tensorflow/lite/kernels/internal/reference\log_softmax.h ****     // Find max element value which we'll use to ensure numerical stability
 5869              		.loc 7 37 0
 5870 0ce4 14309DE5 		ldr	r3, [sp, #20]
 5871 0ce8 018088E2 		add	r8, r8, #1
 5872              	.LVL391:
 5873 0cec 0B5085E0 		add	r5, r5, fp
 5874 0cf0 030058E1 		cmp	r8, r3
 5875 0cf4 08309DE5 		ldr	r3, [sp, #8]
 5876 0cf8 036086E0 		add	r6, r6, r3
 5877 0cfc 037087E0 		add	r7, r7, r3
 5878 0d00 DC00001A 		bne	.L164
 5879 0d04 A0C09DE5 		ldr	ip, [sp, #160]
 5880              	.LVL392:
 5881              	.L154:
 5882              	.LBE4518:
 5883              	.LBE4517:
 5884              	.LBE4516:
 5885              	.LBB4658:
 5886              	.LBB4659:
 203:C:/Renesas/e2studio_2021_01_workspace_RZA2M_ANPR/ANPR_RZA2M_EBK/src/tensorflow_lite/tensorflow/lite/kernels/internal\types.h **** #ifdef TF_LITE_STATIC_MEMORY
 5887              		.loc 4 203 0
 5888 0d08 05005CE3 		cmp	ip, #5
 5889 0d0c D6FFFFDA 		ble	.L174
 5890              	.LVL393:
 5891              	.L173:
 5892              	.LBE4659:
 5893              	.LBE4658:
 5894              	.LBE4515:
 5895              	.LBB4674:
 5896              	.LBB4504:
 5897              	.LBB4500:
 207:C:/Renesas/e2studio_2021_01_workspace_RZA2M_ANPR/ANPR_RZA2M_EBK/src/tensorflow_lite/tensorflow/lite/kernels/internal\types.h **** #endif  // TF_LITE_STATIC_MEMORY
 5898              		.loc 4 207 0
 5899 0d10 A4009DE5 		ldr	r0, [sp, #164]
 5900 0d14 000050E3 		cmp	r0, #0
 5901 0d18 D3FFFF0A 		beq	.L174
 5902 0d1c FEFFFFEB 		bl	_ZdaPv
 5903              	.LVL394:
 5904 0d20 D1FFFFEA 		b	.L174
 5905              	.LVL395:
 5906              	.L270:
 5907              	.LBE4500:
 5908              	.LBE4504:
 5909              	.LBB4505:
 5910              	.LBB4493:
 5911              	.LBB4487:
 5912              	.LBB4481:
 5913              	.LBB4475:
 5914              	.LBB4459:
 5915              	.LBB3786:
 5916              	.LBB3775:
 5917              	.LBB3765:
 5918              	.LBB3755:
 5919              	.LBB3718:
 5920              	.LBB3709:
 5921              	.LBB3705:
 335:C:/Renesas/e2studio_2021_01_workspace_RZA2M_ANPR/ANPR_RZA2M_EBK/src/tensorflow_lite/third_party/gemmlowp/fixedpoint\fixedpoint.h ****   std::int32_t ab_x2_high32 =
 5922              		.loc 5 335 0
 5923 0d24 0701A0E3 		mov	r0, #-1073741823
 5924 0d28 0010E0E3 		mvn	r1, #0
 5925 0d2c D1FDFFEA 		b	.L191
 5926              	.LVL396:
 5927              	.L293:
 5928              	.LBE3705:
 5929              	.LBE3709:
 5930              	.LBE3718:
 5931              	.LBE3755:
 5932              	.LBE3765:
 5933              	.LBE3775:
 5934              	.LBE3786:
 5935              	.LBE4459:
 5936              	.LBB4460:
 5937              	.LBB4455:
 5938              	.LBB4448:
 5939              	.LBB4441:
 5940              	.LBB4434:
 5941              	.LBB4404:
 5942              	.LBB4398:
 5943              	.LBB4379:
 5944 0d30 0721A0E3 		mov	r2, #-1073741823
 5945              	.LVL397:
 5946 0d34 0030E0E3 		mvn	r3, #0
 5947 0d38 87FFFFEA 		b	.L221
 5948              	.LVL398:
 5949              	.L204:
 5950              	.LBE4379:
 5951              	.LBE4398:
 5952              	.LBE4404:
 5953              	.LBE4434:
 5954              	.LBE4441:
 5955              	.LBE4448:
 5956              	.LBE4455:
 5957              	.LBE4460:
 5958              	.LBB4461:
 5959              	.LBB4328:
 5960              	.LBB4312:
 5961              	.LBB4273:
 5962              	.LBB4062:
 5963              	.LBB4058:
 5964              	.LBB4054:
 337:C:/Renesas/e2studio_2021_01_workspace_RZA2M_ANPR/ANPR_RZA2M_EBK/src/tensorflow_lite/third_party/gemmlowp/fixedpoint\fixedpoint.h ****   return overflow ? std::numeric_limits<std::int32_t>::max() : ab_x2_high32;
 5965              		.loc 5 337 0
 5966 0d3c 0161A0E3 		mov	r6, #1073741824
 5967 0d40 0070A0E3 		mov	r7, #0
 5968              	.LVL399:
 5969 0d44 9262E7E0 		smlal	r6, r7, r2, r2
 5970 0d48 0090A0E3 		mov	r9, #0
 5971 0d4c C70FA0E1 		asr	r0, r7, #31
 5972 0d50 0281C0E3 		bic	r8, r0, #-2147483648
 5973 0d54 060098E0 		adds	r0, r8, r6
 5974 0d58 A08FA0E1 		lsr	r8, r0, #31
 5975 0d5c 0710A9E0 		adc	r1, r9, r7
 5976              	.LBE4054:
 5977              	.LBE4058:
 5978              	.LBE4062:
 5979              	.LBE4273:
 5980              	.LBB4274:
 5981              	.LBB4041:
 5982              	.LBB4033:
 5983              	.LBB4025:
 335:C:/Renesas/e2studio_2021_01_workspace_RZA2M_ANPR/ANPR_RZA2M_EBK/src/tensorflow_lite/third_party/gemmlowp/fixedpoint\fixedpoint.h ****   std::int32_t ab_x2_high32 =
 5984              		.loc 5 335 0
 5985 0d60 000054E3 		cmp	r4, #0
 5986              	.LBE4025:
 5987              	.LBE4033:
 5988              	.LBE4041:
 5989              	.LBE4274:
 5990              	.LBB4275:
 5991              	.LBB4063:
 5992              	.LBB4059:
 5993              	.LBB4055:
 337:C:/Renesas/e2studio_2021_01_workspace_RZA2M_ANPR/ANPR_RZA2M_EBK/src/tensorflow_lite/third_party/gemmlowp/fixedpoint\fixedpoint.h ****   return overflow ? std::numeric_limits<std::int32_t>::max() : ab_x2_high32;
 5994              		.loc 5 337 0
 5995 0d64 818088E1 		orr	r8, r8, r1, lsl #1
 5996              	.LBE4055:
 5997              	.LBE4059:
 5998              	.LBE4063:
 5999              	.LBE4275:
 6000              	.LBB4276:
 6001              	.LBB4042:
 6002              	.LBB4034:
 6003              	.LBB4026:
 335:C:/Renesas/e2studio_2021_01_workspace_RZA2M_ANPR/ANPR_RZA2M_EBK/src/tensorflow_lite/third_party/gemmlowp/fixedpoint\fixedpoint.h ****   std::int32_t ab_x2_high32 =
 6004              		.loc 5 335 0
 6005 0d68 0030D5E2 		sbcs	r3, r5, #0
 6006 0d6c 0830A0E1 		mov	r3, r8
 6007              	.LVL400:
 6008 0d70 460000BA 		blt	.L402
 6009              	.LVL401:
 6010              	.LBE4026:
 6011              	.LBE4034:
 6012              	.LBE4042:
 6013              	.LBE4276:
 6014              	.LBB4277:
 6015              	.LBB4085:
 6016              	.LBB4079:
 6017              	.LBB4073:
 334:C:/Renesas/e2studio_2021_01_workspace_RZA2M_ANPR/ANPR_RZA2M_EBK/src/tensorflow_lite/third_party/gemmlowp/fixedpoint\fixedpoint.h ****   std::int32_t nudge = ab_64 >= 0 ? (1 << 30) : (1 - (1 << 30));
 6018              		.loc 5 334 0
 6019 0d74 9208C1E0 		smull	r0, r1, r2, r8
 6020 0d78 74309DE5 		ldr	r3, [sp, #116]
 6021              	.LVL402:
 6022 0d7c 0060A0E1 		mov	r6, r0
 6023              	.LBE4073:
 6024              	.LBE4079:
 6025              	.LBE4085:
 6026              	.LBE4277:
 6027              	.LBB4278:
 6028              	.LBB4043:
 6029              	.LBB4035:
 6030              	.LBB4027:
 337:C:/Renesas/e2studio_2021_01_workspace_RZA2M_ANPR/ANPR_RZA2M_EBK/src/tensorflow_lite/third_party/gemmlowp/fixedpoint\fixedpoint.h ****   return overflow ? std::numeric_limits<std::int32_t>::max() : ab_x2_high32;
 6031              		.loc 5 337 0
 6032 0d80 010194E2 		adds	r0, r4, #1073741824
 6033 0d84 A04FA0E1 		lsr	r4, r0, #31
 6034              	.LVL403:
 6035              	.LBE4027:
 6036              	.LBE4035:
 6037              	.LBE4043:
 6038              	.LBE4278:
 6039              	.LBB4279:
 6040              	.LBB4086:
 6041              	.LBB4080:
 6042              	.LBB4074:
 334:C:/Renesas/e2studio_2021_01_workspace_RZA2M_ANPR/ANPR_RZA2M_EBK/src/tensorflow_lite/third_party/gemmlowp/fixedpoint\fixedpoint.h ****   std::int32_t nudge = ab_64 >= 0 ? (1 << 30) : (1 - (1 << 30));
 6043              		.loc 5 334 0
 6044 0d88 0170A0E1 		mov	r7, r1
 6045              	.LBE4074:
 6046              	.LBE4080:
 6047              	.LBE4086:
 6048              	.LBE4279:
 6049              	.LBB4280:
 6050              	.LBB4044:
 6051              	.LBB4036:
 6052              	.LBB4028:
 337:C:/Renesas/e2studio_2021_01_workspace_RZA2M_ANPR/ANPR_RZA2M_EBK/src/tensorflow_lite/third_party/gemmlowp/fixedpoint\fixedpoint.h ****   return overflow ? std::numeric_limits<std::int32_t>::max() : ab_x2_high32;
 6053              		.loc 5 337 0
 6054 0d8c 0010A5E2 		adc	r1, r5, #0
 6055              	.LBE4028:
 6056              	.LBE4036:
 6057              	.LBE4044:
 6058              	.LBE4280:
 6059              	.LBB4281:
 6060              	.LBB4087:
 6061              	.LBB4081:
 6062              	.LBB4075:
 334:C:/Renesas/e2studio_2021_01_workspace_RZA2M_ANPR/ANPR_RZA2M_EBK/src/tensorflow_lite/third_party/gemmlowp/fixedpoint\fixedpoint.h ****   std::int32_t nudge = ab_64 >= 0 ? (1 << 30) : (1 - (1 << 30));
 6063              		.loc 5 334 0
 6064 0d90 F860CDE1 		strd	r6, [sp, #8]
 6065              	.LBE4075:
 6066              	.LBE4081:
 6067              	.LBE4087:
 6068              	.LBE4281:
 6069              	.LBB4282:
 6070              	.LBB4045:
 6071              	.LBB4037:
 6072              	.LBB4029:
 337:C:/Renesas/e2studio_2021_01_workspace_RZA2M_ANPR/ANPR_RZA2M_EBK/src/tensorflow_lite/third_party/gemmlowp/fixedpoint\fixedpoint.h ****   return overflow ? std::numeric_limits<std::int32_t>::max() : ab_x2_high32;
 6073              		.loc 5 337 0
 6074 0d94 814084E1 		orr	r4, r4, r1, lsl #1
 6075 0d98 9803C1E0 		smull	r0, r1, r8, r3
 6076              	.LBE4029:
 6077              	.LBE4037:
 6078              	.LBE4045:
 6079              	.LBE4282:
 6080              	.LBB4283:
 6081              	.LBB4088:
 6082              	.LBB4082:
 6083              	.LBB4076:
 335:C:/Renesas/e2studio_2021_01_workspace_RZA2M_ANPR/ANPR_RZA2M_EBK/src/tensorflow_lite/third_party/gemmlowp/fixedpoint\fixedpoint.h ****   std::int32_t ab_x2_high32 =
 6084              		.loc 5 335 0
 6085 0d9c 000056E3 		cmp	r6, #0
 6086 0da0 0030D7E2 		sbcs	r3, r7, #0
 6087 0da4 F000CDE1 		strd	r0, [sp]
 6088              	.LVL404:
 6089 0da8 660100BA 		blt	.L403
 6090 0dac 0101A0E3 		mov	r0, #1073741824
 6091 0db0 0010A0E3 		mov	r1, #0
 6092 0db4 0680A0E1 		mov	r8, r6
 6093              	.LVL405:
 6094 0db8 0790A0E1 		mov	r9, r7
 6095              	.LVL406:
 6096              	.L245:
 337:C:/Renesas/e2studio_2021_01_workspace_RZA2M_ANPR/ANPR_RZA2M_EBK/src/tensorflow_lite/third_party/gemmlowp/fixedpoint\fixedpoint.h ****   return overflow ? std::numeric_limits<std::int32_t>::max() : ab_x2_high32;
 6097              		.loc 5 337 0
 6098 0dbc 008098E0 		adds	r8, r8, r0
 6099              	.LBE4076:
 6100              	.LBE4082:
 6101              	.LBE4088:
 6102              	.LBE4283:
 6103              	.LBB4284:
 6104              	.LBB3859:
 6105              	.LBB3856:
 6106              	.LBB3853:
 334:C:/Renesas/e2studio_2021_01_workspace_RZA2M_ANPR/ANPR_RZA2M_EBK/src/tensorflow_lite/third_party/gemmlowp/fixedpoint\fixedpoint.h ****   std::int32_t nudge = ab_64 >= 0 ? (1 << 30) : (1 - (1 << 30));
 6107              		.loc 5 334 0
 6108 0dc0 70309DE5 		ldr	r3, [sp, #112]
 6109              	.LBE3853:
 6110              	.LBE3856:
 6111              	.LBE3859:
 6112              	.LBE4284:
 6113              	.LBB4285:
 6114              	.LBB4089:
 6115              	.LBB4083:
 6116              	.LBB4077:
 337:C:/Renesas/e2studio_2021_01_workspace_RZA2M_ANPR/ANPR_RZA2M_EBK/src/tensorflow_lite/third_party/gemmlowp/fixedpoint\fixedpoint.h ****   return overflow ? std::numeric_limits<std::int32_t>::max() : ab_x2_high32;
 6117              		.loc 5 337 0
 6118 0dc4 0190A9E0 		adc	r9, r9, r1
 6119 0dc8 0010A0E3 		mov	r1, #0
 6120 0dcc C90FA0E1 		asr	r0, r9, #31
 6121              	.LVL407:
 6122 0dd0 0201C0E3 		bic	r0, r0, #-2147483648
 6123 0dd4 086090E0 		adds	r6, r0, r8
 6124 0dd8 A60FA0E1 		lsr	r0, r6, #31
 6125 0ddc 0970A1E0 		adc	r7, r1, r9
 6126 0de0 870080E1 		orr	r0, r0, r7, lsl #1
 6127              	.LBE4077:
 6128              	.LBE4083:
 6129              	.LBE4089:
 6130              	.LBE4285:
 6131              	.LBB4286:
 6132              	.LBB3860:
 6133              	.LBB3857:
 6134              	.LBB3854:
 334:C:/Renesas/e2studio_2021_01_workspace_RZA2M_ANPR/ANPR_RZA2M_EBK/src/tensorflow_lite/third_party/gemmlowp/fixedpoint\fixedpoint.h ****   std::int32_t nudge = ab_64 >= 0 ? (1 << 30) : (1 - (1 << 30));
 6135              		.loc 5 334 0
 6136 0de4 9083C9E0 		smull	r8, r9, r0, r3
 6137              	.LVL408:
 335:C:/Renesas/e2studio_2021_01_workspace_RZA2M_ANPR/ANPR_RZA2M_EBK/src/tensorflow_lite/third_party/gemmlowp/fixedpoint\fixedpoint.h ****   std::int32_t ab_x2_high32 =
 6138              		.loc 5 335 0
 6139 0de8 000058E3 		cmp	r8, #0
 6140 0dec 0030D9E2 		sbcs	r3, r9, #0
 6141 0df0 0161A0A3 		movge	r6, #1073741824
 6142 0df4 0761A0B3 		movlt	r6, #-1073741823
 6143 0df8 0070A0A3 		movge	r7, #0
 6144 0dfc 0070E0B3 		mvnlt	r7, #0
 6145              	.LVL409:
 337:C:/Renesas/e2studio_2021_01_workspace_RZA2M_ANPR/ANPR_RZA2M_EBK/src/tensorflow_lite/third_party/gemmlowp/fixedpoint\fixedpoint.h ****   return overflow ? std::numeric_limits<std::int32_t>::max() : ab_x2_high32;
 6146              		.loc 5 337 0
 6147 0e00 060098E0 		adds	r0, r8, r6
 6148 0e04 0710A9E0 		adc	r1, r9, r7
 6149 0e08 0070A0E3 		mov	r7, #0
 6150 0e0c C16FA0E1 		asr	r6, r1, #31
 6151              	.LVL410:
 6152 0e10 0261C6E3 		bic	r6, r6, #-2147483648
 6153 0e14 068090E0 		adds	r8, r0, r6
 6154              	.LVL411:
 6155 0e18 A80FA0E1 		lsr	r0, r8, #31
 6156 0e1c 0790A1E0 		adc	r9, r1, r7
 6157 0e20 890080E1 		orr	r0, r0, r9, lsl #1
 6158 0e24 8FFEFFEA 		b	.L208
 6159              	.LVL412:
 6160              	.L192:
 6161              	.LBE3854:
 6162              	.LBE3857:
 6163              	.LBE3860:
 6164              	.LBE4286:
 6165              	.LBB4287:
 6166              	.LBB3872:
 234:C:/Renesas/e2studio_2021_01_workspace_RZA2M_ANPR/ANPR_RZA2M_EBK/src/tensorflow_lite/tensorflow/lite/kernels/internal\common.h ****                        : std::numeric_limits<T>::digits;
 6167              		.loc 8 234 0
 6168 0e28 171F6FE1 		clz	r1, r7
 6169              	.LVL413:
 6170              	.LBE3872:
 6171              	.LBE4287:
 6172              	.LBB4288:
 6173              	.LBB3897:
 6174              	.LBB3894:
 457:C:/Renesas/e2studio_2021_01_workspace_RZA2M_ANPR/ANPR_RZA2M_EBK/src/tensorflow_lite/tensorflow/lite/kernels/internal\common.h ****     return x;
 6175              		.loc 8 457 0
 6176 0e2c 010051E2 		subs	r0, r1, #1
 6177              	.LVL414:
 6178 0e30 FA01001A 		bne	.L404
 6179 0e34 0010A0E3 		mov	r1, #0
 6180 0e38 5A05A0E3 		mov	r0, #377487360
 6181              	.LVL415:
 6182              	.LBE3894:
 6183              	.LBE3897:
 6184              	.LBE4288:
 6185              	.LBB4289:
 6186              	.LBB3910:
 6187              	.LBB3907:
 6188              	.LBB3904:
 335:C:/Renesas/e2studio_2021_01_workspace_RZA2M_ANPR/ANPR_RZA2M_EBK/src/tensorflow_lite/third_party/gemmlowp/fixedpoint\fixedpoint.h ****   std::int32_t ab_x2_high32 =
 6189              		.loc 5 335 0
 6190 0e3c 000052E3 		cmp	r2, #0
 6191              	.LBE3904:
 6192              	.LBE3907:
 6193              	.LBE3910:
 6194              	.LBE4289:
 6195              	.LBB4290:
 6196              	.LBB3898:
 6197              	.LBB3895:
 457:C:/Renesas/e2studio_2021_01_workspace_RZA2M_ANPR/ANPR_RZA2M_EBK/src/tensorflow_lite/tensorflow/lite/kernels/internal\common.h ****     return x;
 6198              		.loc 8 457 0
 6199 0e40 F000CDE1 		strd	r0, [sp]
 6200              	.LVL416:
 6201              	.LBE3895:
 6202              	.LBE3898:
 6203              	.LBE4290:
 6204              	.LBB4291:
 6205              	.LBB3911:
 6206              	.LBB3908:
 6207              	.LBB3905:
 335:C:/Renesas/e2studio_2021_01_workspace_RZA2M_ANPR/ANPR_RZA2M_EBK/src/tensorflow_lite/third_party/gemmlowp/fixedpoint\fixedpoint.h ****   std::int32_t ab_x2_high32 =
 6208              		.loc 5 335 0
 6209 0e44 0010D3E2 		sbcs	r1, r3, #0
 6210              	.LBE3905:
 6211              	.LBE3908:
 6212              	.LBE3911:
 6213              	.LBE4291:
 6214              	.LBB4292:
 6215              	.LBB3899:
 6216              	.LBB3896:
 457:C:/Renesas/e2studio_2021_01_workspace_RZA2M_ANPR/ANPR_RZA2M_EBK/src/tensorflow_lite/tensorflow/lite/kernels/internal\common.h ****     return x;
 6217              		.loc 8 457 0
 6218 0e48 0280A0E1 		mov	r8, r2
 6219 0e4c 0390A0E1 		mov	r9, r3
 6220              	.LBE3896:
 6221              	.LBE3899:
 6222              	.LBE4292:
 6223              	.LBB4293:
 6224              	.LBB3912:
 6225              	.LBB3909:
 6226              	.LBB3906:
 335:C:/Renesas/e2studio_2021_01_workspace_RZA2M_ANPR/ANPR_RZA2M_EBK/src/tensorflow_lite/third_party/gemmlowp/fixedpoint\fixedpoint.h ****   std::int32_t ab_x2_high32 =
 6227              		.loc 5 335 0
 6228 0e50 D7FDFFAA 		bge	.L405
 6229              	.L274:
 6230 0e54 0701A0E3 		mov	r0, #-1073741823
 6231 0e58 0010E0E3 		mvn	r1, #0
 6232 0e5c D6FDFFEA 		b	.L196
 6233              	.LVL417:
 6234              	.L398:
 6235              	.LBE3906:
 6236              	.LBE3909:
 6237              	.LBE3912:
 6238              	.LBE4293:
 6239              	.LBE4312:
 6240              	.LBE4328:
 6241              	.LBE4461:
 6242              	.LBB4462:
 6243              	.LBB3841:
 6244              	.LBB3830:
 6245              	.LBB3826:
 338:C:/Renesas/e2studio_2021_01_workspace_RZA2M_ANPR/ANPR_RZA2M_EBK/src/tensorflow_lite/third_party/gemmlowp/fixedpoint\fixedpoint.h **** }
 6246              		.loc 5 338 0
 6247 0e60 0221E0E3 		mvn	r2, #-2147483648
 6248              	.LVL418:
 6249 0e64 0BFFFFEA 		b	.L240
 6250              	.LVL419:
 6251              	.L391:
 6252 0e68 000052E3 		cmp	r2, #0
 6253              	.LBE3826:
 6254              	.LBE3830:
 6255              	.LBE3841:
 6256              	.LBE4462:
 6257              	.LBB4463:
 181:C:/Renesas/e2studio_2021_01_workspace_RZA2M_ANPR/ANPR_RZA2M_EBK/src/tensorflow_lite/tensorflow/lite/kernels/internal/reference\log_softmax.h ****       max_in_row =
 6258              		.loc 7 181 0
 6259 0e6c 0230A001 		moveq	r3, r2
 6260 0e70 14009D05 		ldreq	r0, [sp, #20]
 6261 0e74 E1FCFF0A 		beq	.L177
 6262 0e78 D4FCFFEA 		b	.L176
 6263              	.LVL420:
 6264              	.L292:
 6265              	.LBE4463:
 6266              	.LBB4464:
 6267              	.LBB3842:
 6268              	.LBB3831:
 6269              	.LBB3827:
 335:C:/Renesas/e2studio_2021_01_workspace_RZA2M_ANPR/ANPR_RZA2M_EBK/src/tensorflow_lite/third_party/gemmlowp/fixedpoint\fixedpoint.h ****   std::int32_t ab_x2_high32 =
 6270              		.loc 5 335 0
 6271 0e7c 0721A0E3 		mov	r2, #-1073741823
 6272              	.LVL421:
 6273 0e80 0030E0E3 		mvn	r3, #0
 6274 0e84 F8FEFFEA 		b	.L215
 6275              	.LVL422:
 6276              	.L397:
 6277 0e88 D880CDE1 		ldrd	r8, [sp, #8]
 6278 0e8c CAFFFFEA 		b	.L245
 6279              	.LVL423:
 6280              	.L402:
 6281 0e90 74109DE5 		ldr	r1, [sp, #116]
 6282 0e94 0860A0E1 		mov	r6, r8
 6283 0e98 C87FA0E1 		asr	r7, r8, #31
 6284              	.LBE3827:
 6285              	.LBE3831:
 6286              	.LBE3842:
 6287              	.LBE4464:
 6288              	.LBB4465:
 6289              	.LBB4329:
 6290              	.LBB4313:
 6291              	.LBB4294:
 6292              	.LBB4046:
 6293              	.LBB4038:
 6294              	.LBB4030:
 6295 0e9c 0090E0E3 		mvn	r9, #0
 6296 0ea0 9801C1E0 		smull	r0, r1, r8, r1
 6297 0ea4 0781A0E3 		mov	r8, #-1073741823
 6298 0ea8 F000CDE1 		strd	r0, [sp]
 6299              	.LVL424:
 6300              	.L247:
 337:C:/Renesas/e2studio_2021_01_workspace_RZA2M_ANPR/ANPR_RZA2M_EBK/src/tensorflow_lite/third_party/gemmlowp/fixedpoint\fixedpoint.h ****   return overflow ? std::numeric_limits<std::int32_t>::max() : ab_x2_high32;
 6301              		.loc 5 337 0
 6302 0eac 040098E0 		adds	r0, r8, r4
 6303 0eb0 0510A9E0 		adc	r1, r9, r5
 6304 0eb4 0050A0E3 		mov	r5, #0
 6305 0eb8 C14FA0E1 		asr	r4, r1, #31
 6306              	.LVL425:
 6307 0ebc 0241C4E3 		bic	r4, r4, #-2147483648
 6308 0ec0 008094E0 		adds	r8, r4, r0
 6309 0ec4 A84FA0E1 		lsr	r4, r8, #31
 6310 0ec8 0190A5E0 		adc	r9, r5, r1
 6311 0ecc 894084E1 		orr	r4, r4, r9, lsl #1
 6312 0ed0 50FEFFEA 		b	.L206
 6313              	.LVL426:
 6314              	.L120:
 6315              	.LBE4030:
 6316              	.LBE4038:
 6317              	.LBE4046:
 6318              	.LBE4294:
 6319              	.LBE4313:
 6320              	.LBE4329:
 6321              	.LBE4465:
 6322              	.LBE4475:
 6323              	.LBE4481:
 6324              	.LBE4487:
 6325              	.LBE4493:
 6326              	.LBE4505:
 6327              	.LBE4674:
 6328              	.LBB4675:
 109:../src/tensorflow_lite/tensorflow/lite/micro/kernels/log_softmax.cc ****                                 tflite::micro::GetTensorData<float>(input),
 6329              		.loc 1 109 0
 6330 0ed4 0610A0E1 		mov	r1, r6
 6331 0ed8 88008DE2 		add	r0, sp, #136
 6332 0edc FEFFFFEB 		bl	_ZN6tflite5micro14GetTensorShapeEPK16TfLiteEvalTensor
 6333              	.LVL427:
 6334              	.LEHE5:
 6335              	.LBB4660:
 6336              	.LBB4661:
 6337              		.loc 6 63 0
 6338 0ee0 003096E5 		ldr	r3, [r6]
 6339              	.LBE4661:
 6340              	.LBE4660:
 111:../src/tensorflow_lite/tensorflow/lite/micro/kernels/log_softmax.cc ****                                 tflite::micro::GetTensorData<float>(output));
 6341              		.loc 1 111 0
 6342 0ee4 A0008DE2 		add	r0, sp, #160
 6343 0ee8 0410A0E1 		mov	r1, r4
 6344              	.LBB4663:
 6345              	.LBB4662:
 6346              		.loc 6 63 0
 6347 0eec 00308DE5 		str	r3, [sp]
 6348              	.LEHB6:
 6349              	.LBE4662:
 6350              	.LBE4663:
 111:../src/tensorflow_lite/tensorflow/lite/micro/kernels/log_softmax.cc ****                                 tflite::micro::GetTensorData<float>(output));
 6351              		.loc 1 111 0
 6352 0ef0 FEFFFFEB 		bl	_ZN6tflite5micro14GetTensorShapeEPK16TfLiteEvalTensor
 6353              	.LVL428:
 6354              	.LEHE6:
 6355              	.LBB4664:
 6356              	.LBB4665:
  56:C:/Renesas/e2studio_2021_01_workspace_RZA2M_ANPR/ANPR_RZA2M_EBK/src/tensorflow_lite/tensorflow/lite/micro/kernels\kernel_util.h **** }
 6357              		.loc 6 56 0
 6358 0ef4 000054E3 		cmp	r4, #0
 6359 0ef8 88109DE5 		ldr	r1, [sp, #136]
 6360 0efc 00309415 		ldrne	r3, [r4]
 6361 0f00 18408D05 		streq	r4, [sp, #24]
 6362              	.LVL429:
 6363              	.LBE4665:
 6364              	.LBE4664:
 6365              	.LBB4667:
 6366              	.LBB4652:
  31:C:/Renesas/e2studio_2021_01_workspace_RZA2M_ANPR/ANPR_RZA2M_EBK/src/tensorflow_lite/tensorflow/lite/kernels/internal/reference\log_softmax.h ****   const int outer_size =
 6367              		.loc 7 31 0
 6368 0f04 012041E2 		sub	r2, r1, #1
 6369              	.LVL430:
 6370              	.LBE4652:
 6371              	.LBE4667:
 6372              	.LBB4668:
 6373              	.LBB4666:
  56:C:/Renesas/e2studio_2021_01_workspace_RZA2M_ANPR/ANPR_RZA2M_EBK/src/tensorflow_lite/tensorflow/lite/micro/kernels\kernel_util.h **** }
 6374              		.loc 6 56 0
 6375 0f08 18308D15 		strne	r3, [sp, #24]
 6376              	.LVL431:
 6377              	.LBE4666:
 6378              	.LBE4668:
 6379              	.LBB4669:
 6380              	.LBB4653:
 6381              	.LBB4554:
 6382              	.LBB4555:
 6383              	.LBB4556:
 680:C:/Renesas/e2studio_2021_01_workspace_RZA2M_ANPR/ANPR_RZA2M_EBK/src/tensorflow_lite/tensorflow/lite/kernels/internal\types.h ****   }
 681:C:/Renesas/e2studio_2021_01_workspace_RZA2M_ANPR/ANPR_RZA2M_EBK/src/tensorflow_lite/tensorflow/lite/kernels/internal\types.h ****   return flat_size;
 682:C:/Renesas/e2studio_2021_01_workspace_RZA2M_ANPR/ANPR_RZA2M_EBK/src/tensorflow_lite/tensorflow/lite/kernels/internal\types.h **** }
 683:C:/Renesas/e2studio_2021_01_workspace_RZA2M_ANPR/ANPR_RZA2M_EBK/src/tensorflow_lite/tensorflow/lite/kernels/internal\types.h **** 
 684:C:/Renesas/e2studio_2021_01_workspace_RZA2M_ANPR/ANPR_RZA2M_EBK/src/tensorflow_lite/tensorflow/lite/kernels/internal\types.h **** // A combination of MatchingFlatSize() and FlatSizeSkipDim().
 685:C:/Renesas/e2studio_2021_01_workspace_RZA2M_ANPR/ANPR_RZA2M_EBK/src/tensorflow_lite/tensorflow/lite/kernels/internal\types.h **** inline int MatchingFlatSizeSkipDim(const RuntimeShape& shape, int skip_dim,
 686:C:/Renesas/e2studio_2021_01_workspace_RZA2M_ANPR/ANPR_RZA2M_EBK/src/tensorflow_lite/tensorflow/lite/kernels/internal\types.h ****                                    const RuntimeShape& check_shape_0) {
 687:C:/Renesas/e2studio_2021_01_workspace_RZA2M_ANPR/ANPR_RZA2M_EBK/src/tensorflow_lite/tensorflow/lite/kernels/internal\types.h ****   const int dims_count = shape.DimensionsCount();
 688:C:/Renesas/e2studio_2021_01_workspace_RZA2M_ANPR/ANPR_RZA2M_EBK/src/tensorflow_lite/tensorflow/lite/kernels/internal\types.h ****   for (int i = 0; i < dims_count; ++i) {
 6384              		.loc 4 688 0
 6385 0f0c 000051E3 		cmp	r1, #0
 6386 0f10 4B0100DA 		ble	.L123
 6387              	.LBB4557:
 6388              	.LBB4558:
 215:C:/Renesas/e2studio_2021_01_workspace_RZA2M_ANPR/ANPR_RZA2M_EBK/src/tensorflow_lite/tensorflow/lite/kernels/internal\types.h ****     return size_ > kMaxSmallSize ? dims_pointer_[i] : dims_[i];
 6389              		.loc 4 215 0
 6390 0f14 A0C09DE5 		ldr	ip, [sp, #160]
 6391              	.LBE4558:
 6392              	.LBE4557:
 6393              	.LBB4576:
 6394              	.LBB4577:
 216:C:/Renesas/e2studio_2021_01_workspace_RZA2M_ANPR/ANPR_RZA2M_EBK/src/tensorflow_lite/tensorflow/lite/kernels/internal\types.h ****   }
 6395              		.loc 4 216 0
 6396 0f18 8C509DE5 		ldr	r5, [sp, #140]
 6397              	.LVL432:
 6398              	.LBE4577:
 6399              	.LBE4576:
 6400              	.LBB4584:
 6401              	.LBB4559:
 6402 0f1c A4409DE5 		ldr	r4, [sp, #164]
 6403 0f20 05005CE3 		cmp	ip, #5
 6404 0f24 130100CA 		bgt	.L124
 6405 0f28 050051E3 		cmp	r1, #5
 6406 0f2c 4E0100CA 		bgt	.L125
 6407              	.LBE4559:
 6408              	.LBE4584:
 689:C:/Renesas/e2studio_2021_01_workspace_RZA2M_ANPR/ANPR_RZA2M_EBK/src/tensorflow_lite/tensorflow/lite/kernels/internal\types.h ****     if (i != skip_dim) {
 6409              		.loc 4 689 0
 6410 0f30 000052E3 		cmp	r2, #0
 6411 0f34 4501000A 		beq	.L126
 6412              	.LVL433:
 6413              	.LBB4585:
 6414              	.LBB4560:
 215:C:/Renesas/e2studio_2021_01_workspace_RZA2M_ANPR/ANPR_RZA2M_EBK/src/tensorflow_lite/tensorflow/lite/kernels/internal\types.h ****     return size_ > kMaxSmallSize ? dims_pointer_[i] : dims_[i];
 6415              		.loc 4 215 0
 6416 0f38 00005CE3 		cmp	ip, #0
 6417 0f3c 6C0100DA 		ble	.L127
 6418              	.LVL434:
 6419              	.LBE4560:
 6420              	.LBE4585:
 690:C:/Renesas/e2studio_2021_01_workspace_RZA2M_ANPR/ANPR_RZA2M_EBK/src/tensorflow_lite/tensorflow/lite/kernels/internal\types.h ****       TFLITE_DCHECK_EQ(shape.Dims(i), check_shape_0.Dims(i));
 6421              		.loc 4 690 0
 6422 0f40 050054E1 		cmp	r4, r5
 6423 0f44 2A01001A 		bne	.L128
 6424              	.LVL435:
 689:C:/Renesas/e2studio_2021_01_workspace_RZA2M_ANPR/ANPR_RZA2M_EBK/src/tensorflow_lite/tensorflow/lite/kernels/internal\types.h ****     if (i != skip_dim) {
 6425              		.loc 4 689 0
 6426 0f48 010052E3 		cmp	r2, #1
 6427 0f4c 0500000A 		beq	.L129
 6428              	.LVL436:
 6429              	.LBB4586:
 6430              	.LBB4561:
 215:C:/Renesas/e2studio_2021_01_workspace_RZA2M_ANPR/ANPR_RZA2M_EBK/src/tensorflow_lite/tensorflow/lite/kernels/internal\types.h ****     return size_ > kMaxSmallSize ? dims_pointer_[i] : dims_[i];
 6431              		.loc 4 215 0
 6432 0f50 01005CE3 		cmp	ip, #1
 6433              	.LBE4561:
 6434              	.LBE4586:
 6435              	.LBB4587:
 6436              	.LBB4578:
 216:C:/Renesas/e2studio_2021_01_workspace_RZA2M_ANPR/ANPR_RZA2M_EBK/src/tensorflow_lite/tensorflow/lite/kernels/internal\types.h ****   }
 6437              		.loc 4 216 0
 6438 0f54 90309DE5 		ldr	r3, [sp, #144]
 6439              	.LVL437:
 6440              	.LBE4578:
 6441              	.LBE4587:
 6442              	.LBB4588:
 6443              	.LBB4562:
 215:C:/Renesas/e2studio_2021_01_workspace_RZA2M_ANPR/ANPR_RZA2M_EBK/src/tensorflow_lite/tensorflow/lite/kernels/internal\types.h ****     return size_ > kMaxSmallSize ? dims_pointer_[i] : dims_[i];
 6444              		.loc 4 215 0
 6445 0f58 650100DA 		ble	.L127
 6446              	.LVL438:
 6447              	.LBE4562:
 6448              	.LBE4588:
 6449              		.loc 4 690 0
 6450 0f5c A8009DE5 		ldr	r0, [sp, #168]
 6451 0f60 030050E1 		cmp	r0, r3
 6452 0f64 2201001A 		bne	.L128
 6453              	.L129:
 6454              	.LVL439:
 688:C:/Renesas/e2studio_2021_01_workspace_RZA2M_ANPR/ANPR_RZA2M_EBK/src/tensorflow_lite/tensorflow/lite/kernels/internal\types.h ****     if (i != skip_dim) {
 6455              		.loc 4 688 0
 6456 0f68 020051E3 		cmp	r1, #2
 6457 0f6c 170000DA 		ble	.L130
 689:C:/Renesas/e2studio_2021_01_workspace_RZA2M_ANPR/ANPR_RZA2M_EBK/src/tensorflow_lite/tensorflow/lite/kernels/internal\types.h ****       TFLITE_DCHECK_EQ(shape.Dims(i), check_shape_0.Dims(i));
 6458              		.loc 4 689 0
 6459 0f70 020052E3 		cmp	r2, #2
 6460 0f74 1700000A 		beq	.L302
 6461              	.LVL440:
 6462              	.LBB4589:
 6463              	.LBB4563:
 215:C:/Renesas/e2studio_2021_01_workspace_RZA2M_ANPR/ANPR_RZA2M_EBK/src/tensorflow_lite/tensorflow/lite/kernels/internal\types.h ****     return size_ > kMaxSmallSize ? dims_pointer_[i] : dims_[i];
 6464              		.loc 4 215 0
 6465 0f78 02005CE3 		cmp	ip, #2
 6466              	.LBE4563:
 6467              	.LBE4589:
 6468              	.LBB4590:
 6469              	.LBB4579:
 216:C:/Renesas/e2studio_2021_01_workspace_RZA2M_ANPR/ANPR_RZA2M_EBK/src/tensorflow_lite/tensorflow/lite/kernels/internal\types.h ****   }
 6470              		.loc 4 216 0
 6471 0f7c 94009DE5 		ldr	r0, [sp, #148]
 6472              	.LVL441:
 6473              	.LBE4579:
 6474              	.LBE4590:
 6475              	.LBB4591:
 6476              	.LBB4564:
 215:C:/Renesas/e2studio_2021_01_workspace_RZA2M_ANPR/ANPR_RZA2M_EBK/src/tensorflow_lite/tensorflow/lite/kernels/internal\types.h ****     return size_ > kMaxSmallSize ? dims_pointer_[i] : dims_[i];
 6477              		.loc 4 215 0
 6478 0f80 5B0100DA 		ble	.L127
 6479              	.LVL442:
 6480              	.LBE4564:
 6481              	.LBE4591:
 6482              		.loc 4 690 0
 6483 0f84 AC309DE5 		ldr	r3, [sp, #172]
 6484 0f88 030050E1 		cmp	r0, r3
 6485 0f8c 1801001A 		bne	.L128
 6486              	.LVL443:
 689:C:/Renesas/e2studio_2021_01_workspace_RZA2M_ANPR/ANPR_RZA2M_EBK/src/tensorflow_lite/tensorflow/lite/kernels/internal\types.h ****       TFLITE_DCHECK_EQ(shape.Dims(i), check_shape_0.Dims(i));
 6487              		.loc 4 689 0
 6488 0f90 030052E3 		cmp	r2, #3
 6489 0f94 0F00000A 		beq	.L302
 6490              	.LVL444:
 6491              	.LBB4592:
 6492              	.LBB4565:
 215:C:/Renesas/e2studio_2021_01_workspace_RZA2M_ANPR/ANPR_RZA2M_EBK/src/tensorflow_lite/tensorflow/lite/kernels/internal\types.h ****     return size_ > kMaxSmallSize ? dims_pointer_[i] : dims_[i];
 6493              		.loc 4 215 0
 6494 0f98 03005CE3 		cmp	ip, #3
 6495              	.LBE4565:
 6496              	.LBE4592:
 6497              	.LBB4593:
 6498              	.LBB4580:
 216:C:/Renesas/e2studio_2021_01_workspace_RZA2M_ANPR/ANPR_RZA2M_EBK/src/tensorflow_lite/tensorflow/lite/kernels/internal\types.h ****   }
 6499              		.loc 4 216 0
 6500 0f9c 98009DE5 		ldr	r0, [sp, #152]
 6501              	.LVL445:
 6502              	.LBE4580:
 6503              	.LBE4593:
 6504              	.LBB4594:
 6505              	.LBB4566:
 215:C:/Renesas/e2studio_2021_01_workspace_RZA2M_ANPR/ANPR_RZA2M_EBK/src/tensorflow_lite/tensorflow/lite/kernels/internal\types.h ****     return size_ > kMaxSmallSize ? dims_pointer_[i] : dims_[i];
 6506              		.loc 4 215 0
 6507 0fa0 530100DA 		ble	.L127
 6508              	.LVL446:
 6509              	.LBE4566:
 6510              	.LBE4594:
 6511              		.loc 4 690 0
 6512 0fa4 B0309DE5 		ldr	r3, [sp, #176]
 6513 0fa8 030050E1 		cmp	r0, r3
 6514 0fac 1001001A 		bne	.L128
 6515              	.LVL447:
 689:C:/Renesas/e2studio_2021_01_workspace_RZA2M_ANPR/ANPR_RZA2M_EBK/src/tensorflow_lite/tensorflow/lite/kernels/internal\types.h ****       TFLITE_DCHECK_EQ(shape.Dims(i), check_shape_0.Dims(i));
 6516              		.loc 4 689 0
 6517 0fb0 040052E3 		cmp	r2, #4
 6518 0fb4 0700000A 		beq	.L302
 6519              	.LVL448:
 6520              	.LBB4595:
 6521              	.LBB4567:
 215:C:/Renesas/e2studio_2021_01_workspace_RZA2M_ANPR/ANPR_RZA2M_EBK/src/tensorflow_lite/tensorflow/lite/kernels/internal\types.h ****     return size_ > kMaxSmallSize ? dims_pointer_[i] : dims_[i];
 6522              		.loc 4 215 0
 6523 0fb8 05005CE3 		cmp	ip, #5
 6524              	.LBE4567:
 6525              	.LBE4595:
 6526              	.LBB4596:
 6527              	.LBB4581:
 216:C:/Renesas/e2studio_2021_01_workspace_RZA2M_ANPR/ANPR_RZA2M_EBK/src/tensorflow_lite/tensorflow/lite/kernels/internal\types.h ****   }
 6528              		.loc 4 216 0
 6529 0fbc 9C009DE5 		ldr	r0, [sp, #156]
 6530              	.LVL449:
 6531              	.LBE4581:
 6532              	.LBE4596:
 6533              	.LBB4597:
 6534              	.LBB4568:
 215:C:/Renesas/e2studio_2021_01_workspace_RZA2M_ANPR/ANPR_RZA2M_EBK/src/tensorflow_lite/tensorflow/lite/kernels/internal\types.h ****     return size_ > kMaxSmallSize ? dims_pointer_[i] : dims_[i];
 6535              		.loc 4 215 0
 6536 0fc0 4B01001A 		bne	.L127
 6537              	.LVL450:
 6538              	.LBE4568:
 6539              	.LBE4597:
 6540              		.loc 4 690 0
 6541 0fc4 B4309DE5 		ldr	r3, [sp, #180]
 6542 0fc8 030050E1 		cmp	r0, r3
 6543 0fcc 0801001A 		bne	.L128
 6544              	.LVL451:
 6545              	.L130:
 6546              	.LBE4556:
 6547              	.LBB4607:
 6548              	.LBB4608:
 675:C:/Renesas/e2studio_2021_01_workspace_RZA2M_ANPR/ANPR_RZA2M_EBK/src/tensorflow_lite/tensorflow/lite/kernels/internal\types.h ****   const auto* dims_data = shape.DimsData();
 6549              		.loc 4 675 0
 6550 0fd0 000052E3 		cmp	r2, #0
 6551 0fd4 8F0100BA 		blt	.L248
 6552              	.LVL452:
 6553              	.L302:
 6554              	.LBB4609:
 6555              	.LBB4610:
 232:C:/Renesas/e2studio_2021_01_workspace_RZA2M_ANPR/ANPR_RZA2M_EBK/src/tensorflow_lite/tensorflow/lite/kernels/internal\types.h ****   }
 6556              		.loc 4 232 0
 6557 0fd8 8CE08DE2 		add	lr, sp, #140
 6558              	.L244:
 6559 0fdc 0170A0E3 		mov	r7, #1
 6560 0fe0 0030A0E3 		mov	r3, #0
 6561              	.L147:
 6562              	.LVL453:
 6563              	.LBE4610:
 6564              	.LBE4609:
 6565              	.LBB4612:
 679:C:/Renesas/e2studio_2021_01_workspace_RZA2M_ANPR/ANPR_RZA2M_EBK/src/tensorflow_lite/tensorflow/lite/kernels/internal\types.h ****   }
 6566              		.loc 4 679 0
 6567 0fe4 030052E1 		cmp	r2, r3
 6568 0fe8 03019E17 		ldrne	r0, [lr, r3, lsl #2]
 678:C:/Renesas/e2studio_2021_01_workspace_RZA2M_ANPR/ANPR_RZA2M_EBK/src/tensorflow_lite/tensorflow/lite/kernels/internal\types.h ****     flat_size *= (i == skip_dim) ? 1 : dims_data[i];
 6569              		.loc 4 678 0
 6570 0fec 013083E2 		add	r3, r3, #1
 6571              	.LVL454:
 679:C:/Renesas/e2studio_2021_01_workspace_RZA2M_ANPR/ANPR_RZA2M_EBK/src/tensorflow_lite/tensorflow/lite/kernels/internal\types.h ****   }
 6572              		.loc 4 679 0
 6573 0ff0 0100A003 		moveq	r0, #1
 678:C:/Renesas/e2studio_2021_01_workspace_RZA2M_ANPR/ANPR_RZA2M_EBK/src/tensorflow_lite/tensorflow/lite/kernels/internal\types.h ****     flat_size *= (i == skip_dim) ? 1 : dims_data[i];
 6574              		.loc 4 678 0
 6575 0ff4 030051E1 		cmp	r1, r3
 679:C:/Renesas/e2studio_2021_01_workspace_RZA2M_ANPR/ANPR_RZA2M_EBK/src/tensorflow_lite/tensorflow/lite/kernels/internal\types.h ****   }
 6576              		.loc 4 679 0
 6577 0ff8 900707E0 		mul	r7, r0, r7
 6578              	.LVL455:
 678:C:/Renesas/e2studio_2021_01_workspace_RZA2M_ANPR/ANPR_RZA2M_EBK/src/tensorflow_lite/tensorflow/lite/kernels/internal\types.h ****     flat_size *= (i == skip_dim) ? 1 : dims_data[i];
 6579              		.loc 4 678 0
 6580 0ffc F8FFFF1A 		bne	.L147
 6581              	.LVL456:
 6582              	.LBE4612:
 6583              	.LBE4608:
 6584              	.LBE4607:
 6585              	.LBE4555:
 6586              	.LBE4554:
 6587              	.LBB4631:
 6588              	.LBB4632:
 6589              	.LBB4633:
 6590              	.LBB4634:
 216:C:/Renesas/e2studio_2021_01_workspace_RZA2M_ANPR/ANPR_RZA2M_EBK/src/tensorflow_lite/tensorflow/lite/kernels/internal\types.h ****   }
 6591              		.loc 4 216 0
 6592 1000 050051E3 		cmp	r1, #5
 6593 1004 150100CA 		bgt	.L406
 6594              	.LVL457:
 6595              	.L148:
 6596 1008 B8308DE2 		add	r3, sp, #184
 6597 100c 023183E0 		add	r3, r3, r2, lsl #2
 6598 1010 2CB013E5 		ldr	fp, [r3, #-44]
 6599              	.L149:
 6600              	.LVL458:
 6601              	.LBE4634:
 6602              	.LBE4633:
 6603              	.LBB4636:
 6604              	.LBB4637:
 215:C:/Renesas/e2studio_2021_01_workspace_RZA2M_ANPR/ANPR_RZA2M_EBK/src/tensorflow_lite/tensorflow/lite/kernels/internal\types.h ****     return size_ > kMaxSmallSize ? dims_pointer_[i] : dims_[i];
 6605              		.loc 4 215 0
 6606 1014 0C0052E1 		cmp	r2, ip
 6607 1018 400100AA 		bge	.L407
 216:C:/Renesas/e2studio_2021_01_workspace_RZA2M_ANPR/ANPR_RZA2M_EBK/src/tensorflow_lite/tensorflow/lite/kernels/internal\types.h ****   }
 6608              		.loc 4 216 0
 6609 101c 05005CE3 		cmp	ip, #5
 6610 1020 B8308DD2 		addle	r3, sp, #184
 6611 1024 A4309DC5 		ldrgt	r3, [sp, #164]
 6612 1028 022183D0 		addle	r2, r3, r2, lsl #2
 6613              	.LVL459:
 6614 102c 023193C7 		ldrgt	r3, [r3, r2, lsl #2]
 6615 1030 143012D5 		ldrle	r3, [r2, #-20]
 6616              	.LVL460:
 6617              	.LBE4637:
 6618              	.LBE4636:
 472:C:/Renesas/e2studio_2021_01_workspace_RZA2M_ANPR/ANPR_RZA2M_EBK/src/tensorflow_lite/tensorflow/lite/kernels/internal\types.h ****   return std::min(shape1.Dims(index1), shape2.Dims(index2));
 6619              		.loc 4 472 0
 6620 1034 03005BE1 		cmp	fp, r3
 6621 1038 3701001A 		bne	.L408
 6622              	.LVL461:
 6623              	.LBE4632:
 6624              	.LBE4631:
 6625              	.LBB4643:
  37:C:/Renesas/e2studio_2021_01_workspace_RZA2M_ANPR/ANPR_RZA2M_EBK/src/tensorflow_lite/tensorflow/lite/kernels/internal/reference\log_softmax.h ****     // Find max element value which we'll use to ensure numerical stability
 6626              		.loc 7 37 0
 6627 103c 000057E3 		cmp	r7, #0
 6628 1040 30FFFFDA 		ble	.L154
 6629 1044 0B31A0E1 		lsl	r3, fp, #2
 6630              	.LBB4551:
 6631              	.LBB4524:
 6632              	.LBB4522:
 6633              		.loc 10 362 0
 6634 1048 EF8ADFED 		vldr.32	s17, .L412
 6635              	.LBE4522:
 6636              	.LBE4524:
 6637              	.LBE4551:
  37:C:/Renesas/e2studio_2021_01_workspace_RZA2M_ANPR/ANPR_RZA2M_EBK/src/tensorflow_lite/tensorflow/lite/kernels/internal/reference\log_softmax.h ****     // Find max element value which we'll use to ensure numerical stability
 6638              		.loc 7 37 0
 6639 104c 0050A0E3 		mov	r5, #0
 6640 1050 14708DE5 		str	r7, [sp, #20]
 6641 1054 08308DE5 		str	r3, [sp, #8]
 6642 1058 0580A0E1 		mov	r8, r5
 6643 105c 00309DE5 		ldr	r3, [sp]
 6644 1060 09204BE2 		sub	r2, fp, #9
 6645 1064 10208DE5 		str	r2, [sp, #16]
 6646 1068 4C6083E2 		add	r6, r3, #76
 6647 106c 18309DE5 		ldr	r3, [sp, #24]
 6648 1070 4C3083E2 		add	r3, r3, #76
 6649 1074 0370A0E1 		mov	r7, r3
 6650              	.LVL462:
 6651              	.L164:
 6652              	.LBB4552:
  41:C:/Renesas/e2studio_2021_01_workspace_RZA2M_ANPR/ANPR_RZA2M_EBK/src/tensorflow_lite/tensorflow/lite/kernels/internal/reference\log_softmax.h ****     for (int c = 0; c < depth; ++c) {
 6653              		.loc 7 41 0
 6654 1078 E47ADFED 		vldr.32	s15, .L412+4
 6655              	.LBB4525:
  42:C:/Renesas/e2studio_2021_01_workspace_RZA2M_ANPR/ANPR_RZA2M_EBK/src/tensorflow_lite/tensorflow/lite/kernels/internal/reference\log_softmax.h ****       max = std::max(max, input_data[i * depth + c]);
 6656              		.loc 7 42 0
 6657 107c 00005BE3 		cmp	fp, #0
 6658              	.LBE4525:
  41:C:/Renesas/e2studio_2021_01_workspace_RZA2M_ANPR/ANPR_RZA2M_EBK/src/tensorflow_lite/tensorflow/lite/kernels/internal/reference\log_softmax.h ****     for (int c = 0; c < depth; ++c) {
 6659              		.loc 7 41 0
 6660 1080 217ACDED 		vstr.32	s15, [sp, #132]
 6661              	.LVL463:
 6662              	.LBB4528:
  42:C:/Renesas/e2studio_2021_01_workspace_RZA2M_ANPR/ANPR_RZA2M_EBK/src/tensorflow_lite/tensorflow/lite/kernels/internal/reference\log_softmax.h ****       max = std::max(max, input_data[i * depth + c]);
 6663              		.loc 7 42 0
 6664 1084 14FFFFDA 		ble	.L155
 6665 1088 08005BE3 		cmp	fp, #8
 6666 108c DB0000DA 		ble	.L262
 6667 1090 10309DE5 		ldr	r3, [sp, #16]
 6668 1094 0020A0E3 		mov	r2, #0
 6669 1098 678AB0EE 		vmov.f32	s16, s15
 6670 109c 0700C3E3 		bic	r0, r3, #7
 6671 10a0 183086E2 		add	r3, r6, #24
 6672 10a4 080080E2 		add	r0, r0, #8
 6673              	.LVL464:
 6674              	.L157:
 6675              	.LBB4526:
 6676              	.LBB4527:
 6677              		.loc 9 224 0
 6678 10a8 196A13ED 		vldr.32	s12, [r3, #-100]
 6679 10ac 082082E2 		add	r2, r2, #8
 6680 10b0 187A13ED 		vldr.32	s14, [r3, #-96]
 6681 10b4 177A53ED 		vldr.32	s15, [r3, #-92]
 6682 10b8 166A53ED 		vldr.32	s13, [r3, #-88]
 6683 10bc C86AB4EE 		vcmpe.f32	s12, s16
 6684 10c0 10FAF1EE 		vmrs	APSR_nzcv, FPSCR
 6685 10c4 468AB0CE 		vmovgt.f32	s16, s12
 6686 10c8 C87AB4EE 		vcmpe.f32	s14, s16
 6687 10cc 10FAF1EE 		vmrs	APSR_nzcv, FPSCR
 6688 10d0 478AB0CE 		vmovgt.f32	s16, s14
 6689 10d4 C87AF4EE 		vcmpe.f32	s15, s16
 6690 10d8 10FAF1EE 		vmrs	APSR_nzcv, FPSCR
 6691 10dc 678AB0CE 		vmovgt.f32	s16, s15
 6692 10e0 157A13ED 		vldr.32	s14, [r3, #-84]
 6693 10e4 C86AF4EE 		vcmpe.f32	s13, s16
 6694 10e8 10FAF1EE 		vmrs	APSR_nzcv, FPSCR
 6695 10ec 487AF0DE 		vmovle.f32	s15, s16
 6696 10f0 667AF0CE 		vmovgt.f32	s15, s13
 6697 10f4 148A13ED 		vldr.32	s16, [r3, #-80]
 6698 10f8 E77AB4EE 		vcmpe.f32	s14, s15
 6699 10fc 10FAF1EE 		vmrs	APSR_nzcv, FPSCR
 6700 1100 477AF0CE 		vmovgt.f32	s15, s14
 6701 1104 137A13ED 		vldr.32	s14, [r3, #-76]
 6702 1108 E78AB4EE 		vcmpe.f32	s16, s15
 6703 110c 10FAF1EE 		vmrs	APSR_nzcv, FPSCR
 6704 1110 487AF0CE 		vmovgt.f32	s15, s16
 6705 1114 128A13ED 		vldr.32	s16, [r3, #-72]
 6706 1118 E77AB4EE 		vcmpe.f32	s14, s15
 6707 111c 10FAF1EE 		vmrs	APSR_nzcv, FPSCR
 6708 1120 477AF0CE 		vmovgt.f32	s15, s14
 6709 1124 E78AB4EE 		vcmpe.f32	s16, s15
 6710 1128 10FAF1EE 		vmrs	APSR_nzcv, FPSCR
 6711 112c 678AB0DE 		vmovle.f32	s16, s15
 6712              	.LVL465:
 6713 1130 020050E1 		cmp	r0, r2
 6714 1134 00F0D3F5 		pld	[r3]
 6715 1138 203083E2 		add	r3, r3, #32
 6716 113c D9FFFF1A 		bne	.L157
 6717              	.LVL466:
 6718              	.L156:
 6719 1140 00109DE5 		ldr	r1, [sp]
 6720 1144 053082E0 		add	r3, r2, r5
 6721 1148 033181E0 		add	r3, r1, r3, lsl #2
 6722              	.L158:
 6723 114c 017AF3EC 		vldmia.32	r3!, {s15}
 6724              	.LBE4527:
 6725              	.LBE4526:
  42:C:/Renesas/e2studio_2021_01_workspace_RZA2M_ANPR/ANPR_RZA2M_EBK/src/tensorflow_lite/tensorflow/lite/kernels/internal/reference\log_softmax.h ****       max = std::max(max, input_data[i * depth + c]);
 6726              		.loc 7 42 0
 6727 1150 012082E2 		add	r2, r2, #1
 6728 1154 C87AF4EE 		vcmpe.f32	s15, s16
 6729 1158 10FAF1EE 		vmrs	APSR_nzcv, FPSCR
 6730 115c 678AB0CE 		vmovgt.f32	s16, s15
 6731              	.LVL467:
 6732 1160 02005BE1 		cmp	fp, r2
 6733 1164 F8FFFFCA 		bgt	.L158
 6734 1168 08005BE3 		cmp	fp, #8
 6735 116c A69A9FED 		vldr.32	s18, .L412
 6736 1170 218A8DED 		vstr.32	s16, [sp, #132]
 6737 1174 9F0000DA 		ble	.L263
 6738 1178 10309DE5 		ldr	r3, [sp, #16]
 6739 117c 249046E2 		sub	r9, r6, #36
 6740 1180 00A0A0E3 		mov	r10, #0
 6741 1184 0740C3E3 		bic	r4, r3, #7
 6742 1188 084084E2 		add	r4, r4, #8
 6743              	.LVL468:
 6744              	.L160:
 6745              	.LBE4528:
 6746              	.LBB4529:
  49:C:/Renesas/e2studio_2021_01_workspace_RZA2M_ANPR/ANPR_RZA2M_EBK/src/tensorflow_lite/tensorflow/lite/kernels/internal/reference\log_softmax.h ****     }
 6747              		.loc 7 49 0
 6748 118c 0A0A19ED 		vldr.32	s0, [r9, #-40]
 6749 1190 08A08AE2 		add	r10, r10, #8
 6750              	.LVL469:
 6751 1194 00F0D9F5 		pld	[r9]
 6752              	.LVL470:
 6753 1198 209089E2 		add	r9, r9, #32
 6754              	.LBB4530:
 6755              	.LBB4531:
 246:c:\program files (x86)\gnu tools arm embedded\6 2017-q2-update\arm-none-eabi\include\c++\6.3.1\cmath **** 
 6756              		.loc 10 246 0
 6757 119c 480A30EE 		vsub.f32	s0, s0, s16
 6758              	.LVL471:
 6759 11a0 FEFFFFEB 		bl	expf
 6760              	.LVL472:
 6761              	.LBE4531:
 6762              	.LBE4530:
  49:C:/Renesas/e2studio_2021_01_workspace_RZA2M_ANPR/ANPR_RZA2M_EBK/src/tensorflow_lite/tensorflow/lite/kernels/internal/reference\log_softmax.h ****     }
 6763              		.loc 7 49 0
 6764 11a4 117A59ED 		vldr.32	s15, [r9, #-68]
 6765 11a8 099A30EE 		vadd.f32	s18, s0, s18
 6766              	.LVL473:
 6767              	.LBB4540:
 6768              	.LBB4532:
 246:c:\program files (x86)\gnu tools arm embedded\6 2017-q2-update\arm-none-eabi\include\c++\6.3.1\cmath **** 
 6769              		.loc 10 246 0
 6770 11ac C80A37EE 		vsub.f32	s0, s15, s16
 6771 11b0 FEFFFFEB 		bl	expf
 6772              	.LVL474:
 6773              	.LBE4532:
 6774              	.LBE4540:
  49:C:/Renesas/e2studio_2021_01_workspace_RZA2M_ANPR/ANPR_RZA2M_EBK/src/tensorflow_lite/tensorflow/lite/kernels/internal/reference\log_softmax.h ****     }
 6775              		.loc 7 49 0
 6776 11b4 107A59ED 		vldr.32	s15, [r9, #-64]
 6777 11b8 009A39EE 		vadd.f32	s18, s18, s0
 6778              	.LVL475:
 6779              	.LBB4541:
 6780              	.LBB4533:
 246:c:\program files (x86)\gnu tools arm embedded\6 2017-q2-update\arm-none-eabi\include\c++\6.3.1\cmath **** 
 6781              		.loc 10 246 0
 6782 11bc C80A37EE 		vsub.f32	s0, s15, s16
 6783 11c0 FEFFFFEB 		bl	expf
 6784              	.LVL476:
 6785              	.LBE4533:
 6786              	.LBE4541:
  49:C:/Renesas/e2studio_2021_01_workspace_RZA2M_ANPR/ANPR_RZA2M_EBK/src/tensorflow_lite/tensorflow/lite/kernels/internal/reference\log_softmax.h ****     }
 6787              		.loc 7 49 0
 6788 11c4 0F7A59ED 		vldr.32	s15, [r9, #-60]
 6789 11c8 099A30EE 		vadd.f32	s18, s0, s18
 6790              	.LVL477:
 6791              	.LBB4542:
 6792              	.LBB4534:
 246:c:\program files (x86)\gnu tools arm embedded\6 2017-q2-update\arm-none-eabi\include\c++\6.3.1\cmath **** 
 6793              		.loc 10 246 0
 6794 11cc C80A37EE 		vsub.f32	s0, s15, s16
 6795 11d0 FEFFFFEB 		bl	expf
 6796              	.LVL478:
 6797              	.LBE4534:
 6798              	.LBE4542:
  49:C:/Renesas/e2studio_2021_01_workspace_RZA2M_ANPR/ANPR_RZA2M_EBK/src/tensorflow_lite/tensorflow/lite/kernels/internal/reference\log_softmax.h ****     }
 6799              		.loc 7 49 0
 6800 11d4 0E7A59ED 		vldr.32	s15, [r9, #-56]
 6801 11d8 099A30EE 		vadd.f32	s18, s0, s18
 6802              	.LVL479:
 6803              	.LBB4543:
 6804              	.LBB4535:
 246:c:\program files (x86)\gnu tools arm embedded\6 2017-q2-update\arm-none-eabi\include\c++\6.3.1\cmath **** 
 6805              		.loc 10 246 0
 6806 11dc C80A37EE 		vsub.f32	s0, s15, s16
 6807 11e0 FEFFFFEB 		bl	expf
 6808              	.LVL480:
 6809              	.LBE4535:
 6810              	.LBE4543:
  49:C:/Renesas/e2studio_2021_01_workspace_RZA2M_ANPR/ANPR_RZA2M_EBK/src/tensorflow_lite/tensorflow/lite/kernels/internal/reference\log_softmax.h ****     }
 6811              		.loc 7 49 0
 6812 11e4 0D7A59ED 		vldr.32	s15, [r9, #-52]
 6813 11e8 099A30EE 		vadd.f32	s18, s0, s18
 6814              	.LVL481:
 6815              	.LBB4544:
 6816              	.LBB4536:
 246:c:\program files (x86)\gnu tools arm embedded\6 2017-q2-update\arm-none-eabi\include\c++\6.3.1\cmath **** 
 6817              		.loc 10 246 0
 6818 11ec C80A37EE 		vsub.f32	s0, s15, s16
 6819 11f0 FEFFFFEB 		bl	expf
 6820              	.LVL482:
 6821              	.LBE4536:
 6822              	.LBE4544:
  49:C:/Renesas/e2studio_2021_01_workspace_RZA2M_ANPR/ANPR_RZA2M_EBK/src/tensorflow_lite/tensorflow/lite/kernels/internal/reference\log_softmax.h ****     }
 6823              		.loc 7 49 0
 6824 11f4 0C7A59ED 		vldr.32	s15, [r9, #-48]
 6825 11f8 099A30EE 		vadd.f32	s18, s0, s18
 6826              	.LVL483:
 6827              	.LBB4545:
 6828              	.LBB4537:
 246:c:\program files (x86)\gnu tools arm embedded\6 2017-q2-update\arm-none-eabi\include\c++\6.3.1\cmath **** 
 6829              		.loc 10 246 0
 6830 11fc C80A37EE 		vsub.f32	s0, s15, s16
 6831 1200 FEFFFFEB 		bl	expf
 6832              	.LVL484:
 6833              	.LBE4537:
 6834              	.LBE4545:
  49:C:/Renesas/e2studio_2021_01_workspace_RZA2M_ANPR/ANPR_RZA2M_EBK/src/tensorflow_lite/tensorflow/lite/kernels/internal/reference\log_softmax.h ****     }
 6835              		.loc 7 49 0
 6836 1204 0B7A59ED 		vldr.32	s15, [r9, #-44]
 6837 1208 099A30EE 		vadd.f32	s18, s0, s18
 6838              	.LVL485:
 6839              	.LBB4546:
 6840              	.LBB4538:
 246:c:\program files (x86)\gnu tools arm embedded\6 2017-q2-update\arm-none-eabi\include\c++\6.3.1\cmath **** 
 6841              		.loc 10 246 0
 6842 120c C80A37EE 		vsub.f32	s0, s15, s16
 6843 1210 FEFFFFEB 		bl	expf
 6844              	.LVL486:
 6845 1214 0A0054E1 		cmp	r4, r10
 6846              	.LBE4538:
 6847              	.LBE4546:
  49:C:/Renesas/e2studio_2021_01_workspace_RZA2M_ANPR/ANPR_RZA2M_EBK/src/tensorflow_lite/tensorflow/lite/kernels/internal/reference\log_softmax.h ****     }
 6848              		.loc 7 49 0
 6849 1218 099A30EE 		vadd.f32	s18, s0, s18
 6850              	.LVL487:
 6851 121c DAFFFF1A 		bne	.L160
 6852              	.LVL488:
 6853              	.L159:
 6854 1220 00309DE5 		ldr	r3, [sp]
 6855 1224 05408AE0 		add	r4, r10, r5
 6856 1228 044183E0 		add	r4, r3, r4, lsl #2
 6857              	.L162:
 6858              	.LVL489:
 6859 122c 010AB4EC 		vldmia.32	r4!, {s0}
 6860              	.LVL490:
  48:C:/Renesas/e2studio_2021_01_workspace_RZA2M_ANPR/ANPR_RZA2M_EBK/src/tensorflow_lite/tensorflow/lite/kernels/internal/reference\log_softmax.h ****       sum += std::exp(input_data[i * depth + c] - max);
 6861              		.loc 7 48 0
 6862 1230 01A08AE2 		add	r10, r10, #1
 6863              	.LVL491:
 6864              	.LBB4547:
 6865              	.LBB4539:
 246:c:\program files (x86)\gnu tools arm embedded\6 2017-q2-update\arm-none-eabi\include\c++\6.3.1\cmath **** 
 6866              		.loc 10 246 0
 6867 1234 480A30EE 		vsub.f32	s0, s0, s16
 6868              	.LVL492:
 6869 1238 FEFFFFEB 		bl	expf
 6870              	.LVL493:
 6871              	.LBE4539:
 6872              	.LBE4547:
  48:C:/Renesas/e2studio_2021_01_workspace_RZA2M_ANPR/ANPR_RZA2M_EBK/src/tensorflow_lite/tensorflow/lite/kernels/internal/reference\log_softmax.h ****       sum += std::exp(input_data[i * depth + c] - max);
 6873              		.loc 7 48 0
 6874 123c 0A005BE1 		cmp	fp, r10
  49:C:/Renesas/e2studio_2021_01_workspace_RZA2M_ANPR/ANPR_RZA2M_EBK/src/tensorflow_lite/tensorflow/lite/kernels/internal/reference\log_softmax.h ****     }
 6875              		.loc 7 49 0
 6876 1240 009A39EE 		vadd.f32	s18, s18, s0
 6877              	.LVL494:
  48:C:/Renesas/e2studio_2021_01_workspace_RZA2M_ANPR/ANPR_RZA2M_EBK/src/tensorflow_lite/tensorflow/lite/kernels/internal/reference\log_softmax.h ****       sum += std::exp(input_data[i * depth + c] - max);
 6878              		.loc 7 48 0
 6879 1244 F8FFFFCA 		bgt	.L162
 6880              	.LVL495:
 6881              	.LBE4529:
 6882              	.LBB4548:
 6883              	.LBB4523:
 6884              		.loc 10 362 0
 6885 1248 490AB0EE 		vmov.f32	s0, s18
 6886 124c FEFFFFEB 		bl	logf
 6887              	.LVL496:
 6888 1250 08005BE3 		cmp	fp, #8
 6889 1254 0000A0D3 		movle	r0, #0
 6890 1258 2C0000DA 		ble	.L256
 6891 125c 10309DE5 		ldr	r3, [sp, #16]
 6892 1260 0720A0E1 		mov	r2, r7
 6893 1264 0000A0E3 		mov	r0, #0
 6894 1268 07C0C3E3 		bic	ip, r3, #7
 6895 126c 0630A0E1 		mov	r3, r6
 6896 1270 08C08CE2 		add	ip, ip, #8
 6897              	.LVL497:
 6898              	.L165:
 6899              	.LBE4523:
 6900              	.LBE4548:
 6901              	.LBB4549:
  55:C:/Renesas/e2studio_2021_01_workspace_RZA2M_ANPR/ANPR_RZA2M_EBK/src/tensorflow_lite/tensorflow/lite/kernels/internal/reference\log_softmax.h ****     }
 6902              		.loc 7 55 0
 6903 1274 137A53ED 		vldr.32	s15, [r3, #-76]
 6904 1278 080080E2 		add	r0, r0, #8
 6905              	.LVL498:
 6906 127c 00F0D3F5 		pld	[r3]
 6907 1280 00005CE1 		cmp	ip, r0
 6908 1284 00F0D2F5 		pld	[r2]
 6909 1288 203083E2 		add	r3, r3, #32
 6910 128c 202082E2 		add	r2, r2, #32
 6911 1290 C87A77EE 		vsub.f32	s15, s15, s16
 6912 1294 C07A77EE 		vsub.f32	s15, s15, s0
 6913 1298 1B7A42ED 		vstr.32	s15, [r2, #-108]
 6914              	.LVL499:
 6915 129c 1A7A53ED 		vldr.32	s15, [r3, #-104]
 6916 12a0 C87A77EE 		vsub.f32	s15, s15, s16
 6917 12a4 C07A77EE 		vsub.f32	s15, s15, s0
 6918 12a8 1A7A42ED 		vstr.32	s15, [r2, #-104]
 6919 12ac 197A53ED 		vldr.32	s15, [r3, #-100]
 6920 12b0 C87A77EE 		vsub.f32	s15, s15, s16
 6921 12b4 C07A77EE 		vsub.f32	s15, s15, s0
 6922 12b8 197A42ED 		vstr.32	s15, [r2, #-100]
 6923 12bc 187A53ED 		vldr.32	s15, [r3, #-96]
 6924 12c0 C87A77EE 		vsub.f32	s15, s15, s16
 6925 12c4 C07A77EE 		vsub.f32	s15, s15, s0
 6926 12c8 187A42ED 		vstr.32	s15, [r2, #-96]
 6927 12cc 177A53ED 		vldr.32	s15, [r3, #-92]
 6928 12d0 C87A77EE 		vsub.f32	s15, s15, s16
 6929 12d4 C07A77EE 		vsub.f32	s15, s15, s0
 6930 12d8 177A42ED 		vstr.32	s15, [r2, #-92]
 6931 12dc 167A53ED 		vldr.32	s15, [r3, #-88]
 6932 12e0 C87A77EE 		vsub.f32	s15, s15, s16
 6933 12e4 C07A77EE 		vsub.f32	s15, s15, s0
 6934 12e8 167A42ED 		vstr.32	s15, [r2, #-88]
 6935 12ec 157A53ED 		vldr.32	s15, [r3, #-84]
 6936 12f0 C87A77EE 		vsub.f32	s15, s15, s16
 6937 12f4 C07A77EE 		vsub.f32	s15, s15, s0
 6938 12f8 157A42ED 		vstr.32	s15, [r2, #-84]
 6939              	.LVL500:
 6940 12fc 147A53ED 		vldr.32	s15, [r3, #-80]
 6941 1300 C87A77EE 		vsub.f32	s15, s15, s16
 6942 1304 C07A77EE 		vsub.f32	s15, s15, s0
 6943 1308 147A42ED 		vstr.32	s15, [r2, #-80]
 6944 130c D8FFFF1A 		bne	.L165
 6945              	.LVL501:
 6946              	.L256:
 6947 1310 053080E0 		add	r3, r0, r5
 6948 1314 00209DE5 		ldr	r2, [sp]
 6949 1318 18109DE5 		ldr	r1, [sp, #24]
 6950 131c 0331A0E1 		lsl	r3, r3, #2
 6951 1320 032082E0 		add	r2, r2, r3
 6952 1324 033081E0 		add	r3, r1, r3
 6953              	.L167:
 6954              	.LVL502:
 6955 1328 017AF2EC 		vldmia.32	r2!, {s15}
  54:C:/Renesas/e2studio_2021_01_workspace_RZA2M_ANPR/ANPR_RZA2M_EBK/src/tensorflow_lite/tensorflow/lite/kernels/internal/reference\log_softmax.h ****       output_data[i * depth + c] = input_data[i * depth + c] - max - log_sum;
 6956              		.loc 7 54 0
 6957 132c 010080E2 		add	r0, r0, #1
 6958              	.LVL503:
 6959 1330 00005BE1 		cmp	fp, r0
  55:C:/Renesas/e2studio_2021_01_workspace_RZA2M_ANPR/ANPR_RZA2M_EBK/src/tensorflow_lite/tensorflow/lite/kernels/internal/reference\log_softmax.h ****     }
 6960              		.loc 7 55 0
 6961 1334 C87A77EE 		vsub.f32	s15, s15, s16
 6962 1338 C07A77EE 		vsub.f32	s15, s15, s0
 6963 133c 017AE3EC 		vstmia.32	r3!, {s15}
  54:C:/Renesas/e2studio_2021_01_workspace_RZA2M_ANPR/ANPR_RZA2M_EBK/src/tensorflow_lite/tensorflow/lite/kernels/internal/reference\log_softmax.h ****       output_data[i * depth + c] = input_data[i * depth + c] - max - log_sum;
 6964              		.loc 7 54 0
 6965 1340 F8FFFFCA 		bgt	.L167
 6966 1344 66FEFFEA 		b	.L166
 6967              	.LVL504:
 6968              	.L403:
 6969              	.LBE4549:
 6970              	.LBE4552:
 6971              	.LBE4643:
 6972              	.LBE4653:
 6973              	.LBE4669:
 6974              	.LBE4675:
 6975              	.LBB4676:
 6976              	.LBB4506:
 6977              	.LBB4494:
 6978              	.LBB4488:
 6979              	.LBB4482:
 6980              	.LBB4476:
 6981              	.LBB4466:
 6982              	.LBB4330:
 6983              	.LBB4314:
 6984              	.LBB4295:
 6985              	.LBB4090:
 6986              	.LBB4084:
 6987              	.LBB4078:
 335:C:/Renesas/e2studio_2021_01_workspace_RZA2M_ANPR/ANPR_RZA2M_EBK/src/tensorflow_lite/third_party/gemmlowp/fixedpoint\fixedpoint.h ****   std::int32_t ab_x2_high32 =
 6988              		.loc 5 335 0
 6989 1348 0701A0E3 		mov	r0, #-1073741823
 6990 134c 0010E0E3 		mvn	r1, #0
 6991 1350 0680A0E1 		mov	r8, r6
 6992              	.LVL505:
 6993 1354 0790A0E1 		mov	r9, r7
 6994 1358 97FEFFEA 		b	.L245
 6995              	.LVL506:
 6996              	.L265:
 6997              	.LBE4078:
 6998              	.LBE4084:
 6999              	.LBE4090:
 7000              	.LBE4295:
 7001              	.LBE4314:
 7002              	.LBE4330:
 7003              	.LBE4466:
 7004              	.LBB4467:
 181:C:/Renesas/e2studio_2021_01_workspace_RZA2M_ANPR/ANPR_RZA2M_EBK/src/tensorflow_lite/tensorflow/lite/kernels/internal/reference\log_softmax.h ****       max_in_row =
 7005              		.loc 7 181 0
 7006 135c 0020A0E3 		mov	r2, #0
 7007 1360 0370A0E1 		mov	r7, r3
 7008 1364 0030A0E3 		mov	r3, #0
 7009 1368 0280A0E1 		mov	r8, r2
 7010 136c F820CDE1 		strd	r2, [sp, #8]
 7011 1370 0390A0E1 		mov	r9, r3
 7012 1374 67FCFFEA 		b	.L175
 7013              	.LVL507:
 7014              	.L124:
 7015 1378 050051E3 		cmp	r1, #5
 7016 137c 240000CA 		bgt	.L137
 7017              	.LBE4467:
 7018              	.LBE4476:
 7019              	.LBE4482:
 7020              	.LBE4488:
 7021              	.LBE4494:
 7022              	.LBE4506:
 7023              	.LBE4676:
 7024              	.LBB4677:
 7025              	.LBB4670:
 7026              	.LBB4654:
 7027              	.LBB4644:
 7028              	.LBB4626:
 7029              	.LBB4619:
 689:C:/Renesas/e2studio_2021_01_workspace_RZA2M_ANPR/ANPR_RZA2M_EBK/src/tensorflow_lite/tensorflow/lite/kernels/internal\types.h ****       TFLITE_DCHECK_EQ(shape.Dims(i), check_shape_0.Dims(i));
 7030              		.loc 4 689 0
 7031 1380 000052E3 		cmp	r2, #0
 7032 1384 13FFFF0A 		beq	.L302
 7033              		.loc 4 690 0
 7034 1388 003094E5 		ldr	r3, [r4]
 7035 138c 030055E1 		cmp	r5, r3
 7036 1390 1700001A 		bne	.L128
 7037              	.LVL508:
 689:C:/Renesas/e2studio_2021_01_workspace_RZA2M_ANPR/ANPR_RZA2M_EBK/src/tensorflow_lite/tensorflow/lite/kernels/internal\types.h ****       TFLITE_DCHECK_EQ(shape.Dims(i), check_shape_0.Dims(i));
 7038              		.loc 4 689 0
 7039 1394 010052E3 		cmp	r2, #1
 7040 1398 0EFFFF0A 		beq	.L302
 7041              		.loc 4 690 0
 7042 139c 90009DE5 		ldr	r0, [sp, #144]
 7043 13a0 043094E5 		ldr	r3, [r4, #4]
 7044 13a4 030050E1 		cmp	r0, r3
 7045 13a8 1100001A 		bne	.L128
 7046              	.LVL509:
 689:C:/Renesas/e2studio_2021_01_workspace_RZA2M_ANPR/ANPR_RZA2M_EBK/src/tensorflow_lite/tensorflow/lite/kernels/internal\types.h ****       TFLITE_DCHECK_EQ(shape.Dims(i), check_shape_0.Dims(i));
 7047              		.loc 4 689 0
 7048 13ac 020052E3 		cmp	r2, #2
 7049 13b0 08FFFF0A 		beq	.L302
 7050              		.loc 4 690 0
 7051 13b4 080094E5 		ldr	r0, [r4, #8]
 7052 13b8 94309DE5 		ldr	r3, [sp, #148]
 7053 13bc 030050E1 		cmp	r0, r3
 7054 13c0 0B00001A 		bne	.L128
 7055              	.LVL510:
 689:C:/Renesas/e2studio_2021_01_workspace_RZA2M_ANPR/ANPR_RZA2M_EBK/src/tensorflow_lite/tensorflow/lite/kernels/internal\types.h ****       TFLITE_DCHECK_EQ(shape.Dims(i), check_shape_0.Dims(i));
 7056              		.loc 4 689 0
 7057 13c4 030052E3 		cmp	r2, #3
 7058 13c8 02FFFF0A 		beq	.L302
 7059              		.loc 4 690 0
 7060 13cc 0C0094E5 		ldr	r0, [r4, #12]
 7061 13d0 98309DE5 		ldr	r3, [sp, #152]
 7062 13d4 030050E1 		cmp	r0, r3
 7063 13d8 0500001A 		bne	.L128
 7064              	.LVL511:
 689:C:/Renesas/e2studio_2021_01_workspace_RZA2M_ANPR/ANPR_RZA2M_EBK/src/tensorflow_lite/tensorflow/lite/kernels/internal\types.h ****       TFLITE_DCHECK_EQ(shape.Dims(i), check_shape_0.Dims(i));
 7065              		.loc 4 689 0
 7066 13dc 040052E3 		cmp	r2, #4
 7067 13e0 FCFEFF0A 		beq	.L302
 7068              		.loc 4 690 0
 7069 13e4 103094E5 		ldr	r3, [r4, #16]
 7070 13e8 9C009DE5 		ldr	r0, [sp, #156]
 7071 13ec 030050E1 		cmp	r0, r3
 7072 13f0 F6FEFF0A 		beq	.L130
 7073              	.LVL512:
 7074              	.L128:
 7075              	.LEHB7:
 7076 13f4 FEFFFFEB 		bl	abort
 7077              	.LVL513:
 7078              	.LEHE7:
 7079              	.L263:
 7080              	.LBE4619:
 7081              	.LBE4626:
 7082              	.LBE4644:
 7083              	.LBB4645:
 7084              	.LBB4553:
 7085              	.LBB4550:
  42:C:/Renesas/e2studio_2021_01_workspace_RZA2M_ANPR/ANPR_RZA2M_EBK/src/tensorflow_lite/tensorflow/lite/kernels/internal/reference\log_softmax.h ****       max = std::max(max, input_data[i * depth + c]);
 7086              		.loc 7 42 0
 7087 13f8 00A0A0E3 		mov	r10, #0
 7088 13fc 87FFFFEA 		b	.L159
 7089              	.LVL514:
 7090              	.L262:
 7091 1400 028A9FED 		vldr.32	s16, .L412+4
 7092 1404 0020A0E3 		mov	r2, #0
 7093 1408 4CFFFFEA 		b	.L156
 7094              	.L413:
 7095              		.align	2
 7096              	.L412:
 7097 140c 00000000 		.word	0
 7098 1410 FFFF7FFF 		.word	-8388609
 7099              	.LVL515:
 7100              	.L137:
 7101              	.LBE4550:
 7102              	.LBE4553:
 7103              	.LBE4645:
 7104              	.LBB4646:
 7105              	.LBB4627:
 7106              	.LBB4620:
 7107              	.LBB4598:
 7108              	.LBB4569:
 216:C:/Renesas/e2studio_2021_01_workspace_RZA2M_ANPR/ANPR_RZA2M_EBK/src/tensorflow_lite/tensorflow/lite/kernels/internal\types.h ****   }
 7109              		.loc 4 216 0
 7110 1414 0030A0E3 		mov	r3, #0
 7111              	.LVL516:
 7112              	.L144:
 7113              	.LBE4569:
 7114              	.LBE4598:
 689:C:/Renesas/e2studio_2021_01_workspace_RZA2M_ANPR/ANPR_RZA2M_EBK/src/tensorflow_lite/tensorflow/lite/kernels/internal\types.h ****       TFLITE_DCHECK_EQ(shape.Dims(i), check_shape_0.Dims(i));
 7115              		.loc 4 689 0
 7116 1418 030052E1 		cmp	r2, r3
 7117 141c 0500000A 		beq	.L142
 7118              	.LVL517:
 7119              	.LBB4599:
 7120              	.LBB4570:
 215:C:/Renesas/e2studio_2021_01_workspace_RZA2M_ANPR/ANPR_RZA2M_EBK/src/tensorflow_lite/tensorflow/lite/kernels/internal\types.h ****     return size_ > kMaxSmallSize ? dims_pointer_[i] : dims_[i];
 7121              		.loc 4 215 0
 7122 1420 03005CE1 		cmp	ip, r3
 7123              	.LBE4570:
 7124              	.LBE4599:
 7125              	.LBB4600:
 7126              	.LBB4582:
 216:C:/Renesas/e2studio_2021_01_workspace_RZA2M_ANPR/ANPR_RZA2M_EBK/src/tensorflow_lite/tensorflow/lite/kernels/internal\types.h ****   }
 7127              		.loc 4 216 0
 7128 1424 03E195E7 		ldr	lr, [r5, r3, lsl #2]
 7129              	.LVL518:
 7130              	.LBE4582:
 7131              	.LBE4600:
 7132              	.LBB4601:
 7133              	.LBB4571:
 215:C:/Renesas/e2studio_2021_01_workspace_RZA2M_ANPR/ANPR_RZA2M_EBK/src/tensorflow_lite/tensorflow/lite/kernels/internal\types.h ****     return size_ > kMaxSmallSize ? dims_pointer_[i] : dims_[i];
 7134              		.loc 4 215 0
 7135 1428 310000DA 		ble	.L127
 7136              	.LVL519:
 7137              	.LBE4571:
 7138              	.LBE4601:
 7139              		.loc 4 690 0
 7140 142c 030194E7 		ldr	r0, [r4, r3, lsl #2]
 7141 1430 00005EE1 		cmp	lr, r0
 7142 1434 EEFFFF1A 		bne	.L128
 7143              	.L142:
 688:C:/Renesas/e2studio_2021_01_workspace_RZA2M_ANPR/ANPR_RZA2M_EBK/src/tensorflow_lite/tensorflow/lite/kernels/internal\types.h ****     if (i != skip_dim) {
 7144              		.loc 4 688 0
 7145 1438 013083E2 		add	r3, r3, #1
 7146              	.LVL520:
 7147 143c 030051E1 		cmp	r1, r3
 7148 1440 F4FFFF1A 		bne	.L144
 7149              	.LVL521:
 7150              	.L123:
 7151              	.LBE4620:
 7152              	.LBB4621:
 7153              	.LBB4616:
 675:C:/Renesas/e2studio_2021_01_workspace_RZA2M_ANPR/ANPR_RZA2M_EBK/src/tensorflow_lite/tensorflow/lite/kernels/internal\types.h ****   const auto* dims_data = shape.DimsData();
 7154              		.loc 4 675 0
 7155 1444 000052E3 		cmp	r2, #0
 7156 1448 720000BA 		blt	.L248
 7157 144c A0C09DE5 		ldr	ip, [sp, #160]
 7158              	.LVL522:
 7159              	.L126:
 7160              	.LBB4613:
 7161              	.LBB4611:
 232:C:/Renesas/e2studio_2021_01_workspace_RZA2M_ANPR/ANPR_RZA2M_EBK/src/tensorflow_lite/tensorflow/lite/kernels/internal\types.h ****   }
 7162              		.loc 4 232 0
 7163 1450 050051E3 		cmp	r1, #5
 7164 1454 130000DA 		ble	.L145
 7165 1458 8CE09DE5 		ldr	lr, [sp, #140]
 7166              	.LVL523:
 7167 145c DEFEFFEA 		b	.L244
 7168              	.LVL524:
 7169              	.L406:
 7170              	.LBE4611:
 7171              	.LBE4613:
 7172              	.LBE4616:
 7173              	.LBE4621:
 7174              	.LBE4627:
 7175              	.LBE4646:
 7176              	.LBB4647:
 7177              	.LBB4641:
 7178              	.LBB4639:
 7179              	.LBB4635:
 216:C:/Renesas/e2studio_2021_01_workspace_RZA2M_ANPR/ANPR_RZA2M_EBK/src/tensorflow_lite/tensorflow/lite/kernels/internal\types.h ****   }
 7180              		.loc 4 216 0
 7181 1460 8C309DE5 		ldr	r3, [sp, #140]
 7182 1464 02B193E7 		ldr	fp, [r3, r2, lsl #2]
 7183 1468 E9FEFFEA 		b	.L149
 7184              	.LVL525:
 7185              	.L125:
 7186 146c A0008DE2 		add	r0, sp, #160
 7187              	.LVL526:
 7188              	.LBE4635:
 7189              	.LBE4639:
 7190              	.LBE4641:
 7191              	.LBE4647:
 7192              	.LBB4648:
 7193              	.LBB4628:
 7194              	.LBB4622:
 7195              	.LBB4602:
 7196              	.LBB4572:
 7197 1470 0030A0E3 		mov	r3, #0
 7198              	.LVL527:
 7199              	.L136:
 7200              	.LBE4572:
 7201              	.LBE4602:
 689:C:/Renesas/e2studio_2021_01_workspace_RZA2M_ANPR/ANPR_RZA2M_EBK/src/tensorflow_lite/tensorflow/lite/kernels/internal\types.h ****       TFLITE_DCHECK_EQ(shape.Dims(i), check_shape_0.Dims(i));
 7202              		.loc 4 689 0
 7203 1474 030052E1 		cmp	r2, r3
 7204 1478 0500000A 		beq	.L134
 7205              	.LVL528:
 7206              	.LBB4603:
 7207              	.LBB4573:
 215:C:/Renesas/e2studio_2021_01_workspace_RZA2M_ANPR/ANPR_RZA2M_EBK/src/tensorflow_lite/tensorflow/lite/kernels/internal\types.h ****     return size_ > kMaxSmallSize ? dims_pointer_[i] : dims_[i];
 7208              		.loc 4 215 0
 7209 147c 03005CE1 		cmp	ip, r3
 7210              	.LBE4573:
 7211              	.LBE4603:
 7212              	.LBB4604:
 7213              	.LBB4583:
 216:C:/Renesas/e2studio_2021_01_workspace_RZA2M_ANPR/ANPR_RZA2M_EBK/src/tensorflow_lite/tensorflow/lite/kernels/internal\types.h ****   }
 7214              		.loc 4 216 0
 7215 1480 03E195E7 		ldr	lr, [r5, r3, lsl #2]
 7216              	.LVL529:
 7217              	.LBE4583:
 7218              	.LBE4604:
 7219              	.LBB4605:
 7220              	.LBB4574:
 215:C:/Renesas/e2studio_2021_01_workspace_RZA2M_ANPR/ANPR_RZA2M_EBK/src/tensorflow_lite/tensorflow/lite/kernels/internal\types.h ****     return size_ > kMaxSmallSize ? dims_pointer_[i] : dims_[i];
 7221              		.loc 4 215 0
 7222 1484 1A0000DA 		ble	.L127
 7223              	.LVL530:
 7224              	.LBE4574:
 7225              	.LBE4605:
 7226              		.loc 4 690 0
 7227 1488 044090E5 		ldr	r4, [r0, #4]
 7228 148c 0E0054E1 		cmp	r4, lr
 7229 1490 D7FFFF1A 		bne	.L128
 7230              	.L134:
 688:C:/Renesas/e2studio_2021_01_workspace_RZA2M_ANPR/ANPR_RZA2M_EBK/src/tensorflow_lite/tensorflow/lite/kernels/internal\types.h ****     if (i != skip_dim) {
 7231              		.loc 4 688 0
 7232 1494 013083E2 		add	r3, r3, #1
 7233              	.LVL531:
 7234 1498 040080E2 		add	r0, r0, #4
 7235 149c 030051E1 		cmp	r1, r3
 7236 14a0 F3FFFF1A 		bne	.L136
 7237 14a4 E6FFFFEA 		b	.L123
 7238              	.LVL532:
 7239              	.L145:
 7240              	.LBE4622:
 7241              	.LBB4623:
 7242              	.LBB4617:
 7243              	.LBB4614:
 678:C:/Renesas/e2studio_2021_01_workspace_RZA2M_ANPR/ANPR_RZA2M_EBK/src/tensorflow_lite/tensorflow/lite/kernels/internal\types.h ****     flat_size *= (i == skip_dim) ? 1 : dims_data[i];
 7244              		.loc 4 678 0
 7245 14a8 000051E3 		cmp	r1, #0
 7246              	.LBE4614:
 677:C:/Renesas/e2studio_2021_01_workspace_RZA2M_ANPR/ANPR_RZA2M_EBK/src/tensorflow_lite/tensorflow/lite/kernels/internal\types.h ****   for (int i = 0; i < dims_count; ++i) {
 7247              		.loc 4 677 0
 7248 14ac 0170A0D3 		movle	r7, #1
 7249              	.LVL533:
 7250              	.LBB4615:
 678:C:/Renesas/e2studio_2021_01_workspace_RZA2M_ANPR/ANPR_RZA2M_EBK/src/tensorflow_lite/tensorflow/lite/kernels/internal\types.h ****     flat_size *= (i == skip_dim) ? 1 : dims_data[i];
 7251              		.loc 4 678 0
 7252 14b0 D4FEFFDA 		ble	.L148
 7253 14b4 C7FEFFEA 		b	.L302
 7254              	.LVL534:
 7255              	.L304:
 7256              	.L378:
 7257              	.LBE4615:
 7258              	.LBE4617:
 7259              	.LBE4623:
 7260              	.LBE4628:
 7261              	.LBE4648:
 7262              	.LBE4654:
 7263              	.LBE4670:
 7264              	.LBE4677:
 7265              	.LBB4678:
 7266              	.LBB4507:
 7267              	.LBB4508:
 203:C:/Renesas/e2studio_2021_01_workspace_RZA2M_ANPR/ANPR_RZA2M_EBK/src/tensorflow_lite/tensorflow/lite/kernels/internal\types.h **** #ifdef TF_LITE_STATIC_MEMORY
 7268              		.loc 4 203 0
 7269 14b8 A0309DE5 		ldr	r3, [sp, #160]
 7270 14bc 050053E3 		cmp	r3, #5
 7271 14c0 030000DA 		ble	.L235
 207:C:/Renesas/e2studio_2021_01_workspace_RZA2M_ANPR/ANPR_RZA2M_EBK/src/tensorflow_lite/tensorflow/lite/kernels/internal\types.h **** #endif  // TF_LITE_STATIC_MEMORY
 7272              		.loc 4 207 0
 7273 14c4 A4009DE5 		ldr	r0, [sp, #164]
 7274 14c8 000050E3 		cmp	r0, #0
 7275 14cc 0000000A 		beq	.L235
 7276 14d0 FEFFFFEB 		bl	_ZdaPv
 7277              	.LVL535:
 7278              	.L235:
 7279              	.LBE4508:
 7280              	.LBE4507:
 7281              	.LBB4509:
 7282              	.LBB4510:
 203:C:/Renesas/e2studio_2021_01_workspace_RZA2M_ANPR/ANPR_RZA2M_EBK/src/tensorflow_lite/tensorflow/lite/kernels/internal\types.h **** #ifdef TF_LITE_STATIC_MEMORY
 7283              		.loc 4 203 0
 7284 14d4 88309DE5 		ldr	r3, [sp, #136]
 7285 14d8 050053E3 		cmp	r3, #5
 7286 14dc 030000DA 		ble	.L236
 207:C:/Renesas/e2studio_2021_01_workspace_RZA2M_ANPR/ANPR_RZA2M_EBK/src/tensorflow_lite/tensorflow/lite/kernels/internal\types.h **** #endif  // TF_LITE_STATIC_MEMORY
 7287              		.loc 4 207 0
 7288 14e0 8C009DE5 		ldr	r0, [sp, #140]
 7289 14e4 000050E3 		cmp	r0, #0
 7290 14e8 0000000A 		beq	.L236
 7291 14ec FEFFFFEB 		bl	_ZdaPv
 7292              	.LVL536:
 7293              	.L236:
 7294              	.LEHB8:
 7295 14f0 FEFFFFEB 		bl	__cxa_end_cleanup
 7296              	.LVL537:
 7297              	.LEHE8:
 7298              	.L127:
 7299              	.LEHB9:
 7300              	.LBE4510:
 7301              	.LBE4509:
 7302              	.LBE4678:
 7303              	.LBB4679:
 7304              	.LBB4671:
 7305              	.LBB4655:
 7306              	.LBB4649:
 7307              	.LBB4629:
 7308              	.LBB4624:
 7309              	.LBB4606:
 7310              	.LBB4575:
 215:C:/Renesas/e2studio_2021_01_workspace_RZA2M_ANPR/ANPR_RZA2M_EBK/src/tensorflow_lite/tensorflow/lite/kernels/internal\types.h ****     return size_ > kMaxSmallSize ? dims_pointer_[i] : dims_[i];
 7311              		.loc 4 215 0
 7312 14f4 FEFFFFEB 		bl	abort
 7313              	.LVL538:
 7314              	.LEHE9:
 7315              	.L401:
 7316              	.LBE4575:
 7317              	.LBE4606:
 7318              	.LBE4624:
 7319              	.LBE4629:
 7320              	.LBE4649:
 7321              	.LBE4655:
 7322              	.LBE4671:
 7323              	.LBE4679:
 7324              	.LBB4680:
 7325              	.LBB4511:
 7326              	.LBB4495:
 7327              	.LBB4489:
 7328              	.LBB4483:
 7329              	.LBB4477:
 7330              	.LBB4468:
 7331              	.LBB4456:
 7332              	.LBB4449:
 7333              	.LBB4442:
 7334              	.LBB4435:
 7335              	.LBB4405:
 7336              	.LBB4399:
 7337              	.LBB4395:
 359:C:/Renesas/e2studio_2021_01_workspace_RZA2M_ANPR/ANPR_RZA2M_EBK/src/tensorflow_lite/third_party/gemmlowp/fixedpoint\fixedpoint.h ****   const IntegerType mask = Dup<IntegerType>((1ll << exponent) - 1);
 7338              		.loc 5 359 0
 7339 14f8 003000E3 		movw	r3, #:lower16:.LC13
 7340 14fc 002000E3 		movw	r2, #:lower16:.LANCHOR1
 7341 1500 000000E3 		movw	r0, #:lower16:.LC14
 7342 1504 003040E3 		movt	r3, #:upper16:.LC13
 7343 1508 002040E3 		movt	r2, #:upper16:.LANCHOR1
 7344 150c 000040E3 		movt	r0, #:upper16:.LC14
 7345 1510 671100E3 		movw	r1, #359
 7346              	.LEHB10:
 7347 1514 FEFFFFEB 		bl	__assert_func
 7348              	.LVL539:
 7349              	.LEHE10:
 7350              	.L306:
 7351 1518 E6FFFFEA 		b	.L378
 7352              	.LVL540:
 7353              	.L408:
 7354              	.LEHB11:
 7355              	.LBE4395:
 7356              	.LBE4399:
 7357              	.LBE4405:
 7358              	.LBE4435:
 7359              	.LBE4442:
 7360              	.LBE4449:
 7361              	.LBE4456:
 7362              	.LBE4468:
 7363              	.LBE4477:
 7364              	.LBE4483:
 7365              	.LBE4489:
 7366              	.LBE4495:
 7367              	.LBE4511:
 7368              	.LBE4680:
 7369              	.LBB4681:
 7370              	.LBB4672:
 7371              	.LBB4656:
 7372              	.LBB4650:
 7373              	.LBB4642:
 472:C:/Renesas/e2studio_2021_01_workspace_RZA2M_ANPR/ANPR_RZA2M_EBK/src/tensorflow_lite/tensorflow/lite/kernels/internal\types.h ****   return std::min(shape1.Dims(index1), shape2.Dims(index2));
 7374              		.loc 4 472 0
 7375 151c FEFFFFEB 		bl	abort
 7376              	.LVL541:
 7377              	.L407:
 7378              	.LBB4640:
 7379              	.LBB4638:
 215:C:/Renesas/e2studio_2021_01_workspace_RZA2M_ANPR/ANPR_RZA2M_EBK/src/tensorflow_lite/tensorflow/lite/kernels/internal\types.h ****     return size_ > kMaxSmallSize ? dims_pointer_[i] : dims_[i];
 7380              		.loc 4 215 0
 7381 1520 FEFFFFEB 		bl	abort
 7382              	.LVL542:
 7383              	.LEHE11:
 7384              	.L395:
 7385              	.LBE4638:
 7386              	.LBE4640:
 7387              	.LBE4642:
 7388              	.LBE4650:
 7389              	.LBE4656:
 7390              	.LBE4672:
 7391              	.LBE4681:
 7392              	.LBB4682:
 7393              	.LBB4512:
 7394              	.LBB4496:
 7395              	.LBB4490:
 7396              	.LBB4484:
 7397              	.LBB4478:
 7398              	.LBB4469:
 7399              	.LBB4331:
 7400              	.LBB4315:
 7401              	.LBB4296:
 7402              	.LBB3949:
 234:C:/Renesas/e2studio_2021_01_workspace_RZA2M_ANPR/ANPR_RZA2M_EBK/src/tensorflow_lite/tensorflow/lite/kernels/internal\common.h ****                        : std::numeric_limits<T>::digits;
 7403              		.loc 8 234 0
 7404 1524 102F6FE1 		clz	r2, r0
 7405              	.LVL543:
 7406              	.LBE3949:
 7407              	.LBE4296:
 7408              	.LBB4297:
 7409              	.LBB4002:
 457:C:/Renesas/e2studio_2021_01_workspace_RZA2M_ANPR/ANPR_RZA2M_EBK/src/tensorflow_lite/tensorflow/lite/kernels/internal\common.h ****     return x;
 7410              		.loc 8 457 0
 7411 1528 011052E2 		subs	r1, r2, #1
 7412              	.LVL544:
 7413 152c 5E35A003 		moveq	r3, #394264576
 7414 1530 84FCFF0A 		beq	.L201
 7415 1534 0130A0E3 		mov	r3, #1
 7416 1538 1F2061E2 		rsb	r2, r1, #31
 7417 153c 0C0061E2 		rsb	r0, r1, #12
 7418 1540 1311A0E1 		lsl	r1, r3, r1
 7419              	.LVL545:
 7420 1544 1382A0E1 		lsl	r8, r3, r2
 7421 1548 803CA0E1 		lsl	r3, r0, #25
 7422 154c 901B80EE 		vdup.32	d16, r1
 7423 1550 012048E2 		sub	r2, r8, #1
 7424 1554 023543E2 		sub	r3, r3, #8388608
 7425 1558 018068E2 		rsb	r8, r8, #1
 7426 155c B000E0F2 		vshr.s64	d16, d16, #32
 7427 1560 000BCDED 		vstr.64	d16, [sp]	@ int
 7428 1564 52FCFFEA 		b	.L200
 7429              	.LVL546:
 7430              	.L396:
 7431              	.LBE4002:
 7432              	.LBE4297:
 7433              	.LBB4298:
 7434              	.LBB4047:
 7435              	.LBB4039:
 7436              	.LBB4031:
 338:C:/Renesas/e2studio_2021_01_workspace_RZA2M_ANPR/ANPR_RZA2M_EBK/src/tensorflow_lite/third_party/gemmlowp/fixedpoint\fixedpoint.h **** }
 7437              		.loc 5 338 0
 7438 1568 623A09E3 		movw	r3, #39522
 7439 156c 0261E0E3 		mvn	r6, #-2147483648
 7440 1570 63384FE3 		movt	r3, 63587
 7441 1574 0070A0E3 		mov	r7, #0
 7442              	.LVL547:
 7443 1578 00308DE5 		str	r3, [sp]
 7444 157c CE3203E3 		movw	r3, #13006
 7445 1580 CE3340E3 		movt	r3, 974
 7446 1584 04308DE5 		str	r3, [sp, #4]
 7447 1588 0231E0E3 		mvn	r3, #-2147483648
 7448 158c 46FEFFEA 		b	.L247
 7449              	.LVL548:
 7450              	.L394:
 7451              	.LBE4031:
 7452              	.LBE4039:
 7453              	.LBE4047:
 7454              	.LBE4298:
 7455              	.LBB4299:
 7456              	.LBB3942:
 7457              	.LBB3941:
 7458              	.LBB3940:
 7459              	.LBB3939:
 7460              	.LBB3921:
 7461              	.LBB3920:
 158:C:/Renesas/e2studio_2021_01_workspace_RZA2M_ANPR/ANPR_RZA2M_EBK/src/tensorflow_lite/third_party/gemmlowp/fixedpoint\fixedpoint.h **** }
 7462              		.loc 5 158 0
 7463 1590 0251E0E3 		mvn	r5, #-2147483648
 7464 1594 00C0A0E3 		mov	ip, #0
 7465 1598 0560A0E1 		mov	r6, r5
 7466 159c 0C40A0E1 		mov	r4, ip
 7467 15a0 00E0E0E3 		mvn	lr, #0
 7468 15a4 19FCFFEA 		b	.L197
 7469              	.LVL549:
 7470              	.L392:
 7471              	.LBE3920:
 7472              	.LBE3921:
 7473              	.LBE3939:
 7474              	.LBE3940:
 7475              	.LBE3941:
 7476              	.LBE3942:
 7477              	.LBE4299:
 7478              	.LBE4315:
 7479              	.LBE4331:
 7480              	.LBE4469:
 7481              	.LBB4470:
 181:C:/Renesas/e2studio_2021_01_workspace_RZA2M_ANPR/ANPR_RZA2M_EBK/src/tensorflow_lite/tensorflow/lite/kernels/internal/reference\log_softmax.h ****       max_in_row =
 7482              		.loc 7 181 0
 7483 15a8 18309DE5 		ldr	r3, [sp, #24]
 7484 15ac 38109DE5 		ldr	r1, [sp, #56]
 7485              	.LVL550:
 7486              	.L189:
 7487              	.LBE4470:
 7488              	.LBB4471:
 7489              	.LBB3787:
 190:C:/Renesas/e2studio_2021_01_workspace_RZA2M_ANPR/ANPR_RZA2M_EBK/src/tensorflow_lite/tensorflow/lite/kernels/internal/reference\log_softmax.h ****           max_in_row;
 7490              		.loc 7 190 0
 7491 15b0 D120D3E0 		ldrsb	r2, [r3], #1
 7492              	.LVL551:
 191:C:/Renesas/e2studio_2021_01_workspace_RZA2M_ANPR/ANPR_RZA2M_EBK/src/tensorflow_lite/tensorflow/lite/kernels/internal/reference\log_softmax.h ****       if (input_diff >= diff_min) {
 7493              		.loc 7 191 0
 7494 15b4 042042E0 		sub	r2, r2, r4
 7495              	.LVL552:
 7496              	.LBB3776:
 192:C:/Renesas/e2studio_2021_01_workspace_RZA2M_ANPR/ANPR_RZA2M_EBK/src/tensorflow_lite/tensorflow/lite/kernels/internal/reference\log_softmax.h ****         const int32_t input_diff_in_q5 = MultiplyByQuantizedMultiplier(
 7497              		.loc 7 192 0
 7498 15b8 020051E1 		cmp	r1, r2
 7499 15bc 050000DA 		ble	.L409
 7500              	.LBE3776:
 7501              	.LBE3787:
 188:C:/Renesas/e2studio_2021_01_workspace_RZA2M_ANPR/ANPR_RZA2M_EBK/src/tensorflow_lite/tensorflow/lite/kernels/internal/reference\log_softmax.h ****       int32_t input_diff =
 7502              		.loc 7 188 0
 7503 15c0 03005BE1 		cmp	fp, r3
 7504 15c4 F9FFFF1A 		bne	.L189
 7505 15c8 0070A0E3 		mov	r7, #0
 7506 15cc C9FBFFEA 		b	.L188
 7507              	.LVL553:
 7508              	.L389:
 7509              	.LEHB12:
 7510              	.LBE4471:
 7511              	.LBE4478:
 7512              	.LBE4484:
 7513              	.LBE4490:
 7514              	.LBE4496:
 7515              	.LBE4512:
 7516              	.LBE4682:
 7517              	.LBE4686:
 7518              	.LBE4689:
 7519              	.LBB4690:
 7520              	.LBB3648:
 7521              	.LBB3645:
  34:C:/Renesas/e2studio_2021_01_workspace_RZA2M_ANPR/ANPR_RZA2M_EBK/src/tensorflow_lite/tensorflow/lite/micro/kernels\kernel_util.h ****   TFLITE_DCHECK(node != nullptr);
 7522              		.loc 6 34 0
 7523 15d0 FEFFFFEB 		bl	abort
 7524              	.LVL554:
 7525              	.LEHE12:
 7526              	.L305:
 7527 15d4 BEFFFFEA 		b	.L235
 7528              	.LVL555:
 7529              	.L409:
 7530              	.LBE3645:
 7531              	.LBE3648:
 7532              	.LBE4690:
 7533              	.LBB4691:
 7534              	.LBB4687:
 7535              	.LBB4683:
 7536              	.LBB4513:
 7537              	.LBB4497:
 7538              	.LBB4491:
 7539              	.LBB4485:
 7540              	.LBB4479:
 7541              	.LBB4472:
 7542              	.LBB3788:
 7543              	.LBB3777:
 7544              	.LBB3766:
 7545              	.LBB3756:
 7546              	.LBB3719:
 7547              	.LBB3710:
 7548              	.LBB3696:
 359:C:/Renesas/e2studio_2021_01_workspace_RZA2M_ANPR/ANPR_RZA2M_EBK/src/tensorflow_lite/third_party/gemmlowp/fixedpoint\fixedpoint.h ****   const IntegerType mask = Dup<IntegerType>((1ll << exponent) - 1);
 7549              		.loc 5 359 0
 7550 15d8 003000E3 		movw	r3, #:lower16:.LC13
 7551              	.LVL556:
 7552 15dc 002000E3 		movw	r2, #:lower16:.LANCHOR1
 7553 15e0 000000E3 		movw	r0, #:lower16:.LC14
 7554 15e4 003040E3 		movt	r3, #:upper16:.LC13
 7555 15e8 002040E3 		movt	r2, #:upper16:.LANCHOR1
 7556 15ec 000040E3 		movt	r0, #:upper16:.LC14
 7557 15f0 671100E3 		movw	r1, #359
 7558              	.LEHB13:
 7559 15f4 FEFFFFEB 		bl	__assert_func
 7560              	.LVL557:
 7561              	.L399:
 7562              	.LBE3696:
 7563              	.LBE3710:
 7564              	.LBE3719:
 7565              	.LBE3756:
 7566              	.LBE3766:
 7567              	.LBE3777:
 7568              	.LBE3788:
 7569              	.LBE4472:
 7570              	.LBB4473:
 7571              	.LBB3843:
 7572              	.LBB3832:
 7573              	.LBB3817:
 7574 15f8 003000E3 		movw	r3, #:lower16:.LC13
 7575 15fc 002000E3 		movw	r2, #:lower16:.LANCHOR1
 7576 1600 000000E3 		movw	r0, #:lower16:.LC14
 7577 1604 003040E3 		movt	r3, #:upper16:.LC13
 7578 1608 002040E3 		movt	r2, #:upper16:.LANCHOR1
 7579 160c 000040E3 		movt	r0, #:upper16:.LC14
 7580 1610 671100E3 		movw	r1, #359
 7581 1614 FEFFFFEB 		bl	__assert_func
 7582              	.LVL558:
 7583              	.LEHE13:
 7584              	.L248:
 7585              	.LEHB14:
 7586              	.LBE3817:
 7587              	.LBE3832:
 7588              	.LBE3843:
 7589              	.LBE4473:
 7590              	.LBE4479:
 7591              	.LBE4485:
 7592              	.LBE4491:
 7593              	.LBE4497:
 7594              	.LBE4513:
 7595              	.LBE4683:
 7596              	.LBB4684:
 7597              	.LBB4673:
 7598              	.LBB4657:
 7599              	.LBB4651:
 7600              	.LBB4630:
 7601              	.LBB4625:
 7602              	.LBB4618:
 675:C:/Renesas/e2studio_2021_01_workspace_RZA2M_ANPR/ANPR_RZA2M_EBK/src/tensorflow_lite/tensorflow/lite/kernels/internal\types.h ****   const auto* dims_data = shape.DimsData();
 7603              		.loc 4 675 0
 7604 1618 FEFFFFEB 		bl	abort
 7605              	.LVL559:
 7606              	.LEHE14:
 7607              	.L303:
 7608 161c ACFFFFEA 		b	.L235
 7609              	.LVL560:
 7610              	.L404:
 7611 1620 01E0A0E3 		mov	lr, #1
 7612 1624 1FC060E2 		rsb	ip, r0, #31
 7613 1628 1ECCA0E1 		lsl	ip, lr, ip
 7614 162c 1E00A0E1 		lsl	r0, lr, r0
 7615              	.LVL561:
 7616 1630 0CE061E2 		rsb	lr, r1, #12
 7617 1634 9047C5E0 		smull	r4, r5, r0, r7
 7618 1638 01106CE2 		rsb	r1, ip, #1
 7619              	.LVL562:
 7620 163c 01C04CE2 		sub	ip, ip, #1
 7621 1640 90EB81EE 		vdup.32	d17, lr
 7622 1644 010057E1 		cmp	r7, r1
 7623 1648 B110E0F2 		vshr.s64	d17, d17, #32
 7624 164c 0480A0E1 		mov	r8, r4
 7625 1650 0040A0A3 		movge	r4, #0
 7626 1654 0140A0B3 		movlt	r4, #1
 7627 1658 0590A0E1 		mov	r9, r5
 7628 165c B105D9F2 		vshl.u64	d16, d17, #25
 7629 1660 0C0057E1 		cmp	r7, ip
 7630 1664 00E064E2 		rsb	lr, r4, #0
 7631 1668 01C044E2 		sub	ip, r4, #1
 7632 166c 0010A0D3 		movle	r1, #0
 7633 1670 0110A0C3 		movgt	r1, #1
 7634 1674 304B55EC 		vmov	r4, r5, d16	@ int
 7635 1678 000061E2 		rsb	r0, r1, #0
 7636 167c 024594E2 		adds	r4, r4, #8388608
 7637 1680 0201C0E3 		bic	r0, r0, #-2147483648
 7638 1684 0050A5E2 		adc	r5, r5, #0
 7639 1688 011041E2 		sub	r1, r1, #1
 7640 168c 02E10EE2 		and	lr, lr, #-2147483648
 7641 1690 F040CDE1 		strd	r4, [sp]
 7642 1694 B0FBFFEA 		b	.L193
 7643              	.LBE4618:
 7644              	.LBE4625:
 7645              	.LBE4630:
 7646              	.LBE4651:
 7647              	.LBE4657:
 7648              	.LBE4673:
 7649              	.LBE4684:
 7650              	.LBE4687:
 7651              	.LBE4691:
 7652              		.cfi_endproc
 7653              	.LFE4173:
 7654              		.personality	__gxx_personality_v0
 7655              		.handlerdata
 7656              	.LLSDA4173:
 7657 000c FF       		.byte	0xff
 7658 000d FF       		.byte	0xff
 7659 000e 01       		.byte	0x1
 7660 000f 45       		.uleb128 .LLSDACSE4173-.LLSDACSB4173
 7661              	.LLSDACSB4173:
 7662 0010 2C       		.uleb128 .LEHB3-.LFB4173
 7663 0011 8001     		.uleb128 .LEHE3-.LEHB3
 7664 0013 00       		.uleb128 0
 7665 0014 00       		.uleb128 0
 7666 0015 BC01     		.uleb128 .LEHB4-.LFB4173
 7667 0017 04       		.uleb128 .LEHE4-.LEHB4
 7668 0018 D42B     		.uleb128 .L305-.LFB4173
 7669 001a 00       		.uleb128 0
 7670 001b 9C19     		.uleb128 .LEHB5-.LFB4173
 7671 001d C404     		.uleb128 .LEHE5-.LEHB5
 7672 001f 00       		.uleb128 0
 7673 0020 00       		.uleb128 0
 7674 0021 F01D     		.uleb128 .LEHB6-.LFB4173
 7675 0023 04       		.uleb128 .LEHE6-.LEHB6
 7676 0024 9C2C     		.uleb128 .L303-.LFB4173
 7677 0026 00       		.uleb128 0
 7678 0027 F427     		.uleb128 .LEHB7-.LFB4173
 7679 0029 04       		.uleb128 .LEHE7-.LEHB7
 7680 002a B829     		.uleb128 .L304-.LFB4173
 7681 002c 00       		.uleb128 0
 7682 002d F029     		.uleb128 .LEHB8-.LFB4173
 7683 002f 04       		.uleb128 .LEHE8-.LEHB8
 7684 0030 00       		.uleb128 0
 7685 0031 00       		.uleb128 0
 7686 0032 F429     		.uleb128 .LEHB9-.LFB4173
 7687 0034 04       		.uleb128 .LEHE9-.LEHB9
 7688 0035 B829     		.uleb128 .L304-.LFB4173
 7689 0037 00       		.uleb128 0
 7690 0038 942A     		.uleb128 .LEHB10-.LFB4173
 7691 003a 04       		.uleb128 .LEHE10-.LEHB10
 7692 003b 982A     		.uleb128 .L306-.LFB4173
 7693 003d 00       		.uleb128 0
 7694 003e 9C2A     		.uleb128 .LEHB11-.LFB4173
 7695 0040 08       		.uleb128 .LEHE11-.LEHB11
 7696 0041 B829     		.uleb128 .L304-.LFB4173
 7697 0043 00       		.uleb128 0
 7698 0044 D02B     		.uleb128 .LEHB12-.LFB4173
 7699 0046 04       		.uleb128 .LEHE12-.LEHB12
 7700 0047 00       		.uleb128 0
 7701 0048 00       		.uleb128 0
 7702 0049 F42B     		.uleb128 .LEHB13-.LFB4173
 7703 004b 24       		.uleb128 .LEHE13-.LEHB13
 7704 004c 982A     		.uleb128 .L306-.LFB4173
 7705 004e 00       		.uleb128 0
 7706 004f 982C     		.uleb128 .LEHB14-.LFB4173
 7707 0051 04       		.uleb128 .LEHE14-.LEHB14
 7708 0052 B829     		.uleb128 .L304-.LFB4173
 7709 0054 00       		.uleb128 0
 7710              	.LLSDACSE4173:
 7711              		.section	.text._ZN6tflite12_GLOBAL__N_114LogSoftmaxEvalEP13TfLiteContextP10TfLiteNode
 7712              		.fnend
 7714              		.section	.rodata
 7715              		.align	2
 7716              		.set	.LANCHOR0,. + 0
 7717              	.LC0:
 7718 0000 00000000 		.word	0
 7719 0004 00000000 		.word	0
 7720 0008 00000000 		.word	_ZN6tflite12_GLOBAL__N_117LogSoftmaxPrepareEP13TfLiteContextP10TfLiteNode
 7721 000c 00000000 		.word	_ZN6tflite12_GLOBAL__N_114LogSoftmaxEvalEP13TfLiteContextP10TfLiteNode
 7722 0010 00000000 		.word	0
 7723 0014 00000000 		.word	0
 7724 0018 00000000 		.word	0
 7725 001c 00000000 		.word	0
 7726              		.section	.rodata._ZN6tflite12_GLOBAL__N_114LogSoftmaxEvalEP13TfLiteContextP10TfLiteNode.str1.4,"aM
 7727              		.align	2
 7728              	.LC13:
 7729 0000 6578706F 		.ascii	"exponent <= 31\000"
 7729      6E656E74 
 7729      203C3D20 
 7729      333100
 7730 000f 00       		.space	1
 7731              	.LC14:
 7732 0010 433A2F52 		.ascii	"C:/Renesas/e2studio_2021_01_workspace_RZA2M_ANPR/AN"
 7732      656E6573 
 7732      61732F65 
 7732      32737475 
 7732      64696F5F 
 7733 0043 50525F52 		.ascii	"PR_RZA2M_EBK/src/tensorflow_lite/third_party/gemmlo"
 7733      5A41324D 
 7733      5F45424B 
 7733      2F737263 
 7733      2F74656E 
 7734 0076 77702F66 		.ascii	"wp/fixedpoint/fixedpoint.h\000"
 7734      69786564 
 7734      706F696E 
 7734      742F6669 
 7734      78656470 
 7735 0091 000000   		.space	3
 7736              	.LC15:
 7737 0094 4C4F475F 		.ascii	"LOG_SOFTMAX only supports float32, int8, got %s.\000"
 7737      534F4654 
 7737      4D415820 
 7737      6F6E6C79 
 7737      20737570 
 7738              		.section	.rodata._ZN6tflite12_GLOBAL__N_117LogSoftmaxPrepareEP13TfLiteContextP10TfLiteNode.str1.4,
 7739              		.align	2
 7740              	.LC1:
 7741 0000 2E2E2F73 		.ascii	"../src/tensorflow_lite/tensorflow/lite/micro/kernel"
 7741      72632F74 
 7741      656E736F 
 7741      72666C6F 
 7741      775F6C69 
 7742 0033 732F6C6F 		.ascii	"s/log_softmax.cc\000"
 7742      675F736F 
 7742      66746D61 
 7742      782E6363 
 7742      00
 7743              	.LC2:
 7744 0044 25733A25 		.ascii	"%s:%d %s != %s (%d != %d)\000"
 7744      64202573 
 7744      20213D20 
 7744      25732028 
 7744      25642021 
 7745 005e 0000     		.space	2
 7746              	.LC3:
 7747 0060 3100     		.ascii	"1\000"
 7748 0062 0000     		.space	2
 7749              	.LC4:
 7750 0064 4E756D49 		.ascii	"NumInputs(node)\000"
 7750      6E707574 
 7750      73286E6F 
 7750      64652900 
 7751              	.LC5:
 7752 0074 4E756D4F 		.ascii	"NumOutputs(node)\000"
 7752      75747075 
 7752      7473286E 
 7752      6F646529 
 7752      00
 7753 0085 000000   		.space	3
 7754              	.LC6:
 7755 0088 25733A25 		.ascii	"%s:%d %s != %s (%s != %s)\000"
 7755      64202573 
 7755      20213D20 
 7755      25732028 
 7755      25732021 
 7756 00a2 0000     		.space	2
 7757              	.LC7:
 7758 00a4 6F757470 		.ascii	"output->type\000"
 7758      75742D3E 
 7758      74797065 
 7758      00
 7759 00b1 000000   		.space	3
 7760              	.LC8:
 7761 00b4 696E7075 		.ascii	"input->type\000"
 7761      742D3E74 
 7761      79706500 
 7762              	.LC9:
 7763 00c0 25733A25 		.ascii	"%s:%d %s was not true.\000"
 7763      64202573 
 7763      20776173 
 7763      206E6F74 
 7763      20747275 
 7764 00d7 00       		.space	1
 7765              	.LC10:
 7766 00d8 48617665 		.ascii	"HaveSameShapes(input, output)\000"
 7766      53616D65 
 7766      53686170 
 7766      65732869 
 7766      6E707574 
 7767 00f6 0000     		.space	2
 7768              	.LC11:
 7769 00f8 6F757470 		.ascii	"output->params.scale == kOutputScale\000"
 7769      75742D3E 
 7769      70617261 
 7769      6D732E73 
 7769      63616C65 
 7770 011d 000000   		.space	3
 7771              	.LC12:
 7772 0120 6F757470 		.ascii	"output->params.zero_point == kOutputZeroPoint\000"
 7772      75742D3E 
 7772      70617261 
 7772      6D732E7A 
 7772      65726F5F 
 7773              		.section	.rodata._ZZN8gemmlowp19RoundingDivideByPOTIlEET_S1_iE19__PRETTY_FUNCTION__,"a",%progbits
 7774              		.align	3
 7775              		.set	.LANCHOR1,. + 0
 7778              	_ZZN8gemmlowp19RoundingDivideByPOTIlEET_S1_iE19__PRETTY_FUNCTION__:
 7779 0000 496E7465 		.ascii	"IntegerType gemmlowp::RoundingDivideByPOT(IntegerTy"
 7779      67657254 
 7779      79706520 
 7779      67656D6D 
 7779      6C6F7770 
 7780 0033 70652C20 		.ascii	"pe, int) [with IntegerType = long int]\000"
 7780      696E7429 
 7780      205B7769 
 7780      74682049 
 7780      6E746567 
 7781              		.text
 7782              	.Letext0:
 7783              		.file 11 "c:\\program files (x86)\\gnu tools arm embedded\\6 2017-q2-update\\arm-none-eabi\\includ
 7784              		.file 12 "c:\\program files (x86)\\gnu tools arm embedded\\6 2017-q2-update\\arm-none-eabi\\includ
 7785              		.file 13 "c:\\program files (x86)\\gnu tools arm embedded\\6 2017-q2-update\\arm-none-eabi\\includ
 7786              		.file 14 "c:\\program files (x86)\\gnu tools arm embedded\\6 2017-q2-update\\arm-none-eabi\\includ
 7787              		.file 15 "c:\\program files (x86)\\gnu tools arm embedded\\6 2017-q2-update\\arm-none-eabi\\includ
 7788              		.file 16 "c:\\program files (x86)\\gnu tools arm embedded\\6 2017-q2-update\\arm-none-eabi\\includ
 7789              		.file 17 "c:\\program files (x86)\\gnu tools arm embedded\\6 2017-q2-update\\arm-none-eabi\\includ
 7790              		.file 18 "c:\\program files (x86)\\gnu tools arm embedded\\6 2017-q2-update\\arm-none-eabi\\includ
 7791              		.file 19 "c:\\program files (x86)\\gnu tools arm embedded\\6 2017-q2-update\\arm-none-eabi\\includ
 7792              		.file 20 "c:\\program files (x86)\\gnu tools arm embedded\\6 2017-q2-update\\arm-none-eabi\\includ
 7793              		.file 21 "c:\\program files (x86)\\gnu tools arm embedded\\6 2017-q2-update\\arm-none-eabi\\includ
 7794              		.file 22 "c:\\program files (x86)\\gnu tools arm embedded\\6 2017-q2-update\\arm-none-eabi\\includ
 7795              		.file 23 "c:\\program files (x86)\\gnu tools arm embedded\\6 2017-q2-update\\arm-none-eabi\\includ
 7796              		.file 24 "c:\\program files (x86)\\gnu tools arm embedded\\6 2017-q2-update\\arm-none-eabi\\includ
 7797              		.file 25 "c:\\program files (x86)\\gnu tools arm embedded\\6 2017-q2-update\\arm-none-eabi\\includ
 7798              		.file 26 "c:\\program files (x86)\\gnu tools arm embedded\\6 2017-q2-update\\arm-none-eabi\\includ
 7799              		.file 27 "c:\\program files (x86)\\gnu tools arm embedded\\6 2017-q2-update\\arm-none-eabi\\includ
 7800              		.file 28 "c:\\program files (x86)\\gnu tools arm embedded\\6 2017-q2-update\\arm-none-eabi\\includ
 7801              		.file 29 "c:\\program files (x86)\\gnu tools arm embedded\\6 2017-q2-update\\arm-none-eabi\\includ
 7802              		.file 30 "c:\\program files (x86)\\gnu tools arm embedded\\6 2017-q2-update\\arm-none-eabi\\includ
 7803              		.file 31 "c:\\program files (x86)\\gnu tools arm embedded\\6 2017-q2-update\\arm-none-eabi\\includ
 7804              		.file 32 "c:\\program files (x86)\\gnu tools arm embedded\\6 2017-q2-update\\arm-none-eabi\\includ
 7805              		.file 33 "c:\\program files (x86)\\gnu tools arm embedded\\6 2017-q2-update\\lib\\gcc\\arm-none-ea
 7806              		.file 34 "c:\\program files (x86)\\gnu tools arm embedded\\6 2017-q2-update\\arm-none-eabi\\includ
 7807              		.file 35 "c:\\program files (x86)\\gnu tools arm embedded\\6 2017-q2-update\\arm-none-eabi\\includ
 7808              		.file 36 "c:\\program files (x86)\\gnu tools arm embedded\\6 2017-q2-update\\arm-none-eabi\\includ
 7809              		.file 37 "c:\\program files (x86)\\gnu tools arm embedded\\6 2017-q2-update\\arm-none-eabi\\includ
 7810              		.file 38 "c:\\program files (x86)\\gnu tools arm embedded\\6 2017-q2-update\\arm-none-eabi\\includ
 7811              		.file 39 "c:\\program files (x86)\\gnu tools arm embedded\\6 2017-q2-update\\arm-none-eabi\\includ
 7812              		.file 40 "c:\\program files (x86)\\gnu tools arm embedded\\6 2017-q2-update\\arm-none-eabi\\includ
 7813              		.file 41 "c:\\program files (x86)\\gnu tools arm embedded\\6 2017-q2-update\\arm-none-eabi\\includ
 7814              		.file 42 "c:\\program files (x86)\\gnu tools arm embedded\\6 2017-q2-update\\lib\\gcc\\arm-none-ea
 7815              		.file 43 "<built-in>"
 7816              		.file 44 "c:\\program files (x86)\\gnu tools arm embedded\\6 2017-q2-update\\arm-none-eabi\\includ
 7817              		.file 45 "c:\\program files (x86)\\gnu tools arm embedded\\6 2017-q2-update\\arm-none-eabi\\includ
 7818              		.file 46 "c:\\program files (x86)\\gnu tools arm embedded\\6 2017-q2-update\\arm-none-eabi\\includ
 7819              		.file 47 "c:\\program files (x86)\\gnu tools arm embedded\\6 2017-q2-update\\arm-none-eabi\\includ
 7820              		.file 48 "c:\\program files (x86)\\gnu tools arm embedded\\6 2017-q2-update\\arm-none-eabi\\includ
 7821              		.file 49 "c:\\program files (x86)\\gnu tools arm embedded\\6 2017-q2-update\\arm-none-eabi\\includ
 7822              		.file 50 "C:/Renesas/e2studio_2021_01_workspace_RZA2M_ANPR/ANPR_RZA2M_EBK/src/tensorflow_lite/tens
 7823              		.file 51 "C:/Renesas/e2studio_2021_01_workspace_RZA2M_ANPR/ANPR_RZA2M_EBK/src/tensorflow_lite/tens
 7824              		.file 52 "C:/Renesas/e2studio_2021_01_workspace_RZA2M_ANPR/ANPR_RZA2M_EBK/src/tensorflow_lite/tens
 7825              		.file 53 "C:/Renesas/e2studio_2021_01_workspace_RZA2M_ANPR/ANPR_RZA2M_EBK/src/tensorflow_lite/tens
 7826              		.file 54 "c:\\program files (x86)\\gnu tools arm embedded\\6 2017-q2-update\\arm-none-eabi\\includ
DEFINED SYMBOLS
                            *ABS*:00000000 log_softmax.cc
C:\Users\a5050395\AppData\Local\Temp\ccFNbNMm.s:17     .text._ZN6tflite12_GLOBAL__N_117LogSoftmaxPrepareEP13TfLiteContextP10TfLiteNode:00000000 $a
C:\Users\a5050395\AppData\Local\Temp\ccFNbNMm.s:22     .text._ZN6tflite12_GLOBAL__N_117LogSoftmaxPrepareEP13TfLiteContextP10TfLiteNode:00000000 _ZN6tflite12_GLOBAL__N_117LogSoftmaxPrepareEP13TfLiteContextP10TfLiteNode
C:\Users\a5050395\AppData\Local\Temp\ccFNbNMm.s:7746   .rodata._ZN6tflite12_GLOBAL__N_117LogSoftmaxPrepareEP13TfLiteContextP10TfLiteNode.str1.4:00000060 .LC3
C:\Users\a5050395\AppData\Local\Temp\ccFNbNMm.s:7751   .rodata._ZN6tflite12_GLOBAL__N_117LogSoftmaxPrepareEP13TfLiteContextP10TfLiteNode.str1.4:00000074 .LC5
C:\Users\a5050395\AppData\Local\Temp\ccFNbNMm.s:7740   .rodata._ZN6tflite12_GLOBAL__N_117LogSoftmaxPrepareEP13TfLiteContextP10TfLiteNode.str1.4:00000000 .LC1
C:\Users\a5050395\AppData\Local\Temp\ccFNbNMm.s:7743   .rodata._ZN6tflite12_GLOBAL__N_117LogSoftmaxPrepareEP13TfLiteContextP10TfLiteNode.str1.4:00000044 .LC2
C:\Users\a5050395\AppData\Local\Temp\ccFNbNMm.s:7757   .rodata._ZN6tflite12_GLOBAL__N_117LogSoftmaxPrepareEP13TfLiteContextP10TfLiteNode.str1.4:000000a4 .LC7
C:\Users\a5050395\AppData\Local\Temp\ccFNbNMm.s:7760   .rodata._ZN6tflite12_GLOBAL__N_117LogSoftmaxPrepareEP13TfLiteContextP10TfLiteNode.str1.4:000000b4 .LC8
C:\Users\a5050395\AppData\Local\Temp\ccFNbNMm.s:7754   .rodata._ZN6tflite12_GLOBAL__N_117LogSoftmaxPrepareEP13TfLiteContextP10TfLiteNode.str1.4:00000088 .LC6
C:\Users\a5050395\AppData\Local\Temp\ccFNbNMm.s:7749   .rodata._ZN6tflite12_GLOBAL__N_117LogSoftmaxPrepareEP13TfLiteContextP10TfLiteNode.str1.4:00000064 .LC4
C:\Users\a5050395\AppData\Local\Temp\ccFNbNMm.s:7771   .rodata._ZN6tflite12_GLOBAL__N_117LogSoftmaxPrepareEP13TfLiteContextP10TfLiteNode.str1.4:00000120 .LC12
C:\Users\a5050395\AppData\Local\Temp\ccFNbNMm.s:7762   .rodata._ZN6tflite12_GLOBAL__N_117LogSoftmaxPrepareEP13TfLiteContextP10TfLiteNode.str1.4:000000c0 .LC9
C:\Users\a5050395\AppData\Local\Temp\ccFNbNMm.s:7765   .rodata._ZN6tflite12_GLOBAL__N_117LogSoftmaxPrepareEP13TfLiteContextP10TfLiteNode.str1.4:000000d8 .LC10
C:\Users\a5050395\AppData\Local\Temp\ccFNbNMm.s:7768   .rodata._ZN6tflite12_GLOBAL__N_117LogSoftmaxPrepareEP13TfLiteContextP10TfLiteNode.str1.4:000000f8 .LC11
C:\Users\a5050395\AppData\Local\Temp\ccFNbNMm.s:598    .text._ZN6tflite12_GLOBAL__N_117LogSoftmaxPrepareEP13TfLiteContextP10TfLiteNode:000003c0 $d
.ARM.extab.text._ZN6tflite12_GLOBAL__N_117LogSoftmaxPrepareEP13TfLiteContextP10TfLiteNode:00000000 $d
.ARM.exidx.text._ZN6tflite12_GLOBAL__N_117LogSoftmaxPrepareEP13TfLiteContextP10TfLiteNode:00000000 $d
C:\Users\a5050395\AppData\Local\Temp\ccFNbNMm.s:633    .text._ZN6tflite20Register_LOG_SOFTMAXEv:00000000 $a
C:\Users\a5050395\AppData\Local\Temp\ccFNbNMm.s:639    .text._ZN6tflite20Register_LOG_SOFTMAXEv:00000000 _ZN6tflite20Register_LOG_SOFTMAXEv
C:\Users\a5050395\AppData\Local\Temp\ccFNbNMm.s:7716   .rodata:00000000 .LANCHOR0
.ARM.exidx.text._ZN6tflite20Register_LOG_SOFTMAXEv:00000000 $d
C:\Users\a5050395\AppData\Local\Temp\ccFNbNMm.s:674    .text._ZN8gemmlowp32one_over_one_plus_x_for_x_in_0_1IlEENS_10FixedPointIT_Li0EEES3_:00000000 $a
C:\Users\a5050395\AppData\Local\Temp\ccFNbNMm.s:680    .text._ZN8gemmlowp32one_over_one_plus_x_for_x_in_0_1IlEENS_10FixedPointIT_Li0EEES3_:00000000 _ZN8gemmlowp32one_over_one_plus_x_for_x_in_0_1IlEENS_10FixedPointIT_Li0EEES3_
C:\Users\a5050395\AppData\Local\Temp\ccFNbNMm.s:1575   .text._ZN8gemmlowp32one_over_one_plus_x_for_x_in_0_1IlEENS_10FixedPointIT_Li0EEES3_:000004b0 $d
.ARM.exidx.text._ZN8gemmlowp32one_over_one_plus_x_for_x_in_0_1IlEENS_10FixedPointIT_Li0EEES3_:00000000 $d
C:\Users\a5050395\AppData\Local\Temp\ccFNbNMm.s:1586   .text._ZN8gemmlowp55exp_on_interval_between_negative_one_quarter_and_0_exclIlEENS_10FixedPointIT_Li0EEES3_:00000000 $a
C:\Users\a5050395\AppData\Local\Temp\ccFNbNMm.s:1592   .text._ZN8gemmlowp55exp_on_interval_between_negative_one_quarter_and_0_exclIlEENS_10FixedPointIT_Li0EEES3_:00000000 _ZN8gemmlowp55exp_on_interval_between_negative_one_quarter_and_0_exclIlEENS_10FixedPointIT_Li0EEES3_
C:\Users\a5050395\AppData\Local\Temp\ccFNbNMm.s:1981   .text._ZN8gemmlowp55exp_on_interval_between_negative_one_quarter_and_0_exclIlEENS_10FixedPointIT_Li0EEES3_:000001c0 $d
.ARM.exidx.text._ZN8gemmlowp55exp_on_interval_between_negative_one_quarter_and_0_exclIlEENS_10FixedPointIT_Li0EEES3_:00000000 $d
C:\Users\a5050395\AppData\Local\Temp\ccFNbNMm.s:1993   .text._ZN8gemmlowp22exp_on_negative_valuesIlLi5EEENS_10FixedPointIT_Li0EEENS1_IS2_XT0_EEE:00000000 $a
C:\Users\a5050395\AppData\Local\Temp\ccFNbNMm.s:1999   .text._ZN8gemmlowp22exp_on_negative_valuesIlLi5EEENS_10FixedPointIT_Li0EEENS1_IS2_XT0_EEE:00000000 _ZN8gemmlowp22exp_on_negative_valuesIlLi5EEENS_10FixedPointIT_Li0EEENS1_IS2_XT0_EEE
.ARM.exidx.text._ZN8gemmlowp22exp_on_negative_valuesIlLi5EEENS_10FixedPointIT_Li0EEENS1_IS2_XT0_EEE:00000000 $d
C:\Users\a5050395\AppData\Local\Temp\ccFNbNMm.s:3112   .text._ZN6tflite12_GLOBAL__N_114LogSoftmaxEvalEP13TfLiteContextP10TfLiteNode:00000000 $a
C:\Users\a5050395\AppData\Local\Temp\ccFNbNMm.s:3117   .text._ZN6tflite12_GLOBAL__N_114LogSoftmaxEvalEP13TfLiteContextP10TfLiteNode:00000000 _ZN6tflite12_GLOBAL__N_114LogSoftmaxEvalEP13TfLiteContextP10TfLiteNode
C:\Users\a5050395\AppData\Local\Temp\ccFNbNMm.s:3804   .text._ZN6tflite12_GLOBAL__N_114LogSoftmaxEvalEP13TfLiteContextP10TfLiteNode:00000418 $d
C:\Users\a5050395\AppData\Local\Temp\ccFNbNMm.s:3813   .text._ZN6tflite12_GLOBAL__N_114LogSoftmaxEvalEP13TfLiteContextP10TfLiteNode:00000428 $a
C:\Users\a5050395\AppData\Local\Temp\ccFNbNMm.s:7736   .rodata._ZN6tflite12_GLOBAL__N_114LogSoftmaxEvalEP13TfLiteContextP10TfLiteNode.str1.4:00000094 .LC15
C:\Users\a5050395\AppData\Local\Temp\ccFNbNMm.s:7097   .text._ZN6tflite12_GLOBAL__N_114LogSoftmaxEvalEP13TfLiteContextP10TfLiteNode:0000140c $d
C:\Users\a5050395\AppData\Local\Temp\ccFNbNMm.s:7110   .text._ZN6tflite12_GLOBAL__N_114LogSoftmaxEvalEP13TfLiteContextP10TfLiteNode:00001414 $a
C:\Users\a5050395\AppData\Local\Temp\ccFNbNMm.s:7728   .rodata._ZN6tflite12_GLOBAL__N_114LogSoftmaxEvalEP13TfLiteContextP10TfLiteNode.str1.4:00000000 .LC13
C:\Users\a5050395\AppData\Local\Temp\ccFNbNMm.s:7775   .rodata._ZZN8gemmlowp19RoundingDivideByPOTIlEET_S1_iE19__PRETTY_FUNCTION__:00000000 .LANCHOR1
C:\Users\a5050395\AppData\Local\Temp\ccFNbNMm.s:7731   .rodata._ZN6tflite12_GLOBAL__N_114LogSoftmaxEvalEP13TfLiteContextP10TfLiteNode.str1.4:00000010 .LC14
.ARM.extab.text._ZN6tflite12_GLOBAL__N_114LogSoftmaxEvalEP13TfLiteContextP10TfLiteNode:00000000 $d
.ARM.exidx.text._ZN6tflite12_GLOBAL__N_114LogSoftmaxEvalEP13TfLiteContextP10TfLiteNode:00000000 $d
C:\Users\a5050395\AppData\Local\Temp\ccFNbNMm.s:7715   .rodata:00000000 $d
C:\Users\a5050395\AppData\Local\Temp\ccFNbNMm.s:7727   .rodata._ZN6tflite12_GLOBAL__N_114LogSoftmaxEvalEP13TfLiteContextP10TfLiteNode.str1.4:00000000 $d
C:\Users\a5050395\AppData\Local\Temp\ccFNbNMm.s:7739   .rodata._ZN6tflite12_GLOBAL__N_117LogSoftmaxPrepareEP13TfLiteContextP10TfLiteNode.str1.4:00000000 $d
C:\Users\a5050395\AppData\Local\Temp\ccFNbNMm.s:7774   .rodata._ZZN8gemmlowp19RoundingDivideByPOTIlEET_S1_iE19__PRETTY_FUNCTION__:00000000 $d
C:\Users\a5050395\AppData\Local\Temp\ccFNbNMm.s:7778   .rodata._ZZN8gemmlowp19RoundingDivideByPOTIlEET_S1_iE19__PRETTY_FUNCTION__:00000000 _ZZN8gemmlowp19RoundingDivideByPOTIlEET_S1_iE19__PRETTY_FUNCTION__
                     .debug_frame:00000010 $d
                           .group:00000000 wm4.0.3e1481985cce1e923928453d8be0a65b
                           .group:00000000 wm4.cconfig.h.31.1472b8c7bd4952a63a52f3f4f718f872
                           .group:00000000 wm4.cpu_defines.h.31.54d44f9d3e7c42875c5a7fd49795eb93
                           .group:00000000 wm4.cconfig.h.515.5e729db314ae74226e291b4ae081e353
                           .group:00000000 wm4.concept_check.h.31.f19605d278e56917c68a56d378be308c
                           .group:00000000 wm4.type_traits.30.2c7323a483bcd7601e8b71d2546ae284
                           .group:00000000 wm4.move.h.152.41d7b9e6779674d169b7813982cfa003
                           .group:00000000 wm4.exception_defines.h.31.ca6841b9be3287386aafc5c717935b2e
                           .group:00000000 wm4.cpp_type_traits.h.33.9f2bfd8c4471a9a299f6da3ec24c745c
                           .group:00000000 wm4.numeric_traits.h.30.aa01a98564b7e55086aad9e53c7e5c53
                           .group:00000000 wm4.assertions.h.30.51d443923f0d242550e04246a7819b39
                           .group:00000000 wm4.stl_iterator.h.1250.45f349a262f1b0d836d8edbc4b7b98ff
                           .group:00000000 wm4.debug.h.30.5c1f223b12199e851d4d42805b788ccf
                           .group:00000000 wm4.stl_algobase.h.491.aa250b69c90aafa2a0a62b8c58cd5f30
                           .group:00000000 wm4.cstdlib.44.52c5efdfb0f3c176bd11e611a0b94959
                           .group:00000000 wm4._newlib_version.h.4.3572908597b70d672d181fc7fc501c19
                           .group:00000000 wm4.newlib.h.21.59901f4bf241ab46c63694665baa7297
                           .group:00000000 wm4.features.h.22.37852b648068a281464730a5a4cc748e
                           .group:00000000 wm4.config.h.219.65a553ab5bef5482f0d7880b0d33015e
                           .group:00000000 wm4._ansi.h.23.1ee1144430bedaab1a14c7b57a6c8384
                           .group:00000000 wm4.stdlib.h.13.4ed386f5c1a80d71e72172885d946ef2
                           .group:00000000 wm4.stddef.h.187.e3ca1cb00044c044f8b956a6107cebb6
                           .group:00000000 wm4.stddef.h.39.60c5e3eb202f4a8f413509aeb6ad39fb
                           .group:00000000 wm4._default_types.h.6.959254cf5f09734ea7516c89e8bb21bd
                           .group:00000000 wm4.lock.h.2.1461d1fff82dffe8bfddc23307f6484f
                           .group:00000000 wm4._types.h.125.5cf8a495f1f7ef36777ad868a1e32068
                           .group:00000000 wm4.stddef.h.161.7e98c9c86da0ed2d27af2ef92af7d013
                           .group:00000000 wm4._types.h.183.c226d164ceca1f2ecb9ae9360c54a098
                           .group:00000000 wm4.reent.h.17.23b059516345f8f5abfa01ddc379570f
                           .group:00000000 wm4.cdefs.h.47.9bc8274c84fddbf05edd550eb0bf48cd
                           .group:00000000 wm4.stdlib.h.56.b4ddaf162082f284ba35b4444af99a9a
                           .group:00000000 wm4.cstdlib.76.ae666499c8f9b0ace1b4b23fe143da2c
                           .group:00000000 wm4.atomic_lockfree_defines.h.31.d5c6334fb1e95c9462b052951f1411df
                           .group:00000000 wm4.limits.38.55aefcf041805b6211ca3649dd2ab1b5
                           .group:00000000 wm4.cstddef.40.7f59894b65c26f8fc669473914a0ef3e
                           .group:00000000 wm4.assert.h.11.a5d97ca77559a42890313c4941c01fd9
                           .group:00000000 wm4.math.h.13.e7cbdea54f4da98ab8f7fad4d23502b2
                           .group:00000000 wm4.cmath.46.d6e5b776115d39075860ed881d18f087
                           .group:00000000 wm4.stdint.h.4.659be5aa44c4ab4eb7c7cc2b24d8ceee
                           .group:00000000 wm4._intsup.h.10.cce27fed8484c08a33f522034c30d2b5
                           .group:00000000 wm4._stdint.h.10.c24fa3af3bc1706662bb5593a907e841
                           .group:00000000 wm4.stdint.h.23.d53047a68f4a85177f80b422d52785ed
                           .group:00000000 wm4.detect_platform.h.19.a1891273c0cad215067ddb8219400136
                           .group:00000000 wm4.fixedpoint.h.567.8a6371d9452be19811601bace78b0abc
                           .group:00000000 wm4.wchar.h.2.f837619576d797e948eb58c44fac4678
                           .group:00000000 wm4.stddef.h.161.9f48187563b2a85291a91832aa425498
                           .group:00000000 wm4.stdarg.h.34.3a23a216c0c293b3d2ea2e89281481e6
                           .group:00000000 wm4.wchar.h.41.2307b469886c2ca55d92707971ac50ce
                           .group:00000000 wm4.cwchar.48.c4e882638bf84f6da89479dda6fe8e17
                           .group:00000000 wm4.allocator.h.52.0ceafb36dc1b82dbfa6b05003082e3f5
                           .group:00000000 wm4.locale.h.8.27d0fe4c0abbb6f8893a1fa7c1799fd9
                           .group:00000000 wm4.stddef.h.161.38688f2eb958a8ed58fdb61ffe554c94
                           .group:00000000 wm4.locale.h.16.524572cf3c2ed9856516685acdc598fe
                           .group:00000000 wm4.clocale.45.c36d2d5b631a875aa5273176b54fdf0f
                           .group:00000000 wm4.ctype.h.2.da310d2ad165ccf8b86542f76fdb938d
                           .group:00000000 wm4.cctype.45.0da5714876b0be7f2d816b53d9670403
                           .group:00000000 wm4.gthr.h.27.ceb1c66b926f052afcba57e8784df0d4
                           .group:00000000 wm4.gthrdefault.h.27.edc94d4398c0534988962be77dc3c2e1
                           .group:00000000 wm4.atomic_word.h.30.9e0ac69fd462d5e650933e05133b4afa
                           .group:00000000 wm4.stdio.h.27.3fc80220048df77954e38daec3bb9670
                           .group:00000000 wm4.types.h.40.e8c16e7ec36ba55f133d0616070e25fc
                           .group:00000000 wm4.types.h.114.fb65732f4f5f288a036a25898de2c91f
                           .group:00000000 wm4.stdio.h.2.4aa87247282eca6c8f36f9de33d8df1a
                           .group:00000000 wm4.stdio.h.81.c3e9cb15e5af2807c4650345134c1a8a
                           .group:00000000 wm4.cstdio.45.ba8d321feb18bfc8923454067605c368
                           .group:00000000 wm4.errno.h.2.ba016d646105af6cad23be83630b6a3f
                           .group:00000000 wm4.errno.h.9.1ecd7b1049497a0ab61da0f6cbd4b0c6
                           .group:00000000 wm4.functional_hash.h.31.bccc014fee6fc3f930045d809df6f486
                           .group:00000000 wm4.functional.549.0bc5b448cf999863d3841495cd6fe920
                           .group:00000000 wm4.cmath.44.b3bcbb5fe53ec6617dec8aa8eb7b03cc
                           .group:00000000 wm4.cppmath.h.27.51580d700716589df4b364298e2ef577
                           .group:00000000 wm4.neon_check.h.16.79a4dcb572cbeac06c4924f1f20cb68d
                           .group:00000000 wm4.string.h.8.c4b8571ce60dff2817f43fec8b86aecd
                           .group:00000000 wm4.cstring.45.6ab09de7fb97b576e744347688ddc8d7
                           .group:00000000 wm4.op_macros.h.42.7b718cb416a067e7bb07e7699647769b
                           .group:00000000 wm4.compatibility.h.23.702d6356326ea59aded8ef5c6c4626d5
                           .group:00000000 wm4.stdbool.h.29.01580e438512fc255c0619569742ffd3
                           .group:00000000 wm4.c_api_types.h.20.9b09175981ed746180e205cc0b4b2bfd
                           .group:00000000 wm4.common.h.77.124de099ec0ac4f95ebf1618a5f42cf6
                           .group:00000000 wm4.builtin_op_data.h.16.b961d1222c948363e3f10ad99298fd3f

UNDEFINED SYMBOLS
__gxx_personality_v0
_ZN6tflite12GetInputSafeEPK13TfLiteContextPK10TfLiteNodeiPPK12TfLiteTensor
_ZN6tflite13GetOutputSafeEPK13TfLiteContextPK10TfLiteNodeiPP12TfLiteTensor
TfLiteTypeGetName
_ZN6tflite14HaveSameShapesEPK12TfLiteTensorS2_
_ZN6tflite30PreprocessLogSoftmaxScalingExpEddiPlPiS0_S1_
_ZN6tflite20CalculateInputRadiusEiii
_Znaj
memcpy
_ZdaPv
abort
__cxa_throw_bad_array_new_length
__cxa_end_cleanup
_ZN6tflite5micro14GetTensorShapeEPK16TfLiteEvalTensor
logf
expf
__assert_func
