   1              		.cpu cortex-a9
   2              		.eabi_attribute 28, 1
   3              		.eabi_attribute 20, 1
   4              		.eabi_attribute 21, 1
   5              		.eabi_attribute 23, 3
   6              		.eabi_attribute 24, 1
   7              		.eabi_attribute 25, 1
   8              		.eabi_attribute 26, 1
   9              		.eabi_attribute 30, 2
  10              		.eabi_attribute 34, 0
  11              		.eabi_attribute 18, 4
  12              		.file	"pooling.cc"
  13              		.text
  14              	.Ltext0:
  15              		.cfi_sections	.debug_frame
  16              		.section	.text._ZN6tflite3ops5micro7pooling4InitEP13TfLiteContextPKcj,"ax",%progbits
  17              		.align	2
  18              		.global	_ZN6tflite3ops5micro7pooling4InitEP13TfLiteContextPKcj
  19              		.syntax unified
  20              		.arm
  21              		.fpu neon
  23              	_ZN6tflite3ops5micro7pooling4InitEP13TfLiteContextPKcj:
  24              		.fnstart
  25              	.LFB4188:
  26              		.file 1 "../src/tensorflow_lite/tensorflow/lite/micro/kernels/pooling.cc"
   1:../src/tensorflow_lite/tensorflow/lite/micro/kernels/pooling.cc **** /* Copyright 2019 The TensorFlow Authors. All Rights Reserved.
   2:../src/tensorflow_lite/tensorflow/lite/micro/kernels/pooling.cc **** 
   3:../src/tensorflow_lite/tensorflow/lite/micro/kernels/pooling.cc **** Licensed under the Apache License, Version 2.0 (the "License");
   4:../src/tensorflow_lite/tensorflow/lite/micro/kernels/pooling.cc **** you may not use this file except in compliance with the License.
   5:../src/tensorflow_lite/tensorflow/lite/micro/kernels/pooling.cc **** You may obtain a copy of the License at
   6:../src/tensorflow_lite/tensorflow/lite/micro/kernels/pooling.cc **** 
   7:../src/tensorflow_lite/tensorflow/lite/micro/kernels/pooling.cc ****     http://www.apache.org/licenses/LICENSE-2.0
   8:../src/tensorflow_lite/tensorflow/lite/micro/kernels/pooling.cc **** 
   9:../src/tensorflow_lite/tensorflow/lite/micro/kernels/pooling.cc **** Unless required by applicable law or agreed to in writing, software
  10:../src/tensorflow_lite/tensorflow/lite/micro/kernels/pooling.cc **** distributed under the License is distributed on an "AS IS" BASIS,
  11:../src/tensorflow_lite/tensorflow/lite/micro/kernels/pooling.cc **** WITHOUT WARRANTIES OR CONDITIONS OF ANY KIND, either express or implied.
  12:../src/tensorflow_lite/tensorflow/lite/micro/kernels/pooling.cc **** See the License for the specific language governing permissions and
  13:../src/tensorflow_lite/tensorflow/lite/micro/kernels/pooling.cc **** limitations under the License.
  14:../src/tensorflow_lite/tensorflow/lite/micro/kernels/pooling.cc **** ==============================================================================*/
  15:../src/tensorflow_lite/tensorflow/lite/micro/kernels/pooling.cc **** #include "tensorflow/lite/kernels/internal/reference/pooling.h"
  16:../src/tensorflow_lite/tensorflow/lite/micro/kernels/pooling.cc **** 
  17:../src/tensorflow_lite/tensorflow/lite/micro/kernels/pooling.cc **** #include "tensorflow/lite/c/builtin_op_data.h"
  18:../src/tensorflow_lite/tensorflow/lite/micro/kernels/pooling.cc **** #include "tensorflow/lite/kernels/internal/reference/integer_ops/pooling.h"
  19:../src/tensorflow_lite/tensorflow/lite/micro/kernels/pooling.cc **** #include "tensorflow/lite/kernels/internal/tensor_ctypes.h"
  20:../src/tensorflow_lite/tensorflow/lite/micro/kernels/pooling.cc **** #include "tensorflow/lite/kernels/kernel_util.h"
  21:../src/tensorflow_lite/tensorflow/lite/micro/kernels/pooling.cc **** #include "tensorflow/lite/kernels/padding.h"
  22:../src/tensorflow_lite/tensorflow/lite/micro/kernels/pooling.cc **** #include "tensorflow/lite/micro/kernels/kernel_util.h"
  23:../src/tensorflow_lite/tensorflow/lite/micro/kernels/pooling.cc **** 
  24:../src/tensorflow_lite/tensorflow/lite/micro/kernels/pooling.cc **** namespace tflite {
  25:../src/tensorflow_lite/tensorflow/lite/micro/kernels/pooling.cc **** namespace ops {
  26:../src/tensorflow_lite/tensorflow/lite/micro/kernels/pooling.cc **** namespace micro {
  27:../src/tensorflow_lite/tensorflow/lite/micro/kernels/pooling.cc **** namespace pooling {
  28:../src/tensorflow_lite/tensorflow/lite/micro/kernels/pooling.cc **** 
  29:../src/tensorflow_lite/tensorflow/lite/micro/kernels/pooling.cc **** namespace {
  30:../src/tensorflow_lite/tensorflow/lite/micro/kernels/pooling.cc **** 
  31:../src/tensorflow_lite/tensorflow/lite/micro/kernels/pooling.cc **** constexpr int kInputTensor = 0;
  32:../src/tensorflow_lite/tensorflow/lite/micro/kernels/pooling.cc **** constexpr int kOutputTensor = 0;
  33:../src/tensorflow_lite/tensorflow/lite/micro/kernels/pooling.cc **** 
  34:../src/tensorflow_lite/tensorflow/lite/micro/kernels/pooling.cc **** struct OpData {
  35:../src/tensorflow_lite/tensorflow/lite/micro/kernels/pooling.cc ****   TfLitePaddingValues padding;
  36:../src/tensorflow_lite/tensorflow/lite/micro/kernels/pooling.cc ****   int32_t activation_min;
  37:../src/tensorflow_lite/tensorflow/lite/micro/kernels/pooling.cc ****   int32_t activation_max;
  38:../src/tensorflow_lite/tensorflow/lite/micro/kernels/pooling.cc ****   float activation_min_f32;
  39:../src/tensorflow_lite/tensorflow/lite/micro/kernels/pooling.cc ****   float activation_max_f32;
  40:../src/tensorflow_lite/tensorflow/lite/micro/kernels/pooling.cc **** };
  41:../src/tensorflow_lite/tensorflow/lite/micro/kernels/pooling.cc **** 
  42:../src/tensorflow_lite/tensorflow/lite/micro/kernels/pooling.cc **** TfLiteStatus CalculateOpData(const TfLiteContext* context,
  43:../src/tensorflow_lite/tensorflow/lite/micro/kernels/pooling.cc ****                              const TfLitePoolParams* params,
  44:../src/tensorflow_lite/tensorflow/lite/micro/kernels/pooling.cc ****                              const TfLiteTensor* input,
  45:../src/tensorflow_lite/tensorflow/lite/micro/kernels/pooling.cc ****                              const TfLiteTensor* output, OpData* data) {
  46:../src/tensorflow_lite/tensorflow/lite/micro/kernels/pooling.cc ****   // input: batch, height, width, channel
  47:../src/tensorflow_lite/tensorflow/lite/micro/kernels/pooling.cc ****   int height = SizeOfDimension(input, 1);
  48:../src/tensorflow_lite/tensorflow/lite/micro/kernels/pooling.cc ****   int width = SizeOfDimension(input, 2);
  49:../src/tensorflow_lite/tensorflow/lite/micro/kernels/pooling.cc **** 
  50:../src/tensorflow_lite/tensorflow/lite/micro/kernels/pooling.cc ****   int out_height, out_width;
  51:../src/tensorflow_lite/tensorflow/lite/micro/kernels/pooling.cc **** 
  52:../src/tensorflow_lite/tensorflow/lite/micro/kernels/pooling.cc ****   data->padding = ComputePaddingHeightWidth(
  53:../src/tensorflow_lite/tensorflow/lite/micro/kernels/pooling.cc ****       params->stride_height, params->stride_width,
  54:../src/tensorflow_lite/tensorflow/lite/micro/kernels/pooling.cc ****       /*dilation_rate_height=*/1,
  55:../src/tensorflow_lite/tensorflow/lite/micro/kernels/pooling.cc ****       /*dilation_rate_width=*/1, height, width, params->filter_height,
  56:../src/tensorflow_lite/tensorflow/lite/micro/kernels/pooling.cc ****       params->filter_width, params->padding, &out_height, &out_width);
  57:../src/tensorflow_lite/tensorflow/lite/micro/kernels/pooling.cc **** 
  58:../src/tensorflow_lite/tensorflow/lite/micro/kernels/pooling.cc ****   return kTfLiteOk;
  59:../src/tensorflow_lite/tensorflow/lite/micro/kernels/pooling.cc **** }
  60:../src/tensorflow_lite/tensorflow/lite/micro/kernels/pooling.cc **** 
  61:../src/tensorflow_lite/tensorflow/lite/micro/kernels/pooling.cc **** void AverageEvalFloat(const TfLiteContext* context, const TfLiteNode* node,
  62:../src/tensorflow_lite/tensorflow/lite/micro/kernels/pooling.cc ****                       const TfLitePoolParams* params, const OpData* data,
  63:../src/tensorflow_lite/tensorflow/lite/micro/kernels/pooling.cc ****                       const TfLiteEvalTensor* input, TfLiteEvalTensor* output) {
  64:../src/tensorflow_lite/tensorflow/lite/micro/kernels/pooling.cc ****   PoolParams op_params;
  65:../src/tensorflow_lite/tensorflow/lite/micro/kernels/pooling.cc ****   op_params.stride_height = params->stride_height;
  66:../src/tensorflow_lite/tensorflow/lite/micro/kernels/pooling.cc ****   op_params.stride_width = params->stride_width;
  67:../src/tensorflow_lite/tensorflow/lite/micro/kernels/pooling.cc ****   op_params.filter_height = params->filter_height;
  68:../src/tensorflow_lite/tensorflow/lite/micro/kernels/pooling.cc ****   op_params.filter_width = params->filter_width;
  69:../src/tensorflow_lite/tensorflow/lite/micro/kernels/pooling.cc ****   op_params.padding_values.height = data->padding.height;
  70:../src/tensorflow_lite/tensorflow/lite/micro/kernels/pooling.cc ****   op_params.padding_values.width = data->padding.width;
  71:../src/tensorflow_lite/tensorflow/lite/micro/kernels/pooling.cc ****   op_params.float_activation_min = data->activation_min_f32;
  72:../src/tensorflow_lite/tensorflow/lite/micro/kernels/pooling.cc ****   op_params.float_activation_max = data->activation_max_f32;
  73:../src/tensorflow_lite/tensorflow/lite/micro/kernels/pooling.cc ****   reference_ops::AveragePool(op_params, tflite::micro::GetTensorShape(input),
  74:../src/tensorflow_lite/tensorflow/lite/micro/kernels/pooling.cc ****                              tflite::micro::GetTensorData<float>(input),
  75:../src/tensorflow_lite/tensorflow/lite/micro/kernels/pooling.cc ****                              tflite::micro::GetTensorShape(output),
  76:../src/tensorflow_lite/tensorflow/lite/micro/kernels/pooling.cc ****                              tflite::micro::GetTensorData<float>(output));
  77:../src/tensorflow_lite/tensorflow/lite/micro/kernels/pooling.cc **** }
  78:../src/tensorflow_lite/tensorflow/lite/micro/kernels/pooling.cc **** 
  79:../src/tensorflow_lite/tensorflow/lite/micro/kernels/pooling.cc **** void AverageEvalQuantized(TfLiteContext* context, const TfLiteNode* node,
  80:../src/tensorflow_lite/tensorflow/lite/micro/kernels/pooling.cc ****                           const TfLitePoolParams* params, const OpData* data,
  81:../src/tensorflow_lite/tensorflow/lite/micro/kernels/pooling.cc ****                           const TfLiteEvalTensor* input,
  82:../src/tensorflow_lite/tensorflow/lite/micro/kernels/pooling.cc ****                           TfLiteEvalTensor* output) {
  83:../src/tensorflow_lite/tensorflow/lite/micro/kernels/pooling.cc ****   TFLITE_DCHECK(input->type == kTfLiteUInt8 || input->type == kTfLiteInt8);
  84:../src/tensorflow_lite/tensorflow/lite/micro/kernels/pooling.cc **** 
  85:../src/tensorflow_lite/tensorflow/lite/micro/kernels/pooling.cc ****   PoolParams op_params;
  86:../src/tensorflow_lite/tensorflow/lite/micro/kernels/pooling.cc ****   op_params.stride_height = params->stride_height;
  87:../src/tensorflow_lite/tensorflow/lite/micro/kernels/pooling.cc ****   op_params.stride_width = params->stride_width;
  88:../src/tensorflow_lite/tensorflow/lite/micro/kernels/pooling.cc ****   op_params.filter_height = params->filter_height;
  89:../src/tensorflow_lite/tensorflow/lite/micro/kernels/pooling.cc ****   op_params.filter_width = params->filter_width;
  90:../src/tensorflow_lite/tensorflow/lite/micro/kernels/pooling.cc ****   op_params.padding_values.height = data->padding.height;
  91:../src/tensorflow_lite/tensorflow/lite/micro/kernels/pooling.cc ****   op_params.padding_values.width = data->padding.width;
  92:../src/tensorflow_lite/tensorflow/lite/micro/kernels/pooling.cc ****   op_params.quantized_activation_min = data->activation_min;
  93:../src/tensorflow_lite/tensorflow/lite/micro/kernels/pooling.cc ****   op_params.quantized_activation_max = data->activation_max;
  94:../src/tensorflow_lite/tensorflow/lite/micro/kernels/pooling.cc **** 
  95:../src/tensorflow_lite/tensorflow/lite/micro/kernels/pooling.cc ****   if (input->type == kTfLiteUInt8) {
  96:../src/tensorflow_lite/tensorflow/lite/micro/kernels/pooling.cc ****     reference_ops::AveragePool(op_params, tflite::micro::GetTensorShape(input),
  97:../src/tensorflow_lite/tensorflow/lite/micro/kernels/pooling.cc ****                                tflite::micro::GetTensorData<uint8_t>(input),
  98:../src/tensorflow_lite/tensorflow/lite/micro/kernels/pooling.cc ****                                tflite::micro::GetTensorShape(output),
  99:../src/tensorflow_lite/tensorflow/lite/micro/kernels/pooling.cc ****                                tflite::micro::GetTensorData<uint8_t>(output));
 100:../src/tensorflow_lite/tensorflow/lite/micro/kernels/pooling.cc ****   } else {
 101:../src/tensorflow_lite/tensorflow/lite/micro/kernels/pooling.cc ****     reference_integer_ops::AveragePool(
 102:../src/tensorflow_lite/tensorflow/lite/micro/kernels/pooling.cc ****         op_params, tflite::micro::GetTensorShape(input),
 103:../src/tensorflow_lite/tensorflow/lite/micro/kernels/pooling.cc ****         tflite::micro::GetTensorData<int8_t>(input),
 104:../src/tensorflow_lite/tensorflow/lite/micro/kernels/pooling.cc ****         tflite::micro::GetTensorShape(output),
 105:../src/tensorflow_lite/tensorflow/lite/micro/kernels/pooling.cc ****         tflite::micro::GetTensorData<int8_t>(output));
 106:../src/tensorflow_lite/tensorflow/lite/micro/kernels/pooling.cc ****   }
 107:../src/tensorflow_lite/tensorflow/lite/micro/kernels/pooling.cc **** }
 108:../src/tensorflow_lite/tensorflow/lite/micro/kernels/pooling.cc **** 
 109:../src/tensorflow_lite/tensorflow/lite/micro/kernels/pooling.cc **** void MaxEvalFloat(TfLiteContext* context, TfLiteNode* node,
 110:../src/tensorflow_lite/tensorflow/lite/micro/kernels/pooling.cc ****                   TfLitePoolParams* params, const OpData* data,
 111:../src/tensorflow_lite/tensorflow/lite/micro/kernels/pooling.cc ****                   const TfLiteEvalTensor* input, TfLiteEvalTensor* output) {
 112:../src/tensorflow_lite/tensorflow/lite/micro/kernels/pooling.cc ****   tflite::PoolParams op_params;
 113:../src/tensorflow_lite/tensorflow/lite/micro/kernels/pooling.cc ****   op_params.stride_height = params->stride_height;
 114:../src/tensorflow_lite/tensorflow/lite/micro/kernels/pooling.cc ****   op_params.stride_width = params->stride_width;
 115:../src/tensorflow_lite/tensorflow/lite/micro/kernels/pooling.cc ****   op_params.filter_height = params->filter_height;
 116:../src/tensorflow_lite/tensorflow/lite/micro/kernels/pooling.cc ****   op_params.filter_width = params->filter_width;
 117:../src/tensorflow_lite/tensorflow/lite/micro/kernels/pooling.cc ****   op_params.padding_values.height = data->padding.height;
 118:../src/tensorflow_lite/tensorflow/lite/micro/kernels/pooling.cc ****   op_params.padding_values.width = data->padding.width;
 119:../src/tensorflow_lite/tensorflow/lite/micro/kernels/pooling.cc ****   op_params.float_activation_min = data->activation_min_f32;
 120:../src/tensorflow_lite/tensorflow/lite/micro/kernels/pooling.cc ****   op_params.float_activation_max = data->activation_max_f32;
 121:../src/tensorflow_lite/tensorflow/lite/micro/kernels/pooling.cc ****   reference_ops::MaxPool(op_params, tflite::micro::GetTensorShape(input),
 122:../src/tensorflow_lite/tensorflow/lite/micro/kernels/pooling.cc ****                          tflite::micro::GetTensorData<float>(input),
 123:../src/tensorflow_lite/tensorflow/lite/micro/kernels/pooling.cc ****                          tflite::micro::GetTensorShape(output),
 124:../src/tensorflow_lite/tensorflow/lite/micro/kernels/pooling.cc ****                          tflite::micro::GetTensorData<float>(output));
 125:../src/tensorflow_lite/tensorflow/lite/micro/kernels/pooling.cc **** }
 126:../src/tensorflow_lite/tensorflow/lite/micro/kernels/pooling.cc **** 
 127:../src/tensorflow_lite/tensorflow/lite/micro/kernels/pooling.cc **** void MaxEvalQuantized(TfLiteContext* context, TfLiteNode* node,
 128:../src/tensorflow_lite/tensorflow/lite/micro/kernels/pooling.cc ****                       TfLitePoolParams* params, const OpData* data,
 129:../src/tensorflow_lite/tensorflow/lite/micro/kernels/pooling.cc ****                       const TfLiteEvalTensor* input, TfLiteEvalTensor* output) {
 130:../src/tensorflow_lite/tensorflow/lite/micro/kernels/pooling.cc ****   tflite::PoolParams op_params;
 131:../src/tensorflow_lite/tensorflow/lite/micro/kernels/pooling.cc ****   op_params.stride_height = params->stride_height;
 132:../src/tensorflow_lite/tensorflow/lite/micro/kernels/pooling.cc ****   op_params.stride_width = params->stride_width;
 133:../src/tensorflow_lite/tensorflow/lite/micro/kernels/pooling.cc ****   op_params.filter_height = params->filter_height;
 134:../src/tensorflow_lite/tensorflow/lite/micro/kernels/pooling.cc ****   op_params.filter_width = params->filter_width;
 135:../src/tensorflow_lite/tensorflow/lite/micro/kernels/pooling.cc ****   op_params.padding_values.height = data->padding.height;
 136:../src/tensorflow_lite/tensorflow/lite/micro/kernels/pooling.cc ****   op_params.padding_values.width = data->padding.width;
 137:../src/tensorflow_lite/tensorflow/lite/micro/kernels/pooling.cc ****   op_params.quantized_activation_min = data->activation_min;
 138:../src/tensorflow_lite/tensorflow/lite/micro/kernels/pooling.cc ****   op_params.quantized_activation_max = data->activation_max;
 139:../src/tensorflow_lite/tensorflow/lite/micro/kernels/pooling.cc **** 
 140:../src/tensorflow_lite/tensorflow/lite/micro/kernels/pooling.cc ****   if (input->type == kTfLiteUInt8) {
 141:../src/tensorflow_lite/tensorflow/lite/micro/kernels/pooling.cc ****     reference_ops::MaxPool(op_params, tflite::micro::GetTensorShape(input),
 142:../src/tensorflow_lite/tensorflow/lite/micro/kernels/pooling.cc ****                            tflite::micro::GetTensorData<uint8_t>(input),
 143:../src/tensorflow_lite/tensorflow/lite/micro/kernels/pooling.cc ****                            tflite::micro::GetTensorShape(output),
 144:../src/tensorflow_lite/tensorflow/lite/micro/kernels/pooling.cc ****                            tflite::micro::GetTensorData<uint8_t>(output));
 145:../src/tensorflow_lite/tensorflow/lite/micro/kernels/pooling.cc ****   } else {
 146:../src/tensorflow_lite/tensorflow/lite/micro/kernels/pooling.cc ****     reference_integer_ops::MaxPool(
 147:../src/tensorflow_lite/tensorflow/lite/micro/kernels/pooling.cc ****         op_params, tflite::micro::GetTensorShape(input),
 148:../src/tensorflow_lite/tensorflow/lite/micro/kernels/pooling.cc ****         tflite::micro::GetTensorData<int8_t>(input),
 149:../src/tensorflow_lite/tensorflow/lite/micro/kernels/pooling.cc ****         tflite::micro::GetTensorShape(output),
 150:../src/tensorflow_lite/tensorflow/lite/micro/kernels/pooling.cc ****         tflite::micro::GetTensorData<int8_t>(output));
 151:../src/tensorflow_lite/tensorflow/lite/micro/kernels/pooling.cc ****   }
 152:../src/tensorflow_lite/tensorflow/lite/micro/kernels/pooling.cc **** }
 153:../src/tensorflow_lite/tensorflow/lite/micro/kernels/pooling.cc **** }  // namespace
 154:../src/tensorflow_lite/tensorflow/lite/micro/kernels/pooling.cc **** 
 155:../src/tensorflow_lite/tensorflow/lite/micro/kernels/pooling.cc **** TfLiteStatus AverageEval(TfLiteContext* context, TfLiteNode* node) {
 156:../src/tensorflow_lite/tensorflow/lite/micro/kernels/pooling.cc ****   TFLITE_DCHECK(node->builtin_data != nullptr);
 157:../src/tensorflow_lite/tensorflow/lite/micro/kernels/pooling.cc ****   auto* params = reinterpret_cast<TfLitePoolParams*>(node->builtin_data);
 158:../src/tensorflow_lite/tensorflow/lite/micro/kernels/pooling.cc **** 
 159:../src/tensorflow_lite/tensorflow/lite/micro/kernels/pooling.cc ****   TFLITE_DCHECK(node->user_data != nullptr);
 160:../src/tensorflow_lite/tensorflow/lite/micro/kernels/pooling.cc ****   const OpData* data = static_cast<const OpData*>(node->user_data);
 161:../src/tensorflow_lite/tensorflow/lite/micro/kernels/pooling.cc **** 
 162:../src/tensorflow_lite/tensorflow/lite/micro/kernels/pooling.cc ****   const TfLiteEvalTensor* input =
 163:../src/tensorflow_lite/tensorflow/lite/micro/kernels/pooling.cc ****       tflite::micro::GetEvalInput(context, node, kInputTensor);
 164:../src/tensorflow_lite/tensorflow/lite/micro/kernels/pooling.cc ****   TfLiteEvalTensor* output =
 165:../src/tensorflow_lite/tensorflow/lite/micro/kernels/pooling.cc ****       tflite::micro::GetEvalOutput(context, node, kOutputTensor);
 166:../src/tensorflow_lite/tensorflow/lite/micro/kernels/pooling.cc **** 
 167:../src/tensorflow_lite/tensorflow/lite/micro/kernels/pooling.cc ****   // Inputs and outputs share the same type, guaranteed by the converter.
 168:../src/tensorflow_lite/tensorflow/lite/micro/kernels/pooling.cc ****   switch (input->type) {
 169:../src/tensorflow_lite/tensorflow/lite/micro/kernels/pooling.cc ****     case kTfLiteFloat32:
 170:../src/tensorflow_lite/tensorflow/lite/micro/kernels/pooling.cc ****       AverageEvalFloat(context, node, params, data, input, output);
 171:../src/tensorflow_lite/tensorflow/lite/micro/kernels/pooling.cc ****       break;
 172:../src/tensorflow_lite/tensorflow/lite/micro/kernels/pooling.cc ****     case kTfLiteUInt8:
 173:../src/tensorflow_lite/tensorflow/lite/micro/kernels/pooling.cc ****     case kTfLiteInt8:
 174:../src/tensorflow_lite/tensorflow/lite/micro/kernels/pooling.cc ****       AverageEvalQuantized(context, node, params, data, input, output);
 175:../src/tensorflow_lite/tensorflow/lite/micro/kernels/pooling.cc ****       break;
 176:../src/tensorflow_lite/tensorflow/lite/micro/kernels/pooling.cc ****     default:
 177:../src/tensorflow_lite/tensorflow/lite/micro/kernels/pooling.cc ****       TF_LITE_KERNEL_LOG(context, "Input type %s is not currently supported",
 178:../src/tensorflow_lite/tensorflow/lite/micro/kernels/pooling.cc ****                          TfLiteTypeGetName(input->type));
 179:../src/tensorflow_lite/tensorflow/lite/micro/kernels/pooling.cc ****       return kTfLiteError;
 180:../src/tensorflow_lite/tensorflow/lite/micro/kernels/pooling.cc ****   }
 181:../src/tensorflow_lite/tensorflow/lite/micro/kernels/pooling.cc ****   return kTfLiteOk;
 182:../src/tensorflow_lite/tensorflow/lite/micro/kernels/pooling.cc **** }
 183:../src/tensorflow_lite/tensorflow/lite/micro/kernels/pooling.cc **** 
 184:../src/tensorflow_lite/tensorflow/lite/micro/kernels/pooling.cc **** TfLiteStatus MaxEval(TfLiteContext* context, TfLiteNode* node) {
 185:../src/tensorflow_lite/tensorflow/lite/micro/kernels/pooling.cc ****   TFLITE_DCHECK(node->builtin_data != nullptr);
 186:../src/tensorflow_lite/tensorflow/lite/micro/kernels/pooling.cc ****   auto* params = reinterpret_cast<TfLitePoolParams*>(node->builtin_data);
 187:../src/tensorflow_lite/tensorflow/lite/micro/kernels/pooling.cc **** 
 188:../src/tensorflow_lite/tensorflow/lite/micro/kernels/pooling.cc ****   TFLITE_DCHECK(node->user_data != nullptr);
 189:../src/tensorflow_lite/tensorflow/lite/micro/kernels/pooling.cc ****   const OpData* data = static_cast<const OpData*>(node->user_data);
 190:../src/tensorflow_lite/tensorflow/lite/micro/kernels/pooling.cc **** 
 191:../src/tensorflow_lite/tensorflow/lite/micro/kernels/pooling.cc ****   const TfLiteEvalTensor* input =
 192:../src/tensorflow_lite/tensorflow/lite/micro/kernels/pooling.cc ****       tflite::micro::GetEvalInput(context, node, kInputTensor);
 193:../src/tensorflow_lite/tensorflow/lite/micro/kernels/pooling.cc ****   TfLiteEvalTensor* output =
 194:../src/tensorflow_lite/tensorflow/lite/micro/kernels/pooling.cc ****       tflite::micro::GetEvalOutput(context, node, kOutputTensor);
 195:../src/tensorflow_lite/tensorflow/lite/micro/kernels/pooling.cc **** 
 196:../src/tensorflow_lite/tensorflow/lite/micro/kernels/pooling.cc ****   switch (input->type) {
 197:../src/tensorflow_lite/tensorflow/lite/micro/kernels/pooling.cc ****     case kTfLiteFloat32:
 198:../src/tensorflow_lite/tensorflow/lite/micro/kernels/pooling.cc ****       MaxEvalFloat(context, node, params, data, input, output);
 199:../src/tensorflow_lite/tensorflow/lite/micro/kernels/pooling.cc ****       break;
 200:../src/tensorflow_lite/tensorflow/lite/micro/kernels/pooling.cc ****     case kTfLiteUInt8:
 201:../src/tensorflow_lite/tensorflow/lite/micro/kernels/pooling.cc ****     case kTfLiteInt8:
 202:../src/tensorflow_lite/tensorflow/lite/micro/kernels/pooling.cc ****       MaxEvalQuantized(context, node, params, data, input, output);
 203:../src/tensorflow_lite/tensorflow/lite/micro/kernels/pooling.cc ****       break;
 204:../src/tensorflow_lite/tensorflow/lite/micro/kernels/pooling.cc ****     default:
 205:../src/tensorflow_lite/tensorflow/lite/micro/kernels/pooling.cc ****       TF_LITE_KERNEL_LOG(context, "Type %s not currently supported.",
 206:../src/tensorflow_lite/tensorflow/lite/micro/kernels/pooling.cc ****                          TfLiteTypeGetName(input->type));
 207:../src/tensorflow_lite/tensorflow/lite/micro/kernels/pooling.cc ****       return kTfLiteError;
 208:../src/tensorflow_lite/tensorflow/lite/micro/kernels/pooling.cc ****   }
 209:../src/tensorflow_lite/tensorflow/lite/micro/kernels/pooling.cc ****   return kTfLiteOk;
 210:../src/tensorflow_lite/tensorflow/lite/micro/kernels/pooling.cc **** }
 211:../src/tensorflow_lite/tensorflow/lite/micro/kernels/pooling.cc **** 
 212:../src/tensorflow_lite/tensorflow/lite/micro/kernels/pooling.cc **** void* Init(TfLiteContext* context, const char* buffer, size_t length) {
  27              		.loc 1 212 0
  28              		.cfi_startproc
  29              		@ args = 0, pretend = 0, frame = 0
  30              		@ frame_needed = 0, uses_anonymous_args = 0
  31              	.LVL0:
 213:../src/tensorflow_lite/tensorflow/lite/micro/kernels/pooling.cc ****   TFLITE_DCHECK(context->AllocatePersistentBuffer != nullptr);
  32              		.loc 1 213 0
  33 0000 383090E5 		ldr	r3, [r0, #56]
  34 0004 000053E3 		cmp	r3, #0
  35 0008 0100000A 		beq	.L7
 214:../src/tensorflow_lite/tensorflow/lite/micro/kernels/pooling.cc ****   return context->AllocatePersistentBuffer(context, sizeof(OpData));
  36              		.loc 1 214 0
  37 000c 2010A0E3 		mov	r1, #32
  38              	.LVL1:
  39 0010 13FF2FE1 		bx	r3
  40              	.LVL2:
  41              	.L7:
 212:../src/tensorflow_lite/tensorflow/lite/micro/kernels/pooling.cc ****   TFLITE_DCHECK(context->AllocatePersistentBuffer != nullptr);
  42              		.loc 1 212 0 discriminator 1
  43 0014 10402DE9 		push	{r4, lr}
  44              		.save {r4, lr}
  45              		.cfi_def_cfa_offset 8
  46              		.cfi_offset 4, -8
  47              		.cfi_offset 14, -4
 213:../src/tensorflow_lite/tensorflow/lite/micro/kernels/pooling.cc ****   TFLITE_DCHECK(context->AllocatePersistentBuffer != nullptr);
  48              		.loc 1 213 0 discriminator 1
  49 0018 FEFFFFEB 		bl	abort
  50              	.LVL3:
  51              		.cfi_endproc
  52              	.LFE4188:
  53              		.fnend
  55              		.global	__aeabi_idiv
  56              		.section	.text._ZN6tflite3ops5micro7pooling7PrepareEP13TfLiteContextP10TfLiteNode,"ax",%progbits
  57              		.align	2
  58              		.global	_ZN6tflite3ops5micro7pooling7PrepareEP13TfLiteContextP10TfLiteNode
  59              		.syntax unified
  60              		.arm
  61              		.fpu neon
  63              	_ZN6tflite3ops5micro7pooling7PrepareEP13TfLiteContextP10TfLiteNode:
  64              		.fnstart
  65              	.LFB4189:
 215:../src/tensorflow_lite/tensorflow/lite/micro/kernels/pooling.cc **** }
 216:../src/tensorflow_lite/tensorflow/lite/micro/kernels/pooling.cc **** 
 217:../src/tensorflow_lite/tensorflow/lite/micro/kernels/pooling.cc **** TfLiteStatus Prepare(TfLiteContext* context, TfLiteNode* node) {
  66              		.loc 1 217 0
  67              		.cfi_startproc
  68              		@ args = 0, pretend = 0, frame = 16
  69              		@ frame_needed = 0, uses_anonymous_args = 0
  70              	.LVL4:
  71 0000 F04F2DE9 		push	{r4, r5, r6, r7, r8, r9, r10, fp, lr}
  72              		.save {r4, r5, r6, r7, r8, r9, r10, fp, lr}
  73              		.cfi_def_cfa_offset 36
  74              		.cfi_offset 4, -36
  75              		.cfi_offset 5, -32
  76              		.cfi_offset 6, -28
  77              		.cfi_offset 7, -24
  78              		.cfi_offset 8, -20
  79              		.cfi_offset 9, -16
  80              		.cfi_offset 10, -12
  81              		.cfi_offset 11, -8
  82              		.cfi_offset 14, -4
  83              		.pad #28
  84 0004 1CD04DE2 		sub	sp, sp, #28
  85              		.cfi_def_cfa_offset 64
 218:../src/tensorflow_lite/tensorflow/lite/micro/kernels/pooling.cc ****   TFLITE_DCHECK(node->builtin_data != nullptr);
  86              		.loc 1 218 0
  87 0008 146091E5 		ldr	r6, [r1, #20]
  88 000c 000056E3 		cmp	r6, #0
  89 0010 AD00000A 		beq	.L10
 219:../src/tensorflow_lite/tensorflow/lite/micro/kernels/pooling.cc ****   auto* params = reinterpret_cast<TfLitePoolParams*>(node->builtin_data);
 220:../src/tensorflow_lite/tensorflow/lite/micro/kernels/pooling.cc **** 
 221:../src/tensorflow_lite/tensorflow/lite/micro/kernels/pooling.cc ****   TFLITE_DCHECK(node->user_data != nullptr);
  90              		.loc 1 221 0
  91 0014 107091E5 		ldr	r7, [r1, #16]
  92 0018 0140A0E1 		mov	r4, r1
  93              	.LVL5:
  94 001c 000057E3 		cmp	r7, #0
  95 0020 A900000A 		beq	.L10
  96              	.LVL6:
 222:../src/tensorflow_lite/tensorflow/lite/micro/kernels/pooling.cc ****   OpData* data = static_cast<OpData*>(node->user_data);
 223:../src/tensorflow_lite/tensorflow/lite/micro/kernels/pooling.cc **** 
 224:../src/tensorflow_lite/tensorflow/lite/micro/kernels/pooling.cc ****   const TfLiteTensor* input = GetInput(context, node, kInputTensor);
  97              		.loc 1 224 0
  98 0024 0020A0E3 		mov	r2, #0
  99 0028 00A0A0E1 		mov	r10, r0
 100 002c FEFFFFEB 		bl	_ZN6tflite8GetInputEPK13TfLiteContextPK10TfLiteNodei
 101              	.LVL7:
 225:../src/tensorflow_lite/tensorflow/lite/micro/kernels/pooling.cc ****   TF_LITE_ENSURE(context, input != nullptr);
 102              		.loc 1 225 0
 103 0030 008050E2 		subs	r8, r0, #0
 104 0034 7900000A 		beq	.L42
 226:../src/tensorflow_lite/tensorflow/lite/micro/kernels/pooling.cc ****   TfLiteTensor* output = GetOutput(context, node, kOutputTensor);
 105              		.loc 1 226 0
 106 0038 0410A0E1 		mov	r1, r4
 107 003c 0020A0E3 		mov	r2, #0
 108 0040 0A00A0E1 		mov	r0, r10
 109              	.LVL8:
 110 0044 FEFFFFEB 		bl	_ZN6tflite9GetOutputEP13TfLiteContextPK10TfLiteNodei
 111              	.LVL9:
 227:../src/tensorflow_lite/tensorflow/lite/micro/kernels/pooling.cc ****   TF_LITE_ENSURE(context, output != nullptr);
 112              		.loc 1 227 0
 113 0048 003050E2 		subs	r3, r0, #0
 114 004c 0C308DE5 		str	r3, [sp, #12]
 115 0050 8000000A 		beq	.L43
 116              	.LVL10:
 117              	.LBB380:
 118              	.LBB381:
 119              	.LBB382:
  53:../src/tensorflow_lite/tensorflow/lite/micro/kernels/pooling.cc ****       /*dilation_rate_height=*/1,
 120              		.loc 1 53 0
 121 0054 045096E5 		ldr	r5, [r6, #4]
 122 0058 083098E5 		ldr	r3, [r8, #8]
 123              	.LVL11:
  56:../src/tensorflow_lite/tensorflow/lite/micro/kernels/pooling.cc **** 
 124              		.loc 1 56 0
 125 005c 0C1096E5 		ldr	r1, [r6, #12]
 126              	.LBB383:
 127              	.LBB384:
 128              	.LBB385:
 129              	.LBB386:
 130              		.file 2 "C:/Renesas/e2studio_2021_01_workspace_RZA2M_ANPR/ANPR_RZA2M_RDK/src/tensorflow_lite/tenso
   1:C:/Renesas/e2studio_2021_01_workspace_RZA2M_ANPR/ANPR_RZA2M_RDK/src/tensorflow_lite/tensorflow/lite/kernels\padding.h **** /* Copyright 2017 The TensorFlow Authors. All Rights Reserved.
   2:C:/Renesas/e2studio_2021_01_workspace_RZA2M_ANPR/ANPR_RZA2M_RDK/src/tensorflow_lite/tensorflow/lite/kernels\padding.h **** 
   3:C:/Renesas/e2studio_2021_01_workspace_RZA2M_ANPR/ANPR_RZA2M_RDK/src/tensorflow_lite/tensorflow/lite/kernels\padding.h **** Licensed under the Apache License, Version 2.0 (the "License");
   4:C:/Renesas/e2studio_2021_01_workspace_RZA2M_ANPR/ANPR_RZA2M_RDK/src/tensorflow_lite/tensorflow/lite/kernels\padding.h **** you may not use this file except in compliance with the License.
   5:C:/Renesas/e2studio_2021_01_workspace_RZA2M_ANPR/ANPR_RZA2M_RDK/src/tensorflow_lite/tensorflow/lite/kernels\padding.h **** You may obtain a copy of the License at
   6:C:/Renesas/e2studio_2021_01_workspace_RZA2M_ANPR/ANPR_RZA2M_RDK/src/tensorflow_lite/tensorflow/lite/kernels\padding.h **** 
   7:C:/Renesas/e2studio_2021_01_workspace_RZA2M_ANPR/ANPR_RZA2M_RDK/src/tensorflow_lite/tensorflow/lite/kernels\padding.h ****     http://www.apache.org/licenses/LICENSE-2.0
   8:C:/Renesas/e2studio_2021_01_workspace_RZA2M_ANPR/ANPR_RZA2M_RDK/src/tensorflow_lite/tensorflow/lite/kernels\padding.h **** 
   9:C:/Renesas/e2studio_2021_01_workspace_RZA2M_ANPR/ANPR_RZA2M_RDK/src/tensorflow_lite/tensorflow/lite/kernels\padding.h **** Unless required by applicable law or agreed to in writing, software
  10:C:/Renesas/e2studio_2021_01_workspace_RZA2M_ANPR/ANPR_RZA2M_RDK/src/tensorflow_lite/tensorflow/lite/kernels\padding.h **** distributed under the License is distributed on an "AS IS" BASIS,
  11:C:/Renesas/e2studio_2021_01_workspace_RZA2M_ANPR/ANPR_RZA2M_RDK/src/tensorflow_lite/tensorflow/lite/kernels\padding.h **** WITHOUT WARRANTIES OR CONDITIONS OF ANY KIND, either express or implied.
  12:C:/Renesas/e2studio_2021_01_workspace_RZA2M_ANPR/ANPR_RZA2M_RDK/src/tensorflow_lite/tensorflow/lite/kernels\padding.h **** See the License for the specific language governing permissions and
  13:C:/Renesas/e2studio_2021_01_workspace_RZA2M_ANPR/ANPR_RZA2M_RDK/src/tensorflow_lite/tensorflow/lite/kernels\padding.h **** limitations under the License.
  14:C:/Renesas/e2studio_2021_01_workspace_RZA2M_ANPR/ANPR_RZA2M_RDK/src/tensorflow_lite/tensorflow/lite/kernels\padding.h **** ==============================================================================*/
  15:C:/Renesas/e2studio_2021_01_workspace_RZA2M_ANPR/ANPR_RZA2M_RDK/src/tensorflow_lite/tensorflow/lite/kernels\padding.h **** #ifndef TENSORFLOW_LITE_KERNELS_PADDING_H_
  16:C:/Renesas/e2studio_2021_01_workspace_RZA2M_ANPR/ANPR_RZA2M_RDK/src/tensorflow_lite/tensorflow/lite/kernels\padding.h **** #define TENSORFLOW_LITE_KERNELS_PADDING_H_
  17:C:/Renesas/e2studio_2021_01_workspace_RZA2M_ANPR/ANPR_RZA2M_RDK/src/tensorflow_lite/tensorflow/lite/kernels\padding.h **** 
  18:C:/Renesas/e2studio_2021_01_workspace_RZA2M_ANPR/ANPR_RZA2M_RDK/src/tensorflow_lite/tensorflow/lite/kernels\padding.h **** #include "tensorflow/lite/c/builtin_op_data.h"
  19:C:/Renesas/e2studio_2021_01_workspace_RZA2M_ANPR/ANPR_RZA2M_RDK/src/tensorflow_lite/tensorflow/lite/kernels\padding.h **** #include "tensorflow/lite/kernels/internal/types.h"
  20:C:/Renesas/e2studio_2021_01_workspace_RZA2M_ANPR/ANPR_RZA2M_RDK/src/tensorflow_lite/tensorflow/lite/kernels\padding.h **** 
  21:C:/Renesas/e2studio_2021_01_workspace_RZA2M_ANPR/ANPR_RZA2M_RDK/src/tensorflow_lite/tensorflow/lite/kernels\padding.h **** namespace tflite {
  22:C:/Renesas/e2studio_2021_01_workspace_RZA2M_ANPR/ANPR_RZA2M_RDK/src/tensorflow_lite/tensorflow/lite/kernels\padding.h **** 
  23:C:/Renesas/e2studio_2021_01_workspace_RZA2M_ANPR/ANPR_RZA2M_RDK/src/tensorflow_lite/tensorflow/lite/kernels\padding.h **** inline int ComputePadding(int stride, int dilation_rate, int in_size,
  24:C:/Renesas/e2studio_2021_01_workspace_RZA2M_ANPR/ANPR_RZA2M_RDK/src/tensorflow_lite/tensorflow/lite/kernels\padding.h ****                           int filter_size, int out_size) {
  25:C:/Renesas/e2studio_2021_01_workspace_RZA2M_ANPR/ANPR_RZA2M_RDK/src/tensorflow_lite/tensorflow/lite/kernels\padding.h ****   int effective_filter_size = (filter_size - 1) * dilation_rate + 1;
  26:C:/Renesas/e2studio_2021_01_workspace_RZA2M_ANPR/ANPR_RZA2M_RDK/src/tensorflow_lite/tensorflow/lite/kernels\padding.h ****   int padding = ((out_size - 1) * stride + effective_filter_size - in_size) / 2;
  27:C:/Renesas/e2studio_2021_01_workspace_RZA2M_ANPR/ANPR_RZA2M_RDK/src/tensorflow_lite/tensorflow/lite/kernels\padding.h ****   return padding > 0 ? padding : 0;
  28:C:/Renesas/e2studio_2021_01_workspace_RZA2M_ANPR/ANPR_RZA2M_RDK/src/tensorflow_lite/tensorflow/lite/kernels\padding.h **** }
  29:C:/Renesas/e2studio_2021_01_workspace_RZA2M_ANPR/ANPR_RZA2M_RDK/src/tensorflow_lite/tensorflow/lite/kernels\padding.h **** 
  30:C:/Renesas/e2studio_2021_01_workspace_RZA2M_ANPR/ANPR_RZA2M_RDK/src/tensorflow_lite/tensorflow/lite/kernels\padding.h **** // It's not guaranteed that padding is symmetric. It's important to keep
  31:C:/Renesas/e2studio_2021_01_workspace_RZA2M_ANPR/ANPR_RZA2M_RDK/src/tensorflow_lite/tensorflow/lite/kernels\padding.h **** // offset for algorithms need all paddings.
  32:C:/Renesas/e2studio_2021_01_workspace_RZA2M_ANPR/ANPR_RZA2M_RDK/src/tensorflow_lite/tensorflow/lite/kernels\padding.h **** inline int ComputePaddingWithOffset(int stride, int dilation_rate, int in_size,
  33:C:/Renesas/e2studio_2021_01_workspace_RZA2M_ANPR/ANPR_RZA2M_RDK/src/tensorflow_lite/tensorflow/lite/kernels\padding.h ****                                     int filter_size, int out_size,
  34:C:/Renesas/e2studio_2021_01_workspace_RZA2M_ANPR/ANPR_RZA2M_RDK/src/tensorflow_lite/tensorflow/lite/kernels\padding.h ****                                     int* offset) {
  35:C:/Renesas/e2studio_2021_01_workspace_RZA2M_ANPR/ANPR_RZA2M_RDK/src/tensorflow_lite/tensorflow/lite/kernels\padding.h ****   int effective_filter_size = (filter_size - 1) * dilation_rate + 1;
  36:C:/Renesas/e2studio_2021_01_workspace_RZA2M_ANPR/ANPR_RZA2M_RDK/src/tensorflow_lite/tensorflow/lite/kernels\padding.h ****   int total_padding =
  37:C:/Renesas/e2studio_2021_01_workspace_RZA2M_ANPR/ANPR_RZA2M_RDK/src/tensorflow_lite/tensorflow/lite/kernels\padding.h ****       ((out_size - 1) * stride + effective_filter_size - in_size);
  38:C:/Renesas/e2studio_2021_01_workspace_RZA2M_ANPR/ANPR_RZA2M_RDK/src/tensorflow_lite/tensorflow/lite/kernels\padding.h ****   total_padding = total_padding > 0 ? total_padding : 0;
  39:C:/Renesas/e2studio_2021_01_workspace_RZA2M_ANPR/ANPR_RZA2M_RDK/src/tensorflow_lite/tensorflow/lite/kernels\padding.h ****   *offset = total_padding % 2;
  40:C:/Renesas/e2studio_2021_01_workspace_RZA2M_ANPR/ANPR_RZA2M_RDK/src/tensorflow_lite/tensorflow/lite/kernels\padding.h ****   return total_padding / 2;
  41:C:/Renesas/e2studio_2021_01_workspace_RZA2M_ANPR/ANPR_RZA2M_RDK/src/tensorflow_lite/tensorflow/lite/kernels\padding.h **** }
  42:C:/Renesas/e2studio_2021_01_workspace_RZA2M_ANPR/ANPR_RZA2M_RDK/src/tensorflow_lite/tensorflow/lite/kernels\padding.h **** 
  43:C:/Renesas/e2studio_2021_01_workspace_RZA2M_ANPR/ANPR_RZA2M_RDK/src/tensorflow_lite/tensorflow/lite/kernels\padding.h **** // Matching GetWindowedOutputSize in TensorFlow.
  44:C:/Renesas/e2studio_2021_01_workspace_RZA2M_ANPR/ANPR_RZA2M_RDK/src/tensorflow_lite/tensorflow/lite/kernels\padding.h **** inline int ComputeOutSize(TfLitePadding padding, int image_size,
  45:C:/Renesas/e2studio_2021_01_workspace_RZA2M_ANPR/ANPR_RZA2M_RDK/src/tensorflow_lite/tensorflow/lite/kernels\padding.h ****                           int filter_size, int stride, int dilation_rate = 1) {
  46:C:/Renesas/e2studio_2021_01_workspace_RZA2M_ANPR/ANPR_RZA2M_RDK/src/tensorflow_lite/tensorflow/lite/kernels\padding.h ****   int effective_filter_size = (filter_size - 1) * dilation_rate + 1;
  47:C:/Renesas/e2studio_2021_01_workspace_RZA2M_ANPR/ANPR_RZA2M_RDK/src/tensorflow_lite/tensorflow/lite/kernels\padding.h **** 
  48:C:/Renesas/e2studio_2021_01_workspace_RZA2M_ANPR/ANPR_RZA2M_RDK/src/tensorflow_lite/tensorflow/lite/kernels\padding.h ****   // TODO(b/186448822): This uses 0 since the function has no other way to
  49:C:/Renesas/e2studio_2021_01_workspace_RZA2M_ANPR/ANPR_RZA2M_RDK/src/tensorflow_lite/tensorflow/lite/kernels\padding.h ****   // report error case
  50:C:/Renesas/e2studio_2021_01_workspace_RZA2M_ANPR/ANPR_RZA2M_RDK/src/tensorflow_lite/tensorflow/lite/kernels\padding.h ****   if (stride == 0) return 0;
 131              		.loc 2 50 0
 132 0060 000055E3 		cmp	r5, #0
 133              	.LBE386:
 134              	.LBE385:
 135              	.LBE384:
 136              	.LBE383:
  53:../src/tensorflow_lite/tensorflow/lite/micro/kernels/pooling.cc ****       /*dilation_rate_height=*/1,
 137              		.loc 1 53 0
 138 0064 084096E5 		ldr	r4, [r6, #8]
 139              	.LVL12:
 140              	.LBB423:
 141              	.LBB424:
 142              		.file 3 "C:/Renesas/e2studio_2021_01_workspace_RZA2M_ANPR/ANPR_RZA2M_RDK/src/tensorflow_lite/tenso
   1:C:/Renesas/e2studio_2021_01_workspace_RZA2M_ANPR/ANPR_RZA2M_RDK/src/tensorflow_lite/tensorflow/lite/kernels\kernel_util.h **** /* Copyright 2017 The TensorFlow Authors. All Rights Reserved.
   2:C:/Renesas/e2studio_2021_01_workspace_RZA2M_ANPR/ANPR_RZA2M_RDK/src/tensorflow_lite/tensorflow/lite/kernels\kernel_util.h **** 
   3:C:/Renesas/e2studio_2021_01_workspace_RZA2M_ANPR/ANPR_RZA2M_RDK/src/tensorflow_lite/tensorflow/lite/kernels\kernel_util.h **** Licensed under the Apache License, Version 2.0 (the "License");
   4:C:/Renesas/e2studio_2021_01_workspace_RZA2M_ANPR/ANPR_RZA2M_RDK/src/tensorflow_lite/tensorflow/lite/kernels\kernel_util.h **** you may not use this file except in compliance with the License.
   5:C:/Renesas/e2studio_2021_01_workspace_RZA2M_ANPR/ANPR_RZA2M_RDK/src/tensorflow_lite/tensorflow/lite/kernels\kernel_util.h **** You may obtain a copy of the License at
   6:C:/Renesas/e2studio_2021_01_workspace_RZA2M_ANPR/ANPR_RZA2M_RDK/src/tensorflow_lite/tensorflow/lite/kernels\kernel_util.h **** 
   7:C:/Renesas/e2studio_2021_01_workspace_RZA2M_ANPR/ANPR_RZA2M_RDK/src/tensorflow_lite/tensorflow/lite/kernels\kernel_util.h ****     http://www.apache.org/licenses/LICENSE-2.0
   8:C:/Renesas/e2studio_2021_01_workspace_RZA2M_ANPR/ANPR_RZA2M_RDK/src/tensorflow_lite/tensorflow/lite/kernels\kernel_util.h **** 
   9:C:/Renesas/e2studio_2021_01_workspace_RZA2M_ANPR/ANPR_RZA2M_RDK/src/tensorflow_lite/tensorflow/lite/kernels\kernel_util.h **** Unless required by applicable law or agreed to in writing, software
  10:C:/Renesas/e2studio_2021_01_workspace_RZA2M_ANPR/ANPR_RZA2M_RDK/src/tensorflow_lite/tensorflow/lite/kernels\kernel_util.h **** distributed under the License is distributed on an "AS IS" BASIS,
  11:C:/Renesas/e2studio_2021_01_workspace_RZA2M_ANPR/ANPR_RZA2M_RDK/src/tensorflow_lite/tensorflow/lite/kernels\kernel_util.h **** WITHOUT WARRANTIES OR CONDITIONS OF ANY KIND, either express or implied.
  12:C:/Renesas/e2studio_2021_01_workspace_RZA2M_ANPR/ANPR_RZA2M_RDK/src/tensorflow_lite/tensorflow/lite/kernels\kernel_util.h **** See the License for the specific language governing permissions and
  13:C:/Renesas/e2studio_2021_01_workspace_RZA2M_ANPR/ANPR_RZA2M_RDK/src/tensorflow_lite/tensorflow/lite/kernels\kernel_util.h **** limitations under the License.
  14:C:/Renesas/e2studio_2021_01_workspace_RZA2M_ANPR/ANPR_RZA2M_RDK/src/tensorflow_lite/tensorflow/lite/kernels\kernel_util.h **** ==============================================================================*/
  15:C:/Renesas/e2studio_2021_01_workspace_RZA2M_ANPR/ANPR_RZA2M_RDK/src/tensorflow_lite/tensorflow/lite/kernels\kernel_util.h **** #ifndef TENSORFLOW_LITE_KERNELS_KERNEL_UTIL_H_
  16:C:/Renesas/e2studio_2021_01_workspace_RZA2M_ANPR/ANPR_RZA2M_RDK/src/tensorflow_lite/tensorflow/lite/kernels\kernel_util.h **** #define TENSORFLOW_LITE_KERNELS_KERNEL_UTIL_H_
  17:C:/Renesas/e2studio_2021_01_workspace_RZA2M_ANPR/ANPR_RZA2M_RDK/src/tensorflow_lite/tensorflow/lite/kernels\kernel_util.h **** 
  18:C:/Renesas/e2studio_2021_01_workspace_RZA2M_ANPR/ANPR_RZA2M_RDK/src/tensorflow_lite/tensorflow/lite/kernels\kernel_util.h **** #include <stdint.h>
  19:C:/Renesas/e2studio_2021_01_workspace_RZA2M_ANPR/ANPR_RZA2M_RDK/src/tensorflow_lite/tensorflow/lite/kernels\kernel_util.h **** 
  20:C:/Renesas/e2studio_2021_01_workspace_RZA2M_ANPR/ANPR_RZA2M_RDK/src/tensorflow_lite/tensorflow/lite/kernels\kernel_util.h **** #include <limits>
  21:C:/Renesas/e2studio_2021_01_workspace_RZA2M_ANPR/ANPR_RZA2M_RDK/src/tensorflow_lite/tensorflow/lite/kernels\kernel_util.h **** 
  22:C:/Renesas/e2studio_2021_01_workspace_RZA2M_ANPR/ANPR_RZA2M_RDK/src/tensorflow_lite/tensorflow/lite/kernels\kernel_util.h **** #include "tensorflow/lite/c/builtin_op_data.h"
  23:C:/Renesas/e2studio_2021_01_workspace_RZA2M_ANPR/ANPR_RZA2M_RDK/src/tensorflow_lite/tensorflow/lite/kernels\kernel_util.h **** #include "tensorflow/lite/c/common.h"
  24:C:/Renesas/e2studio_2021_01_workspace_RZA2M_ANPR/ANPR_RZA2M_RDK/src/tensorflow_lite/tensorflow/lite/kernels\kernel_util.h **** 
  25:C:/Renesas/e2studio_2021_01_workspace_RZA2M_ANPR/ANPR_RZA2M_RDK/src/tensorflow_lite/tensorflow/lite/kernels\kernel_util.h **** namespace tflite {
  26:C:/Renesas/e2studio_2021_01_workspace_RZA2M_ANPR/ANPR_RZA2M_RDK/src/tensorflow_lite/tensorflow/lite/kernels\kernel_util.h **** 
  27:C:/Renesas/e2studio_2021_01_workspace_RZA2M_ANPR/ANPR_RZA2M_RDK/src/tensorflow_lite/tensorflow/lite/kernels\kernel_util.h **** // A fair number of functions in this header have historically been inline.
  28:C:/Renesas/e2studio_2021_01_workspace_RZA2M_ANPR/ANPR_RZA2M_RDK/src/tensorflow_lite/tensorflow/lite/kernels\kernel_util.h **** // It is ok to change functions to not be inline if the latency with
  29:C:/Renesas/e2studio_2021_01_workspace_RZA2M_ANPR/ANPR_RZA2M_RDK/src/tensorflow_lite/tensorflow/lite/kernels\kernel_util.h **** // benchmark_model for MobileNet + MobileBERT is unaffected. If such a change is
  30:C:/Renesas/e2studio_2021_01_workspace_RZA2M_ANPR/ANPR_RZA2M_RDK/src/tensorflow_lite/tensorflow/lite/kernels\kernel_util.h **** // made, move the newly non-inlined function declarations to the top of this
  31:C:/Renesas/e2studio_2021_01_workspace_RZA2M_ANPR/ANPR_RZA2M_RDK/src/tensorflow_lite/tensorflow/lite/kernels\kernel_util.h **** // header file.
  32:C:/Renesas/e2studio_2021_01_workspace_RZA2M_ANPR/ANPR_RZA2M_RDK/src/tensorflow_lite/tensorflow/lite/kernels\kernel_util.h **** 
  33:C:/Renesas/e2studio_2021_01_workspace_RZA2M_ANPR/ANPR_RZA2M_RDK/src/tensorflow_lite/tensorflow/lite/kernels\kernel_util.h **** // Note: You must check if result is not null:
  34:C:/Renesas/e2studio_2021_01_workspace_RZA2M_ANPR/ANPR_RZA2M_RDK/src/tensorflow_lite/tensorflow/lite/kernels\kernel_util.h **** //
  35:C:/Renesas/e2studio_2021_01_workspace_RZA2M_ANPR/ANPR_RZA2M_RDK/src/tensorflow_lite/tensorflow/lite/kernels\kernel_util.h **** //   TfLiteTensor* my_tensor = GetInput(context, node, kMyTensorIdx);
  36:C:/Renesas/e2studio_2021_01_workspace_RZA2M_ANPR/ANPR_RZA2M_RDK/src/tensorflow_lite/tensorflow/lite/kernels\kernel_util.h **** //   TF_LITE_ENSURE(context, my_tensor != nullptr);
  37:C:/Renesas/e2studio_2021_01_workspace_RZA2M_ANPR/ANPR_RZA2M_RDK/src/tensorflow_lite/tensorflow/lite/kernels\kernel_util.h **** //
  38:C:/Renesas/e2studio_2021_01_workspace_RZA2M_ANPR/ANPR_RZA2M_RDK/src/tensorflow_lite/tensorflow/lite/kernels\kernel_util.h **** // This is because the index might point to the optional tensor constant
  39:C:/Renesas/e2studio_2021_01_workspace_RZA2M_ANPR/ANPR_RZA2M_RDK/src/tensorflow_lite/tensorflow/lite/kernels\kernel_util.h **** // (kTfLiteOptionalTensor) in which case there is no tensor to return.
  40:C:/Renesas/e2studio_2021_01_workspace_RZA2M_ANPR/ANPR_RZA2M_RDK/src/tensorflow_lite/tensorflow/lite/kernels\kernel_util.h **** const TfLiteTensor* GetInput(const TfLiteContext* context,
  41:C:/Renesas/e2studio_2021_01_workspace_RZA2M_ANPR/ANPR_RZA2M_RDK/src/tensorflow_lite/tensorflow/lite/kernels\kernel_util.h ****                              const TfLiteNode* node, int index);
  42:C:/Renesas/e2studio_2021_01_workspace_RZA2M_ANPR/ANPR_RZA2M_RDK/src/tensorflow_lite/tensorflow/lite/kernels\kernel_util.h **** 
  43:C:/Renesas/e2studio_2021_01_workspace_RZA2M_ANPR/ANPR_RZA2M_RDK/src/tensorflow_lite/tensorflow/lite/kernels\kernel_util.h **** // Same as `GetInput` but returns boolean and uses output argument for tensor.
  44:C:/Renesas/e2studio_2021_01_workspace_RZA2M_ANPR/ANPR_RZA2M_RDK/src/tensorflow_lite/tensorflow/lite/kernels\kernel_util.h **** //
  45:C:/Renesas/e2studio_2021_01_workspace_RZA2M_ANPR/ANPR_RZA2M_RDK/src/tensorflow_lite/tensorflow/lite/kernels\kernel_util.h **** //   TfLiteTensor* my_tensor;
  46:C:/Renesas/e2studio_2021_01_workspace_RZA2M_ANPR/ANPR_RZA2M_RDK/src/tensorflow_lite/tensorflow/lite/kernels\kernel_util.h **** //   TF_LITE_ENSURE_OK(context,
  47:C:/Renesas/e2studio_2021_01_workspace_RZA2M_ANPR/ANPR_RZA2M_RDK/src/tensorflow_lite/tensorflow/lite/kernels\kernel_util.h **** //                     GetInputSafe(context, node, kMyTensorIdx, &my_tensor));
  48:C:/Renesas/e2studio_2021_01_workspace_RZA2M_ANPR/ANPR_RZA2M_RDK/src/tensorflow_lite/tensorflow/lite/kernels\kernel_util.h **** //   // can use my_tensor directly from here onwards, it is not nullptr
  49:C:/Renesas/e2studio_2021_01_workspace_RZA2M_ANPR/ANPR_RZA2M_RDK/src/tensorflow_lite/tensorflow/lite/kernels\kernel_util.h **** //
  50:C:/Renesas/e2studio_2021_01_workspace_RZA2M_ANPR/ANPR_RZA2M_RDK/src/tensorflow_lite/tensorflow/lite/kernels\kernel_util.h **** // Should be used in cases where the binary size is too large.
  51:C:/Renesas/e2studio_2021_01_workspace_RZA2M_ANPR/ANPR_RZA2M_RDK/src/tensorflow_lite/tensorflow/lite/kernels\kernel_util.h **** TfLiteStatus GetInputSafe(const TfLiteContext* context, const TfLiteNode* node,
  52:C:/Renesas/e2studio_2021_01_workspace_RZA2M_ANPR/ANPR_RZA2M_RDK/src/tensorflow_lite/tensorflow/lite/kernels\kernel_util.h ****                           int index, const TfLiteTensor** tensor);
  53:C:/Renesas/e2studio_2021_01_workspace_RZA2M_ANPR/ANPR_RZA2M_RDK/src/tensorflow_lite/tensorflow/lite/kernels\kernel_util.h **** 
  54:C:/Renesas/e2studio_2021_01_workspace_RZA2M_ANPR/ANPR_RZA2M_RDK/src/tensorflow_lite/tensorflow/lite/kernels\kernel_util.h **** // Note: You must check if result is not null:
  55:C:/Renesas/e2studio_2021_01_workspace_RZA2M_ANPR/ANPR_RZA2M_RDK/src/tensorflow_lite/tensorflow/lite/kernels\kernel_util.h **** //
  56:C:/Renesas/e2studio_2021_01_workspace_RZA2M_ANPR/ANPR_RZA2M_RDK/src/tensorflow_lite/tensorflow/lite/kernels\kernel_util.h **** //   TfLiteTensor* my_tensor = GetVariableInput(context, node, kMyTensorIdx);
  57:C:/Renesas/e2studio_2021_01_workspace_RZA2M_ANPR/ANPR_RZA2M_RDK/src/tensorflow_lite/tensorflow/lite/kernels\kernel_util.h **** //   TF_LITE_ENSURE(context, my_tensor != nullptr);
  58:C:/Renesas/e2studio_2021_01_workspace_RZA2M_ANPR/ANPR_RZA2M_RDK/src/tensorflow_lite/tensorflow/lite/kernels\kernel_util.h **** //
  59:C:/Renesas/e2studio_2021_01_workspace_RZA2M_ANPR/ANPR_RZA2M_RDK/src/tensorflow_lite/tensorflow/lite/kernels\kernel_util.h **** // This is because the index might point to the optional tensor constant
  60:C:/Renesas/e2studio_2021_01_workspace_RZA2M_ANPR/ANPR_RZA2M_RDK/src/tensorflow_lite/tensorflow/lite/kernels\kernel_util.h **** // (kTfLiteOptionalTensor) in which case there is no tensor to return.
  61:C:/Renesas/e2studio_2021_01_workspace_RZA2M_ANPR/ANPR_RZA2M_RDK/src/tensorflow_lite/tensorflow/lite/kernels\kernel_util.h **** TfLiteTensor* GetVariableInput(TfLiteContext* context, const TfLiteNode* node,
  62:C:/Renesas/e2studio_2021_01_workspace_RZA2M_ANPR/ANPR_RZA2M_RDK/src/tensorflow_lite/tensorflow/lite/kernels\kernel_util.h ****                                int index);
  63:C:/Renesas/e2studio_2021_01_workspace_RZA2M_ANPR/ANPR_RZA2M_RDK/src/tensorflow_lite/tensorflow/lite/kernels\kernel_util.h **** 
  64:C:/Renesas/e2studio_2021_01_workspace_RZA2M_ANPR/ANPR_RZA2M_RDK/src/tensorflow_lite/tensorflow/lite/kernels\kernel_util.h **** // Note: You must check if result is not null:
  65:C:/Renesas/e2studio_2021_01_workspace_RZA2M_ANPR/ANPR_RZA2M_RDK/src/tensorflow_lite/tensorflow/lite/kernels\kernel_util.h **** //
  66:C:/Renesas/e2studio_2021_01_workspace_RZA2M_ANPR/ANPR_RZA2M_RDK/src/tensorflow_lite/tensorflow/lite/kernels\kernel_util.h **** //   TfLiteTensor* my_tensor = GetOutput(context, node, kMyTensorIdx);
  67:C:/Renesas/e2studio_2021_01_workspace_RZA2M_ANPR/ANPR_RZA2M_RDK/src/tensorflow_lite/tensorflow/lite/kernels\kernel_util.h **** //   TF_LITE_ENSURE(context, my_tensor != nullptr);
  68:C:/Renesas/e2studio_2021_01_workspace_RZA2M_ANPR/ANPR_RZA2M_RDK/src/tensorflow_lite/tensorflow/lite/kernels\kernel_util.h **** //
  69:C:/Renesas/e2studio_2021_01_workspace_RZA2M_ANPR/ANPR_RZA2M_RDK/src/tensorflow_lite/tensorflow/lite/kernels\kernel_util.h **** // This is because the index might point to the optional tensor constant
  70:C:/Renesas/e2studio_2021_01_workspace_RZA2M_ANPR/ANPR_RZA2M_RDK/src/tensorflow_lite/tensorflow/lite/kernels\kernel_util.h **** // (kTfLiteOptionalTensor) in which case there is no tensor to return.
  71:C:/Renesas/e2studio_2021_01_workspace_RZA2M_ANPR/ANPR_RZA2M_RDK/src/tensorflow_lite/tensorflow/lite/kernels\kernel_util.h **** TfLiteTensor* GetOutput(TfLiteContext* context, const TfLiteNode* node,
  72:C:/Renesas/e2studio_2021_01_workspace_RZA2M_ANPR/ANPR_RZA2M_RDK/src/tensorflow_lite/tensorflow/lite/kernels\kernel_util.h ****                         int index);
  73:C:/Renesas/e2studio_2021_01_workspace_RZA2M_ANPR/ANPR_RZA2M_RDK/src/tensorflow_lite/tensorflow/lite/kernels\kernel_util.h **** 
  74:C:/Renesas/e2studio_2021_01_workspace_RZA2M_ANPR/ANPR_RZA2M_RDK/src/tensorflow_lite/tensorflow/lite/kernels\kernel_util.h **** // Same as `GetOutput` but returns boolean and uses output argument for tensor.
  75:C:/Renesas/e2studio_2021_01_workspace_RZA2M_ANPR/ANPR_RZA2M_RDK/src/tensorflow_lite/tensorflow/lite/kernels\kernel_util.h **** //
  76:C:/Renesas/e2studio_2021_01_workspace_RZA2M_ANPR/ANPR_RZA2M_RDK/src/tensorflow_lite/tensorflow/lite/kernels\kernel_util.h **** //   TfLiteTensor* my_tensor;
  77:C:/Renesas/e2studio_2021_01_workspace_RZA2M_ANPR/ANPR_RZA2M_RDK/src/tensorflow_lite/tensorflow/lite/kernels\kernel_util.h **** //   TF_LITE_ENSURE_OK(context,
  78:C:/Renesas/e2studio_2021_01_workspace_RZA2M_ANPR/ANPR_RZA2M_RDK/src/tensorflow_lite/tensorflow/lite/kernels\kernel_util.h **** //                     GetOutputSafe(context, node, kMyTensorIdx, &my_tensor));
  79:C:/Renesas/e2studio_2021_01_workspace_RZA2M_ANPR/ANPR_RZA2M_RDK/src/tensorflow_lite/tensorflow/lite/kernels\kernel_util.h **** //   // can use my_tensor directly from here onwards, it is not nullptr
  80:C:/Renesas/e2studio_2021_01_workspace_RZA2M_ANPR/ANPR_RZA2M_RDK/src/tensorflow_lite/tensorflow/lite/kernels\kernel_util.h **** //
  81:C:/Renesas/e2studio_2021_01_workspace_RZA2M_ANPR/ANPR_RZA2M_RDK/src/tensorflow_lite/tensorflow/lite/kernels\kernel_util.h **** // Should be used in cases where the binary size is too large.
  82:C:/Renesas/e2studio_2021_01_workspace_RZA2M_ANPR/ANPR_RZA2M_RDK/src/tensorflow_lite/tensorflow/lite/kernels\kernel_util.h **** TfLiteStatus GetOutputSafe(const TfLiteContext* context, const TfLiteNode* node,
  83:C:/Renesas/e2studio_2021_01_workspace_RZA2M_ANPR/ANPR_RZA2M_RDK/src/tensorflow_lite/tensorflow/lite/kernels\kernel_util.h ****                            int index, TfLiteTensor** tensor);
  84:C:/Renesas/e2studio_2021_01_workspace_RZA2M_ANPR/ANPR_RZA2M_RDK/src/tensorflow_lite/tensorflow/lite/kernels\kernel_util.h **** 
  85:C:/Renesas/e2studio_2021_01_workspace_RZA2M_ANPR/ANPR_RZA2M_RDK/src/tensorflow_lite/tensorflow/lite/kernels\kernel_util.h **** // Note: You must check if result is not null:
  86:C:/Renesas/e2studio_2021_01_workspace_RZA2M_ANPR/ANPR_RZA2M_RDK/src/tensorflow_lite/tensorflow/lite/kernels\kernel_util.h **** //
  87:C:/Renesas/e2studio_2021_01_workspace_RZA2M_ANPR/ANPR_RZA2M_RDK/src/tensorflow_lite/tensorflow/lite/kernels\kernel_util.h **** //   TfLiteTensor* my_tensor = GetOptionalInputTensor(context, node, kIdx);
  88:C:/Renesas/e2studio_2021_01_workspace_RZA2M_ANPR/ANPR_RZA2M_RDK/src/tensorflow_lite/tensorflow/lite/kernels\kernel_util.h **** //   TF_LITE_ENSURE(context, my_tensor != nullptr);
  89:C:/Renesas/e2studio_2021_01_workspace_RZA2M_ANPR/ANPR_RZA2M_RDK/src/tensorflow_lite/tensorflow/lite/kernels\kernel_util.h **** //
  90:C:/Renesas/e2studio_2021_01_workspace_RZA2M_ANPR/ANPR_RZA2M_RDK/src/tensorflow_lite/tensorflow/lite/kernels\kernel_util.h **** // This is because the index might point to the optional tensor constant
  91:C:/Renesas/e2studio_2021_01_workspace_RZA2M_ANPR/ANPR_RZA2M_RDK/src/tensorflow_lite/tensorflow/lite/kernels\kernel_util.h **** // (kTfLiteOptionalTensor) in which case there is no tensor to return.
  92:C:/Renesas/e2studio_2021_01_workspace_RZA2M_ANPR/ANPR_RZA2M_RDK/src/tensorflow_lite/tensorflow/lite/kernels\kernel_util.h **** //
  93:C:/Renesas/e2studio_2021_01_workspace_RZA2M_ANPR/ANPR_RZA2M_RDK/src/tensorflow_lite/tensorflow/lite/kernels\kernel_util.h **** // Deprecated. GetInput has the same functionality.
  94:C:/Renesas/e2studio_2021_01_workspace_RZA2M_ANPR/ANPR_RZA2M_RDK/src/tensorflow_lite/tensorflow/lite/kernels\kernel_util.h **** const TfLiteTensor* GetOptionalInputTensor(const TfLiteContext* context,
  95:C:/Renesas/e2studio_2021_01_workspace_RZA2M_ANPR/ANPR_RZA2M_RDK/src/tensorflow_lite/tensorflow/lite/kernels\kernel_util.h ****                                            const TfLiteNode* node, int index);
  96:C:/Renesas/e2studio_2021_01_workspace_RZA2M_ANPR/ANPR_RZA2M_RDK/src/tensorflow_lite/tensorflow/lite/kernels\kernel_util.h **** 
  97:C:/Renesas/e2studio_2021_01_workspace_RZA2M_ANPR/ANPR_RZA2M_RDK/src/tensorflow_lite/tensorflow/lite/kernels\kernel_util.h **** #ifndef TF_LITE_STATIC_MEMORY
  98:C:/Renesas/e2studio_2021_01_workspace_RZA2M_ANPR/ANPR_RZA2M_RDK/src/tensorflow_lite/tensorflow/lite/kernels\kernel_util.h **** // Note: You must check if result is not null:
  99:C:/Renesas/e2studio_2021_01_workspace_RZA2M_ANPR/ANPR_RZA2M_RDK/src/tensorflow_lite/tensorflow/lite/kernels\kernel_util.h **** //
 100:C:/Renesas/e2studio_2021_01_workspace_RZA2M_ANPR/ANPR_RZA2M_RDK/src/tensorflow_lite/tensorflow/lite/kernels\kernel_util.h **** //   TfLiteTensor* my_tensor = GetTemporary(context, node, kMyTensorIdx);
 101:C:/Renesas/e2studio_2021_01_workspace_RZA2M_ANPR/ANPR_RZA2M_RDK/src/tensorflow_lite/tensorflow/lite/kernels\kernel_util.h **** //   TF_LITE_ENSURE(context, my_tensor != nullptr);
 102:C:/Renesas/e2studio_2021_01_workspace_RZA2M_ANPR/ANPR_RZA2M_RDK/src/tensorflow_lite/tensorflow/lite/kernels\kernel_util.h **** //
 103:C:/Renesas/e2studio_2021_01_workspace_RZA2M_ANPR/ANPR_RZA2M_RDK/src/tensorflow_lite/tensorflow/lite/kernels\kernel_util.h **** // This is because the index might point to the optional tensor constant
 104:C:/Renesas/e2studio_2021_01_workspace_RZA2M_ANPR/ANPR_RZA2M_RDK/src/tensorflow_lite/tensorflow/lite/kernels\kernel_util.h **** // (kTfLiteOptionalTensor) in which case there is no tensor to return.
 105:C:/Renesas/e2studio_2021_01_workspace_RZA2M_ANPR/ANPR_RZA2M_RDK/src/tensorflow_lite/tensorflow/lite/kernels\kernel_util.h **** TfLiteTensor* GetTemporary(TfLiteContext* context, const TfLiteNode* node,
 106:C:/Renesas/e2studio_2021_01_workspace_RZA2M_ANPR/ANPR_RZA2M_RDK/src/tensorflow_lite/tensorflow/lite/kernels\kernel_util.h ****                            int index);
 107:C:/Renesas/e2studio_2021_01_workspace_RZA2M_ANPR/ANPR_RZA2M_RDK/src/tensorflow_lite/tensorflow/lite/kernels\kernel_util.h **** 
 108:C:/Renesas/e2studio_2021_01_workspace_RZA2M_ANPR/ANPR_RZA2M_RDK/src/tensorflow_lite/tensorflow/lite/kernels\kernel_util.h **** // Same as `GetTemporary` but returns boolean and uses output argument for
 109:C:/Renesas/e2studio_2021_01_workspace_RZA2M_ANPR/ANPR_RZA2M_RDK/src/tensorflow_lite/tensorflow/lite/kernels\kernel_util.h **** // tensor.
 110:C:/Renesas/e2studio_2021_01_workspace_RZA2M_ANPR/ANPR_RZA2M_RDK/src/tensorflow_lite/tensorflow/lite/kernels\kernel_util.h **** //
 111:C:/Renesas/e2studio_2021_01_workspace_RZA2M_ANPR/ANPR_RZA2M_RDK/src/tensorflow_lite/tensorflow/lite/kernels\kernel_util.h **** //   TfLiteTensor* my_tensor;
 112:C:/Renesas/e2studio_2021_01_workspace_RZA2M_ANPR/ANPR_RZA2M_RDK/src/tensorflow_lite/tensorflow/lite/kernels\kernel_util.h **** //   TF_LITE_ENSURE_OK(context,
 113:C:/Renesas/e2studio_2021_01_workspace_RZA2M_ANPR/ANPR_RZA2M_RDK/src/tensorflow_lite/tensorflow/lite/kernels\kernel_util.h **** //                     GetTemporarySafe(context, node, kMyTensorIdx,
 114:C:/Renesas/e2studio_2021_01_workspace_RZA2M_ANPR/ANPR_RZA2M_RDK/src/tensorflow_lite/tensorflow/lite/kernels\kernel_util.h **** //                     &my_tensor));
 115:C:/Renesas/e2studio_2021_01_workspace_RZA2M_ANPR/ANPR_RZA2M_RDK/src/tensorflow_lite/tensorflow/lite/kernels\kernel_util.h **** //   // can use my_tensor directly from here onwards, it is not nullptr
 116:C:/Renesas/e2studio_2021_01_workspace_RZA2M_ANPR/ANPR_RZA2M_RDK/src/tensorflow_lite/tensorflow/lite/kernels\kernel_util.h **** //
 117:C:/Renesas/e2studio_2021_01_workspace_RZA2M_ANPR/ANPR_RZA2M_RDK/src/tensorflow_lite/tensorflow/lite/kernels\kernel_util.h **** // Should be used in cases where the binary size is too large.
 118:C:/Renesas/e2studio_2021_01_workspace_RZA2M_ANPR/ANPR_RZA2M_RDK/src/tensorflow_lite/tensorflow/lite/kernels\kernel_util.h **** TfLiteStatus GetTemporarySafe(const TfLiteContext* context,
 119:C:/Renesas/e2studio_2021_01_workspace_RZA2M_ANPR/ANPR_RZA2M_RDK/src/tensorflow_lite/tensorflow/lite/kernels\kernel_util.h ****                               const TfLiteNode* node, int index,
 120:C:/Renesas/e2studio_2021_01_workspace_RZA2M_ANPR/ANPR_RZA2M_RDK/src/tensorflow_lite/tensorflow/lite/kernels\kernel_util.h ****                               TfLiteTensor** tensor);
 121:C:/Renesas/e2studio_2021_01_workspace_RZA2M_ANPR/ANPR_RZA2M_RDK/src/tensorflow_lite/tensorflow/lite/kernels\kernel_util.h **** 
 122:C:/Renesas/e2studio_2021_01_workspace_RZA2M_ANPR/ANPR_RZA2M_RDK/src/tensorflow_lite/tensorflow/lite/kernels\kernel_util.h **** // Note: You must check if result is not null:
 123:C:/Renesas/e2studio_2021_01_workspace_RZA2M_ANPR/ANPR_RZA2M_RDK/src/tensorflow_lite/tensorflow/lite/kernels\kernel_util.h **** //
 124:C:/Renesas/e2studio_2021_01_workspace_RZA2M_ANPR/ANPR_RZA2M_RDK/src/tensorflow_lite/tensorflow/lite/kernels\kernel_util.h **** //   TfLiteTensor* my_tensor = GetIntermediates(context, node, kMyTensorIdx);
 125:C:/Renesas/e2studio_2021_01_workspace_RZA2M_ANPR/ANPR_RZA2M_RDK/src/tensorflow_lite/tensorflow/lite/kernels\kernel_util.h **** //   TF_LITE_ENSURE(context, my_tensor != nullptr);
 126:C:/Renesas/e2studio_2021_01_workspace_RZA2M_ANPR/ANPR_RZA2M_RDK/src/tensorflow_lite/tensorflow/lite/kernels\kernel_util.h **** //
 127:C:/Renesas/e2studio_2021_01_workspace_RZA2M_ANPR/ANPR_RZA2M_RDK/src/tensorflow_lite/tensorflow/lite/kernels\kernel_util.h **** // This is because the index might point to the optional tensor constant
 128:C:/Renesas/e2studio_2021_01_workspace_RZA2M_ANPR/ANPR_RZA2M_RDK/src/tensorflow_lite/tensorflow/lite/kernels\kernel_util.h **** // (kTfLiteOptionalTensor) in which case there is no tensor to return.
 129:C:/Renesas/e2studio_2021_01_workspace_RZA2M_ANPR/ANPR_RZA2M_RDK/src/tensorflow_lite/tensorflow/lite/kernels\kernel_util.h **** const TfLiteTensor* GetIntermediates(TfLiteContext* context,
 130:C:/Renesas/e2studio_2021_01_workspace_RZA2M_ANPR/ANPR_RZA2M_RDK/src/tensorflow_lite/tensorflow/lite/kernels\kernel_util.h ****                                      const TfLiteNode* node, int index);
 131:C:/Renesas/e2studio_2021_01_workspace_RZA2M_ANPR/ANPR_RZA2M_RDK/src/tensorflow_lite/tensorflow/lite/kernels\kernel_util.h **** 
 132:C:/Renesas/e2studio_2021_01_workspace_RZA2M_ANPR/ANPR_RZA2M_RDK/src/tensorflow_lite/tensorflow/lite/kernels\kernel_util.h **** // Same as `GetIntermediates` but returns boolean and uses output argument for
 133:C:/Renesas/e2studio_2021_01_workspace_RZA2M_ANPR/ANPR_RZA2M_RDK/src/tensorflow_lite/tensorflow/lite/kernels\kernel_util.h **** // tensor.
 134:C:/Renesas/e2studio_2021_01_workspace_RZA2M_ANPR/ANPR_RZA2M_RDK/src/tensorflow_lite/tensorflow/lite/kernels\kernel_util.h **** //
 135:C:/Renesas/e2studio_2021_01_workspace_RZA2M_ANPR/ANPR_RZA2M_RDK/src/tensorflow_lite/tensorflow/lite/kernels\kernel_util.h **** //   TfLiteTensor* my_tensor;
 136:C:/Renesas/e2studio_2021_01_workspace_RZA2M_ANPR/ANPR_RZA2M_RDK/src/tensorflow_lite/tensorflow/lite/kernels\kernel_util.h **** //   TF_LITE_ENSURE_OK(context,
 137:C:/Renesas/e2studio_2021_01_workspace_RZA2M_ANPR/ANPR_RZA2M_RDK/src/tensorflow_lite/tensorflow/lite/kernels\kernel_util.h **** //                     GetIntermediatesSafe(context, node, kMyTensorIdx,
 138:C:/Renesas/e2studio_2021_01_workspace_RZA2M_ANPR/ANPR_RZA2M_RDK/src/tensorflow_lite/tensorflow/lite/kernels\kernel_util.h **** //                     &my_tensor));
 139:C:/Renesas/e2studio_2021_01_workspace_RZA2M_ANPR/ANPR_RZA2M_RDK/src/tensorflow_lite/tensorflow/lite/kernels\kernel_util.h **** //   // can use my_tensor directly from here onwards, it is not nullptr
 140:C:/Renesas/e2studio_2021_01_workspace_RZA2M_ANPR/ANPR_RZA2M_RDK/src/tensorflow_lite/tensorflow/lite/kernels\kernel_util.h **** //
 141:C:/Renesas/e2studio_2021_01_workspace_RZA2M_ANPR/ANPR_RZA2M_RDK/src/tensorflow_lite/tensorflow/lite/kernels\kernel_util.h **** // Should be used in cases where the binary size is too large.
 142:C:/Renesas/e2studio_2021_01_workspace_RZA2M_ANPR/ANPR_RZA2M_RDK/src/tensorflow_lite/tensorflow/lite/kernels\kernel_util.h **** TfLiteStatus GetIntermediatesSafe(const TfLiteContext* context,
 143:C:/Renesas/e2studio_2021_01_workspace_RZA2M_ANPR/ANPR_RZA2M_RDK/src/tensorflow_lite/tensorflow/lite/kernels\kernel_util.h ****                                   const TfLiteNode* node, int index,
 144:C:/Renesas/e2studio_2021_01_workspace_RZA2M_ANPR/ANPR_RZA2M_RDK/src/tensorflow_lite/tensorflow/lite/kernels\kernel_util.h ****                                   TfLiteTensor** tensor);
 145:C:/Renesas/e2studio_2021_01_workspace_RZA2M_ANPR/ANPR_RZA2M_RDK/src/tensorflow_lite/tensorflow/lite/kernels\kernel_util.h **** #endif  // TF_LITE_STATIC_MEMORY
 146:C:/Renesas/e2studio_2021_01_workspace_RZA2M_ANPR/ANPR_RZA2M_RDK/src/tensorflow_lite/tensorflow/lite/kernels\kernel_util.h **** 
 147:C:/Renesas/e2studio_2021_01_workspace_RZA2M_ANPR/ANPR_RZA2M_RDK/src/tensorflow_lite/tensorflow/lite/kernels\kernel_util.h **** inline int NumDimensions(const TfLiteTensor* t) { return t->dims->size; }
 148:C:/Renesas/e2studio_2021_01_workspace_RZA2M_ANPR/ANPR_RZA2M_RDK/src/tensorflow_lite/tensorflow/lite/kernels\kernel_util.h **** inline int SizeOfDimension(const TfLiteTensor* t, int dim) {
 149:C:/Renesas/e2studio_2021_01_workspace_RZA2M_ANPR/ANPR_RZA2M_RDK/src/tensorflow_lite/tensorflow/lite/kernels\kernel_util.h ****   return t->dims->data[dim];
 143              		.loc 3 149 0
 144 0068 08B093E5 		ldr	fp, [r3, #8]
 145              	.LVL13:
 146              	.LBE424:
 147              	.LBE423:
  56:../src/tensorflow_lite/tensorflow/lite/micro/kernels/pooling.cc **** 
 148              		.loc 1 56 0
 149 006c 08108DE5 		str	r1, [sp, #8]
  55:../src/tensorflow_lite/tensorflow/lite/micro/kernels/pooling.cc ****       params->filter_width, params->padding, &out_height, &out_width);
 150              		.loc 1 55 0
 151 0070 102096E5 		ldr	r2, [r6, #16]
 152              	.LBB425:
 153              	.LBB426:
 154              		.loc 3 149 0
 155 0074 0C3093E5 		ldr	r3, [r3, #12]
 156              	.LVL14:
 157              	.LBE426:
 158              	.LBE425:
  56:../src/tensorflow_lite/tensorflow/lite/micro/kernels/pooling.cc **** 
 159              		.loc 1 56 0
 160 0078 0010D6E5 		ldrb	r1, [r6]	@ zero_extendqisi2
 161              	.LVL15:
 162              	.LBB427:
 163              	.LBB417:
 164              	.LBB389:
 165              	.LBB387:
 166              		.loc 2 50 0
 167 007c 1900000A 		beq	.L14
  51:C:/Renesas/e2studio_2021_01_workspace_RZA2M_ANPR/ANPR_RZA2M_RDK/src/tensorflow_lite/tensorflow/lite/kernels\padding.h **** 
  52:C:/Renesas/e2studio_2021_01_workspace_RZA2M_ANPR/ANPR_RZA2M_RDK/src/tensorflow_lite/tensorflow/lite/kernels\padding.h ****   switch (padding) {
 168              		.loc 2 52 0
 169 0080 010051E3 		cmp	r1, #1
 170 0084 4E00000A 		beq	.L15
 171 0088 020051E3 		cmp	r1, #2
 172 008c 1500001A 		bne	.L14
  53:C:/Renesas/e2studio_2021_01_workspace_RZA2M_ANPR/ANPR_RZA2M_RDK/src/tensorflow_lite/tensorflow/lite/kernels\padding.h ****     case kTfLitePaddingSame:
  54:C:/Renesas/e2studio_2021_01_workspace_RZA2M_ANPR/ANPR_RZA2M_RDK/src/tensorflow_lite/tensorflow/lite/kernels\padding.h ****       return (image_size + stride - 1) / stride;
  55:C:/Renesas/e2studio_2021_01_workspace_RZA2M_ANPR/ANPR_RZA2M_RDK/src/tensorflow_lite/tensorflow/lite/kernels\padding.h ****     case kTfLitePaddingValid:
  56:C:/Renesas/e2studio_2021_01_workspace_RZA2M_ANPR/ANPR_RZA2M_RDK/src/tensorflow_lite/tensorflow/lite/kernels\padding.h ****       return (image_size + stride - effective_filter_size) / stride;
 173              		.loc 2 56 0
 174 0090 050083E0 		add	r0, r3, r5
 175              	.LVL16:
 176 0094 10308DE5 		str	r3, [sp, #16]
 177 0098 08309DE5 		ldr	r3, [sp, #8]
 178              	.LVL17:
 179 009c 0510A0E1 		mov	r1, r5
 180              	.LVL18:
 181 00a0 14208DE5 		str	r2, [sp, #20]
 182 00a4 030040E0 		sub	r0, r0, r3
 183 00a8 FEFFFFEB 		bl	__aeabi_idiv
 184              	.LVL19:
 185              	.LBE387:
 186              	.LBE389:
 187              	.LBB390:
 188              	.LBB391:
  50:C:/Renesas/e2studio_2021_01_workspace_RZA2M_ANPR/ANPR_RZA2M_RDK/src/tensorflow_lite/tensorflow/lite/kernels\padding.h **** 
 189              		.loc 2 50 0
 190 00ac 000054E3 		cmp	r4, #0
 191 00b0 019040E2 		sub	r9, r0, #1
 192 00b4 10309DE5 		ldr	r3, [sp, #16]
 193 00b8 14209DE5 		ldr	r2, [sp, #20]
 194 00bc 5500000A 		beq	.L39
 195              	.LVL20:
 196              	.L21:
 197              		.loc 2 56 0
 198 00c0 04008BE0 		add	r0, fp, r4
 199 00c4 0410A0E1 		mov	r1, r4
 200 00c8 020040E0 		sub	r0, r0, r2
 201 00cc 14308DE5 		str	r3, [sp, #20]
 202 00d0 10208DE5 		str	r2, [sp, #16]
 203 00d4 FEFFFFEB 		bl	__aeabi_idiv
 204              	.LVL21:
 205 00d8 10209DE5 		ldr	r2, [sp, #16]
 206 00dc 010040E2 		sub	r0, r0, #1
 207 00e0 14309DE5 		ldr	r3, [sp, #20]
 208 00e4 070000EA 		b	.L19
 209              	.LVL22:
 210              	.L14:
  50:C:/Renesas/e2studio_2021_01_workspace_RZA2M_ANPR/ANPR_RZA2M_RDK/src/tensorflow_lite/tensorflow/lite/kernels\padding.h **** 
 211              		.loc 2 50 0
 212 00e8 000054E3 		cmp	r4, #0
 213 00ec 0300000A 		beq	.L37
  52:C:/Renesas/e2studio_2021_01_workspace_RZA2M_ANPR/ANPR_RZA2M_RDK/src/tensorflow_lite/tensorflow/lite/kernels\padding.h ****     case kTfLitePaddingSame:
 214              		.loc 2 52 0
 215 00f0 010051E3 		cmp	r1, #1
 216 00f4 6400000A 		beq	.L28
 217 00f8 020051E3 		cmp	r1, #2
 218 00fc 1F00000A 		beq	.L44
 219              	.L37:
 220 0100 0090E0E3 		mvn	r9, #0
 221 0104 0900A0E1 		mov	r0, r9
 222              	.LVL23:
 223              	.L19:
 224              	.LBE391:
 225              	.LBE390:
 226              	.LBB395:
 227              	.LBB396:
  37:C:/Renesas/e2studio_2021_01_workspace_RZA2M_ANPR/ANPR_RZA2M_RDK/src/tensorflow_lite/tensorflow/lite/kernels\padding.h ****   total_padding = total_padding > 0 ? total_padding : 0;
 228              		.loc 2 37 0
 229 0108 902424E0 		mla	r4, r0, r4, r2
 230              	.LVL24:
 231              	.LBE396:
 232              	.LBE395:
 233              	.LBB400:
 234              	.LBB401:
 235 010c 08209DE5 		ldr	r2, [sp, #8]
 236              	.LVL25:
 237              	.LBE401:
 238              	.LBE400:
 239              	.LBE417:
 240              	.LBE427:
 241              	.LBE382:
 242              	.LBE381:
 243              	.LBE380:
 228:../src/tensorflow_lite/tensorflow/lite/micro/kernels/pooling.cc **** 
 229:../src/tensorflow_lite/tensorflow/lite/micro/kernels/pooling.cc ****   TF_LITE_ENSURE_STATUS(CalculateOpData(context, params, input, output, data));
 230:../src/tensorflow_lite/tensorflow/lite/micro/kernels/pooling.cc **** 
 231:../src/tensorflow_lite/tensorflow/lite/micro/kernels/pooling.cc ****   if (input->type == kTfLiteFloat32) {
 244              		.loc 1 231 0
 245 0110 0000D8E5 		ldrb	r0, [r8]	@ zero_extendqisi2
 246              	.LBB443:
 247              	.LBB438:
 248              	.LBB433:
 249              	.LBB428:
 250              	.LBB418:
 251              	.LBB406:
 252              	.LBB402:
  37:C:/Renesas/e2studio_2021_01_workspace_RZA2M_ANPR/ANPR_RZA2M_RDK/src/tensorflow_lite/tensorflow/lite/kernels\padding.h ****   total_padding = total_padding > 0 ? total_padding : 0;
 253              		.loc 2 37 0
 254 0114 992525E0 		mla	r5, r9, r5, r2
 255              	.LVL26:
 256              	.LBE402:
 257              	.LBE406:
 258              	.LBB407:
 259              	.LBB397:
 260 0118 0BB044E0 		sub	fp, r4, fp
 261              	.LVL27:
  38:C:/Renesas/e2studio_2021_01_workspace_RZA2M_ANPR/ANPR_RZA2M_RDK/src/tensorflow_lite/tensorflow/lite/kernels\padding.h ****   *offset = total_padding % 2;
 262              		.loc 2 38 0
 263 011c CBBFCBE1 		bic	fp, fp, fp, asr #31
 264              	.LVL28:
 265              	.LBE397:
 266              	.LBE407:
 267              	.LBE418:
 268              	.LBE428:
 269              	.LBE433:
 270              	.LBE438:
 271              	.LBE443:
 272              		.loc 1 231 0
 273 0120 010050E3 		cmp	r0, #1
 274              	.LBB444:
 275              	.LBB439:
 276              	.LBB434:
 277              	.LBB429:
 278              	.LBB419:
 279              	.LBB408:
 280              	.LBB403:
  37:C:/Renesas/e2studio_2021_01_workspace_RZA2M_ANPR/ANPR_RZA2M_RDK/src/tensorflow_lite/tensorflow/lite/kernels\padding.h ****   total_padding = total_padding > 0 ? total_padding : 0;
 281              		.loc 2 37 0
 282 0124 033045E0 		sub	r3, r5, r3
 283              	.LVL29:
  38:C:/Renesas/e2studio_2021_01_workspace_RZA2M_ANPR/ANPR_RZA2M_RDK/src/tensorflow_lite/tensorflow/lite/kernels\padding.h ****   *offset = total_padding % 2;
 284              		.loc 2 38 0
 285 0128 C33FC3E1 		bic	r3, r3, r3, asr #31
 286              	.LVL30:
 287              	.LBE403:
 288              	.LBE408:
 289              	.LBB409:
 290              	.LBB398:
  40:C:/Renesas/e2studio_2021_01_workspace_RZA2M_ANPR/ANPR_RZA2M_RDK/src/tensorflow_lite/tensorflow/lite/kernels\padding.h **** }
 291              		.loc 2 40 0
 292 012c CB20A0E1 		asr	r2, fp, #1
 293              	.LBE398:
 294              	.LBE409:
 295              	.LBB410:
 296              	.LBB404:
 297 0130 C310A0E1 		asr	r1, r3, #1
 298              	.LBE404:
 299              	.LBE410:
 300              	.LBB411:
 301              	.LBB399:
  39:C:/Renesas/e2studio_2021_01_workspace_RZA2M_ANPR/ANPR_RZA2M_RDK/src/tensorflow_lite/tensorflow/lite/kernels\padding.h ****   return total_padding / 2;
 302              		.loc 2 39 0
 303 0134 01B00BE2 		and	fp, fp, #1
 304              	.LBE399:
 305              	.LBE411:
 306              	.LBB412:
 307              	.LBB405:
 308 0138 013003E2 		and	r3, r3, #1
 309              	.LBE405:
 310              	.LBE412:
 311              	.LBE419:
 312              	.LBE429:
  56:../src/tensorflow_lite/tensorflow/lite/micro/kernels/pooling.cc **** 
 313              		.loc 1 56 0
 314 013c 0E0887E8 		stm	r7, {r1, r2, r3, fp}
 315              	.LVL31:
 316              	.LBE434:
 317              	.LBE439:
 318              	.LBE444:
 319              		.loc 1 231 0
 320 0140 1000000A 		beq	.L45
 232:../src/tensorflow_lite/tensorflow/lite/micro/kernels/pooling.cc ****     CalculateActivationRange(params->activation, &data->activation_min_f32,
 233:../src/tensorflow_lite/tensorflow/lite/micro/kernels/pooling.cc ****                              &data->activation_max_f32);
 234:../src/tensorflow_lite/tensorflow/lite/micro/kernels/pooling.cc ****   } else if (input->type == kTfLiteInt8 || input->type == kTfLiteUInt8) {
 321              		.loc 1 234 0
 322 0144 030050E3 		cmp	r0, #3
 323 0148 09005013 		cmpne	r0, #9
 324 014c 0100A003 		moveq	r0, #1
 325 0150 0000A013 		movne	r0, #0
 326 0154 0700001A 		bne	.L12
 235:../src/tensorflow_lite/tensorflow/lite/micro/kernels/pooling.cc ****     CalculateActivationRangeQuantized(context, params->activation, output,
 327              		.loc 1 235 0
 328 0158 143087E2 		add	r3, r7, #20
 236:../src/tensorflow_lite/tensorflow/lite/micro/kernels/pooling.cc ****                                       &data->activation_min,
 237:../src/tensorflow_lite/tensorflow/lite/micro/kernels/pooling.cc ****                                       &data->activation_max);
 329              		.loc 1 237 0
 330 015c 1410D6E5 		ldrb	r1, [r6, #20]	@ zero_extendqisi2
 331 0160 0C209DE5 		ldr	r2, [sp, #12]
 332 0164 0A00A0E1 		mov	r0, r10
 333 0168 00308DE5 		str	r3, [sp]
 334 016c 103087E2 		add	r3, r7, #16
 335 0170 FEFFFFEB 		bl	_ZN6tflite33CalculateActivationRangeQuantizedEP13TfLiteContext21TfLiteFusedActivationP12TfLiteT
 336              	.LVL32:
 238:../src/tensorflow_lite/tensorflow/lite/micro/kernels/pooling.cc ****   }
 239:../src/tensorflow_lite/tensorflow/lite/micro/kernels/pooling.cc **** 
 240:../src/tensorflow_lite/tensorflow/lite/micro/kernels/pooling.cc ****   return kTfLiteOk;
 337              		.loc 1 240 0
 338 0174 0000A0E3 		mov	r0, #0
 339              	.LVL33:
 340              	.L12:
 241:../src/tensorflow_lite/tensorflow/lite/micro/kernels/pooling.cc **** }
 341              		.loc 1 241 0
 342 0178 1CD08DE2 		add	sp, sp, #28
 343              		.cfi_remember_state
 344              		.cfi_def_cfa_offset 36
 345              		@ sp needed
 346 017c F08FBDE8 		pop	{r4, r5, r6, r7, r8, r9, r10, fp, pc}
 347              	.LVL34:
 348              	.L44:
 349              		.cfi_restore_state
 350              	.LBB445:
 351              	.LBB440:
 352              	.LBB435:
 353              	.LBB430:
 354              	.LBB420:
 355              	.LBB413:
 356              	.LBB392:
  52:C:/Renesas/e2studio_2021_01_workspace_RZA2M_ANPR/ANPR_RZA2M_RDK/src/tensorflow_lite/tensorflow/lite/kernels\padding.h ****     case kTfLitePaddingSame:
 357              		.loc 2 52 0
 358 0180 0090E0E3 		mvn	r9, #0
 359 0184 CDFFFFEA 		b	.L21
 360              	.LVL35:
 361              	.L45:
 362              	.LBE392:
 363              	.LBE413:
 364              	.LBE420:
 365              	.LBE430:
 366              	.LBE435:
 367              	.LBE440:
 368              	.LBE445:
 232:../src/tensorflow_lite/tensorflow/lite/micro/kernels/pooling.cc ****                              &data->activation_max_f32);
 369              		.loc 1 232 0
 370 0188 1430D6E5 		ldrb	r3, [r6, #20]	@ zero_extendqisi2
 371              	.LVL36:
 372              	.LBB446:
 373              	.LBB447:
 150:C:/Renesas/e2studio_2021_01_workspace_RZA2M_ANPR/ANPR_RZA2M_RDK/src/tensorflow_lite/tensorflow/lite/kernels\kernel_util.h **** }
 151:C:/Renesas/e2studio_2021_01_workspace_RZA2M_ANPR/ANPR_RZA2M_RDK/src/tensorflow_lite/tensorflow/lite/kernels\kernel_util.h **** 
 152:C:/Renesas/e2studio_2021_01_workspace_RZA2M_ANPR/ANPR_RZA2M_RDK/src/tensorflow_lite/tensorflow/lite/kernels\kernel_util.h **** inline int NumInputs(const TfLiteNode* node) { return node->inputs->size; }
 153:C:/Renesas/e2studio_2021_01_workspace_RZA2M_ANPR/ANPR_RZA2M_RDK/src/tensorflow_lite/tensorflow/lite/kernels\kernel_util.h **** inline int NumOutputs(const TfLiteNode* node) { return node->outputs->size; }
 154:C:/Renesas/e2studio_2021_01_workspace_RZA2M_ANPR/ANPR_RZA2M_RDK/src/tensorflow_lite/tensorflow/lite/kernels\kernel_util.h **** 
 155:C:/Renesas/e2studio_2021_01_workspace_RZA2M_ANPR/ANPR_RZA2M_RDK/src/tensorflow_lite/tensorflow/lite/kernels\kernel_util.h **** #ifndef TF_LITE_STATIC_MEMORY
 156:C:/Renesas/e2studio_2021_01_workspace_RZA2M_ANPR/ANPR_RZA2M_RDK/src/tensorflow_lite/tensorflow/lite/kernels\kernel_util.h **** inline int NumIntermediates(const TfLiteNode* node) {
 157:C:/Renesas/e2studio_2021_01_workspace_RZA2M_ANPR/ANPR_RZA2M_RDK/src/tensorflow_lite/tensorflow/lite/kernels\kernel_util.h ****   return node->intermediates->size;
 158:C:/Renesas/e2studio_2021_01_workspace_RZA2M_ANPR/ANPR_RZA2M_RDK/src/tensorflow_lite/tensorflow/lite/kernels\kernel_util.h **** }
 159:C:/Renesas/e2studio_2021_01_workspace_RZA2M_ANPR/ANPR_RZA2M_RDK/src/tensorflow_lite/tensorflow/lite/kernels\kernel_util.h **** #endif  // TF_LITE_STATIC_MEMORY
 160:C:/Renesas/e2studio_2021_01_workspace_RZA2M_ANPR/ANPR_RZA2M_RDK/src/tensorflow_lite/tensorflow/lite/kernels\kernel_util.h **** 
 161:C:/Renesas/e2studio_2021_01_workspace_RZA2M_ANPR/ANPR_RZA2M_RDK/src/tensorflow_lite/tensorflow/lite/kernels\kernel_util.h **** inline int64_t NumElements(const TfLiteIntArray* dims) {
 162:C:/Renesas/e2studio_2021_01_workspace_RZA2M_ANPR/ANPR_RZA2M_RDK/src/tensorflow_lite/tensorflow/lite/kernels\kernel_util.h ****   int64_t count = 1;
 163:C:/Renesas/e2studio_2021_01_workspace_RZA2M_ANPR/ANPR_RZA2M_RDK/src/tensorflow_lite/tensorflow/lite/kernels\kernel_util.h ****   for (int i = 0; i < dims->size; ++i) {
 164:C:/Renesas/e2studio_2021_01_workspace_RZA2M_ANPR/ANPR_RZA2M_RDK/src/tensorflow_lite/tensorflow/lite/kernels\kernel_util.h ****     count *= dims->data[i];
 165:C:/Renesas/e2studio_2021_01_workspace_RZA2M_ANPR/ANPR_RZA2M_RDK/src/tensorflow_lite/tensorflow/lite/kernels\kernel_util.h ****   }
 166:C:/Renesas/e2studio_2021_01_workspace_RZA2M_ANPR/ANPR_RZA2M_RDK/src/tensorflow_lite/tensorflow/lite/kernels\kernel_util.h ****   return count;
 167:C:/Renesas/e2studio_2021_01_workspace_RZA2M_ANPR/ANPR_RZA2M_RDK/src/tensorflow_lite/tensorflow/lite/kernels\kernel_util.h **** }
 168:C:/Renesas/e2studio_2021_01_workspace_RZA2M_ANPR/ANPR_RZA2M_RDK/src/tensorflow_lite/tensorflow/lite/kernels\kernel_util.h **** 
 169:C:/Renesas/e2studio_2021_01_workspace_RZA2M_ANPR/ANPR_RZA2M_RDK/src/tensorflow_lite/tensorflow/lite/kernels\kernel_util.h **** inline int64_t NumElements(const TfLiteTensor* t) {
 170:C:/Renesas/e2studio_2021_01_workspace_RZA2M_ANPR/ANPR_RZA2M_RDK/src/tensorflow_lite/tensorflow/lite/kernels\kernel_util.h ****   return NumElements(t->dims);
 171:C:/Renesas/e2studio_2021_01_workspace_RZA2M_ANPR/ANPR_RZA2M_RDK/src/tensorflow_lite/tensorflow/lite/kernels\kernel_util.h **** }
 172:C:/Renesas/e2studio_2021_01_workspace_RZA2M_ANPR/ANPR_RZA2M_RDK/src/tensorflow_lite/tensorflow/lite/kernels\kernel_util.h **** 
 173:C:/Renesas/e2studio_2021_01_workspace_RZA2M_ANPR/ANPR_RZA2M_RDK/src/tensorflow_lite/tensorflow/lite/kernels\kernel_util.h **** // Determines whether tensor is constant.
 174:C:/Renesas/e2studio_2021_01_workspace_RZA2M_ANPR/ANPR_RZA2M_RDK/src/tensorflow_lite/tensorflow/lite/kernels\kernel_util.h **** // TODO(b/138199592): Introduce new query which checks for constant OR
 175:C:/Renesas/e2studio_2021_01_workspace_RZA2M_ANPR/ANPR_RZA2M_RDK/src/tensorflow_lite/tensorflow/lite/kernels\kernel_util.h **** // persistent-read-only, which would be useful for most tensor kernels that
 176:C:/Renesas/e2studio_2021_01_workspace_RZA2M_ANPR/ANPR_RZA2M_RDK/src/tensorflow_lite/tensorflow/lite/kernels\kernel_util.h **** // are potentially dynamic based on the input tensor value availability at the
 177:C:/Renesas/e2studio_2021_01_workspace_RZA2M_ANPR/ANPR_RZA2M_RDK/src/tensorflow_lite/tensorflow/lite/kernels\kernel_util.h **** // time of prepare.
 178:C:/Renesas/e2studio_2021_01_workspace_RZA2M_ANPR/ANPR_RZA2M_RDK/src/tensorflow_lite/tensorflow/lite/kernels\kernel_util.h **** inline bool IsConstantTensor(const TfLiteTensor* tensor) {
 179:C:/Renesas/e2studio_2021_01_workspace_RZA2M_ANPR/ANPR_RZA2M_RDK/src/tensorflow_lite/tensorflow/lite/kernels\kernel_util.h ****   return tensor->allocation_type == kTfLiteMmapRo;
 180:C:/Renesas/e2studio_2021_01_workspace_RZA2M_ANPR/ANPR_RZA2M_RDK/src/tensorflow_lite/tensorflow/lite/kernels\kernel_util.h **** }
 181:C:/Renesas/e2studio_2021_01_workspace_RZA2M_ANPR/ANPR_RZA2M_RDK/src/tensorflow_lite/tensorflow/lite/kernels\kernel_util.h **** 
 182:C:/Renesas/e2studio_2021_01_workspace_RZA2M_ANPR/ANPR_RZA2M_RDK/src/tensorflow_lite/tensorflow/lite/kernels\kernel_util.h **** // Determines whether tensor is dynamic. Note that a tensor can be non-const and
 183:C:/Renesas/e2studio_2021_01_workspace_RZA2M_ANPR/ANPR_RZA2M_RDK/src/tensorflow_lite/tensorflow/lite/kernels\kernel_util.h **** // not dynamic. This function specifically checks for a dynamic tensor.
 184:C:/Renesas/e2studio_2021_01_workspace_RZA2M_ANPR/ANPR_RZA2M_RDK/src/tensorflow_lite/tensorflow/lite/kernels\kernel_util.h **** inline bool IsDynamicTensor(const TfLiteTensor* tensor) {
 185:C:/Renesas/e2studio_2021_01_workspace_RZA2M_ANPR/ANPR_RZA2M_RDK/src/tensorflow_lite/tensorflow/lite/kernels\kernel_util.h ****   return tensor->allocation_type == kTfLiteDynamic;
 186:C:/Renesas/e2studio_2021_01_workspace_RZA2M_ANPR/ANPR_RZA2M_RDK/src/tensorflow_lite/tensorflow/lite/kernels\kernel_util.h **** }
 187:C:/Renesas/e2studio_2021_01_workspace_RZA2M_ANPR/ANPR_RZA2M_RDK/src/tensorflow_lite/tensorflow/lite/kernels\kernel_util.h **** 
 188:C:/Renesas/e2studio_2021_01_workspace_RZA2M_ANPR/ANPR_RZA2M_RDK/src/tensorflow_lite/tensorflow/lite/kernels\kernel_util.h **** // Sets tensor to dynamic.
 189:C:/Renesas/e2studio_2021_01_workspace_RZA2M_ANPR/ANPR_RZA2M_RDK/src/tensorflow_lite/tensorflow/lite/kernels\kernel_util.h **** inline void SetTensorToDynamic(TfLiteTensor* tensor) {
 190:C:/Renesas/e2studio_2021_01_workspace_RZA2M_ANPR/ANPR_RZA2M_RDK/src/tensorflow_lite/tensorflow/lite/kernels\kernel_util.h ****   if (tensor->allocation_type != kTfLiteDynamic) {
 191:C:/Renesas/e2studio_2021_01_workspace_RZA2M_ANPR/ANPR_RZA2M_RDK/src/tensorflow_lite/tensorflow/lite/kernels\kernel_util.h ****     tensor->allocation_type = kTfLiteDynamic;
 192:C:/Renesas/e2studio_2021_01_workspace_RZA2M_ANPR/ANPR_RZA2M_RDK/src/tensorflow_lite/tensorflow/lite/kernels\kernel_util.h ****     tensor->data.raw = nullptr;
 193:C:/Renesas/e2studio_2021_01_workspace_RZA2M_ANPR/ANPR_RZA2M_RDK/src/tensorflow_lite/tensorflow/lite/kernels\kernel_util.h ****   }
 194:C:/Renesas/e2studio_2021_01_workspace_RZA2M_ANPR/ANPR_RZA2M_RDK/src/tensorflow_lite/tensorflow/lite/kernels\kernel_util.h **** }
 195:C:/Renesas/e2studio_2021_01_workspace_RZA2M_ANPR/ANPR_RZA2M_RDK/src/tensorflow_lite/tensorflow/lite/kernels\kernel_util.h **** 
 196:C:/Renesas/e2studio_2021_01_workspace_RZA2M_ANPR/ANPR_RZA2M_RDK/src/tensorflow_lite/tensorflow/lite/kernels\kernel_util.h **** // Sets tensor to persistent and read-only.
 197:C:/Renesas/e2studio_2021_01_workspace_RZA2M_ANPR/ANPR_RZA2M_RDK/src/tensorflow_lite/tensorflow/lite/kernels\kernel_util.h **** inline void SetTensorToPersistentRo(TfLiteTensor* tensor) {
 198:C:/Renesas/e2studio_2021_01_workspace_RZA2M_ANPR/ANPR_RZA2M_RDK/src/tensorflow_lite/tensorflow/lite/kernels\kernel_util.h ****   if (tensor->allocation_type != kTfLitePersistentRo) {
 199:C:/Renesas/e2studio_2021_01_workspace_RZA2M_ANPR/ANPR_RZA2M_RDK/src/tensorflow_lite/tensorflow/lite/kernels\kernel_util.h ****     tensor->allocation_type = kTfLitePersistentRo;
 200:C:/Renesas/e2studio_2021_01_workspace_RZA2M_ANPR/ANPR_RZA2M_RDK/src/tensorflow_lite/tensorflow/lite/kernels\kernel_util.h ****     tensor->data.raw = nullptr;
 201:C:/Renesas/e2studio_2021_01_workspace_RZA2M_ANPR/ANPR_RZA2M_RDK/src/tensorflow_lite/tensorflow/lite/kernels\kernel_util.h ****   }
 202:C:/Renesas/e2studio_2021_01_workspace_RZA2M_ANPR/ANPR_RZA2M_RDK/src/tensorflow_lite/tensorflow/lite/kernels\kernel_util.h **** }
 203:C:/Renesas/e2studio_2021_01_workspace_RZA2M_ANPR/ANPR_RZA2M_RDK/src/tensorflow_lite/tensorflow/lite/kernels\kernel_util.h **** 
 204:C:/Renesas/e2studio_2021_01_workspace_RZA2M_ANPR/ANPR_RZA2M_RDK/src/tensorflow_lite/tensorflow/lite/kernels\kernel_util.h **** // Determines whether it is a hybrid op - one that has float inputs and
 205:C:/Renesas/e2studio_2021_01_workspace_RZA2M_ANPR/ANPR_RZA2M_RDK/src/tensorflow_lite/tensorflow/lite/kernels\kernel_util.h **** // quantized weights.
 206:C:/Renesas/e2studio_2021_01_workspace_RZA2M_ANPR/ANPR_RZA2M_RDK/src/tensorflow_lite/tensorflow/lite/kernels\kernel_util.h **** inline bool IsHybridOp(const TfLiteTensor* input, const TfLiteTensor* weight) {
 207:C:/Renesas/e2studio_2021_01_workspace_RZA2M_ANPR/ANPR_RZA2M_RDK/src/tensorflow_lite/tensorflow/lite/kernels\kernel_util.h ****   return ((weight->type == kTfLiteUInt8 || weight->type == kTfLiteInt8) &&
 208:C:/Renesas/e2studio_2021_01_workspace_RZA2M_ANPR/ANPR_RZA2M_RDK/src/tensorflow_lite/tensorflow/lite/kernels\kernel_util.h ****           input->type == kTfLiteFloat32);
 209:C:/Renesas/e2studio_2021_01_workspace_RZA2M_ANPR/ANPR_RZA2M_RDK/src/tensorflow_lite/tensorflow/lite/kernels\kernel_util.h **** }
 210:C:/Renesas/e2studio_2021_01_workspace_RZA2M_ANPR/ANPR_RZA2M_RDK/src/tensorflow_lite/tensorflow/lite/kernels\kernel_util.h **** 
 211:C:/Renesas/e2studio_2021_01_workspace_RZA2M_ANPR/ANPR_RZA2M_RDK/src/tensorflow_lite/tensorflow/lite/kernels\kernel_util.h **** // Check dimensionality match and populate OpData for Conv and DepthwiseConv.
 212:C:/Renesas/e2studio_2021_01_workspace_RZA2M_ANPR/ANPR_RZA2M_RDK/src/tensorflow_lite/tensorflow/lite/kernels\kernel_util.h **** TfLiteStatus PopulateConvolutionQuantizationParams(
 213:C:/Renesas/e2studio_2021_01_workspace_RZA2M_ANPR/ANPR_RZA2M_RDK/src/tensorflow_lite/tensorflow/lite/kernels\kernel_util.h ****     TfLiteContext* context, const TfLiteTensor* input,
 214:C:/Renesas/e2studio_2021_01_workspace_RZA2M_ANPR/ANPR_RZA2M_RDK/src/tensorflow_lite/tensorflow/lite/kernels\kernel_util.h ****     const TfLiteTensor* filter, const TfLiteTensor* bias, TfLiteTensor* output,
 215:C:/Renesas/e2studio_2021_01_workspace_RZA2M_ANPR/ANPR_RZA2M_RDK/src/tensorflow_lite/tensorflow/lite/kernels\kernel_util.h ****     const TfLiteFusedActivation& activation, int32_t* multiplier, int* shift,
 216:C:/Renesas/e2studio_2021_01_workspace_RZA2M_ANPR/ANPR_RZA2M_RDK/src/tensorflow_lite/tensorflow/lite/kernels\kernel_util.h ****     int32_t* output_activation_min, int32_t* output_activation_max,
 217:C:/Renesas/e2studio_2021_01_workspace_RZA2M_ANPR/ANPR_RZA2M_RDK/src/tensorflow_lite/tensorflow/lite/kernels\kernel_util.h ****     int32_t* per_channel_multiplier, int32_t* per_channel_shift);
 218:C:/Renesas/e2studio_2021_01_workspace_RZA2M_ANPR/ANPR_RZA2M_RDK/src/tensorflow_lite/tensorflow/lite/kernels\kernel_util.h **** 
 219:C:/Renesas/e2studio_2021_01_workspace_RZA2M_ANPR/ANPR_RZA2M_RDK/src/tensorflow_lite/tensorflow/lite/kernels\kernel_util.h **** TfLiteStatus PopulateConvolutionQuantizationParams(
 220:C:/Renesas/e2studio_2021_01_workspace_RZA2M_ANPR/ANPR_RZA2M_RDK/src/tensorflow_lite/tensorflow/lite/kernels\kernel_util.h ****     TfLiteContext* context, const TfLiteTensor* input,
 221:C:/Renesas/e2studio_2021_01_workspace_RZA2M_ANPR/ANPR_RZA2M_RDK/src/tensorflow_lite/tensorflow/lite/kernels\kernel_util.h ****     const TfLiteTensor* filter, const TfLiteTensor* bias, TfLiteTensor* output,
 222:C:/Renesas/e2studio_2021_01_workspace_RZA2M_ANPR/ANPR_RZA2M_RDK/src/tensorflow_lite/tensorflow/lite/kernels\kernel_util.h ****     const TfLiteFusedActivation& activation, int32_t* multiplier, int* shift,
 223:C:/Renesas/e2studio_2021_01_workspace_RZA2M_ANPR/ANPR_RZA2M_RDK/src/tensorflow_lite/tensorflow/lite/kernels\kernel_util.h ****     int32_t* output_activation_min, int32_t* output_activation_max,
 224:C:/Renesas/e2studio_2021_01_workspace_RZA2M_ANPR/ANPR_RZA2M_RDK/src/tensorflow_lite/tensorflow/lite/kernels\kernel_util.h ****     int32_t* per_channel_multiplier, int32_t* per_channel_shift,
 225:C:/Renesas/e2studio_2021_01_workspace_RZA2M_ANPR/ANPR_RZA2M_RDK/src/tensorflow_lite/tensorflow/lite/kernels\kernel_util.h ****     int num_channels);
 226:C:/Renesas/e2studio_2021_01_workspace_RZA2M_ANPR/ANPR_RZA2M_RDK/src/tensorflow_lite/tensorflow/lite/kernels\kernel_util.h **** 
 227:C:/Renesas/e2studio_2021_01_workspace_RZA2M_ANPR/ANPR_RZA2M_RDK/src/tensorflow_lite/tensorflow/lite/kernels\kernel_util.h **** // Calculates the multiplication factor for a quantized convolution (or
 228:C:/Renesas/e2studio_2021_01_workspace_RZA2M_ANPR/ANPR_RZA2M_RDK/src/tensorflow_lite/tensorflow/lite/kernels\kernel_util.h **** // quantized depthwise convolution) involving the given tensors. Returns an
 229:C:/Renesas/e2studio_2021_01_workspace_RZA2M_ANPR/ANPR_RZA2M_RDK/src/tensorflow_lite/tensorflow/lite/kernels\kernel_util.h **** // error if the scales of the tensors are not compatible.
 230:C:/Renesas/e2studio_2021_01_workspace_RZA2M_ANPR/ANPR_RZA2M_RDK/src/tensorflow_lite/tensorflow/lite/kernels\kernel_util.h **** TfLiteStatus GetQuantizedConvolutionMultipler(TfLiteContext* context,
 231:C:/Renesas/e2studio_2021_01_workspace_RZA2M_ANPR/ANPR_RZA2M_RDK/src/tensorflow_lite/tensorflow/lite/kernels\kernel_util.h ****                                               const TfLiteTensor* input,
 232:C:/Renesas/e2studio_2021_01_workspace_RZA2M_ANPR/ANPR_RZA2M_RDK/src/tensorflow_lite/tensorflow/lite/kernels\kernel_util.h ****                                               const TfLiteTensor* filter,
 233:C:/Renesas/e2studio_2021_01_workspace_RZA2M_ANPR/ANPR_RZA2M_RDK/src/tensorflow_lite/tensorflow/lite/kernels\kernel_util.h ****                                               const TfLiteTensor* bias,
 234:C:/Renesas/e2studio_2021_01_workspace_RZA2M_ANPR/ANPR_RZA2M_RDK/src/tensorflow_lite/tensorflow/lite/kernels\kernel_util.h ****                                               TfLiteTensor* output,
 235:C:/Renesas/e2studio_2021_01_workspace_RZA2M_ANPR/ANPR_RZA2M_RDK/src/tensorflow_lite/tensorflow/lite/kernels\kernel_util.h ****                                               double* multiplier);
 236:C:/Renesas/e2studio_2021_01_workspace_RZA2M_ANPR/ANPR_RZA2M_RDK/src/tensorflow_lite/tensorflow/lite/kernels\kernel_util.h **** 
 237:C:/Renesas/e2studio_2021_01_workspace_RZA2M_ANPR/ANPR_RZA2M_RDK/src/tensorflow_lite/tensorflow/lite/kernels\kernel_util.h **** TfLiteStatus GetQuantizedConvolutionMultipler(TfLiteContext* context,
 238:C:/Renesas/e2studio_2021_01_workspace_RZA2M_ANPR/ANPR_RZA2M_RDK/src/tensorflow_lite/tensorflow/lite/kernels\kernel_util.h ****                                               const TfLiteTensor* input,
 239:C:/Renesas/e2studio_2021_01_workspace_RZA2M_ANPR/ANPR_RZA2M_RDK/src/tensorflow_lite/tensorflow/lite/kernels\kernel_util.h ****                                               const TfLiteTensor* filter,
 240:C:/Renesas/e2studio_2021_01_workspace_RZA2M_ANPR/ANPR_RZA2M_RDK/src/tensorflow_lite/tensorflow/lite/kernels\kernel_util.h ****                                               TfLiteTensor* output,
 241:C:/Renesas/e2studio_2021_01_workspace_RZA2M_ANPR/ANPR_RZA2M_RDK/src/tensorflow_lite/tensorflow/lite/kernels\kernel_util.h ****                                               double* multiplier);
 242:C:/Renesas/e2studio_2021_01_workspace_RZA2M_ANPR/ANPR_RZA2M_RDK/src/tensorflow_lite/tensorflow/lite/kernels\kernel_util.h **** 
 243:C:/Renesas/e2studio_2021_01_workspace_RZA2M_ANPR/ANPR_RZA2M_RDK/src/tensorflow_lite/tensorflow/lite/kernels\kernel_util.h **** // Calculates the useful quantized range of an activation layer given its
 244:C:/Renesas/e2studio_2021_01_workspace_RZA2M_ANPR/ANPR_RZA2M_RDK/src/tensorflow_lite/tensorflow/lite/kernels\kernel_util.h **** // activation tensor.
 245:C:/Renesas/e2studio_2021_01_workspace_RZA2M_ANPR/ANPR_RZA2M_RDK/src/tensorflow_lite/tensorflow/lite/kernels\kernel_util.h **** TfLiteStatus CalculateActivationRangeQuantized(TfLiteContext* context,
 246:C:/Renesas/e2studio_2021_01_workspace_RZA2M_ANPR/ANPR_RZA2M_RDK/src/tensorflow_lite/tensorflow/lite/kernels\kernel_util.h ****                                                TfLiteFusedActivation activation,
 247:C:/Renesas/e2studio_2021_01_workspace_RZA2M_ANPR/ANPR_RZA2M_RDK/src/tensorflow_lite/tensorflow/lite/kernels\kernel_util.h ****                                                TfLiteTensor* output,
 248:C:/Renesas/e2studio_2021_01_workspace_RZA2M_ANPR/ANPR_RZA2M_RDK/src/tensorflow_lite/tensorflow/lite/kernels\kernel_util.h ****                                                int32_t* act_min,
 249:C:/Renesas/e2studio_2021_01_workspace_RZA2M_ANPR/ANPR_RZA2M_RDK/src/tensorflow_lite/tensorflow/lite/kernels\kernel_util.h ****                                                int32_t* act_max);
 250:C:/Renesas/e2studio_2021_01_workspace_RZA2M_ANPR/ANPR_RZA2M_RDK/src/tensorflow_lite/tensorflow/lite/kernels\kernel_util.h **** 
 251:C:/Renesas/e2studio_2021_01_workspace_RZA2M_ANPR/ANPR_RZA2M_RDK/src/tensorflow_lite/tensorflow/lite/kernels\kernel_util.h **** // Calculates the useful range of an activation layer given its activation
 252:C:/Renesas/e2studio_2021_01_workspace_RZA2M_ANPR/ANPR_RZA2M_RDK/src/tensorflow_lite/tensorflow/lite/kernels\kernel_util.h **** // tensor.a
 253:C:/Renesas/e2studio_2021_01_workspace_RZA2M_ANPR/ANPR_RZA2M_RDK/src/tensorflow_lite/tensorflow/lite/kernels\kernel_util.h **** template <typename T>
 254:C:/Renesas/e2studio_2021_01_workspace_RZA2M_ANPR/ANPR_RZA2M_RDK/src/tensorflow_lite/tensorflow/lite/kernels\kernel_util.h **** void CalculateActivationRange(TfLiteFusedActivation activation,
 255:C:/Renesas/e2studio_2021_01_workspace_RZA2M_ANPR/ANPR_RZA2M_RDK/src/tensorflow_lite/tensorflow/lite/kernels\kernel_util.h ****                               T* activation_min, T* activation_max) {
 256:C:/Renesas/e2studio_2021_01_workspace_RZA2M_ANPR/ANPR_RZA2M_RDK/src/tensorflow_lite/tensorflow/lite/kernels\kernel_util.h ****   if (activation == kTfLiteActRelu) {
 374              		.loc 3 256 0
 375 018c 010053E3 		cmp	r3, #1
 257:C:/Renesas/e2studio_2021_01_workspace_RZA2M_ANPR/ANPR_RZA2M_RDK/src/tensorflow_lite/tensorflow/lite/kernels\kernel_util.h ****     *activation_min = 0;
 376              		.loc 3 257 0
 377 0190 0020A003 		moveq	r2, #0
 256:C:/Renesas/e2studio_2021_01_workspace_RZA2M_ANPR/ANPR_RZA2M_RDK/src/tensorflow_lite/tensorflow/lite/kernels\kernel_util.h ****     *activation_min = 0;
 378              		.loc 3 256 0
 379 0194 0400000A 		beq	.L40
 258:C:/Renesas/e2studio_2021_01_workspace_RZA2M_ANPR/ANPR_RZA2M_RDK/src/tensorflow_lite/tensorflow/lite/kernels\kernel_util.h ****     *activation_max = std::numeric_limits<T>::max();
 259:C:/Renesas/e2studio_2021_01_workspace_RZA2M_ANPR/ANPR_RZA2M_RDK/src/tensorflow_lite/tensorflow/lite/kernels\kernel_util.h ****   } else if (activation == kTfLiteActRelu6) {
 380              		.loc 3 259 0
 381 0198 030053E3 		cmp	r3, #3
 382 019c 4300000A 		beq	.L46
 260:C:/Renesas/e2studio_2021_01_workspace_RZA2M_ANPR/ANPR_RZA2M_RDK/src/tensorflow_lite/tensorflow/lite/kernels\kernel_util.h ****     *activation_min = 0;
 261:C:/Renesas/e2studio_2021_01_workspace_RZA2M_ANPR/ANPR_RZA2M_RDK/src/tensorflow_lite/tensorflow/lite/kernels\kernel_util.h ****     *activation_max = 6;
 262:C:/Renesas/e2studio_2021_01_workspace_RZA2M_ANPR/ANPR_RZA2M_RDK/src/tensorflow_lite/tensorflow/lite/kernels\kernel_util.h ****   } else if (activation == kTfLiteActReluN1To1) {
 383              		.loc 3 262 0
 384 01a0 020053E3 		cmp	r3, #2
 263:C:/Renesas/e2studio_2021_01_workspace_RZA2M_ANPR/ANPR_RZA2M_RDK/src/tensorflow_lite/tensorflow/lite/kernels\kernel_util.h ****     *activation_min = -1;
 264:C:/Renesas/e2studio_2021_01_workspace_RZA2M_ANPR/ANPR_RZA2M_RDK/src/tensorflow_lite/tensorflow/lite/kernels\kernel_util.h ****     *activation_max = 1;
 265:C:/Renesas/e2studio_2021_01_workspace_RZA2M_ANPR/ANPR_RZA2M_RDK/src/tensorflow_lite/tensorflow/lite/kernels\kernel_util.h ****   } else {
 266:C:/Renesas/e2studio_2021_01_workspace_RZA2M_ANPR/ANPR_RZA2M_RDK/src/tensorflow_lite/tensorflow/lite/kernels\kernel_util.h ****     *activation_min = std::numeric_limits<T>::lowest();
 385              		.loc 3 266 0
 386 01a4 0225E013 		mvnne	r2, #8388608
 262:C:/Renesas/e2studio_2021_01_workspace_RZA2M_ANPR/ANPR_RZA2M_RDK/src/tensorflow_lite/tensorflow/lite/kernels\kernel_util.h ****     *activation_min = -1;
 387              		.loc 3 262 0
 388 01a8 3900000A 		beq	.L47
 389              	.L40:
 267:C:/Renesas/e2studio_2021_01_workspace_RZA2M_ANPR/ANPR_RZA2M_RDK/src/tensorflow_lite/tensorflow/lite/kernels\kernel_util.h ****     *activation_max = std::numeric_limits<T>::max();
 390              		.loc 3 267 0
 391 01ac FF3F0FE3 		movw	r3, #65535
 392              	.LVL37:
 393              	.LBE447:
 394              	.LBE446:
 240:../src/tensorflow_lite/tensorflow/lite/micro/kernels/pooling.cc **** }
 395              		.loc 1 240 0
 396 01b0 0000A0E3 		mov	r0, #0
 397              	.LBB452:
 398              	.LBB448:
 399              		.loc 3 267 0
 400 01b4 7F3F47E3 		movt	r3, 32639
 266:C:/Renesas/e2studio_2021_01_workspace_RZA2M_ANPR/ANPR_RZA2M_RDK/src/tensorflow_lite/tensorflow/lite/kernels\kernel_util.h ****     *activation_max = std::numeric_limits<T>::max();
 401              		.loc 3 266 0
 402 01b8 182087E5 		str	r2, [r7, #24]	@ float
 403              		.loc 3 267 0
 404 01bc 1C3087E5 		str	r3, [r7, #28]	@ float
 405 01c0 ECFFFFEA 		b	.L12
 406              	.LVL38:
 407              	.L15:
 408              	.LBE448:
 409              	.LBE452:
 410              	.LBB453:
 411              	.LBB441:
 412              	.LBB436:
 413              	.LBB431:
 414              	.LBB421:
 415              	.LBB414:
 416              	.LBB388:
  54:C:/Renesas/e2studio_2021_01_workspace_RZA2M_ANPR/ANPR_RZA2M_RDK/src/tensorflow_lite/tensorflow/lite/kernels\padding.h ****     case kTfLitePaddingValid:
 417              		.loc 2 54 0
 418 01c4 050083E0 		add	r0, r3, r5
 419              	.LVL39:
 420 01c8 0510A0E1 		mov	r1, r5
 421              	.LVL40:
 422 01cc 010040E2 		sub	r0, r0, #1
 423 01d0 14208DE5 		str	r2, [sp, #20]
 424 01d4 10308DE5 		str	r3, [sp, #16]
 425 01d8 FEFFFFEB 		bl	__aeabi_idiv
 426              	.LVL41:
 427              	.LBE388:
 428              	.LBE414:
 429              	.LBB415:
 430              	.LBB393:
  50:C:/Renesas/e2studio_2021_01_workspace_RZA2M_ANPR/ANPR_RZA2M_RDK/src/tensorflow_lite/tensorflow/lite/kernels\padding.h **** 
 431              		.loc 2 50 0
 432 01dc 000054E3 		cmp	r4, #0
 433 01e0 019040E2 		sub	r9, r0, #1
 434 01e4 10309DE5 		ldr	r3, [sp, #16]
 435 01e8 14209DE5 		ldr	r2, [sp, #20]
 436 01ec 0900000A 		beq	.L39
 437              	.LVL42:
 438              	.L18:
  54:C:/Renesas/e2studio_2021_01_workspace_RZA2M_ANPR/ANPR_RZA2M_RDK/src/tensorflow_lite/tensorflow/lite/kernels\padding.h ****     case kTfLitePaddingValid:
 439              		.loc 2 54 0
 440 01f0 04008BE0 		add	r0, fp, r4
 441 01f4 0410A0E1 		mov	r1, r4
 442 01f8 010040E2 		sub	r0, r0, #1
 443 01fc 14208DE5 		str	r2, [sp, #20]
 444 0200 10308DE5 		str	r3, [sp, #16]
 445 0204 FEFFFFEB 		bl	__aeabi_idiv
 446              	.LVL43:
 447 0208 10309DE5 		ldr	r3, [sp, #16]
 448 020c 010040E2 		sub	r0, r0, #1
 449 0210 14209DE5 		ldr	r2, [sp, #20]
 450 0214 BBFFFFEA 		b	.L19
 451              	.LVL44:
 452              	.L39:
  50:C:/Renesas/e2studio_2021_01_workspace_RZA2M_ANPR/ANPR_RZA2M_RDK/src/tensorflow_lite/tensorflow/lite/kernels\padding.h **** 
 453              		.loc 2 50 0
 454 0218 0000E0E3 		mvn	r0, #0
 455              	.LVL45:
 456 021c B9FFFFEA 		b	.L19
 457              	.LVL46:
 458              	.L42:
 459              	.LBE393:
 460              	.LBE415:
 461              	.LBE421:
 462              	.LBE431:
 463              	.LBE436:
 464              	.LBE441:
 465              	.LBE453:
 225:../src/tensorflow_lite/tensorflow/lite/micro/kernels/pooling.cc ****   TfLiteTensor* output = GetOutput(context, node, kOutputTensor);
 466              		.loc 1 225 0 discriminator 1
 467 0220 003000E3 		movw	r3, #:lower16:.LC4
 468 0224 002000E3 		movw	r2, #:lower16:.LC2
 469 0228 003040E3 		movt	r3, #:upper16:.LC4
 470 022c 001000E3 		movw	r1, #:lower16:.LC3
 471 0230 00308DE5 		str	r3, [sp]
 472 0234 0A00A0E1 		mov	r0, r10
 473              	.LVL47:
 474 0238 002040E3 		movt	r2, #:upper16:.LC2
 475 023c 001040E3 		movt	r1, #:upper16:.LC3
 476 0240 14409AE5 		ldr	r4, [r10, #20]
 477              	.LVL48:
 478 0244 E130A0E3 		mov	r3, #225
 479 0248 34FF2FE1 		blx	r4
 480              	.LVL49:
 481 024c 0100A0E3 		mov	r0, #1
 482              		.loc 1 241 0 discriminator 1
 483 0250 1CD08DE2 		add	sp, sp, #28
 484              		.cfi_remember_state
 485              		.cfi_def_cfa_offset 36
 486              		@ sp needed
 487 0254 F08FBDE8 		pop	{r4, r5, r6, r7, r8, r9, r10, fp, pc}
 488              	.LVL50:
 489              	.L43:
 490              		.cfi_restore_state
 227:../src/tensorflow_lite/tensorflow/lite/micro/kernels/pooling.cc **** 
 491              		.loc 1 227 0 discriminator 1
 492 0258 003000E3 		movw	r3, #:lower16:.LC5
 493 025c 002000E3 		movw	r2, #:lower16:.LC2
 494 0260 003040E3 		movt	r3, #:upper16:.LC5
 495 0264 001000E3 		movw	r1, #:lower16:.LC3
 496 0268 00308DE5 		str	r3, [sp]
 497 026c 0A00A0E1 		mov	r0, r10
 498              	.LVL51:
 499 0270 002040E3 		movt	r2, #:upper16:.LC2
 500 0274 001040E3 		movt	r1, #:upper16:.LC3
 501 0278 14409AE5 		ldr	r4, [r10, #20]
 502              	.LVL52:
 503 027c E330A0E3 		mov	r3, #227
 504 0280 34FF2FE1 		blx	r4
 505              	.LVL53:
 506 0284 0100A0E3 		mov	r0, #1
 507 0288 BAFFFFEA 		b	.L12
 508              	.LVL54:
 509              	.L28:
 510              	.LBB454:
 511              	.LBB442:
 512              	.LBB437:
 513              	.LBB432:
 514              	.LBB422:
 515              	.LBB416:
 516              	.LBB394:
  52:C:/Renesas/e2studio_2021_01_workspace_RZA2M_ANPR/ANPR_RZA2M_RDK/src/tensorflow_lite/tensorflow/lite/kernels\padding.h ****     case kTfLitePaddingSame:
 517              		.loc 2 52 0
 518 028c 0090E0E3 		mvn	r9, #0
 519 0290 D6FFFFEA 		b	.L18
 520              	.LVL55:
 521              	.L47:
 522              	.LBE394:
 523              	.LBE416:
 524              	.LBE422:
 525              	.LBE432:
 526              	.LBE437:
 527              	.LBE442:
 528              	.LBE454:
 529              	.LBB455:
 530              	.LBB449:
 263:C:/Renesas/e2studio_2021_01_workspace_RZA2M_ANPR/ANPR_RZA2M_RDK/src/tensorflow_lite/tensorflow/lite/kernels\kernel_util.h ****     *activation_max = 1;
 531              		.loc 3 263 0
 532 0294 0020A0E3 		mov	r2, #0
 264:C:/Renesas/e2studio_2021_01_workspace_RZA2M_ANPR/ANPR_RZA2M_RDK/src/tensorflow_lite/tensorflow/lite/kernels\kernel_util.h ****   } else {
 533              		.loc 3 264 0
 534 0298 FE35A0E3 		mov	r3, #1065353216
 535              	.LVL56:
 263:C:/Renesas/e2studio_2021_01_workspace_RZA2M_ANPR/ANPR_RZA2M_RDK/src/tensorflow_lite/tensorflow/lite/kernels\kernel_util.h ****     *activation_max = 1;
 536              		.loc 3 263 0
 537 029c 802F4BE3 		movt	r2, 49024
 538              	.LBE449:
 539              	.LBE455:
 240:../src/tensorflow_lite/tensorflow/lite/micro/kernels/pooling.cc **** }
 540              		.loc 1 240 0
 541 02a0 0000A0E3 		mov	r0, #0
 542              	.LBB456:
 543              	.LBB450:
 263:C:/Renesas/e2studio_2021_01_workspace_RZA2M_ANPR/ANPR_RZA2M_RDK/src/tensorflow_lite/tensorflow/lite/kernels\kernel_util.h ****     *activation_max = 1;
 544              		.loc 3 263 0
 545 02a4 182087E5 		str	r2, [r7, #24]	@ float
 264:C:/Renesas/e2studio_2021_01_workspace_RZA2M_ANPR/ANPR_RZA2M_RDK/src/tensorflow_lite/tensorflow/lite/kernels\kernel_util.h ****   } else {
 546              		.loc 3 264 0
 547 02a8 1C3087E5 		str	r3, [r7, #28]	@ float
 548 02ac B1FFFFEA 		b	.L12
 549              	.LVL57:
 550              	.L46:
 261:C:/Renesas/e2studio_2021_01_workspace_RZA2M_ANPR/ANPR_RZA2M_RDK/src/tensorflow_lite/tensorflow/lite/kernels\kernel_util.h ****   } else if (activation == kTfLiteActReluN1To1) {
 551              		.loc 3 261 0
 552 02b0 0030A0E3 		mov	r3, #0
 553              	.LVL58:
 260:C:/Renesas/e2studio_2021_01_workspace_RZA2M_ANPR/ANPR_RZA2M_RDK/src/tensorflow_lite/tensorflow/lite/kernels\kernel_util.h ****     *activation_max = 6;
 554              		.loc 3 260 0
 555 02b4 0020A0E3 		mov	r2, #0
 261:C:/Renesas/e2studio_2021_01_workspace_RZA2M_ANPR/ANPR_RZA2M_RDK/src/tensorflow_lite/tensorflow/lite/kernels\kernel_util.h ****   } else if (activation == kTfLiteActReluN1To1) {
 556              		.loc 3 261 0
 557 02b8 C03044E3 		movt	r3, 16576
 558              	.LBE450:
 559              	.LBE456:
 240:../src/tensorflow_lite/tensorflow/lite/micro/kernels/pooling.cc **** }
 560              		.loc 1 240 0
 561 02bc 0000A0E3 		mov	r0, #0
 562              	.LBB457:
 563              	.LBB451:
 260:C:/Renesas/e2studio_2021_01_workspace_RZA2M_ANPR/ANPR_RZA2M_RDK/src/tensorflow_lite/tensorflow/lite/kernels\kernel_util.h ****     *activation_max = 6;
 564              		.loc 3 260 0
 565 02c0 182087E5 		str	r2, [r7, #24]	@ float
 261:C:/Renesas/e2studio_2021_01_workspace_RZA2M_ANPR/ANPR_RZA2M_RDK/src/tensorflow_lite/tensorflow/lite/kernels\kernel_util.h ****   } else if (activation == kTfLiteActReluN1To1) {
 566              		.loc 3 261 0
 567 02c4 1C3087E5 		str	r3, [r7, #28]	@ float
 568 02c8 AAFFFFEA 		b	.L12
 569              	.LVL59:
 570              	.L10:
 571              	.LBE451:
 572              	.LBE457:
 218:../src/tensorflow_lite/tensorflow/lite/micro/kernels/pooling.cc ****   auto* params = reinterpret_cast<TfLitePoolParams*>(node->builtin_data);
 573              		.loc 1 218 0 discriminator 1
 574 02cc FEFFFFEB 		bl	abort
 575              	.LVL60:
 576              		.cfi_endproc
 577              	.LFE4189:
 578              		.fnend
 580              		.section	.text._ZN6tflite3ops5micro7pooling11AverageEvalEP13TfLiteContextP10TfLiteNode,"ax",%progb
 581              		.align	2
 582              		.global	_ZN6tflite3ops5micro7pooling11AverageEvalEP13TfLiteContextP10TfLiteNode
 583              		.syntax unified
 584              		.arm
 585              		.fpu neon
 587              	_ZN6tflite3ops5micro7pooling11AverageEvalEP13TfLiteContextP10TfLiteNode:
 588              		.fnstart
 589              	.LFB4186:
 155:../src/tensorflow_lite/tensorflow/lite/micro/kernels/pooling.cc ****   TFLITE_DCHECK(node->builtin_data != nullptr);
 590              		.loc 1 155 0
 591              		.cfi_startproc
 592              		.cfi_personality 0,__gxx_personality_v0
 593              		.cfi_lsda 0,.LLSDA4186
 594              		@ args = 0, pretend = 0, frame = 176
 595              		@ frame_needed = 0, uses_anonymous_args = 0
 596              	.LVL61:
 597 0000 F04F2DE9 		push	{r4, r5, r6, r7, r8, r9, r10, fp, lr}
 598              		.save {r4, r5, r6, r7, r8, r9, r10, fp, lr}
 599              		.cfi_def_cfa_offset 36
 600              		.cfi_offset 4, -36
 601              		.cfi_offset 5, -32
 602              		.cfi_offset 6, -28
 603              		.cfi_offset 7, -24
 604              		.cfi_offset 8, -20
 605              		.cfi_offset 9, -16
 606              		.cfi_offset 10, -12
 607              		.cfi_offset 11, -8
 608              		.cfi_offset 14, -4
 156:../src/tensorflow_lite/tensorflow/lite/micro/kernels/pooling.cc ****   auto* params = reinterpret_cast<TfLitePoolParams*>(node->builtin_data);
 609              		.loc 1 156 0
 610 0004 147091E5 		ldr	r7, [r1, #20]
 155:../src/tensorflow_lite/tensorflow/lite/micro/kernels/pooling.cc ****   TFLITE_DCHECK(node->builtin_data != nullptr);
 611              		.loc 1 155 0
 612 0008 028B2DED 		vpush.64	{d8}
 613              		.vsave {d8}
 614              		.cfi_def_cfa_offset 44
 615              		.cfi_offset 80, -44
 616              		.cfi_offset 81, -40
 617              		.pad #180
 618 000c B4D04DE2 		sub	sp, sp, #180
 619              		.cfi_def_cfa_offset 224
 156:../src/tensorflow_lite/tensorflow/lite/micro/kernels/pooling.cc ****   auto* params = reinterpret_cast<TfLitePoolParams*>(node->builtin_data);
 620              		.loc 1 156 0
 621 0010 000057E3 		cmp	r7, #0
 622 0014 7303000A 		beq	.L50
 159:../src/tensorflow_lite/tensorflow/lite/micro/kernels/pooling.cc ****   const OpData* data = static_cast<const OpData*>(node->user_data);
 623              		.loc 1 159 0
 624 0018 105091E5 		ldr	r5, [r1, #16]
 625 001c 0140A0E1 		mov	r4, r1
 626              	.LVL62:
 627 0020 000055E3 		cmp	r5, #0
 628 0024 6F03000A 		beq	.L50
 629              	.LBB680:
 630              	.LBB681:
 631              	.LBB682:
 632              		.file 4 "C:/Renesas/e2studio_2021_01_workspace_RZA2M_ANPR/ANPR_RZA2M_RDK/src/tensorflow_lite/tenso
   1:C:/Renesas/e2studio_2021_01_workspace_RZA2M_ANPR/ANPR_RZA2M_RDK/src/tensorflow_lite/tensorflow/lite/micro/kernels\kernel_util.h **** /* Copyright 2020 The TensorFlow Authors. All Rights Reserved.
   2:C:/Renesas/e2studio_2021_01_workspace_RZA2M_ANPR/ANPR_RZA2M_RDK/src/tensorflow_lite/tensorflow/lite/micro/kernels\kernel_util.h **** 
   3:C:/Renesas/e2studio_2021_01_workspace_RZA2M_ANPR/ANPR_RZA2M_RDK/src/tensorflow_lite/tensorflow/lite/micro/kernels\kernel_util.h **** Licensed under the Apache License, Version 2.0 (the "License");
   4:C:/Renesas/e2studio_2021_01_workspace_RZA2M_ANPR/ANPR_RZA2M_RDK/src/tensorflow_lite/tensorflow/lite/micro/kernels\kernel_util.h **** you may not use this file except in compliance with the License.
   5:C:/Renesas/e2studio_2021_01_workspace_RZA2M_ANPR/ANPR_RZA2M_RDK/src/tensorflow_lite/tensorflow/lite/micro/kernels\kernel_util.h **** You may obtain a copy of the License at
   6:C:/Renesas/e2studio_2021_01_workspace_RZA2M_ANPR/ANPR_RZA2M_RDK/src/tensorflow_lite/tensorflow/lite/micro/kernels\kernel_util.h **** 
   7:C:/Renesas/e2studio_2021_01_workspace_RZA2M_ANPR/ANPR_RZA2M_RDK/src/tensorflow_lite/tensorflow/lite/micro/kernels\kernel_util.h ****     http://www.apache.org/licenses/LICENSE-2.0
   8:C:/Renesas/e2studio_2021_01_workspace_RZA2M_ANPR/ANPR_RZA2M_RDK/src/tensorflow_lite/tensorflow/lite/micro/kernels\kernel_util.h **** 
   9:C:/Renesas/e2studio_2021_01_workspace_RZA2M_ANPR/ANPR_RZA2M_RDK/src/tensorflow_lite/tensorflow/lite/micro/kernels\kernel_util.h **** Unless required by applicable law or agreed to in writing, software
  10:C:/Renesas/e2studio_2021_01_workspace_RZA2M_ANPR/ANPR_RZA2M_RDK/src/tensorflow_lite/tensorflow/lite/micro/kernels\kernel_util.h **** distributed under the License is distributed on an "AS IS" BASIS,
  11:C:/Renesas/e2studio_2021_01_workspace_RZA2M_ANPR/ANPR_RZA2M_RDK/src/tensorflow_lite/tensorflow/lite/micro/kernels\kernel_util.h **** WITHOUT WARRANTIES OR CONDITIONS OF ANY KIND, either express or implied.
  12:C:/Renesas/e2studio_2021_01_workspace_RZA2M_ANPR/ANPR_RZA2M_RDK/src/tensorflow_lite/tensorflow/lite/micro/kernels\kernel_util.h **** See the License for the specific language governing permissions and
  13:C:/Renesas/e2studio_2021_01_workspace_RZA2M_ANPR/ANPR_RZA2M_RDK/src/tensorflow_lite/tensorflow/lite/micro/kernels\kernel_util.h **** limitations under the License.
  14:C:/Renesas/e2studio_2021_01_workspace_RZA2M_ANPR/ANPR_RZA2M_RDK/src/tensorflow_lite/tensorflow/lite/micro/kernels\kernel_util.h **** ==============================================================================*/
  15:C:/Renesas/e2studio_2021_01_workspace_RZA2M_ANPR/ANPR_RZA2M_RDK/src/tensorflow_lite/tensorflow/lite/micro/kernels\kernel_util.h **** 
  16:C:/Renesas/e2studio_2021_01_workspace_RZA2M_ANPR/ANPR_RZA2M_RDK/src/tensorflow_lite/tensorflow/lite/micro/kernels\kernel_util.h **** #ifndef TENSORFLOW_LITE_MICRO_KERNELS_KERNEL_UTIL_H_
  17:C:/Renesas/e2studio_2021_01_workspace_RZA2M_ANPR/ANPR_RZA2M_RDK/src/tensorflow_lite/tensorflow/lite/micro/kernels\kernel_util.h **** #define TENSORFLOW_LITE_MICRO_KERNELS_KERNEL_UTIL_H_
  18:C:/Renesas/e2studio_2021_01_workspace_RZA2M_ANPR/ANPR_RZA2M_RDK/src/tensorflow_lite/tensorflow/lite/micro/kernels\kernel_util.h **** 
  19:C:/Renesas/e2studio_2021_01_workspace_RZA2M_ANPR/ANPR_RZA2M_RDK/src/tensorflow_lite/tensorflow/lite/micro/kernels\kernel_util.h **** #include <cstdint>
  20:C:/Renesas/e2studio_2021_01_workspace_RZA2M_ANPR/ANPR_RZA2M_RDK/src/tensorflow_lite/tensorflow/lite/micro/kernels\kernel_util.h **** 
  21:C:/Renesas/e2studio_2021_01_workspace_RZA2M_ANPR/ANPR_RZA2M_RDK/src/tensorflow_lite/tensorflow/lite/micro/kernels\kernel_util.h **** #include "tensorflow/lite/c/builtin_op_data.h"
  22:C:/Renesas/e2studio_2021_01_workspace_RZA2M_ANPR/ANPR_RZA2M_RDK/src/tensorflow_lite/tensorflow/lite/micro/kernels\kernel_util.h **** #include "tensorflow/lite/c/common.h"
  23:C:/Renesas/e2studio_2021_01_workspace_RZA2M_ANPR/ANPR_RZA2M_RDK/src/tensorflow_lite/tensorflow/lite/micro/kernels\kernel_util.h **** #include "tensorflow/lite/kernels/internal/compatibility.h"
  24:C:/Renesas/e2studio_2021_01_workspace_RZA2M_ANPR/ANPR_RZA2M_RDK/src/tensorflow_lite/tensorflow/lite/micro/kernels\kernel_util.h **** #include "tensorflow/lite/kernels/internal/types.h"
  25:C:/Renesas/e2studio_2021_01_workspace_RZA2M_ANPR/ANPR_RZA2M_RDK/src/tensorflow_lite/tensorflow/lite/micro/kernels\kernel_util.h **** 
  26:C:/Renesas/e2studio_2021_01_workspace_RZA2M_ANPR/ANPR_RZA2M_RDK/src/tensorflow_lite/tensorflow/lite/micro/kernels\kernel_util.h **** namespace tflite {
  27:C:/Renesas/e2studio_2021_01_workspace_RZA2M_ANPR/ANPR_RZA2M_RDK/src/tensorflow_lite/tensorflow/lite/micro/kernels\kernel_util.h **** namespace micro {
  28:C:/Renesas/e2studio_2021_01_workspace_RZA2M_ANPR/ANPR_RZA2M_RDK/src/tensorflow_lite/tensorflow/lite/micro/kernels\kernel_util.h **** 
  29:C:/Renesas/e2studio_2021_01_workspace_RZA2M_ANPR/ANPR_RZA2M_RDK/src/tensorflow_lite/tensorflow/lite/micro/kernels\kernel_util.h **** // Returns a mutable tensor for a given input index. is_variable must be checked
  30:C:/Renesas/e2studio_2021_01_workspace_RZA2M_ANPR/ANPR_RZA2M_RDK/src/tensorflow_lite/tensorflow/lite/micro/kernels\kernel_util.h **** // during prepare when the full TfLiteTensor is available.
  31:C:/Renesas/e2studio_2021_01_workspace_RZA2M_ANPR/ANPR_RZA2M_RDK/src/tensorflow_lite/tensorflow/lite/micro/kernels\kernel_util.h **** inline TfLiteEvalTensor* GetMutableEvalInput(const TfLiteContext* context,
  32:C:/Renesas/e2studio_2021_01_workspace_RZA2M_ANPR/ANPR_RZA2M_RDK/src/tensorflow_lite/tensorflow/lite/micro/kernels\kernel_util.h ****                                              const TfLiteNode* node,
  33:C:/Renesas/e2studio_2021_01_workspace_RZA2M_ANPR/ANPR_RZA2M_RDK/src/tensorflow_lite/tensorflow/lite/micro/kernels\kernel_util.h ****                                              int index) {
  34:C:/Renesas/e2studio_2021_01_workspace_RZA2M_ANPR/ANPR_RZA2M_RDK/src/tensorflow_lite/tensorflow/lite/micro/kernels\kernel_util.h ****   TFLITE_DCHECK(context != nullptr);
 633              		.loc 4 34 0
 634 0028 000050E3 		cmp	r0, #0
 635 002c 0080A0E1 		mov	r8, r0
 636              	.LVL63:
 637 0030 6C03000A 		beq	.L50
  35:C:/Renesas/e2studio_2021_01_workspace_RZA2M_ANPR/ANPR_RZA2M_RDK/src/tensorflow_lite/tensorflow/lite/micro/kernels\kernel_util.h ****   TFLITE_DCHECK(node != nullptr);
  36:C:/Renesas/e2studio_2021_01_workspace_RZA2M_ANPR/ANPR_RZA2M_RDK/src/tensorflow_lite/tensorflow/lite/micro/kernels\kernel_util.h ****   return context->GetEvalTensor(context, node->inputs->data[index]);
 638              		.loc 4 36 0
 639 0034 002091E5 		ldr	r2, [r1]
 640 0038 543090E5 		ldr	r3, [r0, #84]
 641 003c 041092E5 		ldr	r1, [r2, #4]
 642              	.LVL64:
 643              	.LEHB0:
 644 0040 33FF2FE1 		blx	r3
 645              	.LVL65:
 646              	.LBE682:
 647              	.LBE681:
 648              	.LBE680:
 649              	.LBB685:
 650              	.LBB686:
  37:C:/Renesas/e2studio_2021_01_workspace_RZA2M_ANPR/ANPR_RZA2M_RDK/src/tensorflow_lite/tensorflow/lite/micro/kernels\kernel_util.h **** }
  38:C:/Renesas/e2studio_2021_01_workspace_RZA2M_ANPR/ANPR_RZA2M_RDK/src/tensorflow_lite/tensorflow/lite/micro/kernels\kernel_util.h **** 
  39:C:/Renesas/e2studio_2021_01_workspace_RZA2M_ANPR/ANPR_RZA2M_RDK/src/tensorflow_lite/tensorflow/lite/micro/kernels\kernel_util.h **** // Returns the TfLiteEvalTensor struct for a given input index in a node.
  40:C:/Renesas/e2studio_2021_01_workspace_RZA2M_ANPR/ANPR_RZA2M_RDK/src/tensorflow_lite/tensorflow/lite/micro/kernels\kernel_util.h **** inline const TfLiteEvalTensor* GetEvalInput(const TfLiteContext* context,
  41:C:/Renesas/e2studio_2021_01_workspace_RZA2M_ANPR/ANPR_RZA2M_RDK/src/tensorflow_lite/tensorflow/lite/micro/kernels\kernel_util.h ****                                             const TfLiteNode* node, int index) {
  42:C:/Renesas/e2studio_2021_01_workspace_RZA2M_ANPR/ANPR_RZA2M_RDK/src/tensorflow_lite/tensorflow/lite/micro/kernels\kernel_util.h ****   return GetMutableEvalInput(context, node, index);
  43:C:/Renesas/e2studio_2021_01_workspace_RZA2M_ANPR/ANPR_RZA2M_RDK/src/tensorflow_lite/tensorflow/lite/micro/kernels\kernel_util.h **** }
  44:C:/Renesas/e2studio_2021_01_workspace_RZA2M_ANPR/ANPR_RZA2M_RDK/src/tensorflow_lite/tensorflow/lite/micro/kernels\kernel_util.h **** 
  45:C:/Renesas/e2studio_2021_01_workspace_RZA2M_ANPR/ANPR_RZA2M_RDK/src/tensorflow_lite/tensorflow/lite/micro/kernels\kernel_util.h **** // Returns the TfLiteEvalTensor struct for a given output index in a node.
  46:C:/Renesas/e2studio_2021_01_workspace_RZA2M_ANPR/ANPR_RZA2M_RDK/src/tensorflow_lite/tensorflow/lite/micro/kernels\kernel_util.h **** inline TfLiteEvalTensor* GetEvalOutput(const TfLiteContext* context,
  47:C:/Renesas/e2studio_2021_01_workspace_RZA2M_ANPR/ANPR_RZA2M_RDK/src/tensorflow_lite/tensorflow/lite/micro/kernels\kernel_util.h ****                                        const TfLiteNode* node, int index) {
  48:C:/Renesas/e2studio_2021_01_workspace_RZA2M_ANPR/ANPR_RZA2M_RDK/src/tensorflow_lite/tensorflow/lite/micro/kernels\kernel_util.h ****   TFLITE_DCHECK(context != nullptr);
  49:C:/Renesas/e2studio_2021_01_workspace_RZA2M_ANPR/ANPR_RZA2M_RDK/src/tensorflow_lite/tensorflow/lite/micro/kernels\kernel_util.h ****   TFLITE_DCHECK(node != nullptr);
  50:C:/Renesas/e2studio_2021_01_workspace_RZA2M_ANPR/ANPR_RZA2M_RDK/src/tensorflow_lite/tensorflow/lite/micro/kernels\kernel_util.h ****   return context->GetEvalTensor(context, node->outputs->data[index]);
 651              		.loc 4 50 0
 652 0044 042094E5 		ldr	r2, [r4, #4]
 653              	.LBE686:
 654              	.LBE685:
 655              	.LBB688:
 656              	.LBB684:
 657              	.LBB683:
  36:C:/Renesas/e2studio_2021_01_workspace_RZA2M_ANPR/ANPR_RZA2M_RDK/src/tensorflow_lite/tensorflow/lite/micro/kernels\kernel_util.h **** }
 658              		.loc 4 36 0
 659 0048 0060A0E1 		mov	r6, r0
 660              	.LVL66:
 661              	.LBE683:
 662              	.LBE684:
 663              	.LBE688:
 664              	.LBB689:
 665              	.LBB687:
 666              		.loc 4 50 0
 667 004c 543098E5 		ldr	r3, [r8, #84]
 668 0050 0800A0E1 		mov	r0, r8
 669 0054 041092E5 		ldr	r1, [r2, #4]
 670 0058 33FF2FE1 		blx	r3
 671              	.LVL67:
 672 005c 0040A0E1 		mov	r4, r0
 673              	.LVL68:
 674              	.LBE687:
 675              	.LBE689:
 168:../src/tensorflow_lite/tensorflow/lite/micro/kernels/pooling.cc ****     case kTfLiteFloat32:
 676              		.loc 1 168 0
 677 0060 0800D6E5 		ldrb	r0, [r6, #8]	@ zero_extendqisi2
 678 0064 030050E3 		cmp	r0, #3
 679 0068 1201000A 		beq	.L52
 680 006c 090050E3 		cmp	r0, #9
 681 0070 1001000A 		beq	.L52
 682 0074 010050E3 		cmp	r0, #1
 683 0078 0A00000A 		beq	.L284
 177:../src/tensorflow_lite/tensorflow/lite/micro/kernels/pooling.cc ****                          TfLiteTypeGetName(input->type));
 684              		.loc 1 177 0
 685 007c 144098E5 		ldr	r4, [r8, #20]
 686 0080 FEFFFFEB 		bl	TfLiteTypeGetName
 687              	.LVL69:
 688 0084 001000E3 		movw	r1, #:lower16:.LC6
 689 0088 0020A0E1 		mov	r2, r0
 690 008c 001040E3 		movt	r1, #:upper16:.LC6
 691 0090 0800A0E1 		mov	r0, r8
 692 0094 34FF2FE1 		blx	r4
 693              	.LVL70:
 179:../src/tensorflow_lite/tensorflow/lite/micro/kernels/pooling.cc ****   }
 694              		.loc 1 179 0
 695 0098 0100A0E3 		mov	r0, #1
 696              	.LVL71:
 697              	.L255:
 182:../src/tensorflow_lite/tensorflow/lite/micro/kernels/pooling.cc **** 
 698              		.loc 1 182 0
 699 009c B4D08DE2 		add	sp, sp, #180
 700              		.cfi_remember_state
 701              		.cfi_def_cfa_offset 44
 702              		@ sp needed
 703 00a0 028BBDEC 		vldm	sp!, {d8}
 704              		.cfi_restore 80
 705              		.cfi_restore 81
 706              		.cfi_def_cfa_offset 36
 707 00a4 F08FBDE8 		pop	{r4, r5, r6, r7, r8, r9, r10, fp, pc}
 708              	.LVL72:
 709              	.L284:
 710              		.cfi_restore_state
 711              	.LBB690:
 712              	.LBB691:
  65:../src/tensorflow_lite/tensorflow/lite/micro/kernels/pooling.cc ****   op_params.stride_width = params->stride_width;
 713              		.loc 1 65 0
 714 00a8 083097E5 		ldr	r3, [r7, #8]
  73:../src/tensorflow_lite/tensorflow/lite/micro/kernels/pooling.cc ****                              tflite::micro::GetTensorData<float>(input),
 715              		.loc 1 73 0
 716 00ac 0610A0E1 		mov	r1, r6
 717 00b0 80008DE2 		add	r0, sp, #128
  71:../src/tensorflow_lite/tensorflow/lite/micro/kernels/pooling.cc ****   op_params.float_activation_max = data->activation_max_f32;
 718              		.loc 1 71 0
 719 00b4 068A95ED 		vldr.32	s16, [r5, #24]
  72:../src/tensorflow_lite/tensorflow/lite/micro/kernels/pooling.cc ****   reference_ops::AveragePool(op_params, tflite::micro::GetTensorShape(input),
 720              		.loc 1 72 0
 721 00b8 078AD5ED 		vldr.32	s17, [r5, #28]
  65:../src/tensorflow_lite/tensorflow/lite/micro/kernels/pooling.cc ****   op_params.stride_width = params->stride_width;
 722              		.loc 1 65 0
 723 00bc 6C308DE5 		str	r3, [sp, #108]
 724              	.LVL73:
  66:../src/tensorflow_lite/tensorflow/lite/micro/kernels/pooling.cc ****   op_params.filter_height = params->filter_height;
 725              		.loc 1 66 0
 726 00c0 043097E5 		ldr	r3, [r7, #4]
 727              	.LVL74:
 728 00c4 70308DE5 		str	r3, [sp, #112]
 729              	.LVL75:
  67:../src/tensorflow_lite/tensorflow/lite/micro/kernels/pooling.cc ****   op_params.filter_width = params->filter_width;
 730              		.loc 1 67 0
 731 00c8 103097E5 		ldr	r3, [r7, #16]
 732              	.LVL76:
 733 00cc 60308DE5 		str	r3, [sp, #96]
 734              	.LVL77:
  68:../src/tensorflow_lite/tensorflow/lite/micro/kernels/pooling.cc ****   op_params.padding_values.height = data->padding.height;
 735              		.loc 1 68 0
 736 00d0 0C3097E5 		ldr	r3, [r7, #12]
 737              	.LVL78:
 738 00d4 58308DE5 		str	r3, [sp, #88]
 739              	.LVL79:
  69:../src/tensorflow_lite/tensorflow/lite/micro/kernels/pooling.cc ****   op_params.padding_values.width = data->padding.width;
 740              		.loc 1 69 0
 741 00d8 F430D5E1 		ldrsh	r3, [r5, #4]
 742              	.LVL80:
 743 00dc 64308DE5 		str	r3, [sp, #100]
 744              	.LVL81:
  70:../src/tensorflow_lite/tensorflow/lite/micro/kernels/pooling.cc ****   op_params.float_activation_min = data->activation_min_f32;
 745              		.loc 1 70 0
 746 00e0 F030D5E1 		ldrsh	r3, [r5]
 747 00e4 68308DE5 		str	r3, [sp, #104]
 748              	.LVL82:
  73:../src/tensorflow_lite/tensorflow/lite/micro/kernels/pooling.cc ****                              tflite::micro::GetTensorData<float>(input),
 749              		.loc 1 73 0
 750 00e8 FEFFFFEB 		bl	_ZN6tflite5micro14GetTensorShapeEPK16TfLiteEvalTensor
 751              	.LVL83:
 752              	.LEHE0:
  75:../src/tensorflow_lite/tensorflow/lite/micro/kernels/pooling.cc ****                              tflite::micro::GetTensorData<float>(output));
 753              		.loc 1 75 0
 754 00ec 0410A0E1 		mov	r1, r4
 755 00f0 98008DE2 		add	r0, sp, #152
 756              	.LBB692:
 757              	.LBB693:
  51:C:/Renesas/e2studio_2021_01_workspace_RZA2M_ANPR/ANPR_RZA2M_RDK/src/tensorflow_lite/tensorflow/lite/micro/kernels\kernel_util.h **** }
  52:C:/Renesas/e2studio_2021_01_workspace_RZA2M_ANPR/ANPR_RZA2M_RDK/src/tensorflow_lite/tensorflow/lite/micro/kernels\kernel_util.h **** 
  53:C:/Renesas/e2studio_2021_01_workspace_RZA2M_ANPR/ANPR_RZA2M_RDK/src/tensorflow_lite/tensorflow/lite/micro/kernels\kernel_util.h **** // Returns data for a TfLiteEvalTensor struct.
  54:C:/Renesas/e2studio_2021_01_workspace_RZA2M_ANPR/ANPR_RZA2M_RDK/src/tensorflow_lite/tensorflow/lite/micro/kernels\kernel_util.h **** template <typename T>
  55:C:/Renesas/e2studio_2021_01_workspace_RZA2M_ANPR/ANPR_RZA2M_RDK/src/tensorflow_lite/tensorflow/lite/micro/kernels\kernel_util.h **** T* GetTensorData(TfLiteEvalTensor* tensor) {
  56:C:/Renesas/e2studio_2021_01_workspace_RZA2M_ANPR/ANPR_RZA2M_RDK/src/tensorflow_lite/tensorflow/lite/micro/kernels\kernel_util.h ****   return tensor != nullptr ? reinterpret_cast<T*>(tensor->data.raw) : nullptr;
  57:C:/Renesas/e2studio_2021_01_workspace_RZA2M_ANPR/ANPR_RZA2M_RDK/src/tensorflow_lite/tensorflow/lite/micro/kernels\kernel_util.h **** }
  58:C:/Renesas/e2studio_2021_01_workspace_RZA2M_ANPR/ANPR_RZA2M_RDK/src/tensorflow_lite/tensorflow/lite/micro/kernels\kernel_util.h **** 
  59:C:/Renesas/e2studio_2021_01_workspace_RZA2M_ANPR/ANPR_RZA2M_RDK/src/tensorflow_lite/tensorflow/lite/micro/kernels\kernel_util.h **** // Returns const data for a TfLiteEvalTensor struct.
  60:C:/Renesas/e2studio_2021_01_workspace_RZA2M_ANPR/ANPR_RZA2M_RDK/src/tensorflow_lite/tensorflow/lite/micro/kernels\kernel_util.h **** template <typename T>
  61:C:/Renesas/e2studio_2021_01_workspace_RZA2M_ANPR/ANPR_RZA2M_RDK/src/tensorflow_lite/tensorflow/lite/micro/kernels\kernel_util.h **** const T* GetTensorData(const TfLiteEvalTensor* tensor) {
  62:C:/Renesas/e2studio_2021_01_workspace_RZA2M_ANPR/ANPR_RZA2M_RDK/src/tensorflow_lite/tensorflow/lite/micro/kernels\kernel_util.h ****   TFLITE_DCHECK(tensor != nullptr);
  63:C:/Renesas/e2studio_2021_01_workspace_RZA2M_ANPR/ANPR_RZA2M_RDK/src/tensorflow_lite/tensorflow/lite/micro/kernels\kernel_util.h ****   return reinterpret_cast<const T*>(tensor->data.raw);
 758              		.loc 4 63 0
 759 00f4 009096E5 		ldr	r9, [r6]
 760              	.LVL84:
 761              	.LEHB1:
 762              	.LBE693:
 763              	.LBE692:
  75:../src/tensorflow_lite/tensorflow/lite/micro/kernels/pooling.cc ****                              tflite::micro::GetTensorData<float>(output));
 764              		.loc 1 75 0
 765 00f8 FEFFFFEB 		bl	_ZN6tflite5micro14GetTensorShapeEPK16TfLiteEvalTensor
 766              	.LVL85:
 767              	.LEHE1:
 768              	.LBB694:
 769              	.LBB695:
 770              		.file 5 "C:/Renesas/e2studio_2021_01_workspace_RZA2M_ANPR/ANPR_RZA2M_RDK/src/tensorflow_lite/tenso
   1:C:/Renesas/e2studio_2021_01_workspace_RZA2M_ANPR/ANPR_RZA2M_RDK/src/tensorflow_lite/tensorflow/lite/kernels/internal/reference\pooling.h **** /* Copyright 2019 The TensorFlow Authors. All Rights Reserved.
   2:C:/Renesas/e2studio_2021_01_workspace_RZA2M_ANPR/ANPR_RZA2M_RDK/src/tensorflow_lite/tensorflow/lite/kernels/internal/reference\pooling.h **** 
   3:C:/Renesas/e2studio_2021_01_workspace_RZA2M_ANPR/ANPR_RZA2M_RDK/src/tensorflow_lite/tensorflow/lite/kernels/internal/reference\pooling.h **** Licensed under the Apache License, Version 2.0 (the "License");
   4:C:/Renesas/e2studio_2021_01_workspace_RZA2M_ANPR/ANPR_RZA2M_RDK/src/tensorflow_lite/tensorflow/lite/kernels/internal/reference\pooling.h **** you may not use this file except in compliance with the License.
   5:C:/Renesas/e2studio_2021_01_workspace_RZA2M_ANPR/ANPR_RZA2M_RDK/src/tensorflow_lite/tensorflow/lite/kernels/internal/reference\pooling.h **** You may obtain a copy of the License at
   6:C:/Renesas/e2studio_2021_01_workspace_RZA2M_ANPR/ANPR_RZA2M_RDK/src/tensorflow_lite/tensorflow/lite/kernels/internal/reference\pooling.h **** 
   7:C:/Renesas/e2studio_2021_01_workspace_RZA2M_ANPR/ANPR_RZA2M_RDK/src/tensorflow_lite/tensorflow/lite/kernels/internal/reference\pooling.h ****     http://www.apache.org/licenses/LICENSE-2.0
   8:C:/Renesas/e2studio_2021_01_workspace_RZA2M_ANPR/ANPR_RZA2M_RDK/src/tensorflow_lite/tensorflow/lite/kernels/internal/reference\pooling.h **** 
   9:C:/Renesas/e2studio_2021_01_workspace_RZA2M_ANPR/ANPR_RZA2M_RDK/src/tensorflow_lite/tensorflow/lite/kernels/internal/reference\pooling.h **** Unless required by applicable law or agreed to in writing, software
  10:C:/Renesas/e2studio_2021_01_workspace_RZA2M_ANPR/ANPR_RZA2M_RDK/src/tensorflow_lite/tensorflow/lite/kernels/internal/reference\pooling.h **** distributed under the License is distributed on an "AS IS" BASIS,
  11:C:/Renesas/e2studio_2021_01_workspace_RZA2M_ANPR/ANPR_RZA2M_RDK/src/tensorflow_lite/tensorflow/lite/kernels/internal/reference\pooling.h **** WITHOUT WARRANTIES OR CONDITIONS OF ANY KIND, either express or implied.
  12:C:/Renesas/e2studio_2021_01_workspace_RZA2M_ANPR/ANPR_RZA2M_RDK/src/tensorflow_lite/tensorflow/lite/kernels/internal/reference\pooling.h **** See the License for the specific language governing permissions and
  13:C:/Renesas/e2studio_2021_01_workspace_RZA2M_ANPR/ANPR_RZA2M_RDK/src/tensorflow_lite/tensorflow/lite/kernels/internal/reference\pooling.h **** limitations under the License.
  14:C:/Renesas/e2studio_2021_01_workspace_RZA2M_ANPR/ANPR_RZA2M_RDK/src/tensorflow_lite/tensorflow/lite/kernels/internal/reference\pooling.h **** ==============================================================================*/
  15:C:/Renesas/e2studio_2021_01_workspace_RZA2M_ANPR/ANPR_RZA2M_RDK/src/tensorflow_lite/tensorflow/lite/kernels/internal/reference\pooling.h **** #ifndef TENSORFLOW_LITE_KERNELS_INTERNAL_REFERENCE_POOLING_H_
  16:C:/Renesas/e2studio_2021_01_workspace_RZA2M_ANPR/ANPR_RZA2M_RDK/src/tensorflow_lite/tensorflow/lite/kernels/internal/reference\pooling.h **** #define TENSORFLOW_LITE_KERNELS_INTERNAL_REFERENCE_POOLING_H_
  17:C:/Renesas/e2studio_2021_01_workspace_RZA2M_ANPR/ANPR_RZA2M_RDK/src/tensorflow_lite/tensorflow/lite/kernels/internal/reference\pooling.h **** 
  18:C:/Renesas/e2studio_2021_01_workspace_RZA2M_ANPR/ANPR_RZA2M_RDK/src/tensorflow_lite/tensorflow/lite/kernels/internal/reference\pooling.h **** #include "tensorflow/lite/kernels/internal/common.h"
  19:C:/Renesas/e2studio_2021_01_workspace_RZA2M_ANPR/ANPR_RZA2M_RDK/src/tensorflow_lite/tensorflow/lite/kernels/internal/reference\pooling.h **** #include "tensorflow/lite/kernels/internal/cppmath.h"
  20:C:/Renesas/e2studio_2021_01_workspace_RZA2M_ANPR/ANPR_RZA2M_RDK/src/tensorflow_lite/tensorflow/lite/kernels/internal/reference\pooling.h **** #include "tensorflow/lite/kernels/internal/quantization_util.h"
  21:C:/Renesas/e2studio_2021_01_workspace_RZA2M_ANPR/ANPR_RZA2M_RDK/src/tensorflow_lite/tensorflow/lite/kernels/internal/reference\pooling.h **** #include "tensorflow/lite/kernels/internal/types.h"
  22:C:/Renesas/e2studio_2021_01_workspace_RZA2M_ANPR/ANPR_RZA2M_RDK/src/tensorflow_lite/tensorflow/lite/kernels/internal/reference\pooling.h **** 
  23:C:/Renesas/e2studio_2021_01_workspace_RZA2M_ANPR/ANPR_RZA2M_RDK/src/tensorflow_lite/tensorflow/lite/kernels/internal/reference\pooling.h **** namespace tflite {
  24:C:/Renesas/e2studio_2021_01_workspace_RZA2M_ANPR/ANPR_RZA2M_RDK/src/tensorflow_lite/tensorflow/lite/kernels/internal/reference\pooling.h **** namespace reference_ops {
  25:C:/Renesas/e2studio_2021_01_workspace_RZA2M_ANPR/ANPR_RZA2M_RDK/src/tensorflow_lite/tensorflow/lite/kernels/internal/reference\pooling.h **** 
  26:C:/Renesas/e2studio_2021_01_workspace_RZA2M_ANPR/ANPR_RZA2M_RDK/src/tensorflow_lite/tensorflow/lite/kernels/internal/reference\pooling.h **** inline void AveragePool(const PoolParams& params,
  27:C:/Renesas/e2studio_2021_01_workspace_RZA2M_ANPR/ANPR_RZA2M_RDK/src/tensorflow_lite/tensorflow/lite/kernels/internal/reference\pooling.h ****                         const RuntimeShape& input_shape,
  28:C:/Renesas/e2studio_2021_01_workspace_RZA2M_ANPR/ANPR_RZA2M_RDK/src/tensorflow_lite/tensorflow/lite/kernels/internal/reference\pooling.h ****                         const float* input_data,
  29:C:/Renesas/e2studio_2021_01_workspace_RZA2M_ANPR/ANPR_RZA2M_RDK/src/tensorflow_lite/tensorflow/lite/kernels/internal/reference\pooling.h ****                         const RuntimeShape& output_shape, float* output_data) {
  30:C:/Renesas/e2studio_2021_01_workspace_RZA2M_ANPR/ANPR_RZA2M_RDK/src/tensorflow_lite/tensorflow/lite/kernels/internal/reference\pooling.h ****   TFLITE_DCHECK_EQ(input_shape.DimensionsCount(), 4);
 771              		.loc 5 30 0
 772 00fc 80309DE5 		ldr	r3, [sp, #128]
 773              	.LBE695:
 774              	.LBE694:
 775              	.LBB802:
 776              	.LBB803:
  56:C:/Renesas/e2studio_2021_01_workspace_RZA2M_ANPR/ANPR_RZA2M_RDK/src/tensorflow_lite/tensorflow/lite/micro/kernels\kernel_util.h **** }
 777              		.loc 4 56 0
 778 0100 000054E3 		cmp	r4, #0
 779 0104 00409415 		ldrne	r4, [r4]
 780              	.LVL86:
 781              	.LBE803:
 782              	.LBE802:
 783              	.LBB804:
 784              	.LBB794:
 785              		.loc 5 30 0
 786 0108 040053E3 		cmp	r3, #4
 787 010c 2F03001A 		bne	.L285
 788              	.LVL87:
  31:C:/Renesas/e2studio_2021_01_workspace_RZA2M_ANPR/ANPR_RZA2M_RDK/src/tensorflow_lite/tensorflow/lite/kernels/internal/reference\pooling.h ****   TFLITE_DCHECK_EQ(output_shape.DimensionsCount(), 4);
 789              		.loc 5 31 0
 790 0110 98309DE5 		ldr	r3, [sp, #152]
 791 0114 040053E3 		cmp	r3, #4
 792 0118 3503001A 		bne	.L286
 793              	.LVL88:
 794              	.LBB696:
 795              	.LBB697:
 796              	.LBB698:
 797              	.LBB699:
 798              		.file 6 "C:/Renesas/e2studio_2021_01_workspace_RZA2M_ANPR/ANPR_RZA2M_RDK/src/tensorflow_lite/tenso
   1:C:/Renesas/e2studio_2021_01_workspace_RZA2M_ANPR/ANPR_RZA2M_RDK/src/tensorflow_lite/tensorflow/lite/kernels/internal\types.h **** /* Copyright 2018 The TensorFlow Authors. All Rights Reserved.
   2:C:/Renesas/e2studio_2021_01_workspace_RZA2M_ANPR/ANPR_RZA2M_RDK/src/tensorflow_lite/tensorflow/lite/kernels/internal\types.h **** 
   3:C:/Renesas/e2studio_2021_01_workspace_RZA2M_ANPR/ANPR_RZA2M_RDK/src/tensorflow_lite/tensorflow/lite/kernels/internal\types.h **** Licensed under the Apache License, Version 2.0 (the "License");
   4:C:/Renesas/e2studio_2021_01_workspace_RZA2M_ANPR/ANPR_RZA2M_RDK/src/tensorflow_lite/tensorflow/lite/kernels/internal\types.h **** you may not use this file except in compliance with the License.
   5:C:/Renesas/e2studio_2021_01_workspace_RZA2M_ANPR/ANPR_RZA2M_RDK/src/tensorflow_lite/tensorflow/lite/kernels/internal\types.h **** You may obtain a copy of the License at
   6:C:/Renesas/e2studio_2021_01_workspace_RZA2M_ANPR/ANPR_RZA2M_RDK/src/tensorflow_lite/tensorflow/lite/kernels/internal\types.h **** 
   7:C:/Renesas/e2studio_2021_01_workspace_RZA2M_ANPR/ANPR_RZA2M_RDK/src/tensorflow_lite/tensorflow/lite/kernels/internal\types.h ****     http://www.apache.org/licenses/LICENSE-2.0
   8:C:/Renesas/e2studio_2021_01_workspace_RZA2M_ANPR/ANPR_RZA2M_RDK/src/tensorflow_lite/tensorflow/lite/kernels/internal\types.h **** 
   9:C:/Renesas/e2studio_2021_01_workspace_RZA2M_ANPR/ANPR_RZA2M_RDK/src/tensorflow_lite/tensorflow/lite/kernels/internal\types.h **** Unless required by applicable law or agreed to in writing, software
  10:C:/Renesas/e2studio_2021_01_workspace_RZA2M_ANPR/ANPR_RZA2M_RDK/src/tensorflow_lite/tensorflow/lite/kernels/internal\types.h **** distributed under the License is distributed on an "AS IS" BASIS,
  11:C:/Renesas/e2studio_2021_01_workspace_RZA2M_ANPR/ANPR_RZA2M_RDK/src/tensorflow_lite/tensorflow/lite/kernels/internal\types.h **** WITHOUT WARRANTIES OR CONDITIONS OF ANY KIND, either express or implied.
  12:C:/Renesas/e2studio_2021_01_workspace_RZA2M_ANPR/ANPR_RZA2M_RDK/src/tensorflow_lite/tensorflow/lite/kernels/internal\types.h **** See the License for the specific language governing permissions and
  13:C:/Renesas/e2studio_2021_01_workspace_RZA2M_ANPR/ANPR_RZA2M_RDK/src/tensorflow_lite/tensorflow/lite/kernels/internal\types.h **** limitations under the License.
  14:C:/Renesas/e2studio_2021_01_workspace_RZA2M_ANPR/ANPR_RZA2M_RDK/src/tensorflow_lite/tensorflow/lite/kernels/internal\types.h **** ==============================================================================*/
  15:C:/Renesas/e2studio_2021_01_workspace_RZA2M_ANPR/ANPR_RZA2M_RDK/src/tensorflow_lite/tensorflow/lite/kernels/internal\types.h **** #ifndef TENSORFLOW_LITE_KERNELS_INTERNAL_TYPES_H_
  16:C:/Renesas/e2studio_2021_01_workspace_RZA2M_ANPR/ANPR_RZA2M_RDK/src/tensorflow_lite/tensorflow/lite/kernels/internal\types.h **** #define TENSORFLOW_LITE_KERNELS_INTERNAL_TYPES_H_
  17:C:/Renesas/e2studio_2021_01_workspace_RZA2M_ANPR/ANPR_RZA2M_RDK/src/tensorflow_lite/tensorflow/lite/kernels/internal\types.h **** 
  18:C:/Renesas/e2studio_2021_01_workspace_RZA2M_ANPR/ANPR_RZA2M_RDK/src/tensorflow_lite/tensorflow/lite/kernels/internal\types.h **** #include <algorithm>
  19:C:/Renesas/e2studio_2021_01_workspace_RZA2M_ANPR/ANPR_RZA2M_RDK/src/tensorflow_lite/tensorflow/lite/kernels/internal\types.h **** #include <cstdint>
  20:C:/Renesas/e2studio_2021_01_workspace_RZA2M_ANPR/ANPR_RZA2M_RDK/src/tensorflow_lite/tensorflow/lite/kernels/internal\types.h **** #include <cstring>
  21:C:/Renesas/e2studio_2021_01_workspace_RZA2M_ANPR/ANPR_RZA2M_RDK/src/tensorflow_lite/tensorflow/lite/kernels/internal\types.h **** #include <initializer_list>
  22:C:/Renesas/e2studio_2021_01_workspace_RZA2M_ANPR/ANPR_RZA2M_RDK/src/tensorflow_lite/tensorflow/lite/kernels/internal\types.h **** 
  23:C:/Renesas/e2studio_2021_01_workspace_RZA2M_ANPR/ANPR_RZA2M_RDK/src/tensorflow_lite/tensorflow/lite/kernels/internal\types.h **** #include "tensorflow/lite/kernels/internal/compatibility.h"
  24:C:/Renesas/e2studio_2021_01_workspace_RZA2M_ANPR/ANPR_RZA2M_RDK/src/tensorflow_lite/tensorflow/lite/kernels/internal\types.h **** 
  25:C:/Renesas/e2studio_2021_01_workspace_RZA2M_ANPR/ANPR_RZA2M_RDK/src/tensorflow_lite/tensorflow/lite/kernels/internal\types.h **** namespace tflite {
  26:C:/Renesas/e2studio_2021_01_workspace_RZA2M_ANPR/ANPR_RZA2M_RDK/src/tensorflow_lite/tensorflow/lite/kernels/internal\types.h **** 
  27:C:/Renesas/e2studio_2021_01_workspace_RZA2M_ANPR/ANPR_RZA2M_RDK/src/tensorflow_lite/tensorflow/lite/kernels/internal\types.h **** enum class FusedActivationFunctionType : uint8_t {
  28:C:/Renesas/e2studio_2021_01_workspace_RZA2M_ANPR/ANPR_RZA2M_RDK/src/tensorflow_lite/tensorflow/lite/kernels/internal\types.h ****   kNone,
  29:C:/Renesas/e2studio_2021_01_workspace_RZA2M_ANPR/ANPR_RZA2M_RDK/src/tensorflow_lite/tensorflow/lite/kernels/internal\types.h ****   kRelu6,
  30:C:/Renesas/e2studio_2021_01_workspace_RZA2M_ANPR/ANPR_RZA2M_RDK/src/tensorflow_lite/tensorflow/lite/kernels/internal\types.h ****   kRelu1,
  31:C:/Renesas/e2studio_2021_01_workspace_RZA2M_ANPR/ANPR_RZA2M_RDK/src/tensorflow_lite/tensorflow/lite/kernels/internal\types.h ****   kRelu
  32:C:/Renesas/e2studio_2021_01_workspace_RZA2M_ANPR/ANPR_RZA2M_RDK/src/tensorflow_lite/tensorflow/lite/kernels/internal\types.h **** };
  33:C:/Renesas/e2studio_2021_01_workspace_RZA2M_ANPR/ANPR_RZA2M_RDK/src/tensorflow_lite/tensorflow/lite/kernels/internal\types.h **** enum class PaddingType : uint8_t { kNone, kSame, kValid };
  34:C:/Renesas/e2studio_2021_01_workspace_RZA2M_ANPR/ANPR_RZA2M_RDK/src/tensorflow_lite/tensorflow/lite/kernels/internal\types.h **** 
  35:C:/Renesas/e2studio_2021_01_workspace_RZA2M_ANPR/ANPR_RZA2M_RDK/src/tensorflow_lite/tensorflow/lite/kernels/internal\types.h **** struct PaddingValues {
  36:C:/Renesas/e2studio_2021_01_workspace_RZA2M_ANPR/ANPR_RZA2M_RDK/src/tensorflow_lite/tensorflow/lite/kernels/internal\types.h ****   int16_t width;
  37:C:/Renesas/e2studio_2021_01_workspace_RZA2M_ANPR/ANPR_RZA2M_RDK/src/tensorflow_lite/tensorflow/lite/kernels/internal\types.h ****   int16_t height;
  38:C:/Renesas/e2studio_2021_01_workspace_RZA2M_ANPR/ANPR_RZA2M_RDK/src/tensorflow_lite/tensorflow/lite/kernels/internal\types.h ****   // offset is used for calculating "remaining" padding, for example, `width`
  39:C:/Renesas/e2studio_2021_01_workspace_RZA2M_ANPR/ANPR_RZA2M_RDK/src/tensorflow_lite/tensorflow/lite/kernels/internal\types.h ****   // is 1 and `width_offset` is 1, so padding_left is 1 while padding_right is
  40:C:/Renesas/e2studio_2021_01_workspace_RZA2M_ANPR/ANPR_RZA2M_RDK/src/tensorflow_lite/tensorflow/lite/kernels/internal\types.h ****   // 1 + 1 = 2.
  41:C:/Renesas/e2studio_2021_01_workspace_RZA2M_ANPR/ANPR_RZA2M_RDK/src/tensorflow_lite/tensorflow/lite/kernels/internal\types.h ****   int16_t width_offset;
  42:C:/Renesas/e2studio_2021_01_workspace_RZA2M_ANPR/ANPR_RZA2M_RDK/src/tensorflow_lite/tensorflow/lite/kernels/internal\types.h ****   // Same as width_offset except it's over the height dimension.
  43:C:/Renesas/e2studio_2021_01_workspace_RZA2M_ANPR/ANPR_RZA2M_RDK/src/tensorflow_lite/tensorflow/lite/kernels/internal\types.h ****   int16_t height_offset;
  44:C:/Renesas/e2studio_2021_01_workspace_RZA2M_ANPR/ANPR_RZA2M_RDK/src/tensorflow_lite/tensorflow/lite/kernels/internal\types.h **** };
  45:C:/Renesas/e2studio_2021_01_workspace_RZA2M_ANPR/ANPR_RZA2M_RDK/src/tensorflow_lite/tensorflow/lite/kernels/internal\types.h **** 
  46:C:/Renesas/e2studio_2021_01_workspace_RZA2M_ANPR/ANPR_RZA2M_RDK/src/tensorflow_lite/tensorflow/lite/kernels/internal\types.h **** struct Padding3DValues {
  47:C:/Renesas/e2studio_2021_01_workspace_RZA2M_ANPR/ANPR_RZA2M_RDK/src/tensorflow_lite/tensorflow/lite/kernels/internal\types.h ****   int16_t width;
  48:C:/Renesas/e2studio_2021_01_workspace_RZA2M_ANPR/ANPR_RZA2M_RDK/src/tensorflow_lite/tensorflow/lite/kernels/internal\types.h ****   int16_t height;
  49:C:/Renesas/e2studio_2021_01_workspace_RZA2M_ANPR/ANPR_RZA2M_RDK/src/tensorflow_lite/tensorflow/lite/kernels/internal\types.h ****   int16_t depth;
  50:C:/Renesas/e2studio_2021_01_workspace_RZA2M_ANPR/ANPR_RZA2M_RDK/src/tensorflow_lite/tensorflow/lite/kernels/internal\types.h ****   // offset is used for calculating "remaining" padding, for example, `width`
  51:C:/Renesas/e2studio_2021_01_workspace_RZA2M_ANPR/ANPR_RZA2M_RDK/src/tensorflow_lite/tensorflow/lite/kernels/internal\types.h ****   // is 1 and `width_offset` is 1, so padding_left is 1 while padding_right is
  52:C:/Renesas/e2studio_2021_01_workspace_RZA2M_ANPR/ANPR_RZA2M_RDK/src/tensorflow_lite/tensorflow/lite/kernels/internal\types.h ****   // 1 + 1 = 2.
  53:C:/Renesas/e2studio_2021_01_workspace_RZA2M_ANPR/ANPR_RZA2M_RDK/src/tensorflow_lite/tensorflow/lite/kernels/internal\types.h ****   int16_t width_offset;
  54:C:/Renesas/e2studio_2021_01_workspace_RZA2M_ANPR/ANPR_RZA2M_RDK/src/tensorflow_lite/tensorflow/lite/kernels/internal\types.h ****   // Same as width_offset except it's over the height dimension.
  55:C:/Renesas/e2studio_2021_01_workspace_RZA2M_ANPR/ANPR_RZA2M_RDK/src/tensorflow_lite/tensorflow/lite/kernels/internal\types.h ****   int16_t height_offset;
  56:C:/Renesas/e2studio_2021_01_workspace_RZA2M_ANPR/ANPR_RZA2M_RDK/src/tensorflow_lite/tensorflow/lite/kernels/internal\types.h ****   // Same as width_offset except it's over the depth dimension.
  57:C:/Renesas/e2studio_2021_01_workspace_RZA2M_ANPR/ANPR_RZA2M_RDK/src/tensorflow_lite/tensorflow/lite/kernels/internal\types.h ****   int16_t depth_offset;
  58:C:/Renesas/e2studio_2021_01_workspace_RZA2M_ANPR/ANPR_RZA2M_RDK/src/tensorflow_lite/tensorflow/lite/kernels/internal\types.h **** };
  59:C:/Renesas/e2studio_2021_01_workspace_RZA2M_ANPR/ANPR_RZA2M_RDK/src/tensorflow_lite/tensorflow/lite/kernels/internal\types.h **** 
  60:C:/Renesas/e2studio_2021_01_workspace_RZA2M_ANPR/ANPR_RZA2M_RDK/src/tensorflow_lite/tensorflow/lite/kernels/internal\types.h **** // This enumeration allows for non-default formats for the weights array
  61:C:/Renesas/e2studio_2021_01_workspace_RZA2M_ANPR/ANPR_RZA2M_RDK/src/tensorflow_lite/tensorflow/lite/kernels/internal\types.h **** // of a fully-connected operator, allowing the use of special optimized
  62:C:/Renesas/e2studio_2021_01_workspace_RZA2M_ANPR/ANPR_RZA2M_RDK/src/tensorflow_lite/tensorflow/lite/kernels/internal\types.h **** // runtime paths.
  63:C:/Renesas/e2studio_2021_01_workspace_RZA2M_ANPR/ANPR_RZA2M_RDK/src/tensorflow_lite/tensorflow/lite/kernels/internal\types.h **** enum class FullyConnectedWeightsFormat : uint8_t {
  64:C:/Renesas/e2studio_2021_01_workspace_RZA2M_ANPR/ANPR_RZA2M_RDK/src/tensorflow_lite/tensorflow/lite/kernels/internal\types.h ****   // Default format (flat 2D layout, the inner contiguous dimension
  65:C:/Renesas/e2studio_2021_01_workspace_RZA2M_ANPR/ANPR_RZA2M_RDK/src/tensorflow_lite/tensorflow/lite/kernels/internal\types.h ****   // is input_depth, the outer non-contiguous dimension is output_depth)
  66:C:/Renesas/e2studio_2021_01_workspace_RZA2M_ANPR/ANPR_RZA2M_RDK/src/tensorflow_lite/tensorflow/lite/kernels/internal\types.h ****   kDefault,
  67:C:/Renesas/e2studio_2021_01_workspace_RZA2M_ANPR/ANPR_RZA2M_RDK/src/tensorflow_lite/tensorflow/lite/kernels/internal\types.h ****   // Summary: optimized layout for fast CPU runtime implementation,
  68:C:/Renesas/e2studio_2021_01_workspace_RZA2M_ANPR/ANPR_RZA2M_RDK/src/tensorflow_lite/tensorflow/lite/kernels/internal\types.h ****   // aimed specifically at ARM CPUs at the moment, and specialized for
  69:C:/Renesas/e2studio_2021_01_workspace_RZA2M_ANPR/ANPR_RZA2M_RDK/src/tensorflow_lite/tensorflow/lite/kernels/internal\types.h ****   // 8-bit quantized layers.
  70:C:/Renesas/e2studio_2021_01_workspace_RZA2M_ANPR/ANPR_RZA2M_RDK/src/tensorflow_lite/tensorflow/lite/kernels/internal\types.h ****   //
  71:C:/Renesas/e2studio_2021_01_workspace_RZA2M_ANPR/ANPR_RZA2M_RDK/src/tensorflow_lite/tensorflow/lite/kernels/internal\types.h ****   // The use case we're concerned with here is: 8-bit quantization,
  72:C:/Renesas/e2studio_2021_01_workspace_RZA2M_ANPR/ANPR_RZA2M_RDK/src/tensorflow_lite/tensorflow/lite/kernels/internal\types.h ****   // large weights matrix that doesn't fit in cache (e.g. 4096x2048 in
  73:C:/Renesas/e2studio_2021_01_workspace_RZA2M_ANPR/ANPR_RZA2M_RDK/src/tensorflow_lite/tensorflow/lite/kernels/internal\types.h ****   // a key application that drove this), very small batch size (e.g. 1 -- 4).
  74:C:/Renesas/e2studio_2021_01_workspace_RZA2M_ANPR/ANPR_RZA2M_RDK/src/tensorflow_lite/tensorflow/lite/kernels/internal\types.h ****   //
  75:C:/Renesas/e2studio_2021_01_workspace_RZA2M_ANPR/ANPR_RZA2M_RDK/src/tensorflow_lite/tensorflow/lite/kernels/internal\types.h ****   // Even with 8-bit quantization of weights, the performance of memory
  76:C:/Renesas/e2studio_2021_01_workspace_RZA2M_ANPR/ANPR_RZA2M_RDK/src/tensorflow_lite/tensorflow/lite/kernels/internal\types.h ****   // accesses to the weights can become the dominant issue when
  77:C:/Renesas/e2studio_2021_01_workspace_RZA2M_ANPR/ANPR_RZA2M_RDK/src/tensorflow_lite/tensorflow/lite/kernels/internal\types.h ****   // the batch size is small, so each weight value is used in only a few
  78:C:/Renesas/e2studio_2021_01_workspace_RZA2M_ANPR/ANPR_RZA2M_RDK/src/tensorflow_lite/tensorflow/lite/kernels/internal\types.h ****   // arithmetic ops, i.e. the fully-connected node has a low arithmetic
  79:C:/Renesas/e2studio_2021_01_workspace_RZA2M_ANPR/ANPR_RZA2M_RDK/src/tensorflow_lite/tensorflow/lite/kernels/internal\types.h ****   // intensity. The specific issues that arise are of three kinds:
  80:C:/Renesas/e2studio_2021_01_workspace_RZA2M_ANPR/ANPR_RZA2M_RDK/src/tensorflow_lite/tensorflow/lite/kernels/internal\types.h ****   // (1) One may, ideally, max out DRAM bandwidth, i.e. be truly memory
  81:C:/Renesas/e2studio_2021_01_workspace_RZA2M_ANPR/ANPR_RZA2M_RDK/src/tensorflow_lite/tensorflow/lite/kernels/internal\types.h ****   //     bound. That's the "good" issue to run into.
  82:C:/Renesas/e2studio_2021_01_workspace_RZA2M_ANPR/ANPR_RZA2M_RDK/src/tensorflow_lite/tensorflow/lite/kernels/internal\types.h ****   // (2) One may run into sub-optimal pre-fetching: the data hasn't been
  83:C:/Renesas/e2studio_2021_01_workspace_RZA2M_ANPR/ANPR_RZA2M_RDK/src/tensorflow_lite/tensorflow/lite/kernels/internal\types.h ****   //     prefetched into the cache by the time we need it.
  84:C:/Renesas/e2studio_2021_01_workspace_RZA2M_ANPR/ANPR_RZA2M_RDK/src/tensorflow_lite/tensorflow/lite/kernels/internal\types.h ****   // (3) One may run into cache aliasing: multiple values that are
  85:C:/Renesas/e2studio_2021_01_workspace_RZA2M_ANPR/ANPR_RZA2M_RDK/src/tensorflow_lite/tensorflow/lite/kernels/internal\types.h ****   //     pre-fetched, alias each other in the L1 cache (which typically
  86:C:/Renesas/e2studio_2021_01_workspace_RZA2M_ANPR/ANPR_RZA2M_RDK/src/tensorflow_lite/tensorflow/lite/kernels/internal\types.h ****   //     has only 4-way set associativity in ARM CPUs) and thus evict
  87:C:/Renesas/e2studio_2021_01_workspace_RZA2M_ANPR/ANPR_RZA2M_RDK/src/tensorflow_lite/tensorflow/lite/kernels/internal\types.h ****   //     each other before we get to using them.
  88:C:/Renesas/e2studio_2021_01_workspace_RZA2M_ANPR/ANPR_RZA2M_RDK/src/tensorflow_lite/tensorflow/lite/kernels/internal\types.h ****   //
  89:C:/Renesas/e2studio_2021_01_workspace_RZA2M_ANPR/ANPR_RZA2M_RDK/src/tensorflow_lite/tensorflow/lite/kernels/internal\types.h ****   // The point of this shuffling is to avoid issues (2) and (3) so that
  90:C:/Renesas/e2studio_2021_01_workspace_RZA2M_ANPR/ANPR_RZA2M_RDK/src/tensorflow_lite/tensorflow/lite/kernels/internal\types.h ****   // we get as fast as possible given only the hard constraint (1).
  91:C:/Renesas/e2studio_2021_01_workspace_RZA2M_ANPR/ANPR_RZA2M_RDK/src/tensorflow_lite/tensorflow/lite/kernels/internal\types.h ****   // This is achieved by turning the difficulty into a solution: the
  92:C:/Renesas/e2studio_2021_01_workspace_RZA2M_ANPR/ANPR_RZA2M_RDK/src/tensorflow_lite/tensorflow/lite/kernels/internal\types.h ****   // difficulty, that each value loaded from memory is used only in
  93:C:/Renesas/e2studio_2021_01_workspace_RZA2M_ANPR/ANPR_RZA2M_RDK/src/tensorflow_lite/tensorflow/lite/kernels/internal\types.h ****   // one kernel iteration, making this operation memory-intensive, hints at
  94:C:/Renesas/e2studio_2021_01_workspace_RZA2M_ANPR/ANPR_RZA2M_RDK/src/tensorflow_lite/tensorflow/lite/kernels/internal\types.h ****   // the solution, of shuffling the weights so that they are stored in the
  95:C:/Renesas/e2studio_2021_01_workspace_RZA2M_ANPR/ANPR_RZA2M_RDK/src/tensorflow_lite/tensorflow/lite/kernels/internal\types.h ****   // exact order as the kernel needs to load them, so that the memory
  96:C:/Renesas/e2studio_2021_01_workspace_RZA2M_ANPR/ANPR_RZA2M_RDK/src/tensorflow_lite/tensorflow/lite/kernels/internal\types.h ****   // accesses made by the kernel are trivial. This solves (2) because the
  97:C:/Renesas/e2studio_2021_01_workspace_RZA2M_ANPR/ANPR_RZA2M_RDK/src/tensorflow_lite/tensorflow/lite/kernels/internal\types.h ****   // trivial memory access pattern allows the CPU's automatic prefetching
  98:C:/Renesas/e2studio_2021_01_workspace_RZA2M_ANPR/ANPR_RZA2M_RDK/src/tensorflow_lite/tensorflow/lite/kernels/internal\types.h ****   // to perform very well (no need even for preload instructions), and this
  99:C:/Renesas/e2studio_2021_01_workspace_RZA2M_ANPR/ANPR_RZA2M_RDK/src/tensorflow_lite/tensorflow/lite/kernels/internal\types.h ****   // solves (3) because the values being loaded concurrently are now
 100:C:/Renesas/e2studio_2021_01_workspace_RZA2M_ANPR/ANPR_RZA2M_RDK/src/tensorflow_lite/tensorflow/lite/kernels/internal\types.h ****   // contiguous in the address space, thus don't alias each other in the cache.
 101:C:/Renesas/e2studio_2021_01_workspace_RZA2M_ANPR/ANPR_RZA2M_RDK/src/tensorflow_lite/tensorflow/lite/kernels/internal\types.h ****   //
 102:C:/Renesas/e2studio_2021_01_workspace_RZA2M_ANPR/ANPR_RZA2M_RDK/src/tensorflow_lite/tensorflow/lite/kernels/internal\types.h ****   // On ARM, we typically want our kernel to process a 4x16 block of weights
 103:C:/Renesas/e2studio_2021_01_workspace_RZA2M_ANPR/ANPR_RZA2M_RDK/src/tensorflow_lite/tensorflow/lite/kernels/internal\types.h ****   // at a time, because:
 104:C:/Renesas/e2studio_2021_01_workspace_RZA2M_ANPR/ANPR_RZA2M_RDK/src/tensorflow_lite/tensorflow/lite/kernels/internal\types.h ****   //   - 16 is the number of bytes in a NEON register.
 105:C:/Renesas/e2studio_2021_01_workspace_RZA2M_ANPR/ANPR_RZA2M_RDK/src/tensorflow_lite/tensorflow/lite/kernels/internal\types.h ****   //   - 4 is how many rows we need to handle concurrently in the kernel in
 106:C:/Renesas/e2studio_2021_01_workspace_RZA2M_ANPR/ANPR_RZA2M_RDK/src/tensorflow_lite/tensorflow/lite/kernels/internal\types.h ****   //     order to have sufficient mutual independence of instructions to
 107:C:/Renesas/e2studio_2021_01_workspace_RZA2M_ANPR/ANPR_RZA2M_RDK/src/tensorflow_lite/tensorflow/lite/kernels/internal\types.h ****   //     maximize arithmetic throughput.
 108:C:/Renesas/e2studio_2021_01_workspace_RZA2M_ANPR/ANPR_RZA2M_RDK/src/tensorflow_lite/tensorflow/lite/kernels/internal\types.h ****   //
 109:C:/Renesas/e2studio_2021_01_workspace_RZA2M_ANPR/ANPR_RZA2M_RDK/src/tensorflow_lite/tensorflow/lite/kernels/internal\types.h ****   // Finally, the 'Int8' part in the name refers to the fact that this
 110:C:/Renesas/e2studio_2021_01_workspace_RZA2M_ANPR/ANPR_RZA2M_RDK/src/tensorflow_lite/tensorflow/lite/kernels/internal\types.h ****   // weights format has each weights value encoded as a signed int8_t value,
 111:C:/Renesas/e2studio_2021_01_workspace_RZA2M_ANPR/ANPR_RZA2M_RDK/src/tensorflow_lite/tensorflow/lite/kernels/internal\types.h ****   // even if the data type of the weights buffer is uint8_t.  This is intended
 112:C:/Renesas/e2studio_2021_01_workspace_RZA2M_ANPR/ANPR_RZA2M_RDK/src/tensorflow_lite/tensorflow/lite/kernels/internal\types.h ****   // to save runtime kernels the effort to have to XOR the top bit of these
 113:C:/Renesas/e2studio_2021_01_workspace_RZA2M_ANPR/ANPR_RZA2M_RDK/src/tensorflow_lite/tensorflow/lite/kernels/internal\types.h ****   // bytes before using them in signed arithmetic, see this file for more
 114:C:/Renesas/e2studio_2021_01_workspace_RZA2M_ANPR/ANPR_RZA2M_RDK/src/tensorflow_lite/tensorflow/lite/kernels/internal\types.h ****   // explanations on the 'signed int8_t trick' in matrix multiplication kernels:
 115:C:/Renesas/e2studio_2021_01_workspace_RZA2M_ANPR/ANPR_RZA2M_RDK/src/tensorflow_lite/tensorflow/lite/kernels/internal\types.h ****   //
 116:C:/Renesas/e2studio_2021_01_workspace_RZA2M_ANPR/ANPR_RZA2M_RDK/src/tensorflow_lite/tensorflow/lite/kernels/internal\types.h ****   //   tensorflow/lite/toco/graph_transformations/ensure_uint8_weights_safe_for_fast_int8_kernels.c
 117:C:/Renesas/e2studio_2021_01_workspace_RZA2M_ANPR/ANPR_RZA2M_RDK/src/tensorflow_lite/tensorflow/lite/kernels/internal\types.h ****   //
 118:C:/Renesas/e2studio_2021_01_workspace_RZA2M_ANPR/ANPR_RZA2M_RDK/src/tensorflow_lite/tensorflow/lite/kernels/internal\types.h ****   kShuffled4x16Int8,
 119:C:/Renesas/e2studio_2021_01_workspace_RZA2M_ANPR/ANPR_RZA2M_RDK/src/tensorflow_lite/tensorflow/lite/kernels/internal\types.h **** };
 120:C:/Renesas/e2studio_2021_01_workspace_RZA2M_ANPR/ANPR_RZA2M_RDK/src/tensorflow_lite/tensorflow/lite/kernels/internal\types.h **** 
 121:C:/Renesas/e2studio_2021_01_workspace_RZA2M_ANPR/ANPR_RZA2M_RDK/src/tensorflow_lite/tensorflow/lite/kernels/internal\types.h **** // Quantization parameters, determining the mapping of quantized values
 122:C:/Renesas/e2studio_2021_01_workspace_RZA2M_ANPR/ANPR_RZA2M_RDK/src/tensorflow_lite/tensorflow/lite/kernels/internal\types.h **** // to real values (i.e. determining how quantized values are mathematically
 123:C:/Renesas/e2studio_2021_01_workspace_RZA2M_ANPR/ANPR_RZA2M_RDK/src/tensorflow_lite/tensorflow/lite/kernels/internal\types.h **** // interpreted).
 124:C:/Renesas/e2studio_2021_01_workspace_RZA2M_ANPR/ANPR_RZA2M_RDK/src/tensorflow_lite/tensorflow/lite/kernels/internal\types.h **** //
 125:C:/Renesas/e2studio_2021_01_workspace_RZA2M_ANPR/ANPR_RZA2M_RDK/src/tensorflow_lite/tensorflow/lite/kernels/internal\types.h **** // The correspondence is as follows:
 126:C:/Renesas/e2studio_2021_01_workspace_RZA2M_ANPR/ANPR_RZA2M_RDK/src/tensorflow_lite/tensorflow/lite/kernels/internal\types.h **** //
 127:C:/Renesas/e2studio_2021_01_workspace_RZA2M_ANPR/ANPR_RZA2M_RDK/src/tensorflow_lite/tensorflow/lite/kernels/internal\types.h **** //   real_value = scale * (quantized_value - zero_point);
 128:C:/Renesas/e2studio_2021_01_workspace_RZA2M_ANPR/ANPR_RZA2M_RDK/src/tensorflow_lite/tensorflow/lite/kernels/internal\types.h **** //
 129:C:/Renesas/e2studio_2021_01_workspace_RZA2M_ANPR/ANPR_RZA2M_RDK/src/tensorflow_lite/tensorflow/lite/kernels/internal\types.h **** // In other words, zero_point designates which quantized value corresponds to
 130:C:/Renesas/e2studio_2021_01_workspace_RZA2M_ANPR/ANPR_RZA2M_RDK/src/tensorflow_lite/tensorflow/lite/kernels/internal\types.h **** // the real 0 value, and scale designates the difference between the real values
 131:C:/Renesas/e2studio_2021_01_workspace_RZA2M_ANPR/ANPR_RZA2M_RDK/src/tensorflow_lite/tensorflow/lite/kernels/internal\types.h **** // corresponding to consecutive quantized values differing by 1.
 132:C:/Renesas/e2studio_2021_01_workspace_RZA2M_ANPR/ANPR_RZA2M_RDK/src/tensorflow_lite/tensorflow/lite/kernels/internal\types.h **** struct QuantizationParams {
 133:C:/Renesas/e2studio_2021_01_workspace_RZA2M_ANPR/ANPR_RZA2M_RDK/src/tensorflow_lite/tensorflow/lite/kernels/internal\types.h ****   int32_t zero_point = 0;
 134:C:/Renesas/e2studio_2021_01_workspace_RZA2M_ANPR/ANPR_RZA2M_RDK/src/tensorflow_lite/tensorflow/lite/kernels/internal\types.h ****   double scale = 0.0;
 135:C:/Renesas/e2studio_2021_01_workspace_RZA2M_ANPR/ANPR_RZA2M_RDK/src/tensorflow_lite/tensorflow/lite/kernels/internal\types.h **** };
 136:C:/Renesas/e2studio_2021_01_workspace_RZA2M_ANPR/ANPR_RZA2M_RDK/src/tensorflow_lite/tensorflow/lite/kernels/internal\types.h **** 
 137:C:/Renesas/e2studio_2021_01_workspace_RZA2M_ANPR/ANPR_RZA2M_RDK/src/tensorflow_lite/tensorflow/lite/kernels/internal\types.h **** inline bool operator==(const QuantizationParams& qp1,
 138:C:/Renesas/e2studio_2021_01_workspace_RZA2M_ANPR/ANPR_RZA2M_RDK/src/tensorflow_lite/tensorflow/lite/kernels/internal\types.h ****                        const QuantizationParams& qp2) {
 139:C:/Renesas/e2studio_2021_01_workspace_RZA2M_ANPR/ANPR_RZA2M_RDK/src/tensorflow_lite/tensorflow/lite/kernels/internal\types.h ****   return qp1.zero_point == qp2.zero_point && qp1.scale == qp2.scale;
 140:C:/Renesas/e2studio_2021_01_workspace_RZA2M_ANPR/ANPR_RZA2M_RDK/src/tensorflow_lite/tensorflow/lite/kernels/internal\types.h **** }
 141:C:/Renesas/e2studio_2021_01_workspace_RZA2M_ANPR/ANPR_RZA2M_RDK/src/tensorflow_lite/tensorflow/lite/kernels/internal\types.h **** 
 142:C:/Renesas/e2studio_2021_01_workspace_RZA2M_ANPR/ANPR_RZA2M_RDK/src/tensorflow_lite/tensorflow/lite/kernels/internal\types.h **** template <int N>
 143:C:/Renesas/e2studio_2021_01_workspace_RZA2M_ANPR/ANPR_RZA2M_RDK/src/tensorflow_lite/tensorflow/lite/kernels/internal\types.h **** struct Dims {
 144:C:/Renesas/e2studio_2021_01_workspace_RZA2M_ANPR/ANPR_RZA2M_RDK/src/tensorflow_lite/tensorflow/lite/kernels/internal\types.h ****   int sizes[N];
 145:C:/Renesas/e2studio_2021_01_workspace_RZA2M_ANPR/ANPR_RZA2M_RDK/src/tensorflow_lite/tensorflow/lite/kernels/internal\types.h ****   int strides[N];
 146:C:/Renesas/e2studio_2021_01_workspace_RZA2M_ANPR/ANPR_RZA2M_RDK/src/tensorflow_lite/tensorflow/lite/kernels/internal\types.h **** };
 147:C:/Renesas/e2studio_2021_01_workspace_RZA2M_ANPR/ANPR_RZA2M_RDK/src/tensorflow_lite/tensorflow/lite/kernels/internal\types.h **** 
 148:C:/Renesas/e2studio_2021_01_workspace_RZA2M_ANPR/ANPR_RZA2M_RDK/src/tensorflow_lite/tensorflow/lite/kernels/internal\types.h **** class RuntimeShape {
 149:C:/Renesas/e2studio_2021_01_workspace_RZA2M_ANPR/ANPR_RZA2M_RDK/src/tensorflow_lite/tensorflow/lite/kernels/internal\types.h ****  public:
 150:C:/Renesas/e2studio_2021_01_workspace_RZA2M_ANPR/ANPR_RZA2M_RDK/src/tensorflow_lite/tensorflow/lite/kernels/internal\types.h ****   // Shapes with dimensions up to 5 are stored directly in the structure, while
 151:C:/Renesas/e2studio_2021_01_workspace_RZA2M_ANPR/ANPR_RZA2M_RDK/src/tensorflow_lite/tensorflow/lite/kernels/internal\types.h ****   // larger shapes are separately allocated.
 152:C:/Renesas/e2studio_2021_01_workspace_RZA2M_ANPR/ANPR_RZA2M_RDK/src/tensorflow_lite/tensorflow/lite/kernels/internal\types.h ****   static constexpr int kMaxSmallSize = 5;
 153:C:/Renesas/e2studio_2021_01_workspace_RZA2M_ANPR/ANPR_RZA2M_RDK/src/tensorflow_lite/tensorflow/lite/kernels/internal\types.h **** 
 154:C:/Renesas/e2studio_2021_01_workspace_RZA2M_ANPR/ANPR_RZA2M_RDK/src/tensorflow_lite/tensorflow/lite/kernels/internal\types.h ****   RuntimeShape& operator=(RuntimeShape const&) = delete;
 155:C:/Renesas/e2studio_2021_01_workspace_RZA2M_ANPR/ANPR_RZA2M_RDK/src/tensorflow_lite/tensorflow/lite/kernels/internal\types.h **** 
 156:C:/Renesas/e2studio_2021_01_workspace_RZA2M_ANPR/ANPR_RZA2M_RDK/src/tensorflow_lite/tensorflow/lite/kernels/internal\types.h ****   RuntimeShape() : size_(0) {}
 157:C:/Renesas/e2studio_2021_01_workspace_RZA2M_ANPR/ANPR_RZA2M_RDK/src/tensorflow_lite/tensorflow/lite/kernels/internal\types.h **** 
 158:C:/Renesas/e2studio_2021_01_workspace_RZA2M_ANPR/ANPR_RZA2M_RDK/src/tensorflow_lite/tensorflow/lite/kernels/internal\types.h ****   explicit RuntimeShape(int dimensions_count) : size_(dimensions_count) {
 159:C:/Renesas/e2studio_2021_01_workspace_RZA2M_ANPR/ANPR_RZA2M_RDK/src/tensorflow_lite/tensorflow/lite/kernels/internal\types.h ****     if (dimensions_count > kMaxSmallSize) {
 160:C:/Renesas/e2studio_2021_01_workspace_RZA2M_ANPR/ANPR_RZA2M_RDK/src/tensorflow_lite/tensorflow/lite/kernels/internal\types.h **** #ifdef TF_LITE_STATIC_MEMORY
 161:C:/Renesas/e2studio_2021_01_workspace_RZA2M_ANPR/ANPR_RZA2M_RDK/src/tensorflow_lite/tensorflow/lite/kernels/internal\types.h ****       TFLITE_CHECK(false && "No shape resizing supported on this platform");
 162:C:/Renesas/e2studio_2021_01_workspace_RZA2M_ANPR/ANPR_RZA2M_RDK/src/tensorflow_lite/tensorflow/lite/kernels/internal\types.h **** #else  // TF_LITE_STATIC_MEMORY
 163:C:/Renesas/e2studio_2021_01_workspace_RZA2M_ANPR/ANPR_RZA2M_RDK/src/tensorflow_lite/tensorflow/lite/kernels/internal\types.h ****       dims_pointer_ = new int32_t[dimensions_count];
 164:C:/Renesas/e2studio_2021_01_workspace_RZA2M_ANPR/ANPR_RZA2M_RDK/src/tensorflow_lite/tensorflow/lite/kernels/internal\types.h **** #endif  // TF_LITE_STATIC_MEMORY
 165:C:/Renesas/e2studio_2021_01_workspace_RZA2M_ANPR/ANPR_RZA2M_RDK/src/tensorflow_lite/tensorflow/lite/kernels/internal\types.h ****     }
 166:C:/Renesas/e2studio_2021_01_workspace_RZA2M_ANPR/ANPR_RZA2M_RDK/src/tensorflow_lite/tensorflow/lite/kernels/internal\types.h ****   }
 167:C:/Renesas/e2studio_2021_01_workspace_RZA2M_ANPR/ANPR_RZA2M_RDK/src/tensorflow_lite/tensorflow/lite/kernels/internal\types.h **** 
 168:C:/Renesas/e2studio_2021_01_workspace_RZA2M_ANPR/ANPR_RZA2M_RDK/src/tensorflow_lite/tensorflow/lite/kernels/internal\types.h ****   RuntimeShape(int shape_size, int32_t value) : size_(0) {
 169:C:/Renesas/e2studio_2021_01_workspace_RZA2M_ANPR/ANPR_RZA2M_RDK/src/tensorflow_lite/tensorflow/lite/kernels/internal\types.h ****     Resize(shape_size);
 170:C:/Renesas/e2studio_2021_01_workspace_RZA2M_ANPR/ANPR_RZA2M_RDK/src/tensorflow_lite/tensorflow/lite/kernels/internal\types.h ****     for (int i = 0; i < shape_size; ++i) {
 171:C:/Renesas/e2studio_2021_01_workspace_RZA2M_ANPR/ANPR_RZA2M_RDK/src/tensorflow_lite/tensorflow/lite/kernels/internal\types.h ****       SetDim(i, value);
 172:C:/Renesas/e2studio_2021_01_workspace_RZA2M_ANPR/ANPR_RZA2M_RDK/src/tensorflow_lite/tensorflow/lite/kernels/internal\types.h ****     }
 173:C:/Renesas/e2studio_2021_01_workspace_RZA2M_ANPR/ANPR_RZA2M_RDK/src/tensorflow_lite/tensorflow/lite/kernels/internal\types.h ****   }
 174:C:/Renesas/e2studio_2021_01_workspace_RZA2M_ANPR/ANPR_RZA2M_RDK/src/tensorflow_lite/tensorflow/lite/kernels/internal\types.h **** 
 175:C:/Renesas/e2studio_2021_01_workspace_RZA2M_ANPR/ANPR_RZA2M_RDK/src/tensorflow_lite/tensorflow/lite/kernels/internal\types.h ****   RuntimeShape(int dimensions_count, const int32_t* dims_data) : size_(0) {
 176:C:/Renesas/e2studio_2021_01_workspace_RZA2M_ANPR/ANPR_RZA2M_RDK/src/tensorflow_lite/tensorflow/lite/kernels/internal\types.h ****     ReplaceWith(dimensions_count, dims_data);
 177:C:/Renesas/e2studio_2021_01_workspace_RZA2M_ANPR/ANPR_RZA2M_RDK/src/tensorflow_lite/tensorflow/lite/kernels/internal\types.h ****   }
 178:C:/Renesas/e2studio_2021_01_workspace_RZA2M_ANPR/ANPR_RZA2M_RDK/src/tensorflow_lite/tensorflow/lite/kernels/internal\types.h **** 
 179:C:/Renesas/e2studio_2021_01_workspace_RZA2M_ANPR/ANPR_RZA2M_RDK/src/tensorflow_lite/tensorflow/lite/kernels/internal\types.h ****   RuntimeShape(const std::initializer_list<int> init_list) : size_(0) {
 180:C:/Renesas/e2studio_2021_01_workspace_RZA2M_ANPR/ANPR_RZA2M_RDK/src/tensorflow_lite/tensorflow/lite/kernels/internal\types.h ****     BuildFrom(init_list);
 181:C:/Renesas/e2studio_2021_01_workspace_RZA2M_ANPR/ANPR_RZA2M_RDK/src/tensorflow_lite/tensorflow/lite/kernels/internal\types.h ****   }
 182:C:/Renesas/e2studio_2021_01_workspace_RZA2M_ANPR/ANPR_RZA2M_RDK/src/tensorflow_lite/tensorflow/lite/kernels/internal\types.h **** 
 183:C:/Renesas/e2studio_2021_01_workspace_RZA2M_ANPR/ANPR_RZA2M_RDK/src/tensorflow_lite/tensorflow/lite/kernels/internal\types.h ****   // Avoid using this constructor.  We should be able to delete it when C++17
 184:C:/Renesas/e2studio_2021_01_workspace_RZA2M_ANPR/ANPR_RZA2M_RDK/src/tensorflow_lite/tensorflow/lite/kernels/internal\types.h ****   // rolls out.
 185:C:/Renesas/e2studio_2021_01_workspace_RZA2M_ANPR/ANPR_RZA2M_RDK/src/tensorflow_lite/tensorflow/lite/kernels/internal\types.h ****   RuntimeShape(RuntimeShape const& other) : size_(other.DimensionsCount()) {
 186:C:/Renesas/e2studio_2021_01_workspace_RZA2M_ANPR/ANPR_RZA2M_RDK/src/tensorflow_lite/tensorflow/lite/kernels/internal\types.h ****     if (size_ > kMaxSmallSize) {
 187:C:/Renesas/e2studio_2021_01_workspace_RZA2M_ANPR/ANPR_RZA2M_RDK/src/tensorflow_lite/tensorflow/lite/kernels/internal\types.h **** #ifdef TF_LITE_STATIC_MEMORY
 188:C:/Renesas/e2studio_2021_01_workspace_RZA2M_ANPR/ANPR_RZA2M_RDK/src/tensorflow_lite/tensorflow/lite/kernels/internal\types.h ****       TFLITE_CHECK(false && "No shape resizing supported on this platform");
 189:C:/Renesas/e2studio_2021_01_workspace_RZA2M_ANPR/ANPR_RZA2M_RDK/src/tensorflow_lite/tensorflow/lite/kernels/internal\types.h **** #else
 190:C:/Renesas/e2studio_2021_01_workspace_RZA2M_ANPR/ANPR_RZA2M_RDK/src/tensorflow_lite/tensorflow/lite/kernels/internal\types.h ****       dims_pointer_ = new int32_t[size_];
 191:C:/Renesas/e2studio_2021_01_workspace_RZA2M_ANPR/ANPR_RZA2M_RDK/src/tensorflow_lite/tensorflow/lite/kernels/internal\types.h **** #endif
 192:C:/Renesas/e2studio_2021_01_workspace_RZA2M_ANPR/ANPR_RZA2M_RDK/src/tensorflow_lite/tensorflow/lite/kernels/internal\types.h ****     }
 193:C:/Renesas/e2studio_2021_01_workspace_RZA2M_ANPR/ANPR_RZA2M_RDK/src/tensorflow_lite/tensorflow/lite/kernels/internal\types.h ****     std::memcpy(DimsData(), other.DimsData(), sizeof(int32_t) * size_);
 194:C:/Renesas/e2studio_2021_01_workspace_RZA2M_ANPR/ANPR_RZA2M_RDK/src/tensorflow_lite/tensorflow/lite/kernels/internal\types.h ****   }
 195:C:/Renesas/e2studio_2021_01_workspace_RZA2M_ANPR/ANPR_RZA2M_RDK/src/tensorflow_lite/tensorflow/lite/kernels/internal\types.h **** 
 196:C:/Renesas/e2studio_2021_01_workspace_RZA2M_ANPR/ANPR_RZA2M_RDK/src/tensorflow_lite/tensorflow/lite/kernels/internal\types.h ****   bool operator==(const RuntimeShape& comp) const {
 197:C:/Renesas/e2studio_2021_01_workspace_RZA2M_ANPR/ANPR_RZA2M_RDK/src/tensorflow_lite/tensorflow/lite/kernels/internal\types.h ****     return this->size_ == comp.size_ &&
 198:C:/Renesas/e2studio_2021_01_workspace_RZA2M_ANPR/ANPR_RZA2M_RDK/src/tensorflow_lite/tensorflow/lite/kernels/internal\types.h ****            std::memcmp(DimsData(), comp.DimsData(), size_ * sizeof(int32_t)) ==
 199:C:/Renesas/e2studio_2021_01_workspace_RZA2M_ANPR/ANPR_RZA2M_RDK/src/tensorflow_lite/tensorflow/lite/kernels/internal\types.h ****                0;
 200:C:/Renesas/e2studio_2021_01_workspace_RZA2M_ANPR/ANPR_RZA2M_RDK/src/tensorflow_lite/tensorflow/lite/kernels/internal\types.h ****   }
 201:C:/Renesas/e2studio_2021_01_workspace_RZA2M_ANPR/ANPR_RZA2M_RDK/src/tensorflow_lite/tensorflow/lite/kernels/internal\types.h **** 
 202:C:/Renesas/e2studio_2021_01_workspace_RZA2M_ANPR/ANPR_RZA2M_RDK/src/tensorflow_lite/tensorflow/lite/kernels/internal\types.h ****   ~RuntimeShape() {
 203:C:/Renesas/e2studio_2021_01_workspace_RZA2M_ANPR/ANPR_RZA2M_RDK/src/tensorflow_lite/tensorflow/lite/kernels/internal\types.h ****     if (size_ > kMaxSmallSize) {
 204:C:/Renesas/e2studio_2021_01_workspace_RZA2M_ANPR/ANPR_RZA2M_RDK/src/tensorflow_lite/tensorflow/lite/kernels/internal\types.h **** #ifdef TF_LITE_STATIC_MEMORY
 205:C:/Renesas/e2studio_2021_01_workspace_RZA2M_ANPR/ANPR_RZA2M_RDK/src/tensorflow_lite/tensorflow/lite/kernels/internal\types.h ****       TFLITE_CHECK(false && "No shape resizing supported on this platform");
 206:C:/Renesas/e2studio_2021_01_workspace_RZA2M_ANPR/ANPR_RZA2M_RDK/src/tensorflow_lite/tensorflow/lite/kernels/internal\types.h **** #else  // TF_LITE_STATIC_MEMORY
 207:C:/Renesas/e2studio_2021_01_workspace_RZA2M_ANPR/ANPR_RZA2M_RDK/src/tensorflow_lite/tensorflow/lite/kernels/internal\types.h ****       delete[] dims_pointer_;
 208:C:/Renesas/e2studio_2021_01_workspace_RZA2M_ANPR/ANPR_RZA2M_RDK/src/tensorflow_lite/tensorflow/lite/kernels/internal\types.h **** #endif  // TF_LITE_STATIC_MEMORY
 209:C:/Renesas/e2studio_2021_01_workspace_RZA2M_ANPR/ANPR_RZA2M_RDK/src/tensorflow_lite/tensorflow/lite/kernels/internal\types.h ****     }
 210:C:/Renesas/e2studio_2021_01_workspace_RZA2M_ANPR/ANPR_RZA2M_RDK/src/tensorflow_lite/tensorflow/lite/kernels/internal\types.h ****   }
 211:C:/Renesas/e2studio_2021_01_workspace_RZA2M_ANPR/ANPR_RZA2M_RDK/src/tensorflow_lite/tensorflow/lite/kernels/internal\types.h **** 
 212:C:/Renesas/e2studio_2021_01_workspace_RZA2M_ANPR/ANPR_RZA2M_RDK/src/tensorflow_lite/tensorflow/lite/kernels/internal\types.h ****   inline int32_t DimensionsCount() const { return size_; }
 213:C:/Renesas/e2studio_2021_01_workspace_RZA2M_ANPR/ANPR_RZA2M_RDK/src/tensorflow_lite/tensorflow/lite/kernels/internal\types.h ****   inline int32_t Dims(int i) const {
 214:C:/Renesas/e2studio_2021_01_workspace_RZA2M_ANPR/ANPR_RZA2M_RDK/src/tensorflow_lite/tensorflow/lite/kernels/internal\types.h ****     TFLITE_DCHECK_GE(i, 0);
 215:C:/Renesas/e2studio_2021_01_workspace_RZA2M_ANPR/ANPR_RZA2M_RDK/src/tensorflow_lite/tensorflow/lite/kernels/internal\types.h ****     TFLITE_DCHECK_LT(i, size_);
 216:C:/Renesas/e2studio_2021_01_workspace_RZA2M_ANPR/ANPR_RZA2M_RDK/src/tensorflow_lite/tensorflow/lite/kernels/internal\types.h ****     return size_ > kMaxSmallSize ? dims_pointer_[i] : dims_[i];
 799              		.loc 6 216 0
 800 011c 84309DE5 		ldr	r3, [sp, #132]
 801              	.LBE699:
 802              	.LBE698:
 803              	.LBB701:
 804              	.LBB702:
 805 0120 9C209DE5 		ldr	r2, [sp, #156]
 806              	.LBE702:
 807              	.LBE701:
 808              	.LBB704:
 809              	.LBB700:
 810 0124 24308DE5 		str	r3, [sp, #36]
 811              	.LVL89:
 812              	.LBE700:
 813              	.LBE704:
 217:C:/Renesas/e2studio_2021_01_workspace_RZA2M_ANPR/ANPR_RZA2M_RDK/src/tensorflow_lite/tensorflow/lite/kernels/internal\types.h ****   }
 218:C:/Renesas/e2studio_2021_01_workspace_RZA2M_ANPR/ANPR_RZA2M_RDK/src/tensorflow_lite/tensorflow/lite/kernels/internal\types.h ****   inline void SetDim(int i, int32_t val) {
 219:C:/Renesas/e2studio_2021_01_workspace_RZA2M_ANPR/ANPR_RZA2M_RDK/src/tensorflow_lite/tensorflow/lite/kernels/internal\types.h ****     TFLITE_DCHECK_GE(i, 0);
 220:C:/Renesas/e2studio_2021_01_workspace_RZA2M_ANPR/ANPR_RZA2M_RDK/src/tensorflow_lite/tensorflow/lite/kernels/internal\types.h ****     TFLITE_DCHECK_LT(i, size_);
 221:C:/Renesas/e2studio_2021_01_workspace_RZA2M_ANPR/ANPR_RZA2M_RDK/src/tensorflow_lite/tensorflow/lite/kernels/internal\types.h ****     if (size_ > kMaxSmallSize) {
 222:C:/Renesas/e2studio_2021_01_workspace_RZA2M_ANPR/ANPR_RZA2M_RDK/src/tensorflow_lite/tensorflow/lite/kernels/internal\types.h ****       dims_pointer_[i] = val;
 223:C:/Renesas/e2studio_2021_01_workspace_RZA2M_ANPR/ANPR_RZA2M_RDK/src/tensorflow_lite/tensorflow/lite/kernels/internal\types.h ****     } else {
 224:C:/Renesas/e2studio_2021_01_workspace_RZA2M_ANPR/ANPR_RZA2M_RDK/src/tensorflow_lite/tensorflow/lite/kernels/internal\types.h ****       dims_[i] = val;
 225:C:/Renesas/e2studio_2021_01_workspace_RZA2M_ANPR/ANPR_RZA2M_RDK/src/tensorflow_lite/tensorflow/lite/kernels/internal\types.h ****     }
 226:C:/Renesas/e2studio_2021_01_workspace_RZA2M_ANPR/ANPR_RZA2M_RDK/src/tensorflow_lite/tensorflow/lite/kernels/internal\types.h ****   }
 227:C:/Renesas/e2studio_2021_01_workspace_RZA2M_ANPR/ANPR_RZA2M_RDK/src/tensorflow_lite/tensorflow/lite/kernels/internal\types.h **** 
 228:C:/Renesas/e2studio_2021_01_workspace_RZA2M_ANPR/ANPR_RZA2M_RDK/src/tensorflow_lite/tensorflow/lite/kernels/internal\types.h ****   inline int32_t* DimsData() {
 229:C:/Renesas/e2studio_2021_01_workspace_RZA2M_ANPR/ANPR_RZA2M_RDK/src/tensorflow_lite/tensorflow/lite/kernels/internal\types.h ****     return size_ > kMaxSmallSize ? dims_pointer_ : dims_;
 230:C:/Renesas/e2studio_2021_01_workspace_RZA2M_ANPR/ANPR_RZA2M_RDK/src/tensorflow_lite/tensorflow/lite/kernels/internal\types.h ****   }
 231:C:/Renesas/e2studio_2021_01_workspace_RZA2M_ANPR/ANPR_RZA2M_RDK/src/tensorflow_lite/tensorflow/lite/kernels/internal\types.h ****   inline const int32_t* DimsData() const {
 232:C:/Renesas/e2studio_2021_01_workspace_RZA2M_ANPR/ANPR_RZA2M_RDK/src/tensorflow_lite/tensorflow/lite/kernels/internal\types.h ****     return size_ > kMaxSmallSize ? dims_pointer_ : dims_;
 233:C:/Renesas/e2studio_2021_01_workspace_RZA2M_ANPR/ANPR_RZA2M_RDK/src/tensorflow_lite/tensorflow/lite/kernels/internal\types.h ****   }
 234:C:/Renesas/e2studio_2021_01_workspace_RZA2M_ANPR/ANPR_RZA2M_RDK/src/tensorflow_lite/tensorflow/lite/kernels/internal\types.h ****   // The caller must ensure that the shape is no bigger than 5-D.
 235:C:/Renesas/e2studio_2021_01_workspace_RZA2M_ANPR/ANPR_RZA2M_RDK/src/tensorflow_lite/tensorflow/lite/kernels/internal\types.h ****   inline const int32_t* DimsDataUpTo5D() const { return dims_; }
 236:C:/Renesas/e2studio_2021_01_workspace_RZA2M_ANPR/ANPR_RZA2M_RDK/src/tensorflow_lite/tensorflow/lite/kernels/internal\types.h **** 
 237:C:/Renesas/e2studio_2021_01_workspace_RZA2M_ANPR/ANPR_RZA2M_RDK/src/tensorflow_lite/tensorflow/lite/kernels/internal\types.h ****   inline void Resize(int dimensions_count) {
 238:C:/Renesas/e2studio_2021_01_workspace_RZA2M_ANPR/ANPR_RZA2M_RDK/src/tensorflow_lite/tensorflow/lite/kernels/internal\types.h ****     if (size_ > kMaxSmallSize) {
 239:C:/Renesas/e2studio_2021_01_workspace_RZA2M_ANPR/ANPR_RZA2M_RDK/src/tensorflow_lite/tensorflow/lite/kernels/internal\types.h **** #ifdef TF_LITE_STATIC_MEMORY
 240:C:/Renesas/e2studio_2021_01_workspace_RZA2M_ANPR/ANPR_RZA2M_RDK/src/tensorflow_lite/tensorflow/lite/kernels/internal\types.h ****       TFLITE_CHECK(false && "No shape resizing supported on this platform");
 241:C:/Renesas/e2studio_2021_01_workspace_RZA2M_ANPR/ANPR_RZA2M_RDK/src/tensorflow_lite/tensorflow/lite/kernels/internal\types.h **** #else  // TF_LITE_STATIC_MEMORY
 242:C:/Renesas/e2studio_2021_01_workspace_RZA2M_ANPR/ANPR_RZA2M_RDK/src/tensorflow_lite/tensorflow/lite/kernels/internal\types.h ****       delete[] dims_pointer_;
 243:C:/Renesas/e2studio_2021_01_workspace_RZA2M_ANPR/ANPR_RZA2M_RDK/src/tensorflow_lite/tensorflow/lite/kernels/internal\types.h **** #endif  // TF_LITE_STATIC_MEMORY
 244:C:/Renesas/e2studio_2021_01_workspace_RZA2M_ANPR/ANPR_RZA2M_RDK/src/tensorflow_lite/tensorflow/lite/kernels/internal\types.h ****     }
 245:C:/Renesas/e2studio_2021_01_workspace_RZA2M_ANPR/ANPR_RZA2M_RDK/src/tensorflow_lite/tensorflow/lite/kernels/internal\types.h ****     size_ = dimensions_count;
 246:C:/Renesas/e2studio_2021_01_workspace_RZA2M_ANPR/ANPR_RZA2M_RDK/src/tensorflow_lite/tensorflow/lite/kernels/internal\types.h ****     if (dimensions_count > kMaxSmallSize) {
 247:C:/Renesas/e2studio_2021_01_workspace_RZA2M_ANPR/ANPR_RZA2M_RDK/src/tensorflow_lite/tensorflow/lite/kernels/internal\types.h **** #ifdef TF_LITE_STATIC_MEMORY
 248:C:/Renesas/e2studio_2021_01_workspace_RZA2M_ANPR/ANPR_RZA2M_RDK/src/tensorflow_lite/tensorflow/lite/kernels/internal\types.h ****       TFLITE_CHECK(false && "No shape resizing supported on this platform");
 249:C:/Renesas/e2studio_2021_01_workspace_RZA2M_ANPR/ANPR_RZA2M_RDK/src/tensorflow_lite/tensorflow/lite/kernels/internal\types.h **** #else  // TF_LITE_STATIC_MEMORY
 250:C:/Renesas/e2studio_2021_01_workspace_RZA2M_ANPR/ANPR_RZA2M_RDK/src/tensorflow_lite/tensorflow/lite/kernels/internal\types.h ****       dims_pointer_ = new int32_t[dimensions_count];
 251:C:/Renesas/e2studio_2021_01_workspace_RZA2M_ANPR/ANPR_RZA2M_RDK/src/tensorflow_lite/tensorflow/lite/kernels/internal\types.h **** #endif  // TF_LITE_STATIC_MEMORY
 252:C:/Renesas/e2studio_2021_01_workspace_RZA2M_ANPR/ANPR_RZA2M_RDK/src/tensorflow_lite/tensorflow/lite/kernels/internal\types.h ****     }
 253:C:/Renesas/e2studio_2021_01_workspace_RZA2M_ANPR/ANPR_RZA2M_RDK/src/tensorflow_lite/tensorflow/lite/kernels/internal\types.h ****   }
 254:C:/Renesas/e2studio_2021_01_workspace_RZA2M_ANPR/ANPR_RZA2M_RDK/src/tensorflow_lite/tensorflow/lite/kernels/internal\types.h **** 
 255:C:/Renesas/e2studio_2021_01_workspace_RZA2M_ANPR/ANPR_RZA2M_RDK/src/tensorflow_lite/tensorflow/lite/kernels/internal\types.h ****   inline void ReplaceWith(int dimensions_count, const int32_t* dims_data) {
 256:C:/Renesas/e2studio_2021_01_workspace_RZA2M_ANPR/ANPR_RZA2M_RDK/src/tensorflow_lite/tensorflow/lite/kernels/internal\types.h ****     Resize(dimensions_count);
 257:C:/Renesas/e2studio_2021_01_workspace_RZA2M_ANPR/ANPR_RZA2M_RDK/src/tensorflow_lite/tensorflow/lite/kernels/internal\types.h ****     int32_t* dst_dims = DimsData();
 258:C:/Renesas/e2studio_2021_01_workspace_RZA2M_ANPR/ANPR_RZA2M_RDK/src/tensorflow_lite/tensorflow/lite/kernels/internal\types.h ****     std::memcpy(dst_dims, dims_data, dimensions_count * sizeof(int32_t));
 259:C:/Renesas/e2studio_2021_01_workspace_RZA2M_ANPR/ANPR_RZA2M_RDK/src/tensorflow_lite/tensorflow/lite/kernels/internal\types.h ****   }
 260:C:/Renesas/e2studio_2021_01_workspace_RZA2M_ANPR/ANPR_RZA2M_RDK/src/tensorflow_lite/tensorflow/lite/kernels/internal\types.h **** 
 261:C:/Renesas/e2studio_2021_01_workspace_RZA2M_ANPR/ANPR_RZA2M_RDK/src/tensorflow_lite/tensorflow/lite/kernels/internal\types.h ****   template <typename T>
 262:C:/Renesas/e2studio_2021_01_workspace_RZA2M_ANPR/ANPR_RZA2M_RDK/src/tensorflow_lite/tensorflow/lite/kernels/internal\types.h ****   inline void BuildFrom(const T& src_iterable) {
 263:C:/Renesas/e2studio_2021_01_workspace_RZA2M_ANPR/ANPR_RZA2M_RDK/src/tensorflow_lite/tensorflow/lite/kernels/internal\types.h ****     const int dimensions_count =
 264:C:/Renesas/e2studio_2021_01_workspace_RZA2M_ANPR/ANPR_RZA2M_RDK/src/tensorflow_lite/tensorflow/lite/kernels/internal\types.h ****         std::distance(src_iterable.begin(), src_iterable.end());
 265:C:/Renesas/e2studio_2021_01_workspace_RZA2M_ANPR/ANPR_RZA2M_RDK/src/tensorflow_lite/tensorflow/lite/kernels/internal\types.h ****     Resize(dimensions_count);
 266:C:/Renesas/e2studio_2021_01_workspace_RZA2M_ANPR/ANPR_RZA2M_RDK/src/tensorflow_lite/tensorflow/lite/kernels/internal\types.h ****     int32_t* data = DimsData();
 267:C:/Renesas/e2studio_2021_01_workspace_RZA2M_ANPR/ANPR_RZA2M_RDK/src/tensorflow_lite/tensorflow/lite/kernels/internal\types.h ****     for (auto it : src_iterable) {
 268:C:/Renesas/e2studio_2021_01_workspace_RZA2M_ANPR/ANPR_RZA2M_RDK/src/tensorflow_lite/tensorflow/lite/kernels/internal\types.h ****       *data = it;
 269:C:/Renesas/e2studio_2021_01_workspace_RZA2M_ANPR/ANPR_RZA2M_RDK/src/tensorflow_lite/tensorflow/lite/kernels/internal\types.h ****       ++data;
 270:C:/Renesas/e2studio_2021_01_workspace_RZA2M_ANPR/ANPR_RZA2M_RDK/src/tensorflow_lite/tensorflow/lite/kernels/internal\types.h ****     }
 271:C:/Renesas/e2studio_2021_01_workspace_RZA2M_ANPR/ANPR_RZA2M_RDK/src/tensorflow_lite/tensorflow/lite/kernels/internal\types.h ****   }
 272:C:/Renesas/e2studio_2021_01_workspace_RZA2M_ANPR/ANPR_RZA2M_RDK/src/tensorflow_lite/tensorflow/lite/kernels/internal\types.h **** 
 273:C:/Renesas/e2studio_2021_01_workspace_RZA2M_ANPR/ANPR_RZA2M_RDK/src/tensorflow_lite/tensorflow/lite/kernels/internal\types.h ****   // This will probably be factored out. Old code made substantial use of 4-D
 274:C:/Renesas/e2studio_2021_01_workspace_RZA2M_ANPR/ANPR_RZA2M_RDK/src/tensorflow_lite/tensorflow/lite/kernels/internal\types.h ****   // shapes, and so this function is used to extend smaller shapes. Note that
 275:C:/Renesas/e2studio_2021_01_workspace_RZA2M_ANPR/ANPR_RZA2M_RDK/src/tensorflow_lite/tensorflow/lite/kernels/internal\types.h ****   // (a) as Dims<4>-dependent code is eliminated, the reliance on this should be
 276:C:/Renesas/e2studio_2021_01_workspace_RZA2M_ANPR/ANPR_RZA2M_RDK/src/tensorflow_lite/tensorflow/lite/kernels/internal\types.h ****   // reduced, and (b) some kernels are stricly 4-D, but then the shapes of their
 277:C:/Renesas/e2studio_2021_01_workspace_RZA2M_ANPR/ANPR_RZA2M_RDK/src/tensorflow_lite/tensorflow/lite/kernels/internal\types.h ****   // inputs should already be 4-D, so this function should not be needed.
 278:C:/Renesas/e2studio_2021_01_workspace_RZA2M_ANPR/ANPR_RZA2M_RDK/src/tensorflow_lite/tensorflow/lite/kernels/internal\types.h ****   inline static RuntimeShape ExtendedShape(int new_shape_size,
 279:C:/Renesas/e2studio_2021_01_workspace_RZA2M_ANPR/ANPR_RZA2M_RDK/src/tensorflow_lite/tensorflow/lite/kernels/internal\types.h ****                                            const RuntimeShape& shape) {
 280:C:/Renesas/e2studio_2021_01_workspace_RZA2M_ANPR/ANPR_RZA2M_RDK/src/tensorflow_lite/tensorflow/lite/kernels/internal\types.h ****     return RuntimeShape(new_shape_size, shape, 1);
 281:C:/Renesas/e2studio_2021_01_workspace_RZA2M_ANPR/ANPR_RZA2M_RDK/src/tensorflow_lite/tensorflow/lite/kernels/internal\types.h ****   }
 282:C:/Renesas/e2studio_2021_01_workspace_RZA2M_ANPR/ANPR_RZA2M_RDK/src/tensorflow_lite/tensorflow/lite/kernels/internal\types.h **** 
 283:C:/Renesas/e2studio_2021_01_workspace_RZA2M_ANPR/ANPR_RZA2M_RDK/src/tensorflow_lite/tensorflow/lite/kernels/internal\types.h ****   inline void BuildFrom(const std::initializer_list<int> init_list) {
 284:C:/Renesas/e2studio_2021_01_workspace_RZA2M_ANPR/ANPR_RZA2M_RDK/src/tensorflow_lite/tensorflow/lite/kernels/internal\types.h ****     BuildFrom<const std::initializer_list<int>>(init_list);
 285:C:/Renesas/e2studio_2021_01_workspace_RZA2M_ANPR/ANPR_RZA2M_RDK/src/tensorflow_lite/tensorflow/lite/kernels/internal\types.h ****   }
 286:C:/Renesas/e2studio_2021_01_workspace_RZA2M_ANPR/ANPR_RZA2M_RDK/src/tensorflow_lite/tensorflow/lite/kernels/internal\types.h **** 
 287:C:/Renesas/e2studio_2021_01_workspace_RZA2M_ANPR/ANPR_RZA2M_RDK/src/tensorflow_lite/tensorflow/lite/kernels/internal\types.h ****   // Returns the total count of elements, that is the size when flattened into a
 288:C:/Renesas/e2studio_2021_01_workspace_RZA2M_ANPR/ANPR_RZA2M_RDK/src/tensorflow_lite/tensorflow/lite/kernels/internal\types.h ****   // vector.
 289:C:/Renesas/e2studio_2021_01_workspace_RZA2M_ANPR/ANPR_RZA2M_RDK/src/tensorflow_lite/tensorflow/lite/kernels/internal\types.h ****   inline int FlatSize() const {
 290:C:/Renesas/e2studio_2021_01_workspace_RZA2M_ANPR/ANPR_RZA2M_RDK/src/tensorflow_lite/tensorflow/lite/kernels/internal\types.h ****     int buffer_size = 1;
 291:C:/Renesas/e2studio_2021_01_workspace_RZA2M_ANPR/ANPR_RZA2M_RDK/src/tensorflow_lite/tensorflow/lite/kernels/internal\types.h ****     const int* dims_data = reinterpret_cast<const int*>(DimsData());
 292:C:/Renesas/e2studio_2021_01_workspace_RZA2M_ANPR/ANPR_RZA2M_RDK/src/tensorflow_lite/tensorflow/lite/kernels/internal\types.h ****     for (int i = 0; i < size_; i++) {
 293:C:/Renesas/e2studio_2021_01_workspace_RZA2M_ANPR/ANPR_RZA2M_RDK/src/tensorflow_lite/tensorflow/lite/kernels/internal\types.h ****       buffer_size *= dims_data[i];
 294:C:/Renesas/e2studio_2021_01_workspace_RZA2M_ANPR/ANPR_RZA2M_RDK/src/tensorflow_lite/tensorflow/lite/kernels/internal\types.h ****     }
 295:C:/Renesas/e2studio_2021_01_workspace_RZA2M_ANPR/ANPR_RZA2M_RDK/src/tensorflow_lite/tensorflow/lite/kernels/internal\types.h ****     return buffer_size;
 296:C:/Renesas/e2studio_2021_01_workspace_RZA2M_ANPR/ANPR_RZA2M_RDK/src/tensorflow_lite/tensorflow/lite/kernels/internal\types.h ****   }
 297:C:/Renesas/e2studio_2021_01_workspace_RZA2M_ANPR/ANPR_RZA2M_RDK/src/tensorflow_lite/tensorflow/lite/kernels/internal\types.h **** 
 298:C:/Renesas/e2studio_2021_01_workspace_RZA2M_ANPR/ANPR_RZA2M_RDK/src/tensorflow_lite/tensorflow/lite/kernels/internal\types.h ****   bool operator!=(const RuntimeShape& comp) const { return !((*this) == comp); }
 299:C:/Renesas/e2studio_2021_01_workspace_RZA2M_ANPR/ANPR_RZA2M_RDK/src/tensorflow_lite/tensorflow/lite/kernels/internal\types.h **** 
 300:C:/Renesas/e2studio_2021_01_workspace_RZA2M_ANPR/ANPR_RZA2M_RDK/src/tensorflow_lite/tensorflow/lite/kernels/internal\types.h ****  private:
 301:C:/Renesas/e2studio_2021_01_workspace_RZA2M_ANPR/ANPR_RZA2M_RDK/src/tensorflow_lite/tensorflow/lite/kernels/internal\types.h ****   // For use only by ExtendedShape(), written to guarantee (return-value) copy
 302:C:/Renesas/e2studio_2021_01_workspace_RZA2M_ANPR/ANPR_RZA2M_RDK/src/tensorflow_lite/tensorflow/lite/kernels/internal\types.h ****   // elision in C++17.
 303:C:/Renesas/e2studio_2021_01_workspace_RZA2M_ANPR/ANPR_RZA2M_RDK/src/tensorflow_lite/tensorflow/lite/kernels/internal\types.h ****   // This creates a shape padded to the desired size with the specified value.
 304:C:/Renesas/e2studio_2021_01_workspace_RZA2M_ANPR/ANPR_RZA2M_RDK/src/tensorflow_lite/tensorflow/lite/kernels/internal\types.h ****   RuntimeShape(int new_shape_size, const RuntimeShape& shape, int pad_value)
 305:C:/Renesas/e2studio_2021_01_workspace_RZA2M_ANPR/ANPR_RZA2M_RDK/src/tensorflow_lite/tensorflow/lite/kernels/internal\types.h ****       : size_(0) {
 306:C:/Renesas/e2studio_2021_01_workspace_RZA2M_ANPR/ANPR_RZA2M_RDK/src/tensorflow_lite/tensorflow/lite/kernels/internal\types.h ****     // If the following check fails, it is likely because a 4D-only kernel is
 307:C:/Renesas/e2studio_2021_01_workspace_RZA2M_ANPR/ANPR_RZA2M_RDK/src/tensorflow_lite/tensorflow/lite/kernels/internal\types.h ****     // being used with an array of larger dimension count.
 308:C:/Renesas/e2studio_2021_01_workspace_RZA2M_ANPR/ANPR_RZA2M_RDK/src/tensorflow_lite/tensorflow/lite/kernels/internal\types.h ****     TFLITE_CHECK_GE(new_shape_size, shape.DimensionsCount());
 309:C:/Renesas/e2studio_2021_01_workspace_RZA2M_ANPR/ANPR_RZA2M_RDK/src/tensorflow_lite/tensorflow/lite/kernels/internal\types.h ****     Resize(new_shape_size);
 310:C:/Renesas/e2studio_2021_01_workspace_RZA2M_ANPR/ANPR_RZA2M_RDK/src/tensorflow_lite/tensorflow/lite/kernels/internal\types.h ****     const int size_increase = new_shape_size - shape.DimensionsCount();
 311:C:/Renesas/e2studio_2021_01_workspace_RZA2M_ANPR/ANPR_RZA2M_RDK/src/tensorflow_lite/tensorflow/lite/kernels/internal\types.h ****     for (int i = 0; i < size_increase; ++i) {
 312:C:/Renesas/e2studio_2021_01_workspace_RZA2M_ANPR/ANPR_RZA2M_RDK/src/tensorflow_lite/tensorflow/lite/kernels/internal\types.h ****       SetDim(i, pad_value);
 313:C:/Renesas/e2studio_2021_01_workspace_RZA2M_ANPR/ANPR_RZA2M_RDK/src/tensorflow_lite/tensorflow/lite/kernels/internal\types.h ****     }
 314:C:/Renesas/e2studio_2021_01_workspace_RZA2M_ANPR/ANPR_RZA2M_RDK/src/tensorflow_lite/tensorflow/lite/kernels/internal\types.h ****     std::memcpy(DimsData() + size_increase, shape.DimsData(),
 315:C:/Renesas/e2studio_2021_01_workspace_RZA2M_ANPR/ANPR_RZA2M_RDK/src/tensorflow_lite/tensorflow/lite/kernels/internal\types.h ****                 sizeof(int32_t) * shape.DimensionsCount());
 316:C:/Renesas/e2studio_2021_01_workspace_RZA2M_ANPR/ANPR_RZA2M_RDK/src/tensorflow_lite/tensorflow/lite/kernels/internal\types.h ****   }
 317:C:/Renesas/e2studio_2021_01_workspace_RZA2M_ANPR/ANPR_RZA2M_RDK/src/tensorflow_lite/tensorflow/lite/kernels/internal\types.h **** 
 318:C:/Renesas/e2studio_2021_01_workspace_RZA2M_ANPR/ANPR_RZA2M_RDK/src/tensorflow_lite/tensorflow/lite/kernels/internal\types.h ****   int32_t size_;
 319:C:/Renesas/e2studio_2021_01_workspace_RZA2M_ANPR/ANPR_RZA2M_RDK/src/tensorflow_lite/tensorflow/lite/kernels/internal\types.h ****   union {
 320:C:/Renesas/e2studio_2021_01_workspace_RZA2M_ANPR/ANPR_RZA2M_RDK/src/tensorflow_lite/tensorflow/lite/kernels/internal\types.h ****     int32_t dims_[kMaxSmallSize];
 321:C:/Renesas/e2studio_2021_01_workspace_RZA2M_ANPR/ANPR_RZA2M_RDK/src/tensorflow_lite/tensorflow/lite/kernels/internal\types.h ****     int32_t* dims_pointer_;
 322:C:/Renesas/e2studio_2021_01_workspace_RZA2M_ANPR/ANPR_RZA2M_RDK/src/tensorflow_lite/tensorflow/lite/kernels/internal\types.h ****   };
 323:C:/Renesas/e2studio_2021_01_workspace_RZA2M_ANPR/ANPR_RZA2M_RDK/src/tensorflow_lite/tensorflow/lite/kernels/internal\types.h **** };
 324:C:/Renesas/e2studio_2021_01_workspace_RZA2M_ANPR/ANPR_RZA2M_RDK/src/tensorflow_lite/tensorflow/lite/kernels/internal\types.h **** 
 325:C:/Renesas/e2studio_2021_01_workspace_RZA2M_ANPR/ANPR_RZA2M_RDK/src/tensorflow_lite/tensorflow/lite/kernels/internal\types.h **** // Converts inference-style shape to legacy tflite::Dims<4>.
 326:C:/Renesas/e2studio_2021_01_workspace_RZA2M_ANPR/ANPR_RZA2M_RDK/src/tensorflow_lite/tensorflow/lite/kernels/internal\types.h **** inline tflite::Dims<4> ToRuntimeDims(const tflite::RuntimeShape& array_shape) {
 327:C:/Renesas/e2studio_2021_01_workspace_RZA2M_ANPR/ANPR_RZA2M_RDK/src/tensorflow_lite/tensorflow/lite/kernels/internal\types.h ****   tflite::Dims<4> result;
 328:C:/Renesas/e2studio_2021_01_workspace_RZA2M_ANPR/ANPR_RZA2M_RDK/src/tensorflow_lite/tensorflow/lite/kernels/internal\types.h ****   const int dimensions_count = array_shape.DimensionsCount();
 329:C:/Renesas/e2studio_2021_01_workspace_RZA2M_ANPR/ANPR_RZA2M_RDK/src/tensorflow_lite/tensorflow/lite/kernels/internal\types.h ****   TFLITE_CHECK_LE(dimensions_count, 4);
 330:C:/Renesas/e2studio_2021_01_workspace_RZA2M_ANPR/ANPR_RZA2M_RDK/src/tensorflow_lite/tensorflow/lite/kernels/internal\types.h ****   int cum_prod = 1;
 331:C:/Renesas/e2studio_2021_01_workspace_RZA2M_ANPR/ANPR_RZA2M_RDK/src/tensorflow_lite/tensorflow/lite/kernels/internal\types.h ****   for (int i = 0; i < 4; i++) {
 332:C:/Renesas/e2studio_2021_01_workspace_RZA2M_ANPR/ANPR_RZA2M_RDK/src/tensorflow_lite/tensorflow/lite/kernels/internal\types.h ****     const int new_dim =
 333:C:/Renesas/e2studio_2021_01_workspace_RZA2M_ANPR/ANPR_RZA2M_RDK/src/tensorflow_lite/tensorflow/lite/kernels/internal\types.h ****         (i < dimensions_count) ? array_shape.Dims(dimensions_count - 1 - i) : 1;
 334:C:/Renesas/e2studio_2021_01_workspace_RZA2M_ANPR/ANPR_RZA2M_RDK/src/tensorflow_lite/tensorflow/lite/kernels/internal\types.h ****     result.sizes[i] = new_dim;
 335:C:/Renesas/e2studio_2021_01_workspace_RZA2M_ANPR/ANPR_RZA2M_RDK/src/tensorflow_lite/tensorflow/lite/kernels/internal\types.h ****     result.strides[i] = cum_prod;
 336:C:/Renesas/e2studio_2021_01_workspace_RZA2M_ANPR/ANPR_RZA2M_RDK/src/tensorflow_lite/tensorflow/lite/kernels/internal\types.h ****     cum_prod *= new_dim;
 337:C:/Renesas/e2studio_2021_01_workspace_RZA2M_ANPR/ANPR_RZA2M_RDK/src/tensorflow_lite/tensorflow/lite/kernels/internal\types.h ****   }
 338:C:/Renesas/e2studio_2021_01_workspace_RZA2M_ANPR/ANPR_RZA2M_RDK/src/tensorflow_lite/tensorflow/lite/kernels/internal\types.h ****   return result;
 339:C:/Renesas/e2studio_2021_01_workspace_RZA2M_ANPR/ANPR_RZA2M_RDK/src/tensorflow_lite/tensorflow/lite/kernels/internal\types.h **** }
 340:C:/Renesas/e2studio_2021_01_workspace_RZA2M_ANPR/ANPR_RZA2M_RDK/src/tensorflow_lite/tensorflow/lite/kernels/internal\types.h **** 
 341:C:/Renesas/e2studio_2021_01_workspace_RZA2M_ANPR/ANPR_RZA2M_RDK/src/tensorflow_lite/tensorflow/lite/kernels/internal\types.h **** // TODO(b/80418076): Move to legacy ops file, update invocations.
 342:C:/Renesas/e2studio_2021_01_workspace_RZA2M_ANPR/ANPR_RZA2M_RDK/src/tensorflow_lite/tensorflow/lite/kernels/internal\types.h **** inline RuntimeShape DimsToShape(const tflite::Dims<4>& dims) {
 343:C:/Renesas/e2studio_2021_01_workspace_RZA2M_ANPR/ANPR_RZA2M_RDK/src/tensorflow_lite/tensorflow/lite/kernels/internal\types.h ****   return RuntimeShape(
 344:C:/Renesas/e2studio_2021_01_workspace_RZA2M_ANPR/ANPR_RZA2M_RDK/src/tensorflow_lite/tensorflow/lite/kernels/internal\types.h ****       {dims.sizes[3], dims.sizes[2], dims.sizes[1], dims.sizes[0]});
 345:C:/Renesas/e2studio_2021_01_workspace_RZA2M_ANPR/ANPR_RZA2M_RDK/src/tensorflow_lite/tensorflow/lite/kernels/internal\types.h **** }
 346:C:/Renesas/e2studio_2021_01_workspace_RZA2M_ANPR/ANPR_RZA2M_RDK/src/tensorflow_lite/tensorflow/lite/kernels/internal\types.h **** 
 347:C:/Renesas/e2studio_2021_01_workspace_RZA2M_ANPR/ANPR_RZA2M_RDK/src/tensorflow_lite/tensorflow/lite/kernels/internal\types.h **** // Gets next index to iterate through a multidimensional array.
 348:C:/Renesas/e2studio_2021_01_workspace_RZA2M_ANPR/ANPR_RZA2M_RDK/src/tensorflow_lite/tensorflow/lite/kernels/internal\types.h **** inline bool NextIndex(const int num_dims, const int* dims, int* current) {
 349:C:/Renesas/e2studio_2021_01_workspace_RZA2M_ANPR/ANPR_RZA2M_RDK/src/tensorflow_lite/tensorflow/lite/kernels/internal\types.h ****   if (num_dims == 0) {
 350:C:/Renesas/e2studio_2021_01_workspace_RZA2M_ANPR/ANPR_RZA2M_RDK/src/tensorflow_lite/tensorflow/lite/kernels/internal\types.h ****     return false;
 351:C:/Renesas/e2studio_2021_01_workspace_RZA2M_ANPR/ANPR_RZA2M_RDK/src/tensorflow_lite/tensorflow/lite/kernels/internal\types.h ****   }
 352:C:/Renesas/e2studio_2021_01_workspace_RZA2M_ANPR/ANPR_RZA2M_RDK/src/tensorflow_lite/tensorflow/lite/kernels/internal\types.h ****   TFLITE_DCHECK(dims != nullptr);
 353:C:/Renesas/e2studio_2021_01_workspace_RZA2M_ANPR/ANPR_RZA2M_RDK/src/tensorflow_lite/tensorflow/lite/kernels/internal\types.h ****   TFLITE_DCHECK(current != nullptr);
 354:C:/Renesas/e2studio_2021_01_workspace_RZA2M_ANPR/ANPR_RZA2M_RDK/src/tensorflow_lite/tensorflow/lite/kernels/internal\types.h ****   int carry = 1;
 355:C:/Renesas/e2studio_2021_01_workspace_RZA2M_ANPR/ANPR_RZA2M_RDK/src/tensorflow_lite/tensorflow/lite/kernels/internal\types.h ****   for (int idx = num_dims - 1; idx >= 0; --idx) {
 356:C:/Renesas/e2studio_2021_01_workspace_RZA2M_ANPR/ANPR_RZA2M_RDK/src/tensorflow_lite/tensorflow/lite/kernels/internal\types.h ****     int current_val = current[idx] + carry;
 357:C:/Renesas/e2studio_2021_01_workspace_RZA2M_ANPR/ANPR_RZA2M_RDK/src/tensorflow_lite/tensorflow/lite/kernels/internal\types.h ****     TFLITE_DCHECK_GE(dims[idx], current_val);
 358:C:/Renesas/e2studio_2021_01_workspace_RZA2M_ANPR/ANPR_RZA2M_RDK/src/tensorflow_lite/tensorflow/lite/kernels/internal\types.h ****     if (dims[idx] == current_val) {
 359:C:/Renesas/e2studio_2021_01_workspace_RZA2M_ANPR/ANPR_RZA2M_RDK/src/tensorflow_lite/tensorflow/lite/kernels/internal\types.h ****       current[idx] = 0;
 360:C:/Renesas/e2studio_2021_01_workspace_RZA2M_ANPR/ANPR_RZA2M_RDK/src/tensorflow_lite/tensorflow/lite/kernels/internal\types.h ****     } else {
 361:C:/Renesas/e2studio_2021_01_workspace_RZA2M_ANPR/ANPR_RZA2M_RDK/src/tensorflow_lite/tensorflow/lite/kernels/internal\types.h ****       current[idx] = current_val;
 362:C:/Renesas/e2studio_2021_01_workspace_RZA2M_ANPR/ANPR_RZA2M_RDK/src/tensorflow_lite/tensorflow/lite/kernels/internal\types.h ****       carry = 0;
 363:C:/Renesas/e2studio_2021_01_workspace_RZA2M_ANPR/ANPR_RZA2M_RDK/src/tensorflow_lite/tensorflow/lite/kernels/internal\types.h ****       break;
 364:C:/Renesas/e2studio_2021_01_workspace_RZA2M_ANPR/ANPR_RZA2M_RDK/src/tensorflow_lite/tensorflow/lite/kernels/internal\types.h ****     }
 365:C:/Renesas/e2studio_2021_01_workspace_RZA2M_ANPR/ANPR_RZA2M_RDK/src/tensorflow_lite/tensorflow/lite/kernels/internal\types.h ****   }
 366:C:/Renesas/e2studio_2021_01_workspace_RZA2M_ANPR/ANPR_RZA2M_RDK/src/tensorflow_lite/tensorflow/lite/kernels/internal\types.h ****   return (carry == 0);
 367:C:/Renesas/e2studio_2021_01_workspace_RZA2M_ANPR/ANPR_RZA2M_RDK/src/tensorflow_lite/tensorflow/lite/kernels/internal\types.h **** }
 368:C:/Renesas/e2studio_2021_01_workspace_RZA2M_ANPR/ANPR_RZA2M_RDK/src/tensorflow_lite/tensorflow/lite/kernels/internal\types.h **** 
 369:C:/Renesas/e2studio_2021_01_workspace_RZA2M_ANPR/ANPR_RZA2M_RDK/src/tensorflow_lite/tensorflow/lite/kernels/internal\types.h **** // Gets offset of index if reducing on axis. When reducing, the flattened offset
 370:C:/Renesas/e2studio_2021_01_workspace_RZA2M_ANPR/ANPR_RZA2M_RDK/src/tensorflow_lite/tensorflow/lite/kernels/internal\types.h **** // will not change, if the input index changes on the given axis. For example,
 371:C:/Renesas/e2studio_2021_01_workspace_RZA2M_ANPR/ANPR_RZA2M_RDK/src/tensorflow_lite/tensorflow/lite/kernels/internal\types.h **** // if you have a 3D tensor and you are reducing to 2D by eliminating axis 0,
 372:C:/Renesas/e2studio_2021_01_workspace_RZA2M_ANPR/ANPR_RZA2M_RDK/src/tensorflow_lite/tensorflow/lite/kernels/internal\types.h **** // then index (0, 1, 2) and index (1, 1, 2) will map to the same flattened
 373:C:/Renesas/e2studio_2021_01_workspace_RZA2M_ANPR/ANPR_RZA2M_RDK/src/tensorflow_lite/tensorflow/lite/kernels/internal\types.h **** // offset.
 374:C:/Renesas/e2studio_2021_01_workspace_RZA2M_ANPR/ANPR_RZA2M_RDK/src/tensorflow_lite/tensorflow/lite/kernels/internal\types.h **** // TODO(kanlig): uses Dims to represent dimensions.
 375:C:/Renesas/e2studio_2021_01_workspace_RZA2M_ANPR/ANPR_RZA2M_RDK/src/tensorflow_lite/tensorflow/lite/kernels/internal\types.h **** inline size_t ReducedOutputOffset(const int num_dims, const int* dims,
 376:C:/Renesas/e2studio_2021_01_workspace_RZA2M_ANPR/ANPR_RZA2M_RDK/src/tensorflow_lite/tensorflow/lite/kernels/internal\types.h ****                                   const int* index, const int num_axis,
 377:C:/Renesas/e2studio_2021_01_workspace_RZA2M_ANPR/ANPR_RZA2M_RDK/src/tensorflow_lite/tensorflow/lite/kernels/internal\types.h ****                                   const int* axis) {
 378:C:/Renesas/e2studio_2021_01_workspace_RZA2M_ANPR/ANPR_RZA2M_RDK/src/tensorflow_lite/tensorflow/lite/kernels/internal\types.h ****   if (num_dims == 0) {
 379:C:/Renesas/e2studio_2021_01_workspace_RZA2M_ANPR/ANPR_RZA2M_RDK/src/tensorflow_lite/tensorflow/lite/kernels/internal\types.h ****     return 0;
 380:C:/Renesas/e2studio_2021_01_workspace_RZA2M_ANPR/ANPR_RZA2M_RDK/src/tensorflow_lite/tensorflow/lite/kernels/internal\types.h ****   }
 381:C:/Renesas/e2studio_2021_01_workspace_RZA2M_ANPR/ANPR_RZA2M_RDK/src/tensorflow_lite/tensorflow/lite/kernels/internal\types.h ****   TFLITE_DCHECK(dims != nullptr);
 382:C:/Renesas/e2studio_2021_01_workspace_RZA2M_ANPR/ANPR_RZA2M_RDK/src/tensorflow_lite/tensorflow/lite/kernels/internal\types.h ****   TFLITE_DCHECK(index != nullptr);
 383:C:/Renesas/e2studio_2021_01_workspace_RZA2M_ANPR/ANPR_RZA2M_RDK/src/tensorflow_lite/tensorflow/lite/kernels/internal\types.h ****   size_t offset = 0;
 384:C:/Renesas/e2studio_2021_01_workspace_RZA2M_ANPR/ANPR_RZA2M_RDK/src/tensorflow_lite/tensorflow/lite/kernels/internal\types.h ****   for (int idx = 0; idx < num_dims; ++idx) {
 385:C:/Renesas/e2studio_2021_01_workspace_RZA2M_ANPR/ANPR_RZA2M_RDK/src/tensorflow_lite/tensorflow/lite/kernels/internal\types.h ****     // if we need to skip this axis
 386:C:/Renesas/e2studio_2021_01_workspace_RZA2M_ANPR/ANPR_RZA2M_RDK/src/tensorflow_lite/tensorflow/lite/kernels/internal\types.h ****     bool is_axis = false;
 387:C:/Renesas/e2studio_2021_01_workspace_RZA2M_ANPR/ANPR_RZA2M_RDK/src/tensorflow_lite/tensorflow/lite/kernels/internal\types.h ****     if (axis != nullptr) {
 388:C:/Renesas/e2studio_2021_01_workspace_RZA2M_ANPR/ANPR_RZA2M_RDK/src/tensorflow_lite/tensorflow/lite/kernels/internal\types.h ****       for (int axis_idx = 0; axis_idx < num_axis; ++axis_idx) {
 389:C:/Renesas/e2studio_2021_01_workspace_RZA2M_ANPR/ANPR_RZA2M_RDK/src/tensorflow_lite/tensorflow/lite/kernels/internal\types.h ****         if (idx == axis[axis_idx]) {
 390:C:/Renesas/e2studio_2021_01_workspace_RZA2M_ANPR/ANPR_RZA2M_RDK/src/tensorflow_lite/tensorflow/lite/kernels/internal\types.h ****           is_axis = true;
 391:C:/Renesas/e2studio_2021_01_workspace_RZA2M_ANPR/ANPR_RZA2M_RDK/src/tensorflow_lite/tensorflow/lite/kernels/internal\types.h ****           break;
 392:C:/Renesas/e2studio_2021_01_workspace_RZA2M_ANPR/ANPR_RZA2M_RDK/src/tensorflow_lite/tensorflow/lite/kernels/internal\types.h ****         }
 393:C:/Renesas/e2studio_2021_01_workspace_RZA2M_ANPR/ANPR_RZA2M_RDK/src/tensorflow_lite/tensorflow/lite/kernels/internal\types.h ****       }
 394:C:/Renesas/e2studio_2021_01_workspace_RZA2M_ANPR/ANPR_RZA2M_RDK/src/tensorflow_lite/tensorflow/lite/kernels/internal\types.h ****     }
 395:C:/Renesas/e2studio_2021_01_workspace_RZA2M_ANPR/ANPR_RZA2M_RDK/src/tensorflow_lite/tensorflow/lite/kernels/internal\types.h ****     if (!is_axis) {
 396:C:/Renesas/e2studio_2021_01_workspace_RZA2M_ANPR/ANPR_RZA2M_RDK/src/tensorflow_lite/tensorflow/lite/kernels/internal\types.h ****       offset = offset * static_cast<size_t>(dims[idx]) +
 397:C:/Renesas/e2studio_2021_01_workspace_RZA2M_ANPR/ANPR_RZA2M_RDK/src/tensorflow_lite/tensorflow/lite/kernels/internal\types.h ****                static_cast<size_t>(index[idx]);
 398:C:/Renesas/e2studio_2021_01_workspace_RZA2M_ANPR/ANPR_RZA2M_RDK/src/tensorflow_lite/tensorflow/lite/kernels/internal\types.h ****     }
 399:C:/Renesas/e2studio_2021_01_workspace_RZA2M_ANPR/ANPR_RZA2M_RDK/src/tensorflow_lite/tensorflow/lite/kernels/internal\types.h ****   }
 400:C:/Renesas/e2studio_2021_01_workspace_RZA2M_ANPR/ANPR_RZA2M_RDK/src/tensorflow_lite/tensorflow/lite/kernels/internal\types.h ****   return offset;
 401:C:/Renesas/e2studio_2021_01_workspace_RZA2M_ANPR/ANPR_RZA2M_RDK/src/tensorflow_lite/tensorflow/lite/kernels/internal\types.h **** }
 402:C:/Renesas/e2studio_2021_01_workspace_RZA2M_ANPR/ANPR_RZA2M_RDK/src/tensorflow_lite/tensorflow/lite/kernels/internal\types.h **** 
 403:C:/Renesas/e2studio_2021_01_workspace_RZA2M_ANPR/ANPR_RZA2M_RDK/src/tensorflow_lite/tensorflow/lite/kernels/internal\types.h **** inline int Offset(const RuntimeShape& shape, int i0, int i1, int i2, int i3) {
 404:C:/Renesas/e2studio_2021_01_workspace_RZA2M_ANPR/ANPR_RZA2M_RDK/src/tensorflow_lite/tensorflow/lite/kernels/internal\types.h ****   TFLITE_DCHECK_EQ(shape.DimensionsCount(), 4);
 405:C:/Renesas/e2studio_2021_01_workspace_RZA2M_ANPR/ANPR_RZA2M_RDK/src/tensorflow_lite/tensorflow/lite/kernels/internal\types.h ****   const int* dims_data = reinterpret_cast<const int*>(shape.DimsDataUpTo5D());
 406:C:/Renesas/e2studio_2021_01_workspace_RZA2M_ANPR/ANPR_RZA2M_RDK/src/tensorflow_lite/tensorflow/lite/kernels/internal\types.h ****   TFLITE_DCHECK(i0 >= 0 && i0 < dims_data[0]);
 407:C:/Renesas/e2studio_2021_01_workspace_RZA2M_ANPR/ANPR_RZA2M_RDK/src/tensorflow_lite/tensorflow/lite/kernels/internal\types.h ****   TFLITE_DCHECK(i1 >= 0 && i1 < dims_data[1]);
 408:C:/Renesas/e2studio_2021_01_workspace_RZA2M_ANPR/ANPR_RZA2M_RDK/src/tensorflow_lite/tensorflow/lite/kernels/internal\types.h ****   TFLITE_DCHECK(i2 >= 0 && i2 < dims_data[2]);
 409:C:/Renesas/e2studio_2021_01_workspace_RZA2M_ANPR/ANPR_RZA2M_RDK/src/tensorflow_lite/tensorflow/lite/kernels/internal\types.h ****   TFLITE_DCHECK(i3 >= 0 && i3 < dims_data[3]);
 410:C:/Renesas/e2studio_2021_01_workspace_RZA2M_ANPR/ANPR_RZA2M_RDK/src/tensorflow_lite/tensorflow/lite/kernels/internal\types.h ****   return ((i0 * dims_data[1] + i1) * dims_data[2] + i2) * dims_data[3] + i3;
 411:C:/Renesas/e2studio_2021_01_workspace_RZA2M_ANPR/ANPR_RZA2M_RDK/src/tensorflow_lite/tensorflow/lite/kernels/internal\types.h **** }
 412:C:/Renesas/e2studio_2021_01_workspace_RZA2M_ANPR/ANPR_RZA2M_RDK/src/tensorflow_lite/tensorflow/lite/kernels/internal\types.h **** 
 413:C:/Renesas/e2studio_2021_01_workspace_RZA2M_ANPR/ANPR_RZA2M_RDK/src/tensorflow_lite/tensorflow/lite/kernels/internal\types.h **** inline int Offset(const RuntimeShape& shape, int i0, int i1, int i2, int i3,
 414:C:/Renesas/e2studio_2021_01_workspace_RZA2M_ANPR/ANPR_RZA2M_RDK/src/tensorflow_lite/tensorflow/lite/kernels/internal\types.h ****                   int i4) {
 415:C:/Renesas/e2studio_2021_01_workspace_RZA2M_ANPR/ANPR_RZA2M_RDK/src/tensorflow_lite/tensorflow/lite/kernels/internal\types.h ****   TFLITE_DCHECK_EQ(shape.DimensionsCount(), 5);
 416:C:/Renesas/e2studio_2021_01_workspace_RZA2M_ANPR/ANPR_RZA2M_RDK/src/tensorflow_lite/tensorflow/lite/kernels/internal\types.h ****   const int* dims_data = reinterpret_cast<const int*>(shape.DimsDataUpTo5D());
 417:C:/Renesas/e2studio_2021_01_workspace_RZA2M_ANPR/ANPR_RZA2M_RDK/src/tensorflow_lite/tensorflow/lite/kernels/internal\types.h ****   TFLITE_DCHECK(i0 >= 0 && i0 < dims_data[0]);
 418:C:/Renesas/e2studio_2021_01_workspace_RZA2M_ANPR/ANPR_RZA2M_RDK/src/tensorflow_lite/tensorflow/lite/kernels/internal\types.h ****   TFLITE_DCHECK(i1 >= 0 && i1 < dims_data[1]);
 419:C:/Renesas/e2studio_2021_01_workspace_RZA2M_ANPR/ANPR_RZA2M_RDK/src/tensorflow_lite/tensorflow/lite/kernels/internal\types.h ****   TFLITE_DCHECK(i2 >= 0 && i2 < dims_data[2]);
 420:C:/Renesas/e2studio_2021_01_workspace_RZA2M_ANPR/ANPR_RZA2M_RDK/src/tensorflow_lite/tensorflow/lite/kernels/internal\types.h ****   TFLITE_DCHECK(i3 >= 0 && i3 < dims_data[3]);
 421:C:/Renesas/e2studio_2021_01_workspace_RZA2M_ANPR/ANPR_RZA2M_RDK/src/tensorflow_lite/tensorflow/lite/kernels/internal\types.h ****   TFLITE_DCHECK(i4 >= 0 && i4 < dims_data[4]);
 422:C:/Renesas/e2studio_2021_01_workspace_RZA2M_ANPR/ANPR_RZA2M_RDK/src/tensorflow_lite/tensorflow/lite/kernels/internal\types.h ****   return (((i0 * dims_data[1] + i1) * dims_data[2] + i2) * dims_data[3] + i3) *
 423:C:/Renesas/e2studio_2021_01_workspace_RZA2M_ANPR/ANPR_RZA2M_RDK/src/tensorflow_lite/tensorflow/lite/kernels/internal\types.h ****              dims_data[4] +
 424:C:/Renesas/e2studio_2021_01_workspace_RZA2M_ANPR/ANPR_RZA2M_RDK/src/tensorflow_lite/tensorflow/lite/kernels/internal\types.h ****          i4;
 425:C:/Renesas/e2studio_2021_01_workspace_RZA2M_ANPR/ANPR_RZA2M_RDK/src/tensorflow_lite/tensorflow/lite/kernels/internal\types.h **** }
 426:C:/Renesas/e2studio_2021_01_workspace_RZA2M_ANPR/ANPR_RZA2M_RDK/src/tensorflow_lite/tensorflow/lite/kernels/internal\types.h **** 
 427:C:/Renesas/e2studio_2021_01_workspace_RZA2M_ANPR/ANPR_RZA2M_RDK/src/tensorflow_lite/tensorflow/lite/kernels/internal\types.h **** inline int Offset(const Dims<4>& dims, int i0, int i1, int i2, int i3) {
 428:C:/Renesas/e2studio_2021_01_workspace_RZA2M_ANPR/ANPR_RZA2M_RDK/src/tensorflow_lite/tensorflow/lite/kernels/internal\types.h ****   TFLITE_DCHECK(i0 >= 0 && i0 < dims.sizes[0]);
 429:C:/Renesas/e2studio_2021_01_workspace_RZA2M_ANPR/ANPR_RZA2M_RDK/src/tensorflow_lite/tensorflow/lite/kernels/internal\types.h ****   TFLITE_DCHECK(i1 >= 0 && i1 < dims.sizes[1]);
 430:C:/Renesas/e2studio_2021_01_workspace_RZA2M_ANPR/ANPR_RZA2M_RDK/src/tensorflow_lite/tensorflow/lite/kernels/internal\types.h ****   TFLITE_DCHECK(i2 >= 0 && i2 < dims.sizes[2]);
 431:C:/Renesas/e2studio_2021_01_workspace_RZA2M_ANPR/ANPR_RZA2M_RDK/src/tensorflow_lite/tensorflow/lite/kernels/internal\types.h ****   TFLITE_DCHECK(i3 >= 0 && i3 < dims.sizes[3]);
 432:C:/Renesas/e2studio_2021_01_workspace_RZA2M_ANPR/ANPR_RZA2M_RDK/src/tensorflow_lite/tensorflow/lite/kernels/internal\types.h ****   return i0 * dims.strides[0] + i1 * dims.strides[1] + i2 * dims.strides[2] +
 433:C:/Renesas/e2studio_2021_01_workspace_RZA2M_ANPR/ANPR_RZA2M_RDK/src/tensorflow_lite/tensorflow/lite/kernels/internal\types.h ****          i3 * dims.strides[3];
 434:C:/Renesas/e2studio_2021_01_workspace_RZA2M_ANPR/ANPR_RZA2M_RDK/src/tensorflow_lite/tensorflow/lite/kernels/internal\types.h **** }
 435:C:/Renesas/e2studio_2021_01_workspace_RZA2M_ANPR/ANPR_RZA2M_RDK/src/tensorflow_lite/tensorflow/lite/kernels/internal\types.h **** 
 436:C:/Renesas/e2studio_2021_01_workspace_RZA2M_ANPR/ANPR_RZA2M_RDK/src/tensorflow_lite/tensorflow/lite/kernels/internal\types.h **** inline int Offset(const Dims<4>& dims, int* index) {
 437:C:/Renesas/e2studio_2021_01_workspace_RZA2M_ANPR/ANPR_RZA2M_RDK/src/tensorflow_lite/tensorflow/lite/kernels/internal\types.h ****   return Offset(dims, index[0], index[1], index[2], index[3]);
 438:C:/Renesas/e2studio_2021_01_workspace_RZA2M_ANPR/ANPR_RZA2M_RDK/src/tensorflow_lite/tensorflow/lite/kernels/internal\types.h **** }
 439:C:/Renesas/e2studio_2021_01_workspace_RZA2M_ANPR/ANPR_RZA2M_RDK/src/tensorflow_lite/tensorflow/lite/kernels/internal\types.h **** 
 440:C:/Renesas/e2studio_2021_01_workspace_RZA2M_ANPR/ANPR_RZA2M_RDK/src/tensorflow_lite/tensorflow/lite/kernels/internal\types.h **** inline int Offset(const RuntimeShape& shape, int* index) {
 441:C:/Renesas/e2studio_2021_01_workspace_RZA2M_ANPR/ANPR_RZA2M_RDK/src/tensorflow_lite/tensorflow/lite/kernels/internal\types.h ****   return Offset(shape, index[0], index[1], index[2], index[3]);
 442:C:/Renesas/e2studio_2021_01_workspace_RZA2M_ANPR/ANPR_RZA2M_RDK/src/tensorflow_lite/tensorflow/lite/kernels/internal\types.h **** }
 443:C:/Renesas/e2studio_2021_01_workspace_RZA2M_ANPR/ANPR_RZA2M_RDK/src/tensorflow_lite/tensorflow/lite/kernels/internal\types.h **** 
 444:C:/Renesas/e2studio_2021_01_workspace_RZA2M_ANPR/ANPR_RZA2M_RDK/src/tensorflow_lite/tensorflow/lite/kernels/internal\types.h **** // Get array size, DCHECKing that the dim index is in range.
 445:C:/Renesas/e2studio_2021_01_workspace_RZA2M_ANPR/ANPR_RZA2M_RDK/src/tensorflow_lite/tensorflow/lite/kernels/internal\types.h **** //
 446:C:/Renesas/e2studio_2021_01_workspace_RZA2M_ANPR/ANPR_RZA2M_RDK/src/tensorflow_lite/tensorflow/lite/kernels/internal\types.h **** // Note that this will be phased out with Dims<4>, since RuntimeShape::Dims()
 447:C:/Renesas/e2studio_2021_01_workspace_RZA2M_ANPR/ANPR_RZA2M_RDK/src/tensorflow_lite/tensorflow/lite/kernels/internal\types.h **** // already performs this check.
 448:C:/Renesas/e2studio_2021_01_workspace_RZA2M_ANPR/ANPR_RZA2M_RDK/src/tensorflow_lite/tensorflow/lite/kernels/internal\types.h **** template <int N>
 449:C:/Renesas/e2studio_2021_01_workspace_RZA2M_ANPR/ANPR_RZA2M_RDK/src/tensorflow_lite/tensorflow/lite/kernels/internal\types.h **** int ArraySize(const Dims<N>& array, int index) {
 450:C:/Renesas/e2studio_2021_01_workspace_RZA2M_ANPR/ANPR_RZA2M_RDK/src/tensorflow_lite/tensorflow/lite/kernels/internal\types.h ****   TFLITE_DCHECK(index >= 0 && index < N);
 451:C:/Renesas/e2studio_2021_01_workspace_RZA2M_ANPR/ANPR_RZA2M_RDK/src/tensorflow_lite/tensorflow/lite/kernels/internal\types.h ****   return array.sizes[index];
 452:C:/Renesas/e2studio_2021_01_workspace_RZA2M_ANPR/ANPR_RZA2M_RDK/src/tensorflow_lite/tensorflow/lite/kernels/internal\types.h **** }
 453:C:/Renesas/e2studio_2021_01_workspace_RZA2M_ANPR/ANPR_RZA2M_RDK/src/tensorflow_lite/tensorflow/lite/kernels/internal\types.h **** 
 454:C:/Renesas/e2studio_2021_01_workspace_RZA2M_ANPR/ANPR_RZA2M_RDK/src/tensorflow_lite/tensorflow/lite/kernels/internal\types.h **** // Get common array size, DCHECKing that they all agree.
 455:C:/Renesas/e2studio_2021_01_workspace_RZA2M_ANPR/ANPR_RZA2M_RDK/src/tensorflow_lite/tensorflow/lite/kernels/internal\types.h **** template <typename ArrayType1, typename ArrayType2>
 456:C:/Renesas/e2studio_2021_01_workspace_RZA2M_ANPR/ANPR_RZA2M_RDK/src/tensorflow_lite/tensorflow/lite/kernels/internal\types.h **** int MatchingArraySize(const ArrayType1& array1, int index1,
 457:C:/Renesas/e2studio_2021_01_workspace_RZA2M_ANPR/ANPR_RZA2M_RDK/src/tensorflow_lite/tensorflow/lite/kernels/internal\types.h ****                       const ArrayType2& array2, int index2) {
 458:C:/Renesas/e2studio_2021_01_workspace_RZA2M_ANPR/ANPR_RZA2M_RDK/src/tensorflow_lite/tensorflow/lite/kernels/internal\types.h ****   TFLITE_DCHECK_EQ(ArraySize(array1, index1), ArraySize(array2, index2));
 459:C:/Renesas/e2studio_2021_01_workspace_RZA2M_ANPR/ANPR_RZA2M_RDK/src/tensorflow_lite/tensorflow/lite/kernels/internal\types.h ****   return ArraySize(array1, index1);
 460:C:/Renesas/e2studio_2021_01_workspace_RZA2M_ANPR/ANPR_RZA2M_RDK/src/tensorflow_lite/tensorflow/lite/kernels/internal\types.h **** }
 461:C:/Renesas/e2studio_2021_01_workspace_RZA2M_ANPR/ANPR_RZA2M_RDK/src/tensorflow_lite/tensorflow/lite/kernels/internal\types.h **** 
 462:C:/Renesas/e2studio_2021_01_workspace_RZA2M_ANPR/ANPR_RZA2M_RDK/src/tensorflow_lite/tensorflow/lite/kernels/internal\types.h **** template <typename ArrayType1, typename ArrayType2, typename... Args>
 463:C:/Renesas/e2studio_2021_01_workspace_RZA2M_ANPR/ANPR_RZA2M_RDK/src/tensorflow_lite/tensorflow/lite/kernels/internal\types.h **** int MatchingArraySize(const ArrayType1& array1, int index1,
 464:C:/Renesas/e2studio_2021_01_workspace_RZA2M_ANPR/ANPR_RZA2M_RDK/src/tensorflow_lite/tensorflow/lite/kernels/internal\types.h ****                       const ArrayType2& array2, int index2, Args... args) {
 465:C:/Renesas/e2studio_2021_01_workspace_RZA2M_ANPR/ANPR_RZA2M_RDK/src/tensorflow_lite/tensorflow/lite/kernels/internal\types.h ****   TFLITE_DCHECK_EQ(ArraySize(array1, index1), ArraySize(array2, index2));
 466:C:/Renesas/e2studio_2021_01_workspace_RZA2M_ANPR/ANPR_RZA2M_RDK/src/tensorflow_lite/tensorflow/lite/kernels/internal\types.h ****   return MatchingArraySize(array1, index1, args...);
 467:C:/Renesas/e2studio_2021_01_workspace_RZA2M_ANPR/ANPR_RZA2M_RDK/src/tensorflow_lite/tensorflow/lite/kernels/internal\types.h **** }
 468:C:/Renesas/e2studio_2021_01_workspace_RZA2M_ANPR/ANPR_RZA2M_RDK/src/tensorflow_lite/tensorflow/lite/kernels/internal\types.h **** 
 469:C:/Renesas/e2studio_2021_01_workspace_RZA2M_ANPR/ANPR_RZA2M_RDK/src/tensorflow_lite/tensorflow/lite/kernels/internal\types.h **** // Get common shape dim, DCHECKing that they all agree.
 470:C:/Renesas/e2studio_2021_01_workspace_RZA2M_ANPR/ANPR_RZA2M_RDK/src/tensorflow_lite/tensorflow/lite/kernels/internal\types.h **** inline int MatchingDim(const RuntimeShape& shape1, int index1,
 471:C:/Renesas/e2studio_2021_01_workspace_RZA2M_ANPR/ANPR_RZA2M_RDK/src/tensorflow_lite/tensorflow/lite/kernels/internal\types.h ****                        const RuntimeShape& shape2, int index2) {
 472:C:/Renesas/e2studio_2021_01_workspace_RZA2M_ANPR/ANPR_RZA2M_RDK/src/tensorflow_lite/tensorflow/lite/kernels/internal\types.h ****   TFLITE_DCHECK_EQ(shape1.Dims(index1), shape2.Dims(index2));
 814              		.loc 6 472 0
 815 0128 020053E1 		cmp	r3, r2
 816              	.LBB705:
 817              	.LBB703:
 216:C:/Renesas/e2studio_2021_01_workspace_RZA2M_ANPR/ANPR_RZA2M_RDK/src/tensorflow_lite/tensorflow/lite/kernels/internal\types.h ****   }
 818              		.loc 6 216 0
 819 012c 10208DE5 		str	r2, [sp, #16]
 820              	.LVL90:
 821              	.LBE703:
 822              	.LBE705:
 823              		.loc 6 472 0
 824 0130 1A03001A 		bne	.L287
 825              	.LVL91:
 826              	.LBE697:
 827              	.LBE696:
 828              	.LBB707:
 829              	.LBB708:
 830              	.LBB709:
 831              	.LBB710:
 216:C:/Renesas/e2studio_2021_01_workspace_RZA2M_ANPR/ANPR_RZA2M_RDK/src/tensorflow_lite/tensorflow/lite/kernels/internal\types.h ****   }
 832              		.loc 6 216 0
 833 0134 90B09DE5 		ldr	fp, [sp, #144]
 834              	.LVL92:
 835              	.LBE710:
 836              	.LBE709:
 837              	.LBB711:
 838              	.LBB712:
 839 0138 A8809DE5 		ldr	r8, [sp, #168]
 840              	.LVL93:
 841              	.LBE712:
 842              	.LBE711:
 843              		.loc 6 472 0
 844 013c 08005BE1 		cmp	fp, r8
 845 0140 2A03001A 		bne	.L288
 846              	.LVL94:
 847              	.LBE708:
 848              	.LBE707:
 849              	.LBB714:
  32:C:/Renesas/e2studio_2021_01_workspace_RZA2M_ANPR/ANPR_RZA2M_RDK/src/tensorflow_lite/tensorflow/lite/kernels/internal/reference\pooling.h ****   const int batches = MatchingDim(input_shape, 0, output_shape, 0);
  33:C:/Renesas/e2studio_2021_01_workspace_RZA2M_ANPR/ANPR_RZA2M_RDK/src/tensorflow_lite/tensorflow/lite/kernels/internal/reference\pooling.h ****   const int depth = MatchingDim(input_shape, 3, output_shape, 3);
  34:C:/Renesas/e2studio_2021_01_workspace_RZA2M_ANPR/ANPR_RZA2M_RDK/src/tensorflow_lite/tensorflow/lite/kernels/internal/reference\pooling.h ****   const int input_height = input_shape.Dims(1);
  35:C:/Renesas/e2studio_2021_01_workspace_RZA2M_ANPR/ANPR_RZA2M_RDK/src/tensorflow_lite/tensorflow/lite/kernels/internal/reference\pooling.h ****   const int input_width = input_shape.Dims(2);
  36:C:/Renesas/e2studio_2021_01_workspace_RZA2M_ANPR/ANPR_RZA2M_RDK/src/tensorflow_lite/tensorflow/lite/kernels/internal/reference\pooling.h ****   const int output_height = output_shape.Dims(1);
  37:C:/Renesas/e2studio_2021_01_workspace_RZA2M_ANPR/ANPR_RZA2M_RDK/src/tensorflow_lite/tensorflow/lite/kernels/internal/reference\pooling.h ****   const int output_width = output_shape.Dims(2);
  38:C:/Renesas/e2studio_2021_01_workspace_RZA2M_ANPR/ANPR_RZA2M_RDK/src/tensorflow_lite/tensorflow/lite/kernels/internal/reference\pooling.h ****   const int stride_height = params.stride_height;
  39:C:/Renesas/e2studio_2021_01_workspace_RZA2M_ANPR/ANPR_RZA2M_RDK/src/tensorflow_lite/tensorflow/lite/kernels/internal/reference\pooling.h ****   const int stride_width = params.stride_width;
  40:C:/Renesas/e2studio_2021_01_workspace_RZA2M_ANPR/ANPR_RZA2M_RDK/src/tensorflow_lite/tensorflow/lite/kernels/internal/reference\pooling.h ****   for (int batch = 0; batch < batches; ++batch) {
 850              		.loc 5 40 0
 851 0144 000053E3 		cmp	r3, #0
 852              	.LBE714:
 853              	.LBB777:
 854              	.LBB778:
 216:C:/Renesas/e2studio_2021_01_workspace_RZA2M_ANPR/ANPR_RZA2M_RDK/src/tensorflow_lite/tensorflow/lite/kernels/internal\types.h ****   }
 855              		.loc 6 216 0
 856 0148 88309DE5 		ldr	r3, [sp, #136]
 857              	.LBE778:
 858              	.LBE777:
 859              	.LBB780:
 860              	.LBB781:
 861 014c 8CA09DE5 		ldr	r10, [sp, #140]
 862              	.LBE781:
 863              	.LBE780:
 864              	.LBB782:
 865              	.LBB779:
 866 0150 08308DE5 		str	r3, [sp, #8]
 867              	.LVL95:
 868              	.LBE779:
 869              	.LBE782:
 870              	.LBB783:
 871              	.LBB784:
 872 0154 A0309DE5 		ldr	r3, [sp, #160]
 873 0158 1C308DE5 		str	r3, [sp, #28]
 874              	.LVL96:
 875              	.LBE784:
 876              	.LBE783:
 877              	.LBB785:
 878              	.LBB786:
 879 015c A4309DE5 		ldr	r3, [sp, #164]
 880 0160 20308DE5 		str	r3, [sp, #32]
 881              	.LVL97:
 882              	.LBE786:
 883              	.LBE785:
 884              	.LBB787:
 885              		.loc 5 40 0
 886 0164 D00000DA 		ble	.L133
 887 0168 1C109DE5 		ldr	r1, [sp, #28]
 888 016c 0320A0E1 		mov	r2, r3
 889 0170 9B0202E0 		mul	r2, fp, r2
 890 0174 0B01A0E1 		lsl	r0, fp, #2
 891              	.LBB715:
 892              	.LBB716:
 893              	.LBB717:
 894              	.LBB718:
 895              	.LBB719:
 896              	.LBB720:
 897              	.LBB721:
  41:C:/Renesas/e2studio_2021_01_workspace_RZA2M_ANPR/ANPR_RZA2M_RDK/src/tensorflow_lite/tensorflow/lite/kernels/internal/reference\pooling.h ****     for (int out_y = 0; out_y < output_height; ++out_y) {
  42:C:/Renesas/e2studio_2021_01_workspace_RZA2M_ANPR/ANPR_RZA2M_RDK/src/tensorflow_lite/tensorflow/lite/kernels/internal/reference\pooling.h ****       for (int out_x = 0; out_x < output_width; ++out_x) {
  43:C:/Renesas/e2studio_2021_01_workspace_RZA2M_ANPR/ANPR_RZA2M_RDK/src/tensorflow_lite/tensorflow/lite/kernels/internal/reference\pooling.h ****         for (int channel = 0; channel < depth; ++channel) {
  44:C:/Renesas/e2studio_2021_01_workspace_RZA2M_ANPR/ANPR_RZA2M_RDK/src/tensorflow_lite/tensorflow/lite/kernels/internal/reference\pooling.h ****           const int in_x_origin =
  45:C:/Renesas/e2studio_2021_01_workspace_RZA2M_ANPR/ANPR_RZA2M_RDK/src/tensorflow_lite/tensorflow/lite/kernels/internal/reference\pooling.h ****               (out_x * stride_width) - params.padding_values.width;
  46:C:/Renesas/e2studio_2021_01_workspace_RZA2M_ANPR/ANPR_RZA2M_RDK/src/tensorflow_lite/tensorflow/lite/kernels/internal/reference\pooling.h ****           const int in_y_origin =
  47:C:/Renesas/e2studio_2021_01_workspace_RZA2M_ANPR/ANPR_RZA2M_RDK/src/tensorflow_lite/tensorflow/lite/kernels/internal/reference\pooling.h ****               (out_y * stride_height) - params.padding_values.height;
  48:C:/Renesas/e2studio_2021_01_workspace_RZA2M_ANPR/ANPR_RZA2M_RDK/src/tensorflow_lite/tensorflow/lite/kernels/internal/reference\pooling.h ****           // Compute the boundaries of the filter region clamped so as to
  49:C:/Renesas/e2studio_2021_01_workspace_RZA2M_ANPR/ANPR_RZA2M_RDK/src/tensorflow_lite/tensorflow/lite/kernels/internal/reference\pooling.h ****           // ensure that the filter window fits in the input array.
  50:C:/Renesas/e2studio_2021_01_workspace_RZA2M_ANPR/ANPR_RZA2M_RDK/src/tensorflow_lite/tensorflow/lite/kernels/internal/reference\pooling.h ****           const int filter_x_start = std::max(0, -in_x_origin);
  51:C:/Renesas/e2studio_2021_01_workspace_RZA2M_ANPR/ANPR_RZA2M_RDK/src/tensorflow_lite/tensorflow/lite/kernels/internal/reference\pooling.h ****           const int filter_x_end =
  52:C:/Renesas/e2studio_2021_01_workspace_RZA2M_ANPR/ANPR_RZA2M_RDK/src/tensorflow_lite/tensorflow/lite/kernels/internal/reference\pooling.h ****               std::min(params.filter_width, input_width - in_x_origin);
  53:C:/Renesas/e2studio_2021_01_workspace_RZA2M_ANPR/ANPR_RZA2M_RDK/src/tensorflow_lite/tensorflow/lite/kernels/internal/reference\pooling.h ****           const int filter_y_start = std::max(0, -in_y_origin);
  54:C:/Renesas/e2studio_2021_01_workspace_RZA2M_ANPR/ANPR_RZA2M_RDK/src/tensorflow_lite/tensorflow/lite/kernels/internal/reference\pooling.h ****           const int filter_y_end =
  55:C:/Renesas/e2studio_2021_01_workspace_RZA2M_ANPR/ANPR_RZA2M_RDK/src/tensorflow_lite/tensorflow/lite/kernels/internal/reference\pooling.h ****               std::min(params.filter_height, input_height - in_y_origin);
  56:C:/Renesas/e2studio_2021_01_workspace_RZA2M_ANPR/ANPR_RZA2M_RDK/src/tensorflow_lite/tensorflow/lite/kernels/internal/reference\pooling.h ****           float total = 0.f;
  57:C:/Renesas/e2studio_2021_01_workspace_RZA2M_ANPR/ANPR_RZA2M_RDK/src/tensorflow_lite/tensorflow/lite/kernels/internal/reference\pooling.h ****           float filter_count = 0;
  58:C:/Renesas/e2studio_2021_01_workspace_RZA2M_ANPR/ANPR_RZA2M_RDK/src/tensorflow_lite/tensorflow/lite/kernels/internal/reference\pooling.h ****           for (int filter_y = filter_y_start; filter_y < filter_y_end;
  59:C:/Renesas/e2studio_2021_01_workspace_RZA2M_ANPR/ANPR_RZA2M_RDK/src/tensorflow_lite/tensorflow/lite/kernels/internal/reference\pooling.h ****                ++filter_y) {
  60:C:/Renesas/e2studio_2021_01_workspace_RZA2M_ANPR/ANPR_RZA2M_RDK/src/tensorflow_lite/tensorflow/lite/kernels/internal/reference\pooling.h ****             for (int filter_x = filter_x_start; filter_x < filter_x_end;
  61:C:/Renesas/e2studio_2021_01_workspace_RZA2M_ANPR/ANPR_RZA2M_RDK/src/tensorflow_lite/tensorflow/lite/kernels/internal/reference\pooling.h ****                  ++filter_x) {
  62:C:/Renesas/e2studio_2021_01_workspace_RZA2M_ANPR/ANPR_RZA2M_RDK/src/tensorflow_lite/tensorflow/lite/kernels/internal/reference\pooling.h ****               const int in_x = in_x_origin + filter_x;
  63:C:/Renesas/e2studio_2021_01_workspace_RZA2M_ANPR/ANPR_RZA2M_RDK/src/tensorflow_lite/tensorflow/lite/kernels/internal/reference\pooling.h ****               const int in_y = in_y_origin + filter_y;
  64:C:/Renesas/e2studio_2021_01_workspace_RZA2M_ANPR/ANPR_RZA2M_RDK/src/tensorflow_lite/tensorflow/lite/kernels/internal/reference\pooling.h ****               total +=
  65:C:/Renesas/e2studio_2021_01_workspace_RZA2M_ANPR/ANPR_RZA2M_RDK/src/tensorflow_lite/tensorflow/lite/kernels/internal/reference\pooling.h ****                   input_data[Offset(input_shape, batch, in_y, in_x, channel)];
  66:C:/Renesas/e2studio_2021_01_workspace_RZA2M_ANPR/ANPR_RZA2M_RDK/src/tensorflow_lite/tensorflow/lite/kernels/internal/reference\pooling.h ****               filter_count++;
 898              		.loc 5 66 0
 899 0178 006AB7EE 		vmov.f32	s12, #1.0e+0
 900 017c 7C008DE5 		str	r0, [sp, #124]
 901 0180 930103E0 		mul	r3, r3, r1
 902              	.LBE721:
 903              	.LBE720:
 904              	.LBE719:
 905              	.LBE718:
 906              	.LBE717:
 907              	.LBE716:
 908              	.LBE715:
  40:C:/Renesas/e2studio_2021_01_workspace_RZA2M_ANPR/ANPR_RZA2M_RDK/src/tensorflow_lite/tensorflow/lite/kernels/internal/reference\pooling.h ****     for (int out_y = 0; out_y < output_height; ++out_y) {
 909              		.loc 5 40 0
 910 0184 0010A0E3 		mov	r1, #0
 911 0188 50108DE5 		str	r1, [sp, #80]
 912 018c 4C408DE5 		str	r4, [sp, #76]
 913 0190 04108DE5 		str	r1, [sp, #4]
 914 0194 0331A0E1 		lsl	r3, r3, #2
 915 0198 9B0303E0 		mul	r3, fp, r3
 916 019c 78308DE5 		str	r3, [sp, #120]
 917 01a0 0231A0E1 		lsl	r3, r2, #2
 918 01a4 0B20A0E1 		mov	r2, fp
 919 01a8 74308DE5 		str	r3, [sp, #116]
 920 01ac 0A30A0E1 		mov	r3, r10
 921 01b0 09B0A0E1 		mov	fp, r9
 922 01b4 08A0A0E1 		mov	r10, r8
 923 01b8 0290A0E1 		mov	r9, r2
 924              	.LVL98:
 925 01bc 0380A0E1 		mov	r8, r3
 926              	.LVL99:
 927              	.L63:
 928              	.LBB772:
  41:C:/Renesas/e2studio_2021_01_workspace_RZA2M_ANPR/ANPR_RZA2M_RDK/src/tensorflow_lite/tensorflow/lite/kernels/internal/reference\pooling.h ****     for (int out_y = 0; out_y < output_height; ++out_y) {
 929              		.loc 5 41 0
 930 01c0 1C309DE5 		ldr	r3, [sp, #28]
 931 01c4 000053E3 		cmp	r3, #0
 932 01c8 A90000DA 		ble	.L65
 933 01cc 64309DE5 		ldr	r3, [sp, #100]
 934 01d0 002063E2 		rsb	r2, r3, #0
 935 01d4 18208DE5 		str	r2, [sp, #24]
 936 01d8 08209DE5 		ldr	r2, [sp, #8]
 937 01dc 023083E0 		add	r3, r3, r2
 938 01e0 48308DE5 		str	r3, [sp, #72]
 939 01e4 4C309DE5 		ldr	r3, [sp, #76]
 940 01e8 54308DE5 		str	r3, [sp, #84]
 941 01ec 0030A0E3 		mov	r3, #0
 942 01f0 38308DE5 		str	r3, [sp, #56]
 943              	.LVL100:
 944              	.L66:
 945              	.LBB767:
  42:C:/Renesas/e2studio_2021_01_workspace_RZA2M_ANPR/ANPR_RZA2M_RDK/src/tensorflow_lite/tensorflow/lite/kernels/internal/reference\pooling.h ****         for (int channel = 0; channel < depth; ++channel) {
 946              		.loc 5 42 0
 947 01f4 20309DE5 		ldr	r3, [sp, #32]
 948 01f8 000053E3 		cmp	r3, #0
 949 01fc 8B0000DA 		ble	.L68
 950 0200 18109DE5 		ldr	r1, [sp, #24]
 951 0204 50C09DE5 		ldr	ip, [sp, #80]
 952 0208 60009DE5 		ldr	r0, [sp, #96]
 953 020c 48209DE5 		ldr	r2, [sp, #72]
 954 0210 0C3081E0 		add	r3, r1, ip
 955 0214 08C09DE5 		ldr	ip, [sp, #8]
 956 0218 000052E1 		cmp	r2, r0
 957 021c 0200A0B1 		movlt	r0, r2
 958 0220 000051E3 		cmp	r1, #0
 959 0224 0C2042B0 		sublt	r2, r2, ip
 960 0228 0020A0A3 		movge	r2, #0
 961 022c 011080E0 		add	r1, r0, r1
 962 0230 023083E0 		add	r3, r3, r2
 963 0234 28208DE5 		str	r2, [sp, #40]
 964 0238 980303E0 		mul	r3, r8, r3
 965 023c 68209DE5 		ldr	r2, [sp, #104]
 966 0240 0C108DE5 		str	r1, [sp, #12]
 967 0244 2C008DE5 		str	r0, [sp, #44]
 968 0248 021088E0 		add	r1, r8, r2
 969 024c 5C308DE5 		str	r3, [sp, #92]
 970 0250 003062E2 		rsb	r3, r2, #0
 971 0254 3C308DE5 		str	r3, [sp, #60]
 972 0258 54309DE5 		ldr	r3, [sp, #84]
 973 025c 40108DE5 		str	r1, [sp, #64]
 974 0260 44308DE5 		str	r3, [sp, #68]
 975 0264 0030A0E3 		mov	r3, #0
 976 0268 34308DE5 		str	r3, [sp, #52]
 977              	.LVL101:
 978              	.L69:
 979              	.LBB762:
  43:C:/Renesas/e2studio_2021_01_workspace_RZA2M_ANPR/ANPR_RZA2M_RDK/src/tensorflow_lite/tensorflow/lite/kernels/internal/reference\pooling.h ****           const int in_x_origin =
 980              		.loc 5 43 0
 981 026c 000059E3 		cmp	r9, #0
 982 0270 5D0000DA 		ble	.L87
 983 0274 40309DE5 		ldr	r3, [sp, #64]
 984              	.LBB755:
 985              	.LBB733:
 986              	.LBB730:
 987              	.LBB726:
  62:C:/Renesas/e2studio_2021_01_workspace_RZA2M_ANPR/ANPR_RZA2M_RDK/src/tensorflow_lite/tensorflow/lite/kernels/internal/reference\pooling.h ****               const int in_y = in_y_origin + filter_y;
 988              		.loc 5 62 0
 989 0278 0000A0E3 		mov	r0, #0
 990 027c 58109DE5 		ldr	r1, [sp, #88]
 991 0280 3C209DE5 		ldr	r2, [sp, #60]
 992 0284 010053E1 		cmp	r3, r1
 993 0288 0370A0B1 		movlt	r7, r3
 994 028c 0170A0A1 		movge	r7, r1
 995 0290 000052E3 		cmp	r2, #0
 996 0294 01C042E2 		sub	ip, r2, #1
 997 0298 086043B0 		sublt	r6, r3, r8
 998 029c 0060A0A3 		movge	r6, #0
 999 02a0 44309DE5 		ldr	r3, [sp, #68]
 1000 02a4 025086E0 		add	r5, r6, r2
 1001 02a8 07C08CE0 		add	ip, ip, r7
 1002 02ac 14308DE5 		str	r3, [sp, #20]
 1003 02b0 5C309DE5 		ldr	r3, [sp, #92]
 1004 02b4 053083E0 		add	r3, r3, r5
 1005 02b8 30308DE5 		str	r3, [sp, #48]
 1006              	.LVL102:
 1007              	.L88:
 1008              	.LBE726:
 1009              	.LBE730:
  58:C:/Renesas/e2studio_2021_01_workspace_RZA2M_ANPR/ANPR_RZA2M_RDK/src/tensorflow_lite/tensorflow/lite/kernels/internal/reference\pooling.h ****                ++filter_y) {
 1010              		.loc 5 58 0
 1011 02bc 28309DE5 		ldr	r3, [sp, #40]
 1012 02c0 2C209DE5 		ldr	r2, [sp, #44]
 1013              	.LBE733:
  57:C:/Renesas/e2studio_2021_01_workspace_RZA2M_ANPR/ANPR_RZA2M_RDK/src/tensorflow_lite/tensorflow/lite/kernels/internal/reference\pooling.h ****           for (int filter_y = filter_y_start; filter_y < filter_y_end;
 1014              		.loc 5 57 0
 1015 02c4 7A7ADFED 		vldr.32	s15, .L318
 1016              	.LBB734:
  58:C:/Renesas/e2studio_2021_01_workspace_RZA2M_ANPR/ANPR_RZA2M_RDK/src/tensorflow_lite/tensorflow/lite/kernels/internal/reference\pooling.h ****                ++filter_y) {
 1017              		.loc 5 58 0
 1018 02c8 020053E1 		cmp	r3, r2
 1019 02cc 810100AA 		bge	.L188
 1020 02d0 18209DE5 		ldr	r2, [sp, #24]
 1021 02d4 30409DE5 		ldr	r4, [sp, #48]
 1022 02d8 677AB0EE 		vmov.f32	s14, s15
 1023 02dc 03E082E0 		add	lr, r2, r3
 1024              	.LVL103:
 1025              	.L80:
 1026              	.LBB731:
  60:C:/Renesas/e2studio_2021_01_workspace_RZA2M_ANPR/ANPR_RZA2M_RDK/src/tensorflow_lite/tensorflow/lite/kernels/internal/reference\pooling.h ****                  ++filter_x) {
 1027              		.loc 5 60 0
 1028 02e0 070056E1 		cmp	r6, r7
 1029 02e4 1F0000AA 		bge	.L71
 1030              	.LVL104:
 1031              	.LBB727:
 1032              	.LBB722:
 1033              	.LBB723:
 406:C:/Renesas/e2studio_2021_01_workspace_RZA2M_ANPR/ANPR_RZA2M_RDK/src/tensorflow_lite/tensorflow/lite/kernels/internal\types.h ****   TFLITE_DCHECK(i1 >= 0 && i1 < dims_data[1]);
 1034              		.loc 6 406 0
 1035 02e8 10309DE5 		ldr	r3, [sp, #16]
 1036 02ec 04209DE5 		ldr	r2, [sp, #4]
 1037 02f0 020053E1 		cmp	r3, r2
 1038 02f4 800200DA 		ble	.L72
 407:C:/Renesas/e2studio_2021_01_workspace_RZA2M_ANPR/ANPR_RZA2M_RDK/src/tensorflow_lite/tensorflow/lite/kernels/internal\types.h ****   TFLITE_DCHECK(i2 >= 0 && i2 < dims_data[2]);
 1039              		.loc 6 407 0
 1040 02f8 00005EE3 		cmp	lr, #0
 1041 02fc 7D0200BA 		blt	.L73
 1042 0300 08309DE5 		ldr	r3, [sp, #8]
 1043 0304 0E0053E1 		cmp	r3, lr
 1044 0308 7A0200DA 		ble	.L73
 408:C:/Renesas/e2studio_2021_01_workspace_RZA2M_ANPR/ANPR_RZA2M_RDK/src/tensorflow_lite/tensorflow/lite/kernels/internal\types.h ****   TFLITE_DCHECK(i3 >= 0 && i3 < dims_data[3]);
 1045              		.loc 6 408 0
 1046 030c 000055E3 		cmp	r5, #0
 1047 0310 770200BA 		blt	.L74
 1048 0314 050058E1 		cmp	r8, r5
 1049 0318 750200DA 		ble	.L74
 409:C:/Renesas/e2studio_2021_01_workspace_RZA2M_ANPR/ANPR_RZA2M_RDK/src/tensorflow_lite/tensorflow/lite/kernels/internal\types.h ****   return ((i0 * dims_data[1] + i1) * dims_data[2] + i2) * dims_data[3] + i3;
 1050              		.loc 6 409 0
 1051 031c 00005AE1 		cmp	r10, r0
 1052 0320 720200DA 		ble	.L289
 1053 0324 0520A0E1 		mov	r2, r5
 1054 0328 0410A0E1 		mov	r1, r4
 1055 032c 0930A0E1 		mov	r3, r9
 1056 0330 050000EA 		b	.L78
 1057              	.LVL105:
 1058              	.L79:
 408:C:/Renesas/e2studio_2021_01_workspace_RZA2M_ANPR/ANPR_RZA2M_RDK/src/tensorflow_lite/tensorflow/lite/kernels/internal\types.h ****   TFLITE_DCHECK(i3 >= 0 && i3 < dims_data[3]);
 1059              		.loc 6 408 0
 1060 0334 012092E2 		adds	r2, r2, #1
 1061 0338 6D02004A 		bmi	.L74
 1062 033c 020058E1 		cmp	r8, r2
 1063 0340 011081E2 		add	r1, r1, #1
 1064 0344 6A0200DA 		ble	.L74
 1065 0348 0A30A0E1 		mov	r3, r10
 1066              	.L78:
 1067              	.LVL106:
 1068              	.LBE723:
 1069              	.LBE722:
  65:C:/Renesas/e2studio_2021_01_workspace_RZA2M_ANPR/ANPR_RZA2M_RDK/src/tensorflow_lite/tensorflow/lite/kernels/internal/reference\pooling.h ****               filter_count++;
 1070              		.loc 5 65 0
 1071 034c 930123E0 		mla	r3, r3, r1, r0
 1072              		.loc 5 66 0
 1073 0350 867A77EE 		vadd.f32	s15, s15, s12
 1074              	.LVL107:
 1075              	.LBE727:
  60:C:/Renesas/e2studio_2021_01_workspace_RZA2M_ANPR/ANPR_RZA2M_RDK/src/tensorflow_lite/tensorflow/lite/kernels/internal/reference\pooling.h ****                  ++filter_x) {
 1076              		.loc 5 60 0
 1077 0354 02005CE1 		cmp	ip, r2
 1078              	.LBB728:
  65:C:/Renesas/e2studio_2021_01_workspace_RZA2M_ANPR/ANPR_RZA2M_RDK/src/tensorflow_lite/tensorflow/lite/kernels/internal/reference\pooling.h ****               filter_count++;
 1079              		.loc 5 65 0
 1080 0358 03318BE0 		add	r3, fp, r3, lsl #2
  64:C:/Renesas/e2studio_2021_01_workspace_RZA2M_ANPR/ANPR_RZA2M_RDK/src/tensorflow_lite/tensorflow/lite/kernels/internal/reference\pooling.h ****                   input_data[Offset(input_shape, batch, in_y, in_x, channel)];
 1081              		.loc 5 64 0
 1082 035c 006AD3ED 		vldr.32	s13, [r3]
 1083 0360 267A37EE 		vadd.f32	s14, s14, s13
 1084              	.LVL108:
 1085              	.LBE728:
  60:C:/Renesas/e2studio_2021_01_workspace_RZA2M_ANPR/ANPR_RZA2M_RDK/src/tensorflow_lite/tensorflow/lite/kernels/internal/reference\pooling.h ****                  ++filter_x) {
 1086              		.loc 5 60 0
 1087 0364 F2FFFF1A 		bne	.L79
 1088              	.LVL109:
 1089              	.L71:
 1090              	.LBE731:
  58:C:/Renesas/e2studio_2021_01_workspace_RZA2M_ANPR/ANPR_RZA2M_RDK/src/tensorflow_lite/tensorflow/lite/kernels/internal/reference\pooling.h ****                ++filter_y) {
 1091              		.loc 5 58 0
 1092 0368 0C309DE5 		ldr	r3, [sp, #12]
 1093 036c 01E08EE2 		add	lr, lr, #1
 1094 0370 084084E0 		add	r4, r4, r8
 1095 0374 03005EE1 		cmp	lr, r3
 1096 0378 D8FFFF1A 		bne	.L80
 1097              	.LVL110:
 1098              	.L70:
 1099              	.LBE734:
 1100              	.LBB735:
 1101              	.LBB736:
 406:C:/Renesas/e2studio_2021_01_workspace_RZA2M_ANPR/ANPR_RZA2M_RDK/src/tensorflow_lite/tensorflow/lite/kernels/internal\types.h ****   TFLITE_DCHECK(i1 >= 0 && i1 < dims_data[1]);
 1102              		.loc 6 406 0
 1103 037c 24309DE5 		ldr	r3, [sp, #36]
 1104 0380 04209DE5 		ldr	r2, [sp, #4]
 1105              	.LBE736:
 1106              	.LBE735:
  67:C:/Renesas/e2studio_2021_01_workspace_RZA2M_ANPR/ANPR_RZA2M_RDK/src/tensorflow_lite/tensorflow/lite/kernels/internal/reference\pooling.h ****             }
  68:C:/Renesas/e2studio_2021_01_workspace_RZA2M_ANPR/ANPR_RZA2M_RDK/src/tensorflow_lite/tensorflow/lite/kernels/internal/reference\pooling.h ****           }
  69:C:/Renesas/e2studio_2021_01_workspace_RZA2M_ANPR/ANPR_RZA2M_RDK/src/tensorflow_lite/tensorflow/lite/kernels/internal/reference\pooling.h ****           const float average = total / filter_count;
 1107              		.loc 5 69 0
 1108 0384 276AC7EE 		vdiv.f32	s13, s14, s15
 1109              	.LVL111:
 1110              	.LBB740:
 1111              	.LBB737:
 406:C:/Renesas/e2studio_2021_01_workspace_RZA2M_ANPR/ANPR_RZA2M_RDK/src/tensorflow_lite/tensorflow/lite/kernels/internal\types.h ****   TFLITE_DCHECK(i1 >= 0 && i1 < dims_data[1]);
 1112              		.loc 6 406 0
 1113 0388 020053E1 		cmp	r3, r2
 1114 038c 810200DA 		ble	.L290
 1115              	.LVL112:
 407:C:/Renesas/e2studio_2021_01_workspace_RZA2M_ANPR/ANPR_RZA2M_RDK/src/tensorflow_lite/tensorflow/lite/kernels/internal\types.h ****   TFLITE_DCHECK(i2 >= 0 && i2 < dims_data[2]);
 1116              		.loc 6 407 0
 1117 0390 1C309DE5 		ldr	r3, [sp, #28]
 1118 0394 38209DE5 		ldr	r2, [sp, #56]
 1119 0398 020053E1 		cmp	r3, r2
 1120 039c 850200DA 		ble	.L291
 408:C:/Renesas/e2studio_2021_01_workspace_RZA2M_ANPR/ANPR_RZA2M_RDK/src/tensorflow_lite/tensorflow/lite/kernels/internal\types.h ****   TFLITE_DCHECK(i3 >= 0 && i3 < dims_data[3]);
 1121              		.loc 6 408 0
 1122 03a0 20309DE5 		ldr	r3, [sp, #32]
 1123 03a4 34209DE5 		ldr	r2, [sp, #52]
 1124 03a8 020053E1 		cmp	r3, r2
 1125 03ac 820200DA 		ble	.L292
 409:C:/Renesas/e2studio_2021_01_workspace_RZA2M_ANPR/ANPR_RZA2M_RDK/src/tensorflow_lite/tensorflow/lite/kernels/internal\types.h ****   return ((i0 * dims_data[1] + i1) * dims_data[2] + i2) * dims_data[3] + i3;
 1126              		.loc 6 409 0
 1127 03b0 000059E1 		cmp	r9, r0
 1128 03b4 8102000A 		beq	.L293
 1129              	.LVL113:
 1130              	.LBE737:
 1131              	.LBE740:
 1132              	.LBB741:
 1133              	.LBB742:
 1134              	.LBB743:
 1135              		.file 7 "c:\\program files (x86)\\gnu tools arm embedded\\6 2017-q2-update\\arm-none-eabi\\include
   1:c:\program files (x86)\gnu tools arm embedded\6 2017-q2-update\arm-none-eabi\include\c++\6.3.1\bits\stl_algobase.h **** // Core algorithmic facilities -*- C++ -*-
   2:c:\program files (x86)\gnu tools arm embedded\6 2017-q2-update\arm-none-eabi\include\c++\6.3.1\bits\stl_algobase.h **** 
   3:c:\program files (x86)\gnu tools arm embedded\6 2017-q2-update\arm-none-eabi\include\c++\6.3.1\bits\stl_algobase.h **** // Copyright (C) 2001-2016 Free Software Foundation, Inc.
   4:c:\program files (x86)\gnu tools arm embedded\6 2017-q2-update\arm-none-eabi\include\c++\6.3.1\bits\stl_algobase.h **** //
   5:c:\program files (x86)\gnu tools arm embedded\6 2017-q2-update\arm-none-eabi\include\c++\6.3.1\bits\stl_algobase.h **** // This file is part of the GNU ISO C++ Library.  This library is free
   6:c:\program files (x86)\gnu tools arm embedded\6 2017-q2-update\arm-none-eabi\include\c++\6.3.1\bits\stl_algobase.h **** // software; you can redistribute it and/or modify it under the
   7:c:\program files (x86)\gnu tools arm embedded\6 2017-q2-update\arm-none-eabi\include\c++\6.3.1\bits\stl_algobase.h **** // terms of the GNU General Public License as published by the
   8:c:\program files (x86)\gnu tools arm embedded\6 2017-q2-update\arm-none-eabi\include\c++\6.3.1\bits\stl_algobase.h **** // Free Software Foundation; either version 3, or (at your option)
   9:c:\program files (x86)\gnu tools arm embedded\6 2017-q2-update\arm-none-eabi\include\c++\6.3.1\bits\stl_algobase.h **** // any later version.
  10:c:\program files (x86)\gnu tools arm embedded\6 2017-q2-update\arm-none-eabi\include\c++\6.3.1\bits\stl_algobase.h **** 
  11:c:\program files (x86)\gnu tools arm embedded\6 2017-q2-update\arm-none-eabi\include\c++\6.3.1\bits\stl_algobase.h **** // This library is distributed in the hope that it will be useful,
  12:c:\program files (x86)\gnu tools arm embedded\6 2017-q2-update\arm-none-eabi\include\c++\6.3.1\bits\stl_algobase.h **** // but WITHOUT ANY WARRANTY; without even the implied warranty of
  13:c:\program files (x86)\gnu tools arm embedded\6 2017-q2-update\arm-none-eabi\include\c++\6.3.1\bits\stl_algobase.h **** // MERCHANTABILITY or FITNESS FOR A PARTICULAR PURPOSE.  See the
  14:c:\program files (x86)\gnu tools arm embedded\6 2017-q2-update\arm-none-eabi\include\c++\6.3.1\bits\stl_algobase.h **** // GNU General Public License for more details.
  15:c:\program files (x86)\gnu tools arm embedded\6 2017-q2-update\arm-none-eabi\include\c++\6.3.1\bits\stl_algobase.h **** 
  16:c:\program files (x86)\gnu tools arm embedded\6 2017-q2-update\arm-none-eabi\include\c++\6.3.1\bits\stl_algobase.h **** // Under Section 7 of GPL version 3, you are granted additional
  17:c:\program files (x86)\gnu tools arm embedded\6 2017-q2-update\arm-none-eabi\include\c++\6.3.1\bits\stl_algobase.h **** // permissions described in the GCC Runtime Library Exception, version
  18:c:\program files (x86)\gnu tools arm embedded\6 2017-q2-update\arm-none-eabi\include\c++\6.3.1\bits\stl_algobase.h **** // 3.1, as published by the Free Software Foundation.
  19:c:\program files (x86)\gnu tools arm embedded\6 2017-q2-update\arm-none-eabi\include\c++\6.3.1\bits\stl_algobase.h **** 
  20:c:\program files (x86)\gnu tools arm embedded\6 2017-q2-update\arm-none-eabi\include\c++\6.3.1\bits\stl_algobase.h **** // You should have received a copy of the GNU General Public License and
  21:c:\program files (x86)\gnu tools arm embedded\6 2017-q2-update\arm-none-eabi\include\c++\6.3.1\bits\stl_algobase.h **** // a copy of the GCC Runtime Library Exception along with this program;
  22:c:\program files (x86)\gnu tools arm embedded\6 2017-q2-update\arm-none-eabi\include\c++\6.3.1\bits\stl_algobase.h **** // see the files COPYING3 and COPYING.RUNTIME respectively.  If not, see
  23:c:\program files (x86)\gnu tools arm embedded\6 2017-q2-update\arm-none-eabi\include\c++\6.3.1\bits\stl_algobase.h **** // <http://www.gnu.org/licenses/>.
  24:c:\program files (x86)\gnu tools arm embedded\6 2017-q2-update\arm-none-eabi\include\c++\6.3.1\bits\stl_algobase.h **** 
  25:c:\program files (x86)\gnu tools arm embedded\6 2017-q2-update\arm-none-eabi\include\c++\6.3.1\bits\stl_algobase.h **** /*
  26:c:\program files (x86)\gnu tools arm embedded\6 2017-q2-update\arm-none-eabi\include\c++\6.3.1\bits\stl_algobase.h ****  *
  27:c:\program files (x86)\gnu tools arm embedded\6 2017-q2-update\arm-none-eabi\include\c++\6.3.1\bits\stl_algobase.h ****  * Copyright (c) 1994
  28:c:\program files (x86)\gnu tools arm embedded\6 2017-q2-update\arm-none-eabi\include\c++\6.3.1\bits\stl_algobase.h ****  * Hewlett-Packard Company
  29:c:\program files (x86)\gnu tools arm embedded\6 2017-q2-update\arm-none-eabi\include\c++\6.3.1\bits\stl_algobase.h ****  *
  30:c:\program files (x86)\gnu tools arm embedded\6 2017-q2-update\arm-none-eabi\include\c++\6.3.1\bits\stl_algobase.h ****  * Permission to use, copy, modify, distribute and sell this software
  31:c:\program files (x86)\gnu tools arm embedded\6 2017-q2-update\arm-none-eabi\include\c++\6.3.1\bits\stl_algobase.h ****  * and its documentation for any purpose is hereby granted without fee,
  32:c:\program files (x86)\gnu tools arm embedded\6 2017-q2-update\arm-none-eabi\include\c++\6.3.1\bits\stl_algobase.h ****  * provided that the above copyright notice appear in all copies and
  33:c:\program files (x86)\gnu tools arm embedded\6 2017-q2-update\arm-none-eabi\include\c++\6.3.1\bits\stl_algobase.h ****  * that both that copyright notice and this permission notice appear
  34:c:\program files (x86)\gnu tools arm embedded\6 2017-q2-update\arm-none-eabi\include\c++\6.3.1\bits\stl_algobase.h ****  * in supporting documentation.  Hewlett-Packard Company makes no
  35:c:\program files (x86)\gnu tools arm embedded\6 2017-q2-update\arm-none-eabi\include\c++\6.3.1\bits\stl_algobase.h ****  * representations about the suitability of this software for any
  36:c:\program files (x86)\gnu tools arm embedded\6 2017-q2-update\arm-none-eabi\include\c++\6.3.1\bits\stl_algobase.h ****  * purpose.  It is provided "as is" without express or implied warranty.
  37:c:\program files (x86)\gnu tools arm embedded\6 2017-q2-update\arm-none-eabi\include\c++\6.3.1\bits\stl_algobase.h ****  *
  38:c:\program files (x86)\gnu tools arm embedded\6 2017-q2-update\arm-none-eabi\include\c++\6.3.1\bits\stl_algobase.h ****  *
  39:c:\program files (x86)\gnu tools arm embedded\6 2017-q2-update\arm-none-eabi\include\c++\6.3.1\bits\stl_algobase.h ****  * Copyright (c) 1996-1998
  40:c:\program files (x86)\gnu tools arm embedded\6 2017-q2-update\arm-none-eabi\include\c++\6.3.1\bits\stl_algobase.h ****  * Silicon Graphics Computer Systems, Inc.
  41:c:\program files (x86)\gnu tools arm embedded\6 2017-q2-update\arm-none-eabi\include\c++\6.3.1\bits\stl_algobase.h ****  *
  42:c:\program files (x86)\gnu tools arm embedded\6 2017-q2-update\arm-none-eabi\include\c++\6.3.1\bits\stl_algobase.h ****  * Permission to use, copy, modify, distribute and sell this software
  43:c:\program files (x86)\gnu tools arm embedded\6 2017-q2-update\arm-none-eabi\include\c++\6.3.1\bits\stl_algobase.h ****  * and its documentation for any purpose is hereby granted without fee,
  44:c:\program files (x86)\gnu tools arm embedded\6 2017-q2-update\arm-none-eabi\include\c++\6.3.1\bits\stl_algobase.h ****  * provided that the above copyright notice appear in all copies and
  45:c:\program files (x86)\gnu tools arm embedded\6 2017-q2-update\arm-none-eabi\include\c++\6.3.1\bits\stl_algobase.h ****  * that both that copyright notice and this permission notice appear
  46:c:\program files (x86)\gnu tools arm embedded\6 2017-q2-update\arm-none-eabi\include\c++\6.3.1\bits\stl_algobase.h ****  * in supporting documentation.  Silicon Graphics makes no
  47:c:\program files (x86)\gnu tools arm embedded\6 2017-q2-update\arm-none-eabi\include\c++\6.3.1\bits\stl_algobase.h ****  * representations about the suitability of this software for any
  48:c:\program files (x86)\gnu tools arm embedded\6 2017-q2-update\arm-none-eabi\include\c++\6.3.1\bits\stl_algobase.h ****  * purpose.  It is provided "as is" without express or implied warranty.
  49:c:\program files (x86)\gnu tools arm embedded\6 2017-q2-update\arm-none-eabi\include\c++\6.3.1\bits\stl_algobase.h ****  */
  50:c:\program files (x86)\gnu tools arm embedded\6 2017-q2-update\arm-none-eabi\include\c++\6.3.1\bits\stl_algobase.h **** 
  51:c:\program files (x86)\gnu tools arm embedded\6 2017-q2-update\arm-none-eabi\include\c++\6.3.1\bits\stl_algobase.h **** /** @file bits/stl_algobase.h
  52:c:\program files (x86)\gnu tools arm embedded\6 2017-q2-update\arm-none-eabi\include\c++\6.3.1\bits\stl_algobase.h ****  *  This is an internal header file, included by other library headers.
  53:c:\program files (x86)\gnu tools arm embedded\6 2017-q2-update\arm-none-eabi\include\c++\6.3.1\bits\stl_algobase.h ****  *  Do not attempt to use it directly. @headername{algorithm}
  54:c:\program files (x86)\gnu tools arm embedded\6 2017-q2-update\arm-none-eabi\include\c++\6.3.1\bits\stl_algobase.h ****  */
  55:c:\program files (x86)\gnu tools arm embedded\6 2017-q2-update\arm-none-eabi\include\c++\6.3.1\bits\stl_algobase.h **** 
  56:c:\program files (x86)\gnu tools arm embedded\6 2017-q2-update\arm-none-eabi\include\c++\6.3.1\bits\stl_algobase.h **** #ifndef _STL_ALGOBASE_H
  57:c:\program files (x86)\gnu tools arm embedded\6 2017-q2-update\arm-none-eabi\include\c++\6.3.1\bits\stl_algobase.h **** #define _STL_ALGOBASE_H 1
  58:c:\program files (x86)\gnu tools arm embedded\6 2017-q2-update\arm-none-eabi\include\c++\6.3.1\bits\stl_algobase.h **** 
  59:c:\program files (x86)\gnu tools arm embedded\6 2017-q2-update\arm-none-eabi\include\c++\6.3.1\bits\stl_algobase.h **** #include <bits/c++config.h>
  60:c:\program files (x86)\gnu tools arm embedded\6 2017-q2-update\arm-none-eabi\include\c++\6.3.1\bits\stl_algobase.h **** #include <bits/functexcept.h>
  61:c:\program files (x86)\gnu tools arm embedded\6 2017-q2-update\arm-none-eabi\include\c++\6.3.1\bits\stl_algobase.h **** #include <bits/cpp_type_traits.h>
  62:c:\program files (x86)\gnu tools arm embedded\6 2017-q2-update\arm-none-eabi\include\c++\6.3.1\bits\stl_algobase.h **** #include <ext/type_traits.h>
  63:c:\program files (x86)\gnu tools arm embedded\6 2017-q2-update\arm-none-eabi\include\c++\6.3.1\bits\stl_algobase.h **** #include <ext/numeric_traits.h>
  64:c:\program files (x86)\gnu tools arm embedded\6 2017-q2-update\arm-none-eabi\include\c++\6.3.1\bits\stl_algobase.h **** #include <bits/stl_pair.h>
  65:c:\program files (x86)\gnu tools arm embedded\6 2017-q2-update\arm-none-eabi\include\c++\6.3.1\bits\stl_algobase.h **** #include <bits/stl_iterator_base_types.h>
  66:c:\program files (x86)\gnu tools arm embedded\6 2017-q2-update\arm-none-eabi\include\c++\6.3.1\bits\stl_algobase.h **** #include <bits/stl_iterator_base_funcs.h>
  67:c:\program files (x86)\gnu tools arm embedded\6 2017-q2-update\arm-none-eabi\include\c++\6.3.1\bits\stl_algobase.h **** #include <bits/stl_iterator.h>
  68:c:\program files (x86)\gnu tools arm embedded\6 2017-q2-update\arm-none-eabi\include\c++\6.3.1\bits\stl_algobase.h **** #include <bits/concept_check.h>
  69:c:\program files (x86)\gnu tools arm embedded\6 2017-q2-update\arm-none-eabi\include\c++\6.3.1\bits\stl_algobase.h **** #include <debug/debug.h>
  70:c:\program files (x86)\gnu tools arm embedded\6 2017-q2-update\arm-none-eabi\include\c++\6.3.1\bits\stl_algobase.h **** #include <bits/move.h> // For std::swap and _GLIBCXX_MOVE
  71:c:\program files (x86)\gnu tools arm embedded\6 2017-q2-update\arm-none-eabi\include\c++\6.3.1\bits\stl_algobase.h **** #include <bits/predefined_ops.h>
  72:c:\program files (x86)\gnu tools arm embedded\6 2017-q2-update\arm-none-eabi\include\c++\6.3.1\bits\stl_algobase.h **** 
  73:c:\program files (x86)\gnu tools arm embedded\6 2017-q2-update\arm-none-eabi\include\c++\6.3.1\bits\stl_algobase.h **** namespace std _GLIBCXX_VISIBILITY(default)
  74:c:\program files (x86)\gnu tools arm embedded\6 2017-q2-update\arm-none-eabi\include\c++\6.3.1\bits\stl_algobase.h **** {
  75:c:\program files (x86)\gnu tools arm embedded\6 2017-q2-update\arm-none-eabi\include\c++\6.3.1\bits\stl_algobase.h **** _GLIBCXX_BEGIN_NAMESPACE_VERSION
  76:c:\program files (x86)\gnu tools arm embedded\6 2017-q2-update\arm-none-eabi\include\c++\6.3.1\bits\stl_algobase.h **** 
  77:c:\program files (x86)\gnu tools arm embedded\6 2017-q2-update\arm-none-eabi\include\c++\6.3.1\bits\stl_algobase.h **** #if __cplusplus < 201103L
  78:c:\program files (x86)\gnu tools arm embedded\6 2017-q2-update\arm-none-eabi\include\c++\6.3.1\bits\stl_algobase.h ****   // See http://gcc.gnu.org/ml/libstdc++/2004-08/msg00167.html: in a
  79:c:\program files (x86)\gnu tools arm embedded\6 2017-q2-update\arm-none-eabi\include\c++\6.3.1\bits\stl_algobase.h ****   // nutshell, we are partially implementing the resolution of DR 187,
  80:c:\program files (x86)\gnu tools arm embedded\6 2017-q2-update\arm-none-eabi\include\c++\6.3.1\bits\stl_algobase.h ****   // when it's safe, i.e., the value_types are equal.
  81:c:\program files (x86)\gnu tools arm embedded\6 2017-q2-update\arm-none-eabi\include\c++\6.3.1\bits\stl_algobase.h ****   template<bool _BoolType>
  82:c:\program files (x86)\gnu tools arm embedded\6 2017-q2-update\arm-none-eabi\include\c++\6.3.1\bits\stl_algobase.h ****     struct __iter_swap
  83:c:\program files (x86)\gnu tools arm embedded\6 2017-q2-update\arm-none-eabi\include\c++\6.3.1\bits\stl_algobase.h ****     {
  84:c:\program files (x86)\gnu tools arm embedded\6 2017-q2-update\arm-none-eabi\include\c++\6.3.1\bits\stl_algobase.h ****       template<typename _ForwardIterator1, typename _ForwardIterator2>
  85:c:\program files (x86)\gnu tools arm embedded\6 2017-q2-update\arm-none-eabi\include\c++\6.3.1\bits\stl_algobase.h ****         static void
  86:c:\program files (x86)\gnu tools arm embedded\6 2017-q2-update\arm-none-eabi\include\c++\6.3.1\bits\stl_algobase.h ****         iter_swap(_ForwardIterator1 __a, _ForwardIterator2 __b)
  87:c:\program files (x86)\gnu tools arm embedded\6 2017-q2-update\arm-none-eabi\include\c++\6.3.1\bits\stl_algobase.h ****         {
  88:c:\program files (x86)\gnu tools arm embedded\6 2017-q2-update\arm-none-eabi\include\c++\6.3.1\bits\stl_algobase.h ****           typedef typename iterator_traits<_ForwardIterator1>::value_type
  89:c:\program files (x86)\gnu tools arm embedded\6 2017-q2-update\arm-none-eabi\include\c++\6.3.1\bits\stl_algobase.h ****             _ValueType1;
  90:c:\program files (x86)\gnu tools arm embedded\6 2017-q2-update\arm-none-eabi\include\c++\6.3.1\bits\stl_algobase.h ****           _ValueType1 __tmp = _GLIBCXX_MOVE(*__a);
  91:c:\program files (x86)\gnu tools arm embedded\6 2017-q2-update\arm-none-eabi\include\c++\6.3.1\bits\stl_algobase.h ****           *__a = _GLIBCXX_MOVE(*__b);
  92:c:\program files (x86)\gnu tools arm embedded\6 2017-q2-update\arm-none-eabi\include\c++\6.3.1\bits\stl_algobase.h ****           *__b = _GLIBCXX_MOVE(__tmp);
  93:c:\program files (x86)\gnu tools arm embedded\6 2017-q2-update\arm-none-eabi\include\c++\6.3.1\bits\stl_algobase.h **** 	}
  94:c:\program files (x86)\gnu tools arm embedded\6 2017-q2-update\arm-none-eabi\include\c++\6.3.1\bits\stl_algobase.h ****     };
  95:c:\program files (x86)\gnu tools arm embedded\6 2017-q2-update\arm-none-eabi\include\c++\6.3.1\bits\stl_algobase.h **** 
  96:c:\program files (x86)\gnu tools arm embedded\6 2017-q2-update\arm-none-eabi\include\c++\6.3.1\bits\stl_algobase.h ****   template<>
  97:c:\program files (x86)\gnu tools arm embedded\6 2017-q2-update\arm-none-eabi\include\c++\6.3.1\bits\stl_algobase.h ****     struct __iter_swap<true>
  98:c:\program files (x86)\gnu tools arm embedded\6 2017-q2-update\arm-none-eabi\include\c++\6.3.1\bits\stl_algobase.h ****     {
  99:c:\program files (x86)\gnu tools arm embedded\6 2017-q2-update\arm-none-eabi\include\c++\6.3.1\bits\stl_algobase.h ****       template<typename _ForwardIterator1, typename _ForwardIterator2>
 100:c:\program files (x86)\gnu tools arm embedded\6 2017-q2-update\arm-none-eabi\include\c++\6.3.1\bits\stl_algobase.h ****         static void 
 101:c:\program files (x86)\gnu tools arm embedded\6 2017-q2-update\arm-none-eabi\include\c++\6.3.1\bits\stl_algobase.h ****         iter_swap(_ForwardIterator1 __a, _ForwardIterator2 __b)
 102:c:\program files (x86)\gnu tools arm embedded\6 2017-q2-update\arm-none-eabi\include\c++\6.3.1\bits\stl_algobase.h ****         {
 103:c:\program files (x86)\gnu tools arm embedded\6 2017-q2-update\arm-none-eabi\include\c++\6.3.1\bits\stl_algobase.h ****           swap(*__a, *__b);
 104:c:\program files (x86)\gnu tools arm embedded\6 2017-q2-update\arm-none-eabi\include\c++\6.3.1\bits\stl_algobase.h ****         }
 105:c:\program files (x86)\gnu tools arm embedded\6 2017-q2-update\arm-none-eabi\include\c++\6.3.1\bits\stl_algobase.h ****     };
 106:c:\program files (x86)\gnu tools arm embedded\6 2017-q2-update\arm-none-eabi\include\c++\6.3.1\bits\stl_algobase.h **** #endif
 107:c:\program files (x86)\gnu tools arm embedded\6 2017-q2-update\arm-none-eabi\include\c++\6.3.1\bits\stl_algobase.h **** 
 108:c:\program files (x86)\gnu tools arm embedded\6 2017-q2-update\arm-none-eabi\include\c++\6.3.1\bits\stl_algobase.h ****   /**
 109:c:\program files (x86)\gnu tools arm embedded\6 2017-q2-update\arm-none-eabi\include\c++\6.3.1\bits\stl_algobase.h ****    *  @brief Swaps the contents of two iterators.
 110:c:\program files (x86)\gnu tools arm embedded\6 2017-q2-update\arm-none-eabi\include\c++\6.3.1\bits\stl_algobase.h ****    *  @ingroup mutating_algorithms
 111:c:\program files (x86)\gnu tools arm embedded\6 2017-q2-update\arm-none-eabi\include\c++\6.3.1\bits\stl_algobase.h ****    *  @param  __a  An iterator.
 112:c:\program files (x86)\gnu tools arm embedded\6 2017-q2-update\arm-none-eabi\include\c++\6.3.1\bits\stl_algobase.h ****    *  @param  __b  Another iterator.
 113:c:\program files (x86)\gnu tools arm embedded\6 2017-q2-update\arm-none-eabi\include\c++\6.3.1\bits\stl_algobase.h ****    *  @return   Nothing.
 114:c:\program files (x86)\gnu tools arm embedded\6 2017-q2-update\arm-none-eabi\include\c++\6.3.1\bits\stl_algobase.h ****    *
 115:c:\program files (x86)\gnu tools arm embedded\6 2017-q2-update\arm-none-eabi\include\c++\6.3.1\bits\stl_algobase.h ****    *  This function swaps the values pointed to by two iterators, not the
 116:c:\program files (x86)\gnu tools arm embedded\6 2017-q2-update\arm-none-eabi\include\c++\6.3.1\bits\stl_algobase.h ****    *  iterators themselves.
 117:c:\program files (x86)\gnu tools arm embedded\6 2017-q2-update\arm-none-eabi\include\c++\6.3.1\bits\stl_algobase.h ****   */
 118:c:\program files (x86)\gnu tools arm embedded\6 2017-q2-update\arm-none-eabi\include\c++\6.3.1\bits\stl_algobase.h ****   template<typename _ForwardIterator1, typename _ForwardIterator2>
 119:c:\program files (x86)\gnu tools arm embedded\6 2017-q2-update\arm-none-eabi\include\c++\6.3.1\bits\stl_algobase.h ****     inline void
 120:c:\program files (x86)\gnu tools arm embedded\6 2017-q2-update\arm-none-eabi\include\c++\6.3.1\bits\stl_algobase.h ****     iter_swap(_ForwardIterator1 __a, _ForwardIterator2 __b)
 121:c:\program files (x86)\gnu tools arm embedded\6 2017-q2-update\arm-none-eabi\include\c++\6.3.1\bits\stl_algobase.h ****     {
 122:c:\program files (x86)\gnu tools arm embedded\6 2017-q2-update\arm-none-eabi\include\c++\6.3.1\bits\stl_algobase.h ****       // concept requirements
 123:c:\program files (x86)\gnu tools arm embedded\6 2017-q2-update\arm-none-eabi\include\c++\6.3.1\bits\stl_algobase.h ****       __glibcxx_function_requires(_Mutable_ForwardIteratorConcept<
 124:c:\program files (x86)\gnu tools arm embedded\6 2017-q2-update\arm-none-eabi\include\c++\6.3.1\bits\stl_algobase.h **** 				  _ForwardIterator1>)
 125:c:\program files (x86)\gnu tools arm embedded\6 2017-q2-update\arm-none-eabi\include\c++\6.3.1\bits\stl_algobase.h ****       __glibcxx_function_requires(_Mutable_ForwardIteratorConcept<
 126:c:\program files (x86)\gnu tools arm embedded\6 2017-q2-update\arm-none-eabi\include\c++\6.3.1\bits\stl_algobase.h **** 				  _ForwardIterator2>)
 127:c:\program files (x86)\gnu tools arm embedded\6 2017-q2-update\arm-none-eabi\include\c++\6.3.1\bits\stl_algobase.h **** 
 128:c:\program files (x86)\gnu tools arm embedded\6 2017-q2-update\arm-none-eabi\include\c++\6.3.1\bits\stl_algobase.h **** #if __cplusplus < 201103L
 129:c:\program files (x86)\gnu tools arm embedded\6 2017-q2-update\arm-none-eabi\include\c++\6.3.1\bits\stl_algobase.h ****       typedef typename iterator_traits<_ForwardIterator1>::value_type
 130:c:\program files (x86)\gnu tools arm embedded\6 2017-q2-update\arm-none-eabi\include\c++\6.3.1\bits\stl_algobase.h **** 	_ValueType1;
 131:c:\program files (x86)\gnu tools arm embedded\6 2017-q2-update\arm-none-eabi\include\c++\6.3.1\bits\stl_algobase.h ****       typedef typename iterator_traits<_ForwardIterator2>::value_type
 132:c:\program files (x86)\gnu tools arm embedded\6 2017-q2-update\arm-none-eabi\include\c++\6.3.1\bits\stl_algobase.h **** 	_ValueType2;
 133:c:\program files (x86)\gnu tools arm embedded\6 2017-q2-update\arm-none-eabi\include\c++\6.3.1\bits\stl_algobase.h **** 
 134:c:\program files (x86)\gnu tools arm embedded\6 2017-q2-update\arm-none-eabi\include\c++\6.3.1\bits\stl_algobase.h ****       __glibcxx_function_requires(_ConvertibleConcept<_ValueType1,
 135:c:\program files (x86)\gnu tools arm embedded\6 2017-q2-update\arm-none-eabi\include\c++\6.3.1\bits\stl_algobase.h **** 				  _ValueType2>)
 136:c:\program files (x86)\gnu tools arm embedded\6 2017-q2-update\arm-none-eabi\include\c++\6.3.1\bits\stl_algobase.h ****       __glibcxx_function_requires(_ConvertibleConcept<_ValueType2,
 137:c:\program files (x86)\gnu tools arm embedded\6 2017-q2-update\arm-none-eabi\include\c++\6.3.1\bits\stl_algobase.h **** 				  _ValueType1>)
 138:c:\program files (x86)\gnu tools arm embedded\6 2017-q2-update\arm-none-eabi\include\c++\6.3.1\bits\stl_algobase.h **** 
 139:c:\program files (x86)\gnu tools arm embedded\6 2017-q2-update\arm-none-eabi\include\c++\6.3.1\bits\stl_algobase.h ****       typedef typename iterator_traits<_ForwardIterator1>::reference
 140:c:\program files (x86)\gnu tools arm embedded\6 2017-q2-update\arm-none-eabi\include\c++\6.3.1\bits\stl_algobase.h **** 	_ReferenceType1;
 141:c:\program files (x86)\gnu tools arm embedded\6 2017-q2-update\arm-none-eabi\include\c++\6.3.1\bits\stl_algobase.h ****       typedef typename iterator_traits<_ForwardIterator2>::reference
 142:c:\program files (x86)\gnu tools arm embedded\6 2017-q2-update\arm-none-eabi\include\c++\6.3.1\bits\stl_algobase.h **** 	_ReferenceType2;
 143:c:\program files (x86)\gnu tools arm embedded\6 2017-q2-update\arm-none-eabi\include\c++\6.3.1\bits\stl_algobase.h ****       std::__iter_swap<__are_same<_ValueType1, _ValueType2>::__value
 144:c:\program files (x86)\gnu tools arm embedded\6 2017-q2-update\arm-none-eabi\include\c++\6.3.1\bits\stl_algobase.h **** 	&& __are_same<_ValueType1&, _ReferenceType1>::__value
 145:c:\program files (x86)\gnu tools arm embedded\6 2017-q2-update\arm-none-eabi\include\c++\6.3.1\bits\stl_algobase.h **** 	&& __are_same<_ValueType2&, _ReferenceType2>::__value>::
 146:c:\program files (x86)\gnu tools arm embedded\6 2017-q2-update\arm-none-eabi\include\c++\6.3.1\bits\stl_algobase.h **** 	iter_swap(__a, __b);
 147:c:\program files (x86)\gnu tools arm embedded\6 2017-q2-update\arm-none-eabi\include\c++\6.3.1\bits\stl_algobase.h **** #else
 148:c:\program files (x86)\gnu tools arm embedded\6 2017-q2-update\arm-none-eabi\include\c++\6.3.1\bits\stl_algobase.h ****       swap(*__a, *__b);
 149:c:\program files (x86)\gnu tools arm embedded\6 2017-q2-update\arm-none-eabi\include\c++\6.3.1\bits\stl_algobase.h **** #endif
 150:c:\program files (x86)\gnu tools arm embedded\6 2017-q2-update\arm-none-eabi\include\c++\6.3.1\bits\stl_algobase.h ****     }
 151:c:\program files (x86)\gnu tools arm embedded\6 2017-q2-update\arm-none-eabi\include\c++\6.3.1\bits\stl_algobase.h **** 
 152:c:\program files (x86)\gnu tools arm embedded\6 2017-q2-update\arm-none-eabi\include\c++\6.3.1\bits\stl_algobase.h ****   /**
 153:c:\program files (x86)\gnu tools arm embedded\6 2017-q2-update\arm-none-eabi\include\c++\6.3.1\bits\stl_algobase.h ****    *  @brief Swap the elements of two sequences.
 154:c:\program files (x86)\gnu tools arm embedded\6 2017-q2-update\arm-none-eabi\include\c++\6.3.1\bits\stl_algobase.h ****    *  @ingroup mutating_algorithms
 155:c:\program files (x86)\gnu tools arm embedded\6 2017-q2-update\arm-none-eabi\include\c++\6.3.1\bits\stl_algobase.h ****    *  @param  __first1  A forward iterator.
 156:c:\program files (x86)\gnu tools arm embedded\6 2017-q2-update\arm-none-eabi\include\c++\6.3.1\bits\stl_algobase.h ****    *  @param  __last1   A forward iterator.
 157:c:\program files (x86)\gnu tools arm embedded\6 2017-q2-update\arm-none-eabi\include\c++\6.3.1\bits\stl_algobase.h ****    *  @param  __first2  A forward iterator.
 158:c:\program files (x86)\gnu tools arm embedded\6 2017-q2-update\arm-none-eabi\include\c++\6.3.1\bits\stl_algobase.h ****    *  @return   An iterator equal to @p first2+(last1-first1).
 159:c:\program files (x86)\gnu tools arm embedded\6 2017-q2-update\arm-none-eabi\include\c++\6.3.1\bits\stl_algobase.h ****    *
 160:c:\program files (x86)\gnu tools arm embedded\6 2017-q2-update\arm-none-eabi\include\c++\6.3.1\bits\stl_algobase.h ****    *  Swaps each element in the range @p [first1,last1) with the
 161:c:\program files (x86)\gnu tools arm embedded\6 2017-q2-update\arm-none-eabi\include\c++\6.3.1\bits\stl_algobase.h ****    *  corresponding element in the range @p [first2,(last1-first1)).
 162:c:\program files (x86)\gnu tools arm embedded\6 2017-q2-update\arm-none-eabi\include\c++\6.3.1\bits\stl_algobase.h ****    *  The ranges must not overlap.
 163:c:\program files (x86)\gnu tools arm embedded\6 2017-q2-update\arm-none-eabi\include\c++\6.3.1\bits\stl_algobase.h ****   */
 164:c:\program files (x86)\gnu tools arm embedded\6 2017-q2-update\arm-none-eabi\include\c++\6.3.1\bits\stl_algobase.h ****   template<typename _ForwardIterator1, typename _ForwardIterator2>
 165:c:\program files (x86)\gnu tools arm embedded\6 2017-q2-update\arm-none-eabi\include\c++\6.3.1\bits\stl_algobase.h ****     _ForwardIterator2
 166:c:\program files (x86)\gnu tools arm embedded\6 2017-q2-update\arm-none-eabi\include\c++\6.3.1\bits\stl_algobase.h ****     swap_ranges(_ForwardIterator1 __first1, _ForwardIterator1 __last1,
 167:c:\program files (x86)\gnu tools arm embedded\6 2017-q2-update\arm-none-eabi\include\c++\6.3.1\bits\stl_algobase.h **** 		_ForwardIterator2 __first2)
 168:c:\program files (x86)\gnu tools arm embedded\6 2017-q2-update\arm-none-eabi\include\c++\6.3.1\bits\stl_algobase.h ****     {
 169:c:\program files (x86)\gnu tools arm embedded\6 2017-q2-update\arm-none-eabi\include\c++\6.3.1\bits\stl_algobase.h ****       // concept requirements
 170:c:\program files (x86)\gnu tools arm embedded\6 2017-q2-update\arm-none-eabi\include\c++\6.3.1\bits\stl_algobase.h ****       __glibcxx_function_requires(_Mutable_ForwardIteratorConcept<
 171:c:\program files (x86)\gnu tools arm embedded\6 2017-q2-update\arm-none-eabi\include\c++\6.3.1\bits\stl_algobase.h **** 				  _ForwardIterator1>)
 172:c:\program files (x86)\gnu tools arm embedded\6 2017-q2-update\arm-none-eabi\include\c++\6.3.1\bits\stl_algobase.h ****       __glibcxx_function_requires(_Mutable_ForwardIteratorConcept<
 173:c:\program files (x86)\gnu tools arm embedded\6 2017-q2-update\arm-none-eabi\include\c++\6.3.1\bits\stl_algobase.h **** 				  _ForwardIterator2>)
 174:c:\program files (x86)\gnu tools arm embedded\6 2017-q2-update\arm-none-eabi\include\c++\6.3.1\bits\stl_algobase.h ****       __glibcxx_requires_valid_range(__first1, __last1);
 175:c:\program files (x86)\gnu tools arm embedded\6 2017-q2-update\arm-none-eabi\include\c++\6.3.1\bits\stl_algobase.h **** 
 176:c:\program files (x86)\gnu tools arm embedded\6 2017-q2-update\arm-none-eabi\include\c++\6.3.1\bits\stl_algobase.h ****       for (; __first1 != __last1; ++__first1, (void)++__first2)
 177:c:\program files (x86)\gnu tools arm embedded\6 2017-q2-update\arm-none-eabi\include\c++\6.3.1\bits\stl_algobase.h **** 	std::iter_swap(__first1, __first2);
 178:c:\program files (x86)\gnu tools arm embedded\6 2017-q2-update\arm-none-eabi\include\c++\6.3.1\bits\stl_algobase.h ****       return __first2;
 179:c:\program files (x86)\gnu tools arm embedded\6 2017-q2-update\arm-none-eabi\include\c++\6.3.1\bits\stl_algobase.h ****     }
 180:c:\program files (x86)\gnu tools arm embedded\6 2017-q2-update\arm-none-eabi\include\c++\6.3.1\bits\stl_algobase.h **** 
 181:c:\program files (x86)\gnu tools arm embedded\6 2017-q2-update\arm-none-eabi\include\c++\6.3.1\bits\stl_algobase.h ****   /**
 182:c:\program files (x86)\gnu tools arm embedded\6 2017-q2-update\arm-none-eabi\include\c++\6.3.1\bits\stl_algobase.h ****    *  @brief This does what you think it does.
 183:c:\program files (x86)\gnu tools arm embedded\6 2017-q2-update\arm-none-eabi\include\c++\6.3.1\bits\stl_algobase.h ****    *  @ingroup sorting_algorithms
 184:c:\program files (x86)\gnu tools arm embedded\6 2017-q2-update\arm-none-eabi\include\c++\6.3.1\bits\stl_algobase.h ****    *  @param  __a  A thing of arbitrary type.
 185:c:\program files (x86)\gnu tools arm embedded\6 2017-q2-update\arm-none-eabi\include\c++\6.3.1\bits\stl_algobase.h ****    *  @param  __b  Another thing of arbitrary type.
 186:c:\program files (x86)\gnu tools arm embedded\6 2017-q2-update\arm-none-eabi\include\c++\6.3.1\bits\stl_algobase.h ****    *  @return   The lesser of the parameters.
 187:c:\program files (x86)\gnu tools arm embedded\6 2017-q2-update\arm-none-eabi\include\c++\6.3.1\bits\stl_algobase.h ****    *
 188:c:\program files (x86)\gnu tools arm embedded\6 2017-q2-update\arm-none-eabi\include\c++\6.3.1\bits\stl_algobase.h ****    *  This is the simple classic generic implementation.  It will work on
 189:c:\program files (x86)\gnu tools arm embedded\6 2017-q2-update\arm-none-eabi\include\c++\6.3.1\bits\stl_algobase.h ****    *  temporary expressions, since they are only evaluated once, unlike a
 190:c:\program files (x86)\gnu tools arm embedded\6 2017-q2-update\arm-none-eabi\include\c++\6.3.1\bits\stl_algobase.h ****    *  preprocessor macro.
 191:c:\program files (x86)\gnu tools arm embedded\6 2017-q2-update\arm-none-eabi\include\c++\6.3.1\bits\stl_algobase.h ****   */
 192:c:\program files (x86)\gnu tools arm embedded\6 2017-q2-update\arm-none-eabi\include\c++\6.3.1\bits\stl_algobase.h ****   template<typename _Tp>
 193:c:\program files (x86)\gnu tools arm embedded\6 2017-q2-update\arm-none-eabi\include\c++\6.3.1\bits\stl_algobase.h ****     _GLIBCXX14_CONSTEXPR
 194:c:\program files (x86)\gnu tools arm embedded\6 2017-q2-update\arm-none-eabi\include\c++\6.3.1\bits\stl_algobase.h ****     inline const _Tp&
 195:c:\program files (x86)\gnu tools arm embedded\6 2017-q2-update\arm-none-eabi\include\c++\6.3.1\bits\stl_algobase.h ****     min(const _Tp& __a, const _Tp& __b)
 196:c:\program files (x86)\gnu tools arm embedded\6 2017-q2-update\arm-none-eabi\include\c++\6.3.1\bits\stl_algobase.h ****     {
 197:c:\program files (x86)\gnu tools arm embedded\6 2017-q2-update\arm-none-eabi\include\c++\6.3.1\bits\stl_algobase.h ****       // concept requirements
 198:c:\program files (x86)\gnu tools arm embedded\6 2017-q2-update\arm-none-eabi\include\c++\6.3.1\bits\stl_algobase.h ****       __glibcxx_function_requires(_LessThanComparableConcept<_Tp>)
 199:c:\program files (x86)\gnu tools arm embedded\6 2017-q2-update\arm-none-eabi\include\c++\6.3.1\bits\stl_algobase.h ****       //return __b < __a ? __b : __a;
 200:c:\program files (x86)\gnu tools arm embedded\6 2017-q2-update\arm-none-eabi\include\c++\6.3.1\bits\stl_algobase.h ****       if (__b < __a)
 201:c:\program files (x86)\gnu tools arm embedded\6 2017-q2-update\arm-none-eabi\include\c++\6.3.1\bits\stl_algobase.h **** 	return __b;
 202:c:\program files (x86)\gnu tools arm embedded\6 2017-q2-update\arm-none-eabi\include\c++\6.3.1\bits\stl_algobase.h ****       return __a;
 203:c:\program files (x86)\gnu tools arm embedded\6 2017-q2-update\arm-none-eabi\include\c++\6.3.1\bits\stl_algobase.h ****     }
 204:c:\program files (x86)\gnu tools arm embedded\6 2017-q2-update\arm-none-eabi\include\c++\6.3.1\bits\stl_algobase.h **** 
 205:c:\program files (x86)\gnu tools arm embedded\6 2017-q2-update\arm-none-eabi\include\c++\6.3.1\bits\stl_algobase.h ****   /**
 206:c:\program files (x86)\gnu tools arm embedded\6 2017-q2-update\arm-none-eabi\include\c++\6.3.1\bits\stl_algobase.h ****    *  @brief This does what you think it does.
 207:c:\program files (x86)\gnu tools arm embedded\6 2017-q2-update\arm-none-eabi\include\c++\6.3.1\bits\stl_algobase.h ****    *  @ingroup sorting_algorithms
 208:c:\program files (x86)\gnu tools arm embedded\6 2017-q2-update\arm-none-eabi\include\c++\6.3.1\bits\stl_algobase.h ****    *  @param  __a  A thing of arbitrary type.
 209:c:\program files (x86)\gnu tools arm embedded\6 2017-q2-update\arm-none-eabi\include\c++\6.3.1\bits\stl_algobase.h ****    *  @param  __b  Another thing of arbitrary type.
 210:c:\program files (x86)\gnu tools arm embedded\6 2017-q2-update\arm-none-eabi\include\c++\6.3.1\bits\stl_algobase.h ****    *  @return   The greater of the parameters.
 211:c:\program files (x86)\gnu tools arm embedded\6 2017-q2-update\arm-none-eabi\include\c++\6.3.1\bits\stl_algobase.h ****    *
 212:c:\program files (x86)\gnu tools arm embedded\6 2017-q2-update\arm-none-eabi\include\c++\6.3.1\bits\stl_algobase.h ****    *  This is the simple classic generic implementation.  It will work on
 213:c:\program files (x86)\gnu tools arm embedded\6 2017-q2-update\arm-none-eabi\include\c++\6.3.1\bits\stl_algobase.h ****    *  temporary expressions, since they are only evaluated once, unlike a
 214:c:\program files (x86)\gnu tools arm embedded\6 2017-q2-update\arm-none-eabi\include\c++\6.3.1\bits\stl_algobase.h ****    *  preprocessor macro.
 215:c:\program files (x86)\gnu tools arm embedded\6 2017-q2-update\arm-none-eabi\include\c++\6.3.1\bits\stl_algobase.h ****   */
 216:c:\program files (x86)\gnu tools arm embedded\6 2017-q2-update\arm-none-eabi\include\c++\6.3.1\bits\stl_algobase.h ****   template<typename _Tp>
 217:c:\program files (x86)\gnu tools arm embedded\6 2017-q2-update\arm-none-eabi\include\c++\6.3.1\bits\stl_algobase.h ****     _GLIBCXX14_CONSTEXPR
 218:c:\program files (x86)\gnu tools arm embedded\6 2017-q2-update\arm-none-eabi\include\c++\6.3.1\bits\stl_algobase.h ****     inline const _Tp&
 219:c:\program files (x86)\gnu tools arm embedded\6 2017-q2-update\arm-none-eabi\include\c++\6.3.1\bits\stl_algobase.h ****     max(const _Tp& __a, const _Tp& __b)
 220:c:\program files (x86)\gnu tools arm embedded\6 2017-q2-update\arm-none-eabi\include\c++\6.3.1\bits\stl_algobase.h ****     {
 221:c:\program files (x86)\gnu tools arm embedded\6 2017-q2-update\arm-none-eabi\include\c++\6.3.1\bits\stl_algobase.h ****       // concept requirements
 222:c:\program files (x86)\gnu tools arm embedded\6 2017-q2-update\arm-none-eabi\include\c++\6.3.1\bits\stl_algobase.h ****       __glibcxx_function_requires(_LessThanComparableConcept<_Tp>)
 223:c:\program files (x86)\gnu tools arm embedded\6 2017-q2-update\arm-none-eabi\include\c++\6.3.1\bits\stl_algobase.h ****       //return  __a < __b ? __b : __a;
 224:c:\program files (x86)\gnu tools arm embedded\6 2017-q2-update\arm-none-eabi\include\c++\6.3.1\bits\stl_algobase.h ****       if (__a < __b)
 225:c:\program files (x86)\gnu tools arm embedded\6 2017-q2-update\arm-none-eabi\include\c++\6.3.1\bits\stl_algobase.h **** 	return __b;
 226:c:\program files (x86)\gnu tools arm embedded\6 2017-q2-update\arm-none-eabi\include\c++\6.3.1\bits\stl_algobase.h ****       return __a;
 1136              		.loc 7 226 0
 1137 03b8 E68AB4EE 		vcmpe.f32	s16, s13
 1138              	.LBE743:
 1139              	.LBE742:
 1140              	.LBE741:
 1141              	.LBE755:
  43:C:/Renesas/e2studio_2021_01_workspace_RZA2M_ANPR/ANPR_RZA2M_RDK/src/tensorflow_lite/tensorflow/lite/kernels/internal/reference\pooling.h ****           const int in_x_origin =
 1142              		.loc 5 43 0
 1143 03bc 010080E2 		add	r0, r0, #1
 1144              	.LVL114:
 1145              	.LBB756:
 1146              	.LBB750:
 1147              	.LBB745:
 1148              	.LBB744:
 1149              		.loc 7 226 0
 1150 03c0 10FAF1EE 		vmrs	APSR_nzcv, FPSCR
 1151 03c4 667AF0DE 		vmovle.f32	s15, s13
 1152 03c8 487AF0CE 		vmovgt.f32	s15, s16
 1153              	.LVL115:
 1154              	.LBE744:
 1155              	.LBE745:
 1156              	.LBB746:
 1157              	.LBB747:
 201:c:\program files (x86)\gnu tools arm embedded\6 2017-q2-update\arm-none-eabi\include\c++\6.3.1\bits\stl_algobase.h ****       return __a;
 1158              		.loc 7 201 0
 1159 03cc 678AF4EE 		vcmp.f32	s17, s15
 1160 03d0 10FAF1EE 		vmrs	APSR_nzcv, FPSCR
 1161              	.LBE747:
 1162              	.LBE746:
 1163              	.LBE750:
  70:C:/Renesas/e2studio_2021_01_workspace_RZA2M_ANPR/ANPR_RZA2M_RDK/src/tensorflow_lite/tensorflow/lite/kernels/internal/reference\pooling.h ****           output_data[Offset(output_shape, batch, out_y, out_x, channel)] =
 1164              		.loc 5 70 0
 1165 03d4 14309DE5 		ldr	r3, [sp, #20]
 1166              	.LBB751:
 1167              	.LBB749:
 1168              	.LBB748:
 201:c:\program files (x86)\gnu tools arm embedded\6 2017-q2-update\arm-none-eabi\include\c++\6.3.1\bits\stl_algobase.h ****       return __a;
 1169              		.loc 7 201 0
 1170 03d8 687AF04E 		vmovmi.f32	s15, s17
 1171              	.LVL116:
 1172              	.LBE748:
 1173              	.LBE749:
 1174              	.LBE751:
 1175              	.LBE756:
  43:C:/Renesas/e2studio_2021_01_workspace_RZA2M_ANPR/ANPR_RZA2M_RDK/src/tensorflow_lite/tensorflow/lite/kernels/internal/reference\pooling.h ****           const int in_x_origin =
 1176              		.loc 5 43 0
 1177 03dc 090050E1 		cmp	r0, r9
 1178              	.LBB757:
 1179              		.loc 5 70 0
 1180 03e0 017AE3EC 		vstmia.32	r3!, {s15}
 1181 03e4 14308DE5 		str	r3, [sp, #20]
 1182              	.LBE757:
  43:C:/Renesas/e2studio_2021_01_workspace_RZA2M_ANPR/ANPR_RZA2M_RDK/src/tensorflow_lite/tensorflow/lite/kernels/internal/reference\pooling.h ****           const int in_x_origin =
 1183              		.loc 5 43 0
 1184 03e8 B3FFFF1A 		bne	.L88
 1185              	.LVL117:
 1186              	.L87:
 1187 03ec 44209DE5 		ldr	r2, [sp, #68]
 1188 03f0 7C109DE5 		ldr	r1, [sp, #124]
 1189              	.LBE762:
  42:C:/Renesas/e2studio_2021_01_workspace_RZA2M_ANPR/ANPR_RZA2M_RDK/src/tensorflow_lite/tensorflow/lite/kernels/internal/reference\pooling.h ****         for (int channel = 0; channel < depth; ++channel) {
 1190              		.loc 5 42 0
 1191 03f4 34309DE5 		ldr	r3, [sp, #52]
 1192 03f8 012082E0 		add	r2, r2, r1
 1193 03fc 44208DE5 		str	r2, [sp, #68]
 1194 0400 013083E2 		add	r3, r3, #1
 1195 0404 20209DE5 		ldr	r2, [sp, #32]
 1196 0408 34308DE5 		str	r3, [sp, #52]
 1197              	.LVL118:
 1198 040c 020053E1 		cmp	r3, r2
 1199 0410 40209DE5 		ldr	r2, [sp, #64]
 1200 0414 70309DE5 		ldr	r3, [sp, #112]
 1201              	.LVL119:
 1202 0418 032042E0 		sub	r2, r2, r3
 1203 041c 40208DE5 		str	r2, [sp, #64]
 1204 0420 3C209DE5 		ldr	r2, [sp, #60]
 1205 0424 033082E0 		add	r3, r2, r3
 1206 0428 3C308DE5 		str	r3, [sp, #60]
 1207 042c 8EFFFF1A 		bne	.L69
 1208              	.LVL120:
 1209              	.L68:
 1210 0430 54209DE5 		ldr	r2, [sp, #84]
 1211 0434 74109DE5 		ldr	r1, [sp, #116]
 1212              	.LBE767:
  41:C:/Renesas/e2studio_2021_01_workspace_RZA2M_ANPR/ANPR_RZA2M_RDK/src/tensorflow_lite/tensorflow/lite/kernels/internal/reference\pooling.h ****       for (int out_x = 0; out_x < output_width; ++out_x) {
 1213              		.loc 5 41 0
 1214 0438 38309DE5 		ldr	r3, [sp, #56]
 1215 043c 012082E0 		add	r2, r2, r1
 1216 0440 54208DE5 		str	r2, [sp, #84]
 1217 0444 013083E2 		add	r3, r3, #1
 1218 0448 1C209DE5 		ldr	r2, [sp, #28]
 1219 044c 38308DE5 		str	r3, [sp, #56]
 1220              	.LVL121:
 1221 0450 020053E1 		cmp	r3, r2
 1222 0454 18209DE5 		ldr	r2, [sp, #24]
 1223 0458 6C309DE5 		ldr	r3, [sp, #108]
 1224              	.LVL122:
 1225 045c 032082E0 		add	r2, r2, r3
 1226 0460 18208DE5 		str	r2, [sp, #24]
 1227 0464 48209DE5 		ldr	r2, [sp, #72]
 1228 0468 033042E0 		sub	r3, r2, r3
 1229 046c 48308DE5 		str	r3, [sp, #72]
 1230 0470 5FFFFF1A 		bne	.L66
 1231              	.LVL123:
 1232              	.L65:
 1233 0474 4C209DE5 		ldr	r2, [sp, #76]
 1234 0478 78109DE5 		ldr	r1, [sp, #120]
 1235              	.LBE772:
  40:C:/Renesas/e2studio_2021_01_workspace_RZA2M_ANPR/ANPR_RZA2M_RDK/src/tensorflow_lite/tensorflow/lite/kernels/internal/reference\pooling.h ****     for (int out_y = 0; out_y < output_height; ++out_y) {
 1236              		.loc 5 40 0
 1237 047c 04309DE5 		ldr	r3, [sp, #4]
 1238 0480 012082E0 		add	r2, r2, r1
 1239 0484 4C208DE5 		str	r2, [sp, #76]
 1240 0488 013083E2 		add	r3, r3, #1
 1241 048c 24209DE5 		ldr	r2, [sp, #36]
 1242 0490 04308DE5 		str	r3, [sp, #4]
 1243              	.LVL124:
 1244 0494 020053E1 		cmp	r3, r2
 1245 0498 50309DE5 		ldr	r3, [sp, #80]
 1246              	.LVL125:
 1247 049c 08209DE5 		ldr	r2, [sp, #8]
 1248 04a0 023083E0 		add	r3, r3, r2
 1249 04a4 50308DE5 		str	r3, [sp, #80]
 1250 04a8 44FFFF1A 		bne	.L63
 1251              	.LVL126:
 1252              	.L133:
 1253              	.LBE787:
 1254              	.LBE794:
 1255              	.LBE804:
 1256              	.LBE691:
 1257              	.LBE690:
 181:../src/tensorflow_lite/tensorflow/lite/micro/kernels/pooling.cc **** }
 1258              		.loc 1 181 0
 1259 04ac 0000A0E3 		mov	r0, #0
 1260 04b0 F9FEFFEA 		b	.L255
 1261              	.L319:
 1262              		.align	2
 1263              	.L318:
 1264 04b4 00000000 		.word	0
 1265              	.LVL127:
 1266              	.L52:
 1267              	.LBB819:
 1268              	.LBB820:
  83:../src/tensorflow_lite/tensorflow/lite/micro/kernels/pooling.cc **** 
 1269              		.loc 1 83 0
 1270 04b8 090050E3 		cmp	r0, #9
 1271 04bc 03005013 		cmpne	r0, #3
 1272 04c0 4802001A 		bne	.L50
  86:../src/tensorflow_lite/tensorflow/lite/micro/kernels/pooling.cc ****   op_params.stride_width = params->stride_width;
 1273              		.loc 1 86 0
 1274 04c4 083097E5 		ldr	r3, [r7, #8]
  95:../src/tensorflow_lite/tensorflow/lite/micro/kernels/pooling.cc ****     reference_ops::AveragePool(op_params, tflite::micro::GetTensorShape(input),
 1275              		.loc 1 95 0
 1276 04c8 030050E3 		cmp	r0, #3
  96:../src/tensorflow_lite/tensorflow/lite/micro/kernels/pooling.cc ****                                tflite::micro::GetTensorData<uint8_t>(input),
 1277              		.loc 1 96 0
 1278 04cc 0610A0E1 		mov	r1, r6
 1279 04d0 80008DE2 		add	r0, sp, #128
  86:../src/tensorflow_lite/tensorflow/lite/micro/kernels/pooling.cc ****   op_params.stride_width = params->stride_width;
 1280              		.loc 1 86 0
 1281 04d4 6C308DE5 		str	r3, [sp, #108]
 1282              	.LVL128:
  87:../src/tensorflow_lite/tensorflow/lite/micro/kernels/pooling.cc ****   op_params.filter_height = params->filter_height;
 1283              		.loc 1 87 0
 1284 04d8 043097E5 		ldr	r3, [r7, #4]
 1285              	.LVL129:
 1286 04dc 70308DE5 		str	r3, [sp, #112]
 1287              	.LVL130:
  88:../src/tensorflow_lite/tensorflow/lite/micro/kernels/pooling.cc ****   op_params.filter_width = params->filter_width;
 1288              		.loc 1 88 0
 1289 04e0 103097E5 		ldr	r3, [r7, #16]
 1290              	.LVL131:
 1291 04e4 5C308DE5 		str	r3, [sp, #92]
 1292              	.LVL132:
  89:../src/tensorflow_lite/tensorflow/lite/micro/kernels/pooling.cc ****   op_params.padding_values.height = data->padding.height;
 1293              		.loc 1 89 0
 1294 04e8 0C3097E5 		ldr	r3, [r7, #12]
 1295              	.LVL133:
 1296 04ec 4C308DE5 		str	r3, [sp, #76]
 1297              	.LVL134:
  90:../src/tensorflow_lite/tensorflow/lite/micro/kernels/pooling.cc ****   op_params.padding_values.width = data->padding.width;
 1298              		.loc 1 90 0
 1299 04f0 F430D5E1 		ldrsh	r3, [r5, #4]
 1300              	.LVL135:
 1301 04f4 60308DE5 		str	r3, [sp, #96]
 1302              	.LVL136:
  91:../src/tensorflow_lite/tensorflow/lite/micro/kernels/pooling.cc ****   op_params.quantized_activation_min = data->activation_min;
 1303              		.loc 1 91 0
 1304 04f8 F030D5E1 		ldrsh	r3, [r5]
 1305 04fc 64308DE5 		str	r3, [sp, #100]
 1306              	.LVL137:
  92:../src/tensorflow_lite/tensorflow/lite/micro/kernels/pooling.cc ****   op_params.quantized_activation_max = data->activation_max;
 1307              		.loc 1 92 0
 1308 0500 103095E5 		ldr	r3, [r5, #16]
 1309 0504 20308DE5 		str	r3, [sp, #32]
 1310              	.LVL138:
  93:../src/tensorflow_lite/tensorflow/lite/micro/kernels/pooling.cc **** 
 1311              		.loc 1 93 0
 1312 0508 143095E5 		ldr	r3, [r5, #20]
 1313              	.LVL139:
 1314 050c 3C308DE5 		str	r3, [sp, #60]
  95:../src/tensorflow_lite/tensorflow/lite/micro/kernels/pooling.cc ****     reference_ops::AveragePool(op_params, tflite::micro::GetTensorShape(input),
 1315              		.loc 1 95 0
 1316 0510 F600000A 		beq	.L294
 1317              	.LVL140:
 1318              	.LEHB2:
 102:../src/tensorflow_lite/tensorflow/lite/micro/kernels/pooling.cc ****         tflite::micro::GetTensorData<int8_t>(input),
 1319              		.loc 1 102 0
 1320 0514 FEFFFFEB 		bl	_ZN6tflite5micro14GetTensorShapeEPK16TfLiteEvalTensor
 1321              	.LVL141:
 1322              	.LEHE2:
 1323              	.LBB821:
 1324              	.LBB822:
 1325              		.loc 4 63 0
 1326 0518 003096E5 		ldr	r3, [r6]
 1327              	.LBE822:
 1328              	.LBE821:
 104:../src/tensorflow_lite/tensorflow/lite/micro/kernels/pooling.cc ****         tflite::micro::GetTensorData<int8_t>(output));
 1329              		.loc 1 104 0
 1330 051c 0410A0E1 		mov	r1, r4
 1331 0520 98008DE2 		add	r0, sp, #152
 1332              	.LBB824:
 1333              	.LBB823:
 1334              		.loc 4 63 0
 1335 0524 40308DE5 		str	r3, [sp, #64]
 1336              	.LVL142:
 1337              	.LEHB3:
 1338              	.LBE823:
 1339              	.LBE824:
 104:../src/tensorflow_lite/tensorflow/lite/micro/kernels/pooling.cc ****         tflite::micro::GetTensorData<int8_t>(output));
 1340              		.loc 1 104 0
 1341 0528 FEFFFFEB 		bl	_ZN6tflite5micro14GetTensorShapeEPK16TfLiteEvalTensor
 1342              	.LVL143:
 1343              	.LEHE3:
 1344              	.LBB825:
 1345              	.LBB826:
  56:C:/Renesas/e2studio_2021_01_workspace_RZA2M_ANPR/ANPR_RZA2M_RDK/src/tensorflow_lite/tensorflow/lite/micro/kernels\kernel_util.h **** }
 1346              		.loc 4 56 0
 1347 052c 000054E3 		cmp	r4, #0
 1348              	.LBE826:
 1349              	.LBE825:
 1350              	.LBB828:
 1351              	.LBB829:
 1352              		.file 8 "C:/Renesas/e2studio_2021_01_workspace_RZA2M_ANPR/ANPR_RZA2M_RDK/src/tensorflow_lite/tenso
   1:C:/Renesas/e2studio_2021_01_workspace_RZA2M_ANPR/ANPR_RZA2M_RDK/src/tensorflow_lite/tensorflow/lite/kernels/internal/reference/integer_ops\pooling.h **** /* Copyright 2018 The TensorFlow Authors. All Rights Reserved.
   2:C:/Renesas/e2studio_2021_01_workspace_RZA2M_ANPR/ANPR_RZA2M_RDK/src/tensorflow_lite/tensorflow/lite/kernels/internal/reference/integer_ops\pooling.h **** 
   3:C:/Renesas/e2studio_2021_01_workspace_RZA2M_ANPR/ANPR_RZA2M_RDK/src/tensorflow_lite/tensorflow/lite/kernels/internal/reference/integer_ops\pooling.h **** Licensed under the Apache License, Version 2.0 (the "License");
   4:C:/Renesas/e2studio_2021_01_workspace_RZA2M_ANPR/ANPR_RZA2M_RDK/src/tensorflow_lite/tensorflow/lite/kernels/internal/reference/integer_ops\pooling.h **** you may not use this file except in compliance with the License.
   5:C:/Renesas/e2studio_2021_01_workspace_RZA2M_ANPR/ANPR_RZA2M_RDK/src/tensorflow_lite/tensorflow/lite/kernels/internal/reference/integer_ops\pooling.h **** You may obtain a copy of the License at
   6:C:/Renesas/e2studio_2021_01_workspace_RZA2M_ANPR/ANPR_RZA2M_RDK/src/tensorflow_lite/tensorflow/lite/kernels/internal/reference/integer_ops\pooling.h **** 
   7:C:/Renesas/e2studio_2021_01_workspace_RZA2M_ANPR/ANPR_RZA2M_RDK/src/tensorflow_lite/tensorflow/lite/kernels/internal/reference/integer_ops\pooling.h ****     http://www.apache.org/licenses/LICENSE-2.0
   8:C:/Renesas/e2studio_2021_01_workspace_RZA2M_ANPR/ANPR_RZA2M_RDK/src/tensorflow_lite/tensorflow/lite/kernels/internal/reference/integer_ops\pooling.h **** 
   9:C:/Renesas/e2studio_2021_01_workspace_RZA2M_ANPR/ANPR_RZA2M_RDK/src/tensorflow_lite/tensorflow/lite/kernels/internal/reference/integer_ops\pooling.h **** Unless required by applicable law or agreed to in writing, software
  10:C:/Renesas/e2studio_2021_01_workspace_RZA2M_ANPR/ANPR_RZA2M_RDK/src/tensorflow_lite/tensorflow/lite/kernels/internal/reference/integer_ops\pooling.h **** distributed under the License is distributed on an "AS IS" BASIS,
  11:C:/Renesas/e2studio_2021_01_workspace_RZA2M_ANPR/ANPR_RZA2M_RDK/src/tensorflow_lite/tensorflow/lite/kernels/internal/reference/integer_ops\pooling.h **** WITHOUT WARRANTIES OR CONDITIONS OF ANY KIND, either express or implied.
  12:C:/Renesas/e2studio_2021_01_workspace_RZA2M_ANPR/ANPR_RZA2M_RDK/src/tensorflow_lite/tensorflow/lite/kernels/internal/reference/integer_ops\pooling.h **** See the License for the specific language governing permissions and
  13:C:/Renesas/e2studio_2021_01_workspace_RZA2M_ANPR/ANPR_RZA2M_RDK/src/tensorflow_lite/tensorflow/lite/kernels/internal/reference/integer_ops\pooling.h **** limitations under the License.
  14:C:/Renesas/e2studio_2021_01_workspace_RZA2M_ANPR/ANPR_RZA2M_RDK/src/tensorflow_lite/tensorflow/lite/kernels/internal/reference/integer_ops\pooling.h **** ==============================================================================*/
  15:C:/Renesas/e2studio_2021_01_workspace_RZA2M_ANPR/ANPR_RZA2M_RDK/src/tensorflow_lite/tensorflow/lite/kernels/internal/reference/integer_ops\pooling.h **** #ifndef TENSORFLOW_LITE_KERNELS_INTERNAL_REFERENCE_INTEGER_OPS_POOLING_H_
  16:C:/Renesas/e2studio_2021_01_workspace_RZA2M_ANPR/ANPR_RZA2M_RDK/src/tensorflow_lite/tensorflow/lite/kernels/internal/reference/integer_ops\pooling.h **** #define TENSORFLOW_LITE_KERNELS_INTERNAL_REFERENCE_INTEGER_OPS_POOLING_H_
  17:C:/Renesas/e2studio_2021_01_workspace_RZA2M_ANPR/ANPR_RZA2M_RDK/src/tensorflow_lite/tensorflow/lite/kernels/internal/reference/integer_ops\pooling.h **** 
  18:C:/Renesas/e2studio_2021_01_workspace_RZA2M_ANPR/ANPR_RZA2M_RDK/src/tensorflow_lite/tensorflow/lite/kernels/internal/reference/integer_ops\pooling.h **** #include <limits>
  19:C:/Renesas/e2studio_2021_01_workspace_RZA2M_ANPR/ANPR_RZA2M_RDK/src/tensorflow_lite/tensorflow/lite/kernels/internal/reference/integer_ops\pooling.h **** #include "tensorflow/lite/kernels/internal/common.h"
  20:C:/Renesas/e2studio_2021_01_workspace_RZA2M_ANPR/ANPR_RZA2M_RDK/src/tensorflow_lite/tensorflow/lite/kernels/internal/reference/integer_ops\pooling.h **** 
  21:C:/Renesas/e2studio_2021_01_workspace_RZA2M_ANPR/ANPR_RZA2M_RDK/src/tensorflow_lite/tensorflow/lite/kernels/internal/reference/integer_ops\pooling.h **** namespace tflite {
  22:C:/Renesas/e2studio_2021_01_workspace_RZA2M_ANPR/ANPR_RZA2M_RDK/src/tensorflow_lite/tensorflow/lite/kernels/internal/reference/integer_ops\pooling.h **** namespace reference_integer_ops {
  23:C:/Renesas/e2studio_2021_01_workspace_RZA2M_ANPR/ANPR_RZA2M_RDK/src/tensorflow_lite/tensorflow/lite/kernels/internal/reference/integer_ops\pooling.h **** 
  24:C:/Renesas/e2studio_2021_01_workspace_RZA2M_ANPR/ANPR_RZA2M_RDK/src/tensorflow_lite/tensorflow/lite/kernels/internal/reference/integer_ops\pooling.h **** inline void AveragePool(const PoolParams& params,
  25:C:/Renesas/e2studio_2021_01_workspace_RZA2M_ANPR/ANPR_RZA2M_RDK/src/tensorflow_lite/tensorflow/lite/kernels/internal/reference/integer_ops\pooling.h ****                         const RuntimeShape& input_shape,
  26:C:/Renesas/e2studio_2021_01_workspace_RZA2M_ANPR/ANPR_RZA2M_RDK/src/tensorflow_lite/tensorflow/lite/kernels/internal/reference/integer_ops\pooling.h ****                         const int8_t* input_data,
  27:C:/Renesas/e2studio_2021_01_workspace_RZA2M_ANPR/ANPR_RZA2M_RDK/src/tensorflow_lite/tensorflow/lite/kernels/internal/reference/integer_ops\pooling.h ****                         const RuntimeShape& output_shape, int8_t* output_data) {
  28:C:/Renesas/e2studio_2021_01_workspace_RZA2M_ANPR/ANPR_RZA2M_RDK/src/tensorflow_lite/tensorflow/lite/kernels/internal/reference/integer_ops\pooling.h ****   TFLITE_DCHECK_LE(params.quantized_activation_min,
  29:C:/Renesas/e2studio_2021_01_workspace_RZA2M_ANPR/ANPR_RZA2M_RDK/src/tensorflow_lite/tensorflow/lite/kernels/internal/reference/integer_ops\pooling.h ****                    params.quantized_activation_max);
 1353              		.loc 8 29 0
 1354 0530 3C209DE5 		ldr	r2, [sp, #60]
 1355              	.LBE829:
 1356              	.LBE828:
 1357              	.LBB928:
 1358              	.LBB827:
  56:C:/Renesas/e2studio_2021_01_workspace_RZA2M_ANPR/ANPR_RZA2M_RDK/src/tensorflow_lite/tensorflow/lite/micro/kernels\kernel_util.h **** }
 1359              		.loc 4 56 0
 1360 0534 00309415 		ldrne	r3, [r4]
 1361 0538 44408D05 		streq	r4, [sp, #68]
 1362              	.LVL144:
 1363 053c 44308D15 		strne	r3, [sp, #68]
 1364              	.LVL145:
 1365              	.LBE827:
 1366              	.LBE928:
 1367              	.LBB929:
 1368              	.LBB919:
 1369              		.loc 8 29 0
 1370 0540 20309DE5 		ldr	r3, [sp, #32]
 1371 0544 020053E1 		cmp	r3, r2
 1372 0548 1D0200CA 		bgt	.L295
 1373              	.LVL146:
  30:C:/Renesas/e2studio_2021_01_workspace_RZA2M_ANPR/ANPR_RZA2M_RDK/src/tensorflow_lite/tensorflow/lite/kernels/internal/reference/integer_ops\pooling.h ****   TFLITE_DCHECK_EQ(input_shape.DimensionsCount(), 4);
 1374              		.loc 8 30 0
 1375 054c 80309DE5 		ldr	r3, [sp, #128]
 1376 0550 040053E3 		cmp	r3, #4
 1377 0554 1B02001A 		bne	.L296
 1378              	.LVL147:
  31:C:/Renesas/e2studio_2021_01_workspace_RZA2M_ANPR/ANPR_RZA2M_RDK/src/tensorflow_lite/tensorflow/lite/kernels/internal/reference/integer_ops\pooling.h ****   TFLITE_DCHECK_EQ(output_shape.DimensionsCount(), 4);
 1379              		.loc 8 31 0
 1380 0558 98309DE5 		ldr	r3, [sp, #152]
 1381 055c 040053E3 		cmp	r3, #4
 1382 0560 0D02001A 		bne	.L297
 1383              	.LVL148:
 1384              	.LBB830:
 1385              	.LBB831:
 1386              	.LBB832:
 1387              	.LBB833:
 216:C:/Renesas/e2studio_2021_01_workspace_RZA2M_ANPR/ANPR_RZA2M_RDK/src/tensorflow_lite/tensorflow/lite/kernels/internal\types.h ****   }
 1388              		.loc 6 216 0
 1389 0564 84309DE5 		ldr	r3, [sp, #132]
 1390 0568 0320A0E1 		mov	r2, r3
 1391 056c 74308DE5 		str	r3, [sp, #116]
 1392              	.LVL149:
 1393              	.LBE833:
 1394              	.LBE832:
 1395              		.loc 6 472 0
 1396 0570 9C309DE5 		ldr	r3, [sp, #156]
 1397 0574 030052E1 		cmp	r2, r3
 1398 0578 E301001A 		bne	.L298
 1399              	.LVL150:
 1400              	.LBE831:
 1401              	.LBE830:
 1402              	.LBB835:
 1403              	.LBB836:
 1404              	.LBB837:
 1405              	.LBB838:
 216:C:/Renesas/e2studio_2021_01_workspace_RZA2M_ANPR/ANPR_RZA2M_RDK/src/tensorflow_lite/tensorflow/lite/kernels/internal\types.h ****   }
 1406              		.loc 6 216 0
 1407 057c 90309DE5 		ldr	r3, [sp, #144]
 1408 0580 0320A0E1 		mov	r2, r3
 1409 0584 38308DE5 		str	r3, [sp, #56]
 1410              	.LVL151:
 1411              	.LBE838:
 1412              	.LBE837:
 1413              		.loc 6 472 0
 1414 0588 A8309DE5 		ldr	r3, [sp, #168]
 1415 058c 030052E1 		cmp	r2, r3
 1416 0590 DE01001A 		bne	.L299
 1417              	.LVL152:
 1418              	.LBE836:
 1419              	.LBE835:
 1420              	.LBB840:
  32:C:/Renesas/e2studio_2021_01_workspace_RZA2M_ANPR/ANPR_RZA2M_RDK/src/tensorflow_lite/tensorflow/lite/kernels/internal/reference/integer_ops\pooling.h ****   const int batches = MatchingDim(input_shape, 0, output_shape, 0);
  33:C:/Renesas/e2studio_2021_01_workspace_RZA2M_ANPR/ANPR_RZA2M_RDK/src/tensorflow_lite/tensorflow/lite/kernels/internal/reference/integer_ops\pooling.h ****   const int depth = MatchingDim(input_shape, 3, output_shape, 3);
  34:C:/Renesas/e2studio_2021_01_workspace_RZA2M_ANPR/ANPR_RZA2M_RDK/src/tensorflow_lite/tensorflow/lite/kernels/internal/reference/integer_ops\pooling.h ****   const int input_height = input_shape.Dims(1);
  35:C:/Renesas/e2studio_2021_01_workspace_RZA2M_ANPR/ANPR_RZA2M_RDK/src/tensorflow_lite/tensorflow/lite/kernels/internal/reference/integer_ops\pooling.h ****   const int input_width = input_shape.Dims(2);
  36:C:/Renesas/e2studio_2021_01_workspace_RZA2M_ANPR/ANPR_RZA2M_RDK/src/tensorflow_lite/tensorflow/lite/kernels/internal/reference/integer_ops\pooling.h ****   const int output_height = output_shape.Dims(1);
  37:C:/Renesas/e2studio_2021_01_workspace_RZA2M_ANPR/ANPR_RZA2M_RDK/src/tensorflow_lite/tensorflow/lite/kernels/internal/reference/integer_ops\pooling.h ****   const int output_width = output_shape.Dims(2);
  38:C:/Renesas/e2studio_2021_01_workspace_RZA2M_ANPR/ANPR_RZA2M_RDK/src/tensorflow_lite/tensorflow/lite/kernels/internal/reference/integer_ops\pooling.h ****   const int stride_height = params.stride_height;
  39:C:/Renesas/e2studio_2021_01_workspace_RZA2M_ANPR/ANPR_RZA2M_RDK/src/tensorflow_lite/tensorflow/lite/kernels/internal/reference/integer_ops\pooling.h ****   const int stride_width = params.stride_width;
  40:C:/Renesas/e2studio_2021_01_workspace_RZA2M_ANPR/ANPR_RZA2M_RDK/src/tensorflow_lite/tensorflow/lite/kernels/internal/reference/integer_ops\pooling.h ****   for (int batch = 0; batch < batches; ++batch) {
 1421              		.loc 8 40 0
 1422 0594 74309DE5 		ldr	r3, [sp, #116]
 1423 0598 000053E3 		cmp	r3, #0
 1424              	.LBE840:
 1425              	.LBB902:
 1426              	.LBB903:
 216:C:/Renesas/e2studio_2021_01_workspace_RZA2M_ANPR/ANPR_RZA2M_RDK/src/tensorflow_lite/tensorflow/lite/kernels/internal\types.h ****   }
 1427              		.loc 6 216 0
 1428 059c 88309DE5 		ldr	r3, [sp, #136]
 1429 05a0 68308DE5 		str	r3, [sp, #104]
 1430              	.LVL153:
 1431              	.LBE903:
 1432              	.LBE902:
 1433              	.LBB904:
 1434              	.LBB905:
 1435 05a4 8C309DE5 		ldr	r3, [sp, #140]
 1436 05a8 54308DE5 		str	r3, [sp, #84]
 1437              	.LVL154:
 1438              	.LBE905:
 1439              	.LBE904:
 1440              	.LBB906:
 1441              	.LBB907:
 1442 05ac A0309DE5 		ldr	r3, [sp, #160]
 1443 05b0 78308DE5 		str	r3, [sp, #120]
 1444              	.LVL155:
 1445              	.LBE907:
 1446              	.LBE906:
 1447              	.LBB908:
 1448              	.LBB909:
 1449 05b4 A4309DE5 		ldr	r3, [sp, #164]
 1450 05b8 7C308DE5 		str	r3, [sp, #124]
 1451              	.LVL156:
 1452              	.LBE909:
 1453              	.LBE908:
 1454              	.LBB910:
 1455              		.loc 8 40 0
 1456 05bc BAFFFFDA 		ble	.L133
 1457 05c0 0070A0E3 		mov	r7, #0
 1458              	.LVL157:
 1459              	.L143:
 1460              	.LBB841:
  41:C:/Renesas/e2studio_2021_01_workspace_RZA2M_ANPR/ANPR_RZA2M_RDK/src/tensorflow_lite/tensorflow/lite/kernels/internal/reference/integer_ops\pooling.h ****     for (int out_y = 0; out_y < output_height; ++out_y) {
 1461              		.loc 8 41 0
 1462 05c4 78309DE5 		ldr	r3, [sp, #120]
 1463 05c8 000053E3 		cmp	r3, #0
 1464 05cc BC0000DA 		ble	.L145
 1465 05d0 60309DE5 		ldr	r3, [sp, #96]
 1466 05d4 002063E2 		rsb	r2, r3, #0
 1467 05d8 2C208DE5 		str	r2, [sp, #44]
 1468 05dc 68209DE5 		ldr	r2, [sp, #104]
 1469 05e0 033082E0 		add	r3, r2, r3
 1470 05e4 58308DE5 		str	r3, [sp, #88]
 1471 05e8 0030A0E3 		mov	r3, #0
 1472 05ec 28308DE5 		str	r3, [sp, #40]
 1473              	.LVL158:
 1474              	.L146:
 1475              	.LBB842:
  42:C:/Renesas/e2studio_2021_01_workspace_RZA2M_ANPR/ANPR_RZA2M_RDK/src/tensorflow_lite/tensorflow/lite/kernels/internal/reference/integer_ops\pooling.h ****       for (int out_x = 0; out_x < output_width; ++out_x) {
 1476              		.loc 8 42 0
 1477 05f0 7C309DE5 		ldr	r3, [sp, #124]
 1478 05f4 000053E3 		cmp	r3, #0
 1479 05f8 A40000DA 		ble	.L148
 1480 05fc 64109DE5 		ldr	r1, [sp, #100]
 1481 0600 07A0A0E1 		mov	r10, r7
 1482 0604 54009DE5 		ldr	r0, [sp, #84]
 1483 0608 5C209DE5 		ldr	r2, [sp, #92]
 1484 060c 58309DE5 		ldr	r3, [sp, #88]
 1485 0610 010080E0 		add	r0, r0, r1
 1486 0614 48008DE5 		str	r0, [sp, #72]
 1487 0618 2C009DE5 		ldr	r0, [sp, #44]
 1488 061c 020053E1 		cmp	r3, r2
 1489 0620 0320A0B1 		movlt	r2, r3
 1490 0624 30208DE5 		str	r2, [sp, #48]
 1491 0628 002082E0 		add	r2, r2, r0
 1492 062c 000050E3 		cmp	r0, #0
 1493 0630 18208DE5 		str	r2, [sp, #24]
 1494 0634 68209DE5 		ldr	r2, [sp, #104]
 1495 0638 023043B0 		sublt	r3, r3, r2
 1496 063c 0030A0A3 		movge	r3, #0
 1497 0640 34308DE5 		str	r3, [sp, #52]
 1498 0644 003061E2 		rsb	r3, r1, #0
 1499 0648 50308DE5 		str	r3, [sp, #80]
 1500 064c 0030A0E3 		mov	r3, #0
 1501 0650 24308DE5 		str	r3, [sp, #36]
 1502              	.LVL159:
 1503              	.L149:
 1504              	.LBB843:
  43:C:/Renesas/e2studio_2021_01_workspace_RZA2M_ANPR/ANPR_RZA2M_RDK/src/tensorflow_lite/tensorflow/lite/kernels/internal/reference/integer_ops\pooling.h ****         for (int channel = 0; channel < depth; ++channel) {
 1505              		.loc 8 43 0
 1506 0654 38309DE5 		ldr	r3, [sp, #56]
 1507 0658 000053E3 		cmp	r3, #0
 1508 065c 7D0000DA 		ble	.L169
 1509 0660 48109DE5 		ldr	r1, [sp, #72]
 1510              	.LBB844:
 1511              	.LBB845:
 1512              	.LBB846:
 1513              	.LBB847:
  44:C:/Renesas/e2studio_2021_01_workspace_RZA2M_ANPR/ANPR_RZA2M_RDK/src/tensorflow_lite/tensorflow/lite/kernels/internal/reference/integer_ops\pooling.h ****           const int in_x_origin =
  45:C:/Renesas/e2studio_2021_01_workspace_RZA2M_ANPR/ANPR_RZA2M_RDK/src/tensorflow_lite/tensorflow/lite/kernels/internal/reference/integer_ops\pooling.h ****               (out_x * stride_width) - params.padding_values.width;
  46:C:/Renesas/e2studio_2021_01_workspace_RZA2M_ANPR/ANPR_RZA2M_RDK/src/tensorflow_lite/tensorflow/lite/kernels/internal/reference/integer_ops\pooling.h ****           const int in_y_origin =
  47:C:/Renesas/e2studio_2021_01_workspace_RZA2M_ANPR/ANPR_RZA2M_RDK/src/tensorflow_lite/tensorflow/lite/kernels/internal/reference/integer_ops\pooling.h ****               (out_y * stride_height) - params.padding_values.height;
  48:C:/Renesas/e2studio_2021_01_workspace_RZA2M_ANPR/ANPR_RZA2M_RDK/src/tensorflow_lite/tensorflow/lite/kernels/internal/reference/integer_ops\pooling.h ****           // Compute the boundaries of the filter region clamped so as to
  49:C:/Renesas/e2studio_2021_01_workspace_RZA2M_ANPR/ANPR_RZA2M_RDK/src/tensorflow_lite/tensorflow/lite/kernels/internal/reference/integer_ops\pooling.h ****           // ensure that the filter window fits in the input array.
  50:C:/Renesas/e2studio_2021_01_workspace_RZA2M_ANPR/ANPR_RZA2M_RDK/src/tensorflow_lite/tensorflow/lite/kernels/internal/reference/integer_ops\pooling.h ****           const int filter_x_start = std::max(0, -in_x_origin);
  51:C:/Renesas/e2studio_2021_01_workspace_RZA2M_ANPR/ANPR_RZA2M_RDK/src/tensorflow_lite/tensorflow/lite/kernels/internal/reference/integer_ops\pooling.h ****           const int filter_x_end =
  52:C:/Renesas/e2studio_2021_01_workspace_RZA2M_ANPR/ANPR_RZA2M_RDK/src/tensorflow_lite/tensorflow/lite/kernels/internal/reference/integer_ops\pooling.h ****               std::min(params.filter_width, input_width - in_x_origin);
  53:C:/Renesas/e2studio_2021_01_workspace_RZA2M_ANPR/ANPR_RZA2M_RDK/src/tensorflow_lite/tensorflow/lite/kernels/internal/reference/integer_ops\pooling.h ****           const int filter_y_start = std::max(0, -in_y_origin);
  54:C:/Renesas/e2studio_2021_01_workspace_RZA2M_ANPR/ANPR_RZA2M_RDK/src/tensorflow_lite/tensorflow/lite/kernels/internal/reference/integer_ops\pooling.h ****           const int filter_y_end =
  55:C:/Renesas/e2studio_2021_01_workspace_RZA2M_ANPR/ANPR_RZA2M_RDK/src/tensorflow_lite/tensorflow/lite/kernels/internal/reference/integer_ops\pooling.h ****               std::min(params.filter_height, input_height - in_y_origin);
  56:C:/Renesas/e2studio_2021_01_workspace_RZA2M_ANPR/ANPR_RZA2M_RDK/src/tensorflow_lite/tensorflow/lite/kernels/internal/reference/integer_ops\pooling.h ****           int32_t acc = 0;
  57:C:/Renesas/e2studio_2021_01_workspace_RZA2M_ANPR/ANPR_RZA2M_RDK/src/tensorflow_lite/tensorflow/lite/kernels/internal/reference/integer_ops\pooling.h ****           int filter_count = 0;
  58:C:/Renesas/e2studio_2021_01_workspace_RZA2M_ANPR/ANPR_RZA2M_RDK/src/tensorflow_lite/tensorflow/lite/kernels/internal/reference/integer_ops\pooling.h ****           for (int filter_y = filter_y_start; filter_y < filter_y_end;
  59:C:/Renesas/e2studio_2021_01_workspace_RZA2M_ANPR/ANPR_RZA2M_RDK/src/tensorflow_lite/tensorflow/lite/kernels/internal/reference/integer_ops\pooling.h ****                ++filter_y) {
  60:C:/Renesas/e2studio_2021_01_workspace_RZA2M_ANPR/ANPR_RZA2M_RDK/src/tensorflow_lite/tensorflow/lite/kernels/internal/reference/integer_ops\pooling.h ****             for (int filter_x = filter_x_start; filter_x < filter_x_end;
  61:C:/Renesas/e2studio_2021_01_workspace_RZA2M_ANPR/ANPR_RZA2M_RDK/src/tensorflow_lite/tensorflow/lite/kernels/internal/reference/integer_ops\pooling.h ****                  ++filter_x) {
  62:C:/Renesas/e2studio_2021_01_workspace_RZA2M_ANPR/ANPR_RZA2M_RDK/src/tensorflow_lite/tensorflow/lite/kernels/internal/reference/integer_ops\pooling.h ****               const int in_x = in_x_origin + filter_x;
 1514              		.loc 8 62 0
 1515 0664 0080A0E3 		mov	r8, #0
 1516 0668 4C209DE5 		ldr	r2, [sp, #76]
 1517 066c 0130A0E1 		mov	r3, r1
 1518 0670 020051E1 		cmp	r1, r2
 1519 0674 0230A0A1 		movge	r3, r2
 1520 0678 50209DE5 		ldr	r2, [sp, #80]
 1521 067c 0300A0E1 		mov	r0, r3
 1522 0680 08308DE5 		str	r3, [sp, #8]
 1523 0684 0130A0E1 		mov	r3, r1
 1524 0688 54109DE5 		ldr	r1, [sp, #84]
 1525 068c 080052E1 		cmp	r2, r8
 1526 0690 025080E0 		add	r5, r0, r2
 1527 0694 019043B0 		sublt	r9, r3, r1
 1528 0698 0090A0A3 		movge	r9, #0
 1529 069c 013089E2 		add	r3, r9, #1
 1530 06a0 02B089E0 		add	fp, r9, r2
 1531 06a4 0C908DE5 		str	r9, [sp, #12]
 1532 06a8 0A90A0E1 		mov	r9, r10
 1533 06ac 08A0A0E1 		mov	r10, r8
 1534 06b0 023083E0 		add	r3, r3, r2
 1535 06b4 1C308DE5 		str	r3, [sp, #28]
 1536              	.LVL160:
 1537              	.L170:
 1538              	.LBE847:
 1539              	.LBE846:
  58:C:/Renesas/e2studio_2021_01_workspace_RZA2M_ANPR/ANPR_RZA2M_RDK/src/tensorflow_lite/tensorflow/lite/kernels/internal/reference/integer_ops\pooling.h ****                ++filter_y) {
 1540              		.loc 8 58 0
 1541 06b8 30209DE5 		ldr	r2, [sp, #48]
 1542 06bc 34309DE5 		ldr	r3, [sp, #52]
 1543 06c0 030052E1 		cmp	r2, r3
 1544 06c4 860100DA 		ble	.L197
 1545 06c8 2C209DE5 		ldr	r2, [sp, #44]
 1546              	.LBB864:
 1547              	.LBB858:
 1548              	.LBB848:
 1549              	.LBB849:
 410:C:/Renesas/e2studio_2021_01_workspace_RZA2M_ANPR/ANPR_RZA2M_RDK/src/tensorflow_lite/tensorflow/lite/kernels/internal\types.h **** }
 1550              		.loc 6 410 0
 1551 06cc 0000A0E3 		mov	r0, #0
 407:C:/Renesas/e2studio_2021_01_workspace_RZA2M_ANPR/ANPR_RZA2M_RDK/src/tensorflow_lite/tensorflow/lite/kernels/internal\types.h ****   TFLITE_DCHECK(i2 >= 0 && i2 < dims_data[2]);
 1552              		.loc 6 407 0
 1553 06d0 88809DE5 		ldr	r8, [sp, #136]
 410:C:/Renesas/e2studio_2021_01_workspace_RZA2M_ANPR/ANPR_RZA2M_RDK/src/tensorflow_lite/tensorflow/lite/kernels/internal\types.h **** }
 1554              		.loc 6 410 0
 1555 06d4 0010A0E1 		mov	r1, r0
 408:C:/Renesas/e2studio_2021_01_workspace_RZA2M_ANPR/ANPR_RZA2M_RDK/src/tensorflow_lite/tensorflow/lite/kernels/internal\types.h ****   TFLITE_DCHECK(i3 >= 0 && i3 < dims_data[3]);
 1556              		.loc 6 408 0
 1557 06d8 8C409DE5 		ldr	r4, [sp, #140]
 1558 06dc 90E09DE5 		ldr	lr, [sp, #144]
 1559 06e0 036082E0 		add	r6, r2, r3
 1560 06e4 80C09DE5 		ldr	ip, [sp, #128]
 1561 06e8 982927E0 		mla	r7, r8, r9, r2
 406:C:/Renesas/e2studio_2021_01_workspace_RZA2M_ANPR/ANPR_RZA2M_RDK/src/tensorflow_lite/tensorflow/lite/kernels/internal\types.h ****   TFLITE_DCHECK(i1 >= 0 && i1 < dims_data[1]);
 1562              		.loc 6 406 0
 1563 06ec 84209DE5 		ldr	r2, [sp, #132]
 1564 06f0 14C08DE5 		str	ip, [sp, #20]
 1565 06f4 10208DE5 		str	r2, [sp, #16]
 1566 06f8 940E02E0 		mul	r2, r4, lr
 1567 06fc 037087E0 		add	r7, r7, r3
 1568 0700 40309DE5 		ldr	r3, [sp, #64]
 1569 0704 94B727E0 		mla	r7, r4, r7, fp
 1570 0708 04208DE5 		str	r2, [sp, #4]
 1571 070c 9EA727E0 		mla	r7, lr, r7, r10
 1572 0710 077083E0 		add	r7, r3, r7
 1573              	.LVL161:
 1574              	.L161:
 1575              	.LBE849:
 1576              	.LBE848:
 1577              	.LBE858:
  60:C:/Renesas/e2studio_2021_01_workspace_RZA2M_ANPR/ANPR_RZA2M_RDK/src/tensorflow_lite/tensorflow/lite/kernels/internal/reference/integer_ops\pooling.h ****                  ++filter_x) {
 1578              		.loc 8 60 0
 1579 0714 08309DE5 		ldr	r3, [sp, #8]
 1580 0718 0C209DE5 		ldr	r2, [sp, #12]
 1581 071c 020053E1 		cmp	r3, r2
 1582 0720 1D0000DA 		ble	.L151
 1583              	.LVL162:
 1584              	.LBB859:
 1585              	.LBB854:
 1586              	.LBB850:
 404:C:/Renesas/e2studio_2021_01_workspace_RZA2M_ANPR/ANPR_RZA2M_RDK/src/tensorflow_lite/tensorflow/lite/kernels/internal\types.h ****   const int* dims_data = reinterpret_cast<const int*>(shape.DimsDataUpTo5D());
 1587              		.loc 6 404 0
 1588 0724 14309DE5 		ldr	r3, [sp, #20]
 1589 0728 040053E3 		cmp	r3, #4
 1590 072c 8801001A 		bne	.L152
 406:C:/Renesas/e2studio_2021_01_workspace_RZA2M_ANPR/ANPR_RZA2M_RDK/src/tensorflow_lite/tensorflow/lite/kernels/internal\types.h ****   TFLITE_DCHECK(i1 >= 0 && i1 < dims_data[1]);
 1591              		.loc 6 406 0
 1592 0730 10309DE5 		ldr	r3, [sp, #16]
 1593 0734 090053E1 		cmp	r3, r9
 1594 0738 710100DA 		ble	.L153
 407:C:/Renesas/e2studio_2021_01_workspace_RZA2M_ANPR/ANPR_RZA2M_RDK/src/tensorflow_lite/tensorflow/lite/kernels/internal\types.h ****   TFLITE_DCHECK(i2 >= 0 && i2 < dims_data[2]);
 1595              		.loc 6 407 0
 1596 073c 000056E3 		cmp	r6, #0
 1597 0740 6E0100BA 		blt	.L154
 1598 0744 080056E1 		cmp	r6, r8
 1599 0748 6C0100AA 		bge	.L154
 408:C:/Renesas/e2studio_2021_01_workspace_RZA2M_ANPR/ANPR_RZA2M_RDK/src/tensorflow_lite/tensorflow/lite/kernels/internal\types.h ****   TFLITE_DCHECK(i3 >= 0 && i3 < dims_data[3]);
 1600              		.loc 6 408 0
 1601 074c 00005BE3 		cmp	fp, #0
 1602 0750 6C0100BA 		blt	.L155
 1603 0754 0B0054E1 		cmp	r4, fp
 1604 0758 6A0100DA 		ble	.L155
 1605 075c 0A005EE1 		cmp	lr, r10
 1606 0760 A10100DA 		ble	.L300
 1607 0764 1C309DE5 		ldr	r3, [sp, #28]
 1608 0768 0720A0E1 		mov	r2, r7
 1609 076c 050000EA 		b	.L158
 1610              	.LVL163:
 1611              	.L160:
 1612 0770 000053E3 		cmp	r3, #0
 1613 0774 630100BA 		blt	.L155
 1614 0778 030054E1 		cmp	r4, r3
 1615 077c 0E2082E0 		add	r2, r2, lr
 1616 0780 013083E2 		add	r3, r3, #1
 1617 0784 5F0100DA 		ble	.L155
 1618              	.LVL164:
 1619              	.L158:
 1620              	.LBE850:
 1621              	.LBE854:
  63:C:/Renesas/e2studio_2021_01_workspace_RZA2M_ANPR/ANPR_RZA2M_RDK/src/tensorflow_lite/tensorflow/lite/kernels/internal/reference/integer_ops\pooling.h ****               const int in_y = in_y_origin + filter_y;
  64:C:/Renesas/e2studio_2021_01_workspace_RZA2M_ANPR/ANPR_RZA2M_RDK/src/tensorflow_lite/tensorflow/lite/kernels/internal/reference/integer_ops\pooling.h ****               acc +=
  65:C:/Renesas/e2studio_2021_01_workspace_RZA2M_ANPR/ANPR_RZA2M_RDK/src/tensorflow_lite/tensorflow/lite/kernels/internal/reference/integer_ops\pooling.h ****                   input_data[Offset(input_shape, batch, in_y, in_x, channel)];
 1622              		.loc 8 65 0
 1623 0788 D0C0D2E1 		ldrsb	ip, [r2]
 1624              	.LVL165:
 1625              	.LBE859:
  60:C:/Renesas/e2studio_2021_01_workspace_RZA2M_ANPR/ANPR_RZA2M_RDK/src/tensorflow_lite/tensorflow/lite/kernels/internal/reference/integer_ops\pooling.h ****                  ++filter_x) {
 1626              		.loc 8 60 0
 1627 078c 050053E1 		cmp	r3, r5
 1628              	.LBB860:
  66:C:/Renesas/e2studio_2021_01_workspace_RZA2M_ANPR/ANPR_RZA2M_RDK/src/tensorflow_lite/tensorflow/lite/kernels/internal/reference/integer_ops\pooling.h ****               filter_count++;
 1629              		.loc 8 66 0
 1630 0790 011081E2 		add	r1, r1, #1
  65:C:/Renesas/e2studio_2021_01_workspace_RZA2M_ANPR/ANPR_RZA2M_RDK/src/tensorflow_lite/tensorflow/lite/kernels/internal/reference/integer_ops\pooling.h ****               filter_count++;
 1631              		.loc 8 65 0
 1632 0794 0C0080E0 		add	r0, r0, ip
 1633              	.LVL166:
 1634              	.LBE860:
  60:C:/Renesas/e2studio_2021_01_workspace_RZA2M_ANPR/ANPR_RZA2M_RDK/src/tensorflow_lite/tensorflow/lite/kernels/internal/reference/integer_ops\pooling.h ****                  ++filter_x) {
 1635              		.loc 8 60 0
 1636 0798 F4FFFF1A 		bne	.L160
 1637              	.LVL167:
 1638              	.L151:
 1639 079c 04309DE5 		ldr	r3, [sp, #4]
 1640 07a0 016086E2 		add	r6, r6, #1
 1641 07a4 037087E0 		add	r7, r7, r3
 1642              	.LBE864:
  58:C:/Renesas/e2studio_2021_01_workspace_RZA2M_ANPR/ANPR_RZA2M_RDK/src/tensorflow_lite/tensorflow/lite/kernels/internal/reference/integer_ops\pooling.h ****                ++filter_y) {
 1643              		.loc 8 58 0
 1644 07a8 18309DE5 		ldr	r3, [sp, #24]
 1645 07ac 060053E1 		cmp	r3, r6
 1646 07b0 D7FFFF1A 		bne	.L161
 1647              	.LBE845:
  67:C:/Renesas/e2studio_2021_01_workspace_RZA2M_ANPR/ANPR_RZA2M_RDK/src/tensorflow_lite/tensorflow/lite/kernels/internal/reference/integer_ops\pooling.h ****             }
  68:C:/Renesas/e2studio_2021_01_workspace_RZA2M_ANPR/ANPR_RZA2M_RDK/src/tensorflow_lite/tensorflow/lite/kernels/internal/reference/integer_ops\pooling.h ****           }
  69:C:/Renesas/e2studio_2021_01_workspace_RZA2M_ANPR/ANPR_RZA2M_RDK/src/tensorflow_lite/tensorflow/lite/kernels/internal/reference/integer_ops\pooling.h ****           // Round to the closest integer value.
  70:C:/Renesas/e2studio_2021_01_workspace_RZA2M_ANPR/ANPR_RZA2M_RDK/src/tensorflow_lite/tensorflow/lite/kernels/internal/reference/integer_ops\pooling.h ****           acc = acc > 0 ? (acc + filter_count / 2) / filter_count
 1648              		.loc 8 70 0
 1649 07b4 000050E3 		cmp	r0, #0
 1650 07b8 480000DA 		ble	.L301
 1651 07bc C10080E0 		add	r0, r0, r1, asr #1
 1652 07c0 FEFFFFEB 		bl	__aeabi_idiv
 1653              	.LVL168:
 1654              	.L163:
 1655              	.LBB868:
 1656              	.LBB869:
 224:c:\program files (x86)\gnu tools arm embedded\6 2017-q2-update\arm-none-eabi\include\c++\6.3.1\bits\stl_algobase.h **** 	return __b;
 1657              		.loc 7 224 0
 1658 07c4 20309DE5 		ldr	r3, [sp, #32]
 1659 07c8 000053E1 		cmp	r3, r0
 1660 07cc 0320A0C1 		movgt	r2, r3
 1661 07d0 030000CA 		bgt	.L164
 1662              	.LVL169:
 1663 07d4 3C309DE5 		ldr	r3, [sp, #60]
 1664 07d8 000053E1 		cmp	r3, r0
 1665 07dc 0320A0B1 		movlt	r2, r3
 1666 07e0 0020A0A1 		movge	r2, r0
 1667              	.LVL170:
 1668              	.L164:
 1669              	.LBE869:
 1670              	.LBE868:
 1671              	.LBB870:
 1672              	.LBB871:
 404:C:/Renesas/e2studio_2021_01_workspace_RZA2M_ANPR/ANPR_RZA2M_RDK/src/tensorflow_lite/tensorflow/lite/kernels/internal\types.h ****   const int* dims_data = reinterpret_cast<const int*>(shape.DimsDataUpTo5D());
 1673              		.loc 6 404 0
 1674 07e4 98309DE5 		ldr	r3, [sp, #152]
 1675 07e8 040053E3 		cmp	r3, #4
 1676 07ec 7C01001A 		bne	.L302
 406:C:/Renesas/e2studio_2021_01_workspace_RZA2M_ANPR/ANPR_RZA2M_RDK/src/tensorflow_lite/tensorflow/lite/kernels/internal\types.h ****   TFLITE_DCHECK(i1 >= 0 && i1 < dims_data[1]);
 1677              		.loc 6 406 0
 1678 07f0 9C309DE5 		ldr	r3, [sp, #156]
 1679 07f4 090053E1 		cmp	r3, r9
 1680 07f8 750100DA 		ble	.L303
 407:C:/Renesas/e2studio_2021_01_workspace_RZA2M_ANPR/ANPR_RZA2M_RDK/src/tensorflow_lite/tensorflow/lite/kernels/internal\types.h ****   TFLITE_DCHECK(i2 >= 0 && i2 < dims_data[2]);
 1681              		.loc 6 407 0
 1682 07fc A0309DE5 		ldr	r3, [sp, #160]
 1683 0800 28109DE5 		ldr	r1, [sp, #40]
 1684 0804 030051E1 		cmp	r1, r3
 1685 0808 720100AA 		bge	.L304
 408:C:/Renesas/e2studio_2021_01_workspace_RZA2M_ANPR/ANPR_RZA2M_RDK/src/tensorflow_lite/tensorflow/lite/kernels/internal\types.h ****   TFLITE_DCHECK(i3 >= 0 && i3 < dims_data[3]);
 1686              		.loc 6 408 0
 1687 080c A4009DE5 		ldr	r0, [sp, #164]
 1688 0810 24109DE5 		ldr	r1, [sp, #36]
 1689 0814 000051E1 		cmp	r1, r0
 1690 0818 6F0100AA 		bge	.L305
 409:C:/Renesas/e2studio_2021_01_workspace_RZA2M_ANPR/ANPR_RZA2M_RDK/src/tensorflow_lite/tensorflow/lite/kernels/internal\types.h ****   return ((i0 * dims_data[1] + i1) * dims_data[2] + i2) * dims_data[3] + i3;
 1691              		.loc 6 409 0
 1692 081c A8109DE5 		ldr	r1, [sp, #168]
 1693 0820 0A0051E1 		cmp	r1, r10
 1694 0824 6D0100DA 		ble	.L306
 1695              	.LVL171:
 410:C:/Renesas/e2studio_2021_01_workspace_RZA2M_ANPR/ANPR_RZA2M_RDK/src/tensorflow_lite/tensorflow/lite/kernels/internal\types.h **** }
 1696              		.loc 6 410 0
 1697 0828 28C09DE5 		ldr	ip, [sp, #40]
 1698 082c 99C323E0 		mla	r3, r9, r3, ip
 1699 0830 24C09DE5 		ldr	ip, [sp, #36]
 1700 0834 90C323E0 		mla	r3, r0, r3, ip
 1701              	.LBE871:
 1702              	.LBE870:
  71:C:/Renesas/e2studio_2021_01_workspace_RZA2M_ANPR/ANPR_RZA2M_RDK/src/tensorflow_lite/tensorflow/lite/kernels/internal/reference/integer_ops\pooling.h ****                         : (acc - filter_count / 2) / filter_count;
  72:C:/Renesas/e2studio_2021_01_workspace_RZA2M_ANPR/ANPR_RZA2M_RDK/src/tensorflow_lite/tensorflow/lite/kernels/internal/reference/integer_ops\pooling.h ****           acc = std::max(acc, params.quantized_activation_min);
  73:C:/Renesas/e2studio_2021_01_workspace_RZA2M_ANPR/ANPR_RZA2M_RDK/src/tensorflow_lite/tensorflow/lite/kernels/internal/reference/integer_ops\pooling.h ****           acc = std::min(acc, params.quantized_activation_max);
  74:C:/Renesas/e2studio_2021_01_workspace_RZA2M_ANPR/ANPR_RZA2M_RDK/src/tensorflow_lite/tensorflow/lite/kernels/internal/reference/integer_ops\pooling.h ****           output_data[Offset(output_shape, batch, out_y, out_x, channel)] =
 1703              		.loc 8 74 0
 1704 0838 44009DE5 		ldr	r0, [sp, #68]
 1705 083c 910323E0 		mla	r3, r1, r3, r0
  75:C:/Renesas/e2studio_2021_01_workspace_RZA2M_ANPR/ANPR_RZA2M_RDK/src/tensorflow_lite/tensorflow/lite/kernels/internal/reference/integer_ops\pooling.h ****               static_cast<int8_t>(acc);
 1706              		.loc 8 75 0
 1707 0840 0A20C3E7 		strb	r2, [r3, r10]
 1708              	.LVL172:
 1709              	.LBE844:
  43:C:/Renesas/e2studio_2021_01_workspace_RZA2M_ANPR/ANPR_RZA2M_RDK/src/tensorflow_lite/tensorflow/lite/kernels/internal/reference/integer_ops\pooling.h ****           const int in_x_origin =
 1710              		.loc 8 43 0
 1711 0844 01A08AE2 		add	r10, r10, #1
 1712              	.LVL173:
 1713 0848 38309DE5 		ldr	r3, [sp, #56]
 1714 084c 03005AE1 		cmp	r10, r3
 1715 0850 98FFFF1A 		bne	.L170
 1716 0854 09A0A0E1 		mov	r10, r9
 1717              	.LVL174:
 1718              	.L169:
 1719 0858 48109DE5 		ldr	r1, [sp, #72]
 1720 085c 70209DE5 		ldr	r2, [sp, #112]
 1721              	.LBE843:
  42:C:/Renesas/e2studio_2021_01_workspace_RZA2M_ANPR/ANPR_RZA2M_RDK/src/tensorflow_lite/tensorflow/lite/kernels/internal/reference/integer_ops\pooling.h ****         for (int channel = 0; channel < depth; ++channel) {
 1722              		.loc 8 42 0
 1723 0860 24309DE5 		ldr	r3, [sp, #36]
 1724 0864 021041E0 		sub	r1, r1, r2
 1725 0868 48108DE5 		str	r1, [sp, #72]
 1726 086c 013083E2 		add	r3, r3, #1
 1727 0870 7C109DE5 		ldr	r1, [sp, #124]
 1728 0874 24308DE5 		str	r3, [sp, #36]
 1729              	.LVL175:
 1730 0878 010053E1 		cmp	r3, r1
 1731 087c 50309DE5 		ldr	r3, [sp, #80]
 1732              	.LVL176:
 1733 0880 023083E0 		add	r3, r3, r2
 1734 0884 50308DE5 		str	r3, [sp, #80]
 1735 0888 71FFFF1A 		bne	.L149
 1736 088c 0A70A0E1 		mov	r7, r10
 1737              	.LVL177:
 1738              	.L148:
 1739 0890 2C109DE5 		ldr	r1, [sp, #44]
 1740 0894 6C209DE5 		ldr	r2, [sp, #108]
 1741              	.LBE842:
  41:C:/Renesas/e2studio_2021_01_workspace_RZA2M_ANPR/ANPR_RZA2M_RDK/src/tensorflow_lite/tensorflow/lite/kernels/internal/reference/integer_ops\pooling.h ****       for (int out_x = 0; out_x < output_width; ++out_x) {
 1742              		.loc 8 41 0
 1743 0898 28309DE5 		ldr	r3, [sp, #40]
 1744 089c 021081E0 		add	r1, r1, r2
 1745 08a0 2C108DE5 		str	r1, [sp, #44]
 1746 08a4 013083E2 		add	r3, r3, #1
 1747 08a8 78109DE5 		ldr	r1, [sp, #120]
 1748 08ac 28308DE5 		str	r3, [sp, #40]
 1749              	.LVL178:
 1750 08b0 010053E1 		cmp	r3, r1
 1751 08b4 58309DE5 		ldr	r3, [sp, #88]
 1752              	.LVL179:
 1753 08b8 023043E0 		sub	r3, r3, r2
 1754 08bc 58308DE5 		str	r3, [sp, #88]
 1755 08c0 4AFFFF1A 		bne	.L146
 1756              	.LVL180:
 1757              	.L145:
 1758              	.LBE841:
  40:C:/Renesas/e2studio_2021_01_workspace_RZA2M_ANPR/ANPR_RZA2M_RDK/src/tensorflow_lite/tensorflow/lite/kernels/internal/reference/integer_ops\pooling.h ****     for (int out_y = 0; out_y < output_height; ++out_y) {
 1759              		.loc 8 40 0
 1760 08c4 74309DE5 		ldr	r3, [sp, #116]
 1761 08c8 017087E2 		add	r7, r7, #1
 1762              	.LVL181:
 1763 08cc 030057E1 		cmp	r7, r3
 1764 08d0 3BFFFF1A 		bne	.L143
 1765 08d4 F30000EA 		b	.L142
 1766              	.LVL182:
 1767              	.L188:
 1768              	.LBE910:
 1769              	.LBE919:
 1770              	.LBE929:
 1771              	.LBE820:
 1772              	.LBE819:
 1773              	.LBB1035:
 1774              	.LBB812:
 1775              	.LBB805:
 1776              	.LBB795:
 1777              	.LBB788:
 1778              	.LBB773:
 1779              	.LBB768:
 1780              	.LBB763:
 1781              	.LBB758:
  56:C:/Renesas/e2studio_2021_01_workspace_RZA2M_ANPR/ANPR_RZA2M_RDK/src/tensorflow_lite/tensorflow/lite/kernels/internal/reference\pooling.h ****           float filter_count = 0;
 1782              		.loc 5 56 0
 1783 08d8 677AB0EE 		vmov.f32	s14, s15
 1784 08dc A6FEFFEA 		b	.L70
 1785              	.LVL183:
 1786              	.L301:
 1787 08e0 A13F81E0 		add	r3, r1, r1, lsr #31
 1788 08e4 C30040E0 		sub	r0, r0, r3, asr #1
 1789              	.L150:
 1790              	.LBE758:
 1791              	.LBE763:
 1792              	.LBE768:
 1793              	.LBE773:
 1794              	.LBE788:
 1795              	.LBE795:
 1796              	.LBE805:
 1797              	.LBE812:
 1798              	.LBE1035:
 1799              	.LBB1036:
 1800              	.LBB1028:
 1801              	.LBB930:
 1802              	.LBB920:
 1803              	.LBB911:
 1804              	.LBB896:
 1805              	.LBB890:
 1806              	.LBB884:
 1807              	.LBB878:
  70:C:/Renesas/e2studio_2021_01_workspace_RZA2M_ANPR/ANPR_RZA2M_RDK/src/tensorflow_lite/tensorflow/lite/kernels/internal/reference/integer_ops\pooling.h ****                         : (acc - filter_count / 2) / filter_count;
 1808              		.loc 8 70 0
 1809 08e8 FEFFFFEB 		bl	__aeabi_idiv
 1810              	.LVL184:
 1811 08ec B4FFFFEA 		b	.L163
 1812              	.LVL185:
 1813              	.L294:
 1814              	.LEHB4:
 1815              	.LBE878:
 1816              	.LBE884:
 1817              	.LBE890:
 1818              	.LBE896:
 1819              	.LBE911:
 1820              	.LBE920:
 1821              	.LBE930:
  96:../src/tensorflow_lite/tensorflow/lite/micro/kernels/pooling.cc ****                                tflite::micro::GetTensorData<uint8_t>(input),
 1822              		.loc 1 96 0
 1823 08f0 FEFFFFEB 		bl	_ZN6tflite5micro14GetTensorShapeEPK16TfLiteEvalTensor
 1824              	.LVL186:
 1825              	.LEHE4:
 1826              	.LBB931:
 1827              	.LBB932:
 1828              		.loc 4 63 0
 1829 08f4 003096E5 		ldr	r3, [r6]
 1830              	.LBE932:
 1831              	.LBE931:
  98:../src/tensorflow_lite/tensorflow/lite/micro/kernels/pooling.cc ****                                tflite::micro::GetTensorData<uint8_t>(output));
 1832              		.loc 1 98 0
 1833 08f8 0410A0E1 		mov	r1, r4
 1834 08fc 98008DE2 		add	r0, sp, #152
 1835              	.LBB934:
 1836              	.LBB933:
 1837              		.loc 4 63 0
 1838 0900 40308DE5 		str	r3, [sp, #64]
 1839              	.LVL187:
 1840              	.LEHB5:
 1841              	.LBE933:
 1842              	.LBE934:
  98:../src/tensorflow_lite/tensorflow/lite/micro/kernels/pooling.cc ****                                tflite::micro::GetTensorData<uint8_t>(output));
 1843              		.loc 1 98 0
 1844 0904 FEFFFFEB 		bl	_ZN6tflite5micro14GetTensorShapeEPK16TfLiteEvalTensor
 1845              	.LVL188:
 1846              	.LEHE5:
 1847              	.LBB935:
 1848              	.LBB936:
  56:C:/Renesas/e2studio_2021_01_workspace_RZA2M_ANPR/ANPR_RZA2M_RDK/src/tensorflow_lite/tensorflow/lite/micro/kernels\kernel_util.h **** }
 1849              		.loc 4 56 0
 1850 0908 000054E3 		cmp	r4, #0
 1851              	.LBE936:
 1852              	.LBE935:
 1853              	.LBB938:
 1854              	.LBB939:
  71:C:/Renesas/e2studio_2021_01_workspace_RZA2M_ANPR/ANPR_RZA2M_RDK/src/tensorflow_lite/tensorflow/lite/kernels/internal/reference\pooling.h ****               ActivationFunctionWithMinMax(average, params.float_activation_min,
  72:C:/Renesas/e2studio_2021_01_workspace_RZA2M_ANPR/ANPR_RZA2M_RDK/src/tensorflow_lite/tensorflow/lite/kernels/internal/reference\pooling.h ****                                            params.float_activation_max);
  73:C:/Renesas/e2studio_2021_01_workspace_RZA2M_ANPR/ANPR_RZA2M_RDK/src/tensorflow_lite/tensorflow/lite/kernels/internal/reference\pooling.h ****         }
  74:C:/Renesas/e2studio_2021_01_workspace_RZA2M_ANPR/ANPR_RZA2M_RDK/src/tensorflow_lite/tensorflow/lite/kernels/internal/reference\pooling.h ****       }
  75:C:/Renesas/e2studio_2021_01_workspace_RZA2M_ANPR/ANPR_RZA2M_RDK/src/tensorflow_lite/tensorflow/lite/kernels/internal/reference\pooling.h ****     }
  76:C:/Renesas/e2studio_2021_01_workspace_RZA2M_ANPR/ANPR_RZA2M_RDK/src/tensorflow_lite/tensorflow/lite/kernels/internal/reference\pooling.h ****   }
  77:C:/Renesas/e2studio_2021_01_workspace_RZA2M_ANPR/ANPR_RZA2M_RDK/src/tensorflow_lite/tensorflow/lite/kernels/internal/reference\pooling.h **** }
  78:C:/Renesas/e2studio_2021_01_workspace_RZA2M_ANPR/ANPR_RZA2M_RDK/src/tensorflow_lite/tensorflow/lite/kernels/internal/reference\pooling.h **** 
  79:C:/Renesas/e2studio_2021_01_workspace_RZA2M_ANPR/ANPR_RZA2M_RDK/src/tensorflow_lite/tensorflow/lite/kernels/internal/reference\pooling.h **** inline void AveragePool(const PoolParams& params,
  80:C:/Renesas/e2studio_2021_01_workspace_RZA2M_ANPR/ANPR_RZA2M_RDK/src/tensorflow_lite/tensorflow/lite/kernels/internal/reference\pooling.h ****                         const RuntimeShape& input_shape,
  81:C:/Renesas/e2studio_2021_01_workspace_RZA2M_ANPR/ANPR_RZA2M_RDK/src/tensorflow_lite/tensorflow/lite/kernels/internal/reference\pooling.h ****                         const uint8_t* input_data,
  82:C:/Renesas/e2studio_2021_01_workspace_RZA2M_ANPR/ANPR_RZA2M_RDK/src/tensorflow_lite/tensorflow/lite/kernels/internal/reference\pooling.h ****                         const RuntimeShape& output_shape,
  83:C:/Renesas/e2studio_2021_01_workspace_RZA2M_ANPR/ANPR_RZA2M_RDK/src/tensorflow_lite/tensorflow/lite/kernels/internal/reference\pooling.h ****                         uint8_t* output_data) {
  84:C:/Renesas/e2studio_2021_01_workspace_RZA2M_ANPR/ANPR_RZA2M_RDK/src/tensorflow_lite/tensorflow/lite/kernels/internal/reference\pooling.h ****   TFLITE_DCHECK_LE(params.quantized_activation_min,
  85:C:/Renesas/e2studio_2021_01_workspace_RZA2M_ANPR/ANPR_RZA2M_RDK/src/tensorflow_lite/tensorflow/lite/kernels/internal/reference\pooling.h ****                    params.quantized_activation_max);
 1855              		.loc 5 85 0
 1856 090c 3C209DE5 		ldr	r2, [sp, #60]
 1857              	.LBE939:
 1858              	.LBE938:
 1859              	.LBB1009:
 1860              	.LBB937:
  56:C:/Renesas/e2studio_2021_01_workspace_RZA2M_ANPR/ANPR_RZA2M_RDK/src/tensorflow_lite/tensorflow/lite/micro/kernels\kernel_util.h **** }
 1861              		.loc 4 56 0
 1862 0910 00309415 		ldrne	r3, [r4]
 1863 0914 44408D05 		streq	r4, [sp, #68]
 1864              	.LVL189:
 1865 0918 44308D15 		strne	r3, [sp, #68]
 1866              	.LVL190:
 1867              	.LBE937:
 1868              	.LBE1009:
 1869              	.LBB1010:
 1870              	.LBB1006:
 1871              		.loc 5 85 0
 1872 091c 20309DE5 		ldr	r3, [sp, #32]
 1873 0920 020053E1 		cmp	r3, r2
 1874 0924 150100CA 		bgt	.L307
 1875              	.LVL191:
  86:C:/Renesas/e2studio_2021_01_workspace_RZA2M_ANPR/ANPR_RZA2M_RDK/src/tensorflow_lite/tensorflow/lite/kernels/internal/reference\pooling.h ****   TFLITE_DCHECK_EQ(input_shape.DimensionsCount(), 4);
 1876              		.loc 5 86 0
 1877 0928 80309DE5 		ldr	r3, [sp, #128]
 1878 092c 040053E3 		cmp	r3, #4
 1879 0930 1F01001A 		bne	.L308
 1880              	.LVL192:
  87:C:/Renesas/e2studio_2021_01_workspace_RZA2M_ANPR/ANPR_RZA2M_RDK/src/tensorflow_lite/tensorflow/lite/kernels/internal/reference\pooling.h ****   TFLITE_DCHECK_EQ(output_shape.DimensionsCount(), 4);
 1881              		.loc 5 87 0
 1882 0934 98309DE5 		ldr	r3, [sp, #152]
 1883 0938 040053E3 		cmp	r3, #4
 1884 093c 1B01001A 		bne	.L309
 1885              	.LVL193:
 1886              	.LBB940:
 1887              	.LBB941:
 1888              	.LBB942:
 1889              	.LBB943:
 216:C:/Renesas/e2studio_2021_01_workspace_RZA2M_ANPR/ANPR_RZA2M_RDK/src/tensorflow_lite/tensorflow/lite/kernels/internal\types.h ****   }
 1890              		.loc 6 216 0
 1891 0940 84309DE5 		ldr	r3, [sp, #132]
 1892 0944 0320A0E1 		mov	r2, r3
 1893 0948 58308DE5 		str	r3, [sp, #88]
 1894              	.LVL194:
 1895              	.LBE943:
 1896              	.LBE942:
 1897              		.loc 6 472 0
 1898 094c 9C309DE5 		ldr	r3, [sp, #156]
 1899 0950 030052E1 		cmp	r2, r3
 1900 0954 1401001A 		bne	.L310
 1901              	.LVL195:
 1902              	.LBE941:
 1903              	.LBE940:
 1904              	.LBB945:
 1905              	.LBB946:
 1906              	.LBB947:
 1907              	.LBB948:
 216:C:/Renesas/e2studio_2021_01_workspace_RZA2M_ANPR/ANPR_RZA2M_RDK/src/tensorflow_lite/tensorflow/lite/kernels/internal\types.h ****   }
 1908              		.loc 6 216 0
 1909 0958 90309DE5 		ldr	r3, [sp, #144]
 1910 095c 0320A0E1 		mov	r2, r3
 1911 0960 50308DE5 		str	r3, [sp, #80]
 1912              	.LVL196:
 1913              	.LBE948:
 1914              	.LBE947:
 1915              		.loc 6 472 0
 1916 0964 A8309DE5 		ldr	r3, [sp, #168]
 1917 0968 030052E1 		cmp	r2, r3
 1918 096c 0D01001A 		bne	.L311
 1919              	.LVL197:
 1920              	.LBE946:
 1921              	.LBE945:
 1922              	.LBB950:
  88:C:/Renesas/e2studio_2021_01_workspace_RZA2M_ANPR/ANPR_RZA2M_RDK/src/tensorflow_lite/tensorflow/lite/kernels/internal/reference\pooling.h ****   const int batches = MatchingDim(input_shape, 0, output_shape, 0);
  89:C:/Renesas/e2studio_2021_01_workspace_RZA2M_ANPR/ANPR_RZA2M_RDK/src/tensorflow_lite/tensorflow/lite/kernels/internal/reference\pooling.h ****   const int depth = MatchingDim(input_shape, 3, output_shape, 3);
  90:C:/Renesas/e2studio_2021_01_workspace_RZA2M_ANPR/ANPR_RZA2M_RDK/src/tensorflow_lite/tensorflow/lite/kernels/internal/reference\pooling.h ****   const int input_height = input_shape.Dims(1);
  91:C:/Renesas/e2studio_2021_01_workspace_RZA2M_ANPR/ANPR_RZA2M_RDK/src/tensorflow_lite/tensorflow/lite/kernels/internal/reference\pooling.h ****   const int input_width = input_shape.Dims(2);
  92:C:/Renesas/e2studio_2021_01_workspace_RZA2M_ANPR/ANPR_RZA2M_RDK/src/tensorflow_lite/tensorflow/lite/kernels/internal/reference\pooling.h ****   const int output_height = output_shape.Dims(1);
  93:C:/Renesas/e2studio_2021_01_workspace_RZA2M_ANPR/ANPR_RZA2M_RDK/src/tensorflow_lite/tensorflow/lite/kernels/internal/reference\pooling.h ****   const int output_width = output_shape.Dims(2);
  94:C:/Renesas/e2studio_2021_01_workspace_RZA2M_ANPR/ANPR_RZA2M_RDK/src/tensorflow_lite/tensorflow/lite/kernels/internal/reference\pooling.h ****   const int stride_height = params.stride_height;
  95:C:/Renesas/e2studio_2021_01_workspace_RZA2M_ANPR/ANPR_RZA2M_RDK/src/tensorflow_lite/tensorflow/lite/kernels/internal/reference\pooling.h ****   const int stride_width = params.stride_width;
  96:C:/Renesas/e2studio_2021_01_workspace_RZA2M_ANPR/ANPR_RZA2M_RDK/src/tensorflow_lite/tensorflow/lite/kernels/internal/reference\pooling.h ****   for (int batch = 0; batch < batches; ++batch) {
 1923              		.loc 5 96 0
 1924 0970 58309DE5 		ldr	r3, [sp, #88]
 1925 0974 000053E3 		cmp	r3, #0
 1926              	.LBE950:
 1927              	.LBB993:
 1928              	.LBB994:
 216:C:/Renesas/e2studio_2021_01_workspace_RZA2M_ANPR/ANPR_RZA2M_RDK/src/tensorflow_lite/tensorflow/lite/kernels/internal\types.h ****   }
 1929              		.loc 6 216 0
 1930 0978 88309DE5 		ldr	r3, [sp, #136]
 1931 097c 68308DE5 		str	r3, [sp, #104]
 1932              	.LVL198:
 1933              	.LBE994:
 1934              	.LBE993:
 1935              	.LBB995:
 1936              	.LBB996:
 1937 0980 8C309DE5 		ldr	r3, [sp, #140]
 1938 0984 74308DE5 		str	r3, [sp, #116]
 1939              	.LVL199:
 1940              	.LBE996:
 1941              	.LBE995:
 1942              	.LBB997:
 1943              	.LBB998:
 1944 0988 A0309DE5 		ldr	r3, [sp, #160]
 1945 098c 78308DE5 		str	r3, [sp, #120]
 1946              	.LVL200:
 1947              	.LBE998:
 1948              	.LBE997:
 1949              	.LBB999:
 1950              	.LBB1000:
 1951 0990 A4309DE5 		ldr	r3, [sp, #164]
 1952 0994 7C308DE5 		str	r3, [sp, #124]
 1953              	.LVL201:
 1954              	.LBE1000:
 1955              	.LBE999:
 1956              	.LBB1001:
 1957              		.loc 5 96 0
 1958 0998 C3FEFFDA 		ble	.L133
 1959 099c 0070A0E3 		mov	r7, #0
 1960              	.LVL202:
 1961              	.L103:
 1962              	.LBB951:
  97:C:/Renesas/e2studio_2021_01_workspace_RZA2M_ANPR/ANPR_RZA2M_RDK/src/tensorflow_lite/tensorflow/lite/kernels/internal/reference\pooling.h ****     for (int out_y = 0; out_y < output_height; ++out_y) {
 1963              		.loc 5 97 0
 1964 09a0 78309DE5 		ldr	r3, [sp, #120]
 1965 09a4 000053E3 		cmp	r3, #0
 1966 09a8 BA0000DA 		ble	.L105
 1967 09ac 60309DE5 		ldr	r3, [sp, #96]
 1968 09b0 002063E2 		rsb	r2, r3, #0
 1969 09b4 24208DE5 		str	r2, [sp, #36]
 1970 09b8 68209DE5 		ldr	r2, [sp, #104]
 1971 09bc 033082E0 		add	r3, r2, r3
 1972 09c0 30308DE5 		str	r3, [sp, #48]
 1973 09c4 0030A0E3 		mov	r3, #0
 1974 09c8 2C308DE5 		str	r3, [sp, #44]
 1975              	.LVL203:
 1976              	.L106:
 1977              	.LBB952:
  98:C:/Renesas/e2studio_2021_01_workspace_RZA2M_ANPR/ANPR_RZA2M_RDK/src/tensorflow_lite/tensorflow/lite/kernels/internal/reference\pooling.h ****       for (int out_x = 0; out_x < output_width; ++out_x) {
 1978              		.loc 5 98 0
 1979 09cc 7C309DE5 		ldr	r3, [sp, #124]
 1980 09d0 000053E3 		cmp	r3, #0
 1981 09d4 A20000DA 		ble	.L108
 1982 09d8 64109DE5 		ldr	r1, [sp, #100]
 1983 09dc 07A0A0E1 		mov	r10, r7
 1984 09e0 74009DE5 		ldr	r0, [sp, #116]
 1985 09e4 5C209DE5 		ldr	r2, [sp, #92]
 1986 09e8 30309DE5 		ldr	r3, [sp, #48]
 1987 09ec 010080E0 		add	r0, r0, r1
 1988 09f0 38008DE5 		str	r0, [sp, #56]
 1989 09f4 24009DE5 		ldr	r0, [sp, #36]
 1990 09f8 020053E1 		cmp	r3, r2
 1991 09fc 0320A0B1 		movlt	r2, r3
 1992 0a00 54208DE5 		str	r2, [sp, #84]
 1993 0a04 002082E0 		add	r2, r2, r0
 1994 0a08 000050E3 		cmp	r0, #0
 1995 0a0c 18208DE5 		str	r2, [sp, #24]
 1996 0a10 68209DE5 		ldr	r2, [sp, #104]
 1997 0a14 023043B0 		sublt	r3, r3, r2
 1998 0a18 0030A0A3 		movge	r3, #0
 1999 0a1c 48308DE5 		str	r3, [sp, #72]
 2000 0a20 003061E2 		rsb	r3, r1, #0
 2001 0a24 34308DE5 		str	r3, [sp, #52]
 2002 0a28 0030A0E3 		mov	r3, #0
 2003 0a2c 28308DE5 		str	r3, [sp, #40]
 2004              	.LVL204:
 2005              	.L109:
 2006              	.LBB953:
  99:C:/Renesas/e2studio_2021_01_workspace_RZA2M_ANPR/ANPR_RZA2M_RDK/src/tensorflow_lite/tensorflow/lite/kernels/internal/reference\pooling.h ****         for (int channel = 0; channel < depth; ++channel) {
 2007              		.loc 5 99 0
 2008 0a30 50309DE5 		ldr	r3, [sp, #80]
 2009 0a34 000053E3 		cmp	r3, #0
 2010 0a38 7B0000DA 		ble	.L127
 2011 0a3c 38109DE5 		ldr	r1, [sp, #56]
 2012              	.LBB954:
 2013              	.LBB955:
 2014              	.LBB956:
 2015              	.LBB957:
 100:C:/Renesas/e2studio_2021_01_workspace_RZA2M_ANPR/ANPR_RZA2M_RDK/src/tensorflow_lite/tensorflow/lite/kernels/internal/reference\pooling.h ****           const int in_x_origin =
 101:C:/Renesas/e2studio_2021_01_workspace_RZA2M_ANPR/ANPR_RZA2M_RDK/src/tensorflow_lite/tensorflow/lite/kernels/internal/reference\pooling.h ****               (out_x * stride_width) - params.padding_values.width;
 102:C:/Renesas/e2studio_2021_01_workspace_RZA2M_ANPR/ANPR_RZA2M_RDK/src/tensorflow_lite/tensorflow/lite/kernels/internal/reference\pooling.h ****           const int in_y_origin =
 103:C:/Renesas/e2studio_2021_01_workspace_RZA2M_ANPR/ANPR_RZA2M_RDK/src/tensorflow_lite/tensorflow/lite/kernels/internal/reference\pooling.h ****               (out_y * stride_height) - params.padding_values.height;
 104:C:/Renesas/e2studio_2021_01_workspace_RZA2M_ANPR/ANPR_RZA2M_RDK/src/tensorflow_lite/tensorflow/lite/kernels/internal/reference\pooling.h ****           // Compute the boundaries of the filter region clamped so as to
 105:C:/Renesas/e2studio_2021_01_workspace_RZA2M_ANPR/ANPR_RZA2M_RDK/src/tensorflow_lite/tensorflow/lite/kernels/internal/reference\pooling.h ****           // ensure that the filter window fits in the input array.
 106:C:/Renesas/e2studio_2021_01_workspace_RZA2M_ANPR/ANPR_RZA2M_RDK/src/tensorflow_lite/tensorflow/lite/kernels/internal/reference\pooling.h ****           const int filter_x_start = std::max(0, -in_x_origin);
 107:C:/Renesas/e2studio_2021_01_workspace_RZA2M_ANPR/ANPR_RZA2M_RDK/src/tensorflow_lite/tensorflow/lite/kernels/internal/reference\pooling.h ****           const int filter_x_end =
 108:C:/Renesas/e2studio_2021_01_workspace_RZA2M_ANPR/ANPR_RZA2M_RDK/src/tensorflow_lite/tensorflow/lite/kernels/internal/reference\pooling.h ****               std::min(params.filter_width, input_width - in_x_origin);
 109:C:/Renesas/e2studio_2021_01_workspace_RZA2M_ANPR/ANPR_RZA2M_RDK/src/tensorflow_lite/tensorflow/lite/kernels/internal/reference\pooling.h ****           const int filter_y_start = std::max(0, -in_y_origin);
 110:C:/Renesas/e2studio_2021_01_workspace_RZA2M_ANPR/ANPR_RZA2M_RDK/src/tensorflow_lite/tensorflow/lite/kernels/internal/reference\pooling.h ****           const int filter_y_end =
 111:C:/Renesas/e2studio_2021_01_workspace_RZA2M_ANPR/ANPR_RZA2M_RDK/src/tensorflow_lite/tensorflow/lite/kernels/internal/reference\pooling.h ****               std::min(params.filter_height, input_height - in_y_origin);
 112:C:/Renesas/e2studio_2021_01_workspace_RZA2M_ANPR/ANPR_RZA2M_RDK/src/tensorflow_lite/tensorflow/lite/kernels/internal/reference\pooling.h ****           int32_t acc = 0;
 113:C:/Renesas/e2studio_2021_01_workspace_RZA2M_ANPR/ANPR_RZA2M_RDK/src/tensorflow_lite/tensorflow/lite/kernels/internal/reference\pooling.h ****           int filter_count = 0;
 114:C:/Renesas/e2studio_2021_01_workspace_RZA2M_ANPR/ANPR_RZA2M_RDK/src/tensorflow_lite/tensorflow/lite/kernels/internal/reference\pooling.h ****           for (int filter_y = filter_y_start; filter_y < filter_y_end;
 115:C:/Renesas/e2studio_2021_01_workspace_RZA2M_ANPR/ANPR_RZA2M_RDK/src/tensorflow_lite/tensorflow/lite/kernels/internal/reference\pooling.h ****                ++filter_y) {
 116:C:/Renesas/e2studio_2021_01_workspace_RZA2M_ANPR/ANPR_RZA2M_RDK/src/tensorflow_lite/tensorflow/lite/kernels/internal/reference\pooling.h ****             for (int filter_x = filter_x_start; filter_x < filter_x_end;
 117:C:/Renesas/e2studio_2021_01_workspace_RZA2M_ANPR/ANPR_RZA2M_RDK/src/tensorflow_lite/tensorflow/lite/kernels/internal/reference\pooling.h ****                  ++filter_x) {
 118:C:/Renesas/e2studio_2021_01_workspace_RZA2M_ANPR/ANPR_RZA2M_RDK/src/tensorflow_lite/tensorflow/lite/kernels/internal/reference\pooling.h ****               const int in_x = in_x_origin + filter_x;
 2016              		.loc 5 118 0
 2017 0a40 0080A0E3 		mov	r8, #0
 2018 0a44 4C209DE5 		ldr	r2, [sp, #76]
 2019 0a48 0130A0E1 		mov	r3, r1
 2020 0a4c 020051E1 		cmp	r1, r2
 2021 0a50 0230A0A1 		movge	r3, r2
 2022 0a54 34209DE5 		ldr	r2, [sp, #52]
 2023 0a58 0300A0E1 		mov	r0, r3
 2024 0a5c 08308DE5 		str	r3, [sp, #8]
 2025 0a60 0130A0E1 		mov	r3, r1
 2026 0a64 74109DE5 		ldr	r1, [sp, #116]
 2027 0a68 080052E1 		cmp	r2, r8
 2028 0a6c 025080E0 		add	r5, r0, r2
 2029 0a70 019043B0 		sublt	r9, r3, r1
 2030 0a74 0090A0A3 		movge	r9, #0
 2031 0a78 013089E2 		add	r3, r9, #1
 2032 0a7c 02B089E0 		add	fp, r9, r2
 2033 0a80 0C908DE5 		str	r9, [sp, #12]
 2034 0a84 0A90A0E1 		mov	r9, r10
 2035 0a88 08A0A0E1 		mov	r10, r8
 2036 0a8c 023083E0 		add	r3, r3, r2
 2037 0a90 1C308DE5 		str	r3, [sp, #28]
 2038              	.LVL205:
 2039              	.L128:
 2040              	.LBE957:
 2041              	.LBE956:
 114:C:/Renesas/e2studio_2021_01_workspace_RZA2M_ANPR/ANPR_RZA2M_RDK/src/tensorflow_lite/tensorflow/lite/kernels/internal/reference\pooling.h ****                ++filter_y) {
 2042              		.loc 5 114 0
 2043 0a94 48309DE5 		ldr	r3, [sp, #72]
 2044 0a98 54209DE5 		ldr	r2, [sp, #84]
 2045 0a9c 020053E1 		cmp	r3, r2
 2046 0aa0 AC0000AA 		bge	.L193
 2047 0aa4 24209DE5 		ldr	r2, [sp, #36]
 2048              	.LBB971:
 2049              	.LBB966:
 2050              	.LBB958:
 2051              	.LBB959:
 410:C:/Renesas/e2studio_2021_01_workspace_RZA2M_ANPR/ANPR_RZA2M_RDK/src/tensorflow_lite/tensorflow/lite/kernels/internal\types.h **** }
 2052              		.loc 6 410 0
 2053 0aa8 0000A0E3 		mov	r0, #0
 407:C:/Renesas/e2studio_2021_01_workspace_RZA2M_ANPR/ANPR_RZA2M_RDK/src/tensorflow_lite/tensorflow/lite/kernels/internal\types.h ****   TFLITE_DCHECK(i2 >= 0 && i2 < dims_data[2]);
 2054              		.loc 6 407 0
 2055 0aac 88809DE5 		ldr	r8, [sp, #136]
 410:C:/Renesas/e2studio_2021_01_workspace_RZA2M_ANPR/ANPR_RZA2M_RDK/src/tensorflow_lite/tensorflow/lite/kernels/internal\types.h **** }
 2056              		.loc 6 410 0
 2057 0ab0 0010A0E1 		mov	r1, r0
 408:C:/Renesas/e2studio_2021_01_workspace_RZA2M_ANPR/ANPR_RZA2M_RDK/src/tensorflow_lite/tensorflow/lite/kernels/internal\types.h ****   TFLITE_DCHECK(i3 >= 0 && i3 < dims_data[3]);
 2058              		.loc 6 408 0
 2059 0ab4 8C409DE5 		ldr	r4, [sp, #140]
 2060 0ab8 90E09DE5 		ldr	lr, [sp, #144]
 2061 0abc 026083E0 		add	r6, r3, r2
 2062 0ac0 80C09DE5 		ldr	ip, [sp, #128]
 2063 0ac4 992827E0 		mla	r7, r9, r8, r2
 406:C:/Renesas/e2studio_2021_01_workspace_RZA2M_ANPR/ANPR_RZA2M_RDK/src/tensorflow_lite/tensorflow/lite/kernels/internal\types.h ****   TFLITE_DCHECK(i1 >= 0 && i1 < dims_data[1]);
 2064              		.loc 6 406 0
 2065 0ac8 84209DE5 		ldr	r2, [sp, #132]
 2066 0acc 14C08DE5 		str	ip, [sp, #20]
 2067 0ad0 10208DE5 		str	r2, [sp, #16]
 2068 0ad4 9E0402E0 		mul	r2, lr, r4
 2069 0ad8 037087E0 		add	r7, r7, r3
 2070 0adc 40309DE5 		ldr	r3, [sp, #64]
 2071 0ae0 94B727E0 		mla	r7, r4, r7, fp
 2072 0ae4 04208DE5 		str	r2, [sp, #4]
 2073 0ae8 9EA727E0 		mla	r7, lr, r7, r10
 2074 0aec 077083E0 		add	r7, r3, r7
 2075              	.LVL206:
 2076              	.L121:
 2077              	.LBE959:
 2078              	.LBE958:
 2079              	.LBE966:
 116:C:/Renesas/e2studio_2021_01_workspace_RZA2M_ANPR/ANPR_RZA2M_RDK/src/tensorflow_lite/tensorflow/lite/kernels/internal/reference\pooling.h ****                  ++filter_x) {
 2080              		.loc 5 116 0
 2081 0af0 08309DE5 		ldr	r3, [sp, #8]
 2082 0af4 0C209DE5 		ldr	r2, [sp, #12]
 2083 0af8 020053E1 		cmp	r3, r2
 2084 0afc 1D0000DA 		ble	.L111
 2085              	.LVL207:
 2086              	.LBB967:
 2087              	.LBB963:
 2088              	.LBB960:
 404:C:/Renesas/e2studio_2021_01_workspace_RZA2M_ANPR/ANPR_RZA2M_RDK/src/tensorflow_lite/tensorflow/lite/kernels/internal\types.h ****   const int* dims_data = reinterpret_cast<const int*>(shape.DimsDataUpTo5D());
 2089              		.loc 6 404 0
 2090 0b00 14309DE5 		ldr	r3, [sp, #20]
 2091 0b04 040053E3 		cmp	r3, #4
 2092 0b08 9900001A 		bne	.L112
 406:C:/Renesas/e2studio_2021_01_workspace_RZA2M_ANPR/ANPR_RZA2M_RDK/src/tensorflow_lite/tensorflow/lite/kernels/internal\types.h ****   TFLITE_DCHECK(i1 >= 0 && i1 < dims_data[1]);
 2093              		.loc 6 406 0
 2094 0b0c 10309DE5 		ldr	r3, [sp, #16]
 2095 0b10 030059E1 		cmp	r9, r3
 2096 0b14 950000AA 		bge	.L113
 407:C:/Renesas/e2studio_2021_01_workspace_RZA2M_ANPR/ANPR_RZA2M_RDK/src/tensorflow_lite/tensorflow/lite/kernels/internal\types.h ****   TFLITE_DCHECK(i2 >= 0 && i2 < dims_data[2]);
 2097              		.loc 6 407 0
 2098 0b18 000056E3 		cmp	r6, #0
 2099 0b1c 920000BA 		blt	.L114
 2100 0b20 080056E1 		cmp	r6, r8
 2101 0b24 900000AA 		bge	.L114
 408:C:/Renesas/e2studio_2021_01_workspace_RZA2M_ANPR/ANPR_RZA2M_RDK/src/tensorflow_lite/tensorflow/lite/kernels/internal\types.h ****   TFLITE_DCHECK(i3 >= 0 && i3 < dims_data[3]);
 2102              		.loc 6 408 0
 2103 0b28 00005BE3 		cmp	fp, #0
 2104 0b2c 8C0000BA 		blt	.L115
 2105 0b30 0B0054E1 		cmp	r4, fp
 2106 0b34 8A0000DA 		ble	.L115
 2107 0b38 0A005EE1 		cmp	lr, r10
 2108 0b3c 940000DA 		ble	.L312
 2109 0b40 1C309DE5 		ldr	r3, [sp, #28]
 2110 0b44 0720A0E1 		mov	r2, r7
 2111 0b48 050000EA 		b	.L118
 2112              	.LVL208:
 2113              	.L120:
 2114 0b4c 000053E3 		cmp	r3, #0
 2115 0b50 830000BA 		blt	.L115
 2116 0b54 030054E1 		cmp	r4, r3
 2117 0b58 0E2082E0 		add	r2, r2, lr
 2118 0b5c 013083E2 		add	r3, r3, #1
 2119 0b60 7F0000DA 		ble	.L115
 2120              	.LVL209:
 2121              	.L118:
 2122              	.LBE960:
 2123              	.LBE963:
 119:C:/Renesas/e2studio_2021_01_workspace_RZA2M_ANPR/ANPR_RZA2M_RDK/src/tensorflow_lite/tensorflow/lite/kernels/internal/reference\pooling.h ****               const int in_y = in_y_origin + filter_y;
 120:C:/Renesas/e2studio_2021_01_workspace_RZA2M_ANPR/ANPR_RZA2M_RDK/src/tensorflow_lite/tensorflow/lite/kernels/internal/reference\pooling.h ****               acc +=
 121:C:/Renesas/e2studio_2021_01_workspace_RZA2M_ANPR/ANPR_RZA2M_RDK/src/tensorflow_lite/tensorflow/lite/kernels/internal/reference\pooling.h ****                   input_data[Offset(input_shape, batch, in_y, in_x, channel)];
 2124              		.loc 5 121 0
 2125 0b64 00C0D2E5 		ldrb	ip, [r2]	@ zero_extendqisi2
 2126              	.LVL210:
 2127              	.LBE967:
 116:C:/Renesas/e2studio_2021_01_workspace_RZA2M_ANPR/ANPR_RZA2M_RDK/src/tensorflow_lite/tensorflow/lite/kernels/internal/reference\pooling.h ****                  ++filter_x) {
 2128              		.loc 5 116 0
 2129 0b68 050053E1 		cmp	r3, r5
 2130              	.LBB968:
 122:C:/Renesas/e2studio_2021_01_workspace_RZA2M_ANPR/ANPR_RZA2M_RDK/src/tensorflow_lite/tensorflow/lite/kernels/internal/reference\pooling.h ****               filter_count++;
 2131              		.loc 5 122 0
 2132 0b6c 011081E2 		add	r1, r1, #1
 121:C:/Renesas/e2studio_2021_01_workspace_RZA2M_ANPR/ANPR_RZA2M_RDK/src/tensorflow_lite/tensorflow/lite/kernels/internal/reference\pooling.h ****               filter_count++;
 2133              		.loc 5 121 0
 2134 0b70 0C0080E0 		add	r0, r0, ip
 2135              	.LVL211:
 2136              	.LBE968:
 116:C:/Renesas/e2studio_2021_01_workspace_RZA2M_ANPR/ANPR_RZA2M_RDK/src/tensorflow_lite/tensorflow/lite/kernels/internal/reference\pooling.h ****                  ++filter_x) {
 2137              		.loc 5 116 0
 2138 0b74 F4FFFF1A 		bne	.L120
 2139              	.LVL212:
 2140              	.L111:
 2141 0b78 04309DE5 		ldr	r3, [sp, #4]
 2142 0b7c 016086E2 		add	r6, r6, #1
 2143 0b80 037087E0 		add	r7, r7, r3
 2144              	.LBE971:
 114:C:/Renesas/e2studio_2021_01_workspace_RZA2M_ANPR/ANPR_RZA2M_RDK/src/tensorflow_lite/tensorflow/lite/kernels/internal/reference\pooling.h ****                ++filter_y) {
 2145              		.loc 5 114 0
 2146 0b84 18309DE5 		ldr	r3, [sp, #24]
 2147 0b88 030056E1 		cmp	r6, r3
 2148 0b8c D7FFFF1A 		bne	.L121
 2149 0b90 C10080E0 		add	r0, r0, r1, asr #1
 2150              	.L110:
 2151              	.LBE955:
 123:C:/Renesas/e2studio_2021_01_workspace_RZA2M_ANPR/ANPR_RZA2M_RDK/src/tensorflow_lite/tensorflow/lite/kernels/internal/reference\pooling.h ****             }
 124:C:/Renesas/e2studio_2021_01_workspace_RZA2M_ANPR/ANPR_RZA2M_RDK/src/tensorflow_lite/tensorflow/lite/kernels/internal/reference\pooling.h ****           }
 125:C:/Renesas/e2studio_2021_01_workspace_RZA2M_ANPR/ANPR_RZA2M_RDK/src/tensorflow_lite/tensorflow/lite/kernels/internal/reference\pooling.h ****           acc = (acc + filter_count / 2) / filter_count;
 2152              		.loc 5 125 0
 2153 0b94 FEFFFFEB 		bl	__aeabi_idiv
 2154              	.LVL213:
 2155              	.LBB974:
 2156              	.LBB975:
 224:c:\program files (x86)\gnu tools arm embedded\6 2017-q2-update\arm-none-eabi\include\c++\6.3.1\bits\stl_algobase.h **** 	return __b;
 2157              		.loc 7 224 0
 2158 0b98 20309DE5 		ldr	r3, [sp, #32]
 2159 0b9c 000053E1 		cmp	r3, r0
 2160 0ba0 0320A0C1 		movgt	r2, r3
 2161 0ba4 030000CA 		bgt	.L122
 2162              	.LVL214:
 2163 0ba8 3C309DE5 		ldr	r3, [sp, #60]
 2164 0bac 000053E1 		cmp	r3, r0
 2165 0bb0 0320A0B1 		movlt	r2, r3
 2166 0bb4 0020A0A1 		movge	r2, r0
 2167              	.LVL215:
 2168              	.L122:
 2169              	.LBE975:
 2170              	.LBE974:
 2171              	.LBB976:
 2172              	.LBB977:
 404:C:/Renesas/e2studio_2021_01_workspace_RZA2M_ANPR/ANPR_RZA2M_RDK/src/tensorflow_lite/tensorflow/lite/kernels/internal\types.h ****   const int* dims_data = reinterpret_cast<const int*>(shape.DimsDataUpTo5D());
 2173              		.loc 6 404 0
 2174 0bb8 98309DE5 		ldr	r3, [sp, #152]
 2175 0bbc 040053E3 		cmp	r3, #4
 2176 0bc0 7200001A 		bne	.L313
 406:C:/Renesas/e2studio_2021_01_workspace_RZA2M_ANPR/ANPR_RZA2M_RDK/src/tensorflow_lite/tensorflow/lite/kernels/internal\types.h ****   TFLITE_DCHECK(i1 >= 0 && i1 < dims_data[1]);
 2177              		.loc 6 406 0
 2178 0bc4 9C309DE5 		ldr	r3, [sp, #156]
 2179 0bc8 030059E1 		cmp	r9, r3
 2180 0bcc 6E0000AA 		bge	.L314
 407:C:/Renesas/e2studio_2021_01_workspace_RZA2M_ANPR/ANPR_RZA2M_RDK/src/tensorflow_lite/tensorflow/lite/kernels/internal\types.h ****   TFLITE_DCHECK(i2 >= 0 && i2 < dims_data[2]);
 2181              		.loc 6 407 0
 2182 0bd0 A0309DE5 		ldr	r3, [sp, #160]
 2183 0bd4 2C109DE5 		ldr	r1, [sp, #44]
 2184 0bd8 030051E1 		cmp	r1, r3
 2185 0bdc 690000AA 		bge	.L315
 408:C:/Renesas/e2studio_2021_01_workspace_RZA2M_ANPR/ANPR_RZA2M_RDK/src/tensorflow_lite/tensorflow/lite/kernels/internal\types.h ****   TFLITE_DCHECK(i3 >= 0 && i3 < dims_data[3]);
 2186              		.loc 6 408 0
 2187 0be0 A4009DE5 		ldr	r0, [sp, #164]
 2188 0be4 28109DE5 		ldr	r1, [sp, #40]
 2189 0be8 000051E1 		cmp	r1, r0
 2190 0bec 620000AA 		bge	.L316
 409:C:/Renesas/e2studio_2021_01_workspace_RZA2M_ANPR/ANPR_RZA2M_RDK/src/tensorflow_lite/tensorflow/lite/kernels/internal\types.h ****   return ((i0 * dims_data[1] + i1) * dims_data[2] + i2) * dims_data[3] + i3;
 2191              		.loc 6 409 0
 2192 0bf0 A8109DE5 		ldr	r1, [sp, #168]
 2193 0bf4 01005AE1 		cmp	r10, r1
 2194 0bf8 5E0000AA 		bge	.L317
 2195              	.LVL216:
 410:C:/Renesas/e2studio_2021_01_workspace_RZA2M_ANPR/ANPR_RZA2M_RDK/src/tensorflow_lite/tensorflow/lite/kernels/internal\types.h **** }
 2196              		.loc 6 410 0
 2197 0bfc 2CC09DE5 		ldr	ip, [sp, #44]
 2198 0c00 93C923E0 		mla	r3, r3, r9, ip
 2199 0c04 28C09DE5 		ldr	ip, [sp, #40]
 2200 0c08 90C323E0 		mla	r3, r0, r3, ip
 2201              	.LBE977:
 2202              	.LBE976:
 126:C:/Renesas/e2studio_2021_01_workspace_RZA2M_ANPR/ANPR_RZA2M_RDK/src/tensorflow_lite/tensorflow/lite/kernels/internal/reference\pooling.h ****           acc = std::max(acc, params.quantized_activation_min);
 127:C:/Renesas/e2studio_2021_01_workspace_RZA2M_ANPR/ANPR_RZA2M_RDK/src/tensorflow_lite/tensorflow/lite/kernels/internal/reference\pooling.h ****           acc = std::min(acc, params.quantized_activation_max);
 128:C:/Renesas/e2studio_2021_01_workspace_RZA2M_ANPR/ANPR_RZA2M_RDK/src/tensorflow_lite/tensorflow/lite/kernels/internal/reference\pooling.h ****           output_data[Offset(output_shape, batch, out_y, out_x, channel)] =
 2203              		.loc 5 128 0
 2204 0c0c 44009DE5 		ldr	r0, [sp, #68]
 2205 0c10 910323E0 		mla	r3, r1, r3, r0
 129:C:/Renesas/e2studio_2021_01_workspace_RZA2M_ANPR/ANPR_RZA2M_RDK/src/tensorflow_lite/tensorflow/lite/kernels/internal/reference\pooling.h ****               static_cast<uint8_t>(acc);
 2206              		.loc 5 129 0
 2207 0c14 0A20C3E7 		strb	r2, [r3, r10]
 2208              	.LVL217:
 2209              	.LBE954:
  99:C:/Renesas/e2studio_2021_01_workspace_RZA2M_ANPR/ANPR_RZA2M_RDK/src/tensorflow_lite/tensorflow/lite/kernels/internal/reference\pooling.h ****           const int in_x_origin =
 2210              		.loc 5 99 0
 2211 0c18 01A08AE2 		add	r10, r10, #1
 2212              	.LVL218:
 2213 0c1c 50309DE5 		ldr	r3, [sp, #80]
 2214 0c20 03005AE1 		cmp	r10, r3
 2215 0c24 9AFFFF1A 		bne	.L128
 2216 0c28 09A0A0E1 		mov	r10, r9
 2217              	.LVL219:
 2218              	.L127:
 2219 0c2c 38109DE5 		ldr	r1, [sp, #56]
 2220 0c30 70209DE5 		ldr	r2, [sp, #112]
 2221              	.LBE953:
  98:C:/Renesas/e2studio_2021_01_workspace_RZA2M_ANPR/ANPR_RZA2M_RDK/src/tensorflow_lite/tensorflow/lite/kernels/internal/reference\pooling.h ****         for (int channel = 0; channel < depth; ++channel) {
 2222              		.loc 5 98 0
 2223 0c34 28309DE5 		ldr	r3, [sp, #40]
 2224 0c38 021041E0 		sub	r1, r1, r2
 2225 0c3c 38108DE5 		str	r1, [sp, #56]
 2226 0c40 013083E2 		add	r3, r3, #1
 2227 0c44 7C109DE5 		ldr	r1, [sp, #124]
 2228 0c48 28308DE5 		str	r3, [sp, #40]
 2229              	.LVL220:
 2230 0c4c 010053E1 		cmp	r3, r1
 2231 0c50 34309DE5 		ldr	r3, [sp, #52]
 2232              	.LVL221:
 2233 0c54 023083E0 		add	r3, r3, r2
 2234 0c58 34308DE5 		str	r3, [sp, #52]
 2235 0c5c 73FFFF1A 		bne	.L109
 2236 0c60 0A70A0E1 		mov	r7, r10
 2237              	.LVL222:
 2238              	.L108:
 2239 0c64 24109DE5 		ldr	r1, [sp, #36]
 2240 0c68 6C209DE5 		ldr	r2, [sp, #108]
 2241              	.LBE952:
  97:C:/Renesas/e2studio_2021_01_workspace_RZA2M_ANPR/ANPR_RZA2M_RDK/src/tensorflow_lite/tensorflow/lite/kernels/internal/reference\pooling.h ****       for (int out_x = 0; out_x < output_width; ++out_x) {
 2242              		.loc 5 97 0
 2243 0c6c 2C309DE5 		ldr	r3, [sp, #44]
 2244 0c70 021081E0 		add	r1, r1, r2
 2245 0c74 24108DE5 		str	r1, [sp, #36]
 2246 0c78 013083E2 		add	r3, r3, #1
 2247 0c7c 78109DE5 		ldr	r1, [sp, #120]
 2248 0c80 2C308DE5 		str	r3, [sp, #44]
 2249              	.LVL223:
 2250 0c84 010053E1 		cmp	r3, r1
 2251 0c88 30309DE5 		ldr	r3, [sp, #48]
 2252              	.LVL224:
 2253 0c8c 023043E0 		sub	r3, r3, r2
 2254 0c90 30308DE5 		str	r3, [sp, #48]
 2255 0c94 4CFFFF1A 		bne	.L106
 2256              	.LVL225:
 2257              	.L105:
 2258              	.LBE951:
  96:C:/Renesas/e2studio_2021_01_workspace_RZA2M_ANPR/ANPR_RZA2M_RDK/src/tensorflow_lite/tensorflow/lite/kernels/internal/reference\pooling.h ****     for (int out_y = 0; out_y < output_height; ++out_y) {
 2259              		.loc 5 96 0
 2260 0c98 58309DE5 		ldr	r3, [sp, #88]
 2261 0c9c 017087E2 		add	r7, r7, #1
 2262              	.LVL226:
 2263 0ca0 030057E1 		cmp	r7, r3
 2264 0ca4 3DFFFF1A 		bne	.L103
 2265              	.LVL227:
 2266              	.L142:
 2267              	.LBE1001:
 2268              	.LBE1006:
 2269              	.LBE1010:
 2270              	.LBB1011:
 2271              	.LBB1012:
 203:C:/Renesas/e2studio_2021_01_workspace_RZA2M_ANPR/ANPR_RZA2M_RDK/src/tensorflow_lite/tensorflow/lite/kernels/internal\types.h **** #ifdef TF_LITE_STATIC_MEMORY
 2272              		.loc 6 203 0
 2273 0ca8 98309DE5 		ldr	r3, [sp, #152]
 2274 0cac 050053E3 		cmp	r3, #5
 2275 0cb0 030000DA 		ble	.L261
 207:C:/Renesas/e2studio_2021_01_workspace_RZA2M_ANPR/ANPR_RZA2M_RDK/src/tensorflow_lite/tensorflow/lite/kernels/internal\types.h **** #endif  // TF_LITE_STATIC_MEMORY
 2276              		.loc 6 207 0
 2277 0cb4 9C009DE5 		ldr	r0, [sp, #156]
 2278 0cb8 000050E3 		cmp	r0, #0
 2279 0cbc 0000000A 		beq	.L261
 2280 0cc0 FEFFFFEB 		bl	_ZdaPv
 2281              	.LVL228:
 2282              	.L261:
 2283 0cc4 80309DE5 		ldr	r3, [sp, #128]
 2284              	.LVL229:
 2285              	.LBE1012:
 2286              	.LBE1011:
 2287              	.LBB1013:
 2288              	.LBB1014:
 203:C:/Renesas/e2studio_2021_01_workspace_RZA2M_ANPR/ANPR_RZA2M_RDK/src/tensorflow_lite/tensorflow/lite/kernels/internal\types.h **** #ifdef TF_LITE_STATIC_MEMORY
 2289              		.loc 6 203 0
 2290 0cc8 050053E3 		cmp	r3, #5
 2291 0ccc F6FDFFDA 		ble	.L133
 207:C:/Renesas/e2studio_2021_01_workspace_RZA2M_ANPR/ANPR_RZA2M_RDK/src/tensorflow_lite/tensorflow/lite/kernels/internal\types.h **** #endif  // TF_LITE_STATIC_MEMORY
 2292              		.loc 6 207 0
 2293 0cd0 84009DE5 		ldr	r0, [sp, #132]
 2294 0cd4 000050E3 		cmp	r0, #0
 2295 0cd8 F3FDFF0A 		beq	.L133
 2296 0cdc FEFFFFEB 		bl	_ZdaPv
 2297              	.LVL230:
 2298 0ce0 F1FDFFEA 		b	.L133
 2299              	.LVL231:
 2300              	.L197:
 2301              	.LBE1014:
 2302              	.LBE1013:
 2303              	.LBB1015:
 2304              	.LBB921:
 2305              	.LBB912:
 2306              	.LBB897:
 2307              	.LBB891:
 2308              	.LBB885:
 2309              	.LBB879:
 2310              	.LBB873:
  58:C:/Renesas/e2studio_2021_01_workspace_RZA2M_ANPR/ANPR_RZA2M_RDK/src/tensorflow_lite/tensorflow/lite/kernels/internal/reference/integer_ops\pooling.h ****                ++filter_y) {
 2311              		.loc 8 58 0
 2312 0ce4 0000A0E3 		mov	r0, #0
 2313              	.LBE873:
  57:C:/Renesas/e2studio_2021_01_workspace_RZA2M_ANPR/ANPR_RZA2M_RDK/src/tensorflow_lite/tensorflow/lite/kernels/internal/reference/integer_ops\pooling.h ****           for (int filter_y = filter_y_start; filter_y < filter_y_end;
 2314              		.loc 8 57 0
 2315 0ce8 0010A0E1 		mov	r1, r0
 2316 0cec FDFEFFEA 		b	.L150
 2317              	.LVL232:
 2318              	.L289:
 2319              	.LEHB6:
 2320              	.LBE879:
 2321              	.LBE885:
 2322              	.LBE891:
 2323              	.LBE897:
 2324              	.LBE912:
 2325              	.LBE921:
 2326              	.LBE1015:
 2327              	.LBE1028:
 2328              	.LBE1036:
 2329              	.LBB1037:
 2330              	.LBB813:
 2331              	.LBB806:
 2332              	.LBB796:
 2333              	.LBB789:
 2334              	.LBB774:
 2335              	.LBB769:
 2336              	.LBB764:
 2337              	.LBB759:
 2338              	.LBB752:
 2339              	.LBB732:
 2340              	.LBB729:
 2341              	.LBB725:
 2342              	.LBB724:
 409:C:/Renesas/e2studio_2021_01_workspace_RZA2M_ANPR/ANPR_RZA2M_RDK/src/tensorflow_lite/tensorflow/lite/kernels/internal\types.h ****   return ((i0 * dims_data[1] + i1) * dims_data[2] + i2) * dims_data[3] + i3;
 2343              		.loc 6 409 0
 2344 0cf0 FEFFFFEB 		bl	abort
 2345              	.LVL233:
 2346              	.L74:
 408:C:/Renesas/e2studio_2021_01_workspace_RZA2M_ANPR/ANPR_RZA2M_RDK/src/tensorflow_lite/tensorflow/lite/kernels/internal\types.h ****   TFLITE_DCHECK(i3 >= 0 && i3 < dims_data[3]);
 2347              		.loc 6 408 0
 2348 0cf4 FEFFFFEB 		bl	abort
 2349              	.LVL234:
 2350              	.L73:
 407:C:/Renesas/e2studio_2021_01_workspace_RZA2M_ANPR/ANPR_RZA2M_RDK/src/tensorflow_lite/tensorflow/lite/kernels/internal\types.h ****   TFLITE_DCHECK(i2 >= 0 && i2 < dims_data[2]);
 2351              		.loc 6 407 0
 2352 0cf8 FEFFFFEB 		bl	abort
 2353              	.LVL235:
 2354              	.L72:
 406:C:/Renesas/e2studio_2021_01_workspace_RZA2M_ANPR/ANPR_RZA2M_RDK/src/tensorflow_lite/tensorflow/lite/kernels/internal\types.h ****   TFLITE_DCHECK(i1 >= 0 && i1 < dims_data[1]);
 2355              		.loc 6 406 0
 2356 0cfc FEFFFFEB 		bl	abort
 2357              	.LVL236:
 2358              	.LEHE6:
 2359              	.L154:
 2360              	.LEHB7:
 2361              	.LBE724:
 2362              	.LBE725:
 2363              	.LBE729:
 2364              	.LBE732:
 2365              	.LBE752:
 2366              	.LBE759:
 2367              	.LBE764:
 2368              	.LBE769:
 2369              	.LBE774:
 2370              	.LBE789:
 2371              	.LBE796:
 2372              	.LBE806:
 2373              	.LBE813:
 2374              	.LBE1037:
 2375              	.LBB1038:
 2376              	.LBB1029:
 2377              	.LBB1016:
 2378              	.LBB922:
 2379              	.LBB913:
 2380              	.LBB898:
 2381              	.LBB892:
 2382              	.LBB886:
 2383              	.LBB880:
 2384              	.LBB874:
 2385              	.LBB865:
 2386              	.LBB861:
 2387              	.LBB855:
 2388              	.LBB851:
 407:C:/Renesas/e2studio_2021_01_workspace_RZA2M_ANPR/ANPR_RZA2M_RDK/src/tensorflow_lite/tensorflow/lite/kernels/internal\types.h ****   TFLITE_DCHECK(i2 >= 0 && i2 < dims_data[2]);
 2389              		.loc 6 407 0
 2390 0d00 FEFFFFEB 		bl	abort
 2391              	.LVL237:
 2392              	.L153:
 406:C:/Renesas/e2studio_2021_01_workspace_RZA2M_ANPR/ANPR_RZA2M_RDK/src/tensorflow_lite/tensorflow/lite/kernels/internal\types.h ****   TFLITE_DCHECK(i1 >= 0 && i1 < dims_data[1]);
 2393              		.loc 6 406 0
 2394 0d04 FEFFFFEB 		bl	abort
 2395              	.LVL238:
 2396              	.L155:
 408:C:/Renesas/e2studio_2021_01_workspace_RZA2M_ANPR/ANPR_RZA2M_RDK/src/tensorflow_lite/tensorflow/lite/kernels/internal\types.h ****   TFLITE_DCHECK(i3 >= 0 && i3 < dims_data[3]);
 2397              		.loc 6 408 0
 2398 0d08 FEFFFFEB 		bl	abort
 2399              	.LVL239:
 2400              	.L298:
 2401              	.LBE851:
 2402              	.LBE855:
 2403              	.LBE861:
 2404              	.LBE865:
 2405              	.LBE874:
 2406              	.LBE880:
 2407              	.LBE886:
 2408              	.LBE892:
 2409              	.LBE898:
 2410              	.LBE913:
 2411              	.LBB914:
 2412              	.LBB834:
 2413              		.loc 6 472 0
 2414 0d0c FEFFFFEB 		bl	abort
 2415              	.LVL240:
 2416              	.L299:
 2417              	.LBE834:
 2418              	.LBE914:
 2419              	.LBB915:
 2420              	.LBB839:
 2421 0d10 FEFFFFEB 		bl	abort
 2422              	.LVL241:
 2423              	.LEHE7:
 2424              	.L201:
 2425              	.L279:
 2426              	.LBE839:
 2427              	.LBE915:
 2428              	.LBE922:
 2429              	.LBE1016:
 2430              	.LBB1017:
 2431              	.LBB1018:
 203:C:/Renesas/e2studio_2021_01_workspace_RZA2M_ANPR/ANPR_RZA2M_RDK/src/tensorflow_lite/tensorflow/lite/kernels/internal\types.h **** #ifdef TF_LITE_STATIC_MEMORY
 2432              		.loc 6 203 0
 2433 0d14 98309DE5 		ldr	r3, [sp, #152]
 2434 0d18 050053E3 		cmp	r3, #5
 2435 0d1c 030000DA 		ble	.L181
 207:C:/Renesas/e2studio_2021_01_workspace_RZA2M_ANPR/ANPR_RZA2M_RDK/src/tensorflow_lite/tensorflow/lite/kernels/internal\types.h **** #endif  // TF_LITE_STATIC_MEMORY
 2436              		.loc 6 207 0
 2437 0d20 9C009DE5 		ldr	r0, [sp, #156]
 2438 0d24 000050E3 		cmp	r0, #0
 2439 0d28 0000000A 		beq	.L181
 2440 0d2c FEFFFFEB 		bl	_ZdaPv
 2441              	.LVL242:
 2442              	.L181:
 2443              	.LBE1018:
 2444              	.LBE1017:
 2445              	.LBB1019:
 2446              	.LBB1020:
 203:C:/Renesas/e2studio_2021_01_workspace_RZA2M_ANPR/ANPR_RZA2M_RDK/src/tensorflow_lite/tensorflow/lite/kernels/internal\types.h **** #ifdef TF_LITE_STATIC_MEMORY
 2447              		.loc 6 203 0
 2448 0d30 80309DE5 		ldr	r3, [sp, #128]
 2449 0d34 050053E3 		cmp	r3, #5
 2450 0d38 030000DA 		ble	.L182
 207:C:/Renesas/e2studio_2021_01_workspace_RZA2M_ANPR/ANPR_RZA2M_RDK/src/tensorflow_lite/tensorflow/lite/kernels/internal\types.h **** #endif  // TF_LITE_STATIC_MEMORY
 2451              		.loc 6 207 0
 2452 0d3c 84009DE5 		ldr	r0, [sp, #132]
 2453 0d40 000050E3 		cmp	r0, #0
 2454 0d44 0000000A 		beq	.L182
 2455 0d48 FEFFFFEB 		bl	_ZdaPv
 2456              	.LVL243:
 2457              	.L182:
 2458              	.LEHB8:
 2459 0d4c FEFFFFEB 		bl	__cxa_end_cleanup
 2460              	.LVL244:
 2461              	.LEHE8:
 2462              	.L205:
 2463 0d50 EFFFFFEA 		b	.L279
 2464              	.LVL245:
 2465              	.L152:
 2466              	.LEHB9:
 2467              	.LBE1020:
 2468              	.LBE1019:
 2469              	.LBB1021:
 2470              	.LBB923:
 2471              	.LBB916:
 2472              	.LBB899:
 2473              	.LBB893:
 2474              	.LBB887:
 2475              	.LBB881:
 2476              	.LBB875:
 2477              	.LBB866:
 2478              	.LBB862:
 2479              	.LBB856:
 2480              	.LBB852:
 404:C:/Renesas/e2studio_2021_01_workspace_RZA2M_ANPR/ANPR_RZA2M_RDK/src/tensorflow_lite/tensorflow/lite/kernels/internal\types.h ****   const int* dims_data = reinterpret_cast<const int*>(shape.DimsDataUpTo5D());
 2481              		.loc 6 404 0
 2482 0d54 FEFFFFEB 		bl	abort
 2483              	.LVL246:
 2484              	.LEHE9:
 2485              	.L193:
 2486              	.LBE852:
 2487              	.LBE856:
 2488              	.LBE862:
 2489              	.LBE866:
 2490              	.LBE875:
 2491              	.LBE881:
 2492              	.LBE887:
 2493              	.LBE893:
 2494              	.LBE899:
 2495              	.LBE916:
 2496              	.LBE923:
 2497              	.LBE1021:
 2498              	.LBB1022:
 2499              	.LBB1007:
 2500              	.LBB1002:
 2501              	.LBB991:
 2502              	.LBB989:
 2503              	.LBB987:
 2504              	.LBB985:
 2505              	.LBB980:
 114:C:/Renesas/e2studio_2021_01_workspace_RZA2M_ANPR/ANPR_RZA2M_RDK/src/tensorflow_lite/tensorflow/lite/kernels/internal/reference\pooling.h ****                ++filter_y) {
 2506              		.loc 5 114 0
 2507 0d58 0000A0E3 		mov	r0, #0
 2508              	.LBE980:
 113:C:/Renesas/e2studio_2021_01_workspace_RZA2M_ANPR/ANPR_RZA2M_RDK/src/tensorflow_lite/tensorflow/lite/kernels/internal/reference\pooling.h ****           for (int filter_y = filter_y_start; filter_y < filter_y_end;
 2509              		.loc 5 113 0
 2510 0d5c 0010A0E1 		mov	r1, r0
 2511 0d60 8BFFFFEA 		b	.L110
 2512              	.LVL247:
 2513              	.L115:
 2514              	.LEHB10:
 2515              	.LBB981:
 2516              	.LBB972:
 2517              	.LBB969:
 2518              	.LBB964:
 2519              	.LBB961:
 408:C:/Renesas/e2studio_2021_01_workspace_RZA2M_ANPR/ANPR_RZA2M_RDK/src/tensorflow_lite/tensorflow/lite/kernels/internal\types.h ****   TFLITE_DCHECK(i3 >= 0 && i3 < dims_data[3]);
 2520              		.loc 6 408 0
 2521 0d64 FEFFFFEB 		bl	abort
 2522              	.LVL248:
 2523              	.L203:
 2524 0d68 E9FFFFEA 		b	.L279
 2525              	.LVL249:
 2526              	.L114:
 407:C:/Renesas/e2studio_2021_01_workspace_RZA2M_ANPR/ANPR_RZA2M_RDK/src/tensorflow_lite/tensorflow/lite/kernels/internal\types.h ****   TFLITE_DCHECK(i2 >= 0 && i2 < dims_data[2]);
 2527              		.loc 6 407 0
 2528 0d6c FEFFFFEB 		bl	abort
 2529              	.LVL250:
 2530              	.L113:
 406:C:/Renesas/e2studio_2021_01_workspace_RZA2M_ANPR/ANPR_RZA2M_RDK/src/tensorflow_lite/tensorflow/lite/kernels/internal\types.h ****   TFLITE_DCHECK(i1 >= 0 && i1 < dims_data[1]);
 2531              		.loc 6 406 0
 2532 0d70 FEFFFFEB 		bl	abort
 2533              	.LVL251:
 2534              	.L112:
 404:C:/Renesas/e2studio_2021_01_workspace_RZA2M_ANPR/ANPR_RZA2M_RDK/src/tensorflow_lite/tensorflow/lite/kernels/internal\types.h ****   const int* dims_data = reinterpret_cast<const int*>(shape.DimsDataUpTo5D());
 2535              		.loc 6 404 0
 2536 0d74 FEFFFFEB 		bl	abort
 2537              	.LVL252:
 2538              	.L317:
 2539              	.LBE961:
 2540              	.LBE964:
 2541              	.LBE969:
 2542              	.LBE972:
 2543              	.LBE981:
 2544              	.LBB982:
 2545              	.LBB978:
 409:C:/Renesas/e2studio_2021_01_workspace_RZA2M_ANPR/ANPR_RZA2M_RDK/src/tensorflow_lite/tensorflow/lite/kernels/internal\types.h ****   return ((i0 * dims_data[1] + i1) * dims_data[2] + i2) * dims_data[3] + i3;
 2546              		.loc 6 409 0
 2547 0d78 FEFFFFEB 		bl	abort
 2548              	.LVL253:
 2549              	.L316:
 408:C:/Renesas/e2studio_2021_01_workspace_RZA2M_ANPR/ANPR_RZA2M_RDK/src/tensorflow_lite/tensorflow/lite/kernels/internal\types.h ****   TFLITE_DCHECK(i3 >= 0 && i3 < dims_data[3]);
 2550              		.loc 6 408 0
 2551 0d7c FEFFFFEB 		bl	abort
 2552              	.LVL254:
 2553              	.L307:
 2554              	.LBE978:
 2555              	.LBE982:
 2556              	.LBE985:
 2557              	.LBE987:
 2558              	.LBE989:
 2559              	.LBE991:
 2560              	.LBE1002:
  84:C:/Renesas/e2studio_2021_01_workspace_RZA2M_ANPR/ANPR_RZA2M_RDK/src/tensorflow_lite/tensorflow/lite/kernels/internal/reference\pooling.h ****                    params.quantized_activation_max);
 2561              		.loc 5 84 0
 2562 0d80 FEFFFFEB 		bl	abort
 2563              	.LVL255:
 2564              	.L202:
 2565 0d84 E9FFFFEA 		b	.L181
 2566              	.LVL256:
 2567              	.L315:
 2568              	.LBB1003:
 2569              	.LBB992:
 2570              	.LBB990:
 2571              	.LBB988:
 2572              	.LBB986:
 2573              	.LBB983:
 2574              	.LBB979:
 407:C:/Renesas/e2studio_2021_01_workspace_RZA2M_ANPR/ANPR_RZA2M_RDK/src/tensorflow_lite/tensorflow/lite/kernels/internal\types.h ****   TFLITE_DCHECK(i2 >= 0 && i2 < dims_data[2]);
 2575              		.loc 6 407 0
 2576 0d88 FEFFFFEB 		bl	abort
 2577              	.LVL257:
 2578              	.L314:
 406:C:/Renesas/e2studio_2021_01_workspace_RZA2M_ANPR/ANPR_RZA2M_RDK/src/tensorflow_lite/tensorflow/lite/kernels/internal\types.h ****   TFLITE_DCHECK(i1 >= 0 && i1 < dims_data[1]);
 2579              		.loc 6 406 0
 2580 0d8c FEFFFFEB 		bl	abort
 2581              	.LVL258:
 2582              	.L313:
 404:C:/Renesas/e2studio_2021_01_workspace_RZA2M_ANPR/ANPR_RZA2M_RDK/src/tensorflow_lite/tensorflow/lite/kernels/internal\types.h ****   const int* dims_data = reinterpret_cast<const int*>(shape.DimsDataUpTo5D());
 2583              		.loc 6 404 0
 2584 0d90 FEFFFFEB 		bl	abort
 2585              	.LVL259:
 2586              	.L312:
 2587              	.LBE979:
 2588              	.LBE983:
 2589              	.LBB984:
 2590              	.LBB973:
 2591              	.LBB970:
 2592              	.LBB965:
 2593              	.LBB962:
 409:C:/Renesas/e2studio_2021_01_workspace_RZA2M_ANPR/ANPR_RZA2M_RDK/src/tensorflow_lite/tensorflow/lite/kernels/internal\types.h ****   return ((i0 * dims_data[1] + i1) * dims_data[2] + i2) * dims_data[3] + i3;
 2594              		.loc 6 409 0
 2595 0d94 FEFFFFEB 		bl	abort
 2596              	.LVL260:
 2597              	.LEHE10:
 2598              	.L290:
 2599              	.LEHB11:
 2600              	.LBE962:
 2601              	.LBE965:
 2602              	.LBE970:
 2603              	.LBE973:
 2604              	.LBE984:
 2605              	.LBE986:
 2606              	.LBE988:
 2607              	.LBE990:
 2608              	.LBE992:
 2609              	.LBE1003:
 2610              	.LBE1007:
 2611              	.LBE1022:
 2612              	.LBE1029:
 2613              	.LBE1038:
 2614              	.LBB1039:
 2615              	.LBB814:
 2616              	.LBB807:
 2617              	.LBB797:
 2618              	.LBB790:
 2619              	.LBB775:
 2620              	.LBB770:
 2621              	.LBB765:
 2622              	.LBB760:
 2623              	.LBB753:
 2624              	.LBB738:
 406:C:/Renesas/e2studio_2021_01_workspace_RZA2M_ANPR/ANPR_RZA2M_RDK/src/tensorflow_lite/tensorflow/lite/kernels/internal\types.h ****   TFLITE_DCHECK(i1 >= 0 && i1 < dims_data[1]);
 2625              		.loc 6 406 0
 2626 0d98 FEFFFFEB 		bl	abort
 2627              	.LVL261:
 2628              	.LEHE11:
 2629              	.L297:
 2630              	.LEHB12:
 2631              	.LBE738:
 2632              	.LBE753:
 2633              	.LBE760:
 2634              	.LBE765:
 2635              	.LBE770:
 2636              	.LBE775:
 2637              	.LBE790:
 2638              	.LBE797:
 2639              	.LBE807:
 2640              	.LBE814:
 2641              	.LBE1039:
 2642              	.LBB1040:
 2643              	.LBB1030:
 2644              	.LBB1023:
 2645              	.LBB924:
  31:C:/Renesas/e2studio_2021_01_workspace_RZA2M_ANPR/ANPR_RZA2M_RDK/src/tensorflow_lite/tensorflow/lite/kernels/internal/reference/integer_ops\pooling.h ****   const int batches = MatchingDim(input_shape, 0, output_shape, 0);
 2646              		.loc 8 31 0
 2647 0d9c FEFFFFEB 		bl	abort
 2648              	.LVL262:
 2649              	.LEHE12:
 2650              	.L287:
 2651              	.LEHB13:
 2652              	.LBE924:
 2653              	.LBE1023:
 2654              	.LBE1030:
 2655              	.LBE1040:
 2656              	.LBB1041:
 2657              	.LBB815:
 2658              	.LBB808:
 2659              	.LBB798:
 2660              	.LBB791:
 2661              	.LBB706:
 2662              		.loc 6 472 0
 2663 0da0 FEFFFFEB 		bl	abort
 2664              	.LVL263:
 2665              	.LEHE13:
 2666              	.L204:
 2667 0da4 E1FFFFEA 		b	.L181
 2668              	.LVL264:
 2669              	.L311:
 2670              	.LEHB14:
 2671              	.LBE706:
 2672              	.LBE791:
 2673              	.LBE798:
 2674              	.LBE808:
 2675              	.LBE815:
 2676              	.LBE1041:
 2677              	.LBB1042:
 2678              	.LBB1031:
 2679              	.LBB1024:
 2680              	.LBB1008:
 2681              	.LBB1004:
 2682              	.LBB949:
 2683 0da8 FEFFFFEB 		bl	abort
 2684              	.LVL265:
 2685              	.L310:
 2686              	.LBE949:
 2687              	.LBE1004:
 2688              	.LBB1005:
 2689              	.LBB944:
 2690 0dac FEFFFFEB 		bl	abort
 2691              	.LVL266:
 2692              	.L309:
 2693              	.LBE944:
 2694              	.LBE1005:
  87:C:/Renesas/e2studio_2021_01_workspace_RZA2M_ANPR/ANPR_RZA2M_RDK/src/tensorflow_lite/tensorflow/lite/kernels/internal/reference\pooling.h ****   const int batches = MatchingDim(input_shape, 0, output_shape, 0);
 2695              		.loc 5 87 0
 2696 0db0 FEFFFFEB 		bl	abort
 2697              	.LVL267:
 2698              	.L308:
  86:C:/Renesas/e2studio_2021_01_workspace_RZA2M_ANPR/ANPR_RZA2M_RDK/src/tensorflow_lite/tensorflow/lite/kernels/internal/reference\pooling.h ****   TFLITE_DCHECK_EQ(output_shape.DimensionsCount(), 4);
 2699              		.loc 5 86 0
 2700 0db4 FEFFFFEB 		bl	abort
 2701              	.LVL268:
 2702              	.LEHE14:
 2703              	.L291:
 2704              	.LEHB15:
 2705              	.LBE1008:
 2706              	.LBE1024:
 2707              	.LBE1031:
 2708              	.LBE1042:
 2709              	.LBB1043:
 2710              	.LBB816:
 2711              	.LBB809:
 2712              	.LBB799:
 2713              	.LBB792:
 2714              	.LBB776:
 2715              	.LBB771:
 2716              	.LBB766:
 2717              	.LBB761:
 2718              	.LBB754:
 2719              	.LBB739:
 407:C:/Renesas/e2studio_2021_01_workspace_RZA2M_ANPR/ANPR_RZA2M_RDK/src/tensorflow_lite/tensorflow/lite/kernels/internal\types.h ****   TFLITE_DCHECK(i2 >= 0 && i2 < dims_data[2]);
 2720              		.loc 6 407 0
 2721 0db8 FEFFFFEB 		bl	abort
 2722              	.LVL269:
 2723              	.L292:
 408:C:/Renesas/e2studio_2021_01_workspace_RZA2M_ANPR/ANPR_RZA2M_RDK/src/tensorflow_lite/tensorflow/lite/kernels/internal\types.h ****   TFLITE_DCHECK(i3 >= 0 && i3 < dims_data[3]);
 2724              		.loc 6 408 0
 2725 0dbc FEFFFFEB 		bl	abort
 2726              	.LVL270:
 2727              	.L293:
 409:C:/Renesas/e2studio_2021_01_workspace_RZA2M_ANPR/ANPR_RZA2M_RDK/src/tensorflow_lite/tensorflow/lite/kernels/internal\types.h ****   return ((i0 * dims_data[1] + i1) * dims_data[2] + i2) * dims_data[3] + i3;
 2728              		.loc 6 409 0
 2729 0dc0 FEFFFFEB 		bl	abort
 2730              	.LVL271:
 2731              	.LEHE15:
 2732              	.L295:
 2733              	.LEHB16:
 2734              	.LBE739:
 2735              	.LBE754:
 2736              	.LBE761:
 2737              	.LBE766:
 2738              	.LBE771:
 2739              	.LBE776:
 2740              	.LBE792:
 2741              	.LBE799:
 2742              	.LBE809:
 2743              	.LBE816:
 2744              	.LBE1043:
 2745              	.LBB1044:
 2746              	.LBB1032:
 2747              	.LBB1025:
 2748              	.LBB925:
  28:C:/Renesas/e2studio_2021_01_workspace_RZA2M_ANPR/ANPR_RZA2M_RDK/src/tensorflow_lite/tensorflow/lite/kernels/internal/reference/integer_ops\pooling.h ****                    params.quantized_activation_max);
 2749              		.loc 8 28 0
 2750 0dc4 FEFFFFEB 		bl	abort
 2751              	.LVL272:
 2752              	.L296:
  30:C:/Renesas/e2studio_2021_01_workspace_RZA2M_ANPR/ANPR_RZA2M_RDK/src/tensorflow_lite/tensorflow/lite/kernels/internal/reference/integer_ops\pooling.h ****   TFLITE_DCHECK_EQ(output_shape.DimensionsCount(), 4);
 2753              		.loc 8 30 0
 2754 0dc8 FEFFFFEB 		bl	abort
 2755              	.LVL273:
 2756              	.LEHE16:
 2757              	.L200:
 2758 0dcc D7FFFFEA 		b	.L181
 2759              	.LVL274:
 2760              	.L285:
 2761              	.LEHB17:
 2762              	.LBE925:
 2763              	.LBE1025:
 2764              	.LBE1032:
 2765              	.LBE1044:
 2766              	.LBB1045:
 2767              	.LBB817:
 2768              	.LBB810:
 2769              	.LBB800:
  30:C:/Renesas/e2studio_2021_01_workspace_RZA2M_ANPR/ANPR_RZA2M_RDK/src/tensorflow_lite/tensorflow/lite/kernels/internal/reference\pooling.h ****   TFLITE_DCHECK_EQ(output_shape.DimensionsCount(), 4);
 2770              		.loc 5 30 0
 2771 0dd0 FEFFFFEB 		bl	abort
 2772              	.LVL275:
 2773              	.LEHE17:
 2774              	.L303:
 2775              	.LEHB18:
 2776              	.LBE800:
 2777              	.LBE810:
 2778              	.LBE817:
 2779              	.LBE1045:
 2780              	.LBB1046:
 2781              	.LBB1033:
 2782              	.LBB1026:
 2783              	.LBB926:
 2784              	.LBB917:
 2785              	.LBB900:
 2786              	.LBB894:
 2787              	.LBB888:
 2788              	.LBB882:
 2789              	.LBB876:
 2790              	.LBB872:
 406:C:/Renesas/e2studio_2021_01_workspace_RZA2M_ANPR/ANPR_RZA2M_RDK/src/tensorflow_lite/tensorflow/lite/kernels/internal\types.h ****   TFLITE_DCHECK(i1 >= 0 && i1 < dims_data[1]);
 2791              		.loc 6 406 0
 2792 0dd4 FEFFFFEB 		bl	abort
 2793              	.LVL276:
 2794              	.L304:
 407:C:/Renesas/e2studio_2021_01_workspace_RZA2M_ANPR/ANPR_RZA2M_RDK/src/tensorflow_lite/tensorflow/lite/kernels/internal\types.h ****   TFLITE_DCHECK(i2 >= 0 && i2 < dims_data[2]);
 2795              		.loc 6 407 0
 2796 0dd8 FEFFFFEB 		bl	abort
 2797              	.LVL277:
 2798              	.L305:
 408:C:/Renesas/e2studio_2021_01_workspace_RZA2M_ANPR/ANPR_RZA2M_RDK/src/tensorflow_lite/tensorflow/lite/kernels/internal\types.h ****   TFLITE_DCHECK(i3 >= 0 && i3 < dims_data[3]);
 2799              		.loc 6 408 0
 2800 0ddc FEFFFFEB 		bl	abort
 2801              	.LVL278:
 2802              	.L306:
 409:C:/Renesas/e2studio_2021_01_workspace_RZA2M_ANPR/ANPR_RZA2M_RDK/src/tensorflow_lite/tensorflow/lite/kernels/internal\types.h ****   return ((i0 * dims_data[1] + i1) * dims_data[2] + i2) * dims_data[3] + i3;
 2803              		.loc 6 409 0
 2804 0de0 FEFFFFEB 		bl	abort
 2805              	.LVL279:
 2806              	.L302:
 404:C:/Renesas/e2studio_2021_01_workspace_RZA2M_ANPR/ANPR_RZA2M_RDK/src/tensorflow_lite/tensorflow/lite/kernels/internal\types.h ****   const int* dims_data = reinterpret_cast<const int*>(shape.DimsDataUpTo5D());
 2807              		.loc 6 404 0
 2808 0de4 FEFFFFEB 		bl	abort
 2809              	.LVL280:
 2810              	.LEHE18:
 2811              	.L50:
 2812              	.LEHB19:
 2813              	.LBE872:
 2814              	.LBE876:
 2815              	.LBE882:
 2816              	.LBE888:
 2817              	.LBE894:
 2818              	.LBE900:
 2819              	.LBE917:
 2820              	.LBE926:
 2821              	.LBE1026:
 2822              	.LBE1033:
 2823              	.LBE1046:
 156:../src/tensorflow_lite/tensorflow/lite/micro/kernels/pooling.cc ****   auto* params = reinterpret_cast<TfLitePoolParams*>(node->builtin_data);
 2824              		.loc 1 156 0 discriminator 1
 2825 0de8 FEFFFFEB 		bl	abort
 2826              	.LVL281:
 2827              	.LEHE19:
 2828              	.L300:
 2829              	.LEHB20:
 2830              	.LBB1047:
 2831              	.LBB1034:
 2832              	.LBB1027:
 2833              	.LBB927:
 2834              	.LBB918:
 2835              	.LBB901:
 2836              	.LBB895:
 2837              	.LBB889:
 2838              	.LBB883:
 2839              	.LBB877:
 2840              	.LBB867:
 2841              	.LBB863:
 2842              	.LBB857:
 2843              	.LBB853:
 409:C:/Renesas/e2studio_2021_01_workspace_RZA2M_ANPR/ANPR_RZA2M_RDK/src/tensorflow_lite/tensorflow/lite/kernels/internal\types.h ****   return ((i0 * dims_data[1] + i1) * dims_data[2] + i2) * dims_data[3] + i3;
 2844              		.loc 6 409 0
 2845 0dec FEFFFFEB 		bl	abort
 2846              	.LVL282:
 2847              	.LEHE20:
 2848              	.L288:
 2849              	.LEHB21:
 2850              	.LBE853:
 2851              	.LBE857:
 2852              	.LBE863:
 2853              	.LBE867:
 2854              	.LBE877:
 2855              	.LBE883:
 2856              	.LBE889:
 2857              	.LBE895:
 2858              	.LBE901:
 2859              	.LBE918:
 2860              	.LBE927:
 2861              	.LBE1027:
 2862              	.LBE1034:
 2863              	.LBE1047:
 2864              	.LBB1048:
 2865              	.LBB818:
 2866              	.LBB811:
 2867              	.LBB801:
 2868              	.LBB793:
 2869              	.LBB713:
 2870              		.loc 6 472 0
 2871 0df0 FEFFFFEB 		bl	abort
 2872              	.LVL283:
 2873              	.L286:
 2874              	.LBE713:
 2875              	.LBE793:
  31:C:/Renesas/e2studio_2021_01_workspace_RZA2M_ANPR/ANPR_RZA2M_RDK/src/tensorflow_lite/tensorflow/lite/kernels/internal/reference\pooling.h ****   const int batches = MatchingDim(input_shape, 0, output_shape, 0);
 2876              		.loc 5 31 0
 2877 0df4 FEFFFFEB 		bl	abort
 2878              	.LVL284:
 2879              	.LEHE21:
 2880              	.LBE801:
 2881              	.LBE811:
 2882              	.LBE818:
 2883              	.LBE1048:
 2884              		.cfi_endproc
 2885              	.LFE4186:
 2886              		.global	__gxx_personality_v0
 2887              		.personality	__gxx_personality_v0
 2888              		.handlerdata
 2889              	.LLSDA4186:
 2890 000c FF       		.byte	0xff
 2891 000d FF       		.byte	0xff
 2892 000e 01       		.byte	0x1
 2893 000f 7F       		.uleb128 .LLSDACSE4186-.LLSDACSB4186
 2894              	.LLSDACSB4186:
 2895 0010 40       		.uleb128 .LEHB0-.LFB4186
 2896 0011 AC01     		.uleb128 .LEHE0-.LEHB0
 2897 0013 00       		.uleb128 0
 2898 0014 00       		.uleb128 0
 2899 0015 F801     		.uleb128 .LEHB1-.LFB4186
 2900 0017 04       		.uleb128 .LEHE1-.LEHB1
 2901 0018 CC1B     		.uleb128 .L200-.LFB4186
 2902 001a 00       		.uleb128 0
 2903 001b 940A     		.uleb128 .LEHB2-.LFB4186
 2904 001d 04       		.uleb128 .LEHE2-.LEHB2
 2905 001e 00       		.uleb128 0
 2906 001f 00       		.uleb128 0
 2907 0020 A80A     		.uleb128 .LEHB3-.LFB4186
 2908 0022 04       		.uleb128 .LEHE3-.LEHB3
 2909 0023 A41B     		.uleb128 .L204-.LFB4186
 2910 0025 00       		.uleb128 0
 2911 0026 F011     		.uleb128 .LEHB4-.LFB4186
 2912 0028 04       		.uleb128 .LEHE4-.LEHB4
 2913 0029 00       		.uleb128 0
 2914 002a 00       		.uleb128 0
 2915 002b 8412     		.uleb128 .LEHB5-.LFB4186
 2916 002d 04       		.uleb128 .LEHE5-.LEHB5
 2917 002e 841B     		.uleb128 .L202-.LFB4186
 2918 0030 00       		.uleb128 0
 2919 0031 F019     		.uleb128 .LEHB6-.LFB4186
 2920 0033 10       		.uleb128 .LEHE6-.LEHB6
 2921 0034 941A     		.uleb128 .L201-.LFB4186
 2922 0036 00       		.uleb128 0
 2923 0037 801A     		.uleb128 .LEHB7-.LFB4186
 2924 0039 14       		.uleb128 .LEHE7-.LEHB7
 2925 003a D01A     		.uleb128 .L205-.LFB4186
 2926 003c 00       		.uleb128 0
 2927 003d CC1A     		.uleb128 .LEHB8-.LFB4186
 2928 003f 04       		.uleb128 .LEHE8-.LEHB8
 2929 0040 00       		.uleb128 0
 2930 0041 00       		.uleb128 0
 2931 0042 D41A     		.uleb128 .LEHB9-.LFB4186
 2932 0044 04       		.uleb128 .LEHE9-.LEHB9
 2933 0045 D01A     		.uleb128 .L205-.LFB4186
 2934 0047 00       		.uleb128 0
 2935 0048 E41A     		.uleb128 .LEHB10-.LFB4186
 2936 004a 34       		.uleb128 .LEHE10-.LEHB10
 2937 004b E81A     		.uleb128 .L203-.LFB4186
 2938 004d 00       		.uleb128 0
 2939 004e 981B     		.uleb128 .LEHB11-.LFB4186
 2940 0050 04       		.uleb128 .LEHE11-.LEHB11
 2941 0051 941A     		.uleb128 .L201-.LFB4186
 2942 0053 00       		.uleb128 0
 2943 0054 9C1B     		.uleb128 .LEHB12-.LFB4186
 2944 0056 04       		.uleb128 .LEHE12-.LEHB12
 2945 0057 D01A     		.uleb128 .L205-.LFB4186
 2946 0059 00       		.uleb128 0
 2947 005a A01B     		.uleb128 .LEHB13-.LFB4186
 2948 005c 04       		.uleb128 .LEHE13-.LEHB13
 2949 005d 941A     		.uleb128 .L201-.LFB4186
 2950 005f 00       		.uleb128 0
 2951 0060 A81B     		.uleb128 .LEHB14-.LFB4186
 2952 0062 10       		.uleb128 .LEHE14-.LEHB14
 2953 0063 E81A     		.uleb128 .L203-.LFB4186
 2954 0065 00       		.uleb128 0
 2955 0066 B81B     		.uleb128 .LEHB15-.LFB4186
 2956 0068 0C       		.uleb128 .LEHE15-.LEHB15
 2957 0069 941A     		.uleb128 .L201-.LFB4186
 2958 006b 00       		.uleb128 0
 2959 006c C41B     		.uleb128 .LEHB16-.LFB4186
 2960 006e 08       		.uleb128 .LEHE16-.LEHB16
 2961 006f D01A     		.uleb128 .L205-.LFB4186
 2962 0071 00       		.uleb128 0
 2963 0072 D01B     		.uleb128 .LEHB17-.LFB4186
 2964 0074 04       		.uleb128 .LEHE17-.LEHB17
 2965 0075 941A     		.uleb128 .L201-.LFB4186
 2966 0077 00       		.uleb128 0
 2967 0078 D41B     		.uleb128 .LEHB18-.LFB4186
 2968 007a 14       		.uleb128 .LEHE18-.LEHB18
 2969 007b D01A     		.uleb128 .L205-.LFB4186
 2970 007d 00       		.uleb128 0
 2971 007e E81B     		.uleb128 .LEHB19-.LFB4186
 2972 0080 04       		.uleb128 .LEHE19-.LEHB19
 2973 0081 00       		.uleb128 0
 2974 0082 00       		.uleb128 0
 2975 0083 EC1B     		.uleb128 .LEHB20-.LFB4186
 2976 0085 04       		.uleb128 .LEHE20-.LEHB20
 2977 0086 D01A     		.uleb128 .L205-.LFB4186
 2978 0088 00       		.uleb128 0
 2979 0089 F01B     		.uleb128 .LEHB21-.LFB4186
 2980 008b 08       		.uleb128 .LEHE21-.LEHB21
 2981 008c 941A     		.uleb128 .L201-.LFB4186
 2982 008e 00       		.uleb128 0
 2983              	.LLSDACSE4186:
 2984              		.section	.text._ZN6tflite3ops5micro7pooling11AverageEvalEP13TfLiteContextP10TfLiteNode
 2985              		.fnend
 2987              		.section	.text._ZN6tflite3ops5micro7pooling7MaxEvalEP13TfLiteContextP10TfLiteNode,"ax",%progbits
 2988              		.align	2
 2989              		.global	_ZN6tflite3ops5micro7pooling7MaxEvalEP13TfLiteContextP10TfLiteNode
 2990              		.syntax unified
 2991              		.arm
 2992              		.fpu neon
 2994              	_ZN6tflite3ops5micro7pooling7MaxEvalEP13TfLiteContextP10TfLiteNode:
 2995              		.fnstart
 2996              	.LFB4187:
 184:../src/tensorflow_lite/tensorflow/lite/micro/kernels/pooling.cc ****   TFLITE_DCHECK(node->builtin_data != nullptr);
 2997              		.loc 1 184 0
 2998              		.cfi_startproc
 2999              		.cfi_personality 0,__gxx_personality_v0
 3000              		.cfi_lsda 0,.LLSDA4187
 3001              		@ args = 0, pretend = 0, frame = 184
 3002              		@ frame_needed = 0, uses_anonymous_args = 0
 3003              	.LVL285:
 3004 0000 F04F2DE9 		push	{r4, r5, r6, r7, r8, r9, r10, fp, lr}
 3005              		.save {r4, r5, r6, r7, r8, r9, r10, fp, lr}
 3006              		.cfi_def_cfa_offset 36
 3007              		.cfi_offset 4, -36
 3008              		.cfi_offset 5, -32
 3009              		.cfi_offset 6, -28
 3010              		.cfi_offset 7, -24
 3011              		.cfi_offset 8, -20
 3012              		.cfi_offset 9, -16
 3013              		.cfi_offset 10, -12
 3014              		.cfi_offset 11, -8
 3015              		.cfi_offset 14, -4
 185:../src/tensorflow_lite/tensorflow/lite/micro/kernels/pooling.cc ****   auto* params = reinterpret_cast<TfLitePoolParams*>(node->builtin_data);
 3016              		.loc 1 185 0
 3017 0004 145091E5 		ldr	r5, [r1, #20]
 184:../src/tensorflow_lite/tensorflow/lite/micro/kernels/pooling.cc ****   TFLITE_DCHECK(node->builtin_data != nullptr);
 3018              		.loc 1 184 0
 3019 0008 028B2DED 		vpush.64	{d8}
 3020              		.vsave {d8}
 3021              		.cfi_def_cfa_offset 44
 3022              		.cfi_offset 80, -44
 3023              		.cfi_offset 81, -40
 3024              		.pad #188
 3025 000c BCD04DE2 		sub	sp, sp, #188
 3026              		.cfi_def_cfa_offset 232
 185:../src/tensorflow_lite/tensorflow/lite/micro/kernels/pooling.cc ****   auto* params = reinterpret_cast<TfLitePoolParams*>(node->builtin_data);
 3027              		.loc 1 185 0
 3028 0010 000055E3 		cmp	r5, #0
 3029 0014 8C03000A 		beq	.L322
 188:../src/tensorflow_lite/tensorflow/lite/micro/kernels/pooling.cc ****   const OpData* data = static_cast<const OpData*>(node->user_data);
 3030              		.loc 1 188 0
 3031 0018 106091E5 		ldr	r6, [r1, #16]
 3032 001c 0140A0E1 		mov	r4, r1
 3033              	.LVL286:
 3034 0020 000056E3 		cmp	r6, #0
 3035 0024 8803000A 		beq	.L322
 3036              	.LBB1277:
 3037              	.LBB1278:
 3038              	.LBB1279:
  34:C:/Renesas/e2studio_2021_01_workspace_RZA2M_ANPR/ANPR_RZA2M_RDK/src/tensorflow_lite/tensorflow/lite/micro/kernels\kernel_util.h ****   TFLITE_DCHECK(node != nullptr);
 3039              		.loc 4 34 0
 3040 0028 000050E3 		cmp	r0, #0
 3041 002c 0080A0E1 		mov	r8, r0
 3042              	.LVL287:
 3043 0030 8503000A 		beq	.L322
  36:C:/Renesas/e2studio_2021_01_workspace_RZA2M_ANPR/ANPR_RZA2M_RDK/src/tensorflow_lite/tensorflow/lite/micro/kernels\kernel_util.h **** }
 3044              		.loc 4 36 0
 3045 0034 002091E5 		ldr	r2, [r1]
 3046 0038 543090E5 		ldr	r3, [r0, #84]
 3047 003c 041092E5 		ldr	r1, [r2, #4]
 3048              	.LVL288:
 3049              	.LEHB22:
 3050 0040 33FF2FE1 		blx	r3
 3051              	.LVL289:
 3052              	.LBE1279:
 3053              	.LBE1278:
 3054              	.LBE1277:
 3055              	.LBB1282:
 3056              	.LBB1283:
  50:C:/Renesas/e2studio_2021_01_workspace_RZA2M_ANPR/ANPR_RZA2M_RDK/src/tensorflow_lite/tensorflow/lite/micro/kernels\kernel_util.h **** }
 3057              		.loc 4 50 0
 3058 0044 042094E5 		ldr	r2, [r4, #4]
 3059              	.LBE1283:
 3060              	.LBE1282:
 3061              	.LBB1285:
 3062              	.LBB1281:
 3063              	.LBB1280:
  36:C:/Renesas/e2studio_2021_01_workspace_RZA2M_ANPR/ANPR_RZA2M_RDK/src/tensorflow_lite/tensorflow/lite/micro/kernels\kernel_util.h **** }
 3064              		.loc 4 36 0
 3065 0048 0070A0E1 		mov	r7, r0
 3066              	.LVL290:
 3067              	.LBE1280:
 3068              	.LBE1281:
 3069              	.LBE1285:
 3070              	.LBB1286:
 3071              	.LBB1284:
  50:C:/Renesas/e2studio_2021_01_workspace_RZA2M_ANPR/ANPR_RZA2M_RDK/src/tensorflow_lite/tensorflow/lite/micro/kernels\kernel_util.h **** }
 3072              		.loc 4 50 0
 3073 004c 543098E5 		ldr	r3, [r8, #84]
 3074 0050 0800A0E1 		mov	r0, r8
 3075 0054 041092E5 		ldr	r1, [r2, #4]
 3076 0058 33FF2FE1 		blx	r3
 3077              	.LVL291:
 3078 005c 0040A0E1 		mov	r4, r0
 3079              	.LVL292:
 3080              	.LBE1284:
 3081              	.LBE1286:
 196:../src/tensorflow_lite/tensorflow/lite/micro/kernels/pooling.cc ****     case kTfLiteFloat32:
 3082              		.loc 1 196 0
 3083 0060 0800D7E5 		ldrb	r0, [r7, #8]	@ zero_extendqisi2
 3084 0064 030050E3 		cmp	r0, #3
 3085 0068 1701000A 		beq	.L324
 3086 006c 090050E3 		cmp	r0, #9
 3087 0070 1501000A 		beq	.L324
 3088 0074 010050E3 		cmp	r0, #1
 3089 0078 0A00000A 		beq	.L690
 205:../src/tensorflow_lite/tensorflow/lite/micro/kernels/pooling.cc ****                          TfLiteTypeGetName(input->type));
 3090              		.loc 1 205 0
 3091 007c 144098E5 		ldr	r4, [r8, #20]
 3092 0080 FEFFFFEB 		bl	TfLiteTypeGetName
 3093              	.LVL293:
 3094 0084 001000E3 		movw	r1, #:lower16:.LC7
 3095 0088 0020A0E1 		mov	r2, r0
 3096 008c 001040E3 		movt	r1, #:upper16:.LC7
 3097 0090 0800A0E1 		mov	r0, r8
 3098 0094 34FF2FE1 		blx	r4
 3099              	.LVL294:
 207:../src/tensorflow_lite/tensorflow/lite/micro/kernels/pooling.cc ****   }
 3100              		.loc 1 207 0
 3101 0098 0100A0E3 		mov	r0, #1
 3102              	.LVL295:
 3103              	.L635:
 210:../src/tensorflow_lite/tensorflow/lite/micro/kernels/pooling.cc **** 
 3104              		.loc 1 210 0
 3105 009c BCD08DE2 		add	sp, sp, #188
 3106              		.cfi_remember_state
 3107              		.cfi_def_cfa_offset 44
 3108              		@ sp needed
 3109 00a0 028BBDEC 		vldm	sp!, {d8}
 3110              		.cfi_restore 80
 3111              		.cfi_restore 81
 3112              		.cfi_def_cfa_offset 36
 3113 00a4 F08FBDE8 		pop	{r4, r5, r6, r7, r8, r9, r10, fp, pc}
 3114              	.LVL296:
 3115              	.L690:
 3116              		.cfi_restore_state
 3117              	.LBB1287:
 3118              	.LBB1288:
 113:../src/tensorflow_lite/tensorflow/lite/micro/kernels/pooling.cc ****   op_params.stride_width = params->stride_width;
 3119              		.loc 1 113 0
 3120 00a8 083095E5 		ldr	r3, [r5, #8]
 121:../src/tensorflow_lite/tensorflow/lite/micro/kernels/pooling.cc ****                          tflite::micro::GetTensorData<float>(input),
 3121              		.loc 1 121 0
 3122 00ac 0710A0E1 		mov	r1, r7
 3123 00b0 88008DE2 		add	r0, sp, #136
 119:../src/tensorflow_lite/tensorflow/lite/micro/kernels/pooling.cc ****   op_params.float_activation_max = data->activation_max_f32;
 3124              		.loc 1 119 0
 3125 00b4 068A96ED 		vldr.32	s16, [r6, #24]
 120:../src/tensorflow_lite/tensorflow/lite/micro/kernels/pooling.cc ****   reference_ops::MaxPool(op_params, tflite::micro::GetTensorShape(input),
 3126              		.loc 1 120 0
 3127 00b8 078AD6ED 		vldr.32	s17, [r6, #28]
 113:../src/tensorflow_lite/tensorflow/lite/micro/kernels/pooling.cc ****   op_params.stride_width = params->stride_width;
 3128              		.loc 1 113 0
 3129 00bc 6C308DE5 		str	r3, [sp, #108]
 3130              	.LVL297:
 114:../src/tensorflow_lite/tensorflow/lite/micro/kernels/pooling.cc ****   op_params.filter_height = params->filter_height;
 3131              		.loc 1 114 0
 3132 00c0 043095E5 		ldr	r3, [r5, #4]
 3133              	.LVL298:
 3134 00c4 70308DE5 		str	r3, [sp, #112]
 3135              	.LVL299:
 115:../src/tensorflow_lite/tensorflow/lite/micro/kernels/pooling.cc ****   op_params.filter_width = params->filter_width;
 3136              		.loc 1 115 0
 3137 00c8 103095E5 		ldr	r3, [r5, #16]
 3138              	.LVL300:
 3139 00cc 60308DE5 		str	r3, [sp, #96]
 3140              	.LVL301:
 116:../src/tensorflow_lite/tensorflow/lite/micro/kernels/pooling.cc ****   op_params.padding_values.height = data->padding.height;
 3141              		.loc 1 116 0
 3142 00d0 0C3095E5 		ldr	r3, [r5, #12]
 3143              	.LVL302:
 3144 00d4 58308DE5 		str	r3, [sp, #88]
 3145              	.LVL303:
 117:../src/tensorflow_lite/tensorflow/lite/micro/kernels/pooling.cc ****   op_params.padding_values.width = data->padding.width;
 3146              		.loc 1 117 0
 3147 00d8 F430D6E1 		ldrsh	r3, [r6, #4]
 3148              	.LVL304:
 3149 00dc 64308DE5 		str	r3, [sp, #100]
 3150              	.LVL305:
 118:../src/tensorflow_lite/tensorflow/lite/micro/kernels/pooling.cc ****   op_params.float_activation_min = data->activation_min_f32;
 3151              		.loc 1 118 0
 3152 00e0 F030D6E1 		ldrsh	r3, [r6]
 3153 00e4 68308DE5 		str	r3, [sp, #104]
 3154              	.LVL306:
 121:../src/tensorflow_lite/tensorflow/lite/micro/kernels/pooling.cc ****                          tflite::micro::GetTensorData<float>(input),
 3155              		.loc 1 121 0
 3156 00e8 FEFFFFEB 		bl	_ZN6tflite5micro14GetTensorShapeEPK16TfLiteEvalTensor
 3157              	.LVL307:
 3158              	.LEHE22:
 123:../src/tensorflow_lite/tensorflow/lite/micro/kernels/pooling.cc ****                          tflite::micro::GetTensorData<float>(output));
 3159              		.loc 1 123 0
 3160 00ec 0410A0E1 		mov	r1, r4
 3161 00f0 A0008DE2 		add	r0, sp, #160
 3162              	.LBB1289:
 3163              	.LBB1290:
 3164              		.loc 4 63 0
 3165 00f4 009097E5 		ldr	r9, [r7]
 3166              	.LVL308:
 3167              	.LEHB23:
 3168              	.LBE1290:
 3169              	.LBE1289:
 123:../src/tensorflow_lite/tensorflow/lite/micro/kernels/pooling.cc ****                          tflite::micro::GetTensorData<float>(output));
 3170              		.loc 1 123 0
 3171 00f8 FEFFFFEB 		bl	_ZN6tflite5micro14GetTensorShapeEPK16TfLiteEvalTensor
 3172              	.LVL309:
 3173              	.LEHE23:
 3174              	.LBB1291:
 3175              	.LBB1292:
 130:C:/Renesas/e2studio_2021_01_workspace_RZA2M_ANPR/ANPR_RZA2M_RDK/src/tensorflow_lite/tensorflow/lite/kernels/internal/reference\pooling.h ****         }
 131:C:/Renesas/e2studio_2021_01_workspace_RZA2M_ANPR/ANPR_RZA2M_RDK/src/tensorflow_lite/tensorflow/lite/kernels/internal/reference\pooling.h ****       }
 132:C:/Renesas/e2studio_2021_01_workspace_RZA2M_ANPR/ANPR_RZA2M_RDK/src/tensorflow_lite/tensorflow/lite/kernels/internal/reference\pooling.h ****     }
 133:C:/Renesas/e2studio_2021_01_workspace_RZA2M_ANPR/ANPR_RZA2M_RDK/src/tensorflow_lite/tensorflow/lite/kernels/internal/reference\pooling.h ****   }
 134:C:/Renesas/e2studio_2021_01_workspace_RZA2M_ANPR/ANPR_RZA2M_RDK/src/tensorflow_lite/tensorflow/lite/kernels/internal/reference\pooling.h **** }
 135:C:/Renesas/e2studio_2021_01_workspace_RZA2M_ANPR/ANPR_RZA2M_RDK/src/tensorflow_lite/tensorflow/lite/kernels/internal/reference\pooling.h **** 
 136:C:/Renesas/e2studio_2021_01_workspace_RZA2M_ANPR/ANPR_RZA2M_RDK/src/tensorflow_lite/tensorflow/lite/kernels/internal/reference\pooling.h **** inline void L2Pool(const PoolParams& params, const RuntimeShape& input_shape,
 137:C:/Renesas/e2studio_2021_01_workspace_RZA2M_ANPR/ANPR_RZA2M_RDK/src/tensorflow_lite/tensorflow/lite/kernels/internal/reference\pooling.h ****                    const float* input_data, const RuntimeShape& output_shape,
 138:C:/Renesas/e2studio_2021_01_workspace_RZA2M_ANPR/ANPR_RZA2M_RDK/src/tensorflow_lite/tensorflow/lite/kernels/internal/reference\pooling.h ****                    float* output_data) {
 139:C:/Renesas/e2studio_2021_01_workspace_RZA2M_ANPR/ANPR_RZA2M_RDK/src/tensorflow_lite/tensorflow/lite/kernels/internal/reference\pooling.h ****   TFLITE_DCHECK_EQ(input_shape.DimensionsCount(), 4);
 140:C:/Renesas/e2studio_2021_01_workspace_RZA2M_ANPR/ANPR_RZA2M_RDK/src/tensorflow_lite/tensorflow/lite/kernels/internal/reference\pooling.h ****   TFLITE_DCHECK_EQ(output_shape.DimensionsCount(), 4);
 141:C:/Renesas/e2studio_2021_01_workspace_RZA2M_ANPR/ANPR_RZA2M_RDK/src/tensorflow_lite/tensorflow/lite/kernels/internal/reference\pooling.h ****   const int batches = MatchingDim(input_shape, 0, output_shape, 0);
 142:C:/Renesas/e2studio_2021_01_workspace_RZA2M_ANPR/ANPR_RZA2M_RDK/src/tensorflow_lite/tensorflow/lite/kernels/internal/reference\pooling.h ****   const int depth = MatchingDim(input_shape, 3, output_shape, 3);
 143:C:/Renesas/e2studio_2021_01_workspace_RZA2M_ANPR/ANPR_RZA2M_RDK/src/tensorflow_lite/tensorflow/lite/kernels/internal/reference\pooling.h ****   const int input_height = input_shape.Dims(1);
 144:C:/Renesas/e2studio_2021_01_workspace_RZA2M_ANPR/ANPR_RZA2M_RDK/src/tensorflow_lite/tensorflow/lite/kernels/internal/reference\pooling.h ****   const int input_width = input_shape.Dims(2);
 145:C:/Renesas/e2studio_2021_01_workspace_RZA2M_ANPR/ANPR_RZA2M_RDK/src/tensorflow_lite/tensorflow/lite/kernels/internal/reference\pooling.h ****   const int output_height = output_shape.Dims(1);
 146:C:/Renesas/e2studio_2021_01_workspace_RZA2M_ANPR/ANPR_RZA2M_RDK/src/tensorflow_lite/tensorflow/lite/kernels/internal/reference\pooling.h ****   const int output_width = output_shape.Dims(2);
 147:C:/Renesas/e2studio_2021_01_workspace_RZA2M_ANPR/ANPR_RZA2M_RDK/src/tensorflow_lite/tensorflow/lite/kernels/internal/reference\pooling.h ****   const int stride_height = params.stride_height;
 148:C:/Renesas/e2studio_2021_01_workspace_RZA2M_ANPR/ANPR_RZA2M_RDK/src/tensorflow_lite/tensorflow/lite/kernels/internal/reference\pooling.h ****   const int stride_width = params.stride_width;
 149:C:/Renesas/e2studio_2021_01_workspace_RZA2M_ANPR/ANPR_RZA2M_RDK/src/tensorflow_lite/tensorflow/lite/kernels/internal/reference\pooling.h ****   for (int batch = 0; batch < batches; ++batch) {
 150:C:/Renesas/e2studio_2021_01_workspace_RZA2M_ANPR/ANPR_RZA2M_RDK/src/tensorflow_lite/tensorflow/lite/kernels/internal/reference\pooling.h ****     for (int out_y = 0; out_y < output_height; ++out_y) {
 151:C:/Renesas/e2studio_2021_01_workspace_RZA2M_ANPR/ANPR_RZA2M_RDK/src/tensorflow_lite/tensorflow/lite/kernels/internal/reference\pooling.h ****       for (int out_x = 0; out_x < output_width; ++out_x) {
 152:C:/Renesas/e2studio_2021_01_workspace_RZA2M_ANPR/ANPR_RZA2M_RDK/src/tensorflow_lite/tensorflow/lite/kernels/internal/reference\pooling.h ****         for (int channel = 0; channel < depth; ++channel) {
 153:C:/Renesas/e2studio_2021_01_workspace_RZA2M_ANPR/ANPR_RZA2M_RDK/src/tensorflow_lite/tensorflow/lite/kernels/internal/reference\pooling.h ****           const int in_x_origin =
 154:C:/Renesas/e2studio_2021_01_workspace_RZA2M_ANPR/ANPR_RZA2M_RDK/src/tensorflow_lite/tensorflow/lite/kernels/internal/reference\pooling.h ****               (out_x * stride_width) - params.padding_values.width;
 155:C:/Renesas/e2studio_2021_01_workspace_RZA2M_ANPR/ANPR_RZA2M_RDK/src/tensorflow_lite/tensorflow/lite/kernels/internal/reference\pooling.h ****           const int in_y_origin =
 156:C:/Renesas/e2studio_2021_01_workspace_RZA2M_ANPR/ANPR_RZA2M_RDK/src/tensorflow_lite/tensorflow/lite/kernels/internal/reference\pooling.h ****               (out_y * stride_height) - params.padding_values.height;
 157:C:/Renesas/e2studio_2021_01_workspace_RZA2M_ANPR/ANPR_RZA2M_RDK/src/tensorflow_lite/tensorflow/lite/kernels/internal/reference\pooling.h ****           // Compute the boundaries of the filter region clamped so as to
 158:C:/Renesas/e2studio_2021_01_workspace_RZA2M_ANPR/ANPR_RZA2M_RDK/src/tensorflow_lite/tensorflow/lite/kernels/internal/reference\pooling.h ****           // ensure that the filter window fits in the input array.
 159:C:/Renesas/e2studio_2021_01_workspace_RZA2M_ANPR/ANPR_RZA2M_RDK/src/tensorflow_lite/tensorflow/lite/kernels/internal/reference\pooling.h ****           const int filter_x_start = std::max(0, -in_x_origin);
 160:C:/Renesas/e2studio_2021_01_workspace_RZA2M_ANPR/ANPR_RZA2M_RDK/src/tensorflow_lite/tensorflow/lite/kernels/internal/reference\pooling.h ****           const int filter_x_end =
 161:C:/Renesas/e2studio_2021_01_workspace_RZA2M_ANPR/ANPR_RZA2M_RDK/src/tensorflow_lite/tensorflow/lite/kernels/internal/reference\pooling.h ****               std::min(params.filter_width, input_width - in_x_origin);
 162:C:/Renesas/e2studio_2021_01_workspace_RZA2M_ANPR/ANPR_RZA2M_RDK/src/tensorflow_lite/tensorflow/lite/kernels/internal/reference\pooling.h ****           const int filter_y_start = std::max(0, -in_y_origin);
 163:C:/Renesas/e2studio_2021_01_workspace_RZA2M_ANPR/ANPR_RZA2M_RDK/src/tensorflow_lite/tensorflow/lite/kernels/internal/reference\pooling.h ****           const int filter_y_end =
 164:C:/Renesas/e2studio_2021_01_workspace_RZA2M_ANPR/ANPR_RZA2M_RDK/src/tensorflow_lite/tensorflow/lite/kernels/internal/reference\pooling.h ****               std::min(params.filter_height, input_height - in_y_origin);
 165:C:/Renesas/e2studio_2021_01_workspace_RZA2M_ANPR/ANPR_RZA2M_RDK/src/tensorflow_lite/tensorflow/lite/kernels/internal/reference\pooling.h ****           float sum_squares = 0.f;
 166:C:/Renesas/e2studio_2021_01_workspace_RZA2M_ANPR/ANPR_RZA2M_RDK/src/tensorflow_lite/tensorflow/lite/kernels/internal/reference\pooling.h ****           int filter_count = 0;
 167:C:/Renesas/e2studio_2021_01_workspace_RZA2M_ANPR/ANPR_RZA2M_RDK/src/tensorflow_lite/tensorflow/lite/kernels/internal/reference\pooling.h ****           for (int filter_y = filter_y_start; filter_y < filter_y_end;
 168:C:/Renesas/e2studio_2021_01_workspace_RZA2M_ANPR/ANPR_RZA2M_RDK/src/tensorflow_lite/tensorflow/lite/kernels/internal/reference\pooling.h ****                ++filter_y) {
 169:C:/Renesas/e2studio_2021_01_workspace_RZA2M_ANPR/ANPR_RZA2M_RDK/src/tensorflow_lite/tensorflow/lite/kernels/internal/reference\pooling.h ****             for (int filter_x = filter_x_start; filter_x < filter_x_end;
 170:C:/Renesas/e2studio_2021_01_workspace_RZA2M_ANPR/ANPR_RZA2M_RDK/src/tensorflow_lite/tensorflow/lite/kernels/internal/reference\pooling.h ****                  ++filter_x) {
 171:C:/Renesas/e2studio_2021_01_workspace_RZA2M_ANPR/ANPR_RZA2M_RDK/src/tensorflow_lite/tensorflow/lite/kernels/internal/reference\pooling.h ****               const int in_x = in_x_origin + filter_x;
 172:C:/Renesas/e2studio_2021_01_workspace_RZA2M_ANPR/ANPR_RZA2M_RDK/src/tensorflow_lite/tensorflow/lite/kernels/internal/reference\pooling.h ****               const int in_y = in_y_origin + filter_y;
 173:C:/Renesas/e2studio_2021_01_workspace_RZA2M_ANPR/ANPR_RZA2M_RDK/src/tensorflow_lite/tensorflow/lite/kernels/internal/reference\pooling.h ****               const float val =
 174:C:/Renesas/e2studio_2021_01_workspace_RZA2M_ANPR/ANPR_RZA2M_RDK/src/tensorflow_lite/tensorflow/lite/kernels/internal/reference\pooling.h ****                   input_data[Offset(input_shape, batch, in_y, in_x, channel)];
 175:C:/Renesas/e2studio_2021_01_workspace_RZA2M_ANPR/ANPR_RZA2M_RDK/src/tensorflow_lite/tensorflow/lite/kernels/internal/reference\pooling.h ****               sum_squares += val * val;
 176:C:/Renesas/e2studio_2021_01_workspace_RZA2M_ANPR/ANPR_RZA2M_RDK/src/tensorflow_lite/tensorflow/lite/kernels/internal/reference\pooling.h ****               filter_count++;
 177:C:/Renesas/e2studio_2021_01_workspace_RZA2M_ANPR/ANPR_RZA2M_RDK/src/tensorflow_lite/tensorflow/lite/kernels/internal/reference\pooling.h ****             }
 178:C:/Renesas/e2studio_2021_01_workspace_RZA2M_ANPR/ANPR_RZA2M_RDK/src/tensorflow_lite/tensorflow/lite/kernels/internal/reference\pooling.h ****           }
 179:C:/Renesas/e2studio_2021_01_workspace_RZA2M_ANPR/ANPR_RZA2M_RDK/src/tensorflow_lite/tensorflow/lite/kernels/internal/reference\pooling.h ****           const float l2pool_result = std::sqrt(sum_squares / filter_count);
 180:C:/Renesas/e2studio_2021_01_workspace_RZA2M_ANPR/ANPR_RZA2M_RDK/src/tensorflow_lite/tensorflow/lite/kernels/internal/reference\pooling.h ****           output_data[Offset(output_shape, batch, out_y, out_x, channel)] =
 181:C:/Renesas/e2studio_2021_01_workspace_RZA2M_ANPR/ANPR_RZA2M_RDK/src/tensorflow_lite/tensorflow/lite/kernels/internal/reference\pooling.h ****               ActivationFunctionWithMinMax(l2pool_result,
 182:C:/Renesas/e2studio_2021_01_workspace_RZA2M_ANPR/ANPR_RZA2M_RDK/src/tensorflow_lite/tensorflow/lite/kernels/internal/reference\pooling.h ****                                            params.float_activation_min,
 183:C:/Renesas/e2studio_2021_01_workspace_RZA2M_ANPR/ANPR_RZA2M_RDK/src/tensorflow_lite/tensorflow/lite/kernels/internal/reference\pooling.h ****                                            params.float_activation_max);
 184:C:/Renesas/e2studio_2021_01_workspace_RZA2M_ANPR/ANPR_RZA2M_RDK/src/tensorflow_lite/tensorflow/lite/kernels/internal/reference\pooling.h ****         }
 185:C:/Renesas/e2studio_2021_01_workspace_RZA2M_ANPR/ANPR_RZA2M_RDK/src/tensorflow_lite/tensorflow/lite/kernels/internal/reference\pooling.h ****       }
 186:C:/Renesas/e2studio_2021_01_workspace_RZA2M_ANPR/ANPR_RZA2M_RDK/src/tensorflow_lite/tensorflow/lite/kernels/internal/reference\pooling.h ****     }
 187:C:/Renesas/e2studio_2021_01_workspace_RZA2M_ANPR/ANPR_RZA2M_RDK/src/tensorflow_lite/tensorflow/lite/kernels/internal/reference\pooling.h ****   }
 188:C:/Renesas/e2studio_2021_01_workspace_RZA2M_ANPR/ANPR_RZA2M_RDK/src/tensorflow_lite/tensorflow/lite/kernels/internal/reference\pooling.h **** }
 189:C:/Renesas/e2studio_2021_01_workspace_RZA2M_ANPR/ANPR_RZA2M_RDK/src/tensorflow_lite/tensorflow/lite/kernels/internal/reference\pooling.h **** 
 190:C:/Renesas/e2studio_2021_01_workspace_RZA2M_ANPR/ANPR_RZA2M_RDK/src/tensorflow_lite/tensorflow/lite/kernels/internal/reference\pooling.h **** inline void MaxPool(const PoolParams& params, const RuntimeShape& input_shape,
 191:C:/Renesas/e2studio_2021_01_workspace_RZA2M_ANPR/ANPR_RZA2M_RDK/src/tensorflow_lite/tensorflow/lite/kernels/internal/reference\pooling.h ****                     const float* input_data, const RuntimeShape& output_shape,
 192:C:/Renesas/e2studio_2021_01_workspace_RZA2M_ANPR/ANPR_RZA2M_RDK/src/tensorflow_lite/tensorflow/lite/kernels/internal/reference\pooling.h ****                     float* output_data) {
 193:C:/Renesas/e2studio_2021_01_workspace_RZA2M_ANPR/ANPR_RZA2M_RDK/src/tensorflow_lite/tensorflow/lite/kernels/internal/reference\pooling.h ****   TFLITE_DCHECK_EQ(input_shape.DimensionsCount(), 4);
 3176              		.loc 5 193 0
 3177 00fc 88309DE5 		ldr	r3, [sp, #136]
 3178              	.LBE1292:
 3179              	.LBE1291:
 3180              	.LBB1391:
 3181              	.LBB1392:
  56:C:/Renesas/e2studio_2021_01_workspace_RZA2M_ANPR/ANPR_RZA2M_RDK/src/tensorflow_lite/tensorflow/lite/micro/kernels\kernel_util.h **** }
 3182              		.loc 4 56 0
 3183 0100 000054E3 		cmp	r4, #0
 3184 0104 00109415 		ldrne	r1, [r4]
 3185 0108 0410A001 		moveq	r1, r4
 3186              	.LVL310:
 3187              	.LBE1392:
 3188              	.LBE1391:
 3189              	.LBB1393:
 3190              	.LBB1385:
 3191              		.loc 5 193 0
 3192 010c 040053E3 		cmp	r3, #4
 3193 0110 4F03001A 		bne	.L691
 3194              	.LVL311:
 194:C:/Renesas/e2studio_2021_01_workspace_RZA2M_ANPR/ANPR_RZA2M_RDK/src/tensorflow_lite/tensorflow/lite/kernels/internal/reference\pooling.h ****   TFLITE_DCHECK_EQ(output_shape.DimensionsCount(), 4);
 3195              		.loc 5 194 0
 3196 0114 A0309DE5 		ldr	r3, [sp, #160]
 3197 0118 040053E3 		cmp	r3, #4
 3198 011c 4D03001A 		bne	.L692
 3199              	.LVL312:
 3200              	.LBB1293:
 3201              	.LBB1294:
 3202              	.LBB1295:
 3203              	.LBB1296:
 216:C:/Renesas/e2studio_2021_01_workspace_RZA2M_ANPR/ANPR_RZA2M_RDK/src/tensorflow_lite/tensorflow/lite/kernels/internal\types.h ****   }
 3204              		.loc 6 216 0
 3205 0120 8C309DE5 		ldr	r3, [sp, #140]
 3206              	.LBE1296:
 3207              	.LBE1295:
 3208              	.LBB1298:
 3209              	.LBB1299:
 3210 0124 A4209DE5 		ldr	r2, [sp, #164]
 3211              	.LBE1299:
 3212              	.LBE1298:
 3213              	.LBB1301:
 3214              	.LBB1297:
 3215 0128 28308DE5 		str	r3, [sp, #40]
 3216              	.LVL313:
 3217              	.LBE1297:
 3218              	.LBE1301:
 3219              		.loc 6 472 0
 3220 012c 020053E1 		cmp	r3, r2
 3221              	.LBB1302:
 3222              	.LBB1300:
 216:C:/Renesas/e2studio_2021_01_workspace_RZA2M_ANPR/ANPR_RZA2M_RDK/src/tensorflow_lite/tensorflow/lite/kernels/internal\types.h ****   }
 3223              		.loc 6 216 0
 3224 0130 10208DE5 		str	r2, [sp, #16]
 3225              	.LVL314:
 3226              	.LBE1300:
 3227              	.LBE1302:
 3228              		.loc 6 472 0
 3229 0134 2C03001A 		bne	.L693
 3230              	.LVL315:
 3231              	.LBE1294:
 3232              	.LBE1293:
 3233              	.LBB1304:
 3234              	.LBB1305:
 3235              	.LBB1306:
 3236              	.LBB1307:
 216:C:/Renesas/e2studio_2021_01_workspace_RZA2M_ANPR/ANPR_RZA2M_RDK/src/tensorflow_lite/tensorflow/lite/kernels/internal\types.h ****   }
 3237              		.loc 6 216 0
 3238 0138 98B09DE5 		ldr	fp, [sp, #152]
 3239              	.LVL316:
 3240              	.LBE1307:
 3241              	.LBE1306:
 3242              	.LBB1308:
 3243              	.LBB1309:
 3244 013c B0809DE5 		ldr	r8, [sp, #176]
 3245              	.LVL317:
 3246              	.LBE1309:
 3247              	.LBE1308:
 3248              		.loc 6 472 0
 3249 0140 08005BE1 		cmp	fp, r8
 3250 0144 2903001A 		bne	.L694
 3251              	.LVL318:
 3252              	.LBE1305:
 3253              	.LBE1304:
 3254              	.LBB1311:
 195:C:/Renesas/e2studio_2021_01_workspace_RZA2M_ANPR/ANPR_RZA2M_RDK/src/tensorflow_lite/tensorflow/lite/kernels/internal/reference\pooling.h ****   const int batches = MatchingDim(input_shape, 0, output_shape, 0);
 196:C:/Renesas/e2studio_2021_01_workspace_RZA2M_ANPR/ANPR_RZA2M_RDK/src/tensorflow_lite/tensorflow/lite/kernels/internal/reference\pooling.h ****   const int depth = MatchingDim(input_shape, 3, output_shape, 3);
 197:C:/Renesas/e2studio_2021_01_workspace_RZA2M_ANPR/ANPR_RZA2M_RDK/src/tensorflow_lite/tensorflow/lite/kernels/internal/reference\pooling.h ****   const int input_height = input_shape.Dims(1);
 198:C:/Renesas/e2studio_2021_01_workspace_RZA2M_ANPR/ANPR_RZA2M_RDK/src/tensorflow_lite/tensorflow/lite/kernels/internal/reference\pooling.h ****   const int input_width = input_shape.Dims(2);
 199:C:/Renesas/e2studio_2021_01_workspace_RZA2M_ANPR/ANPR_RZA2M_RDK/src/tensorflow_lite/tensorflow/lite/kernels/internal/reference\pooling.h ****   const int output_height = output_shape.Dims(1);
 200:C:/Renesas/e2studio_2021_01_workspace_RZA2M_ANPR/ANPR_RZA2M_RDK/src/tensorflow_lite/tensorflow/lite/kernels/internal/reference\pooling.h ****   const int output_width = output_shape.Dims(2);
 201:C:/Renesas/e2studio_2021_01_workspace_RZA2M_ANPR/ANPR_RZA2M_RDK/src/tensorflow_lite/tensorflow/lite/kernels/internal/reference\pooling.h ****   const int stride_height = params.stride_height;
 202:C:/Renesas/e2studio_2021_01_workspace_RZA2M_ANPR/ANPR_RZA2M_RDK/src/tensorflow_lite/tensorflow/lite/kernels/internal/reference\pooling.h ****   const int stride_width = params.stride_width;
 203:C:/Renesas/e2studio_2021_01_workspace_RZA2M_ANPR/ANPR_RZA2M_RDK/src/tensorflow_lite/tensorflow/lite/kernels/internal/reference\pooling.h ****   for (int batch = 0; batch < batches; ++batch) {
 3255              		.loc 5 203 0
 3256 0148 000053E3 		cmp	r3, #0
 3257              	.LBE1311:
 3258              	.LBB1368:
 3259              	.LBB1369:
 216:C:/Renesas/e2studio_2021_01_workspace_RZA2M_ANPR/ANPR_RZA2M_RDK/src/tensorflow_lite/tensorflow/lite/kernels/internal\types.h ****   }
 3260              		.loc 6 216 0
 3261 014c 90309DE5 		ldr	r3, [sp, #144]
 3262              	.LBE1369:
 3263              	.LBE1368:
 3264              	.LBB1371:
 3265              	.LBB1372:
 3266 0150 94A09DE5 		ldr	r10, [sp, #148]
 3267              	.LBE1372:
 3268              	.LBE1371:
 3269              	.LBB1373:
 3270              	.LBB1370:
 3271 0154 08308DE5 		str	r3, [sp, #8]
 3272              	.LVL319:
 3273              	.LBE1370:
 3274              	.LBE1373:
 3275              	.LBB1374:
 3276              	.LBB1375:
 3277 0158 A8309DE5 		ldr	r3, [sp, #168]
 3278 015c 20308DE5 		str	r3, [sp, #32]
 3279              	.LVL320:
 3280              	.LBE1375:
 3281              	.LBE1374:
 3282              	.LBB1376:
 3283              	.LBB1377:
 3284 0160 AC309DE5 		ldr	r3, [sp, #172]
 3285 0164 24308DE5 		str	r3, [sp, #36]
 3286              	.LVL321:
 3287              	.LBE1377:
 3288              	.LBE1376:
 3289              	.LBB1378:
 3290              		.loc 5 203 0
 3291 0168 D40000DA 		ble	.L439
 3292 016c 20009DE5 		ldr	r0, [sp, #32]
 3293 0170 0320A0E1 		mov	r2, r3
 3294 0174 920B02E0 		mul	r2, r2, fp
 3295 0178 0BC1A0E1 		lsl	ip, fp, #2
 3296 017c 4C108DE5 		str	r1, [sp, #76]
 3297 0180 74C08DE5 		str	ip, [sp, #116]
 3298 0184 930003E0 		mul	r3, r3, r0
 3299 0188 0000A0E3 		mov	r0, #0
 3300 018c 54008DE5 		str	r0, [sp, #84]
 3301 0190 04008DE5 		str	r0, [sp, #4]
 3302 0194 0331A0E1 		lsl	r3, r3, #2
 3303 0198 9B0303E0 		mul	r3, fp, r3
 3304 019c 7C308DE5 		str	r3, [sp, #124]
 3305 01a0 0231A0E1 		lsl	r3, r2, #2
 3306 01a4 0B20A0E1 		mov	r2, fp
 3307 01a8 78308DE5 		str	r3, [sp, #120]
 3308 01ac 0A30A0E1 		mov	r3, r10
 3309 01b0 09B0A0E1 		mov	fp, r9
 3310 01b4 08A0A0E1 		mov	r10, r8
 3311 01b8 0290A0E1 		mov	r9, r2
 3312              	.LVL322:
 3313 01bc 0380A0E1 		mov	r8, r3
 3314              	.LVL323:
 3315              	.L335:
 3316              	.LBB1312:
 204:C:/Renesas/e2studio_2021_01_workspace_RZA2M_ANPR/ANPR_RZA2M_RDK/src/tensorflow_lite/tensorflow/lite/kernels/internal/reference\pooling.h ****     for (int out_y = 0; out_y < output_height; ++out_y) {
 3317              		.loc 5 204 0
 3318 01c0 20309DE5 		ldr	r3, [sp, #32]
 3319 01c4 000053E3 		cmp	r3, #0
 3320 01c8 AE0000DA 		ble	.L337
 3321 01cc 64309DE5 		ldr	r3, [sp, #100]
 3322 01d0 002063E2 		rsb	r2, r3, #0
 3323 01d4 1C208DE5 		str	r2, [sp, #28]
 3324 01d8 08209DE5 		ldr	r2, [sp, #8]
 3325 01dc 023083E0 		add	r3, r3, r2
 3326 01e0 48308DE5 		str	r3, [sp, #72]
 3327 01e4 4C309DE5 		ldr	r3, [sp, #76]
 3328 01e8 50308DE5 		str	r3, [sp, #80]
 3329 01ec 0030A0E3 		mov	r3, #0
 3330 01f0 38308DE5 		str	r3, [sp, #56]
 3331              	.LVL324:
 3332              	.L338:
 3333              	.LBB1313:
 205:C:/Renesas/e2studio_2021_01_workspace_RZA2M_ANPR/ANPR_RZA2M_RDK/src/tensorflow_lite/tensorflow/lite/kernels/internal/reference\pooling.h ****       for (int out_x = 0; out_x < output_width; ++out_x) {
 3334              		.loc 5 205 0
 3335 01f4 24309DE5 		ldr	r3, [sp, #36]
 3336 01f8 000053E3 		cmp	r3, #0
 3337 01fc 900000DA 		ble	.L340
 3338 0200 1C109DE5 		ldr	r1, [sp, #28]
 3339 0204 54C09DE5 		ldr	ip, [sp, #84]
 3340 0208 60009DE5 		ldr	r0, [sp, #96]
 3341 020c 48209DE5 		ldr	r2, [sp, #72]
 3342 0210 01308CE0 		add	r3, ip, r1
 3343 0214 08C09DE5 		ldr	ip, [sp, #8]
 3344 0218 000052E1 		cmp	r2, r0
 3345 021c 0200A0B1 		movlt	r0, r2
 3346 0220 000051E3 		cmp	r1, #0
 3347 0224 0C2042B0 		sublt	r2, r2, ip
 3348 0228 0020A0A3 		movge	r2, #0
 3349 022c 011080E0 		add	r1, r0, r1
 3350 0230 023083E0 		add	r3, r3, r2
 3351 0234 14208DE5 		str	r2, [sp, #20]
 3352 0238 980303E0 		mul	r3, r8, r3
 3353 023c 68209DE5 		ldr	r2, [sp, #104]
 3354 0240 0C108DE5 		str	r1, [sp, #12]
 3355 0244 30008DE5 		str	r0, [sp, #48]
 3356 0248 001062E2 		rsb	r1, r2, #0
 3357 024c 5C308DE5 		str	r3, [sp, #92]
 3358 0250 083082E0 		add	r3, r2, r8
 3359 0254 44308DE5 		str	r3, [sp, #68]
 3360 0258 50309DE5 		ldr	r3, [sp, #80]
 3361 025c 3C108DE5 		str	r1, [sp, #60]
 3362 0260 40308DE5 		str	r3, [sp, #64]
 3363 0264 0030A0E3 		mov	r3, #0
 3364 0268 34308DE5 		str	r3, [sp, #52]
 3365              	.LVL325:
 3366              	.L341:
 3367              	.LBB1314:
 206:C:/Renesas/e2studio_2021_01_workspace_RZA2M_ANPR/ANPR_RZA2M_RDK/src/tensorflow_lite/tensorflow/lite/kernels/internal/reference\pooling.h ****         for (int channel = 0; channel < depth; ++channel) {
 3368              		.loc 5 206 0
 3369 026c 000059E3 		cmp	r9, #0
 3370 0270 620000DA 		ble	.L375
 3371 0274 44309DE5 		ldr	r3, [sp, #68]
 3372              	.LBB1315:
 3373              	.LBB1316:
 3374              	.LBB1317:
 3375              	.LBB1318:
 207:C:/Renesas/e2studio_2021_01_workspace_RZA2M_ANPR/ANPR_RZA2M_RDK/src/tensorflow_lite/tensorflow/lite/kernels/internal/reference\pooling.h ****           const int in_x_origin =
 208:C:/Renesas/e2studio_2021_01_workspace_RZA2M_ANPR/ANPR_RZA2M_RDK/src/tensorflow_lite/tensorflow/lite/kernels/internal/reference\pooling.h ****               (out_x * stride_width) - params.padding_values.width;
 209:C:/Renesas/e2studio_2021_01_workspace_RZA2M_ANPR/ANPR_RZA2M_RDK/src/tensorflow_lite/tensorflow/lite/kernels/internal/reference\pooling.h ****           const int in_y_origin =
 210:C:/Renesas/e2studio_2021_01_workspace_RZA2M_ANPR/ANPR_RZA2M_RDK/src/tensorflow_lite/tensorflow/lite/kernels/internal/reference\pooling.h ****               (out_y * stride_height) - params.padding_values.height;
 211:C:/Renesas/e2studio_2021_01_workspace_RZA2M_ANPR/ANPR_RZA2M_RDK/src/tensorflow_lite/tensorflow/lite/kernels/internal/reference\pooling.h ****           // Compute the boundaries of the filter region clamped so as to
 212:C:/Renesas/e2studio_2021_01_workspace_RZA2M_ANPR/ANPR_RZA2M_RDK/src/tensorflow_lite/tensorflow/lite/kernels/internal/reference\pooling.h ****           // ensure that the filter window fits in the input array.
 213:C:/Renesas/e2studio_2021_01_workspace_RZA2M_ANPR/ANPR_RZA2M_RDK/src/tensorflow_lite/tensorflow/lite/kernels/internal/reference\pooling.h ****           const int filter_x_start = std::max(0, -in_x_origin);
 214:C:/Renesas/e2studio_2021_01_workspace_RZA2M_ANPR/ANPR_RZA2M_RDK/src/tensorflow_lite/tensorflow/lite/kernels/internal/reference\pooling.h ****           const int filter_x_end =
 215:C:/Renesas/e2studio_2021_01_workspace_RZA2M_ANPR/ANPR_RZA2M_RDK/src/tensorflow_lite/tensorflow/lite/kernels/internal/reference\pooling.h ****               std::min(params.filter_width, input_width - in_x_origin);
 216:C:/Renesas/e2studio_2021_01_workspace_RZA2M_ANPR/ANPR_RZA2M_RDK/src/tensorflow_lite/tensorflow/lite/kernels/internal/reference\pooling.h ****           const int filter_y_start = std::max(0, -in_y_origin);
 217:C:/Renesas/e2studio_2021_01_workspace_RZA2M_ANPR/ANPR_RZA2M_RDK/src/tensorflow_lite/tensorflow/lite/kernels/internal/reference\pooling.h ****           const int filter_y_end =
 218:C:/Renesas/e2studio_2021_01_workspace_RZA2M_ANPR/ANPR_RZA2M_RDK/src/tensorflow_lite/tensorflow/lite/kernels/internal/reference\pooling.h ****               std::min(params.filter_height, input_height - in_y_origin);
 219:C:/Renesas/e2studio_2021_01_workspace_RZA2M_ANPR/ANPR_RZA2M_RDK/src/tensorflow_lite/tensorflow/lite/kernels/internal/reference\pooling.h ****           float max = std::numeric_limits<float>::lowest();
 220:C:/Renesas/e2studio_2021_01_workspace_RZA2M_ANPR/ANPR_RZA2M_RDK/src/tensorflow_lite/tensorflow/lite/kernels/internal/reference\pooling.h ****           for (int filter_y = filter_y_start; filter_y < filter_y_end;
 221:C:/Renesas/e2studio_2021_01_workspace_RZA2M_ANPR/ANPR_RZA2M_RDK/src/tensorflow_lite/tensorflow/lite/kernels/internal/reference\pooling.h ****                ++filter_y) {
 222:C:/Renesas/e2studio_2021_01_workspace_RZA2M_ANPR/ANPR_RZA2M_RDK/src/tensorflow_lite/tensorflow/lite/kernels/internal/reference\pooling.h ****             for (int filter_x = filter_x_start; filter_x < filter_x_end;
 223:C:/Renesas/e2studio_2021_01_workspace_RZA2M_ANPR/ANPR_RZA2M_RDK/src/tensorflow_lite/tensorflow/lite/kernels/internal/reference\pooling.h ****                  ++filter_x) {
 224:C:/Renesas/e2studio_2021_01_workspace_RZA2M_ANPR/ANPR_RZA2M_RDK/src/tensorflow_lite/tensorflow/lite/kernels/internal/reference\pooling.h ****               const int in_x = in_x_origin + filter_x;
 3376              		.loc 5 224 0
 3377 0278 0000A0E3 		mov	r0, #0
 3378 027c 58109DE5 		ldr	r1, [sp, #88]
 3379 0280 3C209DE5 		ldr	r2, [sp, #60]
 3380 0284 010053E1 		cmp	r3, r1
 3381 0288 0370A0B1 		movlt	r7, r3
 3382 028c 0170A0A1 		movge	r7, r1
 3383 0290 000052E3 		cmp	r2, #0
 3384 0294 01C042E2 		sub	ip, r2, #1
 3385 0298 086043B0 		sublt	r6, r3, r8
 3386 029c 0060A0A3 		movge	r6, #0
 3387 02a0 40309DE5 		ldr	r3, [sp, #64]
 3388 02a4 025086E0 		add	r5, r6, r2
 3389 02a8 07C08CE0 		add	ip, ip, r7
 3390 02ac 18308DE5 		str	r3, [sp, #24]
 3391 02b0 5C309DE5 		ldr	r3, [sp, #92]
 3392 02b4 053083E0 		add	r3, r3, r5
 3393 02b8 2C308DE5 		str	r3, [sp, #44]
 3394              	.LVL326:
 3395              	.L376:
 3396              	.LBE1318:
 3397              	.LBE1317:
 220:C:/Renesas/e2studio_2021_01_workspace_RZA2M_ANPR/ANPR_RZA2M_RDK/src/tensorflow_lite/tensorflow/lite/kernels/internal/reference\pooling.h ****                ++filter_y) {
 3398              		.loc 5 220 0
 3399 02bc 14309DE5 		ldr	r3, [sp, #20]
 3400 02c0 30209DE5 		ldr	r2, [sp, #48]
 3401              	.LBE1316:
 219:C:/Renesas/e2studio_2021_01_workspace_RZA2M_ANPR/ANPR_RZA2M_RDK/src/tensorflow_lite/tensorflow/lite/kernels/internal/reference\pooling.h ****           for (int filter_y = filter_y_start; filter_y < filter_y_end;
 3402              		.loc 5 219 0
 3403 02c4 7F7ADFED 		vldr.32	s15, .L727
 3404              	.LBB1333:
 220:C:/Renesas/e2studio_2021_01_workspace_RZA2M_ANPR/ANPR_RZA2M_RDK/src/tensorflow_lite/tensorflow/lite/kernels/internal/reference\pooling.h ****                ++filter_y) {
 3405              		.loc 5 220 0
 3406 02c8 020053E1 		cmp	r3, r2
 3407              	.LBE1333:
 219:C:/Renesas/e2studio_2021_01_workspace_RZA2M_ANPR/ANPR_RZA2M_RDK/src/tensorflow_lite/tensorflow/lite/kernels/internal/reference\pooling.h ****           for (int filter_y = filter_y_start; filter_y < filter_y_end;
 3408              		.loc 5 219 0
 3409 02cc 217ACDED 		vstr.32	s15, [sp, #132]
 3410              	.LVL327:
 3411              	.LBB1334:
 220:C:/Renesas/e2studio_2021_01_workspace_RZA2M_ANPR/ANPR_RZA2M_RDK/src/tensorflow_lite/tensorflow/lite/kernels/internal/reference\pooling.h ****                ++filter_y) {
 3412              		.loc 5 220 0
 3413 02d0 2F0000AA 		bge	.L348
 3414 02d4 1C209DE5 		ldr	r2, [sp, #28]
 3415 02d8 7A7ADFED 		vldr.32	s15, .L727
 3416 02dc 2C409DE5 		ldr	r4, [sp, #44]
 3417 02e0 02E083E0 		add	lr, r3, r2
 3418 02e4 0030A0E3 		mov	r3, #0
 3419              	.LVL328:
 3420              	.L346:
 3421              	.LBB1330:
 222:C:/Renesas/e2studio_2021_01_workspace_RZA2M_ANPR/ANPR_RZA2M_RDK/src/tensorflow_lite/tensorflow/lite/kernels/internal/reference\pooling.h ****                  ++filter_x) {
 3422              		.loc 5 222 0
 3423 02e8 070056E1 		cmp	r6, r7
 3424 02ec 210000AA 		bge	.L368
 3425              	.LVL329:
 3426              	.LBB1327:
 3427              	.LBB1319:
 3428              	.LBB1320:
 406:C:/Renesas/e2studio_2021_01_workspace_RZA2M_ANPR/ANPR_RZA2M_RDK/src/tensorflow_lite/tensorflow/lite/kernels/internal\types.h ****   TFLITE_DCHECK(i1 >= 0 && i1 < dims_data[1]);
 3429              		.loc 6 406 0
 3430 02f0 10209DE5 		ldr	r2, [sp, #16]
 3431 02f4 04109DE5 		ldr	r1, [sp, #4]
 3432 02f8 010052E1 		cmp	r2, r1
 3433 02fc 810200DA 		ble	.L349
 407:C:/Renesas/e2studio_2021_01_workspace_RZA2M_ANPR/ANPR_RZA2M_RDK/src/tensorflow_lite/tensorflow/lite/kernels/internal\types.h ****   TFLITE_DCHECK(i2 >= 0 && i2 < dims_data[2]);
 3434              		.loc 6 407 0
 3435 0300 00005EE3 		cmp	lr, #0
 3436 0304 D50200BA 		blt	.L350
 3437 0308 08209DE5 		ldr	r2, [sp, #8]
 3438 030c 0E0052E1 		cmp	r2, lr
 3439 0310 D20200DA 		ble	.L350
 408:C:/Renesas/e2studio_2021_01_workspace_RZA2M_ANPR/ANPR_RZA2M_RDK/src/tensorflow_lite/tensorflow/lite/kernels/internal\types.h ****   TFLITE_DCHECK(i3 >= 0 && i3 < dims_data[3]);
 3440              		.loc 6 408 0
 3441 0314 000055E3 		cmp	r5, #0
 3442 0318 800200BA 		blt	.L647
 3443 031c 080055E1 		cmp	r5, r8
 3444 0320 7E0200AA 		bge	.L647
 409:C:/Renesas/e2studio_2021_01_workspace_RZA2M_ANPR/ANPR_RZA2M_RDK/src/tensorflow_lite/tensorflow/lite/kernels/internal\types.h ****   return ((i0 * dims_data[1] + i1) * dims_data[2] + i2) * dims_data[3] + i3;
 3445              		.loc 6 409 0
 3446 0324 00005AE1 		cmp	r10, r0
 3447 0328 790200DA 		ble	.L695
 3448 032c 0520A0E1 		mov	r2, r5
 3449 0330 0410A0E1 		mov	r1, r4
 3450 0334 0930A0E1 		mov	r3, r9
 3451 0338 050000EA 		b	.L364
 3452              	.LVL330:
 3453              	.L638:
 408:C:/Renesas/e2studio_2021_01_workspace_RZA2M_ANPR/ANPR_RZA2M_RDK/src/tensorflow_lite/tensorflow/lite/kernels/internal\types.h ****   TFLITE_DCHECK(i3 >= 0 && i3 < dims_data[3]);
 3454              		.loc 6 408 0
 3455 033c 012092E2 		adds	r2, r2, #1
 3456 0340 7802004A 		bmi	.L646
 3457 0344 020058E1 		cmp	r8, r2
 3458 0348 011081E2 		add	r1, r1, #1
 3459 034c 750200DA 		ble	.L646
 3460 0350 0A30A0E1 		mov	r3, r10
 3461              	.L364:
 3462              	.LVL331:
 3463              	.LBE1320:
 3464              	.LBE1319:
 225:C:/Renesas/e2studio_2021_01_workspace_RZA2M_ANPR/ANPR_RZA2M_RDK/src/tensorflow_lite/tensorflow/lite/kernels/internal/reference\pooling.h ****               const int in_y = in_y_origin + filter_y;
 226:C:/Renesas/e2studio_2021_01_workspace_RZA2M_ANPR/ANPR_RZA2M_RDK/src/tensorflow_lite/tensorflow/lite/kernels/internal/reference\pooling.h ****               max = std::max(
 227:C:/Renesas/e2studio_2021_01_workspace_RZA2M_ANPR/ANPR_RZA2M_RDK/src/tensorflow_lite/tensorflow/lite/kernels/internal/reference\pooling.h ****                   max,
 228:C:/Renesas/e2studio_2021_01_workspace_RZA2M_ANPR/ANPR_RZA2M_RDK/src/tensorflow_lite/tensorflow/lite/kernels/internal/reference\pooling.h ****                   input_data[Offset(input_shape, batch, in_y, in_x, channel)]);
 3465              		.loc 5 228 0
 3466 0354 930123E0 		mla	r3, r3, r1, r0
 3467              	.LVL332:
 3468              	.LBB1323:
 3469              	.LBB1324:
 224:c:\program files (x86)\gnu tools arm embedded\6 2017-q2-update\arm-none-eabi\include\c++\6.3.1\bits\stl_algobase.h **** 	return __b;
 3470              		.loc 7 224 0
 3471 0358 03318BE0 		add	r3, fp, r3, lsl #2
 3472              	.LVL333:
 3473 035c 007A93ED 		vldr.32	s14, [r3]
 3474 0360 677AB4EE 		vcmp.f32	s14, s15
 3475 0364 10FAF1EE 		vmrs	APSR_nzcv, FPSCR
 3476 0368 477AF0CE 		vmovgt.f32	s15, s14
 3477              	.LVL334:
 3478              	.LBE1324:
 3479              	.LBE1323:
 3480              	.LBE1327:
 222:C:/Renesas/e2studio_2021_01_workspace_RZA2M_ANPR/ANPR_RZA2M_RDK/src/tensorflow_lite/tensorflow/lite/kernels/internal/reference\pooling.h ****                  ++filter_x) {
 3481              		.loc 5 222 0
 3482 036c 02005CE1 		cmp	ip, r2
 3483 0370 F1FFFF1A 		bne	.L638
 3484 0374 0130A0E3 		mov	r3, #1
 3485              	.LVL335:
 3486              	.L368:
 3487              	.LBE1330:
 220:C:/Renesas/e2studio_2021_01_workspace_RZA2M_ANPR/ANPR_RZA2M_RDK/src/tensorflow_lite/tensorflow/lite/kernels/internal/reference\pooling.h ****                ++filter_y) {
 3488              		.loc 5 220 0
 3489 0378 0C209DE5 		ldr	r2, [sp, #12]
 3490 037c 01E08EE2 		add	lr, lr, #1
 3491 0380 084084E0 		add	r4, r4, r8
 3492 0384 02005EE1 		cmp	lr, r2
 3493 0388 D6FFFF1A 		bne	.L346
 3494 038c 000053E3 		cmp	r3, #0
 3495 0390 217ACD1D 		vstrne.32	s15, [sp, #132]
 3496              	.L348:
 3497              	.LVL336:
 3498              	.LBE1334:
 3499              	.LBB1335:
 3500              	.LBB1336:
 406:C:/Renesas/e2studio_2021_01_workspace_RZA2M_ANPR/ANPR_RZA2M_RDK/src/tensorflow_lite/tensorflow/lite/kernels/internal\types.h ****   TFLITE_DCHECK(i1 >= 0 && i1 < dims_data[1]);
 3501              		.loc 6 406 0
 3502 0394 28309DE5 		ldr	r3, [sp, #40]
 3503 0398 04209DE5 		ldr	r2, [sp, #4]
 3504 039c 020053E1 		cmp	r3, r2
 3505 03a0 AD0200DA 		ble	.L696
 3506              	.LVL337:
 407:C:/Renesas/e2studio_2021_01_workspace_RZA2M_ANPR/ANPR_RZA2M_RDK/src/tensorflow_lite/tensorflow/lite/kernels/internal\types.h ****   TFLITE_DCHECK(i2 >= 0 && i2 < dims_data[2]);
 3507              		.loc 6 407 0
 3508 03a4 20309DE5 		ldr	r3, [sp, #32]
 3509 03a8 38209DE5 		ldr	r2, [sp, #56]
 3510 03ac 020053E1 		cmp	r3, r2
 3511 03b0 9F0200DA 		ble	.L697
 408:C:/Renesas/e2studio_2021_01_workspace_RZA2M_ANPR/ANPR_RZA2M_RDK/src/tensorflow_lite/tensorflow/lite/kernels/internal\types.h ****   TFLITE_DCHECK(i3 >= 0 && i3 < dims_data[3]);
 3512              		.loc 6 408 0
 3513 03b4 24309DE5 		ldr	r3, [sp, #36]
 3514 03b8 34209DE5 		ldr	r2, [sp, #52]
 3515 03bc 020053E1 		cmp	r3, r2
 3516 03c0 9C0200DA 		ble	.L698
 409:C:/Renesas/e2studio_2021_01_workspace_RZA2M_ANPR/ANPR_RZA2M_RDK/src/tensorflow_lite/tensorflow/lite/kernels/internal\types.h ****   return ((i0 * dims_data[1] + i1) * dims_data[2] + i2) * dims_data[3] + i3;
 3517              		.loc 6 409 0
 3518 03c4 000059E1 		cmp	r9, r0
 3519 03c8 B302000A 		beq	.L699
 3520              	.LVL338:
 3521              	.LBE1336:
 3522              	.LBE1335:
 229:C:/Renesas/e2studio_2021_01_workspace_RZA2M_ANPR/ANPR_RZA2M_RDK/src/tensorflow_lite/tensorflow/lite/kernels/internal/reference\pooling.h ****             }
 230:C:/Renesas/e2studio_2021_01_workspace_RZA2M_ANPR/ANPR_RZA2M_RDK/src/tensorflow_lite/tensorflow/lite/kernels/internal/reference\pooling.h ****           }
 231:C:/Renesas/e2studio_2021_01_workspace_RZA2M_ANPR/ANPR_RZA2M_RDK/src/tensorflow_lite/tensorflow/lite/kernels/internal/reference\pooling.h ****           output_data[Offset(output_shape, batch, out_y, out_x, channel)] =
 232:C:/Renesas/e2studio_2021_01_workspace_RZA2M_ANPR/ANPR_RZA2M_RDK/src/tensorflow_lite/tensorflow/lite/kernels/internal/reference\pooling.h ****               ActivationFunctionWithMinMax(max, params.float_activation_min,
 3523              		.loc 5 232 0
 3524 03cc 217ADDED 		vldr.32	s15, [sp, #132]
 3525              	.LVL339:
 3526              	.LBE1315:
 206:C:/Renesas/e2studio_2021_01_workspace_RZA2M_ANPR/ANPR_RZA2M_RDK/src/tensorflow_lite/tensorflow/lite/kernels/internal/reference\pooling.h ****           const int in_x_origin =
 3527              		.loc 5 206 0
 3528 03d0 010080E2 		add	r0, r0, #1
 3529              	.LVL340:
 3530              	.LBB1350:
 231:C:/Renesas/e2studio_2021_01_workspace_RZA2M_ANPR/ANPR_RZA2M_RDK/src/tensorflow_lite/tensorflow/lite/kernels/internal/reference\pooling.h ****               ActivationFunctionWithMinMax(max, params.float_activation_min,
 3531              		.loc 5 231 0
 3532 03d4 18309DE5 		ldr	r3, [sp, #24]
 3533              	.LBB1340:
 3534              	.LBB1341:
 3535              	.LBB1342:
 225:c:\program files (x86)\gnu tools arm embedded\6 2017-q2-update\arm-none-eabi\include\c++\6.3.1\bits\stl_algobase.h ****       return __a;
 3536              		.loc 7 225 0
 3537 03d8 678AB4EE 		vcmp.f32	s16, s15
 3538 03dc 10FAF1EE 		vmrs	APSR_nzcv, FPSCR
 3539 03e0 487AF0CE 		vmovgt.f32	s15, s16
 3540              	.LVL341:
 3541              	.LBE1342:
 3542              	.LBE1341:
 3543              	.LBB1343:
 3544              	.LBB1344:
 201:c:\program files (x86)\gnu tools arm embedded\6 2017-q2-update\arm-none-eabi\include\c++\6.3.1\bits\stl_algobase.h ****       return __a;
 3545              		.loc 7 201 0
 3546 03e4 678AF4EE 		vcmp.f32	s17, s15
 3547 03e8 10FAF1EE 		vmrs	APSR_nzcv, FPSCR
 3548 03ec 687AF04E 		vmovmi.f32	s15, s17
 3549              	.LVL342:
 3550              	.LBE1344:
 3551              	.LBE1343:
 3552              	.LBE1340:
 3553              	.LBE1350:
 206:C:/Renesas/e2studio_2021_01_workspace_RZA2M_ANPR/ANPR_RZA2M_RDK/src/tensorflow_lite/tensorflow/lite/kernels/internal/reference\pooling.h ****           const int in_x_origin =
 3554              		.loc 5 206 0
 3555 03f0 090050E1 		cmp	r0, r9
 3556              	.LBB1351:
 231:C:/Renesas/e2studio_2021_01_workspace_RZA2M_ANPR/ANPR_RZA2M_RDK/src/tensorflow_lite/tensorflow/lite/kernels/internal/reference\pooling.h ****               ActivationFunctionWithMinMax(max, params.float_activation_min,
 3557              		.loc 5 231 0
 3558 03f4 017AE3EC 		vstmia.32	r3!, {s15}
 3559 03f8 18308DE5 		str	r3, [sp, #24]
 3560              	.LBE1351:
 206:C:/Renesas/e2studio_2021_01_workspace_RZA2M_ANPR/ANPR_RZA2M_RDK/src/tensorflow_lite/tensorflow/lite/kernels/internal/reference\pooling.h ****           const int in_x_origin =
 3561              		.loc 5 206 0
 3562 03fc AEFFFF1A 		bne	.L376
 3563              	.LVL343:
 3564              	.L375:
 3565 0400 40209DE5 		ldr	r2, [sp, #64]
 3566 0404 74109DE5 		ldr	r1, [sp, #116]
 3567              	.LBE1314:
 205:C:/Renesas/e2studio_2021_01_workspace_RZA2M_ANPR/ANPR_RZA2M_RDK/src/tensorflow_lite/tensorflow/lite/kernels/internal/reference\pooling.h ****         for (int channel = 0; channel < depth; ++channel) {
 3568              		.loc 5 205 0
 3569 0408 34309DE5 		ldr	r3, [sp, #52]
 3570 040c 012082E0 		add	r2, r2, r1
 3571 0410 40208DE5 		str	r2, [sp, #64]
 3572 0414 013083E2 		add	r3, r3, #1
 3573 0418 24209DE5 		ldr	r2, [sp, #36]
 3574 041c 34308DE5 		str	r3, [sp, #52]
 3575              	.LVL344:
 3576 0420 020053E1 		cmp	r3, r2
 3577 0424 3C209DE5 		ldr	r2, [sp, #60]
 3578 0428 70309DE5 		ldr	r3, [sp, #112]
 3579              	.LVL345:
 3580 042c 032082E0 		add	r2, r2, r3
 3581 0430 3C208DE5 		str	r2, [sp, #60]
 3582 0434 44209DE5 		ldr	r2, [sp, #68]
 3583 0438 033042E0 		sub	r3, r2, r3
 3584 043c 44308DE5 		str	r3, [sp, #68]
 3585 0440 89FFFF1A 		bne	.L341
 3586              	.LVL346:
 3587              	.L340:
 3588 0444 50209DE5 		ldr	r2, [sp, #80]
 3589 0448 78109DE5 		ldr	r1, [sp, #120]
 3590              	.LBE1313:
 204:C:/Renesas/e2studio_2021_01_workspace_RZA2M_ANPR/ANPR_RZA2M_RDK/src/tensorflow_lite/tensorflow/lite/kernels/internal/reference\pooling.h ****       for (int out_x = 0; out_x < output_width; ++out_x) {
 3591              		.loc 5 204 0
 3592 044c 38309DE5 		ldr	r3, [sp, #56]
 3593 0450 012082E0 		add	r2, r2, r1
 3594 0454 50208DE5 		str	r2, [sp, #80]
 3595 0458 013083E2 		add	r3, r3, #1
 3596 045c 20209DE5 		ldr	r2, [sp, #32]
 3597 0460 38308DE5 		str	r3, [sp, #56]
 3598              	.LVL347:
 3599 0464 020053E1 		cmp	r3, r2
 3600 0468 1C209DE5 		ldr	r2, [sp, #28]
 3601 046c 6C309DE5 		ldr	r3, [sp, #108]
 3602              	.LVL348:
 3603 0470 032082E0 		add	r2, r2, r3
 3604 0474 1C208DE5 		str	r2, [sp, #28]
 3605 0478 48209DE5 		ldr	r2, [sp, #72]
 3606 047c 033042E0 		sub	r3, r2, r3
 3607 0480 48308DE5 		str	r3, [sp, #72]
 3608 0484 5AFFFF1A 		bne	.L338
 3609              	.LVL349:
 3610              	.L337:
 3611 0488 4C209DE5 		ldr	r2, [sp, #76]
 3612 048c 7C109DE5 		ldr	r1, [sp, #124]
 3613              	.LBE1312:
 203:C:/Renesas/e2studio_2021_01_workspace_RZA2M_ANPR/ANPR_RZA2M_RDK/src/tensorflow_lite/tensorflow/lite/kernels/internal/reference\pooling.h ****     for (int out_y = 0; out_y < output_height; ++out_y) {
 3614              		.loc 5 203 0
 3615 0490 04309DE5 		ldr	r3, [sp, #4]
 3616 0494 012082E0 		add	r2, r2, r1
 3617 0498 4C208DE5 		str	r2, [sp, #76]
 3618 049c 013083E2 		add	r3, r3, #1
 3619 04a0 28209DE5 		ldr	r2, [sp, #40]
 3620 04a4 04308DE5 		str	r3, [sp, #4]
 3621              	.LVL350:
 3622 04a8 020053E1 		cmp	r3, r2
 3623 04ac 54309DE5 		ldr	r3, [sp, #84]
 3624              	.LVL351:
 3625 04b0 08209DE5 		ldr	r2, [sp, #8]
 3626 04b4 023083E0 		add	r3, r3, r2
 3627 04b8 54308DE5 		str	r3, [sp, #84]
 3628 04bc 3FFFFF1A 		bne	.L335
 3629              	.LVL352:
 3630              	.L439:
 3631              	.LBE1378:
 3632              	.LBE1385:
 3633              	.LBE1393:
 3634              	.LBE1288:
 3635              	.LBE1287:
 209:../src/tensorflow_lite/tensorflow/lite/micro/kernels/pooling.cc **** }
 3636              		.loc 1 209 0
 3637 04c0 0000A0E3 		mov	r0, #0
 3638 04c4 F4FEFFEA 		b	.L635
 3639              	.L728:
 3640              		.align	2
 3641              	.L727:
 3642 04c8 FFFF7FFF 		.word	-8388609
 3643              	.LVL353:
 3644              	.L324:
 3645              	.LBB1404:
 3646              	.LBB1405:
 131:../src/tensorflow_lite/tensorflow/lite/micro/kernels/pooling.cc ****   op_params.stride_width = params->stride_width;
 3647              		.loc 1 131 0
 3648 04cc 083095E5 		ldr	r3, [r5, #8]
 140:../src/tensorflow_lite/tensorflow/lite/micro/kernels/pooling.cc ****     reference_ops::MaxPool(op_params, tflite::micro::GetTensorShape(input),
 3649              		.loc 1 140 0
 3650 04d0 030050E3 		cmp	r0, #3
 141:../src/tensorflow_lite/tensorflow/lite/micro/kernels/pooling.cc ****                            tflite::micro::GetTensorData<uint8_t>(input),
 3651              		.loc 1 141 0
 3652 04d4 0710A0E1 		mov	r1, r7
 3653 04d8 88008DE2 		add	r0, sp, #136
 131:../src/tensorflow_lite/tensorflow/lite/micro/kernels/pooling.cc ****   op_params.stride_width = params->stride_width;
 3654              		.loc 1 131 0
 3655 04dc 68308DE5 		str	r3, [sp, #104]
 3656              	.LVL354:
 132:../src/tensorflow_lite/tensorflow/lite/micro/kernels/pooling.cc ****   op_params.filter_height = params->filter_height;
 3657              		.loc 1 132 0
 3658 04e0 043095E5 		ldr	r3, [r5, #4]
 3659              	.LVL355:
 3660 04e4 6C308DE5 		str	r3, [sp, #108]
 3661              	.LVL356:
 133:../src/tensorflow_lite/tensorflow/lite/micro/kernels/pooling.cc ****   op_params.filter_width = params->filter_width;
 3662              		.loc 1 133 0
 3663 04e8 103095E5 		ldr	r3, [r5, #16]
 3664              	.LVL357:
 3665 04ec 54308DE5 		str	r3, [sp, #84]
 3666              	.LVL358:
 134:../src/tensorflow_lite/tensorflow/lite/micro/kernels/pooling.cc ****   op_params.padding_values.height = data->padding.height;
 3667              		.loc 1 134 0
 3668 04f0 0C3095E5 		ldr	r3, [r5, #12]
 3669              	.LVL359:
 137:../src/tensorflow_lite/tensorflow/lite/micro/kernels/pooling.cc ****   op_params.quantized_activation_max = data->activation_max;
 3670              		.loc 1 137 0
 3671 04f4 105096E5 		ldr	r5, [r6, #16]
 3672              	.LVL360:
 134:../src/tensorflow_lite/tensorflow/lite/micro/kernels/pooling.cc ****   op_params.padding_values.height = data->padding.height;
 3673              		.loc 1 134 0
 3674 04f8 48308DE5 		str	r3, [sp, #72]
 3675              	.LVL361:
 135:../src/tensorflow_lite/tensorflow/lite/micro/kernels/pooling.cc ****   op_params.padding_values.width = data->padding.width;
 3676              		.loc 1 135 0
 3677 04fc F430D6E1 		ldrsh	r3, [r6, #4]
 3678              	.LVL362:
 3679 0500 58308DE5 		str	r3, [sp, #88]
 3680              	.LVL363:
 136:../src/tensorflow_lite/tensorflow/lite/micro/kernels/pooling.cc ****   op_params.quantized_activation_min = data->activation_min;
 3681              		.loc 1 136 0
 3682 0504 F030D6E1 		ldrsh	r3, [r6]
 3683 0508 5C308DE5 		str	r3, [sp, #92]
 3684              	.LVL364:
 138:../src/tensorflow_lite/tensorflow/lite/micro/kernels/pooling.cc **** 
 3685              		.loc 1 138 0
 3686 050c 143096E5 		ldr	r3, [r6, #20]
 3687 0510 1C308DE5 		str	r3, [sp, #28]
 140:../src/tensorflow_lite/tensorflow/lite/micro/kernels/pooling.cc ****     reference_ops::MaxPool(op_params, tflite::micro::GetTensorShape(input),
 3688              		.loc 1 140 0
 3689 0514 F500000A 		beq	.L700
 3690              	.LVL365:
 3691              	.LEHB24:
 147:../src/tensorflow_lite/tensorflow/lite/micro/kernels/pooling.cc ****         tflite::micro::GetTensorData<int8_t>(input),
 3692              		.loc 1 147 0
 3693 0518 FEFFFFEB 		bl	_ZN6tflite5micro14GetTensorShapeEPK16TfLiteEvalTensor
 3694              	.LVL366:
 3695              	.LEHE24:
 3696              	.LBB1406:
 3697              	.LBB1407:
 3698              		.loc 4 63 0
 3699 051c 003097E5 		ldr	r3, [r7]
 3700              	.LBE1407:
 3701              	.LBE1406:
 149:../src/tensorflow_lite/tensorflow/lite/micro/kernels/pooling.cc ****         tflite::micro::GetTensorData<int8_t>(output));
 3702              		.loc 1 149 0
 3703 0520 0410A0E1 		mov	r1, r4
 3704 0524 A0008DE2 		add	r0, sp, #160
 3705              	.LBB1409:
 3706              	.LBB1408:
 3707              		.loc 4 63 0
 3708 0528 34308DE5 		str	r3, [sp, #52]
 3709              	.LVL367:
 3710              	.LEHB25:
 3711              	.LBE1408:
 3712              	.LBE1409:
 149:../src/tensorflow_lite/tensorflow/lite/micro/kernels/pooling.cc ****         tflite::micro::GetTensorData<int8_t>(output));
 3713              		.loc 1 149 0
 3714 052c FEFFFFEB 		bl	_ZN6tflite5micro14GetTensorShapeEPK16TfLiteEvalTensor
 3715              	.LVL368:
 3716              	.LEHE25:
 3717              	.LBB1410:
 3718              	.LBB1411:
  56:C:/Renesas/e2studio_2021_01_workspace_RZA2M_ANPR/ANPR_RZA2M_RDK/src/tensorflow_lite/tensorflow/lite/micro/kernels\kernel_util.h **** }
 3719              		.loc 4 56 0
 3720 0530 000054E3 		cmp	r4, #0
 3721 0534 00309415 		ldrne	r3, [r4]
 3722 0538 38408D05 		streq	r4, [sp, #56]
 3723              	.LVL369:
 3724 053c 38308D15 		strne	r3, [sp, #56]
 3725              	.LVL370:
 3726              	.LBE1411:
 3727              	.LBE1410:
 3728              	.LBB1412:
 3729              	.LBB1413:
  76:C:/Renesas/e2studio_2021_01_workspace_RZA2M_ANPR/ANPR_RZA2M_RDK/src/tensorflow_lite/tensorflow/lite/kernels/internal/reference/integer_ops\pooling.h ****         }
  77:C:/Renesas/e2studio_2021_01_workspace_RZA2M_ANPR/ANPR_RZA2M_RDK/src/tensorflow_lite/tensorflow/lite/kernels/internal/reference/integer_ops\pooling.h ****       }
  78:C:/Renesas/e2studio_2021_01_workspace_RZA2M_ANPR/ANPR_RZA2M_RDK/src/tensorflow_lite/tensorflow/lite/kernels/internal/reference/integer_ops\pooling.h ****     }
  79:C:/Renesas/e2studio_2021_01_workspace_RZA2M_ANPR/ANPR_RZA2M_RDK/src/tensorflow_lite/tensorflow/lite/kernels/internal/reference/integer_ops\pooling.h ****   }
  80:C:/Renesas/e2studio_2021_01_workspace_RZA2M_ANPR/ANPR_RZA2M_RDK/src/tensorflow_lite/tensorflow/lite/kernels/internal/reference/integer_ops\pooling.h **** }
  81:C:/Renesas/e2studio_2021_01_workspace_RZA2M_ANPR/ANPR_RZA2M_RDK/src/tensorflow_lite/tensorflow/lite/kernels/internal/reference/integer_ops\pooling.h **** 
  82:C:/Renesas/e2studio_2021_01_workspace_RZA2M_ANPR/ANPR_RZA2M_RDK/src/tensorflow_lite/tensorflow/lite/kernels/internal/reference/integer_ops\pooling.h **** inline void MaxPool(const PoolParams& params, const RuntimeShape& input_shape,
  83:C:/Renesas/e2studio_2021_01_workspace_RZA2M_ANPR/ANPR_RZA2M_RDK/src/tensorflow_lite/tensorflow/lite/kernels/internal/reference/integer_ops\pooling.h ****                     const int8_t* input_data, const RuntimeShape& output_shape,
  84:C:/Renesas/e2studio_2021_01_workspace_RZA2M_ANPR/ANPR_RZA2M_RDK/src/tensorflow_lite/tensorflow/lite/kernels/internal/reference/integer_ops\pooling.h ****                     int8_t* output_data) {
  85:C:/Renesas/e2studio_2021_01_workspace_RZA2M_ANPR/ANPR_RZA2M_RDK/src/tensorflow_lite/tensorflow/lite/kernels/internal/reference/integer_ops\pooling.h ****   TFLITE_DCHECK_LE(params.quantized_activation_min,
  86:C:/Renesas/e2studio_2021_01_workspace_RZA2M_ANPR/ANPR_RZA2M_RDK/src/tensorflow_lite/tensorflow/lite/kernels/internal/reference/integer_ops\pooling.h ****                    params.quantized_activation_max);
 3730              		.loc 8 86 0
 3731 0540 1C309DE5 		ldr	r3, [sp, #28]
 3732 0544 030055E1 		cmp	r5, r3
 3733 0548 3C0200CA 		bgt	.L701
  87:C:/Renesas/e2studio_2021_01_workspace_RZA2M_ANPR/ANPR_RZA2M_RDK/src/tensorflow_lite/tensorflow/lite/kernels/internal/reference/integer_ops\pooling.h ****   TFLITE_DCHECK_GE(params.quantized_activation_min,
  88:C:/Renesas/e2studio_2021_01_workspace_RZA2M_ANPR/ANPR_RZA2M_RDK/src/tensorflow_lite/tensorflow/lite/kernels/internal/reference/integer_ops\pooling.h ****                    std::numeric_limits<int8_t>::min());
 3734              		.loc 8 88 0
 3735 054c 800075E3 		cmn	r5, #128
 3736 0550 3B0200BA 		blt	.L702
  89:C:/Renesas/e2studio_2021_01_workspace_RZA2M_ANPR/ANPR_RZA2M_RDK/src/tensorflow_lite/tensorflow/lite/kernels/internal/reference/integer_ops\pooling.h ****   TFLITE_DCHECK_LE(params.quantized_activation_max,
  90:C:/Renesas/e2studio_2021_01_workspace_RZA2M_ANPR/ANPR_RZA2M_RDK/src/tensorflow_lite/tensorflow/lite/kernels/internal/reference/integer_ops\pooling.h ****                    std::numeric_limits<int8_t>::max());
 3737              		.loc 8 90 0
 3738 0554 7F0053E3 		cmp	r3, #127
 3739 0558 3A0200CA 		bgt	.L703
 3740              	.LVL371:
  91:C:/Renesas/e2studio_2021_01_workspace_RZA2M_ANPR/ANPR_RZA2M_RDK/src/tensorflow_lite/tensorflow/lite/kernels/internal/reference/integer_ops\pooling.h ****   TFLITE_DCHECK_EQ(input_shape.DimensionsCount(), 4);
 3741              		.loc 8 91 0
 3742 055c 88309DE5 		ldr	r3, [sp, #136]
 3743 0560 040053E3 		cmp	r3, #4
 3744 0564 5002001A 		bne	.L704
 3745              	.LVL372:
  92:C:/Renesas/e2studio_2021_01_workspace_RZA2M_ANPR/ANPR_RZA2M_RDK/src/tensorflow_lite/tensorflow/lite/kernels/internal/reference/integer_ops\pooling.h ****   TFLITE_DCHECK_EQ(output_shape.DimensionsCount(), 4);
 3746              		.loc 8 92 0
 3747 0568 A0309DE5 		ldr	r3, [sp, #160]
 3748 056c 040053E3 		cmp	r3, #4
 3749 0570 4E02001A 		bne	.L705
 3750              	.LVL373:
 3751              	.LBB1414:
 3752              	.LBB1415:
 3753              	.LBB1416:
 3754              	.LBB1417:
 216:C:/Renesas/e2studio_2021_01_workspace_RZA2M_ANPR/ANPR_RZA2M_RDK/src/tensorflow_lite/tensorflow/lite/kernels/internal\types.h ****   }
 3755              		.loc 6 216 0
 3756 0574 8C309DE5 		ldr	r3, [sp, #140]
 3757 0578 0320A0E1 		mov	r2, r3
 3758 057c 70308DE5 		str	r3, [sp, #112]
 3759              	.LVL374:
 3760              	.LBE1417:
 3761              	.LBE1416:
 3762              		.loc 6 472 0
 3763 0580 A4309DE5 		ldr	r3, [sp, #164]
 3764 0584 030052E1 		cmp	r2, r3
 3765 0588 EB01001A 		bne	.L706
 3766              	.LVL375:
 3767              	.LBE1415:
 3768              	.LBE1414:
 3769              	.LBB1419:
 3770              	.LBB1420:
 3771              	.LBB1421:
 3772              	.LBB1422:
 216:C:/Renesas/e2studio_2021_01_workspace_RZA2M_ANPR/ANPR_RZA2M_RDK/src/tensorflow_lite/tensorflow/lite/kernels/internal\types.h ****   }
 3773              		.loc 6 216 0
 3774 058c 98309DE5 		ldr	r3, [sp, #152]
 3775 0590 0320A0E1 		mov	r2, r3
 3776 0594 30308DE5 		str	r3, [sp, #48]
 3777              	.LVL376:
 3778              	.LBE1422:
 3779              	.LBE1421:
 3780              		.loc 6 472 0
 3781 0598 B0309DE5 		ldr	r3, [sp, #176]
 3782 059c 030052E1 		cmp	r2, r3
 3783 05a0 E601001A 		bne	.L707
 3784              	.LVL377:
 3785              	.LBE1420:
 3786              	.LBE1419:
 3787              	.LBB1424:
  93:C:/Renesas/e2studio_2021_01_workspace_RZA2M_ANPR/ANPR_RZA2M_RDK/src/tensorflow_lite/tensorflow/lite/kernels/internal/reference/integer_ops\pooling.h ****   const int batches = MatchingDim(input_shape, 0, output_shape, 0);
  94:C:/Renesas/e2studio_2021_01_workspace_RZA2M_ANPR/ANPR_RZA2M_RDK/src/tensorflow_lite/tensorflow/lite/kernels/internal/reference/integer_ops\pooling.h ****   const int depth = MatchingDim(input_shape, 3, output_shape, 3);
  95:C:/Renesas/e2studio_2021_01_workspace_RZA2M_ANPR/ANPR_RZA2M_RDK/src/tensorflow_lite/tensorflow/lite/kernels/internal/reference/integer_ops\pooling.h ****   const int input_height = input_shape.Dims(1);
  96:C:/Renesas/e2studio_2021_01_workspace_RZA2M_ANPR/ANPR_RZA2M_RDK/src/tensorflow_lite/tensorflow/lite/kernels/internal/reference/integer_ops\pooling.h ****   const int input_width = input_shape.Dims(2);
  97:C:/Renesas/e2studio_2021_01_workspace_RZA2M_ANPR/ANPR_RZA2M_RDK/src/tensorflow_lite/tensorflow/lite/kernels/internal/reference/integer_ops\pooling.h ****   const int output_height = output_shape.Dims(1);
  98:C:/Renesas/e2studio_2021_01_workspace_RZA2M_ANPR/ANPR_RZA2M_RDK/src/tensorflow_lite/tensorflow/lite/kernels/internal/reference/integer_ops\pooling.h ****   const int output_width = output_shape.Dims(2);
  99:C:/Renesas/e2studio_2021_01_workspace_RZA2M_ANPR/ANPR_RZA2M_RDK/src/tensorflow_lite/tensorflow/lite/kernels/internal/reference/integer_ops\pooling.h ****   const int stride_height = params.stride_height;
 100:C:/Renesas/e2studio_2021_01_workspace_RZA2M_ANPR/ANPR_RZA2M_RDK/src/tensorflow_lite/tensorflow/lite/kernels/internal/reference/integer_ops\pooling.h ****   const int stride_width = params.stride_width;
 101:C:/Renesas/e2studio_2021_01_workspace_RZA2M_ANPR/ANPR_RZA2M_RDK/src/tensorflow_lite/tensorflow/lite/kernels/internal/reference/integer_ops\pooling.h ****   for (int batch = 0; batch < batches; ++batch) {
 3788              		.loc 8 101 0
 3789 05a4 70309DE5 		ldr	r3, [sp, #112]
 3790 05a8 000053E3 		cmp	r3, #0
 3791              	.LBE1424:
 3792              	.LBB1489:
 3793              	.LBB1490:
 216:C:/Renesas/e2studio_2021_01_workspace_RZA2M_ANPR/ANPR_RZA2M_RDK/src/tensorflow_lite/tensorflow/lite/kernels/internal\types.h ****   }
 3794              		.loc 6 216 0
 3795 05ac 90309DE5 		ldr	r3, [sp, #144]
 3796 05b0 64308DE5 		str	r3, [sp, #100]
 3797              	.LVL378:
 3798              	.LBE1490:
 3799              	.LBE1489:
 3800              	.LBB1491:
 3801              	.LBB1492:
 3802 05b4 94309DE5 		ldr	r3, [sp, #148]
 3803 05b8 50308DE5 		str	r3, [sp, #80]
 3804              	.LVL379:
 3805              	.LBE1492:
 3806              	.LBE1491:
 3807              	.LBB1493:
 3808              	.LBB1494:
 3809 05bc A8309DE5 		ldr	r3, [sp, #168]
 3810 05c0 74308DE5 		str	r3, [sp, #116]
 3811              	.LVL380:
 3812              	.LBE1494:
 3813              	.LBE1493:
 3814              	.LBB1495:
 3815              	.LBB1496:
 3816 05c4 AC309DE5 		ldr	r3, [sp, #172]
 3817 05c8 78308DE5 		str	r3, [sp, #120]
 3818              	.LVL381:
 3819              	.LBE1496:
 3820              	.LBE1495:
 3821              	.LBB1497:
 3822              		.loc 8 101 0
 3823 05cc BBFFFFDA 		ble	.L439
 3824 05d0 7530AFE6 		sxtb	r3, r5
 3825 05d4 00A0A0E3 		mov	r10, #0
 3826 05d8 0AB0A0E1 		mov	fp, r10
 3827 05dc 3C308DE5 		str	r3, [sp, #60]
 3828 05e0 DC31DDE1 		ldrsb	r3, [sp, #28]
 3829 05e4 40308DE5 		str	r3, [sp, #64]
 3830              	.LVL382:
 3831              	.L451:
 3832              	.LBB1425:
 102:C:/Renesas/e2studio_2021_01_workspace_RZA2M_ANPR/ANPR_RZA2M_RDK/src/tensorflow_lite/tensorflow/lite/kernels/internal/reference/integer_ops\pooling.h ****     for (int out_y = 0; out_y < output_height; ++out_y) {
 3833              		.loc 8 102 0
 3834 05e8 74309DE5 		ldr	r3, [sp, #116]
 3835 05ec 000053E3 		cmp	r3, #0
 3836 05f0 B90000DA 		ble	.L453
 3837 05f4 58309DE5 		ldr	r3, [sp, #88]
 3838 05f8 002063E2 		rsb	r2, r3, #0
 3839 05fc 24208DE5 		str	r2, [sp, #36]
 3840 0600 64209DE5 		ldr	r2, [sp, #100]
 3841 0604 023083E0 		add	r3, r3, r2
 3842 0608 60308DE5 		str	r3, [sp, #96]
 3843 060c 0030A0E3 		mov	r3, #0
 3844 0610 20308DE5 		str	r3, [sp, #32]
 3845              	.LVL383:
 3846              	.L454:
 3847              	.LBB1426:
 103:C:/Renesas/e2studio_2021_01_workspace_RZA2M_ANPR/ANPR_RZA2M_RDK/src/tensorflow_lite/tensorflow/lite/kernels/internal/reference/integer_ops\pooling.h ****       for (int out_x = 0; out_x < output_width; ++out_x) {
 3848              		.loc 8 103 0
 3849 0614 78309DE5 		ldr	r3, [sp, #120]
 3850 0618 000053E3 		cmp	r3, #0
 3851 061c A10000DA 		ble	.L456
 3852 0620 5C109DE5 		ldr	r1, [sp, #92]
 3853              	.LBB1427:
 3854              	.LBB1428:
 104:C:/Renesas/e2studio_2021_01_workspace_RZA2M_ANPR/ANPR_RZA2M_RDK/src/tensorflow_lite/tensorflow/lite/kernels/internal/reference/integer_ops\pooling.h ****         for (int channel = 0; channel < depth; ++channel) {
 105:C:/Renesas/e2studio_2021_01_workspace_RZA2M_ANPR/ANPR_RZA2M_RDK/src/tensorflow_lite/tensorflow/lite/kernels/internal/reference/integer_ops\pooling.h ****           const int in_x_origin =
 106:C:/Renesas/e2studio_2021_01_workspace_RZA2M_ANPR/ANPR_RZA2M_RDK/src/tensorflow_lite/tensorflow/lite/kernels/internal/reference/integer_ops\pooling.h ****               (out_x * stride_width) - params.padding_values.width;
 107:C:/Renesas/e2studio_2021_01_workspace_RZA2M_ANPR/ANPR_RZA2M_RDK/src/tensorflow_lite/tensorflow/lite/kernels/internal/reference/integer_ops\pooling.h ****           const int in_y_origin =
 108:C:/Renesas/e2studio_2021_01_workspace_RZA2M_ANPR/ANPR_RZA2M_RDK/src/tensorflow_lite/tensorflow/lite/kernels/internal/reference/integer_ops\pooling.h ****               (out_y * stride_height) - params.padding_values.height;
 109:C:/Renesas/e2studio_2021_01_workspace_RZA2M_ANPR/ANPR_RZA2M_RDK/src/tensorflow_lite/tensorflow/lite/kernels/internal/reference/integer_ops\pooling.h ****           // Compute the boundaries of the filter region clamped so as to
 110:C:/Renesas/e2studio_2021_01_workspace_RZA2M_ANPR/ANPR_RZA2M_RDK/src/tensorflow_lite/tensorflow/lite/kernels/internal/reference/integer_ops\pooling.h ****           // ensure that the filter window fits in the input array.
 111:C:/Renesas/e2studio_2021_01_workspace_RZA2M_ANPR/ANPR_RZA2M_RDK/src/tensorflow_lite/tensorflow/lite/kernels/internal/reference/integer_ops\pooling.h ****           const int filter_x_start = std::max(0, -in_x_origin);
 112:C:/Renesas/e2studio_2021_01_workspace_RZA2M_ANPR/ANPR_RZA2M_RDK/src/tensorflow_lite/tensorflow/lite/kernels/internal/reference/integer_ops\pooling.h ****           const int filter_x_end =
 113:C:/Renesas/e2studio_2021_01_workspace_RZA2M_ANPR/ANPR_RZA2M_RDK/src/tensorflow_lite/tensorflow/lite/kernels/internal/reference/integer_ops\pooling.h ****               std::min(params.filter_width, input_width - in_x_origin);
 114:C:/Renesas/e2studio_2021_01_workspace_RZA2M_ANPR/ANPR_RZA2M_RDK/src/tensorflow_lite/tensorflow/lite/kernels/internal/reference/integer_ops\pooling.h ****           const int filter_y_start = std::max(0, -in_y_origin);
 115:C:/Renesas/e2studio_2021_01_workspace_RZA2M_ANPR/ANPR_RZA2M_RDK/src/tensorflow_lite/tensorflow/lite/kernels/internal/reference/integer_ops\pooling.h ****           const int filter_y_end =
 116:C:/Renesas/e2studio_2021_01_workspace_RZA2M_ANPR/ANPR_RZA2M_RDK/src/tensorflow_lite/tensorflow/lite/kernels/internal/reference/integer_ops\pooling.h ****               std::min(params.filter_height, input_height - in_y_origin);
 117:C:/Renesas/e2studio_2021_01_workspace_RZA2M_ANPR/ANPR_RZA2M_RDK/src/tensorflow_lite/tensorflow/lite/kernels/internal/reference/integer_ops\pooling.h ****           int8_t max = std::numeric_limits<int8_t>::lowest();
 3855              		.loc 8 117 0
 3856 0624 0B90A0E1 		mov	r9, fp
 3857 0628 50009DE5 		ldr	r0, [sp, #80]
 3858 062c 54209DE5 		ldr	r2, [sp, #84]
 3859 0630 60309DE5 		ldr	r3, [sp, #96]
 3860 0634 000081E0 		add	r0, r1, r0
 3861 0638 44008DE5 		str	r0, [sp, #68]
 3862 063c 24009DE5 		ldr	r0, [sp, #36]
 3863 0640 020053E1 		cmp	r3, r2
 3864 0644 0320A0B1 		movlt	r2, r3
 3865 0648 28208DE5 		str	r2, [sp, #40]
 3866 064c 002082E0 		add	r2, r2, r0
 3867 0650 000050E3 		cmp	r0, #0
 3868 0654 14208DE5 		str	r2, [sp, #20]
 3869 0658 64209DE5 		ldr	r2, [sp, #100]
 3870 065c 023043B0 		sublt	r3, r3, r2
 3871 0660 0030A0A3 		movge	r3, #0
 3872 0664 2C308DE5 		str	r3, [sp, #44]
 3873 0668 003061E2 		rsb	r3, r1, #0
 3874 066c 4C308DE5 		str	r3, [sp, #76]
 3875              	.LBE1428:
 3876              	.LBE1427:
 103:C:/Renesas/e2studio_2021_01_workspace_RZA2M_ANPR/ANPR_RZA2M_RDK/src/tensorflow_lite/tensorflow/lite/kernels/internal/reference/integer_ops\pooling.h ****       for (int out_x = 0; out_x < output_width; ++out_x) {
 3877              		.loc 8 103 0
 3878 0670 0030A0E3 		mov	r3, #0
 3879 0674 1C308DE5 		str	r3, [sp, #28]
 3880              	.LVL384:
 3881              	.L457:
 3882              	.LBB1473:
 104:C:/Renesas/e2studio_2021_01_workspace_RZA2M_ANPR/ANPR_RZA2M_RDK/src/tensorflow_lite/tensorflow/lite/kernels/internal/reference/integer_ops\pooling.h ****         for (int channel = 0; channel < depth; ++channel) {
 3883              		.loc 8 104 0
 3884 0678 30309DE5 		ldr	r3, [sp, #48]
 3885 067c 000053E3 		cmp	r3, #0
 3886 0680 7A0000DA 		ble	.L489
 3887 0684 44109DE5 		ldr	r1, [sp, #68]
 3888              	.LBB1467:
 3889              	.LBB1429:
 3890              	.LBB1430:
 3891              	.LBB1431:
 118:C:/Renesas/e2studio_2021_01_workspace_RZA2M_ANPR/ANPR_RZA2M_RDK/src/tensorflow_lite/tensorflow/lite/kernels/internal/reference/integer_ops\pooling.h ****           for (int filter_y = filter_y_start; filter_y < filter_y_end;
 119:C:/Renesas/e2studio_2021_01_workspace_RZA2M_ANPR/ANPR_RZA2M_RDK/src/tensorflow_lite/tensorflow/lite/kernels/internal/reference/integer_ops\pooling.h ****                ++filter_y) {
 120:C:/Renesas/e2studio_2021_01_workspace_RZA2M_ANPR/ANPR_RZA2M_RDK/src/tensorflow_lite/tensorflow/lite/kernels/internal/reference/integer_ops\pooling.h ****             for (int filter_x = filter_x_start; filter_x < filter_x_end;
 121:C:/Renesas/e2studio_2021_01_workspace_RZA2M_ANPR/ANPR_RZA2M_RDK/src/tensorflow_lite/tensorflow/lite/kernels/internal/reference/integer_ops\pooling.h ****                  ++filter_x) {
 122:C:/Renesas/e2studio_2021_01_workspace_RZA2M_ANPR/ANPR_RZA2M_RDK/src/tensorflow_lite/tensorflow/lite/kernels/internal/reference/integer_ops\pooling.h ****               const int in_x = in_x_origin + filter_x;
 3892              		.loc 8 122 0
 3893 0688 0080A0E3 		mov	r8, #0
 3894 068c 48209DE5 		ldr	r2, [sp, #72]
 3895 0690 0130A0E1 		mov	r3, r1
 3896 0694 020051E1 		cmp	r1, r2
 3897 0698 0230A0A1 		movge	r3, r2
 3898 069c 4C209DE5 		ldr	r2, [sp, #76]
 3899 06a0 0300A0E1 		mov	r0, r3
 3900 06a4 04308DE5 		str	r3, [sp, #4]
 3901 06a8 0130A0E1 		mov	r3, r1
 3902 06ac 50109DE5 		ldr	r1, [sp, #80]
 3903 06b0 080052E1 		cmp	r2, r8
 3904 06b4 02E080E0 		add	lr, r0, r2
 3905 06b8 01B043B0 		sublt	fp, r3, r1
 3906 06bc 00B0A0A3 		movge	fp, #0
 3907 06c0 01308BE2 		add	r3, fp, #1
 3908 06c4 02608BE0 		add	r6, fp, r2
 3909 06c8 08B08DE5 		str	fp, [sp, #8]
 3910 06cc 08B0A0E1 		mov	fp, r8
 3911 06d0 023083E0 		add	r3, r3, r2
 3912 06d4 18308DE5 		str	r3, [sp, #24]
 3913              	.LVL385:
 3914              	.L490:
 3915              	.LBE1431:
 3916              	.LBE1430:
 118:C:/Renesas/e2studio_2021_01_workspace_RZA2M_ANPR/ANPR_RZA2M_RDK/src/tensorflow_lite/tensorflow/lite/kernels/internal/reference/integer_ops\pooling.h ****           for (int filter_y = filter_y_start; filter_y < filter_y_end;
 3917              		.loc 8 118 0
 3918 06d8 28209DE5 		ldr	r2, [sp, #40]
 3919 06dc 2C309DE5 		ldr	r3, [sp, #44]
 3920 06e0 030052E1 		cmp	r2, r3
 3921              	.LBE1429:
 117:C:/Renesas/e2studio_2021_01_workspace_RZA2M_ANPR/ANPR_RZA2M_RDK/src/tensorflow_lite/tensorflow/lite/kernels/internal/reference/integer_ops\pooling.h ****           for (int filter_y = filter_y_start; filter_y < filter_y_end;
 3922              		.loc 8 117 0
 3923 06e4 7F20E0E3 		mvn	r2, #127
 3924 06e8 8420CDE5 		strb	r2, [sp, #132]
 3925              	.LVL386:
 3926              	.LBB1455:
 118:C:/Renesas/e2studio_2021_01_workspace_RZA2M_ANPR/ANPR_RZA2M_RDK/src/tensorflow_lite/tensorflow/lite/kernels/internal/reference/integer_ops\pooling.h ****           for (int filter_y = filter_y_start; filter_y < filter_y_end;
 3927              		.loc 8 118 0
 3928 06ec 830100DA 		ble	.L515
 3929 06f0 24109DE5 		ldr	r1, [sp, #36]
 3930 06f4 0320A0E1 		mov	r2, r3
 3931              	.LBB1450:
 3932              	.LBB1444:
 3933              	.LBB1432:
 3934              	.LBB1433:
 407:C:/Renesas/e2studio_2021_01_workspace_RZA2M_ANPR/ANPR_RZA2M_RDK/src/tensorflow_lite/tensorflow/lite/kernels/internal\types.h ****   TFLITE_DCHECK(i2 >= 0 && i2 < dims_data[2]);
 3935              		.loc 6 407 0
 3936 06f8 90709DE5 		ldr	r7, [sp, #144]
 410:C:/Renesas/e2studio_2021_01_workspace_RZA2M_ANPR/ANPR_RZA2M_RDK/src/tensorflow_lite/tensorflow/lite/kernels/internal\types.h **** }
 3937              		.loc 6 410 0
 3938 06fc 7FA0E0E3 		mvn	r10, #127
 3939 0700 88509DE5 		ldr	r5, [sp, #136]
 408:C:/Renesas/e2studio_2021_01_workspace_RZA2M_ANPR/ANPR_RZA2M_RDK/src/tensorflow_lite/tensorflow/lite/kernels/internal\types.h ****   TFLITE_DCHECK(i3 >= 0 && i3 < dims_data[3]);
 3940              		.loc 6 408 0
 3941 0704 94C09DE5 		ldr	ip, [sp, #148]
 3942 0708 014083E0 		add	r4, r3, r1
 3943 070c 98009DE5 		ldr	r0, [sp, #152]
 410:C:/Renesas/e2studio_2021_01_workspace_RZA2M_ANPR/ANPR_RZA2M_RDK/src/tensorflow_lite/tensorflow/lite/kernels/internal\types.h **** }
 3944              		.loc 6 410 0
 3945 0710 0030A0E3 		mov	r3, #0
 3946              	.LVL387:
 3947 0714 10508DE5 		str	r5, [sp, #16]
 3948 0718 971925E0 		mla	r5, r7, r9, r1
 406:C:/Renesas/e2studio_2021_01_workspace_RZA2M_ANPR/ANPR_RZA2M_RDK/src/tensorflow_lite/tensorflow/lite/kernels/internal\types.h ****   TFLITE_DCHECK(i1 >= 0 && i1 < dims_data[1]);
 3949              		.loc 6 406 0
 3950 071c 8C109DE5 		ldr	r1, [sp, #140]
 3951 0720 900C08E0 		mul	r8, r0, ip
 3952 0724 025085E0 		add	r5, r5, r2
 3953 0728 34209DE5 		ldr	r2, [sp, #52]
 3954              	.LVL388:
 3955 072c 0C108DE5 		str	r1, [sp, #12]
 3956 0730 9C6525E0 		mla	r5, ip, r5, r6
 3957 0734 90B525E0 		mla	r5, r0, r5, fp
 3958 0738 055082E0 		add	r5, r2, r5
 3959              	.LVL389:
 3960              	.L461:
 3961              	.LBE1433:
 3962              	.LBE1432:
 3963              	.LBE1444:
 120:C:/Renesas/e2studio_2021_01_workspace_RZA2M_ANPR/ANPR_RZA2M_RDK/src/tensorflow_lite/tensorflow/lite/kernels/internal/reference/integer_ops\pooling.h ****                  ++filter_x) {
 3964              		.loc 8 120 0
 3965 073c 06009DE9 		ldmib	sp, {r1, r2}
 3966 0740 010052E1 		cmp	r2, r1
 3967 0744 1E0000AA 		bge	.L481
 3968              	.LVL390:
 3969              	.LBB1445:
 3970              	.LBB1439:
 3971              	.LBB1434:
 404:C:/Renesas/e2studio_2021_01_workspace_RZA2M_ANPR/ANPR_RZA2M_RDK/src/tensorflow_lite/tensorflow/lite/kernels/internal\types.h ****   const int* dims_data = reinterpret_cast<const int*>(shape.DimsDataUpTo5D());
 3972              		.loc 6 404 0
 3973 0748 10209DE5 		ldr	r2, [sp, #16]
 3974 074c 040052E3 		cmp	r2, #4
 3975 0750 8D01001A 		bne	.L462
 406:C:/Renesas/e2studio_2021_01_workspace_RZA2M_ANPR/ANPR_RZA2M_RDK/src/tensorflow_lite/tensorflow/lite/kernels/internal\types.h ****   TFLITE_DCHECK(i1 >= 0 && i1 < dims_data[1]);
 3976              		.loc 6 406 0
 3977 0754 0C209DE5 		ldr	r2, [sp, #12]
 3978 0758 090052E1 		cmp	r2, r9
 3979 075c 730100DA 		ble	.L463
 407:C:/Renesas/e2studio_2021_01_workspace_RZA2M_ANPR/ANPR_RZA2M_RDK/src/tensorflow_lite/tensorflow/lite/kernels/internal\types.h ****   TFLITE_DCHECK(i2 >= 0 && i2 < dims_data[2]);
 3980              		.loc 6 407 0
 3981 0760 000054E3 		cmp	r4, #0
 3982 0764 CD0100BA 		blt	.L464
 3983 0768 040057E1 		cmp	r7, r4
 3984 076c CB0100DA 		ble	.L464
 408:C:/Renesas/e2studio_2021_01_workspace_RZA2M_ANPR/ANPR_RZA2M_RDK/src/tensorflow_lite/tensorflow/lite/kernels/internal\types.h ****   TFLITE_DCHECK(i3 >= 0 && i3 < dims_data[3]);
 3985              		.loc 6 408 0
 3986 0770 000056E3 		cmp	r6, #0
 3987 0774 C10100BA 		blt	.L656
 3988 0778 0C0056E1 		cmp	r6, ip
 3989 077c BF0100AA 		bge	.L656
 3990 0780 0B0050E1 		cmp	r0, fp
 3991 0784 C10100DA 		ble	.L708
 3992 0788 18309DE5 		ldr	r3, [sp, #24]
 3993 078c 0510A0E1 		mov	r1, r5
 3994 0790 050000EA 		b	.L477
 3995              	.LVL391:
 3996              	.L640:
 3997 0794 000053E3 		cmp	r3, #0
 3998 0798 790100BA 		blt	.L655
 3999 079c 0C0053E1 		cmp	r3, ip
 4000 07a0 001081E0 		add	r1, r1, r0
 4001 07a4 013083E2 		add	r3, r3, #1
 4002              	.LVL392:
 4003 07a8 750100AA 		bge	.L655
 4004              	.LVL393:
 4005              	.L477:
 4006 07ac D020D1E1 		ldrsb	r2, [r1]
 4007 07b0 0A0052E1 		cmp	r2, r10
 4008 07b4 02A0A0A1 		movge	r10, r2
 4009              	.LVL394:
 4010              	.LBE1434:
 4011              	.LBE1439:
 4012              	.LBE1445:
 120:C:/Renesas/e2studio_2021_01_workspace_RZA2M_ANPR/ANPR_RZA2M_RDK/src/tensorflow_lite/tensorflow/lite/kernels/internal/reference/integer_ops\pooling.h ****                  ++filter_x) {
 4013              		.loc 8 120 0
 4014 07b8 03005EE1 		cmp	lr, r3
 4015 07bc F4FFFF1A 		bne	.L640
 4016 07c0 0130A0E3 		mov	r3, #1
 4017              	.LVL395:
 4018              	.L481:
 4019              	.LBE1450:
 118:C:/Renesas/e2studio_2021_01_workspace_RZA2M_ANPR/ANPR_RZA2M_RDK/src/tensorflow_lite/tensorflow/lite/kernels/internal/reference/integer_ops\pooling.h ****                ++filter_y) {
 4020              		.loc 8 118 0
 4021 07c4 14209DE5 		ldr	r2, [sp, #20]
 4022 07c8 014084E2 		add	r4, r4, #1
 4023 07cc 085085E0 		add	r5, r5, r8
 4024 07d0 020054E1 		cmp	r4, r2
 4025 07d4 D8FFFF1A 		bne	.L461
 4026 07d8 000053E3 		cmp	r3, #0
 4027 07dc 84A0CD15 		strbne	r10, [sp, #132]
 4028 07e0 D428DDE1 		ldrsb	r2, [sp, #132]
 4029              	.L458:
 4030              	.LVL396:
 4031 07e4 3C109DE5 		ldr	r1, [sp, #60]
 4032              	.LBE1455:
 4033              	.LBB1456:
 4034              	.LBB1457:
 404:C:/Renesas/e2studio_2021_01_workspace_RZA2M_ANPR/ANPR_RZA2M_RDK/src/tensorflow_lite/tensorflow/lite/kernels/internal\types.h ****   const int* dims_data = reinterpret_cast<const int*>(shape.DimsDataUpTo5D());
 4035              		.loc 6 404 0
 4036 07e8 A0309DE5 		ldr	r3, [sp, #160]
 4037 07ec 020051E1 		cmp	r1, r2
 4038 07f0 0120A0A1 		movge	r2, r1
 4039 07f4 40109DE5 		ldr	r1, [sp, #64]
 4040 07f8 010052E1 		cmp	r2, r1
 4041 07fc 0120A0A1 		movge	r2, r1
 4042              	.LVL397:
 4043 0800 040053E3 		cmp	r3, #4
 4044              	.LBE1457:
 4045              	.LBE1456:
 123:C:/Renesas/e2studio_2021_01_workspace_RZA2M_ANPR/ANPR_RZA2M_RDK/src/tensorflow_lite/tensorflow/lite/kernels/internal/reference/integer_ops\pooling.h ****               const int in_y = in_y_origin + filter_y;
 124:C:/Renesas/e2studio_2021_01_workspace_RZA2M_ANPR/ANPR_RZA2M_RDK/src/tensorflow_lite/tensorflow/lite/kernels/internal/reference/integer_ops\pooling.h ****               max = std::max(
 125:C:/Renesas/e2studio_2021_01_workspace_RZA2M_ANPR/ANPR_RZA2M_RDK/src/tensorflow_lite/tensorflow/lite/kernels/internal/reference/integer_ops\pooling.h ****                   max,
 126:C:/Renesas/e2studio_2021_01_workspace_RZA2M_ANPR/ANPR_RZA2M_RDK/src/tensorflow_lite/tensorflow/lite/kernels/internal/reference/integer_ops\pooling.h ****                   input_data[Offset(input_shape, batch, in_y, in_x, channel)]);
 127:C:/Renesas/e2studio_2021_01_workspace_RZA2M_ANPR/ANPR_RZA2M_RDK/src/tensorflow_lite/tensorflow/lite/kernels/internal/reference/integer_ops\pooling.h ****             }
 128:C:/Renesas/e2studio_2021_01_workspace_RZA2M_ANPR/ANPR_RZA2M_RDK/src/tensorflow_lite/tensorflow/lite/kernels/internal/reference/integer_ops\pooling.h ****           }
 129:C:/Renesas/e2studio_2021_01_workspace_RZA2M_ANPR/ANPR_RZA2M_RDK/src/tensorflow_lite/tensorflow/lite/kernels/internal/reference/integer_ops\pooling.h ****           max = std::max<int8_t>(max, params.quantized_activation_min);
 130:C:/Renesas/e2studio_2021_01_workspace_RZA2M_ANPR/ANPR_RZA2M_RDK/src/tensorflow_lite/tensorflow/lite/kernels/internal/reference/integer_ops\pooling.h ****           max = std::min<int8_t>(max, params.quantized_activation_max);
 4046              		.loc 8 130 0
 4047 0804 8420CDE5 		strb	r2, [sp, #132]
 4048              	.LVL398:
 4049              	.LBB1460:
 4050              	.LBB1458:
 404:C:/Renesas/e2studio_2021_01_workspace_RZA2M_ANPR/ANPR_RZA2M_RDK/src/tensorflow_lite/tensorflow/lite/kernels/internal\types.h ****   const int* dims_data = reinterpret_cast<const int*>(shape.DimsDataUpTo5D());
 4051              		.loc 6 404 0
 4052 0808 9701001A 		bne	.L709
 406:C:/Renesas/e2studio_2021_01_workspace_RZA2M_ANPR/ANPR_RZA2M_RDK/src/tensorflow_lite/tensorflow/lite/kernels/internal\types.h ****   TFLITE_DCHECK(i1 >= 0 && i1 < dims_data[1]);
 4053              		.loc 6 406 0
 4054 080c A4309DE5 		ldr	r3, [sp, #164]
 4055 0810 030059E1 		cmp	r9, r3
 4056 0814 950100AA 		bge	.L710
 407:C:/Renesas/e2studio_2021_01_workspace_RZA2M_ANPR/ANPR_RZA2M_RDK/src/tensorflow_lite/tensorflow/lite/kernels/internal\types.h ****   TFLITE_DCHECK(i2 >= 0 && i2 < dims_data[2]);
 4057              		.loc 6 407 0
 4058 0818 A8309DE5 		ldr	r3, [sp, #168]
 4059 081c 20109DE5 		ldr	r1, [sp, #32]
 4060 0820 010053E1 		cmp	r3, r1
 4061 0824 920100DA 		ble	.L711
 408:C:/Renesas/e2studio_2021_01_workspace_RZA2M_ANPR/ANPR_RZA2M_RDK/src/tensorflow_lite/tensorflow/lite/kernels/internal\types.h ****   TFLITE_DCHECK(i3 >= 0 && i3 < dims_data[3]);
 4062              		.loc 6 408 0
 4063 0828 AC009DE5 		ldr	r0, [sp, #172]
 4064 082c 1C109DE5 		ldr	r1, [sp, #28]
 4065 0830 000051E1 		cmp	r1, r0
 4066 0834 8F0100AA 		bge	.L712
 409:C:/Renesas/e2studio_2021_01_workspace_RZA2M_ANPR/ANPR_RZA2M_RDK/src/tensorflow_lite/tensorflow/lite/kernels/internal\types.h ****   return ((i0 * dims_data[1] + i1) * dims_data[2] + i2) * dims_data[3] + i3;
 4067              		.loc 6 409 0
 4068 0838 B0109DE5 		ldr	r1, [sp, #176]
 4069 083c 01005BE1 		cmp	fp, r1
 4070 0840 8D0100AA 		bge	.L713
 4071              	.LVL399:
 410:C:/Renesas/e2studio_2021_01_workspace_RZA2M_ANPR/ANPR_RZA2M_RDK/src/tensorflow_lite/tensorflow/lite/kernels/internal\types.h **** }
 4072              		.loc 6 410 0
 4073 0844 20C09DE5 		ldr	ip, [sp, #32]
 4074 0848 93C923E0 		mla	r3, r3, r9, ip
 4075 084c 1CC09DE5 		ldr	ip, [sp, #28]
 4076 0850 90C323E0 		mla	r3, r0, r3, ip
 4077              	.LBE1458:
 4078              	.LBE1460:
 131:C:/Renesas/e2studio_2021_01_workspace_RZA2M_ANPR/ANPR_RZA2M_RDK/src/tensorflow_lite/tensorflow/lite/kernels/internal/reference/integer_ops\pooling.h ****           output_data[Offset(output_shape, batch, out_y, out_x, channel)] =
 4079              		.loc 8 131 0
 4080 0854 38009DE5 		ldr	r0, [sp, #56]
 4081 0858 910323E0 		mla	r3, r1, r3, r0
 4082 085c 0B20C3E7 		strb	r2, [r3, fp]
 4083              	.LVL400:
 4084              	.LBE1467:
 104:C:/Renesas/e2studio_2021_01_workspace_RZA2M_ANPR/ANPR_RZA2M_RDK/src/tensorflow_lite/tensorflow/lite/kernels/internal/reference/integer_ops\pooling.h ****           const int in_x_origin =
 4085              		.loc 8 104 0
 4086 0860 01B08BE2 		add	fp, fp, #1
 4087              	.LVL401:
 4088 0864 30309DE5 		ldr	r3, [sp, #48]
 4089 0868 03005BE1 		cmp	fp, r3
 4090 086c 99FFFF1A 		bne	.L490
 4091              	.LVL402:
 4092              	.L489:
 4093 0870 44109DE5 		ldr	r1, [sp, #68]
 4094 0874 6C209DE5 		ldr	r2, [sp, #108]
 4095              	.LBE1473:
 103:C:/Renesas/e2studio_2021_01_workspace_RZA2M_ANPR/ANPR_RZA2M_RDK/src/tensorflow_lite/tensorflow/lite/kernels/internal/reference/integer_ops\pooling.h ****         for (int channel = 0; channel < depth; ++channel) {
 4096              		.loc 8 103 0
 4097 0878 1C309DE5 		ldr	r3, [sp, #28]
 4098 087c 021041E0 		sub	r1, r1, r2
 4099 0880 44108DE5 		str	r1, [sp, #68]
 4100 0884 013083E2 		add	r3, r3, #1
 4101 0888 78109DE5 		ldr	r1, [sp, #120]
 4102 088c 1C308DE5 		str	r3, [sp, #28]
 4103              	.LVL403:
 4104 0890 010053E1 		cmp	r3, r1
 4105 0894 4C309DE5 		ldr	r3, [sp, #76]
 4106              	.LVL404:
 4107 0898 023083E0 		add	r3, r3, r2
 4108 089c 4C308DE5 		str	r3, [sp, #76]
 4109 08a0 74FFFF1A 		bne	.L457
 4110 08a4 09B0A0E1 		mov	fp, r9
 4111              	.LVL405:
 4112              	.L456:
 4113 08a8 24109DE5 		ldr	r1, [sp, #36]
 4114 08ac 68209DE5 		ldr	r2, [sp, #104]
 4115              	.LBE1426:
 102:C:/Renesas/e2studio_2021_01_workspace_RZA2M_ANPR/ANPR_RZA2M_RDK/src/tensorflow_lite/tensorflow/lite/kernels/internal/reference/integer_ops\pooling.h ****       for (int out_x = 0; out_x < output_width; ++out_x) {
 4116              		.loc 8 102 0
 4117 08b0 20309DE5 		ldr	r3, [sp, #32]
 4118 08b4 021081E0 		add	r1, r1, r2
 4119 08b8 24108DE5 		str	r1, [sp, #36]
 4120 08bc 013083E2 		add	r3, r3, #1
 4121 08c0 74109DE5 		ldr	r1, [sp, #116]
 4122 08c4 20308DE5 		str	r3, [sp, #32]
 4123              	.LVL406:
 4124 08c8 010053E1 		cmp	r3, r1
 4125 08cc 60309DE5 		ldr	r3, [sp, #96]
 4126              	.LVL407:
 4127 08d0 023043E0 		sub	r3, r3, r2
 4128 08d4 60308DE5 		str	r3, [sp, #96]
 4129 08d8 4DFFFF1A 		bne	.L454
 4130              	.LVL408:
 4131              	.L453:
 4132              	.LBE1425:
 101:C:/Renesas/e2studio_2021_01_workspace_RZA2M_ANPR/ANPR_RZA2M_RDK/src/tensorflow_lite/tensorflow/lite/kernels/internal/reference/integer_ops\pooling.h ****     for (int out_y = 0; out_y < output_height; ++out_y) {
 4133              		.loc 8 101 0
 4134 08dc 70309DE5 		ldr	r3, [sp, #112]
 4135 08e0 01B08BE2 		add	fp, fp, #1
 4136              	.LVL409:
 4137 08e4 03005BE1 		cmp	fp, r3
 4138 08e8 3EFFFF1A 		bne	.L451
 4139 08ec F40000EA 		b	.L450
 4140              	.LVL410:
 4141              	.L700:
 4142              	.LEHB26:
 4143              	.LBE1497:
 4144              	.LBE1413:
 4145              	.LBE1412:
 141:../src/tensorflow_lite/tensorflow/lite/micro/kernels/pooling.cc ****                            tflite::micro::GetTensorData<uint8_t>(input),
 4146              		.loc 1 141 0
 4147 08f0 FEFFFFEB 		bl	_ZN6tflite5micro14GetTensorShapeEPK16TfLiteEvalTensor
 4148              	.LVL411:
 4149              	.LEHE26:
 4150              	.LBB1511:
 4151              	.LBB1512:
 4152              		.loc 4 63 0
 4153 08f4 003097E5 		ldr	r3, [r7]
 4154              	.LBE1512:
 4155              	.LBE1511:
 143:../src/tensorflow_lite/tensorflow/lite/micro/kernels/pooling.cc ****                            tflite::micro::GetTensorData<uint8_t>(output));
 4156              		.loc 1 143 0
 4157 08f8 0410A0E1 		mov	r1, r4
 4158 08fc A0008DE2 		add	r0, sp, #160
 4159              	.LBB1514:
 4160              	.LBB1513:
 4161              		.loc 4 63 0
 4162 0900 34308DE5 		str	r3, [sp, #52]
 4163              	.LVL412:
 4164              	.LEHB27:
 4165              	.LBE1513:
 4166              	.LBE1514:
 143:../src/tensorflow_lite/tensorflow/lite/micro/kernels/pooling.cc ****                            tflite::micro::GetTensorData<uint8_t>(output));
 4167              		.loc 1 143 0
 4168 0904 FEFFFFEB 		bl	_ZN6tflite5micro14GetTensorShapeEPK16TfLiteEvalTensor
 4169              	.LVL413:
 4170              	.LEHE27:
 4171              	.LBB1515:
 4172              	.LBB1516:
  56:C:/Renesas/e2studio_2021_01_workspace_RZA2M_ANPR/ANPR_RZA2M_RDK/src/tensorflow_lite/tensorflow/lite/micro/kernels\kernel_util.h **** }
 4173              		.loc 4 56 0
 4174 0908 000054E3 		cmp	r4, #0
 4175 090c 00309415 		ldrne	r3, [r4]
 4176 0910 38408D05 		streq	r4, [sp, #56]
 4177              	.LVL414:
 4178 0914 38308D15 		strne	r3, [sp, #56]
 4179              	.LVL415:
 4180              	.LBE1516:
 4181              	.LBE1515:
 4182              	.LBB1517:
 4183              	.LBB1518:
 233:C:/Renesas/e2studio_2021_01_workspace_RZA2M_ANPR/ANPR_RZA2M_RDK/src/tensorflow_lite/tensorflow/lite/kernels/internal/reference\pooling.h ****                                            params.float_activation_max);
 234:C:/Renesas/e2studio_2021_01_workspace_RZA2M_ANPR/ANPR_RZA2M_RDK/src/tensorflow_lite/tensorflow/lite/kernels/internal/reference\pooling.h ****         }
 235:C:/Renesas/e2studio_2021_01_workspace_RZA2M_ANPR/ANPR_RZA2M_RDK/src/tensorflow_lite/tensorflow/lite/kernels/internal/reference\pooling.h ****       }
 236:C:/Renesas/e2studio_2021_01_workspace_RZA2M_ANPR/ANPR_RZA2M_RDK/src/tensorflow_lite/tensorflow/lite/kernels/internal/reference\pooling.h ****     }
 237:C:/Renesas/e2studio_2021_01_workspace_RZA2M_ANPR/ANPR_RZA2M_RDK/src/tensorflow_lite/tensorflow/lite/kernels/internal/reference\pooling.h ****   }
 238:C:/Renesas/e2studio_2021_01_workspace_RZA2M_ANPR/ANPR_RZA2M_RDK/src/tensorflow_lite/tensorflow/lite/kernels/internal/reference\pooling.h **** }
 239:C:/Renesas/e2studio_2021_01_workspace_RZA2M_ANPR/ANPR_RZA2M_RDK/src/tensorflow_lite/tensorflow/lite/kernels/internal/reference\pooling.h **** 
 240:C:/Renesas/e2studio_2021_01_workspace_RZA2M_ANPR/ANPR_RZA2M_RDK/src/tensorflow_lite/tensorflow/lite/kernels/internal/reference\pooling.h **** inline void MaxPool(const PoolParams& params, const RuntimeShape& input_shape,
 241:C:/Renesas/e2studio_2021_01_workspace_RZA2M_ANPR/ANPR_RZA2M_RDK/src/tensorflow_lite/tensorflow/lite/kernels/internal/reference\pooling.h ****                     const uint8_t* input_data, const RuntimeShape& output_shape,
 242:C:/Renesas/e2studio_2021_01_workspace_RZA2M_ANPR/ANPR_RZA2M_RDK/src/tensorflow_lite/tensorflow/lite/kernels/internal/reference\pooling.h ****                     uint8_t* output_data) {
 243:C:/Renesas/e2studio_2021_01_workspace_RZA2M_ANPR/ANPR_RZA2M_RDK/src/tensorflow_lite/tensorflow/lite/kernels/internal/reference\pooling.h ****   TFLITE_DCHECK_LE(params.quantized_activation_min,
 244:C:/Renesas/e2studio_2021_01_workspace_RZA2M_ANPR/ANPR_RZA2M_RDK/src/tensorflow_lite/tensorflow/lite/kernels/internal/reference\pooling.h ****                    params.quantized_activation_max);
 4184              		.loc 5 244 0
 4185 0918 1C309DE5 		ldr	r3, [sp, #28]
 4186 091c 030055E1 		cmp	r5, r3
 4187 0920 330100CA 		bgt	.L714
 245:C:/Renesas/e2studio_2021_01_workspace_RZA2M_ANPR/ANPR_RZA2M_RDK/src/tensorflow_lite/tensorflow/lite/kernels/internal/reference\pooling.h ****   TFLITE_DCHECK_GE(params.quantized_activation_min, 0);
 4188              		.loc 5 245 0
 4189 0924 000055E3 		cmp	r5, #0
 4190 0928 360100BA 		blt	.L715
 246:C:/Renesas/e2studio_2021_01_workspace_RZA2M_ANPR/ANPR_RZA2M_RDK/src/tensorflow_lite/tensorflow/lite/kernels/internal/reference\pooling.h ****   TFLITE_DCHECK_LE(params.quantized_activation_max, 255);
 4191              		.loc 5 246 0
 4192 092c FF0053E3 		cmp	r3, #255
 4193 0930 330100CA 		bgt	.L716
 4194              	.LVL416:
 247:C:/Renesas/e2studio_2021_01_workspace_RZA2M_ANPR/ANPR_RZA2M_RDK/src/tensorflow_lite/tensorflow/lite/kernels/internal/reference\pooling.h ****   TFLITE_DCHECK_EQ(input_shape.DimensionsCount(), 4);
 4195              		.loc 5 247 0
 4196 0934 88309DE5 		ldr	r3, [sp, #136]
 4197 0938 040053E3 		cmp	r3, #4
 4198 093c 2F01001A 		bne	.L717
 4199              	.LVL417:
 248:C:/Renesas/e2studio_2021_01_workspace_RZA2M_ANPR/ANPR_RZA2M_RDK/src/tensorflow_lite/tensorflow/lite/kernels/internal/reference\pooling.h ****   TFLITE_DCHECK_EQ(output_shape.DimensionsCount(), 4);
 4200              		.loc 5 248 0
 4201 0940 A0309DE5 		ldr	r3, [sp, #160]
 4202 0944 040053E3 		cmp	r3, #4
 4203 0948 2B01001A 		bne	.L718
 4204              	.LVL418:
 4205              	.LBB1519:
 4206              	.LBB1520:
 4207              	.LBB1521:
 4208              	.LBB1522:
 216:C:/Renesas/e2studio_2021_01_workspace_RZA2M_ANPR/ANPR_RZA2M_RDK/src/tensorflow_lite/tensorflow/lite/kernels/internal\types.h ****   }
 4209              		.loc 6 216 0
 4210 094c 8C309DE5 		ldr	r3, [sp, #140]
 4211 0950 0320A0E1 		mov	r2, r3
 4212 0954 60308DE5 		str	r3, [sp, #96]
 4213              	.LVL419:
 4214              	.LBE1522:
 4215              	.LBE1521:
 4216              		.loc 6 472 0
 4217 0958 A4309DE5 		ldr	r3, [sp, #164]
 4218 095c 030052E1 		cmp	r2, r3
 4219 0960 2E01001A 		bne	.L719
 4220              	.LVL420:
 4221              	.LBE1520:
 4222              	.LBE1519:
 4223              	.LBB1524:
 4224              	.LBB1525:
 4225              	.LBB1526:
 4226              	.LBB1527:
 216:C:/Renesas/e2studio_2021_01_workspace_RZA2M_ANPR/ANPR_RZA2M_RDK/src/tensorflow_lite/tensorflow/lite/kernels/internal\types.h ****   }
 4227              		.loc 6 216 0
 4228 0964 98309DE5 		ldr	r3, [sp, #152]
 4229 0968 0320A0E1 		mov	r2, r3
 4230 096c 44308DE5 		str	r3, [sp, #68]
 4231              	.LVL421:
 4232              	.LBE1527:
 4233              	.LBE1526:
 4234              		.loc 6 472 0
 4235 0970 B0309DE5 		ldr	r3, [sp, #176]
 4236 0974 030052E1 		cmp	r2, r3
 4237 0978 2701001A 		bne	.L720
 4238              	.LVL422:
 4239              	.LBE1525:
 4240              	.LBE1524:
 4241              	.LBB1529:
 249:C:/Renesas/e2studio_2021_01_workspace_RZA2M_ANPR/ANPR_RZA2M_RDK/src/tensorflow_lite/tensorflow/lite/kernels/internal/reference\pooling.h ****   const int batches = MatchingDim(input_shape, 0, output_shape, 0);
 250:C:/Renesas/e2studio_2021_01_workspace_RZA2M_ANPR/ANPR_RZA2M_RDK/src/tensorflow_lite/tensorflow/lite/kernels/internal/reference\pooling.h ****   const int depth = MatchingDim(input_shape, 3, output_shape, 3);
 251:C:/Renesas/e2studio_2021_01_workspace_RZA2M_ANPR/ANPR_RZA2M_RDK/src/tensorflow_lite/tensorflow/lite/kernels/internal/reference\pooling.h ****   const int input_height = input_shape.Dims(1);
 252:C:/Renesas/e2studio_2021_01_workspace_RZA2M_ANPR/ANPR_RZA2M_RDK/src/tensorflow_lite/tensorflow/lite/kernels/internal/reference\pooling.h ****   const int input_width = input_shape.Dims(2);
 253:C:/Renesas/e2studio_2021_01_workspace_RZA2M_ANPR/ANPR_RZA2M_RDK/src/tensorflow_lite/tensorflow/lite/kernels/internal/reference\pooling.h ****   const int output_height = output_shape.Dims(1);
 254:C:/Renesas/e2studio_2021_01_workspace_RZA2M_ANPR/ANPR_RZA2M_RDK/src/tensorflow_lite/tensorflow/lite/kernels/internal/reference\pooling.h ****   const int output_width = output_shape.Dims(2);
 255:C:/Renesas/e2studio_2021_01_workspace_RZA2M_ANPR/ANPR_RZA2M_RDK/src/tensorflow_lite/tensorflow/lite/kernels/internal/reference\pooling.h ****   const int stride_height = params.stride_height;
 256:C:/Renesas/e2studio_2021_01_workspace_RZA2M_ANPR/ANPR_RZA2M_RDK/src/tensorflow_lite/tensorflow/lite/kernels/internal/reference\pooling.h ****   const int stride_width = params.stride_width;
 257:C:/Renesas/e2studio_2021_01_workspace_RZA2M_ANPR/ANPR_RZA2M_RDK/src/tensorflow_lite/tensorflow/lite/kernels/internal/reference\pooling.h ****   for (int batch = 0; batch < batches; ++batch) {
 4242              		.loc 5 257 0
 4243 097c 60309DE5 		ldr	r3, [sp, #96]
 4244 0980 000053E3 		cmp	r3, #0
 4245              	.LBE1529:
 4246              	.LBB1601:
 4247              	.LBB1602:
 216:C:/Renesas/e2studio_2021_01_workspace_RZA2M_ANPR/ANPR_RZA2M_RDK/src/tensorflow_lite/tensorflow/lite/kernels/internal\types.h ****   }
 4248              		.loc 6 216 0
 4249 0984 90309DE5 		ldr	r3, [sp, #144]
 4250 0988 64308DE5 		str	r3, [sp, #100]
 4251              	.LVL423:
 4252              	.LBE1602:
 4253              	.LBE1601:
 4254              	.LBB1603:
 4255              	.LBB1604:
 4256 098c 94309DE5 		ldr	r3, [sp, #148]
 4257 0990 70308DE5 		str	r3, [sp, #112]
 4258              	.LVL424:
 4259              	.LBE1604:
 4260              	.LBE1603:
 4261              	.LBB1605:
 4262              	.LBB1606:
 4263 0994 A8309DE5 		ldr	r3, [sp, #168]
 4264 0998 74308DE5 		str	r3, [sp, #116]
 4265              	.LVL425:
 4266              	.LBE1606:
 4267              	.LBE1605:
 4268              	.LBB1607:
 4269              	.LBB1608:
 4270 099c AC309DE5 		ldr	r3, [sp, #172]
 4271 09a0 78308DE5 		str	r3, [sp, #120]
 4272              	.LVL426:
 4273              	.LBE1608:
 4274              	.LBE1607:
 4275              	.LBB1609:
 4276              		.loc 5 257 0
 4277 09a4 C5FEFFDA 		ble	.L439
 4278 09a8 00B0A0E3 		mov	fp, #0
 4279              	.LBB1530:
 4280              	.LBB1531:
 4281              	.LBB1532:
 4282              	.LBB1533:
 4283              	.LBB1534:
 4284              	.LBB1535:
 224:c:\program files (x86)\gnu tools arm embedded\6 2017-q2-update\arm-none-eabi\include\c++\6.3.1\bits\stl_algobase.h **** 	return __b;
 4285              		.loc 7 224 0
 4286 09ac 7530EFE6 		uxtb	r3, r5
 4287              	.LBE1535:
 4288              	.LBE1534:
 4289              	.LBE1533:
 4290              	.LBE1532:
 4291              	.LBE1531:
 4292              	.LBE1530:
 4293              		.loc 5 257 0
 4294 09b0 0BA0A0E1 		mov	r10, fp
 4295              	.LBB1597:
 4296              	.LBB1592:
 4297              	.LBB1585:
 4298              	.LBB1578:
 4299              	.LBB1539:
 4300              	.LBB1536:
 224:c:\program files (x86)\gnu tools arm embedded\6 2017-q2-update\arm-none-eabi\include\c++\6.3.1\bits\stl_algobase.h **** 	return __b;
 4301              		.loc 7 224 0
 4302 09b4 2C308DE5 		str	r3, [sp, #44]
 4303              	.LVL427:
 4304              	.L393:
 4305              	.LBE1536:
 4306              	.LBE1539:
 4307              	.LBE1578:
 4308              	.LBE1585:
 4309              	.LBE1592:
 258:C:/Renesas/e2studio_2021_01_workspace_RZA2M_ANPR/ANPR_RZA2M_RDK/src/tensorflow_lite/tensorflow/lite/kernels/internal/reference\pooling.h ****     for (int out_y = 0; out_y < output_height; ++out_y) {
 4310              		.loc 5 258 0
 4311 09b8 74309DE5 		ldr	r3, [sp, #116]
 4312 09bc 000053E3 		cmp	r3, #0
 4313 09c0 BB0000DA 		ble	.L395
 4314 09c4 0030A0E3 		mov	r3, #0
 4315 09c8 24308DE5 		str	r3, [sp, #36]
 4316 09cc 58309DE5 		ldr	r3, [sp, #88]
 4317 09d0 002063E2 		rsb	r2, r3, #0
 4318 09d4 28208DE5 		str	r2, [sp, #40]
 4319 09d8 64209DE5 		ldr	r2, [sp, #100]
 4320 09dc 023083E0 		add	r3, r3, r2
 4321 09e0 50308DE5 		str	r3, [sp, #80]
 4322              	.LVL428:
 4323              	.L396:
 4324              	.LBB1593:
 259:C:/Renesas/e2studio_2021_01_workspace_RZA2M_ANPR/ANPR_RZA2M_RDK/src/tensorflow_lite/tensorflow/lite/kernels/internal/reference\pooling.h ****       for (int out_x = 0; out_x < output_width; ++out_x) {
 4325              		.loc 5 259 0
 4326 09e4 78309DE5 		ldr	r3, [sp, #120]
 4327 09e8 000053E3 		cmp	r3, #0
 4328 09ec A30000DA 		ble	.L398
 4329              	.LBB1586:
 4330              	.LBB1579:
 4331              	.LBB1540:
 4332              	.LBB1541:
 200:c:\program files (x86)\gnu tools arm embedded\6 2017-q2-update\arm-none-eabi\include\c++\6.3.1\bits\stl_algobase.h **** 	return __b;
 4333              		.loc 7 200 0
 4334 09f0 1C10DDE5 		ldrb	r1, [sp, #28]	@ zero_extendqisi2
 4335              	.LBE1541:
 4336              	.LBE1540:
 4337              	.LBE1579:
 4338              	.LBE1586:
 4339              		.loc 5 259 0
 4340 09f4 0A90A0E1 		mov	r9, r10
 4341 09f8 54209DE5 		ldr	r2, [sp, #84]
 4342 09fc 50309DE5 		ldr	r3, [sp, #80]
 4343              	.LBB1587:
 4344              	.LBB1580:
 4345              	.LBB1543:
 4346              	.LBB1542:
 200:c:\program files (x86)\gnu tools arm embedded\6 2017-q2-update\arm-none-eabi\include\c++\6.3.1\bits\stl_algobase.h **** 	return __b;
 4347              		.loc 7 200 0
 4348 0a00 7C108DE5 		str	r1, [sp, #124]
 4349 0a04 28109DE5 		ldr	r1, [sp, #40]
 4350 0a08 020053E1 		cmp	r3, r2
 4351 0a0c 0320A0B1 		movlt	r2, r3
 4352 0a10 30208DE5 		str	r2, [sp, #48]
 4353 0a14 012082E0 		add	r2, r2, r1
 4354 0a18 14208DE5 		str	r2, [sp, #20]
 4355 0a1c 000051E3 		cmp	r1, #0
 4356 0a20 64209DE5 		ldr	r2, [sp, #100]
 4357 0a24 023043B0 		sublt	r3, r3, r2
 4358 0a28 0030A0A3 		movge	r3, #0
 4359 0a2c 70209DE5 		ldr	r2, [sp, #112]
 4360 0a30 3C308DE5 		str	r3, [sp, #60]
 4361 0a34 5C309DE5 		ldr	r3, [sp, #92]
 4362 0a38 022083E0 		add	r2, r3, r2
 4363 0a3c 003063E2 		rsb	r3, r3, #0
 4364 0a40 4C308DE5 		str	r3, [sp, #76]
 4365              	.LBE1542:
 4366              	.LBE1543:
 4367              	.LBE1580:
 4368              	.LBE1587:
 4369              		.loc 5 259 0
 4370 0a44 0030A0E3 		mov	r3, #0
 4371 0a48 40208DE5 		str	r2, [sp, #64]
 4372 0a4c 20308DE5 		str	r3, [sp, #32]
 4373              	.LVL429:
 4374              	.L399:
 4375              	.LBB1588:
 260:C:/Renesas/e2studio_2021_01_workspace_RZA2M_ANPR/ANPR_RZA2M_RDK/src/tensorflow_lite/tensorflow/lite/kernels/internal/reference\pooling.h ****         for (int channel = 0; channel < depth; ++channel) {
 4376              		.loc 5 260 0
 4377 0a50 44309DE5 		ldr	r3, [sp, #68]
 4378 0a54 000053E3 		cmp	r3, #0
 4379 0a58 7A0000DA 		ble	.L433
 4380 0a5c 40109DE5 		ldr	r1, [sp, #64]
 4381              	.LBB1581:
 4382              	.LBB1544:
 4383              	.LBB1545:
 4384              	.LBB1546:
 261:C:/Renesas/e2studio_2021_01_workspace_RZA2M_ANPR/ANPR_RZA2M_RDK/src/tensorflow_lite/tensorflow/lite/kernels/internal/reference\pooling.h ****           const int in_x_origin =
 262:C:/Renesas/e2studio_2021_01_workspace_RZA2M_ANPR/ANPR_RZA2M_RDK/src/tensorflow_lite/tensorflow/lite/kernels/internal/reference\pooling.h ****               (out_x * stride_width) - params.padding_values.width;
 263:C:/Renesas/e2studio_2021_01_workspace_RZA2M_ANPR/ANPR_RZA2M_RDK/src/tensorflow_lite/tensorflow/lite/kernels/internal/reference\pooling.h ****           const int in_y_origin =
 264:C:/Renesas/e2studio_2021_01_workspace_RZA2M_ANPR/ANPR_RZA2M_RDK/src/tensorflow_lite/tensorflow/lite/kernels/internal/reference\pooling.h ****               (out_y * stride_height) - params.padding_values.height;
 265:C:/Renesas/e2studio_2021_01_workspace_RZA2M_ANPR/ANPR_RZA2M_RDK/src/tensorflow_lite/tensorflow/lite/kernels/internal/reference\pooling.h ****           // Compute the boundaries of the filter region clamped so as to
 266:C:/Renesas/e2studio_2021_01_workspace_RZA2M_ANPR/ANPR_RZA2M_RDK/src/tensorflow_lite/tensorflow/lite/kernels/internal/reference\pooling.h ****           // ensure that the filter window fits in the input array.
 267:C:/Renesas/e2studio_2021_01_workspace_RZA2M_ANPR/ANPR_RZA2M_RDK/src/tensorflow_lite/tensorflow/lite/kernels/internal/reference\pooling.h ****           const int filter_x_start = std::max(0, -in_x_origin);
 268:C:/Renesas/e2studio_2021_01_workspace_RZA2M_ANPR/ANPR_RZA2M_RDK/src/tensorflow_lite/tensorflow/lite/kernels/internal/reference\pooling.h ****           const int filter_x_end =
 269:C:/Renesas/e2studio_2021_01_workspace_RZA2M_ANPR/ANPR_RZA2M_RDK/src/tensorflow_lite/tensorflow/lite/kernels/internal/reference\pooling.h ****               std::min(params.filter_width, input_width - in_x_origin);
 270:C:/Renesas/e2studio_2021_01_workspace_RZA2M_ANPR/ANPR_RZA2M_RDK/src/tensorflow_lite/tensorflow/lite/kernels/internal/reference\pooling.h ****           const int filter_y_start = std::max(0, -in_y_origin);
 271:C:/Renesas/e2studio_2021_01_workspace_RZA2M_ANPR/ANPR_RZA2M_RDK/src/tensorflow_lite/tensorflow/lite/kernels/internal/reference\pooling.h ****           const int filter_y_end =
 272:C:/Renesas/e2studio_2021_01_workspace_RZA2M_ANPR/ANPR_RZA2M_RDK/src/tensorflow_lite/tensorflow/lite/kernels/internal/reference\pooling.h ****               std::min(params.filter_height, input_height - in_y_origin);
 273:C:/Renesas/e2studio_2021_01_workspace_RZA2M_ANPR/ANPR_RZA2M_RDK/src/tensorflow_lite/tensorflow/lite/kernels/internal/reference\pooling.h ****           uint8_t max = 0;
 274:C:/Renesas/e2studio_2021_01_workspace_RZA2M_ANPR/ANPR_RZA2M_RDK/src/tensorflow_lite/tensorflow/lite/kernels/internal/reference\pooling.h ****           for (int filter_y = filter_y_start; filter_y < filter_y_end;
 275:C:/Renesas/e2studio_2021_01_workspace_RZA2M_ANPR/ANPR_RZA2M_RDK/src/tensorflow_lite/tensorflow/lite/kernels/internal/reference\pooling.h ****                ++filter_y) {
 276:C:/Renesas/e2studio_2021_01_workspace_RZA2M_ANPR/ANPR_RZA2M_RDK/src/tensorflow_lite/tensorflow/lite/kernels/internal/reference\pooling.h ****             for (int filter_x = filter_x_start; filter_x < filter_x_end;
 277:C:/Renesas/e2studio_2021_01_workspace_RZA2M_ANPR/ANPR_RZA2M_RDK/src/tensorflow_lite/tensorflow/lite/kernels/internal/reference\pooling.h ****                  ++filter_x) {
 278:C:/Renesas/e2studio_2021_01_workspace_RZA2M_ANPR/ANPR_RZA2M_RDK/src/tensorflow_lite/tensorflow/lite/kernels/internal/reference\pooling.h ****               const int in_x = in_x_origin + filter_x;
 4385              		.loc 5 278 0
 4386 0a60 0080A0E3 		mov	r8, #0
 4387 0a64 48209DE5 		ldr	r2, [sp, #72]
 4388 0a68 0130A0E1 		mov	r3, r1
 4389 0a6c 020051E1 		cmp	r1, r2
 4390 0a70 0230A0A1 		movge	r3, r2
 4391 0a74 4C209DE5 		ldr	r2, [sp, #76]
 4392 0a78 0300A0E1 		mov	r0, r3
 4393 0a7c 08308DE5 		str	r3, [sp, #8]
 4394 0a80 0130A0E1 		mov	r3, r1
 4395 0a84 70109DE5 		ldr	r1, [sp, #112]
 4396 0a88 080052E1 		cmp	r2, r8
 4397 0a8c 02E080E0 		add	lr, r0, r2
 4398 0a90 01A043B0 		sublt	r10, r3, r1
 4399 0a94 00A0A0A3 		movge	r10, #0
 4400 0a98 01308AE2 		add	r3, r10, #1
 4401 0a9c 02608AE0 		add	r6, r10, r2
 4402 0aa0 023083E0 		add	r3, r3, r2
 4403 0aa4 18308DE5 		str	r3, [sp, #24]
 4404              	.LVL430:
 4405              	.L434:
 4406              	.LBE1546:
 4407              	.LBE1545:
 274:C:/Renesas/e2studio_2021_01_workspace_RZA2M_ANPR/ANPR_RZA2M_RDK/src/tensorflow_lite/tensorflow/lite/kernels/internal/reference\pooling.h ****                ++filter_y) {
 4408              		.loc 5 274 0
 4409 0aa8 30109DE5 		ldr	r1, [sp, #48]
 4410              	.LBE1544:
 273:C:/Renesas/e2studio_2021_01_workspace_RZA2M_ANPR/ANPR_RZA2M_RDK/src/tensorflow_lite/tensorflow/lite/kernels/internal/reference\pooling.h ****           for (int filter_y = filter_y_start; filter_y < filter_y_end;
 4411              		.loc 5 273 0
 4412 0aac 0030A0E3 		mov	r3, #0
 4413              	.LBB1564:
 274:C:/Renesas/e2studio_2021_01_workspace_RZA2M_ANPR/ANPR_RZA2M_RDK/src/tensorflow_lite/tensorflow/lite/kernels/internal/reference\pooling.h ****                ++filter_y) {
 4414              		.loc 5 274 0
 4415 0ab0 3C209DE5 		ldr	r2, [sp, #60]
 4416              	.LBE1564:
 273:C:/Renesas/e2studio_2021_01_workspace_RZA2M_ANPR/ANPR_RZA2M_RDK/src/tensorflow_lite/tensorflow/lite/kernels/internal/reference\pooling.h ****           for (int filter_y = filter_y_start; filter_y < filter_y_end;
 4417              		.loc 5 273 0
 4418 0ab4 8430CDE5 		strb	r3, [sp, #132]
 4419              	.LVL431:
 4420              	.LBB1565:
 274:C:/Renesas/e2studio_2021_01_workspace_RZA2M_ANPR/ANPR_RZA2M_RDK/src/tensorflow_lite/tensorflow/lite/kernels/internal/reference\pooling.h ****                ++filter_y) {
 4421              		.loc 5 274 0
 4422 0ab8 020051E1 		cmp	r1, r2
 4423 0abc B50000DA 		ble	.L400
 4424 0ac0 28109DE5 		ldr	r1, [sp, #40]
 4425              	.LBB1561:
 4426              	.LBB1557:
 4427              	.LBB1547:
 4428              	.LBB1548:
 410:C:/Renesas/e2studio_2021_01_workspace_RZA2M_ANPR/ANPR_RZA2M_RDK/src/tensorflow_lite/tensorflow/lite/kernels/internal\types.h **** }
 4429              		.loc 6 410 0
 4430 0ac4 0030A0E3 		mov	r3, #0
 407:C:/Renesas/e2studio_2021_01_workspace_RZA2M_ANPR/ANPR_RZA2M_RDK/src/tensorflow_lite/tensorflow/lite/kernels/internal\types.h ****   TFLITE_DCHECK(i2 >= 0 && i2 < dims_data[2]);
 4431              		.loc 6 407 0
 4432 0ac8 90709DE5 		ldr	r7, [sp, #144]
 410:C:/Renesas/e2studio_2021_01_workspace_RZA2M_ANPR/ANPR_RZA2M_RDK/src/tensorflow_lite/tensorflow/lite/kernels/internal\types.h **** }
 4433              		.loc 6 410 0
 4434 0acc 03B0A0E1 		mov	fp, r3
 4435 0ad0 88509DE5 		ldr	r5, [sp, #136]
 408:C:/Renesas/e2studio_2021_01_workspace_RZA2M_ANPR/ANPR_RZA2M_RDK/src/tensorflow_lite/tensorflow/lite/kernels/internal\types.h ****   TFLITE_DCHECK(i3 >= 0 && i3 < dims_data[3]);
 4436              		.loc 6 408 0
 4437 0ad4 94C09DE5 		ldr	ip, [sp, #148]
 4438 0ad8 024081E0 		add	r4, r1, r2
 4439 0adc 98009DE5 		ldr	r0, [sp, #152]
 4440 0ae0 0C508DE5 		str	r5, [sp, #12]
 4441 0ae4 991725E0 		mla	r5, r9, r7, r1
 406:C:/Renesas/e2studio_2021_01_workspace_RZA2M_ANPR/ANPR_RZA2M_RDK/src/tensorflow_lite/tensorflow/lite/kernels/internal\types.h ****   TFLITE_DCHECK(i1 >= 0 && i1 < dims_data[1]);
 4442              		.loc 6 406 0
 4443 0ae8 8C109DE5 		ldr	r1, [sp, #140]
 4444 0aec 025085E0 		add	r5, r5, r2
 4445 0af0 34209DE5 		ldr	r2, [sp, #52]
 4446              	.LVL432:
 4447 0af4 9C6525E0 		mla	r5, ip, r5, r6
 4448 0af8 10108DE5 		str	r1, [sp, #16]
 4449 0afc 9C0001E0 		mul	r1, ip, r0
 4450 0b00 908525E0 		mla	r5, r0, r5, r8
 4451 0b04 04108DE5 		str	r1, [sp, #4]
 4452 0b08 055082E0 		add	r5, r2, r5
 4453              	.LVL433:
 4454              	.L403:
 4455              	.LBE1548:
 4456              	.LBE1547:
 4457              	.LBE1557:
 276:C:/Renesas/e2studio_2021_01_workspace_RZA2M_ANPR/ANPR_RZA2M_RDK/src/tensorflow_lite/tensorflow/lite/kernels/internal/reference\pooling.h ****                  ++filter_x) {
 4458              		.loc 5 276 0
 4459 0b0c 08209DE5 		ldr	r2, [sp, #8]
 4460 0b10 02005AE1 		cmp	r10, r2
 4461 0b14 1E0000AA 		bge	.L424
 4462              	.LVL434:
 4463              	.LBB1558:
 4464              	.LBB1552:
 4465              	.LBB1549:
 404:C:/Renesas/e2studio_2021_01_workspace_RZA2M_ANPR/ANPR_RZA2M_RDK/src/tensorflow_lite/tensorflow/lite/kernels/internal\types.h ****   const int* dims_data = reinterpret_cast<const int*>(shape.DimsDataUpTo5D());
 4466              		.loc 6 404 0
 4467 0b18 0C209DE5 		ldr	r2, [sp, #12]
 4468 0b1c 040052E3 		cmp	r2, #4
 4469 0b20 A700001A 		bne	.L404
 406:C:/Renesas/e2studio_2021_01_workspace_RZA2M_ANPR/ANPR_RZA2M_RDK/src/tensorflow_lite/tensorflow/lite/kernels/internal\types.h ****   TFLITE_DCHECK(i1 >= 0 && i1 < dims_data[1]);
 4470              		.loc 6 406 0
 4471 0b24 10209DE5 		ldr	r2, [sp, #16]
 4472 0b28 020059E1 		cmp	r9, r2
 4473 0b2c 9E0000AA 		bge	.L405
 407:C:/Renesas/e2studio_2021_01_workspace_RZA2M_ANPR/ANPR_RZA2M_RDK/src/tensorflow_lite/tensorflow/lite/kernels/internal\types.h ****   TFLITE_DCHECK(i2 >= 0 && i2 < dims_data[2]);
 4474              		.loc 6 407 0
 4475 0b30 000054E3 		cmp	r4, #0
 4476 0b34 A90000BA 		blt	.L406
 4477 0b38 070054E1 		cmp	r4, r7
 4478 0b3c A70000AA 		bge	.L406
 408:C:/Renesas/e2studio_2021_01_workspace_RZA2M_ANPR/ANPR_RZA2M_RDK/src/tensorflow_lite/tensorflow/lite/kernels/internal\types.h ****   TFLITE_DCHECK(i3 >= 0 && i3 < dims_data[3]);
 4479              		.loc 6 408 0
 4480 0b40 000056E3 		cmp	r6, #0
 4481 0b44 A10000BA 		blt	.L651
 4482 0b48 06005CE1 		cmp	ip, r6
 4483 0b4c 9F0000DA 		ble	.L651
 4484 0b50 000058E1 		cmp	r8, r0
 4485 0b54 AC0000AA 		bge	.L721
 4486 0b58 18309DE5 		ldr	r3, [sp, #24]
 4487 0b5c 0510A0E1 		mov	r1, r5
 4488 0b60 050000EA 		b	.L419
 4489              	.LVL435:
 4490              	.L639:
 4491 0b64 000053E3 		cmp	r3, #0
 4492 0b68 930000BA 		blt	.L650
 4493 0b6c 03005CE1 		cmp	ip, r3
 4494 0b70 001081E0 		add	r1, r1, r0
 4495 0b74 013083E2 		add	r3, r3, #1
 4496              	.LVL436:
 4497 0b78 8F0000DA 		ble	.L650
 4498              	.LVL437:
 4499              	.L419:
 4500              	.LBE1549:
 4501              	.LBE1552:
 4502              	.LBB1553:
 4503              	.LBB1554:
 224:c:\program files (x86)\gnu tools arm embedded\6 2017-q2-update\arm-none-eabi\include\c++\6.3.1\bits\stl_algobase.h **** 	return __b;
 4504              		.loc 7 224 0
 4505 0b7c 0020D1E5 		ldrb	r2, [r1]	@ zero_extendqisi2
 4506 0b80 02005BE1 		cmp	fp, r2
 4507 0b84 02B0A0B1 		movlt	fp, r2
 4508              	.LVL438:
 4509              	.LBE1554:
 4510              	.LBE1553:
 4511              	.LBE1558:
 276:C:/Renesas/e2studio_2021_01_workspace_RZA2M_ANPR/ANPR_RZA2M_RDK/src/tensorflow_lite/tensorflow/lite/kernels/internal/reference\pooling.h ****                  ++filter_x) {
 4512              		.loc 5 276 0
 4513 0b88 0E0053E1 		cmp	r3, lr
 4514 0b8c F4FFFF1A 		bne	.L639
 4515 0b90 0130A0E3 		mov	r3, #1
 4516              	.LVL439:
 4517              	.L424:
 4518 0b94 04209DE5 		ldr	r2, [sp, #4]
 4519 0b98 014084E2 		add	r4, r4, #1
 4520 0b9c 025085E0 		add	r5, r5, r2
 4521              	.LBE1561:
 274:C:/Renesas/e2studio_2021_01_workspace_RZA2M_ANPR/ANPR_RZA2M_RDK/src/tensorflow_lite/tensorflow/lite/kernels/internal/reference\pooling.h ****                ++filter_y) {
 4522              		.loc 5 274 0
 4523 0ba0 14209DE5 		ldr	r2, [sp, #20]
 4524 0ba4 040052E1 		cmp	r2, r4
 4525 0ba8 D7FFFF1A 		bne	.L403
 4526 0bac 000053E3 		cmp	r3, #0
 4527              	.LBE1565:
 4528              	.LBB1566:
 4529              	.LBB1537:
 224:c:\program files (x86)\gnu tools arm embedded\6 2017-q2-update\arm-none-eabi\include\c++\6.3.1\bits\stl_algobase.h **** 	return __b;
 4530              		.loc 7 224 0
 4531 0bb0 2C309DE5 		ldr	r3, [sp, #44]
 4532 0bb4 84B0CD15 		strbne	fp, [sp, #132]
 4533 0bb8 8420DDE5 		ldrb	r2, [sp, #132]	@ zero_extendqisi2
 4534              	.LVL440:
 4535 0bbc 020053E1 		cmp	r3, r2
 4536 0bc0 000000DA 		ble	.L427
 4537              	.L505:
 4538              	.LBE1537:
 4539              	.LBE1566:
 279:C:/Renesas/e2studio_2021_01_workspace_RZA2M_ANPR/ANPR_RZA2M_RDK/src/tensorflow_lite/tensorflow/lite/kernels/internal/reference\pooling.h ****               const int in_y = in_y_origin + filter_y;
 280:C:/Renesas/e2studio_2021_01_workspace_RZA2M_ANPR/ANPR_RZA2M_RDK/src/tensorflow_lite/tensorflow/lite/kernels/internal/reference\pooling.h ****               max = std::max(
 281:C:/Renesas/e2studio_2021_01_workspace_RZA2M_ANPR/ANPR_RZA2M_RDK/src/tensorflow_lite/tensorflow/lite/kernels/internal/reference\pooling.h ****                   max,
 282:C:/Renesas/e2studio_2021_01_workspace_RZA2M_ANPR/ANPR_RZA2M_RDK/src/tensorflow_lite/tensorflow/lite/kernels/internal/reference\pooling.h ****                   input_data[Offset(input_shape, batch, in_y, in_x, channel)]);
 283:C:/Renesas/e2studio_2021_01_workspace_RZA2M_ANPR/ANPR_RZA2M_RDK/src/tensorflow_lite/tensorflow/lite/kernels/internal/reference\pooling.h ****             }
 284:C:/Renesas/e2studio_2021_01_workspace_RZA2M_ANPR/ANPR_RZA2M_RDK/src/tensorflow_lite/tensorflow/lite/kernels/internal/reference\pooling.h ****           }
 285:C:/Renesas/e2studio_2021_01_workspace_RZA2M_ANPR/ANPR_RZA2M_RDK/src/tensorflow_lite/tensorflow/lite/kernels/internal/reference\pooling.h ****           max = std::max<uint8_t>(max, params.quantized_activation_min);
 4540              		.loc 5 285 0
 4541 0bc4 2C209DE5 		ldr	r2, [sp, #44]
 4542              	.L427:
 4543              	.LVL441:
 286:C:/Renesas/e2studio_2021_01_workspace_RZA2M_ANPR/ANPR_RZA2M_RDK/src/tensorflow_lite/tensorflow/lite/kernels/internal/reference\pooling.h ****           max = std::min<uint8_t>(max, params.quantized_activation_max);
 4544              		.loc 5 286 0
 4545 0bc8 7C309DE5 		ldr	r3, [sp, #124]
 4546 0bcc 030052E1 		cmp	r2, r3
 4547 0bd0 0320A0A1 		movge	r2, r3
 4548              	.LVL442:
 4549              	.L428:
 4550              	.LBB1567:
 4551              	.LBB1568:
 404:C:/Renesas/e2studio_2021_01_workspace_RZA2M_ANPR/ANPR_RZA2M_RDK/src/tensorflow_lite/tensorflow/lite/kernels/internal\types.h ****   const int* dims_data = reinterpret_cast<const int*>(shape.DimsDataUpTo5D());
 4552              		.loc 6 404 0
 4553 0bd4 A0309DE5 		ldr	r3, [sp, #160]
 4554              	.LBE1568:
 4555              	.LBE1567:
 4556              		.loc 5 286 0
 4557 0bd8 8420CDE5 		strb	r2, [sp, #132]
 4558              	.LVL443:
 4559              	.LBB1572:
 4560              	.LBB1569:
 404:C:/Renesas/e2studio_2021_01_workspace_RZA2M_ANPR/ANPR_RZA2M_RDK/src/tensorflow_lite/tensorflow/lite/kernels/internal\types.h ****   const int* dims_data = reinterpret_cast<const int*>(shape.DimsDataUpTo5D());
 4561              		.loc 6 404 0
 4562 0bdc 040053E3 		cmp	r3, #4
 4563 0be0 9200001A 		bne	.L722
 406:C:/Renesas/e2studio_2021_01_workspace_RZA2M_ANPR/ANPR_RZA2M_RDK/src/tensorflow_lite/tensorflow/lite/kernels/internal\types.h ****   TFLITE_DCHECK(i1 >= 0 && i1 < dims_data[1]);
 4564              		.loc 6 406 0
 4565 0be4 A4309DE5 		ldr	r3, [sp, #164]
 4566 0be8 030059E1 		cmp	r9, r3
 4567 0bec 8E0000AA 		bge	.L723
 407:C:/Renesas/e2studio_2021_01_workspace_RZA2M_ANPR/ANPR_RZA2M_RDK/src/tensorflow_lite/tensorflow/lite/kernels/internal\types.h ****   TFLITE_DCHECK(i2 >= 0 && i2 < dims_data[2]);
 4568              		.loc 6 407 0
 4569 0bf0 A8309DE5 		ldr	r3, [sp, #168]
 4570 0bf4 24109DE5 		ldr	r1, [sp, #36]
 4571 0bf8 030051E1 		cmp	r1, r3
 4572 0bfc 890000AA 		bge	.L724
 408:C:/Renesas/e2studio_2021_01_workspace_RZA2M_ANPR/ANPR_RZA2M_RDK/src/tensorflow_lite/tensorflow/lite/kernels/internal\types.h ****   TFLITE_DCHECK(i3 >= 0 && i3 < dims_data[3]);
 4573              		.loc 6 408 0
 4574 0c00 AC009DE5 		ldr	r0, [sp, #172]
 4575 0c04 20109DE5 		ldr	r1, [sp, #32]
 4576 0c08 000051E1 		cmp	r1, r0
 4577 0c0c 840000AA 		bge	.L725
 409:C:/Renesas/e2studio_2021_01_workspace_RZA2M_ANPR/ANPR_RZA2M_RDK/src/tensorflow_lite/tensorflow/lite/kernels/internal\types.h ****   return ((i0 * dims_data[1] + i1) * dims_data[2] + i2) * dims_data[3] + i3;
 4578              		.loc 6 409 0
 4579 0c10 B0109DE5 		ldr	r1, [sp, #176]
 4580 0c14 080051E1 		cmp	r1, r8
 4581 0c18 7E0000DA 		ble	.L726
 4582              	.LVL444:
 410:C:/Renesas/e2studio_2021_01_workspace_RZA2M_ANPR/ANPR_RZA2M_RDK/src/tensorflow_lite/tensorflow/lite/kernels/internal\types.h **** }
 4583              		.loc 6 410 0
 4584 0c1c 24C09DE5 		ldr	ip, [sp, #36]
 4585 0c20 93C923E0 		mla	r3, r3, r9, ip
 4586 0c24 20C09DE5 		ldr	ip, [sp, #32]
 4587 0c28 90C323E0 		mla	r3, r0, r3, ip
 4588              	.LBE1569:
 4589              	.LBE1572:
 287:C:/Renesas/e2studio_2021_01_workspace_RZA2M_ANPR/ANPR_RZA2M_RDK/src/tensorflow_lite/tensorflow/lite/kernels/internal/reference\pooling.h ****           output_data[Offset(output_shape, batch, out_y, out_x, channel)] =
 4590              		.loc 5 287 0
 4591 0c2c 38009DE5 		ldr	r0, [sp, #56]
 4592 0c30 910323E0 		mla	r3, r1, r3, r0
 4593 0c34 0820C3E7 		strb	r2, [r3, r8]
 4594              	.LVL445:
 4595              	.LBE1581:
 260:C:/Renesas/e2studio_2021_01_workspace_RZA2M_ANPR/ANPR_RZA2M_RDK/src/tensorflow_lite/tensorflow/lite/kernels/internal/reference\pooling.h ****           const int in_x_origin =
 4596              		.loc 5 260 0
 4597 0c38 018088E2 		add	r8, r8, #1
 4598              	.LVL446:
 4599 0c3c 44309DE5 		ldr	r3, [sp, #68]
 4600 0c40 030058E1 		cmp	r8, r3
 4601 0c44 97FFFF1A 		bne	.L434
 4602              	.LVL447:
 4603              	.L433:
 4604 0c48 40109DE5 		ldr	r1, [sp, #64]
 4605 0c4c 6C209DE5 		ldr	r2, [sp, #108]
 4606              	.LBE1588:
 259:C:/Renesas/e2studio_2021_01_workspace_RZA2M_ANPR/ANPR_RZA2M_RDK/src/tensorflow_lite/tensorflow/lite/kernels/internal/reference\pooling.h ****         for (int channel = 0; channel < depth; ++channel) {
 4607              		.loc 5 259 0
 4608 0c50 20309DE5 		ldr	r3, [sp, #32]
 4609 0c54 021041E0 		sub	r1, r1, r2
 4610 0c58 40108DE5 		str	r1, [sp, #64]
 4611 0c5c 013083E2 		add	r3, r3, #1
 4612 0c60 78109DE5 		ldr	r1, [sp, #120]
 4613 0c64 20308DE5 		str	r3, [sp, #32]
 4614              	.LVL448:
 4615 0c68 010053E1 		cmp	r3, r1
 4616 0c6c 4C309DE5 		ldr	r3, [sp, #76]
 4617              	.LVL449:
 4618 0c70 023083E0 		add	r3, r3, r2
 4619 0c74 4C308DE5 		str	r3, [sp, #76]
 4620 0c78 74FFFF1A 		bne	.L399
 4621 0c7c 09A0A0E1 		mov	r10, r9
 4622              	.LVL450:
 4623              	.L398:
 4624 0c80 28109DE5 		ldr	r1, [sp, #40]
 4625 0c84 68209DE5 		ldr	r2, [sp, #104]
 4626              	.LBE1593:
 258:C:/Renesas/e2studio_2021_01_workspace_RZA2M_ANPR/ANPR_RZA2M_RDK/src/tensorflow_lite/tensorflow/lite/kernels/internal/reference\pooling.h ****       for (int out_x = 0; out_x < output_width; ++out_x) {
 4627              		.loc 5 258 0
 4628 0c88 24309DE5 		ldr	r3, [sp, #36]
 4629 0c8c 021081E0 		add	r1, r1, r2
 4630 0c90 28108DE5 		str	r1, [sp, #40]
 4631 0c94 013083E2 		add	r3, r3, #1
 4632 0c98 74109DE5 		ldr	r1, [sp, #116]
 4633 0c9c 24308DE5 		str	r3, [sp, #36]
 4634              	.LVL451:
 4635 0ca0 010053E1 		cmp	r3, r1
 4636 0ca4 50309DE5 		ldr	r3, [sp, #80]
 4637              	.LVL452:
 4638 0ca8 023043E0 		sub	r3, r3, r2
 4639 0cac 50308DE5 		str	r3, [sp, #80]
 4640 0cb0 4BFFFF1A 		bne	.L396
 4641              	.LVL453:
 4642              	.L395:
 4643              	.LBE1597:
 257:C:/Renesas/e2studio_2021_01_workspace_RZA2M_ANPR/ANPR_RZA2M_RDK/src/tensorflow_lite/tensorflow/lite/kernels/internal/reference\pooling.h ****     for (int out_y = 0; out_y < output_height; ++out_y) {
 4644              		.loc 5 257 0
 4645 0cb4 60309DE5 		ldr	r3, [sp, #96]
 4646 0cb8 01A08AE2 		add	r10, r10, #1
 4647              	.LVL454:
 4648 0cbc 03005AE1 		cmp	r10, r3
 4649 0cc0 3CFFFF1A 		bne	.L393
 4650              	.LVL455:
 4651              	.L450:
 4652              	.LBE1609:
 4653              	.LBE1518:
 4654              	.LBE1517:
 4655              	.LBB1617:
 4656              	.LBB1618:
 203:C:/Renesas/e2studio_2021_01_workspace_RZA2M_ANPR/ANPR_RZA2M_RDK/src/tensorflow_lite/tensorflow/lite/kernels/internal\types.h **** #ifdef TF_LITE_STATIC_MEMORY
 4657              		.loc 6 203 0
 4658 0cc4 A0309DE5 		ldr	r3, [sp, #160]
 4659 0cc8 050053E3 		cmp	r3, #5
 4660 0ccc 030000DA 		ble	.L658
 207:C:/Renesas/e2studio_2021_01_workspace_RZA2M_ANPR/ANPR_RZA2M_RDK/src/tensorflow_lite/tensorflow/lite/kernels/internal\types.h **** #endif  // TF_LITE_STATIC_MEMORY
 4661              		.loc 6 207 0
 4662 0cd0 A4009DE5 		ldr	r0, [sp, #164]
 4663 0cd4 000050E3 		cmp	r0, #0
 4664 0cd8 0000000A 		beq	.L658
 4665 0cdc FEFFFFEB 		bl	_ZdaPv
 4666              	.LVL456:
 4667              	.L658:
 4668 0ce0 88309DE5 		ldr	r3, [sp, #136]
 4669              	.LVL457:
 4670              	.LBE1618:
 4671              	.LBE1617:
 4672              	.LBB1619:
 4673              	.LBB1620:
 203:C:/Renesas/e2studio_2021_01_workspace_RZA2M_ANPR/ANPR_RZA2M_RDK/src/tensorflow_lite/tensorflow/lite/kernels/internal\types.h **** #ifdef TF_LITE_STATIC_MEMORY
 4674              		.loc 6 203 0
 4675 0ce4 050053E3 		cmp	r3, #5
 4676 0ce8 F4FDFFDA 		ble	.L439
 207:C:/Renesas/e2studio_2021_01_workspace_RZA2M_ANPR/ANPR_RZA2M_RDK/src/tensorflow_lite/tensorflow/lite/kernels/internal\types.h **** #endif  // TF_LITE_STATIC_MEMORY
 4677              		.loc 6 207 0
 4678 0cec 8C009DE5 		ldr	r0, [sp, #140]
 4679 0cf0 000050E3 		cmp	r0, #0
 4680 0cf4 F1FDFF0A 		beq	.L439
 4681 0cf8 FEFFFFEB 		bl	_ZdaPv
 4682              	.LVL458:
 4683 0cfc EFFDFFEA 		b	.L439
 4684              	.LVL459:
 4685              	.L515:
 4686              	.LBE1620:
 4687              	.LBE1619:
 4688              	.LBB1621:
 4689              	.LBB1505:
 4690              	.LBB1498:
 4691              	.LBB1484:
 4692              	.LBB1479:
 4693              	.LBB1474:
 4694              	.LBB1468:
 4695              	.LBB1461:
 118:C:/Renesas/e2studio_2021_01_workspace_RZA2M_ANPR/ANPR_RZA2M_RDK/src/tensorflow_lite/tensorflow/lite/kernels/internal/reference/integer_ops\pooling.h ****                ++filter_y) {
 4696              		.loc 8 118 0
 4697 0d00 7F20E0E3 		mvn	r2, #127
 4698 0d04 B6FEFFEA 		b	.L458
 4699              	.LVL460:
 4700              	.L349:
 4701 0d08 000053E3 		cmp	r3, #0
 4702 0d0c 217ACD1D 		vstrne.32	s15, [sp, #132]
 4703              	.LEHB28:
 4704              	.LBE1461:
 4705              	.LBE1468:
 4706              	.LBE1474:
 4707              	.LBE1479:
 4708              	.LBE1484:
 4709              	.LBE1498:
 4710              	.LBE1505:
 4711              	.LBE1621:
 4712              	.LBE1405:
 4713              	.LBE1404:
 4714              	.LBB1638:
 4715              	.LBB1399:
 4716              	.LBB1394:
 4717              	.LBB1386:
 4718              	.LBB1379:
 4719              	.LBB1364:
 4720              	.LBB1360:
 4721              	.LBB1356:
 4722              	.LBB1352:
 4723              	.LBB1345:
 4724              	.LBB1331:
 4725              	.LBB1328:
 4726              	.LBB1325:
 4727              	.LBB1321:
 406:C:/Renesas/e2studio_2021_01_workspace_RZA2M_ANPR/ANPR_RZA2M_RDK/src/tensorflow_lite/tensorflow/lite/kernels/internal\types.h ****   TFLITE_DCHECK(i1 >= 0 && i1 < dims_data[1]);
 4728              		.loc 6 406 0
 4729 0d10 FEFFFFEB 		bl	abort
 4730              	.LVL461:
 4731              	.L695:
 4732 0d14 000053E3 		cmp	r3, #0
 4733 0d18 217ACD1D 		vstrne.32	s15, [sp, #132]
 409:C:/Renesas/e2studio_2021_01_workspace_RZA2M_ANPR/ANPR_RZA2M_RDK/src/tensorflow_lite/tensorflow/lite/kernels/internal\types.h ****   return ((i0 * dims_data[1] + i1) * dims_data[2] + i2) * dims_data[3] + i3;
 4734              		.loc 6 409 0
 4735 0d1c FEFFFFEB 		bl	abort
 4736              	.LVL462:
 4737              	.L647:
 4738 0d20 000053E3 		cmp	r3, #0
 4739 0d24 0000000A 		beq	.L358
 4740              	.LVL463:
 4741              	.L646:
 4742 0d28 217ACDED 		vstr.32	s15, [sp, #132]
 4743              	.L358:
 408:C:/Renesas/e2studio_2021_01_workspace_RZA2M_ANPR/ANPR_RZA2M_RDK/src/tensorflow_lite/tensorflow/lite/kernels/internal\types.h ****   TFLITE_DCHECK(i3 >= 0 && i3 < dims_data[3]);
 4744              		.loc 6 408 0
 4745 0d2c FEFFFFEB 		bl	abort
 4746              	.LVL464:
 4747              	.LEHE28:
 4748              	.L463:
 4749 0d30 000053E3 		cmp	r3, #0
 4750 0d34 84A0CD15 		strbne	r10, [sp, #132]
 4751              	.LEHB29:
 4752              	.LBE1321:
 4753              	.LBE1325:
 4754              	.LBE1328:
 4755              	.LBE1331:
 4756              	.LBE1345:
 4757              	.LBE1352:
 4758              	.LBE1356:
 4759              	.LBE1360:
 4760              	.LBE1364:
 4761              	.LBE1379:
 4762              	.LBE1386:
 4763              	.LBE1394:
 4764              	.LBE1399:
 4765              	.LBE1638:
 4766              	.LBB1639:
 4767              	.LBB1633:
 4768              	.LBB1622:
 4769              	.LBB1506:
 4770              	.LBB1499:
 4771              	.LBB1485:
 4772              	.LBB1480:
 4773              	.LBB1475:
 4774              	.LBB1469:
 4775              	.LBB1462:
 4776              	.LBB1451:
 4777              	.LBB1446:
 4778              	.LBB1440:
 4779              	.LBB1435:
 406:C:/Renesas/e2studio_2021_01_workspace_RZA2M_ANPR/ANPR_RZA2M_RDK/src/tensorflow_lite/tensorflow/lite/kernels/internal\types.h ****   TFLITE_DCHECK(i1 >= 0 && i1 < dims_data[1]);
 4780              		.loc 6 406 0
 4781 0d38 FEFFFFEB 		bl	abort
 4782              	.LVL465:
 4783              	.L706:
 4784              	.LBE1435:
 4785              	.LBE1440:
 4786              	.LBE1446:
 4787              	.LBE1451:
 4788              	.LBE1462:
 4789              	.LBE1469:
 4790              	.LBE1475:
 4791              	.LBE1480:
 4792              	.LBE1485:
 4793              	.LBE1499:
 4794              	.LBB1500:
 4795              	.LBB1418:
 4796              		.loc 6 472 0
 4797 0d3c FEFFFFEB 		bl	abort
 4798              	.LVL466:
 4799              	.L707:
 4800              	.LBE1418:
 4801              	.LBE1500:
 4802              	.LBB1501:
 4803              	.LBB1423:
 4804 0d40 FEFFFFEB 		bl	abort
 4805              	.LVL467:
 4806              	.LEHE29:
 4807              	.L519:
 4808              	.L676:
 4809              	.LBE1423:
 4810              	.LBE1501:
 4811              	.LBE1506:
 4812              	.LBE1622:
 4813              	.LBB1623:
 4814              	.LBB1624:
 203:C:/Renesas/e2studio_2021_01_workspace_RZA2M_ANPR/ANPR_RZA2M_RDK/src/tensorflow_lite/tensorflow/lite/kernels/internal\types.h **** #ifdef TF_LITE_STATIC_MEMORY
 4815              		.loc 6 203 0
 4816 0d44 A0309DE5 		ldr	r3, [sp, #160]
 4817 0d48 050053E3 		cmp	r3, #5
 4818 0d4c 030000DA 		ble	.L501
 207:C:/Renesas/e2studio_2021_01_workspace_RZA2M_ANPR/ANPR_RZA2M_RDK/src/tensorflow_lite/tensorflow/lite/kernels/internal\types.h **** #endif  // TF_LITE_STATIC_MEMORY
 4819              		.loc 6 207 0
 4820 0d50 A4009DE5 		ldr	r0, [sp, #164]
 4821 0d54 000050E3 		cmp	r0, #0
 4822 0d58 0000000A 		beq	.L501
 4823 0d5c FEFFFFEB 		bl	_ZdaPv
 4824              	.LVL468:
 4825              	.L501:
 4826              	.LBE1624:
 4827              	.LBE1623:
 4828              	.LBB1625:
 4829              	.LBB1626:
 203:C:/Renesas/e2studio_2021_01_workspace_RZA2M_ANPR/ANPR_RZA2M_RDK/src/tensorflow_lite/tensorflow/lite/kernels/internal\types.h **** #ifdef TF_LITE_STATIC_MEMORY
 4830              		.loc 6 203 0
 4831 0d60 88309DE5 		ldr	r3, [sp, #136]
 4832 0d64 050053E3 		cmp	r3, #5
 4833 0d68 030000DA 		ble	.L502
 207:C:/Renesas/e2studio_2021_01_workspace_RZA2M_ANPR/ANPR_RZA2M_RDK/src/tensorflow_lite/tensorflow/lite/kernels/internal\types.h **** #endif  // TF_LITE_STATIC_MEMORY
 4834              		.loc 6 207 0
 4835 0d6c 8C009DE5 		ldr	r0, [sp, #140]
 4836 0d70 000050E3 		cmp	r0, #0
 4837 0d74 0000000A 		beq	.L502
 4838 0d78 FEFFFFEB 		bl	_ZdaPv
 4839              	.LVL469:
 4840              	.L502:
 4841              	.LEHB30:
 4842 0d7c FEFFFFEB 		bl	__cxa_end_cleanup
 4843              	.LVL470:
 4844              	.LEHE30:
 4845              	.L523:
 4846 0d80 EFFFFFEA 		b	.L676
 4847              	.LVL471:
 4848              	.L655:
 4849 0d84 84A0CDE5 		strb	r10, [sp, #132]
 4850              	.L472:
 4851              	.LEHB31:
 4852              	.LBE1626:
 4853              	.LBE1625:
 4854              	.LBB1627:
 4855              	.LBB1507:
 4856              	.LBB1502:
 4857              	.LBB1486:
 4858              	.LBB1481:
 4859              	.LBB1476:
 4860              	.LBB1470:
 4861              	.LBB1463:
 4862              	.LBB1452:
 4863              	.LBB1447:
 4864              	.LBB1441:
 4865              	.LBB1436:
 408:C:/Renesas/e2studio_2021_01_workspace_RZA2M_ANPR/ANPR_RZA2M_RDK/src/tensorflow_lite/tensorflow/lite/kernels/internal\types.h ****   TFLITE_DCHECK(i3 >= 0 && i3 < dims_data[3]);
 4866              		.loc 6 408 0
 4867 0d88 FEFFFFEB 		bl	abort
 4868              	.LVL472:
 4869              	.L462:
 4870 0d8c 000053E3 		cmp	r3, #0
 4871 0d90 84A0CD15 		strbne	r10, [sp, #132]
 404:C:/Renesas/e2studio_2021_01_workspace_RZA2M_ANPR/ANPR_RZA2M_RDK/src/tensorflow_lite/tensorflow/lite/kernels/internal\types.h ****   const int* dims_data = reinterpret_cast<const int*>(shape.DimsDataUpTo5D());
 4872              		.loc 6 404 0
 4873 0d94 FEFFFFEB 		bl	abort
 4874              	.LVL473:
 4875              	.LEHE31:
 4876              	.L400:
 4877              	.LBE1436:
 4878              	.LBE1441:
 4879              	.LBE1447:
 4880              	.LBE1452:
 4881              	.LBE1463:
 4882              	.LBE1470:
 4883              	.LBE1476:
 4884              	.LBE1481:
 4885              	.LBE1486:
 4886              	.LBE1502:
 4887              	.LBE1507:
 4888              	.LBE1627:
 4889              	.LBB1628:
 4890              	.LBB1615:
 4891              	.LBB1610:
 4892              	.LBB1598:
 4893              	.LBB1594:
 4894              	.LBB1589:
 4895              	.LBB1582:
 4896              	.LBB1573:
 4897              	.LBB1538:
 224:c:\program files (x86)\gnu tools arm embedded\6 2017-q2-update\arm-none-eabi\include\c++\6.3.1\bits\stl_algobase.h **** 	return __b;
 4898              		.loc 7 224 0
 4899 0d98 2C309DE5 		ldr	r3, [sp, #44]
 4900 0d9c 000053E3 		cmp	r3, #0
 4901 0da0 0020A0D3 		movle	r2, #0
 4902              	.LVL474:
 4903 0da4 8AFFFFDA 		ble	.L428
 4904 0da8 85FFFFEA 		b	.L505
 4905              	.LVL475:
 4906              	.L405:
 4907 0dac 000053E3 		cmp	r3, #0
 4908 0db0 84B0CD15 		strbne	fp, [sp, #132]
 4909              	.LEHB32:
 4910              	.LBE1538:
 4911              	.LBE1573:
 4912              	.LBB1574:
 4913              	.LBB1562:
 4914              	.LBB1559:
 4915              	.LBB1555:
 4916              	.LBB1550:
 406:C:/Renesas/e2studio_2021_01_workspace_RZA2M_ANPR/ANPR_RZA2M_RDK/src/tensorflow_lite/tensorflow/lite/kernels/internal\types.h ****   TFLITE_DCHECK(i1 >= 0 && i1 < dims_data[1]);
 4917              		.loc 6 406 0
 4918 0db4 FEFFFFEB 		bl	abort
 4919              	.LVL476:
 4920              	.L521:
 4921 0db8 E1FFFFEA 		b	.L676
 4922              	.LVL477:
 4923              	.L650:
 4924 0dbc 84B0CDE5 		strb	fp, [sp, #132]
 4925              	.L414:
 408:C:/Renesas/e2studio_2021_01_workspace_RZA2M_ANPR/ANPR_RZA2M_RDK/src/tensorflow_lite/tensorflow/lite/kernels/internal\types.h ****   TFLITE_DCHECK(i3 >= 0 && i3 < dims_data[3]);
 4926              		.loc 6 408 0
 4927 0dc0 FEFFFFEB 		bl	abort
 4928              	.LVL478:
 4929              	.L404:
 4930 0dc4 000053E3 		cmp	r3, #0
 4931 0dc8 84B0CD15 		strbne	fp, [sp, #132]
 404:C:/Renesas/e2studio_2021_01_workspace_RZA2M_ANPR/ANPR_RZA2M_RDK/src/tensorflow_lite/tensorflow/lite/kernels/internal\types.h ****   const int* dims_data = reinterpret_cast<const int*>(shape.DimsDataUpTo5D());
 4932              		.loc 6 404 0
 4933 0dcc FEFFFFEB 		bl	abort
 4934              	.LVL479:
 4935              	.L651:
 4936 0dd0 000053E3 		cmp	r3, #0
 4937 0dd4 0BA0A0E1 		mov	r10, fp
 4938 0dd8 84A0CD15 		strbne	r10, [sp, #132]
 4939 0ddc F7FFFFEA 		b	.L414
 4940              	.L406:
 4941 0de0 000053E3 		cmp	r3, #0
 4942 0de4 84B0CD15 		strbne	fp, [sp, #132]
 407:C:/Renesas/e2studio_2021_01_workspace_RZA2M_ANPR/ANPR_RZA2M_RDK/src/tensorflow_lite/tensorflow/lite/kernels/internal\types.h ****   TFLITE_DCHECK(i2 >= 0 && i2 < dims_data[2]);
 4943              		.loc 6 407 0
 4944 0de8 FEFFFFEB 		bl	abort
 4945              	.LVL480:
 4946              	.LEHE32:
 4947              	.L693:
 4948              	.LEHB33:
 4949              	.LBE1550:
 4950              	.LBE1555:
 4951              	.LBE1559:
 4952              	.LBE1562:
 4953              	.LBE1574:
 4954              	.LBE1582:
 4955              	.LBE1589:
 4956              	.LBE1594:
 4957              	.LBE1598:
 4958              	.LBE1610:
 4959              	.LBE1615:
 4960              	.LBE1628:
 4961              	.LBE1633:
 4962              	.LBE1639:
 4963              	.LBB1640:
 4964              	.LBB1400:
 4965              	.LBB1395:
 4966              	.LBB1387:
 4967              	.LBB1380:
 4968              	.LBB1303:
 4969              		.loc 6 472 0
 4970 0dec FEFFFFEB 		bl	abort
 4971              	.LVL481:
 4972              	.L694:
 4973              	.LBE1303:
 4974              	.LBE1380:
 4975              	.LBB1381:
 4976              	.LBB1310:
 4977 0df0 FEFFFFEB 		bl	abort
 4978              	.LVL482:
 4979              	.LEHE33:
 4980              	.L714:
 4981              	.LEHB34:
 4982              	.LBE1310:
 4983              	.LBE1381:
 4984              	.LBE1387:
 4985              	.LBE1395:
 4986              	.LBE1400:
 4987              	.LBE1640:
 4988              	.LBB1641:
 4989              	.LBB1634:
 4990              	.LBB1629:
 4991              	.LBB1616:
 243:C:/Renesas/e2studio_2021_01_workspace_RZA2M_ANPR/ANPR_RZA2M_RDK/src/tensorflow_lite/tensorflow/lite/kernels/internal/reference\pooling.h ****                    params.quantized_activation_max);
 4992              		.loc 5 243 0
 4993 0df4 FEFFFFEB 		bl	abort
 4994              	.LVL483:
 4995              	.L520:
 4996 0df8 D8FFFFEA 		b	.L501
 4997              	.LVL484:
 4998              	.L718:
 248:C:/Renesas/e2studio_2021_01_workspace_RZA2M_ANPR/ANPR_RZA2M_RDK/src/tensorflow_lite/tensorflow/lite/kernels/internal/reference\pooling.h ****   const int batches = MatchingDim(input_shape, 0, output_shape, 0);
 4999              		.loc 5 248 0
 5000 0dfc FEFFFFEB 		bl	abort
 5001              	.LVL485:
 5002              	.L717:
 247:C:/Renesas/e2studio_2021_01_workspace_RZA2M_ANPR/ANPR_RZA2M_RDK/src/tensorflow_lite/tensorflow/lite/kernels/internal/reference\pooling.h ****   TFLITE_DCHECK_EQ(output_shape.DimensionsCount(), 4);
 5003              		.loc 5 247 0
 5004 0e00 FEFFFFEB 		bl	abort
 5005              	.LVL486:
 5006              	.L716:
 246:C:/Renesas/e2studio_2021_01_workspace_RZA2M_ANPR/ANPR_RZA2M_RDK/src/tensorflow_lite/tensorflow/lite/kernels/internal/reference\pooling.h ****   TFLITE_DCHECK_EQ(input_shape.DimensionsCount(), 4);
 5007              		.loc 5 246 0
 5008 0e04 FEFFFFEB 		bl	abort
 5009              	.LVL487:
 5010              	.L715:
 245:C:/Renesas/e2studio_2021_01_workspace_RZA2M_ANPR/ANPR_RZA2M_RDK/src/tensorflow_lite/tensorflow/lite/kernels/internal/reference\pooling.h ****   TFLITE_DCHECK_LE(params.quantized_activation_max, 255);
 5011              		.loc 5 245 0
 5012 0e08 FEFFFFEB 		bl	abort
 5013              	.LVL488:
 5014              	.L721:
 5015 0e0c 000053E3 		cmp	r3, #0
 5016 0e10 84B0CD15 		strbne	fp, [sp, #132]
 5017              	.L422:
 5018              	.LBB1611:
 5019              	.LBB1599:
 5020              	.LBB1595:
 5021              	.LBB1590:
 5022              	.LBB1583:
 5023              	.LBB1575:
 5024              	.LBB1563:
 5025              	.LBB1560:
 5026              	.LBB1556:
 5027              	.LBB1551:
 409:C:/Renesas/e2studio_2021_01_workspace_RZA2M_ANPR/ANPR_RZA2M_RDK/src/tensorflow_lite/tensorflow/lite/kernels/internal\types.h ****   return ((i0 * dims_data[1] + i1) * dims_data[2] + i2) * dims_data[3] + i3;
 5028              		.loc 6 409 0
 5029 0e14 FEFFFFEB 		bl	abort
 5030              	.LVL489:
 5031              	.L726:
 5032              	.LBE1551:
 5033              	.LBE1556:
 5034              	.LBE1560:
 5035              	.LBE1563:
 5036              	.LBE1575:
 5037              	.LBB1576:
 5038              	.LBB1570:
 5039 0e18 FEFFFFEB 		bl	abort
 5040              	.LVL490:
 5041              	.L720:
 5042              	.LBE1570:
 5043              	.LBE1576:
 5044              	.LBE1583:
 5045              	.LBE1590:
 5046              	.LBE1595:
 5047              	.LBE1599:
 5048              	.LBE1611:
 5049              	.LBB1612:
 5050              	.LBB1528:
 5051              		.loc 6 472 0
 5052 0e1c FEFFFFEB 		bl	abort
 5053              	.LVL491:
 5054              	.L719:
 5055              	.LBE1528:
 5056              	.LBE1612:
 5057              	.LBB1613:
 5058              	.LBB1523:
 5059 0e20 FEFFFFEB 		bl	abort
 5060              	.LVL492:
 5061              	.L725:
 5062              	.LBE1523:
 5063              	.LBE1613:
 5064              	.LBB1614:
 5065              	.LBB1600:
 5066              	.LBB1596:
 5067              	.LBB1591:
 5068              	.LBB1584:
 5069              	.LBB1577:
 5070              	.LBB1571:
 408:C:/Renesas/e2studio_2021_01_workspace_RZA2M_ANPR/ANPR_RZA2M_RDK/src/tensorflow_lite/tensorflow/lite/kernels/internal\types.h ****   TFLITE_DCHECK(i3 >= 0 && i3 < dims_data[3]);
 5071              		.loc 6 408 0
 5072 0e24 FEFFFFEB 		bl	abort
 5073              	.LVL493:
 5074              	.L724:
 407:C:/Renesas/e2studio_2021_01_workspace_RZA2M_ANPR/ANPR_RZA2M_RDK/src/tensorflow_lite/tensorflow/lite/kernels/internal\types.h ****   TFLITE_DCHECK(i2 >= 0 && i2 < dims_data[2]);
 5075              		.loc 6 407 0
 5076 0e28 FEFFFFEB 		bl	abort
 5077              	.LVL494:
 5078              	.L723:
 406:C:/Renesas/e2studio_2021_01_workspace_RZA2M_ANPR/ANPR_RZA2M_RDK/src/tensorflow_lite/tensorflow/lite/kernels/internal\types.h ****   TFLITE_DCHECK(i1 >= 0 && i1 < dims_data[1]);
 5079              		.loc 6 406 0
 5080 0e2c FEFFFFEB 		bl	abort
 5081              	.LVL495:
 5082              	.L722:
 404:C:/Renesas/e2studio_2021_01_workspace_RZA2M_ANPR/ANPR_RZA2M_RDK/src/tensorflow_lite/tensorflow/lite/kernels/internal\types.h ****   const int* dims_data = reinterpret_cast<const int*>(shape.DimsDataUpTo5D());
 5083              		.loc 6 404 0
 5084 0e30 FEFFFFEB 		bl	abort
 5085              	.LVL496:
 5086              	.LEHE34:
 5087              	.L697:
 5088              	.LEHB35:
 5089              	.LBE1571:
 5090              	.LBE1577:
 5091              	.LBE1584:
 5092              	.LBE1591:
 5093              	.LBE1596:
 5094              	.LBE1600:
 5095              	.LBE1614:
 5096              	.LBE1616:
 5097              	.LBE1629:
 5098              	.LBE1634:
 5099              	.LBE1641:
 5100              	.LBB1642:
 5101              	.LBB1401:
 5102              	.LBB1396:
 5103              	.LBB1388:
 5104              	.LBB1382:
 5105              	.LBB1365:
 5106              	.LBB1361:
 5107              	.LBB1357:
 5108              	.LBB1353:
 5109              	.LBB1346:
 5110              	.LBB1337:
 407:C:/Renesas/e2studio_2021_01_workspace_RZA2M_ANPR/ANPR_RZA2M_RDK/src/tensorflow_lite/tensorflow/lite/kernels/internal\types.h ****   TFLITE_DCHECK(i2 >= 0 && i2 < dims_data[2]);
 5111              		.loc 6 407 0
 5112 0e34 FEFFFFEB 		bl	abort
 5113              	.LVL497:
 5114              	.L698:
 408:C:/Renesas/e2studio_2021_01_workspace_RZA2M_ANPR/ANPR_RZA2M_RDK/src/tensorflow_lite/tensorflow/lite/kernels/internal\types.h ****   TFLITE_DCHECK(i3 >= 0 && i3 < dims_data[3]);
 5115              		.loc 6 408 0
 5116 0e38 FEFFFFEB 		bl	abort
 5117              	.LVL498:
 5118              	.LEHE35:
 5119              	.L522:
 5120 0e3c C7FFFFEA 		b	.L501
 5121              	.LVL499:
 5122              	.L701:
 5123              	.LEHB36:
 5124              	.LBE1337:
 5125              	.LBE1346:
 5126              	.LBE1353:
 5127              	.LBE1357:
 5128              	.LBE1361:
 5129              	.LBE1365:
 5130              	.LBE1382:
 5131              	.LBE1388:
 5132              	.LBE1396:
 5133              	.LBE1401:
 5134              	.LBE1642:
 5135              	.LBB1643:
 5136              	.LBB1635:
 5137              	.LBB1630:
 5138              	.LBB1508:
  85:C:/Renesas/e2studio_2021_01_workspace_RZA2M_ANPR/ANPR_RZA2M_RDK/src/tensorflow_lite/tensorflow/lite/kernels/internal/reference/integer_ops\pooling.h ****                    params.quantized_activation_max);
 5139              		.loc 8 85 0
 5140 0e40 FEFFFFEB 		bl	abort
 5141              	.LVL500:
 5142              	.L702:
  87:C:/Renesas/e2studio_2021_01_workspace_RZA2M_ANPR/ANPR_RZA2M_RDK/src/tensorflow_lite/tensorflow/lite/kernels/internal/reference/integer_ops\pooling.h ****                    std::numeric_limits<int8_t>::min());
 5143              		.loc 8 87 0
 5144 0e44 FEFFFFEB 		bl	abort
 5145              	.LVL501:
 5146              	.L703:
  89:C:/Renesas/e2studio_2021_01_workspace_RZA2M_ANPR/ANPR_RZA2M_RDK/src/tensorflow_lite/tensorflow/lite/kernels/internal/reference/integer_ops\pooling.h ****                    std::numeric_limits<int8_t>::max());
 5147              		.loc 8 89 0
 5148 0e48 FEFFFFEB 		bl	abort
 5149              	.LVL502:
 5150              	.LEHE36:
 5151              	.L322:
 5152              	.LEHB37:
 5153              	.LBE1508:
 5154              	.LBE1630:
 5155              	.LBE1635:
 5156              	.LBE1643:
 185:../src/tensorflow_lite/tensorflow/lite/micro/kernels/pooling.cc ****   auto* params = reinterpret_cast<TfLitePoolParams*>(node->builtin_data);
 5157              		.loc 1 185 0 discriminator 1
 5158 0e4c FEFFFFEB 		bl	abort
 5159              	.LVL503:
 5160              	.LEHE37:
 5161              	.L518:
 5162 0e50 C2FFFFEA 		b	.L501
 5163              	.LVL504:
 5164              	.L691:
 5165              	.LEHB38:
 5166              	.LBB1644:
 5167              	.LBB1402:
 5168              	.LBB1397:
 5169              	.LBB1389:
 193:C:/Renesas/e2studio_2021_01_workspace_RZA2M_ANPR/ANPR_RZA2M_RDK/src/tensorflow_lite/tensorflow/lite/kernels/internal/reference\pooling.h ****   TFLITE_DCHECK_EQ(output_shape.DimensionsCount(), 4);
 5170              		.loc 5 193 0
 5171 0e54 FEFFFFEB 		bl	abort
 5172              	.LVL505:
 5173              	.L692:
 194:C:/Renesas/e2studio_2021_01_workspace_RZA2M_ANPR/ANPR_RZA2M_RDK/src/tensorflow_lite/tensorflow/lite/kernels/internal/reference\pooling.h ****   const int batches = MatchingDim(input_shape, 0, output_shape, 0);
 5174              		.loc 5 194 0
 5175 0e58 FEFFFFEB 		bl	abort
 5176              	.LVL506:
 5177              	.L696:
 5178              	.LBB1383:
 5179              	.LBB1366:
 5180              	.LBB1362:
 5181              	.LBB1358:
 5182              	.LBB1354:
 5183              	.LBB1347:
 5184              	.LBB1338:
 406:C:/Renesas/e2studio_2021_01_workspace_RZA2M_ANPR/ANPR_RZA2M_RDK/src/tensorflow_lite/tensorflow/lite/kernels/internal\types.h ****   TFLITE_DCHECK(i1 >= 0 && i1 < dims_data[1]);
 5185              		.loc 6 406 0
 5186 0e5c FEFFFFEB 		bl	abort
 5187              	.LVL507:
 5188              	.L350:
 5189 0e60 000053E3 		cmp	r3, #0
 5190 0e64 217ACD1D 		vstrne.32	s15, [sp, #132]
 5191              	.LBE1338:
 5192              	.LBE1347:
 5193              	.LBB1348:
 5194              	.LBB1332:
 5195              	.LBB1329:
 5196              	.LBB1326:
 5197              	.LBB1322:
 407:C:/Renesas/e2studio_2021_01_workspace_RZA2M_ANPR/ANPR_RZA2M_RDK/src/tensorflow_lite/tensorflow/lite/kernels/internal\types.h ****   TFLITE_DCHECK(i2 >= 0 && i2 < dims_data[2]);
 5198              		.loc 6 407 0
 5199 0e68 FEFFFFEB 		bl	abort
 5200              	.LVL508:
 5201              	.LEHE38:
 5202              	.L709:
 5203              	.LEHB39:
 5204              	.LBE1322:
 5205              	.LBE1326:
 5206              	.LBE1329:
 5207              	.LBE1332:
 5208              	.LBE1348:
 5209              	.LBE1354:
 5210              	.LBE1358:
 5211              	.LBE1362:
 5212              	.LBE1366:
 5213              	.LBE1383:
 5214              	.LBE1389:
 5215              	.LBE1397:
 5216              	.LBE1402:
 5217              	.LBE1644:
 5218              	.LBB1645:
 5219              	.LBB1636:
 5220              	.LBB1631:
 5221              	.LBB1509:
 5222              	.LBB1503:
 5223              	.LBB1487:
 5224              	.LBB1482:
 5225              	.LBB1477:
 5226              	.LBB1471:
 5227              	.LBB1464:
 5228              	.LBB1459:
 404:C:/Renesas/e2studio_2021_01_workspace_RZA2M_ANPR/ANPR_RZA2M_RDK/src/tensorflow_lite/tensorflow/lite/kernels/internal\types.h ****   const int* dims_data = reinterpret_cast<const int*>(shape.DimsDataUpTo5D());
 5229              		.loc 6 404 0
 5230 0e6c FEFFFFEB 		bl	abort
 5231              	.LVL509:
 5232              	.L710:
 406:C:/Renesas/e2studio_2021_01_workspace_RZA2M_ANPR/ANPR_RZA2M_RDK/src/tensorflow_lite/tensorflow/lite/kernels/internal\types.h ****   TFLITE_DCHECK(i1 >= 0 && i1 < dims_data[1]);
 5233              		.loc 6 406 0
 5234 0e70 FEFFFFEB 		bl	abort
 5235              	.LVL510:
 5236              	.L711:
 407:C:/Renesas/e2studio_2021_01_workspace_RZA2M_ANPR/ANPR_RZA2M_RDK/src/tensorflow_lite/tensorflow/lite/kernels/internal\types.h ****   TFLITE_DCHECK(i2 >= 0 && i2 < dims_data[2]);
 5237              		.loc 6 407 0
 5238 0e74 FEFFFFEB 		bl	abort
 5239              	.LVL511:
 5240              	.L712:
 408:C:/Renesas/e2studio_2021_01_workspace_RZA2M_ANPR/ANPR_RZA2M_RDK/src/tensorflow_lite/tensorflow/lite/kernels/internal\types.h ****   TFLITE_DCHECK(i3 >= 0 && i3 < dims_data[3]);
 5241              		.loc 6 408 0
 5242 0e78 FEFFFFEB 		bl	abort
 5243              	.LVL512:
 5244              	.L713:
 409:C:/Renesas/e2studio_2021_01_workspace_RZA2M_ANPR/ANPR_RZA2M_RDK/src/tensorflow_lite/tensorflow/lite/kernels/internal\types.h ****   return ((i0 * dims_data[1] + i1) * dims_data[2] + i2) * dims_data[3] + i3;
 5245              		.loc 6 409 0
 5246 0e7c FEFFFFEB 		bl	abort
 5247              	.LVL513:
 5248              	.L656:
 5249 0e80 000053E3 		cmp	r3, #0
 5250 0e84 0AB0A0E1 		mov	fp, r10
 5251 0e88 84B0CD15 		strbne	fp, [sp, #132]
 5252 0e8c BDFFFFEA 		b	.L472
 5253              	.L708:
 5254              	.LVL514:
 5255 0e90 000053E3 		cmp	r3, #0
 5256 0e94 84A0CD15 		strbne	r10, [sp, #132]
 5257              	.L480:
 5258              	.LBE1459:
 5259              	.LBE1464:
 5260              	.LBB1465:
 5261              	.LBB1453:
 5262              	.LBB1448:
 5263              	.LBB1442:
 5264              	.LBB1437:
 5265 0e98 FEFFFFEB 		bl	abort
 5266              	.LVL515:
 5267              	.LEHE39:
 5268              	.L699:
 5269              	.LEHB40:
 5270              	.LBE1437:
 5271              	.LBE1442:
 5272              	.LBE1448:
 5273              	.LBE1453:
 5274              	.LBE1465:
 5275              	.LBE1471:
 5276              	.LBE1477:
 5277              	.LBE1482:
 5278              	.LBE1487:
 5279              	.LBE1503:
 5280              	.LBE1509:
 5281              	.LBE1631:
 5282              	.LBE1636:
 5283              	.LBE1645:
 5284              	.LBB1646:
 5285              	.LBB1403:
 5286              	.LBB1398:
 5287              	.LBB1390:
 5288              	.LBB1384:
 5289              	.LBB1367:
 5290              	.LBB1363:
 5291              	.LBB1359:
 5292              	.LBB1355:
 5293              	.LBB1349:
 5294              	.LBB1339:
 5295 0e9c FEFFFFEB 		bl	abort
 5296              	.LVL516:
 5297              	.LEHE40:
 5298              	.L464:
 5299 0ea0 000053E3 		cmp	r3, #0
 5300 0ea4 84A0CD15 		strbne	r10, [sp, #132]
 5301              	.LEHB41:
 5302              	.LBE1339:
 5303              	.LBE1349:
 5304              	.LBE1355:
 5305              	.LBE1359:
 5306              	.LBE1363:
 5307              	.LBE1367:
 5308              	.LBE1384:
 5309              	.LBE1390:
 5310              	.LBE1398:
 5311              	.LBE1403:
 5312              	.LBE1646:
 5313              	.LBB1647:
 5314              	.LBB1637:
 5315              	.LBB1632:
 5316              	.LBB1510:
 5317              	.LBB1504:
 5318              	.LBB1488:
 5319              	.LBB1483:
 5320              	.LBB1478:
 5321              	.LBB1472:
 5322              	.LBB1466:
 5323              	.LBB1454:
 5324              	.LBB1449:
 5325              	.LBB1443:
 5326              	.LBB1438:
 407:C:/Renesas/e2studio_2021_01_workspace_RZA2M_ANPR/ANPR_RZA2M_RDK/src/tensorflow_lite/tensorflow/lite/kernels/internal\types.h ****   TFLITE_DCHECK(i2 >= 0 && i2 < dims_data[2]);
 5327              		.loc 6 407 0
 5328 0ea8 FEFFFFEB 		bl	abort
 5329              	.LVL517:
 5330              	.L704:
 5331              	.LBE1438:
 5332              	.LBE1443:
 5333              	.LBE1449:
 5334              	.LBE1454:
 5335              	.LBE1466:
 5336              	.LBE1472:
 5337              	.LBE1478:
 5338              	.LBE1483:
 5339              	.LBE1488:
 5340              	.LBE1504:
  91:C:/Renesas/e2studio_2021_01_workspace_RZA2M_ANPR/ANPR_RZA2M_RDK/src/tensorflow_lite/tensorflow/lite/kernels/internal/reference/integer_ops\pooling.h ****   TFLITE_DCHECK_EQ(output_shape.DimensionsCount(), 4);
 5341              		.loc 8 91 0
 5342 0eac FEFFFFEB 		bl	abort
 5343              	.LVL518:
 5344              	.L705:
  92:C:/Renesas/e2studio_2021_01_workspace_RZA2M_ANPR/ANPR_RZA2M_RDK/src/tensorflow_lite/tensorflow/lite/kernels/internal/reference/integer_ops\pooling.h ****   const int batches = MatchingDim(input_shape, 0, output_shape, 0);
 5345              		.loc 8 92 0
 5346 0eb0 FEFFFFEB 		bl	abort
 5347              	.LVL519:
 5348              	.LEHE41:
 5349              	.LBE1510:
 5350              	.LBE1632:
 5351              	.LBE1637:
 5352              	.LBE1647:
 5353              		.cfi_endproc
 5354              	.LFE4187:
 5355              		.personality	__gxx_personality_v0
 5356              		.handlerdata
 5357              	.LLSDA4187:
 5358 000c FF       		.byte	0xff
 5359 000d FF       		.byte	0xff
 5360 000e 01       		.byte	0x1
 5361 000f 73       		.uleb128 .LLSDACSE4187-.LLSDACSB4187
 5362              	.LLSDACSB4187:
 5363 0010 40       		.uleb128 .LEHB22-.LFB4187
 5364 0011 AC01     		.uleb128 .LEHE22-.LEHB22
 5365 0013 00       		.uleb128 0
 5366 0014 00       		.uleb128 0
 5367 0015 F801     		.uleb128 .LEHB23-.LFB4187
 5368 0017 04       		.uleb128 .LEHE23-.LEHB23
 5369 0018 D01C     		.uleb128 .L518-.LFB4187
 5370 001a 00       		.uleb128 0
 5371 001b 980A     		.uleb128 .LEHB24-.LFB4187
 5372 001d 04       		.uleb128 .LEHE24-.LEHB24
 5373 001e 00       		.uleb128 0
 5374 001f 00       		.uleb128 0
 5375 0020 AC0A     		.uleb128 .LEHB25-.LFB4187
 5376 0022 04       		.uleb128 .LEHE25-.LEHB25
 5377 0023 BC1C     		.uleb128 .L522-.LFB4187
 5378 0025 00       		.uleb128 0
 5379 0026 F011     		.uleb128 .LEHB26-.LFB4187
 5380 0028 04       		.uleb128 .LEHE26-.LEHB26
 5381 0029 00       		.uleb128 0
 5382 002a 00       		.uleb128 0
 5383 002b 8412     		.uleb128 .LEHB27-.LFB4187
 5384 002d 04       		.uleb128 .LEHE27-.LEHB27
 5385 002e F81B     		.uleb128 .L520-.LFB4187
 5386 0030 00       		.uleb128 0
 5387 0031 901A     		.uleb128 .LEHB28-.LFB4187
 5388 0033 20       		.uleb128 .LEHE28-.LEHB28
 5389 0034 C41A     		.uleb128 .L519-.LFB4187
 5390 0036 00       		.uleb128 0
 5391 0037 B81A     		.uleb128 .LEHB29-.LFB4187
 5392 0039 0C       		.uleb128 .LEHE29-.LEHB29
 5393 003a 801B     		.uleb128 .L523-.LFB4187
 5394 003c 00       		.uleb128 0
 5395 003d FC1A     		.uleb128 .LEHB30-.LFB4187
 5396 003f 04       		.uleb128 .LEHE30-.LEHB30
 5397 0040 00       		.uleb128 0
 5398 0041 00       		.uleb128 0
 5399 0042 881B     		.uleb128 .LEHB31-.LFB4187
 5400 0044 10       		.uleb128 .LEHE31-.LEHB31
 5401 0045 801B     		.uleb128 .L523-.LFB4187
 5402 0047 00       		.uleb128 0
 5403 0048 B41B     		.uleb128 .LEHB32-.LFB4187
 5404 004a 38       		.uleb128 .LEHE32-.LEHB32
 5405 004b B81B     		.uleb128 .L521-.LFB4187
 5406 004d 00       		.uleb128 0
 5407 004e EC1B     		.uleb128 .LEHB33-.LFB4187
 5408 0050 08       		.uleb128 .LEHE33-.LEHB33
 5409 0051 C41A     		.uleb128 .L519-.LFB4187
 5410 0053 00       		.uleb128 0
 5411 0054 F41B     		.uleb128 .LEHB34-.LFB4187
 5412 0056 40       		.uleb128 .LEHE34-.LEHB34
 5413 0057 B81B     		.uleb128 .L521-.LFB4187
 5414 0059 00       		.uleb128 0
 5415 005a B41C     		.uleb128 .LEHB35-.LFB4187
 5416 005c 08       		.uleb128 .LEHE35-.LEHB35
 5417 005d C41A     		.uleb128 .L519-.LFB4187
 5418 005f 00       		.uleb128 0
 5419 0060 C01C     		.uleb128 .LEHB36-.LFB4187
 5420 0062 0C       		.uleb128 .LEHE36-.LEHB36
 5421 0063 801B     		.uleb128 .L523-.LFB4187
 5422 0065 00       		.uleb128 0
 5423 0066 CC1C     		.uleb128 .LEHB37-.LFB4187
 5424 0068 04       		.uleb128 .LEHE37-.LEHB37
 5425 0069 00       		.uleb128 0
 5426 006a 00       		.uleb128 0
 5427 006b D41C     		.uleb128 .LEHB38-.LFB4187
 5428 006d 18       		.uleb128 .LEHE38-.LEHB38
 5429 006e C41A     		.uleb128 .L519-.LFB4187
 5430 0070 00       		.uleb128 0
 5431 0071 EC1C     		.uleb128 .LEHB39-.LFB4187
 5432 0073 30       		.uleb128 .LEHE39-.LEHB39
 5433 0074 801B     		.uleb128 .L523-.LFB4187
 5434 0076 00       		.uleb128 0
 5435 0077 9C1D     		.uleb128 .LEHB40-.LFB4187
 5436 0079 04       		.uleb128 .LEHE40-.LEHB40
 5437 007a C41A     		.uleb128 .L519-.LFB4187
 5438 007c 00       		.uleb128 0
 5439 007d A81D     		.uleb128 .LEHB41-.LFB4187
 5440 007f 0C       		.uleb128 .LEHE41-.LEHB41
 5441 0080 801B     		.uleb128 .L523-.LFB4187
 5442 0082 00       		.uleb128 0
 5443              	.LLSDACSE4187:
 5444              		.section	.text._ZN6tflite3ops5micro7pooling7MaxEvalEP13TfLiteContextP10TfLiteNode
 5445              		.fnend
 5447              		.section	.text._ZN6tflite3ops5micro24Register_AVERAGE_POOL_2DEv,"ax",%progbits
 5448              		.align	2
 5449              		.global	_ZN6tflite3ops5micro24Register_AVERAGE_POOL_2DEv
 5450              		.syntax unified
 5451              		.arm
 5452              		.fpu neon
 5454              	_ZN6tflite3ops5micro24Register_AVERAGE_POOL_2DEv:
 5455              		.fnstart
 5456              	.LFB4190:
 242:../src/tensorflow_lite/tensorflow/lite/micro/kernels/pooling.cc **** 
 243:../src/tensorflow_lite/tensorflow/lite/micro/kernels/pooling.cc **** }  // namespace pooling
 244:../src/tensorflow_lite/tensorflow/lite/micro/kernels/pooling.cc **** 
 245:../src/tensorflow_lite/tensorflow/lite/micro/kernels/pooling.cc **** TfLiteRegistration Register_AVERAGE_POOL_2D() {
 5457              		.loc 1 245 0
 5458              		.cfi_startproc
 5459              		@ args = 0, pretend = 0, frame = 0
 5460              		@ frame_needed = 0, uses_anonymous_args = 0
 5461              	.LVL520:
 246:../src/tensorflow_lite/tensorflow/lite/micro/kernels/pooling.cc ****   return {/*init=*/pooling::Init,
 247:../src/tensorflow_lite/tensorflow/lite/micro/kernels/pooling.cc ****           /*free=*/nullptr,
 248:../src/tensorflow_lite/tensorflow/lite/micro/kernels/pooling.cc ****           /*prepare=*/pooling::Prepare,
 249:../src/tensorflow_lite/tensorflow/lite/micro/kernels/pooling.cc ****           /*invoke=*/pooling::AverageEval,
 250:../src/tensorflow_lite/tensorflow/lite/micro/kernels/pooling.cc ****           /*profiling_string=*/nullptr,
 251:../src/tensorflow_lite/tensorflow/lite/micro/kernels/pooling.cc ****           /*builtin_code=*/0,
 252:../src/tensorflow_lite/tensorflow/lite/micro/kernels/pooling.cc ****           /*custom_name=*/nullptr,
 253:../src/tensorflow_lite/tensorflow/lite/micro/kernels/pooling.cc ****           /*version=*/0};
 5462              		.loc 1 253 0
 5463 0000 00C000E3 		movw	ip, #:lower16:.LANCHOR0
 245:../src/tensorflow_lite/tensorflow/lite/micro/kernels/pooling.cc ****   return {/*init=*/pooling::Init,
 5464              		.loc 1 245 0
 5465 0004 10402DE9 		push	{r4, lr}
 5466              		.cfi_def_cfa_offset 8
 5467              		.cfi_offset 4, -8
 5468              		.cfi_offset 14, -4
 5469              		.loc 1 253 0
 5470 0008 00C040E3 		movt	ip, #:upper16:.LANCHOR0
 245:../src/tensorflow_lite/tensorflow/lite/micro/kernels/pooling.cc ****   return {/*init=*/pooling::Init,
 5471              		.loc 1 245 0
 5472 000c 0040A0E1 		mov	r4, r0
 5473              		.loc 1 253 0
 5474 0010 00E0A0E1 		mov	lr, r0
 5475 0014 0F00BCE8 		ldmia	ip!, {r0, r1, r2, r3}
 5476              	.LVL521:
 5477 0018 0F00AEE8 		stmia	lr!, {r0, r1, r2, r3}
 5478 001c 0F009CE8 		ldm	ip, {r0, r1, r2, r3}
 5479 0020 0F008EE8 		stm	lr, {r0, r1, r2, r3}
 254:../src/tensorflow_lite/tensorflow/lite/micro/kernels/pooling.cc **** }
 5480              		.loc 1 254 0
 5481 0024 0400A0E1 		mov	r0, r4
 5482 0028 1080BDE8 		pop	{r4, pc}
 5483              		.cfi_endproc
 5484              	.LFE4190:
 5485              		.cantunwind
 5486              		.fnend
 5488              		.section	.text._ZN6tflite3ops5micro20Register_MAX_POOL_2DEv,"ax",%progbits
 5489              		.align	2
 5490              		.global	_ZN6tflite3ops5micro20Register_MAX_POOL_2DEv
 5491              		.syntax unified
 5492              		.arm
 5493              		.fpu neon
 5495              	_ZN6tflite3ops5micro20Register_MAX_POOL_2DEv:
 5496              		.fnstart
 5497              	.LFB4191:
 255:../src/tensorflow_lite/tensorflow/lite/micro/kernels/pooling.cc **** 
 256:../src/tensorflow_lite/tensorflow/lite/micro/kernels/pooling.cc **** TfLiteRegistration Register_MAX_POOL_2D() {
 5498              		.loc 1 256 0
 5499              		.cfi_startproc
 5500              		@ args = 0, pretend = 0, frame = 0
 5501              		@ frame_needed = 0, uses_anonymous_args = 0
 5502              	.LVL522:
 5503 0000 10402DE9 		push	{r4, lr}
 5504              		.cfi_def_cfa_offset 8
 5505              		.cfi_offset 4, -8
 5506              		.cfi_offset 14, -4
 257:../src/tensorflow_lite/tensorflow/lite/micro/kernels/pooling.cc ****   return {/*init=*/pooling::Init,
 258:../src/tensorflow_lite/tensorflow/lite/micro/kernels/pooling.cc ****           /*free=*/nullptr,
 259:../src/tensorflow_lite/tensorflow/lite/micro/kernels/pooling.cc ****           /*prepare=*/pooling::Prepare,
 260:../src/tensorflow_lite/tensorflow/lite/micro/kernels/pooling.cc ****           /*invoke=*/pooling::MaxEval,
 261:../src/tensorflow_lite/tensorflow/lite/micro/kernels/pooling.cc ****           /*profiling_string=*/nullptr,
 262:../src/tensorflow_lite/tensorflow/lite/micro/kernels/pooling.cc ****           /*builtin_code=*/0,
 263:../src/tensorflow_lite/tensorflow/lite/micro/kernels/pooling.cc ****           /*custom_name=*/nullptr,
 264:../src/tensorflow_lite/tensorflow/lite/micro/kernels/pooling.cc ****           /*version=*/0};
 5507              		.loc 1 264 0
 5508 0004 00C0A0E1 		mov	ip, r0
 5509 0008 18E09FE5 		ldr	lr, .L733
 256:../src/tensorflow_lite/tensorflow/lite/micro/kernels/pooling.cc ****   return {/*init=*/pooling::Init,
 5510              		.loc 1 256 0
 5511 000c 0040A0E1 		mov	r4, r0
 5512              		.loc 1 264 0
 5513 0010 0F00BEE8 		ldmia	lr!, {r0, r1, r2, r3}
 5514              	.LVL523:
 5515 0014 0F00ACE8 		stmia	ip!, {r0, r1, r2, r3}
 5516 0018 0F009EE8 		ldm	lr, {r0, r1, r2, r3}
 5517 001c 0F008CE8 		stm	ip, {r0, r1, r2, r3}
 265:../src/tensorflow_lite/tensorflow/lite/micro/kernels/pooling.cc **** }
 5518              		.loc 1 265 0
 5519 0020 0400A0E1 		mov	r0, r4
 5520 0024 1080BDE8 		pop	{r4, pc}
 5521              	.L734:
 5522              		.align	2
 5523              	.L733:
 5524 0028 20000000 		.word	.LANCHOR0+32
 5525              		.cfi_endproc
 5526              	.LFE4191:
 5527              		.cantunwind
 5528              		.fnend
 5530              		.section	.rodata
 5531              		.align	2
 5532              		.set	.LANCHOR0,. + 0
 5533              	.LC0:
 5534 0000 00000000 		.word	_ZN6tflite3ops5micro7pooling4InitEP13TfLiteContextPKcj
 5535 0004 00000000 		.word	0
 5536 0008 00000000 		.word	_ZN6tflite3ops5micro7pooling7PrepareEP13TfLiteContextP10TfLiteNode
 5537 000c 00000000 		.word	_ZN6tflite3ops5micro7pooling11AverageEvalEP13TfLiteContextP10TfLiteNode
 5538 0010 00000000 		.word	0
 5539 0014 00000000 		.word	0
 5540 0018 00000000 		.word	0
 5541 001c 00000000 		.word	0
 5542              	.LC1:
 5543 0020 00000000 		.word	_ZN6tflite3ops5micro7pooling4InitEP13TfLiteContextPKcj
 5544 0024 00000000 		.word	0
 5545 0028 00000000 		.word	_ZN6tflite3ops5micro7pooling7PrepareEP13TfLiteContextP10TfLiteNode
 5546 002c 00000000 		.word	_ZN6tflite3ops5micro7pooling7MaxEvalEP13TfLiteContextP10TfLiteNode
 5547 0030 00000000 		.word	0
 5548 0034 00000000 		.word	0
 5549 0038 00000000 		.word	0
 5550 003c 00000000 		.word	0
 5551              		.section	.rodata._ZN6tflite3ops5micro7pooling11AverageEvalEP13TfLiteContextP10TfLiteNode.str1.4,"a
 5552              		.align	2
 5553              	.LC6:
 5554 0000 496E7075 		.ascii	"Input type %s is not currently supported\000"
 5554      74207479 
 5554      70652025 
 5554      73206973 
 5554      206E6F74 
 5555              		.section	.rodata._ZN6tflite3ops5micro7pooling7MaxEvalEP13TfLiteContextP10TfLiteNode.str1.4,"aMS",%
 5556              		.align	2
 5557              	.LC7:
 5558 0000 54797065 		.ascii	"Type %s not currently supported.\000"
 5558      20257320 
 5558      6E6F7420 
 5558      63757272 
 5558      656E746C 
 5559              		.section	.rodata._ZN6tflite3ops5micro7pooling7PrepareEP13TfLiteContextP10TfLiteNode.str1.4,"aMS",%
 5560              		.align	2
 5561              	.LC2:
 5562 0000 2E2E2F73 		.ascii	"../src/tensorflow_lite/tensorflow/lite/micro/kernel"
 5562      72632F74 
 5562      656E736F 
 5562      72666C6F 
 5562      775F6C69 
 5563 0033 732F706F 		.ascii	"s/pooling.cc\000"
 5563      6F6C696E 
 5563      672E6363 
 5563      00
 5564              	.LC3:
 5565 0040 25733A25 		.ascii	"%s:%d %s was not true.\000"
 5565      64202573 
 5565      20776173 
 5565      206E6F74 
 5565      20747275 
 5566 0057 00       		.space	1
 5567              	.LC4:
 5568 0058 696E7075 		.ascii	"input != nullptr\000"
 5568      7420213D 
 5568      206E756C 
 5568      6C707472 
 5568      00
 5569 0069 000000   		.space	3
 5570              	.LC5:
 5571 006c 6F757470 		.ascii	"output != nullptr\000"
 5571      75742021 
 5571      3D206E75 
 5571      6C6C7074 
 5571      7200
 5572              		.text
 5573              	.Letext0:
 5574              		.file 9 "c:\\program files (x86)\\gnu tools arm embedded\\6 2017-q2-update\\arm-none-eabi\\include
 5575              		.file 10 "c:\\program files (x86)\\gnu tools arm embedded\\6 2017-q2-update\\arm-none-eabi\\includ
 5576              		.file 11 "c:\\program files (x86)\\gnu tools arm embedded\\6 2017-q2-update\\arm-none-eabi\\includ
 5577              		.file 12 "c:\\program files (x86)\\gnu tools arm embedded\\6 2017-q2-update\\arm-none-eabi\\includ
 5578              		.file 13 "c:\\program files (x86)\\gnu tools arm embedded\\6 2017-q2-update\\arm-none-eabi\\includ
 5579              		.file 14 "c:\\program files (x86)\\gnu tools arm embedded\\6 2017-q2-update\\arm-none-eabi\\includ
 5580              		.file 15 "c:\\program files (x86)\\gnu tools arm embedded\\6 2017-q2-update\\arm-none-eabi\\includ
 5581              		.file 16 "c:\\program files (x86)\\gnu tools arm embedded\\6 2017-q2-update\\arm-none-eabi\\includ
 5582              		.file 17 "c:\\program files (x86)\\gnu tools arm embedded\\6 2017-q2-update\\arm-none-eabi\\includ
 5583              		.file 18 "c:\\program files (x86)\\gnu tools arm embedded\\6 2017-q2-update\\arm-none-eabi\\includ
 5584              		.file 19 "c:\\program files (x86)\\gnu tools arm embedded\\6 2017-q2-update\\arm-none-eabi\\includ
 5585              		.file 20 "c:\\program files (x86)\\gnu tools arm embedded\\6 2017-q2-update\\arm-none-eabi\\includ
 5586              		.file 21 "c:\\program files (x86)\\gnu tools arm embedded\\6 2017-q2-update\\arm-none-eabi\\includ
 5587              		.file 22 "c:\\program files (x86)\\gnu tools arm embedded\\6 2017-q2-update\\arm-none-eabi\\includ
 5588              		.file 23 "c:\\program files (x86)\\gnu tools arm embedded\\6 2017-q2-update\\arm-none-eabi\\includ
 5589              		.file 24 "c:\\program files (x86)\\gnu tools arm embedded\\6 2017-q2-update\\arm-none-eabi\\includ
 5590              		.file 25 "c:\\program files (x86)\\gnu tools arm embedded\\6 2017-q2-update\\arm-none-eabi\\includ
 5591              		.file 26 "c:\\program files (x86)\\gnu tools arm embedded\\6 2017-q2-update\\arm-none-eabi\\includ
 5592              		.file 27 "c:\\program files (x86)\\gnu tools arm embedded\\6 2017-q2-update\\arm-none-eabi\\includ
 5593              		.file 28 "c:\\program files (x86)\\gnu tools arm embedded\\6 2017-q2-update\\arm-none-eabi\\includ
 5594              		.file 29 "c:\\program files (x86)\\gnu tools arm embedded\\6 2017-q2-update\\arm-none-eabi\\includ
 5595              		.file 30 "c:\\program files (x86)\\gnu tools arm embedded\\6 2017-q2-update\\arm-none-eabi\\includ
 5596              		.file 31 "c:\\program files (x86)\\gnu tools arm embedded\\6 2017-q2-update\\lib\\gcc\\arm-none-ea
 5597              		.file 32 "c:\\program files (x86)\\gnu tools arm embedded\\6 2017-q2-update\\arm-none-eabi\\includ
 5598              		.file 33 "c:\\program files (x86)\\gnu tools arm embedded\\6 2017-q2-update\\arm-none-eabi\\includ
 5599              		.file 34 "c:\\program files (x86)\\gnu tools arm embedded\\6 2017-q2-update\\arm-none-eabi\\includ
 5600              		.file 35 "c:\\program files (x86)\\gnu tools arm embedded\\6 2017-q2-update\\arm-none-eabi\\includ
 5601              		.file 36 "c:\\program files (x86)\\gnu tools arm embedded\\6 2017-q2-update\\lib\\gcc\\arm-none-ea
 5602              		.file 37 "<built-in>"
 5603              		.file 38 "c:\\program files (x86)\\gnu tools arm embedded\\6 2017-q2-update\\arm-none-eabi\\includ
 5604              		.file 39 "c:\\program files (x86)\\gnu tools arm embedded\\6 2017-q2-update\\arm-none-eabi\\includ
 5605              		.file 40 "c:\\program files (x86)\\gnu tools arm embedded\\6 2017-q2-update\\arm-none-eabi\\includ
 5606              		.file 41 "c:\\program files (x86)\\gnu tools arm embedded\\6 2017-q2-update\\arm-none-eabi\\includ
 5607              		.file 42 "c:\\program files (x86)\\gnu tools arm embedded\\6 2017-q2-update\\arm-none-eabi\\includ
 5608              		.file 43 "c:\\program files (x86)\\gnu tools arm embedded\\6 2017-q2-update\\arm-none-eabi\\includ
 5609              		.file 44 "c:\\program files (x86)\\gnu tools arm embedded\\6 2017-q2-update\\arm-none-eabi\\includ
 5610              		.file 45 "c:\\program files (x86)\\gnu tools arm embedded\\6 2017-q2-update\\arm-none-eabi\\includ
 5611              		.file 46 "c:\\program files (x86)\\gnu tools arm embedded\\6 2017-q2-update\\arm-none-eabi\\includ
 5612              		.file 47 "C:/Renesas/e2studio_2021_01_workspace_RZA2M_ANPR/ANPR_RZA2M_RDK/src/tensorflow_lite/thir
 5613              		.file 48 "c:\\program files (x86)\\gnu tools arm embedded\\6 2017-q2-update\\arm-none-eabi\\includ
 5614              		.file 49 "C:/Renesas/e2studio_2021_01_workspace_RZA2M_ANPR/ANPR_RZA2M_RDK/src/tensorflow_lite/tens
 5615              		.file 50 "C:/Renesas/e2studio_2021_01_workspace_RZA2M_ANPR/ANPR_RZA2M_RDK/src/tensorflow_lite/tens
 5616              		.file 51 "C:/Renesas/e2studio_2021_01_workspace_RZA2M_ANPR/ANPR_RZA2M_RDK/src/tensorflow_lite/tens
 5617              		.file 52 "C:/Renesas/e2studio_2021_01_workspace_RZA2M_ANPR/ANPR_RZA2M_RDK/src/tensorflow_lite/tens
 5618              		.file 53 "C:/Renesas/e2studio_2021_01_workspace_RZA2M_ANPR/ANPR_RZA2M_RDK/src/tensorflow_lite/tens
DEFINED SYMBOLS
                            *ABS*:00000000 pooling.cc
C:\Users\a5050395\AppData\Local\Temp\cc5VTNTe.s:17     .text._ZN6tflite3ops5micro7pooling4InitEP13TfLiteContextPKcj:00000000 $a
C:\Users\a5050395\AppData\Local\Temp\cc5VTNTe.s:23     .text._ZN6tflite3ops5micro7pooling4InitEP13TfLiteContextPKcj:00000000 _ZN6tflite3ops5micro7pooling4InitEP13TfLiteContextPKcj
.ARM.exidx.text._ZN6tflite3ops5micro7pooling4InitEP13TfLiteContextPKcj:00000000 $d
C:\Users\a5050395\AppData\Local\Temp\cc5VTNTe.s:57     .text._ZN6tflite3ops5micro7pooling7PrepareEP13TfLiteContextP10TfLiteNode:00000000 $a
C:\Users\a5050395\AppData\Local\Temp\cc5VTNTe.s:63     .text._ZN6tflite3ops5micro7pooling7PrepareEP13TfLiteContextP10TfLiteNode:00000000 _ZN6tflite3ops5micro7pooling7PrepareEP13TfLiteContextP10TfLiteNode
C:\Users\a5050395\AppData\Local\Temp\cc5VTNTe.s:5567   .rodata._ZN6tflite3ops5micro7pooling7PrepareEP13TfLiteContextP10TfLiteNode.str1.4:00000058 .LC4
C:\Users\a5050395\AppData\Local\Temp\cc5VTNTe.s:5561   .rodata._ZN6tflite3ops5micro7pooling7PrepareEP13TfLiteContextP10TfLiteNode.str1.4:00000000 .LC2
C:\Users\a5050395\AppData\Local\Temp\cc5VTNTe.s:5564   .rodata._ZN6tflite3ops5micro7pooling7PrepareEP13TfLiteContextP10TfLiteNode.str1.4:00000040 .LC3
C:\Users\a5050395\AppData\Local\Temp\cc5VTNTe.s:5570   .rodata._ZN6tflite3ops5micro7pooling7PrepareEP13TfLiteContextP10TfLiteNode.str1.4:0000006c .LC5
.ARM.exidx.text._ZN6tflite3ops5micro7pooling7PrepareEP13TfLiteContextP10TfLiteNode:00000000 $d
C:\Users\a5050395\AppData\Local\Temp\cc5VTNTe.s:581    .text._ZN6tflite3ops5micro7pooling11AverageEvalEP13TfLiteContextP10TfLiteNode:00000000 $a
C:\Users\a5050395\AppData\Local\Temp\cc5VTNTe.s:587    .text._ZN6tflite3ops5micro7pooling11AverageEvalEP13TfLiteContextP10TfLiteNode:00000000 _ZN6tflite3ops5micro7pooling11AverageEvalEP13TfLiteContextP10TfLiteNode
C:\Users\a5050395\AppData\Local\Temp\cc5VTNTe.s:5553   .rodata._ZN6tflite3ops5micro7pooling11AverageEvalEP13TfLiteContextP10TfLiteNode.str1.4:00000000 .LC6
C:\Users\a5050395\AppData\Local\Temp\cc5VTNTe.s:1264   .text._ZN6tflite3ops5micro7pooling11AverageEvalEP13TfLiteContextP10TfLiteNode:000004b4 $d
C:\Users\a5050395\AppData\Local\Temp\cc5VTNTe.s:1270   .text._ZN6tflite3ops5micro7pooling11AverageEvalEP13TfLiteContextP10TfLiteNode:000004b8 $a
.ARM.extab.text._ZN6tflite3ops5micro7pooling11AverageEvalEP13TfLiteContextP10TfLiteNode:00000000 $d
.ARM.exidx.text._ZN6tflite3ops5micro7pooling11AverageEvalEP13TfLiteContextP10TfLiteNode:00000000 $d
C:\Users\a5050395\AppData\Local\Temp\cc5VTNTe.s:2988   .text._ZN6tflite3ops5micro7pooling7MaxEvalEP13TfLiteContextP10TfLiteNode:00000000 $a
C:\Users\a5050395\AppData\Local\Temp\cc5VTNTe.s:2994   .text._ZN6tflite3ops5micro7pooling7MaxEvalEP13TfLiteContextP10TfLiteNode:00000000 _ZN6tflite3ops5micro7pooling7MaxEvalEP13TfLiteContextP10TfLiteNode
C:\Users\a5050395\AppData\Local\Temp\cc5VTNTe.s:5557   .rodata._ZN6tflite3ops5micro7pooling7MaxEvalEP13TfLiteContextP10TfLiteNode.str1.4:00000000 .LC7
C:\Users\a5050395\AppData\Local\Temp\cc5VTNTe.s:3642   .text._ZN6tflite3ops5micro7pooling7MaxEvalEP13TfLiteContextP10TfLiteNode:000004c8 $d
C:\Users\a5050395\AppData\Local\Temp\cc5VTNTe.s:3648   .text._ZN6tflite3ops5micro7pooling7MaxEvalEP13TfLiteContextP10TfLiteNode:000004cc $a
.ARM.extab.text._ZN6tflite3ops5micro7pooling7MaxEvalEP13TfLiteContextP10TfLiteNode:00000000 $d
.ARM.exidx.text._ZN6tflite3ops5micro7pooling7MaxEvalEP13TfLiteContextP10TfLiteNode:00000000 $d
C:\Users\a5050395\AppData\Local\Temp\cc5VTNTe.s:5448   .text._ZN6tflite3ops5micro24Register_AVERAGE_POOL_2DEv:00000000 $a
C:\Users\a5050395\AppData\Local\Temp\cc5VTNTe.s:5454   .text._ZN6tflite3ops5micro24Register_AVERAGE_POOL_2DEv:00000000 _ZN6tflite3ops5micro24Register_AVERAGE_POOL_2DEv
C:\Users\a5050395\AppData\Local\Temp\cc5VTNTe.s:5532   .rodata:00000000 .LANCHOR0
.ARM.exidx.text._ZN6tflite3ops5micro24Register_AVERAGE_POOL_2DEv:00000000 $d
C:\Users\a5050395\AppData\Local\Temp\cc5VTNTe.s:5489   .text._ZN6tflite3ops5micro20Register_MAX_POOL_2DEv:00000000 $a
C:\Users\a5050395\AppData\Local\Temp\cc5VTNTe.s:5495   .text._ZN6tflite3ops5micro20Register_MAX_POOL_2DEv:00000000 _ZN6tflite3ops5micro20Register_MAX_POOL_2DEv
C:\Users\a5050395\AppData\Local\Temp\cc5VTNTe.s:5524   .text._ZN6tflite3ops5micro20Register_MAX_POOL_2DEv:00000028 $d
.ARM.exidx.text._ZN6tflite3ops5micro20Register_MAX_POOL_2DEv:00000000 $d
C:\Users\a5050395\AppData\Local\Temp\cc5VTNTe.s:5531   .rodata:00000000 $d
C:\Users\a5050395\AppData\Local\Temp\cc5VTNTe.s:5552   .rodata._ZN6tflite3ops5micro7pooling11AverageEvalEP13TfLiteContextP10TfLiteNode.str1.4:00000000 $d
C:\Users\a5050395\AppData\Local\Temp\cc5VTNTe.s:5556   .rodata._ZN6tflite3ops5micro7pooling7MaxEvalEP13TfLiteContextP10TfLiteNode.str1.4:00000000 $d
C:\Users\a5050395\AppData\Local\Temp\cc5VTNTe.s:5560   .rodata._ZN6tflite3ops5micro7pooling7PrepareEP13TfLiteContextP10TfLiteNode.str1.4:00000000 $d
                     .debug_frame:00000010 $d
                           .group:00000000 wm4.0.3e1481985cce1e923928453d8be0a65b
                           .group:00000000 wm4.cconfig.h.31.1472b8c7bd4952a63a52f3f4f718f872
                           .group:00000000 wm4.cpu_defines.h.31.54d44f9d3e7c42875c5a7fd49795eb93
                           .group:00000000 wm4.cconfig.h.515.5e729db314ae74226e291b4ae081e353
                           .group:00000000 wm4.atomic_lockfree_defines.h.31.d5c6334fb1e95c9462b052951f1411df
                           .group:00000000 wm4.exception_defines.h.31.ca6841b9be3287386aafc5c717935b2e
                           .group:00000000 wm4.concept_check.h.31.f19605d278e56917c68a56d378be308c
                           .group:00000000 wm4.type_traits.30.2c7323a483bcd7601e8b71d2546ae284
                           .group:00000000 wm4.move.h.152.41d7b9e6779674d169b7813982cfa003
                           .group:00000000 wm4.cpp_type_traits.h.33.9f2bfd8c4471a9a299f6da3ec24c745c
                           .group:00000000 wm4.numeric_traits.h.30.aa01a98564b7e55086aad9e53c7e5c53
                           .group:00000000 wm4.assertions.h.30.51d443923f0d242550e04246a7819b39
                           .group:00000000 wm4.stl_iterator.h.1250.45f349a262f1b0d836d8edbc4b7b98ff
                           .group:00000000 wm4.debug.h.30.5c1f223b12199e851d4d42805b788ccf
                           .group:00000000 wm4.stl_algobase.h.491.aa250b69c90aafa2a0a62b8c58cd5f30
                           .group:00000000 wm4._newlib_version.h.4.3572908597b70d672d181fc7fc501c19
                           .group:00000000 wm4.newlib.h.21.59901f4bf241ab46c63694665baa7297
                           .group:00000000 wm4.features.h.22.37852b648068a281464730a5a4cc748e
                           .group:00000000 wm4.config.h.219.65a553ab5bef5482f0d7880b0d33015e
                           .group:00000000 wm4._ansi.h.23.1ee1144430bedaab1a14c7b57a6c8384
                           .group:00000000 wm4.stddef.h.39.fa2e86d241f4df50b9327c72832885e1
                           .group:00000000 wm4._default_types.h.6.959254cf5f09734ea7516c89e8bb21bd
                           .group:00000000 wm4.lock.h.2.1461d1fff82dffe8bfddc23307f6484f
                           .group:00000000 wm4._types.h.125.5cf8a495f1f7ef36777ad868a1e32068
                           .group:00000000 wm4.stddef.h.161.7e98c9c86da0ed2d27af2ef92af7d013
                           .group:00000000 wm4._types.h.183.c226d164ceca1f2ecb9ae9360c54a098
                           .group:00000000 wm4.reent.h.17.23b059516345f8f5abfa01ddc379570f
                           .group:00000000 wm4.wchar.h.8.acdef4366e64def8c588421024712d23
                           .group:00000000 wm4.stddef.h.161.9f48187563b2a85291a91832aa425498
                           .group:00000000 wm4.cdefs.h.47.9bc8274c84fddbf05edd550eb0bf48cd
                           .group:00000000 wm4.stdarg.h.34.3a23a216c0c293b3d2ea2e89281481e6
                           .group:00000000 wm4.wchar.h.41.bce54f0deafe8a72ebb0005417e8a086
                           .group:00000000 wm4.cwchar.48.c4e882638bf84f6da89479dda6fe8e17
                           .group:00000000 wm4.stdint.h.4.659be5aa44c4ab4eb7c7cc2b24d8ceee
                           .group:00000000 wm4._intsup.h.10.cce27fed8484c08a33f522034c30d2b5
                           .group:00000000 wm4._stdint.h.10.c24fa3af3bc1706662bb5593a907e841
                           .group:00000000 wm4.stdint.h.23.4c107c5a20920bfc6e94fb2672bbd9ee
                           .group:00000000 wm4.allocator.h.52.0ceafb36dc1b82dbfa6b05003082e3f5
                           .group:00000000 wm4.stddef.h.161.38688f2eb958a8ed58fdb61ffe554c94
                           .group:00000000 wm4.locale.h.16.524572cf3c2ed9856516685acdc598fe
                           .group:00000000 wm4.clocale.45.c36d2d5b631a875aa5273176b54fdf0f
                           .group:00000000 wm4.ctype.h.2.da310d2ad165ccf8b86542f76fdb938d
                           .group:00000000 wm4.cctype.45.0da5714876b0be7f2d816b53d9670403
                           .group:00000000 wm4.gthr.h.27.ceb1c66b926f052afcba57e8784df0d4
                           .group:00000000 wm4.gthrdefault.h.27.edc94d4398c0534988962be77dc3c2e1
                           .group:00000000 wm4.atomic_word.h.30.9e0ac69fd462d5e650933e05133b4afa
                           .group:00000000 wm4.alloc_traits.h.31.c41c7c4789404962122a4e991dfa3abf
                           .group:00000000 wm4.cstdlib.44.52c5efdfb0f3c176bd11e611a0b94959
                           .group:00000000 wm4.stdlib.h.13.4ed386f5c1a80d71e72172885d946ef2
                           .group:00000000 wm4.stdlib.h.56.b4ddaf162082f284ba35b4444af99a9a
                           .group:00000000 wm4.cstdlib.76.ae666499c8f9b0ace1b4b23fe143da2c
                           .group:00000000 wm4.stdio.h.27.3fc80220048df77954e38daec3bb9670
                           .group:00000000 wm4.types.h.40.e8c16e7ec36ba55f133d0616070e25fc
                           .group:00000000 wm4.types.h.114.fb65732f4f5f288a036a25898de2c91f
                           .group:00000000 wm4.stdio.h.2.4aa87247282eca6c8f36f9de33d8df1a
                           .group:00000000 wm4.stdio.h.81.c3e9cb15e5af2807c4650345134c1a8a
                           .group:00000000 wm4.cstdio.45.ba8d321feb18bfc8923454067605c368
                           .group:00000000 wm4.errno.h.2.ba016d646105af6cad23be83630b6a3f
                           .group:00000000 wm4.errno.h.9.1ecd7b1049497a0ab61da0f6cbd4b0c6
                           .group:00000000 wm4.functional_hash.h.31.bccc014fee6fc3f930045d809df6f486
                           .group:00000000 wm4.functional.549.0bc5b448cf999863d3841495cd6fe920
                           .group:00000000 wm4.limits.38.55aefcf041805b6211ca3649dd2ab1b5
                           .group:00000000 wm4.assert.h.11.a5d97ca77559a42890313c4941c01fd9
                           .group:00000000 wm4.math.h.13.e7cbdea54f4da98ab8f7fad4d23502b2
                           .group:00000000 wm4.cmath.46.d6e5b776115d39075860ed881d18f087
                           .group:00000000 wm4.detect_platform.h.19.a1891273c0cad215067ddb8219400136
                           .group:00000000 wm4.fixedpoint.h.567.8a6371d9452be19811601bace78b0abc
                           .group:00000000 wm4.cmath.44.b3bcbb5fe53ec6617dec8aa8eb7b03cc
                           .group:00000000 wm4.cppmath.h.27.51580d700716589df4b364298e2ef577
                           .group:00000000 wm4.neon_check.h.16.79a4dcb572cbeac06c4924f1f20cb68d
                           .group:00000000 wm4.string.h.8.c4b8571ce60dff2817f43fec8b86aecd
                           .group:00000000 wm4.cstring.45.6ab09de7fb97b576e744347688ddc8d7
                           .group:00000000 wm4.op_macros.h.42.7b718cb416a067e7bb07e7699647769b
                           .group:00000000 wm4.compatibility.h.23.702d6356326ea59aded8ef5c6c4626d5
                           .group:00000000 wm4.stdbool.h.29.01580e438512fc255c0619569742ffd3
                           .group:00000000 wm4.c_api_types.h.20.9b09175981ed746180e205cc0b4b2bfd
                           .group:00000000 wm4.common.h.77.124de099ec0ac4f95ebf1618a5f42cf6

UNDEFINED SYMBOLS
abort
__aeabi_unwind_cpp_pr0
__aeabi_idiv
_ZN6tflite8GetInputEPK13TfLiteContextPK10TfLiteNodei
_ZN6tflite9GetOutputEP13TfLiteContextPK10TfLiteNodei
_ZN6tflite33CalculateActivationRangeQuantizedEP13TfLiteContext21TfLiteFusedActivationP12TfLiteTensorPlS5_
__gxx_personality_v0
TfLiteTypeGetName
_ZN6tflite5micro14GetTensorShapeEPK16TfLiteEvalTensor
_ZdaPv
__cxa_end_cleanup
