   1              		.cpu cortex-a9
   2              		.eabi_attribute 28, 1
   3              		.eabi_attribute 20, 1
   4              		.eabi_attribute 21, 1
   5              		.eabi_attribute 23, 3
   6              		.eabi_attribute 24, 1
   7              		.eabi_attribute 25, 1
   8              		.eabi_attribute 26, 1
   9              		.eabi_attribute 30, 2
  10              		.eabi_attribute 34, 0
  11              		.eabi_attribute 18, 4
  12              		.file	"prelu.cc"
  13              		.text
  14              	.Ltext0:
  15              		.cfi_sections	.debug_frame
  16              		.section	.text._ZN6tflite3ops5micro11activations9PreluInitEP13TfLiteContextPKcj,"ax",%progbits
  17              		.align	2
  18              		.global	_ZN6tflite3ops5micro11activations9PreluInitEP13TfLiteContextPKcj
  19              		.syntax unified
  20              		.arm
  21              		.fpu neon
  23              	_ZN6tflite3ops5micro11activations9PreluInitEP13TfLiteContextPKcj:
  24              		.fnstart
  25              	.LFB4171:
  26              		.file 1 "../src/tensorflow_lite/tensorflow/lite/micro/kernels/prelu.cc"
   1:../src/tensorflow_lite/tensorflow/lite/micro/kernels/prelu.cc **** /* Copyright 2019 The TensorFlow Authors. All Rights Reserved.
   2:../src/tensorflow_lite/tensorflow/lite/micro/kernels/prelu.cc **** 
   3:../src/tensorflow_lite/tensorflow/lite/micro/kernels/prelu.cc **** Licensed under the Apache License, Version 2.0 (the "License");
   4:../src/tensorflow_lite/tensorflow/lite/micro/kernels/prelu.cc **** you may not use this file except in compliance with the License.
   5:../src/tensorflow_lite/tensorflow/lite/micro/kernels/prelu.cc **** You may obtain a copy of the License at
   6:../src/tensorflow_lite/tensorflow/lite/micro/kernels/prelu.cc **** 
   7:../src/tensorflow_lite/tensorflow/lite/micro/kernels/prelu.cc ****     http://www.apache.org/licenses/LICENSE-2.0
   8:../src/tensorflow_lite/tensorflow/lite/micro/kernels/prelu.cc **** 
   9:../src/tensorflow_lite/tensorflow/lite/micro/kernels/prelu.cc **** Unless required by applicable law or agreed to in writing, software
  10:../src/tensorflow_lite/tensorflow/lite/micro/kernels/prelu.cc **** distributed under the License is distributed on an "AS IS" BASIS,
  11:../src/tensorflow_lite/tensorflow/lite/micro/kernels/prelu.cc **** WITHOUT WARRANTIES OR CONDITIONS OF ANY KIND, either express or implied.
  12:../src/tensorflow_lite/tensorflow/lite/micro/kernels/prelu.cc **** See the License for the specific language governing permissions and
  13:../src/tensorflow_lite/tensorflow/lite/micro/kernels/prelu.cc **** limitations under the License.
  14:../src/tensorflow_lite/tensorflow/lite/micro/kernels/prelu.cc **** ==============================================================================*/
  15:../src/tensorflow_lite/tensorflow/lite/micro/kernels/prelu.cc **** 
  16:../src/tensorflow_lite/tensorflow/lite/micro/kernels/prelu.cc **** #include "tensorflow/lite/kernels/internal/reference/prelu.h"
  17:../src/tensorflow_lite/tensorflow/lite/micro/kernels/prelu.cc **** 
  18:../src/tensorflow_lite/tensorflow/lite/micro/kernels/prelu.cc **** #include <cstdint>
  19:../src/tensorflow_lite/tensorflow/lite/micro/kernels/prelu.cc **** 
  20:../src/tensorflow_lite/tensorflow/lite/micro/kernels/prelu.cc **** #include "tensorflow/lite/c/common.h"
  21:../src/tensorflow_lite/tensorflow/lite/micro/kernels/prelu.cc **** #include "tensorflow/lite/kernels/internal/quantization_util.h"
  22:../src/tensorflow_lite/tensorflow/lite/micro/kernels/prelu.cc **** #include "tensorflow/lite/kernels/internal/tensor_ctypes.h"
  23:../src/tensorflow_lite/tensorflow/lite/micro/kernels/prelu.cc **** #include "tensorflow/lite/kernels/kernel_util.h"
  24:../src/tensorflow_lite/tensorflow/lite/micro/kernels/prelu.cc **** #include "tensorflow/lite/micro/kernels/kernel_util.h"
  25:../src/tensorflow_lite/tensorflow/lite/micro/kernels/prelu.cc **** 
  26:../src/tensorflow_lite/tensorflow/lite/micro/kernels/prelu.cc **** namespace tflite {
  27:../src/tensorflow_lite/tensorflow/lite/micro/kernels/prelu.cc **** namespace ops {
  28:../src/tensorflow_lite/tensorflow/lite/micro/kernels/prelu.cc **** namespace micro {
  29:../src/tensorflow_lite/tensorflow/lite/micro/kernels/prelu.cc **** namespace activations {
  30:../src/tensorflow_lite/tensorflow/lite/micro/kernels/prelu.cc **** namespace {
  31:../src/tensorflow_lite/tensorflow/lite/micro/kernels/prelu.cc **** 
  32:../src/tensorflow_lite/tensorflow/lite/micro/kernels/prelu.cc **** TfLiteStatus CalculatePreluParams(const TfLiteTensor* input,
  33:../src/tensorflow_lite/tensorflow/lite/micro/kernels/prelu.cc ****                                   const TfLiteTensor* alpha,
  34:../src/tensorflow_lite/tensorflow/lite/micro/kernels/prelu.cc ****                                   TfLiteTensor* output, PreluParams* params) {
  35:../src/tensorflow_lite/tensorflow/lite/micro/kernels/prelu.cc ****   if (output->type == kTfLiteInt8 || output->type == kTfLiteUInt8 ||
  36:../src/tensorflow_lite/tensorflow/lite/micro/kernels/prelu.cc ****       output->type == kTfLiteInt16) {
  37:../src/tensorflow_lite/tensorflow/lite/micro/kernels/prelu.cc ****     double real_multiplier_1 = static_cast<double>(input->params.scale) /
  38:../src/tensorflow_lite/tensorflow/lite/micro/kernels/prelu.cc ****                                static_cast<double>(output->params.scale);
  39:../src/tensorflow_lite/tensorflow/lite/micro/kernels/prelu.cc ****     double real_multiplier_2 = static_cast<double>(input->params.scale) *
  40:../src/tensorflow_lite/tensorflow/lite/micro/kernels/prelu.cc ****                                static_cast<double>(alpha->params.scale) /
  41:../src/tensorflow_lite/tensorflow/lite/micro/kernels/prelu.cc ****                                static_cast<double>(output->params.scale);
  42:../src/tensorflow_lite/tensorflow/lite/micro/kernels/prelu.cc ****     QuantizeMultiplier(real_multiplier_1, &params->output_multiplier_1,
  43:../src/tensorflow_lite/tensorflow/lite/micro/kernels/prelu.cc ****                        &params->output_shift_1);
  44:../src/tensorflow_lite/tensorflow/lite/micro/kernels/prelu.cc ****     QuantizeMultiplier(real_multiplier_2, &params->output_multiplier_2,
  45:../src/tensorflow_lite/tensorflow/lite/micro/kernels/prelu.cc ****                        &params->output_shift_2);
  46:../src/tensorflow_lite/tensorflow/lite/micro/kernels/prelu.cc **** 
  47:../src/tensorflow_lite/tensorflow/lite/micro/kernels/prelu.cc ****     params->input_offset = -input->params.zero_point;
  48:../src/tensorflow_lite/tensorflow/lite/micro/kernels/prelu.cc ****     params->alpha_offset = -alpha->params.zero_point;
  49:../src/tensorflow_lite/tensorflow/lite/micro/kernels/prelu.cc ****     params->output_offset = output->params.zero_point;
  50:../src/tensorflow_lite/tensorflow/lite/micro/kernels/prelu.cc ****   }
  51:../src/tensorflow_lite/tensorflow/lite/micro/kernels/prelu.cc **** 
  52:../src/tensorflow_lite/tensorflow/lite/micro/kernels/prelu.cc ****   return kTfLiteOk;
  53:../src/tensorflow_lite/tensorflow/lite/micro/kernels/prelu.cc **** }
  54:../src/tensorflow_lite/tensorflow/lite/micro/kernels/prelu.cc **** 
  55:../src/tensorflow_lite/tensorflow/lite/micro/kernels/prelu.cc **** }  // namespace
  56:../src/tensorflow_lite/tensorflow/lite/micro/kernels/prelu.cc **** 
  57:../src/tensorflow_lite/tensorflow/lite/micro/kernels/prelu.cc **** inline void BroadcastPrelu4DSlowFloat(
  58:../src/tensorflow_lite/tensorflow/lite/micro/kernels/prelu.cc ****     const RuntimeShape& unextended_input1_shape, const float* input1_data,
  59:../src/tensorflow_lite/tensorflow/lite/micro/kernels/prelu.cc ****     const RuntimeShape& unextended_input2_shape, const float* input2_data,
  60:../src/tensorflow_lite/tensorflow/lite/micro/kernels/prelu.cc ****     const RuntimeShape& unextended_output_shape, float* output_data) {
  61:../src/tensorflow_lite/tensorflow/lite/micro/kernels/prelu.cc ****   TFLITE_DCHECK_LE(unextended_input1_shape.DimensionsCount(), 4);
  62:../src/tensorflow_lite/tensorflow/lite/micro/kernels/prelu.cc ****   TFLITE_DCHECK_LE(unextended_input2_shape.DimensionsCount(), 4);
  63:../src/tensorflow_lite/tensorflow/lite/micro/kernels/prelu.cc ****   TFLITE_DCHECK_LE(unextended_output_shape.DimensionsCount(), 4);
  64:../src/tensorflow_lite/tensorflow/lite/micro/kernels/prelu.cc ****   const RuntimeShape output_shape =
  65:../src/tensorflow_lite/tensorflow/lite/micro/kernels/prelu.cc ****       RuntimeShape::ExtendedShape(4, unextended_output_shape);
  66:../src/tensorflow_lite/tensorflow/lite/micro/kernels/prelu.cc **** 
  67:../src/tensorflow_lite/tensorflow/lite/micro/kernels/prelu.cc ****   NdArrayDesc<4> desc1;
  68:../src/tensorflow_lite/tensorflow/lite/micro/kernels/prelu.cc ****   NdArrayDesc<4> desc2;
  69:../src/tensorflow_lite/tensorflow/lite/micro/kernels/prelu.cc ****   NdArrayDescsForElementwiseBroadcast(unextended_input1_shape,
  70:../src/tensorflow_lite/tensorflow/lite/micro/kernels/prelu.cc ****                                       unextended_input2_shape, &desc1, &desc2);
  71:../src/tensorflow_lite/tensorflow/lite/micro/kernels/prelu.cc **** 
  72:../src/tensorflow_lite/tensorflow/lite/micro/kernels/prelu.cc ****   for (int b = 0; b < output_shape.Dims(0); ++b) {
  73:../src/tensorflow_lite/tensorflow/lite/micro/kernels/prelu.cc ****     for (int y = 0; y < output_shape.Dims(1); ++y) {
  74:../src/tensorflow_lite/tensorflow/lite/micro/kernels/prelu.cc ****       for (int x = 0; x < output_shape.Dims(2); ++x) {
  75:../src/tensorflow_lite/tensorflow/lite/micro/kernels/prelu.cc ****         for (int c = 0; c < output_shape.Dims(3); ++c) {
  76:../src/tensorflow_lite/tensorflow/lite/micro/kernels/prelu.cc ****           auto out_idx = Offset(output_shape, b, y, x, c);
  77:../src/tensorflow_lite/tensorflow/lite/micro/kernels/prelu.cc ****           auto in1_idx = SubscriptToIndex(desc1, b, y, x, c);
  78:../src/tensorflow_lite/tensorflow/lite/micro/kernels/prelu.cc ****           auto in2_idx = SubscriptToIndex(desc2, b, y, x, c);
  79:../src/tensorflow_lite/tensorflow/lite/micro/kernels/prelu.cc ****           auto in1_val = input1_data[in1_idx];
  80:../src/tensorflow_lite/tensorflow/lite/micro/kernels/prelu.cc ****           auto in2_val = input2_data[in2_idx];
  81:../src/tensorflow_lite/tensorflow/lite/micro/kernels/prelu.cc ****           output_data[out_idx] = in1_val >= 0.0f ? in1_val : in1_val * in2_val;
  82:../src/tensorflow_lite/tensorflow/lite/micro/kernels/prelu.cc ****         }
  83:../src/tensorflow_lite/tensorflow/lite/micro/kernels/prelu.cc ****       }
  84:../src/tensorflow_lite/tensorflow/lite/micro/kernels/prelu.cc ****     }
  85:../src/tensorflow_lite/tensorflow/lite/micro/kernels/prelu.cc ****   }
  86:../src/tensorflow_lite/tensorflow/lite/micro/kernels/prelu.cc **** }
  87:../src/tensorflow_lite/tensorflow/lite/micro/kernels/prelu.cc **** 
  88:../src/tensorflow_lite/tensorflow/lite/micro/kernels/prelu.cc **** void* PreluInit(TfLiteContext* context, const char* buffer, size_t length) {
  27              		.loc 1 88 0
  28              		.cfi_startproc
  29              		@ args = 0, pretend = 0, frame = 0
  30              		@ frame_needed = 0, uses_anonymous_args = 0
  31              	.LVL0:
  89:../src/tensorflow_lite/tensorflow/lite/micro/kernels/prelu.cc ****   TFLITE_DCHECK(context->AllocatePersistentBuffer != nullptr);
  32              		.loc 1 89 0
  33 0000 383090E5 		ldr	r3, [r0, #56]
  34 0004 000053E3 		cmp	r3, #0
  35 0008 0100000A 		beq	.L7
  90:../src/tensorflow_lite/tensorflow/lite/micro/kernels/prelu.cc ****   return context->AllocatePersistentBuffer(context, sizeof(PreluParams));
  36              		.loc 1 90 0
  37 000c 1C10A0E3 		mov	r1, #28
  38              	.LVL1:
  39 0010 13FF2FE1 		bx	r3
  40              	.LVL2:
  41              	.L7:
  88:../src/tensorflow_lite/tensorflow/lite/micro/kernels/prelu.cc ****   TFLITE_DCHECK(context->AllocatePersistentBuffer != nullptr);
  42              		.loc 1 88 0 discriminator 1
  43 0014 10402DE9 		push	{r4, lr}
  44              		.save {r4, lr}
  45              		.cfi_def_cfa_offset 8
  46              		.cfi_offset 4, -8
  47              		.cfi_offset 14, -4
  89:../src/tensorflow_lite/tensorflow/lite/micro/kernels/prelu.cc ****   TFLITE_DCHECK(context->AllocatePersistentBuffer != nullptr);
  48              		.loc 1 89 0 discriminator 1
  49 0018 FEFFFFEB 		bl	abort
  50              	.LVL3:
  51              		.cfi_endproc
  52              	.LFE4171:
  53              		.fnend
  55              		.section	.text._ZN6tflite3ops5micro11activations12PreluPrepareEP13TfLiteContextP10TfLiteNode,"ax",
  56              		.align	2
  57              		.global	_ZN6tflite3ops5micro11activations12PreluPrepareEP13TfLiteContextP10TfLiteNode
  58              		.syntax unified
  59              		.arm
  60              		.fpu neon
  62              	_ZN6tflite3ops5micro11activations12PreluPrepareEP13TfLiteContextP10TfLiteNode:
  63              		.fnstart
  64              	.LFB4172:
  91:../src/tensorflow_lite/tensorflow/lite/micro/kernels/prelu.cc **** }
  92:../src/tensorflow_lite/tensorflow/lite/micro/kernels/prelu.cc **** 
  93:../src/tensorflow_lite/tensorflow/lite/micro/kernels/prelu.cc **** TfLiteStatus PreluPrepare(TfLiteContext* context, TfLiteNode* node) {
  65              		.loc 1 93 0
  66              		.cfi_startproc
  67              		@ args = 0, pretend = 0, frame = 0
  68              		@ frame_needed = 0, uses_anonymous_args = 0
  69              	.LVL4:
  70 0000 F0412DE9 		push	{r4, r5, r6, r7, r8, lr}
  71              		.save {r4, r5, r6, r7, r8, lr}
  72              		.cfi_def_cfa_offset 24
  73              		.cfi_offset 4, -24
  74              		.cfi_offset 5, -20
  75              		.cfi_offset 6, -16
  76              		.cfi_offset 7, -12
  77              		.cfi_offset 8, -8
  78              		.cfi_offset 14, -4
  94:../src/tensorflow_lite/tensorflow/lite/micro/kernels/prelu.cc ****   TFLITE_DCHECK(node->user_data != nullptr);
  79              		.loc 1 94 0
  80 0004 104091E5 		ldr	r4, [r1, #16]
  93:../src/tensorflow_lite/tensorflow/lite/micro/kernels/prelu.cc ****   TFLITE_DCHECK(node->user_data != nullptr);
  81              		.loc 1 93 0
  82 0008 028B2DED 		vpush.64	{d8}
  83              		.vsave {d8}
  84              		.cfi_def_cfa_offset 32
  85              		.cfi_offset 80, -32
  86              		.cfi_offset 81, -28
  87              		.pad #8
  88 000c 08D04DE2 		sub	sp, sp, #8
  89              		.cfi_def_cfa_offset 40
  90              		.loc 1 94 0
  91 0010 000054E3 		cmp	r4, #0
  92 0014 6000000A 		beq	.L16
  93              	.LVL5:
  95:../src/tensorflow_lite/tensorflow/lite/micro/kernels/prelu.cc ****   PreluParams* params = static_cast<PreluParams*>(node->user_data);
  96:../src/tensorflow_lite/tensorflow/lite/micro/kernels/prelu.cc **** 
  97:../src/tensorflow_lite/tensorflow/lite/micro/kernels/prelu.cc ****   const TfLiteTensor* input = GetInput(context, node, 0);
  94              		.loc 1 97 0
  95 0018 0020A0E3 		mov	r2, #0
  96 001c 0150A0E1 		mov	r5, r1
  97 0020 0060A0E1 		mov	r6, r0
  98 0024 FEFFFFEB 		bl	_ZN6tflite8GetInputEPK13TfLiteContextPK10TfLiteNodei
  99              	.LVL6:
  98:../src/tensorflow_lite/tensorflow/lite/micro/kernels/prelu.cc ****   TF_LITE_ENSURE(context, input != nullptr);
 100              		.loc 1 98 0
 101 0028 008050E2 		subs	r8, r0, #0
 102 002c 3100000A 		beq	.L17
  99:../src/tensorflow_lite/tensorflow/lite/micro/kernels/prelu.cc ****   const TfLiteTensor* alpha = GetInput(context, node, 1);
 103              		.loc 1 99 0
 104 0030 0120A0E3 		mov	r2, #1
 105 0034 0510A0E1 		mov	r1, r5
 106 0038 0600A0E1 		mov	r0, r6
 107              	.LVL7:
 108 003c FEFFFFEB 		bl	_ZN6tflite8GetInputEPK13TfLiteContextPK10TfLiteNodei
 109              	.LVL8:
 100:../src/tensorflow_lite/tensorflow/lite/micro/kernels/prelu.cc ****   TF_LITE_ENSURE(context, alpha != nullptr);
 110              		.loc 1 100 0
 111 0040 007050E2 		subs	r7, r0, #0
 112 0044 3A00000A 		beq	.L18
 101:../src/tensorflow_lite/tensorflow/lite/micro/kernels/prelu.cc ****   TfLiteTensor* output = GetOutput(context, node, 0);
 113              		.loc 1 101 0
 114 0048 0510A0E1 		mov	r1, r5
 115 004c 0020A0E3 		mov	r2, #0
 116 0050 0600A0E1 		mov	r0, r6
 117              	.LVL9:
 118 0054 FEFFFFEB 		bl	_ZN6tflite9GetOutputEP13TfLiteContextPK10TfLiteNodei
 119              	.LVL10:
 102:../src/tensorflow_lite/tensorflow/lite/micro/kernels/prelu.cc ****   TF_LITE_ENSURE(context, output != nullptr);
 120              		.loc 1 102 0
 121 0058 005050E2 		subs	r5, r0, #0
 122              	.LVL11:
 123 005c 4100000A 		beq	.L19
 124              	.LVL12:
 125              	.LBB234:
 126              	.LBB235:
  35:../src/tensorflow_lite/tensorflow/lite/micro/kernels/prelu.cc ****       output->type == kTfLiteInt16) {
 127              		.loc 1 35 0
 128 0060 0030D5E5 		ldrb	r3, [r5]	@ zero_extendqisi2
 129 0064 FB0003E2 		and	r0, r3, #251
 130              	.LVL13:
 131 0068 090053E3 		cmp	r3, #9
 132 006c 03005013 		cmpne	r0, #3
 133 0070 0100A003 		moveq	r0, #1
 134 0074 0000A013 		movne	r0, #0
 135 0078 0200000A 		beq	.L20
 136              	.LVL14:
 137              	.L11:
 138              	.LBE235:
 139              	.LBE234:
 103:../src/tensorflow_lite/tensorflow/lite/micro/kernels/prelu.cc **** 
 104:../src/tensorflow_lite/tensorflow/lite/micro/kernels/prelu.cc ****   return CalculatePreluParams(input, alpha, output, params);
 105:../src/tensorflow_lite/tensorflow/lite/micro/kernels/prelu.cc **** }
 140              		.loc 1 105 0
 141 007c 08D08DE2 		add	sp, sp, #8
 142              		.cfi_remember_state
 143              		.cfi_def_cfa_offset 32
 144              		@ sp needed
 145 0080 028BBDEC 		vldm	sp!, {d8}
 146              		.cfi_restore 80
 147              		.cfi_restore 81
 148              		.cfi_def_cfa_offset 24
 149 0084 F081BDE8 		pop	{r4, r5, r6, r7, r8, pc}
 150              	.LVL15:
 151              	.L20:
 152              		.cfi_restore_state
 153              	.LBB240:
 154              	.LBB238:
 155              	.LBB236:
  40:../src/tensorflow_lite/tensorflow/lite/micro/kernels/prelu.cc ****                                static_cast<double>(output->params.scale);
 156              		.loc 1 40 0
 157 0088 037AD7ED 		vldr.32	s15, [r7, #12]
  43:../src/tensorflow_lite/tensorflow/lite/micro/kernels/prelu.cc ****     QuantizeMultiplier(real_multiplier_2, &params->output_multiplier_2,
 158              		.loc 1 43 0
 159 008c 101084E2 		add	r1, r4, #16
  37:../src/tensorflow_lite/tensorflow/lite/micro/kernels/prelu.cc ****                                static_cast<double>(output->params.scale);
 160              		.loc 1 37 0
 161 0090 030A98ED 		vldr.32	s0, [r8, #12]
  43:../src/tensorflow_lite/tensorflow/lite/micro/kernels/prelu.cc ****     QuantizeMultiplier(real_multiplier_2, &params->output_multiplier_2,
 162              		.loc 1 43 0
 163 0094 0C0084E2 		add	r0, r4, #12
  38:../src/tensorflow_lite/tensorflow/lite/micro/kernels/prelu.cc ****     double real_multiplier_2 = static_cast<double>(input->params.scale) *
 164              		.loc 1 38 0
 165 0098 037A95ED 		vldr.32	s14, [r5, #12]
  40:../src/tensorflow_lite/tensorflow/lite/micro/kernels/prelu.cc ****                                static_cast<double>(output->params.scale);
 166              		.loc 1 40 0
 167 009c E70AF7EE 		vcvt.f64.f32	d16, s15
  37:../src/tensorflow_lite/tensorflow/lite/micro/kernels/prelu.cc ****                                static_cast<double>(output->params.scale);
 168              		.loc 1 37 0
 169 00a0 C00AB7EE 		vcvt.f64.f32	d0, s0
  38:../src/tensorflow_lite/tensorflow/lite/micro/kernels/prelu.cc ****     double real_multiplier_2 = static_cast<double>(input->params.scale) *
 170              		.loc 1 38 0
 171 00a4 C77AB7EE 		vcvt.f64.f32	d7, s14
 172              	.LVL16:
  39:../src/tensorflow_lite/tensorflow/lite/micro/kernels/prelu.cc ****                                static_cast<double>(alpha->params.scale) /
 173              		.loc 1 39 0
 174 00a8 800B60EE 		vmul.f64	d16, d16, d0
  43:../src/tensorflow_lite/tensorflow/lite/micro/kernels/prelu.cc ****     QuantizeMultiplier(real_multiplier_2, &params->output_multiplier_2,
 175              		.loc 1 43 0
 176 00ac 070B80EE 		vdiv.f64	d0, d0, d7
 177              	.LVL17:
  41:../src/tensorflow_lite/tensorflow/lite/micro/kernels/prelu.cc ****     QuantizeMultiplier(real_multiplier_1, &params->output_multiplier_1,
 178              		.loc 1 41 0
 179 00b0 878B80EE 		vdiv.f64	d8, d16, d7
 180              	.LVL18:
  43:../src/tensorflow_lite/tensorflow/lite/micro/kernels/prelu.cc ****     QuantizeMultiplier(real_multiplier_2, &params->output_multiplier_2,
 181              		.loc 1 43 0
 182 00b4 FEFFFFEB 		bl	_ZN6tflite18QuantizeMultiplierEdPlPi
 183              	.LVL19:
  45:../src/tensorflow_lite/tensorflow/lite/micro/kernels/prelu.cc **** 
 184              		.loc 1 45 0
 185 00b8 140084E2 		add	r0, r4, #20
 186 00bc 181084E2 		add	r1, r4, #24
 187 00c0 480BB0EE 		vmov.f64	d0, d8
 188 00c4 FEFFFFEB 		bl	_ZN6tflite18QuantizeMultiplierEdPlPi
 189              	.LVL20:
  47:../src/tensorflow_lite/tensorflow/lite/micro/kernels/prelu.cc ****     params->alpha_offset = -alpha->params.zero_point;
 190              		.loc 1 47 0
 191 00c8 103098E5 		ldr	r3, [r8, #16]
 192              	.LBE236:
 193              	.LBE238:
 194              	.LBE240:
 104:../src/tensorflow_lite/tensorflow/lite/micro/kernels/prelu.cc **** }
 195              		.loc 1 104 0
 196 00cc 0000A0E3 		mov	r0, #0
 197              	.LBB241:
 198              	.LBB239:
 199              	.LBB237:
  49:../src/tensorflow_lite/tensorflow/lite/micro/kernels/prelu.cc ****   }
 200              		.loc 1 49 0
 201 00d0 102095E5 		ldr	r2, [r5, #16]
  47:../src/tensorflow_lite/tensorflow/lite/micro/kernels/prelu.cc ****     params->alpha_offset = -alpha->params.zero_point;
 202              		.loc 1 47 0
 203 00d4 003063E2 		rsb	r3, r3, #0
 204 00d8 003084E5 		str	r3, [r4]
  48:../src/tensorflow_lite/tensorflow/lite/micro/kernels/prelu.cc ****     params->output_offset = output->params.zero_point;
 205              		.loc 1 48 0
 206 00dc 103097E5 		ldr	r3, [r7, #16]
  49:../src/tensorflow_lite/tensorflow/lite/micro/kernels/prelu.cc ****   }
 207              		.loc 1 49 0
 208 00e0 082084E5 		str	r2, [r4, #8]
  48:../src/tensorflow_lite/tensorflow/lite/micro/kernels/prelu.cc ****     params->output_offset = output->params.zero_point;
 209              		.loc 1 48 0
 210 00e4 003063E2 		rsb	r3, r3, #0
 211 00e8 043084E5 		str	r3, [r4, #4]
 212              	.LBE237:
 213              	.LBE239:
 214              	.LBE241:
 215              		.loc 1 105 0
 216 00ec 08D08DE2 		add	sp, sp, #8
 217              		.cfi_remember_state
 218              		.cfi_def_cfa_offset 32
 219              		@ sp needed
 220 00f0 028BBDEC 		vldm	sp!, {d8}
 221              		.cfi_restore 80
 222              		.cfi_restore 81
 223              		.cfi_def_cfa_offset 24
 224              	.LVL21:
 225 00f4 F081BDE8 		pop	{r4, r5, r6, r7, r8, pc}
 226              	.LVL22:
 227              	.L17:
 228              		.cfi_restore_state
  98:../src/tensorflow_lite/tensorflow/lite/micro/kernels/prelu.cc ****   const TfLiteTensor* alpha = GetInput(context, node, 1);
 229              		.loc 1 98 0 discriminator 1
 230 00f8 003000E3 		movw	r3, #:lower16:.LC3
 231 00fc 002000E3 		movw	r2, #:lower16:.LC1
 232 0100 003040E3 		movt	r3, #:upper16:.LC3
 233 0104 001000E3 		movw	r1, #:lower16:.LC2
 234 0108 00308DE5 		str	r3, [sp]
 235 010c 0600A0E1 		mov	r0, r6
 236              	.LVL23:
 237 0110 002040E3 		movt	r2, #:upper16:.LC1
 238 0114 001040E3 		movt	r1, #:upper16:.LC2
 239 0118 144096E5 		ldr	r4, [r6, #20]
 240              	.LVL24:
 241 011c 6230A0E3 		mov	r3, #98
 242 0120 34FF2FE1 		blx	r4
 243              	.LVL25:
 244 0124 0100A0E3 		mov	r0, #1
 245              		.loc 1 105 0 discriminator 1
 246 0128 08D08DE2 		add	sp, sp, #8
 247              		.cfi_remember_state
 248              		.cfi_def_cfa_offset 32
 249              		@ sp needed
 250 012c 028BBDEC 		vldm	sp!, {d8}
 251              		.cfi_restore 80
 252              		.cfi_restore 81
 253              		.cfi_def_cfa_offset 24
 254 0130 F081BDE8 		pop	{r4, r5, r6, r7, r8, pc}
 255              	.LVL26:
 256              	.L18:
 257              		.cfi_restore_state
 100:../src/tensorflow_lite/tensorflow/lite/micro/kernels/prelu.cc ****   TfLiteTensor* output = GetOutput(context, node, 0);
 258              		.loc 1 100 0 discriminator 1
 259 0134 003000E3 		movw	r3, #:lower16:.LC4
 260 0138 002000E3 		movw	r2, #:lower16:.LC1
 261 013c 003040E3 		movt	r3, #:upper16:.LC4
 262 0140 001000E3 		movw	r1, #:lower16:.LC2
 263 0144 00308DE5 		str	r3, [sp]
 264 0148 0600A0E1 		mov	r0, r6
 265              	.LVL27:
 266 014c 002040E3 		movt	r2, #:upper16:.LC1
 267 0150 001040E3 		movt	r1, #:upper16:.LC2
 268 0154 144096E5 		ldr	r4, [r6, #20]
 269              	.LVL28:
 270 0158 6430A0E3 		mov	r3, #100
 271 015c 34FF2FE1 		blx	r4
 272              	.LVL29:
 273 0160 0100A0E3 		mov	r0, #1
 274 0164 C4FFFFEA 		b	.L11
 275              	.LVL30:
 276              	.L19:
 102:../src/tensorflow_lite/tensorflow/lite/micro/kernels/prelu.cc **** 
 277              		.loc 1 102 0 discriminator 1
 278 0168 003000E3 		movw	r3, #:lower16:.LC5
 279 016c 002000E3 		movw	r2, #:lower16:.LC1
 280 0170 003040E3 		movt	r3, #:upper16:.LC5
 281 0174 001000E3 		movw	r1, #:lower16:.LC2
 282 0178 00308DE5 		str	r3, [sp]
 283 017c 0600A0E1 		mov	r0, r6
 284              	.LVL31:
 285 0180 002040E3 		movt	r2, #:upper16:.LC1
 286 0184 001040E3 		movt	r1, #:upper16:.LC2
 287 0188 144096E5 		ldr	r4, [r6, #20]
 288              	.LVL32:
 289 018c 6630A0E3 		mov	r3, #102
 290 0190 34FF2FE1 		blx	r4
 291              	.LVL33:
 292 0194 0100A0E3 		mov	r0, #1
 293 0198 B7FFFFEA 		b	.L11
 294              	.LVL34:
 295              	.L16:
  94:../src/tensorflow_lite/tensorflow/lite/micro/kernels/prelu.cc ****   PreluParams* params = static_cast<PreluParams*>(node->user_data);
 296              		.loc 1 94 0 discriminator 1
 297 019c FEFFFFEB 		bl	abort
 298              	.LVL35:
 299              		.cfi_endproc
 300              	.LFE4172:
 301              		.fnend
 303              		.section	.text._ZN6tflite3ops5micro11activations9PreluEvalEP13TfLiteContextP10TfLiteNode,"ax",%pro
 304              		.align	2
 305              		.global	_ZN6tflite3ops5micro11activations9PreluEvalEP13TfLiteContextP10TfLiteNode
 306              		.syntax unified
 307              		.arm
 308              		.fpu neon
 310              	_ZN6tflite3ops5micro11activations9PreluEvalEP13TfLiteContextP10TfLiteNode:
 311              		.fnstart
 312              	.LFB4173:
 106:../src/tensorflow_lite/tensorflow/lite/micro/kernels/prelu.cc **** 
 107:../src/tensorflow_lite/tensorflow/lite/micro/kernels/prelu.cc **** TfLiteStatus PreluEval(TfLiteContext* context, TfLiteNode* node) {
 313              		.loc 1 107 0
 314              		.cfi_startproc
 315              		.cfi_personality 0,__gxx_personality_v0
 316              		.cfi_lsda 0,.LLSDA4173
 317              		@ args = 0, pretend = 0, frame = 352
 318              		@ frame_needed = 0, uses_anonymous_args = 0
 319              	.LVL36:
 320 0000 F04F2DE9 		push	{r4, r5, r6, r7, r8, r9, r10, fp, lr}
 321              		.save {r4, r5, r6, r7, r8, r9, r10, fp, lr}
 322              		.cfi_def_cfa_offset 36
 323              		.cfi_offset 4, -36
 324              		.cfi_offset 5, -32
 325              		.cfi_offset 6, -28
 326              		.cfi_offset 7, -24
 327              		.cfi_offset 8, -20
 328              		.cfi_offset 9, -16
 329              		.cfi_offset 10, -12
 330              		.cfi_offset 11, -8
 331              		.cfi_offset 14, -4
 332              		.pad #356
 333 0004 59DF4DE2 		sub	sp, sp, #356
 334              		.cfi_def_cfa_offset 392
 108:../src/tensorflow_lite/tensorflow/lite/micro/kernels/prelu.cc ****   TFLITE_DCHECK(node->user_data != nullptr);
 335              		.loc 1 108 0
 336 0008 10A091E5 		ldr	r10, [r1, #16]
 337 000c 00005AE3 		cmp	r10, #0
 338 0010 4709000A 		beq	.L23
 339              	.LBB749:
 340              	.LBB750:
 341              	.LBB751:
 342              		.file 2 "C:/Renesas/e2studio_2021_01_workspace_RZA2M_ANPR/ANPR_RZA2M_EBK/src/tensorflow_lite/tenso
   1:C:/Renesas/e2studio_2021_01_workspace_RZA2M_ANPR/ANPR_RZA2M_EBK/src/tensorflow_lite/tensorflow/lite/micro/kernels\kernel_util.h **** /* Copyright 2020 The TensorFlow Authors. All Rights Reserved.
   2:C:/Renesas/e2studio_2021_01_workspace_RZA2M_ANPR/ANPR_RZA2M_EBK/src/tensorflow_lite/tensorflow/lite/micro/kernels\kernel_util.h **** 
   3:C:/Renesas/e2studio_2021_01_workspace_RZA2M_ANPR/ANPR_RZA2M_EBK/src/tensorflow_lite/tensorflow/lite/micro/kernels\kernel_util.h **** Licensed under the Apache License, Version 2.0 (the "License");
   4:C:/Renesas/e2studio_2021_01_workspace_RZA2M_ANPR/ANPR_RZA2M_EBK/src/tensorflow_lite/tensorflow/lite/micro/kernels\kernel_util.h **** you may not use this file except in compliance with the License.
   5:C:/Renesas/e2studio_2021_01_workspace_RZA2M_ANPR/ANPR_RZA2M_EBK/src/tensorflow_lite/tensorflow/lite/micro/kernels\kernel_util.h **** You may obtain a copy of the License at
   6:C:/Renesas/e2studio_2021_01_workspace_RZA2M_ANPR/ANPR_RZA2M_EBK/src/tensorflow_lite/tensorflow/lite/micro/kernels\kernel_util.h **** 
   7:C:/Renesas/e2studio_2021_01_workspace_RZA2M_ANPR/ANPR_RZA2M_EBK/src/tensorflow_lite/tensorflow/lite/micro/kernels\kernel_util.h ****     http://www.apache.org/licenses/LICENSE-2.0
   8:C:/Renesas/e2studio_2021_01_workspace_RZA2M_ANPR/ANPR_RZA2M_EBK/src/tensorflow_lite/tensorflow/lite/micro/kernels\kernel_util.h **** 
   9:C:/Renesas/e2studio_2021_01_workspace_RZA2M_ANPR/ANPR_RZA2M_EBK/src/tensorflow_lite/tensorflow/lite/micro/kernels\kernel_util.h **** Unless required by applicable law or agreed to in writing, software
  10:C:/Renesas/e2studio_2021_01_workspace_RZA2M_ANPR/ANPR_RZA2M_EBK/src/tensorflow_lite/tensorflow/lite/micro/kernels\kernel_util.h **** distributed under the License is distributed on an "AS IS" BASIS,
  11:C:/Renesas/e2studio_2021_01_workspace_RZA2M_ANPR/ANPR_RZA2M_EBK/src/tensorflow_lite/tensorflow/lite/micro/kernels\kernel_util.h **** WITHOUT WARRANTIES OR CONDITIONS OF ANY KIND, either express or implied.
  12:C:/Renesas/e2studio_2021_01_workspace_RZA2M_ANPR/ANPR_RZA2M_EBK/src/tensorflow_lite/tensorflow/lite/micro/kernels\kernel_util.h **** See the License for the specific language governing permissions and
  13:C:/Renesas/e2studio_2021_01_workspace_RZA2M_ANPR/ANPR_RZA2M_EBK/src/tensorflow_lite/tensorflow/lite/micro/kernels\kernel_util.h **** limitations under the License.
  14:C:/Renesas/e2studio_2021_01_workspace_RZA2M_ANPR/ANPR_RZA2M_EBK/src/tensorflow_lite/tensorflow/lite/micro/kernels\kernel_util.h **** ==============================================================================*/
  15:C:/Renesas/e2studio_2021_01_workspace_RZA2M_ANPR/ANPR_RZA2M_EBK/src/tensorflow_lite/tensorflow/lite/micro/kernels\kernel_util.h **** 
  16:C:/Renesas/e2studio_2021_01_workspace_RZA2M_ANPR/ANPR_RZA2M_EBK/src/tensorflow_lite/tensorflow/lite/micro/kernels\kernel_util.h **** #ifndef TENSORFLOW_LITE_MICRO_KERNELS_KERNEL_UTIL_H_
  17:C:/Renesas/e2studio_2021_01_workspace_RZA2M_ANPR/ANPR_RZA2M_EBK/src/tensorflow_lite/tensorflow/lite/micro/kernels\kernel_util.h **** #define TENSORFLOW_LITE_MICRO_KERNELS_KERNEL_UTIL_H_
  18:C:/Renesas/e2studio_2021_01_workspace_RZA2M_ANPR/ANPR_RZA2M_EBK/src/tensorflow_lite/tensorflow/lite/micro/kernels\kernel_util.h **** 
  19:C:/Renesas/e2studio_2021_01_workspace_RZA2M_ANPR/ANPR_RZA2M_EBK/src/tensorflow_lite/tensorflow/lite/micro/kernels\kernel_util.h **** #include <cstdint>
  20:C:/Renesas/e2studio_2021_01_workspace_RZA2M_ANPR/ANPR_RZA2M_EBK/src/tensorflow_lite/tensorflow/lite/micro/kernels\kernel_util.h **** 
  21:C:/Renesas/e2studio_2021_01_workspace_RZA2M_ANPR/ANPR_RZA2M_EBK/src/tensorflow_lite/tensorflow/lite/micro/kernels\kernel_util.h **** #include "tensorflow/lite/c/builtin_op_data.h"
  22:C:/Renesas/e2studio_2021_01_workspace_RZA2M_ANPR/ANPR_RZA2M_EBK/src/tensorflow_lite/tensorflow/lite/micro/kernels\kernel_util.h **** #include "tensorflow/lite/c/common.h"
  23:C:/Renesas/e2studio_2021_01_workspace_RZA2M_ANPR/ANPR_RZA2M_EBK/src/tensorflow_lite/tensorflow/lite/micro/kernels\kernel_util.h **** #include "tensorflow/lite/kernels/internal/compatibility.h"
  24:C:/Renesas/e2studio_2021_01_workspace_RZA2M_ANPR/ANPR_RZA2M_EBK/src/tensorflow_lite/tensorflow/lite/micro/kernels\kernel_util.h **** #include "tensorflow/lite/kernels/internal/types.h"
  25:C:/Renesas/e2studio_2021_01_workspace_RZA2M_ANPR/ANPR_RZA2M_EBK/src/tensorflow_lite/tensorflow/lite/micro/kernels\kernel_util.h **** 
  26:C:/Renesas/e2studio_2021_01_workspace_RZA2M_ANPR/ANPR_RZA2M_EBK/src/tensorflow_lite/tensorflow/lite/micro/kernels\kernel_util.h **** namespace tflite {
  27:C:/Renesas/e2studio_2021_01_workspace_RZA2M_ANPR/ANPR_RZA2M_EBK/src/tensorflow_lite/tensorflow/lite/micro/kernels\kernel_util.h **** namespace micro {
  28:C:/Renesas/e2studio_2021_01_workspace_RZA2M_ANPR/ANPR_RZA2M_EBK/src/tensorflow_lite/tensorflow/lite/micro/kernels\kernel_util.h **** 
  29:C:/Renesas/e2studio_2021_01_workspace_RZA2M_ANPR/ANPR_RZA2M_EBK/src/tensorflow_lite/tensorflow/lite/micro/kernels\kernel_util.h **** // Returns a mutable tensor for a given input index. is_variable must be checked
  30:C:/Renesas/e2studio_2021_01_workspace_RZA2M_ANPR/ANPR_RZA2M_EBK/src/tensorflow_lite/tensorflow/lite/micro/kernels\kernel_util.h **** // during prepare when the full TfLiteTensor is available.
  31:C:/Renesas/e2studio_2021_01_workspace_RZA2M_ANPR/ANPR_RZA2M_EBK/src/tensorflow_lite/tensorflow/lite/micro/kernels\kernel_util.h **** inline TfLiteEvalTensor* GetMutableEvalInput(const TfLiteContext* context,
  32:C:/Renesas/e2studio_2021_01_workspace_RZA2M_ANPR/ANPR_RZA2M_EBK/src/tensorflow_lite/tensorflow/lite/micro/kernels\kernel_util.h ****                                              const TfLiteNode* node,
  33:C:/Renesas/e2studio_2021_01_workspace_RZA2M_ANPR/ANPR_RZA2M_EBK/src/tensorflow_lite/tensorflow/lite/micro/kernels\kernel_util.h ****                                              int index) {
  34:C:/Renesas/e2studio_2021_01_workspace_RZA2M_ANPR/ANPR_RZA2M_EBK/src/tensorflow_lite/tensorflow/lite/micro/kernels\kernel_util.h ****   TFLITE_DCHECK(context != nullptr);
 343              		.loc 2 34 0
 344 0014 000050E3 		cmp	r0, #0
 345 0018 0040A0E1 		mov	r4, r0
 346              	.LVL37:
 347 001c 4409000A 		beq	.L23
  35:C:/Renesas/e2studio_2021_01_workspace_RZA2M_ANPR/ANPR_RZA2M_EBK/src/tensorflow_lite/tensorflow/lite/micro/kernels\kernel_util.h ****   TFLITE_DCHECK(node != nullptr);
  36:C:/Renesas/e2studio_2021_01_workspace_RZA2M_ANPR/ANPR_RZA2M_EBK/src/tensorflow_lite/tensorflow/lite/micro/kernels\kernel_util.h ****   return context->GetEvalTensor(context, node->inputs->data[index]);
 348              		.loc 2 36 0
 349 0020 002091E5 		ldr	r2, [r1]
 350 0024 0150A0E1 		mov	r5, r1
 351 0028 543090E5 		ldr	r3, [r0, #84]
 352 002c 041092E5 		ldr	r1, [r2, #4]
 353              	.LVL38:
 354              	.LEHB0:
 355 0030 33FF2FE1 		blx	r3
 356              	.LVL39:
 357              	.LBE751:
 358              	.LBE750:
 359              	.LBE749:
 360              	.LBB754:
 361              	.LBB755:
 362              	.LBB756:
 363 0034 002095E5 		ldr	r2, [r5]
 364              	.LBE756:
 365              	.LBE755:
 366              	.LBE754:
 367              	.LBB761:
 368              	.LBB753:
 369              	.LBB752:
 370 0038 0080A0E1 		mov	r8, r0
 371              	.LVL40:
 372              	.LBE752:
 373              	.LBE753:
 374              	.LBE761:
 375              	.LBB762:
 376              	.LBB759:
 377              	.LBB757:
 378 003c 543094E5 		ldr	r3, [r4, #84]
 379 0040 0400A0E1 		mov	r0, r4
 380 0044 081092E5 		ldr	r1, [r2, #8]
 381 0048 33FF2FE1 		blx	r3
 382              	.LVL41:
 383              	.LBE757:
 384              	.LBE759:
 385              	.LBE762:
 386              	.LBB763:
 387              	.LBB764:
  37:C:/Renesas/e2studio_2021_01_workspace_RZA2M_ANPR/ANPR_RZA2M_EBK/src/tensorflow_lite/tensorflow/lite/micro/kernels\kernel_util.h **** }
  38:C:/Renesas/e2studio_2021_01_workspace_RZA2M_ANPR/ANPR_RZA2M_EBK/src/tensorflow_lite/tensorflow/lite/micro/kernels\kernel_util.h **** 
  39:C:/Renesas/e2studio_2021_01_workspace_RZA2M_ANPR/ANPR_RZA2M_EBK/src/tensorflow_lite/tensorflow/lite/micro/kernels\kernel_util.h **** // Returns the TfLiteEvalTensor struct for a given input index in a node.
  40:C:/Renesas/e2studio_2021_01_workspace_RZA2M_ANPR/ANPR_RZA2M_EBK/src/tensorflow_lite/tensorflow/lite/micro/kernels\kernel_util.h **** inline const TfLiteEvalTensor* GetEvalInput(const TfLiteContext* context,
  41:C:/Renesas/e2studio_2021_01_workspace_RZA2M_ANPR/ANPR_RZA2M_EBK/src/tensorflow_lite/tensorflow/lite/micro/kernels\kernel_util.h ****                                             const TfLiteNode* node, int index) {
  42:C:/Renesas/e2studio_2021_01_workspace_RZA2M_ANPR/ANPR_RZA2M_EBK/src/tensorflow_lite/tensorflow/lite/micro/kernels\kernel_util.h ****   return GetMutableEvalInput(context, node, index);
  43:C:/Renesas/e2studio_2021_01_workspace_RZA2M_ANPR/ANPR_RZA2M_EBK/src/tensorflow_lite/tensorflow/lite/micro/kernels\kernel_util.h **** }
  44:C:/Renesas/e2studio_2021_01_workspace_RZA2M_ANPR/ANPR_RZA2M_EBK/src/tensorflow_lite/tensorflow/lite/micro/kernels\kernel_util.h **** 
  45:C:/Renesas/e2studio_2021_01_workspace_RZA2M_ANPR/ANPR_RZA2M_EBK/src/tensorflow_lite/tensorflow/lite/micro/kernels\kernel_util.h **** // Returns the TfLiteEvalTensor struct for a given output index in a node.
  46:C:/Renesas/e2studio_2021_01_workspace_RZA2M_ANPR/ANPR_RZA2M_EBK/src/tensorflow_lite/tensorflow/lite/micro/kernels\kernel_util.h **** inline TfLiteEvalTensor* GetEvalOutput(const TfLiteContext* context,
  47:C:/Renesas/e2studio_2021_01_workspace_RZA2M_ANPR/ANPR_RZA2M_EBK/src/tensorflow_lite/tensorflow/lite/micro/kernels\kernel_util.h ****                                        const TfLiteNode* node, int index) {
  48:C:/Renesas/e2studio_2021_01_workspace_RZA2M_ANPR/ANPR_RZA2M_EBK/src/tensorflow_lite/tensorflow/lite/micro/kernels\kernel_util.h ****   TFLITE_DCHECK(context != nullptr);
  49:C:/Renesas/e2studio_2021_01_workspace_RZA2M_ANPR/ANPR_RZA2M_EBK/src/tensorflow_lite/tensorflow/lite/micro/kernels\kernel_util.h ****   TFLITE_DCHECK(node != nullptr);
  50:C:/Renesas/e2studio_2021_01_workspace_RZA2M_ANPR/ANPR_RZA2M_EBK/src/tensorflow_lite/tensorflow/lite/micro/kernels\kernel_util.h ****   return context->GetEvalTensor(context, node->outputs->data[index]);
 388              		.loc 2 50 0
 389 004c 042095E5 		ldr	r2, [r5, #4]
 390              	.LBE764:
 391              	.LBE763:
 392              	.LBB766:
 393              	.LBB760:
 394              	.LBB758:
  36:C:/Renesas/e2studio_2021_01_workspace_RZA2M_ANPR/ANPR_RZA2M_EBK/src/tensorflow_lite/tensorflow/lite/micro/kernels\kernel_util.h **** }
 395              		.loc 2 36 0
 396 0050 0070A0E1 		mov	r7, r0
 397              	.LVL42:
 398              	.LBE758:
 399              	.LBE760:
 400              	.LBE766:
 401              	.LBB767:
 402              	.LBB765:
 403              		.loc 2 50 0
 404 0054 543094E5 		ldr	r3, [r4, #84]
 405 0058 0400A0E1 		mov	r0, r4
 406 005c 041092E5 		ldr	r1, [r2, #4]
 407 0060 33FF2FE1 		blx	r3
 408              	.LVL43:
 409 0064 0060A0E1 		mov	r6, r0
 410              	.LVL44:
 411              	.LBE765:
 412              	.LBE767:
 109:../src/tensorflow_lite/tensorflow/lite/micro/kernels/prelu.cc ****   const PreluParams& params =
 110:../src/tensorflow_lite/tensorflow/lite/micro/kernels/prelu.cc ****       *(static_cast<const PreluParams*>(node->user_data));
 111:../src/tensorflow_lite/tensorflow/lite/micro/kernels/prelu.cc **** 
 112:../src/tensorflow_lite/tensorflow/lite/micro/kernels/prelu.cc ****   const TfLiteEvalTensor* input = tflite::micro::GetEvalInput(context, node, 0);
 113:../src/tensorflow_lite/tensorflow/lite/micro/kernels/prelu.cc ****   const TfLiteEvalTensor* alpha = tflite::micro::GetEvalInput(context, node, 1);
 114:../src/tensorflow_lite/tensorflow/lite/micro/kernels/prelu.cc ****   TfLiteEvalTensor* output = tflite::micro::GetEvalOutput(context, node, 0);
 115:../src/tensorflow_lite/tensorflow/lite/micro/kernels/prelu.cc **** 
 116:../src/tensorflow_lite/tensorflow/lite/micro/kernels/prelu.cc ****   switch (input->type) {
 413              		.loc 1 116 0
 414 0068 0800D8E5 		ldrb	r0, [r8, #8]	@ zero_extendqisi2
 415 006c 030050E3 		cmp	r0, #3
 416 0070 7B01000A 		beq	.L25
 417 0074 090050E3 		cmp	r0, #9
 418 0078 C200000A 		beq	.L26
 419 007c 010050E3 		cmp	r0, #1
 420 0080 0900000A 		beq	.L916
 117:../src/tensorflow_lite/tensorflow/lite/micro/kernels/prelu.cc ****     case kTfLiteFloat32: {
 118:../src/tensorflow_lite/tensorflow/lite/micro/kernels/prelu.cc ****       BroadcastPrelu4DSlowFloat(tflite::micro::GetTensorShape(input),
 119:../src/tensorflow_lite/tensorflow/lite/micro/kernels/prelu.cc ****                                 tflite::micro::GetTensorData<float>(input),
 120:../src/tensorflow_lite/tensorflow/lite/micro/kernels/prelu.cc ****                                 tflite::micro::GetTensorShape(alpha),
 121:../src/tensorflow_lite/tensorflow/lite/micro/kernels/prelu.cc ****                                 tflite::micro::GetTensorData<float>(alpha),
 122:../src/tensorflow_lite/tensorflow/lite/micro/kernels/prelu.cc ****                                 tflite::micro::GetTensorShape(output),
 123:../src/tensorflow_lite/tensorflow/lite/micro/kernels/prelu.cc ****                                 tflite::micro::GetTensorData<float>(output));
 124:../src/tensorflow_lite/tensorflow/lite/micro/kernels/prelu.cc ****       return kTfLiteOk;
 125:../src/tensorflow_lite/tensorflow/lite/micro/kernels/prelu.cc ****     } break;
 126:../src/tensorflow_lite/tensorflow/lite/micro/kernels/prelu.cc ****     case kTfLiteUInt8: {
 127:../src/tensorflow_lite/tensorflow/lite/micro/kernels/prelu.cc ****       reference_ops::BroadcastPrelu4DSlow(
 128:../src/tensorflow_lite/tensorflow/lite/micro/kernels/prelu.cc ****           params, tflite::micro::GetTensorShape(input),
 129:../src/tensorflow_lite/tensorflow/lite/micro/kernels/prelu.cc ****           tflite::micro::GetTensorData<uint8_t>(input),
 130:../src/tensorflow_lite/tensorflow/lite/micro/kernels/prelu.cc ****           tflite::micro::GetTensorShape(alpha),
 131:../src/tensorflow_lite/tensorflow/lite/micro/kernels/prelu.cc ****           tflite::micro::GetTensorData<uint8_t>(alpha),
 132:../src/tensorflow_lite/tensorflow/lite/micro/kernels/prelu.cc ****           tflite::micro::GetTensorShape(output),
 133:../src/tensorflow_lite/tensorflow/lite/micro/kernels/prelu.cc ****           tflite::micro::GetTensorData<uint8_t>(output));
 134:../src/tensorflow_lite/tensorflow/lite/micro/kernels/prelu.cc ****       return kTfLiteOk;
 135:../src/tensorflow_lite/tensorflow/lite/micro/kernels/prelu.cc ****     } break;
 136:../src/tensorflow_lite/tensorflow/lite/micro/kernels/prelu.cc ****     case kTfLiteInt8: {
 137:../src/tensorflow_lite/tensorflow/lite/micro/kernels/prelu.cc ****       reference_ops::BroadcastPrelu4DSlow(
 138:../src/tensorflow_lite/tensorflow/lite/micro/kernels/prelu.cc ****           params, tflite::micro::GetTensorShape(input),
 139:../src/tensorflow_lite/tensorflow/lite/micro/kernels/prelu.cc ****           tflite::micro::GetTensorData<int8_t>(input),
 140:../src/tensorflow_lite/tensorflow/lite/micro/kernels/prelu.cc ****           tflite::micro::GetTensorShape(alpha),
 141:../src/tensorflow_lite/tensorflow/lite/micro/kernels/prelu.cc ****           tflite::micro::GetTensorData<int8_t>(alpha),
 142:../src/tensorflow_lite/tensorflow/lite/micro/kernels/prelu.cc ****           tflite::micro::GetTensorShape(output),
 143:../src/tensorflow_lite/tensorflow/lite/micro/kernels/prelu.cc ****           tflite::micro::GetTensorData<int8_t>(output));
 144:../src/tensorflow_lite/tensorflow/lite/micro/kernels/prelu.cc ****       return kTfLiteOk;
 145:../src/tensorflow_lite/tensorflow/lite/micro/kernels/prelu.cc ****     } break;
 146:../src/tensorflow_lite/tensorflow/lite/micro/kernels/prelu.cc ****     default:
 147:../src/tensorflow_lite/tensorflow/lite/micro/kernels/prelu.cc ****       TF_LITE_KERNEL_LOG(
 421              		.loc 1 147 0
 422 0084 145094E5 		ldr	r5, [r4, #20]
 423              	.LVL45:
 424 0088 FEFFFFEB 		bl	TfLiteTypeGetName
 425              	.LVL46:
 426 008c 001000E3 		movw	r1, #:lower16:.LC8
 427 0090 0020A0E1 		mov	r2, r0
 428 0094 001040E3 		movt	r1, #:upper16:.LC8
 429 0098 0400A0E1 		mov	r0, r4
 430 009c 35FF2FE1 		blx	r5
 431              	.LVL47:
 148:../src/tensorflow_lite/tensorflow/lite/micro/kernels/prelu.cc ****           context, "Only float32 and uint8_t are supported currently, got %d.",
 149:../src/tensorflow_lite/tensorflow/lite/micro/kernels/prelu.cc ****           TfLiteTypeGetName(input->type));
 150:../src/tensorflow_lite/tensorflow/lite/micro/kernels/prelu.cc ****       return kTfLiteError;
 432              		.loc 1 150 0
 433 00a0 0100A0E3 		mov	r0, #1
 434              	.LVL48:
 435              	.L739:
 151:../src/tensorflow_lite/tensorflow/lite/micro/kernels/prelu.cc ****   }
 152:../src/tensorflow_lite/tensorflow/lite/micro/kernels/prelu.cc **** }
 436              		.loc 1 152 0
 437 00a4 59DF8DE2 		add	sp, sp, #356
 438              		.cfi_remember_state
 439              		.cfi_def_cfa_offset 36
 440              		@ sp needed
 441 00a8 F08FBDE8 		pop	{r4, r5, r6, r7, r8, r9, r10, fp, pc}
 442              	.LVL49:
 443              	.L916:
 444              		.cfi_restore_state
 118:../src/tensorflow_lite/tensorflow/lite/micro/kernels/prelu.cc ****                                 tflite::micro::GetTensorData<float>(input),
 445              		.loc 1 118 0
 446 00ac 0810A0E1 		mov	r1, r8
 447 00b0 90008DE2 		add	r0, sp, #144
 448 00b4 FEFFFFEB 		bl	_ZN6tflite5micro14GetTensorShapeEPK16TfLiteEvalTensor
 449              	.LVL50:
 450              	.LEHE0:
 120:../src/tensorflow_lite/tensorflow/lite/micro/kernels/prelu.cc ****                                 tflite::micro::GetTensorData<float>(alpha),
 451              		.loc 1 120 0
 452 00b8 0710A0E1 		mov	r1, r7
 453 00bc A8008DE2 		add	r0, sp, #168
 454              	.LBB768:
 455              	.LBB769:
  51:C:/Renesas/e2studio_2021_01_workspace_RZA2M_ANPR/ANPR_RZA2M_EBK/src/tensorflow_lite/tensorflow/lite/micro/kernels\kernel_util.h **** }
  52:C:/Renesas/e2studio_2021_01_workspace_RZA2M_ANPR/ANPR_RZA2M_EBK/src/tensorflow_lite/tensorflow/lite/micro/kernels\kernel_util.h **** 
  53:C:/Renesas/e2studio_2021_01_workspace_RZA2M_ANPR/ANPR_RZA2M_EBK/src/tensorflow_lite/tensorflow/lite/micro/kernels\kernel_util.h **** // Returns data for a TfLiteEvalTensor struct.
  54:C:/Renesas/e2studio_2021_01_workspace_RZA2M_ANPR/ANPR_RZA2M_EBK/src/tensorflow_lite/tensorflow/lite/micro/kernels\kernel_util.h **** template <typename T>
  55:C:/Renesas/e2studio_2021_01_workspace_RZA2M_ANPR/ANPR_RZA2M_EBK/src/tensorflow_lite/tensorflow/lite/micro/kernels\kernel_util.h **** T* GetTensorData(TfLiteEvalTensor* tensor) {
  56:C:/Renesas/e2studio_2021_01_workspace_RZA2M_ANPR/ANPR_RZA2M_EBK/src/tensorflow_lite/tensorflow/lite/micro/kernels\kernel_util.h ****   return tensor != nullptr ? reinterpret_cast<T*>(tensor->data.raw) : nullptr;
  57:C:/Renesas/e2studio_2021_01_workspace_RZA2M_ANPR/ANPR_RZA2M_EBK/src/tensorflow_lite/tensorflow/lite/micro/kernels\kernel_util.h **** }
  58:C:/Renesas/e2studio_2021_01_workspace_RZA2M_ANPR/ANPR_RZA2M_EBK/src/tensorflow_lite/tensorflow/lite/micro/kernels\kernel_util.h **** 
  59:C:/Renesas/e2studio_2021_01_workspace_RZA2M_ANPR/ANPR_RZA2M_EBK/src/tensorflow_lite/tensorflow/lite/micro/kernels\kernel_util.h **** // Returns const data for a TfLiteEvalTensor struct.
  60:C:/Renesas/e2studio_2021_01_workspace_RZA2M_ANPR/ANPR_RZA2M_EBK/src/tensorflow_lite/tensorflow/lite/micro/kernels\kernel_util.h **** template <typename T>
  61:C:/Renesas/e2studio_2021_01_workspace_RZA2M_ANPR/ANPR_RZA2M_EBK/src/tensorflow_lite/tensorflow/lite/micro/kernels\kernel_util.h **** const T* GetTensorData(const TfLiteEvalTensor* tensor) {
  62:C:/Renesas/e2studio_2021_01_workspace_RZA2M_ANPR/ANPR_RZA2M_EBK/src/tensorflow_lite/tensorflow/lite/micro/kernels\kernel_util.h ****   TFLITE_DCHECK(tensor != nullptr);
  63:C:/Renesas/e2studio_2021_01_workspace_RZA2M_ANPR/ANPR_RZA2M_EBK/src/tensorflow_lite/tensorflow/lite/micro/kernels\kernel_util.h ****   return reinterpret_cast<const T*>(tensor->data.raw);
 456              		.loc 2 63 0
 457 00c0 00B098E5 		ldr	fp, [r8]
 458              	.LEHB1:
 459              	.LBE769:
 460              	.LBE768:
 120:../src/tensorflow_lite/tensorflow/lite/micro/kernels/prelu.cc ****                                 tflite::micro::GetTensorData<float>(alpha),
 461              		.loc 1 120 0
 462 00c4 FEFFFFEB 		bl	_ZN6tflite5micro14GetTensorShapeEPK16TfLiteEvalTensor
 463              	.LVL51:
 464              	.LEHE1:
 465              	.LBB770:
 466              	.LBB771:
  62:C:/Renesas/e2studio_2021_01_workspace_RZA2M_ANPR/ANPR_RZA2M_EBK/src/tensorflow_lite/tensorflow/lite/micro/kernels\kernel_util.h ****   return reinterpret_cast<const T*>(tensor->data.raw);
 467              		.loc 2 62 0
 468 00c8 000057E3 		cmp	r7, #0
 469 00cc 1A09000A 		beq	.L917
 470              	.LBE771:
 471              	.LBE770:
 122:../src/tensorflow_lite/tensorflow/lite/micro/kernels/prelu.cc ****                                 tflite::micro::GetTensorData<float>(output));
 472              		.loc 1 122 0
 473 00d0 0610A0E1 		mov	r1, r6
 474 00d4 C0008DE2 		add	r0, sp, #192
 475              	.LBB774:
 476              	.LBB772:
 477              		.loc 2 63 0
 478 00d8 004097E5 		ldr	r4, [r7]
 479              	.LVL52:
 480              	.LEHB2:
 481              	.LBE772:
 482              	.LBE774:
 122:../src/tensorflow_lite/tensorflow/lite/micro/kernels/prelu.cc ****                                 tflite::micro::GetTensorData<float>(output));
 483              		.loc 1 122 0
 484 00dc FEFFFFEB 		bl	_ZN6tflite5micro14GetTensorShapeEPK16TfLiteEvalTensor
 485              	.LVL53:
 486              	.LEHE2:
 487 00e0 90709DE5 		ldr	r7, [sp, #144]
 488              	.LBB775:
 489              	.LBB776:
  56:C:/Renesas/e2studio_2021_01_workspace_RZA2M_ANPR/ANPR_RZA2M_EBK/src/tensorflow_lite/tensorflow/lite/micro/kernels\kernel_util.h **** }
 490              		.loc 2 56 0
 491 00e4 000056E3 		cmp	r6, #0
 492 00e8 00609615 		ldrne	r6, [r6]
 493              	.LVL54:
 494              	.LBE776:
 495              	.LBE775:
 496              	.LBB777:
 497              	.LBB778:
  61:../src/tensorflow_lite/tensorflow/lite/micro/kernels/prelu.cc ****   TFLITE_DCHECK_LE(unextended_input2_shape.DimensionsCount(), 4);
 498              		.loc 1 61 0
 499 00ec 040057E3 		cmp	r7, #4
 500 00f0 AB0800CA 		bgt	.L918
 501 00f4 A8509DE5 		ldr	r5, [sp, #168]
 502              	.LVL55:
  62:../src/tensorflow_lite/tensorflow/lite/micro/kernels/prelu.cc ****   TFLITE_DCHECK_LE(unextended_output_shape.DimensionsCount(), 4);
 503              		.loc 1 62 0
 504 00f8 040055E3 		cmp	r5, #4
 505 00fc A90800CA 		bgt	.L919
 506 0100 C0209DE5 		ldr	r2, [sp, #192]
 507              	.LVL56:
  63:../src/tensorflow_lite/tensorflow/lite/micro/kernels/prelu.cc ****   const RuntimeShape output_shape =
 508              		.loc 1 63 0
 509 0104 040052E3 		cmp	r2, #4
 510 0108 080900CA 		bgt	.L920
 511              	.LVL57:
 512              	.LBB779:
 513              	.LBB780:
 514              	.LBB781:
 515              	.LBB782:
 516              	.LBB783:
 517              		.file 3 "C:/Renesas/e2studio_2021_01_workspace_RZA2M_ANPR/ANPR_RZA2M_EBK/src/tensorflow_lite/tenso
   1:C:/Renesas/e2studio_2021_01_workspace_RZA2M_ANPR/ANPR_RZA2M_EBK/src/tensorflow_lite/tensorflow/lite/kernels/internal\types.h **** /* Copyright 2018 The TensorFlow Authors. All Rights Reserved.
   2:C:/Renesas/e2studio_2021_01_workspace_RZA2M_ANPR/ANPR_RZA2M_EBK/src/tensorflow_lite/tensorflow/lite/kernels/internal\types.h **** 
   3:C:/Renesas/e2studio_2021_01_workspace_RZA2M_ANPR/ANPR_RZA2M_EBK/src/tensorflow_lite/tensorflow/lite/kernels/internal\types.h **** Licensed under the Apache License, Version 2.0 (the "License");
   4:C:/Renesas/e2studio_2021_01_workspace_RZA2M_ANPR/ANPR_RZA2M_EBK/src/tensorflow_lite/tensorflow/lite/kernels/internal\types.h **** you may not use this file except in compliance with the License.
   5:C:/Renesas/e2studio_2021_01_workspace_RZA2M_ANPR/ANPR_RZA2M_EBK/src/tensorflow_lite/tensorflow/lite/kernels/internal\types.h **** You may obtain a copy of the License at
   6:C:/Renesas/e2studio_2021_01_workspace_RZA2M_ANPR/ANPR_RZA2M_EBK/src/tensorflow_lite/tensorflow/lite/kernels/internal\types.h **** 
   7:C:/Renesas/e2studio_2021_01_workspace_RZA2M_ANPR/ANPR_RZA2M_EBK/src/tensorflow_lite/tensorflow/lite/kernels/internal\types.h ****     http://www.apache.org/licenses/LICENSE-2.0
   8:C:/Renesas/e2studio_2021_01_workspace_RZA2M_ANPR/ANPR_RZA2M_EBK/src/tensorflow_lite/tensorflow/lite/kernels/internal\types.h **** 
   9:C:/Renesas/e2studio_2021_01_workspace_RZA2M_ANPR/ANPR_RZA2M_EBK/src/tensorflow_lite/tensorflow/lite/kernels/internal\types.h **** Unless required by applicable law or agreed to in writing, software
  10:C:/Renesas/e2studio_2021_01_workspace_RZA2M_ANPR/ANPR_RZA2M_EBK/src/tensorflow_lite/tensorflow/lite/kernels/internal\types.h **** distributed under the License is distributed on an "AS IS" BASIS,
  11:C:/Renesas/e2studio_2021_01_workspace_RZA2M_ANPR/ANPR_RZA2M_EBK/src/tensorflow_lite/tensorflow/lite/kernels/internal\types.h **** WITHOUT WARRANTIES OR CONDITIONS OF ANY KIND, either express or implied.
  12:C:/Renesas/e2studio_2021_01_workspace_RZA2M_ANPR/ANPR_RZA2M_EBK/src/tensorflow_lite/tensorflow/lite/kernels/internal\types.h **** See the License for the specific language governing permissions and
  13:C:/Renesas/e2studio_2021_01_workspace_RZA2M_ANPR/ANPR_RZA2M_EBK/src/tensorflow_lite/tensorflow/lite/kernels/internal\types.h **** limitations under the License.
  14:C:/Renesas/e2studio_2021_01_workspace_RZA2M_ANPR/ANPR_RZA2M_EBK/src/tensorflow_lite/tensorflow/lite/kernels/internal\types.h **** ==============================================================================*/
  15:C:/Renesas/e2studio_2021_01_workspace_RZA2M_ANPR/ANPR_RZA2M_EBK/src/tensorflow_lite/tensorflow/lite/kernels/internal\types.h **** #ifndef TENSORFLOW_LITE_KERNELS_INTERNAL_TYPES_H_
  16:C:/Renesas/e2studio_2021_01_workspace_RZA2M_ANPR/ANPR_RZA2M_EBK/src/tensorflow_lite/tensorflow/lite/kernels/internal\types.h **** #define TENSORFLOW_LITE_KERNELS_INTERNAL_TYPES_H_
  17:C:/Renesas/e2studio_2021_01_workspace_RZA2M_ANPR/ANPR_RZA2M_EBK/src/tensorflow_lite/tensorflow/lite/kernels/internal\types.h **** 
  18:C:/Renesas/e2studio_2021_01_workspace_RZA2M_ANPR/ANPR_RZA2M_EBK/src/tensorflow_lite/tensorflow/lite/kernels/internal\types.h **** #include <algorithm>
  19:C:/Renesas/e2studio_2021_01_workspace_RZA2M_ANPR/ANPR_RZA2M_EBK/src/tensorflow_lite/tensorflow/lite/kernels/internal\types.h **** #include <cstdint>
  20:C:/Renesas/e2studio_2021_01_workspace_RZA2M_ANPR/ANPR_RZA2M_EBK/src/tensorflow_lite/tensorflow/lite/kernels/internal\types.h **** #include <cstring>
  21:C:/Renesas/e2studio_2021_01_workspace_RZA2M_ANPR/ANPR_RZA2M_EBK/src/tensorflow_lite/tensorflow/lite/kernels/internal\types.h **** #include <initializer_list>
  22:C:/Renesas/e2studio_2021_01_workspace_RZA2M_ANPR/ANPR_RZA2M_EBK/src/tensorflow_lite/tensorflow/lite/kernels/internal\types.h **** 
  23:C:/Renesas/e2studio_2021_01_workspace_RZA2M_ANPR/ANPR_RZA2M_EBK/src/tensorflow_lite/tensorflow/lite/kernels/internal\types.h **** #include "tensorflow/lite/kernels/internal/compatibility.h"
  24:C:/Renesas/e2studio_2021_01_workspace_RZA2M_ANPR/ANPR_RZA2M_EBK/src/tensorflow_lite/tensorflow/lite/kernels/internal\types.h **** 
  25:C:/Renesas/e2studio_2021_01_workspace_RZA2M_ANPR/ANPR_RZA2M_EBK/src/tensorflow_lite/tensorflow/lite/kernels/internal\types.h **** namespace tflite {
  26:C:/Renesas/e2studio_2021_01_workspace_RZA2M_ANPR/ANPR_RZA2M_EBK/src/tensorflow_lite/tensorflow/lite/kernels/internal\types.h **** 
  27:C:/Renesas/e2studio_2021_01_workspace_RZA2M_ANPR/ANPR_RZA2M_EBK/src/tensorflow_lite/tensorflow/lite/kernels/internal\types.h **** enum class FusedActivationFunctionType : uint8_t {
  28:C:/Renesas/e2studio_2021_01_workspace_RZA2M_ANPR/ANPR_RZA2M_EBK/src/tensorflow_lite/tensorflow/lite/kernels/internal\types.h ****   kNone,
  29:C:/Renesas/e2studio_2021_01_workspace_RZA2M_ANPR/ANPR_RZA2M_EBK/src/tensorflow_lite/tensorflow/lite/kernels/internal\types.h ****   kRelu6,
  30:C:/Renesas/e2studio_2021_01_workspace_RZA2M_ANPR/ANPR_RZA2M_EBK/src/tensorflow_lite/tensorflow/lite/kernels/internal\types.h ****   kRelu1,
  31:C:/Renesas/e2studio_2021_01_workspace_RZA2M_ANPR/ANPR_RZA2M_EBK/src/tensorflow_lite/tensorflow/lite/kernels/internal\types.h ****   kRelu
  32:C:/Renesas/e2studio_2021_01_workspace_RZA2M_ANPR/ANPR_RZA2M_EBK/src/tensorflow_lite/tensorflow/lite/kernels/internal\types.h **** };
  33:C:/Renesas/e2studio_2021_01_workspace_RZA2M_ANPR/ANPR_RZA2M_EBK/src/tensorflow_lite/tensorflow/lite/kernels/internal\types.h **** enum class PaddingType : uint8_t { kNone, kSame, kValid };
  34:C:/Renesas/e2studio_2021_01_workspace_RZA2M_ANPR/ANPR_RZA2M_EBK/src/tensorflow_lite/tensorflow/lite/kernels/internal\types.h **** 
  35:C:/Renesas/e2studio_2021_01_workspace_RZA2M_ANPR/ANPR_RZA2M_EBK/src/tensorflow_lite/tensorflow/lite/kernels/internal\types.h **** struct PaddingValues {
  36:C:/Renesas/e2studio_2021_01_workspace_RZA2M_ANPR/ANPR_RZA2M_EBK/src/tensorflow_lite/tensorflow/lite/kernels/internal\types.h ****   int16_t width;
  37:C:/Renesas/e2studio_2021_01_workspace_RZA2M_ANPR/ANPR_RZA2M_EBK/src/tensorflow_lite/tensorflow/lite/kernels/internal\types.h ****   int16_t height;
  38:C:/Renesas/e2studio_2021_01_workspace_RZA2M_ANPR/ANPR_RZA2M_EBK/src/tensorflow_lite/tensorflow/lite/kernels/internal\types.h ****   // offset is used for calculating "remaining" padding, for example, `width`
  39:C:/Renesas/e2studio_2021_01_workspace_RZA2M_ANPR/ANPR_RZA2M_EBK/src/tensorflow_lite/tensorflow/lite/kernels/internal\types.h ****   // is 1 and `width_offset` is 1, so padding_left is 1 while padding_right is
  40:C:/Renesas/e2studio_2021_01_workspace_RZA2M_ANPR/ANPR_RZA2M_EBK/src/tensorflow_lite/tensorflow/lite/kernels/internal\types.h ****   // 1 + 1 = 2.
  41:C:/Renesas/e2studio_2021_01_workspace_RZA2M_ANPR/ANPR_RZA2M_EBK/src/tensorflow_lite/tensorflow/lite/kernels/internal\types.h ****   int16_t width_offset;
  42:C:/Renesas/e2studio_2021_01_workspace_RZA2M_ANPR/ANPR_RZA2M_EBK/src/tensorflow_lite/tensorflow/lite/kernels/internal\types.h ****   // Same as width_offset except it's over the height dimension.
  43:C:/Renesas/e2studio_2021_01_workspace_RZA2M_ANPR/ANPR_RZA2M_EBK/src/tensorflow_lite/tensorflow/lite/kernels/internal\types.h ****   int16_t height_offset;
  44:C:/Renesas/e2studio_2021_01_workspace_RZA2M_ANPR/ANPR_RZA2M_EBK/src/tensorflow_lite/tensorflow/lite/kernels/internal\types.h **** };
  45:C:/Renesas/e2studio_2021_01_workspace_RZA2M_ANPR/ANPR_RZA2M_EBK/src/tensorflow_lite/tensorflow/lite/kernels/internal\types.h **** 
  46:C:/Renesas/e2studio_2021_01_workspace_RZA2M_ANPR/ANPR_RZA2M_EBK/src/tensorflow_lite/tensorflow/lite/kernels/internal\types.h **** struct Padding3DValues {
  47:C:/Renesas/e2studio_2021_01_workspace_RZA2M_ANPR/ANPR_RZA2M_EBK/src/tensorflow_lite/tensorflow/lite/kernels/internal\types.h ****   int16_t width;
  48:C:/Renesas/e2studio_2021_01_workspace_RZA2M_ANPR/ANPR_RZA2M_EBK/src/tensorflow_lite/tensorflow/lite/kernels/internal\types.h ****   int16_t height;
  49:C:/Renesas/e2studio_2021_01_workspace_RZA2M_ANPR/ANPR_RZA2M_EBK/src/tensorflow_lite/tensorflow/lite/kernels/internal\types.h ****   int16_t depth;
  50:C:/Renesas/e2studio_2021_01_workspace_RZA2M_ANPR/ANPR_RZA2M_EBK/src/tensorflow_lite/tensorflow/lite/kernels/internal\types.h ****   // offset is used for calculating "remaining" padding, for example, `width`
  51:C:/Renesas/e2studio_2021_01_workspace_RZA2M_ANPR/ANPR_RZA2M_EBK/src/tensorflow_lite/tensorflow/lite/kernels/internal\types.h ****   // is 1 and `width_offset` is 1, so padding_left is 1 while padding_right is
  52:C:/Renesas/e2studio_2021_01_workspace_RZA2M_ANPR/ANPR_RZA2M_EBK/src/tensorflow_lite/tensorflow/lite/kernels/internal\types.h ****   // 1 + 1 = 2.
  53:C:/Renesas/e2studio_2021_01_workspace_RZA2M_ANPR/ANPR_RZA2M_EBK/src/tensorflow_lite/tensorflow/lite/kernels/internal\types.h ****   int16_t width_offset;
  54:C:/Renesas/e2studio_2021_01_workspace_RZA2M_ANPR/ANPR_RZA2M_EBK/src/tensorflow_lite/tensorflow/lite/kernels/internal\types.h ****   // Same as width_offset except it's over the height dimension.
  55:C:/Renesas/e2studio_2021_01_workspace_RZA2M_ANPR/ANPR_RZA2M_EBK/src/tensorflow_lite/tensorflow/lite/kernels/internal\types.h ****   int16_t height_offset;
  56:C:/Renesas/e2studio_2021_01_workspace_RZA2M_ANPR/ANPR_RZA2M_EBK/src/tensorflow_lite/tensorflow/lite/kernels/internal\types.h ****   // Same as width_offset except it's over the depth dimension.
  57:C:/Renesas/e2studio_2021_01_workspace_RZA2M_ANPR/ANPR_RZA2M_EBK/src/tensorflow_lite/tensorflow/lite/kernels/internal\types.h ****   int16_t depth_offset;
  58:C:/Renesas/e2studio_2021_01_workspace_RZA2M_ANPR/ANPR_RZA2M_EBK/src/tensorflow_lite/tensorflow/lite/kernels/internal\types.h **** };
  59:C:/Renesas/e2studio_2021_01_workspace_RZA2M_ANPR/ANPR_RZA2M_EBK/src/tensorflow_lite/tensorflow/lite/kernels/internal\types.h **** 
  60:C:/Renesas/e2studio_2021_01_workspace_RZA2M_ANPR/ANPR_RZA2M_EBK/src/tensorflow_lite/tensorflow/lite/kernels/internal\types.h **** // This enumeration allows for non-default formats for the weights array
  61:C:/Renesas/e2studio_2021_01_workspace_RZA2M_ANPR/ANPR_RZA2M_EBK/src/tensorflow_lite/tensorflow/lite/kernels/internal\types.h **** // of a fully-connected operator, allowing the use of special optimized
  62:C:/Renesas/e2studio_2021_01_workspace_RZA2M_ANPR/ANPR_RZA2M_EBK/src/tensorflow_lite/tensorflow/lite/kernels/internal\types.h **** // runtime paths.
  63:C:/Renesas/e2studio_2021_01_workspace_RZA2M_ANPR/ANPR_RZA2M_EBK/src/tensorflow_lite/tensorflow/lite/kernels/internal\types.h **** enum class FullyConnectedWeightsFormat : uint8_t {
  64:C:/Renesas/e2studio_2021_01_workspace_RZA2M_ANPR/ANPR_RZA2M_EBK/src/tensorflow_lite/tensorflow/lite/kernels/internal\types.h ****   // Default format (flat 2D layout, the inner contiguous dimension
  65:C:/Renesas/e2studio_2021_01_workspace_RZA2M_ANPR/ANPR_RZA2M_EBK/src/tensorflow_lite/tensorflow/lite/kernels/internal\types.h ****   // is input_depth, the outer non-contiguous dimension is output_depth)
  66:C:/Renesas/e2studio_2021_01_workspace_RZA2M_ANPR/ANPR_RZA2M_EBK/src/tensorflow_lite/tensorflow/lite/kernels/internal\types.h ****   kDefault,
  67:C:/Renesas/e2studio_2021_01_workspace_RZA2M_ANPR/ANPR_RZA2M_EBK/src/tensorflow_lite/tensorflow/lite/kernels/internal\types.h ****   // Summary: optimized layout for fast CPU runtime implementation,
  68:C:/Renesas/e2studio_2021_01_workspace_RZA2M_ANPR/ANPR_RZA2M_EBK/src/tensorflow_lite/tensorflow/lite/kernels/internal\types.h ****   // aimed specifically at ARM CPUs at the moment, and specialized for
  69:C:/Renesas/e2studio_2021_01_workspace_RZA2M_ANPR/ANPR_RZA2M_EBK/src/tensorflow_lite/tensorflow/lite/kernels/internal\types.h ****   // 8-bit quantized layers.
  70:C:/Renesas/e2studio_2021_01_workspace_RZA2M_ANPR/ANPR_RZA2M_EBK/src/tensorflow_lite/tensorflow/lite/kernels/internal\types.h ****   //
  71:C:/Renesas/e2studio_2021_01_workspace_RZA2M_ANPR/ANPR_RZA2M_EBK/src/tensorflow_lite/tensorflow/lite/kernels/internal\types.h ****   // The use case we're concerned with here is: 8-bit quantization,
  72:C:/Renesas/e2studio_2021_01_workspace_RZA2M_ANPR/ANPR_RZA2M_EBK/src/tensorflow_lite/tensorflow/lite/kernels/internal\types.h ****   // large weights matrix that doesn't fit in cache (e.g. 4096x2048 in
  73:C:/Renesas/e2studio_2021_01_workspace_RZA2M_ANPR/ANPR_RZA2M_EBK/src/tensorflow_lite/tensorflow/lite/kernels/internal\types.h ****   // a key application that drove this), very small batch size (e.g. 1 -- 4).
  74:C:/Renesas/e2studio_2021_01_workspace_RZA2M_ANPR/ANPR_RZA2M_EBK/src/tensorflow_lite/tensorflow/lite/kernels/internal\types.h ****   //
  75:C:/Renesas/e2studio_2021_01_workspace_RZA2M_ANPR/ANPR_RZA2M_EBK/src/tensorflow_lite/tensorflow/lite/kernels/internal\types.h ****   // Even with 8-bit quantization of weights, the performance of memory
  76:C:/Renesas/e2studio_2021_01_workspace_RZA2M_ANPR/ANPR_RZA2M_EBK/src/tensorflow_lite/tensorflow/lite/kernels/internal\types.h ****   // accesses to the weights can become the dominant issue when
  77:C:/Renesas/e2studio_2021_01_workspace_RZA2M_ANPR/ANPR_RZA2M_EBK/src/tensorflow_lite/tensorflow/lite/kernels/internal\types.h ****   // the batch size is small, so each weight value is used in only a few
  78:C:/Renesas/e2studio_2021_01_workspace_RZA2M_ANPR/ANPR_RZA2M_EBK/src/tensorflow_lite/tensorflow/lite/kernels/internal\types.h ****   // arithmetic ops, i.e. the fully-connected node has a low arithmetic
  79:C:/Renesas/e2studio_2021_01_workspace_RZA2M_ANPR/ANPR_RZA2M_EBK/src/tensorflow_lite/tensorflow/lite/kernels/internal\types.h ****   // intensity. The specific issues that arise are of three kinds:
  80:C:/Renesas/e2studio_2021_01_workspace_RZA2M_ANPR/ANPR_RZA2M_EBK/src/tensorflow_lite/tensorflow/lite/kernels/internal\types.h ****   // (1) One may, ideally, max out DRAM bandwidth, i.e. be truly memory
  81:C:/Renesas/e2studio_2021_01_workspace_RZA2M_ANPR/ANPR_RZA2M_EBK/src/tensorflow_lite/tensorflow/lite/kernels/internal\types.h ****   //     bound. That's the "good" issue to run into.
  82:C:/Renesas/e2studio_2021_01_workspace_RZA2M_ANPR/ANPR_RZA2M_EBK/src/tensorflow_lite/tensorflow/lite/kernels/internal\types.h ****   // (2) One may run into sub-optimal pre-fetching: the data hasn't been
  83:C:/Renesas/e2studio_2021_01_workspace_RZA2M_ANPR/ANPR_RZA2M_EBK/src/tensorflow_lite/tensorflow/lite/kernels/internal\types.h ****   //     prefetched into the cache by the time we need it.
  84:C:/Renesas/e2studio_2021_01_workspace_RZA2M_ANPR/ANPR_RZA2M_EBK/src/tensorflow_lite/tensorflow/lite/kernels/internal\types.h ****   // (3) One may run into cache aliasing: multiple values that are
  85:C:/Renesas/e2studio_2021_01_workspace_RZA2M_ANPR/ANPR_RZA2M_EBK/src/tensorflow_lite/tensorflow/lite/kernels/internal\types.h ****   //     pre-fetched, alias each other in the L1 cache (which typically
  86:C:/Renesas/e2studio_2021_01_workspace_RZA2M_ANPR/ANPR_RZA2M_EBK/src/tensorflow_lite/tensorflow/lite/kernels/internal\types.h ****   //     has only 4-way set associativity in ARM CPUs) and thus evict
  87:C:/Renesas/e2studio_2021_01_workspace_RZA2M_ANPR/ANPR_RZA2M_EBK/src/tensorflow_lite/tensorflow/lite/kernels/internal\types.h ****   //     each other before we get to using them.
  88:C:/Renesas/e2studio_2021_01_workspace_RZA2M_ANPR/ANPR_RZA2M_EBK/src/tensorflow_lite/tensorflow/lite/kernels/internal\types.h ****   //
  89:C:/Renesas/e2studio_2021_01_workspace_RZA2M_ANPR/ANPR_RZA2M_EBK/src/tensorflow_lite/tensorflow/lite/kernels/internal\types.h ****   // The point of this shuffling is to avoid issues (2) and (3) so that
  90:C:/Renesas/e2studio_2021_01_workspace_RZA2M_ANPR/ANPR_RZA2M_EBK/src/tensorflow_lite/tensorflow/lite/kernels/internal\types.h ****   // we get as fast as possible given only the hard constraint (1).
  91:C:/Renesas/e2studio_2021_01_workspace_RZA2M_ANPR/ANPR_RZA2M_EBK/src/tensorflow_lite/tensorflow/lite/kernels/internal\types.h ****   // This is achieved by turning the difficulty into a solution: the
  92:C:/Renesas/e2studio_2021_01_workspace_RZA2M_ANPR/ANPR_RZA2M_EBK/src/tensorflow_lite/tensorflow/lite/kernels/internal\types.h ****   // difficulty, that each value loaded from memory is used only in
  93:C:/Renesas/e2studio_2021_01_workspace_RZA2M_ANPR/ANPR_RZA2M_EBK/src/tensorflow_lite/tensorflow/lite/kernels/internal\types.h ****   // one kernel iteration, making this operation memory-intensive, hints at
  94:C:/Renesas/e2studio_2021_01_workspace_RZA2M_ANPR/ANPR_RZA2M_EBK/src/tensorflow_lite/tensorflow/lite/kernels/internal\types.h ****   // the solution, of shuffling the weights so that they are stored in the
  95:C:/Renesas/e2studio_2021_01_workspace_RZA2M_ANPR/ANPR_RZA2M_EBK/src/tensorflow_lite/tensorflow/lite/kernels/internal\types.h ****   // exact order as the kernel needs to load them, so that the memory
  96:C:/Renesas/e2studio_2021_01_workspace_RZA2M_ANPR/ANPR_RZA2M_EBK/src/tensorflow_lite/tensorflow/lite/kernels/internal\types.h ****   // accesses made by the kernel are trivial. This solves (2) because the
  97:C:/Renesas/e2studio_2021_01_workspace_RZA2M_ANPR/ANPR_RZA2M_EBK/src/tensorflow_lite/tensorflow/lite/kernels/internal\types.h ****   // trivial memory access pattern allows the CPU's automatic prefetching
  98:C:/Renesas/e2studio_2021_01_workspace_RZA2M_ANPR/ANPR_RZA2M_EBK/src/tensorflow_lite/tensorflow/lite/kernels/internal\types.h ****   // to perform very well (no need even for preload instructions), and this
  99:C:/Renesas/e2studio_2021_01_workspace_RZA2M_ANPR/ANPR_RZA2M_EBK/src/tensorflow_lite/tensorflow/lite/kernels/internal\types.h ****   // solves (3) because the values being loaded concurrently are now
 100:C:/Renesas/e2studio_2021_01_workspace_RZA2M_ANPR/ANPR_RZA2M_EBK/src/tensorflow_lite/tensorflow/lite/kernels/internal\types.h ****   // contiguous in the address space, thus don't alias each other in the cache.
 101:C:/Renesas/e2studio_2021_01_workspace_RZA2M_ANPR/ANPR_RZA2M_EBK/src/tensorflow_lite/tensorflow/lite/kernels/internal\types.h ****   //
 102:C:/Renesas/e2studio_2021_01_workspace_RZA2M_ANPR/ANPR_RZA2M_EBK/src/tensorflow_lite/tensorflow/lite/kernels/internal\types.h ****   // On ARM, we typically want our kernel to process a 4x16 block of weights
 103:C:/Renesas/e2studio_2021_01_workspace_RZA2M_ANPR/ANPR_RZA2M_EBK/src/tensorflow_lite/tensorflow/lite/kernels/internal\types.h ****   // at a time, because:
 104:C:/Renesas/e2studio_2021_01_workspace_RZA2M_ANPR/ANPR_RZA2M_EBK/src/tensorflow_lite/tensorflow/lite/kernels/internal\types.h ****   //   - 16 is the number of bytes in a NEON register.
 105:C:/Renesas/e2studio_2021_01_workspace_RZA2M_ANPR/ANPR_RZA2M_EBK/src/tensorflow_lite/tensorflow/lite/kernels/internal\types.h ****   //   - 4 is how many rows we need to handle concurrently in the kernel in
 106:C:/Renesas/e2studio_2021_01_workspace_RZA2M_ANPR/ANPR_RZA2M_EBK/src/tensorflow_lite/tensorflow/lite/kernels/internal\types.h ****   //     order to have sufficient mutual independence of instructions to
 107:C:/Renesas/e2studio_2021_01_workspace_RZA2M_ANPR/ANPR_RZA2M_EBK/src/tensorflow_lite/tensorflow/lite/kernels/internal\types.h ****   //     maximize arithmetic throughput.
 108:C:/Renesas/e2studio_2021_01_workspace_RZA2M_ANPR/ANPR_RZA2M_EBK/src/tensorflow_lite/tensorflow/lite/kernels/internal\types.h ****   //
 109:C:/Renesas/e2studio_2021_01_workspace_RZA2M_ANPR/ANPR_RZA2M_EBK/src/tensorflow_lite/tensorflow/lite/kernels/internal\types.h ****   // Finally, the 'Int8' part in the name refers to the fact that this
 110:C:/Renesas/e2studio_2021_01_workspace_RZA2M_ANPR/ANPR_RZA2M_EBK/src/tensorflow_lite/tensorflow/lite/kernels/internal\types.h ****   // weights format has each weights value encoded as a signed int8_t value,
 111:C:/Renesas/e2studio_2021_01_workspace_RZA2M_ANPR/ANPR_RZA2M_EBK/src/tensorflow_lite/tensorflow/lite/kernels/internal\types.h ****   // even if the data type of the weights buffer is uint8_t.  This is intended
 112:C:/Renesas/e2studio_2021_01_workspace_RZA2M_ANPR/ANPR_RZA2M_EBK/src/tensorflow_lite/tensorflow/lite/kernels/internal\types.h ****   // to save runtime kernels the effort to have to XOR the top bit of these
 113:C:/Renesas/e2studio_2021_01_workspace_RZA2M_ANPR/ANPR_RZA2M_EBK/src/tensorflow_lite/tensorflow/lite/kernels/internal\types.h ****   // bytes before using them in signed arithmetic, see this file for more
 114:C:/Renesas/e2studio_2021_01_workspace_RZA2M_ANPR/ANPR_RZA2M_EBK/src/tensorflow_lite/tensorflow/lite/kernels/internal\types.h ****   // explanations on the 'signed int8_t trick' in matrix multiplication kernels:
 115:C:/Renesas/e2studio_2021_01_workspace_RZA2M_ANPR/ANPR_RZA2M_EBK/src/tensorflow_lite/tensorflow/lite/kernels/internal\types.h ****   //
 116:C:/Renesas/e2studio_2021_01_workspace_RZA2M_ANPR/ANPR_RZA2M_EBK/src/tensorflow_lite/tensorflow/lite/kernels/internal\types.h ****   //   tensorflow/lite/toco/graph_transformations/ensure_uint8_weights_safe_for_fast_int8_kernels.c
 117:C:/Renesas/e2studio_2021_01_workspace_RZA2M_ANPR/ANPR_RZA2M_EBK/src/tensorflow_lite/tensorflow/lite/kernels/internal\types.h ****   //
 118:C:/Renesas/e2studio_2021_01_workspace_RZA2M_ANPR/ANPR_RZA2M_EBK/src/tensorflow_lite/tensorflow/lite/kernels/internal\types.h ****   kShuffled4x16Int8,
 119:C:/Renesas/e2studio_2021_01_workspace_RZA2M_ANPR/ANPR_RZA2M_EBK/src/tensorflow_lite/tensorflow/lite/kernels/internal\types.h **** };
 120:C:/Renesas/e2studio_2021_01_workspace_RZA2M_ANPR/ANPR_RZA2M_EBK/src/tensorflow_lite/tensorflow/lite/kernels/internal\types.h **** 
 121:C:/Renesas/e2studio_2021_01_workspace_RZA2M_ANPR/ANPR_RZA2M_EBK/src/tensorflow_lite/tensorflow/lite/kernels/internal\types.h **** // Quantization parameters, determining the mapping of quantized values
 122:C:/Renesas/e2studio_2021_01_workspace_RZA2M_ANPR/ANPR_RZA2M_EBK/src/tensorflow_lite/tensorflow/lite/kernels/internal\types.h **** // to real values (i.e. determining how quantized values are mathematically
 123:C:/Renesas/e2studio_2021_01_workspace_RZA2M_ANPR/ANPR_RZA2M_EBK/src/tensorflow_lite/tensorflow/lite/kernels/internal\types.h **** // interpreted).
 124:C:/Renesas/e2studio_2021_01_workspace_RZA2M_ANPR/ANPR_RZA2M_EBK/src/tensorflow_lite/tensorflow/lite/kernels/internal\types.h **** //
 125:C:/Renesas/e2studio_2021_01_workspace_RZA2M_ANPR/ANPR_RZA2M_EBK/src/tensorflow_lite/tensorflow/lite/kernels/internal\types.h **** // The correspondence is as follows:
 126:C:/Renesas/e2studio_2021_01_workspace_RZA2M_ANPR/ANPR_RZA2M_EBK/src/tensorflow_lite/tensorflow/lite/kernels/internal\types.h **** //
 127:C:/Renesas/e2studio_2021_01_workspace_RZA2M_ANPR/ANPR_RZA2M_EBK/src/tensorflow_lite/tensorflow/lite/kernels/internal\types.h **** //   real_value = scale * (quantized_value - zero_point);
 128:C:/Renesas/e2studio_2021_01_workspace_RZA2M_ANPR/ANPR_RZA2M_EBK/src/tensorflow_lite/tensorflow/lite/kernels/internal\types.h **** //
 129:C:/Renesas/e2studio_2021_01_workspace_RZA2M_ANPR/ANPR_RZA2M_EBK/src/tensorflow_lite/tensorflow/lite/kernels/internal\types.h **** // In other words, zero_point designates which quantized value corresponds to
 130:C:/Renesas/e2studio_2021_01_workspace_RZA2M_ANPR/ANPR_RZA2M_EBK/src/tensorflow_lite/tensorflow/lite/kernels/internal\types.h **** // the real 0 value, and scale designates the difference between the real values
 131:C:/Renesas/e2studio_2021_01_workspace_RZA2M_ANPR/ANPR_RZA2M_EBK/src/tensorflow_lite/tensorflow/lite/kernels/internal\types.h **** // corresponding to consecutive quantized values differing by 1.
 132:C:/Renesas/e2studio_2021_01_workspace_RZA2M_ANPR/ANPR_RZA2M_EBK/src/tensorflow_lite/tensorflow/lite/kernels/internal\types.h **** struct QuantizationParams {
 133:C:/Renesas/e2studio_2021_01_workspace_RZA2M_ANPR/ANPR_RZA2M_EBK/src/tensorflow_lite/tensorflow/lite/kernels/internal\types.h ****   int32_t zero_point = 0;
 134:C:/Renesas/e2studio_2021_01_workspace_RZA2M_ANPR/ANPR_RZA2M_EBK/src/tensorflow_lite/tensorflow/lite/kernels/internal\types.h ****   double scale = 0.0;
 135:C:/Renesas/e2studio_2021_01_workspace_RZA2M_ANPR/ANPR_RZA2M_EBK/src/tensorflow_lite/tensorflow/lite/kernels/internal\types.h **** };
 136:C:/Renesas/e2studio_2021_01_workspace_RZA2M_ANPR/ANPR_RZA2M_EBK/src/tensorflow_lite/tensorflow/lite/kernels/internal\types.h **** 
 137:C:/Renesas/e2studio_2021_01_workspace_RZA2M_ANPR/ANPR_RZA2M_EBK/src/tensorflow_lite/tensorflow/lite/kernels/internal\types.h **** inline bool operator==(const QuantizationParams& qp1,
 138:C:/Renesas/e2studio_2021_01_workspace_RZA2M_ANPR/ANPR_RZA2M_EBK/src/tensorflow_lite/tensorflow/lite/kernels/internal\types.h ****                        const QuantizationParams& qp2) {
 139:C:/Renesas/e2studio_2021_01_workspace_RZA2M_ANPR/ANPR_RZA2M_EBK/src/tensorflow_lite/tensorflow/lite/kernels/internal\types.h ****   return qp1.zero_point == qp2.zero_point && qp1.scale == qp2.scale;
 140:C:/Renesas/e2studio_2021_01_workspace_RZA2M_ANPR/ANPR_RZA2M_EBK/src/tensorflow_lite/tensorflow/lite/kernels/internal\types.h **** }
 141:C:/Renesas/e2studio_2021_01_workspace_RZA2M_ANPR/ANPR_RZA2M_EBK/src/tensorflow_lite/tensorflow/lite/kernels/internal\types.h **** 
 142:C:/Renesas/e2studio_2021_01_workspace_RZA2M_ANPR/ANPR_RZA2M_EBK/src/tensorflow_lite/tensorflow/lite/kernels/internal\types.h **** template <int N>
 143:C:/Renesas/e2studio_2021_01_workspace_RZA2M_ANPR/ANPR_RZA2M_EBK/src/tensorflow_lite/tensorflow/lite/kernels/internal\types.h **** struct Dims {
 144:C:/Renesas/e2studio_2021_01_workspace_RZA2M_ANPR/ANPR_RZA2M_EBK/src/tensorflow_lite/tensorflow/lite/kernels/internal\types.h ****   int sizes[N];
 145:C:/Renesas/e2studio_2021_01_workspace_RZA2M_ANPR/ANPR_RZA2M_EBK/src/tensorflow_lite/tensorflow/lite/kernels/internal\types.h ****   int strides[N];
 146:C:/Renesas/e2studio_2021_01_workspace_RZA2M_ANPR/ANPR_RZA2M_EBK/src/tensorflow_lite/tensorflow/lite/kernels/internal\types.h **** };
 147:C:/Renesas/e2studio_2021_01_workspace_RZA2M_ANPR/ANPR_RZA2M_EBK/src/tensorflow_lite/tensorflow/lite/kernels/internal\types.h **** 
 148:C:/Renesas/e2studio_2021_01_workspace_RZA2M_ANPR/ANPR_RZA2M_EBK/src/tensorflow_lite/tensorflow/lite/kernels/internal\types.h **** class RuntimeShape {
 149:C:/Renesas/e2studio_2021_01_workspace_RZA2M_ANPR/ANPR_RZA2M_EBK/src/tensorflow_lite/tensorflow/lite/kernels/internal\types.h ****  public:
 150:C:/Renesas/e2studio_2021_01_workspace_RZA2M_ANPR/ANPR_RZA2M_EBK/src/tensorflow_lite/tensorflow/lite/kernels/internal\types.h ****   // Shapes with dimensions up to 5 are stored directly in the structure, while
 151:C:/Renesas/e2studio_2021_01_workspace_RZA2M_ANPR/ANPR_RZA2M_EBK/src/tensorflow_lite/tensorflow/lite/kernels/internal\types.h ****   // larger shapes are separately allocated.
 152:C:/Renesas/e2studio_2021_01_workspace_RZA2M_ANPR/ANPR_RZA2M_EBK/src/tensorflow_lite/tensorflow/lite/kernels/internal\types.h ****   static constexpr int kMaxSmallSize = 5;
 153:C:/Renesas/e2studio_2021_01_workspace_RZA2M_ANPR/ANPR_RZA2M_EBK/src/tensorflow_lite/tensorflow/lite/kernels/internal\types.h **** 
 154:C:/Renesas/e2studio_2021_01_workspace_RZA2M_ANPR/ANPR_RZA2M_EBK/src/tensorflow_lite/tensorflow/lite/kernels/internal\types.h ****   RuntimeShape& operator=(RuntimeShape const&) = delete;
 155:C:/Renesas/e2studio_2021_01_workspace_RZA2M_ANPR/ANPR_RZA2M_EBK/src/tensorflow_lite/tensorflow/lite/kernels/internal\types.h **** 
 156:C:/Renesas/e2studio_2021_01_workspace_RZA2M_ANPR/ANPR_RZA2M_EBK/src/tensorflow_lite/tensorflow/lite/kernels/internal\types.h ****   RuntimeShape() : size_(0) {}
 157:C:/Renesas/e2studio_2021_01_workspace_RZA2M_ANPR/ANPR_RZA2M_EBK/src/tensorflow_lite/tensorflow/lite/kernels/internal\types.h **** 
 158:C:/Renesas/e2studio_2021_01_workspace_RZA2M_ANPR/ANPR_RZA2M_EBK/src/tensorflow_lite/tensorflow/lite/kernels/internal\types.h ****   explicit RuntimeShape(int dimensions_count) : size_(dimensions_count) {
 159:C:/Renesas/e2studio_2021_01_workspace_RZA2M_ANPR/ANPR_RZA2M_EBK/src/tensorflow_lite/tensorflow/lite/kernels/internal\types.h ****     if (dimensions_count > kMaxSmallSize) {
 160:C:/Renesas/e2studio_2021_01_workspace_RZA2M_ANPR/ANPR_RZA2M_EBK/src/tensorflow_lite/tensorflow/lite/kernels/internal\types.h **** #ifdef TF_LITE_STATIC_MEMORY
 161:C:/Renesas/e2studio_2021_01_workspace_RZA2M_ANPR/ANPR_RZA2M_EBK/src/tensorflow_lite/tensorflow/lite/kernels/internal\types.h ****       TFLITE_CHECK(false && "No shape resizing supported on this platform");
 162:C:/Renesas/e2studio_2021_01_workspace_RZA2M_ANPR/ANPR_RZA2M_EBK/src/tensorflow_lite/tensorflow/lite/kernels/internal\types.h **** #else  // TF_LITE_STATIC_MEMORY
 163:C:/Renesas/e2studio_2021_01_workspace_RZA2M_ANPR/ANPR_RZA2M_EBK/src/tensorflow_lite/tensorflow/lite/kernels/internal\types.h ****       dims_pointer_ = new int32_t[dimensions_count];
 164:C:/Renesas/e2studio_2021_01_workspace_RZA2M_ANPR/ANPR_RZA2M_EBK/src/tensorflow_lite/tensorflow/lite/kernels/internal\types.h **** #endif  // TF_LITE_STATIC_MEMORY
 165:C:/Renesas/e2studio_2021_01_workspace_RZA2M_ANPR/ANPR_RZA2M_EBK/src/tensorflow_lite/tensorflow/lite/kernels/internal\types.h ****     }
 166:C:/Renesas/e2studio_2021_01_workspace_RZA2M_ANPR/ANPR_RZA2M_EBK/src/tensorflow_lite/tensorflow/lite/kernels/internal\types.h ****   }
 167:C:/Renesas/e2studio_2021_01_workspace_RZA2M_ANPR/ANPR_RZA2M_EBK/src/tensorflow_lite/tensorflow/lite/kernels/internal\types.h **** 
 168:C:/Renesas/e2studio_2021_01_workspace_RZA2M_ANPR/ANPR_RZA2M_EBK/src/tensorflow_lite/tensorflow/lite/kernels/internal\types.h ****   RuntimeShape(int shape_size, int32_t value) : size_(0) {
 169:C:/Renesas/e2studio_2021_01_workspace_RZA2M_ANPR/ANPR_RZA2M_EBK/src/tensorflow_lite/tensorflow/lite/kernels/internal\types.h ****     Resize(shape_size);
 170:C:/Renesas/e2studio_2021_01_workspace_RZA2M_ANPR/ANPR_RZA2M_EBK/src/tensorflow_lite/tensorflow/lite/kernels/internal\types.h ****     for (int i = 0; i < shape_size; ++i) {
 171:C:/Renesas/e2studio_2021_01_workspace_RZA2M_ANPR/ANPR_RZA2M_EBK/src/tensorflow_lite/tensorflow/lite/kernels/internal\types.h ****       SetDim(i, value);
 172:C:/Renesas/e2studio_2021_01_workspace_RZA2M_ANPR/ANPR_RZA2M_EBK/src/tensorflow_lite/tensorflow/lite/kernels/internal\types.h ****     }
 173:C:/Renesas/e2studio_2021_01_workspace_RZA2M_ANPR/ANPR_RZA2M_EBK/src/tensorflow_lite/tensorflow/lite/kernels/internal\types.h ****   }
 174:C:/Renesas/e2studio_2021_01_workspace_RZA2M_ANPR/ANPR_RZA2M_EBK/src/tensorflow_lite/tensorflow/lite/kernels/internal\types.h **** 
 175:C:/Renesas/e2studio_2021_01_workspace_RZA2M_ANPR/ANPR_RZA2M_EBK/src/tensorflow_lite/tensorflow/lite/kernels/internal\types.h ****   RuntimeShape(int dimensions_count, const int32_t* dims_data) : size_(0) {
 176:C:/Renesas/e2studio_2021_01_workspace_RZA2M_ANPR/ANPR_RZA2M_EBK/src/tensorflow_lite/tensorflow/lite/kernels/internal\types.h ****     ReplaceWith(dimensions_count, dims_data);
 177:C:/Renesas/e2studio_2021_01_workspace_RZA2M_ANPR/ANPR_RZA2M_EBK/src/tensorflow_lite/tensorflow/lite/kernels/internal\types.h ****   }
 178:C:/Renesas/e2studio_2021_01_workspace_RZA2M_ANPR/ANPR_RZA2M_EBK/src/tensorflow_lite/tensorflow/lite/kernels/internal\types.h **** 
 179:C:/Renesas/e2studio_2021_01_workspace_RZA2M_ANPR/ANPR_RZA2M_EBK/src/tensorflow_lite/tensorflow/lite/kernels/internal\types.h ****   RuntimeShape(const std::initializer_list<int> init_list) : size_(0) {
 180:C:/Renesas/e2studio_2021_01_workspace_RZA2M_ANPR/ANPR_RZA2M_EBK/src/tensorflow_lite/tensorflow/lite/kernels/internal\types.h ****     BuildFrom(init_list);
 181:C:/Renesas/e2studio_2021_01_workspace_RZA2M_ANPR/ANPR_RZA2M_EBK/src/tensorflow_lite/tensorflow/lite/kernels/internal\types.h ****   }
 182:C:/Renesas/e2studio_2021_01_workspace_RZA2M_ANPR/ANPR_RZA2M_EBK/src/tensorflow_lite/tensorflow/lite/kernels/internal\types.h **** 
 183:C:/Renesas/e2studio_2021_01_workspace_RZA2M_ANPR/ANPR_RZA2M_EBK/src/tensorflow_lite/tensorflow/lite/kernels/internal\types.h ****   // Avoid using this constructor.  We should be able to delete it when C++17
 184:C:/Renesas/e2studio_2021_01_workspace_RZA2M_ANPR/ANPR_RZA2M_EBK/src/tensorflow_lite/tensorflow/lite/kernels/internal\types.h ****   // rolls out.
 185:C:/Renesas/e2studio_2021_01_workspace_RZA2M_ANPR/ANPR_RZA2M_EBK/src/tensorflow_lite/tensorflow/lite/kernels/internal\types.h ****   RuntimeShape(RuntimeShape const& other) : size_(other.DimensionsCount()) {
 186:C:/Renesas/e2studio_2021_01_workspace_RZA2M_ANPR/ANPR_RZA2M_EBK/src/tensorflow_lite/tensorflow/lite/kernels/internal\types.h ****     if (size_ > kMaxSmallSize) {
 187:C:/Renesas/e2studio_2021_01_workspace_RZA2M_ANPR/ANPR_RZA2M_EBK/src/tensorflow_lite/tensorflow/lite/kernels/internal\types.h **** #ifdef TF_LITE_STATIC_MEMORY
 188:C:/Renesas/e2studio_2021_01_workspace_RZA2M_ANPR/ANPR_RZA2M_EBK/src/tensorflow_lite/tensorflow/lite/kernels/internal\types.h ****       TFLITE_CHECK(false && "No shape resizing supported on this platform");
 189:C:/Renesas/e2studio_2021_01_workspace_RZA2M_ANPR/ANPR_RZA2M_EBK/src/tensorflow_lite/tensorflow/lite/kernels/internal\types.h **** #else
 190:C:/Renesas/e2studio_2021_01_workspace_RZA2M_ANPR/ANPR_RZA2M_EBK/src/tensorflow_lite/tensorflow/lite/kernels/internal\types.h ****       dims_pointer_ = new int32_t[size_];
 191:C:/Renesas/e2studio_2021_01_workspace_RZA2M_ANPR/ANPR_RZA2M_EBK/src/tensorflow_lite/tensorflow/lite/kernels/internal\types.h **** #endif
 192:C:/Renesas/e2studio_2021_01_workspace_RZA2M_ANPR/ANPR_RZA2M_EBK/src/tensorflow_lite/tensorflow/lite/kernels/internal\types.h ****     }
 193:C:/Renesas/e2studio_2021_01_workspace_RZA2M_ANPR/ANPR_RZA2M_EBK/src/tensorflow_lite/tensorflow/lite/kernels/internal\types.h ****     std::memcpy(DimsData(), other.DimsData(), sizeof(int32_t) * size_);
 194:C:/Renesas/e2studio_2021_01_workspace_RZA2M_ANPR/ANPR_RZA2M_EBK/src/tensorflow_lite/tensorflow/lite/kernels/internal\types.h ****   }
 195:C:/Renesas/e2studio_2021_01_workspace_RZA2M_ANPR/ANPR_RZA2M_EBK/src/tensorflow_lite/tensorflow/lite/kernels/internal\types.h **** 
 196:C:/Renesas/e2studio_2021_01_workspace_RZA2M_ANPR/ANPR_RZA2M_EBK/src/tensorflow_lite/tensorflow/lite/kernels/internal\types.h ****   bool operator==(const RuntimeShape& comp) const {
 197:C:/Renesas/e2studio_2021_01_workspace_RZA2M_ANPR/ANPR_RZA2M_EBK/src/tensorflow_lite/tensorflow/lite/kernels/internal\types.h ****     return this->size_ == comp.size_ &&
 198:C:/Renesas/e2studio_2021_01_workspace_RZA2M_ANPR/ANPR_RZA2M_EBK/src/tensorflow_lite/tensorflow/lite/kernels/internal\types.h ****            std::memcmp(DimsData(), comp.DimsData(), size_ * sizeof(int32_t)) ==
 199:C:/Renesas/e2studio_2021_01_workspace_RZA2M_ANPR/ANPR_RZA2M_EBK/src/tensorflow_lite/tensorflow/lite/kernels/internal\types.h ****                0;
 200:C:/Renesas/e2studio_2021_01_workspace_RZA2M_ANPR/ANPR_RZA2M_EBK/src/tensorflow_lite/tensorflow/lite/kernels/internal\types.h ****   }
 201:C:/Renesas/e2studio_2021_01_workspace_RZA2M_ANPR/ANPR_RZA2M_EBK/src/tensorflow_lite/tensorflow/lite/kernels/internal\types.h **** 
 202:C:/Renesas/e2studio_2021_01_workspace_RZA2M_ANPR/ANPR_RZA2M_EBK/src/tensorflow_lite/tensorflow/lite/kernels/internal\types.h ****   ~RuntimeShape() {
 203:C:/Renesas/e2studio_2021_01_workspace_RZA2M_ANPR/ANPR_RZA2M_EBK/src/tensorflow_lite/tensorflow/lite/kernels/internal\types.h ****     if (size_ > kMaxSmallSize) {
 204:C:/Renesas/e2studio_2021_01_workspace_RZA2M_ANPR/ANPR_RZA2M_EBK/src/tensorflow_lite/tensorflow/lite/kernels/internal\types.h **** #ifdef TF_LITE_STATIC_MEMORY
 205:C:/Renesas/e2studio_2021_01_workspace_RZA2M_ANPR/ANPR_RZA2M_EBK/src/tensorflow_lite/tensorflow/lite/kernels/internal\types.h ****       TFLITE_CHECK(false && "No shape resizing supported on this platform");
 206:C:/Renesas/e2studio_2021_01_workspace_RZA2M_ANPR/ANPR_RZA2M_EBK/src/tensorflow_lite/tensorflow/lite/kernels/internal\types.h **** #else  // TF_LITE_STATIC_MEMORY
 207:C:/Renesas/e2studio_2021_01_workspace_RZA2M_ANPR/ANPR_RZA2M_EBK/src/tensorflow_lite/tensorflow/lite/kernels/internal\types.h ****       delete[] dims_pointer_;
 208:C:/Renesas/e2studio_2021_01_workspace_RZA2M_ANPR/ANPR_RZA2M_EBK/src/tensorflow_lite/tensorflow/lite/kernels/internal\types.h **** #endif  // TF_LITE_STATIC_MEMORY
 209:C:/Renesas/e2studio_2021_01_workspace_RZA2M_ANPR/ANPR_RZA2M_EBK/src/tensorflow_lite/tensorflow/lite/kernels/internal\types.h ****     }
 210:C:/Renesas/e2studio_2021_01_workspace_RZA2M_ANPR/ANPR_RZA2M_EBK/src/tensorflow_lite/tensorflow/lite/kernels/internal\types.h ****   }
 211:C:/Renesas/e2studio_2021_01_workspace_RZA2M_ANPR/ANPR_RZA2M_EBK/src/tensorflow_lite/tensorflow/lite/kernels/internal\types.h **** 
 212:C:/Renesas/e2studio_2021_01_workspace_RZA2M_ANPR/ANPR_RZA2M_EBK/src/tensorflow_lite/tensorflow/lite/kernels/internal\types.h ****   inline int32_t DimensionsCount() const { return size_; }
 213:C:/Renesas/e2studio_2021_01_workspace_RZA2M_ANPR/ANPR_RZA2M_EBK/src/tensorflow_lite/tensorflow/lite/kernels/internal\types.h ****   inline int32_t Dims(int i) const {
 214:C:/Renesas/e2studio_2021_01_workspace_RZA2M_ANPR/ANPR_RZA2M_EBK/src/tensorflow_lite/tensorflow/lite/kernels/internal\types.h ****     TFLITE_DCHECK_GE(i, 0);
 215:C:/Renesas/e2studio_2021_01_workspace_RZA2M_ANPR/ANPR_RZA2M_EBK/src/tensorflow_lite/tensorflow/lite/kernels/internal\types.h ****     TFLITE_DCHECK_LT(i, size_);
 216:C:/Renesas/e2studio_2021_01_workspace_RZA2M_ANPR/ANPR_RZA2M_EBK/src/tensorflow_lite/tensorflow/lite/kernels/internal\types.h ****     return size_ > kMaxSmallSize ? dims_pointer_[i] : dims_[i];
 217:C:/Renesas/e2studio_2021_01_workspace_RZA2M_ANPR/ANPR_RZA2M_EBK/src/tensorflow_lite/tensorflow/lite/kernels/internal\types.h ****   }
 218:C:/Renesas/e2studio_2021_01_workspace_RZA2M_ANPR/ANPR_RZA2M_EBK/src/tensorflow_lite/tensorflow/lite/kernels/internal\types.h ****   inline void SetDim(int i, int32_t val) {
 219:C:/Renesas/e2studio_2021_01_workspace_RZA2M_ANPR/ANPR_RZA2M_EBK/src/tensorflow_lite/tensorflow/lite/kernels/internal\types.h ****     TFLITE_DCHECK_GE(i, 0);
 220:C:/Renesas/e2studio_2021_01_workspace_RZA2M_ANPR/ANPR_RZA2M_EBK/src/tensorflow_lite/tensorflow/lite/kernels/internal\types.h ****     TFLITE_DCHECK_LT(i, size_);
 221:C:/Renesas/e2studio_2021_01_workspace_RZA2M_ANPR/ANPR_RZA2M_EBK/src/tensorflow_lite/tensorflow/lite/kernels/internal\types.h ****     if (size_ > kMaxSmallSize) {
 222:C:/Renesas/e2studio_2021_01_workspace_RZA2M_ANPR/ANPR_RZA2M_EBK/src/tensorflow_lite/tensorflow/lite/kernels/internal\types.h ****       dims_pointer_[i] = val;
 223:C:/Renesas/e2studio_2021_01_workspace_RZA2M_ANPR/ANPR_RZA2M_EBK/src/tensorflow_lite/tensorflow/lite/kernels/internal\types.h ****     } else {
 224:C:/Renesas/e2studio_2021_01_workspace_RZA2M_ANPR/ANPR_RZA2M_EBK/src/tensorflow_lite/tensorflow/lite/kernels/internal\types.h ****       dims_[i] = val;
 225:C:/Renesas/e2studio_2021_01_workspace_RZA2M_ANPR/ANPR_RZA2M_EBK/src/tensorflow_lite/tensorflow/lite/kernels/internal\types.h ****     }
 226:C:/Renesas/e2studio_2021_01_workspace_RZA2M_ANPR/ANPR_RZA2M_EBK/src/tensorflow_lite/tensorflow/lite/kernels/internal\types.h ****   }
 227:C:/Renesas/e2studio_2021_01_workspace_RZA2M_ANPR/ANPR_RZA2M_EBK/src/tensorflow_lite/tensorflow/lite/kernels/internal\types.h **** 
 228:C:/Renesas/e2studio_2021_01_workspace_RZA2M_ANPR/ANPR_RZA2M_EBK/src/tensorflow_lite/tensorflow/lite/kernels/internal\types.h ****   inline int32_t* DimsData() {
 229:C:/Renesas/e2studio_2021_01_workspace_RZA2M_ANPR/ANPR_RZA2M_EBK/src/tensorflow_lite/tensorflow/lite/kernels/internal\types.h ****     return size_ > kMaxSmallSize ? dims_pointer_ : dims_;
 230:C:/Renesas/e2studio_2021_01_workspace_RZA2M_ANPR/ANPR_RZA2M_EBK/src/tensorflow_lite/tensorflow/lite/kernels/internal\types.h ****   }
 231:C:/Renesas/e2studio_2021_01_workspace_RZA2M_ANPR/ANPR_RZA2M_EBK/src/tensorflow_lite/tensorflow/lite/kernels/internal\types.h ****   inline const int32_t* DimsData() const {
 232:C:/Renesas/e2studio_2021_01_workspace_RZA2M_ANPR/ANPR_RZA2M_EBK/src/tensorflow_lite/tensorflow/lite/kernels/internal\types.h ****     return size_ > kMaxSmallSize ? dims_pointer_ : dims_;
 233:C:/Renesas/e2studio_2021_01_workspace_RZA2M_ANPR/ANPR_RZA2M_EBK/src/tensorflow_lite/tensorflow/lite/kernels/internal\types.h ****   }
 234:C:/Renesas/e2studio_2021_01_workspace_RZA2M_ANPR/ANPR_RZA2M_EBK/src/tensorflow_lite/tensorflow/lite/kernels/internal\types.h ****   // The caller must ensure that the shape is no bigger than 5-D.
 235:C:/Renesas/e2studio_2021_01_workspace_RZA2M_ANPR/ANPR_RZA2M_EBK/src/tensorflow_lite/tensorflow/lite/kernels/internal\types.h ****   inline const int32_t* DimsDataUpTo5D() const { return dims_; }
 236:C:/Renesas/e2studio_2021_01_workspace_RZA2M_ANPR/ANPR_RZA2M_EBK/src/tensorflow_lite/tensorflow/lite/kernels/internal\types.h **** 
 237:C:/Renesas/e2studio_2021_01_workspace_RZA2M_ANPR/ANPR_RZA2M_EBK/src/tensorflow_lite/tensorflow/lite/kernels/internal\types.h ****   inline void Resize(int dimensions_count) {
 238:C:/Renesas/e2studio_2021_01_workspace_RZA2M_ANPR/ANPR_RZA2M_EBK/src/tensorflow_lite/tensorflow/lite/kernels/internal\types.h ****     if (size_ > kMaxSmallSize) {
 239:C:/Renesas/e2studio_2021_01_workspace_RZA2M_ANPR/ANPR_RZA2M_EBK/src/tensorflow_lite/tensorflow/lite/kernels/internal\types.h **** #ifdef TF_LITE_STATIC_MEMORY
 240:C:/Renesas/e2studio_2021_01_workspace_RZA2M_ANPR/ANPR_RZA2M_EBK/src/tensorflow_lite/tensorflow/lite/kernels/internal\types.h ****       TFLITE_CHECK(false && "No shape resizing supported on this platform");
 241:C:/Renesas/e2studio_2021_01_workspace_RZA2M_ANPR/ANPR_RZA2M_EBK/src/tensorflow_lite/tensorflow/lite/kernels/internal\types.h **** #else  // TF_LITE_STATIC_MEMORY
 242:C:/Renesas/e2studio_2021_01_workspace_RZA2M_ANPR/ANPR_RZA2M_EBK/src/tensorflow_lite/tensorflow/lite/kernels/internal\types.h ****       delete[] dims_pointer_;
 243:C:/Renesas/e2studio_2021_01_workspace_RZA2M_ANPR/ANPR_RZA2M_EBK/src/tensorflow_lite/tensorflow/lite/kernels/internal\types.h **** #endif  // TF_LITE_STATIC_MEMORY
 244:C:/Renesas/e2studio_2021_01_workspace_RZA2M_ANPR/ANPR_RZA2M_EBK/src/tensorflow_lite/tensorflow/lite/kernels/internal\types.h ****     }
 245:C:/Renesas/e2studio_2021_01_workspace_RZA2M_ANPR/ANPR_RZA2M_EBK/src/tensorflow_lite/tensorflow/lite/kernels/internal\types.h ****     size_ = dimensions_count;
 246:C:/Renesas/e2studio_2021_01_workspace_RZA2M_ANPR/ANPR_RZA2M_EBK/src/tensorflow_lite/tensorflow/lite/kernels/internal\types.h ****     if (dimensions_count > kMaxSmallSize) {
 247:C:/Renesas/e2studio_2021_01_workspace_RZA2M_ANPR/ANPR_RZA2M_EBK/src/tensorflow_lite/tensorflow/lite/kernels/internal\types.h **** #ifdef TF_LITE_STATIC_MEMORY
 248:C:/Renesas/e2studio_2021_01_workspace_RZA2M_ANPR/ANPR_RZA2M_EBK/src/tensorflow_lite/tensorflow/lite/kernels/internal\types.h ****       TFLITE_CHECK(false && "No shape resizing supported on this platform");
 249:C:/Renesas/e2studio_2021_01_workspace_RZA2M_ANPR/ANPR_RZA2M_EBK/src/tensorflow_lite/tensorflow/lite/kernels/internal\types.h **** #else  // TF_LITE_STATIC_MEMORY
 250:C:/Renesas/e2studio_2021_01_workspace_RZA2M_ANPR/ANPR_RZA2M_EBK/src/tensorflow_lite/tensorflow/lite/kernels/internal\types.h ****       dims_pointer_ = new int32_t[dimensions_count];
 251:C:/Renesas/e2studio_2021_01_workspace_RZA2M_ANPR/ANPR_RZA2M_EBK/src/tensorflow_lite/tensorflow/lite/kernels/internal\types.h **** #endif  // TF_LITE_STATIC_MEMORY
 252:C:/Renesas/e2studio_2021_01_workspace_RZA2M_ANPR/ANPR_RZA2M_EBK/src/tensorflow_lite/tensorflow/lite/kernels/internal\types.h ****     }
 253:C:/Renesas/e2studio_2021_01_workspace_RZA2M_ANPR/ANPR_RZA2M_EBK/src/tensorflow_lite/tensorflow/lite/kernels/internal\types.h ****   }
 254:C:/Renesas/e2studio_2021_01_workspace_RZA2M_ANPR/ANPR_RZA2M_EBK/src/tensorflow_lite/tensorflow/lite/kernels/internal\types.h **** 
 255:C:/Renesas/e2studio_2021_01_workspace_RZA2M_ANPR/ANPR_RZA2M_EBK/src/tensorflow_lite/tensorflow/lite/kernels/internal\types.h ****   inline void ReplaceWith(int dimensions_count, const int32_t* dims_data) {
 256:C:/Renesas/e2studio_2021_01_workspace_RZA2M_ANPR/ANPR_RZA2M_EBK/src/tensorflow_lite/tensorflow/lite/kernels/internal\types.h ****     Resize(dimensions_count);
 257:C:/Renesas/e2studio_2021_01_workspace_RZA2M_ANPR/ANPR_RZA2M_EBK/src/tensorflow_lite/tensorflow/lite/kernels/internal\types.h ****     int32_t* dst_dims = DimsData();
 258:C:/Renesas/e2studio_2021_01_workspace_RZA2M_ANPR/ANPR_RZA2M_EBK/src/tensorflow_lite/tensorflow/lite/kernels/internal\types.h ****     std::memcpy(dst_dims, dims_data, dimensions_count * sizeof(int32_t));
 259:C:/Renesas/e2studio_2021_01_workspace_RZA2M_ANPR/ANPR_RZA2M_EBK/src/tensorflow_lite/tensorflow/lite/kernels/internal\types.h ****   }
 260:C:/Renesas/e2studio_2021_01_workspace_RZA2M_ANPR/ANPR_RZA2M_EBK/src/tensorflow_lite/tensorflow/lite/kernels/internal\types.h **** 
 261:C:/Renesas/e2studio_2021_01_workspace_RZA2M_ANPR/ANPR_RZA2M_EBK/src/tensorflow_lite/tensorflow/lite/kernels/internal\types.h ****   template <typename T>
 262:C:/Renesas/e2studio_2021_01_workspace_RZA2M_ANPR/ANPR_RZA2M_EBK/src/tensorflow_lite/tensorflow/lite/kernels/internal\types.h ****   inline void BuildFrom(const T& src_iterable) {
 263:C:/Renesas/e2studio_2021_01_workspace_RZA2M_ANPR/ANPR_RZA2M_EBK/src/tensorflow_lite/tensorflow/lite/kernels/internal\types.h ****     const int dimensions_count =
 264:C:/Renesas/e2studio_2021_01_workspace_RZA2M_ANPR/ANPR_RZA2M_EBK/src/tensorflow_lite/tensorflow/lite/kernels/internal\types.h ****         std::distance(src_iterable.begin(), src_iterable.end());
 265:C:/Renesas/e2studio_2021_01_workspace_RZA2M_ANPR/ANPR_RZA2M_EBK/src/tensorflow_lite/tensorflow/lite/kernels/internal\types.h ****     Resize(dimensions_count);
 266:C:/Renesas/e2studio_2021_01_workspace_RZA2M_ANPR/ANPR_RZA2M_EBK/src/tensorflow_lite/tensorflow/lite/kernels/internal\types.h ****     int32_t* data = DimsData();
 267:C:/Renesas/e2studio_2021_01_workspace_RZA2M_ANPR/ANPR_RZA2M_EBK/src/tensorflow_lite/tensorflow/lite/kernels/internal\types.h ****     for (auto it : src_iterable) {
 268:C:/Renesas/e2studio_2021_01_workspace_RZA2M_ANPR/ANPR_RZA2M_EBK/src/tensorflow_lite/tensorflow/lite/kernels/internal\types.h ****       *data = it;
 269:C:/Renesas/e2studio_2021_01_workspace_RZA2M_ANPR/ANPR_RZA2M_EBK/src/tensorflow_lite/tensorflow/lite/kernels/internal\types.h ****       ++data;
 270:C:/Renesas/e2studio_2021_01_workspace_RZA2M_ANPR/ANPR_RZA2M_EBK/src/tensorflow_lite/tensorflow/lite/kernels/internal\types.h ****     }
 271:C:/Renesas/e2studio_2021_01_workspace_RZA2M_ANPR/ANPR_RZA2M_EBK/src/tensorflow_lite/tensorflow/lite/kernels/internal\types.h ****   }
 272:C:/Renesas/e2studio_2021_01_workspace_RZA2M_ANPR/ANPR_RZA2M_EBK/src/tensorflow_lite/tensorflow/lite/kernels/internal\types.h **** 
 273:C:/Renesas/e2studio_2021_01_workspace_RZA2M_ANPR/ANPR_RZA2M_EBK/src/tensorflow_lite/tensorflow/lite/kernels/internal\types.h ****   // This will probably be factored out. Old code made substantial use of 4-D
 274:C:/Renesas/e2studio_2021_01_workspace_RZA2M_ANPR/ANPR_RZA2M_EBK/src/tensorflow_lite/tensorflow/lite/kernels/internal\types.h ****   // shapes, and so this function is used to extend smaller shapes. Note that
 275:C:/Renesas/e2studio_2021_01_workspace_RZA2M_ANPR/ANPR_RZA2M_EBK/src/tensorflow_lite/tensorflow/lite/kernels/internal\types.h ****   // (a) as Dims<4>-dependent code is eliminated, the reliance on this should be
 276:C:/Renesas/e2studio_2021_01_workspace_RZA2M_ANPR/ANPR_RZA2M_EBK/src/tensorflow_lite/tensorflow/lite/kernels/internal\types.h ****   // reduced, and (b) some kernels are stricly 4-D, but then the shapes of their
 277:C:/Renesas/e2studio_2021_01_workspace_RZA2M_ANPR/ANPR_RZA2M_EBK/src/tensorflow_lite/tensorflow/lite/kernels/internal\types.h ****   // inputs should already be 4-D, so this function should not be needed.
 278:C:/Renesas/e2studio_2021_01_workspace_RZA2M_ANPR/ANPR_RZA2M_EBK/src/tensorflow_lite/tensorflow/lite/kernels/internal\types.h ****   inline static RuntimeShape ExtendedShape(int new_shape_size,
 279:C:/Renesas/e2studio_2021_01_workspace_RZA2M_ANPR/ANPR_RZA2M_EBK/src/tensorflow_lite/tensorflow/lite/kernels/internal\types.h ****                                            const RuntimeShape& shape) {
 280:C:/Renesas/e2studio_2021_01_workspace_RZA2M_ANPR/ANPR_RZA2M_EBK/src/tensorflow_lite/tensorflow/lite/kernels/internal\types.h ****     return RuntimeShape(new_shape_size, shape, 1);
 281:C:/Renesas/e2studio_2021_01_workspace_RZA2M_ANPR/ANPR_RZA2M_EBK/src/tensorflow_lite/tensorflow/lite/kernels/internal\types.h ****   }
 282:C:/Renesas/e2studio_2021_01_workspace_RZA2M_ANPR/ANPR_RZA2M_EBK/src/tensorflow_lite/tensorflow/lite/kernels/internal\types.h **** 
 283:C:/Renesas/e2studio_2021_01_workspace_RZA2M_ANPR/ANPR_RZA2M_EBK/src/tensorflow_lite/tensorflow/lite/kernels/internal\types.h ****   inline void BuildFrom(const std::initializer_list<int> init_list) {
 284:C:/Renesas/e2studio_2021_01_workspace_RZA2M_ANPR/ANPR_RZA2M_EBK/src/tensorflow_lite/tensorflow/lite/kernels/internal\types.h ****     BuildFrom<const std::initializer_list<int>>(init_list);
 285:C:/Renesas/e2studio_2021_01_workspace_RZA2M_ANPR/ANPR_RZA2M_EBK/src/tensorflow_lite/tensorflow/lite/kernels/internal\types.h ****   }
 286:C:/Renesas/e2studio_2021_01_workspace_RZA2M_ANPR/ANPR_RZA2M_EBK/src/tensorflow_lite/tensorflow/lite/kernels/internal\types.h **** 
 287:C:/Renesas/e2studio_2021_01_workspace_RZA2M_ANPR/ANPR_RZA2M_EBK/src/tensorflow_lite/tensorflow/lite/kernels/internal\types.h ****   // Returns the total count of elements, that is the size when flattened into a
 288:C:/Renesas/e2studio_2021_01_workspace_RZA2M_ANPR/ANPR_RZA2M_EBK/src/tensorflow_lite/tensorflow/lite/kernels/internal\types.h ****   // vector.
 289:C:/Renesas/e2studio_2021_01_workspace_RZA2M_ANPR/ANPR_RZA2M_EBK/src/tensorflow_lite/tensorflow/lite/kernels/internal\types.h ****   inline int FlatSize() const {
 290:C:/Renesas/e2studio_2021_01_workspace_RZA2M_ANPR/ANPR_RZA2M_EBK/src/tensorflow_lite/tensorflow/lite/kernels/internal\types.h ****     int buffer_size = 1;
 291:C:/Renesas/e2studio_2021_01_workspace_RZA2M_ANPR/ANPR_RZA2M_EBK/src/tensorflow_lite/tensorflow/lite/kernels/internal\types.h ****     const int* dims_data = reinterpret_cast<const int*>(DimsData());
 292:C:/Renesas/e2studio_2021_01_workspace_RZA2M_ANPR/ANPR_RZA2M_EBK/src/tensorflow_lite/tensorflow/lite/kernels/internal\types.h ****     for (int i = 0; i < size_; i++) {
 293:C:/Renesas/e2studio_2021_01_workspace_RZA2M_ANPR/ANPR_RZA2M_EBK/src/tensorflow_lite/tensorflow/lite/kernels/internal\types.h ****       buffer_size *= dims_data[i];
 294:C:/Renesas/e2studio_2021_01_workspace_RZA2M_ANPR/ANPR_RZA2M_EBK/src/tensorflow_lite/tensorflow/lite/kernels/internal\types.h ****     }
 295:C:/Renesas/e2studio_2021_01_workspace_RZA2M_ANPR/ANPR_RZA2M_EBK/src/tensorflow_lite/tensorflow/lite/kernels/internal\types.h ****     return buffer_size;
 296:C:/Renesas/e2studio_2021_01_workspace_RZA2M_ANPR/ANPR_RZA2M_EBK/src/tensorflow_lite/tensorflow/lite/kernels/internal\types.h ****   }
 297:C:/Renesas/e2studio_2021_01_workspace_RZA2M_ANPR/ANPR_RZA2M_EBK/src/tensorflow_lite/tensorflow/lite/kernels/internal\types.h **** 
 298:C:/Renesas/e2studio_2021_01_workspace_RZA2M_ANPR/ANPR_RZA2M_EBK/src/tensorflow_lite/tensorflow/lite/kernels/internal\types.h ****   bool operator!=(const RuntimeShape& comp) const { return !((*this) == comp); }
 299:C:/Renesas/e2studio_2021_01_workspace_RZA2M_ANPR/ANPR_RZA2M_EBK/src/tensorflow_lite/tensorflow/lite/kernels/internal\types.h **** 
 300:C:/Renesas/e2studio_2021_01_workspace_RZA2M_ANPR/ANPR_RZA2M_EBK/src/tensorflow_lite/tensorflow/lite/kernels/internal\types.h ****  private:
 301:C:/Renesas/e2studio_2021_01_workspace_RZA2M_ANPR/ANPR_RZA2M_EBK/src/tensorflow_lite/tensorflow/lite/kernels/internal\types.h ****   // For use only by ExtendedShape(), written to guarantee (return-value) copy
 302:C:/Renesas/e2studio_2021_01_workspace_RZA2M_ANPR/ANPR_RZA2M_EBK/src/tensorflow_lite/tensorflow/lite/kernels/internal\types.h ****   // elision in C++17.
 303:C:/Renesas/e2studio_2021_01_workspace_RZA2M_ANPR/ANPR_RZA2M_EBK/src/tensorflow_lite/tensorflow/lite/kernels/internal\types.h ****   // This creates a shape padded to the desired size with the specified value.
 304:C:/Renesas/e2studio_2021_01_workspace_RZA2M_ANPR/ANPR_RZA2M_EBK/src/tensorflow_lite/tensorflow/lite/kernels/internal\types.h ****   RuntimeShape(int new_shape_size, const RuntimeShape& shape, int pad_value)
 305:C:/Renesas/e2studio_2021_01_workspace_RZA2M_ANPR/ANPR_RZA2M_EBK/src/tensorflow_lite/tensorflow/lite/kernels/internal\types.h ****       : size_(0) {
 306:C:/Renesas/e2studio_2021_01_workspace_RZA2M_ANPR/ANPR_RZA2M_EBK/src/tensorflow_lite/tensorflow/lite/kernels/internal\types.h ****     // If the following check fails, it is likely because a 4D-only kernel is
 307:C:/Renesas/e2studio_2021_01_workspace_RZA2M_ANPR/ANPR_RZA2M_EBK/src/tensorflow_lite/tensorflow/lite/kernels/internal\types.h ****     // being used with an array of larger dimension count.
 308:C:/Renesas/e2studio_2021_01_workspace_RZA2M_ANPR/ANPR_RZA2M_EBK/src/tensorflow_lite/tensorflow/lite/kernels/internal\types.h ****     TFLITE_CHECK_GE(new_shape_size, shape.DimensionsCount());
 309:C:/Renesas/e2studio_2021_01_workspace_RZA2M_ANPR/ANPR_RZA2M_EBK/src/tensorflow_lite/tensorflow/lite/kernels/internal\types.h ****     Resize(new_shape_size);
 310:C:/Renesas/e2studio_2021_01_workspace_RZA2M_ANPR/ANPR_RZA2M_EBK/src/tensorflow_lite/tensorflow/lite/kernels/internal\types.h ****     const int size_increase = new_shape_size - shape.DimensionsCount();
 311:C:/Renesas/e2studio_2021_01_workspace_RZA2M_ANPR/ANPR_RZA2M_EBK/src/tensorflow_lite/tensorflow/lite/kernels/internal\types.h ****     for (int i = 0; i < size_increase; ++i) {
 518              		.loc 3 311 0
 519 010c 040072E2 		rsbs	r0, r2, #4
 520              	.LBE783:
 521              	.LBB794:
 522              	.LBB795:
 245:C:/Renesas/e2studio_2021_01_workspace_RZA2M_ANPR/ANPR_RZA2M_EBK/src/tensorflow_lite/tensorflow/lite/kernels/internal\types.h ****     if (dimensions_count > kMaxSmallSize) {
 523              		.loc 3 245 0
 524 0110 0430A0E3 		mov	r3, #4
 525 0114 D8308DE5 		str	r3, [sp, #216]
 526              	.LVL58:
 527              	.LBE795:
 528              	.LBE794:
 529              	.LBB796:
 530              		.loc 3 311 0
 531 0118 0D00000A 		beq	.L36
 532              	.LVL59:
 533 011c 010050E3 		cmp	r0, #1
 534              	.LBB784:
 535              	.LBB785:
 224:C:/Renesas/e2studio_2021_01_workspace_RZA2M_ANPR/ANPR_RZA2M_EBK/src/tensorflow_lite/tensorflow/lite/kernels/internal\types.h ****     }
 536              		.loc 3 224 0
 537 0120 0130A0E3 		mov	r3, #1
 538 0124 DC308DE5 		str	r3, [sp, #220]
 539              	.LVL60:
 540              	.LBE785:
 541              	.LBE784:
 542              		.loc 3 311 0
 543 0128 0900000A 		beq	.L36
 544              	.LVL61:
 545 012c 020050E3 		cmp	r0, #2
 546              	.LBB790:
 547              	.LBB786:
 224:C:/Renesas/e2studio_2021_01_workspace_RZA2M_ANPR/ANPR_RZA2M_EBK/src/tensorflow_lite/tensorflow/lite/kernels/internal\types.h ****     }
 548              		.loc 3 224 0
 549 0130 E0308DE5 		str	r3, [sp, #224]
 550              	.LVL62:
 551              	.LBE786:
 552              	.LBE790:
 553              		.loc 3 311 0
 554 0134 0600000A 		beq	.L36
 555              	.LVL63:
 556 0138 030050E3 		cmp	r0, #3
 557              	.LBB791:
 558              	.LBB787:
 224:C:/Renesas/e2studio_2021_01_workspace_RZA2M_ANPR/ANPR_RZA2M_EBK/src/tensorflow_lite/tensorflow/lite/kernels/internal\types.h ****     }
 559              		.loc 3 224 0
 560 013c E4308DE5 		str	r3, [sp, #228]
 561              	.LVL64:
 562              	.LBE787:
 563              	.LBE791:
 564              		.loc 3 311 0
 565 0140 0300000A 		beq	.L36
 566              	.LVL65:
 567 0144 040050E3 		cmp	r0, #4
 568              	.LBB792:
 569              	.LBB788:
 224:C:/Renesas/e2studio_2021_01_workspace_RZA2M_ANPR/ANPR_RZA2M_EBK/src/tensorflow_lite/tensorflow/lite/kernels/internal\types.h ****     }
 570              		.loc 3 224 0
 571 0148 E8308DE5 		str	r3, [sp, #232]
 572              	.LVL66:
 573              	.LBE788:
 574              	.LBE792:
 575              		.loc 3 311 0
 576 014c 0000000A 		beq	.L36
 577              	.LVL67:
 578              	.LEHB3:
 579              	.LBB793:
 580              	.LBB789:
 220:C:/Renesas/e2studio_2021_01_workspace_RZA2M_ANPR/ANPR_RZA2M_EBK/src/tensorflow_lite/tensorflow/lite/kernels/internal\types.h ****     if (size_ > kMaxSmallSize) {
 581              		.loc 3 220 0
 582 0150 FEFFFFEB 		bl	abort
 583              	.LVL68:
 584              	.LEHE3:
 585              	.L36:
 586              	.LBE789:
 587              	.LBE793:
 588              	.LBE796:
 312:C:/Renesas/e2studio_2021_01_workspace_RZA2M_ANPR/ANPR_RZA2M_EBK/src/tensorflow_lite/tensorflow/lite/kernels/internal\types.h ****       SetDim(i, pad_value);
 313:C:/Renesas/e2studio_2021_01_workspace_RZA2M_ANPR/ANPR_RZA2M_EBK/src/tensorflow_lite/tensorflow/lite/kernels/internal\types.h ****     }
 314:C:/Renesas/e2studio_2021_01_workspace_RZA2M_ANPR/ANPR_RZA2M_EBK/src/tensorflow_lite/tensorflow/lite/kernels/internal\types.h ****     std::memcpy(DimsData() + size_increase, shape.DimsData(),
 315:C:/Renesas/e2studio_2021_01_workspace_RZA2M_ANPR/ANPR_RZA2M_EBK/src/tensorflow_lite/tensorflow/lite/kernels/internal\types.h ****                 sizeof(int32_t) * shape.DimensionsCount());
 589              		.loc 3 315 0
 590 0154 DC308DE2 		add	r3, sp, #220
 591 0158 0221A0E1 		lsl	r2, r2, #2
 592 015c 000183E0 		add	r0, r3, r0, lsl #2
 593              	.LVL69:
 594 0160 C4108DE2 		add	r1, sp, #196
 595 0164 FEFFFFEB 		bl	memcpy
 596              	.LVL70:
 597              	.LBE782:
 598              	.LBE781:
 599              	.LBE780:
 600              	.LBE779:
 601              	.LBB797:
 602              	.LBB798:
 603              	.LBB799:
 604              	.LBB800:
 605              	.LBB801:
 606              	.LBB802:
 607              	.LBB803:
 311:C:/Renesas/e2studio_2021_01_workspace_RZA2M_ANPR/ANPR_RZA2M_EBK/src/tensorflow_lite/tensorflow/lite/kernels/internal\types.h ****       SetDim(i, pad_value);
 608              		.loc 3 311 0
 609 0168 040077E2 		rsbs	r0, r7, #4
 610              	.LBE803:
 611              	.LBB814:
 612              	.LBB815:
 245:C:/Renesas/e2studio_2021_01_workspace_RZA2M_ANPR/ANPR_RZA2M_EBK/src/tensorflow_lite/tensorflow/lite/kernels/internal\types.h ****     if (dimensions_count > kMaxSmallSize) {
 613              		.loc 3 245 0
 614 016c 0430A0E3 		mov	r3, #4
 615 0170 F0308DE5 		str	r3, [sp, #240]
 616              	.LVL71:
 617              	.LBE815:
 618              	.LBE814:
 619              	.LBB816:
 311:C:/Renesas/e2studio_2021_01_workspace_RZA2M_ANPR/ANPR_RZA2M_EBK/src/tensorflow_lite/tensorflow/lite/kernels/internal\types.h ****       SetDim(i, pad_value);
 620              		.loc 3 311 0
 621 0174 0D00000A 		beq	.L34
 622              	.LVL72:
 623 0178 010050E3 		cmp	r0, #1
 624              	.LBB804:
 625              	.LBB805:
 224:C:/Renesas/e2studio_2021_01_workspace_RZA2M_ANPR/ANPR_RZA2M_EBK/src/tensorflow_lite/tensorflow/lite/kernels/internal\types.h ****     }
 626              		.loc 3 224 0
 627 017c 0130A0E3 		mov	r3, #1
 628 0180 F4308DE5 		str	r3, [sp, #244]
 629              	.LVL73:
 630              	.LBE805:
 631              	.LBE804:
 311:C:/Renesas/e2studio_2021_01_workspace_RZA2M_ANPR/ANPR_RZA2M_EBK/src/tensorflow_lite/tensorflow/lite/kernels/internal\types.h ****       SetDim(i, pad_value);
 632              		.loc 3 311 0
 633 0184 0900000A 		beq	.L34
 634              	.LVL74:
 635 0188 020050E3 		cmp	r0, #2
 636              	.LBB810:
 637              	.LBB806:
 224:C:/Renesas/e2studio_2021_01_workspace_RZA2M_ANPR/ANPR_RZA2M_EBK/src/tensorflow_lite/tensorflow/lite/kernels/internal\types.h ****     }
 638              		.loc 3 224 0
 639 018c F8308DE5 		str	r3, [sp, #248]
 640              	.LVL75:
 641              	.LBE806:
 642              	.LBE810:
 311:C:/Renesas/e2studio_2021_01_workspace_RZA2M_ANPR/ANPR_RZA2M_EBK/src/tensorflow_lite/tensorflow/lite/kernels/internal\types.h ****       SetDim(i, pad_value);
 643              		.loc 3 311 0
 644 0190 0600000A 		beq	.L34
 645              	.LVL76:
 646 0194 030050E3 		cmp	r0, #3
 647              	.LBB811:
 648              	.LBB807:
 224:C:/Renesas/e2studio_2021_01_workspace_RZA2M_ANPR/ANPR_RZA2M_EBK/src/tensorflow_lite/tensorflow/lite/kernels/internal\types.h ****     }
 649              		.loc 3 224 0
 650 0198 FC308DE5 		str	r3, [sp, #252]
 651              	.LVL77:
 652              	.LBE807:
 653              	.LBE811:
 311:C:/Renesas/e2studio_2021_01_workspace_RZA2M_ANPR/ANPR_RZA2M_EBK/src/tensorflow_lite/tensorflow/lite/kernels/internal\types.h ****       SetDim(i, pad_value);
 654              		.loc 3 311 0
 655 019c 0300000A 		beq	.L34
 656              	.LVL78:
 657 01a0 040050E3 		cmp	r0, #4
 658              	.LBB812:
 659              	.LBB808:
 224:C:/Renesas/e2studio_2021_01_workspace_RZA2M_ANPR/ANPR_RZA2M_EBK/src/tensorflow_lite/tensorflow/lite/kernels/internal\types.h ****     }
 660              		.loc 3 224 0
 661 01a4 00318DE5 		str	r3, [sp, #256]
 662              	.LVL79:
 663              	.LBE808:
 664              	.LBE812:
 311:C:/Renesas/e2studio_2021_01_workspace_RZA2M_ANPR/ANPR_RZA2M_EBK/src/tensorflow_lite/tensorflow/lite/kernels/internal\types.h ****       SetDim(i, pad_value);
 665              		.loc 3 311 0
 666 01a8 0000000A 		beq	.L34
 667              	.LVL80:
 668              	.LEHB4:
 669              	.LBB813:
 670              	.LBB809:
 220:C:/Renesas/e2studio_2021_01_workspace_RZA2M_ANPR/ANPR_RZA2M_EBK/src/tensorflow_lite/tensorflow/lite/kernels/internal\types.h ****     if (size_ > kMaxSmallSize) {
 671              		.loc 3 220 0
 672 01ac FEFFFFEB 		bl	abort
 673              	.LVL81:
 674              	.LEHE4:
 675              	.L34:
 676              	.LBE809:
 677              	.LBE813:
 678              	.LBE816:
 679              		.loc 3 315 0
 680 01b0 F4308DE2 		add	r3, sp, #244
 681 01b4 0721A0E1 		lsl	r2, r7, #2
 682 01b8 000183E0 		add	r0, r3, r0, lsl #2
 683              	.LVL82:
 684 01bc 94108DE2 		add	r1, sp, #148
 685 01c0 FEFFFFEB 		bl	memcpy
 686              	.LVL83:
 687              	.LBE802:
 688              	.LBE801:
 689              	.LBE800:
 690              	.LBE799:
 691              	.LBB817:
 692              	.LBB818:
 693              	.LBB819:
 694              	.LBB820:
 695              	.LBB821:
 311:C:/Renesas/e2studio_2021_01_workspace_RZA2M_ANPR/ANPR_RZA2M_EBK/src/tensorflow_lite/tensorflow/lite/kernels/internal\types.h ****       SetDim(i, pad_value);
 696              		.loc 3 311 0
 697 01c4 040075E2 		rsbs	r0, r5, #4
 698              	.LBE821:
 699              	.LBB832:
 700              	.LBB833:
 245:C:/Renesas/e2studio_2021_01_workspace_RZA2M_ANPR/ANPR_RZA2M_EBK/src/tensorflow_lite/tensorflow/lite/kernels/internal\types.h ****     if (dimensions_count > kMaxSmallSize) {
 701              		.loc 3 245 0
 702 01c8 0430A0E3 		mov	r3, #4
 703 01cc 08318DE5 		str	r3, [sp, #264]
 704              	.LVL84:
 705              	.LBE833:
 706              	.LBE832:
 707              	.LBB834:
 311:C:/Renesas/e2studio_2021_01_workspace_RZA2M_ANPR/ANPR_RZA2M_EBK/src/tensorflow_lite/tensorflow/lite/kernels/internal\types.h ****       SetDim(i, pad_value);
 708              		.loc 3 311 0
 709 01d0 0D00000A 		beq	.L38
 710              	.LVL85:
 711 01d4 010050E3 		cmp	r0, #1
 712              	.LBB822:
 713              	.LBB823:
 224:C:/Renesas/e2studio_2021_01_workspace_RZA2M_ANPR/ANPR_RZA2M_EBK/src/tensorflow_lite/tensorflow/lite/kernels/internal\types.h ****     }
 714              		.loc 3 224 0
 715 01d8 0130A0E3 		mov	r3, #1
 716 01dc 0C318DE5 		str	r3, [sp, #268]
 717              	.LVL86:
 718              	.LBE823:
 719              	.LBE822:
 311:C:/Renesas/e2studio_2021_01_workspace_RZA2M_ANPR/ANPR_RZA2M_EBK/src/tensorflow_lite/tensorflow/lite/kernels/internal\types.h ****       SetDim(i, pad_value);
 720              		.loc 3 311 0
 721 01e0 0900000A 		beq	.L38
 722              	.LVL87:
 723 01e4 020050E3 		cmp	r0, #2
 724              	.LBB828:
 725              	.LBB824:
 224:C:/Renesas/e2studio_2021_01_workspace_RZA2M_ANPR/ANPR_RZA2M_EBK/src/tensorflow_lite/tensorflow/lite/kernels/internal\types.h ****     }
 726              		.loc 3 224 0
 727 01e8 10318DE5 		str	r3, [sp, #272]
 728              	.LVL88:
 729              	.LBE824:
 730              	.LBE828:
 311:C:/Renesas/e2studio_2021_01_workspace_RZA2M_ANPR/ANPR_RZA2M_EBK/src/tensorflow_lite/tensorflow/lite/kernels/internal\types.h ****       SetDim(i, pad_value);
 731              		.loc 3 311 0
 732 01ec 0600000A 		beq	.L38
 733              	.LVL89:
 734 01f0 030050E3 		cmp	r0, #3
 735              	.LBB829:
 736              	.LBB825:
 224:C:/Renesas/e2studio_2021_01_workspace_RZA2M_ANPR/ANPR_RZA2M_EBK/src/tensorflow_lite/tensorflow/lite/kernels/internal\types.h ****     }
 737              		.loc 3 224 0
 738 01f4 14318DE5 		str	r3, [sp, #276]
 739              	.LVL90:
 740              	.LBE825:
 741              	.LBE829:
 311:C:/Renesas/e2studio_2021_01_workspace_RZA2M_ANPR/ANPR_RZA2M_EBK/src/tensorflow_lite/tensorflow/lite/kernels/internal\types.h ****       SetDim(i, pad_value);
 742              		.loc 3 311 0
 743 01f8 0300000A 		beq	.L38
 744              	.LVL91:
 745 01fc 040050E3 		cmp	r0, #4
 746              	.LBB830:
 747              	.LBB826:
 224:C:/Renesas/e2studio_2021_01_workspace_RZA2M_ANPR/ANPR_RZA2M_EBK/src/tensorflow_lite/tensorflow/lite/kernels/internal\types.h ****     }
 748              		.loc 3 224 0
 749 0200 18318DE5 		str	r3, [sp, #280]
 750              	.LVL92:
 751              	.LBE826:
 752              	.LBE830:
 311:C:/Renesas/e2studio_2021_01_workspace_RZA2M_ANPR/ANPR_RZA2M_EBK/src/tensorflow_lite/tensorflow/lite/kernels/internal\types.h ****       SetDim(i, pad_value);
 753              		.loc 3 311 0
 754 0204 0000000A 		beq	.L38
 755              	.LVL93:
 756              	.LEHB5:
 757              	.LBB831:
 758              	.LBB827:
 220:C:/Renesas/e2studio_2021_01_workspace_RZA2M_ANPR/ANPR_RZA2M_EBK/src/tensorflow_lite/tensorflow/lite/kernels/internal\types.h ****     if (size_ > kMaxSmallSize) {
 759              		.loc 3 220 0
 760 0208 FEFFFFEB 		bl	abort
 761              	.LVL94:
 762              	.LEHE5:
 763              	.L38:
 764              	.LBE827:
 765              	.LBE831:
 766              	.LBE834:
 767              		.loc 3 315 0
 768 020c 433F8DE2 		add	r3, sp, #268
 769 0210 0521A0E1 		lsl	r2, r5, #2
 770 0214 000183E0 		add	r0, r3, r0, lsl #2
 771              	.LVL95:
 772 0218 AC108DE2 		add	r1, sp, #172
 773 021c FEFFFFEB 		bl	memcpy
 774              	.LVL96:
 775 0220 F0509DE5 		ldr	r5, [sp, #240]
 776              	.LBE820:
 777              	.LBE819:
 778              	.LBE818:
 779              	.LBE817:
 780              	.LBB835:
 781              	.LBB836:
 782              	.LBB837:
 783              	.LBB838:
 784              	.LBB839:
 216:C:/Renesas/e2studio_2021_01_workspace_RZA2M_ANPR/ANPR_RZA2M_EBK/src/tensorflow_lite/tensorflow/lite/kernels/internal\types.h ****   }
 785              		.loc 3 216 0
 786 0224 F4309DE5 		ldr	r3, [sp, #244]
 787 0228 050055E3 		cmp	r5, #5
 788 022c D30100CA 		bgt	.L921
 789              	.LVL97:
 215:C:/Renesas/e2studio_2021_01_workspace_RZA2M_ANPR/ANPR_RZA2M_EBK/src/tensorflow_lite/tensorflow/lite/kernels/internal\types.h ****     return size_ > kMaxSmallSize ? dims_pointer_[i] : dims_[i];
 790              		.loc 3 215 0
 791 0230 030055E3 		cmp	r5, #3
 792 0234 7A0800DA 		ble	.L48
 216:C:/Renesas/e2studio_2021_01_workspace_RZA2M_ANPR/ANPR_RZA2M_EBK/src/tensorflow_lite/tensorflow/lite/kernels/internal\types.h ****   }
 793              		.loc 3 216 0
 794 0238 00119DE5 		ldr	r1, [sp, #256]
 795              	.LVL98:
 796 023c 01E0A0E3 		mov	lr, #1
 797 0240 FCC09DE5 		ldr	ip, [sp, #252]
 798 0244 F8209DE5 		ldr	r2, [sp, #248]
 799 0248 20318DE5 		str	r3, [sp, #288]
 800 024c 2C118DE5 		str	r1, [sp, #300]
 801              	.LVL99:
 802              	.LBE839:
 803              	.LBE838:
 804              		.file 4 "C:/Renesas/e2studio_2021_01_workspace_RZA2M_ANPR/ANPR_RZA2M_EBK/src/tensorflow_lite/tenso
   1:C:/Renesas/e2studio_2021_01_workspace_RZA2M_ANPR/ANPR_RZA2M_EBK/src/tensorflow_lite/tensorflow/lite/kernels/internal\common.h **** /* Copyright 2017 The TensorFlow Authors. All Rights Reserved.
   2:C:/Renesas/e2studio_2021_01_workspace_RZA2M_ANPR/ANPR_RZA2M_EBK/src/tensorflow_lite/tensorflow/lite/kernels/internal\common.h **** 
   3:C:/Renesas/e2studio_2021_01_workspace_RZA2M_ANPR/ANPR_RZA2M_EBK/src/tensorflow_lite/tensorflow/lite/kernels/internal\common.h **** Licensed under the Apache License, Version 2.0 (the "License");
   4:C:/Renesas/e2studio_2021_01_workspace_RZA2M_ANPR/ANPR_RZA2M_EBK/src/tensorflow_lite/tensorflow/lite/kernels/internal\common.h **** you may not use this file except in compliance with the License.
   5:C:/Renesas/e2studio_2021_01_workspace_RZA2M_ANPR/ANPR_RZA2M_EBK/src/tensorflow_lite/tensorflow/lite/kernels/internal\common.h **** You may obtain a copy of the License at
   6:C:/Renesas/e2studio_2021_01_workspace_RZA2M_ANPR/ANPR_RZA2M_EBK/src/tensorflow_lite/tensorflow/lite/kernels/internal\common.h **** 
   7:C:/Renesas/e2studio_2021_01_workspace_RZA2M_ANPR/ANPR_RZA2M_EBK/src/tensorflow_lite/tensorflow/lite/kernels/internal\common.h ****     http://www.apache.org/licenses/LICENSE-2.0
   8:C:/Renesas/e2studio_2021_01_workspace_RZA2M_ANPR/ANPR_RZA2M_EBK/src/tensorflow_lite/tensorflow/lite/kernels/internal\common.h **** 
   9:C:/Renesas/e2studio_2021_01_workspace_RZA2M_ANPR/ANPR_RZA2M_EBK/src/tensorflow_lite/tensorflow/lite/kernels/internal\common.h **** Unless required by applicable law or agreed to in writing, software
  10:C:/Renesas/e2studio_2021_01_workspace_RZA2M_ANPR/ANPR_RZA2M_EBK/src/tensorflow_lite/tensorflow/lite/kernels/internal\common.h **** distributed under the License is distributed on an "AS IS" BASIS,
  11:C:/Renesas/e2studio_2021_01_workspace_RZA2M_ANPR/ANPR_RZA2M_EBK/src/tensorflow_lite/tensorflow/lite/kernels/internal\common.h **** WITHOUT WARRANTIES OR CONDITIONS OF ANY KIND, either express or implied.
  12:C:/Renesas/e2studio_2021_01_workspace_RZA2M_ANPR/ANPR_RZA2M_EBK/src/tensorflow_lite/tensorflow/lite/kernels/internal\common.h **** See the License for the specific language governing permissions and
  13:C:/Renesas/e2studio_2021_01_workspace_RZA2M_ANPR/ANPR_RZA2M_EBK/src/tensorflow_lite/tensorflow/lite/kernels/internal\common.h **** limitations under the License.
  14:C:/Renesas/e2studio_2021_01_workspace_RZA2M_ANPR/ANPR_RZA2M_EBK/src/tensorflow_lite/tensorflow/lite/kernels/internal\common.h **** ==============================================================================*/
  15:C:/Renesas/e2studio_2021_01_workspace_RZA2M_ANPR/ANPR_RZA2M_EBK/src/tensorflow_lite/tensorflow/lite/kernels/internal\common.h **** #ifndef TENSORFLOW_LITE_KERNELS_INTERNAL_COMMON_H_
  16:C:/Renesas/e2studio_2021_01_workspace_RZA2M_ANPR/ANPR_RZA2M_EBK/src/tensorflow_lite/tensorflow/lite/kernels/internal\common.h **** #define TENSORFLOW_LITE_KERNELS_INTERNAL_COMMON_H_
  17:C:/Renesas/e2studio_2021_01_workspace_RZA2M_ANPR/ANPR_RZA2M_EBK/src/tensorflow_lite/tensorflow/lite/kernels/internal\common.h **** 
  18:C:/Renesas/e2studio_2021_01_workspace_RZA2M_ANPR/ANPR_RZA2M_EBK/src/tensorflow_lite/tensorflow/lite/kernels/internal\common.h **** #ifndef ALLOW_SLOW_GENERIC_DEPTHWISECONV_FALLBACK
  19:C:/Renesas/e2studio_2021_01_workspace_RZA2M_ANPR/ANPR_RZA2M_EBK/src/tensorflow_lite/tensorflow/lite/kernels/internal\common.h **** #ifdef GEMMLOWP_ALLOW_SLOW_SCALAR_FALLBACK
  20:C:/Renesas/e2studio_2021_01_workspace_RZA2M_ANPR/ANPR_RZA2M_EBK/src/tensorflow_lite/tensorflow/lite/kernels/internal\common.h **** #define ALLOW_SLOW_GENERIC_DEPTHWISECONV_FALLBACK
  21:C:/Renesas/e2studio_2021_01_workspace_RZA2M_ANPR/ANPR_RZA2M_EBK/src/tensorflow_lite/tensorflow/lite/kernels/internal\common.h **** #endif
  22:C:/Renesas/e2studio_2021_01_workspace_RZA2M_ANPR/ANPR_RZA2M_EBK/src/tensorflow_lite/tensorflow/lite/kernels/internal\common.h **** #endif
  23:C:/Renesas/e2studio_2021_01_workspace_RZA2M_ANPR/ANPR_RZA2M_EBK/src/tensorflow_lite/tensorflow/lite/kernels/internal\common.h **** 
  24:C:/Renesas/e2studio_2021_01_workspace_RZA2M_ANPR/ANPR_RZA2M_EBK/src/tensorflow_lite/tensorflow/lite/kernels/internal\common.h **** #include <functional>
  25:C:/Renesas/e2studio_2021_01_workspace_RZA2M_ANPR/ANPR_RZA2M_EBK/src/tensorflow_lite/tensorflow/lite/kernels/internal\common.h **** 
  26:C:/Renesas/e2studio_2021_01_workspace_RZA2M_ANPR/ANPR_RZA2M_EBK/src/tensorflow_lite/tensorflow/lite/kernels/internal\common.h **** #include "fixedpoint/fixedpoint.h"
  27:C:/Renesas/e2studio_2021_01_workspace_RZA2M_ANPR/ANPR_RZA2M_EBK/src/tensorflow_lite/tensorflow/lite/kernels/internal\common.h **** #include "tensorflow/lite/kernels/internal/cppmath.h"
  28:C:/Renesas/e2studio_2021_01_workspace_RZA2M_ANPR/ANPR_RZA2M_EBK/src/tensorflow_lite/tensorflow/lite/kernels/internal\common.h **** #include "tensorflow/lite/kernels/internal/optimized/neon_check.h"
  29:C:/Renesas/e2studio_2021_01_workspace_RZA2M_ANPR/ANPR_RZA2M_EBK/src/tensorflow_lite/tensorflow/lite/kernels/internal\common.h **** #include "tensorflow/lite/kernels/internal/types.h"
  30:C:/Renesas/e2studio_2021_01_workspace_RZA2M_ANPR/ANPR_RZA2M_EBK/src/tensorflow_lite/tensorflow/lite/kernels/internal\common.h **** 
  31:C:/Renesas/e2studio_2021_01_workspace_RZA2M_ANPR/ANPR_RZA2M_EBK/src/tensorflow_lite/tensorflow/lite/kernels/internal\common.h **** namespace tflite {
  32:C:/Renesas/e2studio_2021_01_workspace_RZA2M_ANPR/ANPR_RZA2M_EBK/src/tensorflow_lite/tensorflow/lite/kernels/internal\common.h **** 
  33:C:/Renesas/e2studio_2021_01_workspace_RZA2M_ANPR/ANPR_RZA2M_EBK/src/tensorflow_lite/tensorflow/lite/kernels/internal\common.h **** constexpr int kReverseShift = -1;
  34:C:/Renesas/e2studio_2021_01_workspace_RZA2M_ANPR/ANPR_RZA2M_EBK/src/tensorflow_lite/tensorflow/lite/kernels/internal\common.h **** 
  35:C:/Renesas/e2studio_2021_01_workspace_RZA2M_ANPR/ANPR_RZA2M_EBK/src/tensorflow_lite/tensorflow/lite/kernels/internal\common.h **** inline void GetActivationMinMax(FusedActivationFunctionType ac,
  36:C:/Renesas/e2studio_2021_01_workspace_RZA2M_ANPR/ANPR_RZA2M_EBK/src/tensorflow_lite/tensorflow/lite/kernels/internal\common.h ****                                 float* output_activation_min,
  37:C:/Renesas/e2studio_2021_01_workspace_RZA2M_ANPR/ANPR_RZA2M_EBK/src/tensorflow_lite/tensorflow/lite/kernels/internal\common.h ****                                 float* output_activation_max) {
  38:C:/Renesas/e2studio_2021_01_workspace_RZA2M_ANPR/ANPR_RZA2M_EBK/src/tensorflow_lite/tensorflow/lite/kernels/internal\common.h ****   switch (ac) {
  39:C:/Renesas/e2studio_2021_01_workspace_RZA2M_ANPR/ANPR_RZA2M_EBK/src/tensorflow_lite/tensorflow/lite/kernels/internal\common.h ****     case FusedActivationFunctionType::kNone:
  40:C:/Renesas/e2studio_2021_01_workspace_RZA2M_ANPR/ANPR_RZA2M_EBK/src/tensorflow_lite/tensorflow/lite/kernels/internal\common.h ****       *output_activation_min = std::numeric_limits<float>::lowest();
  41:C:/Renesas/e2studio_2021_01_workspace_RZA2M_ANPR/ANPR_RZA2M_EBK/src/tensorflow_lite/tensorflow/lite/kernels/internal\common.h ****       *output_activation_max = std::numeric_limits<float>::max();
  42:C:/Renesas/e2studio_2021_01_workspace_RZA2M_ANPR/ANPR_RZA2M_EBK/src/tensorflow_lite/tensorflow/lite/kernels/internal\common.h ****       break;
  43:C:/Renesas/e2studio_2021_01_workspace_RZA2M_ANPR/ANPR_RZA2M_EBK/src/tensorflow_lite/tensorflow/lite/kernels/internal\common.h ****     case FusedActivationFunctionType::kRelu:
  44:C:/Renesas/e2studio_2021_01_workspace_RZA2M_ANPR/ANPR_RZA2M_EBK/src/tensorflow_lite/tensorflow/lite/kernels/internal\common.h ****       *output_activation_min = 0.f;
  45:C:/Renesas/e2studio_2021_01_workspace_RZA2M_ANPR/ANPR_RZA2M_EBK/src/tensorflow_lite/tensorflow/lite/kernels/internal\common.h ****       *output_activation_max = std::numeric_limits<float>::max();
  46:C:/Renesas/e2studio_2021_01_workspace_RZA2M_ANPR/ANPR_RZA2M_EBK/src/tensorflow_lite/tensorflow/lite/kernels/internal\common.h ****       break;
  47:C:/Renesas/e2studio_2021_01_workspace_RZA2M_ANPR/ANPR_RZA2M_EBK/src/tensorflow_lite/tensorflow/lite/kernels/internal\common.h ****     case FusedActivationFunctionType::kRelu1:
  48:C:/Renesas/e2studio_2021_01_workspace_RZA2M_ANPR/ANPR_RZA2M_EBK/src/tensorflow_lite/tensorflow/lite/kernels/internal\common.h ****       *output_activation_min = -1.f;
  49:C:/Renesas/e2studio_2021_01_workspace_RZA2M_ANPR/ANPR_RZA2M_EBK/src/tensorflow_lite/tensorflow/lite/kernels/internal\common.h ****       *output_activation_max = 1.f;
  50:C:/Renesas/e2studio_2021_01_workspace_RZA2M_ANPR/ANPR_RZA2M_EBK/src/tensorflow_lite/tensorflow/lite/kernels/internal\common.h ****       break;
  51:C:/Renesas/e2studio_2021_01_workspace_RZA2M_ANPR/ANPR_RZA2M_EBK/src/tensorflow_lite/tensorflow/lite/kernels/internal\common.h ****     case FusedActivationFunctionType::kRelu6:
  52:C:/Renesas/e2studio_2021_01_workspace_RZA2M_ANPR/ANPR_RZA2M_EBK/src/tensorflow_lite/tensorflow/lite/kernels/internal\common.h ****       *output_activation_min = 0.f;
  53:C:/Renesas/e2studio_2021_01_workspace_RZA2M_ANPR/ANPR_RZA2M_EBK/src/tensorflow_lite/tensorflow/lite/kernels/internal\common.h ****       *output_activation_max = 6.f;
  54:C:/Renesas/e2studio_2021_01_workspace_RZA2M_ANPR/ANPR_RZA2M_EBK/src/tensorflow_lite/tensorflow/lite/kernels/internal\common.h ****       break;
  55:C:/Renesas/e2studio_2021_01_workspace_RZA2M_ANPR/ANPR_RZA2M_EBK/src/tensorflow_lite/tensorflow/lite/kernels/internal\common.h ****   }
  56:C:/Renesas/e2studio_2021_01_workspace_RZA2M_ANPR/ANPR_RZA2M_EBK/src/tensorflow_lite/tensorflow/lite/kernels/internal\common.h **** }
  57:C:/Renesas/e2studio_2021_01_workspace_RZA2M_ANPR/ANPR_RZA2M_EBK/src/tensorflow_lite/tensorflow/lite/kernels/internal\common.h **** 
  58:C:/Renesas/e2studio_2021_01_workspace_RZA2M_ANPR/ANPR_RZA2M_EBK/src/tensorflow_lite/tensorflow/lite/kernels/internal\common.h **** template <typename T>
  59:C:/Renesas/e2studio_2021_01_workspace_RZA2M_ANPR/ANPR_RZA2M_EBK/src/tensorflow_lite/tensorflow/lite/kernels/internal\common.h **** inline T ActivationFunctionWithMinMax(T x, T output_activation_min,
  60:C:/Renesas/e2studio_2021_01_workspace_RZA2M_ANPR/ANPR_RZA2M_EBK/src/tensorflow_lite/tensorflow/lite/kernels/internal\common.h ****                                       T output_activation_max) {
  61:C:/Renesas/e2studio_2021_01_workspace_RZA2M_ANPR/ANPR_RZA2M_EBK/src/tensorflow_lite/tensorflow/lite/kernels/internal\common.h ****   using std::max;
  62:C:/Renesas/e2studio_2021_01_workspace_RZA2M_ANPR/ANPR_RZA2M_EBK/src/tensorflow_lite/tensorflow/lite/kernels/internal\common.h ****   using std::min;
  63:C:/Renesas/e2studio_2021_01_workspace_RZA2M_ANPR/ANPR_RZA2M_EBK/src/tensorflow_lite/tensorflow/lite/kernels/internal\common.h ****   return min(max(x, output_activation_min), output_activation_max);
  64:C:/Renesas/e2studio_2021_01_workspace_RZA2M_ANPR/ANPR_RZA2M_EBK/src/tensorflow_lite/tensorflow/lite/kernels/internal\common.h **** }
  65:C:/Renesas/e2studio_2021_01_workspace_RZA2M_ANPR/ANPR_RZA2M_EBK/src/tensorflow_lite/tensorflow/lite/kernels/internal\common.h **** 
  66:C:/Renesas/e2studio_2021_01_workspace_RZA2M_ANPR/ANPR_RZA2M_EBK/src/tensorflow_lite/tensorflow/lite/kernels/internal\common.h **** // Legacy function, left for compatibility only.
  67:C:/Renesas/e2studio_2021_01_workspace_RZA2M_ANPR/ANPR_RZA2M_EBK/src/tensorflow_lite/tensorflow/lite/kernels/internal\common.h **** template <FusedActivationFunctionType Ac>
  68:C:/Renesas/e2studio_2021_01_workspace_RZA2M_ANPR/ANPR_RZA2M_EBK/src/tensorflow_lite/tensorflow/lite/kernels/internal\common.h **** float ActivationFunction(float x) {
  69:C:/Renesas/e2studio_2021_01_workspace_RZA2M_ANPR/ANPR_RZA2M_EBK/src/tensorflow_lite/tensorflow/lite/kernels/internal\common.h ****   float output_activation_min, output_activation_max;
  70:C:/Renesas/e2studio_2021_01_workspace_RZA2M_ANPR/ANPR_RZA2M_EBK/src/tensorflow_lite/tensorflow/lite/kernels/internal\common.h ****   GetActivationMinMax(Ac, &output_activation_min, &output_activation_max);
  71:C:/Renesas/e2studio_2021_01_workspace_RZA2M_ANPR/ANPR_RZA2M_EBK/src/tensorflow_lite/tensorflow/lite/kernels/internal\common.h ****   return ActivationFunctionWithMinMax(x, output_activation_min,
  72:C:/Renesas/e2studio_2021_01_workspace_RZA2M_ANPR/ANPR_RZA2M_EBK/src/tensorflow_lite/tensorflow/lite/kernels/internal\common.h ****                                       output_activation_max);
  73:C:/Renesas/e2studio_2021_01_workspace_RZA2M_ANPR/ANPR_RZA2M_EBK/src/tensorflow_lite/tensorflow/lite/kernels/internal\common.h **** }
  74:C:/Renesas/e2studio_2021_01_workspace_RZA2M_ANPR/ANPR_RZA2M_EBK/src/tensorflow_lite/tensorflow/lite/kernels/internal\common.h **** 
  75:C:/Renesas/e2studio_2021_01_workspace_RZA2M_ANPR/ANPR_RZA2M_EBK/src/tensorflow_lite/tensorflow/lite/kernels/internal\common.h **** inline void BiasAndClamp(float clamp_min, float clamp_max, int bias_size,
  76:C:/Renesas/e2studio_2021_01_workspace_RZA2M_ANPR/ANPR_RZA2M_EBK/src/tensorflow_lite/tensorflow/lite/kernels/internal\common.h ****                          const float* bias_data, int array_size,
  77:C:/Renesas/e2studio_2021_01_workspace_RZA2M_ANPR/ANPR_RZA2M_EBK/src/tensorflow_lite/tensorflow/lite/kernels/internal\common.h ****                          float* array_data) {
  78:C:/Renesas/e2studio_2021_01_workspace_RZA2M_ANPR/ANPR_RZA2M_EBK/src/tensorflow_lite/tensorflow/lite/kernels/internal\common.h ****   // Note: see b/132215220: in May 2019 we thought it would be OK to replace
  79:C:/Renesas/e2studio_2021_01_workspace_RZA2M_ANPR/ANPR_RZA2M_EBK/src/tensorflow_lite/tensorflow/lite/kernels/internal\common.h ****   // this with the Eigen one-liner:
  80:C:/Renesas/e2studio_2021_01_workspace_RZA2M_ANPR/ANPR_RZA2M_EBK/src/tensorflow_lite/tensorflow/lite/kernels/internal\common.h ****   //   return (array.colwise() + bias).cwiseMin(clamp_max).cwiseMin(clamp_max).
  81:C:/Renesas/e2studio_2021_01_workspace_RZA2M_ANPR/ANPR_RZA2M_EBK/src/tensorflow_lite/tensorflow/lite/kernels/internal\common.h ****   // This turned out to severely regress performance: +4ms (i.e. 8%) on
  82:C:/Renesas/e2studio_2021_01_workspace_RZA2M_ANPR/ANPR_RZA2M_EBK/src/tensorflow_lite/tensorflow/lite/kernels/internal\common.h ****   // MobileNet v2 / 1.0 / 224. So we keep custom NEON code for now.
  83:C:/Renesas/e2studio_2021_01_workspace_RZA2M_ANPR/ANPR_RZA2M_EBK/src/tensorflow_lite/tensorflow/lite/kernels/internal\common.h ****   TFLITE_DCHECK_EQ((array_size % bias_size), 0);
  84:C:/Renesas/e2studio_2021_01_workspace_RZA2M_ANPR/ANPR_RZA2M_EBK/src/tensorflow_lite/tensorflow/lite/kernels/internal\common.h **** #ifdef USE_NEON
  85:C:/Renesas/e2studio_2021_01_workspace_RZA2M_ANPR/ANPR_RZA2M_EBK/src/tensorflow_lite/tensorflow/lite/kernels/internal\common.h ****   float* array_ptr = array_data;
  86:C:/Renesas/e2studio_2021_01_workspace_RZA2M_ANPR/ANPR_RZA2M_EBK/src/tensorflow_lite/tensorflow/lite/kernels/internal\common.h ****   float* array_end_ptr = array_ptr + array_size;
  87:C:/Renesas/e2studio_2021_01_workspace_RZA2M_ANPR/ANPR_RZA2M_EBK/src/tensorflow_lite/tensorflow/lite/kernels/internal\common.h ****   const auto clamp_min_vec = vdupq_n_f32(clamp_min);
  88:C:/Renesas/e2studio_2021_01_workspace_RZA2M_ANPR/ANPR_RZA2M_EBK/src/tensorflow_lite/tensorflow/lite/kernels/internal\common.h ****   const auto clamp_max_vec = vdupq_n_f32(clamp_max);
  89:C:/Renesas/e2studio_2021_01_workspace_RZA2M_ANPR/ANPR_RZA2M_EBK/src/tensorflow_lite/tensorflow/lite/kernels/internal\common.h ****   for (; array_ptr != array_end_ptr; array_ptr += bias_size) {
  90:C:/Renesas/e2studio_2021_01_workspace_RZA2M_ANPR/ANPR_RZA2M_EBK/src/tensorflow_lite/tensorflow/lite/kernels/internal\common.h ****     int i = 0;
  91:C:/Renesas/e2studio_2021_01_workspace_RZA2M_ANPR/ANPR_RZA2M_EBK/src/tensorflow_lite/tensorflow/lite/kernels/internal\common.h ****     for (; i <= bias_size - 16; i += 16) {
  92:C:/Renesas/e2studio_2021_01_workspace_RZA2M_ANPR/ANPR_RZA2M_EBK/src/tensorflow_lite/tensorflow/lite/kernels/internal\common.h ****       auto b0 = vld1q_f32(bias_data + i);
  93:C:/Renesas/e2studio_2021_01_workspace_RZA2M_ANPR/ANPR_RZA2M_EBK/src/tensorflow_lite/tensorflow/lite/kernels/internal\common.h ****       auto b1 = vld1q_f32(bias_data + i + 4);
  94:C:/Renesas/e2studio_2021_01_workspace_RZA2M_ANPR/ANPR_RZA2M_EBK/src/tensorflow_lite/tensorflow/lite/kernels/internal\common.h ****       auto b2 = vld1q_f32(bias_data + i + 8);
  95:C:/Renesas/e2studio_2021_01_workspace_RZA2M_ANPR/ANPR_RZA2M_EBK/src/tensorflow_lite/tensorflow/lite/kernels/internal\common.h ****       auto b3 = vld1q_f32(bias_data + i + 12);
  96:C:/Renesas/e2studio_2021_01_workspace_RZA2M_ANPR/ANPR_RZA2M_EBK/src/tensorflow_lite/tensorflow/lite/kernels/internal\common.h ****       auto a0 = vld1q_f32(array_ptr + i);
  97:C:/Renesas/e2studio_2021_01_workspace_RZA2M_ANPR/ANPR_RZA2M_EBK/src/tensorflow_lite/tensorflow/lite/kernels/internal\common.h ****       auto a1 = vld1q_f32(array_ptr + i + 4);
  98:C:/Renesas/e2studio_2021_01_workspace_RZA2M_ANPR/ANPR_RZA2M_EBK/src/tensorflow_lite/tensorflow/lite/kernels/internal\common.h ****       auto a2 = vld1q_f32(array_ptr + i + 8);
  99:C:/Renesas/e2studio_2021_01_workspace_RZA2M_ANPR/ANPR_RZA2M_EBK/src/tensorflow_lite/tensorflow/lite/kernels/internal\common.h ****       auto a3 = vld1q_f32(array_ptr + i + 12);
 100:C:/Renesas/e2studio_2021_01_workspace_RZA2M_ANPR/ANPR_RZA2M_EBK/src/tensorflow_lite/tensorflow/lite/kernels/internal\common.h ****       auto x0 = vaddq_f32(a0, b0);
 101:C:/Renesas/e2studio_2021_01_workspace_RZA2M_ANPR/ANPR_RZA2M_EBK/src/tensorflow_lite/tensorflow/lite/kernels/internal\common.h ****       auto x1 = vaddq_f32(a1, b1);
 102:C:/Renesas/e2studio_2021_01_workspace_RZA2M_ANPR/ANPR_RZA2M_EBK/src/tensorflow_lite/tensorflow/lite/kernels/internal\common.h ****       auto x2 = vaddq_f32(a2, b2);
 103:C:/Renesas/e2studio_2021_01_workspace_RZA2M_ANPR/ANPR_RZA2M_EBK/src/tensorflow_lite/tensorflow/lite/kernels/internal\common.h ****       auto x3 = vaddq_f32(a3, b3);
 104:C:/Renesas/e2studio_2021_01_workspace_RZA2M_ANPR/ANPR_RZA2M_EBK/src/tensorflow_lite/tensorflow/lite/kernels/internal\common.h ****       x0 = vmaxq_f32(clamp_min_vec, x0);
 105:C:/Renesas/e2studio_2021_01_workspace_RZA2M_ANPR/ANPR_RZA2M_EBK/src/tensorflow_lite/tensorflow/lite/kernels/internal\common.h ****       x1 = vmaxq_f32(clamp_min_vec, x1);
 106:C:/Renesas/e2studio_2021_01_workspace_RZA2M_ANPR/ANPR_RZA2M_EBK/src/tensorflow_lite/tensorflow/lite/kernels/internal\common.h ****       x2 = vmaxq_f32(clamp_min_vec, x2);
 107:C:/Renesas/e2studio_2021_01_workspace_RZA2M_ANPR/ANPR_RZA2M_EBK/src/tensorflow_lite/tensorflow/lite/kernels/internal\common.h ****       x3 = vmaxq_f32(clamp_min_vec, x3);
 108:C:/Renesas/e2studio_2021_01_workspace_RZA2M_ANPR/ANPR_RZA2M_EBK/src/tensorflow_lite/tensorflow/lite/kernels/internal\common.h ****       x0 = vminq_f32(clamp_max_vec, x0);
 109:C:/Renesas/e2studio_2021_01_workspace_RZA2M_ANPR/ANPR_RZA2M_EBK/src/tensorflow_lite/tensorflow/lite/kernels/internal\common.h ****       x1 = vminq_f32(clamp_max_vec, x1);
 110:C:/Renesas/e2studio_2021_01_workspace_RZA2M_ANPR/ANPR_RZA2M_EBK/src/tensorflow_lite/tensorflow/lite/kernels/internal\common.h ****       x2 = vminq_f32(clamp_max_vec, x2);
 111:C:/Renesas/e2studio_2021_01_workspace_RZA2M_ANPR/ANPR_RZA2M_EBK/src/tensorflow_lite/tensorflow/lite/kernels/internal\common.h ****       x3 = vminq_f32(clamp_max_vec, x3);
 112:C:/Renesas/e2studio_2021_01_workspace_RZA2M_ANPR/ANPR_RZA2M_EBK/src/tensorflow_lite/tensorflow/lite/kernels/internal\common.h ****       vst1q_f32(array_ptr + i, x0);
 113:C:/Renesas/e2studio_2021_01_workspace_RZA2M_ANPR/ANPR_RZA2M_EBK/src/tensorflow_lite/tensorflow/lite/kernels/internal\common.h ****       vst1q_f32(array_ptr + i + 4, x1);
 114:C:/Renesas/e2studio_2021_01_workspace_RZA2M_ANPR/ANPR_RZA2M_EBK/src/tensorflow_lite/tensorflow/lite/kernels/internal\common.h ****       vst1q_f32(array_ptr + i + 8, x2);
 115:C:/Renesas/e2studio_2021_01_workspace_RZA2M_ANPR/ANPR_RZA2M_EBK/src/tensorflow_lite/tensorflow/lite/kernels/internal\common.h ****       vst1q_f32(array_ptr + i + 12, x3);
 116:C:/Renesas/e2studio_2021_01_workspace_RZA2M_ANPR/ANPR_RZA2M_EBK/src/tensorflow_lite/tensorflow/lite/kernels/internal\common.h ****     }
 117:C:/Renesas/e2studio_2021_01_workspace_RZA2M_ANPR/ANPR_RZA2M_EBK/src/tensorflow_lite/tensorflow/lite/kernels/internal\common.h ****     for (; i <= bias_size - 4; i += 4) {
 118:C:/Renesas/e2studio_2021_01_workspace_RZA2M_ANPR/ANPR_RZA2M_EBK/src/tensorflow_lite/tensorflow/lite/kernels/internal\common.h ****       auto b = vld1q_f32(bias_data + i);
 119:C:/Renesas/e2studio_2021_01_workspace_RZA2M_ANPR/ANPR_RZA2M_EBK/src/tensorflow_lite/tensorflow/lite/kernels/internal\common.h ****       auto a = vld1q_f32(array_ptr + i);
 120:C:/Renesas/e2studio_2021_01_workspace_RZA2M_ANPR/ANPR_RZA2M_EBK/src/tensorflow_lite/tensorflow/lite/kernels/internal\common.h ****       auto x = vaddq_f32(a, b);
 121:C:/Renesas/e2studio_2021_01_workspace_RZA2M_ANPR/ANPR_RZA2M_EBK/src/tensorflow_lite/tensorflow/lite/kernels/internal\common.h ****       x = vmaxq_f32(clamp_min_vec, x);
 122:C:/Renesas/e2studio_2021_01_workspace_RZA2M_ANPR/ANPR_RZA2M_EBK/src/tensorflow_lite/tensorflow/lite/kernels/internal\common.h ****       x = vminq_f32(clamp_max_vec, x);
 123:C:/Renesas/e2studio_2021_01_workspace_RZA2M_ANPR/ANPR_RZA2M_EBK/src/tensorflow_lite/tensorflow/lite/kernels/internal\common.h ****       vst1q_f32(array_ptr + i, x);
 124:C:/Renesas/e2studio_2021_01_workspace_RZA2M_ANPR/ANPR_RZA2M_EBK/src/tensorflow_lite/tensorflow/lite/kernels/internal\common.h ****     }
 125:C:/Renesas/e2studio_2021_01_workspace_RZA2M_ANPR/ANPR_RZA2M_EBK/src/tensorflow_lite/tensorflow/lite/kernels/internal\common.h ****     for (; i < bias_size; i++) {
 126:C:/Renesas/e2studio_2021_01_workspace_RZA2M_ANPR/ANPR_RZA2M_EBK/src/tensorflow_lite/tensorflow/lite/kernels/internal\common.h ****       array_ptr[i] = ActivationFunctionWithMinMax(array_ptr[i] + bias_data[i],
 127:C:/Renesas/e2studio_2021_01_workspace_RZA2M_ANPR/ANPR_RZA2M_EBK/src/tensorflow_lite/tensorflow/lite/kernels/internal\common.h ****                                                   clamp_min, clamp_max);
 128:C:/Renesas/e2studio_2021_01_workspace_RZA2M_ANPR/ANPR_RZA2M_EBK/src/tensorflow_lite/tensorflow/lite/kernels/internal\common.h ****     }
 129:C:/Renesas/e2studio_2021_01_workspace_RZA2M_ANPR/ANPR_RZA2M_EBK/src/tensorflow_lite/tensorflow/lite/kernels/internal\common.h ****   }
 130:C:/Renesas/e2studio_2021_01_workspace_RZA2M_ANPR/ANPR_RZA2M_EBK/src/tensorflow_lite/tensorflow/lite/kernels/internal\common.h **** #else  // not NEON
 131:C:/Renesas/e2studio_2021_01_workspace_RZA2M_ANPR/ANPR_RZA2M_EBK/src/tensorflow_lite/tensorflow/lite/kernels/internal\common.h ****   for (int array_offset = 0; array_offset < array_size;
 132:C:/Renesas/e2studio_2021_01_workspace_RZA2M_ANPR/ANPR_RZA2M_EBK/src/tensorflow_lite/tensorflow/lite/kernels/internal\common.h ****        array_offset += bias_size) {
 133:C:/Renesas/e2studio_2021_01_workspace_RZA2M_ANPR/ANPR_RZA2M_EBK/src/tensorflow_lite/tensorflow/lite/kernels/internal\common.h ****     for (int i = 0; i < bias_size; i++) {
 134:C:/Renesas/e2studio_2021_01_workspace_RZA2M_ANPR/ANPR_RZA2M_EBK/src/tensorflow_lite/tensorflow/lite/kernels/internal\common.h ****       array_data[array_offset + i] = ActivationFunctionWithMinMax(
 135:C:/Renesas/e2studio_2021_01_workspace_RZA2M_ANPR/ANPR_RZA2M_EBK/src/tensorflow_lite/tensorflow/lite/kernels/internal\common.h ****           array_data[array_offset + i] + bias_data[i], clamp_min, clamp_max);
 136:C:/Renesas/e2studio_2021_01_workspace_RZA2M_ANPR/ANPR_RZA2M_EBK/src/tensorflow_lite/tensorflow/lite/kernels/internal\common.h ****     }
 137:C:/Renesas/e2studio_2021_01_workspace_RZA2M_ANPR/ANPR_RZA2M_EBK/src/tensorflow_lite/tensorflow/lite/kernels/internal\common.h ****   }
 138:C:/Renesas/e2studio_2021_01_workspace_RZA2M_ANPR/ANPR_RZA2M_EBK/src/tensorflow_lite/tensorflow/lite/kernels/internal\common.h **** #endif
 139:C:/Renesas/e2studio_2021_01_workspace_RZA2M_ANPR/ANPR_RZA2M_EBK/src/tensorflow_lite/tensorflow/lite/kernels/internal\common.h **** }
 140:C:/Renesas/e2studio_2021_01_workspace_RZA2M_ANPR/ANPR_RZA2M_EBK/src/tensorflow_lite/tensorflow/lite/kernels/internal\common.h **** 
 141:C:/Renesas/e2studio_2021_01_workspace_RZA2M_ANPR/ANPR_RZA2M_EBK/src/tensorflow_lite/tensorflow/lite/kernels/internal\common.h **** inline int32_t MultiplyByQuantizedMultiplierSmallerThanOneExp(
 142:C:/Renesas/e2studio_2021_01_workspace_RZA2M_ANPR/ANPR_RZA2M_EBK/src/tensorflow_lite/tensorflow/lite/kernels/internal\common.h ****     int32_t x, int32_t quantized_multiplier, int left_shift) {
 143:C:/Renesas/e2studio_2021_01_workspace_RZA2M_ANPR/ANPR_RZA2M_EBK/src/tensorflow_lite/tensorflow/lite/kernels/internal\common.h ****   using gemmlowp::RoundingDivideByPOT;
 144:C:/Renesas/e2studio_2021_01_workspace_RZA2M_ANPR/ANPR_RZA2M_EBK/src/tensorflow_lite/tensorflow/lite/kernels/internal\common.h ****   using gemmlowp::SaturatingRoundingDoublingHighMul;
 145:C:/Renesas/e2studio_2021_01_workspace_RZA2M_ANPR/ANPR_RZA2M_EBK/src/tensorflow_lite/tensorflow/lite/kernels/internal\common.h ****   return RoundingDivideByPOT(
 146:C:/Renesas/e2studio_2021_01_workspace_RZA2M_ANPR/ANPR_RZA2M_EBK/src/tensorflow_lite/tensorflow/lite/kernels/internal\common.h ****       SaturatingRoundingDoublingHighMul(x, quantized_multiplier), -left_shift);
 147:C:/Renesas/e2studio_2021_01_workspace_RZA2M_ANPR/ANPR_RZA2M_EBK/src/tensorflow_lite/tensorflow/lite/kernels/internal\common.h **** }
 148:C:/Renesas/e2studio_2021_01_workspace_RZA2M_ANPR/ANPR_RZA2M_EBK/src/tensorflow_lite/tensorflow/lite/kernels/internal\common.h **** 
 149:C:/Renesas/e2studio_2021_01_workspace_RZA2M_ANPR/ANPR_RZA2M_EBK/src/tensorflow_lite/tensorflow/lite/kernels/internal\common.h **** inline int32_t MultiplyByQuantizedMultiplierGreaterThanOne(
 150:C:/Renesas/e2studio_2021_01_workspace_RZA2M_ANPR/ANPR_RZA2M_EBK/src/tensorflow_lite/tensorflow/lite/kernels/internal\common.h ****     int32_t x, int32_t quantized_multiplier, int left_shift) {
 151:C:/Renesas/e2studio_2021_01_workspace_RZA2M_ANPR/ANPR_RZA2M_EBK/src/tensorflow_lite/tensorflow/lite/kernels/internal\common.h ****   using gemmlowp::SaturatingRoundingDoublingHighMul;
 152:C:/Renesas/e2studio_2021_01_workspace_RZA2M_ANPR/ANPR_RZA2M_EBK/src/tensorflow_lite/tensorflow/lite/kernels/internal\common.h ****   return SaturatingRoundingDoublingHighMul(x * (1 << left_shift),
 153:C:/Renesas/e2studio_2021_01_workspace_RZA2M_ANPR/ANPR_RZA2M_EBK/src/tensorflow_lite/tensorflow/lite/kernels/internal\common.h ****                                            quantized_multiplier);
 154:C:/Renesas/e2studio_2021_01_workspace_RZA2M_ANPR/ANPR_RZA2M_EBK/src/tensorflow_lite/tensorflow/lite/kernels/internal\common.h **** }
 155:C:/Renesas/e2studio_2021_01_workspace_RZA2M_ANPR/ANPR_RZA2M_EBK/src/tensorflow_lite/tensorflow/lite/kernels/internal\common.h **** 
 156:C:/Renesas/e2studio_2021_01_workspace_RZA2M_ANPR/ANPR_RZA2M_EBK/src/tensorflow_lite/tensorflow/lite/kernels/internal\common.h **** inline int32_t MultiplyByQuantizedMultiplier(int32_t x,
 157:C:/Renesas/e2studio_2021_01_workspace_RZA2M_ANPR/ANPR_RZA2M_EBK/src/tensorflow_lite/tensorflow/lite/kernels/internal\common.h ****                                              int32_t quantized_multiplier,
 158:C:/Renesas/e2studio_2021_01_workspace_RZA2M_ANPR/ANPR_RZA2M_EBK/src/tensorflow_lite/tensorflow/lite/kernels/internal\common.h ****                                              int shift) {
 159:C:/Renesas/e2studio_2021_01_workspace_RZA2M_ANPR/ANPR_RZA2M_EBK/src/tensorflow_lite/tensorflow/lite/kernels/internal\common.h ****   using gemmlowp::RoundingDivideByPOT;
 160:C:/Renesas/e2studio_2021_01_workspace_RZA2M_ANPR/ANPR_RZA2M_EBK/src/tensorflow_lite/tensorflow/lite/kernels/internal\common.h ****   using gemmlowp::SaturatingRoundingDoublingHighMul;
 161:C:/Renesas/e2studio_2021_01_workspace_RZA2M_ANPR/ANPR_RZA2M_EBK/src/tensorflow_lite/tensorflow/lite/kernels/internal\common.h ****   int left_shift = shift > 0 ? shift : 0;
 162:C:/Renesas/e2studio_2021_01_workspace_RZA2M_ANPR/ANPR_RZA2M_EBK/src/tensorflow_lite/tensorflow/lite/kernels/internal\common.h ****   int right_shift = shift > 0 ? 0 : -shift;
 163:C:/Renesas/e2studio_2021_01_workspace_RZA2M_ANPR/ANPR_RZA2M_EBK/src/tensorflow_lite/tensorflow/lite/kernels/internal\common.h ****   return RoundingDivideByPOT(SaturatingRoundingDoublingHighMul(
 164:C:/Renesas/e2studio_2021_01_workspace_RZA2M_ANPR/ANPR_RZA2M_EBK/src/tensorflow_lite/tensorflow/lite/kernels/internal\common.h ****                                  x * (1 << left_shift), quantized_multiplier),
 165:C:/Renesas/e2studio_2021_01_workspace_RZA2M_ANPR/ANPR_RZA2M_EBK/src/tensorflow_lite/tensorflow/lite/kernels/internal\common.h ****                              right_shift);
 166:C:/Renesas/e2studio_2021_01_workspace_RZA2M_ANPR/ANPR_RZA2M_EBK/src/tensorflow_lite/tensorflow/lite/kernels/internal\common.h **** }
 167:C:/Renesas/e2studio_2021_01_workspace_RZA2M_ANPR/ANPR_RZA2M_EBK/src/tensorflow_lite/tensorflow/lite/kernels/internal\common.h **** 
 168:C:/Renesas/e2studio_2021_01_workspace_RZA2M_ANPR/ANPR_RZA2M_EBK/src/tensorflow_lite/tensorflow/lite/kernels/internal\common.h **** inline int32_t MultiplyByQuantizedMultiplier(int64_t x,
 169:C:/Renesas/e2studio_2021_01_workspace_RZA2M_ANPR/ANPR_RZA2M_EBK/src/tensorflow_lite/tensorflow/lite/kernels/internal\common.h ****                                              int32_t quantized_multiplier,
 170:C:/Renesas/e2studio_2021_01_workspace_RZA2M_ANPR/ANPR_RZA2M_EBK/src/tensorflow_lite/tensorflow/lite/kernels/internal\common.h ****                                              int shift) {
 171:C:/Renesas/e2studio_2021_01_workspace_RZA2M_ANPR/ANPR_RZA2M_EBK/src/tensorflow_lite/tensorflow/lite/kernels/internal\common.h ****   // Inputs:
 172:C:/Renesas/e2studio_2021_01_workspace_RZA2M_ANPR/ANPR_RZA2M_EBK/src/tensorflow_lite/tensorflow/lite/kernels/internal\common.h ****   // - quantized_multiplier has fixed point at bit 31
 173:C:/Renesas/e2studio_2021_01_workspace_RZA2M_ANPR/ANPR_RZA2M_EBK/src/tensorflow_lite/tensorflow/lite/kernels/internal\common.h ****   // - shift is -31 to +7 (negative for right shift)
 174:C:/Renesas/e2studio_2021_01_workspace_RZA2M_ANPR/ANPR_RZA2M_EBK/src/tensorflow_lite/tensorflow/lite/kernels/internal\common.h ****   //
 175:C:/Renesas/e2studio_2021_01_workspace_RZA2M_ANPR/ANPR_RZA2M_EBK/src/tensorflow_lite/tensorflow/lite/kernels/internal\common.h ****   // Assumptions: The following input ranges are assumed
 176:C:/Renesas/e2studio_2021_01_workspace_RZA2M_ANPR/ANPR_RZA2M_EBK/src/tensorflow_lite/tensorflow/lite/kernels/internal\common.h ****   // - quantize_scale>=0  (the usual range is (1<<30) to (1>>31)-1)
 177:C:/Renesas/e2studio_2021_01_workspace_RZA2M_ANPR/ANPR_RZA2M_EBK/src/tensorflow_lite/tensorflow/lite/kernels/internal\common.h ****   // - scaling is chosen so final scaled result fits in int32_t
 178:C:/Renesas/e2studio_2021_01_workspace_RZA2M_ANPR/ANPR_RZA2M_EBK/src/tensorflow_lite/tensorflow/lite/kernels/internal\common.h ****   // - input x is in the range -(1<<47) <= x < (1<<47)
 179:C:/Renesas/e2studio_2021_01_workspace_RZA2M_ANPR/ANPR_RZA2M_EBK/src/tensorflow_lite/tensorflow/lite/kernels/internal\common.h ****   assert(quantized_multiplier >= 0);
 180:C:/Renesas/e2studio_2021_01_workspace_RZA2M_ANPR/ANPR_RZA2M_EBK/src/tensorflow_lite/tensorflow/lite/kernels/internal\common.h ****   assert(shift >= -31 && shift < 8);
 181:C:/Renesas/e2studio_2021_01_workspace_RZA2M_ANPR/ANPR_RZA2M_EBK/src/tensorflow_lite/tensorflow/lite/kernels/internal\common.h ****   assert(x >= -(static_cast<int64_t>(1) << 47) &&
 182:C:/Renesas/e2studio_2021_01_workspace_RZA2M_ANPR/ANPR_RZA2M_EBK/src/tensorflow_lite/tensorflow/lite/kernels/internal\common.h ****          x < (static_cast<int64_t>(1) << 47));
 183:C:/Renesas/e2studio_2021_01_workspace_RZA2M_ANPR/ANPR_RZA2M_EBK/src/tensorflow_lite/tensorflow/lite/kernels/internal\common.h **** 
 184:C:/Renesas/e2studio_2021_01_workspace_RZA2M_ANPR/ANPR_RZA2M_EBK/src/tensorflow_lite/tensorflow/lite/kernels/internal\common.h ****   int32_t reduced_multiplier = (quantized_multiplier < 0x7FFF0000)
 185:C:/Renesas/e2studio_2021_01_workspace_RZA2M_ANPR/ANPR_RZA2M_EBK/src/tensorflow_lite/tensorflow/lite/kernels/internal\common.h ****                                    ? ((quantized_multiplier + (1 << 15)) >> 16)
 186:C:/Renesas/e2studio_2021_01_workspace_RZA2M_ANPR/ANPR_RZA2M_EBK/src/tensorflow_lite/tensorflow/lite/kernels/internal\common.h ****                                    : 0x7FFF;
 187:C:/Renesas/e2studio_2021_01_workspace_RZA2M_ANPR/ANPR_RZA2M_EBK/src/tensorflow_lite/tensorflow/lite/kernels/internal\common.h ****   int total_shift = 15 - shift;
 188:C:/Renesas/e2studio_2021_01_workspace_RZA2M_ANPR/ANPR_RZA2M_EBK/src/tensorflow_lite/tensorflow/lite/kernels/internal\common.h ****   x = (x * (int64_t)reduced_multiplier) + ((int64_t)1 << (total_shift - 1));
 189:C:/Renesas/e2studio_2021_01_workspace_RZA2M_ANPR/ANPR_RZA2M_EBK/src/tensorflow_lite/tensorflow/lite/kernels/internal\common.h ****   int32_t result = x >> total_shift;
 190:C:/Renesas/e2studio_2021_01_workspace_RZA2M_ANPR/ANPR_RZA2M_EBK/src/tensorflow_lite/tensorflow/lite/kernels/internal\common.h ****   return result;
 191:C:/Renesas/e2studio_2021_01_workspace_RZA2M_ANPR/ANPR_RZA2M_EBK/src/tensorflow_lite/tensorflow/lite/kernels/internal\common.h **** }
 192:C:/Renesas/e2studio_2021_01_workspace_RZA2M_ANPR/ANPR_RZA2M_EBK/src/tensorflow_lite/tensorflow/lite/kernels/internal\common.h **** 
 193:C:/Renesas/e2studio_2021_01_workspace_RZA2M_ANPR/ANPR_RZA2M_EBK/src/tensorflow_lite/tensorflow/lite/kernels/internal\common.h **** #ifdef USE_NEON
 194:C:/Renesas/e2studio_2021_01_workspace_RZA2M_ANPR/ANPR_RZA2M_EBK/src/tensorflow_lite/tensorflow/lite/kernels/internal\common.h **** // Round uses ARM's rounding shift right.
 195:C:/Renesas/e2studio_2021_01_workspace_RZA2M_ANPR/ANPR_RZA2M_EBK/src/tensorflow_lite/tensorflow/lite/kernels/internal\common.h **** inline int32x4x4_t MultiplyByQuantizedMultiplier4Rows(
 196:C:/Renesas/e2studio_2021_01_workspace_RZA2M_ANPR/ANPR_RZA2M_EBK/src/tensorflow_lite/tensorflow/lite/kernels/internal\common.h ****     int32x4x4_t input_val, int32_t quantized_multiplier, int shift) {
 197:C:/Renesas/e2studio_2021_01_workspace_RZA2M_ANPR/ANPR_RZA2M_EBK/src/tensorflow_lite/tensorflow/lite/kernels/internal\common.h ****   const int left_shift = std::max(shift, 0);
 198:C:/Renesas/e2studio_2021_01_workspace_RZA2M_ANPR/ANPR_RZA2M_EBK/src/tensorflow_lite/tensorflow/lite/kernels/internal\common.h ****   const int right_shift = std::min(shift, 0);
 199:C:/Renesas/e2studio_2021_01_workspace_RZA2M_ANPR/ANPR_RZA2M_EBK/src/tensorflow_lite/tensorflow/lite/kernels/internal\common.h ****   int32x4x4_t result;
 200:C:/Renesas/e2studio_2021_01_workspace_RZA2M_ANPR/ANPR_RZA2M_EBK/src/tensorflow_lite/tensorflow/lite/kernels/internal\common.h **** 
 201:C:/Renesas/e2studio_2021_01_workspace_RZA2M_ANPR/ANPR_RZA2M_EBK/src/tensorflow_lite/tensorflow/lite/kernels/internal\common.h ****   int32x4_t multiplier_dup = vdupq_n_s32(quantized_multiplier);
 202:C:/Renesas/e2studio_2021_01_workspace_RZA2M_ANPR/ANPR_RZA2M_EBK/src/tensorflow_lite/tensorflow/lite/kernels/internal\common.h ****   int32x4_t left_shift_dup = vdupq_n_s32(left_shift);
 203:C:/Renesas/e2studio_2021_01_workspace_RZA2M_ANPR/ANPR_RZA2M_EBK/src/tensorflow_lite/tensorflow/lite/kernels/internal\common.h ****   int32x4_t right_shift_dup = vdupq_n_s32(right_shift);
 204:C:/Renesas/e2studio_2021_01_workspace_RZA2M_ANPR/ANPR_RZA2M_EBK/src/tensorflow_lite/tensorflow/lite/kernels/internal\common.h **** 
 205:C:/Renesas/e2studio_2021_01_workspace_RZA2M_ANPR/ANPR_RZA2M_EBK/src/tensorflow_lite/tensorflow/lite/kernels/internal\common.h ****   result.val[0] =
 206:C:/Renesas/e2studio_2021_01_workspace_RZA2M_ANPR/ANPR_RZA2M_EBK/src/tensorflow_lite/tensorflow/lite/kernels/internal\common.h ****       vrshlq_s32(vqrdmulhq_s32(vshlq_s32(input_val.val[0], left_shift_dup),
 207:C:/Renesas/e2studio_2021_01_workspace_RZA2M_ANPR/ANPR_RZA2M_EBK/src/tensorflow_lite/tensorflow/lite/kernels/internal\common.h ****                                multiplier_dup),
 208:C:/Renesas/e2studio_2021_01_workspace_RZA2M_ANPR/ANPR_RZA2M_EBK/src/tensorflow_lite/tensorflow/lite/kernels/internal\common.h ****                  right_shift_dup);
 209:C:/Renesas/e2studio_2021_01_workspace_RZA2M_ANPR/ANPR_RZA2M_EBK/src/tensorflow_lite/tensorflow/lite/kernels/internal\common.h **** 
 210:C:/Renesas/e2studio_2021_01_workspace_RZA2M_ANPR/ANPR_RZA2M_EBK/src/tensorflow_lite/tensorflow/lite/kernels/internal\common.h ****   result.val[1] =
 211:C:/Renesas/e2studio_2021_01_workspace_RZA2M_ANPR/ANPR_RZA2M_EBK/src/tensorflow_lite/tensorflow/lite/kernels/internal\common.h ****       vrshlq_s32(vqrdmulhq_s32(vshlq_s32(input_val.val[1], left_shift_dup),
 212:C:/Renesas/e2studio_2021_01_workspace_RZA2M_ANPR/ANPR_RZA2M_EBK/src/tensorflow_lite/tensorflow/lite/kernels/internal\common.h ****                                multiplier_dup),
 213:C:/Renesas/e2studio_2021_01_workspace_RZA2M_ANPR/ANPR_RZA2M_EBK/src/tensorflow_lite/tensorflow/lite/kernels/internal\common.h ****                  right_shift_dup);
 214:C:/Renesas/e2studio_2021_01_workspace_RZA2M_ANPR/ANPR_RZA2M_EBK/src/tensorflow_lite/tensorflow/lite/kernels/internal\common.h **** 
 215:C:/Renesas/e2studio_2021_01_workspace_RZA2M_ANPR/ANPR_RZA2M_EBK/src/tensorflow_lite/tensorflow/lite/kernels/internal\common.h ****   result.val[2] =
 216:C:/Renesas/e2studio_2021_01_workspace_RZA2M_ANPR/ANPR_RZA2M_EBK/src/tensorflow_lite/tensorflow/lite/kernels/internal\common.h ****       vrshlq_s32(vqrdmulhq_s32(vshlq_s32(input_val.val[2], left_shift_dup),
 217:C:/Renesas/e2studio_2021_01_workspace_RZA2M_ANPR/ANPR_RZA2M_EBK/src/tensorflow_lite/tensorflow/lite/kernels/internal\common.h ****                                multiplier_dup),
 218:C:/Renesas/e2studio_2021_01_workspace_RZA2M_ANPR/ANPR_RZA2M_EBK/src/tensorflow_lite/tensorflow/lite/kernels/internal\common.h ****                  right_shift_dup);
 219:C:/Renesas/e2studio_2021_01_workspace_RZA2M_ANPR/ANPR_RZA2M_EBK/src/tensorflow_lite/tensorflow/lite/kernels/internal\common.h **** 
 220:C:/Renesas/e2studio_2021_01_workspace_RZA2M_ANPR/ANPR_RZA2M_EBK/src/tensorflow_lite/tensorflow/lite/kernels/internal\common.h ****   result.val[3] =
 221:C:/Renesas/e2studio_2021_01_workspace_RZA2M_ANPR/ANPR_RZA2M_EBK/src/tensorflow_lite/tensorflow/lite/kernels/internal\common.h ****       vrshlq_s32(vqrdmulhq_s32(vshlq_s32(input_val.val[3], left_shift_dup),
 222:C:/Renesas/e2studio_2021_01_workspace_RZA2M_ANPR/ANPR_RZA2M_EBK/src/tensorflow_lite/tensorflow/lite/kernels/internal\common.h ****                                multiplier_dup),
 223:C:/Renesas/e2studio_2021_01_workspace_RZA2M_ANPR/ANPR_RZA2M_EBK/src/tensorflow_lite/tensorflow/lite/kernels/internal\common.h ****                  right_shift_dup);
 224:C:/Renesas/e2studio_2021_01_workspace_RZA2M_ANPR/ANPR_RZA2M_EBK/src/tensorflow_lite/tensorflow/lite/kernels/internal\common.h **** 
 225:C:/Renesas/e2studio_2021_01_workspace_RZA2M_ANPR/ANPR_RZA2M_EBK/src/tensorflow_lite/tensorflow/lite/kernels/internal\common.h ****   return result;
 226:C:/Renesas/e2studio_2021_01_workspace_RZA2M_ANPR/ANPR_RZA2M_EBK/src/tensorflow_lite/tensorflow/lite/kernels/internal\common.h **** }
 227:C:/Renesas/e2studio_2021_01_workspace_RZA2M_ANPR/ANPR_RZA2M_EBK/src/tensorflow_lite/tensorflow/lite/kernels/internal\common.h **** #endif
 228:C:/Renesas/e2studio_2021_01_workspace_RZA2M_ANPR/ANPR_RZA2M_EBK/src/tensorflow_lite/tensorflow/lite/kernels/internal\common.h **** 
 229:C:/Renesas/e2studio_2021_01_workspace_RZA2M_ANPR/ANPR_RZA2M_EBK/src/tensorflow_lite/tensorflow/lite/kernels/internal\common.h **** template <typename T>
 230:C:/Renesas/e2studio_2021_01_workspace_RZA2M_ANPR/ANPR_RZA2M_EBK/src/tensorflow_lite/tensorflow/lite/kernels/internal\common.h **** int CountLeadingZeros(T integer_input) {
 231:C:/Renesas/e2studio_2021_01_workspace_RZA2M_ANPR/ANPR_RZA2M_EBK/src/tensorflow_lite/tensorflow/lite/kernels/internal\common.h ****   static_assert(std::is_unsigned<T>::value,
 232:C:/Renesas/e2studio_2021_01_workspace_RZA2M_ANPR/ANPR_RZA2M_EBK/src/tensorflow_lite/tensorflow/lite/kernels/internal\common.h ****                 "Only unsigned integer types handled.");
 233:C:/Renesas/e2studio_2021_01_workspace_RZA2M_ANPR/ANPR_RZA2M_EBK/src/tensorflow_lite/tensorflow/lite/kernels/internal\common.h **** #if defined(__GNUC__)
 234:C:/Renesas/e2studio_2021_01_workspace_RZA2M_ANPR/ANPR_RZA2M_EBK/src/tensorflow_lite/tensorflow/lite/kernels/internal\common.h ****   return integer_input ? __builtin_clz(integer_input)
 235:C:/Renesas/e2studio_2021_01_workspace_RZA2M_ANPR/ANPR_RZA2M_EBK/src/tensorflow_lite/tensorflow/lite/kernels/internal\common.h ****                        : std::numeric_limits<T>::digits;
 236:C:/Renesas/e2studio_2021_01_workspace_RZA2M_ANPR/ANPR_RZA2M_EBK/src/tensorflow_lite/tensorflow/lite/kernels/internal\common.h **** #else
 237:C:/Renesas/e2studio_2021_01_workspace_RZA2M_ANPR/ANPR_RZA2M_EBK/src/tensorflow_lite/tensorflow/lite/kernels/internal\common.h ****   if (integer_input == 0) {
 238:C:/Renesas/e2studio_2021_01_workspace_RZA2M_ANPR/ANPR_RZA2M_EBK/src/tensorflow_lite/tensorflow/lite/kernels/internal\common.h ****     return std::numeric_limits<T>::digits;
 239:C:/Renesas/e2studio_2021_01_workspace_RZA2M_ANPR/ANPR_RZA2M_EBK/src/tensorflow_lite/tensorflow/lite/kernels/internal\common.h ****   }
 240:C:/Renesas/e2studio_2021_01_workspace_RZA2M_ANPR/ANPR_RZA2M_EBK/src/tensorflow_lite/tensorflow/lite/kernels/internal\common.h **** 
 241:C:/Renesas/e2studio_2021_01_workspace_RZA2M_ANPR/ANPR_RZA2M_EBK/src/tensorflow_lite/tensorflow/lite/kernels/internal\common.h ****   const T one_in_leading_positive = static_cast<T>(1)
 242:C:/Renesas/e2studio_2021_01_workspace_RZA2M_ANPR/ANPR_RZA2M_EBK/src/tensorflow_lite/tensorflow/lite/kernels/internal\common.h ****                                     << (std::numeric_limits<T>::digits - 1);
 243:C:/Renesas/e2studio_2021_01_workspace_RZA2M_ANPR/ANPR_RZA2M_EBK/src/tensorflow_lite/tensorflow/lite/kernels/internal\common.h ****   int leading_zeros = 0;
 244:C:/Renesas/e2studio_2021_01_workspace_RZA2M_ANPR/ANPR_RZA2M_EBK/src/tensorflow_lite/tensorflow/lite/kernels/internal\common.h ****   while (integer_input < one_in_leading_positive) {
 245:C:/Renesas/e2studio_2021_01_workspace_RZA2M_ANPR/ANPR_RZA2M_EBK/src/tensorflow_lite/tensorflow/lite/kernels/internal\common.h ****     integer_input <<= 1;
 246:C:/Renesas/e2studio_2021_01_workspace_RZA2M_ANPR/ANPR_RZA2M_EBK/src/tensorflow_lite/tensorflow/lite/kernels/internal\common.h ****     ++leading_zeros;
 247:C:/Renesas/e2studio_2021_01_workspace_RZA2M_ANPR/ANPR_RZA2M_EBK/src/tensorflow_lite/tensorflow/lite/kernels/internal\common.h ****   }
 248:C:/Renesas/e2studio_2021_01_workspace_RZA2M_ANPR/ANPR_RZA2M_EBK/src/tensorflow_lite/tensorflow/lite/kernels/internal\common.h ****   return leading_zeros;
 249:C:/Renesas/e2studio_2021_01_workspace_RZA2M_ANPR/ANPR_RZA2M_EBK/src/tensorflow_lite/tensorflow/lite/kernels/internal\common.h **** #endif
 250:C:/Renesas/e2studio_2021_01_workspace_RZA2M_ANPR/ANPR_RZA2M_EBK/src/tensorflow_lite/tensorflow/lite/kernels/internal\common.h **** }
 251:C:/Renesas/e2studio_2021_01_workspace_RZA2M_ANPR/ANPR_RZA2M_EBK/src/tensorflow_lite/tensorflow/lite/kernels/internal\common.h **** 
 252:C:/Renesas/e2studio_2021_01_workspace_RZA2M_ANPR/ANPR_RZA2M_EBK/src/tensorflow_lite/tensorflow/lite/kernels/internal\common.h **** template <typename T>
 253:C:/Renesas/e2studio_2021_01_workspace_RZA2M_ANPR/ANPR_RZA2M_EBK/src/tensorflow_lite/tensorflow/lite/kernels/internal\common.h **** inline int CountLeadingSignBits(T integer_input) {
 254:C:/Renesas/e2studio_2021_01_workspace_RZA2M_ANPR/ANPR_RZA2M_EBK/src/tensorflow_lite/tensorflow/lite/kernels/internal\common.h ****   static_assert(std::is_signed<T>::value, "Only signed integer types handled.");
 255:C:/Renesas/e2studio_2021_01_workspace_RZA2M_ANPR/ANPR_RZA2M_EBK/src/tensorflow_lite/tensorflow/lite/kernels/internal\common.h **** #if defined(__GNUC__) && !defined(__clang__)
 256:C:/Renesas/e2studio_2021_01_workspace_RZA2M_ANPR/ANPR_RZA2M_EBK/src/tensorflow_lite/tensorflow/lite/kernels/internal\common.h ****   return integer_input ? __builtin_clrsb(integer_input)
 257:C:/Renesas/e2studio_2021_01_workspace_RZA2M_ANPR/ANPR_RZA2M_EBK/src/tensorflow_lite/tensorflow/lite/kernels/internal\common.h ****                        : std::numeric_limits<T>::digits;
 258:C:/Renesas/e2studio_2021_01_workspace_RZA2M_ANPR/ANPR_RZA2M_EBK/src/tensorflow_lite/tensorflow/lite/kernels/internal\common.h **** #else
 259:C:/Renesas/e2studio_2021_01_workspace_RZA2M_ANPR/ANPR_RZA2M_EBK/src/tensorflow_lite/tensorflow/lite/kernels/internal\common.h ****   using U = typename std::make_unsigned<T>::type;
 260:C:/Renesas/e2studio_2021_01_workspace_RZA2M_ANPR/ANPR_RZA2M_EBK/src/tensorflow_lite/tensorflow/lite/kernels/internal\common.h ****   return integer_input >= 0
 261:C:/Renesas/e2studio_2021_01_workspace_RZA2M_ANPR/ANPR_RZA2M_EBK/src/tensorflow_lite/tensorflow/lite/kernels/internal\common.h ****              ? CountLeadingZeros(static_cast<U>(integer_input)) - 1
 262:C:/Renesas/e2studio_2021_01_workspace_RZA2M_ANPR/ANPR_RZA2M_EBK/src/tensorflow_lite/tensorflow/lite/kernels/internal\common.h ****          : integer_input != std::numeric_limits<T>::min()
 263:C:/Renesas/e2studio_2021_01_workspace_RZA2M_ANPR/ANPR_RZA2M_EBK/src/tensorflow_lite/tensorflow/lite/kernels/internal\common.h ****              ? CountLeadingZeros(2 * static_cast<U>(-integer_input) - 1)
 264:C:/Renesas/e2studio_2021_01_workspace_RZA2M_ANPR/ANPR_RZA2M_EBK/src/tensorflow_lite/tensorflow/lite/kernels/internal\common.h ****              : 0;
 265:C:/Renesas/e2studio_2021_01_workspace_RZA2M_ANPR/ANPR_RZA2M_EBK/src/tensorflow_lite/tensorflow/lite/kernels/internal\common.h **** #endif
 266:C:/Renesas/e2studio_2021_01_workspace_RZA2M_ANPR/ANPR_RZA2M_EBK/src/tensorflow_lite/tensorflow/lite/kernels/internal\common.h **** }
 267:C:/Renesas/e2studio_2021_01_workspace_RZA2M_ANPR/ANPR_RZA2M_EBK/src/tensorflow_lite/tensorflow/lite/kernels/internal\common.h **** 
 268:C:/Renesas/e2studio_2021_01_workspace_RZA2M_ANPR/ANPR_RZA2M_EBK/src/tensorflow_lite/tensorflow/lite/kernels/internal\common.h **** // Use "count leading zeros" helper functions to do a fast Floor(log_2(x)).
 269:C:/Renesas/e2studio_2021_01_workspace_RZA2M_ANPR/ANPR_RZA2M_EBK/src/tensorflow_lite/tensorflow/lite/kernels/internal\common.h **** template <typename Integer>
 270:C:/Renesas/e2studio_2021_01_workspace_RZA2M_ANPR/ANPR_RZA2M_EBK/src/tensorflow_lite/tensorflow/lite/kernels/internal\common.h **** inline Integer FloorLog2(Integer n) {
 271:C:/Renesas/e2studio_2021_01_workspace_RZA2M_ANPR/ANPR_RZA2M_EBK/src/tensorflow_lite/tensorflow/lite/kernels/internal\common.h ****   static_assert(std::is_integral<Integer>::value, "");
 272:C:/Renesas/e2studio_2021_01_workspace_RZA2M_ANPR/ANPR_RZA2M_EBK/src/tensorflow_lite/tensorflow/lite/kernels/internal\common.h ****   static_assert(std::is_signed<Integer>::value, "");
 273:C:/Renesas/e2studio_2021_01_workspace_RZA2M_ANPR/ANPR_RZA2M_EBK/src/tensorflow_lite/tensorflow/lite/kernels/internal\common.h ****   static_assert(sizeof(Integer) == 4 || sizeof(Integer) == 8, "");
 274:C:/Renesas/e2studio_2021_01_workspace_RZA2M_ANPR/ANPR_RZA2M_EBK/src/tensorflow_lite/tensorflow/lite/kernels/internal\common.h ****   TFLITE_CHECK_GT(n, 0);
 275:C:/Renesas/e2studio_2021_01_workspace_RZA2M_ANPR/ANPR_RZA2M_EBK/src/tensorflow_lite/tensorflow/lite/kernels/internal\common.h ****   if (sizeof(Integer) == 4) {
 276:C:/Renesas/e2studio_2021_01_workspace_RZA2M_ANPR/ANPR_RZA2M_EBK/src/tensorflow_lite/tensorflow/lite/kernels/internal\common.h ****     return 30 - CountLeadingSignBits(n);
 277:C:/Renesas/e2studio_2021_01_workspace_RZA2M_ANPR/ANPR_RZA2M_EBK/src/tensorflow_lite/tensorflow/lite/kernels/internal\common.h ****   } else {
 278:C:/Renesas/e2studio_2021_01_workspace_RZA2M_ANPR/ANPR_RZA2M_EBK/src/tensorflow_lite/tensorflow/lite/kernels/internal\common.h ****     return 62 - CountLeadingSignBits(n);
 279:C:/Renesas/e2studio_2021_01_workspace_RZA2M_ANPR/ANPR_RZA2M_EBK/src/tensorflow_lite/tensorflow/lite/kernels/internal\common.h ****   }
 280:C:/Renesas/e2studio_2021_01_workspace_RZA2M_ANPR/ANPR_RZA2M_EBK/src/tensorflow_lite/tensorflow/lite/kernels/internal\common.h **** }
 281:C:/Renesas/e2studio_2021_01_workspace_RZA2M_ANPR/ANPR_RZA2M_EBK/src/tensorflow_lite/tensorflow/lite/kernels/internal\common.h **** 
 282:C:/Renesas/e2studio_2021_01_workspace_RZA2M_ANPR/ANPR_RZA2M_EBK/src/tensorflow_lite/tensorflow/lite/kernels/internal\common.h **** // generate INT16 LUT for function(), e.g., table exp(x) and 1/(1+x) used in
 283:C:/Renesas/e2studio_2021_01_workspace_RZA2M_ANPR/ANPR_RZA2M_EBK/src/tensorflow_lite/tensorflow/lite/kernels/internal\common.h **** // softmax
 284:C:/Renesas/e2studio_2021_01_workspace_RZA2M_ANPR/ANPR_RZA2M_EBK/src/tensorflow_lite/tensorflow/lite/kernels/internal\common.h **** // func - the function to build the LUT for (e.g exp(x))
 285:C:/Renesas/e2studio_2021_01_workspace_RZA2M_ANPR/ANPR_RZA2M_EBK/src/tensorflow_lite/tensorflow/lite/kernels/internal\common.h **** // min,max - table limits
 286:C:/Renesas/e2studio_2021_01_workspace_RZA2M_ANPR/ANPR_RZA2M_EBK/src/tensorflow_lite/tensorflow/lite/kernels/internal\common.h **** // table - pointer to buffer
 287:C:/Renesas/e2studio_2021_01_workspace_RZA2M_ANPR/ANPR_RZA2M_EBK/src/tensorflow_lite/tensorflow/lite/kernels/internal\common.h **** // num - number of elements in the LUT
 288:C:/Renesas/e2studio_2021_01_workspace_RZA2M_ANPR/ANPR_RZA2M_EBK/src/tensorflow_lite/tensorflow/lite/kernels/internal\common.h **** inline void gen_lut(double (*func)(double), double min, double max,
 289:C:/Renesas/e2studio_2021_01_workspace_RZA2M_ANPR/ANPR_RZA2M_EBK/src/tensorflow_lite/tensorflow/lite/kernels/internal\common.h ****                     int16_t* table, const int num) {
 290:C:/Renesas/e2studio_2021_01_workspace_RZA2M_ANPR/ANPR_RZA2M_EBK/src/tensorflow_lite/tensorflow/lite/kernels/internal\common.h ****   // size of table should equal to num + 1
 291:C:/Renesas/e2studio_2021_01_workspace_RZA2M_ANPR/ANPR_RZA2M_EBK/src/tensorflow_lite/tensorflow/lite/kernels/internal\common.h ****   // last element only for slope calculation
 292:C:/Renesas/e2studio_2021_01_workspace_RZA2M_ANPR/ANPR_RZA2M_EBK/src/tensorflow_lite/tensorflow/lite/kernels/internal\common.h ****   double step = (max - min) / (num - 1);
 293:C:/Renesas/e2studio_2021_01_workspace_RZA2M_ANPR/ANPR_RZA2M_EBK/src/tensorflow_lite/tensorflow/lite/kernels/internal\common.h ****   double half_step = step / 2.0;
 294:C:/Renesas/e2studio_2021_01_workspace_RZA2M_ANPR/ANPR_RZA2M_EBK/src/tensorflow_lite/tensorflow/lite/kernels/internal\common.h ****   for (int i = 0; i < num - 1; i++) {
 295:C:/Renesas/e2studio_2021_01_workspace_RZA2M_ANPR/ANPR_RZA2M_EBK/src/tensorflow_lite/tensorflow/lite/kernels/internal\common.h ****     double sample_val = TfLiteRound(func(min + i * step) * 32768.0);
 296:C:/Renesas/e2studio_2021_01_workspace_RZA2M_ANPR/ANPR_RZA2M_EBK/src/tensorflow_lite/tensorflow/lite/kernels/internal\common.h ****     double midpoint_interp_val =
 297:C:/Renesas/e2studio_2021_01_workspace_RZA2M_ANPR/ANPR_RZA2M_EBK/src/tensorflow_lite/tensorflow/lite/kernels/internal\common.h ****         TfLiteRound((func(min + (i + 1) * step) * 32768.0 +
 298:C:/Renesas/e2studio_2021_01_workspace_RZA2M_ANPR/ANPR_RZA2M_EBK/src/tensorflow_lite/tensorflow/lite/kernels/internal\common.h ****                      TfLiteRound(func(min + i * step) * 32768.0)) /
 299:C:/Renesas/e2studio_2021_01_workspace_RZA2M_ANPR/ANPR_RZA2M_EBK/src/tensorflow_lite/tensorflow/lite/kernels/internal\common.h ****                     2.0);
 300:C:/Renesas/e2studio_2021_01_workspace_RZA2M_ANPR/ANPR_RZA2M_EBK/src/tensorflow_lite/tensorflow/lite/kernels/internal\common.h ****     double midpoint_val =
 301:C:/Renesas/e2studio_2021_01_workspace_RZA2M_ANPR/ANPR_RZA2M_EBK/src/tensorflow_lite/tensorflow/lite/kernels/internal\common.h ****         TfLiteRound(func(min + i * step + half_step) * 32768.0);
 302:C:/Renesas/e2studio_2021_01_workspace_RZA2M_ANPR/ANPR_RZA2M_EBK/src/tensorflow_lite/tensorflow/lite/kernels/internal\common.h ****     double midpoint_err = midpoint_interp_val - midpoint_val;
 303:C:/Renesas/e2studio_2021_01_workspace_RZA2M_ANPR/ANPR_RZA2M_EBK/src/tensorflow_lite/tensorflow/lite/kernels/internal\common.h ****     double bias = TfLiteRound(midpoint_err / 2.0);
 304:C:/Renesas/e2studio_2021_01_workspace_RZA2M_ANPR/ANPR_RZA2M_EBK/src/tensorflow_lite/tensorflow/lite/kernels/internal\common.h ****     table[i] = std::min<double>(std::max<double>(sample_val - bias, -32768.0),
 305:C:/Renesas/e2studio_2021_01_workspace_RZA2M_ANPR/ANPR_RZA2M_EBK/src/tensorflow_lite/tensorflow/lite/kernels/internal\common.h ****                                 32767.0);
 306:C:/Renesas/e2studio_2021_01_workspace_RZA2M_ANPR/ANPR_RZA2M_EBK/src/tensorflow_lite/tensorflow/lite/kernels/internal\common.h ****   }
 307:C:/Renesas/e2studio_2021_01_workspace_RZA2M_ANPR/ANPR_RZA2M_EBK/src/tensorflow_lite/tensorflow/lite/kernels/internal\common.h ****   table[num - 1] = std::min<double>(
 308:C:/Renesas/e2studio_2021_01_workspace_RZA2M_ANPR/ANPR_RZA2M_EBK/src/tensorflow_lite/tensorflow/lite/kernels/internal\common.h ****       std::max<double>(TfLiteRound(func(max) * 32768.0), -32768.0), 32767.0);
 309:C:/Renesas/e2studio_2021_01_workspace_RZA2M_ANPR/ANPR_RZA2M_EBK/src/tensorflow_lite/tensorflow/lite/kernels/internal\common.h **** }
 310:C:/Renesas/e2studio_2021_01_workspace_RZA2M_ANPR/ANPR_RZA2M_EBK/src/tensorflow_lite/tensorflow/lite/kernels/internal\common.h **** 
 311:C:/Renesas/e2studio_2021_01_workspace_RZA2M_ANPR/ANPR_RZA2M_EBK/src/tensorflow_lite/tensorflow/lite/kernels/internal\common.h **** // generate INT16 LUT for function(), e.g., table exp(x) and 1/(1+x) used in
 312:C:/Renesas/e2studio_2021_01_workspace_RZA2M_ANPR/ANPR_RZA2M_EBK/src/tensorflow_lite/tensorflow/lite/kernels/internal\common.h **** // softmax
 313:C:/Renesas/e2studio_2021_01_workspace_RZA2M_ANPR/ANPR_RZA2M_EBK/src/tensorflow_lite/tensorflow/lite/kernels/internal\common.h **** // func - the function to build the LUT for (e.g exp(x))
 314:C:/Renesas/e2studio_2021_01_workspace_RZA2M_ANPR/ANPR_RZA2M_EBK/src/tensorflow_lite/tensorflow/lite/kernels/internal\common.h **** // min,max - table limits
 315:C:/Renesas/e2studio_2021_01_workspace_RZA2M_ANPR/ANPR_RZA2M_EBK/src/tensorflow_lite/tensorflow/lite/kernels/internal\common.h **** // table - pointer to buffer
 316:C:/Renesas/e2studio_2021_01_workspace_RZA2M_ANPR/ANPR_RZA2M_EBK/src/tensorflow_lite/tensorflow/lite/kernels/internal\common.h **** // num - number of elements in the LUT
 317:C:/Renesas/e2studio_2021_01_workspace_RZA2M_ANPR/ANPR_RZA2M_EBK/src/tensorflow_lite/tensorflow/lite/kernels/internal\common.h **** inline void gen_lut(float (*func)(float), float min, float max, int16_t* table,
 318:C:/Renesas/e2studio_2021_01_workspace_RZA2M_ANPR/ANPR_RZA2M_EBK/src/tensorflow_lite/tensorflow/lite/kernels/internal\common.h ****                     const int num) {
 319:C:/Renesas/e2studio_2021_01_workspace_RZA2M_ANPR/ANPR_RZA2M_EBK/src/tensorflow_lite/tensorflow/lite/kernels/internal\common.h ****   // size of table should equal to num + 1
 320:C:/Renesas/e2studio_2021_01_workspace_RZA2M_ANPR/ANPR_RZA2M_EBK/src/tensorflow_lite/tensorflow/lite/kernels/internal\common.h ****   // last element only for slope calculation
 321:C:/Renesas/e2studio_2021_01_workspace_RZA2M_ANPR/ANPR_RZA2M_EBK/src/tensorflow_lite/tensorflow/lite/kernels/internal\common.h ****   float step = (max - min) / (num - 1);
 322:C:/Renesas/e2studio_2021_01_workspace_RZA2M_ANPR/ANPR_RZA2M_EBK/src/tensorflow_lite/tensorflow/lite/kernels/internal\common.h ****   float half_step = step / 2.0f;
 323:C:/Renesas/e2studio_2021_01_workspace_RZA2M_ANPR/ANPR_RZA2M_EBK/src/tensorflow_lite/tensorflow/lite/kernels/internal\common.h ****   for (int i = 0; i < num - 1; i++) {
 324:C:/Renesas/e2studio_2021_01_workspace_RZA2M_ANPR/ANPR_RZA2M_EBK/src/tensorflow_lite/tensorflow/lite/kernels/internal\common.h ****     float sample_val = TfLiteRound(func(min + i * step) * 32768.0f);
 325:C:/Renesas/e2studio_2021_01_workspace_RZA2M_ANPR/ANPR_RZA2M_EBK/src/tensorflow_lite/tensorflow/lite/kernels/internal\common.h ****     float midpoint_interp_val =
 326:C:/Renesas/e2studio_2021_01_workspace_RZA2M_ANPR/ANPR_RZA2M_EBK/src/tensorflow_lite/tensorflow/lite/kernels/internal\common.h ****         TfLiteRound((func(min + (i + 1) * step) * 32768.0f +
 327:C:/Renesas/e2studio_2021_01_workspace_RZA2M_ANPR/ANPR_RZA2M_EBK/src/tensorflow_lite/tensorflow/lite/kernels/internal\common.h ****                      TfLiteRound(func(min + i * step) * 32768.0f)) /
 328:C:/Renesas/e2studio_2021_01_workspace_RZA2M_ANPR/ANPR_RZA2M_EBK/src/tensorflow_lite/tensorflow/lite/kernels/internal\common.h ****                     2.0f);
 329:C:/Renesas/e2studio_2021_01_workspace_RZA2M_ANPR/ANPR_RZA2M_EBK/src/tensorflow_lite/tensorflow/lite/kernels/internal\common.h ****     float midpoint_val =
 330:C:/Renesas/e2studio_2021_01_workspace_RZA2M_ANPR/ANPR_RZA2M_EBK/src/tensorflow_lite/tensorflow/lite/kernels/internal\common.h ****         TfLiteRound(func(min + i * step + half_step) * 32768.0f);
 331:C:/Renesas/e2studio_2021_01_workspace_RZA2M_ANPR/ANPR_RZA2M_EBK/src/tensorflow_lite/tensorflow/lite/kernels/internal\common.h ****     float midpoint_err = midpoint_interp_val - midpoint_val;
 332:C:/Renesas/e2studio_2021_01_workspace_RZA2M_ANPR/ANPR_RZA2M_EBK/src/tensorflow_lite/tensorflow/lite/kernels/internal\common.h ****     float bias = TfLiteRound(midpoint_err / 2.0f);
 333:C:/Renesas/e2studio_2021_01_workspace_RZA2M_ANPR/ANPR_RZA2M_EBK/src/tensorflow_lite/tensorflow/lite/kernels/internal\common.h ****     table[i] = std::min<float>(std::max<float>(sample_val - bias, -32768.0f),
 334:C:/Renesas/e2studio_2021_01_workspace_RZA2M_ANPR/ANPR_RZA2M_EBK/src/tensorflow_lite/tensorflow/lite/kernels/internal\common.h ****                                32767.0f);
 335:C:/Renesas/e2studio_2021_01_workspace_RZA2M_ANPR/ANPR_RZA2M_EBK/src/tensorflow_lite/tensorflow/lite/kernels/internal\common.h ****   }
 336:C:/Renesas/e2studio_2021_01_workspace_RZA2M_ANPR/ANPR_RZA2M_EBK/src/tensorflow_lite/tensorflow/lite/kernels/internal\common.h ****   table[num - 1] = std::min<float>(
 337:C:/Renesas/e2studio_2021_01_workspace_RZA2M_ANPR/ANPR_RZA2M_EBK/src/tensorflow_lite/tensorflow/lite/kernels/internal\common.h ****       std::max<float>(TfLiteRound(func(max) * 32768.0f), -32768.0f), 32767.0f);
 338:C:/Renesas/e2studio_2021_01_workspace_RZA2M_ANPR/ANPR_RZA2M_EBK/src/tensorflow_lite/tensorflow/lite/kernels/internal\common.h **** }
 339:C:/Renesas/e2studio_2021_01_workspace_RZA2M_ANPR/ANPR_RZA2M_EBK/src/tensorflow_lite/tensorflow/lite/kernels/internal\common.h **** 
 340:C:/Renesas/e2studio_2021_01_workspace_RZA2M_ANPR/ANPR_RZA2M_EBK/src/tensorflow_lite/tensorflow/lite/kernels/internal\common.h **** // int16_t func table lookup, e.g., lookup exp() and 1/(1+x) used in softmax
 341:C:/Renesas/e2studio_2021_01_workspace_RZA2M_ANPR/ANPR_RZA2M_EBK/src/tensorflow_lite/tensorflow/lite/kernels/internal\common.h **** inline int16_t generic_int16_table_lookup(int16_t value, const int16_t* lut) {
 342:C:/Renesas/e2studio_2021_01_workspace_RZA2M_ANPR/ANPR_RZA2M_EBK/src/tensorflow_lite/tensorflow/lite/kernels/internal\common.h ****   // 512 base value, lut[513] only for calculate slope
 343:C:/Renesas/e2studio_2021_01_workspace_RZA2M_ANPR/ANPR_RZA2M_EBK/src/tensorflow_lite/tensorflow/lite/kernels/internal\common.h ****   uint16_t index = static_cast<uint16_t>(256 + (value >> 7));
 344:C:/Renesas/e2studio_2021_01_workspace_RZA2M_ANPR/ANPR_RZA2M_EBK/src/tensorflow_lite/tensorflow/lite/kernels/internal\common.h ****   assert(index < 512 && "LUT index out of range.");
 345:C:/Renesas/e2studio_2021_01_workspace_RZA2M_ANPR/ANPR_RZA2M_EBK/src/tensorflow_lite/tensorflow/lite/kernels/internal\common.h ****   int16_t offset = value & 0x7f;
 346:C:/Renesas/e2studio_2021_01_workspace_RZA2M_ANPR/ANPR_RZA2M_EBK/src/tensorflow_lite/tensorflow/lite/kernels/internal\common.h **** 
 347:C:/Renesas/e2studio_2021_01_workspace_RZA2M_ANPR/ANPR_RZA2M_EBK/src/tensorflow_lite/tensorflow/lite/kernels/internal\common.h ****   // base and slope are Q0.15
 348:C:/Renesas/e2studio_2021_01_workspace_RZA2M_ANPR/ANPR_RZA2M_EBK/src/tensorflow_lite/tensorflow/lite/kernels/internal\common.h ****   int16_t base = lut[index];
 349:C:/Renesas/e2studio_2021_01_workspace_RZA2M_ANPR/ANPR_RZA2M_EBK/src/tensorflow_lite/tensorflow/lite/kernels/internal\common.h ****   int16_t slope = lut[index + 1] - lut[index];
 350:C:/Renesas/e2studio_2021_01_workspace_RZA2M_ANPR/ANPR_RZA2M_EBK/src/tensorflow_lite/tensorflow/lite/kernels/internal\common.h **** 
 351:C:/Renesas/e2studio_2021_01_workspace_RZA2M_ANPR/ANPR_RZA2M_EBK/src/tensorflow_lite/tensorflow/lite/kernels/internal\common.h ****   // Q0.15 * Q0.7 = Q0.22
 352:C:/Renesas/e2studio_2021_01_workspace_RZA2M_ANPR/ANPR_RZA2M_EBK/src/tensorflow_lite/tensorflow/lite/kernels/internal\common.h ****   // Round and convert from Q0.22 to Q0.15
 353:C:/Renesas/e2studio_2021_01_workspace_RZA2M_ANPR/ANPR_RZA2M_EBK/src/tensorflow_lite/tensorflow/lite/kernels/internal\common.h ****   int32_t delta = (static_cast<int32_t>(slope) * offset + 64) >> 7;
 354:C:/Renesas/e2studio_2021_01_workspace_RZA2M_ANPR/ANPR_RZA2M_EBK/src/tensorflow_lite/tensorflow/lite/kernels/internal\common.h **** 
 355:C:/Renesas/e2studio_2021_01_workspace_RZA2M_ANPR/ANPR_RZA2M_EBK/src/tensorflow_lite/tensorflow/lite/kernels/internal\common.h ****   // Q0.15 + Q0.15
 356:C:/Renesas/e2studio_2021_01_workspace_RZA2M_ANPR/ANPR_RZA2M_EBK/src/tensorflow_lite/tensorflow/lite/kernels/internal\common.h ****   return base + delta;
 357:C:/Renesas/e2studio_2021_01_workspace_RZA2M_ANPR/ANPR_RZA2M_EBK/src/tensorflow_lite/tensorflow/lite/kernels/internal\common.h **** }
 358:C:/Renesas/e2studio_2021_01_workspace_RZA2M_ANPR/ANPR_RZA2M_EBK/src/tensorflow_lite/tensorflow/lite/kernels/internal\common.h **** 
 359:C:/Renesas/e2studio_2021_01_workspace_RZA2M_ANPR/ANPR_RZA2M_EBK/src/tensorflow_lite/tensorflow/lite/kernels/internal\common.h **** // Table of sigmoid(i/24) at 0.16 format - 256 elements.
 360:C:/Renesas/e2studio_2021_01_workspace_RZA2M_ANPR/ANPR_RZA2M_EBK/src/tensorflow_lite/tensorflow/lite/kernels/internal\common.h **** 
 361:C:/Renesas/e2studio_2021_01_workspace_RZA2M_ANPR/ANPR_RZA2M_EBK/src/tensorflow_lite/tensorflow/lite/kernels/internal\common.h **** // We use combined sigmoid and tanh look-up table, since
 362:C:/Renesas/e2studio_2021_01_workspace_RZA2M_ANPR/ANPR_RZA2M_EBK/src/tensorflow_lite/tensorflow/lite/kernels/internal\common.h **** // tanh(x) = 2*sigmoid(2*x) -1.
 363:C:/Renesas/e2studio_2021_01_workspace_RZA2M_ANPR/ANPR_RZA2M_EBK/src/tensorflow_lite/tensorflow/lite/kernels/internal\common.h **** // Both functions are symmetric, so the LUT table is only needed
 364:C:/Renesas/e2studio_2021_01_workspace_RZA2M_ANPR/ANPR_RZA2M_EBK/src/tensorflow_lite/tensorflow/lite/kernels/internal\common.h **** // for the absolute value of the input.
 365:C:/Renesas/e2studio_2021_01_workspace_RZA2M_ANPR/ANPR_RZA2M_EBK/src/tensorflow_lite/tensorflow/lite/kernels/internal\common.h **** static const uint16_t sigmoid_table_uint16[256] = {
 366:C:/Renesas/e2studio_2021_01_workspace_RZA2M_ANPR/ANPR_RZA2M_EBK/src/tensorflow_lite/tensorflow/lite/kernels/internal\common.h ****     32768, 33451, 34133, 34813, 35493, 36169, 36843, 37513, 38180, 38841, 39498,
 367:C:/Renesas/e2studio_2021_01_workspace_RZA2M_ANPR/ANPR_RZA2M_EBK/src/tensorflow_lite/tensorflow/lite/kernels/internal\common.h ****     40149, 40794, 41432, 42064, 42688, 43304, 43912, 44511, 45102, 45683, 46255,
 368:C:/Renesas/e2studio_2021_01_workspace_RZA2M_ANPR/ANPR_RZA2M_EBK/src/tensorflow_lite/tensorflow/lite/kernels/internal\common.h ****     46817, 47369, 47911, 48443, 48964, 49475, 49975, 50464, 50942, 51409, 51865,
 369:C:/Renesas/e2studio_2021_01_workspace_RZA2M_ANPR/ANPR_RZA2M_EBK/src/tensorflow_lite/tensorflow/lite/kernels/internal\common.h ****     52311, 52745, 53169, 53581, 53983, 54374, 54755, 55125, 55485, 55834, 56174,
 370:C:/Renesas/e2studio_2021_01_workspace_RZA2M_ANPR/ANPR_RZA2M_EBK/src/tensorflow_lite/tensorflow/lite/kernels/internal\common.h ****     56503, 56823, 57133, 57433, 57724, 58007, 58280, 58544, 58800, 59048, 59288,
 371:C:/Renesas/e2studio_2021_01_workspace_RZA2M_ANPR/ANPR_RZA2M_EBK/src/tensorflow_lite/tensorflow/lite/kernels/internal\common.h ****     59519, 59743, 59959, 60168, 60370, 60565, 60753, 60935, 61110, 61279, 61441,
 372:C:/Renesas/e2studio_2021_01_workspace_RZA2M_ANPR/ANPR_RZA2M_EBK/src/tensorflow_lite/tensorflow/lite/kernels/internal\common.h ****     61599, 61750, 61896, 62036, 62172, 62302, 62428, 62549, 62666, 62778, 62886,
 373:C:/Renesas/e2studio_2021_01_workspace_RZA2M_ANPR/ANPR_RZA2M_EBK/src/tensorflow_lite/tensorflow/lite/kernels/internal\common.h ****     62990, 63090, 63186, 63279, 63368, 63454, 63536, 63615, 63691, 63765, 63835,
 374:C:/Renesas/e2studio_2021_01_workspace_RZA2M_ANPR/ANPR_RZA2M_EBK/src/tensorflow_lite/tensorflow/lite/kernels/internal\common.h ****     63903, 63968, 64030, 64090, 64148, 64204, 64257, 64308, 64357, 64405, 64450,
 375:C:/Renesas/e2studio_2021_01_workspace_RZA2M_ANPR/ANPR_RZA2M_EBK/src/tensorflow_lite/tensorflow/lite/kernels/internal\common.h ****     64494, 64536, 64576, 64614, 64652, 64687, 64721, 64754, 64786, 64816, 64845,
 376:C:/Renesas/e2studio_2021_01_workspace_RZA2M_ANPR/ANPR_RZA2M_EBK/src/tensorflow_lite/tensorflow/lite/kernels/internal\common.h ****     64873, 64900, 64926, 64950, 64974, 64997, 65019, 65039, 65060, 65079, 65097,
 377:C:/Renesas/e2studio_2021_01_workspace_RZA2M_ANPR/ANPR_RZA2M_EBK/src/tensorflow_lite/tensorflow/lite/kernels/internal\common.h ****     65115, 65132, 65149, 65164, 65179, 65194, 65208, 65221, 65234, 65246, 65258,
 378:C:/Renesas/e2studio_2021_01_workspace_RZA2M_ANPR/ANPR_RZA2M_EBK/src/tensorflow_lite/tensorflow/lite/kernels/internal\common.h ****     65269, 65280, 65291, 65301, 65310, 65319, 65328, 65337, 65345, 65352, 65360,
 379:C:/Renesas/e2studio_2021_01_workspace_RZA2M_ANPR/ANPR_RZA2M_EBK/src/tensorflow_lite/tensorflow/lite/kernels/internal\common.h ****     65367, 65374, 65381, 65387, 65393, 65399, 65404, 65410, 65415, 65420, 65425,
 380:C:/Renesas/e2studio_2021_01_workspace_RZA2M_ANPR/ANPR_RZA2M_EBK/src/tensorflow_lite/tensorflow/lite/kernels/internal\common.h ****     65429, 65433, 65438, 65442, 65445, 65449, 65453, 65456, 65459, 65462, 65465,
 381:C:/Renesas/e2studio_2021_01_workspace_RZA2M_ANPR/ANPR_RZA2M_EBK/src/tensorflow_lite/tensorflow/lite/kernels/internal\common.h ****     65468, 65471, 65474, 65476, 65479, 65481, 65483, 65485, 65488, 65489, 65491,
 382:C:/Renesas/e2studio_2021_01_workspace_RZA2M_ANPR/ANPR_RZA2M_EBK/src/tensorflow_lite/tensorflow/lite/kernels/internal\common.h ****     65493, 65495, 65497, 65498, 65500, 65501, 65503, 65504, 65505, 65507, 65508,
 383:C:/Renesas/e2studio_2021_01_workspace_RZA2M_ANPR/ANPR_RZA2M_EBK/src/tensorflow_lite/tensorflow/lite/kernels/internal\common.h ****     65509, 65510, 65511, 65512, 65513, 65514, 65515, 65516, 65517, 65517, 65518,
 384:C:/Renesas/e2studio_2021_01_workspace_RZA2M_ANPR/ANPR_RZA2M_EBK/src/tensorflow_lite/tensorflow/lite/kernels/internal\common.h ****     65519, 65520, 65520, 65521, 65522, 65522, 65523, 65523, 65524, 65524, 65525,
 385:C:/Renesas/e2studio_2021_01_workspace_RZA2M_ANPR/ANPR_RZA2M_EBK/src/tensorflow_lite/tensorflow/lite/kernels/internal\common.h ****     65525, 65526, 65526, 65526, 65527, 65527, 65528, 65528, 65528, 65529, 65529,
 386:C:/Renesas/e2studio_2021_01_workspace_RZA2M_ANPR/ANPR_RZA2M_EBK/src/tensorflow_lite/tensorflow/lite/kernels/internal\common.h ****     65529, 65529, 65530, 65530, 65530, 65530, 65531, 65531, 65531, 65531, 65531,
 387:C:/Renesas/e2studio_2021_01_workspace_RZA2M_ANPR/ANPR_RZA2M_EBK/src/tensorflow_lite/tensorflow/lite/kernels/internal\common.h ****     65532, 65532, 65532, 65532, 65532, 65532, 65533, 65533, 65533, 65533, 65533,
 388:C:/Renesas/e2studio_2021_01_workspace_RZA2M_ANPR/ANPR_RZA2M_EBK/src/tensorflow_lite/tensorflow/lite/kernels/internal\common.h ****     65533, 65533, 65533, 65534, 65534, 65534, 65534, 65534, 65534, 65534, 65534,
 389:C:/Renesas/e2studio_2021_01_workspace_RZA2M_ANPR/ANPR_RZA2M_EBK/src/tensorflow_lite/tensorflow/lite/kernels/internal\common.h ****     65534, 65534, 65535};
 390:C:/Renesas/e2studio_2021_01_workspace_RZA2M_ANPR/ANPR_RZA2M_EBK/src/tensorflow_lite/tensorflow/lite/kernels/internal\common.h **** 
 391:C:/Renesas/e2studio_2021_01_workspace_RZA2M_ANPR/ANPR_RZA2M_EBK/src/tensorflow_lite/tensorflow/lite/kernels/internal\common.h **** // TODO(b/77858996): Add these to gemmlowp.
 392:C:/Renesas/e2studio_2021_01_workspace_RZA2M_ANPR/ANPR_RZA2M_EBK/src/tensorflow_lite/tensorflow/lite/kernels/internal\common.h **** template <typename IntegerType>
 393:C:/Renesas/e2studio_2021_01_workspace_RZA2M_ANPR/ANPR_RZA2M_EBK/src/tensorflow_lite/tensorflow/lite/kernels/internal\common.h **** IntegerType SaturatingAddNonGemmlowp(IntegerType a, IntegerType b) {
 394:C:/Renesas/e2studio_2021_01_workspace_RZA2M_ANPR/ANPR_RZA2M_EBK/src/tensorflow_lite/tensorflow/lite/kernels/internal\common.h ****   static_assert(std::is_same<IntegerType, void>::value, "unimplemented");
 395:C:/Renesas/e2studio_2021_01_workspace_RZA2M_ANPR/ANPR_RZA2M_EBK/src/tensorflow_lite/tensorflow/lite/kernels/internal\common.h ****   return a;
 396:C:/Renesas/e2studio_2021_01_workspace_RZA2M_ANPR/ANPR_RZA2M_EBK/src/tensorflow_lite/tensorflow/lite/kernels/internal\common.h **** }
 397:C:/Renesas/e2studio_2021_01_workspace_RZA2M_ANPR/ANPR_RZA2M_EBK/src/tensorflow_lite/tensorflow/lite/kernels/internal\common.h **** 
 398:C:/Renesas/e2studio_2021_01_workspace_RZA2M_ANPR/ANPR_RZA2M_EBK/src/tensorflow_lite/tensorflow/lite/kernels/internal\common.h **** template <>
 399:C:/Renesas/e2studio_2021_01_workspace_RZA2M_ANPR/ANPR_RZA2M_EBK/src/tensorflow_lite/tensorflow/lite/kernels/internal\common.h **** inline std::int32_t SaturatingAddNonGemmlowp(std::int32_t a, std::int32_t b) {
 400:C:/Renesas/e2studio_2021_01_workspace_RZA2M_ANPR/ANPR_RZA2M_EBK/src/tensorflow_lite/tensorflow/lite/kernels/internal\common.h ****   std::int64_t a64 = a;
 401:C:/Renesas/e2studio_2021_01_workspace_RZA2M_ANPR/ANPR_RZA2M_EBK/src/tensorflow_lite/tensorflow/lite/kernels/internal\common.h ****   std::int64_t b64 = b;
 402:C:/Renesas/e2studio_2021_01_workspace_RZA2M_ANPR/ANPR_RZA2M_EBK/src/tensorflow_lite/tensorflow/lite/kernels/internal\common.h ****   std::int64_t sum = a64 + b64;
 403:C:/Renesas/e2studio_2021_01_workspace_RZA2M_ANPR/ANPR_RZA2M_EBK/src/tensorflow_lite/tensorflow/lite/kernels/internal\common.h ****   return static_cast<std::int32_t>(std::min(
 404:C:/Renesas/e2studio_2021_01_workspace_RZA2M_ANPR/ANPR_RZA2M_EBK/src/tensorflow_lite/tensorflow/lite/kernels/internal\common.h ****       static_cast<std::int64_t>(std::numeric_limits<std::int32_t>::max()),
 405:C:/Renesas/e2studio_2021_01_workspace_RZA2M_ANPR/ANPR_RZA2M_EBK/src/tensorflow_lite/tensorflow/lite/kernels/internal\common.h ****       std::max(
 406:C:/Renesas/e2studio_2021_01_workspace_RZA2M_ANPR/ANPR_RZA2M_EBK/src/tensorflow_lite/tensorflow/lite/kernels/internal\common.h ****           static_cast<std::int64_t>(std::numeric_limits<std::int32_t>::min()),
 407:C:/Renesas/e2studio_2021_01_workspace_RZA2M_ANPR/ANPR_RZA2M_EBK/src/tensorflow_lite/tensorflow/lite/kernels/internal\common.h ****           sum)));
 408:C:/Renesas/e2studio_2021_01_workspace_RZA2M_ANPR/ANPR_RZA2M_EBK/src/tensorflow_lite/tensorflow/lite/kernels/internal\common.h **** }
 409:C:/Renesas/e2studio_2021_01_workspace_RZA2M_ANPR/ANPR_RZA2M_EBK/src/tensorflow_lite/tensorflow/lite/kernels/internal\common.h **** 
 410:C:/Renesas/e2studio_2021_01_workspace_RZA2M_ANPR/ANPR_RZA2M_EBK/src/tensorflow_lite/tensorflow/lite/kernels/internal\common.h **** template <typename tRawType, int tIntegerBits>
 411:C:/Renesas/e2studio_2021_01_workspace_RZA2M_ANPR/ANPR_RZA2M_EBK/src/tensorflow_lite/tensorflow/lite/kernels/internal\common.h **** gemmlowp::FixedPoint<tRawType, tIntegerBits> SaturatingAddNonGemmlowp(
 412:C:/Renesas/e2studio_2021_01_workspace_RZA2M_ANPR/ANPR_RZA2M_EBK/src/tensorflow_lite/tensorflow/lite/kernels/internal\common.h ****     gemmlowp::FixedPoint<tRawType, tIntegerBits> a,
 413:C:/Renesas/e2studio_2021_01_workspace_RZA2M_ANPR/ANPR_RZA2M_EBK/src/tensorflow_lite/tensorflow/lite/kernels/internal\common.h ****     gemmlowp::FixedPoint<tRawType, tIntegerBits> b) {
 414:C:/Renesas/e2studio_2021_01_workspace_RZA2M_ANPR/ANPR_RZA2M_EBK/src/tensorflow_lite/tensorflow/lite/kernels/internal\common.h ****   return gemmlowp::FixedPoint<tRawType, tIntegerBits>::FromRaw(
 415:C:/Renesas/e2studio_2021_01_workspace_RZA2M_ANPR/ANPR_RZA2M_EBK/src/tensorflow_lite/tensorflow/lite/kernels/internal\common.h ****       SaturatingAddNonGemmlowp(a.raw(), b.raw()));
 416:C:/Renesas/e2studio_2021_01_workspace_RZA2M_ANPR/ANPR_RZA2M_EBK/src/tensorflow_lite/tensorflow/lite/kernels/internal\common.h **** }
 417:C:/Renesas/e2studio_2021_01_workspace_RZA2M_ANPR/ANPR_RZA2M_EBK/src/tensorflow_lite/tensorflow/lite/kernels/internal\common.h **** 
 418:C:/Renesas/e2studio_2021_01_workspace_RZA2M_ANPR/ANPR_RZA2M_EBK/src/tensorflow_lite/tensorflow/lite/kernels/internal\common.h **** template <typename IntegerType>
 419:C:/Renesas/e2studio_2021_01_workspace_RZA2M_ANPR/ANPR_RZA2M_EBK/src/tensorflow_lite/tensorflow/lite/kernels/internal\common.h **** IntegerType SaturatingSub(IntegerType a, IntegerType b) {
 420:C:/Renesas/e2studio_2021_01_workspace_RZA2M_ANPR/ANPR_RZA2M_EBK/src/tensorflow_lite/tensorflow/lite/kernels/internal\common.h ****   static_assert(std::is_same<IntegerType, void>::value, "unimplemented");
 421:C:/Renesas/e2studio_2021_01_workspace_RZA2M_ANPR/ANPR_RZA2M_EBK/src/tensorflow_lite/tensorflow/lite/kernels/internal\common.h ****   return a;
 422:C:/Renesas/e2studio_2021_01_workspace_RZA2M_ANPR/ANPR_RZA2M_EBK/src/tensorflow_lite/tensorflow/lite/kernels/internal\common.h **** }
 423:C:/Renesas/e2studio_2021_01_workspace_RZA2M_ANPR/ANPR_RZA2M_EBK/src/tensorflow_lite/tensorflow/lite/kernels/internal\common.h **** 
 424:C:/Renesas/e2studio_2021_01_workspace_RZA2M_ANPR/ANPR_RZA2M_EBK/src/tensorflow_lite/tensorflow/lite/kernels/internal\common.h **** template <>
 425:C:/Renesas/e2studio_2021_01_workspace_RZA2M_ANPR/ANPR_RZA2M_EBK/src/tensorflow_lite/tensorflow/lite/kernels/internal\common.h **** inline std::int16_t SaturatingSub(std::int16_t a, std::int16_t b) {
 426:C:/Renesas/e2studio_2021_01_workspace_RZA2M_ANPR/ANPR_RZA2M_EBK/src/tensorflow_lite/tensorflow/lite/kernels/internal\common.h ****   std::int32_t a32 = a;
 427:C:/Renesas/e2studio_2021_01_workspace_RZA2M_ANPR/ANPR_RZA2M_EBK/src/tensorflow_lite/tensorflow/lite/kernels/internal\common.h ****   std::int32_t b32 = b;
 428:C:/Renesas/e2studio_2021_01_workspace_RZA2M_ANPR/ANPR_RZA2M_EBK/src/tensorflow_lite/tensorflow/lite/kernels/internal\common.h ****   std::int32_t diff = a32 - b32;
 429:C:/Renesas/e2studio_2021_01_workspace_RZA2M_ANPR/ANPR_RZA2M_EBK/src/tensorflow_lite/tensorflow/lite/kernels/internal\common.h ****   return static_cast<std::int16_t>(
 430:C:/Renesas/e2studio_2021_01_workspace_RZA2M_ANPR/ANPR_RZA2M_EBK/src/tensorflow_lite/tensorflow/lite/kernels/internal\common.h ****       std::min(static_cast<int32_t>(32767),
 431:C:/Renesas/e2studio_2021_01_workspace_RZA2M_ANPR/ANPR_RZA2M_EBK/src/tensorflow_lite/tensorflow/lite/kernels/internal\common.h ****                std::max(static_cast<int32_t>(-32768), diff)));
 432:C:/Renesas/e2studio_2021_01_workspace_RZA2M_ANPR/ANPR_RZA2M_EBK/src/tensorflow_lite/tensorflow/lite/kernels/internal\common.h **** }
 433:C:/Renesas/e2studio_2021_01_workspace_RZA2M_ANPR/ANPR_RZA2M_EBK/src/tensorflow_lite/tensorflow/lite/kernels/internal\common.h **** 
 434:C:/Renesas/e2studio_2021_01_workspace_RZA2M_ANPR/ANPR_RZA2M_EBK/src/tensorflow_lite/tensorflow/lite/kernels/internal\common.h **** template <>
 435:C:/Renesas/e2studio_2021_01_workspace_RZA2M_ANPR/ANPR_RZA2M_EBK/src/tensorflow_lite/tensorflow/lite/kernels/internal\common.h **** inline std::int32_t SaturatingSub(std::int32_t a, std::int32_t b) {
 436:C:/Renesas/e2studio_2021_01_workspace_RZA2M_ANPR/ANPR_RZA2M_EBK/src/tensorflow_lite/tensorflow/lite/kernels/internal\common.h ****   std::int64_t a64 = a;
 437:C:/Renesas/e2studio_2021_01_workspace_RZA2M_ANPR/ANPR_RZA2M_EBK/src/tensorflow_lite/tensorflow/lite/kernels/internal\common.h ****   std::int64_t b64 = b;
 438:C:/Renesas/e2studio_2021_01_workspace_RZA2M_ANPR/ANPR_RZA2M_EBK/src/tensorflow_lite/tensorflow/lite/kernels/internal\common.h ****   std::int64_t diff = a64 - b64;
 439:C:/Renesas/e2studio_2021_01_workspace_RZA2M_ANPR/ANPR_RZA2M_EBK/src/tensorflow_lite/tensorflow/lite/kernels/internal\common.h ****   return static_cast<std::int32_t>(std::min(
 440:C:/Renesas/e2studio_2021_01_workspace_RZA2M_ANPR/ANPR_RZA2M_EBK/src/tensorflow_lite/tensorflow/lite/kernels/internal\common.h ****       static_cast<std::int64_t>(std::numeric_limits<std::int32_t>::max()),
 441:C:/Renesas/e2studio_2021_01_workspace_RZA2M_ANPR/ANPR_RZA2M_EBK/src/tensorflow_lite/tensorflow/lite/kernels/internal\common.h ****       std::max(
 442:C:/Renesas/e2studio_2021_01_workspace_RZA2M_ANPR/ANPR_RZA2M_EBK/src/tensorflow_lite/tensorflow/lite/kernels/internal\common.h ****           static_cast<std::int64_t>(std::numeric_limits<std::int32_t>::min()),
 443:C:/Renesas/e2studio_2021_01_workspace_RZA2M_ANPR/ANPR_RZA2M_EBK/src/tensorflow_lite/tensorflow/lite/kernels/internal\common.h ****           diff)));
 444:C:/Renesas/e2studio_2021_01_workspace_RZA2M_ANPR/ANPR_RZA2M_EBK/src/tensorflow_lite/tensorflow/lite/kernels/internal\common.h **** }
 445:C:/Renesas/e2studio_2021_01_workspace_RZA2M_ANPR/ANPR_RZA2M_EBK/src/tensorflow_lite/tensorflow/lite/kernels/internal\common.h **** 
 446:C:/Renesas/e2studio_2021_01_workspace_RZA2M_ANPR/ANPR_RZA2M_EBK/src/tensorflow_lite/tensorflow/lite/kernels/internal\common.h **** template <typename tRawType, int tIntegerBits>
 447:C:/Renesas/e2studio_2021_01_workspace_RZA2M_ANPR/ANPR_RZA2M_EBK/src/tensorflow_lite/tensorflow/lite/kernels/internal\common.h **** gemmlowp::FixedPoint<tRawType, tIntegerBits> SaturatingSub(
 448:C:/Renesas/e2studio_2021_01_workspace_RZA2M_ANPR/ANPR_RZA2M_EBK/src/tensorflow_lite/tensorflow/lite/kernels/internal\common.h ****     gemmlowp::FixedPoint<tRawType, tIntegerBits> a,
 449:C:/Renesas/e2studio_2021_01_workspace_RZA2M_ANPR/ANPR_RZA2M_EBK/src/tensorflow_lite/tensorflow/lite/kernels/internal\common.h ****     gemmlowp::FixedPoint<tRawType, tIntegerBits> b) {
 450:C:/Renesas/e2studio_2021_01_workspace_RZA2M_ANPR/ANPR_RZA2M_EBK/src/tensorflow_lite/tensorflow/lite/kernels/internal\common.h ****   return gemmlowp::FixedPoint<tRawType, tIntegerBits>::FromRaw(
 451:C:/Renesas/e2studio_2021_01_workspace_RZA2M_ANPR/ANPR_RZA2M_EBK/src/tensorflow_lite/tensorflow/lite/kernels/internal\common.h ****       SaturatingSub(a.raw(), b.raw()));
 452:C:/Renesas/e2studio_2021_01_workspace_RZA2M_ANPR/ANPR_RZA2M_EBK/src/tensorflow_lite/tensorflow/lite/kernels/internal\common.h **** }
 453:C:/Renesas/e2studio_2021_01_workspace_RZA2M_ANPR/ANPR_RZA2M_EBK/src/tensorflow_lite/tensorflow/lite/kernels/internal\common.h **** // End section to be moved to gemmlowp.
 454:C:/Renesas/e2studio_2021_01_workspace_RZA2M_ANPR/ANPR_RZA2M_EBK/src/tensorflow_lite/tensorflow/lite/kernels/internal\common.h **** 
 455:C:/Renesas/e2studio_2021_01_workspace_RZA2M_ANPR/ANPR_RZA2M_EBK/src/tensorflow_lite/tensorflow/lite/kernels/internal\common.h **** template <typename IntegerType>
 456:C:/Renesas/e2studio_2021_01_workspace_RZA2M_ANPR/ANPR_RZA2M_EBK/src/tensorflow_lite/tensorflow/lite/kernels/internal\common.h **** IntegerType SaturatingRoundingMultiplyByPOTParam(IntegerType x, int exponent) {
 457:C:/Renesas/e2studio_2021_01_workspace_RZA2M_ANPR/ANPR_RZA2M_EBK/src/tensorflow_lite/tensorflow/lite/kernels/internal\common.h ****   if (exponent == 0) {
 458:C:/Renesas/e2studio_2021_01_workspace_RZA2M_ANPR/ANPR_RZA2M_EBK/src/tensorflow_lite/tensorflow/lite/kernels/internal\common.h ****     return x;
 459:C:/Renesas/e2studio_2021_01_workspace_RZA2M_ANPR/ANPR_RZA2M_EBK/src/tensorflow_lite/tensorflow/lite/kernels/internal\common.h ****   }
 460:C:/Renesas/e2studio_2021_01_workspace_RZA2M_ANPR/ANPR_RZA2M_EBK/src/tensorflow_lite/tensorflow/lite/kernels/internal\common.h ****   using ScalarIntegerType =
 461:C:/Renesas/e2studio_2021_01_workspace_RZA2M_ANPR/ANPR_RZA2M_EBK/src/tensorflow_lite/tensorflow/lite/kernels/internal\common.h ****       typename gemmlowp::FixedPointRawTypeTraits<IntegerType>::ScalarRawType;
 462:C:/Renesas/e2studio_2021_01_workspace_RZA2M_ANPR/ANPR_RZA2M_EBK/src/tensorflow_lite/tensorflow/lite/kernels/internal\common.h ****   const IntegerType min =
 463:C:/Renesas/e2studio_2021_01_workspace_RZA2M_ANPR/ANPR_RZA2M_EBK/src/tensorflow_lite/tensorflow/lite/kernels/internal\common.h ****       gemmlowp::Dup<IntegerType>(std::numeric_limits<ScalarIntegerType>::min());
 464:C:/Renesas/e2studio_2021_01_workspace_RZA2M_ANPR/ANPR_RZA2M_EBK/src/tensorflow_lite/tensorflow/lite/kernels/internal\common.h ****   const IntegerType max =
 465:C:/Renesas/e2studio_2021_01_workspace_RZA2M_ANPR/ANPR_RZA2M_EBK/src/tensorflow_lite/tensorflow/lite/kernels/internal\common.h ****       gemmlowp::Dup<IntegerType>(std::numeric_limits<ScalarIntegerType>::max());
 466:C:/Renesas/e2studio_2021_01_workspace_RZA2M_ANPR/ANPR_RZA2M_EBK/src/tensorflow_lite/tensorflow/lite/kernels/internal\common.h ****   const int ScalarIntegerTypeBits = 8 * sizeof(ScalarIntegerType);
 467:C:/Renesas/e2studio_2021_01_workspace_RZA2M_ANPR/ANPR_RZA2M_EBK/src/tensorflow_lite/tensorflow/lite/kernels/internal\common.h **** 
 468:C:/Renesas/e2studio_2021_01_workspace_RZA2M_ANPR/ANPR_RZA2M_EBK/src/tensorflow_lite/tensorflow/lite/kernels/internal\common.h ****   const std::int32_t threshold =
 469:C:/Renesas/e2studio_2021_01_workspace_RZA2M_ANPR/ANPR_RZA2M_EBK/src/tensorflow_lite/tensorflow/lite/kernels/internal\common.h ****       ((1 << (ScalarIntegerTypeBits - 1 - exponent)) - 1);
 470:C:/Renesas/e2studio_2021_01_workspace_RZA2M_ANPR/ANPR_RZA2M_EBK/src/tensorflow_lite/tensorflow/lite/kernels/internal\common.h ****   const IntegerType positive_mask =
 471:C:/Renesas/e2studio_2021_01_workspace_RZA2M_ANPR/ANPR_RZA2M_EBK/src/tensorflow_lite/tensorflow/lite/kernels/internal\common.h ****       gemmlowp::MaskIfGreaterThan(x, gemmlowp::Dup<IntegerType>(threshold));
 472:C:/Renesas/e2studio_2021_01_workspace_RZA2M_ANPR/ANPR_RZA2M_EBK/src/tensorflow_lite/tensorflow/lite/kernels/internal\common.h ****   const IntegerType negative_mask =
 473:C:/Renesas/e2studio_2021_01_workspace_RZA2M_ANPR/ANPR_RZA2M_EBK/src/tensorflow_lite/tensorflow/lite/kernels/internal\common.h ****       gemmlowp::MaskIfLessThan(x, gemmlowp::Dup<IntegerType>(-threshold));
 474:C:/Renesas/e2studio_2021_01_workspace_RZA2M_ANPR/ANPR_RZA2M_EBK/src/tensorflow_lite/tensorflow/lite/kernels/internal\common.h **** 
 475:C:/Renesas/e2studio_2021_01_workspace_RZA2M_ANPR/ANPR_RZA2M_EBK/src/tensorflow_lite/tensorflow/lite/kernels/internal\common.h ****   IntegerType result = gemmlowp::ShiftLeft(x, exponent);
 476:C:/Renesas/e2studio_2021_01_workspace_RZA2M_ANPR/ANPR_RZA2M_EBK/src/tensorflow_lite/tensorflow/lite/kernels/internal\common.h ****   result = gemmlowp::SelectUsingMask(positive_mask, max, result);
 477:C:/Renesas/e2studio_2021_01_workspace_RZA2M_ANPR/ANPR_RZA2M_EBK/src/tensorflow_lite/tensorflow/lite/kernels/internal\common.h ****   result = gemmlowp::SelectUsingMask(negative_mask, min, result);
 478:C:/Renesas/e2studio_2021_01_workspace_RZA2M_ANPR/ANPR_RZA2M_EBK/src/tensorflow_lite/tensorflow/lite/kernels/internal\common.h ****   return result;
 479:C:/Renesas/e2studio_2021_01_workspace_RZA2M_ANPR/ANPR_RZA2M_EBK/src/tensorflow_lite/tensorflow/lite/kernels/internal\common.h **** }
 480:C:/Renesas/e2studio_2021_01_workspace_RZA2M_ANPR/ANPR_RZA2M_EBK/src/tensorflow_lite/tensorflow/lite/kernels/internal\common.h **** 
 481:C:/Renesas/e2studio_2021_01_workspace_RZA2M_ANPR/ANPR_RZA2M_EBK/src/tensorflow_lite/tensorflow/lite/kernels/internal\common.h **** // If we want to leave IntegerBits fixed, then multiplication
 482:C:/Renesas/e2studio_2021_01_workspace_RZA2M_ANPR/ANPR_RZA2M_EBK/src/tensorflow_lite/tensorflow/lite/kernels/internal\common.h **** // by a power of two has to be saturating/rounding, not exact anymore.
 483:C:/Renesas/e2studio_2021_01_workspace_RZA2M_ANPR/ANPR_RZA2M_EBK/src/tensorflow_lite/tensorflow/lite/kernels/internal\common.h **** template <typename tRawType, int tIntegerBits>
 484:C:/Renesas/e2studio_2021_01_workspace_RZA2M_ANPR/ANPR_RZA2M_EBK/src/tensorflow_lite/tensorflow/lite/kernels/internal\common.h **** gemmlowp::FixedPoint<tRawType, tIntegerBits>
 485:C:/Renesas/e2studio_2021_01_workspace_RZA2M_ANPR/ANPR_RZA2M_EBK/src/tensorflow_lite/tensorflow/lite/kernels/internal\common.h **** SaturatingRoundingMultiplyByPOTParam(
 486:C:/Renesas/e2studio_2021_01_workspace_RZA2M_ANPR/ANPR_RZA2M_EBK/src/tensorflow_lite/tensorflow/lite/kernels/internal\common.h ****     gemmlowp::FixedPoint<tRawType, tIntegerBits> a, int exponent) {
 487:C:/Renesas/e2studio_2021_01_workspace_RZA2M_ANPR/ANPR_RZA2M_EBK/src/tensorflow_lite/tensorflow/lite/kernels/internal\common.h ****   return gemmlowp::FixedPoint<tRawType, tIntegerBits>::FromRaw(
 488:C:/Renesas/e2studio_2021_01_workspace_RZA2M_ANPR/ANPR_RZA2M_EBK/src/tensorflow_lite/tensorflow/lite/kernels/internal\common.h ****       SaturatingRoundingMultiplyByPOTParam(a.raw(), exponent));
 489:C:/Renesas/e2studio_2021_01_workspace_RZA2M_ANPR/ANPR_RZA2M_EBK/src/tensorflow_lite/tensorflow/lite/kernels/internal\common.h **** }
 490:C:/Renesas/e2studio_2021_01_workspace_RZA2M_ANPR/ANPR_RZA2M_EBK/src/tensorflow_lite/tensorflow/lite/kernels/internal\common.h **** 
 491:C:/Renesas/e2studio_2021_01_workspace_RZA2M_ANPR/ANPR_RZA2M_EBK/src/tensorflow_lite/tensorflow/lite/kernels/internal\common.h **** // Convert int32_t multiplier to int16_t with rounding.
 492:C:/Renesas/e2studio_2021_01_workspace_RZA2M_ANPR/ANPR_RZA2M_EBK/src/tensorflow_lite/tensorflow/lite/kernels/internal\common.h **** inline void DownScaleInt32ToInt16Multiplier(int32_t multiplier_int32_t,
 493:C:/Renesas/e2studio_2021_01_workspace_RZA2M_ANPR/ANPR_RZA2M_EBK/src/tensorflow_lite/tensorflow/lite/kernels/internal\common.h ****                                             int16_t* multiplier_int16_t) {
 494:C:/Renesas/e2studio_2021_01_workspace_RZA2M_ANPR/ANPR_RZA2M_EBK/src/tensorflow_lite/tensorflow/lite/kernels/internal\common.h ****   TFLITE_DCHECK_GE(multiplier_int32_t, 0);
 495:C:/Renesas/e2studio_2021_01_workspace_RZA2M_ANPR/ANPR_RZA2M_EBK/src/tensorflow_lite/tensorflow/lite/kernels/internal\common.h ****   static constexpr int32_t kRoundingOffset = 1 << 15;
 496:C:/Renesas/e2studio_2021_01_workspace_RZA2M_ANPR/ANPR_RZA2M_EBK/src/tensorflow_lite/tensorflow/lite/kernels/internal\common.h ****   if (multiplier_int32_t >=
 497:C:/Renesas/e2studio_2021_01_workspace_RZA2M_ANPR/ANPR_RZA2M_EBK/src/tensorflow_lite/tensorflow/lite/kernels/internal\common.h ****       std::numeric_limits<int32_t>::max() - kRoundingOffset) {
 498:C:/Renesas/e2studio_2021_01_workspace_RZA2M_ANPR/ANPR_RZA2M_EBK/src/tensorflow_lite/tensorflow/lite/kernels/internal\common.h ****     *multiplier_int16_t = std::numeric_limits<int16_t>::max();
 499:C:/Renesas/e2studio_2021_01_workspace_RZA2M_ANPR/ANPR_RZA2M_EBK/src/tensorflow_lite/tensorflow/lite/kernels/internal\common.h ****     return;
 500:C:/Renesas/e2studio_2021_01_workspace_RZA2M_ANPR/ANPR_RZA2M_EBK/src/tensorflow_lite/tensorflow/lite/kernels/internal\common.h ****   }
 501:C:/Renesas/e2studio_2021_01_workspace_RZA2M_ANPR/ANPR_RZA2M_EBK/src/tensorflow_lite/tensorflow/lite/kernels/internal\common.h ****   const int32_t result = (multiplier_int32_t + kRoundingOffset) >> 16;
 502:C:/Renesas/e2studio_2021_01_workspace_RZA2M_ANPR/ANPR_RZA2M_EBK/src/tensorflow_lite/tensorflow/lite/kernels/internal\common.h ****   TFLITE_DCHECK_LE(result << 16, multiplier_int32_t + kRoundingOffset);
 503:C:/Renesas/e2studio_2021_01_workspace_RZA2M_ANPR/ANPR_RZA2M_EBK/src/tensorflow_lite/tensorflow/lite/kernels/internal\common.h ****   TFLITE_DCHECK_GT(result << 16, multiplier_int32_t - kRoundingOffset);
 504:C:/Renesas/e2studio_2021_01_workspace_RZA2M_ANPR/ANPR_RZA2M_EBK/src/tensorflow_lite/tensorflow/lite/kernels/internal\common.h ****   *multiplier_int16_t = result;
 505:C:/Renesas/e2studio_2021_01_workspace_RZA2M_ANPR/ANPR_RZA2M_EBK/src/tensorflow_lite/tensorflow/lite/kernels/internal\common.h ****   TFLITE_DCHECK_EQ(*multiplier_int16_t, result);
 506:C:/Renesas/e2studio_2021_01_workspace_RZA2M_ANPR/ANPR_RZA2M_EBK/src/tensorflow_lite/tensorflow/lite/kernels/internal\common.h **** }
 507:C:/Renesas/e2studio_2021_01_workspace_RZA2M_ANPR/ANPR_RZA2M_EBK/src/tensorflow_lite/tensorflow/lite/kernels/internal\common.h **** 
 508:C:/Renesas/e2studio_2021_01_workspace_RZA2M_ANPR/ANPR_RZA2M_EBK/src/tensorflow_lite/tensorflow/lite/kernels/internal\common.h **** // Minimum output bits to accommodate log of maximum input range.  It actually
 509:C:/Renesas/e2studio_2021_01_workspace_RZA2M_ANPR/ANPR_RZA2M_EBK/src/tensorflow_lite/tensorflow/lite/kernels/internal\common.h **** // does not matter if one considers, say, [-64,64] or [-64,64).
 510:C:/Renesas/e2studio_2021_01_workspace_RZA2M_ANPR/ANPR_RZA2M_EBK/src/tensorflow_lite/tensorflow/lite/kernels/internal\common.h **** //
 511:C:/Renesas/e2studio_2021_01_workspace_RZA2M_ANPR/ANPR_RZA2M_EBK/src/tensorflow_lite/tensorflow/lite/kernels/internal\common.h **** // For example, run this through Octave:
 512:C:/Renesas/e2studio_2021_01_workspace_RZA2M_ANPR/ANPR_RZA2M_EBK/src/tensorflow_lite/tensorflow/lite/kernels/internal\common.h **** // [0:127; ...
 513:C:/Renesas/e2studio_2021_01_workspace_RZA2M_ANPR/ANPR_RZA2M_EBK/src/tensorflow_lite/tensorflow/lite/kernels/internal\common.h **** //  ceil(log(abs( log(2.^(0:127))+1 ))/log(2)); ...
 514:C:/Renesas/e2studio_2021_01_workspace_RZA2M_ANPR/ANPR_RZA2M_EBK/src/tensorflow_lite/tensorflow/lite/kernels/internal\common.h **** //  ceil(log(abs( log(2.^(0:127))+1 ))/log(2))]
 515:C:/Renesas/e2studio_2021_01_workspace_RZA2M_ANPR/ANPR_RZA2M_EBK/src/tensorflow_lite/tensorflow/lite/kernels/internal\common.h **** constexpr int min_log_x_output_bits(int input_bits) {
 516:C:/Renesas/e2studio_2021_01_workspace_RZA2M_ANPR/ANPR_RZA2M_EBK/src/tensorflow_lite/tensorflow/lite/kernels/internal\common.h ****   return input_bits > 90   ? 7
 517:C:/Renesas/e2studio_2021_01_workspace_RZA2M_ANPR/ANPR_RZA2M_EBK/src/tensorflow_lite/tensorflow/lite/kernels/internal\common.h ****          : input_bits > 44 ? 6
 518:C:/Renesas/e2studio_2021_01_workspace_RZA2M_ANPR/ANPR_RZA2M_EBK/src/tensorflow_lite/tensorflow/lite/kernels/internal\common.h ****          : input_bits > 21 ? 5
 519:C:/Renesas/e2studio_2021_01_workspace_RZA2M_ANPR/ANPR_RZA2M_EBK/src/tensorflow_lite/tensorflow/lite/kernels/internal\common.h ****          : input_bits > 10 ? 4
 520:C:/Renesas/e2studio_2021_01_workspace_RZA2M_ANPR/ANPR_RZA2M_EBK/src/tensorflow_lite/tensorflow/lite/kernels/internal\common.h ****          : input_bits > 4  ? 3
 521:C:/Renesas/e2studio_2021_01_workspace_RZA2M_ANPR/ANPR_RZA2M_EBK/src/tensorflow_lite/tensorflow/lite/kernels/internal\common.h ****          : input_bits > 1  ? 2
 522:C:/Renesas/e2studio_2021_01_workspace_RZA2M_ANPR/ANPR_RZA2M_EBK/src/tensorflow_lite/tensorflow/lite/kernels/internal\common.h ****                            : 1;
 523:C:/Renesas/e2studio_2021_01_workspace_RZA2M_ANPR/ANPR_RZA2M_EBK/src/tensorflow_lite/tensorflow/lite/kernels/internal\common.h **** }
 524:C:/Renesas/e2studio_2021_01_workspace_RZA2M_ANPR/ANPR_RZA2M_EBK/src/tensorflow_lite/tensorflow/lite/kernels/internal\common.h **** 
 525:C:/Renesas/e2studio_2021_01_workspace_RZA2M_ANPR/ANPR_RZA2M_EBK/src/tensorflow_lite/tensorflow/lite/kernels/internal\common.h **** // Although currently the name of this function says that it cannot handle
 526:C:/Renesas/e2studio_2021_01_workspace_RZA2M_ANPR/ANPR_RZA2M_EBK/src/tensorflow_lite/tensorflow/lite/kernels/internal\common.h **** // values less than 1, in practice it can handle as low as 1/x_max, where
 527:C:/Renesas/e2studio_2021_01_workspace_RZA2M_ANPR/ANPR_RZA2M_EBK/src/tensorflow_lite/tensorflow/lite/kernels/internal\common.h **** // x_max is the largest representable input.  In other words, the output range
 528:C:/Renesas/e2studio_2021_01_workspace_RZA2M_ANPR/ANPR_RZA2M_EBK/src/tensorflow_lite/tensorflow/lite/kernels/internal\common.h **** // is symmetric.
 529:C:/Renesas/e2studio_2021_01_workspace_RZA2M_ANPR/ANPR_RZA2M_EBK/src/tensorflow_lite/tensorflow/lite/kernels/internal\common.h **** template <int OutputIntegerBits, int InputIntegerBits>
 530:C:/Renesas/e2studio_2021_01_workspace_RZA2M_ANPR/ANPR_RZA2M_EBK/src/tensorflow_lite/tensorflow/lite/kernels/internal\common.h **** inline gemmlowp::FixedPoint<int32_t, OutputIntegerBits>
 531:C:/Renesas/e2studio_2021_01_workspace_RZA2M_ANPR/ANPR_RZA2M_EBK/src/tensorflow_lite/tensorflow/lite/kernels/internal\common.h **** log_x_for_x_greater_than_or_equal_to_1_impl(
 532:C:/Renesas/e2studio_2021_01_workspace_RZA2M_ANPR/ANPR_RZA2M_EBK/src/tensorflow_lite/tensorflow/lite/kernels/internal\common.h ****     gemmlowp::FixedPoint<int32_t, InputIntegerBits> input_val) {
 533:C:/Renesas/e2studio_2021_01_workspace_RZA2M_ANPR/ANPR_RZA2M_EBK/src/tensorflow_lite/tensorflow/lite/kernels/internal\common.h ****   // assert(__builtin_clz(0u) >= std::numeric_limits<uint32_t>::digits - 1);
 534:C:/Renesas/e2studio_2021_01_workspace_RZA2M_ANPR/ANPR_RZA2M_EBK/src/tensorflow_lite/tensorflow/lite/kernels/internal\common.h ****   // assert(__builtin_clz(0u) <= std::numeric_limits<uint32_t>::digits);
 535:C:/Renesas/e2studio_2021_01_workspace_RZA2M_ANPR/ANPR_RZA2M_EBK/src/tensorflow_lite/tensorflow/lite/kernels/internal\common.h ****   using FixedPoint0 = gemmlowp::FixedPoint<int32_t, 0>;
 536:C:/Renesas/e2studio_2021_01_workspace_RZA2M_ANPR/ANPR_RZA2M_EBK/src/tensorflow_lite/tensorflow/lite/kernels/internal\common.h ****   // The reason for accumulating the result with an extra bit of headroom is
 537:C:/Renesas/e2studio_2021_01_workspace_RZA2M_ANPR/ANPR_RZA2M_EBK/src/tensorflow_lite/tensorflow/lite/kernels/internal\common.h ****   // that z_pow_2_adj * log_2 might be saturated, and adding num_scaled *
 538:C:/Renesas/e2studio_2021_01_workspace_RZA2M_ANPR/ANPR_RZA2M_EBK/src/tensorflow_lite/tensorflow/lite/kernels/internal\common.h ****   // recip_denom will otherwise introduce an error.
 539:C:/Renesas/e2studio_2021_01_workspace_RZA2M_ANPR/ANPR_RZA2M_EBK/src/tensorflow_lite/tensorflow/lite/kernels/internal\common.h ****   static constexpr int kAccumIntegerBits = OutputIntegerBits + 1;
 540:C:/Renesas/e2studio_2021_01_workspace_RZA2M_ANPR/ANPR_RZA2M_EBK/src/tensorflow_lite/tensorflow/lite/kernels/internal\common.h ****   using FixedPointAccum = gemmlowp::FixedPoint<int32_t, kAccumIntegerBits>;
 541:C:/Renesas/e2studio_2021_01_workspace_RZA2M_ANPR/ANPR_RZA2M_EBK/src/tensorflow_lite/tensorflow/lite/kernels/internal\common.h **** 
 542:C:/Renesas/e2studio_2021_01_workspace_RZA2M_ANPR/ANPR_RZA2M_EBK/src/tensorflow_lite/tensorflow/lite/kernels/internal\common.h ****   const FixedPoint0 log_2 = GEMMLOWP_CHECKED_FIXEDPOINT_CONSTANT(
 543:C:/Renesas/e2studio_2021_01_workspace_RZA2M_ANPR/ANPR_RZA2M_EBK/src/tensorflow_lite/tensorflow/lite/kernels/internal\common.h ****       FixedPoint0, 1488522236, std::log(2.0));
 544:C:/Renesas/e2studio_2021_01_workspace_RZA2M_ANPR/ANPR_RZA2M_EBK/src/tensorflow_lite/tensorflow/lite/kernels/internal\common.h ****   const FixedPoint0 sqrt_sqrt_half = GEMMLOWP_CHECKED_FIXEDPOINT_CONSTANT(
 545:C:/Renesas/e2studio_2021_01_workspace_RZA2M_ANPR/ANPR_RZA2M_EBK/src/tensorflow_lite/tensorflow/lite/kernels/internal\common.h ****       FixedPoint0, 1805811301, std::sqrt(std::sqrt(0.5)));
 546:C:/Renesas/e2studio_2021_01_workspace_RZA2M_ANPR/ANPR_RZA2M_EBK/src/tensorflow_lite/tensorflow/lite/kernels/internal\common.h ****   const FixedPoint0 sqrt_half = GEMMLOWP_CHECKED_FIXEDPOINT_CONSTANT(
 547:C:/Renesas/e2studio_2021_01_workspace_RZA2M_ANPR/ANPR_RZA2M_EBK/src/tensorflow_lite/tensorflow/lite/kernels/internal\common.h ****       FixedPoint0, 1518500250, std::sqrt(0.5));
 548:C:/Renesas/e2studio_2021_01_workspace_RZA2M_ANPR/ANPR_RZA2M_EBK/src/tensorflow_lite/tensorflow/lite/kernels/internal\common.h ****   const FixedPoint0 one_quarter =
 549:C:/Renesas/e2studio_2021_01_workspace_RZA2M_ANPR/ANPR_RZA2M_EBK/src/tensorflow_lite/tensorflow/lite/kernels/internal\common.h ****       GEMMLOWP_CHECKED_FIXEDPOINT_CONSTANT(FixedPoint0, 536870912, 1.0 / 4.0);
 550:C:/Renesas/e2studio_2021_01_workspace_RZA2M_ANPR/ANPR_RZA2M_EBK/src/tensorflow_lite/tensorflow/lite/kernels/internal\common.h **** 
 551:C:/Renesas/e2studio_2021_01_workspace_RZA2M_ANPR/ANPR_RZA2M_EBK/src/tensorflow_lite/tensorflow/lite/kernels/internal\common.h ****   const FixedPoint0 alpha_n = GEMMLOWP_CHECKED_FIXEDPOINT_CONSTANT(
 552:C:/Renesas/e2studio_2021_01_workspace_RZA2M_ANPR/ANPR_RZA2M_EBK/src/tensorflow_lite/tensorflow/lite/kernels/internal\common.h ****       FixedPoint0, 117049297, 11.0 / 240.0 * std::sqrt(std::sqrt(2.0)));
 553:C:/Renesas/e2studio_2021_01_workspace_RZA2M_ANPR/ANPR_RZA2M_EBK/src/tensorflow_lite/tensorflow/lite/kernels/internal\common.h ****   const FixedPoint0 alpha_d = GEMMLOWP_CHECKED_FIXEDPOINT_CONSTANT(
 554:C:/Renesas/e2studio_2021_01_workspace_RZA2M_ANPR/ANPR_RZA2M_EBK/src/tensorflow_lite/tensorflow/lite/kernels/internal\common.h ****       FixedPoint0, 127690142, 1.0 / 20.0 * std::sqrt(std::sqrt(2.0)));
 555:C:/Renesas/e2studio_2021_01_workspace_RZA2M_ANPR/ANPR_RZA2M_EBK/src/tensorflow_lite/tensorflow/lite/kernels/internal\common.h ****   const FixedPoint0 alpha_i = GEMMLOWP_CHECKED_FIXEDPOINT_CONSTANT(
 556:C:/Renesas/e2studio_2021_01_workspace_RZA2M_ANPR/ANPR_RZA2M_EBK/src/tensorflow_lite/tensorflow/lite/kernels/internal\common.h ****       FixedPoint0, 1057819769,
 557:C:/Renesas/e2studio_2021_01_workspace_RZA2M_ANPR/ANPR_RZA2M_EBK/src/tensorflow_lite/tensorflow/lite/kernels/internal\common.h ****       2.0 / std::sqrt(std::sqrt(2.0)) - std::sqrt(std::sqrt(2.0)));
 558:C:/Renesas/e2studio_2021_01_workspace_RZA2M_ANPR/ANPR_RZA2M_EBK/src/tensorflow_lite/tensorflow/lite/kernels/internal\common.h ****   const FixedPoint0 alpha_f = GEMMLOWP_CHECKED_FIXEDPOINT_CONSTANT(
 559:C:/Renesas/e2studio_2021_01_workspace_RZA2M_ANPR/ANPR_RZA2M_EBK/src/tensorflow_lite/tensorflow/lite/kernels/internal\common.h ****       FixedPoint0, 638450708, 1.0 / 4.0 * std::sqrt(std::sqrt(2.0)));
 560:C:/Renesas/e2studio_2021_01_workspace_RZA2M_ANPR/ANPR_RZA2M_EBK/src/tensorflow_lite/tensorflow/lite/kernels/internal\common.h **** 
 561:C:/Renesas/e2studio_2021_01_workspace_RZA2M_ANPR/ANPR_RZA2M_EBK/src/tensorflow_lite/tensorflow/lite/kernels/internal\common.h ****   const FixedPointAccum shifted_quarter =
 562:C:/Renesas/e2studio_2021_01_workspace_RZA2M_ANPR/ANPR_RZA2M_EBK/src/tensorflow_lite/tensorflow/lite/kernels/internal\common.h ****       gemmlowp::Rescale<kAccumIntegerBits>(one_quarter);
 563:C:/Renesas/e2studio_2021_01_workspace_RZA2M_ANPR/ANPR_RZA2M_EBK/src/tensorflow_lite/tensorflow/lite/kernels/internal\common.h **** 
 564:C:/Renesas/e2studio_2021_01_workspace_RZA2M_ANPR/ANPR_RZA2M_EBK/src/tensorflow_lite/tensorflow/lite/kernels/internal\common.h ****   // Reinterpret the input value as Q0.31, because we will figure out the
 565:C:/Renesas/e2studio_2021_01_workspace_RZA2M_ANPR/ANPR_RZA2M_EBK/src/tensorflow_lite/tensorflow/lite/kernels/internal\common.h ****   // required shift "ourselves" instead of using, say, Rescale.
 566:C:/Renesas/e2studio_2021_01_workspace_RZA2M_ANPR/ANPR_RZA2M_EBK/src/tensorflow_lite/tensorflow/lite/kernels/internal\common.h ****   FixedPoint0 z_a = FixedPoint0::FromRaw(input_val.raw());
 567:C:/Renesas/e2studio_2021_01_workspace_RZA2M_ANPR/ANPR_RZA2M_EBK/src/tensorflow_lite/tensorflow/lite/kernels/internal\common.h ****   // z_a_pow_2 = input_integer_bits - z_a_headroom;
 568:C:/Renesas/e2studio_2021_01_workspace_RZA2M_ANPR/ANPR_RZA2M_EBK/src/tensorflow_lite/tensorflow/lite/kernels/internal\common.h ****   int z_a_headroom_plus_1 = CountLeadingZeros(static_cast<uint32_t>(z_a.raw()));
 569:C:/Renesas/e2studio_2021_01_workspace_RZA2M_ANPR/ANPR_RZA2M_EBK/src/tensorflow_lite/tensorflow/lite/kernels/internal\common.h ****   FixedPoint0 r_a_tmp =
 570:C:/Renesas/e2studio_2021_01_workspace_RZA2M_ANPR/ANPR_RZA2M_EBK/src/tensorflow_lite/tensorflow/lite/kernels/internal\common.h ****       SaturatingRoundingMultiplyByPOTParam(z_a, (z_a_headroom_plus_1 - 1));
 571:C:/Renesas/e2studio_2021_01_workspace_RZA2M_ANPR/ANPR_RZA2M_EBK/src/tensorflow_lite/tensorflow/lite/kernels/internal\common.h ****   const int32_t r_a_raw =
 572:C:/Renesas/e2studio_2021_01_workspace_RZA2M_ANPR/ANPR_RZA2M_EBK/src/tensorflow_lite/tensorflow/lite/kernels/internal\common.h ****       SaturatingRoundingMultiplyByPOTParam((r_a_tmp * sqrt_half).raw(), 1);
 573:C:/Renesas/e2studio_2021_01_workspace_RZA2M_ANPR/ANPR_RZA2M_EBK/src/tensorflow_lite/tensorflow/lite/kernels/internal\common.h ****   // z_pow_2_adj = max(z_pow_2_a - 0.75, z_pow_2_b - 0.25);
 574:C:/Renesas/e2studio_2021_01_workspace_RZA2M_ANPR/ANPR_RZA2M_EBK/src/tensorflow_lite/tensorflow/lite/kernels/internal\common.h ****   // z_pow_2_adj = max(InputIntegerBits - z_a_headroom_plus_1 + 0.25,
 575:C:/Renesas/e2studio_2021_01_workspace_RZA2M_ANPR/ANPR_RZA2M_EBK/src/tensorflow_lite/tensorflow/lite/kernels/internal\common.h ****   //                   InputIntegerBits - z_b_headroom - 0.25);
 576:C:/Renesas/e2studio_2021_01_workspace_RZA2M_ANPR/ANPR_RZA2M_EBK/src/tensorflow_lite/tensorflow/lite/kernels/internal\common.h ****   const FixedPointAccum z_a_pow_2_adj = SaturatingAddNonGemmlowp(
 577:C:/Renesas/e2studio_2021_01_workspace_RZA2M_ANPR/ANPR_RZA2M_EBK/src/tensorflow_lite/tensorflow/lite/kernels/internal\common.h ****       FixedPointAccum::FromRaw(SaturatingRoundingMultiplyByPOTParam(
 578:C:/Renesas/e2studio_2021_01_workspace_RZA2M_ANPR/ANPR_RZA2M_EBK/src/tensorflow_lite/tensorflow/lite/kernels/internal\common.h ****           static_cast<int32_t>(InputIntegerBits - z_a_headroom_plus_1),
 579:C:/Renesas/e2studio_2021_01_workspace_RZA2M_ANPR/ANPR_RZA2M_EBK/src/tensorflow_lite/tensorflow/lite/kernels/internal\common.h ****           31 - kAccumIntegerBits)),
 580:C:/Renesas/e2studio_2021_01_workspace_RZA2M_ANPR/ANPR_RZA2M_EBK/src/tensorflow_lite/tensorflow/lite/kernels/internal\common.h ****       shifted_quarter);
 581:C:/Renesas/e2studio_2021_01_workspace_RZA2M_ANPR/ANPR_RZA2M_EBK/src/tensorflow_lite/tensorflow/lite/kernels/internal\common.h **** 
 582:C:/Renesas/e2studio_2021_01_workspace_RZA2M_ANPR/ANPR_RZA2M_EBK/src/tensorflow_lite/tensorflow/lite/kernels/internal\common.h ****   // z_b is treated like z_a, but premultiplying by sqrt(0.5).
 583:C:/Renesas/e2studio_2021_01_workspace_RZA2M_ANPR/ANPR_RZA2M_EBK/src/tensorflow_lite/tensorflow/lite/kernels/internal\common.h ****   FixedPoint0 z_b = z_a * sqrt_half;
 584:C:/Renesas/e2studio_2021_01_workspace_RZA2M_ANPR/ANPR_RZA2M_EBK/src/tensorflow_lite/tensorflow/lite/kernels/internal\common.h ****   int z_b_headroom = CountLeadingZeros(static_cast<uint32_t>(z_b.raw())) - 1;
 585:C:/Renesas/e2studio_2021_01_workspace_RZA2M_ANPR/ANPR_RZA2M_EBK/src/tensorflow_lite/tensorflow/lite/kernels/internal\common.h ****   const int32_t r_b_raw =
 586:C:/Renesas/e2studio_2021_01_workspace_RZA2M_ANPR/ANPR_RZA2M_EBK/src/tensorflow_lite/tensorflow/lite/kernels/internal\common.h ****       SaturatingRoundingMultiplyByPOTParam(z_a.raw(), z_b_headroom);
 587:C:/Renesas/e2studio_2021_01_workspace_RZA2M_ANPR/ANPR_RZA2M_EBK/src/tensorflow_lite/tensorflow/lite/kernels/internal\common.h ****   const FixedPointAccum z_b_pow_2_adj = SaturatingSub(
 588:C:/Renesas/e2studio_2021_01_workspace_RZA2M_ANPR/ANPR_RZA2M_EBK/src/tensorflow_lite/tensorflow/lite/kernels/internal\common.h ****       FixedPointAccum::FromRaw(SaturatingRoundingMultiplyByPOTParam(
 589:C:/Renesas/e2studio_2021_01_workspace_RZA2M_ANPR/ANPR_RZA2M_EBK/src/tensorflow_lite/tensorflow/lite/kernels/internal\common.h ****           static_cast<int32_t>(InputIntegerBits - z_b_headroom),
 590:C:/Renesas/e2studio_2021_01_workspace_RZA2M_ANPR/ANPR_RZA2M_EBK/src/tensorflow_lite/tensorflow/lite/kernels/internal\common.h ****           31 - kAccumIntegerBits)),
 591:C:/Renesas/e2studio_2021_01_workspace_RZA2M_ANPR/ANPR_RZA2M_EBK/src/tensorflow_lite/tensorflow/lite/kernels/internal\common.h ****       shifted_quarter);
 592:C:/Renesas/e2studio_2021_01_workspace_RZA2M_ANPR/ANPR_RZA2M_EBK/src/tensorflow_lite/tensorflow/lite/kernels/internal\common.h **** 
 593:C:/Renesas/e2studio_2021_01_workspace_RZA2M_ANPR/ANPR_RZA2M_EBK/src/tensorflow_lite/tensorflow/lite/kernels/internal\common.h ****   const FixedPoint0 r = FixedPoint0::FromRaw(std::min(r_a_raw, r_b_raw));
 594:C:/Renesas/e2studio_2021_01_workspace_RZA2M_ANPR/ANPR_RZA2M_EBK/src/tensorflow_lite/tensorflow/lite/kernels/internal\common.h ****   const FixedPointAccum z_pow_2_adj = FixedPointAccum::FromRaw(
 595:C:/Renesas/e2studio_2021_01_workspace_RZA2M_ANPR/ANPR_RZA2M_EBK/src/tensorflow_lite/tensorflow/lite/kernels/internal\common.h ****       std::max(z_a_pow_2_adj.raw(), z_b_pow_2_adj.raw()));
 596:C:/Renesas/e2studio_2021_01_workspace_RZA2M_ANPR/ANPR_RZA2M_EBK/src/tensorflow_lite/tensorflow/lite/kernels/internal\common.h **** 
 597:C:/Renesas/e2studio_2021_01_workspace_RZA2M_ANPR/ANPR_RZA2M_EBK/src/tensorflow_lite/tensorflow/lite/kernels/internal\common.h ****   const FixedPoint0 p = gemmlowp::RoundingHalfSum(r, sqrt_sqrt_half);
 598:C:/Renesas/e2studio_2021_01_workspace_RZA2M_ANPR/ANPR_RZA2M_EBK/src/tensorflow_lite/tensorflow/lite/kernels/internal\common.h ****   FixedPoint0 q = r - sqrt_sqrt_half;
 599:C:/Renesas/e2studio_2021_01_workspace_RZA2M_ANPR/ANPR_RZA2M_EBK/src/tensorflow_lite/tensorflow/lite/kernels/internal\common.h ****   q = q + q;
 600:C:/Renesas/e2studio_2021_01_workspace_RZA2M_ANPR/ANPR_RZA2M_EBK/src/tensorflow_lite/tensorflow/lite/kernels/internal\common.h **** 
 601:C:/Renesas/e2studio_2021_01_workspace_RZA2M_ANPR/ANPR_RZA2M_EBK/src/tensorflow_lite/tensorflow/lite/kernels/internal\common.h ****   const FixedPoint0 common_sq = q * q;
 602:C:/Renesas/e2studio_2021_01_workspace_RZA2M_ANPR/ANPR_RZA2M_EBK/src/tensorflow_lite/tensorflow/lite/kernels/internal\common.h ****   const FixedPoint0 num = q * r + q * common_sq * alpha_n;
 603:C:/Renesas/e2studio_2021_01_workspace_RZA2M_ANPR/ANPR_RZA2M_EBK/src/tensorflow_lite/tensorflow/lite/kernels/internal\common.h ****   const FixedPoint0 denom_minus_one_0 =
 604:C:/Renesas/e2studio_2021_01_workspace_RZA2M_ANPR/ANPR_RZA2M_EBK/src/tensorflow_lite/tensorflow/lite/kernels/internal\common.h ****       p * (alpha_i + q + alpha_d * common_sq) + alpha_f * q;
 605:C:/Renesas/e2studio_2021_01_workspace_RZA2M_ANPR/ANPR_RZA2M_EBK/src/tensorflow_lite/tensorflow/lite/kernels/internal\common.h ****   const FixedPoint0 recip_denom =
 606:C:/Renesas/e2studio_2021_01_workspace_RZA2M_ANPR/ANPR_RZA2M_EBK/src/tensorflow_lite/tensorflow/lite/kernels/internal\common.h ****       one_over_one_plus_x_for_x_in_0_1(denom_minus_one_0);
 607:C:/Renesas/e2studio_2021_01_workspace_RZA2M_ANPR/ANPR_RZA2M_EBK/src/tensorflow_lite/tensorflow/lite/kernels/internal\common.h **** 
 608:C:/Renesas/e2studio_2021_01_workspace_RZA2M_ANPR/ANPR_RZA2M_EBK/src/tensorflow_lite/tensorflow/lite/kernels/internal\common.h ****   const FixedPointAccum num_scaled = gemmlowp::Rescale<kAccumIntegerBits>(num);
 609:C:/Renesas/e2studio_2021_01_workspace_RZA2M_ANPR/ANPR_RZA2M_EBK/src/tensorflow_lite/tensorflow/lite/kernels/internal\common.h ****   return gemmlowp::Rescale<OutputIntegerBits>(z_pow_2_adj * log_2 +
 610:C:/Renesas/e2studio_2021_01_workspace_RZA2M_ANPR/ANPR_RZA2M_EBK/src/tensorflow_lite/tensorflow/lite/kernels/internal\common.h ****                                               num_scaled * recip_denom);
 611:C:/Renesas/e2studio_2021_01_workspace_RZA2M_ANPR/ANPR_RZA2M_EBK/src/tensorflow_lite/tensorflow/lite/kernels/internal\common.h **** }
 612:C:/Renesas/e2studio_2021_01_workspace_RZA2M_ANPR/ANPR_RZA2M_EBK/src/tensorflow_lite/tensorflow/lite/kernels/internal\common.h **** 
 613:C:/Renesas/e2studio_2021_01_workspace_RZA2M_ANPR/ANPR_RZA2M_EBK/src/tensorflow_lite/tensorflow/lite/kernels/internal\common.h **** template <int OutputIntegerBits, int InputIntegerBits>
 614:C:/Renesas/e2studio_2021_01_workspace_RZA2M_ANPR/ANPR_RZA2M_EBK/src/tensorflow_lite/tensorflow/lite/kernels/internal\common.h **** inline gemmlowp::FixedPoint<int32_t, OutputIntegerBits>
 615:C:/Renesas/e2studio_2021_01_workspace_RZA2M_ANPR/ANPR_RZA2M_EBK/src/tensorflow_lite/tensorflow/lite/kernels/internal\common.h **** log_x_for_x_greater_than_or_equal_to_1(
 616:C:/Renesas/e2studio_2021_01_workspace_RZA2M_ANPR/ANPR_RZA2M_EBK/src/tensorflow_lite/tensorflow/lite/kernels/internal\common.h ****     gemmlowp::FixedPoint<int32_t, InputIntegerBits> input_val) {
 617:C:/Renesas/e2studio_2021_01_workspace_RZA2M_ANPR/ANPR_RZA2M_EBK/src/tensorflow_lite/tensorflow/lite/kernels/internal\common.h ****   static_assert(
 618:C:/Renesas/e2studio_2021_01_workspace_RZA2M_ANPR/ANPR_RZA2M_EBK/src/tensorflow_lite/tensorflow/lite/kernels/internal\common.h ****       OutputIntegerBits >= min_log_x_output_bits(InputIntegerBits),
 619:C:/Renesas/e2studio_2021_01_workspace_RZA2M_ANPR/ANPR_RZA2M_EBK/src/tensorflow_lite/tensorflow/lite/kernels/internal\common.h ****       "Output integer bits must be sufficient to accommodate logs of inputs.");
 620:C:/Renesas/e2studio_2021_01_workspace_RZA2M_ANPR/ANPR_RZA2M_EBK/src/tensorflow_lite/tensorflow/lite/kernels/internal\common.h ****   return log_x_for_x_greater_than_or_equal_to_1_impl<OutputIntegerBits,
 621:C:/Renesas/e2studio_2021_01_workspace_RZA2M_ANPR/ANPR_RZA2M_EBK/src/tensorflow_lite/tensorflow/lite/kernels/internal\common.h ****                                                      InputIntegerBits>(
 622:C:/Renesas/e2studio_2021_01_workspace_RZA2M_ANPR/ANPR_RZA2M_EBK/src/tensorflow_lite/tensorflow/lite/kernels/internal\common.h ****       input_val);
 623:C:/Renesas/e2studio_2021_01_workspace_RZA2M_ANPR/ANPR_RZA2M_EBK/src/tensorflow_lite/tensorflow/lite/kernels/internal\common.h **** }
 624:C:/Renesas/e2studio_2021_01_workspace_RZA2M_ANPR/ANPR_RZA2M_EBK/src/tensorflow_lite/tensorflow/lite/kernels/internal\common.h **** 
 625:C:/Renesas/e2studio_2021_01_workspace_RZA2M_ANPR/ANPR_RZA2M_EBK/src/tensorflow_lite/tensorflow/lite/kernels/internal\common.h **** inline int32_t GetReciprocal(int32_t x, int x_integer_digits,
 626:C:/Renesas/e2studio_2021_01_workspace_RZA2M_ANPR/ANPR_RZA2M_EBK/src/tensorflow_lite/tensorflow/lite/kernels/internal\common.h ****                              int* num_bits_over_unit) {
 627:C:/Renesas/e2studio_2021_01_workspace_RZA2M_ANPR/ANPR_RZA2M_EBK/src/tensorflow_lite/tensorflow/lite/kernels/internal\common.h ****   int headroom_plus_one = CountLeadingZeros(static_cast<uint32_t>(x));
 628:C:/Renesas/e2studio_2021_01_workspace_RZA2M_ANPR/ANPR_RZA2M_EBK/src/tensorflow_lite/tensorflow/lite/kernels/internal\common.h ****   // This is the number of bits to the left of the binary point above 1.0.
 629:C:/Renesas/e2studio_2021_01_workspace_RZA2M_ANPR/ANPR_RZA2M_EBK/src/tensorflow_lite/tensorflow/lite/kernels/internal\common.h ****   // Consider x=1.25.  In that case shifted_scale=0.8 and
 630:C:/Renesas/e2studio_2021_01_workspace_RZA2M_ANPR/ANPR_RZA2M_EBK/src/tensorflow_lite/tensorflow/lite/kernels/internal\common.h ****   // no later adjustment will be needed.
 631:C:/Renesas/e2studio_2021_01_workspace_RZA2M_ANPR/ANPR_RZA2M_EBK/src/tensorflow_lite/tensorflow/lite/kernels/internal\common.h ****   *num_bits_over_unit = x_integer_digits - headroom_plus_one;
 632:C:/Renesas/e2studio_2021_01_workspace_RZA2M_ANPR/ANPR_RZA2M_EBK/src/tensorflow_lite/tensorflow/lite/kernels/internal\common.h ****   const int32_t shifted_sum_minus_one =
 633:C:/Renesas/e2studio_2021_01_workspace_RZA2M_ANPR/ANPR_RZA2M_EBK/src/tensorflow_lite/tensorflow/lite/kernels/internal\common.h ****       static_cast<int32_t>((static_cast<uint32_t>(x) << headroom_plus_one) -
 634:C:/Renesas/e2studio_2021_01_workspace_RZA2M_ANPR/ANPR_RZA2M_EBK/src/tensorflow_lite/tensorflow/lite/kernels/internal\common.h ****                            (static_cast<uint32_t>(1) << 31));
 635:C:/Renesas/e2studio_2021_01_workspace_RZA2M_ANPR/ANPR_RZA2M_EBK/src/tensorflow_lite/tensorflow/lite/kernels/internal\common.h **** 
 636:C:/Renesas/e2studio_2021_01_workspace_RZA2M_ANPR/ANPR_RZA2M_EBK/src/tensorflow_lite/tensorflow/lite/kernels/internal\common.h ****   gemmlowp::FixedPoint<int32_t, 0> shifted_scale =
 637:C:/Renesas/e2studio_2021_01_workspace_RZA2M_ANPR/ANPR_RZA2M_EBK/src/tensorflow_lite/tensorflow/lite/kernels/internal\common.h ****       gemmlowp::one_over_one_plus_x_for_x_in_0_1(
 638:C:/Renesas/e2studio_2021_01_workspace_RZA2M_ANPR/ANPR_RZA2M_EBK/src/tensorflow_lite/tensorflow/lite/kernels/internal\common.h ****           gemmlowp::FixedPoint<int32_t, 0>::FromRaw(shifted_sum_minus_one));
 639:C:/Renesas/e2studio_2021_01_workspace_RZA2M_ANPR/ANPR_RZA2M_EBK/src/tensorflow_lite/tensorflow/lite/kernels/internal\common.h ****   return shifted_scale.raw();
 640:C:/Renesas/e2studio_2021_01_workspace_RZA2M_ANPR/ANPR_RZA2M_EBK/src/tensorflow_lite/tensorflow/lite/kernels/internal\common.h **** }
 641:C:/Renesas/e2studio_2021_01_workspace_RZA2M_ANPR/ANPR_RZA2M_EBK/src/tensorflow_lite/tensorflow/lite/kernels/internal\common.h **** 
 642:C:/Renesas/e2studio_2021_01_workspace_RZA2M_ANPR/ANPR_RZA2M_EBK/src/tensorflow_lite/tensorflow/lite/kernels/internal\common.h **** inline void GetInvSqrtQuantizedMultiplierExp(int32_t input, int reverse_shift,
 643:C:/Renesas/e2studio_2021_01_workspace_RZA2M_ANPR/ANPR_RZA2M_EBK/src/tensorflow_lite/tensorflow/lite/kernels/internal\common.h ****                                              int32_t* output_inv_sqrt,
 644:C:/Renesas/e2studio_2021_01_workspace_RZA2M_ANPR/ANPR_RZA2M_EBK/src/tensorflow_lite/tensorflow/lite/kernels/internal\common.h ****                                              int* output_shift) {
 645:C:/Renesas/e2studio_2021_01_workspace_RZA2M_ANPR/ANPR_RZA2M_EBK/src/tensorflow_lite/tensorflow/lite/kernels/internal\common.h ****   TFLITE_DCHECK_GE(input, 0);
 646:C:/Renesas/e2studio_2021_01_workspace_RZA2M_ANPR/ANPR_RZA2M_EBK/src/tensorflow_lite/tensorflow/lite/kernels/internal\common.h ****   if (input <= 1) {
 647:C:/Renesas/e2studio_2021_01_workspace_RZA2M_ANPR/ANPR_RZA2M_EBK/src/tensorflow_lite/tensorflow/lite/kernels/internal\common.h ****     // Handle the input value 1 separately to avoid overflow in that case
 648:C:/Renesas/e2studio_2021_01_workspace_RZA2M_ANPR/ANPR_RZA2M_EBK/src/tensorflow_lite/tensorflow/lite/kernels/internal\common.h ****     // in the general computation below (b/143972021). Also handle 0 as if it
 649:C:/Renesas/e2studio_2021_01_workspace_RZA2M_ANPR/ANPR_RZA2M_EBK/src/tensorflow_lite/tensorflow/lite/kernels/internal\common.h ****     // were a 1. 0 is an invalid input here (divide by zero) and 1 is a valid
 650:C:/Renesas/e2studio_2021_01_workspace_RZA2M_ANPR/ANPR_RZA2M_EBK/src/tensorflow_lite/tensorflow/lite/kernels/internal\common.h ****     // but rare/unrealistic input value. We can expect both to occur in some
 651:C:/Renesas/e2studio_2021_01_workspace_RZA2M_ANPR/ANPR_RZA2M_EBK/src/tensorflow_lite/tensorflow/lite/kernels/internal\common.h ****     // incompletely trained models, but probably not in fully trained models.
 652:C:/Renesas/e2studio_2021_01_workspace_RZA2M_ANPR/ANPR_RZA2M_EBK/src/tensorflow_lite/tensorflow/lite/kernels/internal\common.h ****     *output_inv_sqrt = std::numeric_limits<std::int32_t>::max();
 653:C:/Renesas/e2studio_2021_01_workspace_RZA2M_ANPR/ANPR_RZA2M_EBK/src/tensorflow_lite/tensorflow/lite/kernels/internal\common.h ****     *output_shift = 0;
 654:C:/Renesas/e2studio_2021_01_workspace_RZA2M_ANPR/ANPR_RZA2M_EBK/src/tensorflow_lite/tensorflow/lite/kernels/internal\common.h ****     return;
 655:C:/Renesas/e2studio_2021_01_workspace_RZA2M_ANPR/ANPR_RZA2M_EBK/src/tensorflow_lite/tensorflow/lite/kernels/internal\common.h ****   }
 656:C:/Renesas/e2studio_2021_01_workspace_RZA2M_ANPR/ANPR_RZA2M_EBK/src/tensorflow_lite/tensorflow/lite/kernels/internal\common.h ****   TFLITE_DCHECK_GT(input, 1);
 657:C:/Renesas/e2studio_2021_01_workspace_RZA2M_ANPR/ANPR_RZA2M_EBK/src/tensorflow_lite/tensorflow/lite/kernels/internal\common.h ****   *output_shift = 11;
 658:C:/Renesas/e2studio_2021_01_workspace_RZA2M_ANPR/ANPR_RZA2M_EBK/src/tensorflow_lite/tensorflow/lite/kernels/internal\common.h ****   while (input >= (1 << 29)) {
 659:C:/Renesas/e2studio_2021_01_workspace_RZA2M_ANPR/ANPR_RZA2M_EBK/src/tensorflow_lite/tensorflow/lite/kernels/internal\common.h ****     input /= 4;
 660:C:/Renesas/e2studio_2021_01_workspace_RZA2M_ANPR/ANPR_RZA2M_EBK/src/tensorflow_lite/tensorflow/lite/kernels/internal\common.h ****     ++*output_shift;
 661:C:/Renesas/e2studio_2021_01_workspace_RZA2M_ANPR/ANPR_RZA2M_EBK/src/tensorflow_lite/tensorflow/lite/kernels/internal\common.h ****   }
 662:C:/Renesas/e2studio_2021_01_workspace_RZA2M_ANPR/ANPR_RZA2M_EBK/src/tensorflow_lite/tensorflow/lite/kernels/internal\common.h ****   const unsigned max_left_shift_bits =
 663:C:/Renesas/e2studio_2021_01_workspace_RZA2M_ANPR/ANPR_RZA2M_EBK/src/tensorflow_lite/tensorflow/lite/kernels/internal\common.h ****       CountLeadingZeros(static_cast<uint32_t>(input)) - 1;
 664:C:/Renesas/e2studio_2021_01_workspace_RZA2M_ANPR/ANPR_RZA2M_EBK/src/tensorflow_lite/tensorflow/lite/kernels/internal\common.h ****   const unsigned max_left_shift_bit_pairs = max_left_shift_bits / 2;
 665:C:/Renesas/e2studio_2021_01_workspace_RZA2M_ANPR/ANPR_RZA2M_EBK/src/tensorflow_lite/tensorflow/lite/kernels/internal\common.h ****   const unsigned left_shift_bit_pairs = max_left_shift_bit_pairs - 1;
 666:C:/Renesas/e2studio_2021_01_workspace_RZA2M_ANPR/ANPR_RZA2M_EBK/src/tensorflow_lite/tensorflow/lite/kernels/internal\common.h ****   *output_shift -= left_shift_bit_pairs;
 667:C:/Renesas/e2studio_2021_01_workspace_RZA2M_ANPR/ANPR_RZA2M_EBK/src/tensorflow_lite/tensorflow/lite/kernels/internal\common.h ****   input <<= 2 * left_shift_bit_pairs;
 668:C:/Renesas/e2studio_2021_01_workspace_RZA2M_ANPR/ANPR_RZA2M_EBK/src/tensorflow_lite/tensorflow/lite/kernels/internal\common.h ****   TFLITE_DCHECK_GE(input, (1 << 27));
 669:C:/Renesas/e2studio_2021_01_workspace_RZA2M_ANPR/ANPR_RZA2M_EBK/src/tensorflow_lite/tensorflow/lite/kernels/internal\common.h ****   TFLITE_DCHECK_LT(input, (1 << 29));
 670:C:/Renesas/e2studio_2021_01_workspace_RZA2M_ANPR/ANPR_RZA2M_EBK/src/tensorflow_lite/tensorflow/lite/kernels/internal\common.h ****   using gemmlowp::FixedPoint;
 671:C:/Renesas/e2studio_2021_01_workspace_RZA2M_ANPR/ANPR_RZA2M_EBK/src/tensorflow_lite/tensorflow/lite/kernels/internal\common.h ****   using gemmlowp::Rescale;
 672:C:/Renesas/e2studio_2021_01_workspace_RZA2M_ANPR/ANPR_RZA2M_EBK/src/tensorflow_lite/tensorflow/lite/kernels/internal\common.h ****   using gemmlowp::SaturatingRoundingMultiplyByPOT;
 673:C:/Renesas/e2studio_2021_01_workspace_RZA2M_ANPR/ANPR_RZA2M_EBK/src/tensorflow_lite/tensorflow/lite/kernels/internal\common.h ****   // Using 3 integer bits gives us enough room for the internal arithmetic in
 674:C:/Renesas/e2studio_2021_01_workspace_RZA2M_ANPR/ANPR_RZA2M_EBK/src/tensorflow_lite/tensorflow/lite/kernels/internal\common.h ****   // this Newton-Raphson iteration.
 675:C:/Renesas/e2studio_2021_01_workspace_RZA2M_ANPR/ANPR_RZA2M_EBK/src/tensorflow_lite/tensorflow/lite/kernels/internal\common.h ****   using F3 = FixedPoint<int32_t, 3>;
 676:C:/Renesas/e2studio_2021_01_workspace_RZA2M_ANPR/ANPR_RZA2M_EBK/src/tensorflow_lite/tensorflow/lite/kernels/internal\common.h ****   using F0 = FixedPoint<int32_t, 0>;
 677:C:/Renesas/e2studio_2021_01_workspace_RZA2M_ANPR/ANPR_RZA2M_EBK/src/tensorflow_lite/tensorflow/lite/kernels/internal\common.h ****   const F3 fixedpoint_input = F3::FromRaw(input >> 1);
 678:C:/Renesas/e2studio_2021_01_workspace_RZA2M_ANPR/ANPR_RZA2M_EBK/src/tensorflow_lite/tensorflow/lite/kernels/internal\common.h ****   const F3 fixedpoint_half_input =
 679:C:/Renesas/e2studio_2021_01_workspace_RZA2M_ANPR/ANPR_RZA2M_EBK/src/tensorflow_lite/tensorflow/lite/kernels/internal\common.h ****       SaturatingRoundingMultiplyByPOT<-1>(fixedpoint_input);
 680:C:/Renesas/e2studio_2021_01_workspace_RZA2M_ANPR/ANPR_RZA2M_EBK/src/tensorflow_lite/tensorflow/lite/kernels/internal\common.h ****   const F3 fixedpoint_half_three =
 681:C:/Renesas/e2studio_2021_01_workspace_RZA2M_ANPR/ANPR_RZA2M_EBK/src/tensorflow_lite/tensorflow/lite/kernels/internal\common.h ****       GEMMLOWP_CHECKED_FIXEDPOINT_CONSTANT(F3, (1 << 28) + (1 << 27), 1.5);
 682:C:/Renesas/e2studio_2021_01_workspace_RZA2M_ANPR/ANPR_RZA2M_EBK/src/tensorflow_lite/tensorflow/lite/kernels/internal\common.h ****   // Newton-Raphson iteration
 683:C:/Renesas/e2studio_2021_01_workspace_RZA2M_ANPR/ANPR_RZA2M_EBK/src/tensorflow_lite/tensorflow/lite/kernels/internal\common.h ****   // Naive unoptimized starting guess: x = 1
 684:C:/Renesas/e2studio_2021_01_workspace_RZA2M_ANPR/ANPR_RZA2M_EBK/src/tensorflow_lite/tensorflow/lite/kernels/internal\common.h ****   F3 x = F3::One();
 685:C:/Renesas/e2studio_2021_01_workspace_RZA2M_ANPR/ANPR_RZA2M_EBK/src/tensorflow_lite/tensorflow/lite/kernels/internal\common.h ****   // Naive unoptimized number of iterations: 5
 686:C:/Renesas/e2studio_2021_01_workspace_RZA2M_ANPR/ANPR_RZA2M_EBK/src/tensorflow_lite/tensorflow/lite/kernels/internal\common.h ****   for (int i = 0; i < 5; i++) {
 687:C:/Renesas/e2studio_2021_01_workspace_RZA2M_ANPR/ANPR_RZA2M_EBK/src/tensorflow_lite/tensorflow/lite/kernels/internal\common.h ****     const F3 x3 = Rescale<3>(x * x * x);
 688:C:/Renesas/e2studio_2021_01_workspace_RZA2M_ANPR/ANPR_RZA2M_EBK/src/tensorflow_lite/tensorflow/lite/kernels/internal\common.h ****     x = Rescale<3>(fixedpoint_half_three * x - fixedpoint_half_input * x3);
 689:C:/Renesas/e2studio_2021_01_workspace_RZA2M_ANPR/ANPR_RZA2M_EBK/src/tensorflow_lite/tensorflow/lite/kernels/internal\common.h ****   }
 690:C:/Renesas/e2studio_2021_01_workspace_RZA2M_ANPR/ANPR_RZA2M_EBK/src/tensorflow_lite/tensorflow/lite/kernels/internal\common.h ****   const F0 fixedpoint_half_sqrt_2 =
 691:C:/Renesas/e2studio_2021_01_workspace_RZA2M_ANPR/ANPR_RZA2M_EBK/src/tensorflow_lite/tensorflow/lite/kernels/internal\common.h ****       GEMMLOWP_CHECKED_FIXEDPOINT_CONSTANT(F0, 1518500250, std::sqrt(2.) / 2.);
 692:C:/Renesas/e2studio_2021_01_workspace_RZA2M_ANPR/ANPR_RZA2M_EBK/src/tensorflow_lite/tensorflow/lite/kernels/internal\common.h ****   x = x * fixedpoint_half_sqrt_2;
 693:C:/Renesas/e2studio_2021_01_workspace_RZA2M_ANPR/ANPR_RZA2M_EBK/src/tensorflow_lite/tensorflow/lite/kernels/internal\common.h ****   *output_inv_sqrt = x.raw();
 694:C:/Renesas/e2studio_2021_01_workspace_RZA2M_ANPR/ANPR_RZA2M_EBK/src/tensorflow_lite/tensorflow/lite/kernels/internal\common.h ****   if (*output_shift < 0) {
 695:C:/Renesas/e2studio_2021_01_workspace_RZA2M_ANPR/ANPR_RZA2M_EBK/src/tensorflow_lite/tensorflow/lite/kernels/internal\common.h ****     *output_inv_sqrt <<= -*output_shift;
 696:C:/Renesas/e2studio_2021_01_workspace_RZA2M_ANPR/ANPR_RZA2M_EBK/src/tensorflow_lite/tensorflow/lite/kernels/internal\common.h ****     *output_shift = 0;
 697:C:/Renesas/e2studio_2021_01_workspace_RZA2M_ANPR/ANPR_RZA2M_EBK/src/tensorflow_lite/tensorflow/lite/kernels/internal\common.h ****   }
 698:C:/Renesas/e2studio_2021_01_workspace_RZA2M_ANPR/ANPR_RZA2M_EBK/src/tensorflow_lite/tensorflow/lite/kernels/internal\common.h ****   // Convert right shift (right is positive) to left shift.
 699:C:/Renesas/e2studio_2021_01_workspace_RZA2M_ANPR/ANPR_RZA2M_EBK/src/tensorflow_lite/tensorflow/lite/kernels/internal\common.h ****   *output_shift *= reverse_shift;
 700:C:/Renesas/e2studio_2021_01_workspace_RZA2M_ANPR/ANPR_RZA2M_EBK/src/tensorflow_lite/tensorflow/lite/kernels/internal\common.h **** }
 701:C:/Renesas/e2studio_2021_01_workspace_RZA2M_ANPR/ANPR_RZA2M_EBK/src/tensorflow_lite/tensorflow/lite/kernels/internal\common.h **** 
 702:C:/Renesas/e2studio_2021_01_workspace_RZA2M_ANPR/ANPR_RZA2M_EBK/src/tensorflow_lite/tensorflow/lite/kernels/internal\common.h **** // DO NOT USE THIS STRUCT FOR NEW FUNCTIONALITY BEYOND IMPLEMENTING
 703:C:/Renesas/e2studio_2021_01_workspace_RZA2M_ANPR/ANPR_RZA2M_EBK/src/tensorflow_lite/tensorflow/lite/kernels/internal\common.h **** // BROADCASTING.
 704:C:/Renesas/e2studio_2021_01_workspace_RZA2M_ANPR/ANPR_RZA2M_EBK/src/tensorflow_lite/tensorflow/lite/kernels/internal\common.h **** //
 705:C:/Renesas/e2studio_2021_01_workspace_RZA2M_ANPR/ANPR_RZA2M_EBK/src/tensorflow_lite/tensorflow/lite/kernels/internal\common.h **** // NdArrayDesc<N> describes the shape and memory layout of an N-dimensional
 706:C:/Renesas/e2studio_2021_01_workspace_RZA2M_ANPR/ANPR_RZA2M_EBK/src/tensorflow_lite/tensorflow/lite/kernels/internal\common.h **** // rectangular array of numbers.
 707:C:/Renesas/e2studio_2021_01_workspace_RZA2M_ANPR/ANPR_RZA2M_EBK/src/tensorflow_lite/tensorflow/lite/kernels/internal\common.h **** //
 708:C:/Renesas/e2studio_2021_01_workspace_RZA2M_ANPR/ANPR_RZA2M_EBK/src/tensorflow_lite/tensorflow/lite/kernels/internal\common.h **** // NdArrayDesc<N> is basically identical to Dims<N> defined in types.h.
 709:C:/Renesas/e2studio_2021_01_workspace_RZA2M_ANPR/ANPR_RZA2M_EBK/src/tensorflow_lite/tensorflow/lite/kernels/internal\common.h **** // However, as Dims<N> is to be deprecated, this class exists as an adaptor
 710:C:/Renesas/e2studio_2021_01_workspace_RZA2M_ANPR/ANPR_RZA2M_EBK/src/tensorflow_lite/tensorflow/lite/kernels/internal\common.h **** // to enable simple unoptimized implementations of element-wise broadcasting
 711:C:/Renesas/e2studio_2021_01_workspace_RZA2M_ANPR/ANPR_RZA2M_EBK/src/tensorflow_lite/tensorflow/lite/kernels/internal\common.h **** // operations.
 712:C:/Renesas/e2studio_2021_01_workspace_RZA2M_ANPR/ANPR_RZA2M_EBK/src/tensorflow_lite/tensorflow/lite/kernels/internal\common.h **** template <int N>
 713:C:/Renesas/e2studio_2021_01_workspace_RZA2M_ANPR/ANPR_RZA2M_EBK/src/tensorflow_lite/tensorflow/lite/kernels/internal\common.h **** struct NdArrayDesc {
 714:C:/Renesas/e2studio_2021_01_workspace_RZA2M_ANPR/ANPR_RZA2M_EBK/src/tensorflow_lite/tensorflow/lite/kernels/internal\common.h ****   // The "extent" of each dimension. Indices along dimension d must be in the
 715:C:/Renesas/e2studio_2021_01_workspace_RZA2M_ANPR/ANPR_RZA2M_EBK/src/tensorflow_lite/tensorflow/lite/kernels/internal\common.h ****   // half-open interval [0, extents[d]).
 716:C:/Renesas/e2studio_2021_01_workspace_RZA2M_ANPR/ANPR_RZA2M_EBK/src/tensorflow_lite/tensorflow/lite/kernels/internal\common.h ****   int extents[N];
 717:C:/Renesas/e2studio_2021_01_workspace_RZA2M_ANPR/ANPR_RZA2M_EBK/src/tensorflow_lite/tensorflow/lite/kernels/internal\common.h **** 
 718:C:/Renesas/e2studio_2021_01_workspace_RZA2M_ANPR/ANPR_RZA2M_EBK/src/tensorflow_lite/tensorflow/lite/kernels/internal\common.h ****   // The number of *elements* (not bytes) between consecutive indices of each
 719:C:/Renesas/e2studio_2021_01_workspace_RZA2M_ANPR/ANPR_RZA2M_EBK/src/tensorflow_lite/tensorflow/lite/kernels/internal\common.h ****   // dimension.
 720:C:/Renesas/e2studio_2021_01_workspace_RZA2M_ANPR/ANPR_RZA2M_EBK/src/tensorflow_lite/tensorflow/lite/kernels/internal\common.h ****   int strides[N];
 721:C:/Renesas/e2studio_2021_01_workspace_RZA2M_ANPR/ANPR_RZA2M_EBK/src/tensorflow_lite/tensorflow/lite/kernels/internal\common.h **** };
 722:C:/Renesas/e2studio_2021_01_workspace_RZA2M_ANPR/ANPR_RZA2M_EBK/src/tensorflow_lite/tensorflow/lite/kernels/internal\common.h **** 
 723:C:/Renesas/e2studio_2021_01_workspace_RZA2M_ANPR/ANPR_RZA2M_EBK/src/tensorflow_lite/tensorflow/lite/kernels/internal\common.h **** // DO NOT USE THIS FUNCTION FOR NEW FUNCTIONALITY BEYOND IMPLEMENTING
 724:C:/Renesas/e2studio_2021_01_workspace_RZA2M_ANPR/ANPR_RZA2M_EBK/src/tensorflow_lite/tensorflow/lite/kernels/internal\common.h **** // BROADCASTING.
 725:C:/Renesas/e2studio_2021_01_workspace_RZA2M_ANPR/ANPR_RZA2M_EBK/src/tensorflow_lite/tensorflow/lite/kernels/internal\common.h **** //
 726:C:/Renesas/e2studio_2021_01_workspace_RZA2M_ANPR/ANPR_RZA2M_EBK/src/tensorflow_lite/tensorflow/lite/kernels/internal\common.h **** // Same as Offset(), except takes as NdArrayDesc<N> instead of Dims<N>.
 727:C:/Renesas/e2studio_2021_01_workspace_RZA2M_ANPR/ANPR_RZA2M_EBK/src/tensorflow_lite/tensorflow/lite/kernels/internal\common.h **** inline int SubscriptToIndex(const NdArrayDesc<4>& desc, int i0, int i1, int i2,
 728:C:/Renesas/e2studio_2021_01_workspace_RZA2M_ANPR/ANPR_RZA2M_EBK/src/tensorflow_lite/tensorflow/lite/kernels/internal\common.h ****                             int i3) {
 729:C:/Renesas/e2studio_2021_01_workspace_RZA2M_ANPR/ANPR_RZA2M_EBK/src/tensorflow_lite/tensorflow/lite/kernels/internal\common.h ****   TFLITE_DCHECK(i0 >= 0 && i0 < desc.extents[0]);
 730:C:/Renesas/e2studio_2021_01_workspace_RZA2M_ANPR/ANPR_RZA2M_EBK/src/tensorflow_lite/tensorflow/lite/kernels/internal\common.h ****   TFLITE_DCHECK(i1 >= 0 && i1 < desc.extents[1]);
 731:C:/Renesas/e2studio_2021_01_workspace_RZA2M_ANPR/ANPR_RZA2M_EBK/src/tensorflow_lite/tensorflow/lite/kernels/internal\common.h ****   TFLITE_DCHECK(i2 >= 0 && i2 < desc.extents[2]);
 732:C:/Renesas/e2studio_2021_01_workspace_RZA2M_ANPR/ANPR_RZA2M_EBK/src/tensorflow_lite/tensorflow/lite/kernels/internal\common.h ****   TFLITE_DCHECK(i3 >= 0 && i3 < desc.extents[3]);
 733:C:/Renesas/e2studio_2021_01_workspace_RZA2M_ANPR/ANPR_RZA2M_EBK/src/tensorflow_lite/tensorflow/lite/kernels/internal\common.h ****   return i0 * desc.strides[0] + i1 * desc.strides[1] + i2 * desc.strides[2] +
 734:C:/Renesas/e2studio_2021_01_workspace_RZA2M_ANPR/ANPR_RZA2M_EBK/src/tensorflow_lite/tensorflow/lite/kernels/internal\common.h ****          i3 * desc.strides[3];
 735:C:/Renesas/e2studio_2021_01_workspace_RZA2M_ANPR/ANPR_RZA2M_EBK/src/tensorflow_lite/tensorflow/lite/kernels/internal\common.h **** }
 736:C:/Renesas/e2studio_2021_01_workspace_RZA2M_ANPR/ANPR_RZA2M_EBK/src/tensorflow_lite/tensorflow/lite/kernels/internal\common.h **** 
 737:C:/Renesas/e2studio_2021_01_workspace_RZA2M_ANPR/ANPR_RZA2M_EBK/src/tensorflow_lite/tensorflow/lite/kernels/internal\common.h **** inline int SubscriptToIndex(const NdArrayDesc<5>& desc, int indexes[5]) {
 738:C:/Renesas/e2studio_2021_01_workspace_RZA2M_ANPR/ANPR_RZA2M_EBK/src/tensorflow_lite/tensorflow/lite/kernels/internal\common.h ****   return indexes[0] * desc.strides[0] + indexes[1] * desc.strides[1] +
 739:C:/Renesas/e2studio_2021_01_workspace_RZA2M_ANPR/ANPR_RZA2M_EBK/src/tensorflow_lite/tensorflow/lite/kernels/internal\common.h ****          indexes[2] * desc.strides[2] + indexes[3] * desc.strides[3] +
 740:C:/Renesas/e2studio_2021_01_workspace_RZA2M_ANPR/ANPR_RZA2M_EBK/src/tensorflow_lite/tensorflow/lite/kernels/internal\common.h ****          indexes[4] * desc.strides[4];
 741:C:/Renesas/e2studio_2021_01_workspace_RZA2M_ANPR/ANPR_RZA2M_EBK/src/tensorflow_lite/tensorflow/lite/kernels/internal\common.h **** }
 742:C:/Renesas/e2studio_2021_01_workspace_RZA2M_ANPR/ANPR_RZA2M_EBK/src/tensorflow_lite/tensorflow/lite/kernels/internal\common.h **** 
 743:C:/Renesas/e2studio_2021_01_workspace_RZA2M_ANPR/ANPR_RZA2M_EBK/src/tensorflow_lite/tensorflow/lite/kernels/internal\common.h **** inline int SubscriptToIndex(const NdArrayDesc<8>& desc, int indexes[8]) {
 744:C:/Renesas/e2studio_2021_01_workspace_RZA2M_ANPR/ANPR_RZA2M_EBK/src/tensorflow_lite/tensorflow/lite/kernels/internal\common.h ****   return indexes[0] * desc.strides[0] + indexes[1] * desc.strides[1] +
 745:C:/Renesas/e2studio_2021_01_workspace_RZA2M_ANPR/ANPR_RZA2M_EBK/src/tensorflow_lite/tensorflow/lite/kernels/internal\common.h ****          indexes[2] * desc.strides[2] + indexes[3] * desc.strides[3] +
 746:C:/Renesas/e2studio_2021_01_workspace_RZA2M_ANPR/ANPR_RZA2M_EBK/src/tensorflow_lite/tensorflow/lite/kernels/internal\common.h ****          indexes[4] * desc.strides[4] + indexes[5] * desc.strides[5] +
 747:C:/Renesas/e2studio_2021_01_workspace_RZA2M_ANPR/ANPR_RZA2M_EBK/src/tensorflow_lite/tensorflow/lite/kernels/internal\common.h ****          indexes[6] * desc.strides[6] + indexes[7] * desc.strides[7];
 748:C:/Renesas/e2studio_2021_01_workspace_RZA2M_ANPR/ANPR_RZA2M_EBK/src/tensorflow_lite/tensorflow/lite/kernels/internal\common.h **** }
 749:C:/Renesas/e2studio_2021_01_workspace_RZA2M_ANPR/ANPR_RZA2M_EBK/src/tensorflow_lite/tensorflow/lite/kernels/internal\common.h **** 
 750:C:/Renesas/e2studio_2021_01_workspace_RZA2M_ANPR/ANPR_RZA2M_EBK/src/tensorflow_lite/tensorflow/lite/kernels/internal\common.h **** // Given the dimensions of the operands for an element-wise binary broadcast,
 751:C:/Renesas/e2studio_2021_01_workspace_RZA2M_ANPR/ANPR_RZA2M_EBK/src/tensorflow_lite/tensorflow/lite/kernels/internal\common.h **** // adjusts them so that they can be directly iterated over with simple loops.
 752:C:/Renesas/e2studio_2021_01_workspace_RZA2M_ANPR/ANPR_RZA2M_EBK/src/tensorflow_lite/tensorflow/lite/kernels/internal\common.h **** // Returns the adjusted dims as instances of NdArrayDesc in 'desc0_out' and
 753:C:/Renesas/e2studio_2021_01_workspace_RZA2M_ANPR/ANPR_RZA2M_EBK/src/tensorflow_lite/tensorflow/lite/kernels/internal\common.h **** // 'desc1_out'. 'desc0_out' and 'desc1_out' cannot be nullptr.
 754:C:/Renesas/e2studio_2021_01_workspace_RZA2M_ANPR/ANPR_RZA2M_EBK/src/tensorflow_lite/tensorflow/lite/kernels/internal\common.h **** //
 755:C:/Renesas/e2studio_2021_01_workspace_RZA2M_ANPR/ANPR_RZA2M_EBK/src/tensorflow_lite/tensorflow/lite/kernels/internal\common.h **** // This function assumes that the two input shapes are compatible up to
 756:C:/Renesas/e2studio_2021_01_workspace_RZA2M_ANPR/ANPR_RZA2M_EBK/src/tensorflow_lite/tensorflow/lite/kernels/internal\common.h **** // broadcasting and the shorter one has already been prepended with 1s to be the
 757:C:/Renesas/e2studio_2021_01_workspace_RZA2M_ANPR/ANPR_RZA2M_EBK/src/tensorflow_lite/tensorflow/lite/kernels/internal\common.h **** // same length. E.g., if shape0 is (1, 16, 16, 64) and shape1 is (1, 64),
 758:C:/Renesas/e2studio_2021_01_workspace_RZA2M_ANPR/ANPR_RZA2M_EBK/src/tensorflow_lite/tensorflow/lite/kernels/internal\common.h **** // shape1 must already have been prepended to be (1, 1, 1, 64). Recall that
 759:C:/Renesas/e2studio_2021_01_workspace_RZA2M_ANPR/ANPR_RZA2M_EBK/src/tensorflow_lite/tensorflow/lite/kernels/internal\common.h **** // Dims<N> refer to shapes in reverse order. In this case, input0_dims will be
 760:C:/Renesas/e2studio_2021_01_workspace_RZA2M_ANPR/ANPR_RZA2M_EBK/src/tensorflow_lite/tensorflow/lite/kernels/internal\common.h **** // (64, 16, 16, 1) and input1_dims will be (64, 1, 1, 1).
 761:C:/Renesas/e2studio_2021_01_workspace_RZA2M_ANPR/ANPR_RZA2M_EBK/src/tensorflow_lite/tensorflow/lite/kernels/internal\common.h **** //
 762:C:/Renesas/e2studio_2021_01_workspace_RZA2M_ANPR/ANPR_RZA2M_EBK/src/tensorflow_lite/tensorflow/lite/kernels/internal\common.h **** // When two shapes are compatible up to broadcasting, for each dimension d,
 763:C:/Renesas/e2studio_2021_01_workspace_RZA2M_ANPR/ANPR_RZA2M_EBK/src/tensorflow_lite/tensorflow/lite/kernels/internal\common.h **** // the input extents are either equal, or one of them is 1.
 764:C:/Renesas/e2studio_2021_01_workspace_RZA2M_ANPR/ANPR_RZA2M_EBK/src/tensorflow_lite/tensorflow/lite/kernels/internal\common.h **** //
 765:C:/Renesas/e2studio_2021_01_workspace_RZA2M_ANPR/ANPR_RZA2M_EBK/src/tensorflow_lite/tensorflow/lite/kernels/internal\common.h **** // This function performs the following for each dimension d:
 766:C:/Renesas/e2studio_2021_01_workspace_RZA2M_ANPR/ANPR_RZA2M_EBK/src/tensorflow_lite/tensorflow/lite/kernels/internal\common.h **** // - If the extents are equal, then do nothing since the loop that walks over
 767:C:/Renesas/e2studio_2021_01_workspace_RZA2M_ANPR/ANPR_RZA2M_EBK/src/tensorflow_lite/tensorflow/lite/kernels/internal\common.h **** //   both of the input arrays is correct.
 768:C:/Renesas/e2studio_2021_01_workspace_RZA2M_ANPR/ANPR_RZA2M_EBK/src/tensorflow_lite/tensorflow/lite/kernels/internal\common.h **** // - Otherwise, one (and only one) of the extents must be 1. Say extent0 is 1
 769:C:/Renesas/e2studio_2021_01_workspace_RZA2M_ANPR/ANPR_RZA2M_EBK/src/tensorflow_lite/tensorflow/lite/kernels/internal\common.h **** //   and extent1 is e1. Then set extent0 to e1 and stride0 *to 0*. This allows
 770:C:/Renesas/e2studio_2021_01_workspace_RZA2M_ANPR/ANPR_RZA2M_EBK/src/tensorflow_lite/tensorflow/lite/kernels/internal\common.h **** //   array0 to be referenced *at any index* in dimension d and still access the
 771:C:/Renesas/e2studio_2021_01_workspace_RZA2M_ANPR/ANPR_RZA2M_EBK/src/tensorflow_lite/tensorflow/lite/kernels/internal\common.h **** //   same slice.
 772:C:/Renesas/e2studio_2021_01_workspace_RZA2M_ANPR/ANPR_RZA2M_EBK/src/tensorflow_lite/tensorflow/lite/kernels/internal\common.h **** template <int N>
 773:C:/Renesas/e2studio_2021_01_workspace_RZA2M_ANPR/ANPR_RZA2M_EBK/src/tensorflow_lite/tensorflow/lite/kernels/internal\common.h **** inline void NdArrayDescsForElementwiseBroadcast(const Dims<N>& input0_dims,
 774:C:/Renesas/e2studio_2021_01_workspace_RZA2M_ANPR/ANPR_RZA2M_EBK/src/tensorflow_lite/tensorflow/lite/kernels/internal\common.h ****                                                 const Dims<N>& input1_dims,
 775:C:/Renesas/e2studio_2021_01_workspace_RZA2M_ANPR/ANPR_RZA2M_EBK/src/tensorflow_lite/tensorflow/lite/kernels/internal\common.h ****                                                 NdArrayDesc<N>* desc0_out,
 776:C:/Renesas/e2studio_2021_01_workspace_RZA2M_ANPR/ANPR_RZA2M_EBK/src/tensorflow_lite/tensorflow/lite/kernels/internal\common.h ****                                                 NdArrayDesc<N>* desc1_out) {
 777:C:/Renesas/e2studio_2021_01_workspace_RZA2M_ANPR/ANPR_RZA2M_EBK/src/tensorflow_lite/tensorflow/lite/kernels/internal\common.h ****   TFLITE_DCHECK(desc0_out != nullptr);
 778:C:/Renesas/e2studio_2021_01_workspace_RZA2M_ANPR/ANPR_RZA2M_EBK/src/tensorflow_lite/tensorflow/lite/kernels/internal\common.h ****   TFLITE_DCHECK(desc1_out != nullptr);
 779:C:/Renesas/e2studio_2021_01_workspace_RZA2M_ANPR/ANPR_RZA2M_EBK/src/tensorflow_lite/tensorflow/lite/kernels/internal\common.h **** 
 780:C:/Renesas/e2studio_2021_01_workspace_RZA2M_ANPR/ANPR_RZA2M_EBK/src/tensorflow_lite/tensorflow/lite/kernels/internal\common.h ****   // Copy dims to desc.
 781:C:/Renesas/e2studio_2021_01_workspace_RZA2M_ANPR/ANPR_RZA2M_EBK/src/tensorflow_lite/tensorflow/lite/kernels/internal\common.h ****   for (int i = 0; i < N; ++i) {
 782:C:/Renesas/e2studio_2021_01_workspace_RZA2M_ANPR/ANPR_RZA2M_EBK/src/tensorflow_lite/tensorflow/lite/kernels/internal\common.h ****     desc0_out->extents[i] = input0_dims.sizes[i];
 783:C:/Renesas/e2studio_2021_01_workspace_RZA2M_ANPR/ANPR_RZA2M_EBK/src/tensorflow_lite/tensorflow/lite/kernels/internal\common.h ****     desc0_out->strides[i] = input0_dims.strides[i];
 784:C:/Renesas/e2studio_2021_01_workspace_RZA2M_ANPR/ANPR_RZA2M_EBK/src/tensorflow_lite/tensorflow/lite/kernels/internal\common.h ****     desc1_out->extents[i] = input1_dims.sizes[i];
 785:C:/Renesas/e2studio_2021_01_workspace_RZA2M_ANPR/ANPR_RZA2M_EBK/src/tensorflow_lite/tensorflow/lite/kernels/internal\common.h ****     desc1_out->strides[i] = input1_dims.strides[i];
 786:C:/Renesas/e2studio_2021_01_workspace_RZA2M_ANPR/ANPR_RZA2M_EBK/src/tensorflow_lite/tensorflow/lite/kernels/internal\common.h ****   }
 787:C:/Renesas/e2studio_2021_01_workspace_RZA2M_ANPR/ANPR_RZA2M_EBK/src/tensorflow_lite/tensorflow/lite/kernels/internal\common.h **** 
 788:C:/Renesas/e2studio_2021_01_workspace_RZA2M_ANPR/ANPR_RZA2M_EBK/src/tensorflow_lite/tensorflow/lite/kernels/internal\common.h ****   // Walk over each dimension. If the extents are equal do nothing.
 789:C:/Renesas/e2studio_2021_01_workspace_RZA2M_ANPR/ANPR_RZA2M_EBK/src/tensorflow_lite/tensorflow/lite/kernels/internal\common.h ****   // Otherwise, set the desc with extent 1 to have extent equal to the other and
 790:C:/Renesas/e2studio_2021_01_workspace_RZA2M_ANPR/ANPR_RZA2M_EBK/src/tensorflow_lite/tensorflow/lite/kernels/internal\common.h ****   // stride 0.
 791:C:/Renesas/e2studio_2021_01_workspace_RZA2M_ANPR/ANPR_RZA2M_EBK/src/tensorflow_lite/tensorflow/lite/kernels/internal\common.h ****   for (int i = 0; i < N; ++i) {
 792:C:/Renesas/e2studio_2021_01_workspace_RZA2M_ANPR/ANPR_RZA2M_EBK/src/tensorflow_lite/tensorflow/lite/kernels/internal\common.h ****     const int extent0 = ArraySize(input0_dims, i);
 793:C:/Renesas/e2studio_2021_01_workspace_RZA2M_ANPR/ANPR_RZA2M_EBK/src/tensorflow_lite/tensorflow/lite/kernels/internal\common.h ****     const int extent1 = ArraySize(input1_dims, i);
 794:C:/Renesas/e2studio_2021_01_workspace_RZA2M_ANPR/ANPR_RZA2M_EBK/src/tensorflow_lite/tensorflow/lite/kernels/internal\common.h ****     if (extent0 != extent1) {
 795:C:/Renesas/e2studio_2021_01_workspace_RZA2M_ANPR/ANPR_RZA2M_EBK/src/tensorflow_lite/tensorflow/lite/kernels/internal\common.h ****       if (extent0 == 1) {
 796:C:/Renesas/e2studio_2021_01_workspace_RZA2M_ANPR/ANPR_RZA2M_EBK/src/tensorflow_lite/tensorflow/lite/kernels/internal\common.h ****         desc0_out->strides[i] = 0;
 797:C:/Renesas/e2studio_2021_01_workspace_RZA2M_ANPR/ANPR_RZA2M_EBK/src/tensorflow_lite/tensorflow/lite/kernels/internal\common.h ****         desc0_out->extents[i] = extent1;
 798:C:/Renesas/e2studio_2021_01_workspace_RZA2M_ANPR/ANPR_RZA2M_EBK/src/tensorflow_lite/tensorflow/lite/kernels/internal\common.h ****       } else {
 799:C:/Renesas/e2studio_2021_01_workspace_RZA2M_ANPR/ANPR_RZA2M_EBK/src/tensorflow_lite/tensorflow/lite/kernels/internal\common.h ****         TFLITE_DCHECK_EQ(extent1, 1);
 800:C:/Renesas/e2studio_2021_01_workspace_RZA2M_ANPR/ANPR_RZA2M_EBK/src/tensorflow_lite/tensorflow/lite/kernels/internal\common.h ****         desc1_out->strides[i] = 0;
 801:C:/Renesas/e2studio_2021_01_workspace_RZA2M_ANPR/ANPR_RZA2M_EBK/src/tensorflow_lite/tensorflow/lite/kernels/internal\common.h ****         desc1_out->extents[i] = extent0;
 802:C:/Renesas/e2studio_2021_01_workspace_RZA2M_ANPR/ANPR_RZA2M_EBK/src/tensorflow_lite/tensorflow/lite/kernels/internal\common.h ****       }
 803:C:/Renesas/e2studio_2021_01_workspace_RZA2M_ANPR/ANPR_RZA2M_EBK/src/tensorflow_lite/tensorflow/lite/kernels/internal\common.h ****     }
 804:C:/Renesas/e2studio_2021_01_workspace_RZA2M_ANPR/ANPR_RZA2M_EBK/src/tensorflow_lite/tensorflow/lite/kernels/internal\common.h ****   }
 805:C:/Renesas/e2studio_2021_01_workspace_RZA2M_ANPR/ANPR_RZA2M_EBK/src/tensorflow_lite/tensorflow/lite/kernels/internal\common.h **** }
 806:C:/Renesas/e2studio_2021_01_workspace_RZA2M_ANPR/ANPR_RZA2M_EBK/src/tensorflow_lite/tensorflow/lite/kernels/internal\common.h **** 
 807:C:/Renesas/e2studio_2021_01_workspace_RZA2M_ANPR/ANPR_RZA2M_EBK/src/tensorflow_lite/tensorflow/lite/kernels/internal\common.h **** // Copies dims to desc, calculating strides.
 808:C:/Renesas/e2studio_2021_01_workspace_RZA2M_ANPR/ANPR_RZA2M_EBK/src/tensorflow_lite/tensorflow/lite/kernels/internal\common.h **** template <int N>
 809:C:/Renesas/e2studio_2021_01_workspace_RZA2M_ANPR/ANPR_RZA2M_EBK/src/tensorflow_lite/tensorflow/lite/kernels/internal\common.h **** inline void CopyDimsToDesc(const RuntimeShape& input_shape,
 810:C:/Renesas/e2studio_2021_01_workspace_RZA2M_ANPR/ANPR_RZA2M_EBK/src/tensorflow_lite/tensorflow/lite/kernels/internal\common.h ****                            NdArrayDesc<N>* desc_out) {
 811:C:/Renesas/e2studio_2021_01_workspace_RZA2M_ANPR/ANPR_RZA2M_EBK/src/tensorflow_lite/tensorflow/lite/kernels/internal\common.h ****   int desc_stride = 1;
 812:C:/Renesas/e2studio_2021_01_workspace_RZA2M_ANPR/ANPR_RZA2M_EBK/src/tensorflow_lite/tensorflow/lite/kernels/internal\common.h ****   for (int i = N - 1; i >= 0; --i) {
 813:C:/Renesas/e2studio_2021_01_workspace_RZA2M_ANPR/ANPR_RZA2M_EBK/src/tensorflow_lite/tensorflow/lite/kernels/internal\common.h ****     desc_out->extents[i] = input_shape.Dims(i);
 814:C:/Renesas/e2studio_2021_01_workspace_RZA2M_ANPR/ANPR_RZA2M_EBK/src/tensorflow_lite/tensorflow/lite/kernels/internal\common.h ****     desc_out->strides[i] = desc_stride;
 815:C:/Renesas/e2studio_2021_01_workspace_RZA2M_ANPR/ANPR_RZA2M_EBK/src/tensorflow_lite/tensorflow/lite/kernels/internal\common.h ****     desc_stride *= input_shape.Dims(i);
 805              		.loc 4 815 0
 806 0250 910C00E0 		mul	r0, r1, ip
 807 0254 24218DE5 		str	r2, [sp, #292]
 808 0258 38118DE5 		str	r1, [sp, #312]
 809 025c 28C18DE5 		str	ip, [sp, #296]
 810              	.LVL100:
 811 0260 3CE18DE5 		str	lr, [sp, #316]
 812 0264 900202E0 		mul	r2, r0, r2
 813              	.LVL101:
 814 0268 34018DE5 		str	r0, [sp, #308]
 815 026c 30218DE5 		str	r2, [sp, #304]
 816              	.LVL102:
 817              	.L49:
 818 0270 08719DE5 		ldr	r7, [sp, #264]
 819              	.LBE837:
 820              	.LBE836:
 821              	.LBE835:
 822              	.LBB850:
 823              	.LBB851:
 824              	.LBB852:
 825              	.LBB853:
 826              	.LBB854:
 216:C:/Renesas/e2studio_2021_01_workspace_RZA2M_ANPR/ANPR_RZA2M_EBK/src/tensorflow_lite/tensorflow/lite/kernels/internal\types.h ****   }
 827              		.loc 3 216 0
 828 0274 0C019DE5 		ldr	r0, [sp, #268]
 829 0278 050057E3 		cmp	r7, #5
 830 027c E80400CA 		bgt	.L50
 831              	.LVL103:
 215:C:/Renesas/e2studio_2021_01_workspace_RZA2M_ANPR/ANPR_RZA2M_EBK/src/tensorflow_lite/tensorflow/lite/kernels/internal\types.h ****     return size_ > kMaxSmallSize ? dims_pointer_[i] : dims_[i];
 832              		.loc 3 215 0
 833 0280 030057E3 		cmp	r7, #3
 834 0284 650800DA 		ble	.L51
 216:C:/Renesas/e2studio_2021_01_workspace_RZA2M_ANPR/ANPR_RZA2M_EBK/src/tensorflow_lite/tensorflow/lite/kernels/internal\types.h ****   }
 835              		.loc 3 216 0
 836 0288 18219DE5 		ldr	r2, [sp, #280]
 837              	.LVL104:
 838 028c 0190A0E3 		mov	r9, #1
 839 0290 14119DE5 		ldr	r1, [sp, #276]
 840 0294 050055E3 		cmp	r5, #5
 841 0298 10C19DE5 		ldr	ip, [sp, #272]
 842 029c 5C918DE5 		str	r9, [sp, #348]
 843 02a0 40018DE5 		str	r0, [sp, #320]
 844              	.LBE854:
 845              	.LBE853:
 846              		.loc 4 815 0
 847 02a4 92010EE0 		mul	lr, r2, r1
 848 02a8 4C218DE5 		str	r2, [sp, #332]
 849              	.LVL105:
 850 02ac 58218DE5 		str	r2, [sp, #344]
 851 02b0 48118DE5 		str	r1, [sp, #328]
 852              	.LVL106:
 853 02b4 44C18DE5 		str	ip, [sp, #324]
 854              	.LVL107:
 855 02b8 9E0C09E0 		mul	r9, lr, ip
 856              	.LVL108:
 857 02bc 54E18DE5 		str	lr, [sp, #340]
 858 02c0 50918DE5 		str	r9, [sp, #336]
 859 02c4 D90500CA 		bgt	.L922
 860              	.LVL109:
 861              	.LBE852:
 862              	.LBE851:
 863              	.LBE850:
 864              	.LBB865:
 865              	.LBB866:
 866              	.LBB867:
 867              	.LBB868:
 215:C:/Renesas/e2studio_2021_01_workspace_RZA2M_ANPR/ANPR_RZA2M_EBK/src/tensorflow_lite/tensorflow/lite/kernels/internal\types.h ****     return size_ > kMaxSmallSize ? dims_pointer_[i] : dims_[i];
 868              		.loc 3 215 0
 869 02c8 000055E3 		cmp	r5, #0
 870 02cc 560800DA 		ble	.L56
 871              	.LVL110:
 872              	.LBE868:
 873              	.LBE867:
 816:C:/Renesas/e2studio_2021_01_workspace_RZA2M_ANPR/ANPR_RZA2M_EBK/src/tensorflow_lite/tensorflow/lite/kernels/internal\common.h ****   }
 817:C:/Renesas/e2studio_2021_01_workspace_RZA2M_ANPR/ANPR_RZA2M_EBK/src/tensorflow_lite/tensorflow/lite/kernels/internal\common.h **** }
 818:C:/Renesas/e2studio_2021_01_workspace_RZA2M_ANPR/ANPR_RZA2M_EBK/src/tensorflow_lite/tensorflow/lite/kernels/internal\common.h **** 
 819:C:/Renesas/e2studio_2021_01_workspace_RZA2M_ANPR/ANPR_RZA2M_EBK/src/tensorflow_lite/tensorflow/lite/kernels/internal\common.h **** template <int N>
 820:C:/Renesas/e2studio_2021_01_workspace_RZA2M_ANPR/ANPR_RZA2M_EBK/src/tensorflow_lite/tensorflow/lite/kernels/internal\common.h **** inline void NdArrayDescsForElementwiseBroadcast(
 821:C:/Renesas/e2studio_2021_01_workspace_RZA2M_ANPR/ANPR_RZA2M_EBK/src/tensorflow_lite/tensorflow/lite/kernels/internal\common.h ****     const RuntimeShape& input0_shape, const RuntimeShape& input1_shape,
 822:C:/Renesas/e2studio_2021_01_workspace_RZA2M_ANPR/ANPR_RZA2M_EBK/src/tensorflow_lite/tensorflow/lite/kernels/internal\common.h ****     NdArrayDesc<N>* desc0_out, NdArrayDesc<N>* desc1_out) {
 823:C:/Renesas/e2studio_2021_01_workspace_RZA2M_ANPR/ANPR_RZA2M_EBK/src/tensorflow_lite/tensorflow/lite/kernels/internal\common.h ****   TFLITE_DCHECK(desc0_out != nullptr);
 824:C:/Renesas/e2studio_2021_01_workspace_RZA2M_ANPR/ANPR_RZA2M_EBK/src/tensorflow_lite/tensorflow/lite/kernels/internal\common.h ****   TFLITE_DCHECK(desc1_out != nullptr);
 825:C:/Renesas/e2studio_2021_01_workspace_RZA2M_ANPR/ANPR_RZA2M_EBK/src/tensorflow_lite/tensorflow/lite/kernels/internal\common.h **** 
 826:C:/Renesas/e2studio_2021_01_workspace_RZA2M_ANPR/ANPR_RZA2M_EBK/src/tensorflow_lite/tensorflow/lite/kernels/internal\common.h ****   auto extended_input0_shape = RuntimeShape::ExtendedShape(N, input0_shape);
 827:C:/Renesas/e2studio_2021_01_workspace_RZA2M_ANPR/ANPR_RZA2M_EBK/src/tensorflow_lite/tensorflow/lite/kernels/internal\common.h ****   auto extended_input1_shape = RuntimeShape::ExtendedShape(N, input1_shape);
 828:C:/Renesas/e2studio_2021_01_workspace_RZA2M_ANPR/ANPR_RZA2M_EBK/src/tensorflow_lite/tensorflow/lite/kernels/internal\common.h **** 
 829:C:/Renesas/e2studio_2021_01_workspace_RZA2M_ANPR/ANPR_RZA2M_EBK/src/tensorflow_lite/tensorflow/lite/kernels/internal\common.h ****   // Copy dims to desc, calculating strides.
 830:C:/Renesas/e2studio_2021_01_workspace_RZA2M_ANPR/ANPR_RZA2M_EBK/src/tensorflow_lite/tensorflow/lite/kernels/internal\common.h ****   CopyDimsToDesc<N>(extended_input0_shape, desc0_out);
 831:C:/Renesas/e2studio_2021_01_workspace_RZA2M_ANPR/ANPR_RZA2M_EBK/src/tensorflow_lite/tensorflow/lite/kernels/internal\common.h ****   CopyDimsToDesc<N>(extended_input1_shape, desc1_out);
 832:C:/Renesas/e2studio_2021_01_workspace_RZA2M_ANPR/ANPR_RZA2M_EBK/src/tensorflow_lite/tensorflow/lite/kernels/internal\common.h **** 
 833:C:/Renesas/e2studio_2021_01_workspace_RZA2M_ANPR/ANPR_RZA2M_EBK/src/tensorflow_lite/tensorflow/lite/kernels/internal\common.h ****   // Walk over each dimension. If the extents are equal do nothing.
 834:C:/Renesas/e2studio_2021_01_workspace_RZA2M_ANPR/ANPR_RZA2M_EBK/src/tensorflow_lite/tensorflow/lite/kernels/internal\common.h ****   // Otherwise, set the desc with extent 1 to have extent equal to the other and
 835:C:/Renesas/e2studio_2021_01_workspace_RZA2M_ANPR/ANPR_RZA2M_EBK/src/tensorflow_lite/tensorflow/lite/kernels/internal\common.h ****   // stride 0.
 836:C:/Renesas/e2studio_2021_01_workspace_RZA2M_ANPR/ANPR_RZA2M_EBK/src/tensorflow_lite/tensorflow/lite/kernels/internal\common.h ****   for (int i = 0; i < N; ++i) {
 837:C:/Renesas/e2studio_2021_01_workspace_RZA2M_ANPR/ANPR_RZA2M_EBK/src/tensorflow_lite/tensorflow/lite/kernels/internal\common.h ****     const int extent0 = extended_input0_shape.Dims(i);
 838:C:/Renesas/e2studio_2021_01_workspace_RZA2M_ANPR/ANPR_RZA2M_EBK/src/tensorflow_lite/tensorflow/lite/kernels/internal\common.h ****     const int extent1 = extended_input1_shape.Dims(i);
 839:C:/Renesas/e2studio_2021_01_workspace_RZA2M_ANPR/ANPR_RZA2M_EBK/src/tensorflow_lite/tensorflow/lite/kernels/internal\common.h ****     if (extent0 != extent1) {
 874              		.loc 4 839 0
 875 02d0 030050E1 		cmp	r0, r3
 876 02d4 0600000A 		beq	.L57
 840:C:/Renesas/e2studio_2021_01_workspace_RZA2M_ANPR/ANPR_RZA2M_EBK/src/tensorflow_lite/tensorflow/lite/kernels/internal\common.h ****       if (extent0 == 1) {
 877              		.loc 4 840 0
 878 02d8 010053E3 		cmp	r3, #1
 879 02dc 8F06000A 		beq	.L58
 841:C:/Renesas/e2studio_2021_01_workspace_RZA2M_ANPR/ANPR_RZA2M_EBK/src/tensorflow_lite/tensorflow/lite/kernels/internal\common.h ****         desc0_out->strides[i] = 0;
 842:C:/Renesas/e2studio_2021_01_workspace_RZA2M_ANPR/ANPR_RZA2M_EBK/src/tensorflow_lite/tensorflow/lite/kernels/internal\common.h ****         desc0_out->extents[i] = extent1;
 843:C:/Renesas/e2studio_2021_01_workspace_RZA2M_ANPR/ANPR_RZA2M_EBK/src/tensorflow_lite/tensorflow/lite/kernels/internal\common.h ****       } else {
 844:C:/Renesas/e2studio_2021_01_workspace_RZA2M_ANPR/ANPR_RZA2M_EBK/src/tensorflow_lite/tensorflow/lite/kernels/internal\common.h ****         TFLITE_DCHECK_EQ(extent1, 1);
 880              		.loc 4 844 0
 881 02e0 010050E3 		cmp	r0, #1
 882 02e4 4308001A 		bne	.L59
 845:C:/Renesas/e2studio_2021_01_workspace_RZA2M_ANPR/ANPR_RZA2M_EBK/src/tensorflow_lite/tensorflow/lite/kernels/internal\common.h ****         desc1_out->strides[i] = 0;
 883              		.loc 4 845 0
 884 02e8 0000A0E3 		mov	r0, #0
 885              	.LVL111:
 846:C:/Renesas/e2studio_2021_01_workspace_RZA2M_ANPR/ANPR_RZA2M_EBK/src/tensorflow_lite/tensorflow/lite/kernels/internal\common.h ****         desc1_out->extents[i] = extent0;
 886              		.loc 4 846 0
 887 02ec 40318DE5 		str	r3, [sp, #320]
 888              	.LVL112:
 845:C:/Renesas/e2studio_2021_01_workspace_RZA2M_ANPR/ANPR_RZA2M_EBK/src/tensorflow_lite/tensorflow/lite/kernels/internal\common.h ****         desc1_out->strides[i] = 0;
 889              		.loc 4 845 0
 890 02f0 50018DE5 		str	r0, [sp, #336]
 891              	.L57:
 892              	.LVL113:
 893              	.LBB885:
 894              	.LBB869:
 215:C:/Renesas/e2studio_2021_01_workspace_RZA2M_ANPR/ANPR_RZA2M_EBK/src/tensorflow_lite/tensorflow/lite/kernels/internal\types.h ****     return size_ > kMaxSmallSize ? dims_pointer_[i] : dims_[i];
 895              		.loc 3 215 0
 896 02f4 010055E3 		cmp	r5, #1
 897 02f8 4B08000A 		beq	.L56
 216:C:/Renesas/e2studio_2021_01_workspace_RZA2M_ANPR/ANPR_RZA2M_EBK/src/tensorflow_lite/tensorflow/lite/kernels/internal\types.h ****   }
 898              		.loc 3 216 0
 899 02fc F8309DE5 		ldr	r3, [sp, #248]
 900              	.LVL114:
 901              	.LBE869:
 902              	.LBE885:
 839:C:/Renesas/e2studio_2021_01_workspace_RZA2M_ANPR/ANPR_RZA2M_EBK/src/tensorflow_lite/tensorflow/lite/kernels/internal\common.h ****       if (extent0 == 1) {
 903              		.loc 4 839 0
 904 0300 03005CE1 		cmp	ip, r3
 905 0304 0600000A 		beq	.L61
 840:C:/Renesas/e2studio_2021_01_workspace_RZA2M_ANPR/ANPR_RZA2M_EBK/src/tensorflow_lite/tensorflow/lite/kernels/internal\common.h ****         desc0_out->strides[i] = 0;
 906              		.loc 4 840 0
 907 0308 010053E3 		cmp	r3, #1
 908 030c 9706000A 		beq	.L60
 844:C:/Renesas/e2studio_2021_01_workspace_RZA2M_ANPR/ANPR_RZA2M_EBK/src/tensorflow_lite/tensorflow/lite/kernels/internal\common.h ****         desc1_out->strides[i] = 0;
 909              		.loc 4 844 0
 910 0310 01005CE3 		cmp	ip, #1
 911 0314 3708001A 		bne	.L59
 845:C:/Renesas/e2studio_2021_01_workspace_RZA2M_ANPR/ANPR_RZA2M_EBK/src/tensorflow_lite/tensorflow/lite/kernels/internal\common.h ****         desc1_out->extents[i] = extent0;
 912              		.loc 4 845 0
 913 0318 0000A0E3 		mov	r0, #0
 914              		.loc 4 846 0
 915 031c 44318DE5 		str	r3, [sp, #324]
 845:C:/Renesas/e2studio_2021_01_workspace_RZA2M_ANPR/ANPR_RZA2M_EBK/src/tensorflow_lite/tensorflow/lite/kernels/internal\common.h ****         desc1_out->extents[i] = extent0;
 916              		.loc 4 845 0
 917 0320 54018DE5 		str	r0, [sp, #340]
 918              	.L61:
 919              	.LVL115:
 920              	.LBB886:
 921              	.LBB870:
 215:C:/Renesas/e2studio_2021_01_workspace_RZA2M_ANPR/ANPR_RZA2M_EBK/src/tensorflow_lite/tensorflow/lite/kernels/internal\types.h ****     return size_ > kMaxSmallSize ? dims_pointer_[i] : dims_[i];
 922              		.loc 3 215 0
 923 0324 020055E3 		cmp	r5, #2
 924 0328 3F08000A 		beq	.L56
 216:C:/Renesas/e2studio_2021_01_workspace_RZA2M_ANPR/ANPR_RZA2M_EBK/src/tensorflow_lite/tensorflow/lite/kernels/internal\types.h ****   }
 925              		.loc 3 216 0
 926 032c FC309DE5 		ldr	r3, [sp, #252]
 927              	.LVL116:
 928              	.LBE870:
 929              	.LBE886:
 839:C:/Renesas/e2studio_2021_01_workspace_RZA2M_ANPR/ANPR_RZA2M_EBK/src/tensorflow_lite/tensorflow/lite/kernels/internal\common.h ****       if (extent0 == 1) {
 930              		.loc 4 839 0
 931 0330 030051E1 		cmp	r1, r3
 932 0334 0600000A 		beq	.L63
 840:C:/Renesas/e2studio_2021_01_workspace_RZA2M_ANPR/ANPR_RZA2M_EBK/src/tensorflow_lite/tensorflow/lite/kernels/internal\common.h ****         desc0_out->strides[i] = 0;
 933              		.loc 4 840 0
 934 0338 010053E3 		cmp	r3, #1
 935 033c 7B06000A 		beq	.L62
 844:C:/Renesas/e2studio_2021_01_workspace_RZA2M_ANPR/ANPR_RZA2M_EBK/src/tensorflow_lite/tensorflow/lite/kernels/internal\common.h ****         desc1_out->strides[i] = 0;
 936              		.loc 4 844 0
 937 0340 010051E3 		cmp	r1, #1
 938 0344 2B08001A 		bne	.L59
 845:C:/Renesas/e2studio_2021_01_workspace_RZA2M_ANPR/ANPR_RZA2M_EBK/src/tensorflow_lite/tensorflow/lite/kernels/internal\common.h ****         desc1_out->extents[i] = extent0;
 939              		.loc 4 845 0
 940 0348 0010A0E3 		mov	r1, #0
 941              		.loc 4 846 0
 942 034c 48318DE5 		str	r3, [sp, #328]
 845:C:/Renesas/e2studio_2021_01_workspace_RZA2M_ANPR/ANPR_RZA2M_EBK/src/tensorflow_lite/tensorflow/lite/kernels/internal\common.h ****         desc1_out->extents[i] = extent0;
 943              		.loc 4 845 0
 944 0350 58118DE5 		str	r1, [sp, #344]
 945              	.L63:
 946              	.LVL117:
 947              	.LBB887:
 948              	.LBB871:
 215:C:/Renesas/e2studio_2021_01_workspace_RZA2M_ANPR/ANPR_RZA2M_EBK/src/tensorflow_lite/tensorflow/lite/kernels/internal\types.h ****     return size_ > kMaxSmallSize ? dims_pointer_[i] : dims_[i];
 949              		.loc 3 215 0
 950 0354 030055E3 		cmp	r5, #3
 951 0358 3308000A 		beq	.L56
 216:C:/Renesas/e2studio_2021_01_workspace_RZA2M_ANPR/ANPR_RZA2M_EBK/src/tensorflow_lite/tensorflow/lite/kernels/internal\types.h ****   }
 952              		.loc 3 216 0
 953 035c 00319DE5 		ldr	r3, [sp, #256]
 954              	.LVL118:
 955              	.LBE871:
 956              	.LBE887:
 839:C:/Renesas/e2studio_2021_01_workspace_RZA2M_ANPR/ANPR_RZA2M_EBK/src/tensorflow_lite/tensorflow/lite/kernels/internal\common.h ****       if (extent0 == 1) {
 957              		.loc 4 839 0
 958 0360 030052E1 		cmp	r2, r3
 959 0364 0005000A 		beq	.L401
 960              	.L806:
 840:C:/Renesas/e2studio_2021_01_workspace_RZA2M_ANPR/ANPR_RZA2M_EBK/src/tensorflow_lite/tensorflow/lite/kernels/internal\common.h ****         desc0_out->strides[i] = 0;
 961              		.loc 4 840 0
 962 0368 010053E3 		cmp	r3, #1
 963 036c FF06000A 		beq	.L74
 844:C:/Renesas/e2studio_2021_01_workspace_RZA2M_ANPR/ANPR_RZA2M_EBK/src/tensorflow_lite/tensorflow/lite/kernels/internal\common.h ****         desc1_out->strides[i] = 0;
 964              		.loc 4 844 0
 965 0370 010052E3 		cmp	r2, #1
 966 0374 1F08001A 		bne	.L59
 845:C:/Renesas/e2studio_2021_01_workspace_RZA2M_ANPR/ANPR_RZA2M_EBK/src/tensorflow_lite/tensorflow/lite/kernels/internal\common.h ****         desc1_out->extents[i] = extent0;
 967              		.loc 4 845 0
 968 0378 0020A0E3 		mov	r2, #0
 969              		.loc 4 846 0
 970 037c 4C318DE5 		str	r3, [sp, #332]
 845:C:/Renesas/e2studio_2021_01_workspace_RZA2M_ANPR/ANPR_RZA2M_EBK/src/tensorflow_lite/tensorflow/lite/kernels/internal\common.h ****         desc1_out->extents[i] = extent0;
 971              		.loc 4 845 0
 972 0380 5C218DE5 		str	r2, [sp, #348]
 973 0384 F80400EA 		b	.L401
 974              	.LVL119:
 975              	.L26:
 976              	.LBE866:
 977              	.LBE865:
 978              	.LBE798:
 979              	.LBE797:
 980              	.LBE778:
 981              	.LBE777:
 138:../src/tensorflow_lite/tensorflow/lite/micro/kernels/prelu.cc ****           tflite::micro::GetTensorData<int8_t>(input),
 982              		.loc 1 138 0
 983 0388 0810A0E1 		mov	r1, r8
 984 038c 90008DE2 		add	r0, sp, #144
 985              	.LEHB6:
 986 0390 FEFFFFEB 		bl	_ZN6tflite5micro14GetTensorShapeEPK16TfLiteEvalTensor
 987              	.LVL120:
 988              	.LEHE6:
 140:../src/tensorflow_lite/tensorflow/lite/micro/kernels/prelu.cc ****           tflite::micro::GetTensorData<int8_t>(alpha),
 989              		.loc 1 140 0
 990 0394 0710A0E1 		mov	r1, r7
 991 0398 A8008DE2 		add	r0, sp, #168
 992              	.LBB1100:
 993              	.LBB1101:
 994              		.loc 2 63 0
 995 039c 005098E5 		ldr	r5, [r8]
 996              	.LVL121:
 997              	.LEHB7:
 998              	.LBE1101:
 999              	.LBE1100:
 140:../src/tensorflow_lite/tensorflow/lite/micro/kernels/prelu.cc ****           tflite::micro::GetTensorData<int8_t>(alpha),
 1000              		.loc 1 140 0
 1001 03a0 FEFFFFEB 		bl	_ZN6tflite5micro14GetTensorShapeEPK16TfLiteEvalTensor
 1002              	.LVL122:
 1003              	.LEHE7:
 1004              	.LBB1102:
 1005              	.LBB1103:
  62:C:/Renesas/e2studio_2021_01_workspace_RZA2M_ANPR/ANPR_RZA2M_EBK/src/tensorflow_lite/tensorflow/lite/micro/kernels\kernel_util.h ****   return reinterpret_cast<const T*>(tensor->data.raw);
 1006              		.loc 2 62 0
 1007 03a4 000057E3 		cmp	r7, #0
 1008 03a8 5A08000A 		beq	.L923
 1009              	.LBE1103:
 1010              	.LBE1102:
 142:../src/tensorflow_lite/tensorflow/lite/micro/kernels/prelu.cc ****           tflite::micro::GetTensorData<int8_t>(output));
 1011              		.loc 1 142 0
 1012 03ac 0610A0E1 		mov	r1, r6
 1013 03b0 C0008DE2 		add	r0, sp, #192
 1014              	.LBB1106:
 1015              	.LBB1104:
 1016              		.loc 2 63 0
 1017 03b4 004097E5 		ldr	r4, [r7]
 1018              	.LVL123:
 1019              	.LEHB8:
 1020              	.LBE1104:
 1021              	.LBE1106:
 142:../src/tensorflow_lite/tensorflow/lite/micro/kernels/prelu.cc ****           tflite::micro::GetTensorData<int8_t>(output));
 1022              		.loc 1 142 0
 1023 03b8 FEFFFFEB 		bl	_ZN6tflite5micro14GetTensorShapeEPK16TfLiteEvalTensor
 1024              	.LVL124:
 1025              	.LEHE8:
 1026 03bc 90809DE5 		ldr	r8, [sp, #144]
 1027              	.LBB1107:
 1028              	.LBB1108:
  56:C:/Renesas/e2studio_2021_01_workspace_RZA2M_ANPR/ANPR_RZA2M_EBK/src/tensorflow_lite/tensorflow/lite/micro/kernels\kernel_util.h **** }
 1029              		.loc 2 56 0
 1030 03c0 000056E3 		cmp	r6, #0
 1031 03c4 00609615 		ldrne	r6, [r6]
 1032              	.LVL125:
 1033              	.LBE1108:
 1034              	.LBE1107:
 1035              	.LBB1109:
 1036              	.LBB1110:
 1037              		.file 5 "C:/Renesas/e2studio_2021_01_workspace_RZA2M_ANPR/ANPR_RZA2M_EBK/src/tensorflow_lite/tenso
   1:C:/Renesas/e2studio_2021_01_workspace_RZA2M_ANPR/ANPR_RZA2M_EBK/src/tensorflow_lite/tensorflow/lite/kernels/internal/reference\prelu.h **** /* Copyright 2019 The TensorFlow Authors. All Rights Reserved.
   2:C:/Renesas/e2studio_2021_01_workspace_RZA2M_ANPR/ANPR_RZA2M_EBK/src/tensorflow_lite/tensorflow/lite/kernels/internal/reference\prelu.h **** 
   3:C:/Renesas/e2studio_2021_01_workspace_RZA2M_ANPR/ANPR_RZA2M_EBK/src/tensorflow_lite/tensorflow/lite/kernels/internal/reference\prelu.h **** Licensed under the Apache License, Version 2.0 (the "License");
   4:C:/Renesas/e2studio_2021_01_workspace_RZA2M_ANPR/ANPR_RZA2M_EBK/src/tensorflow_lite/tensorflow/lite/kernels/internal/reference\prelu.h **** you may not use this file except in compliance with the License.
   5:C:/Renesas/e2studio_2021_01_workspace_RZA2M_ANPR/ANPR_RZA2M_EBK/src/tensorflow_lite/tensorflow/lite/kernels/internal/reference\prelu.h **** You may obtain a copy of the License at
   6:C:/Renesas/e2studio_2021_01_workspace_RZA2M_ANPR/ANPR_RZA2M_EBK/src/tensorflow_lite/tensorflow/lite/kernels/internal/reference\prelu.h **** 
   7:C:/Renesas/e2studio_2021_01_workspace_RZA2M_ANPR/ANPR_RZA2M_EBK/src/tensorflow_lite/tensorflow/lite/kernels/internal/reference\prelu.h ****     http://www.apache.org/licenses/LICENSE-2.0
   8:C:/Renesas/e2studio_2021_01_workspace_RZA2M_ANPR/ANPR_RZA2M_EBK/src/tensorflow_lite/tensorflow/lite/kernels/internal/reference\prelu.h **** 
   9:C:/Renesas/e2studio_2021_01_workspace_RZA2M_ANPR/ANPR_RZA2M_EBK/src/tensorflow_lite/tensorflow/lite/kernels/internal/reference\prelu.h **** Unless required by applicable law or agreed to in writing, software
  10:C:/Renesas/e2studio_2021_01_workspace_RZA2M_ANPR/ANPR_RZA2M_EBK/src/tensorflow_lite/tensorflow/lite/kernels/internal/reference\prelu.h **** distributed under the License is distributed on an "AS IS" BASIS,
  11:C:/Renesas/e2studio_2021_01_workspace_RZA2M_ANPR/ANPR_RZA2M_EBK/src/tensorflow_lite/tensorflow/lite/kernels/internal/reference\prelu.h **** WITHOUT WARRANTIES OR CONDITIONS OF ANY KIND, either express or implied.
  12:C:/Renesas/e2studio_2021_01_workspace_RZA2M_ANPR/ANPR_RZA2M_EBK/src/tensorflow_lite/tensorflow/lite/kernels/internal/reference\prelu.h **** See the License for the specific language governing permissions and
  13:C:/Renesas/e2studio_2021_01_workspace_RZA2M_ANPR/ANPR_RZA2M_EBK/src/tensorflow_lite/tensorflow/lite/kernels/internal/reference\prelu.h **** limitations under the License.
  14:C:/Renesas/e2studio_2021_01_workspace_RZA2M_ANPR/ANPR_RZA2M_EBK/src/tensorflow_lite/tensorflow/lite/kernels/internal/reference\prelu.h **** ==============================================================================*/
  15:C:/Renesas/e2studio_2021_01_workspace_RZA2M_ANPR/ANPR_RZA2M_EBK/src/tensorflow_lite/tensorflow/lite/kernels/internal/reference\prelu.h **** #ifndef TENSORFLOW_LITE_KERNELS_INTERNAL_REFERENCE_PRELU_H_
  16:C:/Renesas/e2studio_2021_01_workspace_RZA2M_ANPR/ANPR_RZA2M_EBK/src/tensorflow_lite/tensorflow/lite/kernels/internal/reference\prelu.h **** #define TENSORFLOW_LITE_KERNELS_INTERNAL_REFERENCE_PRELU_H_
  17:C:/Renesas/e2studio_2021_01_workspace_RZA2M_ANPR/ANPR_RZA2M_EBK/src/tensorflow_lite/tensorflow/lite/kernels/internal/reference\prelu.h **** 
  18:C:/Renesas/e2studio_2021_01_workspace_RZA2M_ANPR/ANPR_RZA2M_EBK/src/tensorflow_lite/tensorflow/lite/kernels/internal/reference\prelu.h **** #include "tensorflow/lite/kernels/internal/common.h"
  19:C:/Renesas/e2studio_2021_01_workspace_RZA2M_ANPR/ANPR_RZA2M_EBK/src/tensorflow_lite/tensorflow/lite/kernels/internal/reference\prelu.h **** #include "tensorflow/lite/kernels/internal/compatibility.h"
  20:C:/Renesas/e2studio_2021_01_workspace_RZA2M_ANPR/ANPR_RZA2M_EBK/src/tensorflow_lite/tensorflow/lite/kernels/internal/reference\prelu.h **** #include "tensorflow/lite/kernels/internal/types.h"
  21:C:/Renesas/e2studio_2021_01_workspace_RZA2M_ANPR/ANPR_RZA2M_EBK/src/tensorflow_lite/tensorflow/lite/kernels/internal/reference\prelu.h **** 
  22:C:/Renesas/e2studio_2021_01_workspace_RZA2M_ANPR/ANPR_RZA2M_EBK/src/tensorflow_lite/tensorflow/lite/kernels/internal/reference\prelu.h **** namespace tflite {
  23:C:/Renesas/e2studio_2021_01_workspace_RZA2M_ANPR/ANPR_RZA2M_EBK/src/tensorflow_lite/tensorflow/lite/kernels/internal/reference\prelu.h **** 
  24:C:/Renesas/e2studio_2021_01_workspace_RZA2M_ANPR/ANPR_RZA2M_EBK/src/tensorflow_lite/tensorflow/lite/kernels/internal/reference\prelu.h **** namespace reference_ops {
  25:C:/Renesas/e2studio_2021_01_workspace_RZA2M_ANPR/ANPR_RZA2M_EBK/src/tensorflow_lite/tensorflow/lite/kernels/internal/reference\prelu.h **** 
  26:C:/Renesas/e2studio_2021_01_workspace_RZA2M_ANPR/ANPR_RZA2M_EBK/src/tensorflow_lite/tensorflow/lite/kernels/internal/reference\prelu.h **** // Broadcast prelu to output_shape for quantized uint8_t/int8_t data.
  27:C:/Renesas/e2studio_2021_01_workspace_RZA2M_ANPR/ANPR_RZA2M_EBK/src/tensorflow_lite/tensorflow/lite/kernels/internal/reference\prelu.h **** template <typename T>
  28:C:/Renesas/e2studio_2021_01_workspace_RZA2M_ANPR/ANPR_RZA2M_EBK/src/tensorflow_lite/tensorflow/lite/kernels/internal/reference\prelu.h **** inline void BroadcastPrelu4DSlow(
  29:C:/Renesas/e2studio_2021_01_workspace_RZA2M_ANPR/ANPR_RZA2M_EBK/src/tensorflow_lite/tensorflow/lite/kernels/internal/reference\prelu.h ****     const PreluParams& params, const RuntimeShape& input_shape,
  30:C:/Renesas/e2studio_2021_01_workspace_RZA2M_ANPR/ANPR_RZA2M_EBK/src/tensorflow_lite/tensorflow/lite/kernels/internal/reference\prelu.h ****     const T* input_data, const RuntimeShape& alpha_shape, const T* alpha_data,
  31:C:/Renesas/e2studio_2021_01_workspace_RZA2M_ANPR/ANPR_RZA2M_EBK/src/tensorflow_lite/tensorflow/lite/kernels/internal/reference\prelu.h ****     const RuntimeShape& output_shape, T* output_data) {
  32:C:/Renesas/e2studio_2021_01_workspace_RZA2M_ANPR/ANPR_RZA2M_EBK/src/tensorflow_lite/tensorflow/lite/kernels/internal/reference\prelu.h ****   TFLITE_DCHECK_LE(input_shape.DimensionsCount(), 4);
 1038              		.loc 5 32 0
 1039 03c8 040058E3 		cmp	r8, #4
 1040 03cc 530800CA 		bgt	.L924
 1041 03d0 A8709DE5 		ldr	r7, [sp, #168]
 1042              	.LVL126:
  33:C:/Renesas/e2studio_2021_01_workspace_RZA2M_ANPR/ANPR_RZA2M_EBK/src/tensorflow_lite/tensorflow/lite/kernels/internal/reference\prelu.h ****   TFLITE_DCHECK_LE(alpha_shape.DimensionsCount(), 4);
 1043              		.loc 5 33 0
 1044 03d4 040057E3 		cmp	r7, #4
 1045 03d8 510800CA 		bgt	.L925
 1046 03dc C0209DE5 		ldr	r2, [sp, #192]
 1047              	.LVL127:
  34:C:/Renesas/e2studio_2021_01_workspace_RZA2M_ANPR/ANPR_RZA2M_EBK/src/tensorflow_lite/tensorflow/lite/kernels/internal/reference\prelu.h ****   TFLITE_DCHECK_LE(output_shape.DimensionsCount(), 4);
 1048              		.loc 5 34 0
 1049 03e0 040052E3 		cmp	r2, #4
 1050 03e4 4F0800CA 		bgt	.L926
 1051              	.LVL128:
 1052              	.LBB1111:
 1053              	.LBB1112:
 1054              	.LBB1113:
 1055              	.LBB1114:
 1056              	.LBB1115:
 311:C:/Renesas/e2studio_2021_01_workspace_RZA2M_ANPR/ANPR_RZA2M_EBK/src/tensorflow_lite/tensorflow/lite/kernels/internal\types.h ****       SetDim(i, pad_value);
 1057              		.loc 3 311 0
 1058 03e8 040072E2 		rsbs	r0, r2, #4
 1059              	.LBE1115:
 1060              	.LBB1126:
 1061              	.LBB1127:
 245:C:/Renesas/e2studio_2021_01_workspace_RZA2M_ANPR/ANPR_RZA2M_EBK/src/tensorflow_lite/tensorflow/lite/kernels/internal\types.h ****     if (dimensions_count > kMaxSmallSize) {
 1062              		.loc 3 245 0
 1063 03ec 0430A0E3 		mov	r3, #4
 1064 03f0 D8308DE5 		str	r3, [sp, #216]
 1065              	.LVL129:
 1066              	.LBE1127:
 1067              	.LBE1126:
 1068              	.LBB1128:
 311:C:/Renesas/e2studio_2021_01_workspace_RZA2M_ANPR/ANPR_RZA2M_EBK/src/tensorflow_lite/tensorflow/lite/kernels/internal\types.h ****       SetDim(i, pad_value);
 1069              		.loc 3 311 0
 1070 03f4 0D00000A 		beq	.L270
 1071              	.LVL130:
 1072 03f8 010050E3 		cmp	r0, #1
 1073              	.LBB1116:
 1074              	.LBB1117:
 224:C:/Renesas/e2studio_2021_01_workspace_RZA2M_ANPR/ANPR_RZA2M_EBK/src/tensorflow_lite/tensorflow/lite/kernels/internal\types.h ****     }
 1075              		.loc 3 224 0
 1076 03fc 0130A0E3 		mov	r3, #1
 1077 0400 DC308DE5 		str	r3, [sp, #220]
 1078              	.LVL131:
 1079              	.LBE1117:
 1080              	.LBE1116:
 311:C:/Renesas/e2studio_2021_01_workspace_RZA2M_ANPR/ANPR_RZA2M_EBK/src/tensorflow_lite/tensorflow/lite/kernels/internal\types.h ****       SetDim(i, pad_value);
 1081              		.loc 3 311 0
 1082 0404 0900000A 		beq	.L270
 1083              	.LVL132:
 1084 0408 020050E3 		cmp	r0, #2
 1085              	.LBB1122:
 1086              	.LBB1118:
 224:C:/Renesas/e2studio_2021_01_workspace_RZA2M_ANPR/ANPR_RZA2M_EBK/src/tensorflow_lite/tensorflow/lite/kernels/internal\types.h ****     }
 1087              		.loc 3 224 0
 1088 040c E0308DE5 		str	r3, [sp, #224]
 1089              	.LVL133:
 1090              	.LBE1118:
 1091              	.LBE1122:
 311:C:/Renesas/e2studio_2021_01_workspace_RZA2M_ANPR/ANPR_RZA2M_EBK/src/tensorflow_lite/tensorflow/lite/kernels/internal\types.h ****       SetDim(i, pad_value);
 1092              		.loc 3 311 0
 1093 0410 0600000A 		beq	.L270
 1094              	.LVL134:
 1095 0414 030050E3 		cmp	r0, #3
 1096              	.LBB1123:
 1097              	.LBB1119:
 224:C:/Renesas/e2studio_2021_01_workspace_RZA2M_ANPR/ANPR_RZA2M_EBK/src/tensorflow_lite/tensorflow/lite/kernels/internal\types.h ****     }
 1098              		.loc 3 224 0
 1099 0418 E4308DE5 		str	r3, [sp, #228]
 1100              	.LVL135:
 1101              	.LBE1119:
 1102              	.LBE1123:
 311:C:/Renesas/e2studio_2021_01_workspace_RZA2M_ANPR/ANPR_RZA2M_EBK/src/tensorflow_lite/tensorflow/lite/kernels/internal\types.h ****       SetDim(i, pad_value);
 1103              		.loc 3 311 0
 1104 041c 0300000A 		beq	.L270
 1105              	.LVL136:
 1106 0420 040050E3 		cmp	r0, #4
 1107              	.LBB1124:
 1108              	.LBB1120:
 224:C:/Renesas/e2studio_2021_01_workspace_RZA2M_ANPR/ANPR_RZA2M_EBK/src/tensorflow_lite/tensorflow/lite/kernels/internal\types.h ****     }
 1109              		.loc 3 224 0
 1110 0424 E8308DE5 		str	r3, [sp, #232]
 1111              	.LVL137:
 1112              	.LBE1120:
 1113              	.LBE1124:
 311:C:/Renesas/e2studio_2021_01_workspace_RZA2M_ANPR/ANPR_RZA2M_EBK/src/tensorflow_lite/tensorflow/lite/kernels/internal\types.h ****       SetDim(i, pad_value);
 1114              		.loc 3 311 0
 1115 0428 0000000A 		beq	.L270
 1116              	.LVL138:
 1117              	.LEHB9:
 1118              	.LBB1125:
 1119              	.LBB1121:
 220:C:/Renesas/e2studio_2021_01_workspace_RZA2M_ANPR/ANPR_RZA2M_EBK/src/tensorflow_lite/tensorflow/lite/kernels/internal\types.h ****     if (size_ > kMaxSmallSize) {
 1120              		.loc 3 220 0
 1121 042c FEFFFFEB 		bl	abort
 1122              	.LVL139:
 1123              	.LEHE9:
 1124              	.L270:
 1125              	.LBE1121:
 1126              	.LBE1125:
 1127              	.LBE1128:
 1128              		.loc 3 315 0
 1129 0430 DC308DE2 		add	r3, sp, #220
 1130 0434 0221A0E1 		lsl	r2, r2, #2
 1131 0438 000183E0 		add	r0, r3, r0, lsl #2
 1132              	.LVL140:
 1133 043c C4108DE2 		add	r1, sp, #196
 1134 0440 FEFFFFEB 		bl	memcpy
 1135              	.LVL141:
 1136              	.LBE1114:
 1137              	.LBE1113:
 1138              	.LBE1112:
 1139              	.LBE1111:
 1140              	.LBB1129:
 1141              	.LBB1130:
 1142              	.LBB1131:
 1143              	.LBB1132:
 1144              	.LBB1133:
 1145              	.LBB1134:
 1146              	.LBB1135:
 311:C:/Renesas/e2studio_2021_01_workspace_RZA2M_ANPR/ANPR_RZA2M_EBK/src/tensorflow_lite/tensorflow/lite/kernels/internal\types.h ****       SetDim(i, pad_value);
 1147              		.loc 3 311 0
 1148 0444 040078E2 		rsbs	r0, r8, #4
 1149              	.LBE1135:
 1150              	.LBB1146:
 1151              	.LBB1147:
 245:C:/Renesas/e2studio_2021_01_workspace_RZA2M_ANPR/ANPR_RZA2M_EBK/src/tensorflow_lite/tensorflow/lite/kernels/internal\types.h ****     if (dimensions_count > kMaxSmallSize) {
 1152              		.loc 3 245 0
 1153 0448 0430A0E3 		mov	r3, #4
 1154 044c F0308DE5 		str	r3, [sp, #240]
 1155              	.LVL142:
 1156              	.LBE1147:
 1157              	.LBE1146:
 1158              	.LBB1148:
 311:C:/Renesas/e2studio_2021_01_workspace_RZA2M_ANPR/ANPR_RZA2M_EBK/src/tensorflow_lite/tensorflow/lite/kernels/internal\types.h ****       SetDim(i, pad_value);
 1159              		.loc 3 311 0
 1160 0450 0D00000A 		beq	.L268
 1161              	.LVL143:
 1162 0454 010050E3 		cmp	r0, #1
 1163              	.LBB1136:
 1164              	.LBB1137:
 224:C:/Renesas/e2studio_2021_01_workspace_RZA2M_ANPR/ANPR_RZA2M_EBK/src/tensorflow_lite/tensorflow/lite/kernels/internal\types.h ****     }
 1165              		.loc 3 224 0
 1166 0458 0130A0E3 		mov	r3, #1
 1167 045c F4308DE5 		str	r3, [sp, #244]
 1168              	.LVL144:
 1169              	.LBE1137:
 1170              	.LBE1136:
 311:C:/Renesas/e2studio_2021_01_workspace_RZA2M_ANPR/ANPR_RZA2M_EBK/src/tensorflow_lite/tensorflow/lite/kernels/internal\types.h ****       SetDim(i, pad_value);
 1171              		.loc 3 311 0
 1172 0460 0900000A 		beq	.L268
 1173              	.LVL145:
 1174 0464 020050E3 		cmp	r0, #2
 1175              	.LBB1142:
 1176              	.LBB1138:
 224:C:/Renesas/e2studio_2021_01_workspace_RZA2M_ANPR/ANPR_RZA2M_EBK/src/tensorflow_lite/tensorflow/lite/kernels/internal\types.h ****     }
 1177              		.loc 3 224 0
 1178 0468 F8308DE5 		str	r3, [sp, #248]
 1179              	.LVL146:
 1180              	.LBE1138:
 1181              	.LBE1142:
 311:C:/Renesas/e2studio_2021_01_workspace_RZA2M_ANPR/ANPR_RZA2M_EBK/src/tensorflow_lite/tensorflow/lite/kernels/internal\types.h ****       SetDim(i, pad_value);
 1182              		.loc 3 311 0
 1183 046c 0600000A 		beq	.L268
 1184              	.LVL147:
 1185 0470 030050E3 		cmp	r0, #3
 1186              	.LBB1143:
 1187              	.LBB1139:
 224:C:/Renesas/e2studio_2021_01_workspace_RZA2M_ANPR/ANPR_RZA2M_EBK/src/tensorflow_lite/tensorflow/lite/kernels/internal\types.h ****     }
 1188              		.loc 3 224 0
 1189 0474 FC308DE5 		str	r3, [sp, #252]
 1190              	.LVL148:
 1191              	.LBE1139:
 1192              	.LBE1143:
 311:C:/Renesas/e2studio_2021_01_workspace_RZA2M_ANPR/ANPR_RZA2M_EBK/src/tensorflow_lite/tensorflow/lite/kernels/internal\types.h ****       SetDim(i, pad_value);
 1193              		.loc 3 311 0
 1194 0478 0300000A 		beq	.L268
 1195              	.LVL149:
 1196 047c 040050E3 		cmp	r0, #4
 1197              	.LBB1144:
 1198              	.LBB1140:
 224:C:/Renesas/e2studio_2021_01_workspace_RZA2M_ANPR/ANPR_RZA2M_EBK/src/tensorflow_lite/tensorflow/lite/kernels/internal\types.h ****     }
 1199              		.loc 3 224 0
 1200 0480 00318DE5 		str	r3, [sp, #256]
 1201              	.LVL150:
 1202              	.LBE1140:
 1203              	.LBE1144:
 311:C:/Renesas/e2studio_2021_01_workspace_RZA2M_ANPR/ANPR_RZA2M_EBK/src/tensorflow_lite/tensorflow/lite/kernels/internal\types.h ****       SetDim(i, pad_value);
 1204              		.loc 3 311 0
 1205 0484 0000000A 		beq	.L268
 1206              	.LVL151:
 1207              	.LEHB10:
 1208              	.LBB1145:
 1209              	.LBB1141:
 220:C:/Renesas/e2studio_2021_01_workspace_RZA2M_ANPR/ANPR_RZA2M_EBK/src/tensorflow_lite/tensorflow/lite/kernels/internal\types.h ****     if (size_ > kMaxSmallSize) {
 1210              		.loc 3 220 0
 1211 0488 FEFFFFEB 		bl	abort
 1212              	.LVL152:
 1213              	.LEHE10:
 1214              	.L268:
 1215              	.LBE1141:
 1216              	.LBE1145:
 1217              	.LBE1148:
 1218              		.loc 3 315 0
 1219 048c F4308DE2 		add	r3, sp, #244
 1220 0490 0821A0E1 		lsl	r2, r8, #2
 1221 0494 000183E0 		add	r0, r3, r0, lsl #2
 1222              	.LVL153:
 1223 0498 94108DE2 		add	r1, sp, #148
 1224 049c FEFFFFEB 		bl	memcpy
 1225              	.LVL154:
 1226              	.LBE1134:
 1227              	.LBE1133:
 1228              	.LBE1132:
 1229              	.LBE1131:
 1230              	.LBB1149:
 1231              	.LBB1150:
 1232              	.LBB1151:
 1233              	.LBB1152:
 1234              	.LBB1153:
 311:C:/Renesas/e2studio_2021_01_workspace_RZA2M_ANPR/ANPR_RZA2M_EBK/src/tensorflow_lite/tensorflow/lite/kernels/internal\types.h ****       SetDim(i, pad_value);
 1235              		.loc 3 311 0
 1236 04a0 040077E2 		rsbs	r0, r7, #4
 1237              	.LBE1153:
 1238              	.LBB1164:
 1239              	.LBB1165:
 245:C:/Renesas/e2studio_2021_01_workspace_RZA2M_ANPR/ANPR_RZA2M_EBK/src/tensorflow_lite/tensorflow/lite/kernels/internal\types.h ****     if (dimensions_count > kMaxSmallSize) {
 1240              		.loc 3 245 0
 1241 04a4 0430A0E3 		mov	r3, #4
 1242 04a8 08318DE5 		str	r3, [sp, #264]
 1243              	.LVL155:
 1244              	.LBE1165:
 1245              	.LBE1164:
 1246              	.LBB1166:
 311:C:/Renesas/e2studio_2021_01_workspace_RZA2M_ANPR/ANPR_RZA2M_EBK/src/tensorflow_lite/tensorflow/lite/kernels/internal\types.h ****       SetDim(i, pad_value);
 1247              		.loc 3 311 0
 1248 04ac 0D00000A 		beq	.L272
 1249              	.LVL156:
 1250 04b0 010050E3 		cmp	r0, #1
 1251              	.LBB1154:
 1252              	.LBB1155:
 224:C:/Renesas/e2studio_2021_01_workspace_RZA2M_ANPR/ANPR_RZA2M_EBK/src/tensorflow_lite/tensorflow/lite/kernels/internal\types.h ****     }
 1253              		.loc 3 224 0
 1254 04b4 0130A0E3 		mov	r3, #1
 1255 04b8 0C318DE5 		str	r3, [sp, #268]
 1256              	.LVL157:
 1257              	.LBE1155:
 1258              	.LBE1154:
 311:C:/Renesas/e2studio_2021_01_workspace_RZA2M_ANPR/ANPR_RZA2M_EBK/src/tensorflow_lite/tensorflow/lite/kernels/internal\types.h ****       SetDim(i, pad_value);
 1259              		.loc 3 311 0
 1260 04bc 0900000A 		beq	.L272
 1261              	.LVL158:
 1262 04c0 020050E3 		cmp	r0, #2
 1263              	.LBB1160:
 1264              	.LBB1156:
 224:C:/Renesas/e2studio_2021_01_workspace_RZA2M_ANPR/ANPR_RZA2M_EBK/src/tensorflow_lite/tensorflow/lite/kernels/internal\types.h ****     }
 1265              		.loc 3 224 0
 1266 04c4 10318DE5 		str	r3, [sp, #272]
 1267              	.LVL159:
 1268              	.LBE1156:
 1269              	.LBE1160:
 311:C:/Renesas/e2studio_2021_01_workspace_RZA2M_ANPR/ANPR_RZA2M_EBK/src/tensorflow_lite/tensorflow/lite/kernels/internal\types.h ****       SetDim(i, pad_value);
 1270              		.loc 3 311 0
 1271 04c8 0600000A 		beq	.L272
 1272              	.LVL160:
 1273 04cc 030050E3 		cmp	r0, #3
 1274              	.LBB1161:
 1275              	.LBB1157:
 224:C:/Renesas/e2studio_2021_01_workspace_RZA2M_ANPR/ANPR_RZA2M_EBK/src/tensorflow_lite/tensorflow/lite/kernels/internal\types.h ****     }
 1276              		.loc 3 224 0
 1277 04d0 14318DE5 		str	r3, [sp, #276]
 1278              	.LVL161:
 1279              	.LBE1157:
 1280              	.LBE1161:
 311:C:/Renesas/e2studio_2021_01_workspace_RZA2M_ANPR/ANPR_RZA2M_EBK/src/tensorflow_lite/tensorflow/lite/kernels/internal\types.h ****       SetDim(i, pad_value);
 1281              		.loc 3 311 0
 1282 04d4 0300000A 		beq	.L272
 1283              	.LVL162:
 1284 04d8 040050E3 		cmp	r0, #4
 1285              	.LBB1162:
 1286              	.LBB1158:
 224:C:/Renesas/e2studio_2021_01_workspace_RZA2M_ANPR/ANPR_RZA2M_EBK/src/tensorflow_lite/tensorflow/lite/kernels/internal\types.h ****     }
 1287              		.loc 3 224 0
 1288 04dc 18318DE5 		str	r3, [sp, #280]
 1289              	.LVL163:
 1290              	.LBE1158:
 1291              	.LBE1162:
 311:C:/Renesas/e2studio_2021_01_workspace_RZA2M_ANPR/ANPR_RZA2M_EBK/src/tensorflow_lite/tensorflow/lite/kernels/internal\types.h ****       SetDim(i, pad_value);
 1292              		.loc 3 311 0
 1293 04e0 0000000A 		beq	.L272
 1294              	.LVL164:
 1295              	.LEHB11:
 1296              	.LBB1163:
 1297              	.LBB1159:
 220:C:/Renesas/e2studio_2021_01_workspace_RZA2M_ANPR/ANPR_RZA2M_EBK/src/tensorflow_lite/tensorflow/lite/kernels/internal\types.h ****     if (size_ > kMaxSmallSize) {
 1298              		.loc 3 220 0
 1299 04e4 FEFFFFEB 		bl	abort
 1300              	.LVL165:
 1301              	.LEHE11:
 1302              	.L272:
 1303              	.LBE1159:
 1304              	.LBE1163:
 1305              	.LBE1166:
 1306              		.loc 3 315 0
 1307 04e8 433F8DE2 		add	r3, sp, #268
 1308 04ec 0721A0E1 		lsl	r2, r7, #2
 1309 04f0 000183E0 		add	r0, r3, r0, lsl #2
 1310              	.LVL166:
 1311 04f4 AC108DE2 		add	r1, sp, #172
 1312 04f8 FEFFFFEB 		bl	memcpy
 1313              	.LVL167:
 1314 04fc F0709DE5 		ldr	r7, [sp, #240]
 1315              	.LBE1152:
 1316              	.LBE1151:
 1317              	.LBE1150:
 1318              	.LBE1149:
 1319              	.LBB1167:
 1320              	.LBB1168:
 1321              	.LBB1169:
 1322              	.LBB1170:
 1323              	.LBB1171:
 216:C:/Renesas/e2studio_2021_01_workspace_RZA2M_ANPR/ANPR_RZA2M_EBK/src/tensorflow_lite/tensorflow/lite/kernels/internal\types.h ****   }
 1324              		.loc 3 216 0
 1325 0500 F4309DE5 		ldr	r3, [sp, #244]
 1326 0504 050057E3 		cmp	r7, #5
 1327 0508 0C0100CA 		bgt	.L927
 1328              	.LVL168:
 215:C:/Renesas/e2studio_2021_01_workspace_RZA2M_ANPR/ANPR_RZA2M_EBK/src/tensorflow_lite/tensorflow/lite/kernels/internal\types.h ****     return size_ > kMaxSmallSize ? dims_pointer_[i] : dims_[i];
 1329              		.loc 3 215 0
 1330 050c 030057E3 		cmp	r7, #3
 1331 0510 B60700DA 		ble	.L282
 216:C:/Renesas/e2studio_2021_01_workspace_RZA2M_ANPR/ANPR_RZA2M_EBK/src/tensorflow_lite/tensorflow/lite/kernels/internal\types.h ****   }
 1332              		.loc 3 216 0
 1333 0514 00119DE5 		ldr	r1, [sp, #256]
 1334              	.LVL169:
 1335 0518 01E0A0E3 		mov	lr, #1
 1336 051c FCC09DE5 		ldr	ip, [sp, #252]
 1337 0520 F8209DE5 		ldr	r2, [sp, #248]
 1338 0524 20318DE5 		str	r3, [sp, #288]
 1339 0528 2C118DE5 		str	r1, [sp, #300]
 1340              	.LVL170:
 1341              	.LBE1171:
 1342              	.LBE1170:
 815:C:/Renesas/e2studio_2021_01_workspace_RZA2M_ANPR/ANPR_RZA2M_EBK/src/tensorflow_lite/tensorflow/lite/kernels/internal\common.h ****   }
 1343              		.loc 4 815 0
 1344 052c 9C0100E0 		mul	r0, ip, r1
 1345 0530 24218DE5 		str	r2, [sp, #292]
 1346 0534 38118DE5 		str	r1, [sp, #312]
 1347 0538 28C18DE5 		str	ip, [sp, #296]
 1348              	.LVL171:
 1349 053c 3CE18DE5 		str	lr, [sp, #316]
 1350 0540 920002E0 		mul	r2, r2, r0
 1351              	.LVL172:
 1352 0544 34018DE5 		str	r0, [sp, #308]
 1353 0548 30218DE5 		str	r2, [sp, #304]
 1354              	.LVL173:
 1355              	.L283:
 1356 054c 08819DE5 		ldr	r8, [sp, #264]
 1357              	.LBE1169:
 1358              	.LBE1168:
 1359              	.LBE1167:
 1360              	.LBB1182:
 1361              	.LBB1183:
 1362              	.LBB1184:
 1363              	.LBB1185:
 1364              	.LBB1186:
 216:C:/Renesas/e2studio_2021_01_workspace_RZA2M_ANPR/ANPR_RZA2M_EBK/src/tensorflow_lite/tensorflow/lite/kernels/internal\types.h ****   }
 1365              		.loc 3 216 0
 1366 0550 0C019DE5 		ldr	r0, [sp, #268]
 1367 0554 050058E3 		cmp	r8, #5
 1368 0558 AE0200CA 		bgt	.L284
 1369              	.LVL174:
 215:C:/Renesas/e2studio_2021_01_workspace_RZA2M_ANPR/ANPR_RZA2M_EBK/src/tensorflow_lite/tensorflow/lite/kernels/internal\types.h ****     return size_ > kMaxSmallSize ? dims_pointer_[i] : dims_[i];
 1370              		.loc 3 215 0
 1371 055c 030058E3 		cmp	r8, #3
 1372 0560 990700DA 		ble	.L285
 216:C:/Renesas/e2studio_2021_01_workspace_RZA2M_ANPR/ANPR_RZA2M_EBK/src/tensorflow_lite/tensorflow/lite/kernels/internal\types.h ****   }
 1373              		.loc 3 216 0
 1374 0564 18219DE5 		ldr	r2, [sp, #280]
 1375              	.LVL175:
 1376 0568 0190A0E3 		mov	r9, #1
 1377 056c 14119DE5 		ldr	r1, [sp, #276]
 1378 0570 050057E3 		cmp	r7, #5
 1379 0574 10C19DE5 		ldr	ip, [sp, #272]
 1380 0578 5C918DE5 		str	r9, [sp, #348]
 1381 057c 40018DE5 		str	r0, [sp, #320]
 1382              	.LBE1186:
 1383              	.LBE1185:
 815:C:/Renesas/e2studio_2021_01_workspace_RZA2M_ANPR/ANPR_RZA2M_EBK/src/tensorflow_lite/tensorflow/lite/kernels/internal\common.h ****   }
 1384              		.loc 4 815 0
 1385 0580 91020EE0 		mul	lr, r1, r2
 1386 0584 4C218DE5 		str	r2, [sp, #332]
 1387              	.LVL176:
 1388 0588 58218DE5 		str	r2, [sp, #344]
 1389 058c 48118DE5 		str	r1, [sp, #328]
 1390              	.LVL177:
 1391 0590 44C18DE5 		str	ip, [sp, #324]
 1392              	.LVL178:
 1393 0594 9C0E09E0 		mul	r9, ip, lr
 1394              	.LVL179:
 1395 0598 54E18DE5 		str	lr, [sp, #340]
 1396 059c 50918DE5 		str	r9, [sp, #336]
 1397 05a0 780500CA 		bgt	.L928
 1398              	.LVL180:
 1399              	.LBE1184:
 1400              	.LBE1183:
 1401              	.LBE1182:
 1402              	.LBB1197:
 1403              	.LBB1198:
 1404              	.LBB1199:
 1405              	.LBB1200:
 215:C:/Renesas/e2studio_2021_01_workspace_RZA2M_ANPR/ANPR_RZA2M_EBK/src/tensorflow_lite/tensorflow/lite/kernels/internal\types.h ****     return size_ > kMaxSmallSize ? dims_pointer_[i] : dims_[i];
 1406              		.loc 3 215 0
 1407 05a4 000057E3 		cmp	r7, #0
 1408 05a8 860700DA 		ble	.L290
 1409              	.LVL181:
 1410              	.LBE1200:
 1411              	.LBE1199:
 839:C:/Renesas/e2studio_2021_01_workspace_RZA2M_ANPR/ANPR_RZA2M_EBK/src/tensorflow_lite/tensorflow/lite/kernels/internal\common.h ****       if (extent0 == 1) {
 1412              		.loc 4 839 0
 1413 05ac 000053E1 		cmp	r3, r0
 1414 05b0 0600000A 		beq	.L291
 840:C:/Renesas/e2studio_2021_01_workspace_RZA2M_ANPR/ANPR_RZA2M_EBK/src/tensorflow_lite/tensorflow/lite/kernels/internal\common.h ****         desc0_out->strides[i] = 0;
 1415              		.loc 4 840 0
 1416 05b4 010053E3 		cmp	r3, #1
 1417 05b8 E005000A 		beq	.L292
 844:C:/Renesas/e2studio_2021_01_workspace_RZA2M_ANPR/ANPR_RZA2M_EBK/src/tensorflow_lite/tensorflow/lite/kernels/internal\common.h ****         desc1_out->strides[i] = 0;
 1418              		.loc 4 844 0
 1419 05bc 010050E3 		cmp	r0, #1
 1420 05c0 A207001A 		bne	.L293
 845:C:/Renesas/e2studio_2021_01_workspace_RZA2M_ANPR/ANPR_RZA2M_EBK/src/tensorflow_lite/tensorflow/lite/kernels/internal\common.h ****         desc1_out->extents[i] = extent0;
 1421              		.loc 4 845 0
 1422 05c4 0000A0E3 		mov	r0, #0
 1423              	.LVL182:
 1424              		.loc 4 846 0
 1425 05c8 40318DE5 		str	r3, [sp, #320]
 1426              	.LVL183:
 845:C:/Renesas/e2studio_2021_01_workspace_RZA2M_ANPR/ANPR_RZA2M_EBK/src/tensorflow_lite/tensorflow/lite/kernels/internal\common.h ****         desc1_out->extents[i] = extent0;
 1427              		.loc 4 845 0
 1428 05cc 50018DE5 		str	r0, [sp, #336]
 1429              	.L291:
 1430              	.LVL184:
 1431              	.LBB1217:
 1432              	.LBB1201:
 215:C:/Renesas/e2studio_2021_01_workspace_RZA2M_ANPR/ANPR_RZA2M_EBK/src/tensorflow_lite/tensorflow/lite/kernels/internal\types.h ****     return size_ > kMaxSmallSize ? dims_pointer_[i] : dims_[i];
 1433              		.loc 3 215 0
 1434 05d0 010057E3 		cmp	r7, #1
 1435 05d4 7B07000A 		beq	.L290
 216:C:/Renesas/e2studio_2021_01_workspace_RZA2M_ANPR/ANPR_RZA2M_EBK/src/tensorflow_lite/tensorflow/lite/kernels/internal\types.h ****   }
 1436              		.loc 3 216 0
 1437 05d8 F8309DE5 		ldr	r3, [sp, #248]
 1438              	.LVL185:
 1439              	.LBE1201:
 1440              	.LBE1217:
 839:C:/Renesas/e2studio_2021_01_workspace_RZA2M_ANPR/ANPR_RZA2M_EBK/src/tensorflow_lite/tensorflow/lite/kernels/internal\common.h ****       if (extent0 == 1) {
 1441              		.loc 4 839 0
 1442 05dc 03005CE1 		cmp	ip, r3
 1443 05e0 0600000A 		beq	.L295
 840:C:/Renesas/e2studio_2021_01_workspace_RZA2M_ANPR/ANPR_RZA2M_EBK/src/tensorflow_lite/tensorflow/lite/kernels/internal\common.h ****         desc0_out->strides[i] = 0;
 1444              		.loc 4 840 0
 1445 05e4 010053E3 		cmp	r3, #1
 1446 05e8 E405000A 		beq	.L294
 844:C:/Renesas/e2studio_2021_01_workspace_RZA2M_ANPR/ANPR_RZA2M_EBK/src/tensorflow_lite/tensorflow/lite/kernels/internal\common.h ****         desc1_out->strides[i] = 0;
 1447              		.loc 4 844 0
 1448 05ec 01005CE3 		cmp	ip, #1
 1449 05f0 9607001A 		bne	.L293
 845:C:/Renesas/e2studio_2021_01_workspace_RZA2M_ANPR/ANPR_RZA2M_EBK/src/tensorflow_lite/tensorflow/lite/kernels/internal\common.h ****         desc1_out->extents[i] = extent0;
 1450              		.loc 4 845 0
 1451 05f4 0000A0E3 		mov	r0, #0
 1452              		.loc 4 846 0
 1453 05f8 44318DE5 		str	r3, [sp, #324]
 845:C:/Renesas/e2studio_2021_01_workspace_RZA2M_ANPR/ANPR_RZA2M_EBK/src/tensorflow_lite/tensorflow/lite/kernels/internal\common.h ****         desc1_out->extents[i] = extent0;
 1454              		.loc 4 845 0
 1455 05fc 54018DE5 		str	r0, [sp, #340]
 1456              	.L295:
 1457              	.LVL186:
 1458              	.LBB1218:
 1459              	.LBB1202:
 215:C:/Renesas/e2studio_2021_01_workspace_RZA2M_ANPR/ANPR_RZA2M_EBK/src/tensorflow_lite/tensorflow/lite/kernels/internal\types.h ****     return size_ > kMaxSmallSize ? dims_pointer_[i] : dims_[i];
 1460              		.loc 3 215 0
 1461 0600 020057E3 		cmp	r7, #2
 1462 0604 6F07000A 		beq	.L290
 216:C:/Renesas/e2studio_2021_01_workspace_RZA2M_ANPR/ANPR_RZA2M_EBK/src/tensorflow_lite/tensorflow/lite/kernels/internal\types.h ****   }
 1463              		.loc 3 216 0
 1464 0608 FC309DE5 		ldr	r3, [sp, #252]
 1465              	.LVL187:
 1466              	.LBE1202:
 1467              	.LBE1218:
 839:C:/Renesas/e2studio_2021_01_workspace_RZA2M_ANPR/ANPR_RZA2M_EBK/src/tensorflow_lite/tensorflow/lite/kernels/internal\common.h ****       if (extent0 == 1) {
 1468              		.loc 4 839 0
 1469 060c 030051E1 		cmp	r1, r3
 1470 0610 0600000A 		beq	.L297
 840:C:/Renesas/e2studio_2021_01_workspace_RZA2M_ANPR/ANPR_RZA2M_EBK/src/tensorflow_lite/tensorflow/lite/kernels/internal\common.h ****         desc0_out->strides[i] = 0;
 1471              		.loc 4 840 0
 1472 0614 010053E3 		cmp	r3, #1
 1473 0618 CC05000A 		beq	.L296
 844:C:/Renesas/e2studio_2021_01_workspace_RZA2M_ANPR/ANPR_RZA2M_EBK/src/tensorflow_lite/tensorflow/lite/kernels/internal\common.h ****         desc1_out->strides[i] = 0;
 1474              		.loc 4 844 0
 1475 061c 010051E3 		cmp	r1, #1
 1476 0620 8A07001A 		bne	.L293
 845:C:/Renesas/e2studio_2021_01_workspace_RZA2M_ANPR/ANPR_RZA2M_EBK/src/tensorflow_lite/tensorflow/lite/kernels/internal\common.h ****         desc1_out->extents[i] = extent0;
 1477              		.loc 4 845 0
 1478 0624 0010A0E3 		mov	r1, #0
 1479              		.loc 4 846 0
 1480 0628 48318DE5 		str	r3, [sp, #328]
 845:C:/Renesas/e2studio_2021_01_workspace_RZA2M_ANPR/ANPR_RZA2M_EBK/src/tensorflow_lite/tensorflow/lite/kernels/internal\common.h ****         desc1_out->extents[i] = extent0;
 1481              		.loc 4 845 0
 1482 062c 58118DE5 		str	r1, [sp, #344]
 1483              	.L297:
 1484              	.LVL188:
 1485              	.LBB1219:
 1486              	.LBB1203:
 215:C:/Renesas/e2studio_2021_01_workspace_RZA2M_ANPR/ANPR_RZA2M_EBK/src/tensorflow_lite/tensorflow/lite/kernels/internal\types.h ****     return size_ > kMaxSmallSize ? dims_pointer_[i] : dims_[i];
 1487              		.loc 3 215 0
 1488 0630 030057E3 		cmp	r7, #3
 1489 0634 6307000A 		beq	.L290
 216:C:/Renesas/e2studio_2021_01_workspace_RZA2M_ANPR/ANPR_RZA2M_EBK/src/tensorflow_lite/tensorflow/lite/kernels/internal\types.h ****   }
 1490              		.loc 3 216 0
 1491 0638 00319DE5 		ldr	r3, [sp, #256]
 1492              	.LVL189:
 1493              	.LBE1203:
 1494              	.LBE1219:
 839:C:/Renesas/e2studio_2021_01_workspace_RZA2M_ANPR/ANPR_RZA2M_EBK/src/tensorflow_lite/tensorflow/lite/kernels/internal\common.h ****       if (extent0 == 1) {
 1495              		.loc 4 839 0
 1496 063c 030052E1 		cmp	r2, r3
 1497 0640 C602000A 		beq	.L405
 1498              	.L814:
 840:C:/Renesas/e2studio_2021_01_workspace_RZA2M_ANPR/ANPR_RZA2M_EBK/src/tensorflow_lite/tensorflow/lite/kernels/internal\common.h ****         desc0_out->strides[i] = 0;
 1499              		.loc 4 840 0
 1500 0644 010053E3 		cmp	r3, #1
 1501 0648 4C06000A 		beq	.L308
 844:C:/Renesas/e2studio_2021_01_workspace_RZA2M_ANPR/ANPR_RZA2M_EBK/src/tensorflow_lite/tensorflow/lite/kernels/internal\common.h ****         desc1_out->strides[i] = 0;
 1502              		.loc 4 844 0
 1503 064c 010052E3 		cmp	r2, #1
 1504 0650 7E07001A 		bne	.L293
 845:C:/Renesas/e2studio_2021_01_workspace_RZA2M_ANPR/ANPR_RZA2M_EBK/src/tensorflow_lite/tensorflow/lite/kernels/internal\common.h ****         desc1_out->extents[i] = extent0;
 1505              		.loc 4 845 0
 1506 0654 0020A0E3 		mov	r2, #0
 1507              		.loc 4 846 0
 1508 0658 4C318DE5 		str	r3, [sp, #332]
 845:C:/Renesas/e2studio_2021_01_workspace_RZA2M_ANPR/ANPR_RZA2M_EBK/src/tensorflow_lite/tensorflow/lite/kernels/internal\common.h ****         desc1_out->extents[i] = extent0;
 1509              		.loc 4 845 0
 1510 065c 5C218DE5 		str	r2, [sp, #348]
 1511 0660 BE0200EA 		b	.L405
 1512              	.LVL190:
 1513              	.L25:
 1514              	.LBE1198:
 1515              	.LBE1197:
 1516              	.LBE1130:
 1517              	.LBE1129:
 1518              	.LBE1110:
 1519              	.LBE1109:
 128:../src/tensorflow_lite/tensorflow/lite/micro/kernels/prelu.cc ****           tflite::micro::GetTensorData<uint8_t>(input),
 1520              		.loc 1 128 0
 1521 0664 0810A0E1 		mov	r1, r8
 1522 0668 90008DE2 		add	r0, sp, #144
 1523              	.LEHB12:
 1524 066c FEFFFFEB 		bl	_ZN6tflite5micro14GetTensorShapeEPK16TfLiteEvalTensor
 1525              	.LVL191:
 1526              	.LEHE12:
 130:../src/tensorflow_lite/tensorflow/lite/micro/kernels/prelu.cc ****           tflite::micro::GetTensorData<uint8_t>(alpha),
 1527              		.loc 1 130 0
 1528 0670 0710A0E1 		mov	r1, r7
 1529 0674 A8008DE2 		add	r0, sp, #168
 1530              	.LBB1517:
 1531              	.LBB1518:
 1532              		.loc 2 63 0
 1533 0678 005098E5 		ldr	r5, [r8]
 1534              	.LVL192:
 1535              	.LEHB13:
 1536              	.LBE1518:
 1537              	.LBE1517:
 130:../src/tensorflow_lite/tensorflow/lite/micro/kernels/prelu.cc ****           tflite::micro::GetTensorData<uint8_t>(alpha),
 1538              		.loc 1 130 0
 1539 067c FEFFFFEB 		bl	_ZN6tflite5micro14GetTensorShapeEPK16TfLiteEvalTensor
 1540              	.LVL193:
 1541              	.LEHE13:
 1542              	.LBB1519:
 1543              	.LBB1520:
  62:C:/Renesas/e2studio_2021_01_workspace_RZA2M_ANPR/ANPR_RZA2M_EBK/src/tensorflow_lite/tensorflow/lite/micro/kernels\kernel_util.h ****   return reinterpret_cast<const T*>(tensor->data.raw);
 1544              		.loc 2 62 0
 1545 0680 000057E3 		cmp	r7, #0
 1546 0684 6C07000A 		beq	.L929
 1547              	.LBE1520:
 1548              	.LBE1519:
 132:../src/tensorflow_lite/tensorflow/lite/micro/kernels/prelu.cc ****           tflite::micro::GetTensorData<uint8_t>(output));
 1549              		.loc 1 132 0
 1550 0688 0610A0E1 		mov	r1, r6
 1551 068c C0008DE2 		add	r0, sp, #192
 1552              	.LBB1523:
 1553              	.LBB1521:
 1554              		.loc 2 63 0
 1555 0690 004097E5 		ldr	r4, [r7]
 1556              	.LVL194:
 1557              	.LEHB14:
 1558              	.LBE1521:
 1559              	.LBE1523:
 132:../src/tensorflow_lite/tensorflow/lite/micro/kernels/prelu.cc ****           tflite::micro::GetTensorData<uint8_t>(output));
 1560              		.loc 1 132 0
 1561 0694 FEFFFFEB 		bl	_ZN6tflite5micro14GetTensorShapeEPK16TfLiteEvalTensor
 1562              	.LVL195:
 1563              	.LEHE14:
 1564 0698 90809DE5 		ldr	r8, [sp, #144]
 1565              	.LBB1524:
 1566              	.LBB1525:
  56:C:/Renesas/e2studio_2021_01_workspace_RZA2M_ANPR/ANPR_RZA2M_EBK/src/tensorflow_lite/tensorflow/lite/micro/kernels\kernel_util.h **** }
 1567              		.loc 2 56 0
 1568 069c 000056E3 		cmp	r6, #0
 1569 06a0 00609615 		ldrne	r6, [r6]
 1570              	.LVL196:
 1571              	.LBE1525:
 1572              	.LBE1524:
 1573              	.LBB1526:
 1574              	.LBB1527:
  32:C:/Renesas/e2studio_2021_01_workspace_RZA2M_ANPR/ANPR_RZA2M_EBK/src/tensorflow_lite/tensorflow/lite/kernels/internal/reference\prelu.h ****   TFLITE_DCHECK_LE(alpha_shape.DimensionsCount(), 4);
 1575              		.loc 5 32 0
 1576 06a4 040058E3 		cmp	r8, #4
 1577 06a8 650700CA 		bgt	.L930
 1578 06ac A8709DE5 		ldr	r7, [sp, #168]
 1579              	.LVL197:
  33:C:/Renesas/e2studio_2021_01_workspace_RZA2M_ANPR/ANPR_RZA2M_EBK/src/tensorflow_lite/tensorflow/lite/kernels/internal/reference\prelu.h ****   TFLITE_DCHECK_LE(output_shape.DimensionsCount(), 4);
 1580              		.loc 5 33 0
 1581 06b0 040057E3 		cmp	r7, #4
 1582 06b4 630700CA 		bgt	.L931
 1583 06b8 C0209DE5 		ldr	r2, [sp, #192]
 1584              	.LVL198:
 1585              		.loc 5 34 0
 1586 06bc 040052E3 		cmp	r2, #4
 1587 06c0 990700CA 		bgt	.L932
 1588              	.LVL199:
 1589              	.LBB1528:
 1590              	.LBB1529:
 1591              	.LBB1530:
 1592              	.LBB1531:
 1593              	.LBB1532:
 311:C:/Renesas/e2studio_2021_01_workspace_RZA2M_ANPR/ANPR_RZA2M_EBK/src/tensorflow_lite/tensorflow/lite/kernels/internal\types.h ****       SetDim(i, pad_value);
 1594              		.loc 3 311 0
 1595 06c4 040072E2 		rsbs	r0, r2, #4
 1596              	.LBE1532:
 1597              	.LBB1543:
 1598              	.LBB1544:
 245:C:/Renesas/e2studio_2021_01_workspace_RZA2M_ANPR/ANPR_RZA2M_EBK/src/tensorflow_lite/tensorflow/lite/kernels/internal\types.h ****     if (dimensions_count > kMaxSmallSize) {
 1599              		.loc 3 245 0
 1600 06c8 0430A0E3 		mov	r3, #4
 1601 06cc D8308DE5 		str	r3, [sp, #216]
 1602              	.LVL200:
 1603              	.LBE1544:
 1604              	.LBE1543:
 1605              	.LBB1545:
 311:C:/Renesas/e2studio_2021_01_workspace_RZA2M_ANPR/ANPR_RZA2M_EBK/src/tensorflow_lite/tensorflow/lite/kernels/internal\types.h ****       SetDim(i, pad_value);
 1606              		.loc 3 311 0
 1607 06d0 0D00000A 		beq	.L155
 1608              	.LVL201:
 1609 06d4 010050E3 		cmp	r0, #1
 1610              	.LBB1533:
 1611              	.LBB1534:
 224:C:/Renesas/e2studio_2021_01_workspace_RZA2M_ANPR/ANPR_RZA2M_EBK/src/tensorflow_lite/tensorflow/lite/kernels/internal\types.h ****     }
 1612              		.loc 3 224 0
 1613 06d8 0130A0E3 		mov	r3, #1
 1614 06dc DC308DE5 		str	r3, [sp, #220]
 1615              	.LVL202:
 1616              	.LBE1534:
 1617              	.LBE1533:
 311:C:/Renesas/e2studio_2021_01_workspace_RZA2M_ANPR/ANPR_RZA2M_EBK/src/tensorflow_lite/tensorflow/lite/kernels/internal\types.h ****       SetDim(i, pad_value);
 1618              		.loc 3 311 0
 1619 06e0 0900000A 		beq	.L155
 1620              	.LVL203:
 1621 06e4 020050E3 		cmp	r0, #2
 1622              	.LBB1539:
 1623              	.LBB1535:
 224:C:/Renesas/e2studio_2021_01_workspace_RZA2M_ANPR/ANPR_RZA2M_EBK/src/tensorflow_lite/tensorflow/lite/kernels/internal\types.h ****     }
 1624              		.loc 3 224 0
 1625 06e8 E0308DE5 		str	r3, [sp, #224]
 1626              	.LVL204:
 1627              	.LBE1535:
 1628              	.LBE1539:
 311:C:/Renesas/e2studio_2021_01_workspace_RZA2M_ANPR/ANPR_RZA2M_EBK/src/tensorflow_lite/tensorflow/lite/kernels/internal\types.h ****       SetDim(i, pad_value);
 1629              		.loc 3 311 0
 1630 06ec 0600000A 		beq	.L155
 1631              	.LVL205:
 1632 06f0 030050E3 		cmp	r0, #3
 1633              	.LBB1540:
 1634              	.LBB1536:
 224:C:/Renesas/e2studio_2021_01_workspace_RZA2M_ANPR/ANPR_RZA2M_EBK/src/tensorflow_lite/tensorflow/lite/kernels/internal\types.h ****     }
 1635              		.loc 3 224 0
 1636 06f4 E4308DE5 		str	r3, [sp, #228]
 1637              	.LVL206:
 1638              	.LBE1536:
 1639              	.LBE1540:
 311:C:/Renesas/e2studio_2021_01_workspace_RZA2M_ANPR/ANPR_RZA2M_EBK/src/tensorflow_lite/tensorflow/lite/kernels/internal\types.h ****       SetDim(i, pad_value);
 1640              		.loc 3 311 0
 1641 06f8 0300000A 		beq	.L155
 1642              	.LVL207:
 1643 06fc 040050E3 		cmp	r0, #4
 1644              	.LBB1541:
 1645              	.LBB1537:
 224:C:/Renesas/e2studio_2021_01_workspace_RZA2M_ANPR/ANPR_RZA2M_EBK/src/tensorflow_lite/tensorflow/lite/kernels/internal\types.h ****     }
 1646              		.loc 3 224 0
 1647 0700 E8308DE5 		str	r3, [sp, #232]
 1648              	.LVL208:
 1649              	.LBE1537:
 1650              	.LBE1541:
 311:C:/Renesas/e2studio_2021_01_workspace_RZA2M_ANPR/ANPR_RZA2M_EBK/src/tensorflow_lite/tensorflow/lite/kernels/internal\types.h ****       SetDim(i, pad_value);
 1651              		.loc 3 311 0
 1652 0704 0000000A 		beq	.L155
 1653              	.LVL209:
 1654              	.LEHB15:
 1655              	.LBB1542:
 1656              	.LBB1538:
 220:C:/Renesas/e2studio_2021_01_workspace_RZA2M_ANPR/ANPR_RZA2M_EBK/src/tensorflow_lite/tensorflow/lite/kernels/internal\types.h ****     if (size_ > kMaxSmallSize) {
 1657              		.loc 3 220 0
 1658 0708 FEFFFFEB 		bl	abort
 1659              	.LVL210:
 1660              	.LEHE15:
 1661              	.L155:
 1662              	.LBE1538:
 1663              	.LBE1542:
 1664              	.LBE1545:
 1665              		.loc 3 315 0
 1666 070c DC308DE2 		add	r3, sp, #220
 1667 0710 0221A0E1 		lsl	r2, r2, #2
 1668 0714 000183E0 		add	r0, r3, r0, lsl #2
 1669              	.LVL211:
 1670 0718 C4108DE2 		add	r1, sp, #196
 1671 071c FEFFFFEB 		bl	memcpy
 1672              	.LVL212:
 1673              	.LBE1531:
 1674              	.LBE1530:
 1675              	.LBE1529:
 1676              	.LBE1528:
 1677              	.LBB1546:
 1678              	.LBB1547:
 1679              	.LBB1548:
 1680              	.LBB1549:
 1681              	.LBB1550:
 1682              	.LBB1551:
 1683              	.LBB1552:
 311:C:/Renesas/e2studio_2021_01_workspace_RZA2M_ANPR/ANPR_RZA2M_EBK/src/tensorflow_lite/tensorflow/lite/kernels/internal\types.h ****       SetDim(i, pad_value);
 1684              		.loc 3 311 0
 1685 0720 040078E2 		rsbs	r0, r8, #4
 1686              	.LBE1552:
 1687              	.LBB1563:
 1688              	.LBB1564:
 245:C:/Renesas/e2studio_2021_01_workspace_RZA2M_ANPR/ANPR_RZA2M_EBK/src/tensorflow_lite/tensorflow/lite/kernels/internal\types.h ****     if (dimensions_count > kMaxSmallSize) {
 1689              		.loc 3 245 0
 1690 0724 0430A0E3 		mov	r3, #4
 1691 0728 F0308DE5 		str	r3, [sp, #240]
 1692              	.LVL213:
 1693              	.LBE1564:
 1694              	.LBE1563:
 1695              	.LBB1565:
 311:C:/Renesas/e2studio_2021_01_workspace_RZA2M_ANPR/ANPR_RZA2M_EBK/src/tensorflow_lite/tensorflow/lite/kernels/internal\types.h ****       SetDim(i, pad_value);
 1696              		.loc 3 311 0
 1697 072c 0D00000A 		beq	.L153
 1698              	.LVL214:
 1699 0730 010050E3 		cmp	r0, #1
 1700              	.LBB1553:
 1701              	.LBB1554:
 224:C:/Renesas/e2studio_2021_01_workspace_RZA2M_ANPR/ANPR_RZA2M_EBK/src/tensorflow_lite/tensorflow/lite/kernels/internal\types.h ****     }
 1702              		.loc 3 224 0
 1703 0734 0130A0E3 		mov	r3, #1
 1704 0738 F4308DE5 		str	r3, [sp, #244]
 1705              	.LVL215:
 1706              	.LBE1554:
 1707              	.LBE1553:
 311:C:/Renesas/e2studio_2021_01_workspace_RZA2M_ANPR/ANPR_RZA2M_EBK/src/tensorflow_lite/tensorflow/lite/kernels/internal\types.h ****       SetDim(i, pad_value);
 1708              		.loc 3 311 0
 1709 073c 0900000A 		beq	.L153
 1710              	.LVL216:
 1711 0740 020050E3 		cmp	r0, #2
 1712              	.LBB1559:
 1713              	.LBB1555:
 224:C:/Renesas/e2studio_2021_01_workspace_RZA2M_ANPR/ANPR_RZA2M_EBK/src/tensorflow_lite/tensorflow/lite/kernels/internal\types.h ****     }
 1714              		.loc 3 224 0
 1715 0744 F8308DE5 		str	r3, [sp, #248]
 1716              	.LVL217:
 1717              	.LBE1555:
 1718              	.LBE1559:
 311:C:/Renesas/e2studio_2021_01_workspace_RZA2M_ANPR/ANPR_RZA2M_EBK/src/tensorflow_lite/tensorflow/lite/kernels/internal\types.h ****       SetDim(i, pad_value);
 1719              		.loc 3 311 0
 1720 0748 0600000A 		beq	.L153
 1721              	.LVL218:
 1722 074c 030050E3 		cmp	r0, #3
 1723              	.LBB1560:
 1724              	.LBB1556:
 224:C:/Renesas/e2studio_2021_01_workspace_RZA2M_ANPR/ANPR_RZA2M_EBK/src/tensorflow_lite/tensorflow/lite/kernels/internal\types.h ****     }
 1725              		.loc 3 224 0
 1726 0750 FC308DE5 		str	r3, [sp, #252]
 1727              	.LVL219:
 1728              	.LBE1556:
 1729              	.LBE1560:
 311:C:/Renesas/e2studio_2021_01_workspace_RZA2M_ANPR/ANPR_RZA2M_EBK/src/tensorflow_lite/tensorflow/lite/kernels/internal\types.h ****       SetDim(i, pad_value);
 1730              		.loc 3 311 0
 1731 0754 0300000A 		beq	.L153
 1732              	.LVL220:
 1733 0758 040050E3 		cmp	r0, #4
 1734              	.LBB1561:
 1735              	.LBB1557:
 224:C:/Renesas/e2studio_2021_01_workspace_RZA2M_ANPR/ANPR_RZA2M_EBK/src/tensorflow_lite/tensorflow/lite/kernels/internal\types.h ****     }
 1736              		.loc 3 224 0
 1737 075c 00318DE5 		str	r3, [sp, #256]
 1738              	.LVL221:
 1739              	.LBE1557:
 1740              	.LBE1561:
 311:C:/Renesas/e2studio_2021_01_workspace_RZA2M_ANPR/ANPR_RZA2M_EBK/src/tensorflow_lite/tensorflow/lite/kernels/internal\types.h ****       SetDim(i, pad_value);
 1741              		.loc 3 311 0
 1742 0760 0000000A 		beq	.L153
 1743              	.LVL222:
 1744              	.LEHB16:
 1745              	.LBB1562:
 1746              	.LBB1558:
 220:C:/Renesas/e2studio_2021_01_workspace_RZA2M_ANPR/ANPR_RZA2M_EBK/src/tensorflow_lite/tensorflow/lite/kernels/internal\types.h ****     if (size_ > kMaxSmallSize) {
 1747              		.loc 3 220 0
 1748 0764 FEFFFFEB 		bl	abort
 1749              	.LVL223:
 1750              	.LEHE16:
 1751              	.L153:
 1752              	.LBE1558:
 1753              	.LBE1562:
 1754              	.LBE1565:
 1755              		.loc 3 315 0
 1756 0768 F4308DE2 		add	r3, sp, #244
 1757 076c 0821A0E1 		lsl	r2, r8, #2
 1758 0770 000183E0 		add	r0, r3, r0, lsl #2
 1759              	.LVL224:
 1760 0774 94108DE2 		add	r1, sp, #148
 1761 0778 FEFFFFEB 		bl	memcpy
 1762              	.LVL225:
 1763              	.LBE1551:
 1764              	.LBE1550:
 1765              	.LBE1549:
 1766              	.LBE1548:
 1767              	.LBB1566:
 1768              	.LBB1567:
 1769              	.LBB1568:
 1770              	.LBB1569:
 1771              	.LBB1570:
 311:C:/Renesas/e2studio_2021_01_workspace_RZA2M_ANPR/ANPR_RZA2M_EBK/src/tensorflow_lite/tensorflow/lite/kernels/internal\types.h ****       SetDim(i, pad_value);
 1772              		.loc 3 311 0
 1773 077c 040077E2 		rsbs	r0, r7, #4
 1774              	.LBE1570:
 1775              	.LBB1581:
 1776              	.LBB1582:
 245:C:/Renesas/e2studio_2021_01_workspace_RZA2M_ANPR/ANPR_RZA2M_EBK/src/tensorflow_lite/tensorflow/lite/kernels/internal\types.h ****     if (dimensions_count > kMaxSmallSize) {
 1777              		.loc 3 245 0
 1778 0780 0430A0E3 		mov	r3, #4
 1779 0784 08318DE5 		str	r3, [sp, #264]
 1780              	.LVL226:
 1781              	.LBE1582:
 1782              	.LBE1581:
 1783              	.LBB1583:
 311:C:/Renesas/e2studio_2021_01_workspace_RZA2M_ANPR/ANPR_RZA2M_EBK/src/tensorflow_lite/tensorflow/lite/kernels/internal\types.h ****       SetDim(i, pad_value);
 1784              		.loc 3 311 0
 1785 0788 0D00000A 		beq	.L157
 1786              	.LVL227:
 1787 078c 010050E3 		cmp	r0, #1
 1788              	.LBB1571:
 1789              	.LBB1572:
 224:C:/Renesas/e2studio_2021_01_workspace_RZA2M_ANPR/ANPR_RZA2M_EBK/src/tensorflow_lite/tensorflow/lite/kernels/internal\types.h ****     }
 1790              		.loc 3 224 0
 1791 0790 0130A0E3 		mov	r3, #1
 1792 0794 0C318DE5 		str	r3, [sp, #268]
 1793              	.LVL228:
 1794              	.LBE1572:
 1795              	.LBE1571:
 311:C:/Renesas/e2studio_2021_01_workspace_RZA2M_ANPR/ANPR_RZA2M_EBK/src/tensorflow_lite/tensorflow/lite/kernels/internal\types.h ****       SetDim(i, pad_value);
 1796              		.loc 3 311 0
 1797 0798 0900000A 		beq	.L157
 1798              	.LVL229:
 1799 079c 020050E3 		cmp	r0, #2
 1800              	.LBB1577:
 1801              	.LBB1573:
 224:C:/Renesas/e2studio_2021_01_workspace_RZA2M_ANPR/ANPR_RZA2M_EBK/src/tensorflow_lite/tensorflow/lite/kernels/internal\types.h ****     }
 1802              		.loc 3 224 0
 1803 07a0 10318DE5 		str	r3, [sp, #272]
 1804              	.LVL230:
 1805              	.LBE1573:
 1806              	.LBE1577:
 311:C:/Renesas/e2studio_2021_01_workspace_RZA2M_ANPR/ANPR_RZA2M_EBK/src/tensorflow_lite/tensorflow/lite/kernels/internal\types.h ****       SetDim(i, pad_value);
 1807              		.loc 3 311 0
 1808 07a4 0600000A 		beq	.L157
 1809              	.LVL231:
 1810 07a8 030050E3 		cmp	r0, #3
 1811              	.LBB1578:
 1812              	.LBB1574:
 224:C:/Renesas/e2studio_2021_01_workspace_RZA2M_ANPR/ANPR_RZA2M_EBK/src/tensorflow_lite/tensorflow/lite/kernels/internal\types.h ****     }
 1813              		.loc 3 224 0
 1814 07ac 14318DE5 		str	r3, [sp, #276]
 1815              	.LVL232:
 1816              	.LBE1574:
 1817              	.LBE1578:
 311:C:/Renesas/e2studio_2021_01_workspace_RZA2M_ANPR/ANPR_RZA2M_EBK/src/tensorflow_lite/tensorflow/lite/kernels/internal\types.h ****       SetDim(i, pad_value);
 1818              		.loc 3 311 0
 1819 07b0 0300000A 		beq	.L157
 1820              	.LVL233:
 1821 07b4 040050E3 		cmp	r0, #4
 1822              	.LBB1579:
 1823              	.LBB1575:
 224:C:/Renesas/e2studio_2021_01_workspace_RZA2M_ANPR/ANPR_RZA2M_EBK/src/tensorflow_lite/tensorflow/lite/kernels/internal\types.h ****     }
 1824              		.loc 3 224 0
 1825 07b8 18318DE5 		str	r3, [sp, #280]
 1826              	.LVL234:
 1827              	.LBE1575:
 1828              	.LBE1579:
 311:C:/Renesas/e2studio_2021_01_workspace_RZA2M_ANPR/ANPR_RZA2M_EBK/src/tensorflow_lite/tensorflow/lite/kernels/internal\types.h ****       SetDim(i, pad_value);
 1829              		.loc 3 311 0
 1830 07bc 0000000A 		beq	.L157
 1831              	.LVL235:
 1832              	.LEHB17:
 1833              	.LBB1580:
 1834              	.LBB1576:
 220:C:/Renesas/e2studio_2021_01_workspace_RZA2M_ANPR/ANPR_RZA2M_EBK/src/tensorflow_lite/tensorflow/lite/kernels/internal\types.h ****     if (size_ > kMaxSmallSize) {
 1835              		.loc 3 220 0
 1836 07c0 FEFFFFEB 		bl	abort
 1837              	.LVL236:
 1838              	.LEHE17:
 1839              	.L157:
 1840              	.LBE1576:
 1841              	.LBE1580:
 1842              	.LBE1583:
 1843              		.loc 3 315 0
 1844 07c4 433F8DE2 		add	r3, sp, #268
 1845 07c8 0721A0E1 		lsl	r2, r7, #2
 1846 07cc 000183E0 		add	r0, r3, r0, lsl #2
 1847              	.LVL237:
 1848 07d0 AC108DE2 		add	r1, sp, #172
 1849 07d4 FEFFFFEB 		bl	memcpy
 1850              	.LVL238:
 1851 07d8 F0709DE5 		ldr	r7, [sp, #240]
 1852              	.LBE1569:
 1853              	.LBE1568:
 1854              	.LBE1567:
 1855              	.LBE1566:
 1856              	.LBB1584:
 1857              	.LBB1585:
 1858              	.LBB1586:
 1859              	.LBB1587:
 1860              	.LBB1588:
 216:C:/Renesas/e2studio_2021_01_workspace_RZA2M_ANPR/ANPR_RZA2M_EBK/src/tensorflow_lite/tensorflow/lite/kernels/internal\types.h ****   }
 1861              		.loc 3 216 0
 1862 07dc F4309DE5 		ldr	r3, [sp, #244]
 1863 07e0 050057E3 		cmp	r7, #5
 1864 07e4 750000CA 		bgt	.L933
 1865              	.LVL239:
 215:C:/Renesas/e2studio_2021_01_workspace_RZA2M_ANPR/ANPR_RZA2M_EBK/src/tensorflow_lite/tensorflow/lite/kernels/internal\types.h ****     return size_ > kMaxSmallSize ? dims_pointer_[i] : dims_[i];
 1866              		.loc 3 215 0
 1867 07e8 030057E3 		cmp	r7, #3
 1868 07ec 0D0700DA 		ble	.L167
 216:C:/Renesas/e2studio_2021_01_workspace_RZA2M_ANPR/ANPR_RZA2M_EBK/src/tensorflow_lite/tensorflow/lite/kernels/internal\types.h ****   }
 1869              		.loc 3 216 0
 1870 07f0 00119DE5 		ldr	r1, [sp, #256]
 1871              	.LVL240:
 1872 07f4 01E0A0E3 		mov	lr, #1
 1873 07f8 FCC09DE5 		ldr	ip, [sp, #252]
 1874 07fc F8209DE5 		ldr	r2, [sp, #248]
 1875 0800 20318DE5 		str	r3, [sp, #288]
 1876 0804 2C118DE5 		str	r1, [sp, #300]
 1877              	.LVL241:
 1878              	.LBE1588:
 1879              	.LBE1587:
 815:C:/Renesas/e2studio_2021_01_workspace_RZA2M_ANPR/ANPR_RZA2M_EBK/src/tensorflow_lite/tensorflow/lite/kernels/internal\common.h ****   }
 1880              		.loc 4 815 0
 1881 0808 9C0100E0 		mul	r0, ip, r1
 1882 080c 24218DE5 		str	r2, [sp, #292]
 1883 0810 38118DE5 		str	r1, [sp, #312]
 1884 0814 28C18DE5 		str	ip, [sp, #296]
 1885              	.LVL242:
 1886 0818 3CE18DE5 		str	lr, [sp, #316]
 1887 081c 920002E0 		mul	r2, r2, r0
 1888              	.LVL243:
 1889 0820 34018DE5 		str	r0, [sp, #308]
 1890 0824 30218DE5 		str	r2, [sp, #304]
 1891              	.LVL244:
 1892              	.L168:
 1893 0828 08819DE5 		ldr	r8, [sp, #264]
 1894              	.LBE1586:
 1895              	.LBE1585:
 1896              	.LBE1584:
 1897              	.LBB1599:
 1898              	.LBB1600:
 1899              	.LBB1601:
 1900              	.LBB1602:
 1901              	.LBB1603:
 216:C:/Renesas/e2studio_2021_01_workspace_RZA2M_ANPR/ANPR_RZA2M_EBK/src/tensorflow_lite/tensorflow/lite/kernels/internal\types.h ****   }
 1902              		.loc 3 216 0
 1903 082c 0C019DE5 		ldr	r0, [sp, #268]
 1904 0830 050058E3 		cmp	r8, #5
 1905 0834 710000CA 		bgt	.L169
 1906              	.LVL245:
 215:C:/Renesas/e2studio_2021_01_workspace_RZA2M_ANPR/ANPR_RZA2M_EBK/src/tensorflow_lite/tensorflow/lite/kernels/internal\types.h ****     return size_ > kMaxSmallSize ? dims_pointer_[i] : dims_[i];
 1907              		.loc 3 215 0
 1908 0838 030058E3 		cmp	r8, #3
 1909 083c E50600DA 		ble	.L170
 216:C:/Renesas/e2studio_2021_01_workspace_RZA2M_ANPR/ANPR_RZA2M_EBK/src/tensorflow_lite/tensorflow/lite/kernels/internal\types.h ****   }
 1910              		.loc 3 216 0
 1911 0840 18219DE5 		ldr	r2, [sp, #280]
 1912              	.LVL246:
 1913 0844 0190A0E3 		mov	r9, #1
 1914 0848 14119DE5 		ldr	r1, [sp, #276]
 1915 084c 050057E3 		cmp	r7, #5
 1916 0850 10C19DE5 		ldr	ip, [sp, #272]
 1917 0854 5C918DE5 		str	r9, [sp, #348]
 1918 0858 40018DE5 		str	r0, [sp, #320]
 1919              	.LBE1603:
 1920              	.LBE1602:
 815:C:/Renesas/e2studio_2021_01_workspace_RZA2M_ANPR/ANPR_RZA2M_EBK/src/tensorflow_lite/tensorflow/lite/kernels/internal\common.h ****   }
 1921              		.loc 4 815 0
 1922 085c 91020EE0 		mul	lr, r1, r2
 1923 0860 4C218DE5 		str	r2, [sp, #332]
 1924              	.LVL247:
 1925 0864 58218DE5 		str	r2, [sp, #344]
 1926 0868 48118DE5 		str	r1, [sp, #328]
 1927              	.LVL248:
 1928 086c 44C18DE5 		str	ip, [sp, #324]
 1929              	.LVL249:
 1930 0870 9C0E09E0 		mul	r9, ip, lr
 1931              	.LVL250:
 1932 0874 54E18DE5 		str	lr, [sp, #340]
 1933 0878 50918DE5 		str	r9, [sp, #336]
 1934 087c 960400CA 		bgt	.L934
 1935              	.LVL251:
 1936              	.LBE1601:
 1937              	.LBE1600:
 1938              	.LBE1599:
 1939              	.LBB1614:
 1940              	.LBB1615:
 1941              	.LBB1616:
 1942              	.LBB1617:
 215:C:/Renesas/e2studio_2021_01_workspace_RZA2M_ANPR/ANPR_RZA2M_EBK/src/tensorflow_lite/tensorflow/lite/kernels/internal\types.h ****     return size_ > kMaxSmallSize ? dims_pointer_[i] : dims_[i];
 1943              		.loc 3 215 0
 1944 0880 000057E3 		cmp	r7, #0
 1945 0884 D20600DA 		ble	.L175
 1946              	.LVL252:
 1947              	.LBE1617:
 1948              	.LBE1616:
 839:C:/Renesas/e2studio_2021_01_workspace_RZA2M_ANPR/ANPR_RZA2M_EBK/src/tensorflow_lite/tensorflow/lite/kernels/internal\common.h ****       if (extent0 == 1) {
 1949              		.loc 4 839 0
 1950 0888 030050E1 		cmp	r0, r3
 1951 088c 0600000A 		beq	.L176
 840:C:/Renesas/e2studio_2021_01_workspace_RZA2M_ANPR/ANPR_RZA2M_EBK/src/tensorflow_lite/tensorflow/lite/kernels/internal\common.h ****         desc0_out->strides[i] = 0;
 1952              		.loc 4 840 0
 1953 0890 010053E3 		cmp	r3, #1
 1954 0894 1D05000A 		beq	.L177
 844:C:/Renesas/e2studio_2021_01_workspace_RZA2M_ANPR/ANPR_RZA2M_EBK/src/tensorflow_lite/tensorflow/lite/kernels/internal\common.h ****         desc1_out->strides[i] = 0;
 1955              		.loc 4 844 0
 1956 0898 010050E3 		cmp	r0, #1
 1957 089c BF06001A 		bne	.L178
 845:C:/Renesas/e2studio_2021_01_workspace_RZA2M_ANPR/ANPR_RZA2M_EBK/src/tensorflow_lite/tensorflow/lite/kernels/internal\common.h ****         desc1_out->extents[i] = extent0;
 1958              		.loc 4 845 0
 1959 08a0 0000A0E3 		mov	r0, #0
 1960              	.LVL253:
 1961              		.loc 4 846 0
 1962 08a4 40318DE5 		str	r3, [sp, #320]
 1963              	.LVL254:
 845:C:/Renesas/e2studio_2021_01_workspace_RZA2M_ANPR/ANPR_RZA2M_EBK/src/tensorflow_lite/tensorflow/lite/kernels/internal\common.h ****         desc1_out->extents[i] = extent0;
 1964              		.loc 4 845 0
 1965 08a8 50018DE5 		str	r0, [sp, #336]
 1966              	.L176:
 1967              	.LVL255:
 1968              	.LBB1634:
 1969              	.LBB1618:
 215:C:/Renesas/e2studio_2021_01_workspace_RZA2M_ANPR/ANPR_RZA2M_EBK/src/tensorflow_lite/tensorflow/lite/kernels/internal\types.h ****     return size_ > kMaxSmallSize ? dims_pointer_[i] : dims_[i];
 1970              		.loc 3 215 0
 1971 08ac 010057E3 		cmp	r7, #1
 1972 08b0 C706000A 		beq	.L175
 216:C:/Renesas/e2studio_2021_01_workspace_RZA2M_ANPR/ANPR_RZA2M_EBK/src/tensorflow_lite/tensorflow/lite/kernels/internal\types.h ****   }
 1973              		.loc 3 216 0
 1974 08b4 F8309DE5 		ldr	r3, [sp, #248]
 1975              	.LVL256:
 1976              	.LBE1618:
 1977              	.LBE1634:
 839:C:/Renesas/e2studio_2021_01_workspace_RZA2M_ANPR/ANPR_RZA2M_EBK/src/tensorflow_lite/tensorflow/lite/kernels/internal\common.h ****       if (extent0 == 1) {
 1978              		.loc 4 839 0
 1979 08b8 03005CE1 		cmp	ip, r3
 1980 08bc 0600000A 		beq	.L180
 840:C:/Renesas/e2studio_2021_01_workspace_RZA2M_ANPR/ANPR_RZA2M_EBK/src/tensorflow_lite/tensorflow/lite/kernels/internal\common.h ****         desc0_out->strides[i] = 0;
 1981              		.loc 4 840 0
 1982 08c0 010053E3 		cmp	r3, #1
 1983 08c4 3105000A 		beq	.L179
 844:C:/Renesas/e2studio_2021_01_workspace_RZA2M_ANPR/ANPR_RZA2M_EBK/src/tensorflow_lite/tensorflow/lite/kernels/internal\common.h ****         desc1_out->strides[i] = 0;
 1984              		.loc 4 844 0
 1985 08c8 01005CE3 		cmp	ip, #1
 1986 08cc B306001A 		bne	.L178
 845:C:/Renesas/e2studio_2021_01_workspace_RZA2M_ANPR/ANPR_RZA2M_EBK/src/tensorflow_lite/tensorflow/lite/kernels/internal\common.h ****         desc1_out->extents[i] = extent0;
 1987              		.loc 4 845 0
 1988 08d0 0000A0E3 		mov	r0, #0
 1989              		.loc 4 846 0
 1990 08d4 44318DE5 		str	r3, [sp, #324]
 845:C:/Renesas/e2studio_2021_01_workspace_RZA2M_ANPR/ANPR_RZA2M_EBK/src/tensorflow_lite/tensorflow/lite/kernels/internal\common.h ****         desc1_out->extents[i] = extent0;
 1991              		.loc 4 845 0
 1992 08d8 54018DE5 		str	r0, [sp, #340]
 1993              	.L180:
 1994              	.LVL257:
 1995              	.LBB1635:
 1996              	.LBB1619:
 215:C:/Renesas/e2studio_2021_01_workspace_RZA2M_ANPR/ANPR_RZA2M_EBK/src/tensorflow_lite/tensorflow/lite/kernels/internal\types.h ****     return size_ > kMaxSmallSize ? dims_pointer_[i] : dims_[i];
 1997              		.loc 3 215 0
 1998 08dc 020057E3 		cmp	r7, #2
 1999 08e0 BB06000A 		beq	.L175
 216:C:/Renesas/e2studio_2021_01_workspace_RZA2M_ANPR/ANPR_RZA2M_EBK/src/tensorflow_lite/tensorflow/lite/kernels/internal\types.h ****   }
 2000              		.loc 3 216 0
 2001 08e4 FC309DE5 		ldr	r3, [sp, #252]
 2002              	.LVL258:
 2003              	.LBE1619:
 2004              	.LBE1635:
 839:C:/Renesas/e2studio_2021_01_workspace_RZA2M_ANPR/ANPR_RZA2M_EBK/src/tensorflow_lite/tensorflow/lite/kernels/internal\common.h ****       if (extent0 == 1) {
 2005              		.loc 4 839 0
 2006 08e8 030051E1 		cmp	r1, r3
 2007 08ec 0600000A 		beq	.L182
 840:C:/Renesas/e2studio_2021_01_workspace_RZA2M_ANPR/ANPR_RZA2M_EBK/src/tensorflow_lite/tensorflow/lite/kernels/internal\common.h ****         desc0_out->strides[i] = 0;
 2008              		.loc 4 840 0
 2009 08f0 010053E3 		cmp	r3, #1
 2010 08f4 1905000A 		beq	.L181
 844:C:/Renesas/e2studio_2021_01_workspace_RZA2M_ANPR/ANPR_RZA2M_EBK/src/tensorflow_lite/tensorflow/lite/kernels/internal\common.h ****         desc1_out->strides[i] = 0;
 2011              		.loc 4 844 0
 2012 08f8 010051E3 		cmp	r1, #1
 2013 08fc A706001A 		bne	.L178
 845:C:/Renesas/e2studio_2021_01_workspace_RZA2M_ANPR/ANPR_RZA2M_EBK/src/tensorflow_lite/tensorflow/lite/kernels/internal\common.h ****         desc1_out->extents[i] = extent0;
 2014              		.loc 4 845 0
 2015 0900 0010A0E3 		mov	r1, #0
 2016              		.loc 4 846 0
 2017 0904 48318DE5 		str	r3, [sp, #328]
 845:C:/Renesas/e2studio_2021_01_workspace_RZA2M_ANPR/ANPR_RZA2M_EBK/src/tensorflow_lite/tensorflow/lite/kernels/internal\common.h ****         desc1_out->extents[i] = extent0;
 2018              		.loc 4 845 0
 2019 0908 58118DE5 		str	r1, [sp, #344]
 2020              	.L182:
 2021              	.LVL259:
 2022              	.LBB1636:
 2023              	.LBB1620:
 215:C:/Renesas/e2studio_2021_01_workspace_RZA2M_ANPR/ANPR_RZA2M_EBK/src/tensorflow_lite/tensorflow/lite/kernels/internal\types.h ****     return size_ > kMaxSmallSize ? dims_pointer_[i] : dims_[i];
 2024              		.loc 3 215 0
 2025 090c 030057E3 		cmp	r7, #3
 2026 0910 AF06000A 		beq	.L175
 216:C:/Renesas/e2studio_2021_01_workspace_RZA2M_ANPR/ANPR_RZA2M_EBK/src/tensorflow_lite/tensorflow/lite/kernels/internal\types.h ****   }
 2027              		.loc 3 216 0
 2028 0914 00319DE5 		ldr	r3, [sp, #256]
 2029              	.LVL260:
 2030              	.LBE1620:
 2031              	.LBE1636:
 839:C:/Renesas/e2studio_2021_01_workspace_RZA2M_ANPR/ANPR_RZA2M_EBK/src/tensorflow_lite/tensorflow/lite/kernels/internal\common.h ****       if (extent0 == 1) {
 2032              		.loc 4 839 0
 2033 0918 030052E1 		cmp	r2, r3
 2034 091c 8900000A 		beq	.L402
 2035              	.L813:
 840:C:/Renesas/e2studio_2021_01_workspace_RZA2M_ANPR/ANPR_RZA2M_EBK/src/tensorflow_lite/tensorflow/lite/kernels/internal\common.h ****         desc0_out->strides[i] = 0;
 2036              		.loc 4 840 0
 2037 0920 010053E3 		cmp	r3, #1
 2038 0924 8D05000A 		beq	.L193
 844:C:/Renesas/e2studio_2021_01_workspace_RZA2M_ANPR/ANPR_RZA2M_EBK/src/tensorflow_lite/tensorflow/lite/kernels/internal\common.h ****         desc1_out->strides[i] = 0;
 2039              		.loc 4 844 0
 2040 0928 010052E3 		cmp	r2, #1
 2041 092c 9B06001A 		bne	.L178
 845:C:/Renesas/e2studio_2021_01_workspace_RZA2M_ANPR/ANPR_RZA2M_EBK/src/tensorflow_lite/tensorflow/lite/kernels/internal\common.h ****         desc1_out->extents[i] = extent0;
 2042              		.loc 4 845 0
 2043 0930 0020A0E3 		mov	r2, #0
 2044              		.loc 4 846 0
 2045 0934 4C318DE5 		str	r3, [sp, #332]
 845:C:/Renesas/e2studio_2021_01_workspace_RZA2M_ANPR/ANPR_RZA2M_EBK/src/tensorflow_lite/tensorflow/lite/kernels/internal\common.h ****         desc1_out->extents[i] = extent0;
 2046              		.loc 4 845 0
 2047 0938 5C218DE5 		str	r2, [sp, #348]
 2048 093c 810000EA 		b	.L402
 2049              	.LVL261:
 2050              	.L927:
 2051              	.LBE1615:
 2052              	.LBE1614:
 2053              	.LBE1547:
 2054              	.LBE1546:
 2055              	.LBE1527:
 2056              	.LBE1526:
 2057              	.LBB1939:
 2058              	.LBB1496:
 2059              	.LBB1287:
 2060              	.LBB1275:
 2061              	.LBB1254:
 2062              	.LBB1180:
 2063              	.LBB1178:
 2064              	.LBB1175:
 2065              	.LBB1172:
 216:C:/Renesas/e2studio_2021_01_workspace_RZA2M_ANPR/ANPR_RZA2M_EBK/src/tensorflow_lite/tensorflow/lite/kernels/internal\types.h ****   }
 2066              		.loc 3 216 0
 2067 0940 0C2093E5 		ldr	r2, [r3, #12]
 2068              	.LVL262:
 2069 0944 01C0A0E3 		mov	ip, #1
 2070 0948 080093E5 		ldr	r0, [r3, #8]
 2071 094c 041093E5 		ldr	r1, [r3, #4]
 2072 0950 2C218DE5 		str	r2, [sp, #300]
 2073              	.LVL263:
 2074 0954 38218DE5 		str	r2, [sp, #312]
 2075              	.LBE1172:
 2076              	.LBE1175:
 815:C:/Renesas/e2studio_2021_01_workspace_RZA2M_ANPR/ANPR_RZA2M_EBK/src/tensorflow_lite/tensorflow/lite/kernels/internal\common.h ****   }
 2077              		.loc 4 815 0
 2078 0958 900202E0 		mul	r2, r0, r2
 2079              	.LVL264:
 2080 095c 24118DE5 		str	r1, [sp, #292]
 2081 0960 28018DE5 		str	r0, [sp, #296]
 2082              	.LVL265:
 2083              	.LBB1176:
 2084              	.LBB1173:
 216:C:/Renesas/e2studio_2021_01_workspace_RZA2M_ANPR/ANPR_RZA2M_EBK/src/tensorflow_lite/tensorflow/lite/kernels/internal\types.h ****   }
 2085              		.loc 3 216 0
 2086 0964 000093E5 		ldr	r0, [r3]
 2087              	.LVL266:
 2088 0968 3CC18DE5 		str	ip, [sp, #316]
 2089              	.LBE1173:
 2090              	.LBE1176:
 815:C:/Renesas/e2studio_2021_01_workspace_RZA2M_ANPR/ANPR_RZA2M_EBK/src/tensorflow_lite/tensorflow/lite/kernels/internal\common.h ****   }
 2091              		.loc 4 815 0
 2092 096c 910201E0 		mul	r1, r1, r2
 2093              	.LVL267:
 2094 0970 34218DE5 		str	r2, [sp, #308]
 2095 0974 20018DE5 		str	r0, [sp, #288]
 2096              	.LVL268:
 2097 0978 30118DE5 		str	r1, [sp, #304]
 2098 097c F2FEFFEA 		b	.L283
 2099              	.LVL269:
 2100              	.L921:
 2101              	.LBE1178:
 2102              	.LBE1180:
 2103              	.LBE1254:
 2104              	.LBE1275:
 2105              	.LBE1287:
 2106              	.LBE1496:
 2107              	.LBE1939:
 2108              	.LBB1940:
 2109              	.LBB1081:
 2110              	.LBB954:
 2111              	.LBB943:
 2112              	.LBB922:
 2113              	.LBB848:
 2114              	.LBB846:
 2115              	.LBB843:
 2116              	.LBB840:
 216:C:/Renesas/e2studio_2021_01_workspace_RZA2M_ANPR/ANPR_RZA2M_EBK/src/tensorflow_lite/tensorflow/lite/kernels/internal\types.h ****   }
 2117              		.loc 3 216 0
 2118 0980 0C2093E5 		ldr	r2, [r3, #12]
 2119              	.LVL270:
 2120 0984 01C0A0E3 		mov	ip, #1
 2121 0988 080093E5 		ldr	r0, [r3, #8]
 2122 098c 041093E5 		ldr	r1, [r3, #4]
 2123 0990 2C218DE5 		str	r2, [sp, #300]
 2124              	.LVL271:
 2125 0994 38218DE5 		str	r2, [sp, #312]
 2126              	.LBE840:
 2127              	.LBE843:
 815:C:/Renesas/e2studio_2021_01_workspace_RZA2M_ANPR/ANPR_RZA2M_EBK/src/tensorflow_lite/tensorflow/lite/kernels/internal\common.h ****   }
 2128              		.loc 4 815 0
 2129 0998 900202E0 		mul	r2, r0, r2
 2130              	.LVL272:
 2131 099c 24118DE5 		str	r1, [sp, #292]
 2132 09a0 28018DE5 		str	r0, [sp, #296]
 2133              	.LVL273:
 2134              	.LBB844:
 2135              	.LBB841:
 216:C:/Renesas/e2studio_2021_01_workspace_RZA2M_ANPR/ANPR_RZA2M_EBK/src/tensorflow_lite/tensorflow/lite/kernels/internal\types.h ****   }
 2136              		.loc 3 216 0
 2137 09a4 000093E5 		ldr	r0, [r3]
 2138              	.LVL274:
 2139 09a8 3CC18DE5 		str	ip, [sp, #316]
 2140              	.LBE841:
 2141              	.LBE844:
 815:C:/Renesas/e2studio_2021_01_workspace_RZA2M_ANPR/ANPR_RZA2M_EBK/src/tensorflow_lite/tensorflow/lite/kernels/internal\common.h ****   }
 2142              		.loc 4 815 0
 2143 09ac 910201E0 		mul	r1, r1, r2
 2144              	.LVL275:
 2145 09b0 34218DE5 		str	r2, [sp, #308]
 2146 09b4 20018DE5 		str	r0, [sp, #288]
 2147              	.LVL276:
 2148 09b8 30118DE5 		str	r1, [sp, #304]
 2149 09bc 2BFEFFEA 		b	.L49
 2150              	.LVL277:
 2151              	.L933:
 2152              	.LBE846:
 2153              	.LBE848:
 2154              	.LBE922:
 2155              	.LBE943:
 2156              	.LBE954:
 2157              	.LBE1081:
 2158              	.LBE1940:
 2159              	.LBB1941:
 2160              	.LBB1919:
 2161              	.LBB1701:
 2162              	.LBB1690:
 2163              	.LBB1672:
 2164              	.LBB1597:
 2165              	.LBB1595:
 2166              	.LBB1592:
 2167              	.LBB1589:
 216:C:/Renesas/e2studio_2021_01_workspace_RZA2M_ANPR/ANPR_RZA2M_EBK/src/tensorflow_lite/tensorflow/lite/kernels/internal\types.h ****   }
 2168              		.loc 3 216 0
 2169 09c0 0C2093E5 		ldr	r2, [r3, #12]
 2170              	.LVL278:
 2171 09c4 01C0A0E3 		mov	ip, #1
 2172 09c8 080093E5 		ldr	r0, [r3, #8]
 2173 09cc 041093E5 		ldr	r1, [r3, #4]
 2174 09d0 2C218DE5 		str	r2, [sp, #300]
 2175              	.LVL279:
 2176 09d4 38218DE5 		str	r2, [sp, #312]
 2177              	.LBE1589:
 2178              	.LBE1592:
 815:C:/Renesas/e2studio_2021_01_workspace_RZA2M_ANPR/ANPR_RZA2M_EBK/src/tensorflow_lite/tensorflow/lite/kernels/internal\common.h ****   }
 2179              		.loc 4 815 0
 2180 09d8 900202E0 		mul	r2, r0, r2
 2181              	.LVL280:
 2182 09dc 24118DE5 		str	r1, [sp, #292]
 2183 09e0 28018DE5 		str	r0, [sp, #296]
 2184              	.LVL281:
 2185              	.LBB1593:
 2186              	.LBB1590:
 216:C:/Renesas/e2studio_2021_01_workspace_RZA2M_ANPR/ANPR_RZA2M_EBK/src/tensorflow_lite/tensorflow/lite/kernels/internal\types.h ****   }
 2187              		.loc 3 216 0
 2188 09e4 000093E5 		ldr	r0, [r3]
 2189              	.LVL282:
 2190 09e8 3CC18DE5 		str	ip, [sp, #316]
 2191              	.LBE1590:
 2192              	.LBE1593:
 815:C:/Renesas/e2studio_2021_01_workspace_RZA2M_ANPR/ANPR_RZA2M_EBK/src/tensorflow_lite/tensorflow/lite/kernels/internal\common.h ****   }
 2193              		.loc 4 815 0
 2194 09ec 910201E0 		mul	r1, r1, r2
 2195              	.LVL283:
 2196 09f0 34218DE5 		str	r2, [sp, #308]
 2197 09f4 20018DE5 		str	r0, [sp, #288]
 2198              	.LVL284:
 2199 09f8 30118DE5 		str	r1, [sp, #304]
 2200 09fc 89FFFFEA 		b	.L168
 2201              	.LVL285:
 2202              	.L169:
 2203              	.LBE1595:
 2204              	.LBE1597:
 2205              	.LBE1672:
 2206              	.LBB1673:
 2207              	.LBB1612:
 2208              	.LBB1610:
 2209              	.LBB1607:
 2210              	.LBB1604:
 216:C:/Renesas/e2studio_2021_01_workspace_RZA2M_ANPR/ANPR_RZA2M_EBK/src/tensorflow_lite/tensorflow/lite/kernels/internal\types.h ****   }
 2211              		.loc 3 216 0
 2212 0a00 0C2090E5 		ldr	r2, [r0, #12]
 2213              	.LVL286:
 2214 0a04 050057E3 		cmp	r7, #5
 2215 0a08 08C090E5 		ldr	ip, [r0, #8]
 2216 0a0c 01E0A0E3 		mov	lr, #1
 2217 0a10 041090E5 		ldr	r1, [r0, #4]
 2218 0a14 4C218DE5 		str	r2, [sp, #332]
 2219              	.LVL287:
 2220 0a18 58218DE5 		str	r2, [sp, #344]
 2221              	.LBE1604:
 2222              	.LBE1607:
 815:C:/Renesas/e2studio_2021_01_workspace_RZA2M_ANPR/ANPR_RZA2M_EBK/src/tensorflow_lite/tensorflow/lite/kernels/internal\common.h ****   }
 2223              		.loc 4 815 0
 2224 0a1c 9C0202E0 		mul	r2, ip, r2
 2225              	.LVL288:
 2226 0a20 44118DE5 		str	r1, [sp, #324]
 2227 0a24 48C18DE5 		str	ip, [sp, #328]
 2228              	.LVL289:
 2229              	.LBB1608:
 2230              	.LBB1605:
 216:C:/Renesas/e2studio_2021_01_workspace_RZA2M_ANPR/ANPR_RZA2M_EBK/src/tensorflow_lite/tensorflow/lite/kernels/internal\types.h ****   }
 2231              		.loc 3 216 0
 2232 0a28 00C090E5 		ldr	ip, [r0]
 2233              	.LVL290:
 2234 0a2c 5CE18DE5 		str	lr, [sp, #348]
 2235              	.LBE1605:
 2236              	.LBE1608:
 815:C:/Renesas/e2studio_2021_01_workspace_RZA2M_ANPR/ANPR_RZA2M_EBK/src/tensorflow_lite/tensorflow/lite/kernels/internal\common.h ****   }
 2237              		.loc 4 815 0
 2238 0a30 910201E0 		mul	r1, r1, r2
 2239              	.LVL291:
 2240 0a34 54218DE5 		str	r2, [sp, #340]
 2241 0a38 40C18DE5 		str	ip, [sp, #320]
 2242              	.LVL292:
 2243 0a3c 50118DE5 		str	r1, [sp, #336]
 2244 0a40 FC0400CA 		bgt	.L935
 2245              	.LVL293:
 2246              	.LBE1610:
 2247              	.LBE1612:
 2248              	.LBE1673:
 2249              	.LBB1674:
 2250              	.LBB1662:
 2251              	.LBB1637:
 2252              	.LBB1621:
 215:C:/Renesas/e2studio_2021_01_workspace_RZA2M_ANPR/ANPR_RZA2M_EBK/src/tensorflow_lite/tensorflow/lite/kernels/internal\types.h ****     return size_ > kMaxSmallSize ? dims_pointer_[i] : dims_[i];
 2253              		.loc 3 215 0
 2254 0a44 000057E3 		cmp	r7, #0
 2255 0a48 610600DA 		ble	.L175
 2256              	.LVL294:
 2257              	.LBE1621:
 2258              	.LBE1637:
 839:C:/Renesas/e2studio_2021_01_workspace_RZA2M_ANPR/ANPR_RZA2M_EBK/src/tensorflow_lite/tensorflow/lite/kernels/internal\common.h ****       if (extent0 == 1) {
 2259              		.loc 4 839 0
 2260 0a4c 0C0053E1 		cmp	r3, ip
 2261 0a50 0900000A 		beq	.L194
 840:C:/Renesas/e2studio_2021_01_workspace_RZA2M_ANPR/ANPR_RZA2M_EBK/src/tensorflow_lite/tensorflow/lite/kernels/internal\common.h ****         desc0_out->strides[i] = 0;
 2262              		.loc 4 840 0
 2263 0a54 010053E3 		cmp	r3, #1
 841:C:/Renesas/e2studio_2021_01_workspace_RZA2M_ANPR/ANPR_RZA2M_EBK/src/tensorflow_lite/tensorflow/lite/kernels/internal\common.h ****         desc0_out->extents[i] = extent1;
 2264              		.loc 4 841 0
 2265 0a58 0030A003 		moveq	r3, #0
 842:C:/Renesas/e2studio_2021_01_workspace_RZA2M_ANPR/ANPR_RZA2M_EBK/src/tensorflow_lite/tensorflow/lite/kernels/internal\common.h ****       } else {
 2266              		.loc 4 842 0
 2267 0a5c 20C18D05 		streq	ip, [sp, #288]
 841:C:/Renesas/e2studio_2021_01_workspace_RZA2M_ANPR/ANPR_RZA2M_EBK/src/tensorflow_lite/tensorflow/lite/kernels/internal\common.h ****         desc0_out->extents[i] = extent1;
 2268              		.loc 4 841 0
 2269 0a60 30318D05 		streq	r3, [sp, #304]
 840:C:/Renesas/e2studio_2021_01_workspace_RZA2M_ANPR/ANPR_RZA2M_EBK/src/tensorflow_lite/tensorflow/lite/kernels/internal\common.h ****         desc0_out->strides[i] = 0;
 2270              		.loc 4 840 0
 2271 0a64 0400000A 		beq	.L194
 844:C:/Renesas/e2studio_2021_01_workspace_RZA2M_ANPR/ANPR_RZA2M_EBK/src/tensorflow_lite/tensorflow/lite/kernels/internal\common.h ****         desc1_out->strides[i] = 0;
 2272              		.loc 4 844 0
 2273 0a68 01005CE3 		cmp	ip, #1
 2274 0a6c 4B06001A 		bne	.L178
 845:C:/Renesas/e2studio_2021_01_workspace_RZA2M_ANPR/ANPR_RZA2M_EBK/src/tensorflow_lite/tensorflow/lite/kernels/internal\common.h ****         desc1_out->extents[i] = extent0;
 2275              		.loc 4 845 0
 2276 0a70 0020A0E3 		mov	r2, #0
 2277              		.loc 4 846 0
 2278 0a74 40318DE5 		str	r3, [sp, #320]
 845:C:/Renesas/e2studio_2021_01_workspace_RZA2M_ANPR/ANPR_RZA2M_EBK/src/tensorflow_lite/tensorflow/lite/kernels/internal\common.h ****         desc1_out->extents[i] = extent0;
 2279              		.loc 4 845 0
 2280 0a78 50218DE5 		str	r2, [sp, #336]
 2281              	.L194:
 2282              	.LVL295:
 2283              	.LBB1638:
 2284              	.LBB1622:
 215:C:/Renesas/e2studio_2021_01_workspace_RZA2M_ANPR/ANPR_RZA2M_EBK/src/tensorflow_lite/tensorflow/lite/kernels/internal\types.h ****     return size_ > kMaxSmallSize ? dims_pointer_[i] : dims_[i];
 2285              		.loc 3 215 0
 2286 0a7c 010057E3 		cmp	r7, #1
 2287 0a80 5306000A 		beq	.L175
 216:C:/Renesas/e2studio_2021_01_workspace_RZA2M_ANPR/ANPR_RZA2M_EBK/src/tensorflow_lite/tensorflow/lite/kernels/internal\types.h ****   }
 2288              		.loc 3 216 0
 2289 0a84 F8309DE5 		ldr	r3, [sp, #248]
 2290              	.LVL296:
 2291              	.LBE1622:
 2292              	.LBE1638:
 2293              	.LBB1639:
 2294              	.LBB1640:
 2295 0a88 042090E5 		ldr	r2, [r0, #4]
 2296              	.LVL297:
 2297              	.LBE1640:
 2298              	.LBE1639:
 839:C:/Renesas/e2studio_2021_01_workspace_RZA2M_ANPR/ANPR_RZA2M_EBK/src/tensorflow_lite/tensorflow/lite/kernels/internal\common.h ****       if (extent0 == 1) {
 2299              		.loc 4 839 0
 2300 0a8c 030052E1 		cmp	r2, r3
 2301 0a90 0900000A 		beq	.L197
 840:C:/Renesas/e2studio_2021_01_workspace_RZA2M_ANPR/ANPR_RZA2M_EBK/src/tensorflow_lite/tensorflow/lite/kernels/internal\common.h ****         desc0_out->strides[i] = 0;
 2302              		.loc 4 840 0
 2303 0a94 010053E3 		cmp	r3, #1
 841:C:/Renesas/e2studio_2021_01_workspace_RZA2M_ANPR/ANPR_RZA2M_EBK/src/tensorflow_lite/tensorflow/lite/kernels/internal\common.h ****         desc0_out->extents[i] = extent1;
 2304              		.loc 4 841 0
 2305 0a98 0030A003 		moveq	r3, #0
 842:C:/Renesas/e2studio_2021_01_workspace_RZA2M_ANPR/ANPR_RZA2M_EBK/src/tensorflow_lite/tensorflow/lite/kernels/internal\common.h ****       } else {
 2306              		.loc 4 842 0
 2307 0a9c 24218D05 		streq	r2, [sp, #292]
 841:C:/Renesas/e2studio_2021_01_workspace_RZA2M_ANPR/ANPR_RZA2M_EBK/src/tensorflow_lite/tensorflow/lite/kernels/internal\common.h ****         desc0_out->extents[i] = extent1;
 2308              		.loc 4 841 0
 2309 0aa0 34318D05 		streq	r3, [sp, #308]
 840:C:/Renesas/e2studio_2021_01_workspace_RZA2M_ANPR/ANPR_RZA2M_EBK/src/tensorflow_lite/tensorflow/lite/kernels/internal\common.h ****         desc0_out->strides[i] = 0;
 2310              		.loc 4 840 0
 2311 0aa4 0400000A 		beq	.L197
 844:C:/Renesas/e2studio_2021_01_workspace_RZA2M_ANPR/ANPR_RZA2M_EBK/src/tensorflow_lite/tensorflow/lite/kernels/internal\common.h ****         desc1_out->strides[i] = 0;
 2312              		.loc 4 844 0
 2313 0aa8 010052E3 		cmp	r2, #1
 2314 0aac 3B06001A 		bne	.L178
 845:C:/Renesas/e2studio_2021_01_workspace_RZA2M_ANPR/ANPR_RZA2M_EBK/src/tensorflow_lite/tensorflow/lite/kernels/internal\common.h ****         desc1_out->extents[i] = extent0;
 2315              		.loc 4 845 0
 2316 0ab0 0020A0E3 		mov	r2, #0
 2317              		.loc 4 846 0
 2318 0ab4 44318DE5 		str	r3, [sp, #324]
 845:C:/Renesas/e2studio_2021_01_workspace_RZA2M_ANPR/ANPR_RZA2M_EBK/src/tensorflow_lite/tensorflow/lite/kernels/internal\common.h ****         desc1_out->extents[i] = extent0;
 2319              		.loc 4 845 0
 2320 0ab8 54218DE5 		str	r2, [sp, #340]
 2321              	.L197:
 2322              	.LVL298:
 2323              	.LBB1646:
 2324              	.LBB1623:
 215:C:/Renesas/e2studio_2021_01_workspace_RZA2M_ANPR/ANPR_RZA2M_EBK/src/tensorflow_lite/tensorflow/lite/kernels/internal\types.h ****     return size_ > kMaxSmallSize ? dims_pointer_[i] : dims_[i];
 2325              		.loc 3 215 0
 2326 0abc 020057E3 		cmp	r7, #2
 2327 0ac0 4306000A 		beq	.L175
 216:C:/Renesas/e2studio_2021_01_workspace_RZA2M_ANPR/ANPR_RZA2M_EBK/src/tensorflow_lite/tensorflow/lite/kernels/internal\types.h ****   }
 2328              		.loc 3 216 0
 2329 0ac4 FC309DE5 		ldr	r3, [sp, #252]
 2330              	.LVL299:
 2331              	.LBE1623:
 2332              	.LBE1646:
 2333              	.LBB1647:
 2334              	.LBB1641:
 2335 0ac8 082090E5 		ldr	r2, [r0, #8]
 2336              	.LVL300:
 2337              	.LBE1641:
 2338              	.LBE1647:
 839:C:/Renesas/e2studio_2021_01_workspace_RZA2M_ANPR/ANPR_RZA2M_EBK/src/tensorflow_lite/tensorflow/lite/kernels/internal\common.h ****       if (extent0 == 1) {
 2339              		.loc 4 839 0
 2340 0acc 030052E1 		cmp	r2, r3
 2341 0ad0 0900000A 		beq	.L199
 840:C:/Renesas/e2studio_2021_01_workspace_RZA2M_ANPR/ANPR_RZA2M_EBK/src/tensorflow_lite/tensorflow/lite/kernels/internal\common.h ****         desc0_out->strides[i] = 0;
 2342              		.loc 4 840 0
 2343 0ad4 010053E3 		cmp	r3, #1
 841:C:/Renesas/e2studio_2021_01_workspace_RZA2M_ANPR/ANPR_RZA2M_EBK/src/tensorflow_lite/tensorflow/lite/kernels/internal\common.h ****         desc0_out->extents[i] = extent1;
 2344              		.loc 4 841 0
 2345 0ad8 0030A003 		moveq	r3, #0
 842:C:/Renesas/e2studio_2021_01_workspace_RZA2M_ANPR/ANPR_RZA2M_EBK/src/tensorflow_lite/tensorflow/lite/kernels/internal\common.h ****       } else {
 2346              		.loc 4 842 0
 2347 0adc 28218D05 		streq	r2, [sp, #296]
 841:C:/Renesas/e2studio_2021_01_workspace_RZA2M_ANPR/ANPR_RZA2M_EBK/src/tensorflow_lite/tensorflow/lite/kernels/internal\common.h ****         desc0_out->extents[i] = extent1;
 2348              		.loc 4 841 0
 2349 0ae0 38318D05 		streq	r3, [sp, #312]
 840:C:/Renesas/e2studio_2021_01_workspace_RZA2M_ANPR/ANPR_RZA2M_EBK/src/tensorflow_lite/tensorflow/lite/kernels/internal\common.h ****         desc0_out->strides[i] = 0;
 2350              		.loc 4 840 0
 2351 0ae4 0400000A 		beq	.L199
 844:C:/Renesas/e2studio_2021_01_workspace_RZA2M_ANPR/ANPR_RZA2M_EBK/src/tensorflow_lite/tensorflow/lite/kernels/internal\common.h ****         desc1_out->strides[i] = 0;
 2352              		.loc 4 844 0
 2353 0ae8 010052E3 		cmp	r2, #1
 2354 0aec 2B06001A 		bne	.L178
 845:C:/Renesas/e2studio_2021_01_workspace_RZA2M_ANPR/ANPR_RZA2M_EBK/src/tensorflow_lite/tensorflow/lite/kernels/internal\common.h ****         desc1_out->extents[i] = extent0;
 2355              		.loc 4 845 0
 2356 0af0 0020A0E3 		mov	r2, #0
 2357              		.loc 4 846 0
 2358 0af4 48318DE5 		str	r3, [sp, #328]
 845:C:/Renesas/e2studio_2021_01_workspace_RZA2M_ANPR/ANPR_RZA2M_EBK/src/tensorflow_lite/tensorflow/lite/kernels/internal\common.h ****         desc1_out->extents[i] = extent0;
 2359              		.loc 4 845 0
 2360 0af8 58218DE5 		str	r2, [sp, #344]
 2361              	.L199:
 2362              	.LVL301:
 2363              	.LBB1648:
 2364              	.LBB1624:
 215:C:/Renesas/e2studio_2021_01_workspace_RZA2M_ANPR/ANPR_RZA2M_EBK/src/tensorflow_lite/tensorflow/lite/kernels/internal\types.h ****     return size_ > kMaxSmallSize ? dims_pointer_[i] : dims_[i];
 2365              		.loc 3 215 0
 2366 0afc 030057E3 		cmp	r7, #3
 2367 0b00 3306000A 		beq	.L175
 216:C:/Renesas/e2studio_2021_01_workspace_RZA2M_ANPR/ANPR_RZA2M_EBK/src/tensorflow_lite/tensorflow/lite/kernels/internal\types.h ****   }
 2368              		.loc 3 216 0
 2369 0b04 00319DE5 		ldr	r3, [sp, #256]
 2370              	.LVL302:
 2371              	.LBE1624:
 2372              	.LBE1648:
 2373              	.LBB1649:
 2374              	.LBB1642:
 2375 0b08 0C2090E5 		ldr	r2, [r0, #12]
 2376              	.LVL303:
 2377              	.LBE1642:
 2378              	.LBE1649:
 839:C:/Renesas/e2studio_2021_01_workspace_RZA2M_ANPR/ANPR_RZA2M_EBK/src/tensorflow_lite/tensorflow/lite/kernels/internal\common.h ****       if (extent0 == 1) {
 2379              		.loc 4 839 0
 2380 0b0c 030052E1 		cmp	r2, r3
 2381 0b10 0900000A 		beq	.L202
 2382              	.LVL304:
 2383              	.L209:
 840:C:/Renesas/e2studio_2021_01_workspace_RZA2M_ANPR/ANPR_RZA2M_EBK/src/tensorflow_lite/tensorflow/lite/kernels/internal\common.h ****         desc0_out->strides[i] = 0;
 2384              		.loc 4 840 0
 2385 0b14 010053E3 		cmp	r3, #1
 841:C:/Renesas/e2studio_2021_01_workspace_RZA2M_ANPR/ANPR_RZA2M_EBK/src/tensorflow_lite/tensorflow/lite/kernels/internal\common.h ****         desc0_out->extents[i] = extent1;
 2386              		.loc 4 841 0
 2387 0b18 0030A003 		moveq	r3, #0
 842:C:/Renesas/e2studio_2021_01_workspace_RZA2M_ANPR/ANPR_RZA2M_EBK/src/tensorflow_lite/tensorflow/lite/kernels/internal\common.h ****       } else {
 2388              		.loc 4 842 0
 2389 0b1c 2C218D05 		streq	r2, [sp, #300]
 841:C:/Renesas/e2studio_2021_01_workspace_RZA2M_ANPR/ANPR_RZA2M_EBK/src/tensorflow_lite/tensorflow/lite/kernels/internal\common.h ****         desc0_out->extents[i] = extent1;
 2390              		.loc 4 841 0
 2391 0b20 3C318D05 		streq	r3, [sp, #316]
 840:C:/Renesas/e2studio_2021_01_workspace_RZA2M_ANPR/ANPR_RZA2M_EBK/src/tensorflow_lite/tensorflow/lite/kernels/internal\common.h ****         desc0_out->strides[i] = 0;
 2392              		.loc 4 840 0
 2393 0b24 0400000A 		beq	.L202
 844:C:/Renesas/e2studio_2021_01_workspace_RZA2M_ANPR/ANPR_RZA2M_EBK/src/tensorflow_lite/tensorflow/lite/kernels/internal\common.h ****         desc1_out->strides[i] = 0;
 2394              		.loc 4 844 0
 2395 0b28 010052E3 		cmp	r2, #1
 845:C:/Renesas/e2studio_2021_01_workspace_RZA2M_ANPR/ANPR_RZA2M_EBK/src/tensorflow_lite/tensorflow/lite/kernels/internal\common.h ****         desc1_out->extents[i] = extent0;
 2396              		.loc 4 845 0
 2397 0b2c 0020A003 		moveq	r2, #0
 2398              		.loc 4 846 0
 2399 0b30 4C318D05 		streq	r3, [sp, #332]
 2400              	.LVL305:
 845:C:/Renesas/e2studio_2021_01_workspace_RZA2M_ANPR/ANPR_RZA2M_EBK/src/tensorflow_lite/tensorflow/lite/kernels/internal\common.h ****         desc1_out->extents[i] = extent0;
 2401              		.loc 4 845 0
 2402 0b34 5C218D05 		streq	r2, [sp, #348]
 844:C:/Renesas/e2studio_2021_01_workspace_RZA2M_ANPR/ANPR_RZA2M_EBK/src/tensorflow_lite/tensorflow/lite/kernels/internal\common.h ****         desc1_out->strides[i] = 0;
 2403              		.loc 4 844 0
 2404 0b38 1806001A 		bne	.L178
 2405              	.LVL306:
 2406              	.L202:
 2407              	.LBE1662:
 2408              	.LBE1674:
 2409              	.LBB1675:
 2410              	.LBB1676:
 207:C:/Renesas/e2studio_2021_01_workspace_RZA2M_ANPR/ANPR_RZA2M_EBK/src/tensorflow_lite/tensorflow/lite/kernels/internal\types.h **** #endif  // TF_LITE_STATIC_MEMORY
 2411              		.loc 3 207 0
 2412 0b3c 000050E3 		cmp	r0, #0
 2413 0b40 0000000A 		beq	.L402
 2414 0b44 FEFFFFEB 		bl	_ZdaPv
 2415              	.LVL307:
 2416              	.L402:
 2417              	.LBE1676:
 2418              	.LBE1675:
 2419              	.LBB1677:
 2420              	.LBB1678:
 203:C:/Renesas/e2studio_2021_01_workspace_RZA2M_ANPR/ANPR_RZA2M_EBK/src/tensorflow_lite/tensorflow/lite/kernels/internal\types.h **** #ifdef TF_LITE_STATIC_MEMORY
 2421              		.loc 3 203 0
 2422 0b48 050057E3 		cmp	r7, #5
 2423 0b4c 030000DA 		ble	.L213
 207:C:/Renesas/e2studio_2021_01_workspace_RZA2M_ANPR/ANPR_RZA2M_EBK/src/tensorflow_lite/tensorflow/lite/kernels/internal\types.h **** #endif  // TF_LITE_STATIC_MEMORY
 2424              		.loc 3 207 0
 2425 0b50 F4009DE5 		ldr	r0, [sp, #244]
 2426 0b54 000050E3 		cmp	r0, #0
 2427 0b58 0000000A 		beq	.L213
 2428 0b5c FEFFFFEB 		bl	_ZdaPv
 2429              	.LVL308:
 2430              	.L213:
 2431              	.LBE1678:
 2432              	.LBE1677:
 2433              	.LBE1690:
 2434              	.LBE1701:
 2435              	.LBB1702:
 2436              	.LBB1703:
 2437              	.LBB1704:
 215:C:/Renesas/e2studio_2021_01_workspace_RZA2M_ANPR/ANPR_RZA2M_EBK/src/tensorflow_lite/tensorflow/lite/kernels/internal\types.h ****     return size_ > kMaxSmallSize ? dims_pointer_[i] : dims_[i];
 2438              		.loc 3 215 0
 2439 0b60 D8309DE5 		ldr	r3, [sp, #216]
 2440 0b64 000053E3 		cmp	r3, #0
 2441 0b68 10308DE5 		str	r3, [sp, #16]
 2442 0b6c 0A0600DA 		ble	.L214
 2443              	.LBE1704:
 2444              	.LBE1703:
 2445              	.LBB1709:
 2446              	.LBB1710:
 2447              	.LBB1711:
 216:C:/Renesas/e2studio_2021_01_workspace_RZA2M_ANPR/ANPR_RZA2M_EBK/src/tensorflow_lite/tensorflow/lite/kernels/internal\types.h ****   }
 2448              		.loc 3 216 0
 2449 0b70 E0309DE5 		ldr	r3, [sp, #224]
 2450              	.LBE1711:
 2451              	.LBE1710:
 2452              	.LBB1716:
 2453              	.LBB1717:
 2454              	.LBB1718:
 2455              	.LBB1719:
 2456              	.LBB1720:
 2457              	.LBB1721:
 2458              	.LBB1722:
 734:C:/Renesas/e2studio_2021_01_workspace_RZA2M_ANPR/ANPR_RZA2M_EBK/src/tensorflow_lite/tensorflow/lite/kernels/internal\common.h **** }
 2459              		.loc 4 734 0
 2460 0b74 00B0A0E3 		mov	fp, #0
 2461 0b78 5C219DE5 		ldr	r2, [sp, #348]
 2462 0b7c 6C608DE5 		str	r6, [sp, #108]
 2463              	.LBE1722:
 2464              	.LBE1721:
 2465              	.LBE1720:
 2466              	.LBE1719:
 2467              	.LBE1718:
 2468              	.LBE1717:
 2469              	.LBE1716:
 2470              	.LBB1866:
 2471              	.LBB1712:
 216:C:/Renesas/e2studio_2021_01_workspace_RZA2M_ANPR/ANPR_RZA2M_EBK/src/tensorflow_lite/tensorflow/lite/kernels/internal\types.h ****   }
 2472              		.loc 3 216 0
 2473 0b80 0310A0E1 		mov	r1, r3
 2474 0b84 18308DE5 		str	r3, [sp, #24]
 2475              	.LBE1712:
 2476              	.LBE1866:
 2477              	.LBB1867:
 2478              	.LBB1849:
 2479              	.LBB1850:
 2480 0b88 E4309DE5 		ldr	r3, [sp, #228]
 2481 0b8c 02E0A0E1 		mov	lr, r2
 2482 0b90 30208DE5 		str	r2, [sp, #48]
 2483 0b94 3C219DE5 		ldr	r2, [sp, #316]
 2484 0b98 0300A0E1 		mov	r0, r3
 2485 0b9c 14308DE5 		str	r3, [sp, #20]
 2486 0ba0 930101E0 		mul	r1, r3, r1
 2487              	.LBE1850:
 2488              	.LBE1849:
 2489              	.LBE1867:
 2490              	.LBE1709:
 2491              	.LBB1882:
 2492              	.LBB1705:
 2493 0ba4 DC309DE5 		ldr	r3, [sp, #220]
 2494 0ba8 0260A0E1 		mov	r6, r2
 2495              	.LVL309:
 2496 0bac 34208DE5 		str	r2, [sp, #52]
 2497              	.LBE1705:
 2498              	.LBE1882:
 2499              	.LBB1883:
 2500              	.LBB1868:
 2501              	.LBB1853:
 2502              	.LBB1825:
 2503              	.LBB1826:
 2504 0bb0 E8209DE5 		ldr	r2, [sp, #232]
 2505              	.LBE1826:
 2506              	.LBE1825:
 2507              	.LBE1853:
 2508              	.LBE1868:
 2509              	.LBE1883:
 2510              	.LBB1884:
 2511              	.LBB1706:
 2512 0bb4 0C308DE5 		str	r3, [sp, #12]
 2513              	.LBE1706:
 2514              	.LBE1884:
 2515              	.LBB1885:
 2516              	.LBB1869:
 2517              	.LBB1854:
 2518              	.LBB1832:
 2519              	.LBB1796:
 2520              	.LBB1797:
 729:C:/Renesas/e2studio_2021_01_workspace_RZA2M_ANPR/ANPR_RZA2M_EBK/src/tensorflow_lite/tensorflow/lite/kernels/internal\common.h ****   TFLITE_DCHECK(i1 >= 0 && i1 < desc.extents[1]);
 2521              		.loc 4 729 0
 2522 0bb8 20319DE5 		ldr	r3, [sp, #288]
 2523              	.LBE1797:
 2524              	.LBE1796:
 2525              	.LBE1832:
 2526              	.LBB1833:
 2527              	.LBB1827:
 216:C:/Renesas/e2studio_2021_01_workspace_RZA2M_ANPR/ANPR_RZA2M_EBK/src/tensorflow_lite/tensorflow/lite/kernels/internal\types.h ****   }
 2528              		.loc 3 216 0
 2529 0bbc 02C0A0E1 		mov	ip, r2
 2530 0bc0 08208DE5 		str	r2, [sp, #8]
 2531 0bc4 8E20A0E1 		lsl	r2, lr, #1
 2532              	.LBE1827:
 2533              	.LBE1833:
 2534              	.LBB1834:
 2535              	.LBB1802:
 2536              	.LBB1798:
 730:C:/Renesas/e2studio_2021_01_workspace_RZA2M_ANPR/ANPR_RZA2M_EBK/src/tensorflow_lite/tensorflow/lite/kernels/internal\common.h ****   TFLITE_DCHECK(i2 >= 0 && i2 < desc.extents[2]);
 2537              		.loc 4 730 0
 2538 0bc8 24E19DE5 		ldr	lr, [sp, #292]
 729:C:/Renesas/e2studio_2021_01_workspace_RZA2M_ANPR/ANPR_RZA2M_EBK/src/tensorflow_lite/tensorflow/lite/kernels/internal\common.h ****   TFLITE_DCHECK(i1 >= 0 && i1 < desc.extents[1]);
 2539              		.loc 4 729 0
 2540 0bcc 1C308DE5 		str	r3, [sp, #28]
 2541 0bd0 8630A0E1 		lsl	r3, r6, #1
 2542 0bd4 900C00E0 		mul	r0, r0, ip
 2543              	.LBE1798:
 2544              	.LBE1802:
 2545              	.LBB1803:
 2546              	.LBB1761:
 2547              	.LBB1727:
 2548              	.LBB1728:
 2549              	.LBB1729:
 2550              	.LBB1730:
 2551              		.file 6 "C:/Renesas/e2studio_2021_01_workspace_RZA2M_ANPR/ANPR_RZA2M_EBK/src/tensorflow_lite/third
   1:C:/Renesas/e2studio_2021_01_workspace_RZA2M_ANPR/ANPR_RZA2M_EBK/src/tensorflow_lite/third_party/gemmlowp/fixedpoint\fixedpoint.h **** // Copyright 2015 The Gemmlowp Authors. All Rights Reserved.
   2:C:/Renesas/e2studio_2021_01_workspace_RZA2M_ANPR/ANPR_RZA2M_EBK/src/tensorflow_lite/third_party/gemmlowp/fixedpoint\fixedpoint.h **** //
   3:C:/Renesas/e2studio_2021_01_workspace_RZA2M_ANPR/ANPR_RZA2M_EBK/src/tensorflow_lite/third_party/gemmlowp/fixedpoint\fixedpoint.h **** // Licensed under the Apache License, Version 2.0 (the "License");
   4:C:/Renesas/e2studio_2021_01_workspace_RZA2M_ANPR/ANPR_RZA2M_EBK/src/tensorflow_lite/third_party/gemmlowp/fixedpoint\fixedpoint.h **** // you may not use this file except in compliance with the License.
   5:C:/Renesas/e2studio_2021_01_workspace_RZA2M_ANPR/ANPR_RZA2M_EBK/src/tensorflow_lite/third_party/gemmlowp/fixedpoint\fixedpoint.h **** // You may obtain a copy of the License at
   6:C:/Renesas/e2studio_2021_01_workspace_RZA2M_ANPR/ANPR_RZA2M_EBK/src/tensorflow_lite/third_party/gemmlowp/fixedpoint\fixedpoint.h **** //
   7:C:/Renesas/e2studio_2021_01_workspace_RZA2M_ANPR/ANPR_RZA2M_EBK/src/tensorflow_lite/third_party/gemmlowp/fixedpoint\fixedpoint.h **** //     http://www.apache.org/licenses/LICENSE-2.0
   8:C:/Renesas/e2studio_2021_01_workspace_RZA2M_ANPR/ANPR_RZA2M_EBK/src/tensorflow_lite/third_party/gemmlowp/fixedpoint\fixedpoint.h **** //
   9:C:/Renesas/e2studio_2021_01_workspace_RZA2M_ANPR/ANPR_RZA2M_EBK/src/tensorflow_lite/third_party/gemmlowp/fixedpoint\fixedpoint.h **** // Unless required by applicable law or agreed to in writing, software
  10:C:/Renesas/e2studio_2021_01_workspace_RZA2M_ANPR/ANPR_RZA2M_EBK/src/tensorflow_lite/third_party/gemmlowp/fixedpoint\fixedpoint.h **** // distributed under the License is distributed on an "AS IS" BASIS,
  11:C:/Renesas/e2studio_2021_01_workspace_RZA2M_ANPR/ANPR_RZA2M_EBK/src/tensorflow_lite/third_party/gemmlowp/fixedpoint\fixedpoint.h **** // WITHOUT WARRANTIES OR CONDITIONS OF ANY KIND, either express or implied.
  12:C:/Renesas/e2studio_2021_01_workspace_RZA2M_ANPR/ANPR_RZA2M_EBK/src/tensorflow_lite/third_party/gemmlowp/fixedpoint\fixedpoint.h **** // See the License for the specific language governing permissions and
  13:C:/Renesas/e2studio_2021_01_workspace_RZA2M_ANPR/ANPR_RZA2M_EBK/src/tensorflow_lite/third_party/gemmlowp/fixedpoint\fixedpoint.h **** // limitations under the License.
  14:C:/Renesas/e2studio_2021_01_workspace_RZA2M_ANPR/ANPR_RZA2M_EBK/src/tensorflow_lite/third_party/gemmlowp/fixedpoint\fixedpoint.h **** 
  15:C:/Renesas/e2studio_2021_01_workspace_RZA2M_ANPR/ANPR_RZA2M_EBK/src/tensorflow_lite/third_party/gemmlowp/fixedpoint\fixedpoint.h **** // fixedpoint.h: fixed-point arithmetic, with basic operations and
  16:C:/Renesas/e2studio_2021_01_workspace_RZA2M_ANPR/ANPR_RZA2M_EBK/src/tensorflow_lite/third_party/gemmlowp/fixedpoint\fixedpoint.h **** // a few math functions such as tanh.
  17:C:/Renesas/e2studio_2021_01_workspace_RZA2M_ANPR/ANPR_RZA2M_EBK/src/tensorflow_lite/third_party/gemmlowp/fixedpoint\fixedpoint.h **** 
  18:C:/Renesas/e2studio_2021_01_workspace_RZA2M_ANPR/ANPR_RZA2M_EBK/src/tensorflow_lite/third_party/gemmlowp/fixedpoint\fixedpoint.h **** #ifndef GEMMLOWP_INTERNAL_FIXEDPOINT_H_
  19:C:/Renesas/e2studio_2021_01_workspace_RZA2M_ANPR/ANPR_RZA2M_EBK/src/tensorflow_lite/third_party/gemmlowp/fixedpoint\fixedpoint.h **** #define GEMMLOWP_INTERNAL_FIXEDPOINT_H_
  20:C:/Renesas/e2studio_2021_01_workspace_RZA2M_ANPR/ANPR_RZA2M_EBK/src/tensorflow_lite/third_party/gemmlowp/fixedpoint\fixedpoint.h **** 
  21:C:/Renesas/e2studio_2021_01_workspace_RZA2M_ANPR/ANPR_RZA2M_EBK/src/tensorflow_lite/third_party/gemmlowp/fixedpoint\fixedpoint.h **** #include <algorithm>
  22:C:/Renesas/e2studio_2021_01_workspace_RZA2M_ANPR/ANPR_RZA2M_EBK/src/tensorflow_lite/third_party/gemmlowp/fixedpoint\fixedpoint.h **** #include <cassert>
  23:C:/Renesas/e2studio_2021_01_workspace_RZA2M_ANPR/ANPR_RZA2M_EBK/src/tensorflow_lite/third_party/gemmlowp/fixedpoint\fixedpoint.h **** #include <cmath>
  24:C:/Renesas/e2studio_2021_01_workspace_RZA2M_ANPR/ANPR_RZA2M_EBK/src/tensorflow_lite/third_party/gemmlowp/fixedpoint\fixedpoint.h **** #include <cstdint>
  25:C:/Renesas/e2studio_2021_01_workspace_RZA2M_ANPR/ANPR_RZA2M_EBK/src/tensorflow_lite/third_party/gemmlowp/fixedpoint\fixedpoint.h **** #include <limits>
  26:C:/Renesas/e2studio_2021_01_workspace_RZA2M_ANPR/ANPR_RZA2M_EBK/src/tensorflow_lite/third_party/gemmlowp/fixedpoint\fixedpoint.h **** 
  27:C:/Renesas/e2studio_2021_01_workspace_RZA2M_ANPR/ANPR_RZA2M_EBK/src/tensorflow_lite/third_party/gemmlowp/fixedpoint\fixedpoint.h **** #include "../internal/detect_platform.h"
  28:C:/Renesas/e2studio_2021_01_workspace_RZA2M_ANPR/ANPR_RZA2M_EBK/src/tensorflow_lite/third_party/gemmlowp/fixedpoint\fixedpoint.h **** 
  29:C:/Renesas/e2studio_2021_01_workspace_RZA2M_ANPR/ANPR_RZA2M_EBK/src/tensorflow_lite/third_party/gemmlowp/fixedpoint\fixedpoint.h **** namespace gemmlowp {
  30:C:/Renesas/e2studio_2021_01_workspace_RZA2M_ANPR/ANPR_RZA2M_EBK/src/tensorflow_lite/third_party/gemmlowp/fixedpoint\fixedpoint.h **** 
  31:C:/Renesas/e2studio_2021_01_workspace_RZA2M_ANPR/ANPR_RZA2M_EBK/src/tensorflow_lite/third_party/gemmlowp/fixedpoint\fixedpoint.h **** // Part 1: Low-level integer-arithmetic primitives.
  32:C:/Renesas/e2studio_2021_01_workspace_RZA2M_ANPR/ANPR_RZA2M_EBK/src/tensorflow_lite/third_party/gemmlowp/fixedpoint\fixedpoint.h **** // The implementations here are generic implementations valid for
  33:C:/Renesas/e2studio_2021_01_workspace_RZA2M_ANPR/ANPR_RZA2M_EBK/src/tensorflow_lite/third_party/gemmlowp/fixedpoint\fixedpoint.h **** // scalar types (e.g. std::int32_t). Architecture-specific SIMD types
  34:C:/Renesas/e2studio_2021_01_workspace_RZA2M_ANPR/ANPR_RZA2M_EBK/src/tensorflow_lite/third_party/gemmlowp/fixedpoint\fixedpoint.h **** // (e.g. NEON int32x4_t) may be supported by providing
  35:C:/Renesas/e2studio_2021_01_workspace_RZA2M_ANPR/ANPR_RZA2M_EBK/src/tensorflow_lite/third_party/gemmlowp/fixedpoint\fixedpoint.h **** // specializations for them in separate files.
  36:C:/Renesas/e2studio_2021_01_workspace_RZA2M_ANPR/ANPR_RZA2M_EBK/src/tensorflow_lite/third_party/gemmlowp/fixedpoint\fixedpoint.h **** //
  37:C:/Renesas/e2studio_2021_01_workspace_RZA2M_ANPR/ANPR_RZA2M_EBK/src/tensorflow_lite/third_party/gemmlowp/fixedpoint\fixedpoint.h **** // The purpose of these primitives is two-fold:
  38:C:/Renesas/e2studio_2021_01_workspace_RZA2M_ANPR/ANPR_RZA2M_EBK/src/tensorflow_lite/third_party/gemmlowp/fixedpoint\fixedpoint.h **** //  - They will be used to implement higher-level fixed-point
  39:C:/Renesas/e2studio_2021_01_workspace_RZA2M_ANPR/ANPR_RZA2M_EBK/src/tensorflow_lite/third_party/gemmlowp/fixedpoint\fixedpoint.h **** //    abstractions, namely the FixedPoint class and its arithmetic
  40:C:/Renesas/e2studio_2021_01_workspace_RZA2M_ANPR/ANPR_RZA2M_EBK/src/tensorflow_lite/third_party/gemmlowp/fixedpoint\fixedpoint.h **** //    operators.
  41:C:/Renesas/e2studio_2021_01_workspace_RZA2M_ANPR/ANPR_RZA2M_EBK/src/tensorflow_lite/third_party/gemmlowp/fixedpoint\fixedpoint.h **** //  - They will be directly used to implement some more involved
  42:C:/Renesas/e2studio_2021_01_workspace_RZA2M_ANPR/ANPR_RZA2M_EBK/src/tensorflow_lite/third_party/gemmlowp/fixedpoint\fixedpoint.h **** //    fixed-point computations, e.g. the fixed-point implementation
  43:C:/Renesas/e2studio_2021_01_workspace_RZA2M_ANPR/ANPR_RZA2M_EBK/src/tensorflow_lite/third_party/gemmlowp/fixedpoint\fixedpoint.h **** //    of math functions such as tanh.
  44:C:/Renesas/e2studio_2021_01_workspace_RZA2M_ANPR/ANPR_RZA2M_EBK/src/tensorflow_lite/third_party/gemmlowp/fixedpoint\fixedpoint.h **** 
  45:C:/Renesas/e2studio_2021_01_workspace_RZA2M_ANPR/ANPR_RZA2M_EBK/src/tensorflow_lite/third_party/gemmlowp/fixedpoint\fixedpoint.h **** // Some compile-time traits around raw types to handle SIMD aspects:
  46:C:/Renesas/e2studio_2021_01_workspace_RZA2M_ANPR/ANPR_RZA2M_EBK/src/tensorflow_lite/third_party/gemmlowp/fixedpoint\fixedpoint.h **** // number of lanes, underlying scalar type.
  47:C:/Renesas/e2studio_2021_01_workspace_RZA2M_ANPR/ANPR_RZA2M_EBK/src/tensorflow_lite/third_party/gemmlowp/fixedpoint\fixedpoint.h **** template <typename tIntegerType>
  48:C:/Renesas/e2studio_2021_01_workspace_RZA2M_ANPR/ANPR_RZA2M_EBK/src/tensorflow_lite/third_party/gemmlowp/fixedpoint\fixedpoint.h **** struct FixedPointRawTypeTraits {};
  49:C:/Renesas/e2studio_2021_01_workspace_RZA2M_ANPR/ANPR_RZA2M_EBK/src/tensorflow_lite/third_party/gemmlowp/fixedpoint\fixedpoint.h **** 
  50:C:/Renesas/e2studio_2021_01_workspace_RZA2M_ANPR/ANPR_RZA2M_EBK/src/tensorflow_lite/third_party/gemmlowp/fixedpoint\fixedpoint.h **** template <>
  51:C:/Renesas/e2studio_2021_01_workspace_RZA2M_ANPR/ANPR_RZA2M_EBK/src/tensorflow_lite/third_party/gemmlowp/fixedpoint\fixedpoint.h **** struct FixedPointRawTypeTraits<std::int32_t> {
  52:C:/Renesas/e2studio_2021_01_workspace_RZA2M_ANPR/ANPR_RZA2M_EBK/src/tensorflow_lite/third_party/gemmlowp/fixedpoint\fixedpoint.h ****   typedef std::int32_t ScalarRawType;
  53:C:/Renesas/e2studio_2021_01_workspace_RZA2M_ANPR/ANPR_RZA2M_EBK/src/tensorflow_lite/third_party/gemmlowp/fixedpoint\fixedpoint.h ****   static constexpr int kLanes = 1;
  54:C:/Renesas/e2studio_2021_01_workspace_RZA2M_ANPR/ANPR_RZA2M_EBK/src/tensorflow_lite/third_party/gemmlowp/fixedpoint\fixedpoint.h **** };
  55:C:/Renesas/e2studio_2021_01_workspace_RZA2M_ANPR/ANPR_RZA2M_EBK/src/tensorflow_lite/third_party/gemmlowp/fixedpoint\fixedpoint.h **** 
  56:C:/Renesas/e2studio_2021_01_workspace_RZA2M_ANPR/ANPR_RZA2M_EBK/src/tensorflow_lite/third_party/gemmlowp/fixedpoint\fixedpoint.h **** template <>
  57:C:/Renesas/e2studio_2021_01_workspace_RZA2M_ANPR/ANPR_RZA2M_EBK/src/tensorflow_lite/third_party/gemmlowp/fixedpoint\fixedpoint.h **** struct FixedPointRawTypeTraits<std::int16_t> {
  58:C:/Renesas/e2studio_2021_01_workspace_RZA2M_ANPR/ANPR_RZA2M_EBK/src/tensorflow_lite/third_party/gemmlowp/fixedpoint\fixedpoint.h ****   typedef std::int16_t ScalarRawType;
  59:C:/Renesas/e2studio_2021_01_workspace_RZA2M_ANPR/ANPR_RZA2M_EBK/src/tensorflow_lite/third_party/gemmlowp/fixedpoint\fixedpoint.h ****   static constexpr int kLanes = 1;
  60:C:/Renesas/e2studio_2021_01_workspace_RZA2M_ANPR/ANPR_RZA2M_EBK/src/tensorflow_lite/third_party/gemmlowp/fixedpoint\fixedpoint.h **** };
  61:C:/Renesas/e2studio_2021_01_workspace_RZA2M_ANPR/ANPR_RZA2M_EBK/src/tensorflow_lite/third_party/gemmlowp/fixedpoint\fixedpoint.h **** 
  62:C:/Renesas/e2studio_2021_01_workspace_RZA2M_ANPR/ANPR_RZA2M_EBK/src/tensorflow_lite/third_party/gemmlowp/fixedpoint\fixedpoint.h **** // Returns a SIMD value duplicating a scalar value across all lanes.
  63:C:/Renesas/e2studio_2021_01_workspace_RZA2M_ANPR/ANPR_RZA2M_EBK/src/tensorflow_lite/third_party/gemmlowp/fixedpoint\fixedpoint.h **** template <typename tRawType>
  64:C:/Renesas/e2studio_2021_01_workspace_RZA2M_ANPR/ANPR_RZA2M_EBK/src/tensorflow_lite/third_party/gemmlowp/fixedpoint\fixedpoint.h **** tRawType Dup(typename FixedPointRawTypeTraits<tRawType>::ScalarRawType x) {
  65:C:/Renesas/e2studio_2021_01_workspace_RZA2M_ANPR/ANPR_RZA2M_EBK/src/tensorflow_lite/third_party/gemmlowp/fixedpoint\fixedpoint.h ****   return x;
  66:C:/Renesas/e2studio_2021_01_workspace_RZA2M_ANPR/ANPR_RZA2M_EBK/src/tensorflow_lite/third_party/gemmlowp/fixedpoint\fixedpoint.h **** }
  67:C:/Renesas/e2studio_2021_01_workspace_RZA2M_ANPR/ANPR_RZA2M_EBK/src/tensorflow_lite/third_party/gemmlowp/fixedpoint\fixedpoint.h **** 
  68:C:/Renesas/e2studio_2021_01_workspace_RZA2M_ANPR/ANPR_RZA2M_EBK/src/tensorflow_lite/third_party/gemmlowp/fixedpoint\fixedpoint.h **** // Plain bit-wise AND
  69:C:/Renesas/e2studio_2021_01_workspace_RZA2M_ANPR/ANPR_RZA2M_EBK/src/tensorflow_lite/third_party/gemmlowp/fixedpoint\fixedpoint.h **** template <typename tIntegerType>
  70:C:/Renesas/e2studio_2021_01_workspace_RZA2M_ANPR/ANPR_RZA2M_EBK/src/tensorflow_lite/third_party/gemmlowp/fixedpoint\fixedpoint.h **** tIntegerType BitAnd(tIntegerType a, tIntegerType b) {
  71:C:/Renesas/e2studio_2021_01_workspace_RZA2M_ANPR/ANPR_RZA2M_EBK/src/tensorflow_lite/third_party/gemmlowp/fixedpoint\fixedpoint.h ****   return a & b;
  72:C:/Renesas/e2studio_2021_01_workspace_RZA2M_ANPR/ANPR_RZA2M_EBK/src/tensorflow_lite/third_party/gemmlowp/fixedpoint\fixedpoint.h **** }
  73:C:/Renesas/e2studio_2021_01_workspace_RZA2M_ANPR/ANPR_RZA2M_EBK/src/tensorflow_lite/third_party/gemmlowp/fixedpoint\fixedpoint.h **** 
  74:C:/Renesas/e2studio_2021_01_workspace_RZA2M_ANPR/ANPR_RZA2M_EBK/src/tensorflow_lite/third_party/gemmlowp/fixedpoint\fixedpoint.h **** // Plain bit-wise OR
  75:C:/Renesas/e2studio_2021_01_workspace_RZA2M_ANPR/ANPR_RZA2M_EBK/src/tensorflow_lite/third_party/gemmlowp/fixedpoint\fixedpoint.h **** template <typename tIntegerType>
  76:C:/Renesas/e2studio_2021_01_workspace_RZA2M_ANPR/ANPR_RZA2M_EBK/src/tensorflow_lite/third_party/gemmlowp/fixedpoint\fixedpoint.h **** tIntegerType BitOr(tIntegerType a, tIntegerType b) {
  77:C:/Renesas/e2studio_2021_01_workspace_RZA2M_ANPR/ANPR_RZA2M_EBK/src/tensorflow_lite/third_party/gemmlowp/fixedpoint\fixedpoint.h ****   return a | b;
  78:C:/Renesas/e2studio_2021_01_workspace_RZA2M_ANPR/ANPR_RZA2M_EBK/src/tensorflow_lite/third_party/gemmlowp/fixedpoint\fixedpoint.h **** }
  79:C:/Renesas/e2studio_2021_01_workspace_RZA2M_ANPR/ANPR_RZA2M_EBK/src/tensorflow_lite/third_party/gemmlowp/fixedpoint\fixedpoint.h **** 
  80:C:/Renesas/e2studio_2021_01_workspace_RZA2M_ANPR/ANPR_RZA2M_EBK/src/tensorflow_lite/third_party/gemmlowp/fixedpoint\fixedpoint.h **** // Plain bit-wise XOR
  81:C:/Renesas/e2studio_2021_01_workspace_RZA2M_ANPR/ANPR_RZA2M_EBK/src/tensorflow_lite/third_party/gemmlowp/fixedpoint\fixedpoint.h **** template <typename tIntegerType>
  82:C:/Renesas/e2studio_2021_01_workspace_RZA2M_ANPR/ANPR_RZA2M_EBK/src/tensorflow_lite/third_party/gemmlowp/fixedpoint\fixedpoint.h **** tIntegerType BitXor(tIntegerType a, tIntegerType b) {
  83:C:/Renesas/e2studio_2021_01_workspace_RZA2M_ANPR/ANPR_RZA2M_EBK/src/tensorflow_lite/third_party/gemmlowp/fixedpoint\fixedpoint.h ****   return a ^ b;
  84:C:/Renesas/e2studio_2021_01_workspace_RZA2M_ANPR/ANPR_RZA2M_EBK/src/tensorflow_lite/third_party/gemmlowp/fixedpoint\fixedpoint.h **** }
  85:C:/Renesas/e2studio_2021_01_workspace_RZA2M_ANPR/ANPR_RZA2M_EBK/src/tensorflow_lite/third_party/gemmlowp/fixedpoint\fixedpoint.h **** 
  86:C:/Renesas/e2studio_2021_01_workspace_RZA2M_ANPR/ANPR_RZA2M_EBK/src/tensorflow_lite/third_party/gemmlowp/fixedpoint\fixedpoint.h **** // Plain bit-wise NOT
  87:C:/Renesas/e2studio_2021_01_workspace_RZA2M_ANPR/ANPR_RZA2M_EBK/src/tensorflow_lite/third_party/gemmlowp/fixedpoint\fixedpoint.h **** template <typename tIntegerType>
  88:C:/Renesas/e2studio_2021_01_workspace_RZA2M_ANPR/ANPR_RZA2M_EBK/src/tensorflow_lite/third_party/gemmlowp/fixedpoint\fixedpoint.h **** tIntegerType BitNot(tIntegerType a) {
  89:C:/Renesas/e2studio_2021_01_workspace_RZA2M_ANPR/ANPR_RZA2M_EBK/src/tensorflow_lite/third_party/gemmlowp/fixedpoint\fixedpoint.h ****   return ~a;
  90:C:/Renesas/e2studio_2021_01_workspace_RZA2M_ANPR/ANPR_RZA2M_EBK/src/tensorflow_lite/third_party/gemmlowp/fixedpoint\fixedpoint.h **** }
  91:C:/Renesas/e2studio_2021_01_workspace_RZA2M_ANPR/ANPR_RZA2M_EBK/src/tensorflow_lite/third_party/gemmlowp/fixedpoint\fixedpoint.h **** 
  92:C:/Renesas/e2studio_2021_01_workspace_RZA2M_ANPR/ANPR_RZA2M_EBK/src/tensorflow_lite/third_party/gemmlowp/fixedpoint\fixedpoint.h **** // Integer addition. Not saturating. Overflow is undefined behavior.
  93:C:/Renesas/e2studio_2021_01_workspace_RZA2M_ANPR/ANPR_RZA2M_EBK/src/tensorflow_lite/third_party/gemmlowp/fixedpoint\fixedpoint.h **** template <typename tIntegerType>
  94:C:/Renesas/e2studio_2021_01_workspace_RZA2M_ANPR/ANPR_RZA2M_EBK/src/tensorflow_lite/third_party/gemmlowp/fixedpoint\fixedpoint.h **** tIntegerType Add(tIntegerType a, tIntegerType b) {
  95:C:/Renesas/e2studio_2021_01_workspace_RZA2M_ANPR/ANPR_RZA2M_EBK/src/tensorflow_lite/third_party/gemmlowp/fixedpoint\fixedpoint.h ****   return a + b;
  96:C:/Renesas/e2studio_2021_01_workspace_RZA2M_ANPR/ANPR_RZA2M_EBK/src/tensorflow_lite/third_party/gemmlowp/fixedpoint\fixedpoint.h **** }
  97:C:/Renesas/e2studio_2021_01_workspace_RZA2M_ANPR/ANPR_RZA2M_EBK/src/tensorflow_lite/third_party/gemmlowp/fixedpoint\fixedpoint.h **** 
  98:C:/Renesas/e2studio_2021_01_workspace_RZA2M_ANPR/ANPR_RZA2M_EBK/src/tensorflow_lite/third_party/gemmlowp/fixedpoint\fixedpoint.h **** // Integer subtraction. Not saturating. Overflow is undefined behavior.
  99:C:/Renesas/e2studio_2021_01_workspace_RZA2M_ANPR/ANPR_RZA2M_EBK/src/tensorflow_lite/third_party/gemmlowp/fixedpoint\fixedpoint.h **** template <typename tIntegerType>
 100:C:/Renesas/e2studio_2021_01_workspace_RZA2M_ANPR/ANPR_RZA2M_EBK/src/tensorflow_lite/third_party/gemmlowp/fixedpoint\fixedpoint.h **** tIntegerType Mul(tIntegerType a, tIntegerType b) {
 101:C:/Renesas/e2studio_2021_01_workspace_RZA2M_ANPR/ANPR_RZA2M_EBK/src/tensorflow_lite/third_party/gemmlowp/fixedpoint\fixedpoint.h ****   return a * b;
 102:C:/Renesas/e2studio_2021_01_workspace_RZA2M_ANPR/ANPR_RZA2M_EBK/src/tensorflow_lite/third_party/gemmlowp/fixedpoint\fixedpoint.h **** }
 103:C:/Renesas/e2studio_2021_01_workspace_RZA2M_ANPR/ANPR_RZA2M_EBK/src/tensorflow_lite/third_party/gemmlowp/fixedpoint\fixedpoint.h **** 
 104:C:/Renesas/e2studio_2021_01_workspace_RZA2M_ANPR/ANPR_RZA2M_EBK/src/tensorflow_lite/third_party/gemmlowp/fixedpoint\fixedpoint.h **** template <typename tIntegerType>
 105:C:/Renesas/e2studio_2021_01_workspace_RZA2M_ANPR/ANPR_RZA2M_EBK/src/tensorflow_lite/third_party/gemmlowp/fixedpoint\fixedpoint.h **** tIntegerType Sub(tIntegerType a, tIntegerType b) {
 106:C:/Renesas/e2studio_2021_01_workspace_RZA2M_ANPR/ANPR_RZA2M_EBK/src/tensorflow_lite/third_party/gemmlowp/fixedpoint\fixedpoint.h ****   return a - b;
 107:C:/Renesas/e2studio_2021_01_workspace_RZA2M_ANPR/ANPR_RZA2M_EBK/src/tensorflow_lite/third_party/gemmlowp/fixedpoint\fixedpoint.h **** }
 108:C:/Renesas/e2studio_2021_01_workspace_RZA2M_ANPR/ANPR_RZA2M_EBK/src/tensorflow_lite/third_party/gemmlowp/fixedpoint\fixedpoint.h **** 
 109:C:/Renesas/e2studio_2021_01_workspace_RZA2M_ANPR/ANPR_RZA2M_EBK/src/tensorflow_lite/third_party/gemmlowp/fixedpoint\fixedpoint.h **** // Integer unary negative. Not saturating. Overflow is undefined behavior.
 110:C:/Renesas/e2studio_2021_01_workspace_RZA2M_ANPR/ANPR_RZA2M_EBK/src/tensorflow_lite/third_party/gemmlowp/fixedpoint\fixedpoint.h **** template <typename tIntegerType>
 111:C:/Renesas/e2studio_2021_01_workspace_RZA2M_ANPR/ANPR_RZA2M_EBK/src/tensorflow_lite/third_party/gemmlowp/fixedpoint\fixedpoint.h **** tIntegerType Neg(tIntegerType a) {
 112:C:/Renesas/e2studio_2021_01_workspace_RZA2M_ANPR/ANPR_RZA2M_EBK/src/tensorflow_lite/third_party/gemmlowp/fixedpoint\fixedpoint.h ****   return -a;
 113:C:/Renesas/e2studio_2021_01_workspace_RZA2M_ANPR/ANPR_RZA2M_EBK/src/tensorflow_lite/third_party/gemmlowp/fixedpoint\fixedpoint.h **** }
 114:C:/Renesas/e2studio_2021_01_workspace_RZA2M_ANPR/ANPR_RZA2M_EBK/src/tensorflow_lite/third_party/gemmlowp/fixedpoint\fixedpoint.h **** 
 115:C:/Renesas/e2studio_2021_01_workspace_RZA2M_ANPR/ANPR_RZA2M_EBK/src/tensorflow_lite/third_party/gemmlowp/fixedpoint\fixedpoint.h **** // Integer arithmetic left-shift, equivalent to multiplying with a power of two.
 116:C:/Renesas/e2studio_2021_01_workspace_RZA2M_ANPR/ANPR_RZA2M_EBK/src/tensorflow_lite/third_party/gemmlowp/fixedpoint\fixedpoint.h **** // Negative values are OK. In case of overflow, no Undefined
 117:C:/Renesas/e2studio_2021_01_workspace_RZA2M_ANPR/ANPR_RZA2M_EBK/src/tensorflow_lite/third_party/gemmlowp/fixedpoint\fixedpoint.h **** // Behavior, but the results are implementation-defined (in practice,
 118:C:/Renesas/e2studio_2021_01_workspace_RZA2M_ANPR/ANPR_RZA2M_EBK/src/tensorflow_lite/third_party/gemmlowp/fixedpoint\fixedpoint.h **** // they currently are saturated, but we make no commitment to that). The idea
 119:C:/Renesas/e2studio_2021_01_workspace_RZA2M_ANPR/ANPR_RZA2M_EBK/src/tensorflow_lite/third_party/gemmlowp/fixedpoint\fixedpoint.h **** // is that the caller will want to implement the overflowing cases with
 120:C:/Renesas/e2studio_2021_01_workspace_RZA2M_ANPR/ANPR_RZA2M_EBK/src/tensorflow_lite/third_party/gemmlowp/fixedpoint\fixedpoint.h **** // saturation with compare-and-mask, so we don't care about the results
 121:C:/Renesas/e2studio_2021_01_workspace_RZA2M_ANPR/ANPR_RZA2M_EBK/src/tensorflow_lite/third_party/gemmlowp/fixedpoint\fixedpoint.h **** // in the overflow case, we just want to avoid undefined behavior.
 122:C:/Renesas/e2studio_2021_01_workspace_RZA2M_ANPR/ANPR_RZA2M_EBK/src/tensorflow_lite/third_party/gemmlowp/fixedpoint\fixedpoint.h **** //
 123:C:/Renesas/e2studio_2021_01_workspace_RZA2M_ANPR/ANPR_RZA2M_EBK/src/tensorflow_lite/third_party/gemmlowp/fixedpoint\fixedpoint.h **** // tIntegerType may be int32 or any narrower signed type.
 124:C:/Renesas/e2studio_2021_01_workspace_RZA2M_ANPR/ANPR_RZA2M_EBK/src/tensorflow_lite/third_party/gemmlowp/fixedpoint\fixedpoint.h **** template <typename tIntegerType>
 125:C:/Renesas/e2studio_2021_01_workspace_RZA2M_ANPR/ANPR_RZA2M_EBK/src/tensorflow_lite/third_party/gemmlowp/fixedpoint\fixedpoint.h **** tIntegerType ShiftLeft(tIntegerType a, int offset) {
 126:C:/Renesas/e2studio_2021_01_workspace_RZA2M_ANPR/ANPR_RZA2M_EBK/src/tensorflow_lite/third_party/gemmlowp/fixedpoint\fixedpoint.h ****   const std::int64_t wide_a = static_cast<std::int64_t>(a);
 127:C:/Renesas/e2studio_2021_01_workspace_RZA2M_ANPR/ANPR_RZA2M_EBK/src/tensorflow_lite/third_party/gemmlowp/fixedpoint\fixedpoint.h ****   const std::int64_t wide_shifted = wide_a * (1 << offset);
 128:C:/Renesas/e2studio_2021_01_workspace_RZA2M_ANPR/ANPR_RZA2M_EBK/src/tensorflow_lite/third_party/gemmlowp/fixedpoint\fixedpoint.h ****   const auto min = std::numeric_limits<tIntegerType>::min();
 129:C:/Renesas/e2studio_2021_01_workspace_RZA2M_ANPR/ANPR_RZA2M_EBK/src/tensorflow_lite/third_party/gemmlowp/fixedpoint\fixedpoint.h ****   const auto max = std::numeric_limits<tIntegerType>::max();
 130:C:/Renesas/e2studio_2021_01_workspace_RZA2M_ANPR/ANPR_RZA2M_EBK/src/tensorflow_lite/third_party/gemmlowp/fixedpoint\fixedpoint.h ****   return wide_shifted < min
 131:C:/Renesas/e2studio_2021_01_workspace_RZA2M_ANPR/ANPR_RZA2M_EBK/src/tensorflow_lite/third_party/gemmlowp/fixedpoint\fixedpoint.h ****              ? min
 132:C:/Renesas/e2studio_2021_01_workspace_RZA2M_ANPR/ANPR_RZA2M_EBK/src/tensorflow_lite/third_party/gemmlowp/fixedpoint\fixedpoint.h ****              : wide_shifted > max ? max
 133:C:/Renesas/e2studio_2021_01_workspace_RZA2M_ANPR/ANPR_RZA2M_EBK/src/tensorflow_lite/third_party/gemmlowp/fixedpoint\fixedpoint.h ****                                   : static_cast<tIntegerType>(wide_shifted);
 134:C:/Renesas/e2studio_2021_01_workspace_RZA2M_ANPR/ANPR_RZA2M_EBK/src/tensorflow_lite/third_party/gemmlowp/fixedpoint\fixedpoint.h **** }
 135:C:/Renesas/e2studio_2021_01_workspace_RZA2M_ANPR/ANPR_RZA2M_EBK/src/tensorflow_lite/third_party/gemmlowp/fixedpoint\fixedpoint.h **** 
 136:C:/Renesas/e2studio_2021_01_workspace_RZA2M_ANPR/ANPR_RZA2M_EBK/src/tensorflow_lite/third_party/gemmlowp/fixedpoint\fixedpoint.h **** // Integer arithmetic right-shift. Not rounding.
 137:C:/Renesas/e2studio_2021_01_workspace_RZA2M_ANPR/ANPR_RZA2M_EBK/src/tensorflow_lite/third_party/gemmlowp/fixedpoint\fixedpoint.h **** // Relying on implementation-defined, but in-practice-consistent,
 138:C:/Renesas/e2studio_2021_01_workspace_RZA2M_ANPR/ANPR_RZA2M_EBK/src/tensorflow_lite/third_party/gemmlowp/fixedpoint\fixedpoint.h **** // C++ compiler behavior.
 139:C:/Renesas/e2studio_2021_01_workspace_RZA2M_ANPR/ANPR_RZA2M_EBK/src/tensorflow_lite/third_party/gemmlowp/fixedpoint\fixedpoint.h **** template <typename tIntegerType>
 140:C:/Renesas/e2studio_2021_01_workspace_RZA2M_ANPR/ANPR_RZA2M_EBK/src/tensorflow_lite/third_party/gemmlowp/fixedpoint\fixedpoint.h **** tIntegerType ShiftRight(tIntegerType a, int offset) {
 141:C:/Renesas/e2studio_2021_01_workspace_RZA2M_ANPR/ANPR_RZA2M_EBK/src/tensorflow_lite/third_party/gemmlowp/fixedpoint\fixedpoint.h ****   return a >> offset;
 142:C:/Renesas/e2studio_2021_01_workspace_RZA2M_ANPR/ANPR_RZA2M_EBK/src/tensorflow_lite/third_party/gemmlowp/fixedpoint\fixedpoint.h **** }
 143:C:/Renesas/e2studio_2021_01_workspace_RZA2M_ANPR/ANPR_RZA2M_EBK/src/tensorflow_lite/third_party/gemmlowp/fixedpoint\fixedpoint.h **** 
 144:C:/Renesas/e2studio_2021_01_workspace_RZA2M_ANPR/ANPR_RZA2M_EBK/src/tensorflow_lite/third_party/gemmlowp/fixedpoint\fixedpoint.h **** // Each bit of the result is set to the corresponding bit of either then_val or
 145:C:/Renesas/e2studio_2021_01_workspace_RZA2M_ANPR/ANPR_RZA2M_EBK/src/tensorflow_lite/third_party/gemmlowp/fixedpoint\fixedpoint.h **** // else_val depending on whether the corresponding bit of if_mask is set.
 146:C:/Renesas/e2studio_2021_01_workspace_RZA2M_ANPR/ANPR_RZA2M_EBK/src/tensorflow_lite/third_party/gemmlowp/fixedpoint\fixedpoint.h **** // Equivalent to the VBSL instruction in ARM NEON.
 147:C:/Renesas/e2studio_2021_01_workspace_RZA2M_ANPR/ANPR_RZA2M_EBK/src/tensorflow_lite/third_party/gemmlowp/fixedpoint\fixedpoint.h **** template <typename tIntegerType>
 148:C:/Renesas/e2studio_2021_01_workspace_RZA2M_ANPR/ANPR_RZA2M_EBK/src/tensorflow_lite/third_party/gemmlowp/fixedpoint\fixedpoint.h **** tIntegerType SelectUsingMask(tIntegerType if_mask, tIntegerType then_val,
 149:C:/Renesas/e2studio_2021_01_workspace_RZA2M_ANPR/ANPR_RZA2M_EBK/src/tensorflow_lite/third_party/gemmlowp/fixedpoint\fixedpoint.h ****                              tIntegerType else_val) {
 150:C:/Renesas/e2studio_2021_01_workspace_RZA2M_ANPR/ANPR_RZA2M_EBK/src/tensorflow_lite/third_party/gemmlowp/fixedpoint\fixedpoint.h ****   return BitXor(BitAnd(if_mask, then_val), BitAnd(BitNot(if_mask), else_val));
 151:C:/Renesas/e2studio_2021_01_workspace_RZA2M_ANPR/ANPR_RZA2M_EBK/src/tensorflow_lite/third_party/gemmlowp/fixedpoint\fixedpoint.h **** }
 152:C:/Renesas/e2studio_2021_01_workspace_RZA2M_ANPR/ANPR_RZA2M_EBK/src/tensorflow_lite/third_party/gemmlowp/fixedpoint\fixedpoint.h **** 
 153:C:/Renesas/e2studio_2021_01_workspace_RZA2M_ANPR/ANPR_RZA2M_EBK/src/tensorflow_lite/third_party/gemmlowp/fixedpoint\fixedpoint.h **** // For each input scalar, the corresponding bits of the result are set if the
 154:C:/Renesas/e2studio_2021_01_workspace_RZA2M_ANPR/ANPR_RZA2M_EBK/src/tensorflow_lite/third_party/gemmlowp/fixedpoint\fixedpoint.h **** // input scalar is non-zero.
 155:C:/Renesas/e2studio_2021_01_workspace_RZA2M_ANPR/ANPR_RZA2M_EBK/src/tensorflow_lite/third_party/gemmlowp/fixedpoint\fixedpoint.h **** template <typename tIntegerType>
 156:C:/Renesas/e2studio_2021_01_workspace_RZA2M_ANPR/ANPR_RZA2M_EBK/src/tensorflow_lite/third_party/gemmlowp/fixedpoint\fixedpoint.h **** tIntegerType MaskIfNonZero(tIntegerType a) {
 157:C:/Renesas/e2studio_2021_01_workspace_RZA2M_ANPR/ANPR_RZA2M_EBK/src/tensorflow_lite/third_party/gemmlowp/fixedpoint\fixedpoint.h ****   static constexpr tIntegerType zero = 0;
 158:C:/Renesas/e2studio_2021_01_workspace_RZA2M_ANPR/ANPR_RZA2M_EBK/src/tensorflow_lite/third_party/gemmlowp/fixedpoint\fixedpoint.h ****   return a ? BitNot(zero) : zero;
 159:C:/Renesas/e2studio_2021_01_workspace_RZA2M_ANPR/ANPR_RZA2M_EBK/src/tensorflow_lite/third_party/gemmlowp/fixedpoint\fixedpoint.h **** }
 160:C:/Renesas/e2studio_2021_01_workspace_RZA2M_ANPR/ANPR_RZA2M_EBK/src/tensorflow_lite/third_party/gemmlowp/fixedpoint\fixedpoint.h **** 
 161:C:/Renesas/e2studio_2021_01_workspace_RZA2M_ANPR/ANPR_RZA2M_EBK/src/tensorflow_lite/third_party/gemmlowp/fixedpoint\fixedpoint.h **** // For each input scalar, the corresponding bits of the result are set if the
 162:C:/Renesas/e2studio_2021_01_workspace_RZA2M_ANPR/ANPR_RZA2M_EBK/src/tensorflow_lite/third_party/gemmlowp/fixedpoint\fixedpoint.h **** // input scalar is zero.
 163:C:/Renesas/e2studio_2021_01_workspace_RZA2M_ANPR/ANPR_RZA2M_EBK/src/tensorflow_lite/third_party/gemmlowp/fixedpoint\fixedpoint.h **** template <typename tIntegerType>
 164:C:/Renesas/e2studio_2021_01_workspace_RZA2M_ANPR/ANPR_RZA2M_EBK/src/tensorflow_lite/third_party/gemmlowp/fixedpoint\fixedpoint.h **** tIntegerType MaskIfZero(tIntegerType a) {
 165:C:/Renesas/e2studio_2021_01_workspace_RZA2M_ANPR/ANPR_RZA2M_EBK/src/tensorflow_lite/third_party/gemmlowp/fixedpoint\fixedpoint.h ****   return MaskIfNonZero<tIntegerType>(!a);
 166:C:/Renesas/e2studio_2021_01_workspace_RZA2M_ANPR/ANPR_RZA2M_EBK/src/tensorflow_lite/third_party/gemmlowp/fixedpoint\fixedpoint.h **** }
 167:C:/Renesas/e2studio_2021_01_workspace_RZA2M_ANPR/ANPR_RZA2M_EBK/src/tensorflow_lite/third_party/gemmlowp/fixedpoint\fixedpoint.h **** 
 168:C:/Renesas/e2studio_2021_01_workspace_RZA2M_ANPR/ANPR_RZA2M_EBK/src/tensorflow_lite/third_party/gemmlowp/fixedpoint\fixedpoint.h **** // For each pair of input scalars, the corresponding bits of the result are
 169:C:/Renesas/e2studio_2021_01_workspace_RZA2M_ANPR/ANPR_RZA2M_EBK/src/tensorflow_lite/third_party/gemmlowp/fixedpoint\fixedpoint.h **** // set if the input scalars are equal.
 170:C:/Renesas/e2studio_2021_01_workspace_RZA2M_ANPR/ANPR_RZA2M_EBK/src/tensorflow_lite/third_party/gemmlowp/fixedpoint\fixedpoint.h **** template <typename tIntegerType>
 171:C:/Renesas/e2studio_2021_01_workspace_RZA2M_ANPR/ANPR_RZA2M_EBK/src/tensorflow_lite/third_party/gemmlowp/fixedpoint\fixedpoint.h **** tIntegerType MaskIfEqual(tIntegerType a, tIntegerType b) {
 172:C:/Renesas/e2studio_2021_01_workspace_RZA2M_ANPR/ANPR_RZA2M_EBK/src/tensorflow_lite/third_party/gemmlowp/fixedpoint\fixedpoint.h ****   return MaskIfNonZero<tIntegerType>(a == b);
 173:C:/Renesas/e2studio_2021_01_workspace_RZA2M_ANPR/ANPR_RZA2M_EBK/src/tensorflow_lite/third_party/gemmlowp/fixedpoint\fixedpoint.h **** }
 174:C:/Renesas/e2studio_2021_01_workspace_RZA2M_ANPR/ANPR_RZA2M_EBK/src/tensorflow_lite/third_party/gemmlowp/fixedpoint\fixedpoint.h **** 
 175:C:/Renesas/e2studio_2021_01_workspace_RZA2M_ANPR/ANPR_RZA2M_EBK/src/tensorflow_lite/third_party/gemmlowp/fixedpoint\fixedpoint.h **** // For each pair of input scalars, the corresponding bits of the result are
 176:C:/Renesas/e2studio_2021_01_workspace_RZA2M_ANPR/ANPR_RZA2M_EBK/src/tensorflow_lite/third_party/gemmlowp/fixedpoint\fixedpoint.h **** // set if the input scalars are not equal.
 177:C:/Renesas/e2studio_2021_01_workspace_RZA2M_ANPR/ANPR_RZA2M_EBK/src/tensorflow_lite/third_party/gemmlowp/fixedpoint\fixedpoint.h **** template <typename tIntegerType>
 178:C:/Renesas/e2studio_2021_01_workspace_RZA2M_ANPR/ANPR_RZA2M_EBK/src/tensorflow_lite/third_party/gemmlowp/fixedpoint\fixedpoint.h **** tIntegerType MaskIfNotEqual(tIntegerType a, tIntegerType b) {
 179:C:/Renesas/e2studio_2021_01_workspace_RZA2M_ANPR/ANPR_RZA2M_EBK/src/tensorflow_lite/third_party/gemmlowp/fixedpoint\fixedpoint.h ****   return MaskIfNonZero<tIntegerType>(a != b);
 180:C:/Renesas/e2studio_2021_01_workspace_RZA2M_ANPR/ANPR_RZA2M_EBK/src/tensorflow_lite/third_party/gemmlowp/fixedpoint\fixedpoint.h **** }
 181:C:/Renesas/e2studio_2021_01_workspace_RZA2M_ANPR/ANPR_RZA2M_EBK/src/tensorflow_lite/third_party/gemmlowp/fixedpoint\fixedpoint.h **** 
 182:C:/Renesas/e2studio_2021_01_workspace_RZA2M_ANPR/ANPR_RZA2M_EBK/src/tensorflow_lite/third_party/gemmlowp/fixedpoint\fixedpoint.h **** // For each pair of input scalars, the corresponding bits of the result are
 183:C:/Renesas/e2studio_2021_01_workspace_RZA2M_ANPR/ANPR_RZA2M_EBK/src/tensorflow_lite/third_party/gemmlowp/fixedpoint\fixedpoint.h **** // set if the input scalars a, b satisfy a > b.
 184:C:/Renesas/e2studio_2021_01_workspace_RZA2M_ANPR/ANPR_RZA2M_EBK/src/tensorflow_lite/third_party/gemmlowp/fixedpoint\fixedpoint.h **** template <typename tIntegerType>
 185:C:/Renesas/e2studio_2021_01_workspace_RZA2M_ANPR/ANPR_RZA2M_EBK/src/tensorflow_lite/third_party/gemmlowp/fixedpoint\fixedpoint.h **** tIntegerType MaskIfGreaterThan(tIntegerType a, tIntegerType b) {
 186:C:/Renesas/e2studio_2021_01_workspace_RZA2M_ANPR/ANPR_RZA2M_EBK/src/tensorflow_lite/third_party/gemmlowp/fixedpoint\fixedpoint.h ****   return MaskIfNonZero<tIntegerType>(a > b);
 187:C:/Renesas/e2studio_2021_01_workspace_RZA2M_ANPR/ANPR_RZA2M_EBK/src/tensorflow_lite/third_party/gemmlowp/fixedpoint\fixedpoint.h **** }
 188:C:/Renesas/e2studio_2021_01_workspace_RZA2M_ANPR/ANPR_RZA2M_EBK/src/tensorflow_lite/third_party/gemmlowp/fixedpoint\fixedpoint.h **** 
 189:C:/Renesas/e2studio_2021_01_workspace_RZA2M_ANPR/ANPR_RZA2M_EBK/src/tensorflow_lite/third_party/gemmlowp/fixedpoint\fixedpoint.h **** // For each pair of input scalars, the corresponding bits of the result are
 190:C:/Renesas/e2studio_2021_01_workspace_RZA2M_ANPR/ANPR_RZA2M_EBK/src/tensorflow_lite/third_party/gemmlowp/fixedpoint\fixedpoint.h **** // set if the input scalars a, b satisfy a >= b.
 191:C:/Renesas/e2studio_2021_01_workspace_RZA2M_ANPR/ANPR_RZA2M_EBK/src/tensorflow_lite/third_party/gemmlowp/fixedpoint\fixedpoint.h **** template <typename tIntegerType>
 192:C:/Renesas/e2studio_2021_01_workspace_RZA2M_ANPR/ANPR_RZA2M_EBK/src/tensorflow_lite/third_party/gemmlowp/fixedpoint\fixedpoint.h **** tIntegerType MaskIfGreaterThanOrEqual(tIntegerType a, tIntegerType b) {
 193:C:/Renesas/e2studio_2021_01_workspace_RZA2M_ANPR/ANPR_RZA2M_EBK/src/tensorflow_lite/third_party/gemmlowp/fixedpoint\fixedpoint.h ****   return MaskIfNonZero<tIntegerType>(a >= b);
 194:C:/Renesas/e2studio_2021_01_workspace_RZA2M_ANPR/ANPR_RZA2M_EBK/src/tensorflow_lite/third_party/gemmlowp/fixedpoint\fixedpoint.h **** }
 195:C:/Renesas/e2studio_2021_01_workspace_RZA2M_ANPR/ANPR_RZA2M_EBK/src/tensorflow_lite/third_party/gemmlowp/fixedpoint\fixedpoint.h **** 
 196:C:/Renesas/e2studio_2021_01_workspace_RZA2M_ANPR/ANPR_RZA2M_EBK/src/tensorflow_lite/third_party/gemmlowp/fixedpoint\fixedpoint.h **** // For each pair of input scalars, the corresponding bits of the result are
 197:C:/Renesas/e2studio_2021_01_workspace_RZA2M_ANPR/ANPR_RZA2M_EBK/src/tensorflow_lite/third_party/gemmlowp/fixedpoint\fixedpoint.h **** // set if the input scalars a, b satisfy a < b.
 198:C:/Renesas/e2studio_2021_01_workspace_RZA2M_ANPR/ANPR_RZA2M_EBK/src/tensorflow_lite/third_party/gemmlowp/fixedpoint\fixedpoint.h **** template <typename tIntegerType>
 199:C:/Renesas/e2studio_2021_01_workspace_RZA2M_ANPR/ANPR_RZA2M_EBK/src/tensorflow_lite/third_party/gemmlowp/fixedpoint\fixedpoint.h **** tIntegerType MaskIfLessThan(tIntegerType a, tIntegerType b) {
 200:C:/Renesas/e2studio_2021_01_workspace_RZA2M_ANPR/ANPR_RZA2M_EBK/src/tensorflow_lite/third_party/gemmlowp/fixedpoint\fixedpoint.h ****   return MaskIfNonZero<tIntegerType>(a < b);
 201:C:/Renesas/e2studio_2021_01_workspace_RZA2M_ANPR/ANPR_RZA2M_EBK/src/tensorflow_lite/third_party/gemmlowp/fixedpoint\fixedpoint.h **** }
 202:C:/Renesas/e2studio_2021_01_workspace_RZA2M_ANPR/ANPR_RZA2M_EBK/src/tensorflow_lite/third_party/gemmlowp/fixedpoint\fixedpoint.h **** 
 203:C:/Renesas/e2studio_2021_01_workspace_RZA2M_ANPR/ANPR_RZA2M_EBK/src/tensorflow_lite/third_party/gemmlowp/fixedpoint\fixedpoint.h **** // For each pair of input scalars, the corresponding bits of the result are
 204:C:/Renesas/e2studio_2021_01_workspace_RZA2M_ANPR/ANPR_RZA2M_EBK/src/tensorflow_lite/third_party/gemmlowp/fixedpoint\fixedpoint.h **** // set if the input scalars a, b satisfy a <= b.
 205:C:/Renesas/e2studio_2021_01_workspace_RZA2M_ANPR/ANPR_RZA2M_EBK/src/tensorflow_lite/third_party/gemmlowp/fixedpoint\fixedpoint.h **** template <typename tIntegerType>
 206:C:/Renesas/e2studio_2021_01_workspace_RZA2M_ANPR/ANPR_RZA2M_EBK/src/tensorflow_lite/third_party/gemmlowp/fixedpoint\fixedpoint.h **** tIntegerType MaskIfLessThanOrEqual(tIntegerType a, tIntegerType b) {
 207:C:/Renesas/e2studio_2021_01_workspace_RZA2M_ANPR/ANPR_RZA2M_EBK/src/tensorflow_lite/third_party/gemmlowp/fixedpoint\fixedpoint.h ****   return MaskIfNonZero<tIntegerType>(a <= b);
 208:C:/Renesas/e2studio_2021_01_workspace_RZA2M_ANPR/ANPR_RZA2M_EBK/src/tensorflow_lite/third_party/gemmlowp/fixedpoint\fixedpoint.h **** }
 209:C:/Renesas/e2studio_2021_01_workspace_RZA2M_ANPR/ANPR_RZA2M_EBK/src/tensorflow_lite/third_party/gemmlowp/fixedpoint\fixedpoint.h **** 
 210:C:/Renesas/e2studio_2021_01_workspace_RZA2M_ANPR/ANPR_RZA2M_EBK/src/tensorflow_lite/third_party/gemmlowp/fixedpoint\fixedpoint.h **** // Returns true if all of the input scalars are nonzero.
 211:C:/Renesas/e2studio_2021_01_workspace_RZA2M_ANPR/ANPR_RZA2M_EBK/src/tensorflow_lite/third_party/gemmlowp/fixedpoint\fixedpoint.h **** // This function may currently assume that each of the input scalars has either
 212:C:/Renesas/e2studio_2021_01_workspace_RZA2M_ANPR/ANPR_RZA2M_EBK/src/tensorflow_lite/third_party/gemmlowp/fixedpoint\fixedpoint.h **** // all or none of its bits set. Otherwise, its behavior is currently undefined.
 213:C:/Renesas/e2studio_2021_01_workspace_RZA2M_ANPR/ANPR_RZA2M_EBK/src/tensorflow_lite/third_party/gemmlowp/fixedpoint\fixedpoint.h **** template <typename tIntegerType>
 214:C:/Renesas/e2studio_2021_01_workspace_RZA2M_ANPR/ANPR_RZA2M_EBK/src/tensorflow_lite/third_party/gemmlowp/fixedpoint\fixedpoint.h **** bool All(tIntegerType a) {
 215:C:/Renesas/e2studio_2021_01_workspace_RZA2M_ANPR/ANPR_RZA2M_EBK/src/tensorflow_lite/third_party/gemmlowp/fixedpoint\fixedpoint.h ****   return a;
 216:C:/Renesas/e2studio_2021_01_workspace_RZA2M_ANPR/ANPR_RZA2M_EBK/src/tensorflow_lite/third_party/gemmlowp/fixedpoint\fixedpoint.h **** }
 217:C:/Renesas/e2studio_2021_01_workspace_RZA2M_ANPR/ANPR_RZA2M_EBK/src/tensorflow_lite/third_party/gemmlowp/fixedpoint\fixedpoint.h **** 
 218:C:/Renesas/e2studio_2021_01_workspace_RZA2M_ANPR/ANPR_RZA2M_EBK/src/tensorflow_lite/third_party/gemmlowp/fixedpoint\fixedpoint.h **** // Returns true if any of the input scalars are nonzero.
 219:C:/Renesas/e2studio_2021_01_workspace_RZA2M_ANPR/ANPR_RZA2M_EBK/src/tensorflow_lite/third_party/gemmlowp/fixedpoint\fixedpoint.h **** // This function may currently assume that each of the input scalars has either
 220:C:/Renesas/e2studio_2021_01_workspace_RZA2M_ANPR/ANPR_RZA2M_EBK/src/tensorflow_lite/third_party/gemmlowp/fixedpoint\fixedpoint.h **** // all or none of its bits set. Otherwise, its behavior is currently undefined.
 221:C:/Renesas/e2studio_2021_01_workspace_RZA2M_ANPR/ANPR_RZA2M_EBK/src/tensorflow_lite/third_party/gemmlowp/fixedpoint\fixedpoint.h **** template <typename tIntegerType>
 222:C:/Renesas/e2studio_2021_01_workspace_RZA2M_ANPR/ANPR_RZA2M_EBK/src/tensorflow_lite/third_party/gemmlowp/fixedpoint\fixedpoint.h **** bool Any(tIntegerType a) {
 223:C:/Renesas/e2studio_2021_01_workspace_RZA2M_ANPR/ANPR_RZA2M_EBK/src/tensorflow_lite/third_party/gemmlowp/fixedpoint\fixedpoint.h ****   return a;
 224:C:/Renesas/e2studio_2021_01_workspace_RZA2M_ANPR/ANPR_RZA2M_EBK/src/tensorflow_lite/third_party/gemmlowp/fixedpoint\fixedpoint.h **** }
 225:C:/Renesas/e2studio_2021_01_workspace_RZA2M_ANPR/ANPR_RZA2M_EBK/src/tensorflow_lite/third_party/gemmlowp/fixedpoint\fixedpoint.h **** 
 226:C:/Renesas/e2studio_2021_01_workspace_RZA2M_ANPR/ANPR_RZA2M_EBK/src/tensorflow_lite/third_party/gemmlowp/fixedpoint\fixedpoint.h **** // Returns (a+b)/2, rounded to the nearest integer.
 227:C:/Renesas/e2studio_2021_01_workspace_RZA2M_ANPR/ANPR_RZA2M_EBK/src/tensorflow_lite/third_party/gemmlowp/fixedpoint\fixedpoint.h **** // Equivalent to VRHADD in the ARM NEON instruction set.
 228:C:/Renesas/e2studio_2021_01_workspace_RZA2M_ANPR/ANPR_RZA2M_EBK/src/tensorflow_lite/third_party/gemmlowp/fixedpoint\fixedpoint.h **** template <typename IntegerType>
 229:C:/Renesas/e2studio_2021_01_workspace_RZA2M_ANPR/ANPR_RZA2M_EBK/src/tensorflow_lite/third_party/gemmlowp/fixedpoint\fixedpoint.h **** IntegerType RoundingHalfSum(IntegerType a, IntegerType b) {
 230:C:/Renesas/e2studio_2021_01_workspace_RZA2M_ANPR/ANPR_RZA2M_EBK/src/tensorflow_lite/third_party/gemmlowp/fixedpoint\fixedpoint.h ****   static_assert(std::is_same<IntegerType, void>::value, "unimplemented");
 231:C:/Renesas/e2studio_2021_01_workspace_RZA2M_ANPR/ANPR_RZA2M_EBK/src/tensorflow_lite/third_party/gemmlowp/fixedpoint\fixedpoint.h ****   (void)b;
 232:C:/Renesas/e2studio_2021_01_workspace_RZA2M_ANPR/ANPR_RZA2M_EBK/src/tensorflow_lite/third_party/gemmlowp/fixedpoint\fixedpoint.h ****   return a;
 233:C:/Renesas/e2studio_2021_01_workspace_RZA2M_ANPR/ANPR_RZA2M_EBK/src/tensorflow_lite/third_party/gemmlowp/fixedpoint\fixedpoint.h **** }
 234:C:/Renesas/e2studio_2021_01_workspace_RZA2M_ANPR/ANPR_RZA2M_EBK/src/tensorflow_lite/third_party/gemmlowp/fixedpoint\fixedpoint.h **** 
 235:C:/Renesas/e2studio_2021_01_workspace_RZA2M_ANPR/ANPR_RZA2M_EBK/src/tensorflow_lite/third_party/gemmlowp/fixedpoint\fixedpoint.h **** template <>
 236:C:/Renesas/e2studio_2021_01_workspace_RZA2M_ANPR/ANPR_RZA2M_EBK/src/tensorflow_lite/third_party/gemmlowp/fixedpoint\fixedpoint.h **** inline std::int32_t RoundingHalfSum(std::int32_t a, std::int32_t b) {
 237:C:/Renesas/e2studio_2021_01_workspace_RZA2M_ANPR/ANPR_RZA2M_EBK/src/tensorflow_lite/third_party/gemmlowp/fixedpoint\fixedpoint.h ****   std::int64_t a64 = a;
 238:C:/Renesas/e2studio_2021_01_workspace_RZA2M_ANPR/ANPR_RZA2M_EBK/src/tensorflow_lite/third_party/gemmlowp/fixedpoint\fixedpoint.h ****   std::int64_t b64 = b;
 239:C:/Renesas/e2studio_2021_01_workspace_RZA2M_ANPR/ANPR_RZA2M_EBK/src/tensorflow_lite/third_party/gemmlowp/fixedpoint\fixedpoint.h ****   std::int64_t sum = a64 + b64;
 240:C:/Renesas/e2studio_2021_01_workspace_RZA2M_ANPR/ANPR_RZA2M_EBK/src/tensorflow_lite/third_party/gemmlowp/fixedpoint\fixedpoint.h ****   std::int64_t sign = sum >= 0 ? 1 : -1;
 241:C:/Renesas/e2studio_2021_01_workspace_RZA2M_ANPR/ANPR_RZA2M_EBK/src/tensorflow_lite/third_party/gemmlowp/fixedpoint\fixedpoint.h ****   return static_cast<std::int32_t>((sum + sign) / 2);
 242:C:/Renesas/e2studio_2021_01_workspace_RZA2M_ANPR/ANPR_RZA2M_EBK/src/tensorflow_lite/third_party/gemmlowp/fixedpoint\fixedpoint.h **** }
 243:C:/Renesas/e2studio_2021_01_workspace_RZA2M_ANPR/ANPR_RZA2M_EBK/src/tensorflow_lite/third_party/gemmlowp/fixedpoint\fixedpoint.h **** 
 244:C:/Renesas/e2studio_2021_01_workspace_RZA2M_ANPR/ANPR_RZA2M_EBK/src/tensorflow_lite/third_party/gemmlowp/fixedpoint\fixedpoint.h **** template <>
 245:C:/Renesas/e2studio_2021_01_workspace_RZA2M_ANPR/ANPR_RZA2M_EBK/src/tensorflow_lite/third_party/gemmlowp/fixedpoint\fixedpoint.h **** inline std::int16_t RoundingHalfSum(std::int16_t a, std::int16_t b) {
 246:C:/Renesas/e2studio_2021_01_workspace_RZA2M_ANPR/ANPR_RZA2M_EBK/src/tensorflow_lite/third_party/gemmlowp/fixedpoint\fixedpoint.h ****   std::int32_t a32 = a;
 247:C:/Renesas/e2studio_2021_01_workspace_RZA2M_ANPR/ANPR_RZA2M_EBK/src/tensorflow_lite/third_party/gemmlowp/fixedpoint\fixedpoint.h ****   std::int32_t b32 = b;
 248:C:/Renesas/e2studio_2021_01_workspace_RZA2M_ANPR/ANPR_RZA2M_EBK/src/tensorflow_lite/third_party/gemmlowp/fixedpoint\fixedpoint.h ****   std::int32_t sum = a32 + b32;
 249:C:/Renesas/e2studio_2021_01_workspace_RZA2M_ANPR/ANPR_RZA2M_EBK/src/tensorflow_lite/third_party/gemmlowp/fixedpoint\fixedpoint.h ****   std::int32_t sign = sum >= 0 ? 1 : -1;
 250:C:/Renesas/e2studio_2021_01_workspace_RZA2M_ANPR/ANPR_RZA2M_EBK/src/tensorflow_lite/third_party/gemmlowp/fixedpoint\fixedpoint.h ****   return static_cast<std::int16_t>((sum + sign) / 2);
 251:C:/Renesas/e2studio_2021_01_workspace_RZA2M_ANPR/ANPR_RZA2M_EBK/src/tensorflow_lite/third_party/gemmlowp/fixedpoint\fixedpoint.h **** }
 252:C:/Renesas/e2studio_2021_01_workspace_RZA2M_ANPR/ANPR_RZA2M_EBK/src/tensorflow_lite/third_party/gemmlowp/fixedpoint\fixedpoint.h **** 
 253:C:/Renesas/e2studio_2021_01_workspace_RZA2M_ANPR/ANPR_RZA2M_EBK/src/tensorflow_lite/third_party/gemmlowp/fixedpoint\fixedpoint.h **** template <typename IntegerType>
 254:C:/Renesas/e2studio_2021_01_workspace_RZA2M_ANPR/ANPR_RZA2M_EBK/src/tensorflow_lite/third_party/gemmlowp/fixedpoint\fixedpoint.h **** IntegerType SaturatingAdd(IntegerType a, IntegerType b) {
 255:C:/Renesas/e2studio_2021_01_workspace_RZA2M_ANPR/ANPR_RZA2M_EBK/src/tensorflow_lite/third_party/gemmlowp/fixedpoint\fixedpoint.h ****   static_assert(std::is_same<IntegerType, void>::value, "unimplemented");
 256:C:/Renesas/e2studio_2021_01_workspace_RZA2M_ANPR/ANPR_RZA2M_EBK/src/tensorflow_lite/third_party/gemmlowp/fixedpoint\fixedpoint.h ****   (void)b;
 257:C:/Renesas/e2studio_2021_01_workspace_RZA2M_ANPR/ANPR_RZA2M_EBK/src/tensorflow_lite/third_party/gemmlowp/fixedpoint\fixedpoint.h ****   return a;
 258:C:/Renesas/e2studio_2021_01_workspace_RZA2M_ANPR/ANPR_RZA2M_EBK/src/tensorflow_lite/third_party/gemmlowp/fixedpoint\fixedpoint.h **** }
 259:C:/Renesas/e2studio_2021_01_workspace_RZA2M_ANPR/ANPR_RZA2M_EBK/src/tensorflow_lite/third_party/gemmlowp/fixedpoint\fixedpoint.h **** 
 260:C:/Renesas/e2studio_2021_01_workspace_RZA2M_ANPR/ANPR_RZA2M_EBK/src/tensorflow_lite/third_party/gemmlowp/fixedpoint\fixedpoint.h **** // So far this is only needed for int16.
 261:C:/Renesas/e2studio_2021_01_workspace_RZA2M_ANPR/ANPR_RZA2M_EBK/src/tensorflow_lite/third_party/gemmlowp/fixedpoint\fixedpoint.h **** template <>
 262:C:/Renesas/e2studio_2021_01_workspace_RZA2M_ANPR/ANPR_RZA2M_EBK/src/tensorflow_lite/third_party/gemmlowp/fixedpoint\fixedpoint.h **** inline std::int16_t SaturatingAdd(std::int16_t a, std::int16_t b) {
 263:C:/Renesas/e2studio_2021_01_workspace_RZA2M_ANPR/ANPR_RZA2M_EBK/src/tensorflow_lite/third_party/gemmlowp/fixedpoint\fixedpoint.h ****   std::int32_t a32 = a;
 264:C:/Renesas/e2studio_2021_01_workspace_RZA2M_ANPR/ANPR_RZA2M_EBK/src/tensorflow_lite/third_party/gemmlowp/fixedpoint\fixedpoint.h ****   std::int32_t b32 = b;
 265:C:/Renesas/e2studio_2021_01_workspace_RZA2M_ANPR/ANPR_RZA2M_EBK/src/tensorflow_lite/third_party/gemmlowp/fixedpoint\fixedpoint.h ****   std::int32_t sum = a32 + b32;
 266:C:/Renesas/e2studio_2021_01_workspace_RZA2M_ANPR/ANPR_RZA2M_EBK/src/tensorflow_lite/third_party/gemmlowp/fixedpoint\fixedpoint.h ****   return static_cast<std::int16_t>(
 267:C:/Renesas/e2studio_2021_01_workspace_RZA2M_ANPR/ANPR_RZA2M_EBK/src/tensorflow_lite/third_party/gemmlowp/fixedpoint\fixedpoint.h ****       std::min(static_cast<std::int32_t>(32767),
 268:C:/Renesas/e2studio_2021_01_workspace_RZA2M_ANPR/ANPR_RZA2M_EBK/src/tensorflow_lite/third_party/gemmlowp/fixedpoint\fixedpoint.h ****                std::max(static_cast<std::int32_t>(-32768), sum)));
 269:C:/Renesas/e2studio_2021_01_workspace_RZA2M_ANPR/ANPR_RZA2M_EBK/src/tensorflow_lite/third_party/gemmlowp/fixedpoint\fixedpoint.h **** }
 270:C:/Renesas/e2studio_2021_01_workspace_RZA2M_ANPR/ANPR_RZA2M_EBK/src/tensorflow_lite/third_party/gemmlowp/fixedpoint\fixedpoint.h **** 
 271:C:/Renesas/e2studio_2021_01_workspace_RZA2M_ANPR/ANPR_RZA2M_EBK/src/tensorflow_lite/third_party/gemmlowp/fixedpoint\fixedpoint.h **** // Returns a+b, saturating if the integers are 16bit or narrower,
 272:C:/Renesas/e2studio_2021_01_workspace_RZA2M_ANPR/ANPR_RZA2M_EBK/src/tensorflow_lite/third_party/gemmlowp/fixedpoint\fixedpoint.h **** // otherwise just a plain addition.
 273:C:/Renesas/e2studio_2021_01_workspace_RZA2M_ANPR/ANPR_RZA2M_EBK/src/tensorflow_lite/third_party/gemmlowp/fixedpoint\fixedpoint.h **** template <typename IntegerType, bool Is16Bit>
 274:C:/Renesas/e2studio_2021_01_workspace_RZA2M_ANPR/ANPR_RZA2M_EBK/src/tensorflow_lite/third_party/gemmlowp/fixedpoint\fixedpoint.h **** struct AddSaturatingIf16BitImpl {
 275:C:/Renesas/e2studio_2021_01_workspace_RZA2M_ANPR/ANPR_RZA2M_EBK/src/tensorflow_lite/third_party/gemmlowp/fixedpoint\fixedpoint.h ****   static IntegerType Run(IntegerType a, IntegerType b) { return Add(a, b); }
 276:C:/Renesas/e2studio_2021_01_workspace_RZA2M_ANPR/ANPR_RZA2M_EBK/src/tensorflow_lite/third_party/gemmlowp/fixedpoint\fixedpoint.h **** };
 277:C:/Renesas/e2studio_2021_01_workspace_RZA2M_ANPR/ANPR_RZA2M_EBK/src/tensorflow_lite/third_party/gemmlowp/fixedpoint\fixedpoint.h **** template <typename IntegerType>
 278:C:/Renesas/e2studio_2021_01_workspace_RZA2M_ANPR/ANPR_RZA2M_EBK/src/tensorflow_lite/third_party/gemmlowp/fixedpoint\fixedpoint.h **** struct AddSaturatingIf16BitImpl<IntegerType, true> {
 279:C:/Renesas/e2studio_2021_01_workspace_RZA2M_ANPR/ANPR_RZA2M_EBK/src/tensorflow_lite/third_party/gemmlowp/fixedpoint\fixedpoint.h ****   static IntegerType Run(IntegerType a, IntegerType b) {
 280:C:/Renesas/e2studio_2021_01_workspace_RZA2M_ANPR/ANPR_RZA2M_EBK/src/tensorflow_lite/third_party/gemmlowp/fixedpoint\fixedpoint.h ****     return SaturatingAdd(a, b);
 281:C:/Renesas/e2studio_2021_01_workspace_RZA2M_ANPR/ANPR_RZA2M_EBK/src/tensorflow_lite/third_party/gemmlowp/fixedpoint\fixedpoint.h ****   }
 282:C:/Renesas/e2studio_2021_01_workspace_RZA2M_ANPR/ANPR_RZA2M_EBK/src/tensorflow_lite/third_party/gemmlowp/fixedpoint\fixedpoint.h **** };
 283:C:/Renesas/e2studio_2021_01_workspace_RZA2M_ANPR/ANPR_RZA2M_EBK/src/tensorflow_lite/third_party/gemmlowp/fixedpoint\fixedpoint.h **** template <typename IntegerType>
 284:C:/Renesas/e2studio_2021_01_workspace_RZA2M_ANPR/ANPR_RZA2M_EBK/src/tensorflow_lite/third_party/gemmlowp/fixedpoint\fixedpoint.h **** IntegerType AddSaturatingIf16Bit(IntegerType a, IntegerType b) {
 285:C:/Renesas/e2studio_2021_01_workspace_RZA2M_ANPR/ANPR_RZA2M_EBK/src/tensorflow_lite/third_party/gemmlowp/fixedpoint\fixedpoint.h ****   using ScalarType =
 286:C:/Renesas/e2studio_2021_01_workspace_RZA2M_ANPR/ANPR_RZA2M_EBK/src/tensorflow_lite/third_party/gemmlowp/fixedpoint\fixedpoint.h ****       typename FixedPointRawTypeTraits<IntegerType>::ScalarRawType;
 287:C:/Renesas/e2studio_2021_01_workspace_RZA2M_ANPR/ANPR_RZA2M_EBK/src/tensorflow_lite/third_party/gemmlowp/fixedpoint\fixedpoint.h ****   return AddSaturatingIf16BitImpl<IntegerType, sizeof(ScalarType) == 2>::Run(a,
 288:C:/Renesas/e2studio_2021_01_workspace_RZA2M_ANPR/ANPR_RZA2M_EBK/src/tensorflow_lite/third_party/gemmlowp/fixedpoint\fixedpoint.h ****                                                                              b);
 289:C:/Renesas/e2studio_2021_01_workspace_RZA2M_ANPR/ANPR_RZA2M_EBK/src/tensorflow_lite/third_party/gemmlowp/fixedpoint\fixedpoint.h **** }
 290:C:/Renesas/e2studio_2021_01_workspace_RZA2M_ANPR/ANPR_RZA2M_EBK/src/tensorflow_lite/third_party/gemmlowp/fixedpoint\fixedpoint.h **** 
 291:C:/Renesas/e2studio_2021_01_workspace_RZA2M_ANPR/ANPR_RZA2M_EBK/src/tensorflow_lite/third_party/gemmlowp/fixedpoint\fixedpoint.h **** // Returns the integer that represents the product of two fixed-point
 292:C:/Renesas/e2studio_2021_01_workspace_RZA2M_ANPR/ANPR_RZA2M_EBK/src/tensorflow_lite/third_party/gemmlowp/fixedpoint\fixedpoint.h **** // numbers, interpreting all integers as fixed-point values in the
 293:C:/Renesas/e2studio_2021_01_workspace_RZA2M_ANPR/ANPR_RZA2M_EBK/src/tensorflow_lite/third_party/gemmlowp/fixedpoint\fixedpoint.h **** // interval [-1, 1), rounding to the nearest value, and saturating
 294:C:/Renesas/e2studio_2021_01_workspace_RZA2M_ANPR/ANPR_RZA2M_EBK/src/tensorflow_lite/third_party/gemmlowp/fixedpoint\fixedpoint.h **** // -1 * -1 to the maximum value (since 1 is not in the half-open
 295:C:/Renesas/e2studio_2021_01_workspace_RZA2M_ANPR/ANPR_RZA2M_EBK/src/tensorflow_lite/third_party/gemmlowp/fixedpoint\fixedpoint.h **** // interval [-1, 1)).
 296:C:/Renesas/e2studio_2021_01_workspace_RZA2M_ANPR/ANPR_RZA2M_EBK/src/tensorflow_lite/third_party/gemmlowp/fixedpoint\fixedpoint.h **** //
 297:C:/Renesas/e2studio_2021_01_workspace_RZA2M_ANPR/ANPR_RZA2M_EBK/src/tensorflow_lite/third_party/gemmlowp/fixedpoint\fixedpoint.h **** // [The explanation below specializes to std::int32_t for example purpose.]
 298:C:/Renesas/e2studio_2021_01_workspace_RZA2M_ANPR/ANPR_RZA2M_EBK/src/tensorflow_lite/third_party/gemmlowp/fixedpoint\fixedpoint.h **** //
 299:C:/Renesas/e2studio_2021_01_workspace_RZA2M_ANPR/ANPR_RZA2M_EBK/src/tensorflow_lite/third_party/gemmlowp/fixedpoint\fixedpoint.h **** // The mapping between IntegerType and the interval [-1, 1) is unique and
 300:C:/Renesas/e2studio_2021_01_workspace_RZA2M_ANPR/ANPR_RZA2M_EBK/src/tensorflow_lite/third_party/gemmlowp/fixedpoint\fixedpoint.h **** // implied by IntegerType, which is assumed to be signed. For example,
 301:C:/Renesas/e2studio_2021_01_workspace_RZA2M_ANPR/ANPR_RZA2M_EBK/src/tensorflow_lite/third_party/gemmlowp/fixedpoint\fixedpoint.h **** // for IntegerType==std::int32_t, the mapping is
 302:C:/Renesas/e2studio_2021_01_workspace_RZA2M_ANPR/ANPR_RZA2M_EBK/src/tensorflow_lite/third_party/gemmlowp/fixedpoint\fixedpoint.h **** //   real_value = integer_value / 2^31.
 303:C:/Renesas/e2studio_2021_01_workspace_RZA2M_ANPR/ANPR_RZA2M_EBK/src/tensorflow_lite/third_party/gemmlowp/fixedpoint\fixedpoint.h **** // So in this case, and leaving aside rounding and saturating, this
 304:C:/Renesas/e2studio_2021_01_workspace_RZA2M_ANPR/ANPR_RZA2M_EBK/src/tensorflow_lite/third_party/gemmlowp/fixedpoint\fixedpoint.h **** // function computes ((a / 2^31) * (b / 2^31)) * 2^31, which simplifies to
 305:C:/Renesas/e2studio_2021_01_workspace_RZA2M_ANPR/ANPR_RZA2M_EBK/src/tensorflow_lite/third_party/gemmlowp/fixedpoint\fixedpoint.h **** //   (a * b) / 2^31.
 306:C:/Renesas/e2studio_2021_01_workspace_RZA2M_ANPR/ANPR_RZA2M_EBK/src/tensorflow_lite/third_party/gemmlowp/fixedpoint\fixedpoint.h **** //
 307:C:/Renesas/e2studio_2021_01_workspace_RZA2M_ANPR/ANPR_RZA2M_EBK/src/tensorflow_lite/third_party/gemmlowp/fixedpoint\fixedpoint.h **** // The 'doubling' part in the name of this function comes from the fact that
 308:C:/Renesas/e2studio_2021_01_workspace_RZA2M_ANPR/ANPR_RZA2M_EBK/src/tensorflow_lite/third_party/gemmlowp/fixedpoint\fixedpoint.h **** // this operation is very close to a "multiply-high" operation, keeping only
 309:C:/Renesas/e2studio_2021_01_workspace_RZA2M_ANPR/ANPR_RZA2M_EBK/src/tensorflow_lite/third_party/gemmlowp/fixedpoint\fixedpoint.h **** // the top half bits, except that that would be effectively computing
 310:C:/Renesas/e2studio_2021_01_workspace_RZA2M_ANPR/ANPR_RZA2M_EBK/src/tensorflow_lite/third_party/gemmlowp/fixedpoint\fixedpoint.h **** //   (a * b) / 2^32,
 311:C:/Renesas/e2studio_2021_01_workspace_RZA2M_ANPR/ANPR_RZA2M_EBK/src/tensorflow_lite/third_party/gemmlowp/fixedpoint\fixedpoint.h **** // so here we are computing 2x that, since
 312:C:/Renesas/e2studio_2021_01_workspace_RZA2M_ANPR/ANPR_RZA2M_EBK/src/tensorflow_lite/third_party/gemmlowp/fixedpoint\fixedpoint.h **** //   1/2^31 = 2 * 1/2^32.
 313:C:/Renesas/e2studio_2021_01_workspace_RZA2M_ANPR/ANPR_RZA2M_EBK/src/tensorflow_lite/third_party/gemmlowp/fixedpoint\fixedpoint.h **** // The idea is to use all of the available 32 bits in the destination int32
 314:C:/Renesas/e2studio_2021_01_workspace_RZA2M_ANPR/ANPR_RZA2M_EBK/src/tensorflow_lite/third_party/gemmlowp/fixedpoint\fixedpoint.h **** // value.
 315:C:/Renesas/e2studio_2021_01_workspace_RZA2M_ANPR/ANPR_RZA2M_EBK/src/tensorflow_lite/third_party/gemmlowp/fixedpoint\fixedpoint.h **** //
 316:C:/Renesas/e2studio_2021_01_workspace_RZA2M_ANPR/ANPR_RZA2M_EBK/src/tensorflow_lite/third_party/gemmlowp/fixedpoint\fixedpoint.h **** // [End of the explanation specializing to int32.]
 317:C:/Renesas/e2studio_2021_01_workspace_RZA2M_ANPR/ANPR_RZA2M_EBK/src/tensorflow_lite/third_party/gemmlowp/fixedpoint\fixedpoint.h **** //
 318:C:/Renesas/e2studio_2021_01_workspace_RZA2M_ANPR/ANPR_RZA2M_EBK/src/tensorflow_lite/third_party/gemmlowp/fixedpoint\fixedpoint.h **** // This is equivalent to the VQRDMULH instruction in ARM NEON.
 319:C:/Renesas/e2studio_2021_01_workspace_RZA2M_ANPR/ANPR_RZA2M_EBK/src/tensorflow_lite/third_party/gemmlowp/fixedpoint\fixedpoint.h **** template <typename IntegerType>
 320:C:/Renesas/e2studio_2021_01_workspace_RZA2M_ANPR/ANPR_RZA2M_EBK/src/tensorflow_lite/third_party/gemmlowp/fixedpoint\fixedpoint.h **** IntegerType SaturatingRoundingDoublingHighMul(IntegerType a, IntegerType b) {
 321:C:/Renesas/e2studio_2021_01_workspace_RZA2M_ANPR/ANPR_RZA2M_EBK/src/tensorflow_lite/third_party/gemmlowp/fixedpoint\fixedpoint.h ****   static_assert(std::is_same<IntegerType, void>::value, "unimplemented");
 322:C:/Renesas/e2studio_2021_01_workspace_RZA2M_ANPR/ANPR_RZA2M_EBK/src/tensorflow_lite/third_party/gemmlowp/fixedpoint\fixedpoint.h ****   (void)b;
 323:C:/Renesas/e2studio_2021_01_workspace_RZA2M_ANPR/ANPR_RZA2M_EBK/src/tensorflow_lite/third_party/gemmlowp/fixedpoint\fixedpoint.h ****   return a;
 324:C:/Renesas/e2studio_2021_01_workspace_RZA2M_ANPR/ANPR_RZA2M_EBK/src/tensorflow_lite/third_party/gemmlowp/fixedpoint\fixedpoint.h **** }
 325:C:/Renesas/e2studio_2021_01_workspace_RZA2M_ANPR/ANPR_RZA2M_EBK/src/tensorflow_lite/third_party/gemmlowp/fixedpoint\fixedpoint.h **** 
 326:C:/Renesas/e2studio_2021_01_workspace_RZA2M_ANPR/ANPR_RZA2M_EBK/src/tensorflow_lite/third_party/gemmlowp/fixedpoint\fixedpoint.h **** // This function implements the same computation as the ARMv7 NEON VQRDMULH
 327:C:/Renesas/e2studio_2021_01_workspace_RZA2M_ANPR/ANPR_RZA2M_EBK/src/tensorflow_lite/third_party/gemmlowp/fixedpoint\fixedpoint.h **** // instruction.
 328:C:/Renesas/e2studio_2021_01_workspace_RZA2M_ANPR/ANPR_RZA2M_EBK/src/tensorflow_lite/third_party/gemmlowp/fixedpoint\fixedpoint.h **** template <>
 329:C:/Renesas/e2studio_2021_01_workspace_RZA2M_ANPR/ANPR_RZA2M_EBK/src/tensorflow_lite/third_party/gemmlowp/fixedpoint\fixedpoint.h **** inline std::int32_t SaturatingRoundingDoublingHighMul(std::int32_t a,
 330:C:/Renesas/e2studio_2021_01_workspace_RZA2M_ANPR/ANPR_RZA2M_EBK/src/tensorflow_lite/third_party/gemmlowp/fixedpoint\fixedpoint.h ****                                                       std::int32_t b) {
 331:C:/Renesas/e2studio_2021_01_workspace_RZA2M_ANPR/ANPR_RZA2M_EBK/src/tensorflow_lite/third_party/gemmlowp/fixedpoint\fixedpoint.h ****   bool overflow = a == b && a == std::numeric_limits<std::int32_t>::min();
 332:C:/Renesas/e2studio_2021_01_workspace_RZA2M_ANPR/ANPR_RZA2M_EBK/src/tensorflow_lite/third_party/gemmlowp/fixedpoint\fixedpoint.h ****   std::int64_t a_64(a);
 333:C:/Renesas/e2studio_2021_01_workspace_RZA2M_ANPR/ANPR_RZA2M_EBK/src/tensorflow_lite/third_party/gemmlowp/fixedpoint\fixedpoint.h ****   std::int64_t b_64(b);
 334:C:/Renesas/e2studio_2021_01_workspace_RZA2M_ANPR/ANPR_RZA2M_EBK/src/tensorflow_lite/third_party/gemmlowp/fixedpoint\fixedpoint.h ****   std::int64_t ab_64 = a_64 * b_64;
 335:C:/Renesas/e2studio_2021_01_workspace_RZA2M_ANPR/ANPR_RZA2M_EBK/src/tensorflow_lite/third_party/gemmlowp/fixedpoint\fixedpoint.h ****   std::int32_t nudge = ab_64 >= 0 ? (1 << 30) : (1 - (1 << 30));
 336:C:/Renesas/e2studio_2021_01_workspace_RZA2M_ANPR/ANPR_RZA2M_EBK/src/tensorflow_lite/third_party/gemmlowp/fixedpoint\fixedpoint.h ****   std::int32_t ab_x2_high32 =
 337:C:/Renesas/e2studio_2021_01_workspace_RZA2M_ANPR/ANPR_RZA2M_EBK/src/tensorflow_lite/third_party/gemmlowp/fixedpoint\fixedpoint.h ****       static_cast<std::int32_t>((ab_64 + nudge) / (1ll << 31));
 338:C:/Renesas/e2studio_2021_01_workspace_RZA2M_ANPR/ANPR_RZA2M_EBK/src/tensorflow_lite/third_party/gemmlowp/fixedpoint\fixedpoint.h ****   return overflow ? std::numeric_limits<std::int32_t>::max() : ab_x2_high32;
 339:C:/Renesas/e2studio_2021_01_workspace_RZA2M_ANPR/ANPR_RZA2M_EBK/src/tensorflow_lite/third_party/gemmlowp/fixedpoint\fixedpoint.h **** }
 340:C:/Renesas/e2studio_2021_01_workspace_RZA2M_ANPR/ANPR_RZA2M_EBK/src/tensorflow_lite/third_party/gemmlowp/fixedpoint\fixedpoint.h **** 
 341:C:/Renesas/e2studio_2021_01_workspace_RZA2M_ANPR/ANPR_RZA2M_EBK/src/tensorflow_lite/third_party/gemmlowp/fixedpoint\fixedpoint.h **** template <>
 342:C:/Renesas/e2studio_2021_01_workspace_RZA2M_ANPR/ANPR_RZA2M_EBK/src/tensorflow_lite/third_party/gemmlowp/fixedpoint\fixedpoint.h **** inline std::int16_t SaturatingRoundingDoublingHighMul(std::int16_t a,
 343:C:/Renesas/e2studio_2021_01_workspace_RZA2M_ANPR/ANPR_RZA2M_EBK/src/tensorflow_lite/third_party/gemmlowp/fixedpoint\fixedpoint.h ****                                                       std::int16_t b) {
 344:C:/Renesas/e2studio_2021_01_workspace_RZA2M_ANPR/ANPR_RZA2M_EBK/src/tensorflow_lite/third_party/gemmlowp/fixedpoint\fixedpoint.h ****   bool overflow = a == b && a == std::numeric_limits<std::int16_t>::min();
 345:C:/Renesas/e2studio_2021_01_workspace_RZA2M_ANPR/ANPR_RZA2M_EBK/src/tensorflow_lite/third_party/gemmlowp/fixedpoint\fixedpoint.h ****   std::int32_t a_32(a);
 346:C:/Renesas/e2studio_2021_01_workspace_RZA2M_ANPR/ANPR_RZA2M_EBK/src/tensorflow_lite/third_party/gemmlowp/fixedpoint\fixedpoint.h ****   std::int32_t b_32(b);
 347:C:/Renesas/e2studio_2021_01_workspace_RZA2M_ANPR/ANPR_RZA2M_EBK/src/tensorflow_lite/third_party/gemmlowp/fixedpoint\fixedpoint.h ****   std::int32_t ab_32 = a_32 * b_32;
 348:C:/Renesas/e2studio_2021_01_workspace_RZA2M_ANPR/ANPR_RZA2M_EBK/src/tensorflow_lite/third_party/gemmlowp/fixedpoint\fixedpoint.h ****   std::int16_t nudge = ab_32 >= 0 ? (1 << 14) : (1 - (1 << 14));
 349:C:/Renesas/e2studio_2021_01_workspace_RZA2M_ANPR/ANPR_RZA2M_EBK/src/tensorflow_lite/third_party/gemmlowp/fixedpoint\fixedpoint.h ****   std::int16_t ab_x2_high16 =
 350:C:/Renesas/e2studio_2021_01_workspace_RZA2M_ANPR/ANPR_RZA2M_EBK/src/tensorflow_lite/third_party/gemmlowp/fixedpoint\fixedpoint.h ****       static_cast<std::int16_t>((ab_32 + nudge) / (1 << 15));
 351:C:/Renesas/e2studio_2021_01_workspace_RZA2M_ANPR/ANPR_RZA2M_EBK/src/tensorflow_lite/third_party/gemmlowp/fixedpoint\fixedpoint.h ****   return overflow ? std::numeric_limits<std::int16_t>::max() : ab_x2_high16;
 352:C:/Renesas/e2studio_2021_01_workspace_RZA2M_ANPR/ANPR_RZA2M_EBK/src/tensorflow_lite/third_party/gemmlowp/fixedpoint\fixedpoint.h **** }
 353:C:/Renesas/e2studio_2021_01_workspace_RZA2M_ANPR/ANPR_RZA2M_EBK/src/tensorflow_lite/third_party/gemmlowp/fixedpoint\fixedpoint.h **** 
 354:C:/Renesas/e2studio_2021_01_workspace_RZA2M_ANPR/ANPR_RZA2M_EBK/src/tensorflow_lite/third_party/gemmlowp/fixedpoint\fixedpoint.h **** // Correctly-rounded-to-nearest division by a power-of-two.
 355:C:/Renesas/e2studio_2021_01_workspace_RZA2M_ANPR/ANPR_RZA2M_EBK/src/tensorflow_lite/third_party/gemmlowp/fixedpoint\fixedpoint.h **** // Also known as a rounding arithmetic right shift.
 356:C:/Renesas/e2studio_2021_01_workspace_RZA2M_ANPR/ANPR_RZA2M_EBK/src/tensorflow_lite/third_party/gemmlowp/fixedpoint\fixedpoint.h **** template <typename IntegerType>
 357:C:/Renesas/e2studio_2021_01_workspace_RZA2M_ANPR/ANPR_RZA2M_EBK/src/tensorflow_lite/third_party/gemmlowp/fixedpoint\fixedpoint.h **** inline IntegerType RoundingDivideByPOT(IntegerType x, int exponent) {
 358:C:/Renesas/e2studio_2021_01_workspace_RZA2M_ANPR/ANPR_RZA2M_EBK/src/tensorflow_lite/third_party/gemmlowp/fixedpoint\fixedpoint.h ****   assert(exponent >= 0);
 359:C:/Renesas/e2studio_2021_01_workspace_RZA2M_ANPR/ANPR_RZA2M_EBK/src/tensorflow_lite/third_party/gemmlowp/fixedpoint\fixedpoint.h ****   assert(exponent <= 31);
 360:C:/Renesas/e2studio_2021_01_workspace_RZA2M_ANPR/ANPR_RZA2M_EBK/src/tensorflow_lite/third_party/gemmlowp/fixedpoint\fixedpoint.h ****   const IntegerType mask = Dup<IntegerType>((1ll << exponent) - 1);
 2552              		.loc 6 360 0
 2553 0bd8 C80BDFED 		vldr.64	d16, .L980	@ int
 2554              	.LBE1730:
 2555              	.LBE1729:
 2556              	.LBE1728:
 2557              	.LBE1727:
 2558              	.LBE1761:
 2559              	.LBE1803:
 2560              	.LBB1804:
 2561              	.LBB1799:
 730:C:/Renesas/e2studio_2021_01_workspace_RZA2M_ANPR/ANPR_RZA2M_EBK/src/tensorflow_lite/tensorflow/lite/kernels/internal\common.h ****   TFLITE_DCHECK(i2 >= 0 && i2 < desc.extents[2]);
 2562              		.loc 4 730 0
 2563 0bdc 20E08DE5 		str	lr, [sp, #32]
 2564 0be0 02E084E0 		add	lr, r4, r2
 2565 0be4 002062E2 		rsb	r2, r2, #0
 2566 0be8 74E08DE5 		str	lr, [sp, #116]
 2567 0bec 48208DE5 		str	r2, [sp, #72]
 2568 0bf0 032085E0 		add	r2, r5, r3
 2569 0bf4 003063E2 		rsb	r3, r3, #0
 2570 0bf8 70208DE5 		str	r2, [sp, #112]
 2571 0bfc 2C308DE5 		str	r3, [sp, #44]
 2572 0c00 9C0102E0 		mul	r2, ip, r1
 731:C:/Renesas/e2studio_2021_01_workspace_RZA2M_ANPR/ANPR_RZA2M_EBK/src/tensorflow_lite/tensorflow/lite/kernels/internal\common.h ****   TFLITE_DCHECK(i3 >= 0 && i3 < desc.extents[3]);
 2573              		.loc 4 731 0
 2574 0c04 28319DE5 		ldr	r3, [sp, #296]
 2575 0c08 8C008DE5 		str	r0, [sp, #140]
 2576 0c0c 24308DE5 		str	r3, [sp, #36]
 732:C:/Renesas/e2studio_2021_01_workspace_RZA2M_ANPR/ANPR_RZA2M_EBK/src/tensorflow_lite/tensorflow/lite/kernels/internal\common.h ****   return i0 * desc.strides[0] + i1 * desc.strides[1] + i2 * desc.strides[2] +
 2577              		.loc 4 732 0
 2578 0c10 2C319DE5 		ldr	r3, [sp, #300]
 2579 0c14 78208DE5 		str	r2, [sp, #120]
 2580 0c18 28308DE5 		str	r3, [sp, #40]
 733:C:/Renesas/e2studio_2021_01_workspace_RZA2M_ANPR/ANPR_RZA2M_EBK/src/tensorflow_lite/tensorflow/lite/kernels/internal\common.h ****          i3 * desc.strides[3];
 2581              		.loc 4 733 0
 2582 0c1c 34319DE5 		ldr	r3, [sp, #308]
 2583 0c20 7C308DE5 		str	r3, [sp, #124]
 2584 0c24 38319DE5 		ldr	r3, [sp, #312]
 2585 0c28 58308DE5 		str	r3, [sp, #88]
 2586              	.LBE1799:
 2587              	.LBE1804:
 2588              	.LBB1805:
 2589              	.LBB1762:
 2590              	.LBB1753:
 2591              	.LBB1723:
 729:C:/Renesas/e2studio_2021_01_workspace_RZA2M_ANPR/ANPR_RZA2M_EBK/src/tensorflow_lite/tensorflow/lite/kernels/internal\common.h ****   TFLITE_DCHECK(i1 >= 0 && i1 < desc.extents[1]);
 2592              		.loc 4 729 0
 2593 0c2c 40319DE5 		ldr	r3, [sp, #320]
 2594 0c30 38308DE5 		str	r3, [sp, #56]
 730:C:/Renesas/e2studio_2021_01_workspace_RZA2M_ANPR/ANPR_RZA2M_EBK/src/tensorflow_lite/tensorflow/lite/kernels/internal\common.h ****   TFLITE_DCHECK(i2 >= 0 && i2 < desc.extents[2]);
 2595              		.loc 4 730 0
 2596 0c34 44319DE5 		ldr	r3, [sp, #324]
 2597 0c38 3C308DE5 		str	r3, [sp, #60]
 731:C:/Renesas/e2studio_2021_01_workspace_RZA2M_ANPR/ANPR_RZA2M_EBK/src/tensorflow_lite/tensorflow/lite/kernels/internal\common.h ****   TFLITE_DCHECK(i3 >= 0 && i3 < desc.extents[3]);
 2598              		.loc 4 731 0
 2599 0c3c 48319DE5 		ldr	r3, [sp, #328]
 2600 0c40 40308DE5 		str	r3, [sp, #64]
 732:C:/Renesas/e2studio_2021_01_workspace_RZA2M_ANPR/ANPR_RZA2M_EBK/src/tensorflow_lite/tensorflow/lite/kernels/internal\common.h ****   return i0 * desc.strides[0] + i1 * desc.strides[1] + i2 * desc.strides[2] +
 2601              		.loc 4 732 0
 2602 0c44 4C319DE5 		ldr	r3, [sp, #332]
 2603 0c48 44308DE5 		str	r3, [sp, #68]
 733:C:/Renesas/e2studio_2021_01_workspace_RZA2M_ANPR/ANPR_RZA2M_EBK/src/tensorflow_lite/tensorflow/lite/kernels/internal\common.h ****          i3 * desc.strides[3];
 2604              		.loc 4 733 0
 2605 0c4c 54319DE5 		ldr	r3, [sp, #340]
 2606 0c50 80308DE5 		str	r3, [sp, #128]
 2607 0c54 58319DE5 		ldr	r3, [sp, #344]
 2608 0c58 5C308DE5 		str	r3, [sp, #92]
 2609 0c5c 50319DE5 		ldr	r3, [sp, #336]
 2610 0c60 88308DE5 		str	r3, [sp, #136]
 2611 0c64 30319DE5 		ldr	r3, [sp, #304]
 2612 0c68 84308DE5 		str	r3, [sp, #132]
 2613              	.LVL310:
 2614              	.L215:
 2615              	.LBE1723:
 2616              	.LBE1753:
 2617              	.LBE1762:
 2618              	.LBE1805:
 2619              	.LBE1834:
 2620              	.LBE1854:
 2621              	.LBE1869:
 2622              	.LBE1885:
 2623              	.LBB1886:
 2624              	.LBB1707:
 216:C:/Renesas/e2studio_2021_01_workspace_RZA2M_ANPR/ANPR_RZA2M_EBK/src/tensorflow_lite/tensorflow/lite/kernels/internal\types.h ****   }
 2625              		.loc 3 216 0
 2626 0c6c 10309DE5 		ldr	r3, [sp, #16]
 2627 0c70 050053E3 		cmp	r3, #5
 2628 0c74 0C309DE5 		ldr	r3, [sp, #12]
 2629 0c78 003093C5 		ldrgt	r3, [r3]
 2630              	.LVL311:
 2631              	.LBE1707:
 2632              	.LBE1886:
  35:C:/Renesas/e2studio_2021_01_workspace_RZA2M_ANPR/ANPR_RZA2M_EBK/src/tensorflow_lite/tensorflow/lite/kernels/internal/reference\prelu.h ****   const RuntimeShape extended_output_shape =
  36:C:/Renesas/e2studio_2021_01_workspace_RZA2M_ANPR/ANPR_RZA2M_EBK/src/tensorflow_lite/tensorflow/lite/kernels/internal/reference\prelu.h ****       RuntimeShape::ExtendedShape(4, output_shape);
  37:C:/Renesas/e2studio_2021_01_workspace_RZA2M_ANPR/ANPR_RZA2M_EBK/src/tensorflow_lite/tensorflow/lite/kernels/internal/reference\prelu.h ****   NdArrayDesc<4> desc1;
  38:C:/Renesas/e2studio_2021_01_workspace_RZA2M_ANPR/ANPR_RZA2M_EBK/src/tensorflow_lite/tensorflow/lite/kernels/internal/reference\prelu.h ****   NdArrayDesc<4> desc2;
  39:C:/Renesas/e2studio_2021_01_workspace_RZA2M_ANPR/ANPR_RZA2M_EBK/src/tensorflow_lite/tensorflow/lite/kernels/internal/reference\prelu.h ****   NdArrayDescsForElementwiseBroadcast(input_shape, alpha_shape, &desc1, &desc2);
  40:C:/Renesas/e2studio_2021_01_workspace_RZA2M_ANPR/ANPR_RZA2M_EBK/src/tensorflow_lite/tensorflow/lite/kernels/internal/reference\prelu.h **** 
  41:C:/Renesas/e2studio_2021_01_workspace_RZA2M_ANPR/ANPR_RZA2M_EBK/src/tensorflow_lite/tensorflow/lite/kernels/internal/reference\prelu.h ****   for (int b = 0; b < extended_output_shape.Dims(0); ++b) {
 2633              		.loc 5 41 0
 2634 0c7c 03005BE1 		cmp	fp, r3
 2635              	.LBB1887:
 2636              	.LBB1870:
 2637              	.LBB1713:
 215:C:/Renesas/e2studio_2021_01_workspace_RZA2M_ANPR/ANPR_RZA2M_EBK/src/tensorflow_lite/tensorflow/lite/kernels/internal\types.h ****     return size_ > kMaxSmallSize ? dims_pointer_[i] : dims_[i];
 2638              		.loc 3 215 0
 2639 0c80 10309DE5 		ldr	r3, [sp, #16]
 2640              	.LBE1713:
 2641              	.LBE1870:
 2642              	.LBE1887:
 2643              		.loc 5 41 0
 2644 0c84 0A0500AA 		bge	.L336
 2645              	.LVL312:
 2646              	.LBB1888:
 2647              	.LBB1871:
 2648              	.LBB1714:
 215:C:/Renesas/e2studio_2021_01_workspace_RZA2M_ANPR/ANPR_RZA2M_EBK/src/tensorflow_lite/tensorflow/lite/kernels/internal\types.h ****     return size_ > kMaxSmallSize ? dims_pointer_[i] : dims_[i];
 2649              		.loc 3 215 0
 2650 0c88 010053E3 		cmp	r3, #1
 2651 0c8c A405000A 		beq	.L222
 2652 0c90 70309DE5 		ldr	r3, [sp, #112]
 2653 0c94 0090A0E3 		mov	r9, #0
 2654 0c98 60308DE5 		str	r3, [sp, #96]
 2655 0c9c 74309DE5 		ldr	r3, [sp, #116]
 2656 0ca0 64308DE5 		str	r3, [sp, #100]
 2657 0ca4 6C309DE5 		ldr	r3, [sp, #108]
 2658 0ca8 68308DE5 		str	r3, [sp, #104]
 2659              	.LVL313:
 2660              	.L223:
 216:C:/Renesas/e2studio_2021_01_workspace_RZA2M_ANPR/ANPR_RZA2M_EBK/src/tensorflow_lite/tensorflow/lite/kernels/internal\types.h ****   }
 2661              		.loc 3 216 0
 2662 0cac 10309DE5 		ldr	r3, [sp, #16]
 2663 0cb0 050053E3 		cmp	r3, #5
 2664 0cb4 0C309DC5 		ldrgt	r3, [sp, #12]
 2665 0cb8 18309DD5 		ldrle	r3, [sp, #24]
 2666              	.LVL314:
 2667 0cbc 043093C5 		ldrgt	r3, [r3, #4]
 2668              	.LBE1714:
 2669              	.LBE1871:
  42:C:/Renesas/e2studio_2021_01_workspace_RZA2M_ANPR/ANPR_RZA2M_EBK/src/tensorflow_lite/tensorflow/lite/kernels/internal/reference\prelu.h ****     for (int y = 0; y < extended_output_shape.Dims(1); ++y) {
 2670              		.loc 5 42 0
 2671 0cc0 090053E1 		cmp	r3, r9
 2672 0cc4 760500DA 		ble	.L225
 2673              	.LVL315:
 2674              	.LBB1872:
 2675              	.LBB1855:
 2676              	.LBB1851:
 215:C:/Renesas/e2studio_2021_01_workspace_RZA2M_ANPR/ANPR_RZA2M_EBK/src/tensorflow_lite/tensorflow/lite/kernels/internal\types.h ****     return size_ > kMaxSmallSize ? dims_pointer_[i] : dims_[i];
 2677              		.loc 3 215 0
 2678 0cc8 10309DE5 		ldr	r3, [sp, #16]
 2679 0ccc 020053E3 		cmp	r3, #2
 2680 0cd0 DD05000A 		beq	.L226
 2681 0cd4 60309DE5 		ldr	r3, [sp, #96]
 2682 0cd8 0080A0E3 		mov	r8, #0
 2683 0cdc 50308DE5 		str	r3, [sp, #80]
 2684 0ce0 64309DE5 		ldr	r3, [sp, #100]
 2685 0ce4 4C308DE5 		str	r3, [sp, #76]
 2686 0ce8 68309DE5 		ldr	r3, [sp, #104]
 2687 0cec 54308DE5 		str	r3, [sp, #84]
 2688              	.LVL316:
 2689              	.L227:
 216:C:/Renesas/e2studio_2021_01_workspace_RZA2M_ANPR/ANPR_RZA2M_EBK/src/tensorflow_lite/tensorflow/lite/kernels/internal\types.h ****   }
 2690              		.loc 3 216 0
 2691 0cf0 10309DE5 		ldr	r3, [sp, #16]
 2692 0cf4 050053E3 		cmp	r3, #5
 2693 0cf8 0C309DC5 		ldrgt	r3, [sp, #12]
 2694 0cfc 14309DD5 		ldrle	r3, [sp, #20]
 2695              	.LVL317:
 2696 0d00 083093C5 		ldrgt	r3, [r3, #8]
 2697              	.LBE1851:
 2698              	.LBE1855:
  43:C:/Renesas/e2studio_2021_01_workspace_RZA2M_ANPR/ANPR_RZA2M_EBK/src/tensorflow_lite/tensorflow/lite/kernels/internal/reference\prelu.h ****       for (int x = 0; x < extended_output_shape.Dims(2); ++x) {
 2699              		.loc 5 43 0
 2700 0d04 080053E1 		cmp	r3, r8
 2701 0d08 B80400DA 		ble	.L229
 2702              	.LVL318:
 2703              	.LBB1856:
 2704              	.LBB1835:
 2705              	.LBB1828:
 215:C:/Renesas/e2studio_2021_01_workspace_RZA2M_ANPR/ANPR_RZA2M_EBK/src/tensorflow_lite/tensorflow/lite/kernels/internal\types.h ****     return size_ > kMaxSmallSize ? dims_pointer_[i] : dims_[i];
 2706              		.loc 3 215 0
 2707 0d0c 10309DE5 		ldr	r3, [sp, #16]
 2708 0d10 030053E3 		cmp	r3, #3
 2709 0d14 E504000A 		beq	.L936
 216:C:/Renesas/e2studio_2021_01_workspace_RZA2M_ANPR/ANPR_RZA2M_EBK/src/tensorflow_lite/tensorflow/lite/kernels/internal\types.h ****   }
 2710              		.loc 3 216 0
 2711 0d18 050053E3 		cmp	r3, #5
 215:C:/Renesas/e2studio_2021_01_workspace_RZA2M_ANPR/ANPR_RZA2M_EBK/src/tensorflow_lite/tensorflow/lite/kernels/internal\types.h ****     return size_ > kMaxSmallSize ? dims_pointer_[i] : dims_[i];
 2712              		.loc 3 215 0
 2713 0d1c 54309DE5 		ldr	r3, [sp, #84]
 2714 0d20 50C09DE5 		ldr	ip, [sp, #80]
 2715 0d24 0020A0E3 		mov	r2, #0
 2716              	.LVL319:
 2717 0d28 4CE09DE5 		ldr	lr, [sp, #76]
 2718 0d2c 04308DE5 		str	r3, [sp, #4]
 216:C:/Renesas/e2studio_2021_01_workspace_RZA2M_ANPR/ANPR_RZA2M_EBK/src/tensorflow_lite/tensorflow/lite/kernels/internal\types.h ****   }
 2719              		.loc 3 216 0
 2720 0d30 260000DA 		ble	.L454
 2721 0d34 5E0000EA 		b	.L937
 2722              	.LVL320:
 2723              	.L756:
 2724              	.LBE1828:
 2725              	.LBE1835:
 2726              	.LBB1836:
 2727              	.LBB1806:
 2728              	.LBB1763:
 2729              	.LBB1764:
 2730              	.LBB1765:
 2731              	.LBB1766:
 337:C:/Renesas/e2studio_2021_01_workspace_RZA2M_ANPR/ANPR_RZA2M_EBK/src/tensorflow_lite/third_party/gemmlowp/fixedpoint\fixedpoint.h ****   return overflow ? std::numeric_limits<std::int32_t>::max() : ab_x2_high32;
 2732              		.loc 6 337 0
 2733 0d38 004094E0 		adds	r4, r4, r0
 2734              	.LVL321:
 2735 0d3c 0150A5E0 		adc	r5, r5, r1
 2736 0d40 0010A0E3 		mov	r1, #0
 2737 0d44 C50FA0E1 		asr	r0, r5, #31
 2738              	.LVL322:
 2739 0d48 0201C0E3 		bic	r0, r0, #-2147483648
 2740 0d4c 040090E0 		adds	r0, r0, r4
 2741 0d50 A00FA0E1 		lsr	r0, r0, #31
 2742 0d54 0510A1E0 		adc	r1, r1, r5
 2743 0d58 810080E1 		orr	r0, r0, r1, lsl #1
 2744              	.L392:
 2745              	.LVL323:
 2746              	.LBE1766:
 2747              	.LBE1765:
 2748              	.LBB1769:
 2749              	.LBB1770:
 359:C:/Renesas/e2studio_2021_01_workspace_RZA2M_ANPR/ANPR_RZA2M_EBK/src/tensorflow_lite/third_party/gemmlowp/fixedpoint\fixedpoint.h ****   const IntegerType mask = Dup<IntegerType>((1ll << exponent) - 1);
 2750              		.loc 6 359 0
 2751 0d5c 1F0053E3 		cmp	r3, #31
 2752 0d60 050500CA 		bgt	.L938
 2753              		.loc 6 360 0
 2754 0d64 903B02EE 		vmov.32	d18[0], r3
 2755              	.LBB1771:
 2756              	.LBB1772:
 141:C:/Renesas/e2studio_2021_01_workspace_RZA2M_ANPR/ANPR_RZA2M_EBK/src/tensorflow_lite/third_party/gemmlowp/fixedpoint\fixedpoint.h **** }
 2757              		.loc 6 141 0
 2758 0d68 5033A0E1 		asr	r3, r0, r3
 2759              	.LVL324:
 2760              	.LBE1772:
 2761              	.LBE1771:
 2762              		.loc 6 360 0
 2763 0d6c A01472F3 		vshl.u64	d17, d16, d18
 2764 0d70 314B55EC 		vmov	r4, r5, d17	@ int
 2765 0d74 015044E2 		sub	r5, r4, #1
 2766              	.LBB1773:
 2767              	.LBB1774:
 141:C:/Renesas/e2studio_2021_01_workspace_RZA2M_ANPR/ANPR_RZA2M_EBK/src/tensorflow_lite/third_party/gemmlowp/fixedpoint\fixedpoint.h **** }
 2768              		.loc 6 141 0
 2769 0d78 C540A0E1 		asr	r4, r5, #1
 2770              	.LBE1774:
 2771              	.LBE1773:
 2772              	.LBB1775:
 2773              	.LBB1776:
  71:C:/Renesas/e2studio_2021_01_workspace_RZA2M_ANPR/ANPR_RZA2M_EBK/src/tensorflow_lite/third_party/gemmlowp/fixedpoint\fixedpoint.h **** }
 2774              		.loc 6 71 0
 2775 0d7c 005005E0 		and	r5, r5, r0
 2776              	.LBE1776:
 2777              	.LBE1775:
 2778              	.LBB1777:
 2779              	.LBB1778:
  95:C:/Renesas/e2studio_2021_01_workspace_RZA2M_ANPR/ANPR_RZA2M_EBK/src/tensorflow_lite/third_party/gemmlowp/fixedpoint\fixedpoint.h **** }
 2780              		.loc 6 95 0
 2781 0d80 A00F84E0 		add	r0, r4, r0, lsr #31
 2782              	.LBE1778:
 2783              	.LBE1777:
 2784              	.LBB1779:
 2785              	.LBB1780:
 2786 0d84 000055E1 		cmp	r5, r0
 2787 0d88 0300A0D1 		movle	r0, r3
 2788 0d8c 010083C2 		addgt	r0, r3, #1
 2789              	.LVL325:
 2790              	.L246:
 2791              	.LBE1780:
 2792              	.LBE1779:
 2793              	.LBE1770:
 2794              	.LBE1769:
 2795              	.LBE1764:
 2796              	.LBE1763:
 2797              	.LBE1806:
  44:C:/Renesas/e2studio_2021_01_workspace_RZA2M_ANPR/ANPR_RZA2M_EBK/src/tensorflow_lite/tensorflow/lite/kernels/internal/reference\prelu.h ****         for (int c = 0; c < extended_output_shape.Dims(3); ++c) {
  45:C:/Renesas/e2studio_2021_01_workspace_RZA2M_ANPR/ANPR_RZA2M_EBK/src/tensorflow_lite/tensorflow/lite/kernels/internal/reference\prelu.h ****           int output_index = Offset(extended_output_shape, b, y, x, c);
  46:C:/Renesas/e2studio_2021_01_workspace_RZA2M_ANPR/ANPR_RZA2M_EBK/src/tensorflow_lite/tensorflow/lite/kernels/internal/reference\prelu.h ****           int input_index = SubscriptToIndex(desc1, b, y, x, c);
  47:C:/Renesas/e2studio_2021_01_workspace_RZA2M_ANPR/ANPR_RZA2M_EBK/src/tensorflow_lite/tensorflow/lite/kernels/internal/reference\prelu.h ****           const int32_t input_value =
  48:C:/Renesas/e2studio_2021_01_workspace_RZA2M_ANPR/ANPR_RZA2M_EBK/src/tensorflow_lite/tensorflow/lite/kernels/internal/reference\prelu.h ****               params.input_offset + input_data[input_index];
  49:C:/Renesas/e2studio_2021_01_workspace_RZA2M_ANPR/ANPR_RZA2M_EBK/src/tensorflow_lite/tensorflow/lite/kernels/internal/reference\prelu.h ****           int32_t output_value;
  50:C:/Renesas/e2studio_2021_01_workspace_RZA2M_ANPR/ANPR_RZA2M_EBK/src/tensorflow_lite/tensorflow/lite/kernels/internal/reference\prelu.h ****           if (input_value >= 0) {
  51:C:/Renesas/e2studio_2021_01_workspace_RZA2M_ANPR/ANPR_RZA2M_EBK/src/tensorflow_lite/tensorflow/lite/kernels/internal/reference\prelu.h ****             output_value = MultiplyByQuantizedMultiplier(
  52:C:/Renesas/e2studio_2021_01_workspace_RZA2M_ANPR/ANPR_RZA2M_EBK/src/tensorflow_lite/tensorflow/lite/kernels/internal/reference\prelu.h ****                 input_value, params.output_multiplier_1, params.output_shift_1);
  53:C:/Renesas/e2studio_2021_01_workspace_RZA2M_ANPR/ANPR_RZA2M_EBK/src/tensorflow_lite/tensorflow/lite/kernels/internal/reference\prelu.h ****           } else {
  54:C:/Renesas/e2studio_2021_01_workspace_RZA2M_ANPR/ANPR_RZA2M_EBK/src/tensorflow_lite/tensorflow/lite/kernels/internal/reference\prelu.h ****             auto alpha_index = SubscriptToIndex(desc2, b, y, x, c);
  55:C:/Renesas/e2studio_2021_01_workspace_RZA2M_ANPR/ANPR_RZA2M_EBK/src/tensorflow_lite/tensorflow/lite/kernels/internal/reference\prelu.h ****             const int32_t alpha_value =
  56:C:/Renesas/e2studio_2021_01_workspace_RZA2M_ANPR/ANPR_RZA2M_EBK/src/tensorflow_lite/tensorflow/lite/kernels/internal/reference\prelu.h ****                 params.alpha_offset + alpha_data[alpha_index];
  57:C:/Renesas/e2studio_2021_01_workspace_RZA2M_ANPR/ANPR_RZA2M_EBK/src/tensorflow_lite/tensorflow/lite/kernels/internal/reference\prelu.h **** 
  58:C:/Renesas/e2studio_2021_01_workspace_RZA2M_ANPR/ANPR_RZA2M_EBK/src/tensorflow_lite/tensorflow/lite/kernels/internal/reference\prelu.h ****             output_value = MultiplyByQuantizedMultiplier(
  59:C:/Renesas/e2studio_2021_01_workspace_RZA2M_ANPR/ANPR_RZA2M_EBK/src/tensorflow_lite/tensorflow/lite/kernels/internal/reference\prelu.h ****                 input_value * alpha_value, params.output_multiplier_2,
  60:C:/Renesas/e2studio_2021_01_workspace_RZA2M_ANPR/ANPR_RZA2M_EBK/src/tensorflow_lite/tensorflow/lite/kernels/internal/reference\prelu.h ****                 params.output_shift_2);
  61:C:/Renesas/e2studio_2021_01_workspace_RZA2M_ANPR/ANPR_RZA2M_EBK/src/tensorflow_lite/tensorflow/lite/kernels/internal/reference\prelu.h ****           }
  62:C:/Renesas/e2studio_2021_01_workspace_RZA2M_ANPR/ANPR_RZA2M_EBK/src/tensorflow_lite/tensorflow/lite/kernels/internal/reference\prelu.h ****           output_value += params.output_offset;
 2798              		.loc 5 62 0
 2799 0d90 08409AE5 		ldr	r4, [r10, #8]
 2800 0d94 040080E0 		add	r0, r0, r4
 2801              	.LVL326:
 2802              	.LBB1807:
 2803              	.LBB1808:
 2804              		.file 7 "c:\\program files (x86)\\gnu tools arm embedded\\6 2017-q2-update\\arm-none-eabi\\include
   1:c:\program files (x86)\gnu tools arm embedded\6 2017-q2-update\arm-none-eabi\include\c++\6.3.1\bits\stl_algobase.h **** // Core algorithmic facilities -*- C++ -*-
   2:c:\program files (x86)\gnu tools arm embedded\6 2017-q2-update\arm-none-eabi\include\c++\6.3.1\bits\stl_algobase.h **** 
   3:c:\program files (x86)\gnu tools arm embedded\6 2017-q2-update\arm-none-eabi\include\c++\6.3.1\bits\stl_algobase.h **** // Copyright (C) 2001-2016 Free Software Foundation, Inc.
   4:c:\program files (x86)\gnu tools arm embedded\6 2017-q2-update\arm-none-eabi\include\c++\6.3.1\bits\stl_algobase.h **** //
   5:c:\program files (x86)\gnu tools arm embedded\6 2017-q2-update\arm-none-eabi\include\c++\6.3.1\bits\stl_algobase.h **** // This file is part of the GNU ISO C++ Library.  This library is free
   6:c:\program files (x86)\gnu tools arm embedded\6 2017-q2-update\arm-none-eabi\include\c++\6.3.1\bits\stl_algobase.h **** // software; you can redistribute it and/or modify it under the
   7:c:\program files (x86)\gnu tools arm embedded\6 2017-q2-update\arm-none-eabi\include\c++\6.3.1\bits\stl_algobase.h **** // terms of the GNU General Public License as published by the
   8:c:\program files (x86)\gnu tools arm embedded\6 2017-q2-update\arm-none-eabi\include\c++\6.3.1\bits\stl_algobase.h **** // Free Software Foundation; either version 3, or (at your option)
   9:c:\program files (x86)\gnu tools arm embedded\6 2017-q2-update\arm-none-eabi\include\c++\6.3.1\bits\stl_algobase.h **** // any later version.
  10:c:\program files (x86)\gnu tools arm embedded\6 2017-q2-update\arm-none-eabi\include\c++\6.3.1\bits\stl_algobase.h **** 
  11:c:\program files (x86)\gnu tools arm embedded\6 2017-q2-update\arm-none-eabi\include\c++\6.3.1\bits\stl_algobase.h **** // This library is distributed in the hope that it will be useful,
  12:c:\program files (x86)\gnu tools arm embedded\6 2017-q2-update\arm-none-eabi\include\c++\6.3.1\bits\stl_algobase.h **** // but WITHOUT ANY WARRANTY; without even the implied warranty of
  13:c:\program files (x86)\gnu tools arm embedded\6 2017-q2-update\arm-none-eabi\include\c++\6.3.1\bits\stl_algobase.h **** // MERCHANTABILITY or FITNESS FOR A PARTICULAR PURPOSE.  See the
  14:c:\program files (x86)\gnu tools arm embedded\6 2017-q2-update\arm-none-eabi\include\c++\6.3.1\bits\stl_algobase.h **** // GNU General Public License for more details.
  15:c:\program files (x86)\gnu tools arm embedded\6 2017-q2-update\arm-none-eabi\include\c++\6.3.1\bits\stl_algobase.h **** 
  16:c:\program files (x86)\gnu tools arm embedded\6 2017-q2-update\arm-none-eabi\include\c++\6.3.1\bits\stl_algobase.h **** // Under Section 7 of GPL version 3, you are granted additional
  17:c:\program files (x86)\gnu tools arm embedded\6 2017-q2-update\arm-none-eabi\include\c++\6.3.1\bits\stl_algobase.h **** // permissions described in the GCC Runtime Library Exception, version
  18:c:\program files (x86)\gnu tools arm embedded\6 2017-q2-update\arm-none-eabi\include\c++\6.3.1\bits\stl_algobase.h **** // 3.1, as published by the Free Software Foundation.
  19:c:\program files (x86)\gnu tools arm embedded\6 2017-q2-update\arm-none-eabi\include\c++\6.3.1\bits\stl_algobase.h **** 
  20:c:\program files (x86)\gnu tools arm embedded\6 2017-q2-update\arm-none-eabi\include\c++\6.3.1\bits\stl_algobase.h **** // You should have received a copy of the GNU General Public License and
  21:c:\program files (x86)\gnu tools arm embedded\6 2017-q2-update\arm-none-eabi\include\c++\6.3.1\bits\stl_algobase.h **** // a copy of the GCC Runtime Library Exception along with this program;
  22:c:\program files (x86)\gnu tools arm embedded\6 2017-q2-update\arm-none-eabi\include\c++\6.3.1\bits\stl_algobase.h **** // see the files COPYING3 and COPYING.RUNTIME respectively.  If not, see
  23:c:\program files (x86)\gnu tools arm embedded\6 2017-q2-update\arm-none-eabi\include\c++\6.3.1\bits\stl_algobase.h **** // <http://www.gnu.org/licenses/>.
  24:c:\program files (x86)\gnu tools arm embedded\6 2017-q2-update\arm-none-eabi\include\c++\6.3.1\bits\stl_algobase.h **** 
  25:c:\program files (x86)\gnu tools arm embedded\6 2017-q2-update\arm-none-eabi\include\c++\6.3.1\bits\stl_algobase.h **** /*
  26:c:\program files (x86)\gnu tools arm embedded\6 2017-q2-update\arm-none-eabi\include\c++\6.3.1\bits\stl_algobase.h ****  *
  27:c:\program files (x86)\gnu tools arm embedded\6 2017-q2-update\arm-none-eabi\include\c++\6.3.1\bits\stl_algobase.h ****  * Copyright (c) 1994
  28:c:\program files (x86)\gnu tools arm embedded\6 2017-q2-update\arm-none-eabi\include\c++\6.3.1\bits\stl_algobase.h ****  * Hewlett-Packard Company
  29:c:\program files (x86)\gnu tools arm embedded\6 2017-q2-update\arm-none-eabi\include\c++\6.3.1\bits\stl_algobase.h ****  *
  30:c:\program files (x86)\gnu tools arm embedded\6 2017-q2-update\arm-none-eabi\include\c++\6.3.1\bits\stl_algobase.h ****  * Permission to use, copy, modify, distribute and sell this software
  31:c:\program files (x86)\gnu tools arm embedded\6 2017-q2-update\arm-none-eabi\include\c++\6.3.1\bits\stl_algobase.h ****  * and its documentation for any purpose is hereby granted without fee,
  32:c:\program files (x86)\gnu tools arm embedded\6 2017-q2-update\arm-none-eabi\include\c++\6.3.1\bits\stl_algobase.h ****  * provided that the above copyright notice appear in all copies and
  33:c:\program files (x86)\gnu tools arm embedded\6 2017-q2-update\arm-none-eabi\include\c++\6.3.1\bits\stl_algobase.h ****  * that both that copyright notice and this permission notice appear
  34:c:\program files (x86)\gnu tools arm embedded\6 2017-q2-update\arm-none-eabi\include\c++\6.3.1\bits\stl_algobase.h ****  * in supporting documentation.  Hewlett-Packard Company makes no
  35:c:\program files (x86)\gnu tools arm embedded\6 2017-q2-update\arm-none-eabi\include\c++\6.3.1\bits\stl_algobase.h ****  * representations about the suitability of this software for any
  36:c:\program files (x86)\gnu tools arm embedded\6 2017-q2-update\arm-none-eabi\include\c++\6.3.1\bits\stl_algobase.h ****  * purpose.  It is provided "as is" without express or implied warranty.
  37:c:\program files (x86)\gnu tools arm embedded\6 2017-q2-update\arm-none-eabi\include\c++\6.3.1\bits\stl_algobase.h ****  *
  38:c:\program files (x86)\gnu tools arm embedded\6 2017-q2-update\arm-none-eabi\include\c++\6.3.1\bits\stl_algobase.h ****  *
  39:c:\program files (x86)\gnu tools arm embedded\6 2017-q2-update\arm-none-eabi\include\c++\6.3.1\bits\stl_algobase.h ****  * Copyright (c) 1996-1998
  40:c:\program files (x86)\gnu tools arm embedded\6 2017-q2-update\arm-none-eabi\include\c++\6.3.1\bits\stl_algobase.h ****  * Silicon Graphics Computer Systems, Inc.
  41:c:\program files (x86)\gnu tools arm embedded\6 2017-q2-update\arm-none-eabi\include\c++\6.3.1\bits\stl_algobase.h ****  *
  42:c:\program files (x86)\gnu tools arm embedded\6 2017-q2-update\arm-none-eabi\include\c++\6.3.1\bits\stl_algobase.h ****  * Permission to use, copy, modify, distribute and sell this software
  43:c:\program files (x86)\gnu tools arm embedded\6 2017-q2-update\arm-none-eabi\include\c++\6.3.1\bits\stl_algobase.h ****  * and its documentation for any purpose is hereby granted without fee,
  44:c:\program files (x86)\gnu tools arm embedded\6 2017-q2-update\arm-none-eabi\include\c++\6.3.1\bits\stl_algobase.h ****  * provided that the above copyright notice appear in all copies and
  45:c:\program files (x86)\gnu tools arm embedded\6 2017-q2-update\arm-none-eabi\include\c++\6.3.1\bits\stl_algobase.h ****  * that both that copyright notice and this permission notice appear
  46:c:\program files (x86)\gnu tools arm embedded\6 2017-q2-update\arm-none-eabi\include\c++\6.3.1\bits\stl_algobase.h ****  * in supporting documentation.  Silicon Graphics makes no
  47:c:\program files (x86)\gnu tools arm embedded\6 2017-q2-update\arm-none-eabi\include\c++\6.3.1\bits\stl_algobase.h ****  * representations about the suitability of this software for any
  48:c:\program files (x86)\gnu tools arm embedded\6 2017-q2-update\arm-none-eabi\include\c++\6.3.1\bits\stl_algobase.h ****  * purpose.  It is provided "as is" without express or implied warranty.
  49:c:\program files (x86)\gnu tools arm embedded\6 2017-q2-update\arm-none-eabi\include\c++\6.3.1\bits\stl_algobase.h ****  */
  50:c:\program files (x86)\gnu tools arm embedded\6 2017-q2-update\arm-none-eabi\include\c++\6.3.1\bits\stl_algobase.h **** 
  51:c:\program files (x86)\gnu tools arm embedded\6 2017-q2-update\arm-none-eabi\include\c++\6.3.1\bits\stl_algobase.h **** /** @file bits/stl_algobase.h
  52:c:\program files (x86)\gnu tools arm embedded\6 2017-q2-update\arm-none-eabi\include\c++\6.3.1\bits\stl_algobase.h ****  *  This is an internal header file, included by other library headers.
  53:c:\program files (x86)\gnu tools arm embedded\6 2017-q2-update\arm-none-eabi\include\c++\6.3.1\bits\stl_algobase.h ****  *  Do not attempt to use it directly. @headername{algorithm}
  54:c:\program files (x86)\gnu tools arm embedded\6 2017-q2-update\arm-none-eabi\include\c++\6.3.1\bits\stl_algobase.h ****  */
  55:c:\program files (x86)\gnu tools arm embedded\6 2017-q2-update\arm-none-eabi\include\c++\6.3.1\bits\stl_algobase.h **** 
  56:c:\program files (x86)\gnu tools arm embedded\6 2017-q2-update\arm-none-eabi\include\c++\6.3.1\bits\stl_algobase.h **** #ifndef _STL_ALGOBASE_H
  57:c:\program files (x86)\gnu tools arm embedded\6 2017-q2-update\arm-none-eabi\include\c++\6.3.1\bits\stl_algobase.h **** #define _STL_ALGOBASE_H 1
  58:c:\program files (x86)\gnu tools arm embedded\6 2017-q2-update\arm-none-eabi\include\c++\6.3.1\bits\stl_algobase.h **** 
  59:c:\program files (x86)\gnu tools arm embedded\6 2017-q2-update\arm-none-eabi\include\c++\6.3.1\bits\stl_algobase.h **** #include <bits/c++config.h>
  60:c:\program files (x86)\gnu tools arm embedded\6 2017-q2-update\arm-none-eabi\include\c++\6.3.1\bits\stl_algobase.h **** #include <bits/functexcept.h>
  61:c:\program files (x86)\gnu tools arm embedded\6 2017-q2-update\arm-none-eabi\include\c++\6.3.1\bits\stl_algobase.h **** #include <bits/cpp_type_traits.h>
  62:c:\program files (x86)\gnu tools arm embedded\6 2017-q2-update\arm-none-eabi\include\c++\6.3.1\bits\stl_algobase.h **** #include <ext/type_traits.h>
  63:c:\program files (x86)\gnu tools arm embedded\6 2017-q2-update\arm-none-eabi\include\c++\6.3.1\bits\stl_algobase.h **** #include <ext/numeric_traits.h>
  64:c:\program files (x86)\gnu tools arm embedded\6 2017-q2-update\arm-none-eabi\include\c++\6.3.1\bits\stl_algobase.h **** #include <bits/stl_pair.h>
  65:c:\program files (x86)\gnu tools arm embedded\6 2017-q2-update\arm-none-eabi\include\c++\6.3.1\bits\stl_algobase.h **** #include <bits/stl_iterator_base_types.h>
  66:c:\program files (x86)\gnu tools arm embedded\6 2017-q2-update\arm-none-eabi\include\c++\6.3.1\bits\stl_algobase.h **** #include <bits/stl_iterator_base_funcs.h>
  67:c:\program files (x86)\gnu tools arm embedded\6 2017-q2-update\arm-none-eabi\include\c++\6.3.1\bits\stl_algobase.h **** #include <bits/stl_iterator.h>
  68:c:\program files (x86)\gnu tools arm embedded\6 2017-q2-update\arm-none-eabi\include\c++\6.3.1\bits\stl_algobase.h **** #include <bits/concept_check.h>
  69:c:\program files (x86)\gnu tools arm embedded\6 2017-q2-update\arm-none-eabi\include\c++\6.3.1\bits\stl_algobase.h **** #include <debug/debug.h>
  70:c:\program files (x86)\gnu tools arm embedded\6 2017-q2-update\arm-none-eabi\include\c++\6.3.1\bits\stl_algobase.h **** #include <bits/move.h> // For std::swap and _GLIBCXX_MOVE
  71:c:\program files (x86)\gnu tools arm embedded\6 2017-q2-update\arm-none-eabi\include\c++\6.3.1\bits\stl_algobase.h **** #include <bits/predefined_ops.h>
  72:c:\program files (x86)\gnu tools arm embedded\6 2017-q2-update\arm-none-eabi\include\c++\6.3.1\bits\stl_algobase.h **** 
  73:c:\program files (x86)\gnu tools arm embedded\6 2017-q2-update\arm-none-eabi\include\c++\6.3.1\bits\stl_algobase.h **** namespace std _GLIBCXX_VISIBILITY(default)
  74:c:\program files (x86)\gnu tools arm embedded\6 2017-q2-update\arm-none-eabi\include\c++\6.3.1\bits\stl_algobase.h **** {
  75:c:\program files (x86)\gnu tools arm embedded\6 2017-q2-update\arm-none-eabi\include\c++\6.3.1\bits\stl_algobase.h **** _GLIBCXX_BEGIN_NAMESPACE_VERSION
  76:c:\program files (x86)\gnu tools arm embedded\6 2017-q2-update\arm-none-eabi\include\c++\6.3.1\bits\stl_algobase.h **** 
  77:c:\program files (x86)\gnu tools arm embedded\6 2017-q2-update\arm-none-eabi\include\c++\6.3.1\bits\stl_algobase.h **** #if __cplusplus < 201103L
  78:c:\program files (x86)\gnu tools arm embedded\6 2017-q2-update\arm-none-eabi\include\c++\6.3.1\bits\stl_algobase.h ****   // See http://gcc.gnu.org/ml/libstdc++/2004-08/msg00167.html: in a
  79:c:\program files (x86)\gnu tools arm embedded\6 2017-q2-update\arm-none-eabi\include\c++\6.3.1\bits\stl_algobase.h ****   // nutshell, we are partially implementing the resolution of DR 187,
  80:c:\program files (x86)\gnu tools arm embedded\6 2017-q2-update\arm-none-eabi\include\c++\6.3.1\bits\stl_algobase.h ****   // when it's safe, i.e., the value_types are equal.
  81:c:\program files (x86)\gnu tools arm embedded\6 2017-q2-update\arm-none-eabi\include\c++\6.3.1\bits\stl_algobase.h ****   template<bool _BoolType>
  82:c:\program files (x86)\gnu tools arm embedded\6 2017-q2-update\arm-none-eabi\include\c++\6.3.1\bits\stl_algobase.h ****     struct __iter_swap
  83:c:\program files (x86)\gnu tools arm embedded\6 2017-q2-update\arm-none-eabi\include\c++\6.3.1\bits\stl_algobase.h ****     {
  84:c:\program files (x86)\gnu tools arm embedded\6 2017-q2-update\arm-none-eabi\include\c++\6.3.1\bits\stl_algobase.h ****       template<typename _ForwardIterator1, typename _ForwardIterator2>
  85:c:\program files (x86)\gnu tools arm embedded\6 2017-q2-update\arm-none-eabi\include\c++\6.3.1\bits\stl_algobase.h ****         static void
  86:c:\program files (x86)\gnu tools arm embedded\6 2017-q2-update\arm-none-eabi\include\c++\6.3.1\bits\stl_algobase.h ****         iter_swap(_ForwardIterator1 __a, _ForwardIterator2 __b)
  87:c:\program files (x86)\gnu tools arm embedded\6 2017-q2-update\arm-none-eabi\include\c++\6.3.1\bits\stl_algobase.h ****         {
  88:c:\program files (x86)\gnu tools arm embedded\6 2017-q2-update\arm-none-eabi\include\c++\6.3.1\bits\stl_algobase.h ****           typedef typename iterator_traits<_ForwardIterator1>::value_type
  89:c:\program files (x86)\gnu tools arm embedded\6 2017-q2-update\arm-none-eabi\include\c++\6.3.1\bits\stl_algobase.h ****             _ValueType1;
  90:c:\program files (x86)\gnu tools arm embedded\6 2017-q2-update\arm-none-eabi\include\c++\6.3.1\bits\stl_algobase.h ****           _ValueType1 __tmp = _GLIBCXX_MOVE(*__a);
  91:c:\program files (x86)\gnu tools arm embedded\6 2017-q2-update\arm-none-eabi\include\c++\6.3.1\bits\stl_algobase.h ****           *__a = _GLIBCXX_MOVE(*__b);
  92:c:\program files (x86)\gnu tools arm embedded\6 2017-q2-update\arm-none-eabi\include\c++\6.3.1\bits\stl_algobase.h ****           *__b = _GLIBCXX_MOVE(__tmp);
  93:c:\program files (x86)\gnu tools arm embedded\6 2017-q2-update\arm-none-eabi\include\c++\6.3.1\bits\stl_algobase.h **** 	}
  94:c:\program files (x86)\gnu tools arm embedded\6 2017-q2-update\arm-none-eabi\include\c++\6.3.1\bits\stl_algobase.h ****     };
  95:c:\program files (x86)\gnu tools arm embedded\6 2017-q2-update\arm-none-eabi\include\c++\6.3.1\bits\stl_algobase.h **** 
  96:c:\program files (x86)\gnu tools arm embedded\6 2017-q2-update\arm-none-eabi\include\c++\6.3.1\bits\stl_algobase.h ****   template<>
  97:c:\program files (x86)\gnu tools arm embedded\6 2017-q2-update\arm-none-eabi\include\c++\6.3.1\bits\stl_algobase.h ****     struct __iter_swap<true>
  98:c:\program files (x86)\gnu tools arm embedded\6 2017-q2-update\arm-none-eabi\include\c++\6.3.1\bits\stl_algobase.h ****     {
  99:c:\program files (x86)\gnu tools arm embedded\6 2017-q2-update\arm-none-eabi\include\c++\6.3.1\bits\stl_algobase.h ****       template<typename _ForwardIterator1, typename _ForwardIterator2>
 100:c:\program files (x86)\gnu tools arm embedded\6 2017-q2-update\arm-none-eabi\include\c++\6.3.1\bits\stl_algobase.h ****         static void 
 101:c:\program files (x86)\gnu tools arm embedded\6 2017-q2-update\arm-none-eabi\include\c++\6.3.1\bits\stl_algobase.h ****         iter_swap(_ForwardIterator1 __a, _ForwardIterator2 __b)
 102:c:\program files (x86)\gnu tools arm embedded\6 2017-q2-update\arm-none-eabi\include\c++\6.3.1\bits\stl_algobase.h ****         {
 103:c:\program files (x86)\gnu tools arm embedded\6 2017-q2-update\arm-none-eabi\include\c++\6.3.1\bits\stl_algobase.h ****           swap(*__a, *__b);
 104:c:\program files (x86)\gnu tools arm embedded\6 2017-q2-update\arm-none-eabi\include\c++\6.3.1\bits\stl_algobase.h ****         }
 105:c:\program files (x86)\gnu tools arm embedded\6 2017-q2-update\arm-none-eabi\include\c++\6.3.1\bits\stl_algobase.h ****     };
 106:c:\program files (x86)\gnu tools arm embedded\6 2017-q2-update\arm-none-eabi\include\c++\6.3.1\bits\stl_algobase.h **** #endif
 107:c:\program files (x86)\gnu tools arm embedded\6 2017-q2-update\arm-none-eabi\include\c++\6.3.1\bits\stl_algobase.h **** 
 108:c:\program files (x86)\gnu tools arm embedded\6 2017-q2-update\arm-none-eabi\include\c++\6.3.1\bits\stl_algobase.h ****   /**
 109:c:\program files (x86)\gnu tools arm embedded\6 2017-q2-update\arm-none-eabi\include\c++\6.3.1\bits\stl_algobase.h ****    *  @brief Swaps the contents of two iterators.
 110:c:\program files (x86)\gnu tools arm embedded\6 2017-q2-update\arm-none-eabi\include\c++\6.3.1\bits\stl_algobase.h ****    *  @ingroup mutating_algorithms
 111:c:\program files (x86)\gnu tools arm embedded\6 2017-q2-update\arm-none-eabi\include\c++\6.3.1\bits\stl_algobase.h ****    *  @param  __a  An iterator.
 112:c:\program files (x86)\gnu tools arm embedded\6 2017-q2-update\arm-none-eabi\include\c++\6.3.1\bits\stl_algobase.h ****    *  @param  __b  Another iterator.
 113:c:\program files (x86)\gnu tools arm embedded\6 2017-q2-update\arm-none-eabi\include\c++\6.3.1\bits\stl_algobase.h ****    *  @return   Nothing.
 114:c:\program files (x86)\gnu tools arm embedded\6 2017-q2-update\arm-none-eabi\include\c++\6.3.1\bits\stl_algobase.h ****    *
 115:c:\program files (x86)\gnu tools arm embedded\6 2017-q2-update\arm-none-eabi\include\c++\6.3.1\bits\stl_algobase.h ****    *  This function swaps the values pointed to by two iterators, not the
 116:c:\program files (x86)\gnu tools arm embedded\6 2017-q2-update\arm-none-eabi\include\c++\6.3.1\bits\stl_algobase.h ****    *  iterators themselves.
 117:c:\program files (x86)\gnu tools arm embedded\6 2017-q2-update\arm-none-eabi\include\c++\6.3.1\bits\stl_algobase.h ****   */
 118:c:\program files (x86)\gnu tools arm embedded\6 2017-q2-update\arm-none-eabi\include\c++\6.3.1\bits\stl_algobase.h ****   template<typename _ForwardIterator1, typename _ForwardIterator2>
 119:c:\program files (x86)\gnu tools arm embedded\6 2017-q2-update\arm-none-eabi\include\c++\6.3.1\bits\stl_algobase.h ****     inline void
 120:c:\program files (x86)\gnu tools arm embedded\6 2017-q2-update\arm-none-eabi\include\c++\6.3.1\bits\stl_algobase.h ****     iter_swap(_ForwardIterator1 __a, _ForwardIterator2 __b)
 121:c:\program files (x86)\gnu tools arm embedded\6 2017-q2-update\arm-none-eabi\include\c++\6.3.1\bits\stl_algobase.h ****     {
 122:c:\program files (x86)\gnu tools arm embedded\6 2017-q2-update\arm-none-eabi\include\c++\6.3.1\bits\stl_algobase.h ****       // concept requirements
 123:c:\program files (x86)\gnu tools arm embedded\6 2017-q2-update\arm-none-eabi\include\c++\6.3.1\bits\stl_algobase.h ****       __glibcxx_function_requires(_Mutable_ForwardIteratorConcept<
 124:c:\program files (x86)\gnu tools arm embedded\6 2017-q2-update\arm-none-eabi\include\c++\6.3.1\bits\stl_algobase.h **** 				  _ForwardIterator1>)
 125:c:\program files (x86)\gnu tools arm embedded\6 2017-q2-update\arm-none-eabi\include\c++\6.3.1\bits\stl_algobase.h ****       __glibcxx_function_requires(_Mutable_ForwardIteratorConcept<
 126:c:\program files (x86)\gnu tools arm embedded\6 2017-q2-update\arm-none-eabi\include\c++\6.3.1\bits\stl_algobase.h **** 				  _ForwardIterator2>)
 127:c:\program files (x86)\gnu tools arm embedded\6 2017-q2-update\arm-none-eabi\include\c++\6.3.1\bits\stl_algobase.h **** 
 128:c:\program files (x86)\gnu tools arm embedded\6 2017-q2-update\arm-none-eabi\include\c++\6.3.1\bits\stl_algobase.h **** #if __cplusplus < 201103L
 129:c:\program files (x86)\gnu tools arm embedded\6 2017-q2-update\arm-none-eabi\include\c++\6.3.1\bits\stl_algobase.h ****       typedef typename iterator_traits<_ForwardIterator1>::value_type
 130:c:\program files (x86)\gnu tools arm embedded\6 2017-q2-update\arm-none-eabi\include\c++\6.3.1\bits\stl_algobase.h **** 	_ValueType1;
 131:c:\program files (x86)\gnu tools arm embedded\6 2017-q2-update\arm-none-eabi\include\c++\6.3.1\bits\stl_algobase.h ****       typedef typename iterator_traits<_ForwardIterator2>::value_type
 132:c:\program files (x86)\gnu tools arm embedded\6 2017-q2-update\arm-none-eabi\include\c++\6.3.1\bits\stl_algobase.h **** 	_ValueType2;
 133:c:\program files (x86)\gnu tools arm embedded\6 2017-q2-update\arm-none-eabi\include\c++\6.3.1\bits\stl_algobase.h **** 
 134:c:\program files (x86)\gnu tools arm embedded\6 2017-q2-update\arm-none-eabi\include\c++\6.3.1\bits\stl_algobase.h ****       __glibcxx_function_requires(_ConvertibleConcept<_ValueType1,
 135:c:\program files (x86)\gnu tools arm embedded\6 2017-q2-update\arm-none-eabi\include\c++\6.3.1\bits\stl_algobase.h **** 				  _ValueType2>)
 136:c:\program files (x86)\gnu tools arm embedded\6 2017-q2-update\arm-none-eabi\include\c++\6.3.1\bits\stl_algobase.h ****       __glibcxx_function_requires(_ConvertibleConcept<_ValueType2,
 137:c:\program files (x86)\gnu tools arm embedded\6 2017-q2-update\arm-none-eabi\include\c++\6.3.1\bits\stl_algobase.h **** 				  _ValueType1>)
 138:c:\program files (x86)\gnu tools arm embedded\6 2017-q2-update\arm-none-eabi\include\c++\6.3.1\bits\stl_algobase.h **** 
 139:c:\program files (x86)\gnu tools arm embedded\6 2017-q2-update\arm-none-eabi\include\c++\6.3.1\bits\stl_algobase.h ****       typedef typename iterator_traits<_ForwardIterator1>::reference
 140:c:\program files (x86)\gnu tools arm embedded\6 2017-q2-update\arm-none-eabi\include\c++\6.3.1\bits\stl_algobase.h **** 	_ReferenceType1;
 141:c:\program files (x86)\gnu tools arm embedded\6 2017-q2-update\arm-none-eabi\include\c++\6.3.1\bits\stl_algobase.h ****       typedef typename iterator_traits<_ForwardIterator2>::reference
 142:c:\program files (x86)\gnu tools arm embedded\6 2017-q2-update\arm-none-eabi\include\c++\6.3.1\bits\stl_algobase.h **** 	_ReferenceType2;
 143:c:\program files (x86)\gnu tools arm embedded\6 2017-q2-update\arm-none-eabi\include\c++\6.3.1\bits\stl_algobase.h ****       std::__iter_swap<__are_same<_ValueType1, _ValueType2>::__value
 144:c:\program files (x86)\gnu tools arm embedded\6 2017-q2-update\arm-none-eabi\include\c++\6.3.1\bits\stl_algobase.h **** 	&& __are_same<_ValueType1&, _ReferenceType1>::__value
 145:c:\program files (x86)\gnu tools arm embedded\6 2017-q2-update\arm-none-eabi\include\c++\6.3.1\bits\stl_algobase.h **** 	&& __are_same<_ValueType2&, _ReferenceType2>::__value>::
 146:c:\program files (x86)\gnu tools arm embedded\6 2017-q2-update\arm-none-eabi\include\c++\6.3.1\bits\stl_algobase.h **** 	iter_swap(__a, __b);
 147:c:\program files (x86)\gnu tools arm embedded\6 2017-q2-update\arm-none-eabi\include\c++\6.3.1\bits\stl_algobase.h **** #else
 148:c:\program files (x86)\gnu tools arm embedded\6 2017-q2-update\arm-none-eabi\include\c++\6.3.1\bits\stl_algobase.h ****       swap(*__a, *__b);
 149:c:\program files (x86)\gnu tools arm embedded\6 2017-q2-update\arm-none-eabi\include\c++\6.3.1\bits\stl_algobase.h **** #endif
 150:c:\program files (x86)\gnu tools arm embedded\6 2017-q2-update\arm-none-eabi\include\c++\6.3.1\bits\stl_algobase.h ****     }
 151:c:\program files (x86)\gnu tools arm embedded\6 2017-q2-update\arm-none-eabi\include\c++\6.3.1\bits\stl_algobase.h **** 
 152:c:\program files (x86)\gnu tools arm embedded\6 2017-q2-update\arm-none-eabi\include\c++\6.3.1\bits\stl_algobase.h ****   /**
 153:c:\program files (x86)\gnu tools arm embedded\6 2017-q2-update\arm-none-eabi\include\c++\6.3.1\bits\stl_algobase.h ****    *  @brief Swap the elements of two sequences.
 154:c:\program files (x86)\gnu tools arm embedded\6 2017-q2-update\arm-none-eabi\include\c++\6.3.1\bits\stl_algobase.h ****    *  @ingroup mutating_algorithms
 155:c:\program files (x86)\gnu tools arm embedded\6 2017-q2-update\arm-none-eabi\include\c++\6.3.1\bits\stl_algobase.h ****    *  @param  __first1  A forward iterator.
 156:c:\program files (x86)\gnu tools arm embedded\6 2017-q2-update\arm-none-eabi\include\c++\6.3.1\bits\stl_algobase.h ****    *  @param  __last1   A forward iterator.
 157:c:\program files (x86)\gnu tools arm embedded\6 2017-q2-update\arm-none-eabi\include\c++\6.3.1\bits\stl_algobase.h ****    *  @param  __first2  A forward iterator.
 158:c:\program files (x86)\gnu tools arm embedded\6 2017-q2-update\arm-none-eabi\include\c++\6.3.1\bits\stl_algobase.h ****    *  @return   An iterator equal to @p first2+(last1-first1).
 159:c:\program files (x86)\gnu tools arm embedded\6 2017-q2-update\arm-none-eabi\include\c++\6.3.1\bits\stl_algobase.h ****    *
 160:c:\program files (x86)\gnu tools arm embedded\6 2017-q2-update\arm-none-eabi\include\c++\6.3.1\bits\stl_algobase.h ****    *  Swaps each element in the range @p [first1,last1) with the
 161:c:\program files (x86)\gnu tools arm embedded\6 2017-q2-update\arm-none-eabi\include\c++\6.3.1\bits\stl_algobase.h ****    *  corresponding element in the range @p [first2,(last1-first1)).
 162:c:\program files (x86)\gnu tools arm embedded\6 2017-q2-update\arm-none-eabi\include\c++\6.3.1\bits\stl_algobase.h ****    *  The ranges must not overlap.
 163:c:\program files (x86)\gnu tools arm embedded\6 2017-q2-update\arm-none-eabi\include\c++\6.3.1\bits\stl_algobase.h ****   */
 164:c:\program files (x86)\gnu tools arm embedded\6 2017-q2-update\arm-none-eabi\include\c++\6.3.1\bits\stl_algobase.h ****   template<typename _ForwardIterator1, typename _ForwardIterator2>
 165:c:\program files (x86)\gnu tools arm embedded\6 2017-q2-update\arm-none-eabi\include\c++\6.3.1\bits\stl_algobase.h ****     _ForwardIterator2
 166:c:\program files (x86)\gnu tools arm embedded\6 2017-q2-update\arm-none-eabi\include\c++\6.3.1\bits\stl_algobase.h ****     swap_ranges(_ForwardIterator1 __first1, _ForwardIterator1 __last1,
 167:c:\program files (x86)\gnu tools arm embedded\6 2017-q2-update\arm-none-eabi\include\c++\6.3.1\bits\stl_algobase.h **** 		_ForwardIterator2 __first2)
 168:c:\program files (x86)\gnu tools arm embedded\6 2017-q2-update\arm-none-eabi\include\c++\6.3.1\bits\stl_algobase.h ****     {
 169:c:\program files (x86)\gnu tools arm embedded\6 2017-q2-update\arm-none-eabi\include\c++\6.3.1\bits\stl_algobase.h ****       // concept requirements
 170:c:\program files (x86)\gnu tools arm embedded\6 2017-q2-update\arm-none-eabi\include\c++\6.3.1\bits\stl_algobase.h ****       __glibcxx_function_requires(_Mutable_ForwardIteratorConcept<
 171:c:\program files (x86)\gnu tools arm embedded\6 2017-q2-update\arm-none-eabi\include\c++\6.3.1\bits\stl_algobase.h **** 				  _ForwardIterator1>)
 172:c:\program files (x86)\gnu tools arm embedded\6 2017-q2-update\arm-none-eabi\include\c++\6.3.1\bits\stl_algobase.h ****       __glibcxx_function_requires(_Mutable_ForwardIteratorConcept<
 173:c:\program files (x86)\gnu tools arm embedded\6 2017-q2-update\arm-none-eabi\include\c++\6.3.1\bits\stl_algobase.h **** 				  _ForwardIterator2>)
 174:c:\program files (x86)\gnu tools arm embedded\6 2017-q2-update\arm-none-eabi\include\c++\6.3.1\bits\stl_algobase.h ****       __glibcxx_requires_valid_range(__first1, __last1);
 175:c:\program files (x86)\gnu tools arm embedded\6 2017-q2-update\arm-none-eabi\include\c++\6.3.1\bits\stl_algobase.h **** 
 176:c:\program files (x86)\gnu tools arm embedded\6 2017-q2-update\arm-none-eabi\include\c++\6.3.1\bits\stl_algobase.h ****       for (; __first1 != __last1; ++__first1, (void)++__first2)
 177:c:\program files (x86)\gnu tools arm embedded\6 2017-q2-update\arm-none-eabi\include\c++\6.3.1\bits\stl_algobase.h **** 	std::iter_swap(__first1, __first2);
 178:c:\program files (x86)\gnu tools arm embedded\6 2017-q2-update\arm-none-eabi\include\c++\6.3.1\bits\stl_algobase.h ****       return __first2;
 179:c:\program files (x86)\gnu tools arm embedded\6 2017-q2-update\arm-none-eabi\include\c++\6.3.1\bits\stl_algobase.h ****     }
 180:c:\program files (x86)\gnu tools arm embedded\6 2017-q2-update\arm-none-eabi\include\c++\6.3.1\bits\stl_algobase.h **** 
 181:c:\program files (x86)\gnu tools arm embedded\6 2017-q2-update\arm-none-eabi\include\c++\6.3.1\bits\stl_algobase.h ****   /**
 182:c:\program files (x86)\gnu tools arm embedded\6 2017-q2-update\arm-none-eabi\include\c++\6.3.1\bits\stl_algobase.h ****    *  @brief This does what you think it does.
 183:c:\program files (x86)\gnu tools arm embedded\6 2017-q2-update\arm-none-eabi\include\c++\6.3.1\bits\stl_algobase.h ****    *  @ingroup sorting_algorithms
 184:c:\program files (x86)\gnu tools arm embedded\6 2017-q2-update\arm-none-eabi\include\c++\6.3.1\bits\stl_algobase.h ****    *  @param  __a  A thing of arbitrary type.
 185:c:\program files (x86)\gnu tools arm embedded\6 2017-q2-update\arm-none-eabi\include\c++\6.3.1\bits\stl_algobase.h ****    *  @param  __b  Another thing of arbitrary type.
 186:c:\program files (x86)\gnu tools arm embedded\6 2017-q2-update\arm-none-eabi\include\c++\6.3.1\bits\stl_algobase.h ****    *  @return   The lesser of the parameters.
 187:c:\program files (x86)\gnu tools arm embedded\6 2017-q2-update\arm-none-eabi\include\c++\6.3.1\bits\stl_algobase.h ****    *
 188:c:\program files (x86)\gnu tools arm embedded\6 2017-q2-update\arm-none-eabi\include\c++\6.3.1\bits\stl_algobase.h ****    *  This is the simple classic generic implementation.  It will work on
 189:c:\program files (x86)\gnu tools arm embedded\6 2017-q2-update\arm-none-eabi\include\c++\6.3.1\bits\stl_algobase.h ****    *  temporary expressions, since they are only evaluated once, unlike a
 190:c:\program files (x86)\gnu tools arm embedded\6 2017-q2-update\arm-none-eabi\include\c++\6.3.1\bits\stl_algobase.h ****    *  preprocessor macro.
 191:c:\program files (x86)\gnu tools arm embedded\6 2017-q2-update\arm-none-eabi\include\c++\6.3.1\bits\stl_algobase.h ****   */
 192:c:\program files (x86)\gnu tools arm embedded\6 2017-q2-update\arm-none-eabi\include\c++\6.3.1\bits\stl_algobase.h ****   template<typename _Tp>
 193:c:\program files (x86)\gnu tools arm embedded\6 2017-q2-update\arm-none-eabi\include\c++\6.3.1\bits\stl_algobase.h ****     _GLIBCXX14_CONSTEXPR
 194:c:\program files (x86)\gnu tools arm embedded\6 2017-q2-update\arm-none-eabi\include\c++\6.3.1\bits\stl_algobase.h ****     inline const _Tp&
 195:c:\program files (x86)\gnu tools arm embedded\6 2017-q2-update\arm-none-eabi\include\c++\6.3.1\bits\stl_algobase.h ****     min(const _Tp& __a, const _Tp& __b)
 196:c:\program files (x86)\gnu tools arm embedded\6 2017-q2-update\arm-none-eabi\include\c++\6.3.1\bits\stl_algobase.h ****     {
 197:c:\program files (x86)\gnu tools arm embedded\6 2017-q2-update\arm-none-eabi\include\c++\6.3.1\bits\stl_algobase.h ****       // concept requirements
 198:c:\program files (x86)\gnu tools arm embedded\6 2017-q2-update\arm-none-eabi\include\c++\6.3.1\bits\stl_algobase.h ****       __glibcxx_function_requires(_LessThanComparableConcept<_Tp>)
 199:c:\program files (x86)\gnu tools arm embedded\6 2017-q2-update\arm-none-eabi\include\c++\6.3.1\bits\stl_algobase.h ****       //return __b < __a ? __b : __a;
 200:c:\program files (x86)\gnu tools arm embedded\6 2017-q2-update\arm-none-eabi\include\c++\6.3.1\bits\stl_algobase.h ****       if (__b < __a)
 201:c:\program files (x86)\gnu tools arm embedded\6 2017-q2-update\arm-none-eabi\include\c++\6.3.1\bits\stl_algobase.h **** 	return __b;
 202:c:\program files (x86)\gnu tools arm embedded\6 2017-q2-update\arm-none-eabi\include\c++\6.3.1\bits\stl_algobase.h ****       return __a;
 203:c:\program files (x86)\gnu tools arm embedded\6 2017-q2-update\arm-none-eabi\include\c++\6.3.1\bits\stl_algobase.h ****     }
 204:c:\program files (x86)\gnu tools arm embedded\6 2017-q2-update\arm-none-eabi\include\c++\6.3.1\bits\stl_algobase.h **** 
 205:c:\program files (x86)\gnu tools arm embedded\6 2017-q2-update\arm-none-eabi\include\c++\6.3.1\bits\stl_algobase.h ****   /**
 206:c:\program files (x86)\gnu tools arm embedded\6 2017-q2-update\arm-none-eabi\include\c++\6.3.1\bits\stl_algobase.h ****    *  @brief This does what you think it does.
 207:c:\program files (x86)\gnu tools arm embedded\6 2017-q2-update\arm-none-eabi\include\c++\6.3.1\bits\stl_algobase.h ****    *  @ingroup sorting_algorithms
 208:c:\program files (x86)\gnu tools arm embedded\6 2017-q2-update\arm-none-eabi\include\c++\6.3.1\bits\stl_algobase.h ****    *  @param  __a  A thing of arbitrary type.
 209:c:\program files (x86)\gnu tools arm embedded\6 2017-q2-update\arm-none-eabi\include\c++\6.3.1\bits\stl_algobase.h ****    *  @param  __b  Another thing of arbitrary type.
 210:c:\program files (x86)\gnu tools arm embedded\6 2017-q2-update\arm-none-eabi\include\c++\6.3.1\bits\stl_algobase.h ****    *  @return   The greater of the parameters.
 211:c:\program files (x86)\gnu tools arm embedded\6 2017-q2-update\arm-none-eabi\include\c++\6.3.1\bits\stl_algobase.h ****    *
 212:c:\program files (x86)\gnu tools arm embedded\6 2017-q2-update\arm-none-eabi\include\c++\6.3.1\bits\stl_algobase.h ****    *  This is the simple classic generic implementation.  It will work on
 213:c:\program files (x86)\gnu tools arm embedded\6 2017-q2-update\arm-none-eabi\include\c++\6.3.1\bits\stl_algobase.h ****    *  temporary expressions, since they are only evaluated once, unlike a
 214:c:\program files (x86)\gnu tools arm embedded\6 2017-q2-update\arm-none-eabi\include\c++\6.3.1\bits\stl_algobase.h ****    *  preprocessor macro.
 215:c:\program files (x86)\gnu tools arm embedded\6 2017-q2-update\arm-none-eabi\include\c++\6.3.1\bits\stl_algobase.h ****   */
 216:c:\program files (x86)\gnu tools arm embedded\6 2017-q2-update\arm-none-eabi\include\c++\6.3.1\bits\stl_algobase.h ****   template<typename _Tp>
 217:c:\program files (x86)\gnu tools arm embedded\6 2017-q2-update\arm-none-eabi\include\c++\6.3.1\bits\stl_algobase.h ****     _GLIBCXX14_CONSTEXPR
 218:c:\program files (x86)\gnu tools arm embedded\6 2017-q2-update\arm-none-eabi\include\c++\6.3.1\bits\stl_algobase.h ****     inline const _Tp&
 219:c:\program files (x86)\gnu tools arm embedded\6 2017-q2-update\arm-none-eabi\include\c++\6.3.1\bits\stl_algobase.h ****     max(const _Tp& __a, const _Tp& __b)
 220:c:\program files (x86)\gnu tools arm embedded\6 2017-q2-update\arm-none-eabi\include\c++\6.3.1\bits\stl_algobase.h ****     {
 221:c:\program files (x86)\gnu tools arm embedded\6 2017-q2-update\arm-none-eabi\include\c++\6.3.1\bits\stl_algobase.h ****       // concept requirements
 222:c:\program files (x86)\gnu tools arm embedded\6 2017-q2-update\arm-none-eabi\include\c++\6.3.1\bits\stl_algobase.h ****       __glibcxx_function_requires(_LessThanComparableConcept<_Tp>)
 223:c:\program files (x86)\gnu tools arm embedded\6 2017-q2-update\arm-none-eabi\include\c++\6.3.1\bits\stl_algobase.h ****       //return  __a < __b ? __b : __a;
 224:c:\program files (x86)\gnu tools arm embedded\6 2017-q2-update\arm-none-eabi\include\c++\6.3.1\bits\stl_algobase.h ****       if (__a < __b)
 2805              		.loc 7 224 0
 2806 0d98 000050E3 		cmp	r0, #0
 2807 0d9c 0000A0D3 		movle	r0, #0
 2808              	.LVL327:
 2809 0da0 020000DA 		ble	.L254
 2810              	.LVL328:
 2811              	.LBE1808:
 2812              	.LBE1807:
 2813              	.LBB1809:
 2814              	.LBB1810:
 200:c:\program files (x86)\gnu tools arm embedded\6 2017-q2-update\arm-none-eabi\include\c++\6.3.1\bits\stl_algobase.h **** 	return __b;
 2815              		.loc 7 200 0
 2816 0da4 FE0050E3 		cmp	r0, #254
 2817 0da8 7000EFD6 		uxtble	r0, r0
 2818 0dac FF00A0C3 		movgt	r0, #255
 2819              	.LVL329:
 2820              	.L254:
 2821              	.LBE1810:
 2822              	.LBE1809:
  63:C:/Renesas/e2studio_2021_01_workspace_RZA2M_ANPR/ANPR_RZA2M_EBK/src/tensorflow_lite/tensorflow/lite/kernels/internal/reference\prelu.h **** 
  64:C:/Renesas/e2studio_2021_01_workspace_RZA2M_ANPR/ANPR_RZA2M_EBK/src/tensorflow_lite/tensorflow/lite/kernels/internal/reference\prelu.h ****           const int32_t quantized_min = std::numeric_limits<T>::min();
  65:C:/Renesas/e2studio_2021_01_workspace_RZA2M_ANPR/ANPR_RZA2M_EBK/src/tensorflow_lite/tensorflow/lite/kernels/internal/reference\prelu.h ****           const int32_t quantized_max = std::numeric_limits<T>::max();
  66:C:/Renesas/e2studio_2021_01_workspace_RZA2M_ANPR/ANPR_RZA2M_EBK/src/tensorflow_lite/tensorflow/lite/kernels/internal/reference\prelu.h ****           const int32_t clamped_output =
  67:C:/Renesas/e2studio_2021_01_workspace_RZA2M_ANPR/ANPR_RZA2M_EBK/src/tensorflow_lite/tensorflow/lite/kernels/internal/reference\prelu.h ****               std::min(quantized_max, std::max(quantized_min, output_value));
  68:C:/Renesas/e2studio_2021_01_workspace_RZA2M_ANPR/ANPR_RZA2M_EBK/src/tensorflow_lite/tensorflow/lite/kernels/internal/reference\prelu.h ****           output_data[output_index] = static_cast<T>(clamped_output);
 2823              		.loc 5 68 0
 2824 0db0 04309DE5 		ldr	r3, [sp, #4]
 2825              	.LBE1836:
  44:C:/Renesas/e2studio_2021_01_workspace_RZA2M_ANPR/ANPR_RZA2M_EBK/src/tensorflow_lite/tensorflow/lite/kernels/internal/reference\prelu.h ****           int output_index = Offset(extended_output_shape, b, y, x, c);
 2826              		.loc 5 44 0
 2827 0db4 012082E2 		add	r2, r2, #1
 2828              	.LVL330:
 2829              	.LBB1837:
 2830              		.loc 5 68 0
 2831 0db8 0100C3E4 		strb	r0, [r3], #1
 2832              	.LVL331:
 2833 0dbc 04308DE5 		str	r3, [sp, #4]
 2834              	.LVL332:
 2835 0dc0 30309DE5 		ldr	r3, [sp, #48]
 2836 0dc4 03E08EE0 		add	lr, lr, r3
 2837 0dc8 34309DE5 		ldr	r3, [sp, #52]
 2838 0dcc 03C08CE0 		add	ip, ip, r3
 2839              	.LVL333:
 2840              	.L454:
 2841              	.LBE1837:
 2842              	.LBB1838:
 2843              	.LBB1829:
 216:C:/Renesas/e2studio_2021_01_workspace_RZA2M_ANPR/ANPR_RZA2M_EBK/src/tensorflow_lite/tensorflow/lite/kernels/internal\types.h ****   }
 2844              		.loc 3 216 0
 2845 0dd0 08309DE5 		ldr	r3, [sp, #8]
 2846              	.LVL334:
 2847              	.LBE1829:
 2848              	.LBE1838:
  44:C:/Renesas/e2studio_2021_01_workspace_RZA2M_ANPR/ANPR_RZA2M_EBK/src/tensorflow_lite/tensorflow/lite/kernels/internal/reference\prelu.h ****           int output_index = Offset(extended_output_shape, b, y, x, c);
 2849              		.loc 5 44 0
 2850 0dd4 020053E1 		cmp	r3, r2
 2851 0dd8 390000DA 		ble	.L232
 2852              	.L948:
 2853              	.LVL335:
 2854              	.LBB1839:
 2855              	.LBB1811:
 2856              	.LBB1812:
 316:C:/Renesas/e2studio_2021_01_workspace_RZA2M_ANPR/ANPR_RZA2M_EBK/src/tensorflow_lite/tensorflow/lite/kernels/internal\types.h ****   }
 317:C:/Renesas/e2studio_2021_01_workspace_RZA2M_ANPR/ANPR_RZA2M_EBK/src/tensorflow_lite/tensorflow/lite/kernels/internal\types.h **** 
 318:C:/Renesas/e2studio_2021_01_workspace_RZA2M_ANPR/ANPR_RZA2M_EBK/src/tensorflow_lite/tensorflow/lite/kernels/internal\types.h ****   int32_t size_;
 319:C:/Renesas/e2studio_2021_01_workspace_RZA2M_ANPR/ANPR_RZA2M_EBK/src/tensorflow_lite/tensorflow/lite/kernels/internal\types.h ****   union {
 320:C:/Renesas/e2studio_2021_01_workspace_RZA2M_ANPR/ANPR_RZA2M_EBK/src/tensorflow_lite/tensorflow/lite/kernels/internal\types.h ****     int32_t dims_[kMaxSmallSize];
 321:C:/Renesas/e2studio_2021_01_workspace_RZA2M_ANPR/ANPR_RZA2M_EBK/src/tensorflow_lite/tensorflow/lite/kernels/internal\types.h ****     int32_t* dims_pointer_;
 322:C:/Renesas/e2studio_2021_01_workspace_RZA2M_ANPR/ANPR_RZA2M_EBK/src/tensorflow_lite/tensorflow/lite/kernels/internal\types.h ****   };
 323:C:/Renesas/e2studio_2021_01_workspace_RZA2M_ANPR/ANPR_RZA2M_EBK/src/tensorflow_lite/tensorflow/lite/kernels/internal\types.h **** };
 324:C:/Renesas/e2studio_2021_01_workspace_RZA2M_ANPR/ANPR_RZA2M_EBK/src/tensorflow_lite/tensorflow/lite/kernels/internal\types.h **** 
 325:C:/Renesas/e2studio_2021_01_workspace_RZA2M_ANPR/ANPR_RZA2M_EBK/src/tensorflow_lite/tensorflow/lite/kernels/internal\types.h **** // Converts inference-style shape to legacy tflite::Dims<4>.
 326:C:/Renesas/e2studio_2021_01_workspace_RZA2M_ANPR/ANPR_RZA2M_EBK/src/tensorflow_lite/tensorflow/lite/kernels/internal\types.h **** inline tflite::Dims<4> ToRuntimeDims(const tflite::RuntimeShape& array_shape) {
 327:C:/Renesas/e2studio_2021_01_workspace_RZA2M_ANPR/ANPR_RZA2M_EBK/src/tensorflow_lite/tensorflow/lite/kernels/internal\types.h ****   tflite::Dims<4> result;
 328:C:/Renesas/e2studio_2021_01_workspace_RZA2M_ANPR/ANPR_RZA2M_EBK/src/tensorflow_lite/tensorflow/lite/kernels/internal\types.h ****   const int dimensions_count = array_shape.DimensionsCount();
 329:C:/Renesas/e2studio_2021_01_workspace_RZA2M_ANPR/ANPR_RZA2M_EBK/src/tensorflow_lite/tensorflow/lite/kernels/internal\types.h ****   TFLITE_CHECK_LE(dimensions_count, 4);
 330:C:/Renesas/e2studio_2021_01_workspace_RZA2M_ANPR/ANPR_RZA2M_EBK/src/tensorflow_lite/tensorflow/lite/kernels/internal\types.h ****   int cum_prod = 1;
 331:C:/Renesas/e2studio_2021_01_workspace_RZA2M_ANPR/ANPR_RZA2M_EBK/src/tensorflow_lite/tensorflow/lite/kernels/internal\types.h ****   for (int i = 0; i < 4; i++) {
 332:C:/Renesas/e2studio_2021_01_workspace_RZA2M_ANPR/ANPR_RZA2M_EBK/src/tensorflow_lite/tensorflow/lite/kernels/internal\types.h ****     const int new_dim =
 333:C:/Renesas/e2studio_2021_01_workspace_RZA2M_ANPR/ANPR_RZA2M_EBK/src/tensorflow_lite/tensorflow/lite/kernels/internal\types.h ****         (i < dimensions_count) ? array_shape.Dims(dimensions_count - 1 - i) : 1;
 334:C:/Renesas/e2studio_2021_01_workspace_RZA2M_ANPR/ANPR_RZA2M_EBK/src/tensorflow_lite/tensorflow/lite/kernels/internal\types.h ****     result.sizes[i] = new_dim;
 335:C:/Renesas/e2studio_2021_01_workspace_RZA2M_ANPR/ANPR_RZA2M_EBK/src/tensorflow_lite/tensorflow/lite/kernels/internal\types.h ****     result.strides[i] = cum_prod;
 336:C:/Renesas/e2studio_2021_01_workspace_RZA2M_ANPR/ANPR_RZA2M_EBK/src/tensorflow_lite/tensorflow/lite/kernels/internal\types.h ****     cum_prod *= new_dim;
 337:C:/Renesas/e2studio_2021_01_workspace_RZA2M_ANPR/ANPR_RZA2M_EBK/src/tensorflow_lite/tensorflow/lite/kernels/internal\types.h ****   }
 338:C:/Renesas/e2studio_2021_01_workspace_RZA2M_ANPR/ANPR_RZA2M_EBK/src/tensorflow_lite/tensorflow/lite/kernels/internal\types.h ****   return result;
 339:C:/Renesas/e2studio_2021_01_workspace_RZA2M_ANPR/ANPR_RZA2M_EBK/src/tensorflow_lite/tensorflow/lite/kernels/internal\types.h **** }
 340:C:/Renesas/e2studio_2021_01_workspace_RZA2M_ANPR/ANPR_RZA2M_EBK/src/tensorflow_lite/tensorflow/lite/kernels/internal\types.h **** 
 341:C:/Renesas/e2studio_2021_01_workspace_RZA2M_ANPR/ANPR_RZA2M_EBK/src/tensorflow_lite/tensorflow/lite/kernels/internal\types.h **** // TODO(b/80418076): Move to legacy ops file, update invocations.
 342:C:/Renesas/e2studio_2021_01_workspace_RZA2M_ANPR/ANPR_RZA2M_EBK/src/tensorflow_lite/tensorflow/lite/kernels/internal\types.h **** inline RuntimeShape DimsToShape(const tflite::Dims<4>& dims) {
 343:C:/Renesas/e2studio_2021_01_workspace_RZA2M_ANPR/ANPR_RZA2M_EBK/src/tensorflow_lite/tensorflow/lite/kernels/internal\types.h ****   return RuntimeShape(
 344:C:/Renesas/e2studio_2021_01_workspace_RZA2M_ANPR/ANPR_RZA2M_EBK/src/tensorflow_lite/tensorflow/lite/kernels/internal\types.h ****       {dims.sizes[3], dims.sizes[2], dims.sizes[1], dims.sizes[0]});
 345:C:/Renesas/e2studio_2021_01_workspace_RZA2M_ANPR/ANPR_RZA2M_EBK/src/tensorflow_lite/tensorflow/lite/kernels/internal\types.h **** }
 346:C:/Renesas/e2studio_2021_01_workspace_RZA2M_ANPR/ANPR_RZA2M_EBK/src/tensorflow_lite/tensorflow/lite/kernels/internal\types.h **** 
 347:C:/Renesas/e2studio_2021_01_workspace_RZA2M_ANPR/ANPR_RZA2M_EBK/src/tensorflow_lite/tensorflow/lite/kernels/internal\types.h **** // Gets next index to iterate through a multidimensional array.
 348:C:/Renesas/e2studio_2021_01_workspace_RZA2M_ANPR/ANPR_RZA2M_EBK/src/tensorflow_lite/tensorflow/lite/kernels/internal\types.h **** inline bool NextIndex(const int num_dims, const int* dims, int* current) {
 349:C:/Renesas/e2studio_2021_01_workspace_RZA2M_ANPR/ANPR_RZA2M_EBK/src/tensorflow_lite/tensorflow/lite/kernels/internal\types.h ****   if (num_dims == 0) {
 350:C:/Renesas/e2studio_2021_01_workspace_RZA2M_ANPR/ANPR_RZA2M_EBK/src/tensorflow_lite/tensorflow/lite/kernels/internal\types.h ****     return false;
 351:C:/Renesas/e2studio_2021_01_workspace_RZA2M_ANPR/ANPR_RZA2M_EBK/src/tensorflow_lite/tensorflow/lite/kernels/internal\types.h ****   }
 352:C:/Renesas/e2studio_2021_01_workspace_RZA2M_ANPR/ANPR_RZA2M_EBK/src/tensorflow_lite/tensorflow/lite/kernels/internal\types.h ****   TFLITE_DCHECK(dims != nullptr);
 353:C:/Renesas/e2studio_2021_01_workspace_RZA2M_ANPR/ANPR_RZA2M_EBK/src/tensorflow_lite/tensorflow/lite/kernels/internal\types.h ****   TFLITE_DCHECK(current != nullptr);
 354:C:/Renesas/e2studio_2021_01_workspace_RZA2M_ANPR/ANPR_RZA2M_EBK/src/tensorflow_lite/tensorflow/lite/kernels/internal\types.h ****   int carry = 1;
 355:C:/Renesas/e2studio_2021_01_workspace_RZA2M_ANPR/ANPR_RZA2M_EBK/src/tensorflow_lite/tensorflow/lite/kernels/internal\types.h ****   for (int idx = num_dims - 1; idx >= 0; --idx) {
 356:C:/Renesas/e2studio_2021_01_workspace_RZA2M_ANPR/ANPR_RZA2M_EBK/src/tensorflow_lite/tensorflow/lite/kernels/internal\types.h ****     int current_val = current[idx] + carry;
 357:C:/Renesas/e2studio_2021_01_workspace_RZA2M_ANPR/ANPR_RZA2M_EBK/src/tensorflow_lite/tensorflow/lite/kernels/internal\types.h ****     TFLITE_DCHECK_GE(dims[idx], current_val);
 358:C:/Renesas/e2studio_2021_01_workspace_RZA2M_ANPR/ANPR_RZA2M_EBK/src/tensorflow_lite/tensorflow/lite/kernels/internal\types.h ****     if (dims[idx] == current_val) {
 359:C:/Renesas/e2studio_2021_01_workspace_RZA2M_ANPR/ANPR_RZA2M_EBK/src/tensorflow_lite/tensorflow/lite/kernels/internal\types.h ****       current[idx] = 0;
 360:C:/Renesas/e2studio_2021_01_workspace_RZA2M_ANPR/ANPR_RZA2M_EBK/src/tensorflow_lite/tensorflow/lite/kernels/internal\types.h ****     } else {
 361:C:/Renesas/e2studio_2021_01_workspace_RZA2M_ANPR/ANPR_RZA2M_EBK/src/tensorflow_lite/tensorflow/lite/kernels/internal\types.h ****       current[idx] = current_val;
 362:C:/Renesas/e2studio_2021_01_workspace_RZA2M_ANPR/ANPR_RZA2M_EBK/src/tensorflow_lite/tensorflow/lite/kernels/internal\types.h ****       carry = 0;
 363:C:/Renesas/e2studio_2021_01_workspace_RZA2M_ANPR/ANPR_RZA2M_EBK/src/tensorflow_lite/tensorflow/lite/kernels/internal\types.h ****       break;
 364:C:/Renesas/e2studio_2021_01_workspace_RZA2M_ANPR/ANPR_RZA2M_EBK/src/tensorflow_lite/tensorflow/lite/kernels/internal\types.h ****     }
 365:C:/Renesas/e2studio_2021_01_workspace_RZA2M_ANPR/ANPR_RZA2M_EBK/src/tensorflow_lite/tensorflow/lite/kernels/internal\types.h ****   }
 366:C:/Renesas/e2studio_2021_01_workspace_RZA2M_ANPR/ANPR_RZA2M_EBK/src/tensorflow_lite/tensorflow/lite/kernels/internal\types.h ****   return (carry == 0);
 367:C:/Renesas/e2studio_2021_01_workspace_RZA2M_ANPR/ANPR_RZA2M_EBK/src/tensorflow_lite/tensorflow/lite/kernels/internal\types.h **** }
 368:C:/Renesas/e2studio_2021_01_workspace_RZA2M_ANPR/ANPR_RZA2M_EBK/src/tensorflow_lite/tensorflow/lite/kernels/internal\types.h **** 
 369:C:/Renesas/e2studio_2021_01_workspace_RZA2M_ANPR/ANPR_RZA2M_EBK/src/tensorflow_lite/tensorflow/lite/kernels/internal\types.h **** // Gets offset of index if reducing on axis. When reducing, the flattened offset
 370:C:/Renesas/e2studio_2021_01_workspace_RZA2M_ANPR/ANPR_RZA2M_EBK/src/tensorflow_lite/tensorflow/lite/kernels/internal\types.h **** // will not change, if the input index changes on the given axis. For example,
 371:C:/Renesas/e2studio_2021_01_workspace_RZA2M_ANPR/ANPR_RZA2M_EBK/src/tensorflow_lite/tensorflow/lite/kernels/internal\types.h **** // if you have a 3D tensor and you are reducing to 2D by eliminating axis 0,
 372:C:/Renesas/e2studio_2021_01_workspace_RZA2M_ANPR/ANPR_RZA2M_EBK/src/tensorflow_lite/tensorflow/lite/kernels/internal\types.h **** // then index (0, 1, 2) and index (1, 1, 2) will map to the same flattened
 373:C:/Renesas/e2studio_2021_01_workspace_RZA2M_ANPR/ANPR_RZA2M_EBK/src/tensorflow_lite/tensorflow/lite/kernels/internal\types.h **** // offset.
 374:C:/Renesas/e2studio_2021_01_workspace_RZA2M_ANPR/ANPR_RZA2M_EBK/src/tensorflow_lite/tensorflow/lite/kernels/internal\types.h **** // TODO(kanlig): uses Dims to represent dimensions.
 375:C:/Renesas/e2studio_2021_01_workspace_RZA2M_ANPR/ANPR_RZA2M_EBK/src/tensorflow_lite/tensorflow/lite/kernels/internal\types.h **** inline size_t ReducedOutputOffset(const int num_dims, const int* dims,
 376:C:/Renesas/e2studio_2021_01_workspace_RZA2M_ANPR/ANPR_RZA2M_EBK/src/tensorflow_lite/tensorflow/lite/kernels/internal\types.h ****                                   const int* index, const int num_axis,
 377:C:/Renesas/e2studio_2021_01_workspace_RZA2M_ANPR/ANPR_RZA2M_EBK/src/tensorflow_lite/tensorflow/lite/kernels/internal\types.h ****                                   const int* axis) {
 378:C:/Renesas/e2studio_2021_01_workspace_RZA2M_ANPR/ANPR_RZA2M_EBK/src/tensorflow_lite/tensorflow/lite/kernels/internal\types.h ****   if (num_dims == 0) {
 379:C:/Renesas/e2studio_2021_01_workspace_RZA2M_ANPR/ANPR_RZA2M_EBK/src/tensorflow_lite/tensorflow/lite/kernels/internal\types.h ****     return 0;
 380:C:/Renesas/e2studio_2021_01_workspace_RZA2M_ANPR/ANPR_RZA2M_EBK/src/tensorflow_lite/tensorflow/lite/kernels/internal\types.h ****   }
 381:C:/Renesas/e2studio_2021_01_workspace_RZA2M_ANPR/ANPR_RZA2M_EBK/src/tensorflow_lite/tensorflow/lite/kernels/internal\types.h ****   TFLITE_DCHECK(dims != nullptr);
 382:C:/Renesas/e2studio_2021_01_workspace_RZA2M_ANPR/ANPR_RZA2M_EBK/src/tensorflow_lite/tensorflow/lite/kernels/internal\types.h ****   TFLITE_DCHECK(index != nullptr);
 383:C:/Renesas/e2studio_2021_01_workspace_RZA2M_ANPR/ANPR_RZA2M_EBK/src/tensorflow_lite/tensorflow/lite/kernels/internal\types.h ****   size_t offset = 0;
 384:C:/Renesas/e2studio_2021_01_workspace_RZA2M_ANPR/ANPR_RZA2M_EBK/src/tensorflow_lite/tensorflow/lite/kernels/internal\types.h ****   for (int idx = 0; idx < num_dims; ++idx) {
 385:C:/Renesas/e2studio_2021_01_workspace_RZA2M_ANPR/ANPR_RZA2M_EBK/src/tensorflow_lite/tensorflow/lite/kernels/internal\types.h ****     // if we need to skip this axis
 386:C:/Renesas/e2studio_2021_01_workspace_RZA2M_ANPR/ANPR_RZA2M_EBK/src/tensorflow_lite/tensorflow/lite/kernels/internal\types.h ****     bool is_axis = false;
 387:C:/Renesas/e2studio_2021_01_workspace_RZA2M_ANPR/ANPR_RZA2M_EBK/src/tensorflow_lite/tensorflow/lite/kernels/internal\types.h ****     if (axis != nullptr) {
 388:C:/Renesas/e2studio_2021_01_workspace_RZA2M_ANPR/ANPR_RZA2M_EBK/src/tensorflow_lite/tensorflow/lite/kernels/internal\types.h ****       for (int axis_idx = 0; axis_idx < num_axis; ++axis_idx) {
 389:C:/Renesas/e2studio_2021_01_workspace_RZA2M_ANPR/ANPR_RZA2M_EBK/src/tensorflow_lite/tensorflow/lite/kernels/internal\types.h ****         if (idx == axis[axis_idx]) {
 390:C:/Renesas/e2studio_2021_01_workspace_RZA2M_ANPR/ANPR_RZA2M_EBK/src/tensorflow_lite/tensorflow/lite/kernels/internal\types.h ****           is_axis = true;
 391:C:/Renesas/e2studio_2021_01_workspace_RZA2M_ANPR/ANPR_RZA2M_EBK/src/tensorflow_lite/tensorflow/lite/kernels/internal\types.h ****           break;
 392:C:/Renesas/e2studio_2021_01_workspace_RZA2M_ANPR/ANPR_RZA2M_EBK/src/tensorflow_lite/tensorflow/lite/kernels/internal\types.h ****         }
 393:C:/Renesas/e2studio_2021_01_workspace_RZA2M_ANPR/ANPR_RZA2M_EBK/src/tensorflow_lite/tensorflow/lite/kernels/internal\types.h ****       }
 394:C:/Renesas/e2studio_2021_01_workspace_RZA2M_ANPR/ANPR_RZA2M_EBK/src/tensorflow_lite/tensorflow/lite/kernels/internal\types.h ****     }
 395:C:/Renesas/e2studio_2021_01_workspace_RZA2M_ANPR/ANPR_RZA2M_EBK/src/tensorflow_lite/tensorflow/lite/kernels/internal\types.h ****     if (!is_axis) {
 396:C:/Renesas/e2studio_2021_01_workspace_RZA2M_ANPR/ANPR_RZA2M_EBK/src/tensorflow_lite/tensorflow/lite/kernels/internal\types.h ****       offset = offset * static_cast<size_t>(dims[idx]) +
 397:C:/Renesas/e2studio_2021_01_workspace_RZA2M_ANPR/ANPR_RZA2M_EBK/src/tensorflow_lite/tensorflow/lite/kernels/internal\types.h ****                static_cast<size_t>(index[idx]);
 398:C:/Renesas/e2studio_2021_01_workspace_RZA2M_ANPR/ANPR_RZA2M_EBK/src/tensorflow_lite/tensorflow/lite/kernels/internal\types.h ****     }
 399:C:/Renesas/e2studio_2021_01_workspace_RZA2M_ANPR/ANPR_RZA2M_EBK/src/tensorflow_lite/tensorflow/lite/kernels/internal\types.h ****   }
 400:C:/Renesas/e2studio_2021_01_workspace_RZA2M_ANPR/ANPR_RZA2M_EBK/src/tensorflow_lite/tensorflow/lite/kernels/internal\types.h ****   return offset;
 401:C:/Renesas/e2studio_2021_01_workspace_RZA2M_ANPR/ANPR_RZA2M_EBK/src/tensorflow_lite/tensorflow/lite/kernels/internal\types.h **** }
 402:C:/Renesas/e2studio_2021_01_workspace_RZA2M_ANPR/ANPR_RZA2M_EBK/src/tensorflow_lite/tensorflow/lite/kernels/internal\types.h **** 
 403:C:/Renesas/e2studio_2021_01_workspace_RZA2M_ANPR/ANPR_RZA2M_EBK/src/tensorflow_lite/tensorflow/lite/kernels/internal\types.h **** inline int Offset(const RuntimeShape& shape, int i0, int i1, int i2, int i3) {
 404:C:/Renesas/e2studio_2021_01_workspace_RZA2M_ANPR/ANPR_RZA2M_EBK/src/tensorflow_lite/tensorflow/lite/kernels/internal\types.h ****   TFLITE_DCHECK_EQ(shape.DimensionsCount(), 4);
 2857              		.loc 3 404 0
 2858 0ddc 10309DE5 		ldr	r3, [sp, #16]
 2859 0de0 040053E3 		cmp	r3, #4
 2860 0de4 AB04001A 		bne	.L939
 405:C:/Renesas/e2studio_2021_01_workspace_RZA2M_ANPR/ANPR_RZA2M_EBK/src/tensorflow_lite/tensorflow/lite/kernels/internal\types.h ****   const int* dims_data = reinterpret_cast<const int*>(shape.DimsDataUpTo5D());
 406:C:/Renesas/e2studio_2021_01_workspace_RZA2M_ANPR/ANPR_RZA2M_EBK/src/tensorflow_lite/tensorflow/lite/kernels/internal\types.h ****   TFLITE_DCHECK(i0 >= 0 && i0 < dims_data[0]);
 2861              		.loc 3 406 0
 2862 0de8 0C309DE5 		ldr	r3, [sp, #12]
 2863 0dec 03005BE1 		cmp	fp, r3
 2864 0df0 6D0400AA 		bge	.L940
 407:C:/Renesas/e2studio_2021_01_workspace_RZA2M_ANPR/ANPR_RZA2M_EBK/src/tensorflow_lite/tensorflow/lite/kernels/internal\types.h ****   TFLITE_DCHECK(i1 >= 0 && i1 < dims_data[1]);
 2865              		.loc 3 407 0
 2866 0df4 18309DE5 		ldr	r3, [sp, #24]
 2867 0df8 090053E1 		cmp	r3, r9
 2868 0dfc 690400DA 		ble	.L941
 408:C:/Renesas/e2studio_2021_01_workspace_RZA2M_ANPR/ANPR_RZA2M_EBK/src/tensorflow_lite/tensorflow/lite/kernels/internal\types.h ****   TFLITE_DCHECK(i2 >= 0 && i2 < dims_data[2]);
 2869              		.loc 3 408 0
 2870 0e00 14309DE5 		ldr	r3, [sp, #20]
 2871 0e04 080053E1 		cmp	r3, r8
 2872 0e08 650400DA 		ble	.L942
 409:C:/Renesas/e2studio_2021_01_workspace_RZA2M_ANPR/ANPR_RZA2M_EBK/src/tensorflow_lite/tensorflow/lite/kernels/internal\types.h ****   TFLITE_DCHECK(i3 >= 0 && i3 < dims_data[3]);
 2873              		.loc 3 409 0
 2874 0e0c 08309DE5 		ldr	r3, [sp, #8]
 2875 0e10 020053E1 		cmp	r3, r2
 2876 0e14 610400DA 		ble	.L943
 2877              	.LVL336:
 2878              	.LBE1812:
 2879              	.LBE1811:
 2880              	.LBB1815:
 2881              	.LBB1800:
 729:C:/Renesas/e2studio_2021_01_workspace_RZA2M_ANPR/ANPR_RZA2M_EBK/src/tensorflow_lite/tensorflow/lite/kernels/internal\common.h ****   TFLITE_DCHECK(i1 >= 0 && i1 < desc.extents[1]);
 2882              		.loc 4 729 0
 2883 0e18 1C309DE5 		ldr	r3, [sp, #28]
 2884 0e1c 03005BE1 		cmp	fp, r3
 2885 0e20 5D0400AA 		bge	.L944
 730:C:/Renesas/e2studio_2021_01_workspace_RZA2M_ANPR/ANPR_RZA2M_EBK/src/tensorflow_lite/tensorflow/lite/kernels/internal\common.h ****   TFLITE_DCHECK(i2 >= 0 && i2 < desc.extents[2]);
 2886              		.loc 4 730 0
 2887 0e24 20309DE5 		ldr	r3, [sp, #32]
 2888 0e28 090053E1 		cmp	r3, r9
 2889 0e2c 590400DA 		ble	.L945
 731:C:/Renesas/e2studio_2021_01_workspace_RZA2M_ANPR/ANPR_RZA2M_EBK/src/tensorflow_lite/tensorflow/lite/kernels/internal\common.h ****   TFLITE_DCHECK(i3 >= 0 && i3 < desc.extents[3]);
 2890              		.loc 4 731 0
 2891 0e30 24309DE5 		ldr	r3, [sp, #36]
 2892 0e34 080053E1 		cmp	r3, r8
 2893 0e38 550400DA 		ble	.L946
 732:C:/Renesas/e2studio_2021_01_workspace_RZA2M_ANPR/ANPR_RZA2M_EBK/src/tensorflow_lite/tensorflow/lite/kernels/internal\common.h ****   return i0 * desc.strides[0] + i1 * desc.strides[1] + i2 * desc.strides[2] +
 2894              		.loc 4 732 0
 2895 0e3c 28309DE5 		ldr	r3, [sp, #40]
 2896 0e40 020053E1 		cmp	r3, r2
 2897 0e44 510400DA 		ble	.L947
 2898              	.LVL337:
 2899              	.LBE1800:
 2900              	.LBE1815:
  48:C:/Renesas/e2studio_2021_01_workspace_RZA2M_ANPR/ANPR_RZA2M_EBK/src/tensorflow_lite/tensorflow/lite/kernels/internal/reference\prelu.h ****           int32_t output_value;
 2901              		.loc 5 48 0
 2902 0e48 2C309DE5 		ldr	r3, [sp, #44]
 2903 0e4c 00F0DCF5 		pld	[ip]
 2904 0e50 0300DCE7 		ldrb	r0, [ip, r3]	@ zero_extendqisi2
 2905 0e54 00309AE5 		ldr	r3, [r10]
 2906              	.LVL338:
 2907              	.LBB1816:
  50:C:/Renesas/e2studio_2021_01_workspace_RZA2M_ANPR/ANPR_RZA2M_EBK/src/tensorflow_lite/tensorflow/lite/kernels/internal/reference\prelu.h ****             output_value = MultiplyByQuantizedMultiplier(
 2908              		.loc 5 50 0
 2909 0e58 030090E0 		adds	r0, r0, r3
 2910              	.LVL339:
 2911 0e5c 2900004A 		bmi	.L242
  52:C:/Renesas/e2studio_2021_01_workspace_RZA2M_ANPR/ANPR_RZA2M_EBK/src/tensorflow_lite/tensorflow/lite/kernels/internal/reference\prelu.h ****           } else {
 2912              		.loc 5 52 0
 2913 0e60 10309AE5 		ldr	r3, [r10, #16]
 2914              	.LVL340:
 2915 0e64 0C409AE5 		ldr	r4, [r10, #12]
 2916              	.LVL341:
 2917              	.LBB1788:
 2918              	.LBB1785:
 162:C:/Renesas/e2studio_2021_01_workspace_RZA2M_ANPR/ANPR_RZA2M_EBK/src/tensorflow_lite/tensorflow/lite/kernels/internal\common.h ****   return RoundingDivideByPOT(SaturatingRoundingDoublingHighMul(
 2919              		.loc 4 162 0
 2920 0e68 000053E3 		cmp	r3, #0
 161:C:/Renesas/e2studio_2021_01_workspace_RZA2M_ANPR/ANPR_RZA2M_EBK/src/tensorflow_lite/tensorflow/lite/kernels/internal\common.h ****   int right_shift = shift > 0 ? 0 : -shift;
 2921              		.loc 4 161 0
 2922 0e6c C37FC3E1 		bic	r7, r3, r3, asr #31
 2923              	.LVL342:
 162:C:/Renesas/e2studio_2021_01_workspace_RZA2M_ANPR/ANPR_RZA2M_EBK/src/tensorflow_lite/tensorflow/lite/kernels/internal\common.h ****   return RoundingDivideByPOT(SaturatingRoundingDoublingHighMul(
 2924              		.loc 4 162 0
 2925 0e70 003063D2 		rsble	r3, r3, #0
 2926              	.LVL343:
 2927 0e74 0030A0C3 		movgt	r3, #0
 2928              	.LVL344:
 163:C:/Renesas/e2studio_2021_01_workspace_RZA2M_ANPR/ANPR_RZA2M_EBK/src/tensorflow_lite/tensorflow/lite/kernels/internal\common.h ****                                  x * (1 << left_shift), quantized_multiplier),
 2929              		.loc 4 163 0
 2930 0e78 1077A0E1 		lsl	r7, r0, r7
 2931              	.LVL345:
 2932              	.LBB1782:
 2933              	.LBB1767:
 334:C:/Renesas/e2studio_2021_01_workspace_RZA2M_ANPR/ANPR_RZA2M_EBK/src/tensorflow_lite/third_party/gemmlowp/fixedpoint\fixedpoint.h ****   std::int32_t nudge = ab_64 >= 0 ? (1 << 30) : (1 - (1 << 30));
 2934              		.loc 6 334 0
 2935 0e7c 9704C1E0 		smull	r0, r1, r7, r4
 2936              	.LVL346:
 331:C:/Renesas/e2studio_2021_01_workspace_RZA2M_ANPR/ANPR_RZA2M_EBK/src/tensorflow_lite/third_party/gemmlowp/fixedpoint\fixedpoint.h ****   std::int64_t a_64(a);
 2937              		.loc 6 331 0
 2938 0e80 070054E1 		cmp	r4, r7
 2939 0e84 02015703 		cmpeq	r7, #-2147483648
 2940 0e88 0170A003 		moveq	r7, #1
 2941              	.LVL347:
 2942 0e8c 0070A013 		movne	r7, #0
 2943              	.LVL348:
 335:C:/Renesas/e2studio_2021_01_workspace_RZA2M_ANPR/ANPR_RZA2M_EBK/src/tensorflow_lite/third_party/gemmlowp/fixedpoint\fixedpoint.h ****   std::int32_t ab_x2_high32 =
 2944              		.loc 6 335 0
 2945 0e90 000050E3 		cmp	r0, #0
 2946 0e94 0040D1E2 		sbcs	r4, r1, #0
 2947              	.LVL349:
 2948 0e98 560000BA 		blt	.L456
 2949 0e9c 0141A0E3 		mov	r4, #1073741824
 2950 0ea0 0050A0E3 		mov	r5, #0
 2951              	.L244:
 2952              	.LVL350:
 338:C:/Renesas/e2studio_2021_01_workspace_RZA2M_ANPR/ANPR_RZA2M_EBK/src/tensorflow_lite/third_party/gemmlowp/fixedpoint\fixedpoint.h **** }
 2953              		.loc 6 338 0
 2954 0ea4 000057E3 		cmp	r7, #0
 2955 0ea8 A2FFFF0A 		beq	.L756
 2956 0eac 0201E0E3 		mvn	r0, #-2147483648
 2957              	.LVL351:
 2958 0eb0 A9FFFFEA 		b	.L392
 2959              	.LVL352:
 2960              	.L937:
 2961              	.LBE1767:
 2962              	.LBE1782:
 2963              	.LBE1785:
 2964              	.LBE1788:
 2965              	.LBE1816:
 2966              	.LBE1839:
 2967              	.LBB1840:
 2968              	.LBB1830:
 216:C:/Renesas/e2studio_2021_01_workspace_RZA2M_ANPR/ANPR_RZA2M_EBK/src/tensorflow_lite/tensorflow/lite/kernels/internal\types.h ****   }
 2969              		.loc 3 216 0
 2970 0eb4 0C309DE5 		ldr	r3, [sp, #12]
 2971 0eb8 0C3093E5 		ldr	r3, [r3, #12]
 2972              	.LVL353:
 2973              	.LBE1830:
 2974              	.LBE1840:
  44:C:/Renesas/e2studio_2021_01_workspace_RZA2M_ANPR/ANPR_RZA2M_EBK/src/tensorflow_lite/tensorflow/lite/kernels/internal/reference\prelu.h ****           int output_index = Offset(extended_output_shape, b, y, x, c);
 2975              		.loc 5 44 0
 2976 0ebc 020053E1 		cmp	r3, r2
 2977 0ec0 C5FFFFCA 		bgt	.L948
 2978              	.L232:
 2979 0ec4 54309DE5 		ldr	r3, [sp, #84]
 2980              	.LBE1856:
  43:C:/Renesas/e2studio_2021_01_workspace_RZA2M_ANPR/ANPR_RZA2M_EBK/src/tensorflow_lite/tensorflow/lite/kernels/internal/reference\prelu.h ****         for (int c = 0; c < extended_output_shape.Dims(3); ++c) {
 2981              		.loc 5 43 0
 2982 0ec8 018088E2 		add	r8, r8, #1
 2983              	.LVL354:
 2984 0ecc 08209DE5 		ldr	r2, [sp, #8]
 2985              	.LVL355:
 2986 0ed0 023083E0 		add	r3, r3, r2
 2987 0ed4 5C209DE5 		ldr	r2, [sp, #92]
 2988 0ed8 54308DE5 		str	r3, [sp, #84]
 2989 0edc 4C309DE5 		ldr	r3, [sp, #76]
 2990 0ee0 023083E0 		add	r3, r3, r2
 2991 0ee4 58209DE5 		ldr	r2, [sp, #88]
 2992 0ee8 4C308DE5 		str	r3, [sp, #76]
 2993 0eec 50309DE5 		ldr	r3, [sp, #80]
 2994 0ef0 023083E0 		add	r3, r3, r2
 2995 0ef4 50308DE5 		str	r3, [sp, #80]
 2996 0ef8 7CFFFFEA 		b	.L227
 2997              	.L981:
 2998 0efc 00F020E3 		.align	3
 2999              	.L980:
 3000 0f00 01000000 		.word	1
 3001 0f04 00000000 		.word	0
 3002              	.LVL356:
 3003              	.L242:
 3004              	.LBB1857:
 3005              	.LBB1841:
 3006              	.LBB1817:
 3007              	.LBB1789:
 3008              	.LBB1754:
 3009              	.LBB1724:
 729:C:/Renesas/e2studio_2021_01_workspace_RZA2M_ANPR/ANPR_RZA2M_EBK/src/tensorflow_lite/tensorflow/lite/kernels/internal\common.h ****   TFLITE_DCHECK(i1 >= 0 && i1 < desc.extents[1]);
 3010              		.loc 4 729 0
 3011 0f08 38309DE5 		ldr	r3, [sp, #56]
 3012 0f0c 03005BE1 		cmp	fp, r3
 3013 0f10 BB0400AA 		bge	.L949
 730:C:/Renesas/e2studio_2021_01_workspace_RZA2M_ANPR/ANPR_RZA2M_EBK/src/tensorflow_lite/tensorflow/lite/kernels/internal\common.h ****   TFLITE_DCHECK(i2 >= 0 && i2 < desc.extents[2]);
 3014              		.loc 4 730 0
 3015 0f14 3C309DE5 		ldr	r3, [sp, #60]
 3016 0f18 090053E1 		cmp	r3, r9
 3017 0f1c B70400DA 		ble	.L950
 731:C:/Renesas/e2studio_2021_01_workspace_RZA2M_ANPR/ANPR_RZA2M_EBK/src/tensorflow_lite/tensorflow/lite/kernels/internal\common.h ****   TFLITE_DCHECK(i3 >= 0 && i3 < desc.extents[3]);
 3018              		.loc 4 731 0
 3019 0f20 40309DE5 		ldr	r3, [sp, #64]
 3020 0f24 080053E1 		cmp	r3, r8
 3021 0f28 EC0400DA 		ble	.L951
 732:C:/Renesas/e2studio_2021_01_workspace_RZA2M_ANPR/ANPR_RZA2M_EBK/src/tensorflow_lite/tensorflow/lite/kernels/internal\common.h ****   return i0 * desc.strides[0] + i1 * desc.strides[1] + i2 * desc.strides[2] +
 3022              		.loc 4 732 0
 3023 0f2c 44309DE5 		ldr	r3, [sp, #68]
 3024 0f30 020053E1 		cmp	r3, r2
 3025 0f34 E80400DA 		ble	.L952
 3026              	.LVL357:
 3027              	.LBE1724:
 3028              	.LBE1754:
  56:C:/Renesas/e2studio_2021_01_workspace_RZA2M_ANPR/ANPR_RZA2M_EBK/src/tensorflow_lite/tensorflow/lite/kernels/internal/reference\prelu.h **** 
 3029              		.loc 5 56 0
 3030 0f38 48309DE5 		ldr	r3, [sp, #72]
  60:C:/Renesas/e2studio_2021_01_workspace_RZA2M_ANPR/ANPR_RZA2M_EBK/src/tensorflow_lite/tensorflow/lite/kernels/internal/reference\prelu.h ****           }
 3031              		.loc 5 60 0
 3032 0f3c 18109AE5 		ldr	r1, [r10, #24]
  59:C:/Renesas/e2studio_2021_01_workspace_RZA2M_ANPR/ANPR_RZA2M_EBK/src/tensorflow_lite/tensorflow/lite/kernels/internal/reference\prelu.h ****                 params.output_shift_2);
 3033              		.loc 5 59 0
 3034 0f40 14409AE5 		ldr	r4, [r10, #20]
  56:C:/Renesas/e2studio_2021_01_workspace_RZA2M_ANPR/ANPR_RZA2M_EBK/src/tensorflow_lite/tensorflow/lite/kernels/internal/reference\prelu.h **** 
 3035              		.loc 5 56 0
 3036 0f44 0370DEE7 		ldrb	r7, [lr, r3]	@ zero_extendqisi2
 3037 0f48 04309AE5 		ldr	r3, [r10, #4]
 3038              	.LBB1755:
 3039              	.LBB1749:
 162:C:/Renesas/e2studio_2021_01_workspace_RZA2M_ANPR/ANPR_RZA2M_EBK/src/tensorflow_lite/tensorflow/lite/kernels/internal\common.h ****   return RoundingDivideByPOT(SaturatingRoundingDoublingHighMul(
 3040              		.loc 4 162 0
 3041 0f4c 000051E3 		cmp	r1, #0
 161:C:/Renesas/e2studio_2021_01_workspace_RZA2M_ANPR/ANPR_RZA2M_EBK/src/tensorflow_lite/tensorflow/lite/kernels/internal\common.h ****   int right_shift = shift > 0 ? 0 : -shift;
 3042              		.loc 4 161 0
 3043 0f50 C15FC1E1 		bic	r5, r1, r1, asr #31
 162:C:/Renesas/e2studio_2021_01_workspace_RZA2M_ANPR/ANPR_RZA2M_EBK/src/tensorflow_lite/tensorflow/lite/kernels/internal\common.h ****   return RoundingDivideByPOT(SaturatingRoundingDoublingHighMul(
 3044              		.loc 4 162 0
 3045 0f54 001061D2 		rsble	r1, r1, #0
 3046 0f58 0010A0C3 		movgt	r1, #0
 3047 0f5c 00F0DEF5 		pld	[lr]
 3048              	.LVL358:
 3049              	.LBE1749:
 3050              	.LBE1755:
  56:C:/Renesas/e2studio_2021_01_workspace_RZA2M_ANPR/ANPR_RZA2M_EBK/src/tensorflow_lite/tensorflow/lite/kernels/internal/reference\prelu.h **** 
 3051              		.loc 5 56 0
 3052 0f60 033087E0 		add	r3, r7, r3
 3053              	.LVL359:
  58:C:/Renesas/e2studio_2021_01_workspace_RZA2M_ANPR/ANPR_RZA2M_EBK/src/tensorflow_lite/tensorflow/lite/kernels/internal/reference\prelu.h ****                 input_value * alpha_value, params.output_multiplier_2,
 3054              		.loc 5 58 0
 3055 0f64 900303E0 		mul	r3, r0, r3
 3056              	.LVL360:
 3057              	.LBB1756:
 3058              	.LBB1750:
 163:C:/Renesas/e2studio_2021_01_workspace_RZA2M_ANPR/ANPR_RZA2M_EBK/src/tensorflow_lite/tensorflow/lite/kernels/internal\common.h ****                                  x * (1 << left_shift), quantized_multiplier),
 3059              		.loc 4 163 0
 3060 0f68 1335A0E1 		lsl	r3, r3, r5
 3061              	.LVL361:
 3062              	.LBB1743:
 3063              	.LBB1744:
 334:C:/Renesas/e2studio_2021_01_workspace_RZA2M_ANPR/ANPR_RZA2M_EBK/src/tensorflow_lite/third_party/gemmlowp/fixedpoint\fixedpoint.h ****   std::int32_t nudge = ab_64 >= 0 ? (1 << 30) : (1 - (1 << 30));
 3064              		.loc 6 334 0
 3065 0f6c 9364C7E0 		smull	r6, r7, r3, r4
 331:C:/Renesas/e2studio_2021_01_workspace_RZA2M_ANPR/ANPR_RZA2M_EBK/src/tensorflow_lite/third_party/gemmlowp/fixedpoint\fixedpoint.h ****   std::int64_t a_64(a);
 3066              		.loc 6 331 0
 3067 0f70 030054E1 		cmp	r4, r3
 3068 0f74 02015303 		cmpeq	r3, #-2147483648
 3069 0f78 0130A003 		moveq	r3, #1
 3070              	.LVL362:
 3071 0f7c 0030A013 		movne	r3, #0
 3072              	.LVL363:
 335:C:/Renesas/e2studio_2021_01_workspace_RZA2M_ANPR/ANPR_RZA2M_EBK/src/tensorflow_lite/third_party/gemmlowp/fixedpoint\fixedpoint.h ****   std::int32_t ab_x2_high32 =
 3073              		.loc 6 335 0
 3074 0f80 000056E3 		cmp	r6, #0
 3075 0f84 0000D7E2 		sbcs	r0, r7, #0
 3076              	.LVL364:
 3077 0f88 1F0000BA 		blt	.L458
 3078 0f8c 0141A0E3 		mov	r4, #1073741824
 3079              	.LVL365:
 3080 0f90 0050A0E3 		mov	r5, #0
 3081              	.LVL366:
 3082              	.L252:
 338:C:/Renesas/e2studio_2021_01_workspace_RZA2M_ANPR/ANPR_RZA2M_EBK/src/tensorflow_lite/third_party/gemmlowp/fixedpoint\fixedpoint.h **** }
 3083              		.loc 6 338 0
 3084 0f94 000053E3 		cmp	r3, #0
 3085 0f98 1900001A 		bne	.L953
 337:C:/Renesas/e2studio_2021_01_workspace_RZA2M_ANPR/ANPR_RZA2M_EBK/src/tensorflow_lite/third_party/gemmlowp/fixedpoint\fixedpoint.h ****   return overflow ? std::numeric_limits<std::int32_t>::max() : ab_x2_high32;
 3086              		.loc 6 337 0
 3087 0f9c 046096E0 		adds	r6, r6, r4
 3088              	.LVL367:
 3089 0fa0 0570A7E0 		adc	r7, r7, r5
 3090 0fa4 0050A0E3 		mov	r5, #0
 3091 0fa8 C74FA0E1 		asr	r4, r7, #31
 3092 0fac 0241C4E3 		bic	r4, r4, #-2147483648
 3093 0fb0 046096E0 		adds	r6, r6, r4
 3094 0fb4 A64FA0E1 		lsr	r4, r6, #31
 3095 0fb8 0570A7E0 		adc	r7, r7, r5
 3096 0fbc 874084E1 		orr	r4, r4, r7, lsl #1
 3097              	.L394:
 3098              	.LVL368:
 3099              	.LBE1744:
 3100              	.LBE1743:
 3101              	.LBB1746:
 3102              	.LBB1741:
 359:C:/Renesas/e2studio_2021_01_workspace_RZA2M_ANPR/ANPR_RZA2M_EBK/src/tensorflow_lite/third_party/gemmlowp/fixedpoint\fixedpoint.h ****   const IntegerType mask = Dup<IntegerType>((1ll << exponent) - 1);
 3103              		.loc 6 359 0
 3104 0fc0 1F0051E3 		cmp	r1, #31
 3105 0fc4 CE0400CA 		bgt	.L954
 3106              		.loc 6 360 0
 3107 0fc8 901B01EE 		vmov.32	d17[0], r1
 3108              	.LBB1731:
 3109              	.LBB1732:
 141:C:/Renesas/e2studio_2021_01_workspace_RZA2M_ANPR/ANPR_RZA2M_EBK/src/tensorflow_lite/third_party/gemmlowp/fixedpoint\fixedpoint.h **** }
 3110              		.loc 6 141 0
 3111 0fcc 5411A0E1 		asr	r1, r4, r1
 3112              	.LVL369:
 3113              	.LBE1732:
 3114              	.LBE1731:
 3115              		.loc 6 360 0
 3116 0fd0 A07431F3 		vshl.u64	d7, d16, d17
 3117 0fd4 103A17EE 		vmov	r3, s14	@ int
 3118 0fd8 010043E2 		sub	r0, r3, #1
 3119              	.LBB1733:
 3120              	.LBB1734:
 141:C:/Renesas/e2studio_2021_01_workspace_RZA2M_ANPR/ANPR_RZA2M_EBK/src/tensorflow_lite/third_party/gemmlowp/fixedpoint\fixedpoint.h **** }
 3121              		.loc 6 141 0
 3122 0fdc C070A0E1 		asr	r7, r0, #1
 3123              	.LBE1734:
 3124              	.LBE1733:
 3125              	.LBB1735:
 3126              	.LBB1736:
  71:C:/Renesas/e2studio_2021_01_workspace_RZA2M_ANPR/ANPR_RZA2M_EBK/src/tensorflow_lite/third_party/gemmlowp/fixedpoint\fixedpoint.h **** }
 3127              		.loc 6 71 0
 3128 0fe0 040000E0 		and	r0, r0, r4
 3129              	.LBE1736:
 3130              	.LBE1735:
 3131              	.LBB1737:
 3132              	.LBB1738:
  95:C:/Renesas/e2studio_2021_01_workspace_RZA2M_ANPR/ANPR_RZA2M_EBK/src/tensorflow_lite/third_party/gemmlowp/fixedpoint\fixedpoint.h **** }
 3133              		.loc 6 95 0
 3134 0fe4 A44F87E0 		add	r4, r7, r4, lsr #31
 3135              	.LBE1738:
 3136              	.LBE1737:
 3137              	.LBB1739:
 3138              	.LBB1740:
 3139 0fe8 040050E1 		cmp	r0, r4
 3140 0fec 0100A0D1 		movle	r0, r1
 3141 0ff0 010081C2 		addgt	r0, r1, #1
 3142              	.LVL370:
 3143 0ff4 65FFFFEA 		b	.L246
 3144              	.LVL371:
 3145              	.L456:
 3146              	.LBE1740:
 3147              	.LBE1739:
 3148              	.LBE1741:
 3149              	.LBE1746:
 3150              	.LBE1750:
 3151              	.LBE1756:
 3152              	.LBE1789:
 3153              	.LBB1790:
 3154              	.LBB1786:
 3155              	.LBB1783:
 3156              	.LBB1768:
 335:C:/Renesas/e2studio_2021_01_workspace_RZA2M_ANPR/ANPR_RZA2M_EBK/src/tensorflow_lite/third_party/gemmlowp/fixedpoint\fixedpoint.h ****   std::int32_t ab_x2_high32 =
 3157              		.loc 6 335 0
 3158 0ff8 0741A0E3 		mov	r4, #-1073741823
 3159 0ffc 0050E0E3 		mvn	r5, #0
 3160 1000 A7FFFFEA 		b	.L244
 3161              	.LVL372:
 3162              	.L953:
 3163              	.LBE1768:
 3164              	.LBE1783:
 3165              	.LBE1786:
 3166              	.LBE1790:
 3167              	.LBB1791:
 3168              	.LBB1757:
 3169              	.LBB1751:
 3170              	.LBB1747:
 3171              	.LBB1745:
 338:C:/Renesas/e2studio_2021_01_workspace_RZA2M_ANPR/ANPR_RZA2M_EBK/src/tensorflow_lite/third_party/gemmlowp/fixedpoint\fixedpoint.h **** }
 3172              		.loc 6 338 0
 3173 1004 0241E0E3 		mvn	r4, #-2147483648
 3174 1008 ECFFFFEA 		b	.L394
 3175              	.LVL373:
 3176              	.L458:
 335:C:/Renesas/e2studio_2021_01_workspace_RZA2M_ANPR/ANPR_RZA2M_EBK/src/tensorflow_lite/third_party/gemmlowp/fixedpoint\fixedpoint.h ****   std::int32_t ab_x2_high32 =
 3177              		.loc 6 335 0
 3178 100c 0741A0E3 		mov	r4, #-1073741823
 3179              	.LVL374:
 3180 1010 0050E0E3 		mvn	r5, #0
 3181              	.LVL375:
 3182 1014 DEFFFFEA 		b	.L252
 3183              	.LVL376:
 3184              	.L284:
 3185              	.LBE1745:
 3186              	.LBE1747:
 3187              	.LBE1751:
 3188              	.LBE1757:
 3189              	.LBE1791:
 3190              	.LBE1817:
 3191              	.LBE1841:
 3192              	.LBE1857:
 3193              	.LBE1872:
 3194              	.LBE1888:
 3195              	.LBE1702:
 3196              	.LBE1919:
 3197              	.LBE1941:
 3198              	.LBB1942:
 3199              	.LBB1497:
 3200              	.LBB1288:
 3201              	.LBB1276:
 3202              	.LBB1255:
 3203              	.LBB1195:
 3204              	.LBB1193:
 3205              	.LBB1190:
 3206              	.LBB1187:
 216:C:/Renesas/e2studio_2021_01_workspace_RZA2M_ANPR/ANPR_RZA2M_EBK/src/tensorflow_lite/tensorflow/lite/kernels/internal\types.h ****   }
 3207              		.loc 3 216 0
 3208 1018 0C2090E5 		ldr	r2, [r0, #12]
 3209              	.LVL377:
 3210 101c 050057E3 		cmp	r7, #5
 3211 1020 08C090E5 		ldr	ip, [r0, #8]
 3212 1024 01E0A0E3 		mov	lr, #1
 3213 1028 041090E5 		ldr	r1, [r0, #4]
 3214 102c 4C218DE5 		str	r2, [sp, #332]
 3215              	.LVL378:
 3216 1030 58218DE5 		str	r2, [sp, #344]
 3217              	.LBE1187:
 3218              	.LBE1190:
 815:C:/Renesas/e2studio_2021_01_workspace_RZA2M_ANPR/ANPR_RZA2M_EBK/src/tensorflow_lite/tensorflow/lite/kernels/internal\common.h ****   }
 3219              		.loc 4 815 0
 3220 1034 9C0202E0 		mul	r2, ip, r2
 3221              	.LVL379:
 3222 1038 44118DE5 		str	r1, [sp, #324]
 3223 103c 48C18DE5 		str	ip, [sp, #328]
 3224              	.LVL380:
 3225              	.LBB1191:
 3226              	.LBB1188:
 216:C:/Renesas/e2studio_2021_01_workspace_RZA2M_ANPR/ANPR_RZA2M_EBK/src/tensorflow_lite/tensorflow/lite/kernels/internal\types.h ****   }
 3227              		.loc 3 216 0
 3228 1040 00C090E5 		ldr	ip, [r0]
 3229              	.LVL381:
 3230 1044 5CE18DE5 		str	lr, [sp, #348]
 3231              	.LBE1188:
 3232              	.LBE1191:
 815:C:/Renesas/e2studio_2021_01_workspace_RZA2M_ANPR/ANPR_RZA2M_EBK/src/tensorflow_lite/tensorflow/lite/kernels/internal\common.h ****   }
 3233              		.loc 4 815 0
 3234 1048 910201E0 		mul	r1, r1, r2
 3235              	.LVL382:
 3236 104c 54218DE5 		str	r2, [sp, #340]
 3237 1050 40C18DE5 		str	ip, [sp, #320]
 3238              	.LVL383:
 3239 1054 50118DE5 		str	r1, [sp, #336]
 3240 1058 510300CA 		bgt	.L955
 3241              	.LVL384:
 3242              	.LBE1193:
 3243              	.LBE1195:
 3244              	.LBE1255:
 3245              	.LBB1256:
 3246              	.LBB1245:
 3247              	.LBB1220:
 3248              	.LBB1204:
 215:C:/Renesas/e2studio_2021_01_workspace_RZA2M_ANPR/ANPR_RZA2M_EBK/src/tensorflow_lite/tensorflow/lite/kernels/internal\types.h ****     return size_ > kMaxSmallSize ? dims_pointer_[i] : dims_[i];
 3249              		.loc 3 215 0
 3250 105c 000057E3 		cmp	r7, #0
 3251 1060 D80400DA 		ble	.L290
 3252              	.LVL385:
 3253              	.LBE1204:
 3254              	.LBE1220:
 839:C:/Renesas/e2studio_2021_01_workspace_RZA2M_ANPR/ANPR_RZA2M_EBK/src/tensorflow_lite/tensorflow/lite/kernels/internal\common.h ****       if (extent0 == 1) {
 3255              		.loc 4 839 0
 3256 1064 0C0053E1 		cmp	r3, ip
 3257 1068 0900000A 		beq	.L309
 840:C:/Renesas/e2studio_2021_01_workspace_RZA2M_ANPR/ANPR_RZA2M_EBK/src/tensorflow_lite/tensorflow/lite/kernels/internal\common.h ****         desc0_out->strides[i] = 0;
 3258              		.loc 4 840 0
 3259 106c 010053E3 		cmp	r3, #1
 841:C:/Renesas/e2studio_2021_01_workspace_RZA2M_ANPR/ANPR_RZA2M_EBK/src/tensorflow_lite/tensorflow/lite/kernels/internal\common.h ****         desc0_out->extents[i] = extent1;
 3260              		.loc 4 841 0
 3261 1070 0030A003 		moveq	r3, #0
 842:C:/Renesas/e2studio_2021_01_workspace_RZA2M_ANPR/ANPR_RZA2M_EBK/src/tensorflow_lite/tensorflow/lite/kernels/internal\common.h ****       } else {
 3262              		.loc 4 842 0
 3263 1074 20C18D05 		streq	ip, [sp, #288]
 841:C:/Renesas/e2studio_2021_01_workspace_RZA2M_ANPR/ANPR_RZA2M_EBK/src/tensorflow_lite/tensorflow/lite/kernels/internal\common.h ****         desc0_out->extents[i] = extent1;
 3264              		.loc 4 841 0
 3265 1078 30318D05 		streq	r3, [sp, #304]
 840:C:/Renesas/e2studio_2021_01_workspace_RZA2M_ANPR/ANPR_RZA2M_EBK/src/tensorflow_lite/tensorflow/lite/kernels/internal\common.h ****         desc0_out->strides[i] = 0;
 3266              		.loc 4 840 0
 3267 107c 0400000A 		beq	.L309
 844:C:/Renesas/e2studio_2021_01_workspace_RZA2M_ANPR/ANPR_RZA2M_EBK/src/tensorflow_lite/tensorflow/lite/kernels/internal\common.h ****         desc1_out->strides[i] = 0;
 3268              		.loc 4 844 0
 3269 1080 01005CE3 		cmp	ip, #1
 3270 1084 F104001A 		bne	.L293
 845:C:/Renesas/e2studio_2021_01_workspace_RZA2M_ANPR/ANPR_RZA2M_EBK/src/tensorflow_lite/tensorflow/lite/kernels/internal\common.h ****         desc1_out->extents[i] = extent0;
 3271              		.loc 4 845 0
 3272 1088 0020A0E3 		mov	r2, #0
 3273              		.loc 4 846 0
 3274 108c 40318DE5 		str	r3, [sp, #320]
 845:C:/Renesas/e2studio_2021_01_workspace_RZA2M_ANPR/ANPR_RZA2M_EBK/src/tensorflow_lite/tensorflow/lite/kernels/internal\common.h ****         desc1_out->extents[i] = extent0;
 3275              		.loc 4 845 0
 3276 1090 50218DE5 		str	r2, [sp, #336]
 3277              	.L309:
 3278              	.LVL386:
 3279              	.LBB1221:
 3280              	.LBB1205:
 215:C:/Renesas/e2studio_2021_01_workspace_RZA2M_ANPR/ANPR_RZA2M_EBK/src/tensorflow_lite/tensorflow/lite/kernels/internal\types.h ****     return size_ > kMaxSmallSize ? dims_pointer_[i] : dims_[i];
 3281              		.loc 3 215 0
 3282 1094 010057E3 		cmp	r7, #1
 3283 1098 CA04000A 		beq	.L290
 216:C:/Renesas/e2studio_2021_01_workspace_RZA2M_ANPR/ANPR_RZA2M_EBK/src/tensorflow_lite/tensorflow/lite/kernels/internal\types.h ****   }
 3284              		.loc 3 216 0
 3285 109c F8309DE5 		ldr	r3, [sp, #248]
 3286              	.LVL387:
 3287              	.LBE1205:
 3288              	.LBE1221:
 3289              	.LBB1222:
 3290              	.LBB1223:
 3291 10a0 042090E5 		ldr	r2, [r0, #4]
 3292              	.LVL388:
 3293              	.LBE1223:
 3294              	.LBE1222:
 839:C:/Renesas/e2studio_2021_01_workspace_RZA2M_ANPR/ANPR_RZA2M_EBK/src/tensorflow_lite/tensorflow/lite/kernels/internal\common.h ****       if (extent0 == 1) {
 3295              		.loc 4 839 0
 3296 10a4 030052E1 		cmp	r2, r3
 3297 10a8 0900000A 		beq	.L312
 840:C:/Renesas/e2studio_2021_01_workspace_RZA2M_ANPR/ANPR_RZA2M_EBK/src/tensorflow_lite/tensorflow/lite/kernels/internal\common.h ****         desc0_out->strides[i] = 0;
 3298              		.loc 4 840 0
 3299 10ac 010053E3 		cmp	r3, #1
 841:C:/Renesas/e2studio_2021_01_workspace_RZA2M_ANPR/ANPR_RZA2M_EBK/src/tensorflow_lite/tensorflow/lite/kernels/internal\common.h ****         desc0_out->extents[i] = extent1;
 3300              		.loc 4 841 0
 3301 10b0 0030A003 		moveq	r3, #0
 842:C:/Renesas/e2studio_2021_01_workspace_RZA2M_ANPR/ANPR_RZA2M_EBK/src/tensorflow_lite/tensorflow/lite/kernels/internal\common.h ****       } else {
 3302              		.loc 4 842 0
 3303 10b4 24218D05 		streq	r2, [sp, #292]
 841:C:/Renesas/e2studio_2021_01_workspace_RZA2M_ANPR/ANPR_RZA2M_EBK/src/tensorflow_lite/tensorflow/lite/kernels/internal\common.h ****         desc0_out->extents[i] = extent1;
 3304              		.loc 4 841 0
 3305 10b8 34318D05 		streq	r3, [sp, #308]
 840:C:/Renesas/e2studio_2021_01_workspace_RZA2M_ANPR/ANPR_RZA2M_EBK/src/tensorflow_lite/tensorflow/lite/kernels/internal\common.h ****         desc0_out->strides[i] = 0;
 3306              		.loc 4 840 0
 3307 10bc 0400000A 		beq	.L312
 844:C:/Renesas/e2studio_2021_01_workspace_RZA2M_ANPR/ANPR_RZA2M_EBK/src/tensorflow_lite/tensorflow/lite/kernels/internal\common.h ****         desc1_out->strides[i] = 0;
 3308              		.loc 4 844 0
 3309 10c0 010052E3 		cmp	r2, #1
 3310 10c4 E104001A 		bne	.L293
 845:C:/Renesas/e2studio_2021_01_workspace_RZA2M_ANPR/ANPR_RZA2M_EBK/src/tensorflow_lite/tensorflow/lite/kernels/internal\common.h ****         desc1_out->extents[i] = extent0;
 3311              		.loc 4 845 0
 3312 10c8 0020A0E3 		mov	r2, #0
 3313              		.loc 4 846 0
 3314 10cc 44318DE5 		str	r3, [sp, #324]
 845:C:/Renesas/e2studio_2021_01_workspace_RZA2M_ANPR/ANPR_RZA2M_EBK/src/tensorflow_lite/tensorflow/lite/kernels/internal\common.h ****         desc1_out->extents[i] = extent0;
 3315              		.loc 4 845 0
 3316 10d0 54218DE5 		str	r2, [sp, #340]
 3317              	.L312:
 3318              	.LVL389:
 3319              	.LBB1229:
 3320              	.LBB1206:
 215:C:/Renesas/e2studio_2021_01_workspace_RZA2M_ANPR/ANPR_RZA2M_EBK/src/tensorflow_lite/tensorflow/lite/kernels/internal\types.h ****     return size_ > kMaxSmallSize ? dims_pointer_[i] : dims_[i];
 3321              		.loc 3 215 0
 3322 10d4 020057E3 		cmp	r7, #2
 3323 10d8 BA04000A 		beq	.L290
 216:C:/Renesas/e2studio_2021_01_workspace_RZA2M_ANPR/ANPR_RZA2M_EBK/src/tensorflow_lite/tensorflow/lite/kernels/internal\types.h ****   }
 3324              		.loc 3 216 0
 3325 10dc FC309DE5 		ldr	r3, [sp, #252]
 3326              	.LVL390:
 3327              	.LBE1206:
 3328              	.LBE1229:
 3329              	.LBB1230:
 3330              	.LBB1224:
 3331 10e0 082090E5 		ldr	r2, [r0, #8]
 3332              	.LVL391:
 3333              	.LBE1224:
 3334              	.LBE1230:
 839:C:/Renesas/e2studio_2021_01_workspace_RZA2M_ANPR/ANPR_RZA2M_EBK/src/tensorflow_lite/tensorflow/lite/kernels/internal\common.h ****       if (extent0 == 1) {
 3335              		.loc 4 839 0
 3336 10e4 030052E1 		cmp	r2, r3
 3337 10e8 0900000A 		beq	.L314
 840:C:/Renesas/e2studio_2021_01_workspace_RZA2M_ANPR/ANPR_RZA2M_EBK/src/tensorflow_lite/tensorflow/lite/kernels/internal\common.h ****         desc0_out->strides[i] = 0;
 3338              		.loc 4 840 0
 3339 10ec 010053E3 		cmp	r3, #1
 841:C:/Renesas/e2studio_2021_01_workspace_RZA2M_ANPR/ANPR_RZA2M_EBK/src/tensorflow_lite/tensorflow/lite/kernels/internal\common.h ****         desc0_out->extents[i] = extent1;
 3340              		.loc 4 841 0
 3341 10f0 0030A003 		moveq	r3, #0
 842:C:/Renesas/e2studio_2021_01_workspace_RZA2M_ANPR/ANPR_RZA2M_EBK/src/tensorflow_lite/tensorflow/lite/kernels/internal\common.h ****       } else {
 3342              		.loc 4 842 0
 3343 10f4 28218D05 		streq	r2, [sp, #296]
 841:C:/Renesas/e2studio_2021_01_workspace_RZA2M_ANPR/ANPR_RZA2M_EBK/src/tensorflow_lite/tensorflow/lite/kernels/internal\common.h ****         desc0_out->extents[i] = extent1;
 3344              		.loc 4 841 0
 3345 10f8 38318D05 		streq	r3, [sp, #312]
 840:C:/Renesas/e2studio_2021_01_workspace_RZA2M_ANPR/ANPR_RZA2M_EBK/src/tensorflow_lite/tensorflow/lite/kernels/internal\common.h ****         desc0_out->strides[i] = 0;
 3346              		.loc 4 840 0
 3347 10fc 0400000A 		beq	.L314
 844:C:/Renesas/e2studio_2021_01_workspace_RZA2M_ANPR/ANPR_RZA2M_EBK/src/tensorflow_lite/tensorflow/lite/kernels/internal\common.h ****         desc1_out->strides[i] = 0;
 3348              		.loc 4 844 0
 3349 1100 010052E3 		cmp	r2, #1
 3350 1104 D104001A 		bne	.L293
 845:C:/Renesas/e2studio_2021_01_workspace_RZA2M_ANPR/ANPR_RZA2M_EBK/src/tensorflow_lite/tensorflow/lite/kernels/internal\common.h ****         desc1_out->extents[i] = extent0;
 3351              		.loc 4 845 0
 3352 1108 0020A0E3 		mov	r2, #0
 3353              		.loc 4 846 0
 3354 110c 48318DE5 		str	r3, [sp, #328]
 845:C:/Renesas/e2studio_2021_01_workspace_RZA2M_ANPR/ANPR_RZA2M_EBK/src/tensorflow_lite/tensorflow/lite/kernels/internal\common.h ****         desc1_out->extents[i] = extent0;
 3355              		.loc 4 845 0
 3356 1110 58218DE5 		str	r2, [sp, #344]
 3357              	.L314:
 3358              	.LVL392:
 3359              	.LBB1231:
 3360              	.LBB1207:
 215:C:/Renesas/e2studio_2021_01_workspace_RZA2M_ANPR/ANPR_RZA2M_EBK/src/tensorflow_lite/tensorflow/lite/kernels/internal\types.h ****     return size_ > kMaxSmallSize ? dims_pointer_[i] : dims_[i];
 3361              		.loc 3 215 0
 3362 1114 030057E3 		cmp	r7, #3
 3363 1118 AA04000A 		beq	.L290
 216:C:/Renesas/e2studio_2021_01_workspace_RZA2M_ANPR/ANPR_RZA2M_EBK/src/tensorflow_lite/tensorflow/lite/kernels/internal\types.h ****   }
 3364              		.loc 3 216 0
 3365 111c 00319DE5 		ldr	r3, [sp, #256]
 3366              	.LVL393:
 3367              	.LBE1207:
 3368              	.LBE1231:
 3369              	.LBB1232:
 3370              	.LBB1225:
 3371 1120 0C2090E5 		ldr	r2, [r0, #12]
 3372              	.LVL394:
 3373              	.LBE1225:
 3374              	.LBE1232:
 839:C:/Renesas/e2studio_2021_01_workspace_RZA2M_ANPR/ANPR_RZA2M_EBK/src/tensorflow_lite/tensorflow/lite/kernels/internal\common.h ****       if (extent0 == 1) {
 3375              		.loc 4 839 0
 3376 1124 030052E1 		cmp	r2, r3
 3377 1128 0900000A 		beq	.L317
 3378              	.LVL395:
 3379              	.L324:
 840:C:/Renesas/e2studio_2021_01_workspace_RZA2M_ANPR/ANPR_RZA2M_EBK/src/tensorflow_lite/tensorflow/lite/kernels/internal\common.h ****         desc0_out->strides[i] = 0;
 3380              		.loc 4 840 0
 3381 112c 010053E3 		cmp	r3, #1
 841:C:/Renesas/e2studio_2021_01_workspace_RZA2M_ANPR/ANPR_RZA2M_EBK/src/tensorflow_lite/tensorflow/lite/kernels/internal\common.h ****         desc0_out->extents[i] = extent1;
 3382              		.loc 4 841 0
 3383 1130 0030A003 		moveq	r3, #0
 842:C:/Renesas/e2studio_2021_01_workspace_RZA2M_ANPR/ANPR_RZA2M_EBK/src/tensorflow_lite/tensorflow/lite/kernels/internal\common.h ****       } else {
 3384              		.loc 4 842 0
 3385 1134 2C218D05 		streq	r2, [sp, #300]
 841:C:/Renesas/e2studio_2021_01_workspace_RZA2M_ANPR/ANPR_RZA2M_EBK/src/tensorflow_lite/tensorflow/lite/kernels/internal\common.h ****         desc0_out->extents[i] = extent1;
 3386              		.loc 4 841 0
 3387 1138 3C318D05 		streq	r3, [sp, #316]
 840:C:/Renesas/e2studio_2021_01_workspace_RZA2M_ANPR/ANPR_RZA2M_EBK/src/tensorflow_lite/tensorflow/lite/kernels/internal\common.h ****         desc0_out->strides[i] = 0;
 3388              		.loc 4 840 0
 3389 113c 0400000A 		beq	.L317
 844:C:/Renesas/e2studio_2021_01_workspace_RZA2M_ANPR/ANPR_RZA2M_EBK/src/tensorflow_lite/tensorflow/lite/kernels/internal\common.h ****         desc1_out->strides[i] = 0;
 3390              		.loc 4 844 0
 3391 1140 010052E3 		cmp	r2, #1
 845:C:/Renesas/e2studio_2021_01_workspace_RZA2M_ANPR/ANPR_RZA2M_EBK/src/tensorflow_lite/tensorflow/lite/kernels/internal\common.h ****         desc1_out->extents[i] = extent0;
 3392              		.loc 4 845 0
 3393 1144 0020A003 		moveq	r2, #0
 3394              		.loc 4 846 0
 3395 1148 4C318D05 		streq	r3, [sp, #332]
 3396              	.LVL396:
 845:C:/Renesas/e2studio_2021_01_workspace_RZA2M_ANPR/ANPR_RZA2M_EBK/src/tensorflow_lite/tensorflow/lite/kernels/internal\common.h ****         desc1_out->extents[i] = extent0;
 3397              		.loc 4 845 0
 3398 114c 5C218D05 		streq	r2, [sp, #348]
 844:C:/Renesas/e2studio_2021_01_workspace_RZA2M_ANPR/ANPR_RZA2M_EBK/src/tensorflow_lite/tensorflow/lite/kernels/internal\common.h ****         desc1_out->strides[i] = 0;
 3399              		.loc 4 844 0
 3400 1150 BE04001A 		bne	.L293
 3401              	.LVL397:
 3402              	.L317:
 3403              	.LBE1245:
 3404              	.LBE1256:
 3405              	.LBB1257:
 3406              	.LBB1258:
 207:C:/Renesas/e2studio_2021_01_workspace_RZA2M_ANPR/ANPR_RZA2M_EBK/src/tensorflow_lite/tensorflow/lite/kernels/internal\types.h **** #endif  // TF_LITE_STATIC_MEMORY
 3407              		.loc 3 207 0
 3408 1154 000050E3 		cmp	r0, #0
 3409 1158 0000000A 		beq	.L405
 3410 115c FEFFFFEB 		bl	_ZdaPv
 3411              	.LVL398:
 3412              	.L405:
 3413              	.LBE1258:
 3414              	.LBE1257:
 3415              	.LBB1259:
 3416              	.LBB1260:
 203:C:/Renesas/e2studio_2021_01_workspace_RZA2M_ANPR/ANPR_RZA2M_EBK/src/tensorflow_lite/tensorflow/lite/kernels/internal\types.h **** #ifdef TF_LITE_STATIC_MEMORY
 3417              		.loc 3 203 0
 3418 1160 050057E3 		cmp	r7, #5
 3419 1164 030000DA 		ble	.L328
 207:C:/Renesas/e2studio_2021_01_workspace_RZA2M_ANPR/ANPR_RZA2M_EBK/src/tensorflow_lite/tensorflow/lite/kernels/internal\types.h **** #endif  // TF_LITE_STATIC_MEMORY
 3420              		.loc 3 207 0
 3421 1168 F4009DE5 		ldr	r0, [sp, #244]
 3422 116c 000050E3 		cmp	r0, #0
 3423 1170 0000000A 		beq	.L328
 3424 1174 FEFFFFEB 		bl	_ZdaPv
 3425              	.LVL399:
 3426              	.L328:
 3427              	.LBE1260:
 3428              	.LBE1259:
 3429              	.LBE1276:
 3430              	.LBE1288:
 3431              	.LBB1289:
 3432              	.LBB1290:
 3433              	.LBB1291:
 215:C:/Renesas/e2studio_2021_01_workspace_RZA2M_ANPR/ANPR_RZA2M_EBK/src/tensorflow_lite/tensorflow/lite/kernels/internal\types.h ****     return size_ > kMaxSmallSize ? dims_pointer_[i] : dims_[i];
 3434              		.loc 3 215 0
 3435 1178 D8309DE5 		ldr	r3, [sp, #216]
 3436 117c 000053E3 		cmp	r3, #0
 3437 1180 10308DE5 		str	r3, [sp, #16]
 3438 1184 970400DA 		ble	.L329
 3439              	.LBE1291:
 3440              	.LBE1290:
 3441              	.LBB1296:
 3442              	.LBB1297:
 3443              	.LBB1298:
 216:C:/Renesas/e2studio_2021_01_workspace_RZA2M_ANPR/ANPR_RZA2M_EBK/src/tensorflow_lite/tensorflow/lite/kernels/internal\types.h ****   }
 3444              		.loc 3 216 0
 3445 1188 E0309DE5 		ldr	r3, [sp, #224]
 3446              	.LBE1298:
 3447              	.LBE1297:
 3448              	.LBB1303:
 3449              	.LBB1304:
 3450              	.LBB1305:
 3451              	.LBB1306:
 3452              	.LBB1307:
 3453              	.LBB1308:
 3454              	.LBB1309:
 734:C:/Renesas/e2studio_2021_01_workspace_RZA2M_ANPR/ANPR_RZA2M_EBK/src/tensorflow_lite/tensorflow/lite/kernels/internal\common.h **** }
 3455              		.loc 4 734 0
 3456 118c 00B0A0E3 		mov	fp, #0
 3457 1190 5C219DE5 		ldr	r2, [sp, #348]
 3458 1194 74608DE5 		str	r6, [sp, #116]
 3459              	.LBE1309:
 3460              	.LBE1308:
 3461              	.LBE1307:
 3462              	.LBE1306:
 3463              	.LBE1305:
 3464              	.LBE1304:
 3465              	.LBE1303:
 3466              	.LBB1446:
 3467              	.LBB1299:
 216:C:/Renesas/e2studio_2021_01_workspace_RZA2M_ANPR/ANPR_RZA2M_EBK/src/tensorflow_lite/tensorflow/lite/kernels/internal\types.h ****   }
 3468              		.loc 3 216 0
 3469 1198 0310A0E1 		mov	r1, r3
 3470 119c 18308DE5 		str	r3, [sp, #24]
 3471              	.LBE1299:
 3472              	.LBE1446:
 3473              	.LBB1447:
 3474              	.LBB1431:
 3475              	.LBB1432:
 3476 11a0 E4309DE5 		ldr	r3, [sp, #228]
 3477 11a4 02E0A0E1 		mov	lr, r2
 3478 11a8 30208DE5 		str	r2, [sp, #48]
 3479 11ac 3C219DE5 		ldr	r2, [sp, #316]
 3480 11b0 0300A0E1 		mov	r0, r3
 3481 11b4 14308DE5 		str	r3, [sp, #20]
 3482 11b8 930101E0 		mul	r1, r3, r1
 3483              	.LBE1432:
 3484              	.LBE1431:
 3485              	.LBE1447:
 3486              	.LBE1296:
 3487              	.LBB1460:
 3488              	.LBB1292:
 3489 11bc DC309DE5 		ldr	r3, [sp, #220]
 3490 11c0 0260A0E1 		mov	r6, r2
 3491              	.LVL400:
 3492 11c4 34208DE5 		str	r2, [sp, #52]
 3493              	.LBE1292:
 3494              	.LBE1460:
 3495              	.LBB1461:
 3496              	.LBB1448:
 3497              	.LBB1435:
 3498              	.LBB1408:
 3499              	.LBB1409:
 3500 11c8 E8209DE5 		ldr	r2, [sp, #232]
 3501              	.LBE1409:
 3502              	.LBE1408:
 3503              	.LBE1435:
 3504              	.LBE1448:
 3505              	.LBE1461:
 3506              	.LBB1462:
 3507              	.LBB1293:
 3508 11cc 0C308DE5 		str	r3, [sp, #12]
 3509              	.LBE1293:
 3510              	.LBE1462:
 3511              	.LBB1463:
 3512              	.LBB1449:
 3513              	.LBB1436:
 3514              	.LBB1415:
 3515              	.LBB1380:
 3516              	.LBB1381:
 729:C:/Renesas/e2studio_2021_01_workspace_RZA2M_ANPR/ANPR_RZA2M_EBK/src/tensorflow_lite/tensorflow/lite/kernels/internal\common.h ****   TFLITE_DCHECK(i1 >= 0 && i1 < desc.extents[1]);
 3517              		.loc 4 729 0
 3518 11d0 20319DE5 		ldr	r3, [sp, #288]
 3519              	.LBE1381:
 3520              	.LBE1380:
 3521              	.LBE1415:
 3522              	.LBB1416:
 3523              	.LBB1410:
 216:C:/Renesas/e2studio_2021_01_workspace_RZA2M_ANPR/ANPR_RZA2M_EBK/src/tensorflow_lite/tensorflow/lite/kernels/internal\types.h ****   }
 3524              		.loc 3 216 0
 3525 11d4 02C0A0E1 		mov	ip, r2
 3526 11d8 08208DE5 		str	r2, [sp, #8]
 3527 11dc 8E20A0E1 		lsl	r2, lr, #1
 3528              	.LBE1410:
 3529              	.LBE1416:
 3530              	.LBB1417:
 3531              	.LBB1386:
 3532              	.LBB1382:
 730:C:/Renesas/e2studio_2021_01_workspace_RZA2M_ANPR/ANPR_RZA2M_EBK/src/tensorflow_lite/tensorflow/lite/kernels/internal\common.h ****   TFLITE_DCHECK(i2 >= 0 && i2 < desc.extents[2]);
 3533              		.loc 4 730 0
 3534 11e0 24E19DE5 		ldr	lr, [sp, #292]
 729:C:/Renesas/e2studio_2021_01_workspace_RZA2M_ANPR/ANPR_RZA2M_EBK/src/tensorflow_lite/tensorflow/lite/kernels/internal\common.h ****   TFLITE_DCHECK(i1 >= 0 && i1 < desc.extents[1]);
 3535              		.loc 4 729 0
 3536 11e4 1C308DE5 		str	r3, [sp, #28]
 3537 11e8 8630A0E1 		lsl	r3, r6, #1
 3538 11ec 9C0000E0 		mul	r0, ip, r0
 3539              	.LBE1382:
 3540              	.LBE1386:
 3541              	.LBB1387:
 3542              	.LBB1346:
 3543              	.LBB1313:
 3544              	.LBB1314:
 3545              	.LBB1315:
 3546              	.LBB1316:
 3547              		.loc 6 360 0
 3548 11f0 BE0B5FED 		vldr.64	d16, .L980	@ int
 3549              	.LBE1316:
 3550              	.LBE1315:
 3551              	.LBE1314:
 3552              	.LBE1313:
 3553              	.LBE1346:
 3554              	.LBE1387:
 3555              	.LBB1388:
 3556              	.LBB1383:
 730:C:/Renesas/e2studio_2021_01_workspace_RZA2M_ANPR/ANPR_RZA2M_EBK/src/tensorflow_lite/tensorflow/lite/kernels/internal\common.h ****   TFLITE_DCHECK(i2 >= 0 && i2 < desc.extents[2]);
 3557              		.loc 4 730 0
 3558 11f4 20E08DE5 		str	lr, [sp, #32]
 3559 11f8 02E084E0 		add	lr, r4, r2
 3560 11fc 002062E2 		rsb	r2, r2, #0
 3561 1200 6CE08DE5 		str	lr, [sp, #108]
 3562 1204 48208DE5 		str	r2, [sp, #72]
 3563 1208 032085E0 		add	r2, r5, r3
 3564 120c 003063E2 		rsb	r3, r3, #0
 3565 1210 70208DE5 		str	r2, [sp, #112]
 3566 1214 2C308DE5 		str	r3, [sp, #44]
 3567 1218 9C0102E0 		mul	r2, ip, r1
 731:C:/Renesas/e2studio_2021_01_workspace_RZA2M_ANPR/ANPR_RZA2M_EBK/src/tensorflow_lite/tensorflow/lite/kernels/internal\common.h ****   TFLITE_DCHECK(i3 >= 0 && i3 < desc.extents[3]);
 3568              		.loc 4 731 0
 3569 121c 28319DE5 		ldr	r3, [sp, #296]
 3570 1220 84008DE5 		str	r0, [sp, #132]
 3571 1224 24308DE5 		str	r3, [sp, #36]
 732:C:/Renesas/e2studio_2021_01_workspace_RZA2M_ANPR/ANPR_RZA2M_EBK/src/tensorflow_lite/tensorflow/lite/kernels/internal\common.h ****   return i0 * desc.strides[0] + i1 * desc.strides[1] + i2 * desc.strides[2] +
 3572              		.loc 4 732 0
 3573 1228 2C319DE5 		ldr	r3, [sp, #300]
 3574 122c 88208DE5 		str	r2, [sp, #136]
 3575 1230 28308DE5 		str	r3, [sp, #40]
 733:C:/Renesas/e2studio_2021_01_workspace_RZA2M_ANPR/ANPR_RZA2M_EBK/src/tensorflow_lite/tensorflow/lite/kernels/internal\common.h ****          i3 * desc.strides[3];
 3576              		.loc 4 733 0
 3577 1234 34319DE5 		ldr	r3, [sp, #308]
 3578 1238 7C308DE5 		str	r3, [sp, #124]
 3579 123c 38319DE5 		ldr	r3, [sp, #312]
 3580 1240 58308DE5 		str	r3, [sp, #88]
 3581              	.LBE1383:
 3582              	.LBE1388:
 3583              	.LBB1389:
 3584              	.LBB1347:
 3585              	.LBB1339:
 3586              	.LBB1310:
 729:C:/Renesas/e2studio_2021_01_workspace_RZA2M_ANPR/ANPR_RZA2M_EBK/src/tensorflow_lite/tensorflow/lite/kernels/internal\common.h ****   TFLITE_DCHECK(i1 >= 0 && i1 < desc.extents[1]);
 3587              		.loc 4 729 0
 3588 1244 40319DE5 		ldr	r3, [sp, #320]
 3589 1248 38308DE5 		str	r3, [sp, #56]
 730:C:/Renesas/e2studio_2021_01_workspace_RZA2M_ANPR/ANPR_RZA2M_EBK/src/tensorflow_lite/tensorflow/lite/kernels/internal\common.h ****   TFLITE_DCHECK(i2 >= 0 && i2 < desc.extents[2]);
 3590              		.loc 4 730 0
 3591 124c 44319DE5 		ldr	r3, [sp, #324]
 3592 1250 3C308DE5 		str	r3, [sp, #60]
 731:C:/Renesas/e2studio_2021_01_workspace_RZA2M_ANPR/ANPR_RZA2M_EBK/src/tensorflow_lite/tensorflow/lite/kernels/internal\common.h ****   TFLITE_DCHECK(i3 >= 0 && i3 < desc.extents[3]);
 3593              		.loc 4 731 0
 3594 1254 48319DE5 		ldr	r3, [sp, #328]
 3595 1258 40308DE5 		str	r3, [sp, #64]
 732:C:/Renesas/e2studio_2021_01_workspace_RZA2M_ANPR/ANPR_RZA2M_EBK/src/tensorflow_lite/tensorflow/lite/kernels/internal\common.h ****   return i0 * desc.strides[0] + i1 * desc.strides[1] + i2 * desc.strides[2] +
 3596              		.loc 4 732 0
 3597 125c 4C319DE5 		ldr	r3, [sp, #332]
 3598 1260 44308DE5 		str	r3, [sp, #68]
 733:C:/Renesas/e2studio_2021_01_workspace_RZA2M_ANPR/ANPR_RZA2M_EBK/src/tensorflow_lite/tensorflow/lite/kernels/internal\common.h ****          i3 * desc.strides[3];
 3599              		.loc 4 733 0
 3600 1264 54319DE5 		ldr	r3, [sp, #340]
 3601 1268 80308DE5 		str	r3, [sp, #128]
 3602 126c 58319DE5 		ldr	r3, [sp, #344]
 3603 1270 5C308DE5 		str	r3, [sp, #92]
 3604 1274 50319DE5 		ldr	r3, [sp, #336]
 3605 1278 78308DE5 		str	r3, [sp, #120]
 3606 127c 30319DE5 		ldr	r3, [sp, #304]
 3607 1280 8C308DE5 		str	r3, [sp, #140]
 3608              	.LVL401:
 3609              	.L330:
 3610              	.LBE1310:
 3611              	.LBE1339:
 3612              	.LBE1347:
 3613              	.LBE1389:
 3614              	.LBE1417:
 3615              	.LBE1436:
 3616              	.LBE1449:
 3617              	.LBE1463:
 3618              	.LBB1464:
 3619              	.LBB1294:
 216:C:/Renesas/e2studio_2021_01_workspace_RZA2M_ANPR/ANPR_RZA2M_EBK/src/tensorflow_lite/tensorflow/lite/kernels/internal\types.h ****   }
 3620              		.loc 3 216 0
 3621 1284 10309DE5 		ldr	r3, [sp, #16]
 3622 1288 050053E3 		cmp	r3, #5
 3623 128c 0C309DE5 		ldr	r3, [sp, #12]
 3624 1290 003093C5 		ldrgt	r3, [r3]
 3625              	.LVL402:
 3626              	.LBE1294:
 3627              	.LBE1464:
  41:C:/Renesas/e2studio_2021_01_workspace_RZA2M_ANPR/ANPR_RZA2M_EBK/src/tensorflow_lite/tensorflow/lite/kernels/internal/reference\prelu.h ****     for (int y = 0; y < extended_output_shape.Dims(1); ++y) {
 3628              		.loc 5 41 0
 3629 1294 0B0053E1 		cmp	r3, fp
 3630              	.LBB1465:
 3631              	.LBB1450:
 3632              	.LBB1300:
 215:C:/Renesas/e2studio_2021_01_workspace_RZA2M_ANPR/ANPR_RZA2M_EBK/src/tensorflow_lite/tensorflow/lite/kernels/internal\types.h ****     return size_ > kMaxSmallSize ? dims_pointer_[i] : dims_[i];
 3633              		.loc 3 215 0
 3634 1298 10309DE5 		ldr	r3, [sp, #16]
 3635              	.LBE1300:
 3636              	.LBE1450:
 3637              	.LBE1465:
  41:C:/Renesas/e2studio_2021_01_workspace_RZA2M_ANPR/ANPR_RZA2M_EBK/src/tensorflow_lite/tensorflow/lite/kernels/internal/reference\prelu.h ****     for (int y = 0; y < extended_output_shape.Dims(1); ++y) {
 3638              		.loc 5 41 0
 3639 129c 840300DA 		ble	.L336
 3640              	.LVL403:
 3641              	.LBB1466:
 3642              	.LBB1451:
 3643              	.LBB1301:
 215:C:/Renesas/e2studio_2021_01_workspace_RZA2M_ANPR/ANPR_RZA2M_EBK/src/tensorflow_lite/tensorflow/lite/kernels/internal\types.h ****     return size_ > kMaxSmallSize ? dims_pointer_[i] : dims_[i];
 3644              		.loc 3 215 0
 3645 12a0 010053E3 		cmp	r3, #1
 3646 12a4 4E04000A 		beq	.L337
 3647 12a8 70309DE5 		ldr	r3, [sp, #112]
 3648 12ac 0090A0E3 		mov	r9, #0
 3649 12b0 68308DE5 		str	r3, [sp, #104]
 3650 12b4 6C309DE5 		ldr	r3, [sp, #108]
 3651 12b8 64308DE5 		str	r3, [sp, #100]
 3652 12bc 74309DE5 		ldr	r3, [sp, #116]
 3653 12c0 60308DE5 		str	r3, [sp, #96]
 3654              	.LVL404:
 3655              	.L338:
 216:C:/Renesas/e2studio_2021_01_workspace_RZA2M_ANPR/ANPR_RZA2M_EBK/src/tensorflow_lite/tensorflow/lite/kernels/internal\types.h ****   }
 3656              		.loc 3 216 0
 3657 12c4 10309DE5 		ldr	r3, [sp, #16]
 3658 12c8 050053E3 		cmp	r3, #5
 3659 12cc 0C309DC5 		ldrgt	r3, [sp, #12]
 3660 12d0 18309DD5 		ldrle	r3, [sp, #24]
 3661              	.LVL405:
 3662 12d4 043093C5 		ldrgt	r3, [r3, #4]
 3663              	.LBE1301:
 3664              	.LBE1451:
  42:C:/Renesas/e2studio_2021_01_workspace_RZA2M_ANPR/ANPR_RZA2M_EBK/src/tensorflow_lite/tensorflow/lite/kernels/internal/reference\prelu.h ****       for (int x = 0; x < extended_output_shape.Dims(2); ++x) {
 3665              		.loc 5 42 0
 3666 12d8 090053E1 		cmp	r3, r9
 3667 12dc E20300DA 		ble	.L340
 3668              	.LVL406:
 3669              	.LBB1452:
 3670              	.LBB1437:
 3671              	.LBB1433:
 215:C:/Renesas/e2studio_2021_01_workspace_RZA2M_ANPR/ANPR_RZA2M_EBK/src/tensorflow_lite/tensorflow/lite/kernels/internal\types.h ****     return size_ > kMaxSmallSize ? dims_pointer_[i] : dims_[i];
 3672              		.loc 3 215 0
 3673 12e0 10309DE5 		ldr	r3, [sp, #16]
 3674 12e4 020053E3 		cmp	r3, #2
 3675 12e8 3C04000A 		beq	.L341
 3676 12ec 68309DE5 		ldr	r3, [sp, #104]
 3677 12f0 0080A0E3 		mov	r8, #0
 3678 12f4 4C308DE5 		str	r3, [sp, #76]
 3679 12f8 64309DE5 		ldr	r3, [sp, #100]
 3680 12fc 50308DE5 		str	r3, [sp, #80]
 3681 1300 60309DE5 		ldr	r3, [sp, #96]
 3682 1304 54308DE5 		str	r3, [sp, #84]
 3683              	.LVL407:
 3684              	.L342:
 216:C:/Renesas/e2studio_2021_01_workspace_RZA2M_ANPR/ANPR_RZA2M_EBK/src/tensorflow_lite/tensorflow/lite/kernels/internal\types.h ****   }
 3685              		.loc 3 216 0
 3686 1308 10309DE5 		ldr	r3, [sp, #16]
 3687 130c 050053E3 		cmp	r3, #5
 3688 1310 0C309DC5 		ldrgt	r3, [sp, #12]
 3689 1314 14309DD5 		ldrle	r3, [sp, #20]
 3690              	.LVL408:
 3691 1318 083093C5 		ldrgt	r3, [r3, #8]
 3692              	.LBE1433:
 3693              	.LBE1437:
  43:C:/Renesas/e2studio_2021_01_workspace_RZA2M_ANPR/ANPR_RZA2M_EBK/src/tensorflow_lite/tensorflow/lite/kernels/internal/reference\prelu.h ****         for (int c = 0; c < extended_output_shape.Dims(3); ++c) {
 3694              		.loc 5 43 0
 3695 131c 080053E1 		cmp	r3, r8
 3696 1320 400300DA 		ble	.L344
 3697              	.LVL409:
 3698              	.LBB1438:
 3699              	.LBB1418:
 3700              	.LBB1411:
 215:C:/Renesas/e2studio_2021_01_workspace_RZA2M_ANPR/ANPR_RZA2M_EBK/src/tensorflow_lite/tensorflow/lite/kernels/internal\types.h ****     return size_ > kMaxSmallSize ? dims_pointer_[i] : dims_[i];
 3701              		.loc 3 215 0
 3702 1324 10309DE5 		ldr	r3, [sp, #16]
 3703 1328 030053E3 		cmp	r3, #3
 3704 132c 5C03000A 		beq	.L956
 216:C:/Renesas/e2studio_2021_01_workspace_RZA2M_ANPR/ANPR_RZA2M_EBK/src/tensorflow_lite/tensorflow/lite/kernels/internal\types.h ****   }
 3705              		.loc 3 216 0
 3706 1330 050053E3 		cmp	r3, #5
 215:C:/Renesas/e2studio_2021_01_workspace_RZA2M_ANPR/ANPR_RZA2M_EBK/src/tensorflow_lite/tensorflow/lite/kernels/internal\types.h ****     return size_ > kMaxSmallSize ? dims_pointer_[i] : dims_[i];
 3707              		.loc 3 215 0
 3708 1334 54309DE5 		ldr	r3, [sp, #84]
 3709 1338 4CC09DE5 		ldr	ip, [sp, #76]
 3710 133c 0020A0E3 		mov	r2, #0
 3711              	.LVL410:
 3712 1340 50E09DE5 		ldr	lr, [sp, #80]
 3713 1344 04308DE5 		str	r3, [sp, #4]
 216:C:/Renesas/e2studio_2021_01_workspace_RZA2M_ANPR/ANPR_RZA2M_EBK/src/tensorflow_lite/tensorflow/lite/kernels/internal\types.h ****   }
 3714              		.loc 3 216 0
 3715 1348 260000DA 		ble	.L466
 3716 134c 5E0000EA 		b	.L957
 3717              	.LVL411:
 3718              	.L758:
 3719              	.LBE1411:
 3720              	.LBE1418:
 3721              	.LBB1419:
 3722              	.LBB1390:
 3723              	.LBB1348:
 3724              	.LBB1349:
 3725              	.LBB1350:
 3726              	.LBB1351:
 337:C:/Renesas/e2studio_2021_01_workspace_RZA2M_ANPR/ANPR_RZA2M_EBK/src/tensorflow_lite/third_party/gemmlowp/fixedpoint\fixedpoint.h ****   return overflow ? std::numeric_limits<std::int32_t>::max() : ab_x2_high32;
 3727              		.loc 6 337 0
 3728 1350 004094E0 		adds	r4, r4, r0
 3729              	.LVL412:
 3730 1354 0150A5E0 		adc	r5, r5, r1
 3731 1358 0010A0E3 		mov	r1, #0
 3732 135c C50FA0E1 		asr	r0, r5, #31
 3733              	.LVL413:
 3734 1360 0201C0E3 		bic	r0, r0, #-2147483648
 3735 1364 040090E0 		adds	r0, r0, r4
 3736 1368 A00FA0E1 		lsr	r0, r0, #31
 3737 136c 0510A1E0 		adc	r1, r1, r5
 3738 1370 810080E1 		orr	r0, r0, r1, lsl #1
 3739              	.LVL414:
 3740              	.L396:
 3741              	.LBE1351:
 3742              	.LBE1350:
 3743              	.LBB1354:
 3744              	.LBB1355:
 359:C:/Renesas/e2studio_2021_01_workspace_RZA2M_ANPR/ANPR_RZA2M_EBK/src/tensorflow_lite/third_party/gemmlowp/fixedpoint\fixedpoint.h ****   const IntegerType mask = Dup<IntegerType>((1ll << exponent) - 1);
 3745              		.loc 6 359 0
 3746 1374 1F0053E3 		cmp	r3, #31
 3747 1378 770300CA 		bgt	.L958
 3748              		.loc 6 360 0
 3749 137c 903B02EE 		vmov.32	d18[0], r3
 3750              	.LBB1356:
 3751              	.LBB1357:
 141:C:/Renesas/e2studio_2021_01_workspace_RZA2M_ANPR/ANPR_RZA2M_EBK/src/tensorflow_lite/third_party/gemmlowp/fixedpoint\fixedpoint.h **** }
 3752              		.loc 6 141 0
 3753 1380 5033A0E1 		asr	r3, r0, r3
 3754              	.LVL415:
 3755              	.LBE1357:
 3756              	.LBE1356:
 3757              		.loc 6 360 0
 3758 1384 A01472F3 		vshl.u64	d17, d16, d18
 3759 1388 314B55EC 		vmov	r4, r5, d17	@ int
 3760 138c 015044E2 		sub	r5, r4, #1
 3761              	.LBB1358:
 3762              	.LBB1359:
 141:C:/Renesas/e2studio_2021_01_workspace_RZA2M_ANPR/ANPR_RZA2M_EBK/src/tensorflow_lite/third_party/gemmlowp/fixedpoint\fixedpoint.h **** }
 3763              		.loc 6 141 0
 3764 1390 C540A0E1 		asr	r4, r5, #1
 3765              	.LBE1359:
 3766              	.LBE1358:
 3767              	.LBB1360:
 3768              	.LBB1361:
  71:C:/Renesas/e2studio_2021_01_workspace_RZA2M_ANPR/ANPR_RZA2M_EBK/src/tensorflow_lite/third_party/gemmlowp/fixedpoint\fixedpoint.h **** }
 3769              		.loc 6 71 0
 3770 1394 005005E0 		and	r5, r5, r0
 3771              	.LBE1361:
 3772              	.LBE1360:
 3773              	.LBB1362:
 3774              	.LBB1363:
  95:C:/Renesas/e2studio_2021_01_workspace_RZA2M_ANPR/ANPR_RZA2M_EBK/src/tensorflow_lite/third_party/gemmlowp/fixedpoint\fixedpoint.h **** }
 3775              		.loc 6 95 0
 3776 1398 A00F84E0 		add	r0, r4, r0, lsr #31
 3777              	.LBE1363:
 3778              	.LBE1362:
 3779              	.LBB1364:
 3780              	.LBB1365:
 3781 139c 000055E1 		cmp	r5, r0
 3782 13a0 0300A0D1 		movle	r0, r3
 3783 13a4 010083C2 		addgt	r0, r3, #1
 3784              	.LVL416:
 3785              	.L361:
 3786              	.LBE1365:
 3787              	.LBE1364:
 3788              	.LBE1355:
 3789              	.LBE1354:
 3790              	.LBE1349:
 3791              	.LBE1348:
 3792              	.LBE1390:
  62:C:/Renesas/e2studio_2021_01_workspace_RZA2M_ANPR/ANPR_RZA2M_EBK/src/tensorflow_lite/tensorflow/lite/kernels/internal/reference\prelu.h **** 
 3793              		.loc 5 62 0
 3794 13a8 08409AE5 		ldr	r4, [r10, #8]
 3795 13ac 040080E0 		add	r0, r0, r4
 3796              	.LVL417:
 3797              	.LBB1391:
 3798              	.LBB1392:
 3799              		.loc 7 224 0
 3800 13b0 7F0070E3 		cmn	r0, #127
 3801 13b4 7F00E0B3 		mvnlt	r0, #127
 3802              	.LVL418:
 3803 13b8 020000BA 		blt	.L369
 3804              	.LVL419:
 3805              	.LBE1392:
 3806              	.LBE1391:
 3807              	.LBB1393:
 3808              	.LBB1394:
 200:c:\program files (x86)\gnu tools arm embedded\6 2017-q2-update\arm-none-eabi\include\c++\6.3.1\bits\stl_algobase.h **** 	return __b;
 3809              		.loc 7 200 0
 3810 13bc 7E0050E3 		cmp	r0, #126
 3811 13c0 7000AFD6 		sxtble	r0, r0
 3812 13c4 7F00A0C3 		movgt	r0, #127
 3813              	.LVL420:
 3814              	.L369:
 3815              	.LBE1394:
 3816              	.LBE1393:
 3817              		.loc 5 68 0
 3818 13c8 04309DE5 		ldr	r3, [sp, #4]
 3819              	.LBE1419:
  44:C:/Renesas/e2studio_2021_01_workspace_RZA2M_ANPR/ANPR_RZA2M_EBK/src/tensorflow_lite/tensorflow/lite/kernels/internal/reference\prelu.h ****           int output_index = Offset(extended_output_shape, b, y, x, c);
 3820              		.loc 5 44 0
 3821 13cc 012082E2 		add	r2, r2, #1
 3822              	.LVL421:
 3823              	.LBB1420:
 3824              		.loc 5 68 0
 3825 13d0 0100C3E4 		strb	r0, [r3], #1
 3826              	.LVL422:
 3827 13d4 04308DE5 		str	r3, [sp, #4]
 3828              	.LVL423:
 3829 13d8 30309DE5 		ldr	r3, [sp, #48]
 3830 13dc 03E08EE0 		add	lr, lr, r3
 3831 13e0 34309DE5 		ldr	r3, [sp, #52]
 3832 13e4 03C08CE0 		add	ip, ip, r3
 3833              	.LVL424:
 3834              	.L466:
 3835              	.LBE1420:
 3836              	.LBB1421:
 3837              	.LBB1412:
 216:C:/Renesas/e2studio_2021_01_workspace_RZA2M_ANPR/ANPR_RZA2M_EBK/src/tensorflow_lite/tensorflow/lite/kernels/internal\types.h ****   }
 3838              		.loc 3 216 0
 3839 13e8 08309DE5 		ldr	r3, [sp, #8]
 3840              	.LVL425:
 3841              	.LBE1412:
 3842              	.LBE1421:
  44:C:/Renesas/e2studio_2021_01_workspace_RZA2M_ANPR/ANPR_RZA2M_EBK/src/tensorflow_lite/tensorflow/lite/kernels/internal/reference\prelu.h ****           int output_index = Offset(extended_output_shape, b, y, x, c);
 3843              		.loc 5 44 0
 3844 13ec 020053E1 		cmp	r3, r2
 3845 13f0 390000DA 		ble	.L347
 3846              	.L968:
 3847              	.LVL426:
 3848              	.LBB1422:
 3849              	.LBB1395:
 3850              	.LBB1396:
 404:C:/Renesas/e2studio_2021_01_workspace_RZA2M_ANPR/ANPR_RZA2M_EBK/src/tensorflow_lite/tensorflow/lite/kernels/internal\types.h ****   const int* dims_data = reinterpret_cast<const int*>(shape.DimsDataUpTo5D());
 3851              		.loc 3 404 0
 3852 13f4 10309DE5 		ldr	r3, [sp, #16]
 3853 13f8 040053E3 		cmp	r3, #4
 3854 13fc 2903001A 		bne	.L959
 406:C:/Renesas/e2studio_2021_01_workspace_RZA2M_ANPR/ANPR_RZA2M_EBK/src/tensorflow_lite/tensorflow/lite/kernels/internal\types.h ****   TFLITE_DCHECK(i1 >= 0 && i1 < dims_data[1]);
 3855              		.loc 3 406 0
 3856 1400 0C309DE5 		ldr	r3, [sp, #12]
 3857 1404 0B0053E1 		cmp	r3, fp
 3858 1408 EF0200DA 		ble	.L960
 407:C:/Renesas/e2studio_2021_01_workspace_RZA2M_ANPR/ANPR_RZA2M_EBK/src/tensorflow_lite/tensorflow/lite/kernels/internal\types.h ****   TFLITE_DCHECK(i2 >= 0 && i2 < dims_data[2]);
 3859              		.loc 3 407 0
 3860 140c 18309DE5 		ldr	r3, [sp, #24]
 3861 1410 090053E1 		cmp	r3, r9
 3862 1414 EB0200DA 		ble	.L961
 408:C:/Renesas/e2studio_2021_01_workspace_RZA2M_ANPR/ANPR_RZA2M_EBK/src/tensorflow_lite/tensorflow/lite/kernels/internal\types.h ****   TFLITE_DCHECK(i3 >= 0 && i3 < dims_data[3]);
 3863              		.loc 3 408 0
 3864 1418 14309DE5 		ldr	r3, [sp, #20]
 3865 141c 080053E1 		cmp	r3, r8
 3866 1420 E70200DA 		ble	.L962
 3867              		.loc 3 409 0
 3868 1424 08309DE5 		ldr	r3, [sp, #8]
 3869 1428 020053E1 		cmp	r3, r2
 3870 142c E30200DA 		ble	.L963
 3871              	.LVL427:
 3872              	.LBE1396:
 3873              	.LBE1395:
 3874              	.LBB1399:
 3875              	.LBB1384:
 729:C:/Renesas/e2studio_2021_01_workspace_RZA2M_ANPR/ANPR_RZA2M_EBK/src/tensorflow_lite/tensorflow/lite/kernels/internal\common.h ****   TFLITE_DCHECK(i1 >= 0 && i1 < desc.extents[1]);
 3876              		.loc 4 729 0
 3877 1430 1C309DE5 		ldr	r3, [sp, #28]
 3878 1434 0B0053E1 		cmp	r3, fp
 3879 1438 DF0200DA 		ble	.L964
 730:C:/Renesas/e2studio_2021_01_workspace_RZA2M_ANPR/ANPR_RZA2M_EBK/src/tensorflow_lite/tensorflow/lite/kernels/internal\common.h ****   TFLITE_DCHECK(i2 >= 0 && i2 < desc.extents[2]);
 3880              		.loc 4 730 0
 3881 143c 20309DE5 		ldr	r3, [sp, #32]
 3882 1440 090053E1 		cmp	r3, r9
 3883 1444 DB0200DA 		ble	.L965
 731:C:/Renesas/e2studio_2021_01_workspace_RZA2M_ANPR/ANPR_RZA2M_EBK/src/tensorflow_lite/tensorflow/lite/kernels/internal\common.h ****   TFLITE_DCHECK(i3 >= 0 && i3 < desc.extents[3]);
 3884              		.loc 4 731 0
 3885 1448 24309DE5 		ldr	r3, [sp, #36]
 3886 144c 080053E1 		cmp	r3, r8
 3887 1450 D70200DA 		ble	.L966
 732:C:/Renesas/e2studio_2021_01_workspace_RZA2M_ANPR/ANPR_RZA2M_EBK/src/tensorflow_lite/tensorflow/lite/kernels/internal\common.h ****   return i0 * desc.strides[0] + i1 * desc.strides[1] + i2 * desc.strides[2] +
 3888              		.loc 4 732 0
 3889 1454 28309DE5 		ldr	r3, [sp, #40]
 3890 1458 020053E1 		cmp	r3, r2
 3891 145c D30200DA 		ble	.L967
 3892              	.LVL428:
 3893              	.LBE1384:
 3894              	.LBE1399:
  48:C:/Renesas/e2studio_2021_01_workspace_RZA2M_ANPR/ANPR_RZA2M_EBK/src/tensorflow_lite/tensorflow/lite/kernels/internal/reference\prelu.h ****           int32_t output_value;
 3895              		.loc 5 48 0
 3896 1460 2C309DE5 		ldr	r3, [sp, #44]
 3897 1464 00F0DCF5 		pld	[ip]
 3898 1468 D3009CE1 		ldrsb	r0, [ip, r3]
 3899 146c 00309AE5 		ldr	r3, [r10]
 3900              	.LVL429:
 3901              	.LBB1400:
  50:C:/Renesas/e2studio_2021_01_workspace_RZA2M_ANPR/ANPR_RZA2M_EBK/src/tensorflow_lite/tensorflow/lite/kernels/internal/reference\prelu.h ****             output_value = MultiplyByQuantizedMultiplier(
 3902              		.loc 5 50 0
 3903 1470 030090E0 		adds	r0, r0, r3
 3904              	.LVL430:
 3905 1474 2600004A 		bmi	.L357
  52:C:/Renesas/e2studio_2021_01_workspace_RZA2M_ANPR/ANPR_RZA2M_EBK/src/tensorflow_lite/tensorflow/lite/kernels/internal/reference\prelu.h ****           } else {
 3906              		.loc 5 52 0
 3907 1478 10309AE5 		ldr	r3, [r10, #16]
 3908              	.LVL431:
 3909 147c 0C109AE5 		ldr	r1, [r10, #12]
 3910              	.LVL432:
 3911              	.LBB1373:
 3912              	.LBB1370:
 162:C:/Renesas/e2studio_2021_01_workspace_RZA2M_ANPR/ANPR_RZA2M_EBK/src/tensorflow_lite/tensorflow/lite/kernels/internal\common.h ****   return RoundingDivideByPOT(SaturatingRoundingDoublingHighMul(
 3913              		.loc 4 162 0
 3914 1480 000053E3 		cmp	r3, #0
 161:C:/Renesas/e2studio_2021_01_workspace_RZA2M_ANPR/ANPR_RZA2M_EBK/src/tensorflow_lite/tensorflow/lite/kernels/internal\common.h ****   int right_shift = shift > 0 ? 0 : -shift;
 3915              		.loc 4 161 0
 3916 1484 C37FC3E1 		bic	r7, r3, r3, asr #31
 3917              	.LVL433:
 162:C:/Renesas/e2studio_2021_01_workspace_RZA2M_ANPR/ANPR_RZA2M_EBK/src/tensorflow_lite/tensorflow/lite/kernels/internal\common.h ****   return RoundingDivideByPOT(SaturatingRoundingDoublingHighMul(
 3918              		.loc 4 162 0
 3919 1488 003063D2 		rsble	r3, r3, #0
 3920              	.LVL434:
 3921 148c 0030A0C3 		movgt	r3, #0
 3922              	.LVL435:
 163:C:/Renesas/e2studio_2021_01_workspace_RZA2M_ANPR/ANPR_RZA2M_EBK/src/tensorflow_lite/tensorflow/lite/kernels/internal\common.h ****                                  x * (1 << left_shift), quantized_multiplier),
 3923              		.loc 4 163 0
 3924 1490 1077A0E1 		lsl	r7, r0, r7
 3925              	.LVL436:
 3926              	.LBB1367:
 3927              	.LBB1352:
 334:C:/Renesas/e2studio_2021_01_workspace_RZA2M_ANPR/ANPR_RZA2M_EBK/src/tensorflow_lite/third_party/gemmlowp/fixedpoint\fixedpoint.h ****   std::int32_t nudge = ab_64 >= 0 ? (1 << 30) : (1 - (1 << 30));
 3928              		.loc 6 334 0
 3929 1494 9741C5E0 		smull	r4, r5, r7, r1
 331:C:/Renesas/e2studio_2021_01_workspace_RZA2M_ANPR/ANPR_RZA2M_EBK/src/tensorflow_lite/third_party/gemmlowp/fixedpoint\fixedpoint.h ****   std::int64_t a_64(a);
 3930              		.loc 6 331 0
 3931 1498 070051E1 		cmp	r1, r7
 3932 149c 02015703 		cmpeq	r7, #-2147483648
 3933 14a0 0170A003 		moveq	r7, #1
 3934              	.LVL437:
 3935 14a4 0070A013 		movne	r7, #0
 3936              	.LVL438:
 335:C:/Renesas/e2studio_2021_01_workspace_RZA2M_ANPR/ANPR_RZA2M_EBK/src/tensorflow_lite/third_party/gemmlowp/fixedpoint\fixedpoint.h ****   std::int32_t ab_x2_high32 =
 3937              		.loc 6 335 0
 3938 14a8 000054E3 		cmp	r4, #0
 3939 14ac 0010D5E2 		sbcs	r1, r5, #0
 3940              	.LVL439:
 3941 14b0 530000BA 		blt	.L468
 3942 14b4 0101A0E3 		mov	r0, #1073741824
 3943              	.LVL440:
 3944 14b8 0010A0E3 		mov	r1, #0
 3945              	.L359:
 3946              	.LVL441:
 338:C:/Renesas/e2studio_2021_01_workspace_RZA2M_ANPR/ANPR_RZA2M_EBK/src/tensorflow_lite/third_party/gemmlowp/fixedpoint\fixedpoint.h **** }
 3947              		.loc 6 338 0
 3948 14bc 000057E3 		cmp	r7, #0
 3949 14c0 A2FFFF0A 		beq	.L758
 3950 14c4 0201E0E3 		mvn	r0, #-2147483648
 3951              	.LVL442:
 3952 14c8 A9FFFFEA 		b	.L396
 3953              	.LVL443:
 3954              	.L957:
 3955              	.LBE1352:
 3956              	.LBE1367:
 3957              	.LBE1370:
 3958              	.LBE1373:
 3959              	.LBE1400:
 3960              	.LBE1422:
 3961              	.LBB1423:
 3962              	.LBB1413:
 216:C:/Renesas/e2studio_2021_01_workspace_RZA2M_ANPR/ANPR_RZA2M_EBK/src/tensorflow_lite/tensorflow/lite/kernels/internal\types.h ****   }
 3963              		.loc 3 216 0
 3964 14cc 0C309DE5 		ldr	r3, [sp, #12]
 3965 14d0 0C3093E5 		ldr	r3, [r3, #12]
 3966              	.LVL444:
 3967              	.LBE1413:
 3968              	.LBE1423:
  44:C:/Renesas/e2studio_2021_01_workspace_RZA2M_ANPR/ANPR_RZA2M_EBK/src/tensorflow_lite/tensorflow/lite/kernels/internal/reference\prelu.h ****           int output_index = Offset(extended_output_shape, b, y, x, c);
 3969              		.loc 5 44 0
 3970 14d4 020053E1 		cmp	r3, r2
 3971 14d8 C5FFFFCA 		bgt	.L968
 3972              	.L347:
 3973 14dc 54309DE5 		ldr	r3, [sp, #84]
 3974              	.LBE1438:
  43:C:/Renesas/e2studio_2021_01_workspace_RZA2M_ANPR/ANPR_RZA2M_EBK/src/tensorflow_lite/tensorflow/lite/kernels/internal/reference\prelu.h ****         for (int c = 0; c < extended_output_shape.Dims(3); ++c) {
 3975              		.loc 5 43 0
 3976 14e0 018088E2 		add	r8, r8, #1
 3977              	.LVL445:
 3978 14e4 08209DE5 		ldr	r2, [sp, #8]
 3979              	.LVL446:
 3980 14e8 023083E0 		add	r3, r3, r2
 3981 14ec 5C209DE5 		ldr	r2, [sp, #92]
 3982 14f0 54308DE5 		str	r3, [sp, #84]
 3983 14f4 50309DE5 		ldr	r3, [sp, #80]
 3984 14f8 023083E0 		add	r3, r3, r2
 3985 14fc 58209DE5 		ldr	r2, [sp, #88]
 3986 1500 50308DE5 		str	r3, [sp, #80]
 3987 1504 4C309DE5 		ldr	r3, [sp, #76]
 3988 1508 023083E0 		add	r3, r3, r2
 3989 150c 4C308DE5 		str	r3, [sp, #76]
 3990 1510 7CFFFFEA 		b	.L342
 3991              	.LVL447:
 3992              	.L357:
 3993              	.LBB1439:
 3994              	.LBB1424:
 3995              	.LBB1401:
 3996              	.LBB1374:
 3997              	.LBB1340:
 3998              	.LBB1311:
 729:C:/Renesas/e2studio_2021_01_workspace_RZA2M_ANPR/ANPR_RZA2M_EBK/src/tensorflow_lite/tensorflow/lite/kernels/internal\common.h ****   TFLITE_DCHECK(i1 >= 0 && i1 < desc.extents[1]);
 3999              		.loc 4 729 0
 4000 1514 38309DE5 		ldr	r3, [sp, #56]
 4001 1518 0B0053E1 		cmp	r3, fp
 4002 151c 510300DA 		ble	.L969
 730:C:/Renesas/e2studio_2021_01_workspace_RZA2M_ANPR/ANPR_RZA2M_EBK/src/tensorflow_lite/tensorflow/lite/kernels/internal\common.h ****   TFLITE_DCHECK(i2 >= 0 && i2 < desc.extents[2]);
 4003              		.loc 4 730 0
 4004 1520 3C309DE5 		ldr	r3, [sp, #60]
 4005 1524 090053E1 		cmp	r3, r9
 4006 1528 4D0300DA 		ble	.L970
 731:C:/Renesas/e2studio_2021_01_workspace_RZA2M_ANPR/ANPR_RZA2M_EBK/src/tensorflow_lite/tensorflow/lite/kernels/internal\common.h ****   TFLITE_DCHECK(i3 >= 0 && i3 < desc.extents[3]);
 4007              		.loc 4 731 0
 4008 152c 40309DE5 		ldr	r3, [sp, #64]
 4009 1530 080053E1 		cmp	r3, r8
 4010 1534 490300DA 		ble	.L971
 732:C:/Renesas/e2studio_2021_01_workspace_RZA2M_ANPR/ANPR_RZA2M_EBK/src/tensorflow_lite/tensorflow/lite/kernels/internal\common.h ****   return i0 * desc.strides[0] + i1 * desc.strides[1] + i2 * desc.strides[2] +
 4011              		.loc 4 732 0
 4012 1538 44309DE5 		ldr	r3, [sp, #68]
 4013 153c 020053E1 		cmp	r3, r2
 4014 1540 450300DA 		ble	.L972
 4015              	.LVL448:
 4016              	.LBE1311:
 4017              	.LBE1340:
  56:C:/Renesas/e2studio_2021_01_workspace_RZA2M_ANPR/ANPR_RZA2M_EBK/src/tensorflow_lite/tensorflow/lite/kernels/internal/reference\prelu.h **** 
 4018              		.loc 5 56 0
 4019 1544 48309DE5 		ldr	r3, [sp, #72]
  60:C:/Renesas/e2studio_2021_01_workspace_RZA2M_ANPR/ANPR_RZA2M_EBK/src/tensorflow_lite/tensorflow/lite/kernels/internal/reference\prelu.h ****           }
 4020              		.loc 5 60 0
 4021 1548 18109AE5 		ldr	r1, [r10, #24]
  59:C:/Renesas/e2studio_2021_01_workspace_RZA2M_ANPR/ANPR_RZA2M_EBK/src/tensorflow_lite/tensorflow/lite/kernels/internal/reference\prelu.h ****                 params.output_shift_2);
 4022              		.loc 5 59 0
 4023 154c 14409AE5 		ldr	r4, [r10, #20]
  56:C:/Renesas/e2studio_2021_01_workspace_RZA2M_ANPR/ANPR_RZA2M_EBK/src/tensorflow_lite/tensorflow/lite/kernels/internal/reference\prelu.h **** 
 4024              		.loc 5 56 0
 4025 1550 D3709EE1 		ldrsb	r7, [lr, r3]
 4026 1554 04309AE5 		ldr	r3, [r10, #4]
 4027              	.LBB1341:
 4028              	.LBB1335:
 162:C:/Renesas/e2studio_2021_01_workspace_RZA2M_ANPR/ANPR_RZA2M_EBK/src/tensorflow_lite/tensorflow/lite/kernels/internal\common.h ****   return RoundingDivideByPOT(SaturatingRoundingDoublingHighMul(
 4029              		.loc 4 162 0
 4030 1558 000051E3 		cmp	r1, #0
 161:C:/Renesas/e2studio_2021_01_workspace_RZA2M_ANPR/ANPR_RZA2M_EBK/src/tensorflow_lite/tensorflow/lite/kernels/internal\common.h ****   int right_shift = shift > 0 ? 0 : -shift;
 4031              		.loc 4 161 0
 4032 155c C15FC1E1 		bic	r5, r1, r1, asr #31
 162:C:/Renesas/e2studio_2021_01_workspace_RZA2M_ANPR/ANPR_RZA2M_EBK/src/tensorflow_lite/tensorflow/lite/kernels/internal\common.h ****   return RoundingDivideByPOT(SaturatingRoundingDoublingHighMul(
 4033              		.loc 4 162 0
 4034 1560 001061D2 		rsble	r1, r1, #0
 4035 1564 0010A0C3 		movgt	r1, #0
 4036 1568 00F0DEF5 		pld	[lr]
 4037              	.LVL449:
 4038              	.LBE1335:
 4039              	.LBE1341:
  56:C:/Renesas/e2studio_2021_01_workspace_RZA2M_ANPR/ANPR_RZA2M_EBK/src/tensorflow_lite/tensorflow/lite/kernels/internal/reference\prelu.h **** 
 4040              		.loc 5 56 0
 4041 156c 033087E0 		add	r3, r7, r3
 4042              	.LVL450:
  58:C:/Renesas/e2studio_2021_01_workspace_RZA2M_ANPR/ANPR_RZA2M_EBK/src/tensorflow_lite/tensorflow/lite/kernels/internal/reference\prelu.h ****                 input_value * alpha_value, params.output_multiplier_2,
 4043              		.loc 5 58 0
 4044 1570 900303E0 		mul	r3, r0, r3
 4045              	.LVL451:
 4046              	.LBB1342:
 4047              	.LBB1336:
 163:C:/Renesas/e2studio_2021_01_workspace_RZA2M_ANPR/ANPR_RZA2M_EBK/src/tensorflow_lite/tensorflow/lite/kernels/internal\common.h ****                                  x * (1 << left_shift), quantized_multiplier),
 4048              		.loc 4 163 0
 4049 1574 1335A0E1 		lsl	r3, r3, r5
 4050              	.LVL452:
 4051              	.LBB1329:
 4052              	.LBB1330:
 334:C:/Renesas/e2studio_2021_01_workspace_RZA2M_ANPR/ANPR_RZA2M_EBK/src/tensorflow_lite/third_party/gemmlowp/fixedpoint\fixedpoint.h ****   std::int32_t nudge = ab_64 >= 0 ? (1 << 30) : (1 - (1 << 30));
 4053              		.loc 6 334 0
 4054 1578 9364C7E0 		smull	r6, r7, r3, r4
 331:C:/Renesas/e2studio_2021_01_workspace_RZA2M_ANPR/ANPR_RZA2M_EBK/src/tensorflow_lite/third_party/gemmlowp/fixedpoint\fixedpoint.h ****   std::int64_t a_64(a);
 4055              		.loc 6 331 0
 4056 157c 030054E1 		cmp	r4, r3
 4057 1580 02015303 		cmpeq	r3, #-2147483648
 4058 1584 0130A003 		moveq	r3, #1
 4059              	.LVL453:
 4060 1588 0030A013 		movne	r3, #0
 4061              	.LVL454:
 335:C:/Renesas/e2studio_2021_01_workspace_RZA2M_ANPR/ANPR_RZA2M_EBK/src/tensorflow_lite/third_party/gemmlowp/fixedpoint\fixedpoint.h ****   std::int32_t ab_x2_high32 =
 4062              		.loc 6 335 0
 4063 158c 000056E3 		cmp	r6, #0
 4064 1590 0000D7E2 		sbcs	r0, r7, #0
 4065              	.LVL455:
 4066 1594 1F0000BA 		blt	.L470
 4067 1598 0141A0E3 		mov	r4, #1073741824
 4068              	.LVL456:
 4069 159c 0050A0E3 		mov	r5, #0
 4070              	.LVL457:
 4071              	.L367:
 338:C:/Renesas/e2studio_2021_01_workspace_RZA2M_ANPR/ANPR_RZA2M_EBK/src/tensorflow_lite/third_party/gemmlowp/fixedpoint\fixedpoint.h **** }
 4072              		.loc 6 338 0
 4073 15a0 000053E3 		cmp	r3, #0
 4074 15a4 1900001A 		bne	.L973
 337:C:/Renesas/e2studio_2021_01_workspace_RZA2M_ANPR/ANPR_RZA2M_EBK/src/tensorflow_lite/third_party/gemmlowp/fixedpoint\fixedpoint.h ****   return overflow ? std::numeric_limits<std::int32_t>::max() : ab_x2_high32;
 4075              		.loc 6 337 0
 4076 15a8 046096E0 		adds	r6, r6, r4
 4077              	.LVL458:
 4078 15ac 0570A7E0 		adc	r7, r7, r5
 4079 15b0 0050A0E3 		mov	r5, #0
 4080 15b4 C74FA0E1 		asr	r4, r7, #31
 4081 15b8 0241C4E3 		bic	r4, r4, #-2147483648
 4082 15bc 046096E0 		adds	r6, r6, r4
 4083 15c0 A64FA0E1 		lsr	r4, r6, #31
 4084 15c4 0570A7E0 		adc	r7, r7, r5
 4085 15c8 874084E1 		orr	r4, r4, r7, lsl #1
 4086              	.LVL459:
 4087              	.L398:
 4088              	.LBE1330:
 4089              	.LBE1329:
 4090              	.LBB1332:
 4091              	.LBB1327:
 359:C:/Renesas/e2studio_2021_01_workspace_RZA2M_ANPR/ANPR_RZA2M_EBK/src/tensorflow_lite/third_party/gemmlowp/fixedpoint\fixedpoint.h ****   const IntegerType mask = Dup<IntegerType>((1ll << exponent) - 1);
 4092              		.loc 6 359 0
 4093 15cc 1F0051E3 		cmp	r1, #31
 4094 15d0 430300CA 		bgt	.L974
 4095              		.loc 6 360 0
 4096 15d4 901B01EE 		vmov.32	d17[0], r1
 4097              	.LBB1317:
 4098              	.LBB1318:
 141:C:/Renesas/e2studio_2021_01_workspace_RZA2M_ANPR/ANPR_RZA2M_EBK/src/tensorflow_lite/third_party/gemmlowp/fixedpoint\fixedpoint.h **** }
 4099              		.loc 6 141 0
 4100 15d8 5411A0E1 		asr	r1, r4, r1
 4101              	.LVL460:
 4102              	.LBE1318:
 4103              	.LBE1317:
 4104              		.loc 6 360 0
 4105 15dc A07431F3 		vshl.u64	d7, d16, d17
 4106 15e0 103A17EE 		vmov	r3, s14	@ int
 4107 15e4 010043E2 		sub	r0, r3, #1
 4108              	.LBB1319:
 4109              	.LBB1320:
 141:C:/Renesas/e2studio_2021_01_workspace_RZA2M_ANPR/ANPR_RZA2M_EBK/src/tensorflow_lite/third_party/gemmlowp/fixedpoint\fixedpoint.h **** }
 4110              		.loc 6 141 0
 4111 15e8 C070A0E1 		asr	r7, r0, #1
 4112              	.LBE1320:
 4113              	.LBE1319:
 4114              	.LBB1321:
 4115              	.LBB1322:
  71:C:/Renesas/e2studio_2021_01_workspace_RZA2M_ANPR/ANPR_RZA2M_EBK/src/tensorflow_lite/third_party/gemmlowp/fixedpoint\fixedpoint.h **** }
 4116              		.loc 6 71 0
 4117 15ec 040000E0 		and	r0, r0, r4
 4118              	.LBE1322:
 4119              	.LBE1321:
 4120              	.LBB1323:
 4121              	.LBB1324:
  95:C:/Renesas/e2studio_2021_01_workspace_RZA2M_ANPR/ANPR_RZA2M_EBK/src/tensorflow_lite/third_party/gemmlowp/fixedpoint\fixedpoint.h **** }
 4122              		.loc 6 95 0
 4123 15f0 A44F87E0 		add	r4, r7, r4, lsr #31
 4124              	.LBE1324:
 4125              	.LBE1323:
 4126              	.LBB1325:
 4127              	.LBB1326:
 4128 15f4 040050E1 		cmp	r0, r4
 4129 15f8 0100A0D1 		movle	r0, r1
 4130 15fc 010081C2 		addgt	r0, r1, #1
 4131              	.LVL461:
 4132 1600 68FFFFEA 		b	.L361
 4133              	.LVL462:
 4134              	.L468:
 4135              	.LBE1326:
 4136              	.LBE1325:
 4137              	.LBE1327:
 4138              	.LBE1332:
 4139              	.LBE1336:
 4140              	.LBE1342:
 4141              	.LBE1374:
 4142              	.LBB1375:
 4143              	.LBB1371:
 4144              	.LBB1368:
 4145              	.LBB1353:
 335:C:/Renesas/e2studio_2021_01_workspace_RZA2M_ANPR/ANPR_RZA2M_EBK/src/tensorflow_lite/third_party/gemmlowp/fixedpoint\fixedpoint.h ****   std::int32_t ab_x2_high32 =
 4146              		.loc 6 335 0
 4147 1604 0701A0E3 		mov	r0, #-1073741823
 4148              	.LVL463:
 4149 1608 0010E0E3 		mvn	r1, #0
 4150 160c AAFFFFEA 		b	.L359
 4151              	.LVL464:
 4152              	.L973:
 4153              	.LBE1353:
 4154              	.LBE1368:
 4155              	.LBE1371:
 4156              	.LBE1375:
 4157              	.LBB1376:
 4158              	.LBB1343:
 4159              	.LBB1337:
 4160              	.LBB1333:
 4161              	.LBB1331:
 338:C:/Renesas/e2studio_2021_01_workspace_RZA2M_ANPR/ANPR_RZA2M_EBK/src/tensorflow_lite/third_party/gemmlowp/fixedpoint\fixedpoint.h **** }
 4162              		.loc 6 338 0
 4163 1610 0241E0E3 		mvn	r4, #-2147483648
 4164 1614 ECFFFFEA 		b	.L398
 4165              	.LVL465:
 4166              	.L470:
 335:C:/Renesas/e2studio_2021_01_workspace_RZA2M_ANPR/ANPR_RZA2M_EBK/src/tensorflow_lite/third_party/gemmlowp/fixedpoint\fixedpoint.h ****   std::int32_t ab_x2_high32 =
 4167              		.loc 6 335 0
 4168 1618 0741A0E3 		mov	r4, #-1073741823
 4169              	.LVL466:
 4170 161c 0050E0E3 		mvn	r5, #0
 4171              	.LVL467:
 4172 1620 DEFFFFEA 		b	.L367
 4173              	.LVL468:
 4174              	.L50:
 4175              	.LBE1331:
 4176              	.LBE1333:
 4177              	.LBE1337:
 4178              	.LBE1343:
 4179              	.LBE1376:
 4180              	.LBE1401:
 4181              	.LBE1424:
 4182              	.LBE1439:
 4183              	.LBE1452:
 4184              	.LBE1466:
 4185              	.LBE1289:
 4186              	.LBE1497:
 4187              	.LBE1942:
 4188              	.LBB1943:
 4189              	.LBB1082:
 4190              	.LBB955:
 4191              	.LBB944:
 4192              	.LBB923:
 4193              	.LBB863:
 4194              	.LBB861:
 4195              	.LBB858:
 4196              	.LBB855:
 216:C:/Renesas/e2studio_2021_01_workspace_RZA2M_ANPR/ANPR_RZA2M_EBK/src/tensorflow_lite/tensorflow/lite/kernels/internal\types.h ****   }
 4197              		.loc 3 216 0
 4198 1624 0C2090E5 		ldr	r2, [r0, #12]
 4199              	.LVL469:
 4200 1628 050055E3 		cmp	r5, #5
 4201 162c 08C090E5 		ldr	ip, [r0, #8]
 4202 1630 01E0A0E3 		mov	lr, #1
 4203 1634 041090E5 		ldr	r1, [r0, #4]
 4204 1638 4C218DE5 		str	r2, [sp, #332]
 4205              	.LVL470:
 4206 163c 58218DE5 		str	r2, [sp, #344]
 4207              	.LBE855:
 4208              	.LBE858:
 815:C:/Renesas/e2studio_2021_01_workspace_RZA2M_ANPR/ANPR_RZA2M_EBK/src/tensorflow_lite/tensorflow/lite/kernels/internal\common.h ****   }
 4209              		.loc 4 815 0
 4210 1640 920C02E0 		mul	r2, r2, ip
 4211              	.LVL471:
 4212 1644 44118DE5 		str	r1, [sp, #324]
 4213 1648 48C18DE5 		str	ip, [sp, #328]
 4214              	.LVL472:
 4215              	.LBB859:
 4216              	.LBB856:
 216:C:/Renesas/e2studio_2021_01_workspace_RZA2M_ANPR/ANPR_RZA2M_EBK/src/tensorflow_lite/tensorflow/lite/kernels/internal\types.h ****   }
 4217              		.loc 3 216 0
 4218 164c 00C090E5 		ldr	ip, [r0]
 4219              	.LVL473:
 4220 1650 5CE18DE5 		str	lr, [sp, #348]
 4221              	.LBE856:
 4222              	.LBE859:
 815:C:/Renesas/e2studio_2021_01_workspace_RZA2M_ANPR/ANPR_RZA2M_EBK/src/tensorflow_lite/tensorflow/lite/kernels/internal\common.h ****   }
 4223              		.loc 4 815 0
 4224 1654 910201E0 		mul	r1, r1, r2
 4225              	.LVL474:
 4226 1658 54218DE5 		str	r2, [sp, #340]
 4227 165c 40C18DE5 		str	ip, [sp, #320]
 4228              	.LVL475:
 4229 1660 50118DE5 		str	r1, [sp, #336]
 4230 1664 180200CA 		bgt	.L975
 4231              	.LVL476:
 4232              	.LBE861:
 4233              	.LBE863:
 4234              	.LBE923:
 4235              	.LBB924:
 4236              	.LBB913:
 4237              	.LBB888:
 4238              	.LBB872:
 215:C:/Renesas/e2studio_2021_01_workspace_RZA2M_ANPR/ANPR_RZA2M_EBK/src/tensorflow_lite/tensorflow/lite/kernels/internal\types.h ****     return size_ > kMaxSmallSize ? dims_pointer_[i] : dims_[i];
 4239              		.loc 3 215 0
 4240 1668 000055E3 		cmp	r5, #0
 4241 166c 6E0300DA 		ble	.L56
 4242              	.LVL477:
 4243              	.LBE872:
 4244              	.LBE888:
 839:C:/Renesas/e2studio_2021_01_workspace_RZA2M_ANPR/ANPR_RZA2M_EBK/src/tensorflow_lite/tensorflow/lite/kernels/internal\common.h ****       if (extent0 == 1) {
 4245              		.loc 4 839 0
 4246 1670 0C0053E1 		cmp	r3, ip
 4247 1674 0900000A 		beq	.L75
 840:C:/Renesas/e2studio_2021_01_workspace_RZA2M_ANPR/ANPR_RZA2M_EBK/src/tensorflow_lite/tensorflow/lite/kernels/internal\common.h ****         desc0_out->strides[i] = 0;
 4248              		.loc 4 840 0
 4249 1678 010053E3 		cmp	r3, #1
 841:C:/Renesas/e2studio_2021_01_workspace_RZA2M_ANPR/ANPR_RZA2M_EBK/src/tensorflow_lite/tensorflow/lite/kernels/internal\common.h ****         desc0_out->extents[i] = extent1;
 4250              		.loc 4 841 0
 4251 167c 0030A003 		moveq	r3, #0
 842:C:/Renesas/e2studio_2021_01_workspace_RZA2M_ANPR/ANPR_RZA2M_EBK/src/tensorflow_lite/tensorflow/lite/kernels/internal\common.h ****       } else {
 4252              		.loc 4 842 0
 4253 1680 20C18D05 		streq	ip, [sp, #288]
 841:C:/Renesas/e2studio_2021_01_workspace_RZA2M_ANPR/ANPR_RZA2M_EBK/src/tensorflow_lite/tensorflow/lite/kernels/internal\common.h ****         desc0_out->extents[i] = extent1;
 4254              		.loc 4 841 0
 4255 1684 30318D05 		streq	r3, [sp, #304]
 840:C:/Renesas/e2studio_2021_01_workspace_RZA2M_ANPR/ANPR_RZA2M_EBK/src/tensorflow_lite/tensorflow/lite/kernels/internal\common.h ****         desc0_out->strides[i] = 0;
 4256              		.loc 4 840 0
 4257 1688 0400000A 		beq	.L75
 844:C:/Renesas/e2studio_2021_01_workspace_RZA2M_ANPR/ANPR_RZA2M_EBK/src/tensorflow_lite/tensorflow/lite/kernels/internal\common.h ****         desc1_out->strides[i] = 0;
 4258              		.loc 4 844 0
 4259 168c 01005CE3 		cmp	ip, #1
 4260 1690 5803001A 		bne	.L59
 845:C:/Renesas/e2studio_2021_01_workspace_RZA2M_ANPR/ANPR_RZA2M_EBK/src/tensorflow_lite/tensorflow/lite/kernels/internal\common.h ****         desc1_out->extents[i] = extent0;
 4261              		.loc 4 845 0
 4262 1694 0020A0E3 		mov	r2, #0
 4263              		.loc 4 846 0
 4264 1698 40318DE5 		str	r3, [sp, #320]
 845:C:/Renesas/e2studio_2021_01_workspace_RZA2M_ANPR/ANPR_RZA2M_EBK/src/tensorflow_lite/tensorflow/lite/kernels/internal\common.h ****         desc1_out->extents[i] = extent0;
 4265              		.loc 4 845 0
 4266 169c 50218DE5 		str	r2, [sp, #336]
 4267              	.L75:
 4268              	.LVL478:
 4269              	.LBB889:
 4270              	.LBB873:
 215:C:/Renesas/e2studio_2021_01_workspace_RZA2M_ANPR/ANPR_RZA2M_EBK/src/tensorflow_lite/tensorflow/lite/kernels/internal\types.h ****     return size_ > kMaxSmallSize ? dims_pointer_[i] : dims_[i];
 4271              		.loc 3 215 0
 4272 16a0 010055E3 		cmp	r5, #1
 4273 16a4 6003000A 		beq	.L56
 216:C:/Renesas/e2studio_2021_01_workspace_RZA2M_ANPR/ANPR_RZA2M_EBK/src/tensorflow_lite/tensorflow/lite/kernels/internal\types.h ****   }
 4274              		.loc 3 216 0
 4275 16a8 F8309DE5 		ldr	r3, [sp, #248]
 4276              	.LVL479:
 4277              	.LBE873:
 4278              	.LBE889:
 4279              	.LBB890:
 4280              	.LBB891:
 4281 16ac 042090E5 		ldr	r2, [r0, #4]
 4282              	.LVL480:
 4283              	.LBE891:
 4284              	.LBE890:
 839:C:/Renesas/e2studio_2021_01_workspace_RZA2M_ANPR/ANPR_RZA2M_EBK/src/tensorflow_lite/tensorflow/lite/kernels/internal\common.h ****       if (extent0 == 1) {
 4285              		.loc 4 839 0
 4286 16b0 030052E1 		cmp	r2, r3
 4287 16b4 0900000A 		beq	.L78
 840:C:/Renesas/e2studio_2021_01_workspace_RZA2M_ANPR/ANPR_RZA2M_EBK/src/tensorflow_lite/tensorflow/lite/kernels/internal\common.h ****         desc0_out->strides[i] = 0;
 4288              		.loc 4 840 0
 4289 16b8 010053E3 		cmp	r3, #1
 841:C:/Renesas/e2studio_2021_01_workspace_RZA2M_ANPR/ANPR_RZA2M_EBK/src/tensorflow_lite/tensorflow/lite/kernels/internal\common.h ****         desc0_out->extents[i] = extent1;
 4290              		.loc 4 841 0
 4291 16bc 0030A003 		moveq	r3, #0
 842:C:/Renesas/e2studio_2021_01_workspace_RZA2M_ANPR/ANPR_RZA2M_EBK/src/tensorflow_lite/tensorflow/lite/kernels/internal\common.h ****       } else {
 4292              		.loc 4 842 0
 4293 16c0 24218D05 		streq	r2, [sp, #292]
 841:C:/Renesas/e2studio_2021_01_workspace_RZA2M_ANPR/ANPR_RZA2M_EBK/src/tensorflow_lite/tensorflow/lite/kernels/internal\common.h ****         desc0_out->extents[i] = extent1;
 4294              		.loc 4 841 0
 4295 16c4 34318D05 		streq	r3, [sp, #308]
 840:C:/Renesas/e2studio_2021_01_workspace_RZA2M_ANPR/ANPR_RZA2M_EBK/src/tensorflow_lite/tensorflow/lite/kernels/internal\common.h ****         desc0_out->strides[i] = 0;
 4296              		.loc 4 840 0
 4297 16c8 0400000A 		beq	.L78
 844:C:/Renesas/e2studio_2021_01_workspace_RZA2M_ANPR/ANPR_RZA2M_EBK/src/tensorflow_lite/tensorflow/lite/kernels/internal\common.h ****         desc1_out->strides[i] = 0;
 4298              		.loc 4 844 0
 4299 16cc 010052E3 		cmp	r2, #1
 4300 16d0 4803001A 		bne	.L59
 845:C:/Renesas/e2studio_2021_01_workspace_RZA2M_ANPR/ANPR_RZA2M_EBK/src/tensorflow_lite/tensorflow/lite/kernels/internal\common.h ****         desc1_out->extents[i] = extent0;
 4301              		.loc 4 845 0
 4302 16d4 0020A0E3 		mov	r2, #0
 4303              		.loc 4 846 0
 4304 16d8 44318DE5 		str	r3, [sp, #324]
 845:C:/Renesas/e2studio_2021_01_workspace_RZA2M_ANPR/ANPR_RZA2M_EBK/src/tensorflow_lite/tensorflow/lite/kernels/internal\common.h ****         desc1_out->extents[i] = extent0;
 4305              		.loc 4 845 0
 4306 16dc 54218DE5 		str	r2, [sp, #340]
 4307              	.L78:
 4308              	.LVL481:
 4309              	.LBB897:
 4310              	.LBB874:
 215:C:/Renesas/e2studio_2021_01_workspace_RZA2M_ANPR/ANPR_RZA2M_EBK/src/tensorflow_lite/tensorflow/lite/kernels/internal\types.h ****     return size_ > kMaxSmallSize ? dims_pointer_[i] : dims_[i];
 4311              		.loc 3 215 0
 4312 16e0 020055E3 		cmp	r5, #2
 4313 16e4 5003000A 		beq	.L56
 216:C:/Renesas/e2studio_2021_01_workspace_RZA2M_ANPR/ANPR_RZA2M_EBK/src/tensorflow_lite/tensorflow/lite/kernels/internal\types.h ****   }
 4314              		.loc 3 216 0
 4315 16e8 FC309DE5 		ldr	r3, [sp, #252]
 4316              	.LVL482:
 4317              	.LBE874:
 4318              	.LBE897:
 4319              	.LBB898:
 4320              	.LBB892:
 4321 16ec 082090E5 		ldr	r2, [r0, #8]
 4322              	.LVL483:
 4323              	.LBE892:
 4324              	.LBE898:
 839:C:/Renesas/e2studio_2021_01_workspace_RZA2M_ANPR/ANPR_RZA2M_EBK/src/tensorflow_lite/tensorflow/lite/kernels/internal\common.h ****       if (extent0 == 1) {
 4325              		.loc 4 839 0
 4326 16f0 030052E1 		cmp	r2, r3
 4327 16f4 0900000A 		beq	.L80
 840:C:/Renesas/e2studio_2021_01_workspace_RZA2M_ANPR/ANPR_RZA2M_EBK/src/tensorflow_lite/tensorflow/lite/kernels/internal\common.h ****         desc0_out->strides[i] = 0;
 4328              		.loc 4 840 0
 4329 16f8 010053E3 		cmp	r3, #1
 841:C:/Renesas/e2studio_2021_01_workspace_RZA2M_ANPR/ANPR_RZA2M_EBK/src/tensorflow_lite/tensorflow/lite/kernels/internal\common.h ****         desc0_out->extents[i] = extent1;
 4330              		.loc 4 841 0
 4331 16fc 0030A003 		moveq	r3, #0
 842:C:/Renesas/e2studio_2021_01_workspace_RZA2M_ANPR/ANPR_RZA2M_EBK/src/tensorflow_lite/tensorflow/lite/kernels/internal\common.h ****       } else {
 4332              		.loc 4 842 0
 4333 1700 28218D05 		streq	r2, [sp, #296]
 841:C:/Renesas/e2studio_2021_01_workspace_RZA2M_ANPR/ANPR_RZA2M_EBK/src/tensorflow_lite/tensorflow/lite/kernels/internal\common.h ****         desc0_out->extents[i] = extent1;
 4334              		.loc 4 841 0
 4335 1704 38318D05 		streq	r3, [sp, #312]
 840:C:/Renesas/e2studio_2021_01_workspace_RZA2M_ANPR/ANPR_RZA2M_EBK/src/tensorflow_lite/tensorflow/lite/kernels/internal\common.h ****         desc0_out->strides[i] = 0;
 4336              		.loc 4 840 0
 4337 1708 0400000A 		beq	.L80
 844:C:/Renesas/e2studio_2021_01_workspace_RZA2M_ANPR/ANPR_RZA2M_EBK/src/tensorflow_lite/tensorflow/lite/kernels/internal\common.h ****         desc1_out->strides[i] = 0;
 4338              		.loc 4 844 0
 4339 170c 010052E3 		cmp	r2, #1
 4340 1710 3803001A 		bne	.L59
 845:C:/Renesas/e2studio_2021_01_workspace_RZA2M_ANPR/ANPR_RZA2M_EBK/src/tensorflow_lite/tensorflow/lite/kernels/internal\common.h ****         desc1_out->extents[i] = extent0;
 4341              		.loc 4 845 0
 4342 1714 0020A0E3 		mov	r2, #0
 4343              		.loc 4 846 0
 4344 1718 48318DE5 		str	r3, [sp, #328]
 845:C:/Renesas/e2studio_2021_01_workspace_RZA2M_ANPR/ANPR_RZA2M_EBK/src/tensorflow_lite/tensorflow/lite/kernels/internal\common.h ****         desc1_out->extents[i] = extent0;
 4345              		.loc 4 845 0
 4346 171c 58218DE5 		str	r2, [sp, #344]
 4347              	.L80:
 4348              	.LVL484:
 4349              	.LBB899:
 4350              	.LBB875:
 215:C:/Renesas/e2studio_2021_01_workspace_RZA2M_ANPR/ANPR_RZA2M_EBK/src/tensorflow_lite/tensorflow/lite/kernels/internal\types.h ****     return size_ > kMaxSmallSize ? dims_pointer_[i] : dims_[i];
 4351              		.loc 3 215 0
 4352 1720 030055E3 		cmp	r5, #3
 4353 1724 4003000A 		beq	.L56
 216:C:/Renesas/e2studio_2021_01_workspace_RZA2M_ANPR/ANPR_RZA2M_EBK/src/tensorflow_lite/tensorflow/lite/kernels/internal\types.h ****   }
 4354              		.loc 3 216 0
 4355 1728 00319DE5 		ldr	r3, [sp, #256]
 4356              	.LVL485:
 4357              	.LBE875:
 4358              	.LBE899:
 4359              	.LBB900:
 4360              	.LBB893:
 4361 172c 0C2090E5 		ldr	r2, [r0, #12]
 4362              	.LVL486:
 4363              	.LBE893:
 4364              	.LBE900:
 839:C:/Renesas/e2studio_2021_01_workspace_RZA2M_ANPR/ANPR_RZA2M_EBK/src/tensorflow_lite/tensorflow/lite/kernels/internal\common.h ****       if (extent0 == 1) {
 4365              		.loc 4 839 0
 4366 1730 030052E1 		cmp	r2, r3
 4367 1734 0900000A 		beq	.L83
 4368              	.LVL487:
 4369              	.L90:
 840:C:/Renesas/e2studio_2021_01_workspace_RZA2M_ANPR/ANPR_RZA2M_EBK/src/tensorflow_lite/tensorflow/lite/kernels/internal\common.h ****         desc0_out->strides[i] = 0;
 4370              		.loc 4 840 0
 4371 1738 010053E3 		cmp	r3, #1
 841:C:/Renesas/e2studio_2021_01_workspace_RZA2M_ANPR/ANPR_RZA2M_EBK/src/tensorflow_lite/tensorflow/lite/kernels/internal\common.h ****         desc0_out->extents[i] = extent1;
 4372              		.loc 4 841 0
 4373 173c 0030A003 		moveq	r3, #0
 842:C:/Renesas/e2studio_2021_01_workspace_RZA2M_ANPR/ANPR_RZA2M_EBK/src/tensorflow_lite/tensorflow/lite/kernels/internal\common.h ****       } else {
 4374              		.loc 4 842 0
 4375 1740 2C218D05 		streq	r2, [sp, #300]
 841:C:/Renesas/e2studio_2021_01_workspace_RZA2M_ANPR/ANPR_RZA2M_EBK/src/tensorflow_lite/tensorflow/lite/kernels/internal\common.h ****         desc0_out->extents[i] = extent1;
 4376              		.loc 4 841 0
 4377 1744 3C318D05 		streq	r3, [sp, #316]
 840:C:/Renesas/e2studio_2021_01_workspace_RZA2M_ANPR/ANPR_RZA2M_EBK/src/tensorflow_lite/tensorflow/lite/kernels/internal\common.h ****         desc0_out->strides[i] = 0;
 4378              		.loc 4 840 0
 4379 1748 0400000A 		beq	.L83
 844:C:/Renesas/e2studio_2021_01_workspace_RZA2M_ANPR/ANPR_RZA2M_EBK/src/tensorflow_lite/tensorflow/lite/kernels/internal\common.h ****         desc1_out->strides[i] = 0;
 4380              		.loc 4 844 0
 4381 174c 010052E3 		cmp	r2, #1
 845:C:/Renesas/e2studio_2021_01_workspace_RZA2M_ANPR/ANPR_RZA2M_EBK/src/tensorflow_lite/tensorflow/lite/kernels/internal\common.h ****         desc1_out->extents[i] = extent0;
 4382              		.loc 4 845 0
 4383 1750 0020A003 		moveq	r2, #0
 4384              		.loc 4 846 0
 4385 1754 4C318D05 		streq	r3, [sp, #332]
 4386              	.LVL488:
 845:C:/Renesas/e2studio_2021_01_workspace_RZA2M_ANPR/ANPR_RZA2M_EBK/src/tensorflow_lite/tensorflow/lite/kernels/internal\common.h ****         desc1_out->extents[i] = extent0;
 4387              		.loc 4 845 0
 4388 1758 5C218D05 		streq	r2, [sp, #348]
 844:C:/Renesas/e2studio_2021_01_workspace_RZA2M_ANPR/ANPR_RZA2M_EBK/src/tensorflow_lite/tensorflow/lite/kernels/internal\common.h ****         desc1_out->strides[i] = 0;
 4389              		.loc 4 844 0
 4390 175c 2503001A 		bne	.L59
 4391              	.LVL489:
 4392              	.L83:
 4393              	.LBE913:
 4394              	.LBE924:
 4395              	.LBB925:
 4396              	.LBB926:
 207:C:/Renesas/e2studio_2021_01_workspace_RZA2M_ANPR/ANPR_RZA2M_EBK/src/tensorflow_lite/tensorflow/lite/kernels/internal\types.h **** #endif  // TF_LITE_STATIC_MEMORY
 4397              		.loc 3 207 0
 4398 1760 000050E3 		cmp	r0, #0
 4399 1764 0000000A 		beq	.L401
 4400 1768 FEFFFFEB 		bl	_ZdaPv
 4401              	.LVL490:
 4402              	.L401:
 4403              	.LBE926:
 4404              	.LBE925:
 4405              	.LBB927:
 4406              	.LBB928:
 203:C:/Renesas/e2studio_2021_01_workspace_RZA2M_ANPR/ANPR_RZA2M_EBK/src/tensorflow_lite/tensorflow/lite/kernels/internal\types.h **** #ifdef TF_LITE_STATIC_MEMORY
 4407              		.loc 3 203 0
 4408 176c 050055E3 		cmp	r5, #5
 4409 1770 030000DA 		ble	.L94
 207:C:/Renesas/e2studio_2021_01_workspace_RZA2M_ANPR/ANPR_RZA2M_EBK/src/tensorflow_lite/tensorflow/lite/kernels/internal\types.h **** #endif  // TF_LITE_STATIC_MEMORY
 4410              		.loc 3 207 0
 4411 1774 F4009DE5 		ldr	r0, [sp, #244]
 4412 1778 000050E3 		cmp	r0, #0
 4413 177c 0000000A 		beq	.L94
 4414 1780 FEFFFFEB 		bl	_ZdaPv
 4415              	.LVL491:
 4416              	.L94:
 4417              	.LBE928:
 4418              	.LBE927:
 4419              	.LBE944:
 4420              	.LBE955:
 4421              	.LBB956:
 4422              	.LBB957:
 4423              	.LBB958:
 215:C:/Renesas/e2studio_2021_01_workspace_RZA2M_ANPR/ANPR_RZA2M_EBK/src/tensorflow_lite/tensorflow/lite/kernels/internal\types.h ****     return size_ > kMaxSmallSize ? dims_pointer_[i] : dims_[i];
 4424              		.loc 3 215 0
 4425 1784 D8509DE5 		ldr	r5, [sp, #216]
 4426 1788 000055E3 		cmp	r5, #0
 4427 178c 120300DA 		ble	.L95
 4428 1790 30319DE5 		ldr	r3, [sp, #304]
 4429              	.LBE958:
 4430              	.LBE957:
 4431              	.LBB962:
 4432              	.LBB963:
 4433              	.LBB964:
 4434              	.LBB965:
 4435              	.LBB966:
 4436              	.LBB967:
 734:C:/Renesas/e2studio_2021_01_workspace_RZA2M_ANPR/ANPR_RZA2M_EBK/src/tensorflow_lite/tensorflow/lite/kernels/internal\common.h **** }
 4437              		.loc 4 734 0
 4438 1794 00C0A0E3 		mov	ip, #0
 4439 1798 50E19DE5 		ldr	lr, [sp, #336]
 4440 179c 58408DE5 		str	r4, [sp, #88]
 4441 17a0 34419DE5 		ldr	r4, [sp, #308]
 4442              	.LVL492:
 4443 17a4 0331A0E1 		lsl	r3, r3, #2
 4444 17a8 50608DE5 		str	r6, [sp, #80]
 4445 17ac 54619DE5 		ldr	r6, [sp, #340]
 4446              	.LVL493:
 4447 17b0 60308DE5 		str	r3, [sp, #96]
 4448 17b4 0E31A0E1 		lsl	r3, lr, #2
 4449 17b8 38719DE5 		ldr	r7, [sp, #312]
 4450 17bc 5C308DE5 		str	r3, [sp, #92]
 4451 17c0 0431A0E1 		lsl	r3, r4, #2
 4452              	.LBE967:
 4453              	.LBE966:
 4454              	.LBE965:
 4455              	.LBE964:
 4456              	.LBE963:
 4457              	.LBB1035:
 4458              	.LBB1036:
 216:C:/Renesas/e2studio_2021_01_workspace_RZA2M_ANPR/ANPR_RZA2M_EBK/src/tensorflow_lite/tensorflow/lite/kernels/internal\types.h ****   }
 4459              		.loc 3 216 0
 4460 17c4 E0A09DE5 		ldr	r10, [sp, #224]
 4461              	.LVL494:
 4462 17c8 6C308DE5 		str	r3, [sp, #108]
 4463 17cc 0631A0E1 		lsl	r3, r6, #2
 4464              	.LBE1036:
 4465              	.LBE1035:
 4466              	.LBB1039:
 4467              	.LBB1021:
 4468              	.LBB1022:
 4469 17d0 E4809DE5 		ldr	r8, [sp, #228]
 4470 17d4 68308DE5 		str	r3, [sp, #104]
 4471 17d8 0731A0E1 		lsl	r3, r7, #2
 4472 17dc 54B08DE5 		str	fp, [sp, #84]
 4473 17e0 3C308DE5 		str	r3, [sp, #60]
 4474 17e4 58319DE5 		ldr	r3, [sp, #344]
 4475 17e8 980A00E0 		mul	r0, r8, r10
 4476              	.LBE1022:
 4477              	.LBE1021:
 4478              	.LBB1025:
 4479              	.LBB1006:
 4480              	.LBB1007:
 4481 17ec E8B09DE5 		ldr	fp, [sp, #232]
 4482              	.LVL495:
 4483 17f0 3C119DE5 		ldr	r1, [sp, #316]
 4484              	.LBE1007:
 4485              	.LBE1006:
 4486              	.LBB1010:
 4487              	.LBB974:
 4488              	.LBB975:
 730:C:/Renesas/e2studio_2021_01_workspace_RZA2M_ANPR/ANPR_RZA2M_EBK/src/tensorflow_lite/tensorflow/lite/kernels/internal\common.h ****   TFLITE_DCHECK(i2 >= 0 && i2 < desc.extents[2]);
 4489              		.loc 4 730 0
 4490 17f4 24619DE5 		ldr	r6, [sp, #292]
 4491 17f8 0331A0E1 		lsl	r3, r3, #2
 4492 17fc 0001A0E1 		lsl	r0, r0, #2
 4493 1800 0B21A0E1 		lsl	r2, fp, #2
 729:C:/Renesas/e2studio_2021_01_workspace_RZA2M_ANPR/ANPR_RZA2M_EBK/src/tensorflow_lite/tensorflow/lite/kernels/internal\common.h ****   TFLITE_DCHECK(i1 >= 0 && i1 < desc.extents[1]);
 4494              		.loc 4 729 0
 4495 1804 20719DE5 		ldr	r7, [sp, #288]
 4496 1808 38308DE5 		str	r3, [sp, #56]
 4497 180c 0191A0E1 		lsl	r9, r1, #2
 4498 1810 5C319DE5 		ldr	r3, [sp, #348]
 4499 1814 9B0000E0 		mul	r0, fp, r0
 4500 1818 40208DE5 		str	r2, [sp, #64]
 4501 181c 011089E0 		add	r1, r9, r1
 4502 1820 980B02E0 		mul	r2, r8, fp
 4503 1824 0111A0E1 		lsl	r1, r1, #2
 4504 1828 14908DE5 		str	r9, [sp, #20]
 4505 182c 0331A0E1 		lsl	r3, r3, #2
 4506 1830 64008DE5 		str	r0, [sp, #100]
 4507 1834 1C108DE5 		str	r1, [sp, #28]
 4508 1838 18308DE5 		str	r3, [sp, #24]
 4509 183c 0221A0E1 		lsl	r2, r2, #2
 731:C:/Renesas/e2studio_2021_01_workspace_RZA2M_ANPR/ANPR_RZA2M_EBK/src/tensorflow_lite/tensorflow/lite/kernels/internal\common.h ****   TFLITE_DCHECK(i3 >= 0 && i3 < desc.extents[3]);
 4510              		.loc 4 731 0
 4511 1840 28319DE5 		ldr	r3, [sp, #296]
 4512 1844 70208DE5 		str	r2, [sp, #112]
 4513              	.LBE975:
 4514              	.LBE974:
 4515              	.LBE1010:
 4516              	.LBE1025:
 4517              	.LBE1039:
 4518              	.LBE962:
 4519              	.LBB1049:
 4520              	.LBB959:
 216:C:/Renesas/e2studio_2021_01_workspace_RZA2M_ANPR/ANPR_RZA2M_EBK/src/tensorflow_lite/tensorflow/lite/kernels/internal\types.h ****   }
 4521              		.loc 3 216 0
 4522 1848 DC909DE5 		ldr	r9, [sp, #220]
 4523              	.LBE959:
 4524              	.LBE1049:
 4525              	.LBB1050:
 4526              	.LBB1040:
 4527              	.LBB1026:
 4528              	.LBB1011:
 4529              	.LBB982:
 4530              	.LBB976:
 731:C:/Renesas/e2studio_2021_01_workspace_RZA2M_ANPR/ANPR_RZA2M_EBK/src/tensorflow_lite/tensorflow/lite/kernels/internal\common.h ****   TFLITE_DCHECK(i3 >= 0 && i3 < desc.extents[3]);
 4531              		.loc 4 731 0
 4532 184c 08308DE5 		str	r3, [sp, #8]
 732:C:/Renesas/e2studio_2021_01_workspace_RZA2M_ANPR/ANPR_RZA2M_EBK/src/tensorflow_lite/tensorflow/lite/kernels/internal\common.h ****   return i0 * desc.strides[0] + i1 * desc.strides[1] + i2 * desc.strides[2] +
 4533              		.loc 4 732 0
 4534 1850 2C319DE5 		ldr	r3, [sp, #300]
 4535 1854 0C308DE5 		str	r3, [sp, #12]
 4536              	.LBE976:
 4537              	.LBE982:
 4538              	.LBB983:
 4539              	.LBB968:
 729:C:/Renesas/e2studio_2021_01_workspace_RZA2M_ANPR/ANPR_RZA2M_EBK/src/tensorflow_lite/tensorflow/lite/kernels/internal\common.h ****   TFLITE_DCHECK(i1 >= 0 && i1 < desc.extents[1]);
 4540              		.loc 4 729 0
 4541 1858 40319DE5 		ldr	r3, [sp, #320]
 4542 185c 2C308DE5 		str	r3, [sp, #44]
 730:C:/Renesas/e2studio_2021_01_workspace_RZA2M_ANPR/ANPR_RZA2M_EBK/src/tensorflow_lite/tensorflow/lite/kernels/internal\common.h ****   TFLITE_DCHECK(i2 >= 0 && i2 < desc.extents[2]);
 4543              		.loc 4 730 0
 4544 1860 44319DE5 		ldr	r3, [sp, #324]
 4545 1864 30308DE5 		str	r3, [sp, #48]
 731:C:/Renesas/e2studio_2021_01_workspace_RZA2M_ANPR/ANPR_RZA2M_EBK/src/tensorflow_lite/tensorflow/lite/kernels/internal\common.h ****   TFLITE_DCHECK(i3 >= 0 && i3 < desc.extents[3]);
 4546              		.loc 4 731 0
 4547 1868 48319DE5 		ldr	r3, [sp, #328]
 4548 186c 34308DE5 		str	r3, [sp, #52]
 732:C:/Renesas/e2studio_2021_01_workspace_RZA2M_ANPR/ANPR_RZA2M_EBK/src/tensorflow_lite/tensorflow/lite/kernels/internal\common.h ****   return i0 * desc.strides[0] + i1 * desc.strides[1] + i2 * desc.strides[2] +
 4549              		.loc 4 732 0
 4550 1870 4C319DE5 		ldr	r3, [sp, #332]
 4551 1874 10308DE5 		str	r3, [sp, #16]
 4552 1878 0630A0E1 		mov	r3, r6
 4553 187c 0A60A0E1 		mov	r6, r10
 4554 1880 03A0A0E1 		mov	r10, r3
 4555              	.LVL496:
 4556              	.L96:
 4557              	.LBE968:
 4558              	.LBE983:
 4559              	.LBE1011:
 4560              	.LBE1026:
 4561              	.LBE1040:
 4562              	.LBE1050:
 4563              	.LBB1051:
 4564              	.LBB960:
 216:C:/Renesas/e2studio_2021_01_workspace_RZA2M_ANPR/ANPR_RZA2M_EBK/src/tensorflow_lite/tensorflow/lite/kernels/internal\types.h ****   }
 4565              		.loc 3 216 0
 4566 1884 050055E3 		cmp	r5, #5
 4567 1888 003099C5 		ldrgt	r3, [r9]
 4568 188c 0930A0D1 		movle	r3, r9
 4569              	.LVL497:
 4570              	.LBE960:
 4571              	.LBE1051:
  72:../src/tensorflow_lite/tensorflow/lite/micro/kernels/prelu.cc ****     for (int y = 0; y < output_shape.Dims(1); ++y) {
 4572              		.loc 1 72 0
 4573 1890 0C0053E1 		cmp	r3, ip
 4574 1894 690200DA 		ble	.L102
 4575              	.LVL498:
 4576              	.LBB1052:
 4577              	.LBB1041:
 4578              	.LBB1037:
 215:C:/Renesas/e2studio_2021_01_workspace_RZA2M_ANPR/ANPR_RZA2M_EBK/src/tensorflow_lite/tensorflow/lite/kernels/internal\types.h ****     return size_ > kMaxSmallSize ? dims_pointer_[i] : dims_[i];
 4579              		.loc 3 215 0
 4580 1898 010055E3 		cmp	r5, #1
 4581 189c BD02000A 		beq	.L976
 4582 18a0 58309DE5 		ldr	r3, [sp, #88]
 4583 18a4 00E0A0E3 		mov	lr, #0
 4584 18a8 48308DE5 		str	r3, [sp, #72]
 4585 18ac 54309DE5 		ldr	r3, [sp, #84]
 4586 18b0 4C308DE5 		str	r3, [sp, #76]
 4587 18b4 50309DE5 		ldr	r3, [sp, #80]
 4588 18b8 44308DE5 		str	r3, [sp, #68]
 4589              	.LVL499:
 4590              	.L103:
 216:C:/Renesas/e2studio_2021_01_workspace_RZA2M_ANPR/ANPR_RZA2M_EBK/src/tensorflow_lite/tensorflow/lite/kernels/internal\types.h ****   }
 4591              		.loc 3 216 0
 4592 18bc 050055E3 		cmp	r5, #5
 4593 18c0 043099C5 		ldrgt	r3, [r9, #4]
 4594 18c4 0630A0D1 		movle	r3, r6
 4595              	.LVL500:
 4596              	.LBE1037:
 4597              	.LBE1041:
  73:../src/tensorflow_lite/tensorflow/lite/micro/kernels/prelu.cc ****       for (int x = 0; x < output_shape.Dims(2); ++x) {
 4598              		.loc 1 73 0
 4599 18c8 0E0053E1 		cmp	r3, lr
 4600 18cc 4D0200DA 		ble	.L105
 4601              	.LVL501:
 4602              	.LBB1042:
 4603              	.LBB1027:
 4604              	.LBB1023:
 215:C:/Renesas/e2studio_2021_01_workspace_RZA2M_ANPR/ANPR_RZA2M_EBK/src/tensorflow_lite/tensorflow/lite/kernels/internal\types.h ****     return size_ > kMaxSmallSize ? dims_pointer_[i] : dims_[i];
 4605              		.loc 3 215 0
 4606 18d0 020055E3 		cmp	r5, #2
 4607 18d4 C402000A 		beq	.L977
 4608 18d8 48309DE5 		ldr	r3, [sp, #72]
 4609 18dc 0000A0E3 		mov	r0, #0
 4610 18e0 20308DE5 		str	r3, [sp, #32]
 4611 18e4 4C309DE5 		ldr	r3, [sp, #76]
 4612 18e8 24308DE5 		str	r3, [sp, #36]
 4613 18ec 44309DE5 		ldr	r3, [sp, #68]
 4614 18f0 28308DE5 		str	r3, [sp, #40]
 4615              	.LVL502:
 4616              	.L106:
 216:C:/Renesas/e2studio_2021_01_workspace_RZA2M_ANPR/ANPR_RZA2M_EBK/src/tensorflow_lite/tensorflow/lite/kernels/internal\types.h ****   }
 4617              		.loc 3 216 0
 4618 18f4 050055E3 		cmp	r5, #5
 4619 18f8 083099C5 		ldrgt	r3, [r9, #8]
 4620 18fc 0830A0D1 		movle	r3, r8
 4621              	.LVL503:
 4622              	.LBE1023:
 4623              	.LBE1027:
  74:../src/tensorflow_lite/tensorflow/lite/micro/kernels/prelu.cc ****         for (int c = 0; c < output_shape.Dims(3); ++c) {
 4624              		.loc 1 74 0
 4625 1900 000053E1 		cmp	r3, r0
 4626 1904 D50100DA 		ble	.L108
 4627              	.LVL504:
 4628              	.LBB1028:
 4629              	.LBB1012:
 4630              	.LBB1008:
 215:C:/Renesas/e2studio_2021_01_workspace_RZA2M_ANPR/ANPR_RZA2M_EBK/src/tensorflow_lite/tensorflow/lite/kernels/internal\types.h ****     return size_ > kMaxSmallSize ? dims_pointer_[i] : dims_[i];
 4631              		.loc 3 215 0
 4632 1908 030055E3 		cmp	r5, #3
 4633 190c 3A02000A 		beq	.L109
 4634 1910 050055E3 		cmp	r5, #5
 4635 1914 34309DE5 		ldr	r3, [sp, #52]
 4636 1918 400000CA 		bgt	.L110
 4637 191c 000053E1 		cmp	r3, r0
 4638 1920 30309DE5 		ldr	r3, [sp, #48]
 4639 1924 7F0200DA 		ble	.L978
 4640 1928 0E0053E1 		cmp	r3, lr
 4641 192c 2C309DE5 		ldr	r3, [sp, #44]
 4642 1930 DE0200DA 		ble	.L880
 4643 1934 0C0053E1 		cmp	r3, ip
 4644 1938 C50200DA 		ble	.L871
 4645 193c 20108DE2 		add	r1, sp, #32
 4646 1940 0030A0E3 		mov	r3, #0
 4647 1944 160091E8 		ldm	r1, {r1, r2, r4}
 4648 1948 04408DE5 		str	r4, [sp, #4]
 4649 194c 230000EA 		b	.L129
 4650              	.LVL505:
 4651              	.L979:
 4652              	.LBE1008:
 4653              	.LBE1012:
 4654              	.LBB1013:
 4655              	.LBB984:
 4656              	.LBB985:
 404:C:/Renesas/e2studio_2021_01_workspace_RZA2M_ANPR/ANPR_RZA2M_EBK/src/tensorflow_lite/tensorflow/lite/kernels/internal\types.h ****   const int* dims_data = reinterpret_cast<const int*>(shape.DimsDataUpTo5D());
 4657              		.loc 3 404 0
 4658 1950 040055E3 		cmp	r5, #4
 4659 1954 3400001A 		bne	.L115
 406:C:/Renesas/e2studio_2021_01_workspace_RZA2M_ANPR/ANPR_RZA2M_EBK/src/tensorflow_lite/tensorflow/lite/kernels/internal\types.h ****   TFLITE_DCHECK(i1 >= 0 && i1 < dims_data[1]);
 4660              		.loc 3 406 0
 4661 1958 0C0059E1 		cmp	r9, ip
 4662 195c A20100DA 		ble	.L116
 407:C:/Renesas/e2studio_2021_01_workspace_RZA2M_ANPR/ANPR_RZA2M_EBK/src/tensorflow_lite/tensorflow/lite/kernels/internal\types.h ****   TFLITE_DCHECK(i2 >= 0 && i2 < dims_data[2]);
 4663              		.loc 3 407 0
 4664 1960 0E0056E1 		cmp	r6, lr
 4665 1964 9F0100DA 		ble	.L117
 408:C:/Renesas/e2studio_2021_01_workspace_RZA2M_ANPR/ANPR_RZA2M_EBK/src/tensorflow_lite/tensorflow/lite/kernels/internal\types.h ****   TFLITE_DCHECK(i3 >= 0 && i3 < dims_data[3]);
 4666              		.loc 3 408 0
 4667 1968 000058E1 		cmp	r8, r0
 4668 196c 9C0100DA 		ble	.L118
 4669              	.LVL506:
 4670              	.LBE985:
 4671              	.LBE984:
 4672              	.LBB991:
 4673              	.LBB977:
 729:C:/Renesas/e2studio_2021_01_workspace_RZA2M_ANPR/ANPR_RZA2M_EBK/src/tensorflow_lite/tensorflow/lite/kernels/internal\common.h ****   TFLITE_DCHECK(i1 >= 0 && i1 < desc.extents[1]);
 4674              		.loc 4 729 0
 4675 1970 0C0057E1 		cmp	r7, ip
 4676 1974 990100DA 		ble	.L119
 730:C:/Renesas/e2studio_2021_01_workspace_RZA2M_ANPR/ANPR_RZA2M_EBK/src/tensorflow_lite/tensorflow/lite/kernels/internal\common.h ****   TFLITE_DCHECK(i2 >= 0 && i2 < desc.extents[2]);
 4677              		.loc 4 730 0
 4678 1978 0E005AE1 		cmp	r10, lr
 4679 197c 960100DA 		ble	.L120
 731:C:/Renesas/e2studio_2021_01_workspace_RZA2M_ANPR/ANPR_RZA2M_EBK/src/tensorflow_lite/tensorflow/lite/kernels/internal\common.h ****   TFLITE_DCHECK(i3 >= 0 && i3 < desc.extents[3]);
 4680              		.loc 4 731 0
 4681 1980 08409DE5 		ldr	r4, [sp, #8]
 4682 1984 000054E1 		cmp	r4, r0
 4683 1988 920100DA 		ble	.L121
 732:C:/Renesas/e2studio_2021_01_workspace_RZA2M_ANPR/ANPR_RZA2M_EBK/src/tensorflow_lite/tensorflow/lite/kernels/internal\common.h ****   return i0 * desc.strides[0] + i1 * desc.strides[1] + i2 * desc.strides[2] +
 4684              		.loc 4 732 0
 4685 198c 0C409DE5 		ldr	r4, [sp, #12]
 4686 1990 030054E1 		cmp	r4, r3
 4687 1994 8E0100DA 		ble	.L123
 4688              	.LVL507:
 4689              	.LBE977:
 4690              	.LBE991:
 4691              	.LBB992:
 4692              	.LBB969:
 4693 1998 10409DE5 		ldr	r4, [sp, #16]
 4694 199c 030054E1 		cmp	r4, r3
 4695 19a0 8A0100DA 		ble	.L130
 4696              	.LVL508:
 4697              	.LBE969:
 4698              	.LBE992:
  79:../src/tensorflow_lite/tensorflow/lite/micro/kernels/prelu.cc ****           auto in2_val = input2_data[in2_idx];
 4699              		.loc 1 79 0
 4700 19a4 007AD2ED 		vldr.32	s15, [r2]
 4701              	.LVL509:
 4702              	.LBE1013:
  75:../src/tensorflow_lite/tensorflow/lite/micro/kernels/prelu.cc ****           auto out_idx = Offset(output_shape, b, y, x, c);
 4703              		.loc 1 75 0
 4704 19a8 013083E2 		add	r3, r3, #1
 4705              	.LVL510:
 4706              	.LBB1014:
  80:../src/tensorflow_lite/tensorflow/lite/micro/kernels/prelu.cc ****           output_data[out_idx] = in1_val >= 0.0f ? in1_val : in1_val * in2_val;
 4707              		.loc 1 80 0
 4708 19ac 007A91ED 		vldr.32	s14, [r1]
 4709              	.LVL511:
 4710 19b0 1C409DE5 		ldr	r4, [sp, #28]
  81:../src/tensorflow_lite/tensorflow/lite/micro/kernels/prelu.cc ****         }
 4711              		.loc 1 81 0
 4712 19b4 C07AF5EE 		vcmpe.f32	s15, #0
 4713 19b8 10FAF1EE 		vmrs	APSR_nzcv, FPSCR
 4714 19bc 04F0D2F7 		pld	[r2, r4]
 4715 19c0 877A67BE 		vmullt.f32	s15, s15, s14
 4716              	.LVL512:
 4717 19c4 04409DE5 		ldr	r4, [sp, #4]
 4718 19c8 017AE4EC 		vstmia.32	r4!, {s15}
 4719              	.LVL513:
 4720 19cc 04408DE5 		str	r4, [sp, #4]
 4721 19d0 14409DE5 		ldr	r4, [sp, #20]
 4722 19d4 042082E0 		add	r2, r2, r4
 4723 19d8 18409DE5 		ldr	r4, [sp, #24]
 4724 19dc 041081E0 		add	r1, r1, r4
 4725              	.LVL514:
 4726              	.L129:
 4727              	.LBE1014:
  75:../src/tensorflow_lite/tensorflow/lite/micro/kernels/prelu.cc ****           auto out_idx = Offset(output_shape, b, y, x, c);
 4728              		.loc 1 75 0
 4729 19e0 03005BE1 		cmp	fp, r3
 4730 19e4 D9FFFFCA 		bgt	.L979
 4731              	.LVL515:
 4732              	.L114:
 4733 19e8 28309DE5 		ldr	r3, [sp, #40]
 4734              	.LBE1028:
  74:../src/tensorflow_lite/tensorflow/lite/micro/kernels/prelu.cc ****         for (int c = 0; c < output_shape.Dims(3); ++c) {
 4735              		.loc 1 74 0
 4736 19ec 010080E2 		add	r0, r0, #1
 4737              	.LVL516:
 4738 19f0 40209DE5 		ldr	r2, [sp, #64]
 4739 19f4 023083E0 		add	r3, r3, r2
 4740 19f8 3C209DE5 		ldr	r2, [sp, #60]
 4741 19fc 28308DE5 		str	r3, [sp, #40]
 4742 1a00 24309DE5 		ldr	r3, [sp, #36]
 4743 1a04 023083E0 		add	r3, r3, r2
 4744 1a08 38209DE5 		ldr	r2, [sp, #56]
 4745 1a0c 24308DE5 		str	r3, [sp, #36]
 4746 1a10 20309DE5 		ldr	r3, [sp, #32]
 4747 1a14 023083E0 		add	r3, r3, r2
 4748 1a18 20308DE5 		str	r3, [sp, #32]
 4749 1a1c B4FFFFEA 		b	.L106
 4750              	.LVL517:
 4751              	.L110:
 4752              	.LBB1029:
  75:../src/tensorflow_lite/tensorflow/lite/micro/kernels/prelu.cc ****           auto out_idx = Offset(output_shape, b, y, x, c);
 4753              		.loc 1 75 0
 4754 1a20 0C3099E5 		ldr	r3, [r9, #12]
 4755              	.LVL518:
 4756 1a24 000053E3 		cmp	r3, #0
 4757 1a28 EEFFFFDA 		ble	.L114
 4758              	.LVL519:
 4759              	.L115:
 4760              	.LEHB18:
 4761              	.LBB1015:
 4762              	.LBB993:
 4763              	.LBB986:
 404:C:/Renesas/e2studio_2021_01_workspace_RZA2M_ANPR/ANPR_RZA2M_EBK/src/tensorflow_lite/tensorflow/lite/kernels/internal\types.h ****   const int* dims_data = reinterpret_cast<const int*>(shape.DimsDataUpTo5D());
 4764              		.loc 3 404 0
 4765 1a2c FEFFFFEB 		bl	abort
 4766              	.LVL520:
 4767              	.LEHE18:
 4768              	.L922:
 4769              	.LBE986:
 4770              	.LBE993:
 4771              	.LBE1015:
 4772              	.LBE1029:
 4773              	.LBE1042:
 4774              	.LBE1052:
 4775              	.LBE956:
 4776              	.LBB1060:
 4777              	.LBB945:
 4778              	.LBB929:
 4779              	.LBB914:
 4780              	.LBB901:
 4781              	.LBB876:
 216:C:/Renesas/e2studio_2021_01_workspace_RZA2M_ANPR/ANPR_RZA2M_EBK/src/tensorflow_lite/tensorflow/lite/kernels/internal\types.h ****   }
 4782              		.loc 3 216 0
 4783 1a30 00E093E5 		ldr	lr, [r3]
 4784              	.LVL521:
 4785              	.LBE876:
 4786              	.LBE901:
 839:C:/Renesas/e2studio_2021_01_workspace_RZA2M_ANPR/ANPR_RZA2M_EBK/src/tensorflow_lite/tensorflow/lite/kernels/internal\common.h ****       if (extent0 == 1) {
 4787              		.loc 4 839 0
 4788 1a34 0E0050E1 		cmp	r0, lr
 4789 1a38 0900000A 		beq	.L67
 840:C:/Renesas/e2studio_2021_01_workspace_RZA2M_ANPR/ANPR_RZA2M_EBK/src/tensorflow_lite/tensorflow/lite/kernels/internal\common.h ****         desc0_out->strides[i] = 0;
 4790              		.loc 4 840 0
 4791 1a3c 01005EE3 		cmp	lr, #1
 841:C:/Renesas/e2studio_2021_01_workspace_RZA2M_ANPR/ANPR_RZA2M_EBK/src/tensorflow_lite/tensorflow/lite/kernels/internal\common.h ****         desc0_out->extents[i] = extent1;
 4792              		.loc 4 841 0
 4793 1a40 00E0A003 		moveq	lr, #0
 842:C:/Renesas/e2studio_2021_01_workspace_RZA2M_ANPR/ANPR_RZA2M_EBK/src/tensorflow_lite/tensorflow/lite/kernels/internal\common.h ****       } else {
 4794              		.loc 4 842 0
 4795 1a44 20018D05 		streq	r0, [sp, #288]
 841:C:/Renesas/e2studio_2021_01_workspace_RZA2M_ANPR/ANPR_RZA2M_EBK/src/tensorflow_lite/tensorflow/lite/kernels/internal\common.h ****         desc0_out->extents[i] = extent1;
 4796              		.loc 4 841 0
 4797 1a48 30E18D05 		streq	lr, [sp, #304]
 840:C:/Renesas/e2studio_2021_01_workspace_RZA2M_ANPR/ANPR_RZA2M_EBK/src/tensorflow_lite/tensorflow/lite/kernels/internal\common.h ****         desc0_out->strides[i] = 0;
 4798              		.loc 4 840 0
 4799 1a4c 0400000A 		beq	.L67
 844:C:/Renesas/e2studio_2021_01_workspace_RZA2M_ANPR/ANPR_RZA2M_EBK/src/tensorflow_lite/tensorflow/lite/kernels/internal\common.h ****         desc1_out->strides[i] = 0;
 4800              		.loc 4 844 0
 4801 1a50 010050E3 		cmp	r0, #1
 4802 1a54 6702001A 		bne	.L59
 845:C:/Renesas/e2studio_2021_01_workspace_RZA2M_ANPR/ANPR_RZA2M_EBK/src/tensorflow_lite/tensorflow/lite/kernels/internal\common.h ****         desc1_out->extents[i] = extent0;
 4803              		.loc 4 845 0
 4804 1a58 0000A0E3 		mov	r0, #0
 4805              	.LVL522:
 4806              		.loc 4 846 0
 4807 1a5c 40E18DE5 		str	lr, [sp, #320]
 4808              	.LVL523:
 845:C:/Renesas/e2studio_2021_01_workspace_RZA2M_ANPR/ANPR_RZA2M_EBK/src/tensorflow_lite/tensorflow/lite/kernels/internal\common.h ****         desc1_out->extents[i] = extent0;
 4809              		.loc 4 845 0
 4810 1a60 50018DE5 		str	r0, [sp, #336]
 4811              	.L67:
 4812              	.LVL524:
 4813              	.LBB902:
 4814              	.LBB877:
 216:C:/Renesas/e2studio_2021_01_workspace_RZA2M_ANPR/ANPR_RZA2M_EBK/src/tensorflow_lite/tensorflow/lite/kernels/internal\types.h ****   }
 4815              		.loc 3 216 0
 4816 1a64 040093E5 		ldr	r0, [r3, #4]
 4817              	.LVL525:
 4818              	.LBE877:
 4819              	.LBE902:
 839:C:/Renesas/e2studio_2021_01_workspace_RZA2M_ANPR/ANPR_RZA2M_EBK/src/tensorflow_lite/tensorflow/lite/kernels/internal\common.h ****       if (extent0 == 1) {
 4820              		.loc 4 839 0
 4821 1a68 00005CE1 		cmp	ip, r0
 4822 1a6c 0900000A 		beq	.L69
 840:C:/Renesas/e2studio_2021_01_workspace_RZA2M_ANPR/ANPR_RZA2M_EBK/src/tensorflow_lite/tensorflow/lite/kernels/internal\common.h ****         desc0_out->strides[i] = 0;
 4823              		.loc 4 840 0
 4824 1a70 010050E3 		cmp	r0, #1
 841:C:/Renesas/e2studio_2021_01_workspace_RZA2M_ANPR/ANPR_RZA2M_EBK/src/tensorflow_lite/tensorflow/lite/kernels/internal\common.h ****         desc0_out->extents[i] = extent1;
 4825              		.loc 4 841 0
 4826 1a74 0000A003 		moveq	r0, #0
 842:C:/Renesas/e2studio_2021_01_workspace_RZA2M_ANPR/ANPR_RZA2M_EBK/src/tensorflow_lite/tensorflow/lite/kernels/internal\common.h ****       } else {
 4827              		.loc 4 842 0
 4828 1a78 24C18D05 		streq	ip, [sp, #292]
 841:C:/Renesas/e2studio_2021_01_workspace_RZA2M_ANPR/ANPR_RZA2M_EBK/src/tensorflow_lite/tensorflow/lite/kernels/internal\common.h ****         desc0_out->extents[i] = extent1;
 4829              		.loc 4 841 0
 4830 1a7c 34018D05 		streq	r0, [sp, #308]
 840:C:/Renesas/e2studio_2021_01_workspace_RZA2M_ANPR/ANPR_RZA2M_EBK/src/tensorflow_lite/tensorflow/lite/kernels/internal\common.h ****         desc0_out->strides[i] = 0;
 4831              		.loc 4 840 0
 4832 1a80 0400000A 		beq	.L69
 844:C:/Renesas/e2studio_2021_01_workspace_RZA2M_ANPR/ANPR_RZA2M_EBK/src/tensorflow_lite/tensorflow/lite/kernels/internal\common.h ****         desc1_out->strides[i] = 0;
 4833              		.loc 4 844 0
 4834 1a84 01005CE3 		cmp	ip, #1
 4835 1a88 5A02001A 		bne	.L59
 845:C:/Renesas/e2studio_2021_01_workspace_RZA2M_ANPR/ANPR_RZA2M_EBK/src/tensorflow_lite/tensorflow/lite/kernels/internal\common.h ****         desc1_out->extents[i] = extent0;
 4836              		.loc 4 845 0
 4837 1a8c 00C0A0E3 		mov	ip, #0
 4838              		.loc 4 846 0
 4839 1a90 44018DE5 		str	r0, [sp, #324]
 845:C:/Renesas/e2studio_2021_01_workspace_RZA2M_ANPR/ANPR_RZA2M_EBK/src/tensorflow_lite/tensorflow/lite/kernels/internal\common.h ****         desc1_out->extents[i] = extent0;
 4840              		.loc 4 845 0
 4841 1a94 54C18DE5 		str	ip, [sp, #340]
 4842              	.L69:
 4843              	.LVL526:
 4844              	.LBB903:
 4845              	.LBB878:
 216:C:/Renesas/e2studio_2021_01_workspace_RZA2M_ANPR/ANPR_RZA2M_EBK/src/tensorflow_lite/tensorflow/lite/kernels/internal\types.h ****   }
 4846              		.loc 3 216 0
 4847 1a98 080093E5 		ldr	r0, [r3, #8]
 4848              	.LVL527:
 4849              	.LBE878:
 4850              	.LBE903:
 839:C:/Renesas/e2studio_2021_01_workspace_RZA2M_ANPR/ANPR_RZA2M_EBK/src/tensorflow_lite/tensorflow/lite/kernels/internal\common.h ****       if (extent0 == 1) {
 4851              		.loc 4 839 0
 4852 1a9c 000051E1 		cmp	r1, r0
 4853 1aa0 0900000A 		beq	.L71
 840:C:/Renesas/e2studio_2021_01_workspace_RZA2M_ANPR/ANPR_RZA2M_EBK/src/tensorflow_lite/tensorflow/lite/kernels/internal\common.h ****         desc0_out->strides[i] = 0;
 4854              		.loc 4 840 0
 4855 1aa4 010050E3 		cmp	r0, #1
 841:C:/Renesas/e2studio_2021_01_workspace_RZA2M_ANPR/ANPR_RZA2M_EBK/src/tensorflow_lite/tensorflow/lite/kernels/internal\common.h ****         desc0_out->extents[i] = extent1;
 4856              		.loc 4 841 0
 4857 1aa8 0000A003 		moveq	r0, #0
 842:C:/Renesas/e2studio_2021_01_workspace_RZA2M_ANPR/ANPR_RZA2M_EBK/src/tensorflow_lite/tensorflow/lite/kernels/internal\common.h ****       } else {
 4858              		.loc 4 842 0
 4859 1aac 28118D05 		streq	r1, [sp, #296]
 841:C:/Renesas/e2studio_2021_01_workspace_RZA2M_ANPR/ANPR_RZA2M_EBK/src/tensorflow_lite/tensorflow/lite/kernels/internal\common.h ****         desc0_out->extents[i] = extent1;
 4860              		.loc 4 841 0
 4861 1ab0 38018D05 		streq	r0, [sp, #312]
 840:C:/Renesas/e2studio_2021_01_workspace_RZA2M_ANPR/ANPR_RZA2M_EBK/src/tensorflow_lite/tensorflow/lite/kernels/internal\common.h ****         desc0_out->strides[i] = 0;
 4862              		.loc 4 840 0
 4863 1ab4 0400000A 		beq	.L71
 844:C:/Renesas/e2studio_2021_01_workspace_RZA2M_ANPR/ANPR_RZA2M_EBK/src/tensorflow_lite/tensorflow/lite/kernels/internal\common.h ****         desc1_out->strides[i] = 0;
 4864              		.loc 4 844 0
 4865 1ab8 010051E3 		cmp	r1, #1
 4866 1abc 4D02001A 		bne	.L59
 845:C:/Renesas/e2studio_2021_01_workspace_RZA2M_ANPR/ANPR_RZA2M_EBK/src/tensorflow_lite/tensorflow/lite/kernels/internal\common.h ****         desc1_out->extents[i] = extent0;
 4867              		.loc 4 845 0
 4868 1ac0 0010A0E3 		mov	r1, #0
 4869              		.loc 4 846 0
 4870 1ac4 48018DE5 		str	r0, [sp, #328]
 845:C:/Renesas/e2studio_2021_01_workspace_RZA2M_ANPR/ANPR_RZA2M_EBK/src/tensorflow_lite/tensorflow/lite/kernels/internal\common.h ****         desc1_out->extents[i] = extent0;
 4871              		.loc 4 845 0
 4872 1ac8 58118DE5 		str	r1, [sp, #344]
 4873              	.L71:
 4874              	.LVL528:
 4875              	.LBB904:
 4876              	.LBB879:
 216:C:/Renesas/e2studio_2021_01_workspace_RZA2M_ANPR/ANPR_RZA2M_EBK/src/tensorflow_lite/tensorflow/lite/kernels/internal\types.h ****   }
 4877              		.loc 3 216 0
 4878 1acc 0C3093E5 		ldr	r3, [r3, #12]
 4879              	.LVL529:
 4880              	.LBE879:
 4881              	.LBE904:
 839:C:/Renesas/e2studio_2021_01_workspace_RZA2M_ANPR/ANPR_RZA2M_EBK/src/tensorflow_lite/tensorflow/lite/kernels/internal\common.h ****       if (extent0 == 1) {
 4882              		.loc 4 839 0
 4883 1ad0 030052E1 		cmp	r2, r3
 4884 1ad4 23FAFF1A 		bne	.L806
 4885 1ad8 23FFFFEA 		b	.L401
 4886              	.LVL530:
 4887              	.L934:
 4888              	.LBE914:
 4889              	.LBE929:
 4890              	.LBE945:
 4891              	.LBE1060:
 4892              	.LBE1082:
 4893              	.LBE1943:
 4894              	.LBB1944:
 4895              	.LBB1920:
 4896              	.LBB1899:
 4897              	.LBB1691:
 4898              	.LBB1679:
 4899              	.LBB1663:
 4900              	.LBB1650:
 4901              	.LBB1625:
 216:C:/Renesas/e2studio_2021_01_workspace_RZA2M_ANPR/ANPR_RZA2M_EBK/src/tensorflow_lite/tensorflow/lite/kernels/internal\types.h ****   }
 4902              		.loc 3 216 0
 4903 1adc 00E093E5 		ldr	lr, [r3]
 4904              	.LVL531:
 4905              	.LBE1625:
 4906              	.LBE1650:
 839:C:/Renesas/e2studio_2021_01_workspace_RZA2M_ANPR/ANPR_RZA2M_EBK/src/tensorflow_lite/tensorflow/lite/kernels/internal\common.h ****       if (extent0 == 1) {
 4907              		.loc 4 839 0
 4908 1ae0 00005EE1 		cmp	lr, r0
 4909 1ae4 0900000A 		beq	.L186
 840:C:/Renesas/e2studio_2021_01_workspace_RZA2M_ANPR/ANPR_RZA2M_EBK/src/tensorflow_lite/tensorflow/lite/kernels/internal\common.h ****         desc0_out->strides[i] = 0;
 4910              		.loc 4 840 0
 4911 1ae8 01005EE3 		cmp	lr, #1
 841:C:/Renesas/e2studio_2021_01_workspace_RZA2M_ANPR/ANPR_RZA2M_EBK/src/tensorflow_lite/tensorflow/lite/kernels/internal\common.h ****         desc0_out->extents[i] = extent1;
 4912              		.loc 4 841 0
 4913 1aec 00E0A003 		moveq	lr, #0
 842:C:/Renesas/e2studio_2021_01_workspace_RZA2M_ANPR/ANPR_RZA2M_EBK/src/tensorflow_lite/tensorflow/lite/kernels/internal\common.h ****       } else {
 4914              		.loc 4 842 0
 4915 1af0 20018D05 		streq	r0, [sp, #288]
 841:C:/Renesas/e2studio_2021_01_workspace_RZA2M_ANPR/ANPR_RZA2M_EBK/src/tensorflow_lite/tensorflow/lite/kernels/internal\common.h ****         desc0_out->extents[i] = extent1;
 4916              		.loc 4 841 0
 4917 1af4 30E18D05 		streq	lr, [sp, #304]
 840:C:/Renesas/e2studio_2021_01_workspace_RZA2M_ANPR/ANPR_RZA2M_EBK/src/tensorflow_lite/tensorflow/lite/kernels/internal\common.h ****         desc0_out->strides[i] = 0;
 4918              		.loc 4 840 0
 4919 1af8 0400000A 		beq	.L186
 844:C:/Renesas/e2studio_2021_01_workspace_RZA2M_ANPR/ANPR_RZA2M_EBK/src/tensorflow_lite/tensorflow/lite/kernels/internal\common.h ****         desc1_out->strides[i] = 0;
 4920              		.loc 4 844 0
 4921 1afc 010050E3 		cmp	r0, #1
 4922 1b00 2602001A 		bne	.L178
 845:C:/Renesas/e2studio_2021_01_workspace_RZA2M_ANPR/ANPR_RZA2M_EBK/src/tensorflow_lite/tensorflow/lite/kernels/internal\common.h ****         desc1_out->extents[i] = extent0;
 4923              		.loc 4 845 0
 4924 1b04 0000A0E3 		mov	r0, #0
 4925              	.LVL532:
 4926              		.loc 4 846 0
 4927 1b08 40E18DE5 		str	lr, [sp, #320]
 4928              	.LVL533:
 845:C:/Renesas/e2studio_2021_01_workspace_RZA2M_ANPR/ANPR_RZA2M_EBK/src/tensorflow_lite/tensorflow/lite/kernels/internal\common.h ****         desc1_out->extents[i] = extent0;
 4929              		.loc 4 845 0
 4930 1b0c 50018DE5 		str	r0, [sp, #336]
 4931              	.L186:
 4932              	.LVL534:
 4933              	.LBB1651:
 4934              	.LBB1626:
 216:C:/Renesas/e2studio_2021_01_workspace_RZA2M_ANPR/ANPR_RZA2M_EBK/src/tensorflow_lite/tensorflow/lite/kernels/internal\types.h ****   }
 4935              		.loc 3 216 0
 4936 1b10 040093E5 		ldr	r0, [r3, #4]
 4937              	.LVL535:
 4938              	.LBE1626:
 4939              	.LBE1651:
 839:C:/Renesas/e2studio_2021_01_workspace_RZA2M_ANPR/ANPR_RZA2M_EBK/src/tensorflow_lite/tensorflow/lite/kernels/internal\common.h ****       if (extent0 == 1) {
 4940              		.loc 4 839 0
 4941 1b14 00005CE1 		cmp	ip, r0
 4942 1b18 0900000A 		beq	.L188
 840:C:/Renesas/e2studio_2021_01_workspace_RZA2M_ANPR/ANPR_RZA2M_EBK/src/tensorflow_lite/tensorflow/lite/kernels/internal\common.h ****         desc0_out->strides[i] = 0;
 4943              		.loc 4 840 0
 4944 1b1c 010050E3 		cmp	r0, #1
 841:C:/Renesas/e2studio_2021_01_workspace_RZA2M_ANPR/ANPR_RZA2M_EBK/src/tensorflow_lite/tensorflow/lite/kernels/internal\common.h ****         desc0_out->extents[i] = extent1;
 4945              		.loc 4 841 0
 4946 1b20 0000A003 		moveq	r0, #0
 842:C:/Renesas/e2studio_2021_01_workspace_RZA2M_ANPR/ANPR_RZA2M_EBK/src/tensorflow_lite/tensorflow/lite/kernels/internal\common.h ****       } else {
 4947              		.loc 4 842 0
 4948 1b24 24C18D05 		streq	ip, [sp, #292]
 841:C:/Renesas/e2studio_2021_01_workspace_RZA2M_ANPR/ANPR_RZA2M_EBK/src/tensorflow_lite/tensorflow/lite/kernels/internal\common.h ****         desc0_out->extents[i] = extent1;
 4949              		.loc 4 841 0
 4950 1b28 34018D05 		streq	r0, [sp, #308]
 840:C:/Renesas/e2studio_2021_01_workspace_RZA2M_ANPR/ANPR_RZA2M_EBK/src/tensorflow_lite/tensorflow/lite/kernels/internal\common.h ****         desc0_out->strides[i] = 0;
 4951              		.loc 4 840 0
 4952 1b2c 0400000A 		beq	.L188
 844:C:/Renesas/e2studio_2021_01_workspace_RZA2M_ANPR/ANPR_RZA2M_EBK/src/tensorflow_lite/tensorflow/lite/kernels/internal\common.h ****         desc1_out->strides[i] = 0;
 4953              		.loc 4 844 0
 4954 1b30 01005CE3 		cmp	ip, #1
 4955 1b34 1902001A 		bne	.L178
 845:C:/Renesas/e2studio_2021_01_workspace_RZA2M_ANPR/ANPR_RZA2M_EBK/src/tensorflow_lite/tensorflow/lite/kernels/internal\common.h ****         desc1_out->extents[i] = extent0;
 4956              		.loc 4 845 0
 4957 1b38 00C0A0E3 		mov	ip, #0
 4958              		.loc 4 846 0
 4959 1b3c 44018DE5 		str	r0, [sp, #324]
 845:C:/Renesas/e2studio_2021_01_workspace_RZA2M_ANPR/ANPR_RZA2M_EBK/src/tensorflow_lite/tensorflow/lite/kernels/internal\common.h ****         desc1_out->extents[i] = extent0;
 4960              		.loc 4 845 0
 4961 1b40 54C18DE5 		str	ip, [sp, #340]
 4962              	.L188:
 4963              	.LVL536:
 4964              	.LBB1652:
 4965              	.LBB1627:
 216:C:/Renesas/e2studio_2021_01_workspace_RZA2M_ANPR/ANPR_RZA2M_EBK/src/tensorflow_lite/tensorflow/lite/kernels/internal\types.h ****   }
 4966              		.loc 3 216 0
 4967 1b44 080093E5 		ldr	r0, [r3, #8]
 4968              	.LVL537:
 4969              	.LBE1627:
 4970              	.LBE1652:
 839:C:/Renesas/e2studio_2021_01_workspace_RZA2M_ANPR/ANPR_RZA2M_EBK/src/tensorflow_lite/tensorflow/lite/kernels/internal\common.h ****       if (extent0 == 1) {
 4971              		.loc 4 839 0
 4972 1b48 010050E1 		cmp	r0, r1
 4973 1b4c 0900000A 		beq	.L190
 840:C:/Renesas/e2studio_2021_01_workspace_RZA2M_ANPR/ANPR_RZA2M_EBK/src/tensorflow_lite/tensorflow/lite/kernels/internal\common.h ****         desc0_out->strides[i] = 0;
 4974              		.loc 4 840 0
 4975 1b50 010050E3 		cmp	r0, #1
 841:C:/Renesas/e2studio_2021_01_workspace_RZA2M_ANPR/ANPR_RZA2M_EBK/src/tensorflow_lite/tensorflow/lite/kernels/internal\common.h ****         desc0_out->extents[i] = extent1;
 4976              		.loc 4 841 0
 4977 1b54 0000A003 		moveq	r0, #0
 842:C:/Renesas/e2studio_2021_01_workspace_RZA2M_ANPR/ANPR_RZA2M_EBK/src/tensorflow_lite/tensorflow/lite/kernels/internal\common.h ****       } else {
 4978              		.loc 4 842 0
 4979 1b58 28118D05 		streq	r1, [sp, #296]
 841:C:/Renesas/e2studio_2021_01_workspace_RZA2M_ANPR/ANPR_RZA2M_EBK/src/tensorflow_lite/tensorflow/lite/kernels/internal\common.h ****         desc0_out->extents[i] = extent1;
 4980              		.loc 4 841 0
 4981 1b5c 38018D05 		streq	r0, [sp, #312]
 840:C:/Renesas/e2studio_2021_01_workspace_RZA2M_ANPR/ANPR_RZA2M_EBK/src/tensorflow_lite/tensorflow/lite/kernels/internal\common.h ****         desc0_out->strides[i] = 0;
 4982              		.loc 4 840 0
 4983 1b60 0400000A 		beq	.L190
 844:C:/Renesas/e2studio_2021_01_workspace_RZA2M_ANPR/ANPR_RZA2M_EBK/src/tensorflow_lite/tensorflow/lite/kernels/internal\common.h ****         desc1_out->strides[i] = 0;
 4984              		.loc 4 844 0
 4985 1b64 010051E3 		cmp	r1, #1
 4986 1b68 0C02001A 		bne	.L178
 845:C:/Renesas/e2studio_2021_01_workspace_RZA2M_ANPR/ANPR_RZA2M_EBK/src/tensorflow_lite/tensorflow/lite/kernels/internal\common.h ****         desc1_out->extents[i] = extent0;
 4987              		.loc 4 845 0
 4988 1b6c 0010A0E3 		mov	r1, #0
 4989              		.loc 4 846 0
 4990 1b70 48018DE5 		str	r0, [sp, #328]
 845:C:/Renesas/e2studio_2021_01_workspace_RZA2M_ANPR/ANPR_RZA2M_EBK/src/tensorflow_lite/tensorflow/lite/kernels/internal\common.h ****         desc1_out->extents[i] = extent0;
 4991              		.loc 4 845 0
 4992 1b74 58118DE5 		str	r1, [sp, #344]
 4993              	.L190:
 4994              	.LVL538:
 4995              	.LBB1653:
 4996              	.LBB1628:
 216:C:/Renesas/e2studio_2021_01_workspace_RZA2M_ANPR/ANPR_RZA2M_EBK/src/tensorflow_lite/tensorflow/lite/kernels/internal\types.h ****   }
 4997              		.loc 3 216 0
 4998 1b78 0C3093E5 		ldr	r3, [r3, #12]
 4999              	.LVL539:
 5000              	.LBE1628:
 5001              	.LBE1653:
 839:C:/Renesas/e2studio_2021_01_workspace_RZA2M_ANPR/ANPR_RZA2M_EBK/src/tensorflow_lite/tensorflow/lite/kernels/internal\common.h ****       if (extent0 == 1) {
 5002              		.loc 4 839 0
 5003 1b7c 030052E1 		cmp	r2, r3
 5004 1b80 66FBFF1A 		bne	.L813
 5005 1b84 EFFBFFEA 		b	.L402
 5006              	.LVL540:
 5007              	.L928:
 5008              	.LBE1663:
 5009              	.LBE1679:
 5010              	.LBE1691:
 5011              	.LBE1899:
 5012              	.LBE1920:
 5013              	.LBE1944:
 5014              	.LBB1945:
 5015              	.LBB1498:
 5016              	.LBB1475:
 5017              	.LBB1277:
 5018              	.LBB1261:
 5019              	.LBB1246:
 5020              	.LBB1233:
 5021              	.LBB1208:
 216:C:/Renesas/e2studio_2021_01_workspace_RZA2M_ANPR/ANPR_RZA2M_EBK/src/tensorflow_lite/tensorflow/lite/kernels/internal\types.h ****   }
 5022              		.loc 3 216 0
 5023 1b88 00E093E5 		ldr	lr, [r3]
 5024              	.LVL541:
 5025              	.LBE1208:
 5026              	.LBE1233:
 839:C:/Renesas/e2studio_2021_01_workspace_RZA2M_ANPR/ANPR_RZA2M_EBK/src/tensorflow_lite/tensorflow/lite/kernels/internal\common.h ****       if (extent0 == 1) {
 5027              		.loc 4 839 0
 5028 1b8c 00005EE1 		cmp	lr, r0
 5029 1b90 0900000A 		beq	.L301
 840:C:/Renesas/e2studio_2021_01_workspace_RZA2M_ANPR/ANPR_RZA2M_EBK/src/tensorflow_lite/tensorflow/lite/kernels/internal\common.h ****         desc0_out->strides[i] = 0;
 5030              		.loc 4 840 0
 5031 1b94 01005EE3 		cmp	lr, #1
 841:C:/Renesas/e2studio_2021_01_workspace_RZA2M_ANPR/ANPR_RZA2M_EBK/src/tensorflow_lite/tensorflow/lite/kernels/internal\common.h ****         desc0_out->extents[i] = extent1;
 5032              		.loc 4 841 0
 5033 1b98 00E0A003 		moveq	lr, #0
 842:C:/Renesas/e2studio_2021_01_workspace_RZA2M_ANPR/ANPR_RZA2M_EBK/src/tensorflow_lite/tensorflow/lite/kernels/internal\common.h ****       } else {
 5034              		.loc 4 842 0
 5035 1b9c 20018D05 		streq	r0, [sp, #288]
 841:C:/Renesas/e2studio_2021_01_workspace_RZA2M_ANPR/ANPR_RZA2M_EBK/src/tensorflow_lite/tensorflow/lite/kernels/internal\common.h ****         desc0_out->extents[i] = extent1;
 5036              		.loc 4 841 0
 5037 1ba0 30E18D05 		streq	lr, [sp, #304]
 840:C:/Renesas/e2studio_2021_01_workspace_RZA2M_ANPR/ANPR_RZA2M_EBK/src/tensorflow_lite/tensorflow/lite/kernels/internal\common.h ****         desc0_out->strides[i] = 0;
 5038              		.loc 4 840 0
 5039 1ba4 0400000A 		beq	.L301
 844:C:/Renesas/e2studio_2021_01_workspace_RZA2M_ANPR/ANPR_RZA2M_EBK/src/tensorflow_lite/tensorflow/lite/kernels/internal\common.h ****         desc1_out->strides[i] = 0;
 5040              		.loc 4 844 0
 5041 1ba8 010050E3 		cmp	r0, #1
 5042 1bac 2702001A 		bne	.L293
 845:C:/Renesas/e2studio_2021_01_workspace_RZA2M_ANPR/ANPR_RZA2M_EBK/src/tensorflow_lite/tensorflow/lite/kernels/internal\common.h ****         desc1_out->extents[i] = extent0;
 5043              		.loc 4 845 0
 5044 1bb0 0000A0E3 		mov	r0, #0
 5045              	.LVL542:
 5046              		.loc 4 846 0
 5047 1bb4 40E18DE5 		str	lr, [sp, #320]
 5048              	.LVL543:
 845:C:/Renesas/e2studio_2021_01_workspace_RZA2M_ANPR/ANPR_RZA2M_EBK/src/tensorflow_lite/tensorflow/lite/kernels/internal\common.h ****         desc1_out->extents[i] = extent0;
 5049              		.loc 4 845 0
 5050 1bb8 50018DE5 		str	r0, [sp, #336]
 5051              	.L301:
 5052              	.LVL544:
 5053              	.LBB1234:
 5054              	.LBB1209:
 216:C:/Renesas/e2studio_2021_01_workspace_RZA2M_ANPR/ANPR_RZA2M_EBK/src/tensorflow_lite/tensorflow/lite/kernels/internal\types.h ****   }
 5055              		.loc 3 216 0
 5056 1bbc 040093E5 		ldr	r0, [r3, #4]
 5057              	.LVL545:
 5058              	.LBE1209:
 5059              	.LBE1234:
 839:C:/Renesas/e2studio_2021_01_workspace_RZA2M_ANPR/ANPR_RZA2M_EBK/src/tensorflow_lite/tensorflow/lite/kernels/internal\common.h ****       if (extent0 == 1) {
 5060              		.loc 4 839 0
 5061 1bc0 0C0050E1 		cmp	r0, ip
 5062 1bc4 0900000A 		beq	.L303
 840:C:/Renesas/e2studio_2021_01_workspace_RZA2M_ANPR/ANPR_RZA2M_EBK/src/tensorflow_lite/tensorflow/lite/kernels/internal\common.h ****         desc0_out->strides[i] = 0;
 5063              		.loc 4 840 0
 5064 1bc8 010050E3 		cmp	r0, #1
 841:C:/Renesas/e2studio_2021_01_workspace_RZA2M_ANPR/ANPR_RZA2M_EBK/src/tensorflow_lite/tensorflow/lite/kernels/internal\common.h ****         desc0_out->extents[i] = extent1;
 5065              		.loc 4 841 0
 5066 1bcc 0000A003 		moveq	r0, #0
 842:C:/Renesas/e2studio_2021_01_workspace_RZA2M_ANPR/ANPR_RZA2M_EBK/src/tensorflow_lite/tensorflow/lite/kernels/internal\common.h ****       } else {
 5067              		.loc 4 842 0
 5068 1bd0 24C18D05 		streq	ip, [sp, #292]
 841:C:/Renesas/e2studio_2021_01_workspace_RZA2M_ANPR/ANPR_RZA2M_EBK/src/tensorflow_lite/tensorflow/lite/kernels/internal\common.h ****         desc0_out->extents[i] = extent1;
 5069              		.loc 4 841 0
 5070 1bd4 34018D05 		streq	r0, [sp, #308]
 840:C:/Renesas/e2studio_2021_01_workspace_RZA2M_ANPR/ANPR_RZA2M_EBK/src/tensorflow_lite/tensorflow/lite/kernels/internal\common.h ****         desc0_out->strides[i] = 0;
 5071              		.loc 4 840 0
 5072 1bd8 0400000A 		beq	.L303
 844:C:/Renesas/e2studio_2021_01_workspace_RZA2M_ANPR/ANPR_RZA2M_EBK/src/tensorflow_lite/tensorflow/lite/kernels/internal\common.h ****         desc1_out->strides[i] = 0;
 5073              		.loc 4 844 0
 5074 1bdc 01005CE3 		cmp	ip, #1
 5075 1be0 1A02001A 		bne	.L293
 845:C:/Renesas/e2studio_2021_01_workspace_RZA2M_ANPR/ANPR_RZA2M_EBK/src/tensorflow_lite/tensorflow/lite/kernels/internal\common.h ****         desc1_out->extents[i] = extent0;
 5076              		.loc 4 845 0
 5077 1be4 00C0A0E3 		mov	ip, #0
 5078              		.loc 4 846 0
 5079 1be8 44018DE5 		str	r0, [sp, #324]
 845:C:/Renesas/e2studio_2021_01_workspace_RZA2M_ANPR/ANPR_RZA2M_EBK/src/tensorflow_lite/tensorflow/lite/kernels/internal\common.h ****         desc1_out->extents[i] = extent0;
 5080              		.loc 4 845 0
 5081 1bec 54C18DE5 		str	ip, [sp, #340]
 5082              	.L303:
 5083              	.LVL546:
 5084              	.LBB1235:
 5085              	.LBB1210:
 216:C:/Renesas/e2studio_2021_01_workspace_RZA2M_ANPR/ANPR_RZA2M_EBK/src/tensorflow_lite/tensorflow/lite/kernels/internal\types.h ****   }
 5086              		.loc 3 216 0
 5087 1bf0 080093E5 		ldr	r0, [r3, #8]
 5088              	.LVL547:
 5089              	.LBE1210:
 5090              	.LBE1235:
 839:C:/Renesas/e2studio_2021_01_workspace_RZA2M_ANPR/ANPR_RZA2M_EBK/src/tensorflow_lite/tensorflow/lite/kernels/internal\common.h ****       if (extent0 == 1) {
 5091              		.loc 4 839 0
 5092 1bf4 010050E1 		cmp	r0, r1
 5093 1bf8 0900000A 		beq	.L305
 840:C:/Renesas/e2studio_2021_01_workspace_RZA2M_ANPR/ANPR_RZA2M_EBK/src/tensorflow_lite/tensorflow/lite/kernels/internal\common.h ****         desc0_out->strides[i] = 0;
 5094              		.loc 4 840 0
 5095 1bfc 010050E3 		cmp	r0, #1
 841:C:/Renesas/e2studio_2021_01_workspace_RZA2M_ANPR/ANPR_RZA2M_EBK/src/tensorflow_lite/tensorflow/lite/kernels/internal\common.h ****         desc0_out->extents[i] = extent1;
 5096              		.loc 4 841 0
 5097 1c00 0000A003 		moveq	r0, #0
 842:C:/Renesas/e2studio_2021_01_workspace_RZA2M_ANPR/ANPR_RZA2M_EBK/src/tensorflow_lite/tensorflow/lite/kernels/internal\common.h ****       } else {
 5098              		.loc 4 842 0
 5099 1c04 28118D05 		streq	r1, [sp, #296]
 841:C:/Renesas/e2studio_2021_01_workspace_RZA2M_ANPR/ANPR_RZA2M_EBK/src/tensorflow_lite/tensorflow/lite/kernels/internal\common.h ****         desc0_out->extents[i] = extent1;
 5100              		.loc 4 841 0
 5101 1c08 38018D05 		streq	r0, [sp, #312]
 840:C:/Renesas/e2studio_2021_01_workspace_RZA2M_ANPR/ANPR_RZA2M_EBK/src/tensorflow_lite/tensorflow/lite/kernels/internal\common.h ****         desc0_out->strides[i] = 0;
 5102              		.loc 4 840 0
 5103 1c0c 0400000A 		beq	.L305
 844:C:/Renesas/e2studio_2021_01_workspace_RZA2M_ANPR/ANPR_RZA2M_EBK/src/tensorflow_lite/tensorflow/lite/kernels/internal\common.h ****         desc1_out->strides[i] = 0;
 5104              		.loc 4 844 0
 5105 1c10 010051E3 		cmp	r1, #1
 5106 1c14 0D02001A 		bne	.L293
 845:C:/Renesas/e2studio_2021_01_workspace_RZA2M_ANPR/ANPR_RZA2M_EBK/src/tensorflow_lite/tensorflow/lite/kernels/internal\common.h ****         desc1_out->extents[i] = extent0;
 5107              		.loc 4 845 0
 5108 1c18 0010A0E3 		mov	r1, #0
 5109              		.loc 4 846 0
 5110 1c1c 48018DE5 		str	r0, [sp, #328]
 845:C:/Renesas/e2studio_2021_01_workspace_RZA2M_ANPR/ANPR_RZA2M_EBK/src/tensorflow_lite/tensorflow/lite/kernels/internal\common.h ****         desc1_out->extents[i] = extent0;
 5111              		.loc 4 845 0
 5112 1c20 58118DE5 		str	r1, [sp, #344]
 5113              	.L305:
 5114              	.LVL548:
 5115              	.LBB1236:
 5116              	.LBB1211:
 216:C:/Renesas/e2studio_2021_01_workspace_RZA2M_ANPR/ANPR_RZA2M_EBK/src/tensorflow_lite/tensorflow/lite/kernels/internal\types.h ****   }
 5117              		.loc 3 216 0
 5118 1c24 0C3093E5 		ldr	r3, [r3, #12]
 5119              	.LVL549:
 5120              	.LBE1211:
 5121              	.LBE1236:
 839:C:/Renesas/e2studio_2021_01_workspace_RZA2M_ANPR/ANPR_RZA2M_EBK/src/tensorflow_lite/tensorflow/lite/kernels/internal\common.h ****       if (extent0 == 1) {
 5122              		.loc 4 839 0
 5123 1c28 020053E1 		cmp	r3, r2
 5124 1c2c 84FAFF1A 		bne	.L814
 5125 1c30 4AFDFFEA 		b	.L405
 5126              	.LVL550:
 5127              	.L479:
 5128              	.L374:
 5129              	.LBE1246:
 5130              	.LBE1261:
 5131              	.LBE1277:
 5132              	.LBE1475:
 5133              	.LBE1498:
 5134              	.LBE1945:
 5135              	.LBB1946:
 5136              	.LBB1947:
 203:C:/Renesas/e2studio_2021_01_workspace_RZA2M_ANPR/ANPR_RZA2M_EBK/src/tensorflow_lite/tensorflow/lite/kernels/internal\types.h **** #ifdef TF_LITE_STATIC_MEMORY
 5137              		.loc 3 203 0
 5138 1c34 C0309DE5 		ldr	r3, [sp, #192]
 5139 1c38 050053E3 		cmp	r3, #5
 5140 1c3c 030000DA 		ble	.L388
 207:C:/Renesas/e2studio_2021_01_workspace_RZA2M_ANPR/ANPR_RZA2M_EBK/src/tensorflow_lite/tensorflow/lite/kernels/internal\types.h **** #endif  // TF_LITE_STATIC_MEMORY
 5141              		.loc 3 207 0
 5142 1c40 C4009DE5 		ldr	r0, [sp, #196]
 5143 1c44 000050E3 		cmp	r0, #0
 5144 1c48 0000000A 		beq	.L388
 5145 1c4c FEFFFFEB 		bl	_ZdaPv
 5146              	.LVL551:
 5147              	.L388:
 5148              	.LBE1947:
 5149              	.LBE1946:
 5150              	.LBB1948:
 5151              	.LBB1949:
 203:C:/Renesas/e2studio_2021_01_workspace_RZA2M_ANPR/ANPR_RZA2M_EBK/src/tensorflow_lite/tensorflow/lite/kernels/internal\types.h **** #ifdef TF_LITE_STATIC_MEMORY
 5152              		.loc 3 203 0
 5153 1c50 A8309DE5 		ldr	r3, [sp, #168]
 5154 1c54 050053E3 		cmp	r3, #5
 5155 1c58 030000DA 		ble	.L390
 207:C:/Renesas/e2studio_2021_01_workspace_RZA2M_ANPR/ANPR_RZA2M_EBK/src/tensorflow_lite/tensorflow/lite/kernels/internal\types.h **** #endif  // TF_LITE_STATIC_MEMORY
 5156              		.loc 3 207 0
 5157 1c5c AC009DE5 		ldr	r0, [sp, #172]
 5158 1c60 000050E3 		cmp	r0, #0
 5159 1c64 0000000A 		beq	.L390
 5160 1c68 FEFFFFEB 		bl	_ZdaPv
 5161              	.LVL552:
 5162              	.L390:
 5163              	.LBE1949:
 5164              	.LBE1948:
 5165              	.LBB1950:
 5166              	.LBB1951:
 203:C:/Renesas/e2studio_2021_01_workspace_RZA2M_ANPR/ANPR_RZA2M_EBK/src/tensorflow_lite/tensorflow/lite/kernels/internal\types.h **** #ifdef TF_LITE_STATIC_MEMORY
 5167              		.loc 3 203 0
 5168 1c6c 90309DE5 		ldr	r3, [sp, #144]
 5169 1c70 050053E3 		cmp	r3, #5
 5170 1c74 030000DA 		ble	.L391
 207:C:/Renesas/e2studio_2021_01_workspace_RZA2M_ANPR/ANPR_RZA2M_EBK/src/tensorflow_lite/tensorflow/lite/kernels/internal\types.h **** #endif  // TF_LITE_STATIC_MEMORY
 5171              		.loc 3 207 0
 5172 1c78 94009DE5 		ldr	r0, [sp, #148]
 5173 1c7c 000050E3 		cmp	r0, #0
 5174 1c80 0000000A 		beq	.L391
 5175 1c84 FEFFFFEB 		bl	_ZdaPv
 5176              	.LVL553:
 5177              	.L391:
 5178              	.LEHB19:
 5179 1c88 FEFFFFEB 		bl	__cxa_end_cleanup
 5180              	.LVL554:
 5181              	.LEHE19:
 5182              	.L485:
 5183 1c8c E8FFFFEA 		b	.L374
 5184              	.LVL555:
 5185              	.L482:
 5186 1c90 E7FFFFEA 		b	.L374
 5187              	.LVL556:
 5188              	.L497:
 5189              	.L334:
 5190 1c94 D8309DE5 		ldr	r3, [sp, #216]
 5191 1c98 10308DE5 		str	r3, [sp, #16]
 5192              	.L275:
 5193              	.LVL557:
 5194              	.LBE1951:
 5195              	.LBE1950:
 5196              	.LBB1952:
 5197              	.LBB1499:
 5198              	.LBB1476:
 5199              	.LBB1477:
 203:C:/Renesas/e2studio_2021_01_workspace_RZA2M_ANPR/ANPR_RZA2M_EBK/src/tensorflow_lite/tensorflow/lite/kernels/internal\types.h **** #ifdef TF_LITE_STATIC_MEMORY
 5200              		.loc 3 203 0
 5201 1c9c 050053E3 		cmp	r3, #5
 5202 1ca0 E3FFFFDA 		ble	.L374
 5203              	.LVL558:
 5204              	.L888:
 207:C:/Renesas/e2studio_2021_01_workspace_RZA2M_ANPR/ANPR_RZA2M_EBK/src/tensorflow_lite/tensorflow/lite/kernels/internal\types.h **** #endif  // TF_LITE_STATIC_MEMORY
 5205              		.loc 3 207 0
 5206 1ca4 DC009DE5 		ldr	r0, [sp, #220]
 5207 1ca8 000050E3 		cmp	r0, #0
 5208 1cac E0FFFF0A 		beq	.L374
 5209 1cb0 FEFFFFEB 		bl	_ZdaPv
 5210              	.LVL559:
 5211 1cb4 DEFFFFEA 		b	.L374
 5212              	.LVL560:
 5213              	.L493:
 5214 1cb8 F5FFFFEA 		b	.L334
 5215              	.LVL561:
 5216              	.L490:
 5217              	.L100:
 5218 1cbc D8509DE5 		ldr	r5, [sp, #216]
 5219              	.LVL562:
 5220              	.L41:
 5221              	.LBE1477:
 5222              	.LBE1476:
 5223              	.LBE1499:
 5224              	.LBE1952:
 5225              	.LBB1953:
 5226              	.LBB1083:
 5227              	.LBB1061:
 5228              	.LBB1062:
 203:C:/Renesas/e2studio_2021_01_workspace_RZA2M_ANPR/ANPR_RZA2M_EBK/src/tensorflow_lite/tensorflow/lite/kernels/internal\types.h **** #ifdef TF_LITE_STATIC_MEMORY
 5229              		.loc 3 203 0
 5230 1cc0 050055E3 		cmp	r5, #5
 5231 1cc4 DAFFFFDA 		ble	.L374
 5232 1cc8 F5FFFFEA 		b	.L888
 5233              	.LVL563:
 5234              	.L491:
 5235 1ccc F0509DE5 		ldr	r5, [sp, #240]
 5236              	.LVL564:
 5237              	.L46:
 5238              	.LBE1062:
 5239              	.LBE1061:
 5240              	.LBB1063:
 5241              	.LBB946:
 5242              	.LBB930:
 5243              	.LBB931:
 5244 1cd0 050055E3 		cmp	r5, #5
 5245 1cd4 F8FFFFDA 		ble	.L100
 207:C:/Renesas/e2studio_2021_01_workspace_RZA2M_ANPR/ANPR_RZA2M_EBK/src/tensorflow_lite/tensorflow/lite/kernels/internal\types.h **** #endif  // TF_LITE_STATIC_MEMORY
 5246              		.loc 3 207 0
 5247 1cd8 F4009DE5 		ldr	r0, [sp, #244]
 5248 1cdc 000050E3 		cmp	r0, #0
 5249 1ce0 F5FFFF0A 		beq	.L100
 5250 1ce4 FEFFFFEB 		bl	_ZdaPv
 5251              	.LVL565:
 5252 1ce8 F3FFFFEA 		b	.L100
 5253              	.LVL566:
 5254              	.L494:
 5255              	.L898:
 5256 1cec F0709DE5 		ldr	r7, [sp, #240]
 5257              	.L280:
 5258              	.LVL567:
 5259              	.LBE931:
 5260              	.LBE930:
 5261              	.LBE946:
 5262              	.LBE1063:
 5263              	.LBE1083:
 5264              	.LBE1953:
 5265              	.LBB1954:
 5266              	.LBB1500:
 5267              	.LBB1478:
 5268              	.LBB1278:
 5269              	.LBB1262:
 5270              	.LBB1263:
 203:C:/Renesas/e2studio_2021_01_workspace_RZA2M_ANPR/ANPR_RZA2M_EBK/src/tensorflow_lite/tensorflow/lite/kernels/internal\types.h **** #ifdef TF_LITE_STATIC_MEMORY
 5271              		.loc 3 203 0
 5272 1cf0 050057E3 		cmp	r7, #5
 5273 1cf4 E6FFFFDA 		ble	.L334
 207:C:/Renesas/e2studio_2021_01_workspace_RZA2M_ANPR/ANPR_RZA2M_EBK/src/tensorflow_lite/tensorflow/lite/kernels/internal\types.h **** #endif  // TF_LITE_STATIC_MEMORY
 5274              		.loc 3 207 0
 5275 1cf8 F4009DE5 		ldr	r0, [sp, #244]
 5276 1cfc 000050E3 		cmp	r0, #0
 5277 1d00 E3FFFF0A 		beq	.L334
 5278 1d04 FEFFFFEB 		bl	_ZdaPv
 5279              	.LVL568:
 5280 1d08 E1FFFFEA 		b	.L334
 5281              	.LVL569:
 5282              	.L498:
 5283 1d0c F6FFFFEA 		b	.L898
 5284              	.LVL570:
 5285              	.L177:
 5286              	.LBE1263:
 5287              	.LBE1262:
 5288              	.LBE1278:
 5289              	.LBE1478:
 5290              	.LBE1500:
 5291              	.LBE1954:
 5292              	.LBB1955:
 5293              	.LBB1921:
 5294              	.LBB1900:
 5295              	.LBB1692:
 5296              	.LBB1680:
 5297              	.LBB1664:
 841:C:/Renesas/e2studio_2021_01_workspace_RZA2M_ANPR/ANPR_RZA2M_EBK/src/tensorflow_lite/tensorflow/lite/kernels/internal\common.h ****         desc0_out->extents[i] = extent1;
 5298              		.loc 4 841 0
 5299 1d10 0030A0E3 		mov	r3, #0
 842:C:/Renesas/e2studio_2021_01_workspace_RZA2M_ANPR/ANPR_RZA2M_EBK/src/tensorflow_lite/tensorflow/lite/kernels/internal\common.h ****       } else {
 5300              		.loc 4 842 0
 5301 1d14 20018DE5 		str	r0, [sp, #288]
 841:C:/Renesas/e2studio_2021_01_workspace_RZA2M_ANPR/ANPR_RZA2M_EBK/src/tensorflow_lite/tensorflow/lite/kernels/internal\common.h ****         desc0_out->extents[i] = extent1;
 5302              		.loc 4 841 0
 5303 1d18 30318DE5 		str	r3, [sp, #304]
 5304 1d1c E2FAFFEA 		b	.L176
 5305              	.LVL571:
 5306              	.L58:
 5307              	.LBE1664:
 5308              	.LBE1680:
 5309              	.LBE1692:
 5310              	.LBE1900:
 5311              	.LBE1921:
 5312              	.LBE1955:
 5313              	.LBB1956:
 5314              	.LBB1084:
 5315              	.LBB1064:
 5316              	.LBB947:
 5317              	.LBB932:
 5318              	.LBB915:
 5319 1d20 0030A0E3 		mov	r3, #0
 842:C:/Renesas/e2studio_2021_01_workspace_RZA2M_ANPR/ANPR_RZA2M_EBK/src/tensorflow_lite/tensorflow/lite/kernels/internal\common.h ****       } else {
 5320              		.loc 4 842 0
 5321 1d24 20018DE5 		str	r0, [sp, #288]
 841:C:/Renesas/e2studio_2021_01_workspace_RZA2M_ANPR/ANPR_RZA2M_EBK/src/tensorflow_lite/tensorflow/lite/kernels/internal\common.h ****         desc0_out->extents[i] = extent1;
 5322              		.loc 4 841 0
 5323 1d28 30318DE5 		str	r3, [sp, #304]
 5324 1d2c 70F9FFEA 		b	.L57
 5325              	.LVL572:
 5326              	.L62:
 5327 1d30 0030A0E3 		mov	r3, #0
 842:C:/Renesas/e2studio_2021_01_workspace_RZA2M_ANPR/ANPR_RZA2M_EBK/src/tensorflow_lite/tensorflow/lite/kernels/internal\common.h ****       } else {
 5328              		.loc 4 842 0
 5329 1d34 28118DE5 		str	r1, [sp, #296]
 841:C:/Renesas/e2studio_2021_01_workspace_RZA2M_ANPR/ANPR_RZA2M_EBK/src/tensorflow_lite/tensorflow/lite/kernels/internal\common.h ****         desc0_out->extents[i] = extent1;
 5330              		.loc 4 841 0
 5331 1d38 38318DE5 		str	r3, [sp, #312]
 5332 1d3c 84F9FFEA 		b	.L63
 5333              	.LVL573:
 5334              	.L292:
 5335              	.LBE915:
 5336              	.LBE932:
 5337              	.LBE947:
 5338              	.LBE1064:
 5339              	.LBE1084:
 5340              	.LBE1956:
 5341              	.LBB1957:
 5342              	.LBB1501:
 5343              	.LBB1479:
 5344              	.LBB1279:
 5345              	.LBB1264:
 5346              	.LBB1247:
 5347 1d40 0030A0E3 		mov	r3, #0
 842:C:/Renesas/e2studio_2021_01_workspace_RZA2M_ANPR/ANPR_RZA2M_EBK/src/tensorflow_lite/tensorflow/lite/kernels/internal\common.h ****       } else {
 5348              		.loc 4 842 0
 5349 1d44 20018DE5 		str	r0, [sp, #288]
 841:C:/Renesas/e2studio_2021_01_workspace_RZA2M_ANPR/ANPR_RZA2M_EBK/src/tensorflow_lite/tensorflow/lite/kernels/internal\common.h ****         desc0_out->extents[i] = extent1;
 5350              		.loc 4 841 0
 5351 1d48 30318DE5 		str	r3, [sp, #304]
 5352 1d4c 1FFAFFEA 		b	.L291
 5353              	.LVL574:
 5354              	.L296:
 5355 1d50 0030A0E3 		mov	r3, #0
 842:C:/Renesas/e2studio_2021_01_workspace_RZA2M_ANPR/ANPR_RZA2M_EBK/src/tensorflow_lite/tensorflow/lite/kernels/internal\common.h ****       } else {
 5356              		.loc 4 842 0
 5357 1d54 28118DE5 		str	r1, [sp, #296]
 841:C:/Renesas/e2studio_2021_01_workspace_RZA2M_ANPR/ANPR_RZA2M_EBK/src/tensorflow_lite/tensorflow/lite/kernels/internal\common.h ****         desc0_out->extents[i] = extent1;
 5358              		.loc 4 841 0
 5359 1d58 38318DE5 		str	r3, [sp, #312]
 5360 1d5c 33FAFFEA 		b	.L297
 5361              	.LVL575:
 5362              	.L181:
 5363              	.LBE1247:
 5364              	.LBE1264:
 5365              	.LBE1279:
 5366              	.LBE1479:
 5367              	.LBE1501:
 5368              	.LBE1957:
 5369              	.LBB1958:
 5370              	.LBB1922:
 5371              	.LBB1901:
 5372              	.LBB1693:
 5373              	.LBB1681:
 5374              	.LBB1665:
 5375 1d60 0030A0E3 		mov	r3, #0
 842:C:/Renesas/e2studio_2021_01_workspace_RZA2M_ANPR/ANPR_RZA2M_EBK/src/tensorflow_lite/tensorflow/lite/kernels/internal\common.h ****       } else {
 5376              		.loc 4 842 0
 5377 1d64 28118DE5 		str	r1, [sp, #296]
 841:C:/Renesas/e2studio_2021_01_workspace_RZA2M_ANPR/ANPR_RZA2M_EBK/src/tensorflow_lite/tensorflow/lite/kernels/internal\common.h ****         desc0_out->extents[i] = extent1;
 5378              		.loc 4 841 0
 5379 1d68 38318DE5 		str	r3, [sp, #312]
 5380 1d6c E6FAFFEA 		b	.L182
 5381              	.LVL576:
 5382              	.L60:
 5383              	.LBE1665:
 5384              	.LBE1681:
 5385              	.LBE1693:
 5386              	.LBE1901:
 5387              	.LBE1922:
 5388              	.LBE1958:
 5389              	.LBB1959:
 5390              	.LBB1085:
 5391              	.LBB1065:
 5392              	.LBB948:
 5393              	.LBB933:
 5394              	.LBB916:
 5395 1d70 0030A0E3 		mov	r3, #0
 842:C:/Renesas/e2studio_2021_01_workspace_RZA2M_ANPR/ANPR_RZA2M_EBK/src/tensorflow_lite/tensorflow/lite/kernels/internal\common.h ****       } else {
 5396              		.loc 4 842 0
 5397 1d74 24C18DE5 		str	ip, [sp, #292]
 841:C:/Renesas/e2studio_2021_01_workspace_RZA2M_ANPR/ANPR_RZA2M_EBK/src/tensorflow_lite/tensorflow/lite/kernels/internal\common.h ****         desc0_out->extents[i] = extent1;
 5398              		.loc 4 841 0
 5399 1d78 34318DE5 		str	r3, [sp, #308]
 5400 1d7c 68F9FFEA 		b	.L61
 5401              	.LVL577:
 5402              	.L294:
 5403              	.LBE916:
 5404              	.LBE933:
 5405              	.LBE948:
 5406              	.LBE1065:
 5407              	.LBE1085:
 5408              	.LBE1959:
 5409              	.LBB1960:
 5410              	.LBB1502:
 5411              	.LBB1480:
 5412              	.LBB1280:
 5413              	.LBB1265:
 5414              	.LBB1248:
 5415 1d80 0030A0E3 		mov	r3, #0
 842:C:/Renesas/e2studio_2021_01_workspace_RZA2M_ANPR/ANPR_RZA2M_EBK/src/tensorflow_lite/tensorflow/lite/kernels/internal\common.h ****       } else {
 5416              		.loc 4 842 0
 5417 1d84 24C18DE5 		str	ip, [sp, #292]
 841:C:/Renesas/e2studio_2021_01_workspace_RZA2M_ANPR/ANPR_RZA2M_EBK/src/tensorflow_lite/tensorflow/lite/kernels/internal\common.h ****         desc0_out->extents[i] = extent1;
 5418              		.loc 4 841 0
 5419 1d88 34318DE5 		str	r3, [sp, #308]
 5420 1d8c 1BFAFFEA 		b	.L295
 5421              	.LVL578:
 5422              	.L179:
 5423              	.LBE1248:
 5424              	.LBE1265:
 5425              	.LBE1280:
 5426              	.LBE1480:
 5427              	.LBE1502:
 5428              	.LBE1960:
 5429              	.LBB1961:
 5430              	.LBB1923:
 5431              	.LBB1902:
 5432              	.LBB1694:
 5433              	.LBB1682:
 5434              	.LBB1666:
 5435 1d90 0030A0E3 		mov	r3, #0
 842:C:/Renesas/e2studio_2021_01_workspace_RZA2M_ANPR/ANPR_RZA2M_EBK/src/tensorflow_lite/tensorflow/lite/kernels/internal\common.h ****       } else {
 5436              		.loc 4 842 0
 5437 1d94 24C18DE5 		str	ip, [sp, #292]
 841:C:/Renesas/e2studio_2021_01_workspace_RZA2M_ANPR/ANPR_RZA2M_EBK/src/tensorflow_lite/tensorflow/lite/kernels/internal\common.h ****         desc0_out->extents[i] = extent1;
 5438              		.loc 4 841 0
 5439 1d98 34318DE5 		str	r3, [sp, #308]
 5440 1d9c CEFAFFEA 		b	.L180
 5441              	.LVL579:
 5442              	.L486:
 5443 1da0 C6FFFFEA 		b	.L41
 5444              	.LVL580:
 5445              	.L955:
 5446              	.LBE1666:
 5447              	.LBE1682:
 5448              	.LBE1694:
 5449              	.LBE1902:
 5450              	.LBE1923:
 5451              	.LBE1961:
 5452              	.LBB1962:
 5453              	.LBB1503:
 5454              	.LBB1481:
 5455              	.LBB1281:
 5456              	.LBB1266:
 5457              	.LBB1249:
 5458              	.LBB1237:
 5459              	.LBB1212:
 216:C:/Renesas/e2studio_2021_01_workspace_RZA2M_ANPR/ANPR_RZA2M_EBK/src/tensorflow_lite/tensorflow/lite/kernels/internal\types.h ****   }
 5460              		.loc 3 216 0
 5461 1da4 002093E5 		ldr	r2, [r3]
 5462              	.LVL581:
 5463              	.LBE1212:
 5464              	.LBE1237:
 839:C:/Renesas/e2studio_2021_01_workspace_RZA2M_ANPR/ANPR_RZA2M_EBK/src/tensorflow_lite/tensorflow/lite/kernels/internal\common.h ****       if (extent0 == 1) {
 5465              		.loc 4 839 0
 5466 1da8 0C0052E1 		cmp	r2, ip
 5467 1dac 0600000A 		beq	.L318
 840:C:/Renesas/e2studio_2021_01_workspace_RZA2M_ANPR/ANPR_RZA2M_EBK/src/tensorflow_lite/tensorflow/lite/kernels/internal\common.h ****         desc0_out->strides[i] = 0;
 5468              		.loc 4 840 0
 5469 1db0 010052E3 		cmp	r2, #1
 5470 1db4 DC00000A 		beq	.L319
 844:C:/Renesas/e2studio_2021_01_workspace_RZA2M_ANPR/ANPR_RZA2M_EBK/src/tensorflow_lite/tensorflow/lite/kernels/internal\common.h ****         desc1_out->strides[i] = 0;
 5471              		.loc 4 844 0
 5472 1db8 01005CE3 		cmp	ip, #1
 5473 1dbc A301001A 		bne	.L293
 845:C:/Renesas/e2studio_2021_01_workspace_RZA2M_ANPR/ANPR_RZA2M_EBK/src/tensorflow_lite/tensorflow/lite/kernels/internal\common.h ****         desc1_out->extents[i] = extent0;
 5474              		.loc 4 845 0
 5475 1dc0 0010A0E3 		mov	r1, #0
 5476              	.LVL582:
 5477              		.loc 4 846 0
 5478 1dc4 40218DE5 		str	r2, [sp, #320]
 845:C:/Renesas/e2studio_2021_01_workspace_RZA2M_ANPR/ANPR_RZA2M_EBK/src/tensorflow_lite/tensorflow/lite/kernels/internal\common.h ****         desc1_out->extents[i] = extent0;
 5479              		.loc 4 845 0
 5480 1dc8 50118DE5 		str	r1, [sp, #336]
 5481              	.LVL583:
 5482              	.L318:
 5483              	.LBB1238:
 5484              	.LBB1213:
 216:C:/Renesas/e2studio_2021_01_workspace_RZA2M_ANPR/ANPR_RZA2M_EBK/src/tensorflow_lite/tensorflow/lite/kernels/internal\types.h ****   }
 5485              		.loc 3 216 0
 5486 1dcc 041093E5 		ldr	r1, [r3, #4]
 5487              	.LVL584:
 5488              	.LBE1213:
 5489              	.LBE1238:
 5490              	.LBB1239:
 5491              	.LBB1226:
 5492 1dd0 042090E5 		ldr	r2, [r0, #4]
 5493              	.LVL585:
 5494              	.LBE1226:
 5495              	.LBE1239:
 839:C:/Renesas/e2studio_2021_01_workspace_RZA2M_ANPR/ANPR_RZA2M_EBK/src/tensorflow_lite/tensorflow/lite/kernels/internal\common.h ****       if (extent0 == 1) {
 5496              		.loc 4 839 0
 5497 1dd4 020051E1 		cmp	r1, r2
 5498 1dd8 0600000A 		beq	.L320
 840:C:/Renesas/e2studio_2021_01_workspace_RZA2M_ANPR/ANPR_RZA2M_EBK/src/tensorflow_lite/tensorflow/lite/kernels/internal\common.h ****         desc0_out->strides[i] = 0;
 5499              		.loc 4 840 0
 5500 1ddc 010051E3 		cmp	r1, #1
 5501 1de0 D500000A 		beq	.L321
 844:C:/Renesas/e2studio_2021_01_workspace_RZA2M_ANPR/ANPR_RZA2M_EBK/src/tensorflow_lite/tensorflow/lite/kernels/internal\common.h ****         desc1_out->strides[i] = 0;
 5502              		.loc 4 844 0
 5503 1de4 010052E3 		cmp	r2, #1
 5504 1de8 9801001A 		bne	.L293
 845:C:/Renesas/e2studio_2021_01_workspace_RZA2M_ANPR/ANPR_RZA2M_EBK/src/tensorflow_lite/tensorflow/lite/kernels/internal\common.h ****         desc1_out->extents[i] = extent0;
 5505              		.loc 4 845 0
 5506 1dec 0020A0E3 		mov	r2, #0
 5507              		.loc 4 846 0
 5508 1df0 44118DE5 		str	r1, [sp, #324]
 5509              	.LVL586:
 845:C:/Renesas/e2studio_2021_01_workspace_RZA2M_ANPR/ANPR_RZA2M_EBK/src/tensorflow_lite/tensorflow/lite/kernels/internal\common.h ****         desc1_out->extents[i] = extent0;
 5510              		.loc 4 845 0
 5511 1df4 54218DE5 		str	r2, [sp, #340]
 5512              	.LVL587:
 5513              	.L320:
 5514              	.LBB1240:
 5515              	.LBB1214:
 216:C:/Renesas/e2studio_2021_01_workspace_RZA2M_ANPR/ANPR_RZA2M_EBK/src/tensorflow_lite/tensorflow/lite/kernels/internal\types.h ****   }
 5516              		.loc 3 216 0
 5517 1df8 081093E5 		ldr	r1, [r3, #8]
 5518              	.LVL588:
 5519              	.LBE1214:
 5520              	.LBE1240:
 5521              	.LBB1241:
 5522              	.LBB1227:
 5523 1dfc 082090E5 		ldr	r2, [r0, #8]
 5524              	.LVL589:
 5525              	.LBE1227:
 5526              	.LBE1241:
 839:C:/Renesas/e2studio_2021_01_workspace_RZA2M_ANPR/ANPR_RZA2M_EBK/src/tensorflow_lite/tensorflow/lite/kernels/internal\common.h ****       if (extent0 == 1) {
 5527              		.loc 4 839 0
 5528 1e00 020051E1 		cmp	r1, r2
 5529 1e04 0600000A 		beq	.L322
 840:C:/Renesas/e2studio_2021_01_workspace_RZA2M_ANPR/ANPR_RZA2M_EBK/src/tensorflow_lite/tensorflow/lite/kernels/internal\common.h ****         desc0_out->strides[i] = 0;
 5530              		.loc 4 840 0
 5531 1e08 010051E3 		cmp	r1, #1
 5532 1e0c CE00000A 		beq	.L323
 844:C:/Renesas/e2studio_2021_01_workspace_RZA2M_ANPR/ANPR_RZA2M_EBK/src/tensorflow_lite/tensorflow/lite/kernels/internal\common.h ****         desc1_out->strides[i] = 0;
 5533              		.loc 4 844 0
 5534 1e10 010052E3 		cmp	r2, #1
 5535 1e14 8D01001A 		bne	.L293
 845:C:/Renesas/e2studio_2021_01_workspace_RZA2M_ANPR/ANPR_RZA2M_EBK/src/tensorflow_lite/tensorflow/lite/kernels/internal\common.h ****         desc1_out->extents[i] = extent0;
 5536              		.loc 4 845 0
 5537 1e18 0020A0E3 		mov	r2, #0
 5538              		.loc 4 846 0
 5539 1e1c 48118DE5 		str	r1, [sp, #328]
 5540              	.LVL590:
 845:C:/Renesas/e2studio_2021_01_workspace_RZA2M_ANPR/ANPR_RZA2M_EBK/src/tensorflow_lite/tensorflow/lite/kernels/internal\common.h ****         desc1_out->extents[i] = extent0;
 5541              		.loc 4 845 0
 5542 1e20 58218DE5 		str	r2, [sp, #344]
 5543              	.L322:
 5544              	.LVL591:
 5545              	.LBB1242:
 5546              	.LBB1215:
 216:C:/Renesas/e2studio_2021_01_workspace_RZA2M_ANPR/ANPR_RZA2M_EBK/src/tensorflow_lite/tensorflow/lite/kernels/internal\types.h ****   }
 5547              		.loc 3 216 0
 5548 1e24 0C3093E5 		ldr	r3, [r3, #12]
 5549              	.LVL592:
 5550              	.LBE1215:
 5551              	.LBE1242:
 5552              	.LBB1243:
 5553              	.LBB1228:
 5554 1e28 0C2090E5 		ldr	r2, [r0, #12]
 5555              	.LVL593:
 5556              	.LBE1228:
 5557              	.LBE1243:
 839:C:/Renesas/e2studio_2021_01_workspace_RZA2M_ANPR/ANPR_RZA2M_EBK/src/tensorflow_lite/tensorflow/lite/kernels/internal\common.h ****       if (extent0 == 1) {
 5558              		.loc 4 839 0
 5559 1e2c 020053E1 		cmp	r3, r2
 5560 1e30 BDFCFF1A 		bne	.L324
 5561 1e34 C6FCFFEA 		b	.L317
 5562              	.LVL594:
 5563              	.L935:
 5564              	.LBE1249:
 5565              	.LBE1266:
 5566              	.LBE1281:
 5567              	.LBE1481:
 5568              	.LBE1503:
 5569              	.LBE1962:
 5570              	.LBB1963:
 5571              	.LBB1924:
 5572              	.LBB1903:
 5573              	.LBB1695:
 5574              	.LBB1683:
 5575              	.LBB1667:
 5576              	.LBB1654:
 5577              	.LBB1629:
 216:C:/Renesas/e2studio_2021_01_workspace_RZA2M_ANPR/ANPR_RZA2M_EBK/src/tensorflow_lite/tensorflow/lite/kernels/internal\types.h ****   }
 5578              		.loc 3 216 0
 5579 1e38 002093E5 		ldr	r2, [r3]
 5580              	.LVL595:
 5581              	.LBE1629:
 5582              	.LBE1654:
 839:C:/Renesas/e2studio_2021_01_workspace_RZA2M_ANPR/ANPR_RZA2M_EBK/src/tensorflow_lite/tensorflow/lite/kernels/internal\common.h ****       if (extent0 == 1) {
 5583              		.loc 4 839 0
 5584 1e3c 0C0052E1 		cmp	r2, ip
 5585 1e40 0600000A 		beq	.L203
 840:C:/Renesas/e2studio_2021_01_workspace_RZA2M_ANPR/ANPR_RZA2M_EBK/src/tensorflow_lite/tensorflow/lite/kernels/internal\common.h ****         desc0_out->strides[i] = 0;
 5586              		.loc 4 840 0
 5587 1e44 010052E3 		cmp	r2, #1
 5588 1e48 DB00000A 		beq	.L204
 844:C:/Renesas/e2studio_2021_01_workspace_RZA2M_ANPR/ANPR_RZA2M_EBK/src/tensorflow_lite/tensorflow/lite/kernels/internal\common.h ****         desc1_out->strides[i] = 0;
 5589              		.loc 4 844 0
 5590 1e4c 01005CE3 		cmp	ip, #1
 5591 1e50 5201001A 		bne	.L178
 845:C:/Renesas/e2studio_2021_01_workspace_RZA2M_ANPR/ANPR_RZA2M_EBK/src/tensorflow_lite/tensorflow/lite/kernels/internal\common.h ****         desc1_out->extents[i] = extent0;
 5592              		.loc 4 845 0
 5593 1e54 0010A0E3 		mov	r1, #0
 5594              	.LVL596:
 5595              		.loc 4 846 0
 5596 1e58 40218DE5 		str	r2, [sp, #320]
 845:C:/Renesas/e2studio_2021_01_workspace_RZA2M_ANPR/ANPR_RZA2M_EBK/src/tensorflow_lite/tensorflow/lite/kernels/internal\common.h ****         desc1_out->extents[i] = extent0;
 5597              		.loc 4 845 0
 5598 1e5c 50118DE5 		str	r1, [sp, #336]
 5599              	.LVL597:
 5600              	.L203:
 5601              	.LBB1655:
 5602              	.LBB1630:
 216:C:/Renesas/e2studio_2021_01_workspace_RZA2M_ANPR/ANPR_RZA2M_EBK/src/tensorflow_lite/tensorflow/lite/kernels/internal\types.h ****   }
 5603              		.loc 3 216 0
 5604 1e60 041093E5 		ldr	r1, [r3, #4]
 5605              	.LVL598:
 5606              	.LBE1630:
 5607              	.LBE1655:
 5608              	.LBB1656:
 5609              	.LBB1643:
 5610 1e64 042090E5 		ldr	r2, [r0, #4]
 5611              	.LVL599:
 5612              	.LBE1643:
 5613              	.LBE1656:
 839:C:/Renesas/e2studio_2021_01_workspace_RZA2M_ANPR/ANPR_RZA2M_EBK/src/tensorflow_lite/tensorflow/lite/kernels/internal\common.h ****       if (extent0 == 1) {
 5614              		.loc 4 839 0
 5615 1e68 020051E1 		cmp	r1, r2
 5616 1e6c 0600000A 		beq	.L205
 840:C:/Renesas/e2studio_2021_01_workspace_RZA2M_ANPR/ANPR_RZA2M_EBK/src/tensorflow_lite/tensorflow/lite/kernels/internal\common.h ****         desc0_out->strides[i] = 0;
 5617              		.loc 4 840 0
 5618 1e70 010051E3 		cmp	r1, #1
 5619 1e74 C800000A 		beq	.L206
 844:C:/Renesas/e2studio_2021_01_workspace_RZA2M_ANPR/ANPR_RZA2M_EBK/src/tensorflow_lite/tensorflow/lite/kernels/internal\common.h ****         desc1_out->strides[i] = 0;
 5620              		.loc 4 844 0
 5621 1e78 010052E3 		cmp	r2, #1
 5622 1e7c 4701001A 		bne	.L178
 845:C:/Renesas/e2studio_2021_01_workspace_RZA2M_ANPR/ANPR_RZA2M_EBK/src/tensorflow_lite/tensorflow/lite/kernels/internal\common.h ****         desc1_out->extents[i] = extent0;
 5623              		.loc 4 845 0
 5624 1e80 0020A0E3 		mov	r2, #0
 5625              		.loc 4 846 0
 5626 1e84 44118DE5 		str	r1, [sp, #324]
 5627              	.LVL600:
 845:C:/Renesas/e2studio_2021_01_workspace_RZA2M_ANPR/ANPR_RZA2M_EBK/src/tensorflow_lite/tensorflow/lite/kernels/internal\common.h ****         desc1_out->extents[i] = extent0;
 5628              		.loc 4 845 0
 5629 1e88 54218DE5 		str	r2, [sp, #340]
 5630              	.LVL601:
 5631              	.L205:
 5632              	.LBB1657:
 5633              	.LBB1631:
 216:C:/Renesas/e2studio_2021_01_workspace_RZA2M_ANPR/ANPR_RZA2M_EBK/src/tensorflow_lite/tensorflow/lite/kernels/internal\types.h ****   }
 5634              		.loc 3 216 0
 5635 1e8c 081093E5 		ldr	r1, [r3, #8]
 5636              	.LVL602:
 5637              	.LBE1631:
 5638              	.LBE1657:
 5639              	.LBB1658:
 5640              	.LBB1644:
 5641 1e90 082090E5 		ldr	r2, [r0, #8]
 5642              	.LVL603:
 5643              	.LBE1644:
 5644              	.LBE1658:
 839:C:/Renesas/e2studio_2021_01_workspace_RZA2M_ANPR/ANPR_RZA2M_EBK/src/tensorflow_lite/tensorflow/lite/kernels/internal\common.h ****       if (extent0 == 1) {
 5645              		.loc 4 839 0
 5646 1e94 020051E1 		cmp	r1, r2
 5647 1e98 0600000A 		beq	.L207
 840:C:/Renesas/e2studio_2021_01_workspace_RZA2M_ANPR/ANPR_RZA2M_EBK/src/tensorflow_lite/tensorflow/lite/kernels/internal\common.h ****         desc0_out->strides[i] = 0;
 5648              		.loc 4 840 0
 5649 1e9c 010051E3 		cmp	r1, #1
 5650 1ea0 C100000A 		beq	.L208
 844:C:/Renesas/e2studio_2021_01_workspace_RZA2M_ANPR/ANPR_RZA2M_EBK/src/tensorflow_lite/tensorflow/lite/kernels/internal\common.h ****         desc1_out->strides[i] = 0;
 5651              		.loc 4 844 0
 5652 1ea4 010052E3 		cmp	r2, #1
 5653 1ea8 3C01001A 		bne	.L178
 845:C:/Renesas/e2studio_2021_01_workspace_RZA2M_ANPR/ANPR_RZA2M_EBK/src/tensorflow_lite/tensorflow/lite/kernels/internal\common.h ****         desc1_out->extents[i] = extent0;
 5654              		.loc 4 845 0
 5655 1eac 0020A0E3 		mov	r2, #0
 5656              		.loc 4 846 0
 5657 1eb0 48118DE5 		str	r1, [sp, #328]
 5658              	.LVL604:
 845:C:/Renesas/e2studio_2021_01_workspace_RZA2M_ANPR/ANPR_RZA2M_EBK/src/tensorflow_lite/tensorflow/lite/kernels/internal\common.h ****         desc1_out->extents[i] = extent0;
 5659              		.loc 4 845 0
 5660 1eb4 58218DE5 		str	r2, [sp, #344]
 5661              	.L207:
 5662              	.LVL605:
 5663              	.LBB1659:
 5664              	.LBB1632:
 216:C:/Renesas/e2studio_2021_01_workspace_RZA2M_ANPR/ANPR_RZA2M_EBK/src/tensorflow_lite/tensorflow/lite/kernels/internal\types.h ****   }
 5665              		.loc 3 216 0
 5666 1eb8 0C3093E5 		ldr	r3, [r3, #12]
 5667              	.LVL606:
 5668              	.LBE1632:
 5669              	.LBE1659:
 5670              	.LBB1660:
 5671              	.LBB1645:
 5672 1ebc 0C2090E5 		ldr	r2, [r0, #12]
 5673              	.LVL607:
 5674              	.LBE1645:
 5675              	.LBE1660:
 839:C:/Renesas/e2studio_2021_01_workspace_RZA2M_ANPR/ANPR_RZA2M_EBK/src/tensorflow_lite/tensorflow/lite/kernels/internal\common.h ****       if (extent0 == 1) {
 5676              		.loc 4 839 0
 5677 1ec0 020053E1 		cmp	r3, r2
 5678 1ec4 12FBFF1A 		bne	.L209
 5679 1ec8 1BFBFFEA 		b	.L202
 5680              	.LVL608:
 5681              	.L975:
 5682              	.LBE1667:
 5683              	.LBE1683:
 5684              	.LBE1695:
 5685              	.LBE1903:
 5686              	.LBE1924:
 5687              	.LBE1963:
 5688              	.LBB1964:
 5689              	.LBB1086:
 5690              	.LBB1066:
 5691              	.LBB949:
 5692              	.LBB934:
 5693              	.LBB917:
 5694              	.LBB905:
 5695              	.LBB880:
 216:C:/Renesas/e2studio_2021_01_workspace_RZA2M_ANPR/ANPR_RZA2M_EBK/src/tensorflow_lite/tensorflow/lite/kernels/internal\types.h ****   }
 5696              		.loc 3 216 0
 5697 1ecc 002093E5 		ldr	r2, [r3]
 5698              	.LVL609:
 5699              	.LBE880:
 5700              	.LBE905:
 839:C:/Renesas/e2studio_2021_01_workspace_RZA2M_ANPR/ANPR_RZA2M_EBK/src/tensorflow_lite/tensorflow/lite/kernels/internal\common.h ****       if (extent0 == 1) {
 5701              		.loc 4 839 0
 5702 1ed0 02005CE1 		cmp	ip, r2
 5703 1ed4 0600000A 		beq	.L84
 840:C:/Renesas/e2studio_2021_01_workspace_RZA2M_ANPR/ANPR_RZA2M_EBK/src/tensorflow_lite/tensorflow/lite/kernels/internal\common.h ****         desc0_out->strides[i] = 0;
 5704              		.loc 4 840 0
 5705 1ed8 010052E3 		cmp	r2, #1
 5706 1edc BA00000A 		beq	.L85
 844:C:/Renesas/e2studio_2021_01_workspace_RZA2M_ANPR/ANPR_RZA2M_EBK/src/tensorflow_lite/tensorflow/lite/kernels/internal\common.h ****         desc1_out->strides[i] = 0;
 5707              		.loc 4 844 0
 5708 1ee0 01005CE3 		cmp	ip, #1
 5709 1ee4 4301001A 		bne	.L59
 845:C:/Renesas/e2studio_2021_01_workspace_RZA2M_ANPR/ANPR_RZA2M_EBK/src/tensorflow_lite/tensorflow/lite/kernels/internal\common.h ****         desc1_out->extents[i] = extent0;
 5710              		.loc 4 845 0
 5711 1ee8 0010A0E3 		mov	r1, #0
 5712              	.LVL610:
 5713              		.loc 4 846 0
 5714 1eec 40218DE5 		str	r2, [sp, #320]
 845:C:/Renesas/e2studio_2021_01_workspace_RZA2M_ANPR/ANPR_RZA2M_EBK/src/tensorflow_lite/tensorflow/lite/kernels/internal\common.h ****         desc1_out->extents[i] = extent0;
 5715              		.loc 4 845 0
 5716 1ef0 50118DE5 		str	r1, [sp, #336]
 5717              	.LVL611:
 5718              	.L84:
 5719              	.LBB906:
 5720              	.LBB881:
 216:C:/Renesas/e2studio_2021_01_workspace_RZA2M_ANPR/ANPR_RZA2M_EBK/src/tensorflow_lite/tensorflow/lite/kernels/internal\types.h ****   }
 5721              		.loc 3 216 0
 5722 1ef4 041093E5 		ldr	r1, [r3, #4]
 5723              	.LVL612:
 5724              	.LBE881:
 5725              	.LBE906:
 5726              	.LBB907:
 5727              	.LBB894:
 5728 1ef8 042090E5 		ldr	r2, [r0, #4]
 5729              	.LVL613:
 5730              	.LBE894:
 5731              	.LBE907:
 839:C:/Renesas/e2studio_2021_01_workspace_RZA2M_ANPR/ANPR_RZA2M_EBK/src/tensorflow_lite/tensorflow/lite/kernels/internal\common.h ****       if (extent0 == 1) {
 5732              		.loc 4 839 0
 5733 1efc 010052E1 		cmp	r2, r1
 5734 1f00 0600000A 		beq	.L86
 840:C:/Renesas/e2studio_2021_01_workspace_RZA2M_ANPR/ANPR_RZA2M_EBK/src/tensorflow_lite/tensorflow/lite/kernels/internal\common.h ****         desc0_out->strides[i] = 0;
 5735              		.loc 4 840 0
 5736 1f04 010051E3 		cmp	r1, #1
 5737 1f08 B300000A 		beq	.L87
 844:C:/Renesas/e2studio_2021_01_workspace_RZA2M_ANPR/ANPR_RZA2M_EBK/src/tensorflow_lite/tensorflow/lite/kernels/internal\common.h ****         desc1_out->strides[i] = 0;
 5738              		.loc 4 844 0
 5739 1f0c 010052E3 		cmp	r2, #1
 5740 1f10 3801001A 		bne	.L59
 845:C:/Renesas/e2studio_2021_01_workspace_RZA2M_ANPR/ANPR_RZA2M_EBK/src/tensorflow_lite/tensorflow/lite/kernels/internal\common.h ****         desc1_out->extents[i] = extent0;
 5741              		.loc 4 845 0
 5742 1f14 0020A0E3 		mov	r2, #0
 5743              		.loc 4 846 0
 5744 1f18 44118DE5 		str	r1, [sp, #324]
 5745              	.LVL614:
 845:C:/Renesas/e2studio_2021_01_workspace_RZA2M_ANPR/ANPR_RZA2M_EBK/src/tensorflow_lite/tensorflow/lite/kernels/internal\common.h ****         desc1_out->extents[i] = extent0;
 5746              		.loc 4 845 0
 5747 1f1c 54218DE5 		str	r2, [sp, #340]
 5748              	.LVL615:
 5749              	.L86:
 5750              	.LBB908:
 5751              	.LBB882:
 216:C:/Renesas/e2studio_2021_01_workspace_RZA2M_ANPR/ANPR_RZA2M_EBK/src/tensorflow_lite/tensorflow/lite/kernels/internal\types.h ****   }
 5752              		.loc 3 216 0
 5753 1f20 081093E5 		ldr	r1, [r3, #8]
 5754              	.LVL616:
 5755              	.LBE882:
 5756              	.LBE908:
 5757              	.LBB909:
 5758              	.LBB895:
 5759 1f24 082090E5 		ldr	r2, [r0, #8]
 5760              	.LVL617:
 5761              	.LBE895:
 5762              	.LBE909:
 839:C:/Renesas/e2studio_2021_01_workspace_RZA2M_ANPR/ANPR_RZA2M_EBK/src/tensorflow_lite/tensorflow/lite/kernels/internal\common.h ****       if (extent0 == 1) {
 5763              		.loc 4 839 0
 5764 1f28 020051E1 		cmp	r1, r2
 5765 1f2c 0600000A 		beq	.L88
 840:C:/Renesas/e2studio_2021_01_workspace_RZA2M_ANPR/ANPR_RZA2M_EBK/src/tensorflow_lite/tensorflow/lite/kernels/internal\common.h ****         desc0_out->strides[i] = 0;
 5766              		.loc 4 840 0
 5767 1f30 010051E3 		cmp	r1, #1
 5768 1f34 AC00000A 		beq	.L89
 844:C:/Renesas/e2studio_2021_01_workspace_RZA2M_ANPR/ANPR_RZA2M_EBK/src/tensorflow_lite/tensorflow/lite/kernels/internal\common.h ****         desc1_out->strides[i] = 0;
 5769              		.loc 4 844 0
 5770 1f38 010052E3 		cmp	r2, #1
 5771 1f3c 2D01001A 		bne	.L59
 845:C:/Renesas/e2studio_2021_01_workspace_RZA2M_ANPR/ANPR_RZA2M_EBK/src/tensorflow_lite/tensorflow/lite/kernels/internal\common.h ****         desc1_out->extents[i] = extent0;
 5772              		.loc 4 845 0
 5773 1f40 0020A0E3 		mov	r2, #0
 5774              		.loc 4 846 0
 5775 1f44 48118DE5 		str	r1, [sp, #328]
 5776              	.LVL618:
 845:C:/Renesas/e2studio_2021_01_workspace_RZA2M_ANPR/ANPR_RZA2M_EBK/src/tensorflow_lite/tensorflow/lite/kernels/internal\common.h ****         desc1_out->extents[i] = extent0;
 5777              		.loc 4 845 0
 5778 1f48 58218DE5 		str	r2, [sp, #344]
 5779              	.L88:
 5780              	.LVL619:
 5781              	.LBB910:
 5782              	.LBB883:
 216:C:/Renesas/e2studio_2021_01_workspace_RZA2M_ANPR/ANPR_RZA2M_EBK/src/tensorflow_lite/tensorflow/lite/kernels/internal\types.h ****   }
 5783              		.loc 3 216 0
 5784 1f4c 0C3093E5 		ldr	r3, [r3, #12]
 5785              	.LVL620:
 5786              	.LBE883:
 5787              	.LBE910:
 5788              	.LBB911:
 5789              	.LBB896:
 5790 1f50 0C2090E5 		ldr	r2, [r0, #12]
 5791              	.LVL621:
 5792              	.LBE896:
 5793              	.LBE911:
 839:C:/Renesas/e2studio_2021_01_workspace_RZA2M_ANPR/ANPR_RZA2M_EBK/src/tensorflow_lite/tensorflow/lite/kernels/internal\common.h ****       if (extent0 == 1) {
 5794              		.loc 4 839 0
 5795 1f54 020053E1 		cmp	r3, r2
 5796 1f58 F6FDFF1A 		bne	.L90
 5797 1f5c FFFDFFEA 		b	.L83
 5798              	.LVL622:
 5799              	.L193:
 5800              	.LBE917:
 5801              	.LBE934:
 5802              	.LBE949:
 5803              	.LBE1066:
 5804              	.LBE1086:
 5805              	.LBE1964:
 5806              	.LBB1965:
 5807              	.LBB1925:
 5808              	.LBB1904:
 5809              	.LBB1696:
 5810              	.LBB1684:
 5811              	.LBB1668:
 841:C:/Renesas/e2studio_2021_01_workspace_RZA2M_ANPR/ANPR_RZA2M_EBK/src/tensorflow_lite/tensorflow/lite/kernels/internal\common.h ****         desc0_out->extents[i] = extent1;
 5812              		.loc 4 841 0
 5813 1f60 0030A0E3 		mov	r3, #0
 842:C:/Renesas/e2studio_2021_01_workspace_RZA2M_ANPR/ANPR_RZA2M_EBK/src/tensorflow_lite/tensorflow/lite/kernels/internal\common.h ****       } else {
 5814              		.loc 4 842 0
 5815 1f64 2C218DE5 		str	r2, [sp, #300]
 841:C:/Renesas/e2studio_2021_01_workspace_RZA2M_ANPR/ANPR_RZA2M_EBK/src/tensorflow_lite/tensorflow/lite/kernels/internal\common.h ****         desc0_out->extents[i] = extent1;
 5816              		.loc 4 841 0
 5817 1f68 3C318DE5 		str	r3, [sp, #316]
 5818 1f6c F5FAFFEA 		b	.L402
 5819              	.LVL623:
 5820              	.L74:
 5821              	.LBE1668:
 5822              	.LBE1684:
 5823              	.LBE1696:
 5824              	.LBE1904:
 5825              	.LBE1925:
 5826              	.LBE1965:
 5827              	.LBB1966:
 5828              	.LBB1087:
 5829              	.LBB1067:
 5830              	.LBB950:
 5831              	.LBB935:
 5832              	.LBB918:
 5833 1f70 0030A0E3 		mov	r3, #0
 842:C:/Renesas/e2studio_2021_01_workspace_RZA2M_ANPR/ANPR_RZA2M_EBK/src/tensorflow_lite/tensorflow/lite/kernels/internal\common.h ****       } else {
 5834              		.loc 4 842 0
 5835 1f74 2C218DE5 		str	r2, [sp, #300]
 841:C:/Renesas/e2studio_2021_01_workspace_RZA2M_ANPR/ANPR_RZA2M_EBK/src/tensorflow_lite/tensorflow/lite/kernels/internal\common.h ****         desc0_out->extents[i] = extent1;
 5836              		.loc 4 841 0
 5837 1f78 3C318DE5 		str	r3, [sp, #316]
 5838 1f7c FAFDFFEA 		b	.L401
 5839              	.LVL624:
 5840              	.L308:
 5841              	.LBE918:
 5842              	.LBE935:
 5843              	.LBE950:
 5844              	.LBE1067:
 5845              	.LBE1087:
 5846              	.LBE1966:
 5847              	.LBB1967:
 5848              	.LBB1504:
 5849              	.LBB1482:
 5850              	.LBB1282:
 5851              	.LBB1267:
 5852              	.LBB1250:
 5853 1f80 0030A0E3 		mov	r3, #0
 842:C:/Renesas/e2studio_2021_01_workspace_RZA2M_ANPR/ANPR_RZA2M_EBK/src/tensorflow_lite/tensorflow/lite/kernels/internal\common.h ****       } else {
 5854              		.loc 4 842 0
 5855 1f84 2C218DE5 		str	r2, [sp, #300]
 841:C:/Renesas/e2studio_2021_01_workspace_RZA2M_ANPR/ANPR_RZA2M_EBK/src/tensorflow_lite/tensorflow/lite/kernels/internal\common.h ****         desc0_out->extents[i] = extent1;
 5856              		.loc 4 841 0
 5857 1f88 3C318DE5 		str	r3, [sp, #316]
 5858 1f8c 73FCFFEA 		b	.L405
 5859              	.LVL625:
 5860              	.L947:
 5861              	.LEHB20:
 5862              	.LBE1250:
 5863              	.LBE1267:
 5864              	.LBE1282:
 5865              	.LBE1482:
 5866              	.LBE1504:
 5867              	.LBE1967:
 5868              	.LBB1968:
 5869              	.LBB1926:
 5870              	.LBB1905:
 5871              	.LBB1889:
 5872              	.LBB1873:
 5873              	.LBB1858:
 5874              	.LBB1842:
 5875              	.LBB1818:
 5876              	.LBB1801:
 732:C:/Renesas/e2studio_2021_01_workspace_RZA2M_ANPR/ANPR_RZA2M_EBK/src/tensorflow_lite/tensorflow/lite/kernels/internal\common.h ****   return i0 * desc.strides[0] + i1 * desc.strides[1] + i2 * desc.strides[2] +
 5877              		.loc 4 732 0
 5878 1f90 FEFFFFEB 		bl	abort
 5879              	.LVL626:
 5880              	.L946:
 731:C:/Renesas/e2studio_2021_01_workspace_RZA2M_ANPR/ANPR_RZA2M_EBK/src/tensorflow_lite/tensorflow/lite/kernels/internal\common.h ****   TFLITE_DCHECK(i3 >= 0 && i3 < desc.extents[3]);
 5881              		.loc 4 731 0
 5882 1f94 FEFFFFEB 		bl	abort
 5883              	.LVL627:
 5884              	.L945:
 730:C:/Renesas/e2studio_2021_01_workspace_RZA2M_ANPR/ANPR_RZA2M_EBK/src/tensorflow_lite/tensorflow/lite/kernels/internal\common.h ****   TFLITE_DCHECK(i2 >= 0 && i2 < desc.extents[2]);
 5885              		.loc 4 730 0
 5886 1f98 FEFFFFEB 		bl	abort
 5887              	.LVL628:
 5888              	.L944:
 729:C:/Renesas/e2studio_2021_01_workspace_RZA2M_ANPR/ANPR_RZA2M_EBK/src/tensorflow_lite/tensorflow/lite/kernels/internal\common.h ****   TFLITE_DCHECK(i1 >= 0 && i1 < desc.extents[1]);
 5889              		.loc 4 729 0
 5890 1f9c FEFFFFEB 		bl	abort
 5891              	.LVL629:
 5892              	.L943:
 5893              	.LBE1801:
 5894              	.LBE1818:
 5895              	.LBB1819:
 5896              	.LBB1813:
 5897              		.loc 3 409 0
 5898 1fa0 FEFFFFEB 		bl	abort
 5899              	.LVL630:
 5900              	.L942:
 408:C:/Renesas/e2studio_2021_01_workspace_RZA2M_ANPR/ANPR_RZA2M_EBK/src/tensorflow_lite/tensorflow/lite/kernels/internal\types.h ****   TFLITE_DCHECK(i3 >= 0 && i3 < dims_data[3]);
 5901              		.loc 3 408 0
 5902 1fa4 FEFFFFEB 		bl	abort
 5903              	.LVL631:
 5904              	.L941:
 407:C:/Renesas/e2studio_2021_01_workspace_RZA2M_ANPR/ANPR_RZA2M_EBK/src/tensorflow_lite/tensorflow/lite/kernels/internal\types.h ****   TFLITE_DCHECK(i2 >= 0 && i2 < dims_data[2]);
 5905              		.loc 3 407 0
 5906 1fa8 FEFFFFEB 		bl	abort
 5907              	.LVL632:
 5908              	.L940:
 406:C:/Renesas/e2studio_2021_01_workspace_RZA2M_ANPR/ANPR_RZA2M_EBK/src/tensorflow_lite/tensorflow/lite/kernels/internal\types.h ****   TFLITE_DCHECK(i1 >= 0 && i1 < dims_data[1]);
 5909              		.loc 3 406 0
 5910 1fac FEFFFFEB 		bl	abort
 5911              	.LVL633:
 5912              	.LEHE20:
 5913              	.L967:
 5914              	.LEHB21:
 5915              	.LBE1813:
 5916              	.LBE1819:
 5917              	.LBE1842:
 5918              	.LBE1858:
 5919              	.LBE1873:
 5920              	.LBE1889:
 5921              	.LBE1905:
 5922              	.LBE1926:
 5923              	.LBE1968:
 5924              	.LBB1969:
 5925              	.LBB1505:
 5926              	.LBB1483:
 5927              	.LBB1467:
 5928              	.LBB1453:
 5929              	.LBB1440:
 5930              	.LBB1425:
 5931              	.LBB1402:
 5932              	.LBB1385:
 732:C:/Renesas/e2studio_2021_01_workspace_RZA2M_ANPR/ANPR_RZA2M_EBK/src/tensorflow_lite/tensorflow/lite/kernels/internal\common.h ****   return i0 * desc.strides[0] + i1 * desc.strides[1] + i2 * desc.strides[2] +
 5933              		.loc 4 732 0
 5934 1fb0 FEFFFFEB 		bl	abort
 5935              	.LVL634:
 5936              	.L966:
 731:C:/Renesas/e2studio_2021_01_workspace_RZA2M_ANPR/ANPR_RZA2M_EBK/src/tensorflow_lite/tensorflow/lite/kernels/internal\common.h ****   TFLITE_DCHECK(i3 >= 0 && i3 < desc.extents[3]);
 5937              		.loc 4 731 0
 5938 1fb4 FEFFFFEB 		bl	abort
 5939              	.LVL635:
 5940              	.L965:
 730:C:/Renesas/e2studio_2021_01_workspace_RZA2M_ANPR/ANPR_RZA2M_EBK/src/tensorflow_lite/tensorflow/lite/kernels/internal\common.h ****   TFLITE_DCHECK(i2 >= 0 && i2 < desc.extents[2]);
 5941              		.loc 4 730 0
 5942 1fb8 FEFFFFEB 		bl	abort
 5943              	.LVL636:
 5944              	.L964:
 729:C:/Renesas/e2studio_2021_01_workspace_RZA2M_ANPR/ANPR_RZA2M_EBK/src/tensorflow_lite/tensorflow/lite/kernels/internal\common.h ****   TFLITE_DCHECK(i1 >= 0 && i1 < desc.extents[1]);
 5945              		.loc 4 729 0
 5946 1fbc FEFFFFEB 		bl	abort
 5947              	.LVL637:
 5948              	.L963:
 5949              	.LBE1385:
 5950              	.LBE1402:
 5951              	.LBB1403:
 5952              	.LBB1397:
 5953              		.loc 3 409 0
 5954 1fc0 FEFFFFEB 		bl	abort
 5955              	.LVL638:
 5956              	.L962:
 408:C:/Renesas/e2studio_2021_01_workspace_RZA2M_ANPR/ANPR_RZA2M_EBK/src/tensorflow_lite/tensorflow/lite/kernels/internal\types.h ****   TFLITE_DCHECK(i3 >= 0 && i3 < dims_data[3]);
 5957              		.loc 3 408 0
 5958 1fc4 FEFFFFEB 		bl	abort
 5959              	.LVL639:
 5960              	.L961:
 407:C:/Renesas/e2studio_2021_01_workspace_RZA2M_ANPR/ANPR_RZA2M_EBK/src/tensorflow_lite/tensorflow/lite/kernels/internal\types.h ****   TFLITE_DCHECK(i2 >= 0 && i2 < dims_data[2]);
 5961              		.loc 3 407 0
 5962 1fc8 FEFFFFEB 		bl	abort
 5963              	.LVL640:
 5964              	.L960:
 406:C:/Renesas/e2studio_2021_01_workspace_RZA2M_ANPR/ANPR_RZA2M_EBK/src/tensorflow_lite/tensorflow/lite/kernels/internal\types.h ****   TFLITE_DCHECK(i1 >= 0 && i1 < dims_data[1]);
 5965              		.loc 3 406 0
 5966 1fcc FEFFFFEB 		bl	abort
 5967              	.LVL641:
 5968              	.LEHE21:
 5969              	.L130:
 5970              	.LEHB22:
 5971              	.LBE1397:
 5972              	.LBE1403:
 5973              	.LBE1425:
 5974              	.LBE1440:
 5975              	.LBE1453:
 5976              	.LBE1467:
 5977              	.LBE1483:
 5978              	.LBE1505:
 5979              	.LBE1969:
 5980              	.LBB1970:
 5981              	.LBB1088:
 5982              	.LBB1068:
 5983              	.LBB1053:
 5984              	.LBB1043:
 5985              	.LBB1030:
 5986              	.LBB1016:
 5987              	.LBB994:
 5988              	.LBB970:
 732:C:/Renesas/e2studio_2021_01_workspace_RZA2M_ANPR/ANPR_RZA2M_EBK/src/tensorflow_lite/tensorflow/lite/kernels/internal\common.h ****   return i0 * desc.strides[0] + i1 * desc.strides[1] + i2 * desc.strides[2] +
 5989              		.loc 4 732 0
 5990 1fd0 FEFFFFEB 		bl	abort
 5991              	.LVL642:
 5992              	.L123:
 5993              	.LBE970:
 5994              	.LBE994:
 5995              	.LBB995:
 5996              	.LBB978:
 5997 1fd4 FEFFFFEB 		bl	abort
 5998              	.LVL643:
 5999              	.L121:
 731:C:/Renesas/e2studio_2021_01_workspace_RZA2M_ANPR/ANPR_RZA2M_EBK/src/tensorflow_lite/tensorflow/lite/kernels/internal\common.h ****   TFLITE_DCHECK(i3 >= 0 && i3 < desc.extents[3]);
 6000              		.loc 4 731 0
 6001 1fd8 FEFFFFEB 		bl	abort
 6002              	.LVL644:
 6003              	.L120:
 730:C:/Renesas/e2studio_2021_01_workspace_RZA2M_ANPR/ANPR_RZA2M_EBK/src/tensorflow_lite/tensorflow/lite/kernels/internal\common.h ****   TFLITE_DCHECK(i2 >= 0 && i2 < desc.extents[2]);
 6004              		.loc 4 730 0
 6005 1fdc FEFFFFEB 		bl	abort
 6006              	.LVL645:
 6007              	.L119:
 729:C:/Renesas/e2studio_2021_01_workspace_RZA2M_ANPR/ANPR_RZA2M_EBK/src/tensorflow_lite/tensorflow/lite/kernels/internal\common.h ****   TFLITE_DCHECK(i1 >= 0 && i1 < desc.extents[1]);
 6008              		.loc 4 729 0
 6009 1fe0 FEFFFFEB 		bl	abort
 6010              	.LVL646:
 6011              	.L118:
 6012              	.LBE978:
 6013              	.LBE995:
 6014              	.LBB996:
 6015              	.LBB987:
 408:C:/Renesas/e2studio_2021_01_workspace_RZA2M_ANPR/ANPR_RZA2M_EBK/src/tensorflow_lite/tensorflow/lite/kernels/internal\types.h ****   TFLITE_DCHECK(i3 >= 0 && i3 < dims_data[3]);
 6016              		.loc 3 408 0
 6017 1fe4 FEFFFFEB 		bl	abort
 6018              	.LVL647:
 6019              	.L117:
 407:C:/Renesas/e2studio_2021_01_workspace_RZA2M_ANPR/ANPR_RZA2M_EBK/src/tensorflow_lite/tensorflow/lite/kernels/internal\types.h ****   TFLITE_DCHECK(i2 >= 0 && i2 < dims_data[2]);
 6020              		.loc 3 407 0
 6021 1fe8 FEFFFFEB 		bl	abort
 6022              	.LVL648:
 6023              	.L116:
 406:C:/Renesas/e2studio_2021_01_workspace_RZA2M_ANPR/ANPR_RZA2M_EBK/src/tensorflow_lite/tensorflow/lite/kernels/internal\types.h ****   TFLITE_DCHECK(i1 >= 0 && i1 < dims_data[1]);
 6024              		.loc 3 406 0
 6025 1fec FEFFFFEB 		bl	abort
 6026              	.LVL649:
 6027              	.LEHE22:
 6028              	.L229:
 6029 1ff0 68309DE5 		ldr	r3, [sp, #104]
 6030              	.LBE987:
 6031              	.LBE996:
 6032              	.LBE1016:
 6033              	.LBE1030:
 6034              	.LBE1043:
 6035              	.LBE1053:
 6036              	.LBE1068:
 6037              	.LBE1088:
 6038              	.LBE1970:
 6039              	.LBB1971:
 6040              	.LBB1927:
 6041              	.LBB1906:
 6042              	.LBB1890:
  42:C:/Renesas/e2studio_2021_01_workspace_RZA2M_ANPR/ANPR_RZA2M_EBK/src/tensorflow_lite/tensorflow/lite/kernels/internal/reference\prelu.h ****       for (int x = 0; x < extended_output_shape.Dims(2); ++x) {
 6043              		.loc 5 42 0
 6044 1ff4 019089E2 		add	r9, r9, #1
 6045              	.LVL650:
 6046 1ff8 8C209DE5 		ldr	r2, [sp, #140]
 6047 1ffc 023083E0 		add	r3, r3, r2
 6048 2000 80209DE5 		ldr	r2, [sp, #128]
 6049 2004 68308DE5 		str	r3, [sp, #104]
 6050 2008 64309DE5 		ldr	r3, [sp, #100]
 6051 200c 023083E0 		add	r3, r3, r2
 6052 2010 7C209DE5 		ldr	r2, [sp, #124]
 6053 2014 64308DE5 		str	r3, [sp, #100]
 6054 2018 60309DE5 		ldr	r3, [sp, #96]
 6055 201c 023083E0 		add	r3, r3, r2
 6056 2020 60308DE5 		str	r3, [sp, #96]
 6057 2024 20FBFFEA 		b	.L223
 6058              	.LVL651:
 6059              	.L344:
 6060 2028 60309DE5 		ldr	r3, [sp, #96]
 6061              	.LBE1890:
 6062              	.LBE1906:
 6063              	.LBE1927:
 6064              	.LBE1971:
 6065              	.LBB1972:
 6066              	.LBB1506:
 6067              	.LBB1484:
 6068              	.LBB1468:
 6069 202c 019089E2 		add	r9, r9, #1
 6070              	.LVL652:
 6071 2030 84209DE5 		ldr	r2, [sp, #132]
 6072 2034 023083E0 		add	r3, r3, r2
 6073 2038 80209DE5 		ldr	r2, [sp, #128]
 6074 203c 60308DE5 		str	r3, [sp, #96]
 6075 2040 64309DE5 		ldr	r3, [sp, #100]
 6076 2044 023083E0 		add	r3, r3, r2
 6077 2048 7C209DE5 		ldr	r2, [sp, #124]
 6078 204c 64308DE5 		str	r3, [sp, #100]
 6079 2050 68309DE5 		ldr	r3, [sp, #104]
 6080 2054 023083E0 		add	r3, r3, r2
 6081 2058 68308DE5 		str	r3, [sp, #104]
 6082 205c 98FCFFEA 		b	.L338
 6083              	.LVL653:
 6084              	.L108:
 6085 2060 44309DE5 		ldr	r3, [sp, #68]
 6086              	.LBE1468:
 6087              	.LBE1484:
 6088              	.LBE1506:
 6089              	.LBE1972:
 6090              	.LBB1973:
 6091              	.LBB1089:
 6092              	.LBB1069:
 6093              	.LBB1054:
  73:../src/tensorflow_lite/tensorflow/lite/micro/kernels/prelu.cc ****       for (int x = 0; x < output_shape.Dims(2); ++x) {
 6094              		.loc 1 73 0
 6095 2064 01E08EE2 		add	lr, lr, #1
 6096              	.LVL654:
 6097 2068 70209DE5 		ldr	r2, [sp, #112]
 6098 206c 023083E0 		add	r3, r3, r2
 6099 2070 6C209DE5 		ldr	r2, [sp, #108]
 6100 2074 44308DE5 		str	r3, [sp, #68]
 6101 2078 4C309DE5 		ldr	r3, [sp, #76]
 6102 207c 023083E0 		add	r3, r3, r2
 6103 2080 68209DE5 		ldr	r2, [sp, #104]
 6104 2084 4C308DE5 		str	r3, [sp, #76]
 6105 2088 48309DE5 		ldr	r3, [sp, #72]
 6106 208c 023083E0 		add	r3, r3, r2
 6107 2090 48308DE5 		str	r3, [sp, #72]
 6108 2094 08FEFFEA 		b	.L103
 6109              	.LVL655:
 6110              	.L939:
 6111              	.LEHB23:
 6112              	.LBE1054:
 6113              	.LBE1069:
 6114              	.LBE1089:
 6115              	.LBE1973:
 6116              	.LBB1974:
 6117              	.LBB1928:
 6118              	.LBB1907:
 6119              	.LBB1891:
 6120              	.LBB1874:
 6121              	.LBB1859:
 6122              	.LBB1843:
 6123              	.LBB1820:
 6124              	.LBB1814:
 404:C:/Renesas/e2studio_2021_01_workspace_RZA2M_ANPR/ANPR_RZA2M_EBK/src/tensorflow_lite/tensorflow/lite/kernels/internal\types.h ****   const int* dims_data = reinterpret_cast<const int*>(shape.DimsDataUpTo5D());
 6125              		.loc 3 404 0
 6126 2098 FEFFFFEB 		bl	abort
 6127              	.LVL656:
 6128              	.LEHE23:
 6129              	.L496:
 6130              	.L892:
 6131 209c 10309DE5 		ldr	r3, [sp, #16]
 6132 20a0 FDFEFFEA 		b	.L275
 6133              	.LVL657:
 6134              	.L956:
 6135              	.LEHB24:
 6136              	.LBE1814:
 6137              	.LBE1820:
 6138              	.LBE1843:
 6139              	.LBE1859:
 6140              	.LBE1874:
 6141              	.LBE1891:
 6142              	.LBE1907:
 6143              	.LBE1928:
 6144              	.LBE1974:
 6145              	.LBB1975:
 6146              	.LBB1507:
 6147              	.LBB1485:
 6148              	.LBB1469:
 6149              	.LBB1454:
 6150              	.LBB1441:
 6151              	.LBB1426:
 6152              	.LBB1414:
 215:C:/Renesas/e2studio_2021_01_workspace_RZA2M_ANPR/ANPR_RZA2M_EBK/src/tensorflow_lite/tensorflow/lite/kernels/internal\types.h ****     return size_ > kMaxSmallSize ? dims_pointer_[i] : dims_[i];
 6153              		.loc 3 215 0
 6154 20a4 FEFFFFEB 		bl	abort
 6155              	.LVL658:
 6156              	.LEHE24:
 6157              	.L959:
 6158              	.LEHB25:
 6159              	.LBE1414:
 6160              	.LBE1426:
 6161              	.LBB1427:
 6162              	.LBB1404:
 6163              	.LBB1398:
 404:C:/Renesas/e2studio_2021_01_workspace_RZA2M_ANPR/ANPR_RZA2M_EBK/src/tensorflow_lite/tensorflow/lite/kernels/internal\types.h ****   const int* dims_data = reinterpret_cast<const int*>(shape.DimsDataUpTo5D());
 6164              		.loc 3 404 0
 6165 20a8 FEFFFFEB 		bl	abort
 6166              	.LVL659:
 6167              	.LEHE25:
 6168              	.L500:
 6169 20ac FAFFFFEA 		b	.L892
 6170              	.LVL660:
 6171              	.L936:
 6172              	.LEHB26:
 6173              	.LBE1398:
 6174              	.LBE1404:
 6175              	.LBE1427:
 6176              	.LBE1441:
 6177              	.LBE1454:
 6178              	.LBE1469:
 6179              	.LBE1485:
 6180              	.LBE1507:
 6181              	.LBE1975:
 6182              	.LBB1976:
 6183              	.LBB1929:
 6184              	.LBB1908:
 6185              	.LBB1892:
 6186              	.LBB1875:
 6187              	.LBB1860:
 6188              	.LBB1844:
 6189              	.LBB1831:
 215:C:/Renesas/e2studio_2021_01_workspace_RZA2M_ANPR/ANPR_RZA2M_EBK/src/tensorflow_lite/tensorflow/lite/kernels/internal\types.h ****     return size_ > kMaxSmallSize ? dims_pointer_[i] : dims_[i];
 6190              		.loc 3 215 0
 6191 20b0 FEFFFFEB 		bl	abort
 6192              	.LVL661:
 6193              	.LEHE26:
 6194              	.L336:
 6195              	.LBE1831:
 6196              	.LBE1844:
 6197              	.LBE1860:
 6198              	.LBE1875:
 6199              	.LBE1892:
 6200              	.LBE1908:
 6201              	.LBE1929:
 6202              	.LBE1976:
 6203              	.LBB1977:
 6204              	.LBB1508:
 6205              	.LBB1486:
 6206              	.LBB1487:
 203:C:/Renesas/e2studio_2021_01_workspace_RZA2M_ANPR/ANPR_RZA2M_EBK/src/tensorflow_lite/tensorflow/lite/kernels/internal\types.h **** #ifdef TF_LITE_STATIC_MEMORY
 6207              		.loc 3 203 0
 6208 20b4 050053E3 		cmp	r3, #5
 6209 20b8 040000DA 		ble	.L370
 207:C:/Renesas/e2studio_2021_01_workspace_RZA2M_ANPR/ANPR_RZA2M_EBK/src/tensorflow_lite/tensorflow/lite/kernels/internal\types.h **** #endif  // TF_LITE_STATIC_MEMORY
 6210              		.loc 3 207 0
 6211 20bc 0C309DE5 		ldr	r3, [sp, #12]
 6212 20c0 000053E3 		cmp	r3, #0
 6213 20c4 0100000A 		beq	.L370
 6214 20c8 0300A0E1 		mov	r0, r3
 6215 20cc FEFFFFEB 		bl	_ZdaPv
 6216              	.LVL662:
 6217              	.L370:
 6218              	.LBE1487:
 6219              	.LBE1486:
 6220              	.LBE1508:
 6221              	.LBE1977:
 6222              	.LBB1978:
 6223              	.LBB1979:
 203:C:/Renesas/e2studio_2021_01_workspace_RZA2M_ANPR/ANPR_RZA2M_EBK/src/tensorflow_lite/tensorflow/lite/kernels/internal\types.h **** #ifdef TF_LITE_STATIC_MEMORY
 6224              		.loc 3 203 0
 6225 20d0 C0309DE5 		ldr	r3, [sp, #192]
 6226 20d4 050053E3 		cmp	r3, #5
 6227 20d8 030000DA 		ble	.L372
 207:C:/Renesas/e2studio_2021_01_workspace_RZA2M_ANPR/ANPR_RZA2M_EBK/src/tensorflow_lite/tensorflow/lite/kernels/internal\types.h **** #endif  // TF_LITE_STATIC_MEMORY
 6228              		.loc 3 207 0
 6229 20dc C4009DE5 		ldr	r0, [sp, #196]
 6230 20e0 000050E3 		cmp	r0, #0
 6231 20e4 0000000A 		beq	.L372
 6232 20e8 FEFFFFEB 		bl	_ZdaPv
 6233              	.LVL663:
 6234              	.L372:
 6235              	.LBE1979:
 6236              	.LBE1978:
 6237              	.LBB1980:
 6238              	.LBB1981:
 203:C:/Renesas/e2studio_2021_01_workspace_RZA2M_ANPR/ANPR_RZA2M_EBK/src/tensorflow_lite/tensorflow/lite/kernels/internal\types.h **** #ifdef TF_LITE_STATIC_MEMORY
 6239              		.loc 3 203 0
 6240 20ec A8309DE5 		ldr	r3, [sp, #168]
 6241 20f0 050053E3 		cmp	r3, #5
 6242 20f4 030000DA 		ble	.L375
 207:C:/Renesas/e2studio_2021_01_workspace_RZA2M_ANPR/ANPR_RZA2M_EBK/src/tensorflow_lite/tensorflow/lite/kernels/internal\types.h **** #endif  // TF_LITE_STATIC_MEMORY
 6243              		.loc 3 207 0
 6244 20f8 AC009DE5 		ldr	r0, [sp, #172]
 6245 20fc 000050E3 		cmp	r0, #0
 6246 2100 0000000A 		beq	.L375
 6247 2104 FEFFFFEB 		bl	_ZdaPv
 6248              	.LVL664:
 6249              	.L375:
 6250              	.LBE1981:
 6251              	.LBE1980:
 6252              	.LBB1982:
 6253              	.LBB1983:
 203:C:/Renesas/e2studio_2021_01_workspace_RZA2M_ANPR/ANPR_RZA2M_EBK/src/tensorflow_lite/tensorflow/lite/kernels/internal\types.h **** #ifdef TF_LITE_STATIC_MEMORY
 6254              		.loc 3 203 0
 6255 2108 90309DE5 		ldr	r3, [sp, #144]
 6256 210c 050053E3 		cmp	r3, #5
 6257 2110 030000DA 		ble	.L376
 207:C:/Renesas/e2studio_2021_01_workspace_RZA2M_ANPR/ANPR_RZA2M_EBK/src/tensorflow_lite/tensorflow/lite/kernels/internal\types.h **** #endif  // TF_LITE_STATIC_MEMORY
 6258              		.loc 3 207 0
 6259 2114 94009DE5 		ldr	r0, [sp, #148]
 6260 2118 000050E3 		cmp	r0, #0
 6261 211c 0000000A 		beq	.L376
 6262 2120 FEFFFFEB 		bl	_ZdaPv
 6263              	.LVL665:
 6264              	.L376:
 6265              	.LBE1983:
 6266              	.LBE1982:
 144:../src/tensorflow_lite/tensorflow/lite/micro/kernels/prelu.cc ****     } break;
 6267              		.loc 1 144 0
 6268 2124 0000A0E3 		mov	r0, #0
 6269 2128 DDF7FFEA 		b	.L739
 6270              	.LVL666:
 6271              	.L319:
 6272              	.LBB1984:
 6273              	.LBB1509:
 6274              	.LBB1488:
 6275              	.LBB1283:
 6276              	.LBB1268:
 6277              	.LBB1251:
 841:C:/Renesas/e2studio_2021_01_workspace_RZA2M_ANPR/ANPR_RZA2M_EBK/src/tensorflow_lite/tensorflow/lite/kernels/internal\common.h ****         desc0_out->extents[i] = extent1;
 6278              		.loc 4 841 0
 6279 212c 0020A0E3 		mov	r2, #0
 842:C:/Renesas/e2studio_2021_01_workspace_RZA2M_ANPR/ANPR_RZA2M_EBK/src/tensorflow_lite/tensorflow/lite/kernels/internal\common.h ****       } else {
 6280              		.loc 4 842 0
 6281 2130 20C18DE5 		str	ip, [sp, #288]
 841:C:/Renesas/e2studio_2021_01_workspace_RZA2M_ANPR/ANPR_RZA2M_EBK/src/tensorflow_lite/tensorflow/lite/kernels/internal\common.h ****         desc0_out->extents[i] = extent1;
 6282              		.loc 4 841 0
 6283 2134 30218DE5 		str	r2, [sp, #304]
 6284 2138 23FFFFEA 		b	.L318
 6285              	.LVL667:
 6286              	.L321:
 6287 213c 0010A0E3 		mov	r1, #0
 842:C:/Renesas/e2studio_2021_01_workspace_RZA2M_ANPR/ANPR_RZA2M_EBK/src/tensorflow_lite/tensorflow/lite/kernels/internal\common.h ****       } else {
 6288              		.loc 4 842 0
 6289 2140 24218DE5 		str	r2, [sp, #292]
 841:C:/Renesas/e2studio_2021_01_workspace_RZA2M_ANPR/ANPR_RZA2M_EBK/src/tensorflow_lite/tensorflow/lite/kernels/internal\common.h ****         desc0_out->extents[i] = extent1;
 6290              		.loc 4 841 0
 6291 2144 34118DE5 		str	r1, [sp, #308]
 6292 2148 2AFFFFEA 		b	.L320
 6293              	.LVL668:
 6294              	.L323:
 6295 214c 0010A0E3 		mov	r1, #0
 842:C:/Renesas/e2studio_2021_01_workspace_RZA2M_ANPR/ANPR_RZA2M_EBK/src/tensorflow_lite/tensorflow/lite/kernels/internal\common.h ****       } else {
 6296              		.loc 4 842 0
 6297 2150 28218DE5 		str	r2, [sp, #296]
 841:C:/Renesas/e2studio_2021_01_workspace_RZA2M_ANPR/ANPR_RZA2M_EBK/src/tensorflow_lite/tensorflow/lite/kernels/internal\common.h ****         desc0_out->extents[i] = extent1;
 6298              		.loc 4 841 0
 6299 2154 38118DE5 		str	r1, [sp, #312]
 6300 2158 31FFFFEA 		b	.L322
 6301              	.LVL669:
 6302              	.L958:
 6303              	.LBE1251:
 6304              	.LBE1268:
 6305              	.LBE1283:
 6306              	.LBE1488:
 6307              	.LBB1489:
 6308              	.LBB1470:
 6309              	.LBB1455:
 6310              	.LBB1442:
 6311              	.LBB1428:
 6312              	.LBB1405:
 6313              	.LBB1377:
 6314              	.LBB1372:
 6315              	.LBB1369:
 6316              	.LBB1366:
 359:C:/Renesas/e2studio_2021_01_workspace_RZA2M_ANPR/ANPR_RZA2M_EBK/src/tensorflow_lite/third_party/gemmlowp/fixedpoint\fixedpoint.h ****   const IntegerType mask = Dup<IntegerType>((1ll << exponent) - 1);
 6317              		.loc 6 359 0
 6318 215c 003000E3 		movw	r3, #:lower16:.LC6
 6319              	.LVL670:
 6320 2160 002000E3 		movw	r2, #:lower16:.LANCHOR0
 6321              	.LVL671:
 6322 2164 000000E3 		movw	r0, #:lower16:.LC7
 6323 2168 003040E3 		movt	r3, #:upper16:.LC6
 6324 216c 002040E3 		movt	r2, #:upper16:.LANCHOR0
 6325 2170 000040E3 		movt	r0, #:upper16:.LC7
 6326 2174 671100E3 		movw	r1, #359
 6327              	.LEHB27:
 6328 2178 FEFFFFEB 		bl	__assert_func
 6329              	.LVL672:
 6330              	.LEHE27:
 6331              	.L938:
 6332              	.LBE1366:
 6333              	.LBE1369:
 6334              	.LBE1372:
 6335              	.LBE1377:
 6336              	.LBE1405:
 6337              	.LBE1428:
 6338              	.LBE1442:
 6339              	.LBE1455:
 6340              	.LBE1470:
 6341              	.LBE1489:
 6342              	.LBE1509:
 6343              	.LBE1984:
 6344              	.LBB1985:
 6345              	.LBB1930:
 6346              	.LBB1909:
 6347              	.LBB1893:
 6348              	.LBB1876:
 6349              	.LBB1861:
 6350              	.LBB1845:
 6351              	.LBB1821:
 6352              	.LBB1792:
 6353              	.LBB1787:
 6354              	.LBB1784:
 6355              	.LBB1781:
 6356 217c 003000E3 		movw	r3, #:lower16:.LC6
 6357              	.LVL673:
 6358 2180 002000E3 		movw	r2, #:lower16:.LANCHOR0
 6359              	.LVL674:
 6360 2184 000000E3 		movw	r0, #:lower16:.LC7
 6361 2188 003040E3 		movt	r3, #:upper16:.LC6
 6362 218c 002040E3 		movt	r2, #:upper16:.LANCHOR0
 6363 2190 000040E3 		movt	r0, #:upper16:.LC7
 6364 2194 671100E3 		movw	r1, #359
 6365              	.LEHB28:
 6366 2198 FEFFFFEB 		bl	__assert_func
 6367              	.LVL675:
 6368              	.LEHE28:
 6369              	.L206:
 6370              	.LBE1781:
 6371              	.LBE1784:
 6372              	.LBE1787:
 6373              	.LBE1792:
 6374              	.LBE1821:
 6375              	.LBE1845:
 6376              	.LBE1861:
 6377              	.LBE1876:
 6378              	.LBE1893:
 6379              	.LBE1909:
 6380              	.LBB1910:
 6381              	.LBB1697:
 6382              	.LBB1685:
 6383              	.LBB1669:
 841:C:/Renesas/e2studio_2021_01_workspace_RZA2M_ANPR/ANPR_RZA2M_EBK/src/tensorflow_lite/tensorflow/lite/kernels/internal\common.h ****         desc0_out->extents[i] = extent1;
 6384              		.loc 4 841 0
 6385 219c 0010A0E3 		mov	r1, #0
 842:C:/Renesas/e2studio_2021_01_workspace_RZA2M_ANPR/ANPR_RZA2M_EBK/src/tensorflow_lite/tensorflow/lite/kernels/internal\common.h ****       } else {
 6386              		.loc 4 842 0
 6387 21a0 24218DE5 		str	r2, [sp, #292]
 841:C:/Renesas/e2studio_2021_01_workspace_RZA2M_ANPR/ANPR_RZA2M_EBK/src/tensorflow_lite/tensorflow/lite/kernels/internal\common.h ****         desc0_out->extents[i] = extent1;
 6388              		.loc 4 841 0
 6389 21a4 34118DE5 		str	r1, [sp, #308]
 6390 21a8 37FFFFEA 		b	.L205
 6391              	.LVL676:
 6392              	.L208:
 6393 21ac 0010A0E3 		mov	r1, #0
 842:C:/Renesas/e2studio_2021_01_workspace_RZA2M_ANPR/ANPR_RZA2M_EBK/src/tensorflow_lite/tensorflow/lite/kernels/internal\common.h ****       } else {
 6394              		.loc 4 842 0
 6395 21b0 28218DE5 		str	r2, [sp, #296]
 841:C:/Renesas/e2studio_2021_01_workspace_RZA2M_ANPR/ANPR_RZA2M_EBK/src/tensorflow_lite/tensorflow/lite/kernels/internal\common.h ****         desc0_out->extents[i] = extent1;
 6396              		.loc 4 841 0
 6397 21b4 38118DE5 		str	r1, [sp, #312]
 6398 21b8 3EFFFFEA 		b	.L207
 6399              	.LVL677:
 6400              	.L204:
 6401 21bc 0020A0E3 		mov	r2, #0
 842:C:/Renesas/e2studio_2021_01_workspace_RZA2M_ANPR/ANPR_RZA2M_EBK/src/tensorflow_lite/tensorflow/lite/kernels/internal\common.h ****       } else {
 6402              		.loc 4 842 0
 6403 21c0 20C18DE5 		str	ip, [sp, #288]
 841:C:/Renesas/e2studio_2021_01_workspace_RZA2M_ANPR/ANPR_RZA2M_EBK/src/tensorflow_lite/tensorflow/lite/kernels/internal\common.h ****         desc0_out->extents[i] = extent1;
 6404              		.loc 4 841 0
 6405 21c4 30218DE5 		str	r2, [sp, #304]
 6406 21c8 24FFFFEA 		b	.L203
 6407              	.LVL678:
 6408              	.L85:
 6409              	.LBE1669:
 6410              	.LBE1685:
 6411              	.LBE1697:
 6412              	.LBE1910:
 6413              	.LBE1930:
 6414              	.LBE1985:
 6415              	.LBB1986:
 6416              	.LBB1090:
 6417              	.LBB1070:
 6418              	.LBB951:
 6419              	.LBB936:
 6420              	.LBB919:
 6421 21cc 0020A0E3 		mov	r2, #0
 842:C:/Renesas/e2studio_2021_01_workspace_RZA2M_ANPR/ANPR_RZA2M_EBK/src/tensorflow_lite/tensorflow/lite/kernels/internal\common.h ****       } else {
 6422              		.loc 4 842 0
 6423 21d0 20C18DE5 		str	ip, [sp, #288]
 841:C:/Renesas/e2studio_2021_01_workspace_RZA2M_ANPR/ANPR_RZA2M_EBK/src/tensorflow_lite/tensorflow/lite/kernels/internal\common.h ****         desc0_out->extents[i] = extent1;
 6424              		.loc 4 841 0
 6425 21d4 30218DE5 		str	r2, [sp, #304]
 6426 21d8 45FFFFEA 		b	.L84
 6427              	.LVL679:
 6428              	.L87:
 6429 21dc 0010A0E3 		mov	r1, #0
 842:C:/Renesas/e2studio_2021_01_workspace_RZA2M_ANPR/ANPR_RZA2M_EBK/src/tensorflow_lite/tensorflow/lite/kernels/internal\common.h ****       } else {
 6430              		.loc 4 842 0
 6431 21e0 24218DE5 		str	r2, [sp, #292]
 841:C:/Renesas/e2studio_2021_01_workspace_RZA2M_ANPR/ANPR_RZA2M_EBK/src/tensorflow_lite/tensorflow/lite/kernels/internal\common.h ****         desc0_out->extents[i] = extent1;
 6432              		.loc 4 841 0
 6433 21e4 34118DE5 		str	r1, [sp, #308]
 6434 21e8 4CFFFFEA 		b	.L86
 6435              	.LVL680:
 6436              	.L89:
 6437 21ec 0010A0E3 		mov	r1, #0
 842:C:/Renesas/e2studio_2021_01_workspace_RZA2M_ANPR/ANPR_RZA2M_EBK/src/tensorflow_lite/tensorflow/lite/kernels/internal\common.h ****       } else {
 6438              		.loc 4 842 0
 6439 21f0 28218DE5 		str	r2, [sp, #296]
 841:C:/Renesas/e2studio_2021_01_workspace_RZA2M_ANPR/ANPR_RZA2M_EBK/src/tensorflow_lite/tensorflow/lite/kernels/internal\common.h ****         desc0_out->extents[i] = extent1;
 6440              		.loc 4 841 0
 6441 21f4 38118DE5 		str	r1, [sp, #312]
 6442 21f8 53FFFFEA 		b	.L88
 6443              	.LVL681:
 6444              	.L109:
 6445              	.LEHB29:
 6446              	.LBE919:
 6447              	.LBE936:
 6448              	.LBE951:
 6449              	.LBE1070:
 6450              	.LBB1071:
 6451              	.LBB1055:
 6452              	.LBB1044:
 6453              	.LBB1031:
 6454              	.LBB1017:
 6455              	.LBB1009:
 215:C:/Renesas/e2studio_2021_01_workspace_RZA2M_ANPR/ANPR_RZA2M_EBK/src/tensorflow_lite/tensorflow/lite/kernels/internal\types.h ****     return size_ > kMaxSmallSize ? dims_pointer_[i] : dims_[i];
 6456              		.loc 3 215 0
 6457 21fc FEFFFFEB 		bl	abort
 6458              	.LVL682:
 6459              	.LEHE29:
 6460              	.L950:
 6461              	.LEHB30:
 6462              	.LBE1009:
 6463              	.LBE1017:
 6464              	.LBE1031:
 6465              	.LBE1044:
 6466              	.LBE1055:
 6467              	.LBE1071:
 6468              	.LBE1090:
 6469              	.LBE1986:
 6470              	.LBB1987:
 6471              	.LBB1931:
 6472              	.LBB1911:
 6473              	.LBB1894:
 6474              	.LBB1877:
 6475              	.LBB1862:
 6476              	.LBB1846:
 6477              	.LBB1822:
 6478              	.LBB1793:
 6479              	.LBB1758:
 6480              	.LBB1725:
 730:C:/Renesas/e2studio_2021_01_workspace_RZA2M_ANPR/ANPR_RZA2M_EBK/src/tensorflow_lite/tensorflow/lite/kernels/internal\common.h ****   TFLITE_DCHECK(i2 >= 0 && i2 < desc.extents[2]);
 6481              		.loc 4 730 0
 6482 2200 FEFFFFEB 		bl	abort
 6483              	.LVL683:
 6484              	.L949:
 729:C:/Renesas/e2studio_2021_01_workspace_RZA2M_ANPR/ANPR_RZA2M_EBK/src/tensorflow_lite/tensorflow/lite/kernels/internal\common.h ****   TFLITE_DCHECK(i1 >= 0 && i1 < desc.extents[1]);
 6485              		.loc 4 729 0
 6486 2204 FEFFFFEB 		bl	abort
 6487              	.LVL684:
 6488              	.LEHE30:
 6489              	.L105:
 6490 2208 50309DE5 		ldr	r3, [sp, #80]
 6491              	.LBE1725:
 6492              	.LBE1758:
 6493              	.LBE1793:
 6494              	.LBE1822:
 6495              	.LBE1846:
 6496              	.LBE1862:
 6497              	.LBE1877:
 6498              	.LBE1894:
 6499              	.LBE1911:
 6500              	.LBE1931:
 6501              	.LBE1987:
 6502              	.LBB1988:
 6503              	.LBB1091:
 6504              	.LBB1072:
  72:../src/tensorflow_lite/tensorflow/lite/micro/kernels/prelu.cc ****     for (int y = 0; y < output_shape.Dims(1); ++y) {
 6505              		.loc 1 72 0
 6506 220c 01C08CE2 		add	ip, ip, #1
 6507              	.LVL685:
 6508 2210 64209DE5 		ldr	r2, [sp, #100]
 6509 2214 023083E0 		add	r3, r3, r2
 6510 2218 60209DE5 		ldr	r2, [sp, #96]
 6511 221c 50308DE5 		str	r3, [sp, #80]
 6512 2220 54309DE5 		ldr	r3, [sp, #84]
 6513 2224 023083E0 		add	r3, r3, r2
 6514 2228 5C209DE5 		ldr	r2, [sp, #92]
 6515 222c 54308DE5 		str	r3, [sp, #84]
 6516 2230 58309DE5 		ldr	r3, [sp, #88]
 6517 2234 023083E0 		add	r3, r3, r2
 6518 2238 58308DE5 		str	r3, [sp, #88]
 6519 223c 90FDFFEA 		b	.L96
 6520              	.LVL686:
 6521              	.L102:
 6522              	.LBE1072:
 6523              	.LBB1073:
 6524              	.LBB1074:
 203:C:/Renesas/e2studio_2021_01_workspace_RZA2M_ANPR/ANPR_RZA2M_EBK/src/tensorflow_lite/tensorflow/lite/kernels/internal\types.h **** #ifdef TF_LITE_STATIC_MEMORY
 6525              		.loc 3 203 0
 6526 2240 050055E3 		cmp	r5, #5
 6527 2244 A1FFFFDA 		ble	.L370
 207:C:/Renesas/e2studio_2021_01_workspace_RZA2M_ANPR/ANPR_RZA2M_EBK/src/tensorflow_lite/tensorflow/lite/kernels/internal\types.h **** #endif  // TF_LITE_STATIC_MEMORY
 6528              		.loc 3 207 0
 6529 2248 000059E3 		cmp	r9, #0
 6530 224c 9FFFFF0A 		beq	.L370
 6531 2250 0900A0E1 		mov	r0, r9
 6532 2254 FEFFFFEB 		bl	_ZdaPv
 6533              	.LVL687:
 6534 2258 9CFFFFEA 		b	.L370
 6535              	.LVL688:
 6536              	.L972:
 6537              	.LEHB31:
 6538              	.LBE1074:
 6539              	.LBE1073:
 6540              	.LBE1091:
 6541              	.LBE1988:
 6542              	.LBB1989:
 6543              	.LBB1510:
 6544              	.LBB1490:
 6545              	.LBB1471:
 6546              	.LBB1456:
 6547              	.LBB1443:
 6548              	.LBB1429:
 6549              	.LBB1406:
 6550              	.LBB1378:
 6551              	.LBB1344:
 6552              	.LBB1312:
 732:C:/Renesas/e2studio_2021_01_workspace_RZA2M_ANPR/ANPR_RZA2M_EBK/src/tensorflow_lite/tensorflow/lite/kernels/internal\common.h ****   return i0 * desc.strides[0] + i1 * desc.strides[1] + i2 * desc.strides[2] +
 6553              		.loc 4 732 0
 6554 225c FEFFFFEB 		bl	abort
 6555              	.LVL689:
 6556              	.L971:
 731:C:/Renesas/e2studio_2021_01_workspace_RZA2M_ANPR/ANPR_RZA2M_EBK/src/tensorflow_lite/tensorflow/lite/kernels/internal\common.h ****   TFLITE_DCHECK(i3 >= 0 && i3 < desc.extents[3]);
 6557              		.loc 4 731 0
 6558 2260 FEFFFFEB 		bl	abort
 6559              	.LVL690:
 6560              	.L970:
 730:C:/Renesas/e2studio_2021_01_workspace_RZA2M_ANPR/ANPR_RZA2M_EBK/src/tensorflow_lite/tensorflow/lite/kernels/internal\common.h ****   TFLITE_DCHECK(i2 >= 0 && i2 < desc.extents[2]);
 6561              		.loc 4 730 0
 6562 2264 FEFFFFEB 		bl	abort
 6563              	.LVL691:
 6564              	.L969:
 729:C:/Renesas/e2studio_2021_01_workspace_RZA2M_ANPR/ANPR_RZA2M_EBK/src/tensorflow_lite/tensorflow/lite/kernels/internal\common.h ****   TFLITE_DCHECK(i1 >= 0 && i1 < desc.extents[1]);
 6565              		.loc 4 729 0
 6566 2268 FEFFFFEB 		bl	abort
 6567              	.LVL692:
 6568              	.LEHE31:
 6569              	.L340:
 6570 226c 74309DE5 		ldr	r3, [sp, #116]
 6571              	.LBE1312:
 6572              	.LBE1344:
 6573              	.LBE1378:
 6574              	.LBE1406:
 6575              	.LBE1429:
 6576              	.LBE1443:
 6577              	.LBE1456:
 6578              	.LBE1471:
  41:C:/Renesas/e2studio_2021_01_workspace_RZA2M_ANPR/ANPR_RZA2M_EBK/src/tensorflow_lite/tensorflow/lite/kernels/internal/reference\prelu.h ****     for (int y = 0; y < extended_output_shape.Dims(1); ++y) {
 6579              		.loc 5 41 0
 6580 2270 01B08BE2 		add	fp, fp, #1
 6581              	.LVL693:
 6582 2274 88209DE5 		ldr	r2, [sp, #136]
 6583 2278 023083E0 		add	r3, r3, r2
 6584 227c 78209DE5 		ldr	r2, [sp, #120]
 6585 2280 74308DE5 		str	r3, [sp, #116]
 6586 2284 6C309DE5 		ldr	r3, [sp, #108]
 6587 2288 023083E0 		add	r3, r3, r2
 6588 228c 8C209DE5 		ldr	r2, [sp, #140]
 6589 2290 6C308DE5 		str	r3, [sp, #108]
 6590 2294 70309DE5 		ldr	r3, [sp, #112]
 6591 2298 023083E0 		add	r3, r3, r2
 6592 229c 70308DE5 		str	r3, [sp, #112]
 6593 22a0 F7FBFFEA 		b	.L330
 6594              	.LVL694:
 6595              	.L225:
 6596 22a4 6C309DE5 		ldr	r3, [sp, #108]
 6597              	.LBE1490:
 6598              	.LBE1510:
 6599              	.LBE1989:
 6600              	.LBB1990:
 6601              	.LBB1932:
 6602              	.LBB1912:
 6603 22a8 01B08BE2 		add	fp, fp, #1
 6604              	.LVL695:
 6605 22ac 78209DE5 		ldr	r2, [sp, #120]
 6606 22b0 023083E0 		add	r3, r3, r2
 6607 22b4 88209DE5 		ldr	r2, [sp, #136]
 6608 22b8 6C308DE5 		str	r3, [sp, #108]
 6609 22bc 74309DE5 		ldr	r3, [sp, #116]
 6610 22c0 023083E0 		add	r3, r3, r2
 6611 22c4 84209DE5 		ldr	r2, [sp, #132]
 6612 22c8 74308DE5 		str	r3, [sp, #116]
 6613 22cc 70309DE5 		ldr	r3, [sp, #112]
 6614 22d0 023083E0 		add	r3, r3, r2
 6615 22d4 70308DE5 		str	r3, [sp, #112]
 6616 22d8 63FAFFEA 		b	.L215
 6617              	.LVL696:
 6618              	.L952:
 6619              	.LEHB32:
 6620              	.LBB1895:
 6621              	.LBB1878:
 6622              	.LBB1863:
 6623              	.LBB1847:
 6624              	.LBB1823:
 6625              	.LBB1794:
 6626              	.LBB1759:
 6627              	.LBB1726:
 732:C:/Renesas/e2studio_2021_01_workspace_RZA2M_ANPR/ANPR_RZA2M_EBK/src/tensorflow_lite/tensorflow/lite/kernels/internal\common.h ****   return i0 * desc.strides[0] + i1 * desc.strides[1] + i2 * desc.strides[2] +
 6628              		.loc 4 732 0
 6629 22dc FEFFFFEB 		bl	abort
 6630              	.LVL697:
 6631              	.L951:
 731:C:/Renesas/e2studio_2021_01_workspace_RZA2M_ANPR/ANPR_RZA2M_EBK/src/tensorflow_lite/tensorflow/lite/kernels/internal\common.h ****   TFLITE_DCHECK(i3 >= 0 && i3 < desc.extents[3]);
 6632              		.loc 4 731 0
 6633 22e0 FEFFFFEB 		bl	abort
 6634              	.LVL698:
 6635              	.LEHE32:
 6636              	.L974:
 6637              	.LBE1726:
 6638              	.LBE1759:
 6639              	.LBE1794:
 6640              	.LBE1823:
 6641              	.LBE1847:
 6642              	.LBE1863:
 6643              	.LBE1878:
 6644              	.LBE1895:
 6645              	.LBE1912:
 6646              	.LBE1932:
 6647              	.LBE1990:
 6648              	.LBB1991:
 6649              	.LBB1511:
 6650              	.LBB1491:
 6651              	.LBB1472:
 6652              	.LBB1457:
 6653              	.LBB1444:
 6654              	.LBB1430:
 6655              	.LBB1407:
 6656              	.LBB1379:
 6657              	.LBB1345:
 6658              	.LBB1338:
 6659              	.LBB1334:
 6660              	.LBB1328:
 359:C:/Renesas/e2studio_2021_01_workspace_RZA2M_ANPR/ANPR_RZA2M_EBK/src/tensorflow_lite/third_party/gemmlowp/fixedpoint\fixedpoint.h ****   const IntegerType mask = Dup<IntegerType>((1ll << exponent) - 1);
 6661              		.loc 6 359 0
 6662 22e4 003000E3 		movw	r3, #:lower16:.LC6
 6663 22e8 002000E3 		movw	r2, #:lower16:.LANCHOR0
 6664              	.LVL699:
 6665 22ec 000000E3 		movw	r0, #:lower16:.LC7
 6666 22f0 003040E3 		movt	r3, #:upper16:.LC6
 6667 22f4 002040E3 		movt	r2, #:upper16:.LANCHOR0
 6668 22f8 000040E3 		movt	r0, #:upper16:.LC7
 6669 22fc 671100E3 		movw	r1, #359
 6670              	.LVL700:
 6671              	.LEHB33:
 6672 2300 FEFFFFEB 		bl	__assert_func
 6673              	.LVL701:
 6674              	.LEHE33:
 6675              	.L954:
 6676              	.LBE1328:
 6677              	.LBE1334:
 6678              	.LBE1338:
 6679              	.LBE1345:
 6680              	.LBE1379:
 6681              	.LBE1407:
 6682              	.LBE1430:
 6683              	.LBE1444:
 6684              	.LBE1457:
 6685              	.LBE1472:
 6686              	.LBE1491:
 6687              	.LBE1511:
 6688              	.LBE1991:
 6689              	.LBB1992:
 6690              	.LBB1933:
 6691              	.LBB1913:
 6692              	.LBB1896:
 6693              	.LBB1879:
 6694              	.LBB1864:
 6695              	.LBB1848:
 6696              	.LBB1824:
 6697              	.LBB1795:
 6698              	.LBB1760:
 6699              	.LBB1752:
 6700              	.LBB1748:
 6701              	.LBB1742:
 6702 2304 003000E3 		movw	r3, #:lower16:.LC6
 6703 2308 002000E3 		movw	r2, #:lower16:.LANCHOR0
 6704              	.LVL702:
 6705 230c 000000E3 		movw	r0, #:lower16:.LC7
 6706 2310 003040E3 		movt	r3, #:upper16:.LC6
 6707 2314 002040E3 		movt	r2, #:upper16:.LANCHOR0
 6708 2318 000040E3 		movt	r0, #:upper16:.LC7
 6709 231c 671100E3 		movw	r1, #359
 6710              	.LVL703:
 6711              	.LEHB34:
 6712 2320 FEFFFFEB 		bl	__assert_func
 6713              	.LVL704:
 6714              	.L222:
 6715              	.LBE1742:
 6716              	.LBE1748:
 6717              	.LBE1752:
 6718              	.LBE1760:
 6719              	.LBE1795:
 6720              	.LBE1824:
 6721              	.LBE1848:
 6722              	.LBE1864:
 6723              	.LBE1879:
 6724              	.LBB1880:
 6725              	.LBB1715:
 215:C:/Renesas/e2studio_2021_01_workspace_RZA2M_ANPR/ANPR_RZA2M_EBK/src/tensorflow_lite/tensorflow/lite/kernels/internal\types.h ****     return size_ > kMaxSmallSize ? dims_pointer_[i] : dims_[i];
 6726              		.loc 3 215 0
 6727 2324 FEFFFFEB 		bl	abort
 6728              	.LVL705:
 6729              	.LEHE34:
 6730              	.L978:
 6731 2328 0E0053E1 		cmp	r3, lr
 6732 232c 2C309DE5 		ldr	r3, [sp, #44]
 6733 2330 5E0000DA 		ble	.L880
 6734 2334 0C0053E1 		cmp	r3, ip
 6735 2338 450000DA 		ble	.L871
 6736              	.LVL706:
 6737              	.LBE1715:
 6738              	.LBE1880:
 6739              	.LBE1896:
 6740              	.LBE1913:
 6741              	.LBE1933:
 6742              	.LBE1992:
 6743              	.LBB1993:
 6744              	.LBB1092:
 6745              	.LBB1075:
 6746              	.LBB1056:
 6747              	.LBB1045:
 6748              	.LBB1032:
  75:../src/tensorflow_lite/tensorflow/lite/micro/kernels/prelu.cc ****           auto out_idx = Offset(output_shape, b, y, x, c);
 6749              		.loc 1 75 0
 6750 233c 00005BE3 		cmp	fp, #0
 6751 2340 A8FDFFDA 		ble	.L114
 6752              	.LBB1018:
 6753              	.LBB997:
 6754              	.LBB988:
 404:C:/Renesas/e2studio_2021_01_workspace_RZA2M_ANPR/ANPR_RZA2M_EBK/src/tensorflow_lite/tensorflow/lite/kernels/internal\types.h ****   const int* dims_data = reinterpret_cast<const int*>(shape.DimsDataUpTo5D());
 6755              		.loc 3 404 0
 6756 2344 040055E3 		cmp	r5, #4
 6757 2348 0A30A0E1 		mov	r3, r10
 6758 234c 06A0A0E1 		mov	r10, r6
 6759              	.LVL707:
 6760 2350 B5FDFF1A 		bne	.L115
 406:C:/Renesas/e2studio_2021_01_workspace_RZA2M_ANPR/ANPR_RZA2M_EBK/src/tensorflow_lite/tensorflow/lite/kernels/internal\types.h ****   TFLITE_DCHECK(i1 >= 0 && i1 < dims_data[1]);
 6761              		.loc 3 406 0
 6762 2354 0C0059E1 		cmp	r9, ip
 6763 2358 23FFFFDA 		ble	.L116
 407:C:/Renesas/e2studio_2021_01_workspace_RZA2M_ANPR/ANPR_RZA2M_EBK/src/tensorflow_lite/tensorflow/lite/kernels/internal\types.h ****   TFLITE_DCHECK(i2 >= 0 && i2 < dims_data[2]);
 6764              		.loc 3 407 0
 6765 235c 0E005AE1 		cmp	r10, lr
 6766 2360 20FFFFDA 		ble	.L117
 408:C:/Renesas/e2studio_2021_01_workspace_RZA2M_ANPR/ANPR_RZA2M_EBK/src/tensorflow_lite/tensorflow/lite/kernels/internal\types.h ****   TFLITE_DCHECK(i3 >= 0 && i3 < dims_data[3]);
 6767              		.loc 3 408 0
 6768 2364 000058E1 		cmp	r8, r0
 6769 2368 1DFFFFDA 		ble	.L118
 6770              	.LVL708:
 6771              	.LBE988:
 6772              	.LBE997:
 6773              	.LBB998:
 6774              	.LBB979:
 729:C:/Renesas/e2studio_2021_01_workspace_RZA2M_ANPR/ANPR_RZA2M_EBK/src/tensorflow_lite/tensorflow/lite/kernels/internal\common.h ****   TFLITE_DCHECK(i1 >= 0 && i1 < desc.extents[1]);
 6775              		.loc 4 729 0
 6776 236c 0C0057E1 		cmp	r7, ip
 6777 2370 1AFFFFDA 		ble	.L119
 730:C:/Renesas/e2studio_2021_01_workspace_RZA2M_ANPR/ANPR_RZA2M_EBK/src/tensorflow_lite/tensorflow/lite/kernels/internal\common.h ****   TFLITE_DCHECK(i2 >= 0 && i2 < desc.extents[2]);
 6778              		.loc 4 730 0
 6779 2374 0E0053E1 		cmp	r3, lr
 6780 2378 17FFFFDA 		ble	.L120
 731:C:/Renesas/e2studio_2021_01_workspace_RZA2M_ANPR/ANPR_RZA2M_EBK/src/tensorflow_lite/tensorflow/lite/kernels/internal\common.h ****   TFLITE_DCHECK(i3 >= 0 && i3 < desc.extents[3]);
 6781              		.loc 4 731 0
 6782 237c 08309DE5 		ldr	r3, [sp, #8]
 6783 2380 000053E1 		cmp	r3, r0
 6784 2384 13FFFFDA 		ble	.L121
 732:C:/Renesas/e2studio_2021_01_workspace_RZA2M_ANPR/ANPR_RZA2M_EBK/src/tensorflow_lite/tensorflow/lite/kernels/internal\common.h ****   return i0 * desc.strides[0] + i1 * desc.strides[1] + i2 * desc.strides[2] +
 6785              		.loc 4 732 0
 6786 2388 0C309DE5 		ldr	r3, [sp, #12]
 6787 238c 000053E3 		cmp	r3, #0
 6788 2390 0FFFFFDA 		ble	.L123
 6789              	.LEHB35:
 6790              	.LBE979:
 6791              	.LBE998:
 6792              	.LBB999:
 6793              	.LBB971:
 731:C:/Renesas/e2studio_2021_01_workspace_RZA2M_ANPR/ANPR_RZA2M_EBK/src/tensorflow_lite/tensorflow/lite/kernels/internal\common.h ****   TFLITE_DCHECK(i3 >= 0 && i3 < desc.extents[3]);
 6794              		.loc 4 731 0
 6795 2394 FEFFFFEB 		bl	abort
 6796              	.LVL709:
 6797              	.LEHE35:
 6798              	.L976:
 6799              	.LEHB36:
 6800              	.LBE971:
 6801              	.LBE999:
 6802              	.LBE1018:
 6803              	.LBE1032:
 6804              	.LBE1045:
 6805              	.LBB1046:
 6806              	.LBB1038:
 215:C:/Renesas/e2studio_2021_01_workspace_RZA2M_ANPR/ANPR_RZA2M_EBK/src/tensorflow_lite/tensorflow/lite/kernels/internal\types.h ****     return size_ > kMaxSmallSize ? dims_pointer_[i] : dims_[i];
 6807              		.loc 3 215 0
 6808 2398 FEFFFFEB 		bl	abort
 6809              	.LVL710:
 6810              	.LEHE36:
 6811              	.L214:
 6812              	.LEHB37:
 6813              	.LBE1038:
 6814              	.LBE1046:
 6815              	.LBE1056:
 6816              	.LBE1075:
 6817              	.LBE1092:
 6818              	.LBE1993:
 6819              	.LBB1994:
 6820              	.LBB1934:
 6821              	.LBB1914:
 6822              	.LBB1897:
 6823              	.LBB1708:
 6824 239c FEFFFFEB 		bl	abort
 6825              	.LVL711:
 6826              	.LEHE37:
 6827              	.L178:
 6828              	.LEHB38:
 6829              	.LBE1708:
 6830              	.LBE1897:
 6831              	.LBE1914:
 6832              	.LBB1915:
 6833              	.LBB1698:
 6834              	.LBB1686:
 6835              	.LBB1670:
 844:C:/Renesas/e2studio_2021_01_workspace_RZA2M_ANPR/ANPR_RZA2M_EBK/src/tensorflow_lite/tensorflow/lite/kernels/internal\common.h ****         desc1_out->strides[i] = 0;
 6836              		.loc 4 844 0
 6837 23a0 FEFFFFEB 		bl	abort
 6838              	.LVL712:
 6839              	.LEHE38:
 6840              	.L918:
 6841              	.LEHB39:
 6842              	.LBE1670:
 6843              	.LBE1686:
 6844              	.LBE1698:
 6845              	.LBE1915:
 6846              	.LBE1934:
 6847              	.LBE1994:
 6848              	.LBB1995:
 6849              	.LBB1093:
  61:../src/tensorflow_lite/tensorflow/lite/micro/kernels/prelu.cc ****   TFLITE_DCHECK_LE(unextended_input2_shape.DimensionsCount(), 4);
 6850              		.loc 1 61 0
 6851 23a4 FEFFFFEB 		bl	abort
 6852              	.LVL713:
 6853              	.L919:
  62:../src/tensorflow_lite/tensorflow/lite/micro/kernels/prelu.cc ****   TFLITE_DCHECK_LE(unextended_output_shape.DimensionsCount(), 4);
 6854              		.loc 1 62 0
 6855 23a8 FEFFFFEB 		bl	abort
 6856              	.LVL714:
 6857              	.LEHE39:
 6858              	.L488:
 6859              	.L332:
 6860              	.LBE1093:
 6861              	.LBE1995:
 6862              	.LBB1996:
 6863              	.LBB1512:
 6864              	.LBB1492:
 6865              	.LBB1284:
 6866              	.LBB1269:
 6867              	.LBB1270:
 203:C:/Renesas/e2studio_2021_01_workspace_RZA2M_ANPR/ANPR_RZA2M_EBK/src/tensorflow_lite/tensorflow/lite/kernels/internal\types.h **** #ifdef TF_LITE_STATIC_MEMORY
 6868              		.loc 3 203 0
 6869 23ac 050058E3 		cmp	r8, #5
 6870 23b0 4EFEFFDA 		ble	.L280
 207:C:/Renesas/e2studio_2021_01_workspace_RZA2M_ANPR/ANPR_RZA2M_EBK/src/tensorflow_lite/tensorflow/lite/kernels/internal\types.h **** #endif  // TF_LITE_STATIC_MEMORY
 6871              		.loc 3 207 0
 6872 23b4 0C019DE5 		ldr	r0, [sp, #268]
 6873 23b8 000050E3 		cmp	r0, #0
 6874 23bc 4BFEFF0A 		beq	.L280
 6875 23c0 FEFFFFEB 		bl	_ZdaPv
 6876              	.LVL715:
 6877 23c4 49FEFFEA 		b	.L280
 6878              	.LVL716:
 6879              	.L290:
 6880              	.LEHB40:
 6881              	.LBE1270:
 6882              	.LBE1269:
 6883              	.LBB1271:
 6884              	.LBB1252:
 6885              	.LBB1244:
 6886              	.LBB1216:
 215:C:/Renesas/e2studio_2021_01_workspace_RZA2M_ANPR/ANPR_RZA2M_EBK/src/tensorflow_lite/tensorflow/lite/kernels/internal\types.h ****     return size_ > kMaxSmallSize ? dims_pointer_[i] : dims_[i];
 6887              		.loc 3 215 0
 6888 23c8 FEFFFFEB 		bl	abort
 6889              	.LVL717:
 6890              	.L285:
 6891              	.LBE1216:
 6892              	.LBE1244:
 6893              	.LBE1252:
 6894              	.LBE1271:
 6895              	.LBB1272:
 6896              	.LBB1196:
 6897              	.LBB1194:
 6898              	.LBB1192:
 6899              	.LBB1189:
 6900 23cc FEFFFFEB 		bl	abort
 6901              	.LVL718:
 6902              	.LEHE40:
 6903              	.L489:
 6904 23d0 F5FFFFEA 		b	.L332
 6905              	.LVL719:
 6906              	.L175:
 6907              	.LEHB41:
 6908              	.LBE1189:
 6909              	.LBE1192:
 6910              	.LBE1194:
 6911              	.LBE1196:
 6912              	.LBE1272:
 6913              	.LBE1284:
 6914              	.LBE1492:
 6915              	.LBE1512:
 6916              	.LBE1996:
 6917              	.LBB1997:
 6918              	.LBB1935:
 6919              	.LBB1916:
 6920              	.LBB1699:
 6921              	.LBB1687:
 6922              	.LBB1671:
 6923              	.LBB1661:
 6924              	.LBB1633:
 6925 23d4 FEFFFFEB 		bl	abort
 6926              	.LVL720:
 6927              	.L170:
 6928              	.LBE1633:
 6929              	.LBE1661:
 6930              	.LBE1671:
 6931              	.LBE1687:
 6932              	.LBB1688:
 6933              	.LBB1613:
 6934              	.LBB1611:
 6935              	.LBB1609:
 6936              	.LBB1606:
 6937 23d8 FEFFFFEB 		bl	abort
 6938              	.LVL721:
 6939              	.LEHE41:
 6940              	.L95:
 6941              	.LEHB42:
 6942              	.LBE1606:
 6943              	.LBE1609:
 6944              	.LBE1611:
 6945              	.LBE1613:
 6946              	.LBE1688:
 6947              	.LBE1699:
 6948              	.LBE1916:
 6949              	.LBE1935:
 6950              	.LBE1997:
 6951              	.LBB1998:
 6952              	.LBB1094:
 6953              	.LBB1076:
 6954              	.LBB1057:
 6955              	.LBB961:
 6956 23dc FEFFFFEB 		bl	abort
 6957              	.LVL722:
 6958              	.LEHE42:
 6959              	.L341:
 6960              	.LEHB43:
 6961              	.LBE961:
 6962              	.LBE1057:
 6963              	.LBE1076:
 6964              	.LBE1094:
 6965              	.LBE1998:
 6966              	.LBB1999:
 6967              	.LBB1513:
 6968              	.LBB1493:
 6969              	.LBB1473:
 6970              	.LBB1458:
 6971              	.LBB1445:
 6972              	.LBB1434:
 6973 23e0 FEFFFFEB 		bl	abort
 6974              	.LVL723:
 6975              	.L337:
 6976              	.LBE1434:
 6977              	.LBE1445:
 6978              	.LBE1458:
 6979              	.LBB1459:
 6980              	.LBB1302:
 6981 23e4 FEFFFFEB 		bl	abort
 6982              	.LVL724:
 6983              	.L329:
 6984              	.LBE1302:
 6985              	.LBE1459:
 6986              	.LBE1473:
 6987              	.LBB1474:
 6988              	.LBB1295:
 6989 23e8 FEFFFFEB 		bl	abort
 6990              	.LVL725:
 6991              	.LEHE43:
 6992              	.L977:
 6993              	.LEHB44:
 6994              	.LBE1295:
 6995              	.LBE1474:
 6996              	.LBE1493:
 6997              	.LBE1513:
 6998              	.LBE1999:
 6999              	.LBB2000:
 7000              	.LBB1095:
 7001              	.LBB1077:
 7002              	.LBB1058:
 7003              	.LBB1047:
 7004              	.LBB1033:
 7005              	.LBB1024:
 7006 23ec FEFFFFEB 		bl	abort
 7007              	.LVL726:
 7008              	.LEHE44:
 7009              	.L282:
 7010              	.LEHB45:
 7011              	.LBE1024:
 7012              	.LBE1033:
 7013              	.LBE1047:
 7014              	.LBE1058:
 7015              	.LBE1077:
 7016              	.LBE1095:
 7017              	.LBE2000:
 7018              	.LBB2001:
 7019              	.LBB1514:
 7020              	.LBB1494:
 7021              	.LBB1285:
 7022              	.LBB1273:
 7023              	.LBB1181:
 7024              	.LBB1179:
 7025              	.LBB1177:
 7026              	.LBB1174:
 7027 23f0 FEFFFFEB 		bl	abort
 7028              	.LVL727:
 7029              	.LEHE45:
 7030              	.L480:
 7031 23f4 1CFEFFEA 		b	.L390
 7032              	.LVL728:
 7033              	.L59:
 7034              	.LEHB46:
 7035              	.LBE1174:
 7036              	.LBE1177:
 7037              	.LBE1179:
 7038              	.LBE1181:
 7039              	.LBE1273:
 7040              	.LBE1285:
 7041              	.LBE1494:
 7042              	.LBE1514:
 7043              	.LBE2001:
 7044              	.LBB2002:
 7045              	.LBB1096:
 7046              	.LBB1078:
 7047              	.LBB952:
 7048              	.LBB937:
 7049              	.LBB920:
 844:C:/Renesas/e2studio_2021_01_workspace_RZA2M_ANPR/ANPR_RZA2M_EBK/src/tensorflow_lite/tensorflow/lite/kernels/internal\common.h ****         desc1_out->strides[i] = 0;
 7050              		.loc 4 844 0
 7051 23f8 FEFFFFEB 		bl	abort
 7052              	.LVL729:
 7053              	.L499:
 7054              	.L902:
 7055 23fc 08819DE5 		ldr	r8, [sp, #264]
 7056 2400 E9FFFFEA 		b	.L332
 7057              	.LVL730:
 7058              	.L487:
 7059              	.L98:
 7060              	.LBE920:
 7061              	.LBE937:
 7062              	.LBB938:
 7063              	.LBB939:
 203:C:/Renesas/e2studio_2021_01_workspace_RZA2M_ANPR/ANPR_RZA2M_EBK/src/tensorflow_lite/tensorflow/lite/kernels/internal\types.h **** #ifdef TF_LITE_STATIC_MEMORY
 7064              		.loc 3 203 0
 7065 2404 050057E3 		cmp	r7, #5
 7066 2408 30FEFFDA 		ble	.L46
 207:C:/Renesas/e2studio_2021_01_workspace_RZA2M_ANPR/ANPR_RZA2M_EBK/src/tensorflow_lite/tensorflow/lite/kernels/internal\types.h **** #endif  // TF_LITE_STATIC_MEMORY
 7067              		.loc 3 207 0
 7068 240c 0C019DE5 		ldr	r0, [sp, #268]
 7069 2410 000050E3 		cmp	r0, #0
 7070 2414 2DFEFF0A 		beq	.L46
 7071 2418 FEFFFFEB 		bl	_ZdaPv
 7072              	.LVL731:
 7073 241c 2BFEFFEA 		b	.L46
 7074              	.LVL732:
 7075              	.L51:
 7076              	.LBE939:
 7077              	.LBE938:
 7078              	.LBB940:
 7079              	.LBB864:
 7080              	.LBB862:
 7081              	.LBB860:
 7082              	.LBB857:
 215:C:/Renesas/e2studio_2021_01_workspace_RZA2M_ANPR/ANPR_RZA2M_EBK/src/tensorflow_lite/tensorflow/lite/kernels/internal\types.h ****     return size_ > kMaxSmallSize ? dims_pointer_[i] : dims_[i];
 7083              		.loc 3 215 0
 7084 2420 FEFFFFEB 		bl	abort
 7085              	.LVL733:
 7086              	.LEHE46:
 7087              	.L48:
 7088              	.LEHB47:
 7089              	.LBE857:
 7090              	.LBE860:
 7091              	.LBE862:
 7092              	.LBE864:
 7093              	.LBE940:
 7094              	.LBB941:
 7095              	.LBB849:
 7096              	.LBB847:
 7097              	.LBB845:
 7098              	.LBB842:
 7099 2424 FEFFFFEB 		bl	abort
 7100              	.LVL734:
 7101              	.LEHE47:
 7102              	.L167:
 7103              	.LEHB48:
 7104              	.LBE842:
 7105              	.LBE845:
 7106              	.LBE847:
 7107              	.LBE849:
 7108              	.LBE941:
 7109              	.LBE952:
 7110              	.LBE1078:
 7111              	.LBE1096:
 7112              	.LBE2002:
 7113              	.LBB2003:
 7114              	.LBB1936:
 7115              	.LBB1917:
 7116              	.LBB1700:
 7117              	.LBB1689:
 7118              	.LBB1598:
 7119              	.LBB1596:
 7120              	.LBB1594:
 7121              	.LBB1591:
 7122 2428 FEFFFFEB 		bl	abort
 7123              	.LVL735:
 7124              	.LEHE48:
 7125              	.L56:
 7126              	.LEHB49:
 7127              	.LBE1591:
 7128              	.LBE1594:
 7129              	.LBE1596:
 7130              	.LBE1598:
 7131              	.LBE1689:
 7132              	.LBE1700:
 7133              	.LBE1917:
 7134              	.LBE1936:
 7135              	.LBE2003:
 7136              	.LBB2004:
 7137              	.LBB1097:
 7138              	.LBB1079:
 7139              	.LBB953:
 7140              	.LBB942:
 7141              	.LBB921:
 7142              	.LBB912:
 7143              	.LBB884:
 7144 242c FEFFFFEB 		bl	abort
 7145              	.LVL736:
 7146              	.LEHE49:
 7147              	.L492:
 7148 2430 08719DE5 		ldr	r7, [sp, #264]
 7149 2434 F2FFFFEA 		b	.L98
 7150              	.LVL737:
 7151              	.L495:
 7152 2438 EFFFFFEA 		b	.L902
 7153              	.LVL738:
 7154              	.L929:
 7155              	.LEHB50:
 7156              	.LBE884:
 7157              	.LBE912:
 7158              	.LBE921:
 7159              	.LBE942:
 7160              	.LBE953:
 7161              	.LBE1079:
 7162              	.LBE1097:
 7163              	.LBE2004:
 7164              	.LBB2005:
 7165              	.LBB1522:
  62:C:/Renesas/e2studio_2021_01_workspace_RZA2M_ANPR/ANPR_RZA2M_EBK/src/tensorflow_lite/tensorflow/lite/micro/kernels\kernel_util.h ****   return reinterpret_cast<const T*>(tensor->data.raw);
 7166              		.loc 2 62 0
 7167 243c FEFFFFEB 		bl	abort
 7168              	.LVL739:
 7169              	.LEHE50:
 7170              	.L481:
 7171 2440 02FEFFEA 		b	.L388
 7172              	.LVL740:
 7173              	.L930:
 7174              	.LEHB51:
 7175              	.LBE1522:
 7176              	.LBE2005:
 7177              	.LBB2006:
 7178              	.LBB1937:
  32:C:/Renesas/e2studio_2021_01_workspace_RZA2M_ANPR/ANPR_RZA2M_EBK/src/tensorflow_lite/tensorflow/lite/kernels/internal/reference\prelu.h ****   TFLITE_DCHECK_LE(alpha_shape.DimensionsCount(), 4);
 7179              		.loc 5 32 0
 7180 2444 FEFFFFEB 		bl	abort
 7181              	.LVL741:
 7182              	.L931:
  33:C:/Renesas/e2studio_2021_01_workspace_RZA2M_ANPR/ANPR_RZA2M_EBK/src/tensorflow_lite/tensorflow/lite/kernels/internal/reference\prelu.h ****   TFLITE_DCHECK_LE(output_shape.DimensionsCount(), 4);
 7183              		.loc 5 33 0
 7184 2448 FEFFFFEB 		bl	abort
 7185              	.LVL742:
 7186              	.L226:
 7187              	.LBB1918:
 7188              	.LBB1898:
 7189              	.LBB1881:
 7190              	.LBB1865:
 7191              	.LBB1852:
 215:C:/Renesas/e2studio_2021_01_workspace_RZA2M_ANPR/ANPR_RZA2M_EBK/src/tensorflow_lite/tensorflow/lite/kernels/internal\types.h ****     return size_ > kMaxSmallSize ? dims_pointer_[i] : dims_[i];
 7192              		.loc 3 215 0
 7193 244c FEFFFFEB 		bl	abort
 7194              	.LVL743:
 7195              	.LEHE51:
 7196              	.L293:
 7197              	.LEHB52:
 7198              	.LBE1852:
 7199              	.LBE1865:
 7200              	.LBE1881:
 7201              	.LBE1898:
 7202              	.LBE1918:
 7203              	.LBE1937:
 7204              	.LBE2006:
 7205              	.LBB2007:
 7206              	.LBB1515:
 7207              	.LBB1495:
 7208              	.LBB1286:
 7209              	.LBB1274:
 7210              	.LBB1253:
 844:C:/Renesas/e2studio_2021_01_workspace_RZA2M_ANPR/ANPR_RZA2M_EBK/src/tensorflow_lite/tensorflow/lite/kernels/internal\common.h ****         desc1_out->strides[i] = 0;
 7211              		.loc 4 844 0
 7212 2450 FEFFFFEB 		bl	abort
 7213              	.LVL744:
 7214              	.LEHE52:
 7215              	.L871:
 7216              	.LBE1253:
 7217              	.LBE1274:
 7218              	.LBE1286:
 7219              	.LBE1495:
 7220              	.LBE1515:
 7221              	.LBE2007:
 7222              	.LBB2008:
 7223              	.LBB1098:
 7224              	.LBB1080:
 7225              	.LBB1059:
 7226              	.LBB1048:
 7227              	.LBB1034:
  75:../src/tensorflow_lite/tensorflow/lite/micro/kernels/prelu.cc ****           auto out_idx = Offset(output_shape, b, y, x, c);
 7228              		.loc 1 75 0
 7229 2454 00005BE3 		cmp	fp, #0
 7230 2458 62FDFFDA 		ble	.L114
 7231              	.LBB1019:
 7232              	.LBB1000:
 7233              	.LBB989:
 404:C:/Renesas/e2studio_2021_01_workspace_RZA2M_ANPR/ANPR_RZA2M_EBK/src/tensorflow_lite/tensorflow/lite/kernels/internal\types.h ****   const int* dims_data = reinterpret_cast<const int*>(shape.DimsDataUpTo5D());
 7234              		.loc 3 404 0
 7235 245c 040055E3 		cmp	r5, #4
 7236 2460 0A30A0E1 		mov	r3, r10
 7237 2464 06A0A0E1 		mov	r10, r6
 7238              	.LVL745:
 7239 2468 6FFDFF1A 		bne	.L115
 406:C:/Renesas/e2studio_2021_01_workspace_RZA2M_ANPR/ANPR_RZA2M_EBK/src/tensorflow_lite/tensorflow/lite/kernels/internal\types.h ****   TFLITE_DCHECK(i1 >= 0 && i1 < dims_data[1]);
 7240              		.loc 3 406 0
 7241 246c 0C0059E1 		cmp	r9, ip
 7242 2470 DDFEFFDA 		ble	.L116
 407:C:/Renesas/e2studio_2021_01_workspace_RZA2M_ANPR/ANPR_RZA2M_EBK/src/tensorflow_lite/tensorflow/lite/kernels/internal\types.h ****   TFLITE_DCHECK(i2 >= 0 && i2 < dims_data[2]);
 7243              		.loc 3 407 0
 7244 2474 0E005AE1 		cmp	r10, lr
 7245 2478 DAFEFFDA 		ble	.L117
 408:C:/Renesas/e2studio_2021_01_workspace_RZA2M_ANPR/ANPR_RZA2M_EBK/src/tensorflow_lite/tensorflow/lite/kernels/internal\types.h ****   TFLITE_DCHECK(i3 >= 0 && i3 < dims_data[3]);
 7246              		.loc 3 408 0
 7247 247c 000058E1 		cmp	r8, r0
 7248 2480 D7FEFFDA 		ble	.L118
 7249              	.LVL746:
 7250              	.LBE989:
 7251              	.LBE1000:
 7252              	.LBB1001:
 7253              	.LBB980:
 729:C:/Renesas/e2studio_2021_01_workspace_RZA2M_ANPR/ANPR_RZA2M_EBK/src/tensorflow_lite/tensorflow/lite/kernels/internal\common.h ****   TFLITE_DCHECK(i1 >= 0 && i1 < desc.extents[1]);
 7254              		.loc 4 729 0
 7255 2484 0C0057E1 		cmp	r7, ip
 7256 2488 D4FEFFDA 		ble	.L119
 730:C:/Renesas/e2studio_2021_01_workspace_RZA2M_ANPR/ANPR_RZA2M_EBK/src/tensorflow_lite/tensorflow/lite/kernels/internal\common.h ****   TFLITE_DCHECK(i2 >= 0 && i2 < desc.extents[2]);
 7257              		.loc 4 730 0
 7258 248c 0E0053E1 		cmp	r3, lr
 7259 2490 D1FEFFDA 		ble	.L120
 731:C:/Renesas/e2studio_2021_01_workspace_RZA2M_ANPR/ANPR_RZA2M_EBK/src/tensorflow_lite/tensorflow/lite/kernels/internal\common.h ****   TFLITE_DCHECK(i3 >= 0 && i3 < desc.extents[3]);
 7260              		.loc 4 731 0
 7261 2494 08309DE5 		ldr	r3, [sp, #8]
 7262 2498 000053E1 		cmp	r3, r0
 7263 249c CDFEFFDA 		ble	.L121
 732:C:/Renesas/e2studio_2021_01_workspace_RZA2M_ANPR/ANPR_RZA2M_EBK/src/tensorflow_lite/tensorflow/lite/kernels/internal\common.h ****   return i0 * desc.strides[0] + i1 * desc.strides[1] + i2 * desc.strides[2] +
 7264              		.loc 4 732 0
 7265 24a0 0C309DE5 		ldr	r3, [sp, #12]
 7266 24a4 000053E3 		cmp	r3, #0
 7267 24a8 C9FEFFDA 		ble	.L123
 7268              	.LEHB53:
 7269              	.LBE980:
 7270              	.LBE1001:
 7271              	.LBB1002:
 7272              	.LBB972:
 729:C:/Renesas/e2studio_2021_01_workspace_RZA2M_ANPR/ANPR_RZA2M_EBK/src/tensorflow_lite/tensorflow/lite/kernels/internal\common.h ****   TFLITE_DCHECK(i1 >= 0 && i1 < desc.extents[1]);
 7273              		.loc 4 729 0
 7274 24ac FEFFFFEB 		bl	abort
 7275              	.LVL747:
 7276              	.L880:
 7277 24b0 0C0053E1 		cmp	r3, ip
 7278 24b4 E6FFFFDA 		ble	.L871
 7279              	.LVL748:
 7280              	.LBE972:
 7281              	.LBE1002:
 7282              	.LBE1019:
  75:../src/tensorflow_lite/tensorflow/lite/micro/kernels/prelu.cc ****           auto out_idx = Offset(output_shape, b, y, x, c);
 7283              		.loc 1 75 0
 7284 24b8 00005BE3 		cmp	fp, #0
 7285 24bc 49FDFFDA 		ble	.L114
 7286              	.LBB1020:
 7287              	.LBB1003:
 7288              	.LBB990:
 404:C:/Renesas/e2studio_2021_01_workspace_RZA2M_ANPR/ANPR_RZA2M_EBK/src/tensorflow_lite/tensorflow/lite/kernels/internal\types.h ****   const int* dims_data = reinterpret_cast<const int*>(shape.DimsDataUpTo5D());
 7289              		.loc 3 404 0
 7290 24c0 040055E3 		cmp	r5, #4
 7291 24c4 0A30A0E1 		mov	r3, r10
 7292 24c8 06A0A0E1 		mov	r10, r6
 7293              	.LVL749:
 7294 24cc 56FDFF1A 		bne	.L115
 406:C:/Renesas/e2studio_2021_01_workspace_RZA2M_ANPR/ANPR_RZA2M_EBK/src/tensorflow_lite/tensorflow/lite/kernels/internal\types.h ****   TFLITE_DCHECK(i1 >= 0 && i1 < dims_data[1]);
 7295              		.loc 3 406 0
 7296 24d0 0C0059E1 		cmp	r9, ip
 7297 24d4 C4FEFFDA 		ble	.L116
 407:C:/Renesas/e2studio_2021_01_workspace_RZA2M_ANPR/ANPR_RZA2M_EBK/src/tensorflow_lite/tensorflow/lite/kernels/internal\types.h ****   TFLITE_DCHECK(i2 >= 0 && i2 < dims_data[2]);
 7298              		.loc 3 407 0
 7299 24d8 0E005AE1 		cmp	r10, lr
 7300 24dc C1FEFFDA 		ble	.L117
 408:C:/Renesas/e2studio_2021_01_workspace_RZA2M_ANPR/ANPR_RZA2M_EBK/src/tensorflow_lite/tensorflow/lite/kernels/internal\types.h ****   TFLITE_DCHECK(i3 >= 0 && i3 < dims_data[3]);
 7301              		.loc 3 408 0
 7302 24e0 000058E1 		cmp	r8, r0
 7303 24e4 BEFEFFDA 		ble	.L118
 7304              	.LVL750:
 7305              	.LBE990:
 7306              	.LBE1003:
 7307              	.LBB1004:
 7308              	.LBB981:
 729:C:/Renesas/e2studio_2021_01_workspace_RZA2M_ANPR/ANPR_RZA2M_EBK/src/tensorflow_lite/tensorflow/lite/kernels/internal\common.h ****   TFLITE_DCHECK(i1 >= 0 && i1 < desc.extents[1]);
 7309              		.loc 4 729 0
 7310 24e8 0C0057E1 		cmp	r7, ip
 7311 24ec BBFEFFDA 		ble	.L119
 730:C:/Renesas/e2studio_2021_01_workspace_RZA2M_ANPR/ANPR_RZA2M_EBK/src/tensorflow_lite/tensorflow/lite/kernels/internal\common.h ****   TFLITE_DCHECK(i2 >= 0 && i2 < desc.extents[2]);
 7312              		.loc 4 730 0
 7313 24f0 0E0053E1 		cmp	r3, lr
 7314 24f4 B8FEFFDA 		ble	.L120
 731:C:/Renesas/e2studio_2021_01_workspace_RZA2M_ANPR/ANPR_RZA2M_EBK/src/tensorflow_lite/tensorflow/lite/kernels/internal\common.h ****   TFLITE_DCHECK(i3 >= 0 && i3 < desc.extents[3]);
 7315              		.loc 4 731 0
 7316 24f8 08309DE5 		ldr	r3, [sp, #8]
 7317 24fc 000053E1 		cmp	r3, r0
 7318 2500 B4FEFFDA 		ble	.L121
 732:C:/Renesas/e2studio_2021_01_workspace_RZA2M_ANPR/ANPR_RZA2M_EBK/src/tensorflow_lite/tensorflow/lite/kernels/internal\common.h ****   return i0 * desc.strides[0] + i1 * desc.strides[1] + i2 * desc.strides[2] +
 7319              		.loc 4 732 0
 7320 2504 0C309DE5 		ldr	r3, [sp, #12]
 7321 2508 000053E3 		cmp	r3, #0
 7322 250c B0FEFFDA 		ble	.L123
 7323              	.LBE981:
 7324              	.LBE1004:
 7325              	.LBB1005:
 7326              	.LBB973:
 730:C:/Renesas/e2studio_2021_01_workspace_RZA2M_ANPR/ANPR_RZA2M_EBK/src/tensorflow_lite/tensorflow/lite/kernels/internal\common.h ****   TFLITE_DCHECK(i2 >= 0 && i2 < desc.extents[2]);
 7327              		.loc 4 730 0
 7328 2510 FEFFFFEB 		bl	abort
 7329              	.LVL751:
 7330              	.LEHE53:
 7331              	.L483:
 7332 2514 D4FDFFEA 		b	.L390
 7333              	.L923:
 7334              	.LEHB54:
 7335              	.LBE973:
 7336              	.LBE1005:
 7337              	.LBE1020:
 7338              	.LBE1034:
 7339              	.LBE1048:
 7340              	.LBE1059:
 7341              	.LBE1080:
 7342              	.LBE1098:
 7343              	.LBE2008:
 7344              	.LBB2009:
 7345              	.LBB1105:
  62:C:/Renesas/e2studio_2021_01_workspace_RZA2M_ANPR/ANPR_RZA2M_EBK/src/tensorflow_lite/tensorflow/lite/micro/kernels\kernel_util.h ****   return reinterpret_cast<const T*>(tensor->data.raw);
 7346              		.loc 2 62 0
 7347 2518 FEFFFFEB 		bl	abort
 7348              	.LVL752:
 7349              	.LEHE54:
 7350              	.L484:
 7351 251c CBFDFFEA 		b	.L388
 7352              	.LVL753:
 7353              	.L924:
 7354              	.LEHB55:
 7355              	.LBE1105:
 7356              	.LBE2009:
 7357              	.LBB2010:
 7358              	.LBB1516:
  32:C:/Renesas/e2studio_2021_01_workspace_RZA2M_ANPR/ANPR_RZA2M_EBK/src/tensorflow_lite/tensorflow/lite/kernels/internal/reference\prelu.h ****   TFLITE_DCHECK_LE(alpha_shape.DimensionsCount(), 4);
 7359              		.loc 5 32 0
 7360 2520 FEFFFFEB 		bl	abort
 7361              	.LVL754:
 7362              	.L925:
  33:C:/Renesas/e2studio_2021_01_workspace_RZA2M_ANPR/ANPR_RZA2M_EBK/src/tensorflow_lite/tensorflow/lite/kernels/internal/reference\prelu.h ****   TFLITE_DCHECK_LE(output_shape.DimensionsCount(), 4);
 7363              		.loc 5 33 0
 7364 2524 FEFFFFEB 		bl	abort
 7365              	.LVL755:
 7366              	.L926:
  34:C:/Renesas/e2studio_2021_01_workspace_RZA2M_ANPR/ANPR_RZA2M_EBK/src/tensorflow_lite/tensorflow/lite/kernels/internal/reference\prelu.h ****   const RuntimeShape extended_output_shape =
 7367              		.loc 5 34 0
 7368 2528 FEFFFFEB 		bl	abort
 7369              	.LVL756:
 7370              	.LEHE55:
 7371              	.L932:
 7372              	.LEHB56:
 7373              	.LBE1516:
 7374              	.LBE2010:
 7375              	.LBB2011:
 7376              	.LBB1938:
 7377 252c FEFFFFEB 		bl	abort
 7378              	.LVL757:
 7379              	.LEHE56:
 7380              	.L920:
 7381              	.LEHB57:
 7382              	.LBE1938:
 7383              	.LBE2011:
 7384              	.LBB2012:
 7385              	.LBB1099:
  63:../src/tensorflow_lite/tensorflow/lite/micro/kernels/prelu.cc ****   const RuntimeShape output_shape =
 7386              		.loc 1 63 0
 7387 2530 FEFFFFEB 		bl	abort
 7388              	.LVL758:
 7389              	.LEHE57:
 7390              	.L23:
 7391              	.LEHB58:
 7392              	.LBE1099:
 7393              	.LBE2012:
 108:../src/tensorflow_lite/tensorflow/lite/micro/kernels/prelu.cc ****   const PreluParams& params =
 7394              		.loc 1 108 0 discriminator 1
 7395 2534 FEFFFFEB 		bl	abort
 7396              	.LVL759:
 7397              	.LEHE58:
 7398              	.L477:
 7399 2538 CBFDFFEA 		b	.L390
 7400              	.LVL760:
 7401              	.L917:
 7402              	.LEHB59:
 7403              	.LBB2013:
 7404              	.LBB773:
  62:C:/Renesas/e2studio_2021_01_workspace_RZA2M_ANPR/ANPR_RZA2M_EBK/src/tensorflow_lite/tensorflow/lite/micro/kernels\kernel_util.h ****   return reinterpret_cast<const T*>(tensor->data.raw);
 7405              		.loc 2 62 0
 7406 253c FEFFFFEB 		bl	abort
 7407              	.LVL761:
 7408              	.LEHE59:
 7409              	.L478:
 7410 2540 C2FDFFEA 		b	.L388
 7411              	.LBE773:
 7412              	.LBE2013:
 7413              		.cfi_endproc
 7414              	.LFE4173:
 7415              		.global	__gxx_personality_v0
 7416              		.personality	__gxx_personality_v0
 7417              		.handlerdata
 7418              	.LLSDA4173:
 7419 0008 FF       		.byte	0xff
 7420 0009 FF       		.byte	0xff
 7421 000a 01       		.byte	0x1
 7422 000b E302     		.uleb128 .LLSDACSE4173-.LLSDACSB4173
 7423              	.LLSDACSB4173:
 7424 000d 30       		.uleb128 .LEHB0-.LFB4173
 7425 000e 8801     		.uleb128 .LEHE0-.LEHB0
 7426 0010 00       		.uleb128 0
 7427 0011 00       		.uleb128 0
 7428 0012 C401     		.uleb128 .LEHB1-.LFB4173
 7429 0014 04       		.uleb128 .LEHE1-.LEHB1
 7430 0015 B84A     		.uleb128 .L477-.LFB4173
 7431 0017 00       		.uleb128 0
 7432 0018 DC01     		.uleb128 .LEHB2-.LFB4173
 7433 001a 04       		.uleb128 .LEHE2-.LEHB2
 7434 001b C04A     		.uleb128 .L478-.LFB4173
 7435 001d 00       		.uleb128 0
 7436 001e D002     		.uleb128 .LEHB3-.LFB4173
 7437 0020 04       		.uleb128 .LEHE3-.LEHB3
 7438 0021 B438     		.uleb128 .L479-.LFB4173
 7439 0023 00       		.uleb128 0
 7440 0024 AC03     		.uleb128 .LEHB4-.LFB4173
 7441 0026 04       		.uleb128 .LEHE4-.LEHB4
 7442 0027 BC39     		.uleb128 .L490-.LFB4173
 7443 0029 00       		.uleb128 0
 7444 002a 8804     		.uleb128 .LEHB5-.LFB4173
 7445 002c 04       		.uleb128 .LEHE5-.LEHB5
 7446 002d CC39     		.uleb128 .L491-.LFB4173
 7447 002f 00       		.uleb128 0
 7448 0030 9007     		.uleb128 .LEHB6-.LFB4173
 7449 0032 04       		.uleb128 .LEHE6-.LEHB6
 7450 0033 00       		.uleb128 0
 7451 0034 00       		.uleb128 0
 7452 0035 A007     		.uleb128 .LEHB7-.LFB4173
 7453 0037 04       		.uleb128 .LEHE7-.LEHB7
 7454 0038 944A     		.uleb128 .L483-.LFB4173
 7455 003a 00       		.uleb128 0
 7456 003b B807     		.uleb128 .LEHB8-.LFB4173
 7457 003d 04       		.uleb128 .LEHE8-.LEHB8
 7458 003e 9C4A     		.uleb128 .L484-.LFB4173
 7459 0040 00       		.uleb128 0
 7460 0041 AC08     		.uleb128 .LEHB9-.LFB4173
 7461 0043 04       		.uleb128 .LEHE9-.LEHB9
 7462 0044 8C39     		.uleb128 .L485-.LFB4173
 7463 0046 00       		.uleb128 0
 7464 0047 8809     		.uleb128 .LEHB10-.LFB4173
 7465 0049 04       		.uleb128 .LEHE10-.LEHB10
 7466 004a 9439     		.uleb128 .L497-.LFB4173
 7467 004c 00       		.uleb128 0
 7468 004d E409     		.uleb128 .LEHB11-.LFB4173
 7469 004f 04       		.uleb128 .LEHE11-.LEHB11
 7470 0050 8C3A     		.uleb128 .L498-.LFB4173
 7471 0052 00       		.uleb128 0
 7472 0053 EC0C     		.uleb128 .LEHB12-.LFB4173
 7473 0055 04       		.uleb128 .LEHE12-.LEHB12
 7474 0056 00       		.uleb128 0
 7475 0057 00       		.uleb128 0
 7476 0058 FC0C     		.uleb128 .LEHB13-.LFB4173
 7477 005a 04       		.uleb128 .LEHE13-.LEHB13
 7478 005b F447     		.uleb128 .L480-.LFB4173
 7479 005d 00       		.uleb128 0
 7480 005e 940D     		.uleb128 .LEHB14-.LFB4173
 7481 0060 04       		.uleb128 .LEHE14-.LEHB14
 7482 0061 C048     		.uleb128 .L481-.LFB4173
 7483 0063 00       		.uleb128 0
 7484 0064 880E     		.uleb128 .LEHB15-.LFB4173
 7485 0066 04       		.uleb128 .LEHE15-.LEHB15
 7486 0067 9039     		.uleb128 .L482-.LFB4173
 7487 0069 00       		.uleb128 0
 7488 006a E40E     		.uleb128 .LEHB16-.LFB4173
 7489 006c 04       		.uleb128 .LEHE16-.LEHB16
 7490 006d B839     		.uleb128 .L493-.LFB4173
 7491 006f 00       		.uleb128 0
 7492 0070 C00F     		.uleb128 .LEHB17-.LFB4173
 7493 0072 04       		.uleb128 .LEHE17-.LEHB17
 7494 0073 EC39     		.uleb128 .L494-.LFB4173
 7495 0075 00       		.uleb128 0
 7496 0076 AC34     		.uleb128 .LEHB18-.LFB4173
 7497 0078 04       		.uleb128 .LEHE18-.LEHB18
 7498 0079 A03B     		.uleb128 .L486-.LFB4173
 7499 007b 00       		.uleb128 0
 7500 007c 8839     		.uleb128 .LEHB19-.LFB4173
 7501 007e 04       		.uleb128 .LEHE19-.LEHB19
 7502 007f 00       		.uleb128 0
 7503 0080 00       		.uleb128 0
 7504 0081 903F     		.uleb128 .LEHB20-.LFB4173
 7505 0083 20       		.uleb128 .LEHE20-.LEHB20
 7506 0084 9039     		.uleb128 .L482-.LFB4173
 7507 0086 00       		.uleb128 0
 7508 0087 B03F     		.uleb128 .LEHB21-.LFB4173
 7509 0089 20       		.uleb128 .LEHE21-.LEHB21
 7510 008a 8C39     		.uleb128 .L485-.LFB4173
 7511 008c 00       		.uleb128 0
 7512 008d D03F     		.uleb128 .LEHB22-.LFB4173
 7513 008f 20       		.uleb128 .LEHE22-.LEHB22
 7514 0090 A03B     		.uleb128 .L486-.LFB4173
 7515 0092 00       		.uleb128 0
 7516 0093 9841     		.uleb128 .LEHB23-.LFB4173
 7517 0095 04       		.uleb128 .LEHE23-.LEHB23
 7518 0096 9C41     		.uleb128 .L496-.LFB4173
 7519 0098 00       		.uleb128 0
 7520 0099 A441     		.uleb128 .LEHB24-.LFB4173
 7521 009b 04       		.uleb128 .LEHE24-.LEHB24
 7522 009c 8C39     		.uleb128 .L485-.LFB4173
 7523 009e 00       		.uleb128 0
 7524 009f A841     		.uleb128 .LEHB25-.LFB4173
 7525 00a1 04       		.uleb128 .LEHE25-.LEHB25
 7526 00a2 AC41     		.uleb128 .L500-.LFB4173
 7527 00a4 00       		.uleb128 0
 7528 00a5 B041     		.uleb128 .LEHB26-.LFB4173
 7529 00a7 04       		.uleb128 .LEHE26-.LEHB26
 7530 00a8 9039     		.uleb128 .L482-.LFB4173
 7531 00aa 00       		.uleb128 0
 7532 00ab F842     		.uleb128 .LEHB27-.LFB4173
 7533 00ad 04       		.uleb128 .LEHE27-.LEHB27
 7534 00ae 8C39     		.uleb128 .L485-.LFB4173
 7535 00b0 00       		.uleb128 0
 7536 00b1 9843     		.uleb128 .LEHB28-.LFB4173
 7537 00b3 04       		.uleb128 .LEHE28-.LEHB28
 7538 00b4 9039     		.uleb128 .L482-.LFB4173
 7539 00b6 00       		.uleb128 0
 7540 00b7 FC43     		.uleb128 .LEHB29-.LFB4173
 7541 00b9 04       		.uleb128 .LEHE29-.LEHB29
 7542 00ba B438     		.uleb128 .L479-.LFB4173
 7543 00bc 00       		.uleb128 0
 7544 00bd 8044     		.uleb128 .LEHB30-.LFB4173
 7545 00bf 08       		.uleb128 .LEHE30-.LEHB30
 7546 00c0 9039     		.uleb128 .L482-.LFB4173
 7547 00c2 00       		.uleb128 0
 7548 00c3 DC44     		.uleb128 .LEHB31-.LFB4173
 7549 00c5 10       		.uleb128 .LEHE31-.LEHB31
 7550 00c6 8C39     		.uleb128 .L485-.LFB4173
 7551 00c8 00       		.uleb128 0
 7552 00c9 DC45     		.uleb128 .LEHB32-.LFB4173
 7553 00cb 08       		.uleb128 .LEHE32-.LEHB32
 7554 00cc 9039     		.uleb128 .L482-.LFB4173
 7555 00ce 00       		.uleb128 0
 7556 00cf 8046     		.uleb128 .LEHB33-.LFB4173
 7557 00d1 04       		.uleb128 .LEHE33-.LEHB33
 7558 00d2 8C39     		.uleb128 .L485-.LFB4173
 7559 00d4 00       		.uleb128 0
 7560 00d5 A046     		.uleb128 .LEHB34-.LFB4173
 7561 00d7 08       		.uleb128 .LEHE34-.LEHB34
 7562 00d8 9039     		.uleb128 .L482-.LFB4173
 7563 00da 00       		.uleb128 0
 7564 00db 9447     		.uleb128 .LEHB35-.LFB4173
 7565 00dd 04       		.uleb128 .LEHE35-.LEHB35
 7566 00de A03B     		.uleb128 .L486-.LFB4173
 7567 00e0 00       		.uleb128 0
 7568 00e1 9847     		.uleb128 .LEHB36-.LFB4173
 7569 00e3 04       		.uleb128 .LEHE36-.LEHB36
 7570 00e4 B438     		.uleb128 .L479-.LFB4173
 7571 00e6 00       		.uleb128 0
 7572 00e7 9C47     		.uleb128 .LEHB37-.LFB4173
 7573 00e9 04       		.uleb128 .LEHE37-.LEHB37
 7574 00ea 9039     		.uleb128 .L482-.LFB4173
 7575 00ec 00       		.uleb128 0
 7576 00ed A047     		.uleb128 .LEHB38-.LFB4173
 7577 00ef 04       		.uleb128 .LEHE38-.LEHB38
 7578 00f0 AC47     		.uleb128 .L488-.LFB4173
 7579 00f2 00       		.uleb128 0
 7580 00f3 A447     		.uleb128 .LEHB39-.LFB4173
 7581 00f5 08       		.uleb128 .LEHE39-.LEHB39
 7582 00f6 B438     		.uleb128 .L479-.LFB4173
 7583 00f8 00       		.uleb128 0
 7584 00f9 C847     		.uleb128 .LEHB40-.LFB4173
 7585 00fb 08       		.uleb128 .LEHE40-.LEHB40
 7586 00fc D047     		.uleb128 .L489-.LFB4173
 7587 00fe 00       		.uleb128 0
 7588 00ff D447     		.uleb128 .LEHB41-.LFB4173
 7589 0101 08       		.uleb128 .LEHE41-.LEHB41
 7590 0102 AC47     		.uleb128 .L488-.LFB4173
 7591 0104 00       		.uleb128 0
 7592 0105 DC47     		.uleb128 .LEHB42-.LFB4173
 7593 0107 04       		.uleb128 .LEHE42-.LEHB42
 7594 0108 B438     		.uleb128 .L479-.LFB4173
 7595 010a 00       		.uleb128 0
 7596 010b E047     		.uleb128 .LEHB43-.LFB4173
 7597 010d 0C       		.uleb128 .LEHE43-.LEHB43
 7598 010e 8C39     		.uleb128 .L485-.LFB4173
 7599 0110 00       		.uleb128 0
 7600 0111 EC47     		.uleb128 .LEHB44-.LFB4173
 7601 0113 04       		.uleb128 .LEHE44-.LEHB44
 7602 0114 B438     		.uleb128 .L479-.LFB4173
 7603 0116 00       		.uleb128 0
 7604 0117 F047     		.uleb128 .LEHB45-.LFB4173
 7605 0119 04       		.uleb128 .LEHE45-.LEHB45
 7606 011a FC47     		.uleb128 .L499-.LFB4173
 7607 011c 00       		.uleb128 0
 7608 011d F847     		.uleb128 .LEHB46-.LFB4173
 7609 011f 2C       		.uleb128 .LEHE46-.LEHB46
 7610 0120 8448     		.uleb128 .L487-.LFB4173
 7611 0122 00       		.uleb128 0
 7612 0123 A448     		.uleb128 .LEHB47-.LFB4173
 7613 0125 04       		.uleb128 .LEHE47-.LEHB47
 7614 0126 B048     		.uleb128 .L492-.LFB4173
 7615 0128 00       		.uleb128 0
 7616 0129 A848     		.uleb128 .LEHB48-.LFB4173
 7617 012b 04       		.uleb128 .LEHE48-.LEHB48
 7618 012c B848     		.uleb128 .L495-.LFB4173
 7619 012e 00       		.uleb128 0
 7620 012f AC48     		.uleb128 .LEHB49-.LFB4173
 7621 0131 04       		.uleb128 .LEHE49-.LEHB49
 7622 0132 8448     		.uleb128 .L487-.LFB4173
 7623 0134 00       		.uleb128 0
 7624 0135 BC48     		.uleb128 .LEHB50-.LFB4173
 7625 0137 04       		.uleb128 .LEHE50-.LEHB50
 7626 0138 C048     		.uleb128 .L481-.LFB4173
 7627 013a 00       		.uleb128 0
 7628 013b C448     		.uleb128 .LEHB51-.LFB4173
 7629 013d 0C       		.uleb128 .LEHE51-.LEHB51
 7630 013e 9039     		.uleb128 .L482-.LFB4173
 7631 0140 00       		.uleb128 0
 7632 0141 D048     		.uleb128 .LEHB52-.LFB4173
 7633 0143 04       		.uleb128 .LEHE52-.LEHB52
 7634 0144 D047     		.uleb128 .L489-.LFB4173
 7635 0146 00       		.uleb128 0
 7636 0147 AC49     		.uleb128 .LEHB53-.LFB4173
 7637 0149 68       		.uleb128 .LEHE53-.LEHB53
 7638 014a A03B     		.uleb128 .L486-.LFB4173
 7639 014c 00       		.uleb128 0
 7640 014d 984A     		.uleb128 .LEHB54-.LFB4173
 7641 014f 04       		.uleb128 .LEHE54-.LEHB54
 7642 0150 9C4A     		.uleb128 .L484-.LFB4173
 7643 0152 00       		.uleb128 0
 7644 0153 A04A     		.uleb128 .LEHB55-.LFB4173
 7645 0155 0C       		.uleb128 .LEHE55-.LEHB55
 7646 0156 8C39     		.uleb128 .L485-.LFB4173
 7647 0158 00       		.uleb128 0
 7648 0159 AC4A     		.uleb128 .LEHB56-.LFB4173
 7649 015b 04       		.uleb128 .LEHE56-.LEHB56
 7650 015c 9039     		.uleb128 .L482-.LFB4173
 7651 015e 00       		.uleb128 0
 7652 015f B04A     		.uleb128 .LEHB57-.LFB4173
 7653 0161 04       		.uleb128 .LEHE57-.LEHB57
 7654 0162 B438     		.uleb128 .L479-.LFB4173
 7655 0164 00       		.uleb128 0
 7656 0165 B44A     		.uleb128 .LEHB58-.LFB4173
 7657 0167 04       		.uleb128 .LEHE58-.LEHB58
 7658 0168 00       		.uleb128 0
 7659 0169 00       		.uleb128 0
 7660 016a BC4A     		.uleb128 .LEHB59-.LFB4173
 7661 016c 04       		.uleb128 .LEHE59-.LEHB59
 7662 016d C04A     		.uleb128 .L478-.LFB4173
 7663 016f 00       		.uleb128 0
 7664              	.LLSDACSE4173:
 7665              		.section	.text._ZN6tflite3ops5micro11activations9PreluEvalEP13TfLiteContextP10TfLiteNode
 7666              		.fnend
 7668              		.section	.text._ZN6tflite3ops5micro14Register_PRELUEv,"ax",%progbits
 7669              		.align	2
 7670              		.global	_ZN6tflite3ops5micro14Register_PRELUEv
 7671              		.syntax unified
 7672              		.arm
 7673              		.fpu neon
 7675              	_ZN6tflite3ops5micro14Register_PRELUEv:
 7676              		.fnstart
 7677              	.LFB4174:
 153:../src/tensorflow_lite/tensorflow/lite/micro/kernels/prelu.cc **** 
 154:../src/tensorflow_lite/tensorflow/lite/micro/kernels/prelu.cc **** }  // namespace activations
 155:../src/tensorflow_lite/tensorflow/lite/micro/kernels/prelu.cc **** 
 156:../src/tensorflow_lite/tensorflow/lite/micro/kernels/prelu.cc **** TfLiteRegistration Register_PRELU() {
 7678              		.loc 1 156 0
 7679              		.cfi_startproc
 7680              		@ args = 0, pretend = 0, frame = 0
 7681              		@ frame_needed = 0, uses_anonymous_args = 0
 7682              	.LVL762:
 157:../src/tensorflow_lite/tensorflow/lite/micro/kernels/prelu.cc ****   return {/*init=*/activations::PreluInit,
 158:../src/tensorflow_lite/tensorflow/lite/micro/kernels/prelu.cc ****           /*free=*/nullptr,
 159:../src/tensorflow_lite/tensorflow/lite/micro/kernels/prelu.cc ****           /*prepare=*/activations::PreluPrepare,
 160:../src/tensorflow_lite/tensorflow/lite/micro/kernels/prelu.cc ****           /*invoke=*/activations::PreluEval,
 161:../src/tensorflow_lite/tensorflow/lite/micro/kernels/prelu.cc ****           /*profiling_string=*/nullptr,
 162:../src/tensorflow_lite/tensorflow/lite/micro/kernels/prelu.cc ****           /*builtin_code=*/0,
 163:../src/tensorflow_lite/tensorflow/lite/micro/kernels/prelu.cc ****           /*custom_name=*/nullptr,
 164:../src/tensorflow_lite/tensorflow/lite/micro/kernels/prelu.cc ****           /*version=*/0};
 7683              		.loc 1 164 0
 7684 0000 00C000E3 		movw	ip, #:lower16:.LANCHOR1
 156:../src/tensorflow_lite/tensorflow/lite/micro/kernels/prelu.cc ****   return {/*init=*/activations::PreluInit,
 7685              		.loc 1 156 0
 7686 0004 10402DE9 		push	{r4, lr}
 7687              		.cfi_def_cfa_offset 8
 7688              		.cfi_offset 4, -8
 7689              		.cfi_offset 14, -4
 7690              		.loc 1 164 0
 7691 0008 00C040E3 		movt	ip, #:upper16:.LANCHOR1
 156:../src/tensorflow_lite/tensorflow/lite/micro/kernels/prelu.cc ****   return {/*init=*/activations::PreluInit,
 7692              		.loc 1 156 0
 7693 000c 0040A0E1 		mov	r4, r0
 7694              		.loc 1 164 0
 7695 0010 00E0A0E1 		mov	lr, r0
 7696 0014 0F00BCE8 		ldmia	ip!, {r0, r1, r2, r3}
 7697              	.LVL763:
 7698 0018 0F00AEE8 		stmia	lr!, {r0, r1, r2, r3}
 7699 001c 0F009CE8 		ldm	ip, {r0, r1, r2, r3}
 7700 0020 0F008EE8 		stm	lr, {r0, r1, r2, r3}
 165:../src/tensorflow_lite/tensorflow/lite/micro/kernels/prelu.cc **** }
 7701              		.loc 1 165 0
 7702 0024 0400A0E1 		mov	r0, r4
 7703 0028 1080BDE8 		pop	{r4, pc}
 7704              		.cfi_endproc
 7705              	.LFE4174:
 7706              		.cantunwind
 7707              		.fnend
 7709              		.section	.rodata
 7710              		.align	2
 7711              		.set	.LANCHOR1,. + 0
 7712              	.LC0:
 7713 0000 00000000 		.word	_ZN6tflite3ops5micro11activations9PreluInitEP13TfLiteContextPKcj
 7714 0004 00000000 		.word	0
 7715 0008 00000000 		.word	_ZN6tflite3ops5micro11activations12PreluPrepareEP13TfLiteContextP10TfLiteNode
 7716 000c 00000000 		.word	_ZN6tflite3ops5micro11activations9PreluEvalEP13TfLiteContextP10TfLiteNode
 7717 0010 00000000 		.word	0
 7718 0014 00000000 		.word	0
 7719 0018 00000000 		.word	0
 7720 001c 00000000 		.word	0
 7721              		.section	.rodata._ZN6tflite3ops5micro11activations12PreluPrepareEP13TfLiteContextP10TfLiteNode.str
 7722              		.align	2
 7723              	.LC1:
 7724 0000 2E2E2F73 		.ascii	"../src/tensorflow_lite/tensorflow/lite/micro/kernel"
 7724      72632F74 
 7724      656E736F 
 7724      72666C6F 
 7724      775F6C69 
 7725 0033 732F7072 		.ascii	"s/prelu.cc\000"
 7725      656C752E 
 7725      636300
 7726 003e 0000     		.space	2
 7727              	.LC2:
 7728 0040 25733A25 		.ascii	"%s:%d %s was not true.\000"
 7728      64202573 
 7728      20776173 
 7728      206E6F74 
 7728      20747275 
 7729 0057 00       		.space	1
 7730              	.LC3:
 7731 0058 696E7075 		.ascii	"input != nullptr\000"
 7731      7420213D 
 7731      206E756C 
 7731      6C707472 
 7731      00
 7732 0069 000000   		.space	3
 7733              	.LC4:
 7734 006c 616C7068 		.ascii	"alpha != nullptr\000"
 7734      6120213D 
 7734      206E756C 
 7734      6C707472 
 7734      00
 7735 007d 000000   		.space	3
 7736              	.LC5:
 7737 0080 6F757470 		.ascii	"output != nullptr\000"
 7737      75742021 
 7737      3D206E75 
 7737      6C6C7074 
 7737      7200
 7738              		.section	.rodata._ZN6tflite3ops5micro11activations9PreluEvalEP13TfLiteContextP10TfLiteNode.str1.4,
 7739              		.align	2
 7740              	.LC6:
 7741 0000 6578706F 		.ascii	"exponent <= 31\000"
 7741      6E656E74 
 7741      203C3D20 
 7741      333100
 7742 000f 00       		.space	1
 7743              	.LC7:
 7744 0010 433A2F52 		.ascii	"C:/Renesas/e2studio_2021_01_workspace_RZA2M_ANPR/AN"
 7744      656E6573 
 7744      61732F65 
 7744      32737475 
 7744      64696F5F 
 7745 0043 50525F52 		.ascii	"PR_RZA2M_EBK/src/tensorflow_lite/third_party/gemmlo"
 7745      5A41324D 
 7745      5F45424B 
 7745      2F737263 
 7745      2F74656E 
 7746 0076 77702F66 		.ascii	"wp/fixedpoint/fixedpoint.h\000"
 7746      69786564 
 7746      706F696E 
 7746      742F6669 
 7746      78656470 
 7747 0091 000000   		.space	3
 7748              	.LC8:
 7749 0094 4F6E6C79 		.ascii	"Only float32 and uint8_t are supported currently, g"
 7749      20666C6F 
 7749      61743332 
 7749      20616E64 
 7749      2075696E 
 7750 00c7 6F742025 		.ascii	"ot %d.\000"
 7750      642E00
 7751              		.section	.rodata._ZZN8gemmlowp19RoundingDivideByPOTIlEET_S1_iE19__PRETTY_FUNCTION__,"a",%progbits
 7752              		.align	3
 7753              		.set	.LANCHOR0,. + 0
 7756              	_ZZN8gemmlowp19RoundingDivideByPOTIlEET_S1_iE19__PRETTY_FUNCTION__:
 7757 0000 496E7465 		.ascii	"IntegerType gemmlowp::RoundingDivideByPOT(IntegerTy"
 7757      67657254 
 7757      79706520 
 7757      67656D6D 
 7757      6C6F7770 
 7758 0033 70652C20 		.ascii	"pe, int) [with IntegerType = long int]\000"
 7758      696E7429 
 7758      205B7769 
 7758      74682049 
 7758      6E746567 
 7759              		.text
 7760              	.Letext0:
 7761              		.file 8 "c:\\program files (x86)\\gnu tools arm embedded\\6 2017-q2-update\\arm-none-eabi\\include
 7762              		.file 9 "c:\\program files (x86)\\gnu tools arm embedded\\6 2017-q2-update\\arm-none-eabi\\include
 7763              		.file 10 "c:\\program files (x86)\\gnu tools arm embedded\\6 2017-q2-update\\arm-none-eabi\\includ
 7764              		.file 11 "c:\\program files (x86)\\gnu tools arm embedded\\6 2017-q2-update\\arm-none-eabi\\includ
 7765              		.file 12 "c:\\program files (x86)\\gnu tools arm embedded\\6 2017-q2-update\\arm-none-eabi\\includ
 7766              		.file 13 "c:\\program files (x86)\\gnu tools arm embedded\\6 2017-q2-update\\arm-none-eabi\\includ
 7767              		.file 14 "c:\\program files (x86)\\gnu tools arm embedded\\6 2017-q2-update\\arm-none-eabi\\includ
 7768              		.file 15 "c:\\program files (x86)\\gnu tools arm embedded\\6 2017-q2-update\\arm-none-eabi\\includ
 7769              		.file 16 "c:\\program files (x86)\\gnu tools arm embedded\\6 2017-q2-update\\arm-none-eabi\\includ
 7770              		.file 17 "c:\\program files (x86)\\gnu tools arm embedded\\6 2017-q2-update\\arm-none-eabi\\includ
 7771              		.file 18 "c:\\program files (x86)\\gnu tools arm embedded\\6 2017-q2-update\\arm-none-eabi\\includ
 7772              		.file 19 "c:\\program files (x86)\\gnu tools arm embedded\\6 2017-q2-update\\arm-none-eabi\\includ
 7773              		.file 20 "c:\\program files (x86)\\gnu tools arm embedded\\6 2017-q2-update\\arm-none-eabi\\includ
 7774              		.file 21 "c:\\program files (x86)\\gnu tools arm embedded\\6 2017-q2-update\\arm-none-eabi\\includ
 7775              		.file 22 "c:\\program files (x86)\\gnu tools arm embedded\\6 2017-q2-update\\arm-none-eabi\\includ
 7776              		.file 23 "c:\\program files (x86)\\gnu tools arm embedded\\6 2017-q2-update\\arm-none-eabi\\includ
 7777              		.file 24 "c:\\program files (x86)\\gnu tools arm embedded\\6 2017-q2-update\\arm-none-eabi\\includ
 7778              		.file 25 "c:\\program files (x86)\\gnu tools arm embedded\\6 2017-q2-update\\arm-none-eabi\\includ
 7779              		.file 26 "c:\\program files (x86)\\gnu tools arm embedded\\6 2017-q2-update\\arm-none-eabi\\includ
 7780              		.file 27 "c:\\program files (x86)\\gnu tools arm embedded\\6 2017-q2-update\\arm-none-eabi\\includ
 7781              		.file 28 "c:\\program files (x86)\\gnu tools arm embedded\\6 2017-q2-update\\arm-none-eabi\\includ
 7782              		.file 29 "c:\\program files (x86)\\gnu tools arm embedded\\6 2017-q2-update\\arm-none-eabi\\includ
 7783              		.file 30 "c:\\program files (x86)\\gnu tools arm embedded\\6 2017-q2-update\\lib\\gcc\\arm-none-ea
 7784              		.file 31 "c:\\program files (x86)\\gnu tools arm embedded\\6 2017-q2-update\\arm-none-eabi\\includ
 7785              		.file 32 "c:\\program files (x86)\\gnu tools arm embedded\\6 2017-q2-update\\arm-none-eabi\\includ
 7786              		.file 33 "c:\\program files (x86)\\gnu tools arm embedded\\6 2017-q2-update\\arm-none-eabi\\includ
 7787              		.file 34 "c:\\program files (x86)\\gnu tools arm embedded\\6 2017-q2-update\\arm-none-eabi\\includ
 7788              		.file 35 "c:\\program files (x86)\\gnu tools arm embedded\\6 2017-q2-update\\lib\\gcc\\arm-none-ea
 7789              		.file 36 "<built-in>"
 7790              		.file 37 "c:\\program files (x86)\\gnu tools arm embedded\\6 2017-q2-update\\arm-none-eabi\\includ
 7791              		.file 38 "c:\\program files (x86)\\gnu tools arm embedded\\6 2017-q2-update\\arm-none-eabi\\includ
 7792              		.file 39 "c:\\program files (x86)\\gnu tools arm embedded\\6 2017-q2-update\\arm-none-eabi\\includ
 7793              		.file 40 "c:\\program files (x86)\\gnu tools arm embedded\\6 2017-q2-update\\arm-none-eabi\\includ
 7794              		.file 41 "c:\\program files (x86)\\gnu tools arm embedded\\6 2017-q2-update\\arm-none-eabi\\includ
 7795              		.file 42 "c:\\program files (x86)\\gnu tools arm embedded\\6 2017-q2-update\\arm-none-eabi\\includ
 7796              		.file 43 "c:\\program files (x86)\\gnu tools arm embedded\\6 2017-q2-update\\arm-none-eabi\\includ
 7797              		.file 44 "c:\\program files (x86)\\gnu tools arm embedded\\6 2017-q2-update\\arm-none-eabi\\includ
 7798              		.file 45 "c:\\program files (x86)\\gnu tools arm embedded\\6 2017-q2-update\\arm-none-eabi\\includ
 7799              		.file 46 "c:\\program files (x86)\\gnu tools arm embedded\\6 2017-q2-update\\arm-none-eabi\\includ
 7800              		.file 47 "C:/Renesas/e2studio_2021_01_workspace_RZA2M_ANPR/ANPR_RZA2M_EBK/src/tensorflow_lite/tens
 7801              		.file 48 "C:/Renesas/e2studio_2021_01_workspace_RZA2M_ANPR/ANPR_RZA2M_EBK/src/tensorflow_lite/tens
 7802              		.file 49 "C:/Renesas/e2studio_2021_01_workspace_RZA2M_ANPR/ANPR_RZA2M_EBK/src/tensorflow_lite/tens
 7803              		.file 50 "C:/Renesas/e2studio_2021_01_workspace_RZA2M_ANPR/ANPR_RZA2M_EBK/src/tensorflow_lite/tens
 7804              		.file 51 "C:/Renesas/e2studio_2021_01_workspace_RZA2M_ANPR/ANPR_RZA2M_EBK/src/tensorflow_lite/tens
 7805              		.file 52 "c:\\program files (x86)\\gnu tools arm embedded\\6 2017-q2-update\\arm-none-eabi\\includ
DEFINED SYMBOLS
                            *ABS*:00000000 prelu.cc
C:\Users\a5050395\AppData\Local\Temp\ccV4284C.s:17     .text._ZN6tflite3ops5micro11activations9PreluInitEP13TfLiteContextPKcj:00000000 $a
C:\Users\a5050395\AppData\Local\Temp\ccV4284C.s:23     .text._ZN6tflite3ops5micro11activations9PreluInitEP13TfLiteContextPKcj:00000000 _ZN6tflite3ops5micro11activations9PreluInitEP13TfLiteContextPKcj
.ARM.exidx.text._ZN6tflite3ops5micro11activations9PreluInitEP13TfLiteContextPKcj:00000000 $d
C:\Users\a5050395\AppData\Local\Temp\ccV4284C.s:56     .text._ZN6tflite3ops5micro11activations12PreluPrepareEP13TfLiteContextP10TfLiteNode:00000000 $a
C:\Users\a5050395\AppData\Local\Temp\ccV4284C.s:62     .text._ZN6tflite3ops5micro11activations12PreluPrepareEP13TfLiteContextP10TfLiteNode:00000000 _ZN6tflite3ops5micro11activations12PreluPrepareEP13TfLiteContextP10TfLiteNode
C:\Users\a5050395\AppData\Local\Temp\ccV4284C.s:7730   .rodata._ZN6tflite3ops5micro11activations12PreluPrepareEP13TfLiteContextP10TfLiteNode.str1.4:00000058 .LC3
C:\Users\a5050395\AppData\Local\Temp\ccV4284C.s:7723   .rodata._ZN6tflite3ops5micro11activations12PreluPrepareEP13TfLiteContextP10TfLiteNode.str1.4:00000000 .LC1
C:\Users\a5050395\AppData\Local\Temp\ccV4284C.s:7727   .rodata._ZN6tflite3ops5micro11activations12PreluPrepareEP13TfLiteContextP10TfLiteNode.str1.4:00000040 .LC2
C:\Users\a5050395\AppData\Local\Temp\ccV4284C.s:7733   .rodata._ZN6tflite3ops5micro11activations12PreluPrepareEP13TfLiteContextP10TfLiteNode.str1.4:0000006c .LC4
C:\Users\a5050395\AppData\Local\Temp\ccV4284C.s:7736   .rodata._ZN6tflite3ops5micro11activations12PreluPrepareEP13TfLiteContextP10TfLiteNode.str1.4:00000080 .LC5
.ARM.extab.text._ZN6tflite3ops5micro11activations12PreluPrepareEP13TfLiteContextP10TfLiteNode:00000000 $d
.ARM.exidx.text._ZN6tflite3ops5micro11activations12PreluPrepareEP13TfLiteContextP10TfLiteNode:00000000 $d
C:\Users\a5050395\AppData\Local\Temp\ccV4284C.s:304    .text._ZN6tflite3ops5micro11activations9PreluEvalEP13TfLiteContextP10TfLiteNode:00000000 $a
C:\Users\a5050395\AppData\Local\Temp\ccV4284C.s:310    .text._ZN6tflite3ops5micro11activations9PreluEvalEP13TfLiteContextP10TfLiteNode:00000000 _ZN6tflite3ops5micro11activations9PreluEvalEP13TfLiteContextP10TfLiteNode
C:\Users\a5050395\AppData\Local\Temp\ccV4284C.s:7748   .rodata._ZN6tflite3ops5micro11activations9PreluEvalEP13TfLiteContextP10TfLiteNode.str1.4:00000094 .LC8
C:\Users\a5050395\AppData\Local\Temp\ccV4284C.s:3000   .text._ZN6tflite3ops5micro11activations9PreluEvalEP13TfLiteContextP10TfLiteNode:00000f00 $d
C:\Users\a5050395\AppData\Local\Temp\ccV4284C.s:3011   .text._ZN6tflite3ops5micro11activations9PreluEvalEP13TfLiteContextP10TfLiteNode:00000f08 $a
C:\Users\a5050395\AppData\Local\Temp\ccV4284C.s:7740   .rodata._ZN6tflite3ops5micro11activations9PreluEvalEP13TfLiteContextP10TfLiteNode.str1.4:00000000 .LC6
C:\Users\a5050395\AppData\Local\Temp\ccV4284C.s:7753   .rodata._ZZN8gemmlowp19RoundingDivideByPOTIlEET_S1_iE19__PRETTY_FUNCTION__:00000000 .LANCHOR0
C:\Users\a5050395\AppData\Local\Temp\ccV4284C.s:7743   .rodata._ZN6tflite3ops5micro11activations9PreluEvalEP13TfLiteContextP10TfLiteNode.str1.4:00000010 .LC7
.ARM.extab.text._ZN6tflite3ops5micro11activations9PreluEvalEP13TfLiteContextP10TfLiteNode:00000000 $d
.ARM.exidx.text._ZN6tflite3ops5micro11activations9PreluEvalEP13TfLiteContextP10TfLiteNode:00000000 $d
C:\Users\a5050395\AppData\Local\Temp\ccV4284C.s:7669   .text._ZN6tflite3ops5micro14Register_PRELUEv:00000000 $a
C:\Users\a5050395\AppData\Local\Temp\ccV4284C.s:7675   .text._ZN6tflite3ops5micro14Register_PRELUEv:00000000 _ZN6tflite3ops5micro14Register_PRELUEv
C:\Users\a5050395\AppData\Local\Temp\ccV4284C.s:7711   .rodata:00000000 .LANCHOR1
.ARM.exidx.text._ZN6tflite3ops5micro14Register_PRELUEv:00000000 $d
C:\Users\a5050395\AppData\Local\Temp\ccV4284C.s:7710   .rodata:00000000 $d
C:\Users\a5050395\AppData\Local\Temp\ccV4284C.s:7722   .rodata._ZN6tflite3ops5micro11activations12PreluPrepareEP13TfLiteContextP10TfLiteNode.str1.4:00000000 $d
C:\Users\a5050395\AppData\Local\Temp\ccV4284C.s:7739   .rodata._ZN6tflite3ops5micro11activations9PreluEvalEP13TfLiteContextP10TfLiteNode.str1.4:00000000 $d
C:\Users\a5050395\AppData\Local\Temp\ccV4284C.s:7752   .rodata._ZZN8gemmlowp19RoundingDivideByPOTIlEET_S1_iE19__PRETTY_FUNCTION__:00000000 $d
C:\Users\a5050395\AppData\Local\Temp\ccV4284C.s:7756   .rodata._ZZN8gemmlowp19RoundingDivideByPOTIlEET_S1_iE19__PRETTY_FUNCTION__:00000000 _ZZN8gemmlowp19RoundingDivideByPOTIlEET_S1_iE19__PRETTY_FUNCTION__
                     .debug_frame:00000010 $d
                           .group:00000000 wm4.0.3e1481985cce1e923928453d8be0a65b
                           .group:00000000 wm4.cconfig.h.31.1472b8c7bd4952a63a52f3f4f718f872
                           .group:00000000 wm4.cpu_defines.h.31.54d44f9d3e7c42875c5a7fd49795eb93
                           .group:00000000 wm4.cconfig.h.515.5e729db314ae74226e291b4ae081e353
                           .group:00000000 wm4.atomic_lockfree_defines.h.31.d5c6334fb1e95c9462b052951f1411df
                           .group:00000000 wm4.exception_defines.h.31.ca6841b9be3287386aafc5c717935b2e
                           .group:00000000 wm4.concept_check.h.31.f19605d278e56917c68a56d378be308c
                           .group:00000000 wm4.type_traits.30.2c7323a483bcd7601e8b71d2546ae284
                           .group:00000000 wm4.move.h.152.41d7b9e6779674d169b7813982cfa003
                           .group:00000000 wm4.cpp_type_traits.h.33.9f2bfd8c4471a9a299f6da3ec24c745c
                           .group:00000000 wm4.numeric_traits.h.30.aa01a98564b7e55086aad9e53c7e5c53
                           .group:00000000 wm4.assertions.h.30.51d443923f0d242550e04246a7819b39
                           .group:00000000 wm4.stl_iterator.h.1250.45f349a262f1b0d836d8edbc4b7b98ff
                           .group:00000000 wm4.debug.h.30.5c1f223b12199e851d4d42805b788ccf
                           .group:00000000 wm4.stl_algobase.h.491.aa250b69c90aafa2a0a62b8c58cd5f30
                           .group:00000000 wm4._newlib_version.h.4.3572908597b70d672d181fc7fc501c19
                           .group:00000000 wm4.newlib.h.21.59901f4bf241ab46c63694665baa7297
                           .group:00000000 wm4.features.h.22.37852b648068a281464730a5a4cc748e
                           .group:00000000 wm4.config.h.219.65a553ab5bef5482f0d7880b0d33015e
                           .group:00000000 wm4._ansi.h.23.1ee1144430bedaab1a14c7b57a6c8384
                           .group:00000000 wm4.stddef.h.39.fa2e86d241f4df50b9327c72832885e1
                           .group:00000000 wm4._default_types.h.6.959254cf5f09734ea7516c89e8bb21bd
                           .group:00000000 wm4.lock.h.2.1461d1fff82dffe8bfddc23307f6484f
                           .group:00000000 wm4._types.h.125.5cf8a495f1f7ef36777ad868a1e32068
                           .group:00000000 wm4.stddef.h.161.7e98c9c86da0ed2d27af2ef92af7d013
                           .group:00000000 wm4._types.h.183.c226d164ceca1f2ecb9ae9360c54a098
                           .group:00000000 wm4.reent.h.17.23b059516345f8f5abfa01ddc379570f
                           .group:00000000 wm4.wchar.h.8.acdef4366e64def8c588421024712d23
                           .group:00000000 wm4.stddef.h.161.9f48187563b2a85291a91832aa425498
                           .group:00000000 wm4.cdefs.h.47.9bc8274c84fddbf05edd550eb0bf48cd
                           .group:00000000 wm4.stdarg.h.34.3a23a216c0c293b3d2ea2e89281481e6
                           .group:00000000 wm4.wchar.h.41.bce54f0deafe8a72ebb0005417e8a086
                           .group:00000000 wm4.cwchar.48.c4e882638bf84f6da89479dda6fe8e17
                           .group:00000000 wm4.stdint.h.4.659be5aa44c4ab4eb7c7cc2b24d8ceee
                           .group:00000000 wm4._intsup.h.10.cce27fed8484c08a33f522034c30d2b5
                           .group:00000000 wm4._stdint.h.10.c24fa3af3bc1706662bb5593a907e841
                           .group:00000000 wm4.stdint.h.23.4c107c5a20920bfc6e94fb2672bbd9ee
                           .group:00000000 wm4.allocator.h.52.0ceafb36dc1b82dbfa6b05003082e3f5
                           .group:00000000 wm4.stddef.h.161.38688f2eb958a8ed58fdb61ffe554c94
                           .group:00000000 wm4.locale.h.16.524572cf3c2ed9856516685acdc598fe
                           .group:00000000 wm4.clocale.45.c36d2d5b631a875aa5273176b54fdf0f
                           .group:00000000 wm4.ctype.h.2.da310d2ad165ccf8b86542f76fdb938d
                           .group:00000000 wm4.cctype.45.0da5714876b0be7f2d816b53d9670403
                           .group:00000000 wm4.gthr.h.27.ceb1c66b926f052afcba57e8784df0d4
                           .group:00000000 wm4.gthrdefault.h.27.edc94d4398c0534988962be77dc3c2e1
                           .group:00000000 wm4.atomic_word.h.30.9e0ac69fd462d5e650933e05133b4afa
                           .group:00000000 wm4.alloc_traits.h.31.c41c7c4789404962122a4e991dfa3abf
                           .group:00000000 wm4.cstdlib.44.52c5efdfb0f3c176bd11e611a0b94959
                           .group:00000000 wm4.stdlib.h.13.4ed386f5c1a80d71e72172885d946ef2
                           .group:00000000 wm4.stdlib.h.56.b4ddaf162082f284ba35b4444af99a9a
                           .group:00000000 wm4.cstdlib.76.ae666499c8f9b0ace1b4b23fe143da2c
                           .group:00000000 wm4.stdio.h.27.3fc80220048df77954e38daec3bb9670
                           .group:00000000 wm4.types.h.40.e8c16e7ec36ba55f133d0616070e25fc
                           .group:00000000 wm4.types.h.114.fb65732f4f5f288a036a25898de2c91f
                           .group:00000000 wm4.stdio.h.2.4aa87247282eca6c8f36f9de33d8df1a
                           .group:00000000 wm4.stdio.h.81.c3e9cb15e5af2807c4650345134c1a8a
                           .group:00000000 wm4.cstdio.45.ba8d321feb18bfc8923454067605c368
                           .group:00000000 wm4.errno.h.2.ba016d646105af6cad23be83630b6a3f
                           .group:00000000 wm4.errno.h.9.1ecd7b1049497a0ab61da0f6cbd4b0c6
                           .group:00000000 wm4.functional_hash.h.31.bccc014fee6fc3f930045d809df6f486
                           .group:00000000 wm4.functional.549.0bc5b448cf999863d3841495cd6fe920
                           .group:00000000 wm4.limits.38.55aefcf041805b6211ca3649dd2ab1b5
                           .group:00000000 wm4.assert.h.11.a5d97ca77559a42890313c4941c01fd9
                           .group:00000000 wm4.math.h.13.e7cbdea54f4da98ab8f7fad4d23502b2
                           .group:00000000 wm4.cmath.46.d6e5b776115d39075860ed881d18f087
                           .group:00000000 wm4.detect_platform.h.19.a1891273c0cad215067ddb8219400136
                           .group:00000000 wm4.fixedpoint.h.567.8a6371d9452be19811601bace78b0abc
                           .group:00000000 wm4.cmath.44.b3bcbb5fe53ec6617dec8aa8eb7b03cc
                           .group:00000000 wm4.cppmath.h.27.51580d700716589df4b364298e2ef577
                           .group:00000000 wm4.neon_check.h.16.79a4dcb572cbeac06c4924f1f20cb68d
                           .group:00000000 wm4.string.h.8.c4b8571ce60dff2817f43fec8b86aecd
                           .group:00000000 wm4.cstring.45.6ab09de7fb97b576e744347688ddc8d7
                           .group:00000000 wm4.op_macros.h.42.7b718cb416a067e7bb07e7699647769b
                           .group:00000000 wm4.compatibility.h.23.702d6356326ea59aded8ef5c6c4626d5
                           .group:00000000 wm4.stdbool.h.29.01580e438512fc255c0619569742ffd3
                           .group:00000000 wm4.c_api_types.h.20.9b09175981ed746180e205cc0b4b2bfd
                           .group:00000000 wm4.common.h.77.124de099ec0ac4f95ebf1618a5f42cf6
                           .group:00000000 wm4.builtin_op_data.h.16.b961d1222c948363e3f10ad99298fd3f

UNDEFINED SYMBOLS
abort
__aeabi_unwind_cpp_pr0
_ZN6tflite8GetInputEPK13TfLiteContextPK10TfLiteNodei
_ZN6tflite9GetOutputEP13TfLiteContextPK10TfLiteNodei
_ZN6tflite18QuantizeMultiplierEdPlPi
__aeabi_unwind_cpp_pr1
__gxx_personality_v0
TfLiteTypeGetName
_ZN6tflite5micro14GetTensorShapeEPK16TfLiteEvalTensor
memcpy
_ZdaPv
__cxa_end_cleanup
__assert_func
