   1              		.cpu cortex-a9
   2              		.eabi_attribute 28, 1
   3              		.eabi_attribute 20, 1
   4              		.eabi_attribute 21, 1
   5              		.eabi_attribute 23, 3
   6              		.eabi_attribute 24, 1
   7              		.eabi_attribute 25, 1
   8              		.eabi_attribute 26, 1
   9              		.eabi_attribute 30, 2
  10              		.eabi_attribute 34, 0
  11              		.eabi_attribute 18, 4
  12              		.file	"prelu.cc"
  13              		.text
  14              	.Ltext0:
  15              		.cfi_sections	.debug_frame
  16              		.section	.text._ZN6tflite3ops5micro11activations9PreluInitEP13TfLiteContextPKcj,"ax",%progbits
  17              		.align	2
  18              		.global	_ZN6tflite3ops5micro11activations9PreluInitEP13TfLiteContextPKcj
  19              		.syntax unified
  20              		.arm
  21              		.fpu neon
  23              	_ZN6tflite3ops5micro11activations9PreluInitEP13TfLiteContextPKcj:
  24              		.fnstart
  25              	.LFB4171:
  26              		.file 1 "../src/tensorflow_lite/tensorflow/lite/micro/kernels/prelu.cc"
   1:../src/tensorflow_lite/tensorflow/lite/micro/kernels/prelu.cc **** /* Copyright 2019 The TensorFlow Authors. All Rights Reserved.
   2:../src/tensorflow_lite/tensorflow/lite/micro/kernels/prelu.cc **** 
   3:../src/tensorflow_lite/tensorflow/lite/micro/kernels/prelu.cc **** Licensed under the Apache License, Version 2.0 (the "License");
   4:../src/tensorflow_lite/tensorflow/lite/micro/kernels/prelu.cc **** you may not use this file except in compliance with the License.
   5:../src/tensorflow_lite/tensorflow/lite/micro/kernels/prelu.cc **** You may obtain a copy of the License at
   6:../src/tensorflow_lite/tensorflow/lite/micro/kernels/prelu.cc **** 
   7:../src/tensorflow_lite/tensorflow/lite/micro/kernels/prelu.cc ****     http://www.apache.org/licenses/LICENSE-2.0
   8:../src/tensorflow_lite/tensorflow/lite/micro/kernels/prelu.cc **** 
   9:../src/tensorflow_lite/tensorflow/lite/micro/kernels/prelu.cc **** Unless required by applicable law or agreed to in writing, software
  10:../src/tensorflow_lite/tensorflow/lite/micro/kernels/prelu.cc **** distributed under the License is distributed on an "AS IS" BASIS,
  11:../src/tensorflow_lite/tensorflow/lite/micro/kernels/prelu.cc **** WITHOUT WARRANTIES OR CONDITIONS OF ANY KIND, either express or implied.
  12:../src/tensorflow_lite/tensorflow/lite/micro/kernels/prelu.cc **** See the License for the specific language governing permissions and
  13:../src/tensorflow_lite/tensorflow/lite/micro/kernels/prelu.cc **** limitations under the License.
  14:../src/tensorflow_lite/tensorflow/lite/micro/kernels/prelu.cc **** ==============================================================================*/
  15:../src/tensorflow_lite/tensorflow/lite/micro/kernels/prelu.cc **** 
  16:../src/tensorflow_lite/tensorflow/lite/micro/kernels/prelu.cc **** #include "tensorflow/lite/kernels/internal/reference/prelu.h"
  17:../src/tensorflow_lite/tensorflow/lite/micro/kernels/prelu.cc **** 
  18:../src/tensorflow_lite/tensorflow/lite/micro/kernels/prelu.cc **** #include <cstdint>
  19:../src/tensorflow_lite/tensorflow/lite/micro/kernels/prelu.cc **** 
  20:../src/tensorflow_lite/tensorflow/lite/micro/kernels/prelu.cc **** #include "tensorflow/lite/c/common.h"
  21:../src/tensorflow_lite/tensorflow/lite/micro/kernels/prelu.cc **** #include "tensorflow/lite/kernels/internal/quantization_util.h"
  22:../src/tensorflow_lite/tensorflow/lite/micro/kernels/prelu.cc **** #include "tensorflow/lite/kernels/internal/tensor_ctypes.h"
  23:../src/tensorflow_lite/tensorflow/lite/micro/kernels/prelu.cc **** #include "tensorflow/lite/kernels/kernel_util.h"
  24:../src/tensorflow_lite/tensorflow/lite/micro/kernels/prelu.cc **** #include "tensorflow/lite/micro/kernels/kernel_util.h"
  25:../src/tensorflow_lite/tensorflow/lite/micro/kernels/prelu.cc **** 
  26:../src/tensorflow_lite/tensorflow/lite/micro/kernels/prelu.cc **** namespace tflite {
  27:../src/tensorflow_lite/tensorflow/lite/micro/kernels/prelu.cc **** namespace ops {
  28:../src/tensorflow_lite/tensorflow/lite/micro/kernels/prelu.cc **** namespace micro {
  29:../src/tensorflow_lite/tensorflow/lite/micro/kernels/prelu.cc **** namespace activations {
  30:../src/tensorflow_lite/tensorflow/lite/micro/kernels/prelu.cc **** namespace {
  31:../src/tensorflow_lite/tensorflow/lite/micro/kernels/prelu.cc **** 
  32:../src/tensorflow_lite/tensorflow/lite/micro/kernels/prelu.cc **** TfLiteStatus CalculatePreluParams(const TfLiteTensor* input,
  33:../src/tensorflow_lite/tensorflow/lite/micro/kernels/prelu.cc ****                                   const TfLiteTensor* alpha,
  34:../src/tensorflow_lite/tensorflow/lite/micro/kernels/prelu.cc ****                                   TfLiteTensor* output, PreluParams* params) {
  35:../src/tensorflow_lite/tensorflow/lite/micro/kernels/prelu.cc ****   if (output->type == kTfLiteInt8 || output->type == kTfLiteUInt8 ||
  36:../src/tensorflow_lite/tensorflow/lite/micro/kernels/prelu.cc ****       output->type == kTfLiteInt16) {
  37:../src/tensorflow_lite/tensorflow/lite/micro/kernels/prelu.cc ****     double real_multiplier_1 = static_cast<double>(input->params.scale) /
  38:../src/tensorflow_lite/tensorflow/lite/micro/kernels/prelu.cc ****                                static_cast<double>(output->params.scale);
  39:../src/tensorflow_lite/tensorflow/lite/micro/kernels/prelu.cc ****     double real_multiplier_2 = static_cast<double>(input->params.scale) *
  40:../src/tensorflow_lite/tensorflow/lite/micro/kernels/prelu.cc ****                                static_cast<double>(alpha->params.scale) /
  41:../src/tensorflow_lite/tensorflow/lite/micro/kernels/prelu.cc ****                                static_cast<double>(output->params.scale);
  42:../src/tensorflow_lite/tensorflow/lite/micro/kernels/prelu.cc ****     QuantizeMultiplier(real_multiplier_1, &params->output_multiplier_1,
  43:../src/tensorflow_lite/tensorflow/lite/micro/kernels/prelu.cc ****                        &params->output_shift_1);
  44:../src/tensorflow_lite/tensorflow/lite/micro/kernels/prelu.cc ****     QuantizeMultiplier(real_multiplier_2, &params->output_multiplier_2,
  45:../src/tensorflow_lite/tensorflow/lite/micro/kernels/prelu.cc ****                        &params->output_shift_2);
  46:../src/tensorflow_lite/tensorflow/lite/micro/kernels/prelu.cc **** 
  47:../src/tensorflow_lite/tensorflow/lite/micro/kernels/prelu.cc ****     params->input_offset = -input->params.zero_point;
  48:../src/tensorflow_lite/tensorflow/lite/micro/kernels/prelu.cc ****     params->alpha_offset = -alpha->params.zero_point;
  49:../src/tensorflow_lite/tensorflow/lite/micro/kernels/prelu.cc ****     params->output_offset = output->params.zero_point;
  50:../src/tensorflow_lite/tensorflow/lite/micro/kernels/prelu.cc ****   }
  51:../src/tensorflow_lite/tensorflow/lite/micro/kernels/prelu.cc **** 
  52:../src/tensorflow_lite/tensorflow/lite/micro/kernels/prelu.cc ****   return kTfLiteOk;
  53:../src/tensorflow_lite/tensorflow/lite/micro/kernels/prelu.cc **** }
  54:../src/tensorflow_lite/tensorflow/lite/micro/kernels/prelu.cc **** 
  55:../src/tensorflow_lite/tensorflow/lite/micro/kernels/prelu.cc **** }  // namespace
  56:../src/tensorflow_lite/tensorflow/lite/micro/kernels/prelu.cc **** 
  57:../src/tensorflow_lite/tensorflow/lite/micro/kernels/prelu.cc **** inline void BroadcastPrelu4DSlowFloat(
  58:../src/tensorflow_lite/tensorflow/lite/micro/kernels/prelu.cc ****     const RuntimeShape& unextended_input1_shape, const float* input1_data,
  59:../src/tensorflow_lite/tensorflow/lite/micro/kernels/prelu.cc ****     const RuntimeShape& unextended_input2_shape, const float* input2_data,
  60:../src/tensorflow_lite/tensorflow/lite/micro/kernels/prelu.cc ****     const RuntimeShape& unextended_output_shape, float* output_data) {
  61:../src/tensorflow_lite/tensorflow/lite/micro/kernels/prelu.cc ****   TFLITE_DCHECK_LE(unextended_input1_shape.DimensionsCount(), 4);
  62:../src/tensorflow_lite/tensorflow/lite/micro/kernels/prelu.cc ****   TFLITE_DCHECK_LE(unextended_input2_shape.DimensionsCount(), 4);
  63:../src/tensorflow_lite/tensorflow/lite/micro/kernels/prelu.cc ****   TFLITE_DCHECK_LE(unextended_output_shape.DimensionsCount(), 4);
  64:../src/tensorflow_lite/tensorflow/lite/micro/kernels/prelu.cc ****   const RuntimeShape output_shape =
  65:../src/tensorflow_lite/tensorflow/lite/micro/kernels/prelu.cc ****       RuntimeShape::ExtendedShape(4, unextended_output_shape);
  66:../src/tensorflow_lite/tensorflow/lite/micro/kernels/prelu.cc **** 
  67:../src/tensorflow_lite/tensorflow/lite/micro/kernels/prelu.cc ****   NdArrayDesc<4> desc1;
  68:../src/tensorflow_lite/tensorflow/lite/micro/kernels/prelu.cc ****   NdArrayDesc<4> desc2;
  69:../src/tensorflow_lite/tensorflow/lite/micro/kernels/prelu.cc ****   NdArrayDescsForElementwiseBroadcast(unextended_input1_shape,
  70:../src/tensorflow_lite/tensorflow/lite/micro/kernels/prelu.cc ****                                       unextended_input2_shape, &desc1, &desc2);
  71:../src/tensorflow_lite/tensorflow/lite/micro/kernels/prelu.cc **** 
  72:../src/tensorflow_lite/tensorflow/lite/micro/kernels/prelu.cc ****   for (int b = 0; b < output_shape.Dims(0); ++b) {
  73:../src/tensorflow_lite/tensorflow/lite/micro/kernels/prelu.cc ****     for (int y = 0; y < output_shape.Dims(1); ++y) {
  74:../src/tensorflow_lite/tensorflow/lite/micro/kernels/prelu.cc ****       for (int x = 0; x < output_shape.Dims(2); ++x) {
  75:../src/tensorflow_lite/tensorflow/lite/micro/kernels/prelu.cc ****         for (int c = 0; c < output_shape.Dims(3); ++c) {
  76:../src/tensorflow_lite/tensorflow/lite/micro/kernels/prelu.cc ****           auto out_idx = Offset(output_shape, b, y, x, c);
  77:../src/tensorflow_lite/tensorflow/lite/micro/kernels/prelu.cc ****           auto in1_idx = SubscriptToIndex(desc1, b, y, x, c);
  78:../src/tensorflow_lite/tensorflow/lite/micro/kernels/prelu.cc ****           auto in2_idx = SubscriptToIndex(desc2, b, y, x, c);
  79:../src/tensorflow_lite/tensorflow/lite/micro/kernels/prelu.cc ****           auto in1_val = input1_data[in1_idx];
  80:../src/tensorflow_lite/tensorflow/lite/micro/kernels/prelu.cc ****           auto in2_val = input2_data[in2_idx];
  81:../src/tensorflow_lite/tensorflow/lite/micro/kernels/prelu.cc ****           output_data[out_idx] = in1_val >= 0.0f ? in1_val : in1_val * in2_val;
  82:../src/tensorflow_lite/tensorflow/lite/micro/kernels/prelu.cc ****         }
  83:../src/tensorflow_lite/tensorflow/lite/micro/kernels/prelu.cc ****       }
  84:../src/tensorflow_lite/tensorflow/lite/micro/kernels/prelu.cc ****     }
  85:../src/tensorflow_lite/tensorflow/lite/micro/kernels/prelu.cc ****   }
  86:../src/tensorflow_lite/tensorflow/lite/micro/kernels/prelu.cc **** }
  87:../src/tensorflow_lite/tensorflow/lite/micro/kernels/prelu.cc **** 
  88:../src/tensorflow_lite/tensorflow/lite/micro/kernels/prelu.cc **** void* PreluInit(TfLiteContext* context, const char* buffer, size_t length) {
  27              		.loc 1 88 0
  28              		.cfi_startproc
  29              		@ args = 0, pretend = 0, frame = 0
  30              		@ frame_needed = 0, uses_anonymous_args = 0
  31              	.LVL0:
  89:../src/tensorflow_lite/tensorflow/lite/micro/kernels/prelu.cc ****   TFLITE_DCHECK(context->AllocatePersistentBuffer != nullptr);
  32              		.loc 1 89 0
  33 0000 383090E5 		ldr	r3, [r0, #56]
  34 0004 000053E3 		cmp	r3, #0
  35 0008 0100000A 		beq	.L7
  90:../src/tensorflow_lite/tensorflow/lite/micro/kernels/prelu.cc ****   return context->AllocatePersistentBuffer(context, sizeof(PreluParams));
  36              		.loc 1 90 0
  37 000c 1C10A0E3 		mov	r1, #28
  38              	.LVL1:
  39 0010 13FF2FE1 		bx	r3
  40              	.LVL2:
  41              	.L7:
  88:../src/tensorflow_lite/tensorflow/lite/micro/kernels/prelu.cc ****   TFLITE_DCHECK(context->AllocatePersistentBuffer != nullptr);
  42              		.loc 1 88 0 discriminator 1
  43 0014 10402DE9 		push	{r4, lr}
  44              		.save {r4, lr}
  45              		.cfi_def_cfa_offset 8
  46              		.cfi_offset 4, -8
  47              		.cfi_offset 14, -4
  89:../src/tensorflow_lite/tensorflow/lite/micro/kernels/prelu.cc ****   TFLITE_DCHECK(context->AllocatePersistentBuffer != nullptr);
  48              		.loc 1 89 0 discriminator 1
  49 0018 FEFFFFEB 		bl	abort
  50              	.LVL3:
  51              		.cfi_endproc
  52              	.LFE4171:
  53              		.fnend
  55              		.section	.text._ZN6tflite3ops5micro11activations12PreluPrepareEP13TfLiteContextP10TfLiteNode,"ax",
  56              		.align	2
  57              		.global	_ZN6tflite3ops5micro11activations12PreluPrepareEP13TfLiteContextP10TfLiteNode
  58              		.syntax unified
  59              		.arm
  60              		.fpu neon
  62              	_ZN6tflite3ops5micro11activations12PreluPrepareEP13TfLiteContextP10TfLiteNode:
  63              		.fnstart
  64              	.LFB4172:
  91:../src/tensorflow_lite/tensorflow/lite/micro/kernels/prelu.cc **** }
  92:../src/tensorflow_lite/tensorflow/lite/micro/kernels/prelu.cc **** 
  93:../src/tensorflow_lite/tensorflow/lite/micro/kernels/prelu.cc **** TfLiteStatus PreluPrepare(TfLiteContext* context, TfLiteNode* node) {
  65              		.loc 1 93 0
  66              		.cfi_startproc
  67              		@ args = 0, pretend = 0, frame = 0
  68              		@ frame_needed = 0, uses_anonymous_args = 0
  69              	.LVL4:
  70 0000 F0412DE9 		push	{r4, r5, r6, r7, r8, lr}
  71              		.save {r4, r5, r6, r7, r8, lr}
  72              		.cfi_def_cfa_offset 24
  73              		.cfi_offset 4, -24
  74              		.cfi_offset 5, -20
  75              		.cfi_offset 6, -16
  76              		.cfi_offset 7, -12
  77              		.cfi_offset 8, -8
  78              		.cfi_offset 14, -4
  94:../src/tensorflow_lite/tensorflow/lite/micro/kernels/prelu.cc ****   TFLITE_DCHECK(node->user_data != nullptr);
  79              		.loc 1 94 0
  80 0004 104091E5 		ldr	r4, [r1, #16]
  93:../src/tensorflow_lite/tensorflow/lite/micro/kernels/prelu.cc ****   TFLITE_DCHECK(node->user_data != nullptr);
  81              		.loc 1 93 0
  82 0008 028B2DED 		vpush.64	{d8}
  83              		.vsave {d8}
  84              		.cfi_def_cfa_offset 32
  85              		.cfi_offset 80, -32
  86              		.cfi_offset 81, -28
  87              		.pad #8
  88 000c 08D04DE2 		sub	sp, sp, #8
  89              		.cfi_def_cfa_offset 40
  90              		.loc 1 94 0
  91 0010 000054E3 		cmp	r4, #0
  92 0014 6000000A 		beq	.L16
  93              	.LVL5:
  95:../src/tensorflow_lite/tensorflow/lite/micro/kernels/prelu.cc ****   PreluParams* params = static_cast<PreluParams*>(node->user_data);
  96:../src/tensorflow_lite/tensorflow/lite/micro/kernels/prelu.cc **** 
  97:../src/tensorflow_lite/tensorflow/lite/micro/kernels/prelu.cc ****   const TfLiteTensor* input = GetInput(context, node, 0);
  94              		.loc 1 97 0
  95 0018 0020A0E3 		mov	r2, #0
  96 001c 0150A0E1 		mov	r5, r1
  97 0020 0060A0E1 		mov	r6, r0
  98 0024 FEFFFFEB 		bl	_ZN6tflite8GetInputEPK13TfLiteContextPK10TfLiteNodei
  99              	.LVL6:
  98:../src/tensorflow_lite/tensorflow/lite/micro/kernels/prelu.cc ****   TF_LITE_ENSURE(context, input != nullptr);
 100              		.loc 1 98 0
 101 0028 008050E2 		subs	r8, r0, #0
 102 002c 3100000A 		beq	.L17
  99:../src/tensorflow_lite/tensorflow/lite/micro/kernels/prelu.cc ****   const TfLiteTensor* alpha = GetInput(context, node, 1);
 103              		.loc 1 99 0
 104 0030 0120A0E3 		mov	r2, #1
 105 0034 0510A0E1 		mov	r1, r5
 106 0038 0600A0E1 		mov	r0, r6
 107              	.LVL7:
 108 003c FEFFFFEB 		bl	_ZN6tflite8GetInputEPK13TfLiteContextPK10TfLiteNodei
 109              	.LVL8:
 100:../src/tensorflow_lite/tensorflow/lite/micro/kernels/prelu.cc ****   TF_LITE_ENSURE(context, alpha != nullptr);
 110              		.loc 1 100 0
 111 0040 007050E2 		subs	r7, r0, #0
 112 0044 3A00000A 		beq	.L18
 101:../src/tensorflow_lite/tensorflow/lite/micro/kernels/prelu.cc ****   TfLiteTensor* output = GetOutput(context, node, 0);
 113              		.loc 1 101 0
 114 0048 0510A0E1 		mov	r1, r5
 115 004c 0020A0E3 		mov	r2, #0
 116 0050 0600A0E1 		mov	r0, r6
 117              	.LVL9:
 118 0054 FEFFFFEB 		bl	_ZN6tflite9GetOutputEP13TfLiteContextPK10TfLiteNodei
 119              	.LVL10:
 102:../src/tensorflow_lite/tensorflow/lite/micro/kernels/prelu.cc ****   TF_LITE_ENSURE(context, output != nullptr);
 120              		.loc 1 102 0
 121 0058 005050E2 		subs	r5, r0, #0
 122              	.LVL11:
 123 005c 4100000A 		beq	.L19
 124              	.LVL12:
 125              	.LBB234:
 126              	.LBB235:
  35:../src/tensorflow_lite/tensorflow/lite/micro/kernels/prelu.cc ****       output->type == kTfLiteInt16) {
 127              		.loc 1 35 0
 128 0060 0030D5E5 		ldrb	r3, [r5]	@ zero_extendqisi2
 129 0064 FB0003E2 		and	r0, r3, #251
 130              	.LVL13:
 131 0068 090053E3 		cmp	r3, #9
 132 006c 03005013 		cmpne	r0, #3
 133 0070 0100A003 		moveq	r0, #1
 134 0074 0000A013 		movne	r0, #0
 135 0078 0200000A 		beq	.L20
 136              	.LVL14:
 137              	.L11:
 138              	.LBE235:
 139              	.LBE234:
 103:../src/tensorflow_lite/tensorflow/lite/micro/kernels/prelu.cc **** 
 104:../src/tensorflow_lite/tensorflow/lite/micro/kernels/prelu.cc ****   return CalculatePreluParams(input, alpha, output, params);
 105:../src/tensorflow_lite/tensorflow/lite/micro/kernels/prelu.cc **** }
 140              		.loc 1 105 0
 141 007c 08D08DE2 		add	sp, sp, #8
 142              		.cfi_remember_state
 143              		.cfi_def_cfa_offset 32
 144              		@ sp needed
 145 0080 028BBDEC 		vldm	sp!, {d8}
 146              		.cfi_restore 80
 147              		.cfi_restore 81
 148              		.cfi_def_cfa_offset 24
 149 0084 F081BDE8 		pop	{r4, r5, r6, r7, r8, pc}
 150              	.LVL15:
 151              	.L20:
 152              		.cfi_restore_state
 153              	.LBB240:
 154              	.LBB238:
 155              	.LBB236:
  40:../src/tensorflow_lite/tensorflow/lite/micro/kernels/prelu.cc ****                                static_cast<double>(output->params.scale);
 156              		.loc 1 40 0
 157 0088 037AD7ED 		vldr.32	s15, [r7, #12]
  43:../src/tensorflow_lite/tensorflow/lite/micro/kernels/prelu.cc ****     QuantizeMultiplier(real_multiplier_2, &params->output_multiplier_2,
 158              		.loc 1 43 0
 159 008c 101084E2 		add	r1, r4, #16
  37:../src/tensorflow_lite/tensorflow/lite/micro/kernels/prelu.cc ****                                static_cast<double>(output->params.scale);
 160              		.loc 1 37 0
 161 0090 030A98ED 		vldr.32	s0, [r8, #12]
  43:../src/tensorflow_lite/tensorflow/lite/micro/kernels/prelu.cc ****     QuantizeMultiplier(real_multiplier_2, &params->output_multiplier_2,
 162              		.loc 1 43 0
 163 0094 0C0084E2 		add	r0, r4, #12
  38:../src/tensorflow_lite/tensorflow/lite/micro/kernels/prelu.cc ****     double real_multiplier_2 = static_cast<double>(input->params.scale) *
 164              		.loc 1 38 0
 165 0098 037A95ED 		vldr.32	s14, [r5, #12]
  40:../src/tensorflow_lite/tensorflow/lite/micro/kernels/prelu.cc ****                                static_cast<double>(output->params.scale);
 166              		.loc 1 40 0
 167 009c E70AF7EE 		vcvt.f64.f32	d16, s15
  37:../src/tensorflow_lite/tensorflow/lite/micro/kernels/prelu.cc ****                                static_cast<double>(output->params.scale);
 168              		.loc 1 37 0
 169 00a0 C00AB7EE 		vcvt.f64.f32	d0, s0
  38:../src/tensorflow_lite/tensorflow/lite/micro/kernels/prelu.cc ****     double real_multiplier_2 = static_cast<double>(input->params.scale) *
 170              		.loc 1 38 0
 171 00a4 C77AB7EE 		vcvt.f64.f32	d7, s14
 172              	.LVL16:
  39:../src/tensorflow_lite/tensorflow/lite/micro/kernels/prelu.cc ****                                static_cast<double>(alpha->params.scale) /
 173              		.loc 1 39 0
 174 00a8 800B60EE 		vmul.f64	d16, d16, d0
  43:../src/tensorflow_lite/tensorflow/lite/micro/kernels/prelu.cc ****     QuantizeMultiplier(real_multiplier_2, &params->output_multiplier_2,
 175              		.loc 1 43 0
 176 00ac 070B80EE 		vdiv.f64	d0, d0, d7
 177              	.LVL17:
  41:../src/tensorflow_lite/tensorflow/lite/micro/kernels/prelu.cc ****     QuantizeMultiplier(real_multiplier_1, &params->output_multiplier_1,
 178              		.loc 1 41 0
 179 00b0 878B80EE 		vdiv.f64	d8, d16, d7
 180              	.LVL18:
  43:../src/tensorflow_lite/tensorflow/lite/micro/kernels/prelu.cc ****     QuantizeMultiplier(real_multiplier_2, &params->output_multiplier_2,
 181              		.loc 1 43 0
 182 00b4 FEFFFFEB 		bl	_ZN6tflite18QuantizeMultiplierEdPlPi
 183              	.LVL19:
  45:../src/tensorflow_lite/tensorflow/lite/micro/kernels/prelu.cc **** 
 184              		.loc 1 45 0
 185 00b8 140084E2 		add	r0, r4, #20
 186 00bc 181084E2 		add	r1, r4, #24
 187 00c0 480BB0EE 		vmov.f64	d0, d8
 188 00c4 FEFFFFEB 		bl	_ZN6tflite18QuantizeMultiplierEdPlPi
 189              	.LVL20:
  47:../src/tensorflow_lite/tensorflow/lite/micro/kernels/prelu.cc ****     params->alpha_offset = -alpha->params.zero_point;
 190              		.loc 1 47 0
 191 00c8 103098E5 		ldr	r3, [r8, #16]
 192              	.LBE236:
 193              	.LBE238:
 194              	.LBE240:
 104:../src/tensorflow_lite/tensorflow/lite/micro/kernels/prelu.cc **** }
 195              		.loc 1 104 0
 196 00cc 0000A0E3 		mov	r0, #0
 197              	.LBB241:
 198              	.LBB239:
 199              	.LBB237:
  49:../src/tensorflow_lite/tensorflow/lite/micro/kernels/prelu.cc ****   }
 200              		.loc 1 49 0
 201 00d0 102095E5 		ldr	r2, [r5, #16]
  47:../src/tensorflow_lite/tensorflow/lite/micro/kernels/prelu.cc ****     params->alpha_offset = -alpha->params.zero_point;
 202              		.loc 1 47 0
 203 00d4 003063E2 		rsb	r3, r3, #0
 204 00d8 003084E5 		str	r3, [r4]
  48:../src/tensorflow_lite/tensorflow/lite/micro/kernels/prelu.cc ****     params->output_offset = output->params.zero_point;
 205              		.loc 1 48 0
 206 00dc 103097E5 		ldr	r3, [r7, #16]
  49:../src/tensorflow_lite/tensorflow/lite/micro/kernels/prelu.cc ****   }
 207              		.loc 1 49 0
 208 00e0 082084E5 		str	r2, [r4, #8]
  48:../src/tensorflow_lite/tensorflow/lite/micro/kernels/prelu.cc ****     params->output_offset = output->params.zero_point;
 209              		.loc 1 48 0
 210 00e4 003063E2 		rsb	r3, r3, #0
 211 00e8 043084E5 		str	r3, [r4, #4]
 212              	.LBE237:
 213              	.LBE239:
 214              	.LBE241:
 215              		.loc 1 105 0
 216 00ec 08D08DE2 		add	sp, sp, #8
 217              		.cfi_remember_state
 218              		.cfi_def_cfa_offset 32
 219              		@ sp needed
 220 00f0 028BBDEC 		vldm	sp!, {d8}
 221              		.cfi_restore 80
 222              		.cfi_restore 81
 223              		.cfi_def_cfa_offset 24
 224              	.LVL21:
 225 00f4 F081BDE8 		pop	{r4, r5, r6, r7, r8, pc}
 226              	.LVL22:
 227              	.L17:
 228              		.cfi_restore_state
  98:../src/tensorflow_lite/tensorflow/lite/micro/kernels/prelu.cc ****   const TfLiteTensor* alpha = GetInput(context, node, 1);
 229              		.loc 1 98 0 discriminator 1
 230 00f8 003000E3 		movw	r3, #:lower16:.LC3
 231 00fc 002000E3 		movw	r2, #:lower16:.LC1
 232 0100 003040E3 		movt	r3, #:upper16:.LC3
 233 0104 001000E3 		movw	r1, #:lower16:.LC2
 234 0108 00308DE5 		str	r3, [sp]
 235 010c 0600A0E1 		mov	r0, r6
 236              	.LVL23:
 237 0110 002040E3 		movt	r2, #:upper16:.LC1
 238 0114 001040E3 		movt	r1, #:upper16:.LC2
 239 0118 144096E5 		ldr	r4, [r6, #20]
 240              	.LVL24:
 241 011c 6230A0E3 		mov	r3, #98
 242 0120 34FF2FE1 		blx	r4
 243              	.LVL25:
 244 0124 0100A0E3 		mov	r0, #1
 245              		.loc 1 105 0 discriminator 1
 246 0128 08D08DE2 		add	sp, sp, #8
 247              		.cfi_remember_state
 248              		.cfi_def_cfa_offset 32
 249              		@ sp needed
 250 012c 028BBDEC 		vldm	sp!, {d8}
 251              		.cfi_restore 80
 252              		.cfi_restore 81
 253              		.cfi_def_cfa_offset 24
 254 0130 F081BDE8 		pop	{r4, r5, r6, r7, r8, pc}
 255              	.LVL26:
 256              	.L18:
 257              		.cfi_restore_state
 100:../src/tensorflow_lite/tensorflow/lite/micro/kernels/prelu.cc ****   TfLiteTensor* output = GetOutput(context, node, 0);
 258              		.loc 1 100 0 discriminator 1
 259 0134 003000E3 		movw	r3, #:lower16:.LC4
 260 0138 002000E3 		movw	r2, #:lower16:.LC1
 261 013c 003040E3 		movt	r3, #:upper16:.LC4
 262 0140 001000E3 		movw	r1, #:lower16:.LC2
 263 0144 00308DE5 		str	r3, [sp]
 264 0148 0600A0E1 		mov	r0, r6
 265              	.LVL27:
 266 014c 002040E3 		movt	r2, #:upper16:.LC1
 267 0150 001040E3 		movt	r1, #:upper16:.LC2
 268 0154 144096E5 		ldr	r4, [r6, #20]
 269              	.LVL28:
 270 0158 6430A0E3 		mov	r3, #100
 271 015c 34FF2FE1 		blx	r4
 272              	.LVL29:
 273 0160 0100A0E3 		mov	r0, #1
 274 0164 C4FFFFEA 		b	.L11
 275              	.LVL30:
 276              	.L19:
 102:../src/tensorflow_lite/tensorflow/lite/micro/kernels/prelu.cc **** 
 277              		.loc 1 102 0 discriminator 1
 278 0168 003000E3 		movw	r3, #:lower16:.LC5
 279 016c 002000E3 		movw	r2, #:lower16:.LC1
 280 0170 003040E3 		movt	r3, #:upper16:.LC5
 281 0174 001000E3 		movw	r1, #:lower16:.LC2
 282 0178 00308DE5 		str	r3, [sp]
 283 017c 0600A0E1 		mov	r0, r6
 284              	.LVL31:
 285 0180 002040E3 		movt	r2, #:upper16:.LC1
 286 0184 001040E3 		movt	r1, #:upper16:.LC2
 287 0188 144096E5 		ldr	r4, [r6, #20]
 288              	.LVL32:
 289 018c 6630A0E3 		mov	r3, #102
 290 0190 34FF2FE1 		blx	r4
 291              	.LVL33:
 292 0194 0100A0E3 		mov	r0, #1
 293 0198 B7FFFFEA 		b	.L11
 294              	.LVL34:
 295              	.L16:
  94:../src/tensorflow_lite/tensorflow/lite/micro/kernels/prelu.cc ****   PreluParams* params = static_cast<PreluParams*>(node->user_data);
 296              		.loc 1 94 0 discriminator 1
 297 019c FEFFFFEB 		bl	abort
 298              	.LVL35:
 299              		.cfi_endproc
 300              	.LFE4172:
 301              		.fnend
 303              		.section	.text._ZN6tflite3ops5micro11activations9PreluEvalEP13TfLiteContextP10TfLiteNode,"ax",%pro
 304              		.align	2
 305              		.global	_ZN6tflite3ops5micro11activations9PreluEvalEP13TfLiteContextP10TfLiteNode
 306              		.syntax unified
 307              		.arm
 308              		.fpu neon
 310              	_ZN6tflite3ops5micro11activations9PreluEvalEP13TfLiteContextP10TfLiteNode:
 311              		.fnstart
 312              	.LFB4173:
 106:../src/tensorflow_lite/tensorflow/lite/micro/kernels/prelu.cc **** 
 107:../src/tensorflow_lite/tensorflow/lite/micro/kernels/prelu.cc **** TfLiteStatus PreluEval(TfLiteContext* context, TfLiteNode* node) {
 313              		.loc 1 107 0
 314              		.cfi_startproc
 315              		.cfi_personality 0,__gxx_personality_v0
 316              		.cfi_lsda 0,.LLSDA4173
 317              		@ args = 0, pretend = 0, frame = 352
 318              		@ frame_needed = 0, uses_anonymous_args = 0
 319              	.LVL36:
 320 0000 F04F2DE9 		push	{r4, r5, r6, r7, r8, r9, r10, fp, lr}
 321              		.save {r4, r5, r6, r7, r8, r9, r10, fp, lr}
 322              		.cfi_def_cfa_offset 36
 323              		.cfi_offset 4, -36
 324              		.cfi_offset 5, -32
 325              		.cfi_offset 6, -28
 326              		.cfi_offset 7, -24
 327              		.cfi_offset 8, -20
 328              		.cfi_offset 9, -16
 329              		.cfi_offset 10, -12
 330              		.cfi_offset 11, -8
 331              		.cfi_offset 14, -4
 332              		.pad #356
 333 0004 59DF4DE2 		sub	sp, sp, #356
 334              		.cfi_def_cfa_offset 392
 108:../src/tensorflow_lite/tensorflow/lite/micro/kernels/prelu.cc ****   TFLITE_DCHECK(node->user_data != nullptr);
 335              		.loc 1 108 0
 336 0008 10A091E5 		ldr	r10, [r1, #16]
 337 000c 00005AE3 		cmp	r10, #0
 338 0010 4709000A 		beq	.L23
 339              	.LBB749:
 340              	.LBB750:
 341              	.LBB751:
 342              		.file 2 "C:/Renesas/e2studio_2021_01_workspace_RZA2M_ANPR/ANPR_RZA2M_EBK/src/tensorflow_lite/tenso
   1:C:/Renesas/e2studio_2021_01_workspace_RZA2M_ANPR/ANPR_RZA2M_EBK/src/tensorflow_lite/tensorflow/lite/micro/kernels\kernel_util.h **** /* Copyright 2020 The TensorFlow Authors. All Rights Reserved.
   2:C:/Renesas/e2studio_2021_01_workspace_RZA2M_ANPR/ANPR_RZA2M_EBK/src/tensorflow_lite/tensorflow/lite/micro/kernels\kernel_util.h **** 
   3:C:/Renesas/e2studio_2021_01_workspace_RZA2M_ANPR/ANPR_RZA2M_EBK/src/tensorflow_lite/tensorflow/lite/micro/kernels\kernel_util.h **** Licensed under the Apache License, Version 2.0 (the "License");
   4:C:/Renesas/e2studio_2021_01_workspace_RZA2M_ANPR/ANPR_RZA2M_EBK/src/tensorflow_lite/tensorflow/lite/micro/kernels\kernel_util.h **** you may not use this file except in compliance with the License.
   5:C:/Renesas/e2studio_2021_01_workspace_RZA2M_ANPR/ANPR_RZA2M_EBK/src/tensorflow_lite/tensorflow/lite/micro/kernels\kernel_util.h **** You may obtain a copy of the License at
   6:C:/Renesas/e2studio_2021_01_workspace_RZA2M_ANPR/ANPR_RZA2M_EBK/src/tensorflow_lite/tensorflow/lite/micro/kernels\kernel_util.h **** 
   7:C:/Renesas/e2studio_2021_01_workspace_RZA2M_ANPR/ANPR_RZA2M_EBK/src/tensorflow_lite/tensorflow/lite/micro/kernels\kernel_util.h ****     http://www.apache.org/licenses/LICENSE-2.0
   8:C:/Renesas/e2studio_2021_01_workspace_RZA2M_ANPR/ANPR_RZA2M_EBK/src/tensorflow_lite/tensorflow/lite/micro/kernels\kernel_util.h **** 
   9:C:/Renesas/e2studio_2021_01_workspace_RZA2M_ANPR/ANPR_RZA2M_EBK/src/tensorflow_lite/tensorflow/lite/micro/kernels\kernel_util.h **** Unless required by applicable law or agreed to in writing, software
  10:C:/Renesas/e2studio_2021_01_workspace_RZA2M_ANPR/ANPR_RZA2M_EBK/src/tensorflow_lite/tensorflow/lite/micro/kernels\kernel_util.h **** distributed under the License is distributed on an "AS IS" BASIS,
  11:C:/Renesas/e2studio_2021_01_workspace_RZA2M_ANPR/ANPR_RZA2M_EBK/src/tensorflow_lite/tensorflow/lite/micro/kernels\kernel_util.h **** WITHOUT WARRANTIES OR CONDITIONS OF ANY KIND, either express or implied.
  12:C:/Renesas/e2studio_2021_01_workspace_RZA2M_ANPR/ANPR_RZA2M_EBK/src/tensorflow_lite/tensorflow/lite/micro/kernels\kernel_util.h **** See the License for the specific language governing permissions and
  13:C:/Renesas/e2studio_2021_01_workspace_RZA2M_ANPR/ANPR_RZA2M_EBK/src/tensorflow_lite/tensorflow/lite/micro/kernels\kernel_util.h **** limitations under the License.
  14:C:/Renesas/e2studio_2021_01_workspace_RZA2M_ANPR/ANPR_RZA2M_EBK/src/tensorflow_lite/tensorflow/lite/micro/kernels\kernel_util.h **** ==============================================================================*/
  15:C:/Renesas/e2studio_2021_01_workspace_RZA2M_ANPR/ANPR_RZA2M_EBK/src/tensorflow_lite/tensorflow/lite/micro/kernels\kernel_util.h **** 
  16:C:/Renesas/e2studio_2021_01_workspace_RZA2M_ANPR/ANPR_RZA2M_EBK/src/tensorflow_lite/tensorflow/lite/micro/kernels\kernel_util.h **** #ifndef TENSORFLOW_LITE_MICRO_KERNELS_KERNEL_UTIL_H_
  17:C:/Renesas/e2studio_2021_01_workspace_RZA2M_ANPR/ANPR_RZA2M_EBK/src/tensorflow_lite/tensorflow/lite/micro/kernels\kernel_util.h **** #define TENSORFLOW_LITE_MICRO_KERNELS_KERNEL_UTIL_H_
  18:C:/Renesas/e2studio_2021_01_workspace_RZA2M_ANPR/ANPR_RZA2M_EBK/src/tensorflow_lite/tensorflow/lite/micro/kernels\kernel_util.h **** 
  19:C:/Renesas/e2studio_2021_01_workspace_RZA2M_ANPR/ANPR_RZA2M_EBK/src/tensorflow_lite/tensorflow/lite/micro/kernels\kernel_util.h **** #include <cstdint>
  20:C:/Renesas/e2studio_2021_01_workspace_RZA2M_ANPR/ANPR_RZA2M_EBK/src/tensorflow_lite/tensorflow/lite/micro/kernels\kernel_util.h **** 
  21:C:/Renesas/e2studio_2021_01_workspace_RZA2M_ANPR/ANPR_RZA2M_EBK/src/tensorflow_lite/tensorflow/lite/micro/kernels\kernel_util.h **** #include "tensorflow/lite/c/builtin_op_data.h"
  22:C:/Renesas/e2studio_2021_01_workspace_RZA2M_ANPR/ANPR_RZA2M_EBK/src/tensorflow_lite/tensorflow/lite/micro/kernels\kernel_util.h **** #include "tensorflow/lite/c/common.h"
  23:C:/Renesas/e2studio_2021_01_workspace_RZA2M_ANPR/ANPR_RZA2M_EBK/src/tensorflow_lite/tensorflow/lite/micro/kernels\kernel_util.h **** #include "tensorflow/lite/kernels/internal/compatibility.h"
  24:C:/Renesas/e2studio_2021_01_workspace_RZA2M_ANPR/ANPR_RZA2M_EBK/src/tensorflow_lite/tensorflow/lite/micro/kernels\kernel_util.h **** #include "tensorflow/lite/kernels/internal/types.h"
  25:C:/Renesas/e2studio_2021_01_workspace_RZA2M_ANPR/ANPR_RZA2M_EBK/src/tensorflow_lite/tensorflow/lite/micro/kernels\kernel_util.h **** 
  26:C:/Renesas/e2studio_2021_01_workspace_RZA2M_ANPR/ANPR_RZA2M_EBK/src/tensorflow_lite/tensorflow/lite/micro/kernels\kernel_util.h **** namespace tflite {
  27:C:/Renesas/e2studio_2021_01_workspace_RZA2M_ANPR/ANPR_RZA2M_EBK/src/tensorflow_lite/tensorflow/lite/micro/kernels\kernel_util.h **** namespace micro {
  28:C:/Renesas/e2studio_2021_01_workspace_RZA2M_ANPR/ANPR_RZA2M_EBK/src/tensorflow_lite/tensorflow/lite/micro/kernels\kernel_util.h **** 
  29:C:/Renesas/e2studio_2021_01_workspace_RZA2M_ANPR/ANPR_RZA2M_EBK/src/tensorflow_lite/tensorflow/lite/micro/kernels\kernel_util.h **** // Returns a mutable tensor for a given input index. is_variable must be checked
  30:C:/Renesas/e2studio_2021_01_workspace_RZA2M_ANPR/ANPR_RZA2M_EBK/src/tensorflow_lite/tensorflow/lite/micro/kernels\kernel_util.h **** // during prepare when the full TfLiteTensor is available.
  31:C:/Renesas/e2studio_2021_01_workspace_RZA2M_ANPR/ANPR_RZA2M_EBK/src/tensorflow_lite/tensorflow/lite/micro/kernels\kernel_util.h **** inline TfLiteEvalTensor* GetMutableEvalInput(const TfLiteContext* context,
  32:C:/Renesas/e2studio_2021_01_workspace_RZA2M_ANPR/ANPR_RZA2M_EBK/src/tensorflow_lite/tensorflow/lite/micro/kernels\kernel_util.h ****                                              const TfLiteNode* node,
  33:C:/Renesas/e2studio_2021_01_workspace_RZA2M_ANPR/ANPR_RZA2M_EBK/src/tensorflow_lite/tensorflow/lite/micro/kernels\kernel_util.h ****                                              int index) {
  34:C:/Renesas/e2studio_2021_01_workspace_RZA2M_ANPR/ANPR_RZA2M_EBK/src/tensorflow_lite/tensorflow/lite/micro/kernels\kernel_util.h ****   TFLITE_DCHECK(context != nullptr);
 343              		.loc 2 34 0
 344 0014 000050E3 		cmp	r0, #0
 345 0018 0040A0E1 		mov	r4, r0
 346              	.LVL37:
 347 001c 4409000A 		beq	.L23
  35:C:/Renesas/e2studio_2021_01_workspace_RZA2M_ANPR/ANPR_RZA2M_EBK/src/tensorflow_lite/tensorflow/lite/micro/kernels\kernel_util.h ****   TFLITE_DCHECK(node != nullptr);
  36:C:/Renesas/e2studio_2021_01_workspace_RZA2M_ANPR/ANPR_RZA2M_EBK/src/tensorflow_lite/tensorflow/lite/micro/kernels\kernel_util.h ****   return context->GetEvalTensor(context, node->inputs->data[index]);
 348              		.loc 2 36 0
 349 0020 002091E5 		ldr	r2, [r1]
 350 0024 0150A0E1 		mov	r5, r1
 351 0028 543090E5 		ldr	r3, [r0, #84]
 352 002c 041092E5 		ldr	r1, [r2, #4]
 353              	.LVL38:
 354              	.LEHB0:
 355 0030 33FF2FE1 		blx	r3
 356              	.LVL39:
 357              	.LBE751:
 358              	.LBE750:
 359              	.LBE749:
 360              	.LBB754:
 361              	.LBB755:
 362              	.LBB756:
 363 0034 002095E5 		ldr	r2, [r5]
 364              	.LBE756:
 365              	.LBE755:
 366              	.LBE754:
 367              	.LBB761:
 368              	.LBB753:
 369              	.LBB752:
 370 0038 0080A0E1 		mov	r8, r0
 371              	.LVL40:
 372              	.LBE752:
 373              	.LBE753:
 374              	.LBE761:
 375              	.LBB762:
 376              	.LBB759:
 377              	.LBB757:
 378 003c 543094E5 		ldr	r3, [r4, #84]
 379 0040 0400A0E1 		mov	r0, r4
 380 0044 081092E5 		ldr	r1, [r2, #8]
 381 0048 33FF2FE1 		blx	r3
 382              	.LVL41:
 383              	.LBE757:
 384              	.LBE759:
 385              	.LBE762:
 386              	.LBB763:
 387              	.LBB764:
  37:C:/Renesas/e2studio_2021_01_workspace_RZA2M_ANPR/ANPR_RZA2M_EBK/src/tensorflow_lite/tensorflow/lite/micro/kernels\kernel_util.h **** }
  38:C:/Renesas/e2studio_2021_01_workspace_RZA2M_ANPR/ANPR_RZA2M_EBK/src/tensorflow_lite/tensorflow/lite/micro/kernels\kernel_util.h **** 
  39:C:/Renesas/e2studio_2021_01_workspace_RZA2M_ANPR/ANPR_RZA2M_EBK/src/tensorflow_lite/tensorflow/lite/micro/kernels\kernel_util.h **** // Returns the TfLiteEvalTensor struct for a given input index in a node.
  40:C:/Renesas/e2studio_2021_01_workspace_RZA2M_ANPR/ANPR_RZA2M_EBK/src/tensorflow_lite/tensorflow/lite/micro/kernels\kernel_util.h **** inline const TfLiteEvalTensor* GetEvalInput(const TfLiteContext* context,
  41:C:/Renesas/e2studio_2021_01_workspace_RZA2M_ANPR/ANPR_RZA2M_EBK/src/tensorflow_lite/tensorflow/lite/micro/kernels\kernel_util.h ****                                             const TfLiteNode* node, int index) {
  42:C:/Renesas/e2studio_2021_01_workspace_RZA2M_ANPR/ANPR_RZA2M_EBK/src/tensorflow_lite/tensorflow/lite/micro/kernels\kernel_util.h ****   return GetMutableEvalInput(context, node, index);
  43:C:/Renesas/e2studio_2021_01_workspace_RZA2M_ANPR/ANPR_RZA2M_EBK/src/tensorflow_lite/tensorflow/lite/micro/kernels\kernel_util.h **** }
  44:C:/Renesas/e2studio_2021_01_workspace_RZA2M_ANPR/ANPR_RZA2M_EBK/src/tensorflow_lite/tensorflow/lite/micro/kernels\kernel_util.h **** 
  45:C:/Renesas/e2studio_2021_01_workspace_RZA2M_ANPR/ANPR_RZA2M_EBK/src/tensorflow_lite/tensorflow/lite/micro/kernels\kernel_util.h **** // Returns the TfLiteEvalTensor struct for a given output index in a node.
  46:C:/Renesas/e2studio_2021_01_workspace_RZA2M_ANPR/ANPR_RZA2M_EBK/src/tensorflow_lite/tensorflow/lite/micro/kernels\kernel_util.h **** inline TfLiteEvalTensor* GetEvalOutput(const TfLiteContext* context,
  47:C:/Renesas/e2studio_2021_01_workspace_RZA2M_ANPR/ANPR_RZA2M_EBK/src/tensorflow_lite/tensorflow/lite/micro/kernels\kernel_util.h ****                                        const TfLiteNode* node, int index) {
  48:C:/Renesas/e2studio_2021_01_workspace_RZA2M_ANPR/ANPR_RZA2M_EBK/src/tensorflow_lite/tensorflow/lite/micro/kernels\kernel_util.h ****   TFLITE_DCHECK(context != nullptr);
  49:C:/Renesas/e2studio_2021_01_workspace_RZA2M_ANPR/ANPR_RZA2M_EBK/src/tensorflow_lite/tensorflow/lite/micro/kernels\kernel_util.h ****   TFLITE_DCHECK(node != nullptr);
  50:C:/Renesas/e2studio_2021_01_workspace_RZA2M_ANPR/ANPR_RZA2M_EBK/src/tensorflow_lite/tensorflow/lite/micro/kernels\kernel_util.h ****   return context->GetEvalTensor(context, node->outputs->data[index]);
 388              		.loc 2 50 0
 389 004c 042095E5 		ldr	r2, [r5, #4]
 390              	.LBE764:
 391              	.LBE763:
 392              	.LBB766:
 393              	.LBB760:
 394              	.LBB758:
  36:C:/Renesas/e2studio_2021_01_workspace_RZA2M_ANPR/ANPR_RZA2M_EBK/src/tensorflow_lite/tensorflow/lite/micro/kernels\kernel_util.h **** }
 395              		.loc 2 36 0
 396 0050 0070A0E1 		mov	r7, r0
 397              	.LVL42:
 398              	.LBE758:
 399              	.LBE760:
 400              	.LBE766:
 401              	.LBB767:
 402              	.LBB765:
 403              		.loc 2 50 0
 404 0054 543094E5 		ldr	r3, [r4, #84]
 405 0058 0400A0E1 		mov	r0, r4
 406 005c 041092E5 		ldr	r1, [r2, #4]
 407 0060 33FF2FE1 		blx	r3
 408              	.LVL43:
 409 0064 0060A0E1 		mov	r6, r0
 410              	.LVL44:
 411              	.LBE765:
 412              	.LBE767:
 109:../src/tensorflow_lite/tensorflow/lite/micro/kernels/prelu.cc ****   const PreluParams& params =
 110:../src/tensorflow_lite/tensorflow/lite/micro/kernels/prelu.cc ****       *(static_cast<const PreluParams*>(node->user_data));
 111:../src/tensorflow_lite/tensorflow/lite/micro/kernels/prelu.cc **** 
 112:../src/tensorflow_lite/tensorflow/lite/micro/kernels/prelu.cc ****   const TfLiteEvalTensor* input = tflite::micro::GetEvalInput(context, node, 0);
 113:../src/tensorflow_lite/tensorflow/lite/micro/kernels/prelu.cc ****   const TfLiteEvalTensor* alpha = tflite::micro::GetEvalInput(context, node, 1);
 114:../src/tensorflow_lite/tensorflow/lite/micro/kernels/prelu.cc ****   TfLiteEvalTensor* output = tflite::micro::GetEvalOutput(context, node, 0);
 115:../src/tensorflow_lite/tensorflow/lite/micro/kernels/prelu.cc **** 
 116:../src/tensorflow_lite/tensorflow/lite/micro/kernels/prelu.cc ****   switch (input->type) {
 413              		.loc 1 116 0
 414 0068 0800D8E5 		ldrb	r0, [r8, #8]	@ zero_extendqisi2
 415 006c 030050E3 		cmp	r0, #3
 416 0070 7B01000A 		beq	.L25
 417 0074 090050E3 		cmp	r0, #9
 418 0078 C200000A 		beq	.L26
 419 007c 010050E3 		cmp	r0, #1
 420 0080 0900000A 		beq	.L916
 117:../src/tensorflow_lite/tensorflow/lite/micro/kernels/prelu.cc ****     case kTfLiteFloat32: {
 118:../src/tensorflow_lite/tensorflow/lite/micro/kernels/prelu.cc ****       BroadcastPrelu4DSlowFloat(tflite::micro::GetTensorShape(input),
 119:../src/tensorflow_lite/tensorflow/lite/micro/kernels/prelu.cc ****                                 tflite::micro::GetTensorData<float>(input),
 120:../src/tensorflow_lite/tensorflow/lite/micro/kernels/prelu.cc ****                                 tflite::micro::GetTensorShape(alpha),
 121:../src/tensorflow_lite/tensorflow/lite/micro/kernels/prelu.cc ****                                 tflite::micro::GetTensorData<float>(alpha),
 122:../src/tensorflow_lite/tensorflow/lite/micro/kernels/prelu.cc ****                                 tflite::micro::GetTensorShape(output),
 123:../src/tensorflow_lite/tensorflow/lite/micro/kernels/prelu.cc ****                                 tflite::micro::GetTensorData<float>(output));
 124:../src/tensorflow_lite/tensorflow/lite/micro/kernels/prelu.cc ****       return kTfLiteOk;
 125:../src/tensorflow_lite/tensorflow/lite/micro/kernels/prelu.cc ****     } break;
 126:../src/tensorflow_lite/tensorflow/lite/micro/kernels/prelu.cc ****     case kTfLiteUInt8: {
 127:../src/tensorflow_lite/tensorflow/lite/micro/kernels/prelu.cc ****       reference_ops::BroadcastPrelu4DSlow(
 128:../src/tensorflow_lite/tensorflow/lite/micro/kernels/prelu.cc ****           params, tflite::micro::GetTensorShape(input),
 129:../src/tensorflow_lite/tensorflow/lite/micro/kernels/prelu.cc ****           tflite::micro::GetTensorData<uint8_t>(input),
 130:../src/tensorflow_lite/tensorflow/lite/micro/kernels/prelu.cc ****           tflite::micro::GetTensorShape(alpha),
 131:../src/tensorflow_lite/tensorflow/lite/micro/kernels/prelu.cc ****           tflite::micro::GetTensorData<uint8_t>(alpha),
 132:../src/tensorflow_lite/tensorflow/lite/micro/kernels/prelu.cc ****           tflite::micro::GetTensorShape(output),
 133:../src/tensorflow_lite/tensorflow/lite/micro/kernels/prelu.cc ****           tflite::micro::GetTensorData<uint8_t>(output));
 134:../src/tensorflow_lite/tensorflow/lite/micro/kernels/prelu.cc ****       return kTfLiteOk;
 135:../src/tensorflow_lite/tensorflow/lite/micro/kernels/prelu.cc ****     } break;
 136:../src/tensorflow_lite/tensorflow/lite/micro/kernels/prelu.cc ****     case kTfLiteInt8: {
 137:../src/tensorflow_lite/tensorflow/lite/micro/kernels/prelu.cc ****       reference_ops::BroadcastPrelu4DSlow(
 138:../src/tensorflow_lite/tensorflow/lite/micro/kernels/prelu.cc ****           params, tflite::micro::GetTensorShape(input),
 139:../src/tensorflow_lite/tensorflow/lite/micro/kernels/prelu.cc ****           tflite::micro::GetTensorData<int8_t>(input),
 140:../src/tensorflow_lite/tensorflow/lite/micro/kernels/prelu.cc ****           tflite::micro::GetTensorShape(alpha),
 141:../src/tensorflow_lite/tensorflow/lite/micro/kernels/prelu.cc ****           tflite::micro::GetTensorData<int8_t>(alpha),
 142:../src/tensorflow_lite/tensorflow/lite/micro/kernels/prelu.cc ****           tflite::micro::GetTensorShape(output),
 143:../src/tensorflow_lite/tensorflow/lite/micro/kernels/prelu.cc ****           tflite::micro::GetTensorData<int8_t>(output));
 144:../src/tensorflow_lite/tensorflow/lite/micro/kernels/prelu.cc ****       return kTfLiteOk;
 145:../src/tensorflow_lite/tensorflow/lite/micro/kernels/prelu.cc ****     } break;
 146:../src/tensorflow_lite/tensorflow/lite/micro/kernels/prelu.cc ****     default:
 147:../src/tensorflow_lite/tensorflow/lite/micro/kernels/prelu.cc ****       TF_LITE_KERNEL_LOG(
 421              		.loc 1 147 0
 422 0084 145094E5 		ldr	r5, [r4, #20]
 423              	.LVL45:
 424 0088 FEFFFFEB 		bl	TfLiteTypeGetName
 425              	.LVL46:
 426 008c 001000E3 		movw	r1, #:lower16:.LC8
 427 0090 0020A0E1 		mov	r2, r0
 428 0094 001040E3 		movt	r1, #:upper16:.LC8
 429 0098 0400A0E1 		mov	r0, r4
 430 009c 35FF2FE1 		blx	r5
 431              	.LVL47:
 148:../src/tensorflow_lite/tensorflow/lite/micro/kernels/prelu.cc ****           context, "Only float32 and uint8_t are supported currently, got %d.",
 149:../src/tensorflow_lite/tensorflow/lite/micro/kernels/prelu.cc ****           TfLiteTypeGetName(input->type));
 150:../src/tensorflow_lite/tensorflow/lite/micro/kernels/prelu.cc ****       return kTfLiteError;
 432              		.loc 1 150 0
 433 00a0 0100A0E3 		mov	r0, #1
 434              	.LVL48:
 435              	.L739:
 151:../src/tensorflow_lite/tensorflow/lite/micro/kernels/prelu.cc ****   }
 152:../src/tensorflow_lite/tensorflow/lite/micro/kernels/prelu.cc **** }
 436              		.loc 1 152 0
 437 00a4 59DF8DE2 		add	sp, sp, #356
 438              		.cfi_remember_state
 439              		.cfi_def_cfa_offset 36
 440              		@ sp needed
 441 00a8 F08FBDE8 		pop	{r4, r5, r6, r7, r8, r9, r10, fp, pc}
 442              	.LVL49:
 443              	.L916:
 444              		.cfi_restore_state
 118:../src/tensorflow_lite/tensorflow/lite/micro/kernels/prelu.cc ****                                 tflite::micro::GetTensorData<float>(input),
 445              		.loc 1 118 0
 446 00ac 0810A0E1 		mov	r1, r8
 447 00b0 90008DE2 		add	r0, sp, #144
 448 00b4 FEFFFFEB 		bl	_ZN6tflite5micro14GetTensorShapeEPK16TfLiteEvalTensor
 449              	.LVL50:
 450              	.LEHE0:
 120:../src/tensorflow_lite/tensorflow/lite/micro/kernels/prelu.cc ****                                 tflite::micro::GetTensorData<float>(alpha),
 451              		.loc 1 120 0
 452 00b8 0710A0E1 		mov	r1, r7
 453 00bc A8008DE2 		add	r0, sp, #168
 454              	.LBB768:
 455              	.LBB769:
  51:C:/Renesas/e2studio_2021_01_workspace_RZA2M_ANPR/ANPR_RZA2M_EBK/src/tensorflow_lite/tensorflow/lite/micro/kernels\kernel_util.h **** }
  52:C:/Renesas/e2studio_2021_01_workspace_RZA2M_ANPR/ANPR_RZA2M_EBK/src/tensorflow_lite/tensorflow/lite/micro/kernels\kernel_util.h **** 
  53:C:/Renesas/e2studio_2021_01_workspace_RZA2M_ANPR/ANPR_RZA2M_EBK/src/tensorflow_lite/tensorflow/lite/micro/kernels\kernel_util.h **** // Returns data for a TfLiteEvalTensor struct.
  54:C:/Renesas/e2studio_2021_01_workspace_RZA2M_ANPR/ANPR_RZA2M_EBK/src/tensorflow_lite/tensorflow/lite/micro/kernels\kernel_util.h **** template <typename T>
  55:C:/Renesas/e2studio_2021_01_workspace_RZA2M_ANPR/ANPR_RZA2M_EBK/src/tensorflow_lite/tensorflow/lite/micro/kernels\kernel_util.h **** T* GetTensorData(TfLiteEvalTensor* tensor) {
  56:C:/Renesas/e2studio_2021_01_workspace_RZA2M_ANPR/ANPR_RZA2M_EBK/src/tensorflow_lite/tensorflow/lite/micro/kernels\kernel_util.h ****   return tensor != nullptr ? reinterpret_cast<T*>(tensor->data.raw) : nullptr;
  57:C:/Renesas/e2studio_2021_01_workspace_RZA2M_ANPR/ANPR_RZA2M_EBK/src/tensorflow_lite/tensorflow/lite/micro/kernels\kernel_util.h **** }
  58:C:/Renesas/e2studio_2021_01_workspace_RZA2M_ANPR/ANPR_RZA2M_EBK/src/tensorflow_lite/tensorflow/lite/micro/kernels\kernel_util.h **** 
  59:C:/Renesas/e2studio_2021_01_workspace_RZA2M_ANPR/ANPR_RZA2M_EBK/src/tensorflow_lite/tensorflow/lite/micro/kernels\kernel_util.h **** // Returns const data for a TfLiteEvalTensor struct.
  60:C:/Renesas/e2studio_2021_01_workspace_RZA2M_ANPR/ANPR_RZA2M_EBK/src/tensorflow_lite/tensorflow/lite/micro/kernels\kernel_util.h **** template <typename T>
  61:C:/Renesas/e2studio_2021_01_workspace_RZA2M_ANPR/ANPR_RZA2M_EBK/src/tensorflow_lite/tensorflow/lite/micro/kernels\kernel_util.h **** const T* GetTensorData(const TfLiteEvalTensor* tensor) {
  62:C:/Renesas/e2studio_2021_01_workspace_RZA2M_ANPR/ANPR_RZA2M_EBK/src/tensorflow_lite/tensorflow/lite/micro/kernels\kernel_util.h ****   TFLITE_DCHECK(tensor != nullptr);
  63:C:/Renesas/e2studio_2021_01_workspace_RZA2M_ANPR/ANPR_RZA2M_EBK/src/tensorflow_lite/tensorflow/lite/micro/kernels\kernel_util.h ****   return reinterpret_cast<const T*>(tensor->data.raw);
 456              		.loc 2 63 0
 457 00c0 00B098E5 		ldr	fp, [r8]
 458              	.LEHB1:
 459              	.LBE769:
 460              	.LBE768:
 120:../src/tensorflow_lite/tensorflow/lite/micro/kernels/prelu.cc ****                                 tflite::micro::GetTensorData<float>(alpha),
 461              		.loc 1 120 0
 462 00c4 FEFFFFEB 		bl	_ZN6tflite5micro14GetTensorShapeEPK16TfLiteEvalTensor
 463              	.LVL51:
 464              	.LEHE1:
 465              	.LBB770:
 466              	.LBB771:
  62:C:/Renesas/e2studio_2021_01_workspace_RZA2M_ANPR/ANPR_RZA2M_EBK/src/tensorflow_lite/tensorflow/lite/micro/kernels\kernel_util.h ****   return reinterpret_cast<const T*>(tensor->data.raw);
 467              		.loc 2 62 0
 468 00c8 000057E3 		cmp	r7, #0
 469 00cc 1A09000A 		beq	.L917
 470              	.LBE771:
 471              	.LBE770:
 122:../src/tensorflow_lite/tensorflow/lite/micro/kernels/prelu.cc ****                                 tflite::micro::GetTensorData<float>(output));
 472              		.loc 1 122 0
 473 00d0 0610A0E1 		mov	r1, r6
 474 00d4 C0008DE2 		add	r0, sp, #192
 475              	.LBB774:
 476              	.LBB772:
 477              		.loc 2 63 0
 478 00d8 004097E5 		ldr	r4, [r7]
 479              	.LVL52:
 480              	.LEHB2:
 481              	.LBE772:
 482              	.LBE774:
 122:../src/tensorflow_lite/tensorflow/lite/micro/kernels/prelu.cc ****                                 tflite::micro::GetTensorData<float>(output));
 483              		.loc 1 122 0
 484 00dc FEFFFFEB 		bl	_ZN6tflite5micro14GetTensorShapeEPK16TfLiteEvalTensor
 485              	.LVL53:
 486              	.LEHE2:
 487 00e0 90709DE5 		ldr	r7, [sp, #144]
 488              	.LBB775:
 489              	.LBB776:
  56:C:/Renesas/e2studio_2021_01_workspace_RZA2M_ANPR/ANPR_RZA2M_EBK/src/tensorflow_lite/tensorflow/lite/micro/kernels\kernel_util.h **** }
 490              		.loc 2 56 0
 491 00e4 000056E3 		cmp	r6, #0
 492 00e8 00609615 		ldrne	r6, [r6]
 493              	.LVL54:
 494              	.LBE776:
 495              	.LBE775:
 496              	.LBB777:
 497              	.LBB778:
  61:../src/tensorflow_lite/tensorflow/lite/micro/kernels/prelu.cc ****   TFLITE_DCHECK_LE(unextended_input2_shape.DimensionsCount(), 4);
 498              		.loc 1 61 0
 499 00ec 040057E3 		cmp	r7, #4
 500 00f0 AB0800CA 		bgt	.L918
 501 00f4 A8509DE5 		ldr	r5, [sp, #168]
 502              	.LVL55:
  62:../src/tensorflow_lite/tensorflow/lite/micro/kernels/prelu.cc ****   TFLITE_DCHECK_LE(unextended_output_shape.DimensionsCount(), 4);
 503              		.loc 1 62 0
 504 00f8 040055E3 		cmp	r5, #4
 505 00fc A90800CA 		bgt	.L919
 506 0100 C0209DE5 		ldr	r2, [sp, #192]
 507              	.LVL56:
  63:../src/tensorflow_lite/tensorflow/lite/micro/kernels/prelu.cc ****   const RuntimeShape output_shape =
 508              		.loc 1 63 0
 509 0104 040052E3 		cmp	r2, #4
 510 0108 080900CA 		bgt	.L920
 511              	.LVL57:
 512              	.LBB779:
 513              	.LBB780:
 514              	.LBB781:
 515              	.LBB782:
 516              	.LBB783:
 517              		.file 3 "C:/Renesas/e2studio_2021_01_workspace_RZA2M_ANPR/ANPR_RZA2M_EBK/src/tensorflow_lite/tenso
   1:C:/Renesas/e2studio_2021_01_workspace_RZA2M_ANPR/ANPR_RZA2M_EBK/src/tensorflow_lite/tensorflow/lite/kernels/internal\types.h **** /* Copyright 2018 The TensorFlow Authors. All Rights Reserved.
   2:C:/Renesas/e2studio_2021_01_workspace_RZA2M_ANPR/ANPR_RZA2M_EBK/src/tensorflow_lite/tensorflow/lite/kernels/internal\types.h **** 
   3:C:/Renesas/e2studio_2021_01_workspace_RZA2M_ANPR/ANPR_RZA2M_EBK/src/tensorflow_lite/tensorflow/lite/kernels/internal\types.h **** Licensed under the Apache License, Version 2.0 (the "License");
   4:C:/Renesas/e2studio_2021_01_workspace_RZA2M_ANPR/ANPR_RZA2M_EBK/src/tensorflow_lite/tensorflow/lite/kernels/internal\types.h **** you may not use this file except in compliance with the License.
   5:C:/Renesas/e2studio_2021_01_workspace_RZA2M_ANPR/ANPR_RZA2M_EBK/src/tensorflow_lite/tensorflow/lite/kernels/internal\types.h **** You may obtain a copy of the License at
   6:C:/Renesas/e2studio_2021_01_workspace_RZA2M_ANPR/ANPR_RZA2M_EBK/src/tensorflow_lite/tensorflow/lite/kernels/internal\types.h **** 
   7:C:/Renesas/e2studio_2021_01_workspace_RZA2M_ANPR/ANPR_RZA2M_EBK/src/tensorflow_lite/tensorflow/lite/kernels/internal\types.h ****     http://www.apache.org/licenses/LICENSE-2.0
   8:C:/Renesas/e2studio_2021_01_workspace_RZA2M_ANPR/ANPR_RZA2M_EBK/src/tensorflow_lite/tensorflow/lite/kernels/internal\types.h **** 
   9:C:/Renesas/e2studio_2021_01_workspace_RZA2M_ANPR/ANPR_RZA2M_EBK/src/tensorflow_lite/tensorflow/lite/kernels/internal\types.h **** Unless required by applicable law or agreed to in writing, software
  10:C:/Renesas/e2studio_2021_01_workspace_RZA2M_ANPR/ANPR_RZA2M_EBK/src/tensorflow_lite/tensorflow/lite/kernels/internal\types.h **** distributed under the License is distributed on an "AS IS" BASIS,
  11:C:/Renesas/e2studio_2021_01_workspace_RZA2M_ANPR/ANPR_RZA2M_EBK/src/tensorflow_lite/tensorflow/lite/kernels/internal\types.h **** WITHOUT WARRANTIES OR CONDITIONS OF ANY KIND, either express or implied.
  12:C:/Renesas/e2studio_2021_01_workspace_RZA2M_ANPR/ANPR_RZA2M_EBK/src/tensorflow_lite/tensorflow/lite/kernels/internal\types.h **** See the License for the specific language governing permissions and
  13:C:/Renesas/e2studio_2021_01_workspace_RZA2M_ANPR/ANPR_RZA2M_EBK/src/tensorflow_lite/tensorflow/lite/kernels/internal\types.h **** limitations under the License.
  14:C:/Renesas/e2studio_2021_01_workspace_RZA2M_ANPR/ANPR_RZA2M_EBK/src/tensorflow_lite/tensorflow/lite/kernels/internal\types.h **** ==============================================================================*/
  15:C:/Renesas/e2studio_2021_01_workspace_RZA2M_ANPR/ANPR_RZA2M_EBK/src/tensorflow_lite/tensorflow/lite/kernels/internal\types.h **** #ifndef TENSORFLOW_LITE_KERNELS_INTERNAL_TYPES_H_
  16:C:/Renesas/e2studio_2021_01_workspace_RZA2M_ANPR/ANPR_RZA2M_EBK/src/tensorflow_lite/tensorflow/lite/kernels/internal\types.h **** #define TENSORFLOW_LITE_KERNELS_INTERNAL_TYPES_H_
  17:C:/Renesas/e2studio_2021_01_workspace_RZA2M_ANPR/ANPR_RZA2M_EBK/src/tensorflow_lite/tensorflow/lite/kernels/internal\types.h **** 
  18:C:/Renesas/e2studio_2021_01_workspace_RZA2M_ANPR/ANPR_RZA2M_EBK/src/tensorflow_lite/tensorflow/lite/kernels/internal\types.h **** #include <algorithm>
  19:C:/Renesas/e2studio_2021_01_workspace_RZA2M_ANPR/ANPR_RZA2M_EBK/src/tensorflow_lite/tensorflow/lite/kernels/internal\types.h **** #include <cstdint>
  20:C:/Renesas/e2studio_2021_01_workspace_RZA2M_ANPR/ANPR_RZA2M_EBK/src/tensorflow_lite/tensorflow/lite/kernels/internal\types.h **** #include <cstring>
  21:C:/Renesas/e2studio_2021_01_workspace_RZA2M_ANPR/ANPR_RZA2M_EBK/src/tensorflow_lite/tensorflow/lite/kernels/internal\types.h **** #include <initializer_list>
  22:C:/Renesas/e2studio_2021_01_workspace_RZA2M_ANPR/ANPR_RZA2M_EBK/src/tensorflow_lite/tensorflow/lite/kernels/internal\types.h **** 
  23:C:/Renesas/e2studio_2021_01_workspace_RZA2M_ANPR/ANPR_RZA2M_EBK/src/tensorflow_lite/tensorflow/lite/kernels/internal\types.h **** #include "tensorflow/lite/kernels/internal/compatibility.h"
  24:C:/Renesas/e2studio_2021_01_workspace_RZA2M_ANPR/ANPR_RZA2M_EBK/src/tensorflow_lite/tensorflow/lite/kernels/internal\types.h **** 
  25:C:/Renesas/e2studio_2021_01_workspace_RZA2M_ANPR/ANPR_RZA2M_EBK/src/tensorflow_lite/tensorflow/lite/kernels/internal\types.h **** namespace tflite {
  26:C:/Renesas/e2studio_2021_01_workspace_RZA2M_ANPR/ANPR_RZA2M_EBK/src/tensorflow_lite/tensorflow/lite/kernels/internal\types.h **** 
  27:C:/Renesas/e2studio_2021_01_workspace_RZA2M_ANPR/ANPR_RZA2M_EBK/src/tensorflow_lite/tensorflow/lite/kernels/internal\types.h **** enum class FusedActivationFunctionType : uint8_t {
  28:C:/Renesas/e2studio_2021_01_workspace_RZA2M_ANPR/ANPR_RZA2M_EBK/src/tensorflow_lite/tensorflow/lite/kernels/internal\types.h ****   kNone,
  29:C:/Renesas/e2studio_2021_01_workspace_RZA2M_ANPR/ANPR_RZA2M_EBK/src/tensorflow_lite/tensorflow/lite/kernels/internal\types.h ****   kRelu6,
  30:C:/Renesas/e2studio_2021_01_workspace_RZA2M_ANPR/ANPR_RZA2M_EBK/src/tensorflow_lite/tensorflow/lite/kernels/internal\types.h ****   kRelu1,
  31:C:/Renesas/e2studio_2021_01_workspace_RZA2M_ANPR/ANPR_RZA2M_EBK/src/tensorflow_lite/tensorflow/lite/kernels/internal\types.h ****   kRelu
  32:C:/Renesas/e2studio_2021_01_workspace_RZA2M_ANPR/ANPR_RZA2M_EBK/src/tensorflow_lite/tensorflow/lite/kernels/internal\types.h **** };
  33:C:/Renesas/e2studio_2021_01_workspace_RZA2M_ANPR/ANPR_RZA2M_EBK/src/tensorflow_lite/tensorflow/lite/kernels/internal\types.h **** enum class PaddingType : uint8_t { kNone, kSame, kValid };
  34:C:/Renesas/e2studio_2021_01_workspace_RZA2M_ANPR/ANPR_RZA2M_EBK/src/tensorflow_lite/tensorflow/lite/kernels/internal\types.h **** 
  35:C:/Renesas/e2studio_2021_01_workspace_RZA2M_ANPR/ANPR_RZA2M_EBK/src/tensorflow_lite/tensorflow/lite/kernels/internal\types.h **** struct PaddingValues {
  36:C:/Renesas/e2studio_2021_01_workspace_RZA2M_ANPR/ANPR_RZA2M_EBK/src/tensorflow_lite/tensorflow/lite/kernels/internal\types.h ****   int16_t width;
  37:C:/Renesas/e2studio_2021_01_workspace_RZA2M_ANPR/ANPR_RZA2M_EBK/src/tensorflow_lite/tensorflow/lite/kernels/internal\types.h ****   int16_t height;
  38:C:/Renesas/e2studio_2021_01_workspace_RZA2M_ANPR/ANPR_RZA2M_EBK/src/tensorflow_lite/tensorflow/lite/kernels/internal\types.h ****   // offset is used for calculating "remaining" padding, for example, `width`
  39:C:/Renesas/e2studio_2021_01_workspace_RZA2M_ANPR/ANPR_RZA2M_EBK/src/tensorflow_lite/tensorflow/lite/kernels/internal\types.h ****   // is 1 and `width_offset` is 1, so padding_left is 1 while padding_right is
  40:C:/Renesas/e2studio_2021_01_workspace_RZA2M_ANPR/ANPR_RZA2M_EBK/src/tensorflow_lite/tensorflow/lite/kernels/internal\types.h ****   // 1 + 1 = 2.
  41:C:/Renesas/e2studio_2021_01_workspace_RZA2M_ANPR/ANPR_RZA2M_EBK/src/tensorflow_lite/tensorflow/lite/kernels/internal\types.h ****   int16_t width_offset;
  42:C:/Renesas/e2studio_2021_01_workspace_RZA2M_ANPR/ANPR_RZA2M_EBK/src/tensorflow_lite/tensorflow/lite/kernels/internal\types.h ****   // Same as width_offset except it's over the height dimension.
  43:C:/Renesas/e2studio_2021_01_workspace_RZA2M_ANPR/ANPR_RZA2M_EBK/src/tensorflow_lite/tensorflow/lite/kernels/internal\types.h ****   int16_t height_offset;
  44:C:/Renesas/e2studio_2021_01_workspace_RZA2M_ANPR/ANPR_RZA2M_EBK/src/tensorflow_lite/tensorflow/lite/kernels/internal\types.h **** };
  45:C:/Renesas/e2studio_2021_01_workspace_RZA2M_ANPR/ANPR_RZA2M_EBK/src/tensorflow_lite/tensorflow/lite/kernels/internal\types.h **** 
  46:C:/Renesas/e2studio_2021_01_workspace_RZA2M_ANPR/ANPR_RZA2M_EBK/src/tensorflow_lite/tensorflow/lite/kernels/internal\types.h **** struct Padding3DValues {
  47:C:/Renesas/e2studio_2021_01_workspace_RZA2M_ANPR/ANPR_RZA2M_EBK/src/tensorflow_lite/tensorflow/lite/kernels/internal\types.h ****   int16_t width;
  48:C:/Renesas/e2studio_2021_01_workspace_RZA2M_ANPR/ANPR_RZA2M_EBK/src/tensorflow_lite/tensorflow/lite/kernels/internal\types.h ****   int16_t height;
  49:C:/Renesas/e2studio_2021_01_workspace_RZA2M_ANPR/ANPR_RZA2M_EBK/src/tensorflow_lite/tensorflow/lite/kernels/internal\types.h ****   int16_t depth;
  50:C:/Renesas/e2studio_2021_01_workspace_RZA2M_ANPR/ANPR_RZA2M_EBK/src/tensorflow_lite/tensorflow/lite/kernels/internal\types.h ****   // offset is used for calculating "remaining" padding, for example, `width`
  51:C:/Renesas/e2studio_2021_01_workspace_RZA2M_ANPR/ANPR_RZA2M_EBK/src/tensorflow_lite/tensorflow/lite/kernels/internal\types.h ****   // is 1 and `width_offset` is 1, so padding_left is 1 while padding_right is
  52:C:/Renesas/e2studio_2021_01_workspace_RZA2M_ANPR/ANPR_RZA2M_EBK/src/tensorflow_lite/tensorflow/lite/kernels/internal\types.h ****   // 1 + 1 = 2.
  53:C:/Renesas/e2studio_2021_01_workspace_RZA2M_ANPR/ANPR_RZA2M_EBK/src/tensorflow_lite/tensorflow/lite/kernels/internal\types.h ****   int16_t width_offset;
  54:C:/Renesas/e2studio_2021_01_workspace_RZA2M_ANPR/ANPR_RZA2M_EBK/src/tensorflow_lite/tensorflow/lite/kernels/internal\types.h ****   // Same as width_offset except it's over the height dimension.
  55:C:/Renesas/e2studio_2021_01_workspace_RZA2M_ANPR/ANPR_RZA2M_EBK/src/tensorflow_lite/tensorflow/lite/kernels/internal\types.h ****   int16_t height_offset;
  56:C:/Renesas/e2studio_2021_01_workspace_RZA2M_ANPR/ANPR_RZA2M_EBK/src/tensorflow_lite/tensorflow/lite/kernels/internal\types.h ****   // Same as width_offset except it's over the depth dimension.
  57:C:/Renesas/e2studio_2021_01_workspace_RZA2M_ANPR/ANPR_RZA2M_EBK/src/tensorflow_lite/tensorflow/lite/kernels/internal\types.h ****   int16_t depth_offset;
  58:C:/Renesas/e2studio_2021_01_workspace_RZA2M_ANPR/ANPR_RZA2M_EBK/src/tensorflow_lite/tensorflow/lite/kernels/internal\types.h **** };
  59:C:/Renesas/e2studio_2021_01_workspace_RZA2M_ANPR/ANPR_RZA2M_EBK/src/tensorflow_lite/tensorflow/lite/kernels/internal\types.h **** 
  60:C:/Renesas/e2studio_2021_01_workspace_RZA2M_ANPR/ANPR_RZA2M_EBK/src/tensorflow_lite/tensorflow/lite/kernels/internal\types.h **** // This enumeration allows for non-default formats for the weights array
  61:C:/Renesas/e2studio_2021_01_workspace_RZA2M_ANPR/ANPR_RZA2M_EBK/src/tensorflow_lite/tensorflow/lite/kernels/internal\types.h **** // of a fully-connected operator, allowing the use of special optimized
  62:C:/Renesas/e2studio_2021_01_workspace_RZA2M_ANPR/ANPR_RZA2M_EBK/src/tensorflow_lite/tensorflow/lite/kernels/internal\types.h **** // runtime paths.
  63:C:/Renesas/e2studio_2021_01_workspace_RZA2M_ANPR/ANPR_RZA2M_EBK/src/tensorflow_lite/tensorflow/lite/kernels/internal\types.h **** enum class FullyConnectedWeightsFormat : uint8_t {
  64:C:/Renesas/e2studio_2021_01_workspace_RZA2M_ANPR/ANPR_RZA2M_EBK/src/tensorflow_lite/tensorflow/lite/kernels/internal\types.h ****   // Default format (flat 2D layout, the inner contiguous dimension
  65:C:/Renesas/e2studio_2021_01_workspace_RZA2M_ANPR/ANPR_RZA2M_EBK/src/tensorflow_lite/tensorflow/lite/kernels/internal\types.h ****   // is input_depth, the outer non-contiguous dimension is output_depth)
  66:C:/Renesas/e2studio_2021_01_workspace_RZA2M_ANPR/ANPR_RZA2M_EBK/src/tensorflow_lite/tensorflow/lite/kernels/internal\types.h ****   kDefault,
  67:C:/Renesas/e2studio_2021_01_workspace_RZA2M_ANPR/ANPR_RZA2M_EBK/src/tensorflow_lite/tensorflow/lite/kernels/internal\types.h ****   // Summary: optimized layout for fast CPU runtime implementation,
  68:C:/Renesas/e2studio_2021_01_workspace_RZA2M_ANPR/ANPR_RZA2M_EBK/src/tensorflow_lite/tensorflow/lite/kernels/internal\types.h ****   // aimed specifically at ARM CPUs at the moment, and specialized for
  69:C:/Renesas/e2studio_2021_01_workspace_RZA2M_ANPR/ANPR_RZA2M_EBK/src/tensorflow_lite/tensorflow/lite/kernels/internal\types.h ****   // 8-bit quantized layers.
  70:C:/Renesas/e2studio_2021_01_workspace_RZA2M_ANPR/ANPR_RZA2M_EBK/src/tensorflow_lite/tensorflow/lite/kernels/internal\types.h ****   //
  71:C:/Renesas/e2studio_2021_01_workspace_RZA2M_ANPR/ANPR_RZA2M_EBK/src/tensorflow_lite/tensorflow/lite/kernels/internal\types.h ****   // The use case we're concerned with here is: 8-bit quantization,
  72:C:/Renesas/e2studio_2021_01_workspace_RZA2M_ANPR/ANPR_RZA2M_EBK/src/tensorflow_lite/tensorflow/lite/kernels/internal\types.h ****   // large weights matrix that doesn't fit in cache (e.g. 4096x2048 in
  73:C:/Renesas/e2studio_2021_01_workspace_RZA2M_ANPR/ANPR_RZA2M_EBK/src/tensorflow_lite/tensorflow/lite/kernels/internal\types.h ****   // a key application that drove this), very small batch size (e.g. 1 -- 4).
  74:C:/Renesas/e2studio_2021_01_workspace_RZA2M_ANPR/ANPR_RZA2M_EBK/src/tensorflow_lite/tensorflow/lite/kernels/internal\types.h ****   //
  75:C:/Renesas/e2studio_2021_01_workspace_RZA2M_ANPR/ANPR_RZA2M_EBK/src/tensorflow_lite/tensorflow/lite/kernels/internal\types.h ****   // Even with 8-bit quantization of weights, the performance of memory
  76:C:/Renesas/e2studio_2021_01_workspace_RZA2M_ANPR/ANPR_RZA2M_EBK/src/tensorflow_lite/tensorflow/lite/kernels/internal\types.h ****   // accesses to the weights can become the dominant issue when
  77:C:/Renesas/e2studio_2021_01_workspace_RZA2M_ANPR/ANPR_RZA2M_EBK/src/tensorflow_lite/tensorflow/lite/kernels/internal\types.h ****   // the batch size is small, so each weight value is used in only a few
  78:C:/Renesas/e2studio_2021_01_workspace_RZA2M_ANPR/ANPR_RZA2M_EBK/src/tensorflow_lite/tensorflow/lite/kernels/internal\types.h ****   // arithmetic ops, i.e. the fully-connected node has a low arithmetic
  79:C:/Renesas/e2studio_2021_01_workspace_RZA2M_ANPR/ANPR_RZA2M_EBK/src/tensorflow_lite/tensorflow/lite/kernels/internal\types.h ****   // intensity. The specific issues that arise are of three kinds:
  80:C:/Renesas/e2studio_2021_01_workspace_RZA2M_ANPR/ANPR_RZA2M_EBK/src/tensorflow_lite/tensorflow/lite/kernels/internal\types.h ****   // (1) One may, ideally, max out DRAM bandwidth, i.e. be truly memory
  81:C:/Renesas/e2studio_2021_01_workspace_RZA2M_ANPR/ANPR_RZA2M_EBK/src/tensorflow_lite/tensorflow/lite/kernels/internal\types.h ****   //     bound. That's the "good" issue to run into.
  82:C:/Renesas/e2studio_2021_01_workspace_RZA2M_ANPR/ANPR_RZA2M_EBK/src/tensorflow_lite/tensorflow/lite/kernels/internal\types.h ****   // (2) One may run into sub-optimal pre-fetching: the data hasn't been
  83:C:/Renesas/e2studio_2021_01_workspace_RZA2M_ANPR/ANPR_RZA2M_EBK/src/tensorflow_lite/tensorflow/lite/kernels/internal\types.h ****   //     prefetched into the cache by the time we need it.
  84:C:/Renesas/e2studio_2021_01_workspace_RZA2M_ANPR/ANPR_RZA2M_EBK/src/tensorflow_lite/tensorflow/lite/kernels/internal\types.h ****   // (3) One may run into cache aliasing: multiple values that are
  85:C:/Renesas/e2studio_2021_01_workspace_RZA2M_ANPR/ANPR_RZA2M_EBK/src/tensorflow_lite/tensorflow/lite/kernels/internal\types.h ****   //     pre-fetched, alias each other in the L1 cache (which typically
  86:C:/Renesas/e2studio_2021_01_workspace_RZA2M_ANPR/ANPR_RZA2M_EBK/src/tensorflow_lite/tensorflow/lite/kernels/internal\types.h ****   //     has only 4-way set associativity in ARM CPUs) and thus evict
  87:C:/Renesas/e2studio_2021_01_workspace_RZA2M_ANPR/ANPR_RZA2M_EBK/src/tensorflow_lite/tensorflow/lite/kernels/internal\types.h ****   //     each other before we get to using them.
  88:C:/Renesas/e2studio_2021_01_workspace_RZA2M_ANPR/ANPR_RZA2M_EBK/src/tensorflow_lite/tensorflow/lite/kernels/internal\types.h ****   //
  89:C:/Renesas/e2studio_2021_01_workspace_RZA2M_ANPR/ANPR_RZA2M_EBK/src/tensorflow_lite/tensorflow/lite/kernels/internal\types.h ****   // The point of this shuffling is to avoid issues (2) and (3) so that
  90:C:/Renesas/e2studio_2021_01_workspace_RZA2M_ANPR/ANPR_RZA2M_EBK/src/tensorflow_lite/tensorflow/lite/kernels/internal\types.h ****   // we get as fast as possible given only the hard constraint (1).
  91:C:/Renesas/e2studio_2021_01_workspace_RZA2M_ANPR/ANPR_RZA2M_EBK/src/tensorflow_lite/tensorflow/lite/kernels/internal\types.h ****   // This is achieved by turning the difficulty into a solution: the
  92:C:/Renesas/e2studio_2021_01_workspace_RZA2M_ANPR/ANPR_RZA2M_EBK/src/tensorflow_lite/tensorflow/lite/kernels/internal\types.h ****   // difficulty, that each value loaded from memory is used only in
  93:C:/Renesas/e2studio_2021_01_workspace_RZA2M_ANPR/ANPR_RZA2M_EBK/src/tensorflow_lite/tensorflow/lite/kernels/internal\types.h ****   // one kernel iteration, making this operation memory-intensive, hints at
  94:C:/Renesas/e2studio_2021_01_workspace_RZA2M_ANPR/ANPR_RZA2M_EBK/src/tensorflow_lite/tensorflow/lite/kernels/internal\types.h ****   // the solution, of shuffling the weights so that they are stored in the
  95:C:/Renesas/e2studio_2021_01_workspace_RZA2M_ANPR/ANPR_RZA2M_EBK/src/tensorflow_lite/tensorflow/lite/kernels/internal\types.h ****   // exact order as the kernel needs to load them, so that the memory
  96:C:/Renesas/e2studio_2021_01_workspace_RZA2M_ANPR/ANPR_RZA2M_EBK/src/tensorflow_lite/tensorflow/lite/kernels/internal\types.h ****   // accesses made by the kernel are trivial. This solves (2) because the
  97:C:/Renesas/e2studio_2021_01_workspace_RZA2M_ANPR/ANPR_RZA2M_EBK/src/tensorflow_lite/tensorflow/lite/kernels/internal\types.h ****   // trivial memory access pattern allows the CPU's automatic prefetching
  98:C:/Renesas/e2studio_2021_01_workspace_RZA2M_ANPR/ANPR_RZA2M_EBK/src/tensorflow_lite/tensorflow/lite/kernels/internal\types.h ****   // to perform very well (no need even for preload instructions), and this
  99:C:/Renesas/e2studio_2021_01_workspace_RZA2M_ANPR/ANPR_RZA2M_EBK/src/tensorflow_lite/tensorflow/lite/kernels/internal\types.h ****   // solves (3) because the values being loaded concurrently are now
 100:C:/Renesas/e2studio_2021_01_workspace_RZA2M_ANPR/ANPR_RZA2M_EBK/src/tensorflow_lite/tensorflow/lite/kernels/internal\types.h ****   // contiguous in the address space, thus don't alias each other in the cache.
 101:C:/Renesas/e2studio_2021_01_workspace_RZA2M_ANPR/ANPR_RZA2M_EBK/src/tensorflow_lite/tensorflow/lite/kernels/internal\types.h ****   //
 102:C:/Renesas/e2studio_2021_01_workspace_RZA2M_ANPR/ANPR_RZA2M_EBK/src/tensorflow_lite/tensorflow/lite/kernels/internal\types.h ****   // On ARM, we typically want our kernel to process a 4x16 block of weights
 103:C:/Renesas/e2studio_2021_01_workspace_RZA2M_ANPR/ANPR_RZA2M_EBK/src/tensorflow_lite/tensorflow/lite/kernels/internal\types.h ****   // at a time, because:
 104:C:/Renesas/e2studio_2021_01_workspace_RZA2M_ANPR/ANPR_RZA2M_EBK/src/tensorflow_lite/tensorflow/lite/kernels/internal\types.h ****   //   - 16 is the number of bytes in a NEON register.
 105:C:/Renesas/e2studio_2021_01_workspace_RZA2M_ANPR/ANPR_RZA2M_EBK/src/tensorflow_lite/tensorflow/lite/kernels/internal\types.h ****   //   - 4 is how many rows we need to handle concurrently in the kernel in
 106:C:/Renesas/e2studio_2021_01_workspace_RZA2M_ANPR/ANPR_RZA2M_EBK/src/tensorflow_lite/tensorflow/lite/kernels/internal\types.h ****   //     order to have sufficient mutual independence of instructions to
 107:C:/Renesas/e2studio_2021_01_workspace_RZA2M_ANPR/ANPR_RZA2M_EBK/src/tensorflow_lite/tensorflow/lite/kernels/internal\types.h ****   //     maximize arithmetic throughput.
 108:C:/Renesas/e2studio_2021_01_workspace_RZA2M_ANPR/ANPR_RZA2M_EBK/src/tensorflow_lite/tensorflow/lite/kernels/internal\types.h ****   //
 109:C:/Renesas/e2studio_2021_01_workspace_RZA2M_ANPR/ANPR_RZA2M_EBK/src/tensorflow_lite/tensorflow/lite/kernels/internal\types.h ****   // Finally, the 'Int8' part in the name refers to the fact that this
 110:C:/Renesas/e2studio_2021_01_workspace_RZA2M_ANPR/ANPR_RZA2M_EBK/src/tensorflow_lite/tensorflow/lite/kernels/internal\types.h ****   // weights format has each weights value encoded as a signed int8_t value,
 111:C:/Renesas/e2studio_2021_01_workspace_RZA2M_ANPR/ANPR_RZA2M_EBK/src/tensorflow_lite/tensorflow/lite/kernels/internal\types.h ****   // even if the data type of the weights buffer is uint8_t.  This is intended
 112:C:/Renesas/e2studio_2021_01_workspace_RZA2M_ANPR/ANPR_RZA2M_EBK/src/tensorflow_lite/tensorflow/lite/kernels/internal\types.h ****   // to save runtime kernels the effort to have to XOR the top bit of these
 113:C:/Renesas/e2studio_2021_01_workspace_RZA2M_ANPR/ANPR_RZA2M_EBK/src/tensorflow_lite/tensorflow/lite/kernels/internal\types.h ****   // bytes before using them in signed arithmetic, see this file for more
 114:C:/Renesas/e2studio_2021_01_workspace_RZA2M_ANPR/ANPR_RZA2M_EBK/src/tensorflow_lite/tensorflow/lite/kernels/internal\types.h ****   // explanations on the 'signed int8_t trick' in matrix multiplication kernels:
 115:C:/Renesas/e2studio_2021_01_workspace_RZA2M_ANPR/ANPR_RZA2M_EBK/src/tensorflow_lite/tensorflow/lite/kernels/internal\types.h ****   //
 116:C:/Renesas/e2studio_2021_01_workspace_RZA2M_ANPR/ANPR_RZA2M_EBK/src/tensorflow_lite/tensorflow/lite/kernels/internal\types.h ****   //   tensorflow/lite/toco/graph_transformations/ensure_uint8_weights_safe_for_fast_int8_kernels.c
 117:C:/Renesas/e2studio_2021_01_workspace_RZA2M_ANPR/ANPR_RZA2M_EBK/src/tensorflow_lite/tensorflow/lite/kernels/internal\types.h ****   //
 118:C:/Renesas/e2studio_2021_01_workspace_RZA2M_ANPR/ANPR_RZA2M_EBK/src/tensorflow_lite/tensorflow/lite/kernels/internal\types.h ****   kShuffled4x16Int8,
 119:C:/Renesas/e2studio_2021_01_workspace_RZA2M_ANPR/ANPR_RZA2M_EBK/src/tensorflow_lite/tensorflow/lite/kernels/internal\types.h **** };
 120:C:/Renesas/e2studio_2021_01_workspace_RZA2M_ANPR/ANPR_RZA2M_EBK/src/tensorflow_lite/tensorflow/lite/kernels/internal\types.h **** 
 121:C:/Renesas/e2studio_2021_01_workspace_RZA2M_ANPR/ANPR_RZA2M_EBK/src/tensorflow_lite/tensorflow/lite/kernels/internal\types.h **** // Quantization parameters, determining the mapping of quantized values
 122:C:/Renesas/e2studio_2021_01_workspace_RZA2M_ANPR/ANPR_RZA2M_EBK/src/tensorflow_lite/tensorflow/lite/kernels/internal\types.h **** // to real values (i.e. determining how quantized values are mathematically
 123:C:/Renesas/e2studio_2021_01_workspace_RZA2M_ANPR/ANPR_RZA2M_EBK/src/tensorflow_lite/tensorflow/lite/kernels/internal\types.h **** // interpreted).
 124:C:/Renesas/e2studio_2021_01_workspace_RZA2M_ANPR/ANPR_RZA2M_EBK/src/tensorflow_lite/tensorflow/lite/kernels/internal\types.h **** //
 125:C:/Renesas/e2studio_2021_01_workspace_RZA2M_ANPR/ANPR_RZA2M_EBK/src/tensorflow_lite/tensorflow/lite/kernels/internal\types.h **** // The correspondence is as follows:
 126:C:/Renesas/e2studio_2021_01_workspace_RZA2M_ANPR/ANPR_RZA2M_EBK/src/tensorflow_lite/tensorflow/lite/kernels/internal\types.h **** //
 127:C:/Renesas/e2studio_2021_01_workspace_RZA2M_ANPR/ANPR_RZA2M_EBK/src/tensorflow_lite/tensorflow/lite/kernels/internal\types.h **** //   real_value = scale * (quantized_value - zero_point);
 128:C:/Renesas/e2studio_2021_01_workspace_RZA2M_ANPR/ANPR_RZA2M_EBK/src/tensorflow_lite/tensorflow/lite/kernels/internal\types.h **** //
 129:C:/Renesas/e2studio_2021_01_workspace_RZA2M_ANPR/ANPR_RZA2M_EBK/src/tensorflow_lite/tensorflow/lite/kernels/internal\types.h **** // In other words, zero_point designates which quantized value corresponds to
 130:C:/Renesas/e2studio_2021_01_workspace_RZA2M_ANPR/ANPR_RZA2M_EBK/src/tensorflow_lite/tensorflow/lite/kernels/internal\types.h **** // the real 0 value, and scale designates the difference between the real values
 131:C:/Renesas/e2studio_2021_01_workspace_RZA2M_ANPR/ANPR_RZA2M_EBK/src/tensorflow_lite/tensorflow/lite/kernels/internal\types.h **** // corresponding to consecutive quantized values differing by 1.
 132:C:/Renesas/e2studio_2021_01_workspace_RZA2M_ANPR/ANPR_RZA2M_EBK/src/tensorflow_lite/tensorflow/lite/kernels/internal\types.h **** struct QuantizationParams {
 133:C:/Renesas/e2studio_2021_01_workspace_RZA2M_ANPR/ANPR_RZA2M_EBK/src/tensorflow_lite/tensorflow/lite/kernels/internal\types.h ****   int32_t zero_point = 0;
 134:C:/Renesas/e2studio_2021_01_workspace_RZA2M_ANPR/ANPR_RZA2M_EBK/src/tensorflow_lite/tensorflow/lite/kernels/internal\types.h ****   double scale = 0.0;
 135:C:/Renesas/e2studio_2021_01_workspace_RZA2M_ANPR/ANPR_RZA2M_EBK/src/tensorflow_lite/tensorflow/lite/kernels/internal\types.h **** };
 136:C:/Renesas/e2studio_2021_01_workspace_RZA2M_ANPR/ANPR_RZA2M_EBK/src/tensorflow_lite/tensorflow/lite/kernels/internal\types.h **** 
 137:C:/Renesas/e2studio_2021_01_workspace_RZA2M_ANPR/ANPR_RZA2M_EBK/src/tensorflow_lite/tensorflow/lite/kernels/internal\types.h **** inline bool operator==(const QuantizationParams& qp1,
 138:C:/Renesas/e2studio_2021_01_workspace_RZA2M_ANPR/ANPR_RZA2M_EBK/src/tensorflow_lite/tensorflow/lite/kernels/internal\types.h ****                        const QuantizationParams& qp2) {
 139:C:/Renesas/e2studio_2021_01_workspace_RZA2M_ANPR/ANPR_RZA2M_EBK/src/tensorflow_lite/tensorflow/lite/kernels/internal\types.h ****   return qp1.zero_point == qp2.zero_point && qp1.scale == qp2.scale;
 140:C:/Renesas/e2studio_2021_01_workspace_RZA2M_ANPR/ANPR_RZA2M_EBK/src/tensorflow_lite/tensorflow/lite/kernels/internal\types.h **** }
 141:C:/Renesas/e2studio_2021_01_workspace_RZA2M_ANPR/ANPR_RZA2M_EBK/src/tensorflow_lite/tensorflow/lite/kernels/internal\types.h **** 
 142:C:/Renesas/e2studio_2021_01_workspace_RZA2M_ANPR/ANPR_RZA2M_EBK/src/tensorflow_lite/tensorflow/lite/kernels/internal\types.h **** template <int N>
 143:C:/Renesas/e2studio_2021_01_workspace_RZA2M_ANPR/ANPR_RZA2M_EBK/src/tensorflow_lite/tensorflow/lite/kernels/internal\types.h **** struct Dims {
 144:C:/Renesas/e2studio_2021_01_workspace_RZA2M_ANPR/ANPR_RZA2M_EBK/src/tensorflow_lite/tensorflow/lite/kernels/internal\types.h ****   int sizes[N];
 145:C:/Renesas/e2studio_2021_01_workspace_RZA2M_ANPR/ANPR_RZA2M_EBK/src/tensorflow_lite/tensorflow/lite/kernels/internal\types.h ****   int strides[N];
 146:C:/Renesas/e2studio_2021_01_workspace_RZA2M_ANPR/ANPR_RZA2M_EBK/src/tensorflow_lite/tensorflow/lite/kernels/internal\types.h **** };
 147:C:/Renesas/e2studio_2021_01_workspace_RZA2M_ANPR/ANPR_RZA2M_EBK/src/tensorflow_lite/tensorflow/lite/kernels/internal\types.h **** 
 148:C:/Renesas/e2studio_2021_01_workspace_RZA2M_ANPR/ANPR_RZA2M_EBK/src/tensorflow_lite/tensorflow/lite/kernels/internal\types.h **** class RuntimeShape {
 149:C:/Renesas/e2studio_2021_01_workspace_RZA2M_ANPR/ANPR_RZA2M_EBK/src/tensorflow_lite/tensorflow/lite/kernels/internal\types.h ****  public:
 150:C:/Renesas/e2studio_2021_01_workspace_RZA2M_ANPR/ANPR_RZA2M_EBK/src/tensorflow_lite/tensorflow/lite/kernels/internal\types.h ****   // Shapes with dimensions up to 5 are stored directly in the structure, while
 151:C:/Renesas/e2studio_2021_01_workspace_RZA2M_ANPR/ANPR_RZA2M_EBK/src/tensorflow_lite/tensorflow/lite/kernels/internal\types.h ****   // larger shapes are separately allocated.
 152:C:/Renesas/e2studio_2021_01_workspace_RZA2M_ANPR/ANPR_RZA2M_EBK/src/tensorflow_lite/tensorflow/lite/kernels/internal\types.h ****   static constexpr int kMaxSmallSize = 5;
 153:C:/Renesas/e2studio_2021_01_workspace_RZA2M_ANPR/ANPR_RZA2M_EBK/src/tensorflow_lite/tensorflow/lite/kernels/internal\types.h **** 
 154:C:/Renesas/e2studio_2021_01_workspace_RZA2M_ANPR/ANPR_RZA2M_EBK/src/tensorflow_lite/tensorflow/lite/kernels/internal\types.h ****   RuntimeShape& operator=(RuntimeShape const&) = delete;
 155:C:/Renesas/e2studio_2021_01_workspace_RZA2M_ANPR/ANPR_RZA2M_EBK/src/tensorflow_lite/tensorflow/lite/kernels/internal\types.h **** 
 156:C:/Renesas/e2studio_2021_01_workspace_RZA2M_ANPR/ANPR_RZA2M_EBK/src/tensorflow_lite/tensorflow/lite/kernels/internal\types.h ****   RuntimeShape() : size_(0) {}
 157:C:/Renesas/e2studio_2021_01_workspace_RZA2M_ANPR/ANPR_RZA2M_EBK/src/tensorflow_lite/tensorflow/lite/kernels/internal\types.h **** 
 158:C:/Renesas/e2studio_2021_01_workspace_RZA2M_ANPR/ANPR_RZA2M_EBK/src/tensorflow_lite/tensorflow/lite/kernels/internal\types.h ****   explicit RuntimeShape(int dimensions_count) : size_(dimensions_count) {
 159:C:/Renesas/e2studio_2021_01_workspace_RZA2M_ANPR/ANPR_RZA2M_EBK/src/tensorflow_lite/tensorflow/lite/kernels/internal\types.h ****     if (dimensions_count > kMaxSmallSize) {
 160:C:/Renesas/e2studio_2021_01_workspace_RZA2M_ANPR/ANPR_RZA2M_EBK/src/tensorflow_lite/tensorflow/lite/kernels/internal\types.h **** #ifdef TF_LITE_STATIC_MEMORY
 161:C:/Renesas/e2studio_2021_01_workspace_RZA2M_ANPR/ANPR_RZA2M_EBK/src/tensorflow_lite/tensorflow/lite/kernels/internal\types.h ****       TFLITE_CHECK(false && "No shape resizing supported on this platform");
 162:C:/Renesas/e2studio_2021_01_workspace_RZA2M_ANPR/ANPR_RZA2M_EBK/src/tensorflow_lite/tensorflow/lite/kernels/internal\types.h **** #else  // TF_LITE_STATIC_MEMORY
 163:C:/Renesas/e2studio_2021_01_workspace_RZA2M_ANPR/ANPR_RZA2M_EBK/src/tensorflow_lite/tensorflow/lite/kernels/internal\types.h ****       dims_pointer_ = new int32_t[dimensions_count];
 164:C:/Renesas/e2studio_2021_01_workspace_RZA2M_ANPR/ANPR_RZA2M_EBK/src/tensorflow_lite/tensorflow/lite/kernels/internal\types.h **** #endif  // TF_LITE_STATIC_MEMORY
 165:C:/Renesas/e2studio_2021_01_workspace_RZA2M_ANPR/ANPR_RZA2M_EBK/src/tensorflow_lite/tensorflow/lite/kernels/internal\types.h ****     }
 166:C:/Renesas/e2studio_2021_01_workspace_RZA2M_ANPR/ANPR_RZA2M_EBK/src/tensorflow_lite/tensorflow/lite/kernels/internal\types.h ****   }
 167:C:/Renesas/e2studio_2021_01_workspace_RZA2M_ANPR/ANPR_RZA2M_EBK/src/tensorflow_lite/tensorflow/lite/kernels/internal\types.h **** 
 168:C:/Renesas/e2studio_2021_01_workspace_RZA2M_ANPR/ANPR_RZA2M_EBK/src/tensorflow_lite/tensorflow/lite/kernels/internal\types.h ****   RuntimeShape(int shape_size, int32_t value) : size_(0) {
 169:C:/Renesas/e2studio_2021_01_workspace_RZA2M_ANPR/ANPR_RZA2M_EBK/src/tensorflow_lite/tensorflow/lite/kernels/internal\types.h ****     Resize(shape_size);
 170:C:/Renesas/e2studio_2021_01_workspace_RZA2M_ANPR/ANPR_RZA2M_EBK/src/tensorflow_lite/tensorflow/lite/kernels/internal\types.h ****     for (int i = 0; i < shape_size; ++i) {
 171:C:/Renesas/e2studio_2021_01_workspace_RZA2M_ANPR/ANPR_RZA2M_EBK/src/tensorflow_lite/tensorflow/lite/kernels/internal\types.h ****       SetDim(i, value);
 172:C:/Renesas/e2studio_2021_01_workspace_RZA2M_ANPR/ANPR_RZA2M_EBK/src/tensorflow_lite/tensorflow/lite/kernels/internal\types.h ****     }
 173:C:/Renesas/e2studio_2021_01_workspace_RZA2M_ANPR/ANPR_RZA2M_EBK/src/tensorflow_lite/tensorflow/lite/kernels/internal\types.h ****   }
 174:C:/Renesas/e2studio_2021_01_workspace_RZA2M_ANPR/ANPR_RZA2M_EBK/src/tensorflow_lite/tensorflow/lite/kernels/internal\types.h **** 
 175:C:/Renesas/e2studio_2021_01_workspace_RZA2M_ANPR/ANPR_RZA2M_EBK/src/tensorflow_lite/tensorflow/lite/kernels/internal\types.h ****   RuntimeShape(int dimensions_count, const int32_t* dims_data) : size_(0) {
 176:C:/Renesas/e2studio_2021_01_workspace_RZA2M_ANPR/ANPR_RZA2M_EBK/src/tensorflow_lite/tensorflow/lite/kernels/internal\types.h ****     ReplaceWith(dimensions_count, dims_data);
 177:C:/Renesas/e2studio_2021_01_workspace_RZA2M_ANPR/ANPR_RZA2M_EBK/src/tensorflow_lite/tensorflow/lite/kernels/internal\types.h ****   }
 178:C:/Renesas/e2studio_2021_01_workspace_RZA2M_ANPR/ANPR_RZA2M_EBK/src/tensorflow_lite/tensorflow/lite/kernels/internal\types.h **** 
 179:C:/Renesas/e2studio_2021_01_workspace_RZA2M_ANPR/ANPR_RZA2M_EBK/src/tensorflow_lite/tensorflow/lite/kernels/internal\types.h ****   RuntimeShape(const std::initializer_list<int> init_list) : size_(0) {
 180:C:/Renesas/e2studio_2021_01_workspace_RZA2M_ANPR/ANPR_RZA2M_EBK/src/tensorflow_lite/tensorflow/lite/kernels/internal\types.h ****     BuildFrom(init_list);
 181:C:/Renesas/e2studio_2021_01_workspace_RZA2M_ANPR/ANPR_RZA2M_EBK/src/tensorflow_lite/tensorflow/lite/kernels/internal\types.h ****   }
 182:C:/Renesas/e2studio_2021_01_workspace_RZA2M_ANPR/ANPR_RZA2M_EBK/src/tensorflow_lite/tensorflow/lite/kernels/internal\types.h **** 
 183:C:/Renesas/e2studio_2021_01_workspace_RZA2M_ANPR/ANPR_RZA2M_EBK/src/tensorflow_lite/tensorflow/lite/kernels/internal\types.h ****   // Avoid using this constructor.  We should be able to delete it when C++17
 184:C:/Renesas/e2studio_2021_01_workspace_RZA2M_ANPR/ANPR_RZA2M_EBK/src/tensorflow_lite/tensorflow/lite/kernels/internal\types.h ****   // rolls out.
 185:C:/Renesas/e2studio_2021_01_workspace_RZA2M_ANPR/ANPR_RZA2M_EBK/src/tensorflow_lite/tensorflow/lite/kernels/internal\types.h ****   RuntimeShape(RuntimeShape const& other) : size_(other.DimensionsCount()) {
 186:C:/Renesas/e2studio_2021_01_workspace_RZA2M_ANPR/ANPR_RZA2M_EBK/src/tensorflow_lite/tensorflow/lite/kernels/internal\types.h ****     if (size_ > kMaxSmallSize) {
 187:C:/Renesas/e2studio_2021_01_workspace_RZA2M_ANPR/ANPR_RZA2M_EBK/src/tensorflow_lite/tensorflow/lite/kernels/internal\types.h **** #ifdef TF_LITE_STATIC_MEMORY
 188:C:/Renesas/e2studio_2021_01_workspace_RZA2M_ANPR/ANPR_RZA2M_EBK/src/tensorflow_lite/tensorflow/lite/kernels/internal\types.h ****       TFLITE_CHECK(false && "No shape resizing supported on this platform");
 189:C:/Renesas/e2studio_2021_01_workspace_RZA2M_ANPR/ANPR_RZA2M_EBK/src/tensorflow_lite/tensorflow/lite/kernels/internal\types.h **** #else
 190:C:/Renesas/e2studio_2021_01_workspace_RZA2M_ANPR/ANPR_RZA2M_EBK/src/tensorflow_lite/tensorflow/lite/kernels/internal\types.h ****       dims_pointer_ = new int32_t[size_];
 191:C:/Renesas/e2studio_2021_01_workspace_RZA2M_ANPR/ANPR_RZA2M_EBK/src/tensorflow_lite/tensorflow/lite/kernels/internal\types.h **** #endif
 192:C:/Renesas/e2studio_2021_01_workspace_RZA2M_ANPR/ANPR_RZA2M_EBK/src/tensorflow_lite/tensorflow/lite/kernels/internal\types.h ****     }
 193:C:/Renesas/e2studio_2021_01_workspace_RZA2M_ANPR/ANPR_RZA2M_EBK/src/tensorflow_lite/tensorflow/lite/kernels/internal\types.h ****     std::memcpy(DimsData(), other.DimsData(), sizeof(int32_t) * size_);
 194:C:/Renesas/e2studio_2021_01_workspace_RZA2M_ANPR/ANPR_RZA2M_EBK/src/tensorflow_lite/tensorflow/lite/kernels/internal\types.h ****   }
 195:C:/Renesas/e2studio_2021_01_workspace_RZA2M_ANPR/ANPR_RZA2M_EBK/src/tensorflow_lite/tensorflow/lite/kernels/internal\types.h **** 
 196:C:/Renesas/e2studio_2021_01_workspace_RZA2M_ANPR/ANPR_RZA2M_EBK/src/tensorflow_lite/tensorflow/lite/kernels/internal\types.h ****   bool operator==(const RuntimeShape& comp) const {
 197:C:/Renesas/e2studio_2021_01_workspace_RZA2M_ANPR/ANPR_RZA2M_EBK/src/tensorflow_lite/tensorflow/lite/kernels/internal\types.h ****     return this->size_ == comp.size_ &&
 198:C:/Renesas/e2studio_2021_01_workspace_RZA2M_ANPR/ANPR_RZA2M_EBK/src/tensorflow_lite/tensorflow/lite/kernels/internal\types.h ****            std::memcmp(DimsData(), comp.DimsData(), size_ * sizeof(int32_t)) ==
 199:C:/Renesas/e2studio_2021_01_workspace_RZA2M_ANPR/ANPR_RZA2M_EBK/src/tensorflow_lite/tensorflow/lite/kernels/internal\types.h ****                0;
 200:C:/Renesas/e2studio_2021_01_workspace_RZA2M_ANPR/ANPR_RZA2M_EBK/src/tensorflow_lite/tensorflow/lite/kernels/internal\types.h ****   }
 201:C:/Renesas/e2studio_2021_01_workspace_RZA2M_ANPR/ANPR_RZA2M_EBK/src/tensorflow_lite/tensorflow/lite/kernels/internal\types.h **** 
 202:C:/Renesas/e2studio_2021_01_workspace_RZA2M_ANPR/ANPR_RZA2M_EBK/src/tensorflow_lite/tensorflow/lite/kernels/internal\types.h ****   ~RuntimeShape() {
 203:C:/Renesas/e2studio_2021_01_workspace_RZA2M_ANPR/ANPR_RZA2M_EBK/src/tensorflow_lite/tensorflow/lite/kernels/internal\types.h ****     if (size_ > kMaxSmallSize) {
 204:C:/Renesas/e2studio_2021_01_workspace_RZA2M_ANPR/ANPR_RZA2M_EBK/src/tensorflow_lite/tensorflow/lite/kernels/internal\types.h **** #ifdef TF_LITE_STATIC_MEMORY
 205:C:/Renesas/e2studio_2021_01_workspace_RZA2M_ANPR/ANPR_RZA2M_EBK/src/tensorflow_lite/tensorflow/lite/kernels/internal\types.h ****       TFLITE_CHECK(false && "No shape resizing supported on this platform");
 206:C:/Renesas/e2studio_2021_01_workspace_RZA2M_ANPR/ANPR_RZA2M_EBK/src/tensorflow_lite/tensorflow/lite/kernels/internal\types.h **** #else  // TF_LITE_STATIC_MEMORY
 207:C:/Renesas/e2studio_2021_01_workspace_RZA2M_ANPR/ANPR_RZA2M_EBK/src/tensorflow_lite/tensorflow/lite/kernels/internal\types.h ****       delete[] dims_pointer_;
 208:C:/Renesas/e2studio_2021_01_workspace_RZA2M_ANPR/ANPR_RZA2M_EBK/src/tensorflow_lite/tensorflow/lite/kernels/internal\types.h **** #endif  // TF_LITE_STATIC_MEMORY
 209:C:/Renesas/e2studio_2021_01_workspace_RZA2M_ANPR/ANPR_RZA2M_EBK/src/tensorflow_lite/tensorflow/lite/kernels/internal\types.h ****     }
 210:C:/Renesas/e2studio_2021_01_workspace_RZA2M_ANPR/ANPR_RZA2M_EBK/src/tensorflow_lite/tensorflow/lite/kernels/internal\types.h ****   }
 211:C:/Renesas/e2studio_2021_01_workspace_RZA2M_ANPR/ANPR_RZA2M_EBK/src/tensorflow_lite/tensorflow/lite/kernels/internal\types.h **** 
 212:C:/Renesas/e2studio_2021_01_workspace_RZA2M_ANPR/ANPR_RZA2M_EBK/src/tensorflow_lite/tensorflow/lite/kernels/internal\types.h ****   inline int32_t DimensionsCount() const { return size_; }
 213:C:/Renesas/e2studio_2021_01_workspace_RZA2M_ANPR/ANPR_RZA2M_EBK/src/tensorflow_lite/tensorflow/lite/kernels/internal\types.h ****   inline int32_t Dims(int i) const {
 214:C:/Renesas/e2studio_2021_01_workspace_RZA2M_ANPR/ANPR_RZA2M_EBK/src/tensorflow_lite/tensorflow/lite/kernels/internal\types.h ****     TFLITE_DCHECK_GE(i, 0);
 215:C:/Renesas/e2studio_2021_01_workspace_RZA2M_ANPR/ANPR_RZA2M_EBK/src/tensorflow_lite/tensorflow/lite/kernels/internal\types.h ****     TFLITE_DCHECK_LT(i, size_);
 216:C:/Renesas/e2studio_2021_01_workspace_RZA2M_ANPR/ANPR_RZA2M_EBK/src/tensorflow_lite/tensorflow/lite/kernels/internal\types.h ****     return size_ > kMaxSmallSize ? dims_pointer_[i] : dims_[i];
 217:C:/Renesas/e2studio_2021_01_workspace_RZA2M_ANPR/ANPR_RZA2M_EBK/src/tensorflow_lite/tensorflow/lite/kernels/internal\types.h ****   }
 218:C:/Renesas/e2studio_2021_01_workspace_RZA2M_ANPR/ANPR_RZA2M_EBK/src/tensorflow_lite/tensorflow/lite/kernels/internal\types.h ****   inline void SetDim(int i, int32_t val) {
 219:C:/Renesas/e2studio_2021_01_workspace_RZA2M_ANPR/ANPR_RZA2M_EBK/src/tensorflow_lite/tensorflow/lite/kernels/internal\types.h ****     TFLITE_DCHECK_GE(i, 0);
 220:C:/Renesas/e2studio_2021_01_workspace_RZA2M_ANPR/ANPR_RZA2M_EBK/src/tensorflow_lite/tensorflow/lite/kernels/internal\types.h ****     TFLITE_DCHECK_LT(i, size_);
 221:C:/Renesas/e2studio_2021_01_workspace_RZA2M_ANPR/ANPR_RZA2M_EBK/src/tensorflow_lite/tensorflow/lite/kernels/internal\types.h ****     if (size_ > kMaxSmallSize) {
 222:C:/Renesas/e2studio_2021_01_workspace_RZA2M_ANPR/ANPR_RZA2M_EBK/src/tensorflow_lite/tensorflow/lite/kernels/internal\types.h ****       dims_pointer_[i] = val;
 223:C:/Renesas/e2studio_2021_01_workspace_RZA2M_ANPR/ANPR_RZA2M_EBK/src/tensorflow_lite/tensorflow/lite/kernels/internal\types.h ****     } else {
 224:C:/Renesas/e2studio_2021_01_workspace_RZA2M_ANPR/ANPR_RZA2M_EBK/src/tensorflow_lite/tensorflow/lite/kernels/internal\types.h ****       dims_[i] = val;
 225:C:/Renesas/e2studio_2021_01_workspace_RZA2M_ANPR/ANPR_RZA2M_EBK/src/tensorflow_lite/tensorflow/lite/kernels/internal\types.h ****     }
 226:C:/Renesas/e2studio_2021_01_workspace_RZA2M_ANPR/ANPR_RZA2M_EBK/src/tensorflow_lite/tensorflow/lite/kernels/internal\types.h ****   }
 227:C:/Renesas/e2studio_2021_01_workspace_RZA2M_ANPR/ANPR_RZA2M_EBK/src/tensorflow_lite/tensorflow/lite/kernels/internal\types.h **** 
 228:C:/Renesas/e2studio_2021_01_workspace_RZA2M_ANPR/ANPR_RZA2M_EBK/src/tensorflow_lite/tensorflow/lite/kernels/internal\types.h ****   inline int32_t* DimsData() {
 229:C:/Renesas/e2studio_2021_01_workspace_RZA2M_ANPR/ANPR_RZA2M_EBK/src/tensorflow_lite/tensorflow/lite/kernels/internal\types.h ****     return size_ > kMaxSmallSize ? dims_pointer_ : dims_;
 230:C:/Renesas/e2studio_2021_01_workspace_RZA2M_ANPR/ANPR_RZA2M_EBK/src/tensorflow_lite/tensorflow/lite/kernels/internal\types.h ****   }
 231:C:/Renesas/e2studio_2021_01_workspace_RZA2M_ANPR/ANPR_RZA2M_EBK/src/tensorflow_lite/tensorflow/lite/kernels/internal\types.h ****   inline const int32_t* DimsData() const {
 232:C:/Renesas/e2studio_2021_01_workspace_RZA2M_ANPR/ANPR_RZA2M_EBK/src/tensorflow_lite/tensorflow/lite/kernels/internal\types.h ****     return size_ > kMaxSmallSize ? dims_pointer_ : dims_;
 233:C:/Renesas/e2studio_2021_01_workspace_RZA2M_ANPR/ANPR_RZA2M_EBK/src/tensorflow_lite/tensorflow/lite/kernels/internal\types.h ****   }
 234:C:/Renesas/e2studio_2021_01_workspace_RZA2M_ANPR/ANPR_RZA2M_EBK/src/tensorflow_lite/tensorflow/lite/kernels/internal\types.h ****   // The caller must ensure that the shape is no bigger than 5-D.
 235:C:/Renesas/e2studio_2021_01_workspace_RZA2M_ANPR/ANPR_RZA2M_EBK/src/tensorflow_lite/tensorflow/lite/kernels/internal\types.h ****   inline const int32_t* DimsDataUpTo5D() const { return dims_; }
 236:C:/Renesas/e2studio_2021_01_workspace_RZA2M_ANPR/ANPR_RZA2M_EBK/src/tensorflow_lite/tensorflow/lite/kernels/internal\types.h **** 
 237:C:/Renesas/e2studio_2021_01_workspace_RZA2M_ANPR/ANPR_RZA2M_EBK/src/tensorflow_lite/tensorflow/lite/kernels/internal\types.h ****   inline void Resize(int dimensions_count) {
 238:C:/Renesas/e2studio_2021_01_workspace_RZA2M_ANPR/ANPR_RZA2M_EBK/src/tensorflow_lite/tensorflow/lite/kernels/internal\types.h ****     if (size_ > kMaxSmallSize) {
 239:C:/Renesas/e2studio_2021_01_workspace_RZA2M_ANPR/ANPR_RZA2M_EBK/src/tensorflow_lite/tensorflow/lite/kernels/internal\types.h **** #ifdef TF_LITE_STATIC_MEMORY
 240:C:/Renesas/e2studio_2021_01_workspace_RZA2M_ANPR/ANPR_RZA2M_EBK/src/tensorflow_lite/tensorflow/lite/kernels/internal\types.h ****       TFLITE_CHECK(false && "No shape resizing supported on this platform");
 241:C:/Renesas/e2studio_2021_01_workspace_RZA2M_ANPR/ANPR_RZA2M_EBK/src/tensorflow_lite/tensorflow/lite/kernels/internal\types.h **** #else  // TF_LITE_STATIC_MEMORY
 242:C:/Renesas/e2studio_2021_01_workspace_RZA2M_ANPR/ANPR_RZA2M_EBK/src/tensorflow_lite/tensorflow/lite/kernels/internal\types.h ****       delete[] dims_pointer_;
 243:C:/Renesas/e2studio_2021_01_workspace_RZA2M_ANPR/ANPR_RZA2M_EBK/src/tensorflow_lite/tensorflow/lite/kernels/internal\types.h **** #endif  // TF_LITE_STATIC_MEMORY
 244:C:/Renesas/e2studio_2021_01_workspace_RZA2M_ANPR/ANPR_RZA2M_EBK/src/tensorflow_lite/tensorflow/lite/kernels/internal\types.h ****     }
 245:C:/Renesas/e2studio_2021_01_workspace_RZA2M_ANPR/ANPR_RZA2M_EBK/src/tensorflow_lite/tensorflow/lite/kernels/internal\types.h ****     size_ = dimensions_count;
 246:C:/Renesas/e2studio_2021_01_workspace_RZA2M_ANPR/ANPR_RZA2M_EBK/src/tensorflow_lite/tensorflow/lite/kernels/internal\types.h ****     if (dimensions_count > kMaxSmallSize) {
 247:C:/Renesas/e2studio_2021_01_workspace_RZA2M_ANPR/ANPR_RZA2M_EBK/src/tensorflow_lite/tensorflow/lite/kernels/internal\types.h **** #ifdef TF_LITE_STATIC_MEMORY
 248:C:/Renesas/e2studio_2021_01_workspace_RZA2M_ANPR/ANPR_RZA2M_EBK/src/tensorflow_lite/tensorflow/lite/kernels/internal\types.h ****       TFLITE_CHECK(false && "No shape resizing supported on this platform");
 249:C:/Renesas/e2studio_2021_01_workspace_RZA2M_ANPR/ANPR_RZA2M_EBK/src/tensorflow_lite/tensorflow/lite/kernels/internal\types.h **** #else  // TF_LITE_STATIC_MEMORY
 250:C:/Renesas/e2studio_2021_01_workspace_RZA2M_ANPR/ANPR_RZA2M_EBK/src/tensorflow_lite/tensorflow/lite/kernels/internal\types.h ****       dims_pointer_ = new int32_t[dimensions_count];
 251:C:/Renesas/e2studio_2021_01_workspace_RZA2M_ANPR/ANPR_RZA2M_EBK/src/tensorflow_lite/tensorflow/lite/kernels/internal\types.h **** #endif  // TF_LITE_STATIC_MEMORY
 252:C:/Renesas/e2studio_2021_01_workspace_RZA2M_ANPR/ANPR_RZA2M_EBK/src/tensorflow_lite/tensorflow/lite/kernels/internal\types.h ****     }
 253:C:/Renesas/e2studio_2021_01_workspace_RZA2M_ANPR/ANPR_RZA2M_EBK/src/tensorflow_lite/tensorflow/lite/kernels/internal\types.h ****   }
 254:C:/Renesas/e2studio_2021_01_workspace_RZA2M_ANPR/ANPR_RZA2M_EBK/src/tensorflow_lite/tensorflow/lite/kernels/internal\types.h **** 
 255:C:/Renesas/e2studio_2021_01_workspace_RZA2M_ANPR/ANPR_RZA2M_EBK/src/tensorflow_lite/tensorflow/lite/kernels/internal\types.h ****   inline void ReplaceWith(int dimensions_count, const int32_t* dims_data) {
 256:C:/Renesas/e2studio_2021_01_workspace_RZA2M_ANPR/ANPR_RZA2M_EBK/src/tensorflow_lite/tensorflow/lite/kernels/internal\types.h ****     Resize(dimensions_count);
 257:C:/Renesas/e2studio_2021_01_workspace_RZA2M_ANPR/ANPR_RZA2M_EBK/src/tensorflow_lite/tensorflow/lite/kernels/internal\types.h ****     int32_t* dst_dims = DimsData();
 258:C:/Renesas/e2studio_2021_01_workspace_RZA2M_ANPR/ANPR_RZA2M_EBK/src/tensorflow_lite/tensorflow/lite/kernels/internal\types.h ****     std::memcpy(dst_dims, dims_data, dimensions_count * sizeof(int32_t));
 259:C:/Renesas/e2studio_2021_01_workspace_RZA2M_ANPR/ANPR_RZA2M_EBK/src/tensorflow_lite/tensorflow/lite/kernels/internal\types.h ****   }
 260:C:/Renesas/e2studio_2021_01_workspace_RZA2M_ANPR/ANPR_RZA2M_EBK/src/tensorflow_lite/tensorflow/lite/kernels/internal\types.h **** 
 261:C:/Renesas/e2studio_2021_01_workspace_RZA2M_ANPR/ANPR_RZA2M_EBK/src/tensorflow_lite/tensorflow/lite/kernels/internal\types.h ****   template <typename T>
 262:C:/Renesas/e2studio_2021_01_workspace_RZA2M_ANPR/ANPR_RZA2M_EBK/src/tensorflow_lite/tensorflow/lite/kernels/internal\types.h ****   inline void BuildFrom(const T& src_iterable) {
 263:C:/Renesas/e2studio_2021_01_workspace_RZA2M_ANPR/ANPR_RZA2M_EBK/src/tensorflow_lite/tensorflow/lite/kernels/internal\types.h ****     const int dimensions_count =
 264:C:/Renesas/e2studio_2021_01_workspace_RZA2M_ANPR/ANPR_RZA2M_EBK/src/tensorflow_lite/tensorflow/lite/kernels/internal\types.h ****         std::distance(src_iterable.begin(), src_iterable.end());
 265:C:/Renesas/e2studio_2021_01_workspace_RZA2M_ANPR/ANPR_RZA2M_EBK/src/tensorflow_lite/tensorflow/lite/kernels/internal\types.h ****     Resize(dimensions_count);
 266:C:/Renesas/e2studio_2021_01_workspace_RZA2M_ANPR/ANPR_RZA2M_EBK/src/tensorflow_lite/tensorflow/lite/kernels/internal\types.h ****     int32_t* data = DimsData();
 267:C:/Renesas/e2studio_2021_01_workspace_RZA2M_ANPR/ANPR_RZA2M_EBK/src/tensorflow_lite/tensorflow/lite/kernels/internal\types.h ****     for (auto it : src_iterable) {
 268:C:/Renesas/e2studio_2021_01_workspace_RZA2M_ANPR/ANPR_RZA2M_EBK/src/tensorflow_lite/tensorflow/lite/kernels/internal\types.h ****       *data = it;
 269:C:/Renesas/e2studio_2021_01_workspace_RZA2M_ANPR/ANPR_RZA2M_EBK/src/tensorflow_lite/tensorflow/lite/kernels/internal\types.h ****       ++data;
 270:C:/Renesas/e2studio_2021_01_workspace_RZA2M_ANPR/ANPR_RZA2M_EBK/src/tensorflow_lite/tensorflow/lite/kernels/internal\types.h ****     }
 271:C:/Renesas/e2studio_2021_01_workspace_RZA2M_ANPR/ANPR_RZA2M_EBK/src/tensorflow_lite/tensorflow/lite/kernels/internal\types.h ****   }
 272:C:/Renesas/e2studio_2021_01_workspace_RZA2M_ANPR/ANPR_RZA2M_EBK/src/tensorflow_lite/tensorflow/lite/kernels/internal\types.h **** 
 273:C:/Renesas/e2studio_2021_01_workspace_RZA2M_ANPR/ANPR_RZA2M_EBK/src/tensorflow_lite/tensorflow/lite/kernels/internal\types.h ****   // This will probably be factored out. Old code made substantial use of 4-D
 274:C:/Renesas/e2studio_2021_01_workspace_RZA2M_ANPR/ANPR_RZA2M_EBK/src/tensorflow_lite/tensorflow/lite/kernels/internal\types.h ****   // shapes, and so this function is used to extend smaller shapes. Note that
 275:C:/Renesas/e2studio_2021_01_workspace_RZA2M_ANPR/ANPR_RZA2M_EBK/src/tensorflow_lite/tensorflow/lite/kernels/internal\types.h ****   // (a) as Dims<4>-dependent code is eliminated, the reliance on this should be
 276:C:/Renesas/e2studio_2021_01_workspace_RZA2M_ANPR/ANPR_RZA2M_EBK/src/tensorflow_lite/tensorflow/lite/kernels/internal\types.h ****   // reduced, and (b) some kernels are stricly 4-D, but then the shapes of their
 277:C:/Renesas/e2studio_2021_01_workspace_RZA2M_ANPR/ANPR_RZA2M_EBK/src/tensorflow_lite/tensorflow/lite/kernels/internal\types.h ****   // inputs should already be 4-D, so this function should not be needed.
 278:C:/Renesas/e2studio_2021_01_workspace_RZA2M_ANPR/ANPR_RZA2M_EBK/src/tensorflow_lite/tensorflow/lite/kernels/internal\types.h ****   inline static RuntimeShape ExtendedShape(int new_shape_size,
 279:C:/Renesas/e2studio_2021_01_workspace_RZA2M_ANPR/ANPR_RZA2M_EBK/src/tensorflow_lite/tensorflow/lite/kernels/internal\types.h ****                                            const RuntimeShape& shape) {
 280:C:/Renesas/e2studio_2021_01_workspace_RZA2M_ANPR/ANPR_RZA2M_EBK/src/tensorflow_lite/tensorflow/lite/kernels/internal\types.h ****     return RuntimeShape(new_shape_size, shape, 1);
 281:C:/Renesas/e2studio_2021_01_workspace_RZA2M_ANPR/ANPR_RZA2M_EBK/src/tensorflow_lite/tensorflow/lite/kernels/internal\types.h ****   }
 282:C:/Renesas/e2studio_2021_01_workspace_RZA2M_ANPR/ANPR_RZA2M_EBK/src/tensorflow_lite/tensorflow/lite/kernels/internal\types.h **** 
 283:C:/Renesas/e2studio_2021_01_workspace_RZA2M_ANPR/ANPR_RZA2M_EBK/src/tensorflow_lite/tensorflow/lite/kernels/internal\types.h ****   inline void BuildFrom(const std::initializer_list<int> init_list) {
 284:C:/Renesas/e2studio_2021_01_workspace_RZA2M_ANPR/ANPR_RZA2M_EBK/src/tensorflow_lite/tensorflow/lite/kernels/internal\types.h ****     BuildFrom<const std::initializer_list<int>>(init_list);
 285:C:/Renesas/e2studio_2021_01_workspace_RZA2M_ANPR/ANPR_RZA2M_EBK/src/tensorflow_lite/tensorflow/lite/kernels/internal\types.h ****   }
 286:C:/Renesas/e2studio_2021_01_workspace_RZA2M_ANPR/ANPR_RZA2M_EBK/src/tensorflow_lite/tensorflow/lite/kernels/internal\types.h **** 
 287:C:/Renesas/e2studio_2021_01_workspace_RZA2M_ANPR/ANPR_RZA2M_EBK/src/tensorflow_lite/tensorflow/lite/kernels/internal\types.h ****   // Returns the total count of elements, that is the size when flattened into a
 288:C:/Renesas/e2studio_2021_01_workspace_RZA2M_ANPR/ANPR_RZA2M_EBK/src/tensorflow_lite/tensorflow/lite/kernels/internal\types.h ****   // vector.
 289:C:/Renesas/e2studio_2021_01_workspace_RZA2M_ANPR/ANPR_RZA2M_EBK/src/tensorflow_lite/tensorflow/lite/kernels/internal\types.h ****   inline int FlatSize() const {
 290:C:/Renesas/e2studio_2021_01_workspace_RZA2M_ANPR/ANPR_RZA2M_EBK/src/tensorflow_lite/tensorflow/lite/kernels/internal\types.h ****     int buffer_size = 1;
 291:C:/Renesas/e2studio_2021_01_workspace_RZA2M_ANPR/ANPR_RZA2M_EBK/src/tensorflow_lite/tensorflow/lite/kernels/internal\types.h ****     const int* dims_data = reinterpret_cast<const int*>(DimsData());
 292:C:/Renesas/e2studio_2021_01_workspace_RZA2M_ANPR/ANPR_RZA2M_EBK/src/tensorflow_lite/tensorflow/lite/kernels/internal\types.h ****     for (int i = 0; i < size_; i++) {
 293:C:/Renesas/e2studio_2021_01_workspace_RZA2M_ANPR/ANPR_RZA2M_EBK/src/tensorflow_lite/tensorflow/lite/kernels/internal\types.h ****       buffer_size *= dims_data[i];
 294:C:/Renesas/e2studio_2021_01_workspace_RZA2M_ANPR/ANPR_RZA2M_EBK/src/tensorflow_lite/tensorflow/lite/kernels/internal\types.h ****     }
 295:C:/Renesas/e2studio_2021_01_workspace_RZA2M_ANPR/ANPR_RZA2M_EBK/src/tensorflow_lite/tensorflow/lite/kernels/internal\types.h ****     return buffer_size;
 296:C:/Renesas/e2studio_2021_01_workspace_RZA2M_ANPR/ANPR_RZA2M_EBK/src/tensorflow_lite/tensorflow/lite/kernels/internal\types.h ****   }
 297:C:/Renesas/e2studio_2021_01_workspace_RZA2M_ANPR/ANPR_RZA2M_EBK/src/tensorflow_lite/tensorflow/lite/kernels/internal\types.h **** 
 298:C:/Renesas/e2studio_2021_01_workspace_RZA2M_ANPR/ANPR_RZA2M_EBK/src/tensorflow_lite/tensorflow/lite/kernels/internal\types.h ****   bool operator!=(const RuntimeShape& comp) const { return !((*this) == comp); }
 299:C:/Renesas/e2studio_2021_01_workspace_RZA2M_ANPR/ANPR_RZA2M_EBK/src/tensorflow_lite/tensorflow/lite/kernels/internal\types.h **** 
 300:C:/Renesas/e2studio_2021_01_workspace_RZA2M_ANPR/ANPR_RZA2M_EBK/src/tensorflow_lite/tensorflow/lite/kernels/internal\types.h ****  private:
 301:C:/Renesas/e2studio_2021_01_workspace_RZA2M_ANPR/ANPR_RZA2M_EBK/src/tensorflow_lite/tensorflow/lite/kernels/internal\types.h ****   // For use only by ExtendedShape(), written to guarantee (return-value) copy
 302:C:/Renesas/e2studio_2021_01_workspace_RZA2M_ANPR/ANPR_RZA2M_EBK/src/tensorflow_lite/tensorflow/lite/kernels/internal\types.h ****   // elision in C++17.
 303:C:/Renesas/e2studio_2021_01_workspace_RZA2M_ANPR/ANPR_RZA2M_EBK/src/tensorflow_lite/tensorflow/lite/kernels/internal\types.h ****   // This creates a shape padded to the desired size with the specified value.
 304:C:/Renesas/e2studio_2021_01_workspace_RZA2M_ANPR/ANPR_RZA2M_EBK/src/tensorflow_lite/tensorflow/lite/kernels/internal\types.h ****   RuntimeShape(int new_shape_size, const RuntimeShape& shape, int pad_value)
 305:C:/Renesas/e2studio_2021_01_workspace_RZA2M_ANPR/ANPR_RZA2M_EBK/src/tensorflow_lite/tensorflow/lite/kernels/internal\types.h ****       : size_(0) {
 306:C:/Renesas/e2studio_2021_01_workspace_RZA2M_ANPR/ANPR_RZA2M_EBK/src/tensorflow_lite/tensorflow/lite/kernels/internal\types.h ****     // If the following check fails, it is likely because a 4D-only kernel is
 307:C:/Renesas/e2studio_2021_01_workspace_RZA2M_ANPR/ANPR_RZA2M_EBK/src/tensorflow_lite/tensorflow/lite/kernels/internal\types.h ****     // being used with an array of larger dimension count.
 308:C:/Renesas/e2studio_2021_01_workspace_RZA2M_ANPR/ANPR_RZA2M_EBK/src/tensorflow_lite/tensorflow/lite/kernels/internal\types.h ****     TFLITE_CHECK_GE(new_shape_size, shape.DimensionsCount());
 309:C:/Renesas/e2studio_2021_01_workspace_RZA2M_ANPR/ANPR_RZA2M_EBK/src/tensorflow_lite/tensorflow/lite/kernels/internal\types.h ****     Resize(new_shape_size);
 310:C:/Renesas/e2studio_2021_01_workspace_RZA2M_ANPR/ANPR_RZA2M_EBK/src/tensorflow_lite/tensorflow/lite/kernels/internal\types.h ****     const int size_increase = new_shape_size - shape.DimensionsCount();
 311:C:/Renesas/e2studio_2021_01_workspace_RZA2M_ANPR/ANPR_RZA2M_EBK/src/tensorflow_lite/tensorflow/lite/kernels/internal\types.h ****     for (int i = 0; i < size_increase; ++i) {
 518              		.loc 3 311 0
 519 010c 040072E2 		rsbs	r0, r2, #4
 520              	.LBE783:
 521              	.LBB794:
 522              	.LBB795:
 245:C:/Renesas/e2studio_2021_01_workspace_RZA2M_ANPR/ANPR_RZA2M_EBK/src/tensorflow_lite/tensorflow/lite/kernels/internal\types.h ****     if (dimensions_count > kMaxSmallSize) {
 523              		.loc 3 245 0
 524 0110 0430A0E3 		mov	r3, #4
 525 0114 D8308DE5 		str	r3, [sp, #216]
 526              	.LVL58:
 527              	.LBE795:
 528              	.LBE794:
 529              	.LBB796:
 530              		.loc 3 311 0
 531 0118 0D00000A 		beq	.L36
 532              	.LVL59:
 533 011c 010050E3 		cmp	r0, #1
 534              	.LBB784:
 535              	.LBB785:
 224:C:/Renesas/e2studio_2021_01_workspace_RZA2M_ANPR/ANPR_RZA2M_EBK/src/tensorflow_lite/tensorflow/lite/kernels/internal\types.h ****     }
 536              		.loc 3 224 0
 537 0120 0130A0E3 		mov	r3, #1
 538 0124 DC308DE5 		str	r3, [sp, #220]
 539              	.LVL60:
 540              	.LBE785:
 541              	.LBE784:
 542              		.loc 3 311 0
 543 0128 0900000A 		beq	.L36
 544              	.LVL61:
 545 012c 020050E3 		cmp	r0, #2
 546              	.LBB790:
 547              	.LBB786:
 224:C:/Renesas/e2studio_2021_01_workspace_RZA2M_ANPR/ANPR_RZA2M_EBK/src/tensorflow_lite/tensorflow/lite/kernels/internal\types.h ****     }
 548              		.loc 3 224 0
 549 0130 E0308DE5 		str	r3, [sp, #224]
 550              	.LVL62:
 551              	.LBE786:
 552              	.LBE790:
 553              		.loc 3 311 0
 554 0134 0600000A 		beq	.L36
 555              	.LVL63:
 556 0138 030050E3 		cmp	r0, #3
 557              	.LBB791:
 558              	.LBB787:
 224:C:/Renesas/e2studio_2021_01_workspace_RZA2M_ANPR/ANPR_RZA2M_EBK/src/tensorflow_lite/tensorflow/lite/kernels/internal\types.h ****     }
 559              		.loc 3 224 0
 560 013c E4308DE5 		str	r3, [sp, #228]
 561              	.LVL64:
 562              	.LBE787:
 563              	.LBE791:
 564              		.loc 3 311 0
 565 0140 0300000A 		beq	.L36
 566              	.LVL65:
 567 0144 040050E3 		cmp	r0, #4
 568              	.LBB792:
 569              	.LBB788:
 224:C:/Renesas/e2studio_2021_01_workspace_RZA2M_ANPR/ANPR_RZA2M_EBK/src/tensorflow_lite/tensorflow/lite/kernels/internal\types.h ****     }
 570              		.loc 3 224 0
 571 0148 E8308DE5 		str	r3, [sp, #232]
 572              	.LVL66:
 573              	.LBE788:
 574              	.LBE792:
 575              		.loc 3 311 0
 576 014c 0000000A 		beq	.L36
 577              	.LVL67:
 578              	.LEHB3:
 579              	.LBB793:
 580              	.LBB789:
 220:C:/Renesas/e2studio_2021_01_workspace_RZA2M_ANPR/ANPR_RZA2M_EBK/src/tensorflow_lite/tensorflow/lite/kernels/internal\types.h ****     if (size_ > kMaxSmallSize) {
 581              		.loc 3 220 0
 582 0150 FEFFFFEB 		bl	abort
 583              	.LVL68:
 584              	.LEHE3:
 585              	.L36:
 586              	.LBE789:
 587              	.LBE793:
 588              	.LBE796:
 312:C:/Renesas/e2studio_2021_01_workspace_RZA2M_ANPR/ANPR_RZA2M_EBK/src/tensorflow_lite/tensorflow/lite/kernels/internal\types.h ****       SetDim(i, pad_value);
 313:C:/Renesas/e2studio_2021_01_workspace_RZA2M_ANPR/ANPR_RZA2M_EBK/src/tensorflow_lite/tensorflow/lite/kernels/internal\types.h ****     }
 314:C:/Renesas/e2studio_2021_01_workspace_RZA2M_ANPR/ANPR_RZA2M_EBK/src/tensorflow_lite/tensorflow/lite/kernels/internal\types.h ****     std::memcpy(DimsData() + size_increase, shape.DimsData(),
 315:C:/Renesas/e2studio_2021_01_workspace_RZA2M_ANPR/ANPR_RZA2M_EBK/src/tensorflow_lite/tensorflow/lite/kernels/internal\types.h ****                 sizeof(int32_t) * shape.DimensionsCount());
 589              		.loc 3 315 0
 590 0154 DC308DE2 		add	r3, sp, #220
 591 0158 0221A0E1 		lsl	r2, r2, #2
 592 015c 000183E0 		add	r0, r3, r0, lsl #2
 593              	.LVL69:
 594 0160 C4108DE2 		add	r1, sp, #196
 595 0164 FEFFFFEB 		bl	memcpy
 596              	.LVL70:
 597              	.LBE782:
 598              	.LBE781:
 599              	.LBE780:
 600              	.LBE779:
 601              	.LBB797:
 602              	.LBB798:
 603              	.LBB799:
 604              	.LBB800:
 605              	.LBB801:
 606              	.LBB802:
 607              	.LBB803:
 311:C:/Renesas/e2studio_2021_01_workspace_RZA2M_ANPR/ANPR_RZA2M_EBK/src/tensorflow_lite/tensorflow/lite/kernels/internal\types.h ****       SetDim(i, pad_value);
 608              		.loc 3 311 0
 609 0168 040077E2 		rsbs	r0, r7, #4
 610              	.LBE803:
 611              	.LBB814:
 612              	.LBB815:
 245:C:/Renesas/e2studio_2021_01_workspace_RZA2M_ANPR/ANPR_RZA2M_EBK/src/tensorflow_lite/tensorflow/lite/kernels/internal\types.h ****     if (dimensions_count > kMaxSmallSize) {
 613              		.loc 3 245 0
 614 016c 0430A0E3 		mov	r3, #4
 615 0170 F0308DE5 		str	r3, [sp, #240]
 616              	.LVL71:
 617              	.LBE815:
 618              	.LBE814:
 619              	.LBB816:
 311:C:/Renesas/e2studio_2021_01_workspace_RZA2M_ANPR/ANPR_RZA2M_EBK/src/tensorflow_lite/tensorflow/lite/kernels/internal\types.h ****       SetDim(i, pad_value);
 620              		.loc 3 311 0
 621 0174 0D00000A 		beq	.L34
 622              	.LVL72:
 623 0178 010050E3 		cmp	r0, #1
 624              	.LBB804:
 625              	.LBB805:
 224:C:/Renesas/e2studio_2021_01_workspace_RZA2M_ANPR/ANPR_RZA2M_EBK/src/tensorflow_lite/tensorflow/lite/kernels/internal\types.h ****     }
 626              		.loc 3 224 0
 627 017c 0130A0E3 		mov	r3, #1
 628 0180 F4308DE5 		str	r3, [sp, #244]
 629              	.LVL73:
 630              	.LBE805:
 631              	.LBE804:
 311:C:/Renesas/e2studio_2021_01_workspace_RZA2M_ANPR/ANPR_RZA2M_EBK/src/tensorflow_lite/tensorflow/lite/kernels/internal\types.h ****       SetDim(i, pad_value);
 632              		.loc 3 311 0
 633 0184 0900000A 		beq	.L34
 634              	.LVL74:
 635 0188 020050E3 		cmp	r0, #2
 636              	.LBB810:
 637              	.LBB806:
 224:C:/Renesas/e2studio_2021_01_workspace_RZA2M_ANPR/ANPR_RZA2M_EBK/src/tensorflow_lite/tensorflow/lite/kernels/internal\types.h ****     }
 638              		.loc 3 224 0
 639 018c F8308DE5 		str	r3, [sp, #248]
 640              	.LVL75:
 641              	.LBE806:
 642              	.LBE810:
 311:C:/Renesas/e2studio_2021_01_workspace_RZA2M_ANPR/ANPR_RZA2M_EBK/src/tensorflow_lite/tensorflow/lite/kernels/internal\types.h ****       SetDim(i, pad_value);
 643              		.loc 3 311 0
 644 0190 0600000A 		beq	.L34
 645              	.LVL76:
 646 0194 030050E3 		cmp	r0, #3
 647              	.LBB811:
 648              	.LBB807:
 224:C:/Renesas/e2studio_2021_01_workspace_RZA2M_ANPR/ANPR_RZA2M_EBK/src/tensorflow_lite/tensorflow/lite/kernels/internal\types.h ****     }
 649              		.loc 3 224 0
 650 0198 FC308DE5 		str	r3, [sp, #252]
 651              	.LVL77:
 652              	.LBE807:
 653              	.LBE811:
 311:C:/Renesas/e2studio_2021_01_workspace_RZA2M_ANPR/ANPR_RZA2M_EBK/src/tensorflow_lite/tensorflow/lite/kernels/internal\types.h ****       SetDim(i, pad_value);
 654              		.loc 3 311 0
 655 019c 0300000A 		beq	.L34
 656              	.LVL78:
 657 01a0 040050E3 		cmp	r0, #4
 658              	.LBB812:
 659              	.LBB808:
 224:C:/Renesas/e2studio_2021_01_workspace_RZA2M_ANPR/ANPR_RZA2M_EBK/src/tensorflow_lite/tensorflow/lite/kernels/internal\types.h ****     }
 660              		.loc 3 224 0
 661 01a4 00318DE5 		str	r3, [sp, #256]
 662              	.LVL79:
 663              	.LBE808:
 664              	.LBE812:
 311:C:/Renesas/e2studio_2021_01_workspace_RZA2M_ANPR/ANPR_RZA2M_EBK/src/tensorflow_lite/tensorflow/lite/kernels/internal\types.h ****       SetDim(i, pad_value);
 665              		.loc 3 311 0
 666 01a8 0000000A 		beq	.L34
 667              	.LVL80:
 668              	.LEHB4:
 669              	.LBB813:
 670              	.LBB809:
 220:C:/Renesas/e2studio_2021_01_workspace_RZA2M_ANPR/ANPR_RZA2M_EBK/src/tensorflow_lite/tensorflow/lite/kernels/internal\types.h ****     if (size_ > kMaxSmallSize) {
 671              		.loc 3 220 0
 672 01ac FEFFFFEB 		bl	abort
 673              	.LVL81:
 674              	.LEHE4:
 675              	.L34:
 676              	.LBE809:
 677              	.LBE813:
 678              	.LBE816:
 679              		.loc 3 315 0
 680 01b0 F4308DE2 		add	r3, sp, #244
 681 01b4 0721A0E1 		lsl	r2, r7, #2
 682 01b8 000183E0 		add	r0, r3, r0, lsl #2
 683              	.LVL82:
 684 01bc 94108DE2 		add	r1, sp, #148
 685 01c0 FEFFFFEB 		bl	memcpy
 686              	.LVL83:
 687              	.LBE802:
 688              	.LBE801:
 689              	.LBE800:
 690              	.LBE799:
 691              	.LBB817:
 692              	.LBB818:
 693              	.LBB819:
 694              	.LBB820:
 695              	.LBB821:
 311:C:/Renesas/e2studio_2021_01_workspace_RZA2M_ANPR/ANPR_RZA2M_EBK/src/tensorflow_lite/tensorflow/lite/kernels/internal\types.h ****       SetDim(i, pad_value);
 696              		.loc 3 311 0
 697 01c4 040075E2 		rsbs	r0, r5, #4
 698              	.LBE821:
 699              	.LBB832:
 700              	.LBB833:
 245:C:/Renesas/e2studio_2021_01_workspace_RZA2M_ANPR/ANPR_RZA2M_EBK/src/tensorflow_lite/tensorflow/lite/kernels/internal\types.h ****     if (dimensions_count > kMaxSmallSize) {
 701              		.loc 3 245 0
 702 01c8 0430A0E3 		mov	r3, #4
 703 01cc 08318DE5 		str	r3, [sp, #264]
 704              	.LVL84:
 705              	.LBE833:
 706              	.LBE832:
 707              	.LBB834:
 311:C:/Renesas/e2studio_2021_01_workspace_RZA2M_ANPR/ANPR_RZA2M_EBK/src/tensorflow_lite/tensorflow/lite/kernels/internal\types.h ****       SetDim(i, pad_value);
 708              		.loc 3 311 0
 709 01d0 0D00000A 		beq	.L38
 710              	.LVL85:
 711 01d4 010050E3 		cmp	r0, #1
 712              	.LBB822:
 713              	.LBB823:
 224:C:/Renesas/e2studio_2021_01_workspace_RZA2M_ANPR/ANPR_RZA2M_EBK/src/tensorflow_lite/tensorflow/lite/kernels/internal\types.h ****     }
 714              		.loc 3 224 0
 715 01d8 0130A0E3 		mov	r3, #1
 716 01dc 0C318DE5 		str	r3, [sp, #268]
 717              	.LVL86:
 718              	.LBE823:
 719              	.LBE822:
 311:C:/Renesas/e2studio_2021_01_workspace_RZA2M_ANPR/ANPR_RZA2M_EBK/src/tensorflow_lite/tensorflow/lite/kernels/internal\types.h ****       SetDim(i, pad_value);
 720              		.loc 3 311 0
 721 01e0 0900000A 		beq	.L38
 722              	.LVL87:
 723 01e4 020050E3 		cmp	r0, #2
 724              	.LBB828:
 725              	.LBB824:
 224:C:/Renesas/e2studio_2021_01_workspace_RZA2M_ANPR/ANPR_RZA2M_EBK/src/tensorflow_lite/tensorflow/lite/kernels/internal\types.h ****     }
 726              		.loc 3 224 0
 727 01e8 10318DE5 		str	r3, [sp, #272]
 728              	.LVL88:
 729              	.LBE824:
 730              	.LBE828:
 311:C:/Renesas/e2studio_2021_01_workspace_RZA2M_ANPR/ANPR_RZA2M_EBK/src/tensorflow_lite/tensorflow/lite/kernels/internal\types.h ****       SetDim(i, pad_value);
 731              		.loc 3 311 0
 732 01ec 0600000A 		beq	.L38
 733              	.LVL89:
 734 01f0 030050E3 		cmp	r0, #3
 735              	.LBB829:
 736              	.LBB825:
 224:C:/Renesas/e2studio_2021_01_workspace_RZA2M_ANPR/ANPR_RZA2M_EBK/src/tensorflow_lite/tensorflow/lite/kernels/internal\types.h ****     }
 737              		.loc 3 224 0
 738 01f4 14318DE5 		str	r3, [sp, #276]
 739              	.LVL90:
 740              	.LBE825:
 741              	.LBE829:
 311:C:/Renesas/e2studio_2021_01_workspace_RZA2M_ANPR/ANPR_RZA2M_EBK/src/tensorflow_lite/tensorflow/lite/kernels/internal\types.h ****       SetDim(i, pad_value);
 742              		.loc 3 311 0
 743 01f8 0300000A 		beq	.L38
 744              	.LVL91:
 745 01fc 040050E3 		cmp	r0, #4
 746              	.LBB830:
 747              	.LBB826:
 224:C:/Renesas/e2studio_2021_01_workspace_RZA2M_ANPR/ANPR_RZA2M_EBK/src/tensorflow_lite/tensorflow/lite/kernels/internal\types.h ****     }
 748              		.loc 3 224 0
 749 0200 18318DE5 		str	r3, [sp, #280]
 750              	.LVL92:
 751              	.LBE826:
 752              	.LBE830:
 311:C:/Renesas/e2studio_2021_01_workspace_RZA2M_ANPR/ANPR_RZA2M_EBK/src/tensorflow_lite/tensorflow/lite/kernels/internal\types.h ****       SetDim(i, pad_value);
 753              		.loc 3 311 0
 754 0204 0000000A 		beq	.L38
 755              	.LVL93:
 756              	.LEHB5:
 757              	.LBB831:
 758              	.LBB827:
 220:C:/Renesas/e2studio_2021_01_workspace_RZA2M_ANPR/ANPR_RZA2M_EBK/src/tensorflow_lite/tensorflow/lite/kernels/internal\types.h ****     if (size_ > kMaxSmallSize) {
 759              		.loc 3 220 0
 760 0208 FEFFFFEB 		bl	abort
 761              	.LVL94:
 762              	.LEHE5:
 763              	.L38:
 764              	.LBE827:
 765              	.LBE831:
 766              	.LBE834:
 767              		.loc 3 315 0
 768 020c 433F8DE2 		add	r3, sp, #268
 769 0210 0521A0E1 		lsl	r2, r5, #2
 770 0214 000183E0 		add	r0, r3, r0, lsl #2
 771              	.LVL95:
 772 0218 AC108DE2 		add	r1, sp, #172
 773 021c FEFFFFEB 		bl	memcpy
 774              	.LVL96:
 775 0220 F0509DE5 		ldr	r5, [sp, #240]
 776              	.LBE820:
 777              	.LBE819:
 778              	.LBE818:
 779              	.LBE817:
 780              	.LBB835:
 781              	.LBB836:
 782              	.LBB837:
 783              	.LBB838:
 784              	.LBB839:
 216:C:/Renesas/e2studio_2021_01_workspace_RZA2M_ANPR/ANPR_RZA2M_EBK/src/tensorflow_lite/tensorflow/lite/kernels/internal\types.h ****   }
 785              		.loc 3 216 0
 786 0224 F4309DE5 		ldr	r3, [sp, #244]
 787 0228 050055E3 		cmp	r5, #5
 788 022c D30100CA 		bgt	.L921
 789              	.LVL97:
 215:C:/Renesas/e2studio_2021_01_workspace_RZA2M_ANPR/ANPR_RZA2M_EBK/src/tensorflow_lite/tensorflow/lite/kernels/internal\types.h ****     return size_ > kMaxSmallSize ? dims_pointer_[i] : dims_[i];
 790              		.loc 3 215 0
 791 0230 030055E3 		cmp	r5, #3
 792 0234 7A0800DA 		ble	.L48
 216:C:/Renesas/e2studio_2021_01_workspace_RZA2M_ANPR/ANPR_RZA2M_EBK/src/tensorflow_lite/tensorflow/lite/kernels/internal\types.h ****   }
 793              		.loc 3 216 0
 794 0238 00119DE5 		ldr	r1, [sp, #256]
 795              	.LVL98:
 796 023c 01E0A0E3 		mov	lr, #1
 797 0240 FCC09DE5 		ldr	ip, [sp, #252]
 798 0244 F8209DE5 		ldr	r2, [sp, #248]
 799 0248 20318DE5 		str	r3, [sp, #288]
 800 024c 2C118DE5 		str	r1, [sp, #300]
 801              	.LVL99:
 802              	.LBE839:
 803              	.LBE838:
 804              		.file 4 "C:/Renesas/e2studio_2021_01_workspace_RZA2M_ANPR/ANPR_RZA2M_EBK/src/tensorflow_lite/tenso
   1:C:/Renesas/e2studio_2021_01_workspace_RZA2M_ANPR/ANPR_RZA2M_EBK/src/tensorflow_lite/tensorflow/lite/kernels/internal\common.h **** /* Copyright 2017 The TensorFlow Authors. All Rights Reserved.
   2:C:/Renesas/e2studio_2021_01_workspace_RZA2M_ANPR/ANPR_RZA2M_EBK/src/tensorflow_lite/tensorflow/lite/kernels/internal\common.h **** 
   3:C:/Renesas/e2studio_2021_01_workspace_RZA2M_ANPR/ANPR_RZA2M_EBK/src/tensorflow_lite/tensorflow/lite/kernels/internal\common.h **** Licensed under the Apache License, Version 2.0 (the "License");
   4:C:/Renesas/e2studio_2021_01_workspace_RZA2M_ANPR/ANPR_RZA2M_EBK/src/tensorflow_lite/tensorflow/lite/kernels/internal\common.h **** you may not use this file except in compliance with the License.
   5:C:/Renesas/e2studio_2021_01_workspace_RZA2M_ANPR/ANPR_RZA2M_EBK/src/tensorflow_lite/tensorflow/lite/kernels/internal\common.h **** You may obtain a copy of the License at
   6:C:/Renesas/e2studio_2021_01_workspace_RZA2M_ANPR/ANPR_RZA2M_EBK/src/tensorflow_lite/tensorflow/lite/kernels/internal\common.h **** 
   7:C:/Renesas/e2studio_2021_01_workspace_RZA2M_ANPR/ANPR_RZA2M_EBK/src/tensorflow_lite/tensorflow/lite/kernels/internal\common.h ****     http://www.apache.org/licenses/LICENSE-2.0
   8:C:/Renesas/e2studio_2021_01_workspace_RZA2M_ANPR/ANPR_RZA2M_EBK/src/tensorflow_lite/tensorflow/lite/kernels/internal\common.h **** 
   9:C:/Renesas/e2studio_2021_01_workspace_RZA2M_ANPR/ANPR_RZA2M_EBK/src/tensorflow_lite/tensorflow/lite/kernels/internal\common.h **** Unless required by applicable law or agreed to in writing, software
  10:C:/Renesas/e2studio_2021_01_workspace_RZA2M_ANPR/ANPR_RZA2M_EBK/src/tensorflow_lite/tensorflow/lite/kernels/internal\common.h **** distributed under the License is distributed on an "AS IS" BASIS,
  11:C:/Renesas/e2studio_2021_01_workspace_RZA2M_ANPR/ANPR_RZA2M_EBK/src/tensorflow_lite/tensorflow/lite/kernels/internal\common.h **** WITHOUT WARRANTIES OR CONDITIONS OF ANY KIND, either express or implied.
  12:C:/Renesas/e2studio_2021_01_workspace_RZA2M_ANPR/ANPR_RZA2M_EBK/src/tensorflow_lite/tensorflow/lite/kernels/internal\common.h **** See the License for the specific language governing permissions and
  13:C:/Renesas/e2studio_2021_01_workspace_RZA2M_ANPR/ANPR_RZA2M_EBK/src/tensorflow_lite/tensorflow/lite/kernels/internal\common.h **** limitations under the License.
  14:C:/Renesas/e2studio_2021_01_workspace_RZA2M_ANPR/ANPR_RZA2M_EBK/src/tensorflow_lite/tensorflow/lite/kernels/internal\common.h **** ==============================================================================*/
  15:C:/Renesas/e2studio_2021_01_workspace_RZA2M_ANPR/ANPR_RZA2M_EBK/src/tensorflow_lite/tensorflow/lite/kernels/internal\common.h **** #ifndef TENSORFLOW_LITE_KERNELS_INTERNAL_COMMON_H_
  16:C:/Renesas/e2studio_2021_01_workspace_RZA2M_ANPR/ANPR_RZA2M_EBK/src/tensorflow_lite/tensorflow/lite/kernels/internal\common.h **** #define TENSORFLOW_LITE_KERNELS_INTERNAL_COMMON_H_
  17:C:/Renesas/e2studio_2021_01_workspace_RZA2M_ANPR/ANPR_RZA2M_EBK/src/tensorflow_lite/tensorflow/lite/kernels/internal\common.h **** 
  18:C:/Renesas/e2studio_2021_01_workspace_RZA2M_ANPR/ANPR_RZA2M_EBK/src/tensorflow_lite/tensorflow/lite/kernels/internal\common.h **** #ifndef ALLOW_SLOW_GENERIC_DEPTHWISECONV_FALLBACK
  19:C:/Renesas/e2studio_2021_01_workspace_RZA2M_ANPR/ANPR_RZA2M_EBK/src/tensorflow_lite/tensorflow/lite/kernels/internal\common.h **** #ifdef GEMMLOWP_ALLOW_SLOW_SCALAR_FALLBACK
  20:C:/Renesas/e2studio_2021_01_workspace_RZA2M_ANPR/ANPR_RZA2M_EBK/src/tensorflow_lite/tensorflow/lite/kernels/internal\common.h **** #define ALLOW_SLOW_GENERIC_DEPTHWISECONV_FALLBACK
  21:C:/Renesas/e2studio_2021_01_workspace_RZA2M_ANPR/ANPR_RZA2M_EBK/src/tensorflow_lite/tensorflow/lite/kernels/internal\common.h **** #endif
  22:C:/Renesas/e2studio_2021_01_workspace_RZA2M_ANPR/ANPR_RZA2M_EBK/src/tensorflow_lite/tensorflow/lite/kernels/internal\common.h **** #endif
  23:C:/Renesas/e2studio_2021_01_workspace_RZA2M_ANPR/ANPR_RZA2M_EBK/src/tensorflow_lite/tensorflow/lite/kernels/internal\common.h **** 
  24:C:/Renesas/e2studio_2021_01_workspace_RZA2M_ANPR/ANPR_RZA2M_EBK/src/tensorflow_lite/tensorflow/lite/kernels/internal\common.h **** #include <functional>
  25:C:/Renesas/e2studio_2021_01_workspace_RZA2M_ANPR/ANPR_RZA2M_EBK/src/tensorflow_lite/tensorflow/lite/kernels/internal\common.h **** 
  26:C:/Renesas/e2studio_2021_01_workspace_RZA2M_ANPR/ANPR_RZA2M_EBK/src/tensorflow_lite/tensorflow/lite/kernels/internal\common.h **** #include "fixedpoint/fixedpoint.h"
  27:C:/Renesas/e2studio_2021_01_workspace_RZA2M_ANPR/ANPR_RZA2M_EBK/src/tensorflow_lite/tensorflow/lite/kernels/internal\common.h **** #include "tensorflow/lite/kernels/internal/cppmath.h"
  28:C:/Renesas/e2studio_2021_01_workspace_RZA2M_ANPR/ANPR_RZA2M_EBK/src/tensorflow_lite/tensorflow/lite/kernels/internal\common.h **** #include "tensorflow/lite/kernels/internal/optimized/neon_check.h"
  29:C:/Renesas/e2studio_2021_01_workspace_RZA2M_ANPR/ANPR_RZA2M_EBK/src/tensorflow_lite/tensorflow/lite/kernels/internal\common.h **** #include "tensorflow/lite/kernels/internal/types.h"
  30:C:/Renesas/e2studio_2021_01_workspace_RZA2M_ANPR/ANPR_RZA2M_EBK/src/tensorflow_lite/tensorflow/lite/kernels/internal\common.h **** 
  31:C:/Renesas/e2studio_2021_01_workspace_RZA2M_ANPR/ANPR_RZA2M_EBK/src/tensorflow_lite/tensorflow/lite/kernels/internal\common.h **** namespace tflite {
  32:C:/Renesas/e2studio_2021_01_workspace_RZA2M_ANPR/ANPR_RZA2M_EBK/src/tensorflow_lite/tensorflow/lite/kernels/internal\common.h **** 
  33:C:/Renesas/e2studio_2021_01_workspace_RZA2M_ANPR/ANPR_RZA2M_EBK/src/tensorflow_lite/tensorflow/lite/kernels/internal\common.h **** constexpr int kReverseShift = -1;
  34:C:/Renesas/e2studio_2021_01_workspace_RZA2M_ANPR/ANPR_RZA2M_EBK/src/tensorflow_lite/tensorflow/lite/kernels/internal\common.h **** 
  35:C:/Renesas/e2studio_2021_01_workspace_RZA2M_ANPR/ANPR_RZA2M_EBK/src/tensorflow_lite/tensorflow/lite/kernels/internal\common.h **** inline void GetActivationMinMax(FusedActivationFunctionType ac,
  36:C:/Renesas/e2studio_2021_01_workspace_RZA2M_ANPR/ANPR_RZA2M_EBK/src/tensorflow_lite/tensorflow/lite/kernels/internal\common.h ****                                 float* output_activation_min,
  37:C:/Renesas/e2studio_2021_01_workspace_RZA2M_ANPR/ANPR_RZA2M_EBK/src/tensorflow_lite/tensorflow/lite/kernels/internal\common.h ****                                 float* output_activation_max) {
  38:C:/Renesas/e2studio_2021_01_workspace_RZA2M_ANPR/ANPR_RZA2M_EBK/src/tensorflow_lite/tensorflow/lite/kernels/internal\common.h ****   switch (ac) {
  39:C:/Renesas/e2studio_2021_01_workspace_RZA2M_ANPR/ANPR_RZA2M_EBK/src/tensorflow_lite/tensorflow/lite/kernels/internal\common.h ****     case FusedActivationFunctionType::kNone:
  40:C:/Renesas/e2studio_2021_01_workspace_RZA2M_ANPR/ANPR_RZA2M_EBK/src/tensorflow_lite/tensorflow/lite/kernels/internal\common.h ****       *output_activation_min = std::numeric_limits<float>::lowest();
  41:C:/Renesas/e2studio_2021_01_workspace_RZA2M_ANPR/ANPR_RZA2M_EBK/src/tensorflow_lite/tensorflow/lite/kernels/internal\common.h ****       *output_activation_max = std::numeric_limits<float>::max();
  42:C:/Renesas/e2studio_2021_01_workspace_RZA2M_ANPR/ANPR_RZA2M_EBK/src/tensorflow_lite/tensorflow/lite/kernels/internal\common.h ****       break;
  43:C:/Renesas/e2studio_2021_01_workspace_RZA2M_ANPR/ANPR_RZA2M_EBK/src/tensorflow_lite/tensorflow/lite/kernels/internal\common.h ****     case FusedActivationFunctionType::kRelu:
  44:C:/Renesas/e2studio_2021_01_workspace_RZA2M_ANPR/ANPR_RZA2M_EBK/src/tensorflow_lite/tensorflow/lite/kernels/internal\common.h ****       *output_activation_min = 0.f;
  45:C:/Renesas/e2studio_2021_01_workspace_RZA2M_ANPR/ANPR_RZA2M_EBK/src/tensorflow_lite/tensorflow/lite/kernels/internal\common.h ****       *output_activation_max = std::numeric_limits<float>::max();
  46:C:/Renesas/e2studio_2021_01_workspace_RZA2M_ANPR/ANPR_RZA2M_EBK/src/tensorflow_lite/tensorflow/lite/kernels/internal\common.h ****       break;
  47:C:/Renesas/e2studio_2021_01_workspace_RZA2M_ANPR/ANPR_RZA2M_EBK/src/tensorflow_lite/tensorflow/lite/kernels/internal\common.h ****     case FusedActivationFunctionType::kRelu1:
  48:C:/Renesas/e2studio_2021_01_workspace_RZA2M_ANPR/ANPR_RZA2M_EBK/src/tensorflow_lite/tensorflow/lite/kernels/internal\common.h ****       *output_activation_min = -1.f;
  49:C:/Renesas/e2studio_2021_01_workspace_RZA2M_ANPR/ANPR_RZA2M_EBK/src/tensorflow_lite/tensorflow/lite/kernels/internal\common.h ****       *output_activation_max = 1.f;
  50:C:/Renesas/e2studio_2021_01_workspace_RZA2M_ANPR/ANPR_RZA2M_EBK/src/tensorflow_lite/tensorflow/lite/kernels/internal\common.h ****       break;
  51:C:/Renesas/e2studio_2021_01_workspace_RZA2M_ANPR/ANPR_RZA2M_EBK/src/tensorflow_lite/tensorflow/lite/kernels/internal\common.h ****     case FusedActivationFunctionType::kRelu6:
  52:C:/Renesas/e2studio_2021_01_workspace_RZA2M_ANPR/ANPR_RZA2M_EBK/src/tensorflow_lite/tensorflow/lite/kernels/internal\common.h ****       *output_activation_min = 0.f;
  53:C:/Renesas/e2studio_2021_01_workspace_RZA2M_ANPR/ANPR_RZA2M_EBK/src/tensorflow_lite/tensorflow/lite/kernels/internal\common.h ****       *output_activation_max = 6.f;
  54:C:/Renesas/e2studio_2021_01_workspace_RZA2M_ANPR/ANPR_RZA2M_EBK/src/tensorflow_lite/tensorflow/lite/kernels/internal\common.h ****       break;
  55:C:/Renesas/e2studio_2021_01_workspace_RZA2M_ANPR/ANPR_RZA2M_EBK/src/tensorflow_lite/tensorflow/lite/kernels/internal\common.h ****   }
  56:C:/Renesas/e2studio_2021_01_workspace_RZA2M_ANPR/ANPR_RZA2M_EBK/src/tensorflow_lite/tensorflow/lite/kernels/internal\common.h **** }
  57:C:/Renesas/e2studio_2021_01_workspace_RZA2M_ANPR/ANPR_RZA2M_EBK/src/tensorflow_lite/tensorflow/lite/kernels/internal\common.h **** 
  58:C:/Renesas/e2studio_2021_01_workspace_RZA2M_ANPR/ANPR_RZA2M_EBK/src/tensorflow_lite/tensorflow/lite/kernels/internal\common.h **** template <typename T>
  59:C:/Renesas/e2studio_2021_01_workspace_RZA2M_ANPR/ANPR_RZA2M_EBK/src/tensorflow_lite/tensorflow/lite/kernels/internal\common.h **** inline T ActivationFunctionWithMinMax(T x, T output_activation_min,
  60:C:/Renesas/e2studio_2021_01_workspace_RZA2M_ANPR/ANPR_RZA2M_EBK/src/tensorflow_lite/tensorflow/lite/kernels/internal\common.h ****                                       T output_activation_max) {
  61:C:/Renesas/e2studio_2021_01_workspace_RZA2M_ANPR/ANPR_RZA2M_EBK/src/tensorflow_lite/tensorflow/lite/kernels/internal\common.h ****   using std::max;
  62:C:/Renesas/e2studio_2021_01_workspace_RZA2M_ANPR/ANPR_RZA2M_EBK/src/tensorflow_lite/tensorflow/lite/kernels/internal\common.h ****   using std::min;
  63:C:/Renesas/e2studio_2021_01_workspace_RZA2M_ANPR/ANPR_RZA2M_EBK/src/tensorflow_lite/tensorflow/lite/kernels/internal\common.h ****   return min(max(x, output_activation_min), output_activation_max);
  64:C:/Renesas/e2studio_2021_01_workspace_RZA2M_ANPR/ANPR_RZA2M_EBK/src/tensorflow_lite/tensorflow/lite/kernels/internal\common.h **** }
  65:C:/Renesas/e2studio_2021_01_workspace_RZA2M_ANPR/ANPR_RZA2M_EBK/src/tensorflow_lite/tensorflow/lite/kernels/internal\common.h **** 
  66:C:/Renesas/e2studio_2021_01_workspace_RZA2M_ANPR/ANPR_RZA2M_EBK/src/tensorflow_lite/tensorflow/lite/kernels/internal\common.h **** // Legacy function, left for compatibility only.
  67:C:/Renesas/e2studio_2021_01_workspace_RZA2M_ANPR/ANPR_RZA2M_EBK/src/tensorflow_lite/tensorflow/lite/kernels/internal\common.h **** template <FusedActivationFunctionType Ac>
  68:C:/Renesas/e2studio_2021_01_workspace_RZA2M_ANPR/ANPR_RZA2M_EBK/src/tensorflow_lite/tensorflow/lite/kernels/internal\common.h **** float ActivationFunction(float x) {
  69:C:/Renesas/e2studio_2021_01_workspace_RZA2M_ANPR/ANPR_RZA2M_EBK/src/tensorflow_lite/tensorflow/lite/kernels/internal\common.h ****   float output_activation_min, output_activation_max;
  70:C:/Renesas/e2studio_2021_01_workspace_RZA2M_ANPR/ANPR_RZA2M_EBK/src/tensorflow_lite/tensorflow/lite/kernels/internal\common.h ****   GetActivationMinMax(Ac, &output_activation_min, &output_activation_max);
  71:C:/Renesas/e2studio_2021_01_workspace_RZA2M_ANPR/ANPR_RZA2M_EBK/src/tensorflow_lite/tensorflow/lite/kernels/internal\common.h ****   return ActivationFunctionWithMinMax(x, output_activation_min,
  72:C:/Renesas/e2studio_2021_01_workspace_RZA2M_ANPR/ANPR_RZA2M_EBK/src/tensorflow_lite/tensorflow/lite/kernels/internal\common.h ****                                       output_activation_max);
  73:C:/Renesas/e2studio_2021_01_workspace_RZA2M_ANPR/ANPR_RZA2M_EBK/src/tensorflow_lite/tensorflow/lite/kernels/internal\common.h **** }
  74:C:/Renesas/e2studio_2021_01_workspace_RZA2M_ANPR/ANPR_RZA2M_EBK/src/tensorflow_lite/tensorflow/lite/kernels/internal\common.h **** 
  75:C:/Renesas/e2studio_2021_01_workspace_RZA2M_ANPR/ANPR_RZA2M_EBK/src/tensorflow_lite/tensorflow/lite/kernels/internal\common.h **** inline void BiasAndClamp(float clamp_min, float clamp_max, int bias_size,
  76:C:/Renesas/e2studio_2021_01_workspace_RZA2M_ANPR/ANPR_RZA2M_EBK/src/tensorflow_lite/tensorflow/lite/kernels/internal\common.h ****                          const float* bias_data, int array_size,
  77:C:/Renesas/e2studio_2021_01_workspace_RZA2M_ANPR/ANPR_RZA2M_EBK/src/tensorflow_lite/tensorflow/lite/kernels/internal\common.h ****                          float* array_data) {
  78:C:/Renesas/e2studio_2021_01_workspace_RZA2M_ANPR/ANPR_RZA2M_EBK/src/tensorflow_lite/tensorflow/lite/kernels/internal\common.h ****   // Note: see b/132215220: in May 2019 we thought it would be OK to replace
  79:C:/Renesas/e2studio_2021_01_workspace_RZA2M_ANPR/ANPR_RZA2M_EBK/src/tensorflow_lite/tensorflow/lite/kernels/internal\common.h ****   // this with the Eigen one-liner:
  80:C:/Renesas/e2studio_2021_01_workspace_RZA2M_ANPR/ANPR_RZA2M_EBK/src/tensorflow_lite/tensorflow/lite/kernels/internal\common.h ****   //   return (array.colwise() + bias).cwiseMin(clamp_max).cwiseMin(clamp_max).
  81:C:/Renesas/e2studio_2021_01_workspace_RZA2M_ANPR/ANPR_RZA2M_EBK/src/tensorflow_lite/tensorflow/lite/kernels/internal\common.h ****   // This turned out to severely regress performance: +4ms (i.e. 8%) on
  82:C:/Renesas/e2studio_2021_01_workspace_RZA2M_ANPR/ANPR_RZA2M_EBK/src/tensorflow_lite/tensorflow/lite/kernels/internal\common.h ****   // MobileNet v2 / 1.0 / 224. So we keep custom NEON code for now.
  83:C:/Renesas/e2studio_2021_01_workspace_RZA2M_ANPR/ANPR_RZA2M_EBK/src/tensorflow_lite/tensorflow/lite/kernels/internal\common.h ****   TFLITE_DCHECK_EQ((array_size % bias_size), 0);
  84:C:/Renesas/e2studio_2021_01_workspace_RZA2M_ANPR/ANPR_RZA2M_EBK/src/tensorflow_lite/tensorflow/lite/kernels/internal\common.h **** #ifdef USE_NEON
  85:C:/Renesas/e2studio_2021_01_workspace_RZA2M_ANPR/ANPR_RZA2M_EBK/src/tensorflow_lite/tensorflow/lite/kernels/internal\common.h ****   float* array_ptr = array_data;
  86:C:/Renesas/e2studio_2021_01_workspace_RZA2M_ANPR/ANPR_RZA2M_EBK/src/tensorflow_lite/tensorflow/lite/kernels/internal\common.h ****   float* array_end_ptr = array_ptr + array_size;
  87:C:/Renesas/e2studio_2021_01_workspace_RZA2M_ANPR/ANPR_RZA2M_EBK/src/tensorflow_lite/tensorflow/lite/kernels/internal\common.h ****   const auto clamp_min_vec = vdupq_n_f32(clamp_min);
  88:C:/Renesas/e2studio_2021_01_workspace_RZA2M_ANPR/ANPR_RZA2M_EBK/src/tensorflow_lite/tensorflow/lite/kernels/internal\common.h ****   const auto clamp_max_vec = vdupq_n_f32(clamp_max);
  89:C:/Renesas/e2studio_2021_01_workspace_RZA2M_ANPR/ANPR_RZA2M_EBK/src/tensorflow_lite/tensorflow/lite/kernels/internal\common.h ****   for (; array_ptr != array_end_ptr; array_ptr += bias_size) {
  90:C:/Renesas/e2studio_2021_01_workspace_RZA2M_ANPR/ANPR_RZA2M_EBK/src/tensorflow_lite/tensorflow/lite/kernels/internal\common.h ****     int i = 0;
  91:C:/Renesas/e2studio_2021_01_workspace_RZA2M_ANPR/ANPR_RZA2M_EBK/src/tensorflow_lite/tensorflow/lite/kernels/internal\common.h ****     for (; i <= bias_size - 16; i += 16) {
  92:C:/Renesas/e2studio_2021_01_workspace_RZA2M_ANPR/ANPR_RZA2M_EBK/src/tensorflow_lite/tensorflow/lite/kernels/internal\common.h ****       auto b0 = vld1q_f32(bias_data + i);
  93:C:/Renesas/e2studio_2021_01_workspace_RZA2M_ANPR/ANPR_RZA2M_EBK/src/tensorflow_lite/tensorflow/lite/kernels/internal\common.h ****       auto b1 = vld1q_f32(bias_data + i + 4);
  94:C:/Renesas/e2studio_2021_01_workspace_RZA2M_ANPR/ANPR_RZA2M_EBK/src/tensorflow_lite/tensorflow/lite/kernels/internal\common.h ****       auto b2 = vld1q_f32(bias_data + i + 8);
  95:C:/Renesas/e2studio_2021_01_workspace_RZA2M_ANPR/ANPR_RZA2M_EBK/src/tensorflow_lite/tensorflow/lite/kernels/internal\common.h ****       auto b3 = vld1q_f32(bias_data + i + 12);
  96:C:/Renesas/e2studio_2021_01_workspace_RZA2M_ANPR/ANPR_RZA2M_EBK/src/tensorflow_lite/tensorflow/lite/kernels/internal\common.h ****       auto a0 = vld1q_f32(array_ptr + i);
  97:C:/Renesas/e2studio_2021_01_workspace_RZA2M_ANPR/ANPR_RZA2M_EBK/src/tensorflow_lite/tensorflow/lite/kernels/internal\common.h ****       auto a1 = vld1q_f32(array_ptr + i + 4);
  98:C:/Renesas/e2studio_2021_01_workspace_RZA2M_ANPR/ANPR_RZA2M_EBK/src/tensorflow_lite/tensorflow/lite/kernels/internal\common.h ****       auto a2 = vld1q_f32(array_ptr + i + 8);
  99:C:/Renesas/e2studio_2021_01_workspace_RZA2M_ANPR/ANPR_RZA2M_EBK/src/tensorflow_lite/tensorflow/lite/kernels/internal\common.h ****       auto a3 = vld1q_f32(array_ptr + i + 12);
 100:C:/Renesas/e2studio_2021_01_workspace_RZA2M_ANPR/ANPR_RZA2M_EBK/src/tensorflow_lite/tensorflow/lite/kernels/internal\common.h ****       auto x0 = vaddq_f32(a0, b0);
 101:C:/Renesas/e2studio_2021_01_workspace_RZA2M_ANPR/ANPR_RZA2M_EBK/src/tensorflow_lite/tensorflow/lite/kernels/internal\common.h ****       auto x1 = vaddq_f32(a1, b1);
 102:C:/Renesas/e2studio_2021_01_workspace_RZA2M_ANPR/ANPR_RZA2M_EBK/src/tensorflow_lite/tensorflow/lite/kernels/internal\common.h ****       auto x2 = vaddq_f32(a2, b2);
 103:C:/Renesas/e2studio_2021_01_workspace_RZA2M_ANPR/ANPR_RZA2M_EBK/src/tensorflow_lite/tensorflow/lite/kernels/internal\common.h ****       auto x3 = vaddq_f32(a3, b3);
 104:C:/Renesas/e2studio_2021_01_workspace_RZA2M_ANPR/ANPR_RZA2M_EBK/src/tensorflow_lite/tensorflow/lite/kernels/internal\common.h ****       x0 = vmaxq_f32(clamp_min_vec, x0);
 105:C:/Renesas/e2studio_2021_01_workspace_RZA2M_ANPR/ANPR_RZA2M_EBK/src/tensorflow_lite/tensorflow/lite/kernels/internal\common.h ****       x1 = vmaxq_f32(clamp_min_vec, x1);
 106:C:/Renesas/e2studio_2021_01_workspace_RZA2M_ANPR/ANPR_RZA2M_EBK/src/tensorflow_lite/tensorflow/lite/kernels/internal\common.h ****       x2 = vmaxq_f32(clamp_min_vec, x2);
 107:C:/Renesas/e2studio_2021_01_workspace_RZA2M_ANPR/ANPR_RZA2M_EBK/src/tensorflow_lite/tensorflow/lite/kernels/internal\common.h ****       x3 = vmaxq_f32(clamp_min_vec, x3);
 108:C:/Renesas/e2studio_2021_01_workspace_RZA2M_ANPR/ANPR_RZA2M_EBK/src/tensorflow_lite/tensorflow/lite/kernels/internal\common.h ****       x0 = vminq_f32(clamp_max_vec, x0);
 109:C:/Renesas/e2studio_2021_01_workspace_RZA2M_ANPR/ANPR_RZA2M_EBK/src/tensorflow_lite/tensorflow/lite/kernels/internal\common.h ****       x1 = vminq_f32(clamp_max_vec, x1);
 110:C:/Renesas/e2studio_2021_01_workspace_RZA2M_ANPR/ANPR_RZA2M_EBK/src/tensorflow_lite/tensorflow/lite/kernels/internal\common.h ****       x2 = vminq_f32(clamp_max_vec, x2);
 111:C:/Renesas/e2studio_2021_01_workspace_RZA2M_ANPR/ANPR_RZA2M_EBK/src/tensorflow_lite/tensorflow/lite/kernels/internal\common.h ****       x3 = vminq_f32(clamp_max_vec, x3);
 112:C:/Renesas/e2studio_2021_01_workspace_RZA2M_ANPR/ANPR_RZA2M_EBK/src/tensorflow_lite/tensorflow/lite/kernels/internal\common.h ****       vst1q_f32(array_ptr + i, x0);
 113:C:/Renesas/e2studio_2021_01_workspace_RZA2M_ANPR/ANPR_RZA2M_EBK/src/tensorflow_lite/tensorflow/lite/kernels/internal\common.h ****       vst1q_f32(array_ptr + i + 4, x1);
 114:C:/Renesas/e2studio_2021_01_workspace_RZA2M_ANPR/ANPR_RZA2M_EBK/src/tensorflow_lite/tensorflow/lite/kernels/internal\common.h ****       vst1q_f32(array_ptr + i + 8, x2);
 115:C:/Renesas/e2studio_2021_01_workspace_RZA2M_ANPR/ANPR_RZA2M_EBK/src/tensorflow_lite/tensorflow/lite/kernels/internal\common.h ****       vst1q_f32(array_ptr + i + 12, x3);
 116:C:/Renesas/e2studio_2021_01_workspace_RZA2M_ANPR/ANPR_RZA2M_EBK/src/tensorflow_lite/tensorflow/lite/kernels/internal\common.h ****     }
 117:C:/Renesas/e2studio_2021_01_workspace_RZA2M_ANPR/ANPR_RZA2M_EBK/src/tensorflow_lite/tensorflow/lite/kernels/internal\common.h ****     for (; i <= bias_size - 4; i += 4) {
 118:C:/Renesas/e2studio_2021_01_workspace_RZA2M_ANPR/ANPR_RZA2M_EBK/src/tensorflow_lite/tensorflow/lite/kernels/internal\common.h ****       auto b = vld1q_f32(bias_data + i);
 119:C:/Renesas/e2studio_2021_01_workspace_RZA2M_ANPR/ANPR_RZA2M_EBK/src/tensorflow_lite/tensorflow/lite/kernels/internal\common.h ****       auto a = vld1q_f32(array_ptr + i);
 120:C:/Renesas/e2studio_2021_01_workspace_RZA2M_ANPR/ANPR_RZA2M_EBK/src/tensorflow_lite/tensorflow/lite/kernels/internal\common.h ****       auto x = vaddq_f32(a, b);
 121:C:/Renesas/e2studio_2021_01_workspace_RZA2M_ANPR/ANPR_RZA2M_EBK/src/tensorflow_lite/tensorflow/lite/kernels/internal\common.h ****       x = vmaxq_f32(clamp_min_vec, x);
 122:C:/Renesas/e2studio_2021_01_workspace_RZA2M_ANPR/ANPR_RZA2M_EBK/src/tensorflow_lite/tensorflow/lite/kernels/internal\common.h ****       x = vminq_f32(clamp_max_vec, x);
 123:C:/Renesas/e2studio_2021_01_workspace_RZA2M_ANPR/ANPR_RZA2M_EBK/src/tensorflow_lite/tensorflow/lite/kernels/internal\common.h ****       vst1q_f32(array_ptr + i, x);
 124:C:/Renesas/e2studio_2021_01_workspace_RZA2M_ANPR/ANPR_RZA2M_EBK/src/tensorflow_lite/tensorflow/lite/kernels/internal\common.h ****     }
 125:C:/Renesas/e2studio_2021_01_workspace_RZA2M_ANPR/ANPR_RZA2M_EBK/src/tensorflow_lite/tensorflow/lite/kernels/internal\common.h ****     for (; i < bias_size; i++) {
 126:C:/Renesas/e2studio_2021_01_workspace_RZA2M_ANPR/ANPR_RZA2M_EBK/src/tensorflow_lite/tensorflow/lite/kernels/internal\common.h ****       array_ptr[i] = ActivationFunctionWithMinMax(array_ptr[i] + bias_data[i],
 127:C:/Renesas/e2studio_2021_01_workspace_RZA2M_ANPR/ANPR_RZA2M_EBK/src/tensorflow_lite/tensorflow/lite/kernels/internal\common.h ****                                                   clamp_min, clamp_max);
 128:C:/Renesas/e2studio_2021_01_workspace_RZA2M_ANPR/ANPR_RZA2M_EBK/src/tensorflow_lite/tensorflow/lite/kernels/internal\common.h ****     }
 129:C:/Renesas/e2studio_2021_01_workspace_RZA2M_ANPR/ANPR_RZA2M_EBK/src/tensorflow_lite/tensorflow/lite/kernels/internal\common.h ****   }
 130:C:/Renesas/e2studio_2021_01_workspace_RZA2M_ANPR/ANPR_RZA2M_EBK/src/tensorflow_lite/tensorflow/lite/kernels/internal\common.h **** #else  // not NEON
 131:C:/Renesas/e2studio_2021_01_workspace_RZA2M_ANPR/ANPR_RZA2M_EBK/src/tensorflow_lite/tensorflow/lite/kernels/internal\common.h ****   for (int array_offset = 0; array_offset < array_size;
 132:C:/Renesas/e2studio_2021_01_workspace_RZA2M_ANPR/ANPR_RZA2M_EBK/src/tensorflow_lite/tensorflow/lite/kernels/internal\common.h ****        array_offset += bias_size) {
 133:C:/Renesas/e2studio_2021_01_workspace_RZA2M_ANPR/ANPR_RZA2M_EBK/src/tensorflow_lite/tensorflow/lite/kernels/internal\common.h ****     for (int i = 0; i < bias_size; i++) {
 134:C:/Renesas/e2studio_2021_01_workspace_RZA2M_ANPR/ANPR_RZA2M_EBK/src/tensorflow_lite/tensorflow/lite/kernels/internal\common.h ****       array_data[array_offset + i] = ActivationFunctionWithMinMax(
 135:C:/Renesas/e2studio_2021_01_workspace_RZA2M_ANPR/ANPR_RZA2M_EBK/src/tensorflow_lite/tensorflow/lite/kernels/internal\common.h ****           array_data[array_offset + i] + bias_data[i], clamp_min, clamp_max);
 136:C:/Renesas/e2studio_2021_01_workspace_RZA2M_ANPR/ANPR_RZA2M_EBK/src/tensorflow_lite/tensorflow/lite/kernels/internal\common.h ****     }
 137:C:/Renesas/e2studio_2021_01_workspace_RZA2M_ANPR/ANPR_RZA2M_EBK/src/tensorflow_lite/tensorflow/lite/kernels/internal\common.h ****   }
 138:C:/Renesas/e2studio_2021_01_workspace_RZA2M_ANPR/ANPR_RZA2M_EBK/src/tensorflow_lite/tensorflow/lite/kernels/internal\common.h **** #endif
 139:C:/Renesas/e2studio_2021_01_workspace_RZA2M_ANPR/ANPR_RZA2M_EBK/src/tensorflow_lite/tensorflow/lite/kernels/internal\common.h **** }
 140:C:/Renesas/e2studio_2021_01_workspace_RZA2M_ANPR/ANPR_RZA2M_EBK/src/tensorflow_lite/tensorflow/lite/kernels/internal\common.h **** 
 141:C:/Renesas/e2studio_2021_01_workspace_RZA2M_ANPR/ANPR_RZA2M_EBK/src/tensorflow_lite/tensorflow/lite/kernels/internal\common.h **** inline int32_t MultiplyByQuantizedMultiplierSmallerThanOneExp(
 142:C:/Renesas/e2studio_2021_01_workspace_RZA2M_ANPR/ANPR_RZA2M_EBK/src/tensorflow_lite/tensorflow/lite/kernels/internal\common.h ****     int32_t x, int32_t quantized_multiplier, int left_shift) {
 143:C:/Renesas/e2studio_2021_01_workspace_RZA2M_ANPR/ANPR_RZA2M_EBK/src/tensorflow_lite/tensorflow/lite/kernels/internal\common.h ****   using gemmlowp::RoundingDivideByPOT;
 144:C:/Renesas/e2studio_2021_01_workspace_RZA2M_ANPR/ANPR_RZA2M_EBK/src/tensorflow_lite/tensorflow/lite/kernels/internal\common.h ****   using gemmlowp::SaturatingRoundingDoublingHighMul;
 145:C:/Renesas/e2studio_2021_01_workspace_RZA2M_ANPR/ANPR_RZA2M_EBK/src/tensorflow_lite/tensorflow/lite/kernels/internal\common.h ****   return RoundingDivideByPOT(
 146:C:/Renesas/e2studio_2021_01_workspace_RZA2M_ANPR/ANPR_RZA2M_EBK/src/tensorflow_lite/tensorflow/lite/kernels/internal\common.h ****       SaturatingRoundingDoublingHighMul(x, quantized_multiplier), -left_shift);
 147:C:/Renesas/e2studio_2021_01_workspace_RZA2M_ANPR/ANPR_RZA2M_EBK/src/tensorflow_lite/tensorflow/lite/kernels/internal\common.h **** }
 148:C:/Renesas/e2studio_2021_01_workspace_RZA2M_ANPR/ANPR_RZA2M_EBK/src/tensorflow_lite/tensorflow/lite/kernels/internal\common.h **** 
 149:C:/Renesas/e2studio_2021_01_workspace_RZA2M_ANPR/ANPR_RZA2M_EBK/src/tensorflow_lite/tensorflow/lite/kernels/internal\common.h **** inline int32_t MultiplyByQuantizedMultiplierGreaterThanOne(
 150:C:/Renesas/e2studio_2021_01_workspace_RZA2M_ANPR/ANPR_RZA2M_EBK/src/tensorflow_lite/tensorflow/lite/kernels/internal\common.h ****     int32_t x, int32_t quantized_multiplier, int left_shift) {
 151:C:/Renesas/e2studio_2021_01_workspace_RZA2M_ANPR/ANPR_RZA2M_EBK/src/tensorflow_lite/tensorflow/lite/kernels/internal\common.h ****   using gemmlowp::SaturatingRoundingDoublingHighMul;
 152:C:/Renesas/e2studio_2021_01_workspace_RZA2M_ANPR/ANPR_RZA2M_EBK/src/tensorflow_lite/tensorflow/lite/kernels/internal\common.h ****   return SaturatingRoundingDoublingHighMul(x * (1 << left_shift),
 153:C:/Renesas/e2studio_2021_01_workspace_RZA2M_ANPR/ANPR_RZA2M_EBK/src/tensorflow_lite/tensorflow/lite/kernels/internal\common.h ****                                            quantized_multiplier);
 154:C:/Renesas/e2studio_2021_01_workspace_RZA2M_ANPR/ANPR_RZA2M_EBK/src/tensorflow_lite/tensorflow/lite/kernels/internal\common.h **** }
 155:C:/Renesas/e2studio_2021_01_workspace_RZA2M_ANPR/ANPR_RZA2M_EBK/src/tensorflow_lite/tensorflow/lite/kernels/internal\common.h **** 
 156:C:/Renesas/e2studio_2021_01_workspace_RZA2M_ANPR/ANPR_RZA2M_EBK/src/tensorflow_lite/tensorflow/lite/kernels/internal\common.h **** inline int32_t MultiplyByQuantizedMultiplier(int32_t x,
 157:C:/Renesas/e2studio_2021_01_workspace_RZA2M_ANPR/ANPR_RZA2M_EBK/src/tensorflow_lite/tensorflow/lite/kernels/internal\common.h ****                                              int32_t quantized_multiplier,
 158:C:/Renesas/e2studio_2021_01_workspace_RZA2M_ANPR/ANPR_RZA2M_EBK/src/tensorflow_lite/tensorflow/lite/kernels/internal\common.h ****                                              int shift) {
 159:C:/Renesas/e2studio_2021_01_workspace_RZA2M_ANPR/ANPR_RZA2M_EBK/src/tensorflow_lite/tensorflow/lite/kernels/internal\common.h ****   using gemmlowp::RoundingDivideByPOT;
 160:C:/Renesas/e2studio_2021_01_workspace_RZA2M_ANPR/ANPR_RZA2M_EBK/src/tensorflow_lite/tensorflow/lite/kernels/internal\common.h ****   using gemmlowp::SaturatingRoundingDoublingHighMul;
 161:C:/Renesas/e2studio_2021_01_workspace_RZA2M_ANPR/ANPR_RZA2M_EBK/src/tensorflow_lite/tensorflow/lite/kernels/internal\common.h ****   int left_shift = shift > 0 ? shift : 0;
 162:C:/Renesas/e2studio_2021_01_workspace_RZA2M_ANPR/ANPR_RZA2M_EBK/src/tensorflow_lite/tensorflow/lite/kernels/internal\common.h ****   int right_shift = shift > 0 ? 0 : -shift;
 163:C:/Renesas/e2studio_2021_01_workspace_RZA2M_ANPR/ANPR_RZA2M_EBK/src/tensorflow_lite/tensorflow/lite/kernels/internal\common.h ****   return RoundingDivideByPOT(SaturatingRoundingDoublingHighMul(
 164:C:/Renesas/e2studio_2021_01_workspace_RZA2M_ANPR/ANPR_RZA2M_EBK/src/tensorflow_lite/tensorflow/lite/kernels/internal\common.h ****                                  x * (1 << left_shift), quantized_multiplier),
 165:C:/Renesas/e2studio_2021_01_workspace_RZA2M_ANPR/ANPR_RZA2M_EBK/src/tensorflow_lite/tensorflow/lite/kernels/internal\common.h ****                              right_shift);
 166:C:/Renesas/e2studio_2021_01_workspace_RZA2M_ANPR/ANPR_RZA2M_EBK/src/tensorflow_lite/tensorflow/lite/kernels/internal\common.h **** }
 167:C:/Renesas/e2studio_2021_01_workspace_RZA2M_ANPR/ANPR_RZA2M_EBK/src/tensorflow_lite/tensorflow/lite/kernels/internal\common.h **** 
 168:C:/Renesas/e2studio_2021_01_workspace_RZA2M_ANPR/ANPR_RZA2M_EBK/src/tensorflow_lite/tensorflow/lite/kernels/internal\common.h **** inline int32_t MultiplyByQuantizedMultiplier(int64_t x,
 169:C:/Renesas/e2studio_2021_01_workspace_RZA2M_ANPR/ANPR_RZA2M_EBK/src/tensorflow_lite/tensorflow/lite/kernels/internal\common.h ****                                              int32_t quantized_multiplier,
 170:C:/Renesas/e2studio_2021_01_workspace_RZA2M_ANPR/ANPR_RZA2M_EBK/src/tensorflow_lite/tensorflow/lite/kernels/internal\common.h ****                                              int shift) {
 171:C:/Renesas/e2studio_2021_01_workspace_RZA2M_ANPR/ANPR_RZA2M_EBK/src/tensorflow_lite/tensorflow/lite/kernels/internal\common.h ****   // Inputs:
 172:C:/Renesas/e2studio_2021_01_workspace_RZA2M_ANPR/ANPR_RZA2M_EBK/src/tensorflow_lite/tensorflow/lite/kernels/internal\common.h ****   // - quantized_multiplier has fixed point at bit 31
 173:C:/Renesas/e2studio_2021_01_workspace_RZA2M_ANPR/ANPR_RZA2M_EBK/src/tensorflow_lite/tensorflow/lite/kernels/internal\common.h ****   // - shift is -31 to +7 (negative for right shift)
 174:C:/Renesas/e2studio_2021_01_workspace_RZA2M_ANPR/ANPR_RZA2M_EBK/src/tensorflow_lite/tensorflow/lite/kernels/internal\common.h ****   //
 175:C:/Renesas/e2studio_2021_01_workspace_RZA2M_ANPR/ANPR_RZA2M_EBK/src/tensorflow_lite/tensorflow/lite/kernels/internal\common.h ****   // Assumptions: The following input ranges are assumed
 176:C:/Renesas/e2studio_2021_01_workspace_RZA2M_ANPR/ANPR_RZA2M_EBK/src/tensorflow_lite/tensorflow/lite/kernels/internal\common.h ****   // - quantize_scale>=0  (the usual range is (1<<30) to (1>>31)-1)
 177:C:/Renesas/e2studio_2021_01_workspace_RZA2M_ANPR/ANPR_RZA2M_EBK/src/tensorflow_lite/tensorflow/lite/kernels/internal\common.h ****   // - scaling is chosen so final scaled result fits in int32_t
 178:C:/Renesas/e2studio_2021_01_workspace_RZA2M_ANPR/ANPR_RZA2M_EBK/src/tensorflow_lite/tensorflow/lite/kernels/internal\common.h ****   // - input x is in the range -(1<<47) <= x < (1<<47)
 179:C:/Renesas/e2studio_2021_01_workspace_RZA2M_ANPR/ANPR_RZA2M_EBK/src/tensorflow_lite/tensorflow/lite/kernels/internal\common.h ****   assert(quantized_multiplier >= 0);
 180:C:/Renesas/e2studio_2021_01_workspace_RZA2M_ANPR/ANPR_RZA2M_EBK/src/tensorflow_lite/tensorflow/lite/kernels/internal\common.h ****   assert(shift >= -31 && shift < 8);
 181:C:/Renesas/e2studio_2021_01_workspace_RZA2M_ANPR/ANPR_RZA2M_EBK/src/tensorflow_lite/tensorflow/lite/kernels/internal\common.h ****   assert(x >= -(static_cast<int64_t>(1) << 47) &&
 182:C:/Renesas/e2studio_2021_01_workspace_RZA2M_ANPR/ANPR_RZA2M_EBK/src/tensorflow_lite/tensorflow/lite/kernels/internal\common.h ****          x < (static_cast<int64_t>(1) << 47));
 183:C:/Renesas/e2studio_2021_01_workspace_RZA2M_ANPR/ANPR_RZA2M_EBK/src/tensorflow_lite/tensorflow/lite/kernels/internal\common.h **** 
 184:C:/Renesas/e2studio_2021_01_workspace_RZA2M_ANPR/ANPR_RZA2M_EBK/src/tensorflow_lite/tensorflow/lite/kernels/internal\common.h ****   int32_t reduced_multiplier = (quantized_multiplier < 0x7FFF0000)
 185:C:/Renesas/e2studio_2021_01_workspace_RZA2M_ANPR/ANPR_RZA2M_EBK/src/tensorflow_lite/tensorflow/lite/kernels/internal\common.h ****                                    ? ((quantized_multiplier + (1 << 15)) >> 16)
 186:C:/Renesas/e2studio_2021_01_workspace_RZA2M_ANPR/ANPR_RZA2M_EBK/src/tensorflow_lite/tensorflow/lite/kernels/internal\common.h ****                                    : 0x7FFF;
 187:C:/Renesas/e2studio_2021_01_workspace_RZA2M_ANPR/ANPR_RZA2M_EBK/src/tensorflow_lite/tensorflow/lite/kernels/internal\common.h ****   int total_shift = 15 - shift;
 188:C:/Renesas/e2studio_2021_01_workspace_RZA2M_ANPR/ANPR_RZA2M_EBK/src/tensorflow_lite/tensorflow/lite/kernels/internal\common.h ****   x = (x * (int64_t)reduced_multiplier) + ((int64_t)1 << (total_shift - 1));
 189:C:/Renesas/e2studio_2021_01_workspace_RZA2M_ANPR/ANPR_RZA2M_EBK/src/tensorflow_lite/tensorflow/lite/kernels/internal\common.h ****   int32_t result = x >> total_shift;
 190:C:/Renesas/e2studio_2021_01_workspace_RZA2M_ANPR/ANPR_RZA2M_EBK/src/tensorflow_lite/tensorflow/lite/kernels/internal\common.h ****   return result;
 191:C:/Renesas/e2studio_2021_01_workspace_RZA2M_ANPR/ANPR_RZA2M_EBK/src/tensorflow_lite/tensorflow/lite/kernels/internal\common.h **** }
 192:C:/Renesas/e2studio_2021_01_workspace_RZA2M_ANPR/ANPR_RZA2M_EBK/src/tensorflow_lite/tensorflow/lite/kernels/internal\common.h **** 
 193:C:/Renesas/e2studio_2021_01_workspace_RZA2M_ANPR/ANPR_RZA2M_EBK/src/tensorflow_lite/tensorflow/lite/kernels/internal\common.h **** #ifdef USE_NEON
 194:C:/Renesas/e2studio_2021_01_workspace_RZA2M_ANPR/ANPR_RZA2M_EBK/src/tensorflow_lite/tensorflow/lite/kernels/internal\common.h **** // Round uses ARM's rounding shift right.
 195:C:/Renesas/e2studio_2021_01_workspace_RZA2M_ANPR/ANPR_RZA2M_EBK/src/tensorflow_lite/tensorflow/lite/kernels/internal\common.h **** inline int32x4x4_t MultiplyByQuantizedMultiplier4Rows(
 196:C:/Renesas/e2studio_2021_01_workspace_RZA2M_ANPR/ANPR_RZA2M_EBK/src/tensorflow_lite/tensorflow/lite/kernels/internal\common.h ****     int32x4x4_t input_val, int32_t quantized_multiplier, int shift) {
 197:C:/Renesas/e2studio_2021_01_workspace_RZA2M_ANPR/ANPR_RZA2M_EBK/src/tensorflow_lite/tensorflow/lite/kernels/internal\common.h ****   const int left_shift = std::max(shift, 0);
 198:C:/Renesas/e2studio_2021_01_workspace_RZA2M_ANPR/ANPR_RZA2M_EBK/src/tensorflow_lite/tensorflow/lite/kernels/internal\common.h ****   const int right_shift = std::min(shift, 0);
 199:C:/Renesas/e2studio_2021_01_workspace_RZA2M_ANPR/ANPR_RZA2M_EBK/src/tensorflow_lite/tensorflow/lite/kernels/internal\common.h ****   int32x4x4_t result;
 200:C:/Renesas/e2studio_2021_01_workspace_RZA2M_ANPR/ANPR_RZA2M_EBK/src/tensorflow_lite/tensorflow/lite/kernels/internal\common.h **** 
 201:C:/Renesas/e2studio_2021_01_workspace_RZA2M_ANPR/ANPR_RZA2M_EBK/src/tensorflow_lite/tensorflow/lite/kernels/internal\common.h ****   int32x4_t multiplier_dup = vdupq_n_s32(quantized_multiplier);
 202:C:/Renesas/e2studio_2021_01_workspace_RZA2M_ANPR/ANPR_RZA2M_EBK/src/tensorflow_lite/tensorflow/lite/kernels/internal\common.h ****   int32x4_t left_shift_dup = vdupq_n_s32(left_shift);
 203:C:/Renesas/e2studio_2021_01_workspace_RZA2M_ANPR/ANPR_RZA2M_EBK/src/tensorflow_lite/tensorflow/lite/kernels/internal\common.h ****   int32x4_t right_shift_dup = vdupq_n_s32(right_shift);
 204:C:/Renesas/e2studio_2021_01_workspace_RZA2M_ANPR/ANPR_RZA2M_EBK/src/tensorflow_lite/tensorflow/lite/kernels/internal\common.h **** 
 205:C:/Renesas/e2studio_2021_01_workspace_RZA2M_ANPR/ANPR_RZA2M_EBK/src/tensorflow_lite/tensorflow/lite/kernels/internal\common.h ****   result.val[0] =
 206:C:/Renesas/e2studio_2021_01_workspace_RZA2M_ANPR/ANPR_RZA2M_EBK/src/tensorflow_lite/tensorflow/lite/kernels/internal\common.h ****       vrshlq_s32(vqrdmulhq_s32(vshlq_s32(input_val.val[0], left_shift_dup),
 207:C:/Renesas/e2studio_2021_01_workspace_RZA2M_ANPR/ANPR_RZA2M_EBK/src/tensorflow_lite/tensorflow/lite/kernels/internal\common.h ****                                multiplier_dup),
 208:C:/Renesas/e2studio_2021_01_workspace_RZA2M_ANPR/ANPR_RZA2M_EBK/src/tensorflow_lite/tensorflow/lite/kernels/internal\common.h ****                  right_shift_dup);
 209:C:/Renesas/e2studio_2021_01_workspace_RZA2M_ANPR/ANPR_RZA2M_EBK/src/tensorflow_lite/tensorflow/lite/kernels/internal\common.h **** 
 210:C:/Renesas/e2studio_2021_01_workspace_RZA2M_ANPR/ANPR_RZA2M_EBK/src/tensorflow_lite/tensorflow/lite/kernels/internal\common.h ****   result.val[1] =
 211:C:/Renesas/e2studio_2021_01_workspace_RZA2M_ANPR/ANPR_RZA2M_EBK/src/tensorflow_lite/tensorflow/lite/kernels/internal\common.h ****       vrshlq_s32(vqrdmulhq_s32(vshlq_s32(input_val.val[1], left_shift_dup),
 212:C:/Renesas/e2studio_2021_01_workspace_RZA2M_ANPR/ANPR_RZA2M_EBK/src/tensorflow_lite/tensorflow/lite/kernels/internal\common.h ****                                multiplier_dup),
 213:C:/Renesas/e2studio_2021_01_workspace_RZA2M_ANPR/ANPR_RZA2M_EBK/src/tensorflow_lite/tensorflow/lite/kernels/internal\common.h ****                  right_shift_dup);
 214:C:/Renesas/e2studio_2021_01_workspace_RZA2M_ANPR/ANPR_RZA2M_EBK/src/tensorflow_lite/tensorflow/lite/kernels/internal\common.h **** 
 215:C:/Renesas/e2studio_2021_01_workspace_RZA2M_ANPR/ANPR_RZA2M_EBK/src/tensorflow_lite/tensorflow/lite/kernels/internal\common.h ****   result.val[2] =
 216:C:/Renesas/e2studio_2021_01_workspace_RZA2M_ANPR/ANPR_RZA2M_EBK/src/tensorflow_lite/tensorflow/lite/kernels/internal\common.h ****       vrshlq_s32(vqrdmulhq_s32(vshlq_s32(input_val.val[2], left_shift_dup),
 217:C:/Renesas/e2studio_2021_01_workspace_RZA2M_ANPR/ANPR_RZA2M_EBK/src/tensorflow_lite/tensorflow/lite/kernels/internal\common.h ****                                multiplier_dup),
 218:C:/Renesas/e2studio_2021_01_workspace_RZA2M_ANPR/ANPR_RZA2M_EBK/src/tensorflow_lite/tensorflow/lite/kernels/internal\common.h ****                  right_shift_dup);
 219:C:/Renesas/e2studio_2021_01_workspace_RZA2M_ANPR/ANPR_RZA2M_EBK/src/tensorflow_lite/tensorflow/lite/kernels/internal\common.h **** 
 220:C:/Renesas/e2studio_2021_01_workspace_RZA2M_ANPR/ANPR_RZA2M_EBK/src/tensorflow_lite/tensorflow/lite/kernels/internal\common.h ****   result.val[3] =
 221:C:/Renesas/e2studio_2021_01_workspace_RZA2M_ANPR/ANPR_RZA2M_EBK/src/tensorflow_lite/tensorflow/lite/kernels/internal\common.h ****       vrshlq_s32(vqrdmulhq_s32(vshlq_s32(input_val.val[3], left_shift_dup),
 222:C:/Renesas/e2studio_2021_01_workspace_RZA2M_ANPR/ANPR_RZA2M_EBK/src/tensorflow_lite/tensorflow/lite/kernels/internal\common.h ****                                multiplier_dup),
 223:C:/Renesas/e2studio_2021_01_workspace_RZA2M_ANPR/ANPR_RZA2M_EBK/src/tensorflow_lite/tensorflow/lite/kernels/internal\common.h ****                  right_shift_dup);
 224:C:/Renesas/e2studio_2021_01_workspace_RZA2M_ANPR/ANPR_RZA2M_EBK/src/tensorflow_lite/tensorflow/lite/kernels/internal\common.h **** 
 225:C:/Renesas/e2studio_2021_01_workspace_RZA2M_ANPR/ANPR_RZA2M_EBK/src/tensorflow_lite/tensorflow/lite/kernels/internal\common.h ****   return result;
 226:C:/Renesas/e2studio_2021_01_workspace_RZA2M_ANPR/ANPR_RZA2M_EBK/src/tensorflow_lite/tensorflow/lite/kernels/internal\common.h **** }
 227:C:/Renesas/e2studio_2021_01_workspace_RZA2M_ANPR/ANPR_RZA2M_EBK/src/tensorflow_lite/tensorflow/lite/kernels/internal\common.h **** #endif
 228:C:/Renesas/e2studio_2021_01_workspace_RZA2M_ANPR/ANPR_RZA2M_EBK/src/tensorflow_lite/tensorflow/lite/kernels/internal\common.h **** 
 229:C:/Renesas/e2studio_2021_01_workspace_RZA2M_ANPR/ANPR_RZA2M_EBK/src/tensorflow_lite/tensorflow/lite/kernels/internal\common.h **** template <typename T>
 230:C:/Renesas/e2studio_2021_01_workspace_RZA2M_ANPR/ANPR_RZA2M_EBK/src/tensorflow_lite/tensorflow/lite/kernels/internal\common.h **** int CountLeadingZeros(T integer_input) {
 231:C:/Renesas/e2studio_2021_01_workspace_RZA2M_ANPR/ANPR_RZA2M_EBK/src/tensorflow_lite/tensorflow/lite/kernels/internal\common.h ****   static_assert(std::is_unsigned<T>::value,
 232:C:/Renesas/e2studio_2021_01_workspace_RZA2M_ANPR/ANPR_RZA2M_EBK/src/tensorflow_lite/tensorflow/lite/kernels/internal\common.h ****                 "Only unsigned integer types handled.");
 233:C:/Renesas/e2studio_2021_01_workspace_RZA2M_ANPR/ANPR_RZA2M_EBK/src/tensorflow_lite/tensorflow/lite/kernels/internal\common.h **** #if defined(__GNUC__)
 234:C:/Renesas/e2studio_2021_01_workspace_RZA2M_ANPR/ANPR_RZA2M_EBK/src/tensorflow_lite/tensorflow/lite/kernels/internal\common.h ****   return integer_input ? __builtin_clz(integer_input)
 235:C:/Renesas/e2studio_2021_01_workspace_RZA2M_ANPR/ANPR_RZA2M_EBK/src/tensorflow_lite/tensorflow/lite/kernels/internal\common.h ****                        : std::numeric_limits<T>::digits;
 236:C:/Renesas/e2studio_2021_01_workspace_RZA2M_ANPR/ANPR_RZA2M_EBK/src/tensorflow_lite/tensorflow/lite/kernels/internal\common.h **** #else
 237:C:/Renesas/e2studio_2021_01_workspace_RZA2M_ANPR/ANPR_RZA2M_EBK/src/tensorflow_lite/tensorflow/lite/kernels/internal\common.h ****   if (integer_input == 0) {
 238:C:/Renesas/e2studio_2021_01_workspace_RZA2M_ANPR/ANPR_RZA2M_EBK/src/tensorflow_lite/tensorflow/lite/kernels/internal\common.h ****     return std::numeric_limits<T>::digits;
 239:C:/Renesas/e2studio_2021_01_workspace_RZA2M_ANPR/ANPR_RZA2M_EBK/src/tensorflow_lite/tensorflow/lite/kernels/internal\common.h ****   }
 240:C:/Renesas/e2studio_2021_01_workspace_RZA2M_ANPR/ANPR_RZA2M_EBK/src/tensorflow_lite/tensorflow/lite/kernels/internal\common.h **** 
 241:C:/Renesas/e2studio_2021_01_workspace_RZA2M_ANPR/ANPR_RZA2M_EBK/src/tensorflow_lite/tensorflow/lite/kernels/internal\common.h ****   const T one_in_leading_positive = static_cast<T>(1)
 242:C:/Renesas/e2studio_2021_01_workspace_RZA2M_ANPR/ANPR_RZA2M_EBK/src/tensorflow_lite/tensorflow/lite/kernels/internal\common.h ****                                     << (std::numeric_limits<T>::digits - 1);
 243:C:/Renesas/e2studio_2021_01_workspace_RZA2M_ANPR/ANPR_RZA2M_EBK/src/tensorflow_lite/tensorflow/lite/kernels/internal\common.h ****   int leading_zeros = 0;
 244:C:/Renesas/e2studio_2021_01_workspace_RZA2M_ANPR/ANPR_RZA2M_EBK/src/tensorflow_lite/tensorflow/lite/kernels/internal\common.h ****   while (integer_input < one_in_leading_positive) {
 245:C:/Renesas/e2studio_2021_01_workspace_RZA2M_ANPR/ANPR_RZA2M_EBK/src/tensorflow_lite/tensorflow/lite/kernels/internal\common.h ****     integer_input <<= 1;
 246:C:/Renesas/e2studio_2021_01_workspace_RZA2M_ANPR/ANPR_RZA2M_EBK/src/tensorflow_lite/tensorflow/lite/kernels/internal\common.h ****     ++leading_zeros;
 247:C:/Renesas/e2studio_2021_01_workspace_RZA2M_ANPR/ANPR_RZA2M_EBK/src/tensorflow_lite/tensorflow/lite/kernels/internal\common.h ****   }
 248:C:/Renesas/e2studio_2021_01_workspace_RZA2M_ANPR/ANPR_RZA2M_EBK/src/tensorflow_lite/tensorflow/lite/kernels/internal\common.h ****   return leading_zeros;
 249:C:/Renesas/e2studio_2021_01_workspace_RZA2M_ANPR/ANPR_RZA2M_EBK/src/tensorflow_lite/tensorflow/lite/kernels/internal\common.h **** #endif
 250:C:/Renesas/e2studio_2021_01_workspace_RZA2M_ANPR/ANPR_RZA2M_EBK/src/tensorflow_lite/tensorflow/lite/kernels/internal\common.h **** }
 251:C:/Renesas/e2studio_2021_01_workspace_RZA2M_ANPR/ANPR_RZA2M_EBK/src/tensorflow_lite/tensorflow/lite/kernels/internal\common.h **** 
 252:C:/Renesas/e2studio_2021_01_workspace_RZA2M_ANPR/ANPR_RZA2M_EBK/src/tensorflow_lite/tensorflow/lite/kernels/internal\common.h **** template <typename T>
 253:C:/Renesas/e2studio_2021_01_workspace_RZA2M_ANPR/ANPR_RZA2M_EBK/src/tensorflow_lite/tensorflow/lite/kernels/internal\common.h **** inline int CountLeadingSignBits(T integer_input) {
 254:C:/Renesas/e2studio_2021_01_workspace_RZA2M_ANPR/ANPR_RZA2M_EBK/src/tensorflow_lite/tensorflow/lite/kernels/internal\common.h ****   static_assert(std::is_signed<T>::value, "Only signed integer types handled.");
 255:C:/Renesas/e2studio_2021_01_workspace_RZA2M_ANPR/ANPR_RZA2M_EBK/src/tensorflow_lite/tensorflow/lite/kernels/internal\common.h **** #if defined(__GNUC__) && !defined(__clang__)
 256:C:/Renesas/e2studio_2021_01_workspace_RZA2M_ANPR/ANPR_RZA2M_EBK/src/tensorflow_lite/tensorflow/lite/kernels/internal\common.h ****   return integer_input ? __builtin_clrsb(integer_input)
 257:C:/Renesas/e2studio_2021_01_workspace_RZA2M_ANPR/ANPR_RZA2M_EBK/src/tensorflow_lite/tensorflow/lite/kernels/internal\common.h ****                        : std::numeric_limits<T>::digits;
 258:C:/Renesas/e2studio_2021_01_workspace_RZA2M_ANPR/ANPR_RZA2M_EBK/src/tensorflow_lite/tensorflow/lite/kernels/internal\common.h **** #else
 259:C:/Renesas/e2studio_2021_01_workspace_RZA2M_ANPR/ANPR_RZA2M_EBK/src/tensorflow_lite/tensorflow/lite/kernels/internal\common.h ****   using U = typename std::make_unsigned<T>::type;
 260:C:/Renesas/e2studio_2021_01_workspace_RZA2M_ANPR/ANPR_RZA2M_EBK/src/tensorflow_lite/tensorflow/lite/kernels/internal\common.h ****   return integer_input >= 0
 261:C:/Renesas/e2studio_2021_01_workspace_RZA2M_ANPR/ANPR_RZA2M_EBK/src/tensorflow_lite/tensorflow/lite/kernels/internal\common.h ****              ? CountLeadingZeros(static_cast<U>(integer_input)) - 1
 262:C:/Renesas/e2studio_2021_01_workspace_RZA2M_ANPR/ANPR_RZA2M_EBK/src/tensorflow_lite/tensorflow/lite/kernels/internal\common.h ****          : integer_input != std::numeric_limits<T>::min()
 263:C:/Renesas/e2studio_2021_01_workspace_RZA2M_ANPR/ANPR_RZA2M_EBK/src/tensorflow_lite/tensorflow/lite/kernels/internal\common.h ****              ? CountLeadingZeros(2 * static_cast<U>(-integer_input) - 1)
 264:C:/Renesas/e2studio_2021_01_workspace_RZA2M_ANPR/ANPR_RZA2M_EBK/src/tensorflow_lite/tensorflow/lite/kernels/internal\common.h ****              : 0;
 265:C:/Renesas/e2studio_2021_01_workspace_RZA2M_ANPR/ANPR_RZA2M_EBK/src/tensorflow_lite/tensorflow/lite/kernels/internal\common.h **** #endif
 266:C:/Renesas/e2studio_2021_01_workspace_RZA2M_ANPR/ANPR_RZA2M_EBK/src/tensorflow_lite/tensorflow/lite/kernels/internal\common.h **** }
 267:C:/Renesas/e2studio_2021_01_workspace_RZA2M_ANPR/ANPR_RZA2M_EBK/src/tensorflow_lite/tensorflow/lite/kernels/internal\common.h **** 
 268:C:/Renesas/e2studio_2021_01_workspace_RZA2M_ANPR/ANPR_RZA2M_EBK/src/tensorflow_lite/tensorflow/lite/kernels/internal\common.h **** // Use "count leading zeros" helper functions to do a fast Floor(log_2(x)).
 269:C:/Renesas/e2studio_2021_01_workspace_RZA2M_ANPR/ANPR_RZA2M_EBK/src/tensorflow_lite/tensorflow/lite/kernels/internal\common.h **** template <typename Integer>
 270:C:/Renesas/e2studio_2021_01_workspace_RZA2M_ANPR/ANPR_RZA2M_EBK/src/tensorflow_lite/tensorflow/lite/kernels/internal\common.h **** inline Integer FloorLog2(Integer n) {
 271:C:/Renesas/e2studio_2021_01_workspace_RZA2M_ANPR/ANPR_RZA2M_EBK/src/tensorflow_lite/tensorflow/lite/kernels/internal\common.h ****   static_assert(std::is_integral<Integer>::value, "");
 272:C:/Renesas/e2studio_2021_01_workspace_RZA2M_ANPR/ANPR_RZA2M_EBK/src/tensorflow_lite/tensorflow/lite/kernels/internal\common.h ****   static_assert(std::is_signed<Integer>::value, "");
 273:C:/Renesas/e2studio_2021_01_workspace_RZA2M_ANPR/ANPR_RZA2M_EBK/src/tensorflow_lite/tensorflow/lite/kernels/internal\common.h ****   static_assert(sizeof(Integer) == 4 || sizeof(Integer) == 8, "");
 274:C:/Renesas/e2studio_2021_01_workspace_RZA2M_ANPR/ANPR_RZA2M_EBK/src/tensorflow_lite/tensorflow/lite/kernels/internal\common.h ****   TFLITE_CHECK_GT(n, 0);
 275:C:/Renesas/e2studio_2021_01_workspace_RZA2M_ANPR/ANPR_RZA2M_EBK/src/tensorflow_lite/tensorflow/lite/kernels/internal\common.h ****   if (sizeof(Integer) == 4) {
 276:C:/Renesas/e2studio_2021_01_workspace_RZA2M_ANPR/ANPR_RZA2M_EBK/src/tensorflow_lite/tensorflow/lite/kernels/internal\common.h ****     return 30 - CountLeadingSignBits(n);
 277:C:/Renesas/e2studio_2021_01_workspace_RZA2M_ANPR/ANPR_RZA2M_EBK/src/tensorflow_lite/tensorflow/lite/kernels/internal\common.h ****   } else {
 278:C:/Renesas/e2studio_2021_01_workspace_RZA2M_ANPR/ANPR_RZA2M_EBK/src/tensorflow_lite/tensorflow/lite/kernels/internal\common.h ****     return 62 - CountLeadingSignBits(n);
 279:C:/Renesas/e2studio_2021_01_workspace_RZA2M_ANPR/ANPR_RZA2M_EBK/src/tensorflow_lite/tensorflow/lite/kernels/internal\common.h ****   }
 280:C:/Renesas/e2studio_2021_01_workspace_RZA2M_ANPR/ANPR_RZA2M_EBK/src/tensorflow_lite/tensorflow/lite/kernels/internal\common.h **** }
 281:C:/Renesas/e2studio_2021_01_workspace_RZA2M_ANPR/ANPR_RZA2M_EBK/src/tensorflow_lite/tensorflow/lite/kernels/internal\common.h **** 
 282:C:/Renesas/e2studio_2021_01_workspace_RZA2M_ANPR/ANPR_RZA2M_EBK/src/tensorflow_lite/tensorflow/lite/kernels/internal\common.h **** // generate INT16 LUT for function(), e.g., table exp(x) and 1/(1+x) used in
 283:C:/Renesas/e2studio_2021_01_workspace_RZA2M_ANPR/ANPR_RZA2M_EBK/src/tensorflow_lite/tensorflow/lite/kernels/internal\common.h **** // softmax
 284:C:/Renesas/e2studio_2021_01_workspace_RZA2M_ANPR/ANPR_RZA2M_EBK/src/tensorflow_lite/tensorflow/lite/kernels/internal\common.h **** // func - the function to build the LUT for (e.g exp(x))
 285:C:/Renesas/e2studio_2021_01_workspace_RZA2M_ANPR/ANPR_RZA2M_EBK/src/tensorflow_lite/tensorflow/lite/kernels/internal\common.h **** // min,max - table limits
 286:C:/Renesas/e2studio_2021_01_workspace_RZA2M_ANPR/ANPR_RZA2M_EBK/src/tensorflow_lite/tensorflow/lite/kernels/internal\common.h **** // table - pointer to buffer
 287:C:/Renesas/e2studio_2021_01_workspace_RZA2M_ANPR/ANPR_RZA2M_EBK/src/tensorflow_lite/tensorflow/lite/kernels/internal\common.h **** // num - number of elements in the LUT
 288:C:/Renesas/e2studio_2021_01_workspace_RZA2M_ANPR/ANPR_RZA2M_EBK/src/tensorflow_lite/tensorflow/lite/kernels/internal\common.h **** inline void gen_lut(double (*func)(double), double min, double max,
 289:C:/Renesas/e2studio_2021_01_workspace_RZA2M_ANPR/ANPR_RZA2M_EBK/src/tensorflow_lite/tensorflow/lite/kernels/internal\common.h ****                     int16_t* table, const int num) {
 290:C:/Renesas/e2studio_2021_01_workspace_RZA2M_ANPR/ANPR_RZA2M_EBK/src/tensorflow_lite/tensorflow/lite/kernels/internal\common.h ****   // size of table should equal to num + 1
 291:C:/Renesas/e2studio_2021_01_workspace_RZA2M_ANPR/ANPR_RZA2M_EBK/src/tensorflow_lite/tensorflow/lite/kernels/internal\common.h ****   // last element only for slope calculation
 292:C:/Renesas/e2studio_2021_01_workspace_RZA2M_ANPR/ANPR_RZA2M_EBK/src/tensorflow_lite/tensorflow/lite/kernels/internal\common.h ****   double step = (max - min) / (num - 1);
 293:C:/Renesas/e2studio_2021_01_workspace_RZA2M_ANPR/ANPR_RZA2M_EBK/src/tensorflow_lite/tensorflow/lite/kernels/internal\common.h ****   double half_step = step / 2.0;
 294:C:/Renesas/e2studio_2021_01_workspace_RZA2M_ANPR/ANPR_RZA2M_EBK/src/tensorflow_lite/tensorflow/lite/kernels/internal\common.h ****   for (int i = 0; i < num - 1; i++) {
 295:C:/Renesas/e2studio_2021_01_workspace_RZA2M_ANPR/ANPR_RZA2M_EBK/src/tensorflow_lite/tensorflow/lite/kernels/internal\common.h ****     double sample_val = TfLiteRound(func(min + i * step) * 32768.0);
 296:C:/Renesas/e2studio_2021_01_workspace_RZA2M_ANPR/ANPR_RZA2M_EBK/src/tensorflow_lite/tensorflow/lite/kernels/internal\common.h ****     double midpoint_interp_val =
 297:C:/Renesas/e2studio_2021_01_workspace_RZA2M_ANPR/ANPR_RZA2M_EBK/src/tensorflow_lite/tensorflow/lite/kernels/internal\common.h ****         TfLiteRound((func(min + (i + 1) * step) * 32768.0 +
 298:C:/Renesas/e2studio_2021_01_workspace_RZA2M_ANPR/ANPR_RZA2M_EBK/src/tensorflow_lite/tensorflow/lite/kernels/internal\common.h ****                      TfLiteRound(func(min + i * step) * 32768.0)) /
 299:C:/Renesas/e2studio_2021_01_workspace_RZA2M_ANPR/ANPR_RZA2M_EBK/src/tensorflow_lite/tensorflow/lite/kernels/internal\common.h ****                     2.0);
 300:C:/Renesas/e2studio_2021_01_workspace_RZA2M_ANPR/ANPR_RZA2M_EBK/src/tensorflow_lite/tensorflow/lite/kernels/internal\common.h ****     double midpoint_val =
 301:C:/Renesas/e2studio_2021_01_workspace_RZA2M_ANPR/ANPR_RZA2M_EBK/src/tensorflow_lite/tensorflow/lite/kernels/internal\common.h ****         TfLiteRound(func(min + i * step + half_step) * 32768.0);
 302:C:/Renesas/e2studio_2021_01_workspace_RZA2M_ANPR/ANPR_RZA2M_EBK/src/tensorflow_lite/tensorflow/lite/kernels/internal\common.h ****     double midpoint_err = midpoint_interp_val - midpoint_val;
 303:C:/Renesas/e2studio_2021_01_workspace_RZA2M_ANPR/ANPR_RZA2M_EBK/src/tensorflow_lite/tensorflow/lite/kernels/internal\common.h ****     double bias = TfLiteRound(midpoint_err / 2.0);
 304:C:/Renesas/e2studio_2021_01_workspace_RZA2M_ANPR/ANPR_RZA2M_EBK/src/tensorflow_lite/tensorflow/lite/kernels/internal\common.h ****     table[i] = std::min<double>(std::max<double>(sample_val - bias, -32768.0),
 305:C:/Renesas/e2studio_2021_01_workspace_RZA2M_ANPR/ANPR_RZA2M_EBK/src/tensorflow_lite/tensorflow/lite/kernels/internal\common.h ****                                 32767.0);
 306:C:/Renesas/e2studio_2021_01_workspace_RZA2M_ANPR/ANPR_RZA2M_EBK/src/tensorflow_lite/tensorflow/lite/kernels/internal\common.h ****   }
 307:C:/Renesas/e2studio_2021_01_workspace_RZA2M_ANPR/ANPR_RZA2M_EBK/src/tensorflow_lite/tensorflow/lite/kernels/internal\common.h ****   table[num - 1] = std::min<double>(
 308:C:/Renesas/e2studio_2021_01_workspace_RZA2M_ANPR/ANPR_RZA2M_EBK/src/tensorflow_lite/tensorflow/lite/kernels/internal\common.h ****       std::max<double>(TfLiteRound(func(max) * 32768.0), -32768.0), 32767.0);
 309:C:/Renesas/e2studio_2021_01_workspace_RZA2M_ANPR/ANPR_RZA2M_EBK/src/tensorflow_lite/tensorflow/lite/kernels/internal\common.h **** }
 310:C:/Renesas/e2studio_2021_01_workspace_RZA2M_ANPR/ANPR_RZA2M_EBK/src/tensorflow_lite/tensorflow/lite/kernels/internal\common.h **** 
 311:C:/Renesas/e2studio_2021_01_workspace_RZA2M_ANPR/ANPR_RZA2M_EBK/src/tensorflow_lite/tensorflow/lite/kernels/internal\common.h **** // generate INT16 LUT for function(), e.g., table exp(x) and 1/(1+x) used in
 312:C:/Renesas/e2studio_2021_01_workspace_RZA2M_ANPR/ANPR_RZA2M_EBK/src/tensorflow_lite/tensorflow/lite/kernels/internal\common.h **** // softmax
 313:C:/Renesas/e2studio_2021_01_workspace_RZA2M_ANPR/ANPR_RZA2M_EBK/src/tensorflow_lite/tensorflow/lite/kernels/internal\common.h **** // func - the function to build the LUT for (e.g exp(x))
 314:C:/Renesas/e2studio_2021_01_workspace_RZA2M_ANPR/ANPR_RZA2M_EBK/src/tensorflow_lite/tensorflow/lite/kernels/internal\common.h **** // min,max - table limits
 315:C:/Renesas/e2studio_2021_01_workspace_RZA2M_ANPR/ANPR_RZA2M_EBK/src/tensorflow_lite/tensorflow/lite/kernels/internal\common.h **** // table - pointer to buffer
 316:C:/Renesas/e2studio_2021_01_workspace_RZA2M_ANPR/ANPR_RZA2M_EBK/src/tensorflow_lite/tensorflow/lite/kernels/internal\common.h **** // num - number of elements in the LUT
 317:C:/Renesas/e2studio_2021_01_workspace_RZA2M_ANPR/ANPR_RZA2M_EBK/src/tensorflow_lite/tensorflow/lite/kernels/internal\common.h **** inline void gen_lut(float (*func)(float), float min, float max, int16_t* table,
 318:C:/Renesas/e2studio_2021_01_workspace_RZA2M_ANPR/ANPR_RZA2M_EBK/src/tensorflow_lite/tensorflow/lite/kernels/internal\common.h ****                     const int num) {
 319:C:/Renesas/e2studio_2021_01_workspace_RZA2M_ANPR/ANPR_RZA2M_EBK/src/tensorflow_lite/tensorflow/lite/kernels/internal\common.h ****   // size of table should equal to num + 1
 320:C:/Renesas/e2studio_2021_01_workspace_RZA2M_ANPR/ANPR_RZA2M_EBK/src/tensorflow_lite/tensorflow/lite/kernels/internal\common.h ****   // last element only for slope calculation
 321:C:/Renesas/e2studio_2021_01_workspace_RZA2M_ANPR/ANPR_RZA2M_EBK/src/tensorflow_lite/tensorflow/lite/kernels/internal\common.h ****   float step = (max - min) / (num - 1);
 322:C:/Renesas/e2studio_2021_01_workspace_RZA2M_ANPR/ANPR_RZA2M_EBK/src/tensorflow_lite/tensorflow/lite/kernels/internal\common.h ****   float half_step = step / 2.0f;
 323:C:/Renesas/e2studio_2021_01_workspace_RZA2M_ANPR/ANPR_RZA2M_EBK/src/tensorflow_lite/tensorflow/lite/kernels/internal\common.h ****   for (int i = 0; i < num - 1; i++) {
 324:C:/Renesas/e2studio_2021_01_workspace_RZA2M_ANPR/ANPR_RZA2M_EBK/src/tensorflow_lite/tensorflow/lite/kernels/internal\common.h ****     float sample_val = TfLiteRound(func(min + i * step) * 32768.0f);
 325:C:/Renesas/e2studio_2021_01_workspace_RZA2M_ANPR/ANPR_RZA2M_EBK/src/tensorflow_lite/tensorflow/lite/kernels/internal\common.h ****     float midpoint_interp_val =
 326:C:/Renesas/e2studio_2021_01_workspace_RZA2M_ANPR/ANPR_RZA2M_EBK/src/tensorflow_lite/tensorflow/lite/kernels/internal\common.h ****         TfLiteRound((func(min + (i + 1) * step) * 32768.0f +
 327:C:/Renesas/e2studio_2021_01_workspace_RZA2M_ANPR/ANPR_RZA2M_EBK/src/tensorflow_lite/tensorflow/lite/kernels/internal\common.h ****                      TfLiteRound(func(min + i * step) * 32768.0f)) /
 328:C:/Renesas/e2studio_2021_01_workspace_RZA2M_ANPR/ANPR_RZA2M_EBK/src/tensorflow_lite/tensorflow/lite/kernels/internal\common.h ****                     2.0f);
 329:C:/Renesas/e2studio_2021_01_workspace_RZA2M_ANPR/ANPR_RZA2M_EBK/src/tensorflow_lite/tensorflow/lite/kernels/internal\common.h ****     float midpoint_val =
 330:C:/Renesas/e2studio_2021_01_workspace_RZA2M_ANPR/ANPR_RZA2M_EBK/src/tensorflow_lite/tensorflow/lite/kernels/internal\common.h ****         TfLiteRound(func(min + i * step + half_step) * 32768.0f);
 331:C:/Renesas/e2studio_2021_01_workspace_RZA2M_ANPR/ANPR_RZA2M_EBK/src/tensorflow_lite/tensorflow/lite/kernels/internal\common.h ****     float midpoint_err = midpoint_interp_val - midpoint_val;
 332:C:/Renesas/e2studio_2021_01_workspace_RZA2M_ANPR/ANPR_RZA2M_EBK/src/tensorflow_lite/tensorflow/lite/kernels/internal\common.h ****     float bias = TfLiteRound(midpoint_err / 2.0f);
 333:C:/Renesas/e2studio_2021_01_workspace_RZA2M_ANPR/ANPR_RZA2M_EBK/src/tensorflow_lite/tensorflow/lite/kernels/internal\common.h ****     table[i] = std::min<float>(std::max<float>(sample_val - bias, -32768.0f),
 334:C:/Renesas/e2studio_2021_01_workspace_RZA2M_ANPR/ANPR_RZA2M_EBK/src/tensorflow_lite/tensorflow/lite/kernels/internal\common.h ****                                32767.0f);
 335:C:/Renesas/e2studio_2021_01_workspace_RZA2M_ANPR/ANPR_RZA2M_EBK/src/tensorflow_lite/tensorflow/lite/kernels/internal\common.h ****   }
 336:C:/Renesas/e2studio_2021_01_workspace_RZA2M_ANPR/ANPR_RZA2M_EBK/src/tensorflow_lite/tensorflow/lite/kernels/internal\common.h ****   table[num - 1] = std::min<float>(
 337:C:/Renesas/e2studio_2021_01_workspace_RZA2M_ANPR/ANPR_RZA2M_EBK/src/tensorflow_lite/tensorflow/lite/kernels/internal\common.h ****       std::max<float>(TfLiteRound(func(max) * 32768.0f), -32768.0f), 32767.0f);
 338:C:/Renesas/e2studio_2021_01_workspace_RZA2M_ANPR/ANPR_RZA2M_EBK/src/tensorflow_lite/tensorflow/lite/kernels/internal\common.h **** }
 339:C:/Renesas/e2studio_2021_01_workspace_RZA2M_ANPR/ANPR_RZA2M_EBK/src/tensorflow_lite/tensorflow/lite/kernels/internal\common.h **** 
 340:C:/Renesas/e2studio_2021_01_workspace_RZA2M_ANPR/ANPR_RZA2M_EBK/src/tensorflow_lite/tensorflow/lite/kernels/internal\common.h **** // int16_t func table lookup, e.g., lookup exp() and 1/(1+x) used in softmax
 341:C:/Renesas/e2studio_2021_01_workspace_RZA2M_ANPR/ANPR_RZA2M_EBK/src/tensorflow_lite/tensorflow/lite/kernels/internal\common.h **** inline int16_t generic_int16_table_lookup(int16_t value, const int16_t* lut) {
 342:C:/Renesas/e2studio_2021_01_workspace_RZA2M_ANPR/ANPR_RZA2M_EBK/src/tensorflow_lite/tensorflow/lite/kernels/internal\common.h ****   // 512 base value, lut[513] only for calculate slope
 343:C:/Renesas/e2studio_2021_01_workspace_RZA2M_ANPR/ANPR_RZA2M_EBK/src/tensorflow_lite/tensorflow/lite/kernels/internal\common.h ****   uint16_t index = static_cast<uint16_t>(256 + (value >> 7));
 344:C:/Renesas/e2studio_2021_01_workspace_RZA2M_ANPR/ANPR_RZA2M_EBK/src/tensorflow_lite/tensorflow/lite/kernels/internal\common.h ****   assert(index < 512 && "LUT index out of range.");
 345:C:/Renesas/e2studio_2021_01_workspace_RZA2M_ANPR/ANPR_RZA2M_EBK/src/tensorflow_lite/tensorflow/lite/kernels/internal\common.h ****   int16_t offset = value & 0x7f;
 346:C:/Renesas/e2studio_2021_01_workspace_RZA2M_ANPR/ANPR_RZA2M_EBK/src/tensorflow_lite/tensorflow/lite/kernels/internal\common.h **** 
 347:C:/Renesas/e2studio_2021_01_workspace_RZA2M_ANPR/ANPR_RZA2M_EBK/src/tensorflow_lite/tensorflow/lite/kernels/internal\common.h ****   // base and slope are Q0.15
 348:C:/Renesas/e2studio_2021_01_workspace_RZA2M_ANPR/ANPR_RZA2M_EBK/src/tensorflow_lite/tensorflow/lite/kernels/internal\common.h ****   int16_t base = lut[index];
 349:C:/Renesas/e2studio_2021_01_workspace_RZA2M_ANPR/ANPR_RZA2M_EBK/src/tensorflow_lite/tensorflow/lite/kernels/internal\common.h ****   int16_t slope = lut[index + 1] - lut[index];
 350:C:/Renesas/e2studio_2021_01_workspace_RZA2M_ANPR/ANPR_RZA2M_EBK/src/tensorflow_lite/tensorflow/lite/kernels/internal\common.h **** 
 351:C:/Renesas/e2studio_2021_01_workspace_RZA2M_ANPR/ANPR_RZA2M_EBK/src/tensorflow_lite/tensorflow/lite/kernels/internal\common.h ****   // Q0.15 * Q0.7 = Q0.22
 352:C:/Renesas/e2studio_2021_01_workspace_RZA2M_ANPR/ANPR_RZA2M_EBK/src/tensorflow_lite/tensorflow/lite/kernels/internal\common.h ****   // Round and convert from Q0.22 to Q0.15
 353:C:/Renesas/e2studio_2021_01_workspace_RZA2M_ANPR/ANPR_RZA2M_EBK/src/tensorflow_lite/tensorflow/lite/kernels/internal\common.h ****   int32_t delta = (static_cast<int32_t>(slope) * offset + 64) >> 7;
 354:C:/Renesas/e2studio_2021_01_workspace_RZA2M_ANPR/ANPR_RZA2M_EBK/src/tensorflow_lite/tensorflow/lite/kernels/internal\common.h **** 
 355:C:/Renesas/e2studio_2021_01_workspace_RZA2M_ANPR/ANPR_RZA2M_EBK/src/tensorflow_lite/tensorflow/lite/kernels/internal\common.h ****   // Q0.15 + Q0.15
 356:C:/Renesas/e2studio_2021_01_workspace_RZA2M_ANPR/ANPR_RZA2M_EBK/src/tensorflow_lite/tensorflow/lite/kernels/internal\common.h ****   return base + delta;
 357:C:/Renesas/e2studio_2021_01_workspace_RZA2M_ANPR/ANPR_RZA2M_EBK/src/tensorflow_lite/tensorflow/lite/kernels/internal\common.h **** }
 358:C:/Renesas/e2studio_2021_01_workspace_RZA2M_ANPR/ANPR_RZA2M_EBK/src/tensorflow_lite/tensorflow/lite/kernels/internal\common.h **** 
 359:C:/Renesas/e2studio_2021_01_workspace_RZA2M_ANPR/ANPR_RZA2M_EBK/src/tensorflow_lite/tensorflow/lite/kernels/internal\common.h **** // Table of sigmoid(i/24) at 0.16 format - 256 elements.
 360:C:/Renesas/e2studio_2021_01_workspace_RZA2M_ANPR/ANPR_RZA2M_EBK/src/tensorflow_lite/tensorflow/lite/kernels/internal\common.h **** 
 361:C:/Renesas/e2studio_2021_01_workspace_RZA2M_ANPR/ANPR_RZA2M_EBK/src/tensorflow_lite/tensorflow/lite/kernels/internal\common.h **** // We use combined sigmoid and tanh look-up table, since
 362:C:/Renesas/e2studio_2021_01_workspace_RZA2M_ANPR/ANPR_RZA2M_EBK/src/tensorflow_lite/tensorflow/lite/kernels/internal\common.h **** // tanh(x) = 2*sigmoid(2*x) -1.
 363:C:/Renesas/e2studio_2021_01_workspace_RZA2M_ANPR/ANPR_RZA2M_EBK/src/tensorflow_lite/tensorflow/lite/kernels/internal\common.h **** // Both functions are symmetric, so the LUT table is only needed
 364:C:/Renesas/e2studio_2021_01_workspace_RZA2M_ANPR/ANPR_RZA2M_EBK/src/tensorflow_lite/tensorflow/lite/kernels/internal\common.h **** // for the absolute value of the input.
 365:C:/Renesas/e2studio_2021_01_workspace_RZA2M_ANPR/ANPR_RZA2M_EBK/src/tensorflow_lite/tensorflow/lite/kernels/internal\common.h **** static const uint16_t sigmoid_table_uint16[256] = {
 366:C:/Renesas/e2studio_2021_01_workspace_RZA2M_ANPR/ANPR_RZA2M_EBK/src/tensorflow_lite/tensorflow/lite/kernels/internal\common.h ****     32768, 33451, 34133, 34813, 35493, 36169, 36843, 37513, 38180, 38841, 39498,
 367:C:/Renesas/e2studio_2021_01_workspace_RZA2M_ANPR/ANPR_RZA2M_EBK/src/tensorflow_lite/tensorflow/lite/kernels/internal\common.h ****     40149, 40794, 41432, 42064, 42688, 43304, 43912, 44511, 45102, 45683, 46255,
 368:C:/Renesas/e2studio_2021_01_workspace_RZA2M_ANPR/ANPR_RZA2M_EBK/src/tensorflow_lite/tensorflow/lite/kernels/internal\common.h ****     46817, 47369, 47911, 48443, 48964, 49475, 49975, 50464, 50942, 51409, 51865,
 369:C:/Renesas/e2studio_2021_01_workspace_RZA2M_ANPR/ANPR_RZA2M_EBK/src/tensorflow_lite/tensorflow/lite/kernels/internal\common.h ****     52311, 52745, 53169, 53581, 53983, 54374, 54755, 55125, 55485, 55834, 56174,
 370:C:/Renesas/e2studio_2021_01_workspace_RZA2M_ANPR/ANPR_RZA2M_EBK/src/tensorflow_lite/tensorflow/lite/kernels/internal\common.h ****     56503, 56823, 57133, 57433, 57724, 58007, 58280, 58544, 58800, 59048, 59288,
 371:C:/Renesas/e2studio_2021_01_workspace_RZA2M_ANPR/ANPR_RZA2M_EBK/src/tensorflow_lite/tensorflow/lite/kernels/internal\common.h ****     59519, 59743, 59959, 60168, 60370, 60565, 60753, 60935, 61110, 61279, 61441,
 372:C:/Renesas/e2studio_2021_01_workspace_RZA2M_ANPR/ANPR_RZA2M_EBK/src/tensorflow_lite/tensorflow/lite/kernels/internal\common.h ****     61599, 61750, 61896, 62036, 62172, 62302, 62428, 62549, 62666, 62778, 62886,
 373:C:/Renesas/e2studio_2021_01_workspace_RZA2M_ANPR/ANPR_RZA2M_EBK/src/tensorflow_lite/tensorflow/lite/kernels/internal\common.h ****     62990, 63090, 63186, 63279, 63368, 63454, 63536, 63615, 63691, 63765, 63835,
 374:C:/Renesas/e2studio_2021_01_workspace_RZA2M_ANPR/ANPR_RZA2M_EBK/src/tensorflow_lite/tensorflow/lite/kernels/internal\common.h ****     63903, 63968, 64030, 64090, 64148, 64204, 64257, 64308, 64357, 64405, 64450,
 375:C:/Renesas/e2studio_2021_01_workspace_RZA2M_ANPR/ANPR_RZA2M_EBK/src/tensorflow_lite/tensorflow/lite/kernels/internal\common.h ****     64494, 64536, 64576, 64614, 64652, 64687, 64721, 64754, 64786, 64816, 64845,
 376:C:/Renesas/e2studio_2021_01_workspace_RZA2M_ANPR/ANPR_RZA2M_EBK/src/tensorflow_lite/tensorflow/lite/kernels/internal\common.h ****     64873, 64900, 64926, 64950, 64974, 64997, 65019, 65039, 65060, 65079, 65097,
 377:C:/Renesas/e2studio_2021_01_workspace_RZA2M_ANPR/ANPR_RZA2M_EBK/src/tensorflow_lite/tensorflow/lite/kernels/internal\common.h ****     65115, 65132, 65149, 65164, 65179, 65194, 65208, 65221, 65234, 65246, 65258,
 378:C:/Renesas/e2studio_2021_01_workspace_RZA2M_ANPR/ANPR_RZA2M_EBK/src/tensorflow_lite/tensorflow/lite/kernels/internal\common.h ****     65269, 65280, 65291, 65301, 65310, 65319, 65328, 65337, 65345, 65352, 65360,
 379:C:/Renesas/e2studio_2021_01_workspace_RZA2M_ANPR/ANPR_RZA2M_EBK/src/tensorflow_lite/tensorflow/lite/kernels/internal\common.h ****     65367, 65374, 65381, 65387, 65393, 65399, 65404, 65410, 65415, 65420, 65425,
 380:C:/Renesas/e2studio_2021_01_workspace_RZA2M_ANPR/ANPR_RZA2M_EBK/src/tensorflow_lite/tensorflow/lite/kernels/internal\common.h ****     65429, 65433, 65438, 65442, 65445, 65449, 65453, 65456, 65459, 65462, 65465,
 381:C:/Renesas/e2studio_2021_01_workspace_RZA2M_ANPR/ANPR_RZA2M_EBK/src/tensorflow_lite/tensorflow/lite/kernels/internal\common.h ****     65468, 65471, 65474, 65476, 65479, 65481, 65483, 65485, 65488, 65489, 65491,
 382:C:/Renesas/e2studio_2021_01_workspace_RZA2M_ANPR/ANPR_RZA2M_EBK/src/tensorflow_lite/tensorflow/lite/kernels/internal\common.h ****     65493, 65495, 65497, 65498, 65500, 65501, 65503, 65504, 65505, 65507, 65508,
 383:C:/Renesas/e2studio_2021_01_workspace_RZA2M_ANPR/ANPR_RZA2M_EBK/src/tensorflow_lite/tensorflow/lite/kernels/internal\common.h ****     65509, 65510, 65511, 65512, 65513, 65514, 65515, 65516, 65517, 65517, 65518,
 384:C:/Renesas/e2studio_2021_01_workspace_RZA2M_ANPR/ANPR_RZA2M_EBK/src/tensorflow_lite/tensorflow/lite/kernels/internal\common.h ****     65519, 65520, 65520, 65521, 65522, 65522, 65523, 65523, 65524, 65524, 65525,
 385:C:/Renesas/e2studio_2021_01_workspace_RZA2M_ANPR/ANPR_RZA2M_EBK/src/tensorflow_lite/tensorflow/lite/kernels/internal\common.h ****     65525, 65526, 65526, 65526, 65527, 65527, 65528, 65528, 65528, 65529, 65529,
 386:C:/Renesas/e2studio_2021_01_workspace_RZA2M_ANPR/ANPR_RZA2M_EBK/src/tensorflow_lite/tensorflow/lite/kernels/internal\common.h ****     65529, 65529, 65530, 65530, 65530, 65530, 65531, 65531, 65531, 65531, 65531,
 387:C:/Renesas/e2studio_2021_01_workspace_RZA2M_ANPR/ANPR_RZA2M_EBK/src/tensorflow_lite/tensorflow/lite/kernels/internal\common.h ****     65532, 65532, 65532, 65532, 65532, 65532, 65533, 65533, 65533, 65533, 65533,
 388:C:/Renesas/e2studio_2021_01_workspace_RZA2M_ANPR/ANPR_RZA2M_EBK/src/tensorflow_lite/tensorflow/lite/kernels/internal\common.h ****     65533, 65533, 65533, 65534, 65534, 65534, 65534, 65534, 65534, 65534, 65534,
 389:C:/Renesas/e2studio_2021_01_workspace_RZA2M_ANPR/ANPR_RZA2M_EBK/src/tensorflow_lite/tensorflow/lite/kernels/internal\common.h ****     65534, 65534, 65535};
 390:C:/Renesas/e2studio_2021_01_workspace_RZA2M_ANPR/ANPR_RZA2M_EBK/src/tensorflow_lite/tensorflow/lite/kernels/internal\common.h **** 
 391:C:/Renesas/e2studio_2021_01_workspace_RZA2M_ANPR/ANPR_RZA2M_EBK/src/tensorflow_lite/tensorflow/lite/kernels/internal\common.h **** // TODO(b/77858996): Add these to gemmlowp.
 392:C:/Renesas/e2studio_2021_01_workspace_RZA2M_ANPR/ANPR_RZA2M_EBK/src/tensorflow_lite/tensorflow/lite/kernels/internal\common.h **** template <typename IntegerType>
 393:C:/Renesas/e2studio_2021_01_workspace_RZA2M_ANPR/ANPR_RZA2M_EBK/src/tensorflow_lite/tensorflow/lite/kernels/internal\common.h **** IntegerType SaturatingAddNonGemmlowp(IntegerType a, IntegerType b) {
 394:C:/Renesas/e2studio_2021_01_workspace_RZA2M_ANPR/ANPR_RZA2M_EBK/src/tensorflow_lite/tensorflow/lite/kernels/internal\common.h ****   static_assert(std::is_same<IntegerType, void>::value, "unimplemented");
 395:C:/Renesas/e2studio_2021_01_workspace_RZA2M_ANPR/ANPR_RZA2M_EBK/src/tensorflow_lite/tensorflow/lite/kernels/internal\common.h ****   return a;
 396:C:/Renesas/e2studio_2021_01_workspace_RZA2M_ANPR/ANPR_RZA2M_EBK/src/tensorflow_lite/tensorflow/lite/kernels/internal\common.h **** }
 397:C:/Renesas/e2studio_2021_01_workspace_RZA2M_ANPR/ANPR_RZA2M_EBK/src/tensorflow_lite/tensorflow/lite/kernels/internal\common.h **** 
 398:C:/Renesas/e2studio_2021_01_workspace_RZA2M_ANPR/ANPR_RZA2M_EBK/src/tensorflow_lite/tensorflow/lite/kernels/internal\common.h **** template <>
 399:C:/Renesas/e2studio_2021_01_workspace_RZA2M_ANPR/ANPR_RZA2M_EBK/src/tensorflow_lite/tensorflow/lite/kernels/internal\common.h **** inline std::int32_t SaturatingAddNonGemmlowp(std::int32_t a, std::int32_t b) {
 400:C:/Renesas/e2studio_2021_01_workspace_RZA2M_ANPR/ANPR_RZA2M_EBK/src/tensorflow_lite/tensorflow/lite/kernels/internal\common.h ****   std::int64_t a64 = a;
 401:C:/Renesas/e2studio_2021_01_workspace_RZA2M_ANPR/ANPR_RZA2M_EBK/src/tensorflow_lite/tensorflow/lite/kernels/internal\common.h ****   std::int64_t b64 = b;
 402:C:/Renesas/e2studio_2021_01_workspace_RZA2M_ANPR/ANPR_RZA2M_EBK/src/tensorflow_lite/tensorflow/lite/kernels/internal\common.h ****   std::int64_t sum = a64 + b64;
 403:C:/Renesas/e2studio_2021_01_workspace_RZA2M_ANPR/ANPR_RZA2M_EBK/src/tensorflow_lite/tensorflow/lite/kernels/internal\common.h ****   return static_cast<std::int32_t>(std::min(
 404:C:/Renesas/e2studio_2021_01_workspace_RZA2M_ANPR/ANPR_RZA2M_EBK/src/tensorflow_lite/tensorflow/lite/kernels/internal\common.h ****       static_cast<std::int64_t>(std::numeric_limits<std::int32_t>::max()),
 405:C:/Renesas/e2studio_2021_01_workspace_RZA2M_ANPR/ANPR_RZA2M_EBK/src/tensorflow_lite/tensorflow/lite/kernels/internal\common.h ****       std::max(
 406:C:/Renesas/e2studio_2021_01_workspace_RZA2M_ANPR/ANPR_RZA2M_EBK/src/tensorflow_lite/tensorflow/lite/kernels/internal\common.h ****           static_cast<std::int64_t>(std::numeric_limits<std::int32_t>::min()),
 407:C:/Renesas/e2studio_2021_01_workspace_RZA2M_ANPR/ANPR_RZA2M_EBK/src/tensorflow_lite/tensorflow/lite/kernels/internal\common.h ****           sum)));
 408:C:/Renesas/e2studio_2021_01_workspace_RZA2M_ANPR/ANPR_RZA2M_EBK/src/tensorflow_lite/tensorflow/lite/kernels/internal\common.h **** }
 409:C:/Renesas/e2studio_2021_01_workspace_RZA2M_ANPR/ANPR_RZA2M_EBK/src/tensorflow_lite/tensorflow/lite/kernels/internal\common.h **** 
 410:C:/Renesas/e2studio_2021_01_workspace_RZA2M_ANPR/ANPR_RZA2M_EBK/src/tensorflow_lite/tensorflow/lite/kernels/internal\common.h **** template <typename tRawType, int tIntegerBits>
 411:C:/Renesas/e2studio_2021_01_workspace_RZA2M_ANPR/ANPR_RZA2M_EBK/src/tensorflow_lite/tensorflow/lite/kernels/internal\common.h **** gemmlowp::FixedPoint<tRawType, tIntegerBits> SaturatingAddNonGemmlowp(
 412:C:/Renesas/e2studio_2021_01_workspace_RZA2M_ANPR/ANPR_RZA2M_EBK/src/tensorflow_lite/tensorflow/lite/kernels/internal\common.h ****     gemmlowp::FixedPoint<tRawType, tIntegerBits> a,
 413:C:/Renesas/e2studio_2021_01_workspace_RZA2M_ANPR/ANPR_RZA2M_EBK/src/tensorflow_lite/tensorflow/lite/kernels/internal\common.h ****     gemmlowp::FixedPoint<tRawType, tIntegerBits> b) {
 414:C:/Renesas/e2studio_2021_01_workspace_RZA2M_ANPR/ANPR_RZA2M_EBK/src/tensorflow_lite/tensorflow/lite/kernels/internal\common.h ****   return gemmlowp::FixedPoint<tRawType, tIntegerBits>::FromRaw(
 415:C:/Renesas/e2studio_2021_01_workspace_RZA2M_ANPR/ANPR_RZA2M_EBK/src/tensorflow_lite/tensorflow/lite/kernels/internal\common.h ****       SaturatingAddNonGemmlowp(a.raw(), b.raw()));
 416:C:/Renesas/e2studio_2021_01_workspace_RZA2M_ANPR/ANPR_RZA2M_EBK/src/tensorflow_lite/tensorflow/lite/kernels/internal\common.h **** }
 417:C:/Renesas/e2studio_2021_01_workspace_RZA2M_ANPR/ANPR_RZA2M_EBK/src/tensorflow_lite/tensorflow/lite/kernels/internal\common.h **** 
 418:C:/Renesas/e2studio_2021_01_workspace_RZA2M_ANPR/ANPR_RZA2M_EBK/src/tensorflow_lite/tensorflow/lite/kernels/internal\common.h **** template <typename IntegerType>
 419:C:/Renesas/e2studio_2021_01_workspace_RZA2M_ANPR/ANPR_RZA2M_EBK/src/tensorflow_lite/tensorflow/lite/kernels/internal\common.h **** IntegerType SaturatingSub(IntegerType a, IntegerType b) {
 420:C:/Renesas/e2studio_2021_01_workspace_RZA2M_ANPR/ANPR_RZA2M_EBK/src/tensorflow_lite/tensorflow/lite/kernels/internal\common.h ****   static_assert(std::is_same<IntegerType, void>::value, "unimplemented");
 421:C:/Renesas/e2studio_2021_01_workspace_RZA2M_ANPR/ANPR_RZA2M_EBK/src/tensorflow_lite/tensorflow/lite/kernels/internal\common.h ****   return a;
 422:C:/Renesas/e2studio_2021_01_workspace_RZA2M_ANPR/ANPR_RZA2M_EBK/src/tensorflow_lite/tensorflow/lite/kernels/internal\common.h **** }
 423:C:/Renesas/e2studio_2021_01_workspace_RZA2M_ANPR/ANPR_RZA2M_EBK/src/tensorflow_lite/tensorflow/lite/kernels/internal\common.h **** 
 424:C:/Renesas/e2studio_2021_01_workspace_RZA2M_ANPR/ANPR_RZA2M_EBK/src/tensorflow_lite/tensorflow/lite/kernels/internal\common.h **** template <>
 425:C:/Renesas/e2studio_2021_01_workspace_RZA2M_ANPR/ANPR_RZA2M_EBK/src/tensorflow_lite/tensorflow/lite/kernels/internal\common.h **** inline std::int16_t SaturatingSub(std::int16_t a, std::int16_t b) {
 426:C:/Renesas/e2studio_2021_01_workspace_RZA2M_ANPR/ANPR_RZA2M_EBK/src/tensorflow_lite/tensorflow/lite/kernels/internal\common.h ****   std::int32_t a32 = a;
 427:C:/Renesas/e2studio_2021_01_workspace_RZA2M_ANPR/ANPR_RZA2M_EBK/src/tensorflow_lite/tensorflow/lite/kernels/internal\common.h ****   std::int32_t b32 = b;
 428:C:/Renesas/e2studio_2021_01_workspace_RZA2M_ANPR/ANPR_RZA2M_EBK/src/tensorflow_lite/tensorflow/lite/kernels/internal\common.h ****   std::int32_t diff = a32 - b32;
 429:C:/Renesas/e2studio_2021_01_workspace_RZA2M_ANPR/ANPR_RZA2M_EBK/src/tensorflow_lite/tensorflow/lite/kernels/internal\common.h ****   return static_cast<std::int16_t>(
 430:C:/Renesas/e2studio_2021_01_workspace_RZA2M_ANPR/ANPR_RZA2M_EBK/src/tensorflow_lite/tensorflow/lite/kernels/internal\common.h ****       std::min(static_cast<int32_t>(32767),
 431:C:/Renesas/e2studio_2021_01_workspace_RZA2M_ANPR/ANPR_RZA2M_EBK/src/tensorflow_lite/tensorflow/lite/kernels/internal\common.h ****                std::max(static_cast<int32_t>(-32768), diff)));
 432:C:/Renesas/e2studio_2021_01_workspace_RZA2M_ANPR/ANPR_RZA2M_EBK/src/tensorflow_lite/tensorflow/lite/kernels/internal\common.h **** }
 433:C:/Renesas/e2studio_2021_01_workspace_RZA2M_ANPR/ANPR_RZA2M_EBK/src/tensorflow_lite/tensorflow/lite/kernels/internal\common.h **** 
 434:C:/Renesas/e2studio_2021_01_workspace_RZA2M_ANPR/ANPR_RZA2M_EBK/src/tensorflow_lite/tensorflow/lite/kernels/internal\common.h **** template <>
 435:C:/Renesas/e2studio_2021_01_workspace_RZA2M_ANPR/ANPR_RZA2M_EBK/src/tensorflow_lite/tensorflow/lite/kernels/internal\common.h **** inline std::int32_t SaturatingSub(std::int32_t a, std::int32_t b) {
 436:C:/Renesas/e2studio_2021_01_workspace_RZA2M_ANPR/ANPR_RZA2M_EBK/src/tensorflow_lite/tensorflow/lite/kernels/internal\common.h ****   std::int64_t a64 = a;
 437:C:/Renesas/e2studio_2021_01_workspace_RZA2M_ANPR/ANPR_RZA2M_EBK/src/tensorflow_lite/tensorflow/lite/kernels/internal\common.h ****   std::int64_t b64 = b;
 438:C:/Renesas/e2studio_2021_01_workspace_RZA2M_ANPR/ANPR_RZA2M_EBK/src/tensorflow_lite/tensorflow/lite/kernels/internal\common.h ****   std::int64_t diff = a64 - b64;
 439:C:/Renesas/e2studio_2021_01_workspace_RZA2M_ANPR/ANPR_RZA2M_EBK/src/tensorflow_lite/tensorflow/lite/kernels/internal\common.h ****   return static_cast<std::int32_t>(std::min(
 440:C:/Renesas/e2studio_2021_01_workspace_RZA2M_ANPR/ANPR_RZA2M_EBK/src/tensorflow_lite/tensorflow/lite/kernels/internal\common.h ****       static_cast<std::int64_t>(std::numeric_limits<std::int32_t>::max()),
 441:C:/Renesas/e2studio_2021_01_workspace_RZA2M_ANPR/ANPR_RZA2M_EBK/src/tensorflow_lite/tensorflow/lite/kernels/internal\common.h ****       std::max(
 442:C:/Renesas/e2studio_2021_01_workspace_RZA2M_ANPR/ANPR_RZA2M_EBK/src/tensorflow_lite/tensorflow/lite/kernels/internal\common.h ****           static_cast<std::int64_t>(std::numeric_limits<std::int32_t>::min()),
 443:C:/Renesas/e2studio_2021_01_workspace_RZA2M_ANPR/ANPR_RZA2M_EBK/src/tensorflow_lite/tensorflow/lite/kernels/internal\common.h ****           diff)));
 444:C:/Renesas/e2studio_2021_01_workspace_RZA2M_ANPR/ANPR_RZA2M_EBK/src/tensorflow_lite/tensorflow/lite/kernels/internal\common.h **** }
 445:C:/Renesas/e2studio_2021_01_workspace_RZA2M_ANPR/ANPR_RZA2M_EBK/src/tensorflow_lite/tensorflow/lite/kernels/internal\common.h **** 
 446:C:/Renesas/e2studio_2021_01_workspace_RZA2M_ANPR/ANPR_RZA2M_EBK/src/tensorflow_lite/tensorflow/lite/kernels/internal\common.h **** template <typename tRawType, int tIntegerBits>
 447:C:/Renesas/e2studio_2021_01_workspace_RZA2M_ANPR/ANPR_RZA2M_EBK/src/tensorflow_lite/tensorflow/lite/kernels/internal\common.h **** gemmlowp::FixedPoint<tRawType, tIntegerBits> SaturatingSub(
 448:C:/Renesas/e2studio_2021_01_workspace_RZA2M_ANPR/ANPR_RZA2M_EBK/src/tensorflow_lite/tensorflow/lite/kernels/internal\common.h ****     gemmlowp::FixedPoint<tRawType, tIntegerBits> a,
 449:C:/Renesas/e2studio_2021_01_workspace_RZA2M_ANPR/ANPR_RZA2M_EBK/src/tensorflow_lite/tensorflow/lite/kernels/internal\common.h ****     gemmlowp::FixedPoint<tRawType, tIntegerBits> b) {
 450:C:/Renesas/e2studio_2021_01_workspace_RZA2M_ANPR/ANPR_RZA2M_EBK/src/tensorflow_lite/tensorflow/lite/kernels/internal\common.h ****   return gemmlowp::FixedPoint<tRawType, tIntegerBits>::FromRaw(
 451:C:/Renesas/e2studio_2021_01_workspace_RZA2M_ANPR/ANPR_RZA2M_EBK/src/tensorflow_lite/tensorflow/lite/kernels/internal\common.h ****       SaturatingSub(a.raw(), b.raw()));
 452:C:/Renesas/e2studio_2021_01_workspace_RZA2M_ANPR/ANPR_RZA2M_EBK/src/tensorflow_lite/tensorflow/lite/kernels/internal\common.h **** }
 453:C:/Renesas/e2studio_2021_01_workspace_RZA2M_ANPR/ANPR_RZA2M_EBK/src/tensorflow_lite/tensorflow/lite/kernels/internal\common.h **** // End section to be moved to gemmlowp.
 454:C:/Renesas/e2studio_2021_01_workspace_RZA2M_ANPR/ANPR_RZA2M_EBK/src/tensorflow_lite/tensorflow/lite/kernels/internal\common.h **** 
 455:C:/Renesas/e2studio_2021_01_workspace_RZA2M_ANPR/ANPR_RZA2M_EBK/src/tensorflow_lite/tensorflow/lite/kernels/internal\common.h **** template <typename IntegerType>
 456:C:/Renesas/e2studio_2021_01_workspace_RZA2M_ANPR/ANPR_RZA2M_EBK/src/tensorflow_lite/tensorflow/lite/kernels/internal\common.h **** IntegerType SaturatingRoundingMultiplyByPOTParam(IntegerType x, int exponent) {
 457:C:/Renesas/e2studio_2021_01_workspace_RZA2M_ANPR/ANPR_RZA2M_EBK/src/tensorflow_lite/tensorflow/lite/kernels/internal\common.h ****   if (exponent == 0) {
 458:C:/Renesas/e2studio_2021_01_workspace_RZA2M_ANPR/ANPR_RZA2M_EBK/src/tensorflow_lite/tensorflow/lite/kernels/internal\common.h ****     return x;
 459:C:/Renesas/e2studio_2021_01_workspace_RZA2M_ANPR/ANPR_RZA2M_EBK/src/tensorflow_lite/tensorflow/lite/kernels/internal\common.h ****   }
 460:C:/Renesas/e2studio_2021_01_workspace_RZA2M_ANPR/ANPR_RZA2M_EBK/src/tensorflow_lite/tensorflow/lite/kernels/internal\common.h ****   using ScalarIntegerType =
 461:C:/Renesas/e2studio_2021_01_workspace_RZA2M_ANPR/ANPR_RZA2M_EBK/src/tensorflow_lite/tensorflow/lite/kernels/internal\common.h ****       typename gemmlowp::FixedPointRawTypeTraits<IntegerType>::ScalarRawType;
 462:C:/Renesas/e2studio_2021_01_workspace_RZA2M_ANPR/ANPR_RZA2M_EBK/src/tensorflow_lite/tensorflow/lite/kernels/internal\common.h ****   const IntegerType min =
 463:C:/Renesas/e2studio_2021_01_workspace_RZA2M_ANPR/ANPR_RZA2M_EBK/src/tensorflow_lite/tensorflow/lite/kernels/internal\common.h ****       gemmlowp::Dup<IntegerType>(std::numeric_limits<ScalarIntegerType>::min());
 464:C:/Renesas/e2studio_2021_01_workspace_RZA2M_ANPR/ANPR_RZA2M_EBK/src/tensorflow_lite/tensorflow/lite/kernels/internal\common.h ****   const IntegerType max =
 465:C:/Renesas/e2studio_2021_01_workspace_RZA2M_ANPR/ANPR_RZA2M_EBK/src/tensorflow_lite/tensorflow/lite/kernels/internal\common.h ****       gemmlowp::Dup<IntegerType>(std::numeric_limits<ScalarIntegerType>::max());
 466:C:/Renesas/e2studio_2021_01_workspace_RZA2M_ANPR/ANPR_RZA2M_EBK/src/tensorflow_lite/tensorflow/lite/kernels/internal\common.h ****   const int ScalarIntegerTypeBits = 8 * sizeof(ScalarIntegerType);
 467:C:/Renesas/e2studio_2021_01_workspace_RZA2M_ANPR/ANPR_RZA2M_EBK/src/tensorflow_lite/tensorflow/lite/kernels/internal\common.h **** 
 468:C:/Renesas/e2studio_2021_01_workspace_RZA2M_ANPR/ANPR_RZA2M_EBK/src/tensorflow_lite/tensorflow/lite/kernels/internal\common.h ****   const std::int32_t threshold =
 469:C:/Renesas/e2studio_2021_01_workspace_RZA2M_ANPR/ANPR_RZA2M_EBK/src/tensorflow_lite/tensorflow/lite/kernels/internal\common.h ****       ((1 << (ScalarIntegerTypeBits - 1 - exponent)) - 1);
 470:C:/Renesas/e2studio_2021_01_workspace_RZA2M_ANPR/ANPR_RZA2M_EBK/src/tensorflow_lite/tensorflow/lite/kernels/internal\common.h ****   const IntegerType positive_mask =
 471:C:/Renesas/e2studio_2021_01_workspace_RZA2M_ANPR/ANPR_RZA2M_EBK/src/tensorflow_lite/tensorflow/lite/kernels/internal\common.h ****       gemmlowp::MaskIfGreaterThan(x, gemmlowp::Dup<IntegerType>(threshold));
 472:C:/Renesas/e2studio_2021_01_workspace_RZA2M_ANPR/ANPR_RZA2M_EBK/src/tensorflow_lite/tensorflow/lite/kernels/internal\common.h ****   const IntegerType negative_mask =
 473:C:/Renesas/e2studio_2021_01_workspace_RZA2M_ANPR/ANPR_RZA2M_EBK/src/tensorflow_lite/tensorflow/lite/kernels/internal\common.h ****       gemmlowp::MaskIfLessThan(x, gemmlowp::Dup<IntegerType>(-threshold));
 474:C:/Renesas/e2studio_2021_01_workspace_RZA2M_ANPR/ANPR_RZA2M_EBK/src/tensorflow_lite/tensorflow/lite/kernels/internal\common.h **** 
 475:C:/Renesas/e2studio_2021_01_workspace_RZA2M_ANPR/ANPR_RZA2M_EBK/src/tensorflow_lite/tensorflow/lite/kernels/internal\common.h ****   IntegerType result = gemmlowp::ShiftLeft(x, exponent);
 476:C:/Renesas/e2studio_2021_01_workspace_RZA2M_ANPR/ANPR_RZA2M_EBK/src/tensorflow_lite/tensorflow/lite/kernels/internal\common.h ****   result = gemmlowp::SelectUsingMask(positive_mask, max, result);
 477:C:/Renesas/e2studio_2021_01_workspace_RZA2M_ANPR/ANPR_RZA2M_EBK/src/tensorflow_lite/tensorflow/lite/kernels/internal\common.h ****   result = gemmlowp::SelectUsingMask(negative_mask, min, result);
 478:C:/Renesas/e2studio_2021_01_workspace_RZA2M_ANPR/ANPR_RZA2M_EBK/src/tensorflow_lite/tensorflow/lite/kernels/internal\common.h ****   return result;
 479:C:/Renesas/e2studio_2021_01_workspace_RZA2M_ANPR/ANPR_RZA2M_EBK/src/tensorflow_lite/tensorflow/lite/kernels/internal\common.h **** }
 480:C:/Renesas/e2studio_2021_01_workspace_RZA2M_ANPR/ANPR_RZA2M_EBK/src/tensorflow_lite/tensorflow/lite/kernels/internal\common.h **** 
 481:C:/Renesas/e2studio_2021_01_workspace_RZA2M_ANPR/ANPR_RZA2M_EBK/src/tensorflow_lite/tensorflow/lite/kernels/internal\common.h **** // If we want to leave IntegerBits fixed, then multiplication
 482:C:/Renesas/e2studio_2021_01_workspace_RZA2M_ANPR/ANPR_RZA2M_EBK/src/tensorflow_lite/tensorflow/lite/kernels/internal\common.h **** // by a power of two has to be saturating/rounding, not exact anymore.
 483:C:/Renesas/e2studio_2021_01_workspace_RZA2M_ANPR/ANPR_RZA2M_EBK/src/tensorflow_lite/tensorflow/lite/kernels/internal\common.h **** template <typename tRawType, int tIntegerBits>
 484:C:/Renesas/e2studio_2021_01_workspace_RZA2M_ANPR/ANPR_RZA2M_EBK/src/tensorflow_lite/tensorflow/lite/kernels/internal\common.h **** gemmlowp::FixedPoint<tRawType, tIntegerBits>
 485:C:/Renesas/e2studio_2021_01_workspace_RZA2M_ANPR/ANPR_RZA2M_EBK/src/tensorflow_lite/tensorflow/lite/kernels/internal\common.h **** SaturatingRoundingMultiplyByPOTParam(
 486:C:/Renesas/e2studio_2021_01_workspace_RZA2M_ANPR/ANPR_RZA2M_EBK/src/tensorflow_lite/tensorflow/lite/kernels/internal\common.h ****     gemmlowp::FixedPoint<tRawType, tIntegerBits> a, int exponent) {
 487:C:/Renesas/e2studio_2021_01_workspace_RZA2M_ANPR/ANPR_RZA2M_EBK/src/tensorflow_lite/tensorflow/lite/kernels/internal\common.h ****   return gemmlowp::FixedPoint<tRawType, tIntegerBits>::FromRaw(
 488:C:/Renesas/e2studio_2021_01_workspace_RZA2M_ANPR/ANPR_RZA2M_EBK/src/tensorflow_lite/tensorflow/lite/kernels/internal\common.h ****       SaturatingRoundingMultiplyByPOTParam(a.raw(), exponent));
 489:C:/Renesas/e2studio_2021_01_workspace_RZA2M_ANPR/ANPR_RZA2M_EBK/src/tensorflow_lite/tensorflow/lite/kernels/internal\common.h **** }
 490:C:/Renesas/e2studio_2021_01_workspace_RZA2M_ANPR/ANPR_RZA2M_EBK/src/tensorflow_lite/tensorflow/lite/kernels/internal\common.h **** 
 491:C:/Renesas/e2studio_2021_01_workspace_RZA2M_ANPR/ANPR_RZA2M_EBK/src/tensorflow_lite/tensorflow/lite/kernels/internal\common.h **** // Convert int32_t multiplier to int16_t with rounding.
 492:C:/Renesas/e2studio_2021_01_workspace_RZA2M_ANPR/ANPR_RZA2M_EBK/src/tensorflow_lite/tensorflow/lite/kernels/internal\common.h **** inline void DownScaleInt32ToInt16Multiplier(int32_t multiplier_int32_t,
 493:C:/Renesas/e2studio_2021_01_workspace_RZA2M_ANPR/ANPR_RZA2M_EBK/src/tensorflow_lite/tensorflow/lite/kernels/internal\common.h ****                                             int16_t* multiplier_int16_t) {
 494:C:/Renesas/e2studio_2021_01_workspace_RZA2M_ANPR/ANPR_RZA2M_EBK/src/tensorflow_lite/tensorflow/lite/kernels/internal\common.h ****   TFLITE_DCHECK_GE(multiplier_int32_t, 0);
 495:C:/Renesas/e2studio_2021_01_workspace_RZA2M_ANPR/ANPR_RZA2M_EBK/src/tensorflow_lite/tensorflow/lite/kernels/internal\common.h ****   static constexpr int32_t kRoundingOffset = 1 << 15;
 496:C:/Renesas/e2studio_2021_01_workspace_RZA2M_ANPR/ANPR_RZA2M_EBK/src/tensorflow_lite/tensorflow/lite/kernels/internal\common.h ****   if (multiplier_int32_t >=
 497:C:/Renesas/e2studio_2021_01_workspace_RZA2M_ANPR/ANPR_RZA2M_EBK/src/tensorflow_lite/tensorflow/lite/kernels/internal\common.h ****       std::numeric_limits<int32_t>::max() - kRoundingOffset) {
 498:C:/Renesas/e2studio_2021_01_workspace_RZA2M_ANPR/ANPR_RZA2M_EBK/src/tensorflow_lite/tensorflow/lite/kernels/internal\common.h ****     *multiplier_int16_t = std::numeric_limits<int16_t>::max();
 499:C:/Renesas/e2studio_2021_01_workspace_RZA2M_ANPR/ANPR_RZA2M_EBK/src/tensorflow_lite/tensorflow/lite/kernels/internal\common.h ****     return;
 500:C:/Renesas/e2studio_2021_01_workspace_RZA2M_ANPR/ANPR_RZA2M_EBK/src/tensorflow_lite/tensorflow/lite/kernels/internal\common.h ****   }
 501:C:/Renesas/e2studio_2021_01_workspace_RZA2M_ANPR/ANPR_RZA2M_EBK/src/tensorflow_lite/tensorflow/lite/kernels/internal\common.h ****   const int32_t result = (multiplier_int32_t + kRoundingOffset) >> 16;
 502:C:/Renesas/e2studio_2021_01_workspace_RZA2M_ANPR/ANPR_RZA2M_EBK/src/tensorflow_lite/tensorflow/lite/kernels/internal\common.h ****   TFLITE_DCHECK_LE(result << 16, multiplier_int32_t + kRoundingOffset);
 503:C:/Renesas/e2studio_2021_01_workspace_RZA2M_ANPR/ANPR_RZA2M_EBK/src/tensorflow_lite/tensorflow/lite/kernels/internal\common.h ****   TFLITE_DCHECK_GT(result << 16, multiplier_int32_t - kRoundingOffset);
 504:C:/Renesas/e2studio_2021_01_workspace_RZA2M_ANPR/ANPR_RZA2M_EBK/src/tensorflow_lite/tensorflow/lite/kernels/internal\common.h ****   *multiplier_int16_t = result;
 505:C:/Renesas/e2studio_2021_01_workspace_RZA2M_ANPR/ANPR_RZA2M_EBK/src/tensorflow_lite/tensorflow/lite/kernels/internal\common.h ****   TFLITE_DCHECK_EQ(*multiplier_int16_t, result);
 506:C:/Renesas/e2studio_2021_01_workspace_RZA2M_ANPR/ANPR_RZA2M_EBK/src/tensorflow_lite/tensorflow/lite/kernels/internal\common.h **** }
 507:C:/Renesas/e2studio_2021_01_workspace_RZA2M_ANPR/ANPR_RZA2M_EBK/src/tensorflow_lite/tensorflow/lite/kernels/internal\common.h **** 
 508:C:/Renesas/e2studio_2021_01_workspace_RZA2M_ANPR/ANPR_RZA2M_EBK/src/tensorflow_lite/tensorflow/lite/kernels/internal\common.h **** // Minimum output bits to accommodate log of maximum input range.  It actually
 509:C:/Renesas/e2studio_2021_01_workspace_RZA2M_ANPR/ANPR_RZA2M_EBK/src/tensorflow_lite/tensorflow/lite/kernels/internal\common.h **** // does not matter if one considers, say, [-64,64] or [-64,64).
 510:C:/Renesas/e2studio_2021_01_workspace_RZA2M_ANPR/ANPR_RZA2M_EBK/src/tensorflow_lite/tensorflow/lite/kernels/internal\common.h **** //
 511:C:/Renesas/e2studio_2021_01_workspace_RZA2M_ANPR/ANPR_RZA2M_EBK/src/tensorflow_lite/tensorflow/lite/kernels/internal\common.h **** // For example, run this through Octave:
 512:C:/Renesas/e2studio_2021_01_workspace_RZA2M_ANPR/ANPR_RZA2M_EBK/src/tensorflow_lite/tensorflow/lite/kernels/internal\common.h **** // [0:127; ...
 513:C:/Renesas/e2studio_2021_01_workspace_RZA2M_ANPR/ANPR_RZA2M_EBK/src/tensorflow_lite/tensorflow/lite/kernels/internal\common.h **** //  ceil(log(abs( log(2.^(0:127))+1 ))/log(2)); ...
 514:C:/Renesas/e2studio_2021_01_workspace_RZA2M_ANPR/ANPR_RZA2M_EBK/src/tensorflow_lite/tensorflow/lite/kernels/internal\common.h **** //  ceil(log(abs( log(2.^(0:127))+1 ))/log(2))]
 515:C:/Renesas/e2studio_2021_01_workspace_RZA2M_ANPR/ANPR_RZA2M_EBK/src/tensorflow_lite/tensorflow/lite/kernels/internal\common.h **** constexpr int min_log_x_output_bits(int input_bits) {
 516:C:/Renesas/e2studio_2021_01_workspace_RZA2M_ANPR/ANPR_RZA2M_EBK/src/tensorflow_lite/tensorflow/lite/kernels/internal\common.h ****   return input_bits > 90   ? 7
 517:C:/Renesas/e2studio_2021_01_workspace_RZA2M_ANPR/ANPR_RZA2M_EBK/src/tensorflow_lite/tensorflow/lite/kernels/internal\common.h ****          : input_bits > 44 ? 6
 518:C:/Renesas/e2studio_2021_01_workspace_RZA2M_ANPR/ANPR_RZA2M_EBK/src/tensorflow_lite/tensorflow/lite/kernels/internal\common.h ****          : input_bits > 21 ? 5
 519:C:/Renesas/e2studio_2021_01_workspace_RZA2M_ANPR/ANPR_RZA2M_EBK/src/tensorflow_lite/tensorflow/lite/kernels/internal\common.h ****          : input_bits > 10 ? 4
 520:C:/Renesas/e2studio_2021_01_workspace_RZA2M_ANPR/ANPR_RZA2M_EBK/src/tensorflow_lite/tensorflow/lite/kernels/internal\common.h ****          : input_bits > 4  ? 3
 521:C:/Renesas/e2studio_2021_01_workspace_RZA2M_ANPR/ANPR_RZA2M_EBK/src/tensorflow_lite/tensorflow/lite/kernels/internal\common.h ****          : input_bits > 1  ? 2
 522:C:/Renesas/e2studio_2021_01_workspace_RZA2M_ANPR/ANPR_RZA2M_EBK/src/tensorflow_lite/tensorflow/lite/kernels/internal\common.h ****                            : 1;
 523:C:/Renesas/e2studio_2021_01_workspace_RZA2M_ANPR/ANPR_RZA2M_EBK/src/tensorflow_lite/tensorflow/lite/kernels/internal\common.h **** }
 524:C:/Renesas/e2studio_2021_01_workspace_RZA2M_ANPR/ANPR_RZA2M_EBK/src/tensorflow_lite/tensorflow/lite/kernels/internal\common.h **** 
 525:C:/Renesas/e2studio_2021_01_workspace_RZA2M_ANPR/ANPR_RZA2M_EBK/src/tensorflow_lite/tensorflow/lite/kernels/internal\common.h **** // Although currently the name of this function says that it cannot handle
 526:C:/Renesas/e2studio_2021_01_workspace_RZA2M_ANPR/ANPR_RZA2M_EBK/src/tensorflow_lite/tensorflow/lite/kernels/internal\common.h **** // values less than 1, in practice it can handle as low as 1/x_max, where
 527:C:/Renesas/e2studio_2021_01_workspace_RZA2M_ANPR/ANPR_RZA2M_EBK/src/tensorflow_lite/tensorflow/lite/kernels/internal\common.h **** // x_max is the largest representable input.  In other words, the output range
 528:C:/Renesas/e2studio_2021_01_workspace_RZA2M_ANPR/ANPR_RZA2M_EBK/src/tensorflow_lite/tensorflow/lite/kernels/internal\common.h **** // is symmetric.
 529:C:/Renesas/e2studio_2021_01_workspace_RZA2M_ANPR/ANPR_RZA2M_EBK/src/tensorflow_lite/tensorflow/lite/kernels/internal\common.h **** template <int OutputIntegerBits, int InputIntegerBits>
 530:C:/Renesas/e2studio_2021_01_workspace_RZA2M_ANPR/ANPR_RZA2M_EBK/src/tensorflow_lite/tensorflow/lite/kernels/internal\common.h **** inline gemmlowp::FixedPoint<int32_t, OutputIntegerBits>
 531:C:/Renesas/e2studio_2021_01_workspace_RZA2M_ANPR/ANPR_RZA2M_EBK/src/tensorflow_lite/tensorflow/lite/kernels/internal\common.h **** log_x_for_x_greater_than_or_equal_to_1_impl(
 532:C:/Renesas/e2studio_2021_01_workspace_RZA2M_ANPR/ANPR_RZA2M_EBK/src/tensorflow_lite/tensorflow/lite/kernels/internal\common.h ****     gemmlowp::FixedPoint<int32_t, InputIntegerBits> input_val) {
 533:C:/Renesas/e2studio_2021_01_workspace_RZA2M_ANPR/ANPR_RZA2M_EBK/src/tensorflow_lite/tensorflow/lite/kernels/internal\common.h ****   // assert(__builtin_clz(0u) >= std::numeric_limits<uint32_t>::digits - 1);
 534:C:/Renesas/e2studio_2021_01_workspace_RZA2M_ANPR/ANPR_RZA2M_EBK/src/tensorflow_lite/tensorflow/lite/kernels/internal\common.h ****   // assert(__builtin_clz(0u) <= std::numeric_limits<uint32_t>::digits);
 535:C:/Renesas/e2studio_2021_01_workspace_RZA2M_ANPR/ANPR_RZA2M_EBK/src/tensorflow_lite/tensorflow/lite/kernels/internal\common.h ****   using FixedPoint0 = gemmlowp::FixedPoint<int32_t, 0>;
 536:C:/Renesas/e2studio_2021_01_workspace_RZA2M_ANPR/ANPR_RZA2M_EBK/src/tensorflow_lite/tensorflow/lite/kernels/internal\common.h ****   // The reason for accumulating the result with an extra bit of headroom is
 537:C:/Renesas/e2studio_2021_01_workspace_RZA2M_ANPR/ANPR_RZA2M_EBK/src/tensorflow_lite/tensorflow/lite/kernels/internal\common.h ****   // that z_pow_2_adj * log_2 might be saturated, and adding num_scaled *
 538:C:/Renesas/e2studio_2021_01_workspace_RZA2M_ANPR/ANPR_RZA2M_EBK/src/tensorflow_lite/tensorflow/lite/kernels/internal\common.h ****   // recip_denom will otherwise introduce an error.
 539:C:/Renesas/e2studio_2021_01_workspace_RZA2M_ANPR/ANPR_RZA2M_EBK/src/tensorflow_lite/tensorflow/lite/kernels/internal\common.h ****   static constexpr int kAccumIntegerBits = OutputIntegerBits + 1;
 540:C:/Renesas/e2studio_2021_01_workspace_RZA2M_ANPR/ANPR_RZA2M_EBK/src/tensorflow_lite/tensorflow/lite/kernels/internal\common.h ****   using FixedPointAccum = gemmlowp::FixedPoint<int32_t, kAccumIntegerBits>;
 541:C:/Renesas/e2studio_2021_01_workspace_RZA2M_ANPR/ANPR_RZA2M_EBK/src/tensorflow_lite/tensorflow/lite/kernels/internal\common.h **** 
 542:C:/Renesas/e2studio_2021_01_workspace_RZA2M_ANPR/ANPR_RZA2M_EBK/src/tensorflow_lite/tensorflow/lite/kernels/internal\common.h ****   const FixedPoint0 log_2 = GEMMLOWP_CHECKED_FIXEDPOINT_CONSTANT(
 543:C:/Renesas/e2studio_2021_01_workspace_RZA2M_ANPR/ANPR_RZA2M_EBK/src/tensorflow_lite/tensorflow/lite/kernels/internal\common.h ****       FixedPoint0, 1488522236, std::log(2.0));
 544:C:/Renesas/e2studio_2021_01_workspace_RZA2M_ANPR/ANPR_RZA2M_EBK/src/tensorflow_lite/tensorflow/lite/kernels/internal\common.h ****   const FixedPoint0 sqrt_sqrt_half = GEMMLOWP_CHECKED_FIXEDPOINT_CONSTANT(
 545:C:/Renesas/e2studio_2021_01_workspace_RZA2M_ANPR/ANPR_RZA2M_EBK/src/tensorflow_lite/tensorflow/lite/kernels/internal\common.h ****       FixedPoint0, 1805811301, std::sqrt(std::sqrt(0.5)));
 546:C:/Renesas/e2studio_2021_01_workspace_RZA2M_ANPR/ANPR_RZA2M_EBK/src/tensorflow_lite/tensorflow/lite/kernels/internal\common.h ****   const FixedPoint0 sqrt_half = GEMMLOWP_CHECKED_FIXEDPOINT_CONSTANT(
 547:C:/Renesas/e2studio_2021_01_workspace_RZA2M_ANPR/ANPR_RZA2M_EBK/src/tensorflow_lite/tensorflow/lite/kernels/internal\common.h ****       FixedPoint0, 1518500250, std::sqrt(0.5));
 548:C:/Renesas/e2studio_2021_01_workspace_RZA2M_ANPR/ANPR_RZA2M_EBK/src/tensorflow_lite/tensorflow/lite/kernels/internal\common.h ****   const FixedPoint0 one_quarter =
 549:C:/Renesas/e2studio_2021_01_workspace_RZA2M_ANPR/ANPR_RZA2M_EBK/src/tensorflow_lite/tensorflow/lite/kernels/internal\common.h ****       GEMMLOWP_CHECKED_FIXEDPOINT_CONSTANT(FixedPoint0, 536870912, 1.0 / 4.0);
 550:C:/Renesas/e2studio_2021_01_workspace_RZA2M_ANPR/ANPR_RZA2M_EBK/src/tensorflow_lite/tensorflow/lite/kernels/internal\common.h **** 
 551:C:/Renesas/e2studio_2021_01_workspace_RZA2M_ANPR/ANPR_RZA2M_EBK/src/tensorflow_lite/tensorflow/lite/kernels/internal\common.h ****   const FixedPoint0 alpha_n = GEMMLOWP_CHECKED_FIXEDPOINT_CONSTANT(
 552:C:/Renesas/e2studio_2021_01_workspace_RZA2M_ANPR/ANPR_RZA2M_EBK/src/tensorflow_lite/tensorflow/lite/kernels/internal\common.h ****       FixedPoint0, 117049297, 11.0 / 240.0 * std::sqrt(std::sqrt(2.0)));
 553:C:/Renesas/e2studio_2021_01_workspace_RZA2M_ANPR/ANPR_RZA2M_EBK/src/tensorflow_lite/tensorflow/lite/kernels/internal\common.h ****   const FixedPoint0 alpha_d = GEMMLOWP_CHECKED_FIXEDPOINT_CONSTANT(
 554:C:/Renesas/e2studio_2021_01_workspace_RZA2M_ANPR/ANPR_RZA2M_EBK/src/tensorflow_lite/tensorflow/lite/kernels/internal\common.h ****       FixedPoint0, 127690142, 1.0 / 20.0 * std::sqrt(std::sqrt(2.0)));
 555:C:/Renesas/e2studio_2021_01_workspace_RZA2M_ANPR/ANPR_RZA2M_EBK/src/tensorflow_lite/tensorflow/lite/kernels/internal\common.h ****   const FixedPoint0 alpha_i = GEMMLOWP_CHECKED_FIXEDPOINT_CONSTANT(
 556:C:/Renesas/e2studio_2021_01_workspace_RZA2M_ANPR/ANPR_RZA2M_EBK/src/tensorflow_lite/tensorflow/lite/kernels/internal\common.h ****       FixedPoint0, 1057819769,
 557:C:/Renesas/e2studio_2021_01_workspace_RZA2M_ANPR/ANPR_RZA2M_EBK/src/tensorflow_lite/tensorflow/lite/kernels/internal\common.h ****       2.0 / std::sqrt(std::sqrt(2.0)) - std::sqrt(std::sqrt(2.0)));
 558:C:/Renesas/e2studio_2021_01_workspace_RZA2M_ANPR/ANPR_RZA2M_EBK/src/tensorflow_lite/tensorflow/lite/kernels/internal\common.h ****   const FixedPoint0 alpha_f = GEMMLOWP_CHECKED_FIXEDPOINT_CONSTANT(
 559:C:/Renesas/e2studio_2021_01_workspace_RZA2M_ANPR/ANPR_RZA2M_EBK/src/tensorflow_lite/tensorflow/lite/kernels/internal\common.h ****       FixedPoint0, 638450708, 1.0 / 4.0 * std::sqrt(std::sqrt(2.0)));
 560:C:/Renesas/e2studio_2021_01_workspace_RZA2M_ANPR/ANPR_RZA2M_EBK/src/tensorflow_lite/tensorflow/lite/kernels/internal\common.h **** 
 561:C:/Renesas/e2studio_2021_01_workspace_RZA2M_ANPR/ANPR_RZA2M_EBK/src/tensorflow_lite/tensorflow/lite/kernels/internal\common.h ****   const FixedPointAccum shifted_quarter =
 562:C:/Renesas/e2studio_2021_01_workspace_RZA2M_ANPR/ANPR_RZA2M_EBK/src/tensorflow_lite/tensorflow/lite/kernels/internal\common.h ****       gemmlowp::Rescale<kAccumIntegerBits>(one_quarter);
 563:C:/Renesas/e2studio_2021_01_workspace_RZA2M_ANPR/ANPR_RZA2M_EBK/src/tensorflow_lite/tensorflow/lite/kernels/internal\common.h **** 
 564:C:/Renesas/e2studio_2021_01_workspace_RZA2M_ANPR/ANPR_RZA2M_EBK/src/tensorflow_lite/tensorflow/lite/kernels/internal\common.h ****   // Reinterpret the input value as Q0.31, because we will figure out the
 565:C:/Renesas/e2studio_2021_01_workspace_RZA2M_ANPR/ANPR_RZA2M_EBK/src/tensorflow_lite/tensorflow/lite/kernels/internal\common.h ****   // required shift "ourselves" instead of using, say, Rescale.
 566:C:/Renesas/e2studio_2021_01_workspace_RZA2M_ANPR/ANPR_RZA2M_EBK/src/tensorflow_lite/tensorflow/lite/kernels/internal\common.h ****   FixedPoint0 z_a = FixedPoint0::FromRaw(input_val.raw());
 567:C:/Renesas/e2studio_2021_01_workspace_RZA2M_ANPR/ANPR_RZA2M_EBK/src/tensorflow_lite/tensorflow/lite/kernels/internal\common.h ****   // z_a_pow_2 = input_integer_bits - z_a_headroom;
 568:C:/Renesas/e2studio_2021_01_workspace_RZA2M_ANPR/ANPR_RZA2M_EBK/src/tensorflow_lite/tensorflow/lite/kernels/internal\common.h ****   int z_a_headroom_plus_1 = CountLeadingZeros(static_cast<uint32_t>(z_a.raw()));
 569:C:/Renesas/e2studio_2021_01_workspace_RZA2M_ANPR/ANPR_RZA2M_EBK/src/tensorflow_lite/tensorflow/lite/kernels/internal\common.h ****   FixedPoint0 r_a_tmp =
 570:C:/Renesas/e2studio_2021_01_workspace_RZA2M_ANPR/ANPR_RZA2M_EBK/src/tensorflow_lite/tensorflow/lite/kernels/internal\common.h ****       SaturatingRoundingMultiplyByPOTParam(z_a, (z_a_headroom_plus_1 - 1));
 571:C:/Renesas/e2studio_2021_01_workspace_RZA2M_ANPR/ANPR_RZA2M_EBK/src/tensorflow_lite/tensorflow/lite/kernels/internal\common.h ****   const int32_t r_a_raw =
 572:C:/Renesas/e2studio_2021_01_workspace_RZA2M_ANPR/ANPR_RZA2M_EBK/src/tensorflow_lite/tensorflow/lite/kernels/internal\common.h ****       SaturatingRoundingMultiplyByPOTParam((r_a_tmp * sqrt_half).raw(), 1);
 573:C:/Renesas/e2studio_2021_01_workspace_RZA2M_ANPR/ANPR_RZA2M_EBK/src/tensorflow_lite/tensorflow/lite/kernels/internal\common.h ****   // z_pow_2_adj = max(z_pow_2_a - 0.75, z_pow_2_b - 0.25);
 574:C:/Renesas/e2studio_2021_01_workspace_RZA2M_ANPR/ANPR_RZA2M_EBK/src/tensorflow_lite/tensorflow/lite/kernels/internal\common.h ****   // z_pow_2_adj = max(InputIntegerBits - z_a_headroom_plus_1 + 0.25,
 575:C:/Renesas/e2studio_2021_01_workspace_RZA2M_ANPR/ANPR_RZA2M_EBK/src/tensorflow_lite/tensorflow/lite/kernels/internal\common.h ****   //                   InputIntegerBits - z_b_headroom - 0.25);
 576:C:/Renesas/e2studio_2021_01_workspace_RZA2M_ANPR/ANPR_RZA2M_EBK/src/tensorflow_lite/tensorflow/lite/kernels/internal\common.h ****   const FixedPointAccum z_a_pow_2_adj = SaturatingAddNonGemmlowp(
 577:C:/Renesas/e2studio_2021_01_workspace_RZA2M_ANPR/ANPR_RZA2M_EBK/src/tensorflow_lite/tensorflow/lite/kernels/internal\common.h ****       FixedPointAccum::FromRaw(SaturatingRoundingMultiplyByPOTParam(
 578:C:/Renesas/e2studio_2021_01_workspace_RZA2M_ANPR/ANPR_RZA2M_EBK/src/tensorflow_lite/tensorflow/lite/kernels/internal\common.h ****           static_cast<int32_t>(InputIntegerBits - z_a_headroom_plus_1),
 579:C:/Renesas/e2studio_2021_01_workspace_RZA2M_ANPR/ANPR_RZA2M_EBK/src/tensorflow_lite/tensorflow/lite/kernels/internal\common.h ****           31 - kAccumIntegerBits)),
 580:C:/Renesas/e2studio_2021_01_workspace_RZA2M_ANPR/ANPR_RZA2M_EBK/src/tensorflow_lite/tensorflow/lite/kernels/internal\common.h ****       shifted_quarter);
 581:C:/Renesas/e2studio_2021_01_workspace_RZA2M_ANPR/ANPR_RZA2M_EBK/src/tensorflow_lite/tensorflow/lite/kernels/internal\common.h **** 
 582:C:/Renesas/e2studio_2021_01_workspace_RZA2M_ANPR/ANPR_RZA2M_EBK/src/tensorflow_lite/tensorflow/lite/kernels/internal\common.h ****   // z_b is treated like z_a, but premultiplying by sqrt(0.5).
 583:C:/Renesas/e2studio_2021_01_workspace_RZA2M_ANPR/ANPR_RZA2M_EBK/src/tensorflow_lite/tensorflow/lite/kernels/internal\common.h ****   FixedPoint0 z_b = z_a * sqrt_half;
 584:C:/Renesas/e2studio_2021_01_workspace_RZA2M_ANPR/ANPR_RZA2M_EBK/src/tensorflow_lite/tensorflow/lite/kernels/internal\common.h ****   int z_b_headroom = CountLeadingZeros(static_cast<uint32_t>(z_b.raw())) - 1;
 585:C:/Renesas/e2studio_2021_01_workspace_RZA2M_ANPR/ANPR_RZA2M_EBK/src/tensorflow_lite/tensorflow/lite/kernels/internal\common.h ****   const int32_t r_b_raw =
 586:C:/Renesas/e2studio_2021_01_workspace_RZA2M_ANPR/ANPR_RZA2M_EBK/src/tensorflow_lite/tensorflow/lite/kernels/internal\common.h ****       SaturatingRoundingMultiplyByPOTParam(z_a.raw(), z_b_headroom);
 587:C:/Renesas/e2studio_2021_01_workspace_RZA2M_ANPR/ANPR_RZA2M_EBK/src/tensorflow_lite/tensorflow/lite/kernels/internal\common.h ****   const FixedPointAccum z_b_pow_2_adj = SaturatingSub(
 588:C:/Renesas/e2studio_2021_01_workspace_RZA2M_ANPR/ANPR_RZA2M_EBK/src/tensorflow_lite/tensorflow/lite/kernels/internal\common.h ****       FixedPointAccum::FromRaw(SaturatingRoundingMultiplyByPOTParam(
 589:C:/Renesas/e2studio_2021_01_workspace_RZA2M_ANPR/ANPR_RZA2M_EBK/src/tensorflow_lite/tensorflow/lite/kernels/internal\common.h ****           static_cast<int32_t>(InputIntegerBits - z_b_headroom),
 590:C:/Renesas/e2studio_2021_01_workspace_RZA2M_ANPR/ANPR_RZA2M_EBK/src/tensorflow_lite/tensorflow/lite/kernels/internal\common.h ****           31 - kAccumIntegerBits)),
 591:C:/Renesas/e2studio_2021_01_workspace_RZA2M_ANPR/ANPR_RZA2M_EBK/src/tensorflow_lite/tensorflow/lite/kernels/internal\common.h ****       shifted_quarter);
 592:C:/Renesas/e2studio_2021_01_workspace_RZA2M_ANPR/ANPR_RZA2M_EBK/src/tensorflow_lite/tensorflow/lite/kernels/internal\common.h **** 
 593:C:/Renesas/e2studio_2021_01_workspace_RZA2M_ANPR/ANPR_RZA2M_EBK/src/tensorflow_lite/tensorflow/lite/kernels/internal\common.h ****   const FixedPoint0 r = FixedPoint0::FromRaw(std::min(r_a_raw, r_b_raw));
 594:C:/Renesas/e2studio_2021_01_workspace_RZA2M_ANPR/ANPR_RZA2M_EBK/src/tensorflow_lite/tensorflow/lite/kernels/internal\common.h ****   const FixedPointAccum z_pow_2_adj = FixedPointAccum::FromRaw(
 595:C:/Renesas/e2studio_2021_01_workspace_RZA2M_ANPR/ANPR_RZA2M_EBK/src/tensorflow_lite/tensorflow/lite/kernels/internal\common.h ****       std::max(z_a_pow_2_adj.raw(), z_b_pow_2_adj.raw()));
 596:C:/Renesas/e2studio_2021_01_workspace_RZA2M_ANPR/ANPR_RZA2M_EBK/src/tensorflow_lite/tensorflow/lite/kernels/internal\common.h **** 
 597:C:/Renesas/e2studio_2021_01_workspace_RZA2M_ANPR/ANPR_RZA2M_EBK/src/tensorflow_lite/tensorflow/lite/kernels/internal\common.h ****   const FixedPoint0 p = gemmlowp::RoundingHalfSum(r, sqrt_sqrt_half);
 598:C:/Renesas/e2studio_2021_01_workspace_RZA2M_ANPR/ANPR_RZA2M_EBK/src/tensorflow_lite/tensorflow/lite/kernels/internal\common.h ****   FixedPoint0 q = r - sqrt_sqrt_half;
 599:C:/Renesas/e2studio_2021_01_workspace_RZA2M_ANPR/ANPR_RZA2M_EBK/src/tensorflow_lite/tensorflow/lite/kernels/internal\common.h ****   q = q + q;
 600:C:/Renesas/e2studio_2021_01_workspace_RZA2M_ANPR/ANPR_RZA2M_EBK/src/tensorflow_lite/tensorflow/lite/kernels/internal\common.h **** 
 601:C:/Renesas/e2studio_2021_01_workspace_RZA2M_ANPR/ANPR_RZA2M_EBK/src/tensorflow_lite/tensorflow/lite/kernels/internal\common.h ****   const FixedPoint0 common_sq = q * q;
 602:C:/Renesas/e2studio_2021_01_workspace_RZA2M_ANPR/ANPR_RZA2M_EBK/src/tensorflow_lite/tensorflow/lite/kernels/internal\common.h ****   const FixedPoint0 num = q * r + q * common_sq * alpha_n;
 603:C:/Renesas/e2studio_2021_01_workspace_RZA2M_ANPR/ANPR_RZA2M_EBK/src/tensorflow_lite/tensorflow/lite/kernels/internal\common.h ****   const FixedPoint0 denom_minus_one_0 =
 604:C:/Renesas/e2studio_2021_01_workspace_RZA2M_ANPR/ANPR_RZA2M_EBK/src/tensorflow_lite/tensorflow/lite/kernels/internal\common.h ****       p * (alpha_i + q + alpha_d * common_sq) + alpha_f * q;
 605:C:/Renesas/e2studio_2021_01_workspace_RZA2M_ANPR/ANPR_RZA2M_EBK/src/tensorflow_lite/tensorflow/lite/kernels/internal\common.h ****   const FixedPoint0 recip_denom =
 606:C:/Renesas/e2studio_2021_01_workspace_RZA2M_ANPR/ANPR_RZA2M_EBK/src/tensorflow_lite/tensorflow/lite/kernels/internal\common.h ****       one_over_one_plus_x_for_x_in_0_1(denom_minus_one_0);
 607:C:/Renesas/e2studio_2021_01_workspace_RZA2M_ANPR/ANPR_RZA2M_EBK/src/tensorflow_lite/tensorflow/lite/kernels/internal\common.h **** 
 608:C:/Renesas/e2studio_2021_01_workspace_RZA2M_ANPR/ANPR_RZA2M_EBK/src/tensorflow_lite/tensorflow/lite/kernels/internal\common.h ****   const FixedPointAccum num_scaled = gemmlowp::Rescale<kAccumIntegerBits>(num);
 609:C:/Renesas/e2studio_2021_01_workspace_RZA2M_ANPR/ANPR_RZA2M_EBK/src/tensorflow_lite/tensorflow/lite/kernels/internal\common.h ****   return gemmlowp::Rescale<OutputIntegerBits>(z_pow_2_adj * log_2 +
 610:C:/Renesas/e2studio_2021_01_workspace_RZA2M_ANPR/ANPR_RZA2M_EBK/src/tensorflow_lite/tensorflow/lite/kernels/internal\common.h ****                                               num_scaled * recip_denom);
 611:C:/Renesas/e2studio_2021_01_workspace_RZA2M_ANPR/ANPR_RZA2M_EBK/src/tensorflow_lite/tensorflow/lite/kernels/internal\common.h **** }
 612:C:/Renesas/e2studio_2021_01_workspace_RZA2M_ANPR/ANPR_RZA2M_EBK/src/tensorflow_lite/tensorflow/lite/kernels/internal\common.h **** 
 613:C:/Renesas/e2studio_2021_01_workspace_RZA2M_ANPR/ANPR_RZA2M_EBK/src/tensorflow_lite/tensorflow/lite/kernels/internal\common.h **** template <int OutputIntegerBits, int InputIntegerBits>
 614:C:/Renesas/e2studio_2021_01_workspace_RZA2M_ANPR/ANPR_RZA2M_EBK/src/tensorflow_lite/tensorflow/lite/kernels/internal\common.h **** inline gemmlowp::FixedPoint<int32_t, OutputIntegerBits>
 615:C:/Renesas/e2studio_2021_01_workspace_RZA2M_ANPR/ANPR_RZA2M_EBK/src/tensorflow_lite/tensorflow/lite/kernels/internal\common.h **** log_x_for_x_greater_than_or_equal_to_1(
 616:C:/Renesas/e2studio_2021_01_workspace_RZA2M_ANPR/ANPR_RZA2M_EBK/src/tensorflow_lite/tensorflow/lite/kernels/internal\common.h ****     gemmlowp::FixedPoint<int32_t, InputIntegerBits> input_val) {
 617:C:/Renesas/e2studio_2021_01_workspace_RZA2M_ANPR/ANPR_RZA2M_EBK/src/tensorflow_lite/tensorflow/lite/kernels/internal\common.h ****   static_assert(
 618:C:/Renesas/e2studio_2021_01_workspace_RZA2M_ANPR/ANPR_RZA2M_EBK/src/tensorflow_lite/tensorflow/lite/kernels/internal\common.h ****       OutputIntegerBits >= min_log_x_output_bits(InputIntegerBits),
 619:C:/Renesas/e2studio_2021_01_workspace_RZA2M_ANPR/ANPR_RZA2M_EBK/src/tensorflow_lite/tensorflow/lite/kernels/internal\common.h ****       "Output integer bits must be sufficient to accommodate logs of inputs.");
 620:C:/Renesas/e2studio_2021_01_workspace_RZA2M_ANPR/ANPR_RZA2M_EBK/src/tensorflow_lite/tensorflow/lite/kernels/internal\common.h ****   return log_x_for_x_greater_than_or_equal_to_1_impl<OutputIntegerBits,
 621:C:/Renesas/e2studio_2021_01_workspace_RZA2M_ANPR/ANPR_RZA2M_EBK/src/tensorflow_lite/tensorflow/lite/kernels/internal\common.h ****                                                      InputIntegerBits>(
 622:C:/Renesas/e2studio_2021_01_workspace_RZA2M_ANPR/ANPR_RZA2M_EBK/src/tensorflow_lite/tensorflow/lite/kernels/internal\common.h ****       input_val);
 623:C:/Renesas/e2studio_2021_01_workspace_RZA2M_ANPR/ANPR_RZA2M_EBK/src/tensorflow_lite/tensorflow/lite/kernels/internal\common.h **** }
 624:C:/Renesas/e2studio_2021_01_workspace_RZA2M_ANPR/ANPR_RZA2M_EBK/src/tensorflow_lite/tensorflow/lite/kernels/internal\common.h **** 
 625:C:/Renesas/e2studio_2021_01_workspace_RZA2M_ANPR/ANPR_RZA2M_EBK/src/tensorflow_lite/tensorflow/lite/kernels/internal\common.h **** inline int32_t GetReciprocal(int32_t x, int x_integer_digits,
 626:C:/Renesas/e2studio_2021_01_workspace_RZA2M_ANPR/ANPR_RZA2M_EBK/src/tensorflow_lite/tensorflow/lite/kernels/internal\common.h ****                              int* num_bits_over_unit) {
 627:C:/Renesas/e2studio_2021_01_workspace_RZA2M_ANPR/ANPR_RZA2M_EBK/src/tensorflow_lite/tensorflow/lite/kernels/internal\common.h ****   int headroom_plus_one = CountLeadingZeros(static_cast<uint32_t>(x));
 628:C:/Renesas/e2studio_2021_01_workspace_RZA2M_ANPR/ANPR_RZA2M_EBK/src/tensorflow_lite/tensorflow/lite/kernels/internal\common.h ****   // This is the number of bits to the left of the binary point above 1.0.
 629:C:/Renesas/e2studio_2021_01_workspace_RZA2M_ANPR/ANPR_RZA2M_EBK/src/tensorflow_lite/tensorflow/lite/kernels/internal\common.h ****   // Consider x=1.25.  In that case shifted_scale=0.8 and
 630:C:/Renesas/e2studio_2021_01_workspace_RZA2M_ANPR/ANPR_RZA2M_EBK/src/tensorflow_lite/tensorflow/lite/kernels/internal\common.h ****   // no later adjustment will be needed.
 631:C:/Renesas/e2studio_2021_01_workspace_RZA2M_ANPR/ANPR_RZA2M_EBK/src/tensorflow_lite/tensorflow/lite/kernels/internal\common.h ****   *num_bits_over_unit = x_integer_digits - headroom_plus_one;
 632:C:/Renesas/e2studio_2021_01_workspace_RZA2M_ANPR/ANPR_RZA2M_EBK/src/tensorflow_lite/tensorflow/lite/kernels/internal\common.h ****   const int32_t shifted_sum_minus_one =
 633:C:/Renesas/e2studio_2021_01_workspace_RZA2M_ANPR/ANPR_RZA2M_EBK/src/tensorflow_lite/tensorflow/lite/kernels/internal\common.h ****       static_cast<int32_t>((static_cast<uint32_t>(x) << headroom_plus_one) -
 634:C:/Renesas/e2studio_2021_01_workspace_RZA2M_ANPR/ANPR_RZA2M_EBK/src/tensorflow_lite/tensorflow/lite/kernels/internal\common.h ****                            (static_cast<uint32_t>(1) << 31));
 635:C:/Renesas/e2studio_2021_01_workspace_RZA2M_ANPR/ANPR_RZA2M_EBK/src/tensorflow_lite/tensorflow/lite/kernels/internal\common.h **** 
 636:C:/Renesas/e2studio_2021_01_workspace_RZA2M_ANPR/ANPR_RZA2M_EBK/src/tensorflow_lite/tensorflow/lite/kernels/internal\common.h ****   gemmlowp::FixedPoint<int32_t, 0> shifted_scale =
 637:C:/Renesas/e2studio_2021_01_workspace_RZA2M_ANPR/ANPR_RZA2M_EBK/src/tensorflow_lite/tensorflow/lite/kernels/internal\common.h ****       gemmlowp::one_over_one_plus_x_for_x_in_0_1(
 638:C:/Renesas/e2studio_2021_01_workspace_RZA2M_ANPR/ANPR_RZA2M_EBK/src/tensorflow_lite/tensorflow/lite/kernels/internal\common.h ****           gemmlowp::FixedPoint<int32_t, 0>::FromRaw(shifted_sum_minus_one));
 639:C:/Renesas/e2studio_2021_01_workspace_RZA2M_ANPR/ANPR_RZA2M_EBK/src/tensorflow_lite/tensorflow/lite/kernels/internal\common.h ****   return shifted_scale.raw();
 640:C:/Renesas/e2studio_2021_01_workspace_RZA2M_ANPR/ANPR_RZA2M_EBK/src/tensorflow_lite/tensorflow/lite/kernels/internal\common.h **** }
 641:C:/Renesas/e2studio_2021_01_workspace_RZA2M_ANPR/ANPR_RZA2M_EBK/src/tensorflow_lite/tensorflow/lite/kernels/internal\common.h **** 
 642:C:/Renesas/e2studio_2021_01_workspace_RZA2M_ANPR/ANPR_RZA2M_EBK/src/tensorflow_lite/tensorflow/lite/kernels/internal\common.h **** inline void GetInvSqrtQuantizedMultiplierExp(int32_t input, int reverse_shift,
 643:C:/Renesas/e2studio_2021_01_workspace_RZA2M_ANPR/ANPR_RZA2M_EBK/src/tensorflow_lite/tensorflow/lite/kernels/internal\common.h ****                                              int32_t* output_inv_sqrt,
 644:C:/Renesas/e2studio_2021_01_workspace_RZA2M_ANPR/ANPR_RZA2M_EBK/src/tensorflow_lite/tensorflow/lite/kernels/internal\common.h ****                                              int* output_shift) {
 645:C:/Renesas/e2studio_2021_01_workspace_RZA2M_ANPR/ANPR_RZA2M_EBK/src/tensorflow_lite/tensorflow/lite/kernels/internal\common.h ****   TFLITE_DCHECK_GE(input, 0);
 646:C:/Renesas/e2studio_2021_01_workspace_RZA2M_ANPR/ANPR_RZA2M_EBK/src/tensorflow_lite/tensorflow/lite/kernels/internal\common.h ****   if (input <= 1) {
 647:C:/Renesas/e2studio_2021_01_workspace_RZA2M_ANPR/ANPR_RZA2M_EBK/src/tensorflow_lite/tensorflow/lite/kernels/internal\common.h ****     // Handle the input value 1 separately to avoid overflow in that case
 648:C:/Renesas/e2studio_2021_01_workspace_RZA2M_ANPR/ANPR_RZA2M_EBK/src/tensorflow_lite/tensorflow/lite/kernels/internal\common.h ****     // in the general computation below (b/143972021). Also handle 0 as if it
 649:C:/Renesas/e2studio_2021_01_workspace_RZA2M_ANPR/ANPR_RZA2M_EBK/src/tensorflow_lite/tensorflow/lite/kernels/internal\common.h ****     // were a 1. 0 is an invalid input here (divide by zero) and 1 is a valid
 650:C:/Renesas/e2studio_2021_01_workspace_RZA2M_ANPR/ANPR_RZA2M_EBK/src/tensorflow_lite/tensorflow/lite/kernels/internal\common.h ****     // but rare/unrealistic input value. We can expect both to occur in some
 651:C:/Renesas/e2studio_2021_01_workspace_RZA2M_ANPR/ANPR_RZA2M_EBK/src/tensorflow_lite/tensorflow/lite/kernels/internal\common.h ****     // incompletely trained models, but probably not in fully trained models.
 652:C:/Renesas/e2studio_2021_01_workspace_RZA2M_ANPR/ANPR_RZA2M_EBK/src/tensorflow_lite/tensorflow/lite/kernels/internal\common.h ****     *output_inv_sqrt = std::numeric_limits<std::int32_t>::max();
 653:C:/Renesas/e2studio_2021_01_workspace_RZA2M_ANPR/ANPR_RZA2M_EBK/src/tensorflow_lite/tensorflow/lite/kernels/internal\common.h ****     *output_shift = 0;
 654:C:/Renesas/e2studio_2021_01_workspace_RZA2M_ANPR/ANPR_RZA2M_EBK/src/tensorflow_lite/tensorflow/lite/kernels/internal\common.h ****     return;
 655:C:/Renesas/e2studio_2021_01_workspace_RZA2M_ANPR/ANPR_RZA2M_EBK/src/tensorflow_lite/tensorflow/lite/kernels/internal\common.h ****   }
 656:C:/Renesas/e2studio_2021_01_workspace_RZA2M_ANPR/ANPR_RZA2M_EBK/src/tensorflow_lite/tensorflow/lite/kernels/internal\common.h ****   TFLITE_DCHECK_GT(input, 1);
 657:C:/Renesas/e2studio_2021_01_workspace_RZA2M_ANPR/ANPR_RZA2M_EBK/src/tensorflow_lite/tensorflow/lite/kernels/internal\common.h ****   *output_shift = 11;
 658:C:/Renesas/e2studio_2021_01_workspace_RZA2M_ANPR/ANPR_RZA2M_EBK/src/tensorflow_lite/tensorflow/lite/kernels/internal\common.h ****   while (input >= (1 << 29)) {
 659:C:/Renesas/e2studio_2021_01_workspace_RZA2M_ANPR/ANPR_RZA2M_EBK/src/tensorflow_lite/tensorflow/lite/kernels/internal\common.h ****     input /= 4;
 660:C:/Renesas/e2studio_2021_01_workspace_RZA2M_ANPR/ANPR_RZA2M_EBK/src/tensorflow_lite/tensorflow/lite/kernels/internal\common.h ****     ++*output_shift;
 661:C:/Renesas/e2studio_2021_01_workspace_RZA2M_ANPR/ANPR_RZA2M_EBK/src/tensorflow_lite/tensorflow/lite/kernels/internal\common.h ****   }
 662:C:/Renesas/e2studio_2021_01_workspace_RZA2M_ANPR/ANPR_RZA2M_EBK/src/tensorflow_lite/tensorflow/lite/kernels/internal\common.h ****   const unsigned max_left_shift_bits =
 663:C:/Renesas/e2studio_2021_01_workspace_RZA2M_ANPR/ANPR_RZA2M_EBK/src/tensorflow_lite/tensorflow/lite/kernels/internal\common.h ****       CountLeadingZeros(static_cast<uint32_t>(input)) - 1;
 664:C:/Renesas/e2studio_2021_01_workspace_RZA2M_ANPR/ANPR_RZA2M_EBK/src/tensorflow_lite/tensorflow/lite/kernels/internal\common.h ****   const unsigned max_left_shift_bit_pairs = max_left_shift_bits / 2;
 665:C:/Renesas/e2studio_2021_01_workspace_RZA2M_ANPR/ANPR_RZA2M_EBK/src/tensorflow_lite/tensorflow/lite/kernels/internal\common.h ****   const unsigned left_shift_bit_pairs = max_left_shift_bit_pairs - 1;
 666:C:/Renesas/e2studio_2021_01_workspace_RZA2M_ANPR/ANPR_RZA2M_EBK/src/tensorflow_lite/tensorflow/lite/kernels/internal\common.h ****   *output_shift -= left_shift_bit_pairs;
 667:C:/Renesas/e2studio_2021_01_workspace_RZA2M_ANPR/ANPR_RZA2M_EBK/src/tensorflow_lite/tensorflow/lite/kernels/internal\common.h ****   input <<= 2 * left_shift_bit_pairs;
 668:C:/Renesas/e2studio_2021_01_workspace_RZA2M_ANPR/ANPR_RZA2M_EBK/src/tensorflow_lite/tensorflow/lite/kernels/internal\common.h ****   TFLITE_DCHECK_GE(input, (1 << 27));
 669:C:/Renesas/e2studio_2021_01_workspace_RZA2M_ANPR/ANPR_RZA2M_EBK/src/tensorflow_lite/tensorflow/lite/kernels/internal\common.h ****   TFLITE_DCHECK_LT(input, (1 << 29));
 670:C:/Renesas/e2studio_2021_01_workspace_RZA2M_ANPR/ANPR_RZA2M_EBK/src/tensorflow_lite/tensorflow/lite/kernels/internal\common.h ****   using gemmlowp::FixedPoint;
 671:C:/Renesas/e2studio_2021_01_workspace_RZA2M_ANPR/ANPR_RZA2M_EBK/src/tensorflow_lite/tensorflow/lite/kernels/internal\common.h ****   using gemmlowp::Rescale;
 672:C:/Renesas/e2studio_2021_01_workspace_RZA2M_ANPR/ANPR_RZA2M_EBK/src/tensorflow_lite/tensorflow/lite/kernels/internal\common.h ****   using gemmlowp::SaturatingRoundingMultiplyByPOT;
 673:C:/Renesas/e2studio_2021_01_workspace_RZA2M_ANPR/ANPR_RZA2M_EBK/src/tensorflow_lite/tensorflow/lite/kernels/internal\common.h ****   // Using 3 integer bits gives us enough room for the internal arithmetic in
 674:C:/Renesas/e2studio_2021_01_workspace_RZA2M_ANPR/ANPR_RZA2M_EBK/src/tensorflow_lite/tensorflow/lite/kernels/internal\common.h ****   // this Newton-Raphson iteration.
 675:C:/Renesas/e2studio_2021_01_workspace_RZA2M_ANPR/ANPR_RZA2M_EBK/src/tensorflow_lite/tensorflow/lite/kernels/internal\common.h ****   using F3 = FixedPoint<int32_t, 3>;
 676:C:/Renesas/e2studio_2021_01_workspace_RZA2M_ANPR/ANPR_RZA2M_EBK/src/tensorflow_lite/tensorflow/lite/kernels/internal\common.h ****   using F0 = FixedPoint<int32_t, 0>;
 677:C:/Renesas/e2studio_2021_01_workspace_RZA2M_ANPR/ANPR_RZA2M_EBK/src/tensorflow_lite/tensorflow/lite/kernels/internal\common.h ****   const F3 fixedpoint_input = F3::FromRaw(input >> 1);
 678:C:/Renesas/e2studio_2021_01_workspace_RZA2M_ANPR/ANPR_RZA2M_EBK/src/tensorflow_lite/tensorflow/lite/kernels/internal\common.h ****   const F3 fixedpoint_half_input =
 679:C:/Renesas/e2studio_2021_01_workspace_RZA2M_ANPR/ANPR_RZA2M_EBK/src/tensorflow_lite/tensorflow/lite/kernels/internal\common.h ****       SaturatingRoundingMultiplyByPOT<-1>(fixedpoint_input);
 680:C:/Renesas/e2studio_2021_01_workspace_RZA2M_ANPR/ANPR_RZA2M_EBK/src/tensorflow_lite/tensorflow/lite/kernels/internal\common.h ****   const F3 fixedpoint_half_three =
 681:C:/Renesas/e2studio_2021_01_workspace_RZA2M_ANPR/ANPR_RZA2M_EBK/src/tensorflow_lite/tensorflow/lite/kernels/internal\common.h ****       GEMMLOWP_CHECKED_FIXEDPOINT_CONSTANT(F3, (1 << 28) + (1 << 27), 1.5);
 682:C:/Renesas/e2studio_2021_01_workspace_RZA2M_ANPR/ANPR_RZA2M_EBK/src/tensorflow_lite/tensorflow/lite/kernels/internal\common.h ****   // Newton-Raphson iteration
 683:C:/Renesas/e2studio_2021_01_workspace_RZA2M_ANPR/ANPR_RZA2M_EBK/src/tensorflow_lite/tensorflow/lite/kernels/internal\common.h ****   // Naive unoptimized starting guess: x = 1
 684:C:/Renesas/e2studio_2021_01_workspace_RZA2M_ANPR/ANPR_RZA2M_EBK/src/tensorflow_lite/tensorflow/lite/kernels/internal\common.h ****   F3 x = F3::One();
 685:C:/Renesas/e2studio_2021_01_workspace_RZA2M_ANPR/ANPR_RZA2M_EBK/src/tensorflow_lite/tensorflow/lite/kernels/internal\common.h ****   // Naive unoptimized number of iterations: 5
 686:C:/Renesas/e2studio_2021_01_workspace_RZA2M_ANPR/ANPR_RZA2M_EBK/src/tensorflow_lite/tensorflow/lite/kernels/internal\common.h ****   for (int i = 0; i < 5; i++) {
 687:C:/Renesas/e2studio_2021_01_workspace_RZA2M_ANPR/ANPR_RZA2M_EBK/src/tensorflow_lite/tensorflow/lite/kernels/internal\common.h ****     const F3 x3 = Rescale<3>(x * x * x);
 688:C:/Renesas/e2studio_2021_01_workspace_RZA2M_ANPR/ANPR_RZA2M_EBK/src/tensorflow_lite/tensorflow/lite/kernels/internal\common.h ****     x = Rescale<3>(fixedpoint_half_three * x - fixedpoint_half_input * x3);
 689:C:/Renesas/e2studio_2021_01_workspace_RZA2M_ANPR/ANPR_RZA2M_EBK/src/tensorflow_lite/tensorflow/lite/kernels/internal\common.h ****   }
 690:C:/Renesas/e2studio_2021_01_workspace_RZA2M_ANPR/ANPR_RZA2M_EBK/src/tensorflow_lite/tensorflow/lite/kernels/internal\common.h ****   const F0 fixedpoint_half_sqrt_2 =
 691:C:/Renesas/e2studio_2021_01_workspace_RZA2M_ANPR/ANPR_RZA2M_EBK/src/tensorflow_lite/tensorflow/lite/kernels/internal\common.h ****       GEMMLOWP_CHECKED_FIXEDPOINT_CONSTANT(F0, 1518500250, std::sqrt(2.) / 2.);
 692:C:/Renesas/e2studio_2021_01_workspace_RZA2M_ANPR/ANPR_RZA2M_EBK/src/tensorflow_lite/tensorflow/lite/kernels/internal\common.h ****   x = x * fixedpoint_half_sqrt_2;
 693:C:/Renesas/e2studio_2021_01_workspace_RZA2M_ANPR/ANPR_RZA2M_EBK/src/tensorflow_lite/tensorflow/lite/kernels/internal\common.h ****   *output_inv_sqrt = x.raw();
 694:C:/Renesas/e2studio_2021_01_workspace_RZA2M_ANPR/ANPR_RZA2M_EBK/src/tensorflow_lite/tensorflow/lite/kernels/internal\common.h ****   if (*output_shift < 0) {
 695:C:/Renesas/e2studio_2021_01_workspace_RZA2M_ANPR/ANPR_RZA2M_EBK/src/tensorflow_lite/tensorflow/lite/kernels/internal\common.h ****     *output_inv_sqrt <<= -*output_shift;
 696:C:/Renesas/e2studio_2021_01_workspace_RZA2M_ANPR/ANPR_RZA2M_EBK/src/tensorflow_lite/tensorflow/lite/kernels/internal\common.h ****     *output_shift = 0;
 697:C:/Renesas/e2studio_2021_01_workspace_RZA2M_ANPR/ANPR_RZA2M_EBK/src/tensorflow_lite/tensorflow/lite/kernels/internal\common.h ****   }
 698:C:/Renesas/e2studio_2021_01_workspace_RZA2M_ANPR/ANPR_RZA2M_EBK/src/tensorflow_lite/tensorflow/lite/kernels/internal\common.h ****   // Convert right shift (right is positive) to left shift.
 699:C:/Renesas/e2studio_2021_01_workspace_RZA2M_ANPR/ANPR_RZA2M_EBK/src/tensorflow_lite/tensorflow/lite/kernels/internal\common.h ****   *output_shift *= reverse_shift;
 700:C:/Renesas/e2studio_2021_01_workspace_RZA2M_ANPR/ANPR_RZA2M_EBK/src/tensorflow_lite/tensorflow/lite/kernels/internal\common.h **** }
 701:C:/Renesas/e2studio_2021_01_workspace_RZA2M_ANPR/ANPR_RZA2M_EBK/src/tensorflow_lite/tensorflow/lite/kernels/internal\common.h **** 
 702:C:/Renesas/e2studio_2021_01_workspace_RZA2M_ANPR/ANPR_RZA2M_EBK/src/tensorflow_lite/tensorflow/lite/kernels/internal\common.h **** // DO NOT USE THIS STRUCT FOR NEW FUNCTIONALITY BEYOND IMPLEMENTING
 703:C:/Renesas/e2studio_2021_01_workspace_RZA2M_ANPR/ANPR_RZA2M_EBK/src/tensorflow_lite/tensorflow/lite/kernels/internal\common.h **** // BROADCASTING.
 704:C:/Renesas/e2studio_2021_01_workspace_RZA2M_ANPR/ANPR_RZA2M_EBK/src/tensorflow_lite/tensorflow/lite/kernels/internal\common.h **** //
 705:C:/Renesas/e2studio_2021_01_workspace_RZA2M_ANPR/ANPR_RZA2M_EBK/src/tensorflow_lite/tensorflow/lite/kernels/internal\common.h **** // NdArrayDesc<N> describes the shape and memory layout of an N-dimensional
 706:C:/Renesas/e2studio_2021_01_workspace_RZA2M_ANPR/ANPR_RZA2M_EBK/src/tensorflow_lite/tensorflow/lite/kernels/internal\common.h **** // rectangular array of numbers.
 707:C:/Renesas/e2studio_2021_01_workspace_RZA2M_ANPR/ANPR_RZA2M_EBK/src/tensorflow_lite/tensorflow/lite/kernels/internal\common.h **** //
 708:C:/Renesas/e2studio_2021_01_workspace_RZA2M_ANPR/ANPR_RZA2M_EBK/src/tensorflow_lite/tensorflow/lite/kernels/internal\common.h **** // NdArrayDesc<N> is basically identical to Dims<N> defined in types.h.
 709:C:/Renesas/e2studio_2021_01_workspace_RZA2M_ANPR/ANPR_RZA2M_EBK/src/tensorflow_lite/tensorflow/lite/kernels/internal\common.h **** // However, as Dims<N> is to be deprecated, this class exists as an adaptor
 710:C:/Renesas/e2studio_2021_01_workspace_RZA2M_ANPR/ANPR_RZA2M_EBK/src/tensorflow_lite/tensorflow/lite/kernels/internal\common.h **** // to enable simple unoptimized implementations of element-wise broadcasting
 711:C:/Renesas/e2studio_2021_01_workspace_RZA2M_ANPR/ANPR_RZA2M_EBK/src/tensorflow_lite/tensorflow/lite/kernels/internal\common.h **** // operations.
 712:C:/Renesas/e2studio_2021_01_workspace_RZA2M_ANPR/ANPR_RZA2M_EBK/src/tensorflow_lite/tensorflow/lite/kernels/internal\common.h **** template <int N>
 713:C:/Renesas/e2studio_2021_01_workspace_RZA2M_ANPR/ANPR_RZA2M_EBK/src/tensorflow_lite/tensorflow/lite/kernels/internal\common.h **** struct NdArrayDesc {
 714:C:/Renesas/e2studio_2021_01_workspace_RZA2M_ANPR/ANPR_RZA2M_EBK/src/tensorflow_lite/tensorflow/lite/kernels/internal\common.h ****   // The "extent" of each dimension. Indices along dimension d must be in the
