   1              		.cpu cortex-a9
   2              		.eabi_attribute 28, 1
   3              		.eabi_attribute 20, 1
   4              		.eabi_attribute 21, 1
   5              		.eabi_attribute 23, 3
   6              		.eabi_attribute 24, 1
   7              		.eabi_attribute 25, 1
   8              		.eabi_attribute 26, 1
   9              		.eabi_attribute 30, 2
  10              		.eabi_attribute 34, 0
  11              		.eabi_attribute 18, 4
  12              		.file	"strided_slice.cc"
  13              		.text
  14              	.Ltext0:
  15              		.cfi_sections	.debug_frame
  16              		.section	.text._ZN6tflite3ops5micro13strided_slice4InitEP13TfLiteContextPKcj,"ax",%progbits
  17              		.align	2
  18              		.global	_ZN6tflite3ops5micro13strided_slice4InitEP13TfLiteContextPKcj
  19              		.syntax unified
  20              		.arm
  21              		.fpu neon
  23              	_ZN6tflite3ops5micro13strided_slice4InitEP13TfLiteContextPKcj:
  24              		.fnstart
  25              	.LFB4519:
  26              		.file 1 "../src/tensorflow_lite/tensorflow/lite/micro/kernels/strided_slice.cc"
   1:../src/tensorflow_lite/tensorflow/lite/micro/kernels/strided_slice.cc **** /* Copyright 2018 The TensorFlow Authors. All Rights Reserved.
   2:../src/tensorflow_lite/tensorflow/lite/micro/kernels/strided_slice.cc **** 
   3:../src/tensorflow_lite/tensorflow/lite/micro/kernels/strided_slice.cc **** Licensed under the Apache License, Version 2.0 (the "License");
   4:../src/tensorflow_lite/tensorflow/lite/micro/kernels/strided_slice.cc **** you may not use this file except in compliance with the License.
   5:../src/tensorflow_lite/tensorflow/lite/micro/kernels/strided_slice.cc **** You may obtain a copy of the License at
   6:../src/tensorflow_lite/tensorflow/lite/micro/kernels/strided_slice.cc **** 
   7:../src/tensorflow_lite/tensorflow/lite/micro/kernels/strided_slice.cc ****     http://www.apache.org/licenses/LICENSE-2.0
   8:../src/tensorflow_lite/tensorflow/lite/micro/kernels/strided_slice.cc **** 
   9:../src/tensorflow_lite/tensorflow/lite/micro/kernels/strided_slice.cc **** Unless required by applicable law or agreed to in writing, software
  10:../src/tensorflow_lite/tensorflow/lite/micro/kernels/strided_slice.cc **** distributed under the License is distributed on an "AS IS" BASIS,
  11:../src/tensorflow_lite/tensorflow/lite/micro/kernels/strided_slice.cc **** WITHOUT WARRANTIES OR CONDITIONS OF ANY KIND, either express or implied.
  12:../src/tensorflow_lite/tensorflow/lite/micro/kernels/strided_slice.cc **** See the License for the specific language governing permissions and
  13:../src/tensorflow_lite/tensorflow/lite/micro/kernels/strided_slice.cc **** limitations under the License.
  14:../src/tensorflow_lite/tensorflow/lite/micro/kernels/strided_slice.cc **** ==============================================================================*/
  15:../src/tensorflow_lite/tensorflow/lite/micro/kernels/strided_slice.cc **** #include "tensorflow/lite/kernels/internal/reference/strided_slice.h"
  16:../src/tensorflow_lite/tensorflow/lite/micro/kernels/strided_slice.cc **** 
  17:../src/tensorflow_lite/tensorflow/lite/micro/kernels/strided_slice.cc **** #include <cmath>
  18:../src/tensorflow_lite/tensorflow/lite/micro/kernels/strided_slice.cc **** #include <cstring>
  19:../src/tensorflow_lite/tensorflow/lite/micro/kernels/strided_slice.cc **** 
  20:../src/tensorflow_lite/tensorflow/lite/micro/kernels/strided_slice.cc **** #include "tensorflow/lite/c/builtin_op_data.h"
  21:../src/tensorflow_lite/tensorflow/lite/micro/kernels/strided_slice.cc **** #include "tensorflow/lite/c/common.h"
  22:../src/tensorflow_lite/tensorflow/lite/micro/kernels/strided_slice.cc **** #include "tensorflow/lite/kernels/internal/tensor_ctypes.h"
  23:../src/tensorflow_lite/tensorflow/lite/micro/kernels/strided_slice.cc **** #include "tensorflow/lite/kernels/kernel_util.h"
  24:../src/tensorflow_lite/tensorflow/lite/micro/kernels/strided_slice.cc **** #include "tensorflow/lite/kernels/op_macros.h"
  25:../src/tensorflow_lite/tensorflow/lite/micro/kernels/strided_slice.cc **** #include "tensorflow/lite/micro/kernels/kernel_util.h"
  26:../src/tensorflow_lite/tensorflow/lite/micro/kernels/strided_slice.cc **** 
  27:../src/tensorflow_lite/tensorflow/lite/micro/kernels/strided_slice.cc **** namespace tflite {
  28:../src/tensorflow_lite/tensorflow/lite/micro/kernels/strided_slice.cc **** namespace ops {
  29:../src/tensorflow_lite/tensorflow/lite/micro/kernels/strided_slice.cc **** namespace micro {
  30:../src/tensorflow_lite/tensorflow/lite/micro/kernels/strided_slice.cc **** namespace strided_slice {
  31:../src/tensorflow_lite/tensorflow/lite/micro/kernels/strided_slice.cc **** 
  32:../src/tensorflow_lite/tensorflow/lite/micro/kernels/strided_slice.cc **** constexpr int kInputTensor = 0;
  33:../src/tensorflow_lite/tensorflow/lite/micro/kernels/strided_slice.cc **** constexpr int kBeginTensor = 1;
  34:../src/tensorflow_lite/tensorflow/lite/micro/kernels/strided_slice.cc **** constexpr int kEndTensor = 2;
  35:../src/tensorflow_lite/tensorflow/lite/micro/kernels/strided_slice.cc **** constexpr int kStridesTensor = 3;
  36:../src/tensorflow_lite/tensorflow/lite/micro/kernels/strided_slice.cc **** constexpr int kOutputTensor = 0;
  37:../src/tensorflow_lite/tensorflow/lite/micro/kernels/strided_slice.cc **** 
  38:../src/tensorflow_lite/tensorflow/lite/micro/kernels/strided_slice.cc **** struct StridedSliceContext {
  39:../src/tensorflow_lite/tensorflow/lite/micro/kernels/strided_slice.cc ****   StridedSliceContext(TfLiteContext* context, TfLiteNode* node) {
  40:../src/tensorflow_lite/tensorflow/lite/micro/kernels/strided_slice.cc ****     params = reinterpret_cast<TfLiteStridedSliceParams*>(node->builtin_data);
  41:../src/tensorflow_lite/tensorflow/lite/micro/kernels/strided_slice.cc ****     input = GetInput(context, node, kInputTensor);
  42:../src/tensorflow_lite/tensorflow/lite/micro/kernels/strided_slice.cc ****     begin = GetInput(context, node, kBeginTensor);
  43:../src/tensorflow_lite/tensorflow/lite/micro/kernels/strided_slice.cc ****     end = GetInput(context, node, kEndTensor);
  44:../src/tensorflow_lite/tensorflow/lite/micro/kernels/strided_slice.cc ****     strides = GetInput(context, node, kStridesTensor);
  45:../src/tensorflow_lite/tensorflow/lite/micro/kernels/strided_slice.cc ****     output = GetOutput(context, node, kOutputTensor);
  46:../src/tensorflow_lite/tensorflow/lite/micro/kernels/strided_slice.cc ****     dims = NumDimensions(input);
  47:../src/tensorflow_lite/tensorflow/lite/micro/kernels/strided_slice.cc ****   }
  48:../src/tensorflow_lite/tensorflow/lite/micro/kernels/strided_slice.cc ****   const TfLiteStridedSliceParams* params;
  49:../src/tensorflow_lite/tensorflow/lite/micro/kernels/strided_slice.cc ****   const TfLiteTensor* input;
  50:../src/tensorflow_lite/tensorflow/lite/micro/kernels/strided_slice.cc ****   const TfLiteTensor* begin;
  51:../src/tensorflow_lite/tensorflow/lite/micro/kernels/strided_slice.cc ****   const TfLiteTensor* end;
  52:../src/tensorflow_lite/tensorflow/lite/micro/kernels/strided_slice.cc ****   const TfLiteTensor* strides;
  53:../src/tensorflow_lite/tensorflow/lite/micro/kernels/strided_slice.cc ****   TfLiteTensor* output;
  54:../src/tensorflow_lite/tensorflow/lite/micro/kernels/strided_slice.cc ****   int dims;
  55:../src/tensorflow_lite/tensorflow/lite/micro/kernels/strided_slice.cc **** };
  56:../src/tensorflow_lite/tensorflow/lite/micro/kernels/strided_slice.cc **** 
  57:../src/tensorflow_lite/tensorflow/lite/micro/kernels/strided_slice.cc **** // This Op only supports 1-4D cases and since we use the reference 4D
  58:../src/tensorflow_lite/tensorflow/lite/micro/kernels/strided_slice.cc **** // implementation, the 1-3D tensors are mapped to 4D.
  59:../src/tensorflow_lite/tensorflow/lite/micro/kernels/strided_slice.cc **** const int kMaxDim = 4;
  60:../src/tensorflow_lite/tensorflow/lite/micro/kernels/strided_slice.cc **** 
  61:../src/tensorflow_lite/tensorflow/lite/micro/kernels/strided_slice.cc **** tflite::StridedSliceParams BuildStridedSliceParams(
  62:../src/tensorflow_lite/tensorflow/lite/micro/kernels/strided_slice.cc ****     StridedSliceContext* op_context) {
  63:../src/tensorflow_lite/tensorflow/lite/micro/kernels/strided_slice.cc ****   tflite::StridedSliceParams op_params;
  64:../src/tensorflow_lite/tensorflow/lite/micro/kernels/strided_slice.cc ****   op_params.start_indices_count = op_context->dims;
  65:../src/tensorflow_lite/tensorflow/lite/micro/kernels/strided_slice.cc ****   op_params.stop_indices_count = op_context->dims;
  66:../src/tensorflow_lite/tensorflow/lite/micro/kernels/strided_slice.cc ****   op_params.strides_count = op_context->dims;
  67:../src/tensorflow_lite/tensorflow/lite/micro/kernels/strided_slice.cc **** 
  68:../src/tensorflow_lite/tensorflow/lite/micro/kernels/strided_slice.cc ****   for (int i = 0; i < op_context->dims; ++i) {
  69:../src/tensorflow_lite/tensorflow/lite/micro/kernels/strided_slice.cc ****     op_params.start_indices[i] = GetTensorData<int32_t>(op_context->begin)[i];
  70:../src/tensorflow_lite/tensorflow/lite/micro/kernels/strided_slice.cc ****     op_params.stop_indices[i] = GetTensorData<int32_t>(op_context->end)[i];
  71:../src/tensorflow_lite/tensorflow/lite/micro/kernels/strided_slice.cc ****     op_params.strides[i] = GetTensorData<int32_t>(op_context->strides)[i];
  72:../src/tensorflow_lite/tensorflow/lite/micro/kernels/strided_slice.cc ****   }
  73:../src/tensorflow_lite/tensorflow/lite/micro/kernels/strided_slice.cc **** 
  74:../src/tensorflow_lite/tensorflow/lite/micro/kernels/strided_slice.cc ****   op_params.begin_mask = op_context->params->begin_mask;
  75:../src/tensorflow_lite/tensorflow/lite/micro/kernels/strided_slice.cc ****   op_params.ellipsis_mask = 0;
  76:../src/tensorflow_lite/tensorflow/lite/micro/kernels/strided_slice.cc ****   op_params.end_mask = op_context->params->end_mask;
  77:../src/tensorflow_lite/tensorflow/lite/micro/kernels/strided_slice.cc ****   op_params.new_axis_mask = 0;
  78:../src/tensorflow_lite/tensorflow/lite/micro/kernels/strided_slice.cc ****   op_params.shrink_axis_mask = op_context->params->shrink_axis_mask;
  79:../src/tensorflow_lite/tensorflow/lite/micro/kernels/strided_slice.cc ****   return op_params;
  80:../src/tensorflow_lite/tensorflow/lite/micro/kernels/strided_slice.cc **** }
  81:../src/tensorflow_lite/tensorflow/lite/micro/kernels/strided_slice.cc **** 
  82:../src/tensorflow_lite/tensorflow/lite/micro/kernels/strided_slice.cc **** // Processes the indexing tensors (begin, end and strides) to resize the
  83:../src/tensorflow_lite/tensorflow/lite/micro/kernels/strided_slice.cc **** // output tensor. This function is callable from both Prepare() and Eval() as
  84:../src/tensorflow_lite/tensorflow/lite/micro/kernels/strided_slice.cc **** // long as the caller ensures the indexing tensors are present.
  85:../src/tensorflow_lite/tensorflow/lite/micro/kernels/strided_slice.cc **** TfLiteStatus CheckOutputSize(TfLiteContext* context,
  86:../src/tensorflow_lite/tensorflow/lite/micro/kernels/strided_slice.cc ****                              StridedSliceContext* op_context) {
  87:../src/tensorflow_lite/tensorflow/lite/micro/kernels/strided_slice.cc ****   using ::tflite::strided_slice::StartForAxis;
  88:../src/tensorflow_lite/tensorflow/lite/micro/kernels/strided_slice.cc ****   using ::tflite::strided_slice::StopForAxis;
  89:../src/tensorflow_lite/tensorflow/lite/micro/kernels/strided_slice.cc ****   TfLiteIntArray* output_shape = op_context->output->dims;
  90:../src/tensorflow_lite/tensorflow/lite/micro/kernels/strided_slice.cc ****   int shape_size = 0;
  91:../src/tensorflow_lite/tensorflow/lite/micro/kernels/strided_slice.cc ****   auto op_params = BuildStridedSliceParams(op_context);
  92:../src/tensorflow_lite/tensorflow/lite/micro/kernels/strided_slice.cc ****   auto input_shape = GetTensorShape(op_context->input);
  93:../src/tensorflow_lite/tensorflow/lite/micro/kernels/strided_slice.cc ****   for (int idx = 0; idx < op_context->dims; ++idx) {
  94:../src/tensorflow_lite/tensorflow/lite/micro/kernels/strided_slice.cc ****     int32_t stride = GetTensorData<int32_t>(op_context->strides)[idx];
  95:../src/tensorflow_lite/tensorflow/lite/micro/kernels/strided_slice.cc ****     TF_LITE_ENSURE_MSG(context, stride != 0, "stride value has to be non-zero");
  96:../src/tensorflow_lite/tensorflow/lite/micro/kernels/strided_slice.cc ****     int32_t begin = StartForAxis(op_params, input_shape, idx);
  97:../src/tensorflow_lite/tensorflow/lite/micro/kernels/strided_slice.cc ****     int32_t end = StopForAxis(op_params, input_shape, idx, begin);
  98:../src/tensorflow_lite/tensorflow/lite/micro/kernels/strided_slice.cc **** 
  99:../src/tensorflow_lite/tensorflow/lite/micro/kernels/strided_slice.cc ****     // When shrinking an axis, the end position does not matter (and can be
 100:../src/tensorflow_lite/tensorflow/lite/micro/kernels/strided_slice.cc ****     // incorrect when negative indexing is used, see Issue #19260). Always use
 101:../src/tensorflow_lite/tensorflow/lite/micro/kernels/strided_slice.cc ****     // begin + 1 to generate a length 1 slice, since begin has
 102:../src/tensorflow_lite/tensorflow/lite/micro/kernels/strided_slice.cc ****     // already been adjusted for negative indices by StartForAxis.
 103:../src/tensorflow_lite/tensorflow/lite/micro/kernels/strided_slice.cc ****     const bool shrink_axis = op_context->params->shrink_axis_mask & (1 << idx);
 104:../src/tensorflow_lite/tensorflow/lite/micro/kernels/strided_slice.cc ****     if (shrink_axis) {
 105:../src/tensorflow_lite/tensorflow/lite/micro/kernels/strided_slice.cc ****       end = begin + 1;
 106:../src/tensorflow_lite/tensorflow/lite/micro/kernels/strided_slice.cc ****     }
 107:../src/tensorflow_lite/tensorflow/lite/micro/kernels/strided_slice.cc **** 
 108:../src/tensorflow_lite/tensorflow/lite/micro/kernels/strided_slice.cc ****     // This is valid for both positive and negative strides
 109:../src/tensorflow_lite/tensorflow/lite/micro/kernels/strided_slice.cc ****     int32_t dim_shape = std::ceil((end - begin) / static_cast<float>(stride));
 110:../src/tensorflow_lite/tensorflow/lite/micro/kernels/strided_slice.cc ****     dim_shape = dim_shape < 0 ? 0 : dim_shape;
 111:../src/tensorflow_lite/tensorflow/lite/micro/kernels/strided_slice.cc ****     if (!shrink_axis) {
 112:../src/tensorflow_lite/tensorflow/lite/micro/kernels/strided_slice.cc ****       TF_LITE_ENSURE_EQ(context, output_shape->data[shape_size], dim_shape);
 113:../src/tensorflow_lite/tensorflow/lite/micro/kernels/strided_slice.cc ****       shape_size++;
 114:../src/tensorflow_lite/tensorflow/lite/micro/kernels/strided_slice.cc ****     }
 115:../src/tensorflow_lite/tensorflow/lite/micro/kernels/strided_slice.cc ****   }
 116:../src/tensorflow_lite/tensorflow/lite/micro/kernels/strided_slice.cc ****   TF_LITE_ENSURE_EQ(context, output_shape->size, shape_size);
 117:../src/tensorflow_lite/tensorflow/lite/micro/kernels/strided_slice.cc ****   return kTfLiteOk;
 118:../src/tensorflow_lite/tensorflow/lite/micro/kernels/strided_slice.cc **** }
 119:../src/tensorflow_lite/tensorflow/lite/micro/kernels/strided_slice.cc **** 
 120:../src/tensorflow_lite/tensorflow/lite/micro/kernels/strided_slice.cc **** void* Init(TfLiteContext* context, const char* buffer, size_t length) {
  27              		.loc 1 120 0
  28              		.cfi_startproc
  29              		@ args = 0, pretend = 0, frame = 0
  30              		@ frame_needed = 0, uses_anonymous_args = 0
  31              	.LVL0:
 121:../src/tensorflow_lite/tensorflow/lite/micro/kernels/strided_slice.cc ****   TFLITE_DCHECK(context->AllocatePersistentBuffer != nullptr);
  32              		.loc 1 121 0
  33 0000 383090E5 		ldr	r3, [r0, #56]
  34 0004 000053E3 		cmp	r3, #0
  35 0008 0100000A 		beq	.L7
 122:../src/tensorflow_lite/tensorflow/lite/micro/kernels/strided_slice.cc ****   return context->AllocatePersistentBuffer(context, sizeof(StridedSliceParams));
  36              		.loc 1 122 0
  37 000c 5410A0E3 		mov	r1, #84
  38              	.LVL1:
  39 0010 13FF2FE1 		bx	r3
  40              	.LVL2:
  41              	.L7:
 120:../src/tensorflow_lite/tensorflow/lite/micro/kernels/strided_slice.cc ****   TFLITE_DCHECK(context->AllocatePersistentBuffer != nullptr);
  42              		.loc 1 120 0 discriminator 1
  43 0014 10402DE9 		push	{r4, lr}
  44              		.save {r4, lr}
  45              		.cfi_def_cfa_offset 8
  46              		.cfi_offset 4, -8
  47              		.cfi_offset 14, -4
 121:../src/tensorflow_lite/tensorflow/lite/micro/kernels/strided_slice.cc ****   TFLITE_DCHECK(context->AllocatePersistentBuffer != nullptr);
  48              		.loc 1 121 0 discriminator 1
  49 0018 FEFFFFEB 		bl	abort
  50              	.LVL3:
  51              		.cfi_endproc
  52              	.LFE4519:
  53              		.fnend
  55              		.section	.text._ZN6tflite3ops5micro13strided_slice4EvalEP13TfLiteContextP10TfLiteNode,"ax",%progbi
  56              		.align	2
  57              		.global	_ZN6tflite3ops5micro13strided_slice4EvalEP13TfLiteContextP10TfLiteNode
  58              		.syntax unified
  59              		.arm
  60              		.fpu neon
  62              	_ZN6tflite3ops5micro13strided_slice4EvalEP13TfLiteContextP10TfLiteNode:
  63              		.fnstart
  64              	.LFB4521:
 123:../src/tensorflow_lite/tensorflow/lite/micro/kernels/strided_slice.cc **** }
 124:../src/tensorflow_lite/tensorflow/lite/micro/kernels/strided_slice.cc **** 
 125:../src/tensorflow_lite/tensorflow/lite/micro/kernels/strided_slice.cc **** TfLiteStatus Prepare(TfLiteContext* context, TfLiteNode* node) {
 126:../src/tensorflow_lite/tensorflow/lite/micro/kernels/strided_slice.cc ****   TFLITE_DCHECK(node->user_data != nullptr);
 127:../src/tensorflow_lite/tensorflow/lite/micro/kernels/strided_slice.cc ****   StridedSliceParams* op_params =
 128:../src/tensorflow_lite/tensorflow/lite/micro/kernels/strided_slice.cc ****       static_cast<StridedSliceParams*>(node->user_data);
 129:../src/tensorflow_lite/tensorflow/lite/micro/kernels/strided_slice.cc ****   TF_LITE_ENSURE_EQ(context, NumInputs(node), 4);
 130:../src/tensorflow_lite/tensorflow/lite/micro/kernels/strided_slice.cc ****   TF_LITE_ENSURE_EQ(context, NumOutputs(node), 1);
 131:../src/tensorflow_lite/tensorflow/lite/micro/kernels/strided_slice.cc ****   StridedSliceContext op_context(context, node);
 132:../src/tensorflow_lite/tensorflow/lite/micro/kernels/strided_slice.cc ****   TF_LITE_ENSURE_MSG(context, op_context.dims <= kMaxDim,
 133:../src/tensorflow_lite/tensorflow/lite/micro/kernels/strided_slice.cc ****                      "input dim should not exceed 4");
 134:../src/tensorflow_lite/tensorflow/lite/micro/kernels/strided_slice.cc ****   auto params = BuildStridedSliceParams(&op_context);
 135:../src/tensorflow_lite/tensorflow/lite/micro/kernels/strided_slice.cc ****   memcpy(op_params, &params, sizeof(StridedSliceParams));
 136:../src/tensorflow_lite/tensorflow/lite/micro/kernels/strided_slice.cc ****   return CheckOutputSize(context, &op_context);
 137:../src/tensorflow_lite/tensorflow/lite/micro/kernels/strided_slice.cc **** }
 138:../src/tensorflow_lite/tensorflow/lite/micro/kernels/strided_slice.cc **** 
 139:../src/tensorflow_lite/tensorflow/lite/micro/kernels/strided_slice.cc **** TfLiteStatus Eval(TfLiteContext* context, TfLiteNode* node) {
  65              		.loc 1 139 0
  66              		.cfi_startproc
  67              		.cfi_personality 0,__gxx_personality_v0
  68              		.cfi_lsda 0,.LLSDA4521
  69              		@ args = 0, pretend = 0, frame = 328
  70              		@ frame_needed = 0, uses_anonymous_args = 0
  71              	.LVL4:
  72 0000 F04F2DE9 		push	{r4, r5, r6, r7, r8, r9, r10, fp, lr}
  73              		.save {r4, r5, r6, r7, r8, r9, r10, fp, lr}
  74              		.cfi_def_cfa_offset 36
  75              		.cfi_offset 4, -36
  76              		.cfi_offset 5, -32
  77              		.cfi_offset 6, -28
  78              		.cfi_offset 7, -24
  79              		.cfi_offset 8, -20
  80              		.cfi_offset 9, -16
  81              		.cfi_offset 10, -12
  82              		.cfi_offset 11, -8
  83              		.cfi_offset 14, -4
  84              		.pad #332
  85 0004 53DF4DE2 		sub	sp, sp, #332
  86              		.cfi_def_cfa_offset 368
 140:../src/tensorflow_lite/tensorflow/lite/micro/kernels/strided_slice.cc ****   TFLITE_DCHECK(node->user_data != nullptr);
  87              		.loc 1 140 0
  88 0008 104091E5 		ldr	r4, [r1, #16]
  89 000c 000054E3 		cmp	r4, #0
  90 0010 2100000A 		beq	.L10
  91              	.LBB859:
  92              	.LBB860:
  93              	.LBB861:
  94              		.file 2 "C:/Renesas/e2studio_2021_01_workspace_RZA2M_ANPR/ANPR_RZA2M_EBK/src/tensorflow_lite/tenso
   1:C:/Renesas/e2studio_2021_01_workspace_RZA2M_ANPR/ANPR_RZA2M_EBK/src/tensorflow_lite/tensorflow/lite/micro/kernels\kernel_util.h **** /* Copyright 2020 The TensorFlow Authors. All Rights Reserved.
   2:C:/Renesas/e2studio_2021_01_workspace_RZA2M_ANPR/ANPR_RZA2M_EBK/src/tensorflow_lite/tensorflow/lite/micro/kernels\kernel_util.h **** 
   3:C:/Renesas/e2studio_2021_01_workspace_RZA2M_ANPR/ANPR_RZA2M_EBK/src/tensorflow_lite/tensorflow/lite/micro/kernels\kernel_util.h **** Licensed under the Apache License, Version 2.0 (the "License");
   4:C:/Renesas/e2studio_2021_01_workspace_RZA2M_ANPR/ANPR_RZA2M_EBK/src/tensorflow_lite/tensorflow/lite/micro/kernels\kernel_util.h **** you may not use this file except in compliance with the License.
   5:C:/Renesas/e2studio_2021_01_workspace_RZA2M_ANPR/ANPR_RZA2M_EBK/src/tensorflow_lite/tensorflow/lite/micro/kernels\kernel_util.h **** You may obtain a copy of the License at
   6:C:/Renesas/e2studio_2021_01_workspace_RZA2M_ANPR/ANPR_RZA2M_EBK/src/tensorflow_lite/tensorflow/lite/micro/kernels\kernel_util.h **** 
   7:C:/Renesas/e2studio_2021_01_workspace_RZA2M_ANPR/ANPR_RZA2M_EBK/src/tensorflow_lite/tensorflow/lite/micro/kernels\kernel_util.h ****     http://www.apache.org/licenses/LICENSE-2.0
   8:C:/Renesas/e2studio_2021_01_workspace_RZA2M_ANPR/ANPR_RZA2M_EBK/src/tensorflow_lite/tensorflow/lite/micro/kernels\kernel_util.h **** 
   9:C:/Renesas/e2studio_2021_01_workspace_RZA2M_ANPR/ANPR_RZA2M_EBK/src/tensorflow_lite/tensorflow/lite/micro/kernels\kernel_util.h **** Unless required by applicable law or agreed to in writing, software
  10:C:/Renesas/e2studio_2021_01_workspace_RZA2M_ANPR/ANPR_RZA2M_EBK/src/tensorflow_lite/tensorflow/lite/micro/kernels\kernel_util.h **** distributed under the License is distributed on an "AS IS" BASIS,
  11:C:/Renesas/e2studio_2021_01_workspace_RZA2M_ANPR/ANPR_RZA2M_EBK/src/tensorflow_lite/tensorflow/lite/micro/kernels\kernel_util.h **** WITHOUT WARRANTIES OR CONDITIONS OF ANY KIND, either express or implied.
  12:C:/Renesas/e2studio_2021_01_workspace_RZA2M_ANPR/ANPR_RZA2M_EBK/src/tensorflow_lite/tensorflow/lite/micro/kernels\kernel_util.h **** See the License for the specific language governing permissions and
  13:C:/Renesas/e2studio_2021_01_workspace_RZA2M_ANPR/ANPR_RZA2M_EBK/src/tensorflow_lite/tensorflow/lite/micro/kernels\kernel_util.h **** limitations under the License.
  14:C:/Renesas/e2studio_2021_01_workspace_RZA2M_ANPR/ANPR_RZA2M_EBK/src/tensorflow_lite/tensorflow/lite/micro/kernels\kernel_util.h **** ==============================================================================*/
  15:C:/Renesas/e2studio_2021_01_workspace_RZA2M_ANPR/ANPR_RZA2M_EBK/src/tensorflow_lite/tensorflow/lite/micro/kernels\kernel_util.h **** 
  16:C:/Renesas/e2studio_2021_01_workspace_RZA2M_ANPR/ANPR_RZA2M_EBK/src/tensorflow_lite/tensorflow/lite/micro/kernels\kernel_util.h **** #ifndef TENSORFLOW_LITE_MICRO_KERNELS_KERNEL_UTIL_H_
  17:C:/Renesas/e2studio_2021_01_workspace_RZA2M_ANPR/ANPR_RZA2M_EBK/src/tensorflow_lite/tensorflow/lite/micro/kernels\kernel_util.h **** #define TENSORFLOW_LITE_MICRO_KERNELS_KERNEL_UTIL_H_
  18:C:/Renesas/e2studio_2021_01_workspace_RZA2M_ANPR/ANPR_RZA2M_EBK/src/tensorflow_lite/tensorflow/lite/micro/kernels\kernel_util.h **** 
  19:C:/Renesas/e2studio_2021_01_workspace_RZA2M_ANPR/ANPR_RZA2M_EBK/src/tensorflow_lite/tensorflow/lite/micro/kernels\kernel_util.h **** #include <cstdint>
  20:C:/Renesas/e2studio_2021_01_workspace_RZA2M_ANPR/ANPR_RZA2M_EBK/src/tensorflow_lite/tensorflow/lite/micro/kernels\kernel_util.h **** 
  21:C:/Renesas/e2studio_2021_01_workspace_RZA2M_ANPR/ANPR_RZA2M_EBK/src/tensorflow_lite/tensorflow/lite/micro/kernels\kernel_util.h **** #include "tensorflow/lite/c/builtin_op_data.h"
  22:C:/Renesas/e2studio_2021_01_workspace_RZA2M_ANPR/ANPR_RZA2M_EBK/src/tensorflow_lite/tensorflow/lite/micro/kernels\kernel_util.h **** #include "tensorflow/lite/c/common.h"
  23:C:/Renesas/e2studio_2021_01_workspace_RZA2M_ANPR/ANPR_RZA2M_EBK/src/tensorflow_lite/tensorflow/lite/micro/kernels\kernel_util.h **** #include "tensorflow/lite/kernels/internal/compatibility.h"
  24:C:/Renesas/e2studio_2021_01_workspace_RZA2M_ANPR/ANPR_RZA2M_EBK/src/tensorflow_lite/tensorflow/lite/micro/kernels\kernel_util.h **** #include "tensorflow/lite/kernels/internal/types.h"
  25:C:/Renesas/e2studio_2021_01_workspace_RZA2M_ANPR/ANPR_RZA2M_EBK/src/tensorflow_lite/tensorflow/lite/micro/kernels\kernel_util.h **** 
  26:C:/Renesas/e2studio_2021_01_workspace_RZA2M_ANPR/ANPR_RZA2M_EBK/src/tensorflow_lite/tensorflow/lite/micro/kernels\kernel_util.h **** namespace tflite {
  27:C:/Renesas/e2studio_2021_01_workspace_RZA2M_ANPR/ANPR_RZA2M_EBK/src/tensorflow_lite/tensorflow/lite/micro/kernels\kernel_util.h **** namespace micro {
  28:C:/Renesas/e2studio_2021_01_workspace_RZA2M_ANPR/ANPR_RZA2M_EBK/src/tensorflow_lite/tensorflow/lite/micro/kernels\kernel_util.h **** 
  29:C:/Renesas/e2studio_2021_01_workspace_RZA2M_ANPR/ANPR_RZA2M_EBK/src/tensorflow_lite/tensorflow/lite/micro/kernels\kernel_util.h **** // Returns a mutable tensor for a given input index. is_variable must be checked
  30:C:/Renesas/e2studio_2021_01_workspace_RZA2M_ANPR/ANPR_RZA2M_EBK/src/tensorflow_lite/tensorflow/lite/micro/kernels\kernel_util.h **** // during prepare when the full TfLiteTensor is available.
  31:C:/Renesas/e2studio_2021_01_workspace_RZA2M_ANPR/ANPR_RZA2M_EBK/src/tensorflow_lite/tensorflow/lite/micro/kernels\kernel_util.h **** inline TfLiteEvalTensor* GetMutableEvalInput(const TfLiteContext* context,
  32:C:/Renesas/e2studio_2021_01_workspace_RZA2M_ANPR/ANPR_RZA2M_EBK/src/tensorflow_lite/tensorflow/lite/micro/kernels\kernel_util.h ****                                              const TfLiteNode* node,
  33:C:/Renesas/e2studio_2021_01_workspace_RZA2M_ANPR/ANPR_RZA2M_EBK/src/tensorflow_lite/tensorflow/lite/micro/kernels\kernel_util.h ****                                              int index) {
  34:C:/Renesas/e2studio_2021_01_workspace_RZA2M_ANPR/ANPR_RZA2M_EBK/src/tensorflow_lite/tensorflow/lite/micro/kernels\kernel_util.h ****   TFLITE_DCHECK(context != nullptr);
  95              		.loc 2 34 0
  96 0014 000050E3 		cmp	r0, #0
  97 0018 0070A0E1 		mov	r7, r0
  98              	.LVL5:
  99 001c 1E00000A 		beq	.L10
  35:C:/Renesas/e2studio_2021_01_workspace_RZA2M_ANPR/ANPR_RZA2M_EBK/src/tensorflow_lite/tensorflow/lite/micro/kernels\kernel_util.h ****   TFLITE_DCHECK(node != nullptr);
  36:C:/Renesas/e2studio_2021_01_workspace_RZA2M_ANPR/ANPR_RZA2M_EBK/src/tensorflow_lite/tensorflow/lite/micro/kernels\kernel_util.h ****   return context->GetEvalTensor(context, node->inputs->data[index]);
 100              		.loc 2 36 0
 101 0020 002091E5 		ldr	r2, [r1]
 102 0024 0160A0E1 		mov	r6, r1
 103 0028 543090E5 		ldr	r3, [r0, #84]
 104 002c 041092E5 		ldr	r1, [r2, #4]
 105              	.LVL6:
 106              	.LEHB0:
 107 0030 33FF2FE1 		blx	r3
 108              	.LVL7:
 109              	.LBE861:
 110              	.LBE860:
 111              	.LBE859:
 112              	.LBB864:
 113              	.LBB865:
  37:C:/Renesas/e2studio_2021_01_workspace_RZA2M_ANPR/ANPR_RZA2M_EBK/src/tensorflow_lite/tensorflow/lite/micro/kernels\kernel_util.h **** }
  38:C:/Renesas/e2studio_2021_01_workspace_RZA2M_ANPR/ANPR_RZA2M_EBK/src/tensorflow_lite/tensorflow/lite/micro/kernels\kernel_util.h **** 
  39:C:/Renesas/e2studio_2021_01_workspace_RZA2M_ANPR/ANPR_RZA2M_EBK/src/tensorflow_lite/tensorflow/lite/micro/kernels\kernel_util.h **** // Returns the TfLiteEvalTensor struct for a given input index in a node.
  40:C:/Renesas/e2studio_2021_01_workspace_RZA2M_ANPR/ANPR_RZA2M_EBK/src/tensorflow_lite/tensorflow/lite/micro/kernels\kernel_util.h **** inline const TfLiteEvalTensor* GetEvalInput(const TfLiteContext* context,
  41:C:/Renesas/e2studio_2021_01_workspace_RZA2M_ANPR/ANPR_RZA2M_EBK/src/tensorflow_lite/tensorflow/lite/micro/kernels\kernel_util.h ****                                             const TfLiteNode* node, int index) {
  42:C:/Renesas/e2studio_2021_01_workspace_RZA2M_ANPR/ANPR_RZA2M_EBK/src/tensorflow_lite/tensorflow/lite/micro/kernels\kernel_util.h ****   return GetMutableEvalInput(context, node, index);
  43:C:/Renesas/e2studio_2021_01_workspace_RZA2M_ANPR/ANPR_RZA2M_EBK/src/tensorflow_lite/tensorflow/lite/micro/kernels\kernel_util.h **** }
  44:C:/Renesas/e2studio_2021_01_workspace_RZA2M_ANPR/ANPR_RZA2M_EBK/src/tensorflow_lite/tensorflow/lite/micro/kernels\kernel_util.h **** 
  45:C:/Renesas/e2studio_2021_01_workspace_RZA2M_ANPR/ANPR_RZA2M_EBK/src/tensorflow_lite/tensorflow/lite/micro/kernels\kernel_util.h **** // Returns the TfLiteEvalTensor struct for a given output index in a node.
  46:C:/Renesas/e2studio_2021_01_workspace_RZA2M_ANPR/ANPR_RZA2M_EBK/src/tensorflow_lite/tensorflow/lite/micro/kernels\kernel_util.h **** inline TfLiteEvalTensor* GetEvalOutput(const TfLiteContext* context,
  47:C:/Renesas/e2studio_2021_01_workspace_RZA2M_ANPR/ANPR_RZA2M_EBK/src/tensorflow_lite/tensorflow/lite/micro/kernels\kernel_util.h ****                                        const TfLiteNode* node, int index) {
  48:C:/Renesas/e2studio_2021_01_workspace_RZA2M_ANPR/ANPR_RZA2M_EBK/src/tensorflow_lite/tensorflow/lite/micro/kernels\kernel_util.h ****   TFLITE_DCHECK(context != nullptr);
  49:C:/Renesas/e2studio_2021_01_workspace_RZA2M_ANPR/ANPR_RZA2M_EBK/src/tensorflow_lite/tensorflow/lite/micro/kernels\kernel_util.h ****   TFLITE_DCHECK(node != nullptr);
  50:C:/Renesas/e2studio_2021_01_workspace_RZA2M_ANPR/ANPR_RZA2M_EBK/src/tensorflow_lite/tensorflow/lite/micro/kernels\kernel_util.h ****   return context->GetEvalTensor(context, node->outputs->data[index]);
 114              		.loc 2 50 0
 115 0034 042096E5 		ldr	r2, [r6, #4]
 116              	.LBE865:
 117              	.LBE864:
 118              	.LBB868:
 119              	.LBB863:
 120              	.LBB862:
  36:C:/Renesas/e2studio_2021_01_workspace_RZA2M_ANPR/ANPR_RZA2M_EBK/src/tensorflow_lite/tensorflow/lite/micro/kernels\kernel_util.h **** }
 121              		.loc 2 36 0
 122 0038 0050A0E1 		mov	r5, r0
 123              	.LVL8:
 124              	.LBE862:
 125              	.LBE863:
 126              	.LBE868:
 127              	.LBB869:
 128              	.LBB866:
 129              		.loc 2 50 0
 130 003c 543097E5 		ldr	r3, [r7, #84]
 131 0040 0700A0E1 		mov	r0, r7
 132 0044 041092E5 		ldr	r1, [r2, #4]
 133 0048 33FF2FE1 		blx	r3
 134              	.LVL9:
 135              	.LBE866:
 136              	.LBE869:
 141:../src/tensorflow_lite/tensorflow/lite/micro/kernels/strided_slice.cc ****   const StridedSliceParams& op_params =
 142:../src/tensorflow_lite/tensorflow/lite/micro/kernels/strided_slice.cc ****       *(static_cast<const StridedSliceParams*>(node->user_data));
 143:../src/tensorflow_lite/tensorflow/lite/micro/kernels/strided_slice.cc **** 
 144:../src/tensorflow_lite/tensorflow/lite/micro/kernels/strided_slice.cc ****   const TfLiteEvalTensor* input =
 145:../src/tensorflow_lite/tensorflow/lite/micro/kernels/strided_slice.cc ****       tflite::micro::GetEvalInput(context, node, kInputTensor);
 146:../src/tensorflow_lite/tensorflow/lite/micro/kernels/strided_slice.cc ****   TfLiteEvalTensor* output =
 147:../src/tensorflow_lite/tensorflow/lite/micro/kernels/strided_slice.cc ****       tflite::micro::GetEvalOutput(context, node, kOutputTensor);
 148:../src/tensorflow_lite/tensorflow/lite/micro/kernels/strided_slice.cc ****   switch (output->type) {
 137              		.loc 1 148 0
 138 004c 0830D0E5 		ldrb	r3, [r0, #8]	@ zero_extendqisi2
 139              	.LBB870:
 140              	.LBB867:
 141              		.loc 2 50 0
 142 0050 0060A0E1 		mov	r6, r0
 143              	.LVL10:
 144              	.LBE867:
 145              	.LBE870:
 146              		.loc 1 148 0
 147 0054 030053E3 		cmp	r3, #3
 148 0058 7000000A 		beq	.L12
 149 005c 090053E3 		cmp	r3, #9
 150 0060 3E00000A 		beq	.L13
 151 0064 010053E3 		cmp	r3, #1
 152 0068 0C00000A 		beq	.L1049
 149:../src/tensorflow_lite/tensorflow/lite/micro/kernels/strided_slice.cc ****     case kTfLiteFloat32:
 150:../src/tensorflow_lite/tensorflow/lite/micro/kernels/strided_slice.cc ****       reference_ops::StridedSlice(op_params,
 151:../src/tensorflow_lite/tensorflow/lite/micro/kernels/strided_slice.cc ****                                   tflite::micro::GetTensorShape(input),
 152:../src/tensorflow_lite/tensorflow/lite/micro/kernels/strided_slice.cc ****                                   tflite::micro::GetTensorData<float>(input),
 153:../src/tensorflow_lite/tensorflow/lite/micro/kernels/strided_slice.cc ****                                   tflite::micro::GetTensorShape(output),
 154:../src/tensorflow_lite/tensorflow/lite/micro/kernels/strided_slice.cc ****                                   tflite::micro::GetTensorData<float>(output));
 155:../src/tensorflow_lite/tensorflow/lite/micro/kernels/strided_slice.cc ****       break;
 156:../src/tensorflow_lite/tensorflow/lite/micro/kernels/strided_slice.cc ****     case kTfLiteUInt8:
 157:../src/tensorflow_lite/tensorflow/lite/micro/kernels/strided_slice.cc ****       reference_ops::StridedSlice(
 158:../src/tensorflow_lite/tensorflow/lite/micro/kernels/strided_slice.cc ****           op_params, tflite::micro::GetTensorShape(input),
 159:../src/tensorflow_lite/tensorflow/lite/micro/kernels/strided_slice.cc ****           tflite::micro::GetTensorData<uint8_t>(input),
 160:../src/tensorflow_lite/tensorflow/lite/micro/kernels/strided_slice.cc ****           tflite::micro::GetTensorShape(output),
 161:../src/tensorflow_lite/tensorflow/lite/micro/kernels/strided_slice.cc ****           tflite::micro::GetTensorData<uint8_t>(output));
 162:../src/tensorflow_lite/tensorflow/lite/micro/kernels/strided_slice.cc ****       break;
 163:../src/tensorflow_lite/tensorflow/lite/micro/kernels/strided_slice.cc ****     case kTfLiteInt8:
 164:../src/tensorflow_lite/tensorflow/lite/micro/kernels/strided_slice.cc ****       reference_ops::StridedSlice(op_params,
 165:../src/tensorflow_lite/tensorflow/lite/micro/kernels/strided_slice.cc ****                                   tflite::micro::GetTensorShape(input),
 166:../src/tensorflow_lite/tensorflow/lite/micro/kernels/strided_slice.cc ****                                   tflite::micro::GetTensorData<int8_t>(input),
 167:../src/tensorflow_lite/tensorflow/lite/micro/kernels/strided_slice.cc ****                                   tflite::micro::GetTensorShape(output),
 168:../src/tensorflow_lite/tensorflow/lite/micro/kernels/strided_slice.cc ****                                   tflite::micro::GetTensorData<int8_t>(output));
 169:../src/tensorflow_lite/tensorflow/lite/micro/kernels/strided_slice.cc ****       break;
 170:../src/tensorflow_lite/tensorflow/lite/micro/kernels/strided_slice.cc ****     default:
 171:../src/tensorflow_lite/tensorflow/lite/micro/kernels/strided_slice.cc ****       TF_LITE_KERNEL_LOG(context, "Type %s (%d) not supported.",
 153              		.loc 1 171 0
 154 006c 0800D5E5 		ldrb	r0, [r5, #8]	@ zero_extendqisi2
 155 0070 144097E5 		ldr	r4, [r7, #20]
 156              	.LVL11:
 157 0074 FEFFFFEB 		bl	TfLiteTypeGetName
 158              	.LVL12:
 159 0078 001000E3 		movw	r1, #:lower16:.LC1
 160 007c 0020A0E1 		mov	r2, r0
 161 0080 0830D5E5 		ldrb	r3, [r5, #8]	@ zero_extendqisi2
 162 0084 0700A0E1 		mov	r0, r7
 163 0088 001040E3 		movt	r1, #:upper16:.LC1
 164 008c 34FF2FE1 		blx	r4
 165              	.LVL13:
 172:../src/tensorflow_lite/tensorflow/lite/micro/kernels/strided_slice.cc ****                          TfLiteTypeGetName(input->type), input->type);
 173:../src/tensorflow_lite/tensorflow/lite/micro/kernels/strided_slice.cc ****       return kTfLiteError;
 166              		.loc 1 173 0
 167 0090 0100A0E3 		mov	r0, #1
 168              	.LVL14:
 169              	.L907:
 174:../src/tensorflow_lite/tensorflow/lite/micro/kernels/strided_slice.cc ****   }
 175:../src/tensorflow_lite/tensorflow/lite/micro/kernels/strided_slice.cc ****   return kTfLiteOk;
 176:../src/tensorflow_lite/tensorflow/lite/micro/kernels/strided_slice.cc **** }
 170              		.loc 1 176 0
 171 0094 53DF8DE2 		add	sp, sp, #332
 172              		.cfi_remember_state
 173              		.cfi_def_cfa_offset 36
 174              		@ sp needed
 175 0098 F08FBDE8 		pop	{r4, r5, r6, r7, r8, r9, r10, fp, pc}
 176              	.LVL15:
 177              	.L10:
 178              		.cfi_restore_state
 140:../src/tensorflow_lite/tensorflow/lite/micro/kernels/strided_slice.cc ****   const StridedSliceParams& op_params =
 179              		.loc 1 140 0 discriminator 1
 180 009c FEFFFFEB 		bl	abort
 181              	.LVL16:
 182              	.L1049:
 151:../src/tensorflow_lite/tensorflow/lite/micro/kernels/strided_slice.cc ****                                   tflite::micro::GetTensorData<float>(input),
 183              		.loc 1 151 0
 184 00a0 0510A0E1 		mov	r1, r5
 185 00a4 94008DE2 		add	r0, sp, #148
 186 00a8 FEFFFFEB 		bl	_ZN6tflite5micro14GetTensorShapeEPK16TfLiteEvalTensor
 187              	.LVL17:
 188              	.LEHE0:
 189              	.LBB871:
 190              	.LBB872:
  51:C:/Renesas/e2studio_2021_01_workspace_RZA2M_ANPR/ANPR_RZA2M_EBK/src/tensorflow_lite/tensorflow/lite/micro/kernels\kernel_util.h **** }
  52:C:/Renesas/e2studio_2021_01_workspace_RZA2M_ANPR/ANPR_RZA2M_EBK/src/tensorflow_lite/tensorflow/lite/micro/kernels\kernel_util.h **** 
  53:C:/Renesas/e2studio_2021_01_workspace_RZA2M_ANPR/ANPR_RZA2M_EBK/src/tensorflow_lite/tensorflow/lite/micro/kernels\kernel_util.h **** // Returns data for a TfLiteEvalTensor struct.
  54:C:/Renesas/e2studio_2021_01_workspace_RZA2M_ANPR/ANPR_RZA2M_EBK/src/tensorflow_lite/tensorflow/lite/micro/kernels\kernel_util.h **** template <typename T>
  55:C:/Renesas/e2studio_2021_01_workspace_RZA2M_ANPR/ANPR_RZA2M_EBK/src/tensorflow_lite/tensorflow/lite/micro/kernels\kernel_util.h **** T* GetTensorData(TfLiteEvalTensor* tensor) {
  56:C:/Renesas/e2studio_2021_01_workspace_RZA2M_ANPR/ANPR_RZA2M_EBK/src/tensorflow_lite/tensorflow/lite/micro/kernels\kernel_util.h ****   return tensor != nullptr ? reinterpret_cast<T*>(tensor->data.raw) : nullptr;
  57:C:/Renesas/e2studio_2021_01_workspace_RZA2M_ANPR/ANPR_RZA2M_EBK/src/tensorflow_lite/tensorflow/lite/micro/kernels\kernel_util.h **** }
  58:C:/Renesas/e2studio_2021_01_workspace_RZA2M_ANPR/ANPR_RZA2M_EBK/src/tensorflow_lite/tensorflow/lite/micro/kernels\kernel_util.h **** 
  59:C:/Renesas/e2studio_2021_01_workspace_RZA2M_ANPR/ANPR_RZA2M_EBK/src/tensorflow_lite/tensorflow/lite/micro/kernels\kernel_util.h **** // Returns const data for a TfLiteEvalTensor struct.
  60:C:/Renesas/e2studio_2021_01_workspace_RZA2M_ANPR/ANPR_RZA2M_EBK/src/tensorflow_lite/tensorflow/lite/micro/kernels\kernel_util.h **** template <typename T>
  61:C:/Renesas/e2studio_2021_01_workspace_RZA2M_ANPR/ANPR_RZA2M_EBK/src/tensorflow_lite/tensorflow/lite/micro/kernels\kernel_util.h **** const T* GetTensorData(const TfLiteEvalTensor* tensor) {
  62:C:/Renesas/e2studio_2021_01_workspace_RZA2M_ANPR/ANPR_RZA2M_EBK/src/tensorflow_lite/tensorflow/lite/micro/kernels\kernel_util.h ****   TFLITE_DCHECK(tensor != nullptr);
 191              		.loc 2 62 0
 192 00ac 000055E3 		cmp	r5, #0
 193 00b0 D500000A 		beq	.L1050
  63:C:/Renesas/e2studio_2021_01_workspace_RZA2M_ANPR/ANPR_RZA2M_EBK/src/tensorflow_lite/tensorflow/lite/micro/kernels\kernel_util.h ****   return reinterpret_cast<const T*>(tensor->data.raw);
 194              		.loc 2 63 0
 195 00b4 003095E5 		ldr	r3, [r5]
 196              	.LBE872:
 197              	.LBE871:
 153:../src/tensorflow_lite/tensorflow/lite/micro/kernels/strided_slice.cc ****                                   tflite::micro::GetTensorData<float>(output));
 198              		.loc 1 153 0
 199 00b8 0610A0E1 		mov	r1, r6
 200 00bc AC008DE2 		add	r0, sp, #172
 201              	.LBB875:
 202              	.LBB873:
 203              		.loc 2 63 0
 204 00c0 30308DE5 		str	r3, [sp, #48]
 205              	.LEHB1:
 206              	.LBE873:
 207              	.LBE875:
 153:../src/tensorflow_lite/tensorflow/lite/micro/kernels/strided_slice.cc ****                                   tflite::micro::GetTensorData<float>(output));
 208              		.loc 1 153 0
 209 00c4 FEFFFFEB 		bl	_ZN6tflite5micro14GetTensorShapeEPK16TfLiteEvalTensor
 210              	.LVL18:
 211              	.LEHE1:
 212              	.LBB876:
 213              	.LBB877:
 214              	.LBB878:
 215              	.LBB879:
 216              		.file 3 "C:/Renesas/e2studio_2021_01_workspace_RZA2M_ANPR/ANPR_RZA2M_EBK/src/tensorflow_lite/tenso
   1:C:/Renesas/e2studio_2021_01_workspace_RZA2M_ANPR/ANPR_RZA2M_EBK/src/tensorflow_lite/tensorflow/lite/kernels/internal/reference\strided_slice.h **** /* Copyright 2017 The TensorFlow Authors. All Rights Reserved.
   2:C:/Renesas/e2studio_2021_01_workspace_RZA2M_ANPR/ANPR_RZA2M_EBK/src/tensorflow_lite/tensorflow/lite/kernels/internal/reference\strided_slice.h **** 
   3:C:/Renesas/e2studio_2021_01_workspace_RZA2M_ANPR/ANPR_RZA2M_EBK/src/tensorflow_lite/tensorflow/lite/kernels/internal/reference\strided_slice.h **** Licensed under the Apache License, Version 2.0 (the "License");
   4:C:/Renesas/e2studio_2021_01_workspace_RZA2M_ANPR/ANPR_RZA2M_EBK/src/tensorflow_lite/tensorflow/lite/kernels/internal/reference\strided_slice.h **** you may not use this file except in compliance with the License.
   5:C:/Renesas/e2studio_2021_01_workspace_RZA2M_ANPR/ANPR_RZA2M_EBK/src/tensorflow_lite/tensorflow/lite/kernels/internal/reference\strided_slice.h **** You may obtain a copy of the License at
   6:C:/Renesas/e2studio_2021_01_workspace_RZA2M_ANPR/ANPR_RZA2M_EBK/src/tensorflow_lite/tensorflow/lite/kernels/internal/reference\strided_slice.h **** 
   7:C:/Renesas/e2studio_2021_01_workspace_RZA2M_ANPR/ANPR_RZA2M_EBK/src/tensorflow_lite/tensorflow/lite/kernels/internal/reference\strided_slice.h ****     http://www.apache.org/licenses/LICENSE-2.0
   8:C:/Renesas/e2studio_2021_01_workspace_RZA2M_ANPR/ANPR_RZA2M_EBK/src/tensorflow_lite/tensorflow/lite/kernels/internal/reference\strided_slice.h **** 
   9:C:/Renesas/e2studio_2021_01_workspace_RZA2M_ANPR/ANPR_RZA2M_EBK/src/tensorflow_lite/tensorflow/lite/kernels/internal/reference\strided_slice.h **** Unless required by applicable law or agreed to in writing, software
  10:C:/Renesas/e2studio_2021_01_workspace_RZA2M_ANPR/ANPR_RZA2M_EBK/src/tensorflow_lite/tensorflow/lite/kernels/internal/reference\strided_slice.h **** distributed under the License is distributed on an "AS IS" BASIS,
  11:C:/Renesas/e2studio_2021_01_workspace_RZA2M_ANPR/ANPR_RZA2M_EBK/src/tensorflow_lite/tensorflow/lite/kernels/internal/reference\strided_slice.h **** WITHOUT WARRANTIES OR CONDITIONS OF ANY KIND, either express or implied.
  12:C:/Renesas/e2studio_2021_01_workspace_RZA2M_ANPR/ANPR_RZA2M_EBK/src/tensorflow_lite/tensorflow/lite/kernels/internal/reference\strided_slice.h **** See the License for the specific language governing permissions and
  13:C:/Renesas/e2studio_2021_01_workspace_RZA2M_ANPR/ANPR_RZA2M_EBK/src/tensorflow_lite/tensorflow/lite/kernels/internal/reference\strided_slice.h **** limitations under the License.
  14:C:/Renesas/e2studio_2021_01_workspace_RZA2M_ANPR/ANPR_RZA2M_EBK/src/tensorflow_lite/tensorflow/lite/kernels/internal/reference\strided_slice.h **** ==============================================================================*/
  15:C:/Renesas/e2studio_2021_01_workspace_RZA2M_ANPR/ANPR_RZA2M_EBK/src/tensorflow_lite/tensorflow/lite/kernels/internal/reference\strided_slice.h **** #ifndef TENSORFLOW_LITE_KERNELS_INTERNAL_REFERENCE_STRIDED_SLICE_H_
  16:C:/Renesas/e2studio_2021_01_workspace_RZA2M_ANPR/ANPR_RZA2M_EBK/src/tensorflow_lite/tensorflow/lite/kernels/internal/reference\strided_slice.h **** #define TENSORFLOW_LITE_KERNELS_INTERNAL_REFERENCE_STRIDED_SLICE_H_
  17:C:/Renesas/e2studio_2021_01_workspace_RZA2M_ANPR/ANPR_RZA2M_EBK/src/tensorflow_lite/tensorflow/lite/kernels/internal/reference\strided_slice.h **** 
  18:C:/Renesas/e2studio_2021_01_workspace_RZA2M_ANPR/ANPR_RZA2M_EBK/src/tensorflow_lite/tensorflow/lite/kernels/internal/reference\strided_slice.h **** #include "ruy/profiler/instrumentation.h"  // from @ruy
  19:C:/Renesas/e2studio_2021_01_workspace_RZA2M_ANPR/ANPR_RZA2M_EBK/src/tensorflow_lite/tensorflow/lite/kernels/internal/reference\strided_slice.h **** #include "tensorflow/lite/kernels/internal/common.h"
  20:C:/Renesas/e2studio_2021_01_workspace_RZA2M_ANPR/ANPR_RZA2M_EBK/src/tensorflow_lite/tensorflow/lite/kernels/internal/reference\strided_slice.h **** #include "tensorflow/lite/kernels/internal/compatibility.h"
  21:C:/Renesas/e2studio_2021_01_workspace_RZA2M_ANPR/ANPR_RZA2M_EBK/src/tensorflow_lite/tensorflow/lite/kernels/internal/reference\strided_slice.h **** #include "tensorflow/lite/kernels/internal/portable_tensor.h"
  22:C:/Renesas/e2studio_2021_01_workspace_RZA2M_ANPR/ANPR_RZA2M_EBK/src/tensorflow_lite/tensorflow/lite/kernels/internal/reference\strided_slice.h **** #include "tensorflow/lite/kernels/internal/strided_slice_logic.h"
  23:C:/Renesas/e2studio_2021_01_workspace_RZA2M_ANPR/ANPR_RZA2M_EBK/src/tensorflow_lite/tensorflow/lite/kernels/internal/reference\strided_slice.h **** #include "tensorflow/lite/kernels/internal/types.h"
  24:C:/Renesas/e2studio_2021_01_workspace_RZA2M_ANPR/ANPR_RZA2M_EBK/src/tensorflow_lite/tensorflow/lite/kernels/internal/reference\strided_slice.h **** 
  25:C:/Renesas/e2studio_2021_01_workspace_RZA2M_ANPR/ANPR_RZA2M_EBK/src/tensorflow_lite/tensorflow/lite/kernels/internal/reference\strided_slice.h **** namespace tflite {
  26:C:/Renesas/e2studio_2021_01_workspace_RZA2M_ANPR/ANPR_RZA2M_EBK/src/tensorflow_lite/tensorflow/lite/kernels/internal/reference\strided_slice.h **** 
  27:C:/Renesas/e2studio_2021_01_workspace_RZA2M_ANPR/ANPR_RZA2M_EBK/src/tensorflow_lite/tensorflow/lite/kernels/internal/reference\strided_slice.h **** namespace reference_ops {
  28:C:/Renesas/e2studio_2021_01_workspace_RZA2M_ANPR/ANPR_RZA2M_EBK/src/tensorflow_lite/tensorflow/lite/kernels/internal/reference\strided_slice.h **** 
  29:C:/Renesas/e2studio_2021_01_workspace_RZA2M_ANPR/ANPR_RZA2M_EBK/src/tensorflow_lite/tensorflow/lite/kernels/internal/reference\strided_slice.h **** template <typename T>
  30:C:/Renesas/e2studio_2021_01_workspace_RZA2M_ANPR/ANPR_RZA2M_EBK/src/tensorflow_lite/tensorflow/lite/kernels/internal/reference\strided_slice.h **** inline void StridedSlice(const tflite::StridedSliceParams& op_params,
  31:C:/Renesas/e2studio_2021_01_workspace_RZA2M_ANPR/ANPR_RZA2M_EBK/src/tensorflow_lite/tensorflow/lite/kernels/internal/reference\strided_slice.h ****                          const RuntimeShape& unextended_input_shape,
  32:C:/Renesas/e2studio_2021_01_workspace_RZA2M_ANPR/ANPR_RZA2M_EBK/src/tensorflow_lite/tensorflow/lite/kernels/internal/reference\strided_slice.h ****                          const RuntimeShape& unextended_output_shape,
  33:C:/Renesas/e2studio_2021_01_workspace_RZA2M_ANPR/ANPR_RZA2M_EBK/src/tensorflow_lite/tensorflow/lite/kernels/internal/reference\strided_slice.h ****                          SequentialTensorWriter<T>* writer) {
  34:C:/Renesas/e2studio_2021_01_workspace_RZA2M_ANPR/ANPR_RZA2M_EBK/src/tensorflow_lite/tensorflow/lite/kernels/internal/reference\strided_slice.h ****   using strided_slice::LoopCondition;
  35:C:/Renesas/e2studio_2021_01_workspace_RZA2M_ANPR/ANPR_RZA2M_EBK/src/tensorflow_lite/tensorflow/lite/kernels/internal/reference\strided_slice.h ****   using strided_slice::StartForAxis;
  36:C:/Renesas/e2studio_2021_01_workspace_RZA2M_ANPR/ANPR_RZA2M_EBK/src/tensorflow_lite/tensorflow/lite/kernels/internal/reference\strided_slice.h ****   using strided_slice::StopForAxis;
  37:C:/Renesas/e2studio_2021_01_workspace_RZA2M_ANPR/ANPR_RZA2M_EBK/src/tensorflow_lite/tensorflow/lite/kernels/internal/reference\strided_slice.h **** 
  38:C:/Renesas/e2studio_2021_01_workspace_RZA2M_ANPR/ANPR_RZA2M_EBK/src/tensorflow_lite/tensorflow/lite/kernels/internal/reference\strided_slice.h ****   ruy::profiler::ScopeLabel label("StridedSlice");
  39:C:/Renesas/e2studio_2021_01_workspace_RZA2M_ANPR/ANPR_RZA2M_EBK/src/tensorflow_lite/tensorflow/lite/kernels/internal/reference\strided_slice.h **** 
  40:C:/Renesas/e2studio_2021_01_workspace_RZA2M_ANPR/ANPR_RZA2M_EBK/src/tensorflow_lite/tensorflow/lite/kernels/internal/reference\strided_slice.h ****   // Note that the output_shape is not used herein.
  41:C:/Renesas/e2studio_2021_01_workspace_RZA2M_ANPR/ANPR_RZA2M_EBK/src/tensorflow_lite/tensorflow/lite/kernels/internal/reference\strided_slice.h ****   tflite::StridedSliceParams params_copy = op_params;
 217              		.loc 3 41 0
 218 00c8 5420A0E3 		mov	r2, #84
 219 00cc 0410A0E1 		mov	r1, r4
 220 00d0 F4008DE2 		add	r0, sp, #244
 221              	.LBE879:
 222              	.LBE878:
 223              	.LBE877:
 224              	.LBE876:
 225              	.LBB1236:
 226              	.LBB1237:
  56:C:/Renesas/e2studio_2021_01_workspace_RZA2M_ANPR/ANPR_RZA2M_EBK/src/tensorflow_lite/tensorflow/lite/micro/kernels\kernel_util.h **** }
 227              		.loc 2 56 0
 228 00d4 00B096E5 		ldr	fp, [r6]
 229              	.LVL19:
 230              	.LBE1237:
 231              	.LBE1236:
 232              	.LBB1238:
 233              	.LBB1231:
 234              	.LBB1226:
 235              	.LBB1221:
 236              		.loc 3 41 0
 237 00d8 FEFFFFEB 		bl	memcpy
 238              	.LVL20:
 239 00dc 94209DE5 		ldr	r2, [sp, #148]
 240 00e0 D070D4E1 		ldrsb	r7, [r4]
 241              	.LVL21:
 242 00e4 D851D4E1 		ldrsb	r5, [r4, #24]
 243              	.LVL22:
  42:C:/Renesas/e2studio_2021_01_workspace_RZA2M_ANPR/ANPR_RZA2M_EBK/src/tensorflow_lite/tensorflow/lite/kernels/internal/reference\strided_slice.h **** 
  43:C:/Renesas/e2studio_2021_01_workspace_RZA2M_ANPR/ANPR_RZA2M_EBK/src/tensorflow_lite/tensorflow/lite/kernels/internal/reference\strided_slice.h ****   TFLITE_DCHECK_LE(unextended_input_shape.DimensionsCount(), 5);
 244              		.loc 3 43 0
 245 00e8 050052E3 		cmp	r2, #5
  41:C:/Renesas/e2studio_2021_01_workspace_RZA2M_ANPR/ANPR_RZA2M_EBK/src/tensorflow_lite/tensorflow/lite/kernels/internal/reference\strided_slice.h **** 
 246              		.loc 3 41 0
 247 00ec D093D4E1 		ldrsb	r9, [r4, #48]
 248 00f0 F864D4E1 		ldrsh	r6, [r4, #72]
 249 00f4 FC84D4E1 		ldrsh	r8, [r4, #76]
 250 00f8 F045D4E1 		ldrsh	r4, [r4, #80]
 251              	.LVL23:
 252              		.loc 3 43 0
 253 00fc C00000CA 		bgt	.L1051
 254 0100 ACA09DE5 		ldr	r10, [sp, #172]
 255              	.LVL24:
  44:C:/Renesas/e2studio_2021_01_workspace_RZA2M_ANPR/ANPR_RZA2M_EBK/src/tensorflow_lite/tensorflow/lite/kernels/internal/reference\strided_slice.h ****   TFLITE_DCHECK_LE(unextended_output_shape.DimensionsCount(), 5);
 256              		.loc 3 44 0
 257 0104 05005AE3 		cmp	r10, #5
 258 0108 BC0000CA 		bgt	.L1052
 259              	.LVL25:
 260              	.LBB880:
 261              	.LBB881:
 262              	.LBB882:
 263              	.LBB883:
 264              	.LBB884:
 265              		.file 4 "C:/Renesas/e2studio_2021_01_workspace_RZA2M_ANPR/ANPR_RZA2M_EBK/src/tensorflow_lite/tenso
   1:C:/Renesas/e2studio_2021_01_workspace_RZA2M_ANPR/ANPR_RZA2M_EBK/src/tensorflow_lite/tensorflow/lite/kernels/internal\types.h **** /* Copyright 2018 The TensorFlow Authors. All Rights Reserved.
   2:C:/Renesas/e2studio_2021_01_workspace_RZA2M_ANPR/ANPR_RZA2M_EBK/src/tensorflow_lite/tensorflow/lite/kernels/internal\types.h **** 
   3:C:/Renesas/e2studio_2021_01_workspace_RZA2M_ANPR/ANPR_RZA2M_EBK/src/tensorflow_lite/tensorflow/lite/kernels/internal\types.h **** Licensed under the Apache License, Version 2.0 (the "License");
   4:C:/Renesas/e2studio_2021_01_workspace_RZA2M_ANPR/ANPR_RZA2M_EBK/src/tensorflow_lite/tensorflow/lite/kernels/internal\types.h **** you may not use this file except in compliance with the License.
   5:C:/Renesas/e2studio_2021_01_workspace_RZA2M_ANPR/ANPR_RZA2M_EBK/src/tensorflow_lite/tensorflow/lite/kernels/internal\types.h **** You may obtain a copy of the License at
   6:C:/Renesas/e2studio_2021_01_workspace_RZA2M_ANPR/ANPR_RZA2M_EBK/src/tensorflow_lite/tensorflow/lite/kernels/internal\types.h **** 
   7:C:/Renesas/e2studio_2021_01_workspace_RZA2M_ANPR/ANPR_RZA2M_EBK/src/tensorflow_lite/tensorflow/lite/kernels/internal\types.h ****     http://www.apache.org/licenses/LICENSE-2.0
   8:C:/Renesas/e2studio_2021_01_workspace_RZA2M_ANPR/ANPR_RZA2M_EBK/src/tensorflow_lite/tensorflow/lite/kernels/internal\types.h **** 
   9:C:/Renesas/e2studio_2021_01_workspace_RZA2M_ANPR/ANPR_RZA2M_EBK/src/tensorflow_lite/tensorflow/lite/kernels/internal\types.h **** Unless required by applicable law or agreed to in writing, software
  10:C:/Renesas/e2studio_2021_01_workspace_RZA2M_ANPR/ANPR_RZA2M_EBK/src/tensorflow_lite/tensorflow/lite/kernels/internal\types.h **** distributed under the License is distributed on an "AS IS" BASIS,
  11:C:/Renesas/e2studio_2021_01_workspace_RZA2M_ANPR/ANPR_RZA2M_EBK/src/tensorflow_lite/tensorflow/lite/kernels/internal\types.h **** WITHOUT WARRANTIES OR CONDITIONS OF ANY KIND, either express or implied.
  12:C:/Renesas/e2studio_2021_01_workspace_RZA2M_ANPR/ANPR_RZA2M_EBK/src/tensorflow_lite/tensorflow/lite/kernels/internal\types.h **** See the License for the specific language governing permissions and
  13:C:/Renesas/e2studio_2021_01_workspace_RZA2M_ANPR/ANPR_RZA2M_EBK/src/tensorflow_lite/tensorflow/lite/kernels/internal\types.h **** limitations under the License.
  14:C:/Renesas/e2studio_2021_01_workspace_RZA2M_ANPR/ANPR_RZA2M_EBK/src/tensorflow_lite/tensorflow/lite/kernels/internal\types.h **** ==============================================================================*/
  15:C:/Renesas/e2studio_2021_01_workspace_RZA2M_ANPR/ANPR_RZA2M_EBK/src/tensorflow_lite/tensorflow/lite/kernels/internal\types.h **** #ifndef TENSORFLOW_LITE_KERNELS_INTERNAL_TYPES_H_
  16:C:/Renesas/e2studio_2021_01_workspace_RZA2M_ANPR/ANPR_RZA2M_EBK/src/tensorflow_lite/tensorflow/lite/kernels/internal\types.h **** #define TENSORFLOW_LITE_KERNELS_INTERNAL_TYPES_H_
  17:C:/Renesas/e2studio_2021_01_workspace_RZA2M_ANPR/ANPR_RZA2M_EBK/src/tensorflow_lite/tensorflow/lite/kernels/internal\types.h **** 
  18:C:/Renesas/e2studio_2021_01_workspace_RZA2M_ANPR/ANPR_RZA2M_EBK/src/tensorflow_lite/tensorflow/lite/kernels/internal\types.h **** #include <algorithm>
  19:C:/Renesas/e2studio_2021_01_workspace_RZA2M_ANPR/ANPR_RZA2M_EBK/src/tensorflow_lite/tensorflow/lite/kernels/internal\types.h **** #include <cstdint>
  20:C:/Renesas/e2studio_2021_01_workspace_RZA2M_ANPR/ANPR_RZA2M_EBK/src/tensorflow_lite/tensorflow/lite/kernels/internal\types.h **** #include <cstring>
  21:C:/Renesas/e2studio_2021_01_workspace_RZA2M_ANPR/ANPR_RZA2M_EBK/src/tensorflow_lite/tensorflow/lite/kernels/internal\types.h **** #include <initializer_list>
  22:C:/Renesas/e2studio_2021_01_workspace_RZA2M_ANPR/ANPR_RZA2M_EBK/src/tensorflow_lite/tensorflow/lite/kernels/internal\types.h **** 
  23:C:/Renesas/e2studio_2021_01_workspace_RZA2M_ANPR/ANPR_RZA2M_EBK/src/tensorflow_lite/tensorflow/lite/kernels/internal\types.h **** #include "tensorflow/lite/kernels/internal/compatibility.h"
  24:C:/Renesas/e2studio_2021_01_workspace_RZA2M_ANPR/ANPR_RZA2M_EBK/src/tensorflow_lite/tensorflow/lite/kernels/internal\types.h **** 
  25:C:/Renesas/e2studio_2021_01_workspace_RZA2M_ANPR/ANPR_RZA2M_EBK/src/tensorflow_lite/tensorflow/lite/kernels/internal\types.h **** namespace tflite {
  26:C:/Renesas/e2studio_2021_01_workspace_RZA2M_ANPR/ANPR_RZA2M_EBK/src/tensorflow_lite/tensorflow/lite/kernels/internal\types.h **** 
  27:C:/Renesas/e2studio_2021_01_workspace_RZA2M_ANPR/ANPR_RZA2M_EBK/src/tensorflow_lite/tensorflow/lite/kernels/internal\types.h **** enum class FusedActivationFunctionType : uint8_t {
  28:C:/Renesas/e2studio_2021_01_workspace_RZA2M_ANPR/ANPR_RZA2M_EBK/src/tensorflow_lite/tensorflow/lite/kernels/internal\types.h ****   kNone,
  29:C:/Renesas/e2studio_2021_01_workspace_RZA2M_ANPR/ANPR_RZA2M_EBK/src/tensorflow_lite/tensorflow/lite/kernels/internal\types.h ****   kRelu6,
  30:C:/Renesas/e2studio_2021_01_workspace_RZA2M_ANPR/ANPR_RZA2M_EBK/src/tensorflow_lite/tensorflow/lite/kernels/internal\types.h ****   kRelu1,
  31:C:/Renesas/e2studio_2021_01_workspace_RZA2M_ANPR/ANPR_RZA2M_EBK/src/tensorflow_lite/tensorflow/lite/kernels/internal\types.h ****   kRelu
  32:C:/Renesas/e2studio_2021_01_workspace_RZA2M_ANPR/ANPR_RZA2M_EBK/src/tensorflow_lite/tensorflow/lite/kernels/internal\types.h **** };
  33:C:/Renesas/e2studio_2021_01_workspace_RZA2M_ANPR/ANPR_RZA2M_EBK/src/tensorflow_lite/tensorflow/lite/kernels/internal\types.h **** enum class PaddingType : uint8_t { kNone, kSame, kValid };
  34:C:/Renesas/e2studio_2021_01_workspace_RZA2M_ANPR/ANPR_RZA2M_EBK/src/tensorflow_lite/tensorflow/lite/kernels/internal\types.h **** 
  35:C:/Renesas/e2studio_2021_01_workspace_RZA2M_ANPR/ANPR_RZA2M_EBK/src/tensorflow_lite/tensorflow/lite/kernels/internal\types.h **** struct PaddingValues {
  36:C:/Renesas/e2studio_2021_01_workspace_RZA2M_ANPR/ANPR_RZA2M_EBK/src/tensorflow_lite/tensorflow/lite/kernels/internal\types.h ****   int16_t width;
  37:C:/Renesas/e2studio_2021_01_workspace_RZA2M_ANPR/ANPR_RZA2M_EBK/src/tensorflow_lite/tensorflow/lite/kernels/internal\types.h ****   int16_t height;
  38:C:/Renesas/e2studio_2021_01_workspace_RZA2M_ANPR/ANPR_RZA2M_EBK/src/tensorflow_lite/tensorflow/lite/kernels/internal\types.h ****   // offset is used for calculating "remaining" padding, for example, `width`
  39:C:/Renesas/e2studio_2021_01_workspace_RZA2M_ANPR/ANPR_RZA2M_EBK/src/tensorflow_lite/tensorflow/lite/kernels/internal\types.h ****   // is 1 and `width_offset` is 1, so padding_left is 1 while padding_right is
  40:C:/Renesas/e2studio_2021_01_workspace_RZA2M_ANPR/ANPR_RZA2M_EBK/src/tensorflow_lite/tensorflow/lite/kernels/internal\types.h ****   // 1 + 1 = 2.
  41:C:/Renesas/e2studio_2021_01_workspace_RZA2M_ANPR/ANPR_RZA2M_EBK/src/tensorflow_lite/tensorflow/lite/kernels/internal\types.h ****   int16_t width_offset;
  42:C:/Renesas/e2studio_2021_01_workspace_RZA2M_ANPR/ANPR_RZA2M_EBK/src/tensorflow_lite/tensorflow/lite/kernels/internal\types.h ****   // Same as width_offset except it's over the height dimension.
  43:C:/Renesas/e2studio_2021_01_workspace_RZA2M_ANPR/ANPR_RZA2M_EBK/src/tensorflow_lite/tensorflow/lite/kernels/internal\types.h ****   int16_t height_offset;
  44:C:/Renesas/e2studio_2021_01_workspace_RZA2M_ANPR/ANPR_RZA2M_EBK/src/tensorflow_lite/tensorflow/lite/kernels/internal\types.h **** };
  45:C:/Renesas/e2studio_2021_01_workspace_RZA2M_ANPR/ANPR_RZA2M_EBK/src/tensorflow_lite/tensorflow/lite/kernels/internal\types.h **** 
  46:C:/Renesas/e2studio_2021_01_workspace_RZA2M_ANPR/ANPR_RZA2M_EBK/src/tensorflow_lite/tensorflow/lite/kernels/internal\types.h **** struct Padding3DValues {
  47:C:/Renesas/e2studio_2021_01_workspace_RZA2M_ANPR/ANPR_RZA2M_EBK/src/tensorflow_lite/tensorflow/lite/kernels/internal\types.h ****   int16_t width;
  48:C:/Renesas/e2studio_2021_01_workspace_RZA2M_ANPR/ANPR_RZA2M_EBK/src/tensorflow_lite/tensorflow/lite/kernels/internal\types.h ****   int16_t height;
  49:C:/Renesas/e2studio_2021_01_workspace_RZA2M_ANPR/ANPR_RZA2M_EBK/src/tensorflow_lite/tensorflow/lite/kernels/internal\types.h ****   int16_t depth;
  50:C:/Renesas/e2studio_2021_01_workspace_RZA2M_ANPR/ANPR_RZA2M_EBK/src/tensorflow_lite/tensorflow/lite/kernels/internal\types.h ****   // offset is used for calculating "remaining" padding, for example, `width`
  51:C:/Renesas/e2studio_2021_01_workspace_RZA2M_ANPR/ANPR_RZA2M_EBK/src/tensorflow_lite/tensorflow/lite/kernels/internal\types.h ****   // is 1 and `width_offset` is 1, so padding_left is 1 while padding_right is
  52:C:/Renesas/e2studio_2021_01_workspace_RZA2M_ANPR/ANPR_RZA2M_EBK/src/tensorflow_lite/tensorflow/lite/kernels/internal\types.h ****   // 1 + 1 = 2.
  53:C:/Renesas/e2studio_2021_01_workspace_RZA2M_ANPR/ANPR_RZA2M_EBK/src/tensorflow_lite/tensorflow/lite/kernels/internal\types.h ****   int16_t width_offset;
  54:C:/Renesas/e2studio_2021_01_workspace_RZA2M_ANPR/ANPR_RZA2M_EBK/src/tensorflow_lite/tensorflow/lite/kernels/internal\types.h ****   // Same as width_offset except it's over the height dimension.
  55:C:/Renesas/e2studio_2021_01_workspace_RZA2M_ANPR/ANPR_RZA2M_EBK/src/tensorflow_lite/tensorflow/lite/kernels/internal\types.h ****   int16_t height_offset;
  56:C:/Renesas/e2studio_2021_01_workspace_RZA2M_ANPR/ANPR_RZA2M_EBK/src/tensorflow_lite/tensorflow/lite/kernels/internal\types.h ****   // Same as width_offset except it's over the depth dimension.
  57:C:/Renesas/e2studio_2021_01_workspace_RZA2M_ANPR/ANPR_RZA2M_EBK/src/tensorflow_lite/tensorflow/lite/kernels/internal\types.h ****   int16_t depth_offset;
  58:C:/Renesas/e2studio_2021_01_workspace_RZA2M_ANPR/ANPR_RZA2M_EBK/src/tensorflow_lite/tensorflow/lite/kernels/internal\types.h **** };
  59:C:/Renesas/e2studio_2021_01_workspace_RZA2M_ANPR/ANPR_RZA2M_EBK/src/tensorflow_lite/tensorflow/lite/kernels/internal\types.h **** 
  60:C:/Renesas/e2studio_2021_01_workspace_RZA2M_ANPR/ANPR_RZA2M_EBK/src/tensorflow_lite/tensorflow/lite/kernels/internal\types.h **** // This enumeration allows for non-default formats for the weights array
  61:C:/Renesas/e2studio_2021_01_workspace_RZA2M_ANPR/ANPR_RZA2M_EBK/src/tensorflow_lite/tensorflow/lite/kernels/internal\types.h **** // of a fully-connected operator, allowing the use of special optimized
  62:C:/Renesas/e2studio_2021_01_workspace_RZA2M_ANPR/ANPR_RZA2M_EBK/src/tensorflow_lite/tensorflow/lite/kernels/internal\types.h **** // runtime paths.
  63:C:/Renesas/e2studio_2021_01_workspace_RZA2M_ANPR/ANPR_RZA2M_EBK/src/tensorflow_lite/tensorflow/lite/kernels/internal\types.h **** enum class FullyConnectedWeightsFormat : uint8_t {
  64:C:/Renesas/e2studio_2021_01_workspace_RZA2M_ANPR/ANPR_RZA2M_EBK/src/tensorflow_lite/tensorflow/lite/kernels/internal\types.h ****   // Default format (flat 2D layout, the inner contiguous dimension
  65:C:/Renesas/e2studio_2021_01_workspace_RZA2M_ANPR/ANPR_RZA2M_EBK/src/tensorflow_lite/tensorflow/lite/kernels/internal\types.h ****   // is input_depth, the outer non-contiguous dimension is output_depth)
  66:C:/Renesas/e2studio_2021_01_workspace_RZA2M_ANPR/ANPR_RZA2M_EBK/src/tensorflow_lite/tensorflow/lite/kernels/internal\types.h ****   kDefault,
  67:C:/Renesas/e2studio_2021_01_workspace_RZA2M_ANPR/ANPR_RZA2M_EBK/src/tensorflow_lite/tensorflow/lite/kernels/internal\types.h ****   // Summary: optimized layout for fast CPU runtime implementation,
  68:C:/Renesas/e2studio_2021_01_workspace_RZA2M_ANPR/ANPR_RZA2M_EBK/src/tensorflow_lite/tensorflow/lite/kernels/internal\types.h ****   // aimed specifically at ARM CPUs at the moment, and specialized for
  69:C:/Renesas/e2studio_2021_01_workspace_RZA2M_ANPR/ANPR_RZA2M_EBK/src/tensorflow_lite/tensorflow/lite/kernels/internal\types.h ****   // 8-bit quantized layers.
  70:C:/Renesas/e2studio_2021_01_workspace_RZA2M_ANPR/ANPR_RZA2M_EBK/src/tensorflow_lite/tensorflow/lite/kernels/internal\types.h ****   //
  71:C:/Renesas/e2studio_2021_01_workspace_RZA2M_ANPR/ANPR_RZA2M_EBK/src/tensorflow_lite/tensorflow/lite/kernels/internal\types.h ****   // The use case we're concerned with here is: 8-bit quantization,
  72:C:/Renesas/e2studio_2021_01_workspace_RZA2M_ANPR/ANPR_RZA2M_EBK/src/tensorflow_lite/tensorflow/lite/kernels/internal\types.h ****   // large weights matrix that doesn't fit in cache (e.g. 4096x2048 in
  73:C:/Renesas/e2studio_2021_01_workspace_RZA2M_ANPR/ANPR_RZA2M_EBK/src/tensorflow_lite/tensorflow/lite/kernels/internal\types.h ****   // a key application that drove this), very small batch size (e.g. 1 -- 4).
  74:C:/Renesas/e2studio_2021_01_workspace_RZA2M_ANPR/ANPR_RZA2M_EBK/src/tensorflow_lite/tensorflow/lite/kernels/internal\types.h ****   //
  75:C:/Renesas/e2studio_2021_01_workspace_RZA2M_ANPR/ANPR_RZA2M_EBK/src/tensorflow_lite/tensorflow/lite/kernels/internal\types.h ****   // Even with 8-bit quantization of weights, the performance of memory
  76:C:/Renesas/e2studio_2021_01_workspace_RZA2M_ANPR/ANPR_RZA2M_EBK/src/tensorflow_lite/tensorflow/lite/kernels/internal\types.h ****   // accesses to the weights can become the dominant issue when
  77:C:/Renesas/e2studio_2021_01_workspace_RZA2M_ANPR/ANPR_RZA2M_EBK/src/tensorflow_lite/tensorflow/lite/kernels/internal\types.h ****   // the batch size is small, so each weight value is used in only a few
  78:C:/Renesas/e2studio_2021_01_workspace_RZA2M_ANPR/ANPR_RZA2M_EBK/src/tensorflow_lite/tensorflow/lite/kernels/internal\types.h ****   // arithmetic ops, i.e. the fully-connected node has a low arithmetic
  79:C:/Renesas/e2studio_2021_01_workspace_RZA2M_ANPR/ANPR_RZA2M_EBK/src/tensorflow_lite/tensorflow/lite/kernels/internal\types.h ****   // intensity. The specific issues that arise are of three kinds:
  80:C:/Renesas/e2studio_2021_01_workspace_RZA2M_ANPR/ANPR_RZA2M_EBK/src/tensorflow_lite/tensorflow/lite/kernels/internal\types.h ****   // (1) One may, ideally, max out DRAM bandwidth, i.e. be truly memory
  81:C:/Renesas/e2studio_2021_01_workspace_RZA2M_ANPR/ANPR_RZA2M_EBK/src/tensorflow_lite/tensorflow/lite/kernels/internal\types.h ****   //     bound. That's the "good" issue to run into.
  82:C:/Renesas/e2studio_2021_01_workspace_RZA2M_ANPR/ANPR_RZA2M_EBK/src/tensorflow_lite/tensorflow/lite/kernels/internal\types.h ****   // (2) One may run into sub-optimal pre-fetching: the data hasn't been
  83:C:/Renesas/e2studio_2021_01_workspace_RZA2M_ANPR/ANPR_RZA2M_EBK/src/tensorflow_lite/tensorflow/lite/kernels/internal\types.h ****   //     prefetched into the cache by the time we need it.
  84:C:/Renesas/e2studio_2021_01_workspace_RZA2M_ANPR/ANPR_RZA2M_EBK/src/tensorflow_lite/tensorflow/lite/kernels/internal\types.h ****   // (3) One may run into cache aliasing: multiple values that are
  85:C:/Renesas/e2studio_2021_01_workspace_RZA2M_ANPR/ANPR_RZA2M_EBK/src/tensorflow_lite/tensorflow/lite/kernels/internal\types.h ****   //     pre-fetched, alias each other in the L1 cache (which typically
  86:C:/Renesas/e2studio_2021_01_workspace_RZA2M_ANPR/ANPR_RZA2M_EBK/src/tensorflow_lite/tensorflow/lite/kernels/internal\types.h ****   //     has only 4-way set associativity in ARM CPUs) and thus evict
  87:C:/Renesas/e2studio_2021_01_workspace_RZA2M_ANPR/ANPR_RZA2M_EBK/src/tensorflow_lite/tensorflow/lite/kernels/internal\types.h ****   //     each other before we get to using them.
  88:C:/Renesas/e2studio_2021_01_workspace_RZA2M_ANPR/ANPR_RZA2M_EBK/src/tensorflow_lite/tensorflow/lite/kernels/internal\types.h ****   //
  89:C:/Renesas/e2studio_2021_01_workspace_RZA2M_ANPR/ANPR_RZA2M_EBK/src/tensorflow_lite/tensorflow/lite/kernels/internal\types.h ****   // The point of this shuffling is to avoid issues (2) and (3) so that
  90:C:/Renesas/e2studio_2021_01_workspace_RZA2M_ANPR/ANPR_RZA2M_EBK/src/tensorflow_lite/tensorflow/lite/kernels/internal\types.h ****   // we get as fast as possible given only the hard constraint (1).
  91:C:/Renesas/e2studio_2021_01_workspace_RZA2M_ANPR/ANPR_RZA2M_EBK/src/tensorflow_lite/tensorflow/lite/kernels/internal\types.h ****   // This is achieved by turning the difficulty into a solution: the
  92:C:/Renesas/e2studio_2021_01_workspace_RZA2M_ANPR/ANPR_RZA2M_EBK/src/tensorflow_lite/tensorflow/lite/kernels/internal\types.h ****   // difficulty, that each value loaded from memory is used only in
  93:C:/Renesas/e2studio_2021_01_workspace_RZA2M_ANPR/ANPR_RZA2M_EBK/src/tensorflow_lite/tensorflow/lite/kernels/internal\types.h ****   // one kernel iteration, making this operation memory-intensive, hints at
  94:C:/Renesas/e2studio_2021_01_workspace_RZA2M_ANPR/ANPR_RZA2M_EBK/src/tensorflow_lite/tensorflow/lite/kernels/internal\types.h ****   // the solution, of shuffling the weights so that they are stored in the
  95:C:/Renesas/e2studio_2021_01_workspace_RZA2M_ANPR/ANPR_RZA2M_EBK/src/tensorflow_lite/tensorflow/lite/kernels/internal\types.h ****   // exact order as the kernel needs to load them, so that the memory
  96:C:/Renesas/e2studio_2021_01_workspace_RZA2M_ANPR/ANPR_RZA2M_EBK/src/tensorflow_lite/tensorflow/lite/kernels/internal\types.h ****   // accesses made by the kernel are trivial. This solves (2) because the
  97:C:/Renesas/e2studio_2021_01_workspace_RZA2M_ANPR/ANPR_RZA2M_EBK/src/tensorflow_lite/tensorflow/lite/kernels/internal\types.h ****   // trivial memory access pattern allows the CPU's automatic prefetching
  98:C:/Renesas/e2studio_2021_01_workspace_RZA2M_ANPR/ANPR_RZA2M_EBK/src/tensorflow_lite/tensorflow/lite/kernels/internal\types.h ****   // to perform very well (no need even for preload instructions), and this
  99:C:/Renesas/e2studio_2021_01_workspace_RZA2M_ANPR/ANPR_RZA2M_EBK/src/tensorflow_lite/tensorflow/lite/kernels/internal\types.h ****   // solves (3) because the values being loaded concurrently are now
 100:C:/Renesas/e2studio_2021_01_workspace_RZA2M_ANPR/ANPR_RZA2M_EBK/src/tensorflow_lite/tensorflow/lite/kernels/internal\types.h ****   // contiguous in the address space, thus don't alias each other in the cache.
 101:C:/Renesas/e2studio_2021_01_workspace_RZA2M_ANPR/ANPR_RZA2M_EBK/src/tensorflow_lite/tensorflow/lite/kernels/internal\types.h ****   //
 102:C:/Renesas/e2studio_2021_01_workspace_RZA2M_ANPR/ANPR_RZA2M_EBK/src/tensorflow_lite/tensorflow/lite/kernels/internal\types.h ****   // On ARM, we typically want our kernel to process a 4x16 block of weights
 103:C:/Renesas/e2studio_2021_01_workspace_RZA2M_ANPR/ANPR_RZA2M_EBK/src/tensorflow_lite/tensorflow/lite/kernels/internal\types.h ****   // at a time, because:
 104:C:/Renesas/e2studio_2021_01_workspace_RZA2M_ANPR/ANPR_RZA2M_EBK/src/tensorflow_lite/tensorflow/lite/kernels/internal\types.h ****   //   - 16 is the number of bytes in a NEON register.
 105:C:/Renesas/e2studio_2021_01_workspace_RZA2M_ANPR/ANPR_RZA2M_EBK/src/tensorflow_lite/tensorflow/lite/kernels/internal\types.h ****   //   - 4 is how many rows we need to handle concurrently in the kernel in
 106:C:/Renesas/e2studio_2021_01_workspace_RZA2M_ANPR/ANPR_RZA2M_EBK/src/tensorflow_lite/tensorflow/lite/kernels/internal\types.h ****   //     order to have sufficient mutual independence of instructions to
 107:C:/Renesas/e2studio_2021_01_workspace_RZA2M_ANPR/ANPR_RZA2M_EBK/src/tensorflow_lite/tensorflow/lite/kernels/internal\types.h ****   //     maximize arithmetic throughput.
 108:C:/Renesas/e2studio_2021_01_workspace_RZA2M_ANPR/ANPR_RZA2M_EBK/src/tensorflow_lite/tensorflow/lite/kernels/internal\types.h ****   //
 109:C:/Renesas/e2studio_2021_01_workspace_RZA2M_ANPR/ANPR_RZA2M_EBK/src/tensorflow_lite/tensorflow/lite/kernels/internal\types.h ****   // Finally, the 'Int8' part in the name refers to the fact that this
 110:C:/Renesas/e2studio_2021_01_workspace_RZA2M_ANPR/ANPR_RZA2M_EBK/src/tensorflow_lite/tensorflow/lite/kernels/internal\types.h ****   // weights format has each weights value encoded as a signed int8_t value,
 111:C:/Renesas/e2studio_2021_01_workspace_RZA2M_ANPR/ANPR_RZA2M_EBK/src/tensorflow_lite/tensorflow/lite/kernels/internal\types.h ****   // even if the data type of the weights buffer is uint8_t.  This is intended
 112:C:/Renesas/e2studio_2021_01_workspace_RZA2M_ANPR/ANPR_RZA2M_EBK/src/tensorflow_lite/tensorflow/lite/kernels/internal\types.h ****   // to save runtime kernels the effort to have to XOR the top bit of these
 113:C:/Renesas/e2studio_2021_01_workspace_RZA2M_ANPR/ANPR_RZA2M_EBK/src/tensorflow_lite/tensorflow/lite/kernels/internal\types.h ****   // bytes before using them in signed arithmetic, see this file for more
 114:C:/Renesas/e2studio_2021_01_workspace_RZA2M_ANPR/ANPR_RZA2M_EBK/src/tensorflow_lite/tensorflow/lite/kernels/internal\types.h ****   // explanations on the 'signed int8_t trick' in matrix multiplication kernels:
 115:C:/Renesas/e2studio_2021_01_workspace_RZA2M_ANPR/ANPR_RZA2M_EBK/src/tensorflow_lite/tensorflow/lite/kernels/internal\types.h ****   //
 116:C:/Renesas/e2studio_2021_01_workspace_RZA2M_ANPR/ANPR_RZA2M_EBK/src/tensorflow_lite/tensorflow/lite/kernels/internal\types.h ****   //   tensorflow/lite/toco/graph_transformations/ensure_uint8_weights_safe_for_fast_int8_kernels.c
 117:C:/Renesas/e2studio_2021_01_workspace_RZA2M_ANPR/ANPR_RZA2M_EBK/src/tensorflow_lite/tensorflow/lite/kernels/internal\types.h ****   //
 118:C:/Renesas/e2studio_2021_01_workspace_RZA2M_ANPR/ANPR_RZA2M_EBK/src/tensorflow_lite/tensorflow/lite/kernels/internal\types.h ****   kShuffled4x16Int8,
 119:C:/Renesas/e2studio_2021_01_workspace_RZA2M_ANPR/ANPR_RZA2M_EBK/src/tensorflow_lite/tensorflow/lite/kernels/internal\types.h **** };
 120:C:/Renesas/e2studio_2021_01_workspace_RZA2M_ANPR/ANPR_RZA2M_EBK/src/tensorflow_lite/tensorflow/lite/kernels/internal\types.h **** 
 121:C:/Renesas/e2studio_2021_01_workspace_RZA2M_ANPR/ANPR_RZA2M_EBK/src/tensorflow_lite/tensorflow/lite/kernels/internal\types.h **** // Quantization parameters, determining the mapping of quantized values
 122:C:/Renesas/e2studio_2021_01_workspace_RZA2M_ANPR/ANPR_RZA2M_EBK/src/tensorflow_lite/tensorflow/lite/kernels/internal\types.h **** // to real values (i.e. determining how quantized values are mathematically
 123:C:/Renesas/e2studio_2021_01_workspace_RZA2M_ANPR/ANPR_RZA2M_EBK/src/tensorflow_lite/tensorflow/lite/kernels/internal\types.h **** // interpreted).
 124:C:/Renesas/e2studio_2021_01_workspace_RZA2M_ANPR/ANPR_RZA2M_EBK/src/tensorflow_lite/tensorflow/lite/kernels/internal\types.h **** //
 125:C:/Renesas/e2studio_2021_01_workspace_RZA2M_ANPR/ANPR_RZA2M_EBK/src/tensorflow_lite/tensorflow/lite/kernels/internal\types.h **** // The correspondence is as follows:
 126:C:/Renesas/e2studio_2021_01_workspace_RZA2M_ANPR/ANPR_RZA2M_EBK/src/tensorflow_lite/tensorflow/lite/kernels/internal\types.h **** //
 127:C:/Renesas/e2studio_2021_01_workspace_RZA2M_ANPR/ANPR_RZA2M_EBK/src/tensorflow_lite/tensorflow/lite/kernels/internal\types.h **** //   real_value = scale * (quantized_value - zero_point);
 128:C:/Renesas/e2studio_2021_01_workspace_RZA2M_ANPR/ANPR_RZA2M_EBK/src/tensorflow_lite/tensorflow/lite/kernels/internal\types.h **** //
 129:C:/Renesas/e2studio_2021_01_workspace_RZA2M_ANPR/ANPR_RZA2M_EBK/src/tensorflow_lite/tensorflow/lite/kernels/internal\types.h **** // In other words, zero_point designates which quantized value corresponds to
 130:C:/Renesas/e2studio_2021_01_workspace_RZA2M_ANPR/ANPR_RZA2M_EBK/src/tensorflow_lite/tensorflow/lite/kernels/internal\types.h **** // the real 0 value, and scale designates the difference between the real values
 131:C:/Renesas/e2studio_2021_01_workspace_RZA2M_ANPR/ANPR_RZA2M_EBK/src/tensorflow_lite/tensorflow/lite/kernels/internal\types.h **** // corresponding to consecutive quantized values differing by 1.
 132:C:/Renesas/e2studio_2021_01_workspace_RZA2M_ANPR/ANPR_RZA2M_EBK/src/tensorflow_lite/tensorflow/lite/kernels/internal\types.h **** struct QuantizationParams {
 133:C:/Renesas/e2studio_2021_01_workspace_RZA2M_ANPR/ANPR_RZA2M_EBK/src/tensorflow_lite/tensorflow/lite/kernels/internal\types.h ****   int32_t zero_point = 0;
 134:C:/Renesas/e2studio_2021_01_workspace_RZA2M_ANPR/ANPR_RZA2M_EBK/src/tensorflow_lite/tensorflow/lite/kernels/internal\types.h ****   double scale = 0.0;
 135:C:/Renesas/e2studio_2021_01_workspace_RZA2M_ANPR/ANPR_RZA2M_EBK/src/tensorflow_lite/tensorflow/lite/kernels/internal\types.h **** };
 136:C:/Renesas/e2studio_2021_01_workspace_RZA2M_ANPR/ANPR_RZA2M_EBK/src/tensorflow_lite/tensorflow/lite/kernels/internal\types.h **** 
 137:C:/Renesas/e2studio_2021_01_workspace_RZA2M_ANPR/ANPR_RZA2M_EBK/src/tensorflow_lite/tensorflow/lite/kernels/internal\types.h **** inline bool operator==(const QuantizationParams& qp1,
 138:C:/Renesas/e2studio_2021_01_workspace_RZA2M_ANPR/ANPR_RZA2M_EBK/src/tensorflow_lite/tensorflow/lite/kernels/internal\types.h ****                        const QuantizationParams& qp2) {
 139:C:/Renesas/e2studio_2021_01_workspace_RZA2M_ANPR/ANPR_RZA2M_EBK/src/tensorflow_lite/tensorflow/lite/kernels/internal\types.h ****   return qp1.zero_point == qp2.zero_point && qp1.scale == qp2.scale;
 140:C:/Renesas/e2studio_2021_01_workspace_RZA2M_ANPR/ANPR_RZA2M_EBK/src/tensorflow_lite/tensorflow/lite/kernels/internal\types.h **** }
 141:C:/Renesas/e2studio_2021_01_workspace_RZA2M_ANPR/ANPR_RZA2M_EBK/src/tensorflow_lite/tensorflow/lite/kernels/internal\types.h **** 
 142:C:/Renesas/e2studio_2021_01_workspace_RZA2M_ANPR/ANPR_RZA2M_EBK/src/tensorflow_lite/tensorflow/lite/kernels/internal\types.h **** template <int N>
 143:C:/Renesas/e2studio_2021_01_workspace_RZA2M_ANPR/ANPR_RZA2M_EBK/src/tensorflow_lite/tensorflow/lite/kernels/internal\types.h **** struct Dims {
 144:C:/Renesas/e2studio_2021_01_workspace_RZA2M_ANPR/ANPR_RZA2M_EBK/src/tensorflow_lite/tensorflow/lite/kernels/internal\types.h ****   int sizes[N];
 145:C:/Renesas/e2studio_2021_01_workspace_RZA2M_ANPR/ANPR_RZA2M_EBK/src/tensorflow_lite/tensorflow/lite/kernels/internal\types.h ****   int strides[N];
 146:C:/Renesas/e2studio_2021_01_workspace_RZA2M_ANPR/ANPR_RZA2M_EBK/src/tensorflow_lite/tensorflow/lite/kernels/internal\types.h **** };
 147:C:/Renesas/e2studio_2021_01_workspace_RZA2M_ANPR/ANPR_RZA2M_EBK/src/tensorflow_lite/tensorflow/lite/kernels/internal\types.h **** 
 148:C:/Renesas/e2studio_2021_01_workspace_RZA2M_ANPR/ANPR_RZA2M_EBK/src/tensorflow_lite/tensorflow/lite/kernels/internal\types.h **** class RuntimeShape {
 149:C:/Renesas/e2studio_2021_01_workspace_RZA2M_ANPR/ANPR_RZA2M_EBK/src/tensorflow_lite/tensorflow/lite/kernels/internal\types.h ****  public:
 150:C:/Renesas/e2studio_2021_01_workspace_RZA2M_ANPR/ANPR_RZA2M_EBK/src/tensorflow_lite/tensorflow/lite/kernels/internal\types.h ****   // Shapes with dimensions up to 5 are stored directly in the structure, while
 151:C:/Renesas/e2studio_2021_01_workspace_RZA2M_ANPR/ANPR_RZA2M_EBK/src/tensorflow_lite/tensorflow/lite/kernels/internal\types.h ****   // larger shapes are separately allocated.
 152:C:/Renesas/e2studio_2021_01_workspace_RZA2M_ANPR/ANPR_RZA2M_EBK/src/tensorflow_lite/tensorflow/lite/kernels/internal\types.h ****   static constexpr int kMaxSmallSize = 5;
 153:C:/Renesas/e2studio_2021_01_workspace_RZA2M_ANPR/ANPR_RZA2M_EBK/src/tensorflow_lite/tensorflow/lite/kernels/internal\types.h **** 
 154:C:/Renesas/e2studio_2021_01_workspace_RZA2M_ANPR/ANPR_RZA2M_EBK/src/tensorflow_lite/tensorflow/lite/kernels/internal\types.h ****   RuntimeShape& operator=(RuntimeShape const&) = delete;
 155:C:/Renesas/e2studio_2021_01_workspace_RZA2M_ANPR/ANPR_RZA2M_EBK/src/tensorflow_lite/tensorflow/lite/kernels/internal\types.h **** 
 156:C:/Renesas/e2studio_2021_01_workspace_RZA2M_ANPR/ANPR_RZA2M_EBK/src/tensorflow_lite/tensorflow/lite/kernels/internal\types.h ****   RuntimeShape() : size_(0) {}
 157:C:/Renesas/e2studio_2021_01_workspace_RZA2M_ANPR/ANPR_RZA2M_EBK/src/tensorflow_lite/tensorflow/lite/kernels/internal\types.h **** 
 158:C:/Renesas/e2studio_2021_01_workspace_RZA2M_ANPR/ANPR_RZA2M_EBK/src/tensorflow_lite/tensorflow/lite/kernels/internal\types.h ****   explicit RuntimeShape(int dimensions_count) : size_(dimensions_count) {
 159:C:/Renesas/e2studio_2021_01_workspace_RZA2M_ANPR/ANPR_RZA2M_EBK/src/tensorflow_lite/tensorflow/lite/kernels/internal\types.h ****     if (dimensions_count > kMaxSmallSize) {
 160:C:/Renesas/e2studio_2021_01_workspace_RZA2M_ANPR/ANPR_RZA2M_EBK/src/tensorflow_lite/tensorflow/lite/kernels/internal\types.h **** #ifdef TF_LITE_STATIC_MEMORY
 161:C:/Renesas/e2studio_2021_01_workspace_RZA2M_ANPR/ANPR_RZA2M_EBK/src/tensorflow_lite/tensorflow/lite/kernels/internal\types.h ****       TFLITE_CHECK(false && "No shape resizing supported on this platform");
 162:C:/Renesas/e2studio_2021_01_workspace_RZA2M_ANPR/ANPR_RZA2M_EBK/src/tensorflow_lite/tensorflow/lite/kernels/internal\types.h **** #else  // TF_LITE_STATIC_MEMORY
 163:C:/Renesas/e2studio_2021_01_workspace_RZA2M_ANPR/ANPR_RZA2M_EBK/src/tensorflow_lite/tensorflow/lite/kernels/internal\types.h ****       dims_pointer_ = new int32_t[dimensions_count];
 164:C:/Renesas/e2studio_2021_01_workspace_RZA2M_ANPR/ANPR_RZA2M_EBK/src/tensorflow_lite/tensorflow/lite/kernels/internal\types.h **** #endif  // TF_LITE_STATIC_MEMORY
 165:C:/Renesas/e2studio_2021_01_workspace_RZA2M_ANPR/ANPR_RZA2M_EBK/src/tensorflow_lite/tensorflow/lite/kernels/internal\types.h ****     }
 166:C:/Renesas/e2studio_2021_01_workspace_RZA2M_ANPR/ANPR_RZA2M_EBK/src/tensorflow_lite/tensorflow/lite/kernels/internal\types.h ****   }
 167:C:/Renesas/e2studio_2021_01_workspace_RZA2M_ANPR/ANPR_RZA2M_EBK/src/tensorflow_lite/tensorflow/lite/kernels/internal\types.h **** 
 168:C:/Renesas/e2studio_2021_01_workspace_RZA2M_ANPR/ANPR_RZA2M_EBK/src/tensorflow_lite/tensorflow/lite/kernels/internal\types.h ****   RuntimeShape(int shape_size, int32_t value) : size_(0) {
 169:C:/Renesas/e2studio_2021_01_workspace_RZA2M_ANPR/ANPR_RZA2M_EBK/src/tensorflow_lite/tensorflow/lite/kernels/internal\types.h ****     Resize(shape_size);
 170:C:/Renesas/e2studio_2021_01_workspace_RZA2M_ANPR/ANPR_RZA2M_EBK/src/tensorflow_lite/tensorflow/lite/kernels/internal\types.h ****     for (int i = 0; i < shape_size; ++i) {
 171:C:/Renesas/e2studio_2021_01_workspace_RZA2M_ANPR/ANPR_RZA2M_EBK/src/tensorflow_lite/tensorflow/lite/kernels/internal\types.h ****       SetDim(i, value);
 172:C:/Renesas/e2studio_2021_01_workspace_RZA2M_ANPR/ANPR_RZA2M_EBK/src/tensorflow_lite/tensorflow/lite/kernels/internal\types.h ****     }
 173:C:/Renesas/e2studio_2021_01_workspace_RZA2M_ANPR/ANPR_RZA2M_EBK/src/tensorflow_lite/tensorflow/lite/kernels/internal\types.h ****   }
 174:C:/Renesas/e2studio_2021_01_workspace_RZA2M_ANPR/ANPR_RZA2M_EBK/src/tensorflow_lite/tensorflow/lite/kernels/internal\types.h **** 
 175:C:/Renesas/e2studio_2021_01_workspace_RZA2M_ANPR/ANPR_RZA2M_EBK/src/tensorflow_lite/tensorflow/lite/kernels/internal\types.h ****   RuntimeShape(int dimensions_count, const int32_t* dims_data) : size_(0) {
 176:C:/Renesas/e2studio_2021_01_workspace_RZA2M_ANPR/ANPR_RZA2M_EBK/src/tensorflow_lite/tensorflow/lite/kernels/internal\types.h ****     ReplaceWith(dimensions_count, dims_data);
 177:C:/Renesas/e2studio_2021_01_workspace_RZA2M_ANPR/ANPR_RZA2M_EBK/src/tensorflow_lite/tensorflow/lite/kernels/internal\types.h ****   }
 178:C:/Renesas/e2studio_2021_01_workspace_RZA2M_ANPR/ANPR_RZA2M_EBK/src/tensorflow_lite/tensorflow/lite/kernels/internal\types.h **** 
 179:C:/Renesas/e2studio_2021_01_workspace_RZA2M_ANPR/ANPR_RZA2M_EBK/src/tensorflow_lite/tensorflow/lite/kernels/internal\types.h ****   RuntimeShape(const std::initializer_list<int> init_list) : size_(0) {
 180:C:/Renesas/e2studio_2021_01_workspace_RZA2M_ANPR/ANPR_RZA2M_EBK/src/tensorflow_lite/tensorflow/lite/kernels/internal\types.h ****     BuildFrom(init_list);
 181:C:/Renesas/e2studio_2021_01_workspace_RZA2M_ANPR/ANPR_RZA2M_EBK/src/tensorflow_lite/tensorflow/lite/kernels/internal\types.h ****   }
 182:C:/Renesas/e2studio_2021_01_workspace_RZA2M_ANPR/ANPR_RZA2M_EBK/src/tensorflow_lite/tensorflow/lite/kernels/internal\types.h **** 
 183:C:/Renesas/e2studio_2021_01_workspace_RZA2M_ANPR/ANPR_RZA2M_EBK/src/tensorflow_lite/tensorflow/lite/kernels/internal\types.h ****   // Avoid using this constructor.  We should be able to delete it when C++17
 184:C:/Renesas/e2studio_2021_01_workspace_RZA2M_ANPR/ANPR_RZA2M_EBK/src/tensorflow_lite/tensorflow/lite/kernels/internal\types.h ****   // rolls out.
 185:C:/Renesas/e2studio_2021_01_workspace_RZA2M_ANPR/ANPR_RZA2M_EBK/src/tensorflow_lite/tensorflow/lite/kernels/internal\types.h ****   RuntimeShape(RuntimeShape const& other) : size_(other.DimensionsCount()) {
 186:C:/Renesas/e2studio_2021_01_workspace_RZA2M_ANPR/ANPR_RZA2M_EBK/src/tensorflow_lite/tensorflow/lite/kernels/internal\types.h ****     if (size_ > kMaxSmallSize) {
 187:C:/Renesas/e2studio_2021_01_workspace_RZA2M_ANPR/ANPR_RZA2M_EBK/src/tensorflow_lite/tensorflow/lite/kernels/internal\types.h **** #ifdef TF_LITE_STATIC_MEMORY
 188:C:/Renesas/e2studio_2021_01_workspace_RZA2M_ANPR/ANPR_RZA2M_EBK/src/tensorflow_lite/tensorflow/lite/kernels/internal\types.h ****       TFLITE_CHECK(false && "No shape resizing supported on this platform");
 189:C:/Renesas/e2studio_2021_01_workspace_RZA2M_ANPR/ANPR_RZA2M_EBK/src/tensorflow_lite/tensorflow/lite/kernels/internal\types.h **** #else
 190:C:/Renesas/e2studio_2021_01_workspace_RZA2M_ANPR/ANPR_RZA2M_EBK/src/tensorflow_lite/tensorflow/lite/kernels/internal\types.h ****       dims_pointer_ = new int32_t[size_];
 191:C:/Renesas/e2studio_2021_01_workspace_RZA2M_ANPR/ANPR_RZA2M_EBK/src/tensorflow_lite/tensorflow/lite/kernels/internal\types.h **** #endif
 192:C:/Renesas/e2studio_2021_01_workspace_RZA2M_ANPR/ANPR_RZA2M_EBK/src/tensorflow_lite/tensorflow/lite/kernels/internal\types.h ****     }
 193:C:/Renesas/e2studio_2021_01_workspace_RZA2M_ANPR/ANPR_RZA2M_EBK/src/tensorflow_lite/tensorflow/lite/kernels/internal\types.h ****     std::memcpy(DimsData(), other.DimsData(), sizeof(int32_t) * size_);
 194:C:/Renesas/e2studio_2021_01_workspace_RZA2M_ANPR/ANPR_RZA2M_EBK/src/tensorflow_lite/tensorflow/lite/kernels/internal\types.h ****   }
 195:C:/Renesas/e2studio_2021_01_workspace_RZA2M_ANPR/ANPR_RZA2M_EBK/src/tensorflow_lite/tensorflow/lite/kernels/internal\types.h **** 
 196:C:/Renesas/e2studio_2021_01_workspace_RZA2M_ANPR/ANPR_RZA2M_EBK/src/tensorflow_lite/tensorflow/lite/kernels/internal\types.h ****   bool operator==(const RuntimeShape& comp) const {
 197:C:/Renesas/e2studio_2021_01_workspace_RZA2M_ANPR/ANPR_RZA2M_EBK/src/tensorflow_lite/tensorflow/lite/kernels/internal\types.h ****     return this->size_ == comp.size_ &&
 198:C:/Renesas/e2studio_2021_01_workspace_RZA2M_ANPR/ANPR_RZA2M_EBK/src/tensorflow_lite/tensorflow/lite/kernels/internal\types.h ****            std::memcmp(DimsData(), comp.DimsData(), size_ * sizeof(int32_t)) ==
 199:C:/Renesas/e2studio_2021_01_workspace_RZA2M_ANPR/ANPR_RZA2M_EBK/src/tensorflow_lite/tensorflow/lite/kernels/internal\types.h ****                0;
 200:C:/Renesas/e2studio_2021_01_workspace_RZA2M_ANPR/ANPR_RZA2M_EBK/src/tensorflow_lite/tensorflow/lite/kernels/internal\types.h ****   }
 201:C:/Renesas/e2studio_2021_01_workspace_RZA2M_ANPR/ANPR_RZA2M_EBK/src/tensorflow_lite/tensorflow/lite/kernels/internal\types.h **** 
 202:C:/Renesas/e2studio_2021_01_workspace_RZA2M_ANPR/ANPR_RZA2M_EBK/src/tensorflow_lite/tensorflow/lite/kernels/internal\types.h ****   ~RuntimeShape() {
 203:C:/Renesas/e2studio_2021_01_workspace_RZA2M_ANPR/ANPR_RZA2M_EBK/src/tensorflow_lite/tensorflow/lite/kernels/internal\types.h ****     if (size_ > kMaxSmallSize) {
 204:C:/Renesas/e2studio_2021_01_workspace_RZA2M_ANPR/ANPR_RZA2M_EBK/src/tensorflow_lite/tensorflow/lite/kernels/internal\types.h **** #ifdef TF_LITE_STATIC_MEMORY
 205:C:/Renesas/e2studio_2021_01_workspace_RZA2M_ANPR/ANPR_RZA2M_EBK/src/tensorflow_lite/tensorflow/lite/kernels/internal\types.h ****       TFLITE_CHECK(false && "No shape resizing supported on this platform");
 206:C:/Renesas/e2studio_2021_01_workspace_RZA2M_ANPR/ANPR_RZA2M_EBK/src/tensorflow_lite/tensorflow/lite/kernels/internal\types.h **** #else  // TF_LITE_STATIC_MEMORY
 207:C:/Renesas/e2studio_2021_01_workspace_RZA2M_ANPR/ANPR_RZA2M_EBK/src/tensorflow_lite/tensorflow/lite/kernels/internal\types.h ****       delete[] dims_pointer_;
 208:C:/Renesas/e2studio_2021_01_workspace_RZA2M_ANPR/ANPR_RZA2M_EBK/src/tensorflow_lite/tensorflow/lite/kernels/internal\types.h **** #endif  // TF_LITE_STATIC_MEMORY
 209:C:/Renesas/e2studio_2021_01_workspace_RZA2M_ANPR/ANPR_RZA2M_EBK/src/tensorflow_lite/tensorflow/lite/kernels/internal\types.h ****     }
 210:C:/Renesas/e2studio_2021_01_workspace_RZA2M_ANPR/ANPR_RZA2M_EBK/src/tensorflow_lite/tensorflow/lite/kernels/internal\types.h ****   }
 211:C:/Renesas/e2studio_2021_01_workspace_RZA2M_ANPR/ANPR_RZA2M_EBK/src/tensorflow_lite/tensorflow/lite/kernels/internal\types.h **** 
 212:C:/Renesas/e2studio_2021_01_workspace_RZA2M_ANPR/ANPR_RZA2M_EBK/src/tensorflow_lite/tensorflow/lite/kernels/internal\types.h ****   inline int32_t DimensionsCount() const { return size_; }
 213:C:/Renesas/e2studio_2021_01_workspace_RZA2M_ANPR/ANPR_RZA2M_EBK/src/tensorflow_lite/tensorflow/lite/kernels/internal\types.h ****   inline int32_t Dims(int i) const {
 214:C:/Renesas/e2studio_2021_01_workspace_RZA2M_ANPR/ANPR_RZA2M_EBK/src/tensorflow_lite/tensorflow/lite/kernels/internal\types.h ****     TFLITE_DCHECK_GE(i, 0);
 215:C:/Renesas/e2studio_2021_01_workspace_RZA2M_ANPR/ANPR_RZA2M_EBK/src/tensorflow_lite/tensorflow/lite/kernels/internal\types.h ****     TFLITE_DCHECK_LT(i, size_);
 216:C:/Renesas/e2studio_2021_01_workspace_RZA2M_ANPR/ANPR_RZA2M_EBK/src/tensorflow_lite/tensorflow/lite/kernels/internal\types.h ****     return size_ > kMaxSmallSize ? dims_pointer_[i] : dims_[i];
 217:C:/Renesas/e2studio_2021_01_workspace_RZA2M_ANPR/ANPR_RZA2M_EBK/src/tensorflow_lite/tensorflow/lite/kernels/internal\types.h ****   }
 218:C:/Renesas/e2studio_2021_01_workspace_RZA2M_ANPR/ANPR_RZA2M_EBK/src/tensorflow_lite/tensorflow/lite/kernels/internal\types.h ****   inline void SetDim(int i, int32_t val) {
 219:C:/Renesas/e2studio_2021_01_workspace_RZA2M_ANPR/ANPR_RZA2M_EBK/src/tensorflow_lite/tensorflow/lite/kernels/internal\types.h ****     TFLITE_DCHECK_GE(i, 0);
 220:C:/Renesas/e2studio_2021_01_workspace_RZA2M_ANPR/ANPR_RZA2M_EBK/src/tensorflow_lite/tensorflow/lite/kernels/internal\types.h ****     TFLITE_DCHECK_LT(i, size_);
 221:C:/Renesas/e2studio_2021_01_workspace_RZA2M_ANPR/ANPR_RZA2M_EBK/src/tensorflow_lite/tensorflow/lite/kernels/internal\types.h ****     if (size_ > kMaxSmallSize) {
 222:C:/Renesas/e2studio_2021_01_workspace_RZA2M_ANPR/ANPR_RZA2M_EBK/src/tensorflow_lite/tensorflow/lite/kernels/internal\types.h ****       dims_pointer_[i] = val;
 223:C:/Renesas/e2studio_2021_01_workspace_RZA2M_ANPR/ANPR_RZA2M_EBK/src/tensorflow_lite/tensorflow/lite/kernels/internal\types.h ****     } else {
 224:C:/Renesas/e2studio_2021_01_workspace_RZA2M_ANPR/ANPR_RZA2M_EBK/src/tensorflow_lite/tensorflow/lite/kernels/internal\types.h ****       dims_[i] = val;
 225:C:/Renesas/e2studio_2021_01_workspace_RZA2M_ANPR/ANPR_RZA2M_EBK/src/tensorflow_lite/tensorflow/lite/kernels/internal\types.h ****     }
 226:C:/Renesas/e2studio_2021_01_workspace_RZA2M_ANPR/ANPR_RZA2M_EBK/src/tensorflow_lite/tensorflow/lite/kernels/internal\types.h ****   }
 227:C:/Renesas/e2studio_2021_01_workspace_RZA2M_ANPR/ANPR_RZA2M_EBK/src/tensorflow_lite/tensorflow/lite/kernels/internal\types.h **** 
 228:C:/Renesas/e2studio_2021_01_workspace_RZA2M_ANPR/ANPR_RZA2M_EBK/src/tensorflow_lite/tensorflow/lite/kernels/internal\types.h ****   inline int32_t* DimsData() {
 229:C:/Renesas/e2studio_2021_01_workspace_RZA2M_ANPR/ANPR_RZA2M_EBK/src/tensorflow_lite/tensorflow/lite/kernels/internal\types.h ****     return size_ > kMaxSmallSize ? dims_pointer_ : dims_;
 230:C:/Renesas/e2studio_2021_01_workspace_RZA2M_ANPR/ANPR_RZA2M_EBK/src/tensorflow_lite/tensorflow/lite/kernels/internal\types.h ****   }
 231:C:/Renesas/e2studio_2021_01_workspace_RZA2M_ANPR/ANPR_RZA2M_EBK/src/tensorflow_lite/tensorflow/lite/kernels/internal\types.h ****   inline const int32_t* DimsData() const {
 232:C:/Renesas/e2studio_2021_01_workspace_RZA2M_ANPR/ANPR_RZA2M_EBK/src/tensorflow_lite/tensorflow/lite/kernels/internal\types.h ****     return size_ > kMaxSmallSize ? dims_pointer_ : dims_;
 233:C:/Renesas/e2studio_2021_01_workspace_RZA2M_ANPR/ANPR_RZA2M_EBK/src/tensorflow_lite/tensorflow/lite/kernels/internal\types.h ****   }
 234:C:/Renesas/e2studio_2021_01_workspace_RZA2M_ANPR/ANPR_RZA2M_EBK/src/tensorflow_lite/tensorflow/lite/kernels/internal\types.h ****   // The caller must ensure that the shape is no bigger than 5-D.
 235:C:/Renesas/e2studio_2021_01_workspace_RZA2M_ANPR/ANPR_RZA2M_EBK/src/tensorflow_lite/tensorflow/lite/kernels/internal\types.h ****   inline const int32_t* DimsDataUpTo5D() const { return dims_; }
 236:C:/Renesas/e2studio_2021_01_workspace_RZA2M_ANPR/ANPR_RZA2M_EBK/src/tensorflow_lite/tensorflow/lite/kernels/internal\types.h **** 
 237:C:/Renesas/e2studio_2021_01_workspace_RZA2M_ANPR/ANPR_RZA2M_EBK/src/tensorflow_lite/tensorflow/lite/kernels/internal\types.h ****   inline void Resize(int dimensions_count) {
 238:C:/Renesas/e2studio_2021_01_workspace_RZA2M_ANPR/ANPR_RZA2M_EBK/src/tensorflow_lite/tensorflow/lite/kernels/internal\types.h ****     if (size_ > kMaxSmallSize) {
 239:C:/Renesas/e2studio_2021_01_workspace_RZA2M_ANPR/ANPR_RZA2M_EBK/src/tensorflow_lite/tensorflow/lite/kernels/internal\types.h **** #ifdef TF_LITE_STATIC_MEMORY
 240:C:/Renesas/e2studio_2021_01_workspace_RZA2M_ANPR/ANPR_RZA2M_EBK/src/tensorflow_lite/tensorflow/lite/kernels/internal\types.h ****       TFLITE_CHECK(false && "No shape resizing supported on this platform");
 241:C:/Renesas/e2studio_2021_01_workspace_RZA2M_ANPR/ANPR_RZA2M_EBK/src/tensorflow_lite/tensorflow/lite/kernels/internal\types.h **** #else  // TF_LITE_STATIC_MEMORY
 242:C:/Renesas/e2studio_2021_01_workspace_RZA2M_ANPR/ANPR_RZA2M_EBK/src/tensorflow_lite/tensorflow/lite/kernels/internal\types.h ****       delete[] dims_pointer_;
 243:C:/Renesas/e2studio_2021_01_workspace_RZA2M_ANPR/ANPR_RZA2M_EBK/src/tensorflow_lite/tensorflow/lite/kernels/internal\types.h **** #endif  // TF_LITE_STATIC_MEMORY
 244:C:/Renesas/e2studio_2021_01_workspace_RZA2M_ANPR/ANPR_RZA2M_EBK/src/tensorflow_lite/tensorflow/lite/kernels/internal\types.h ****     }
 245:C:/Renesas/e2studio_2021_01_workspace_RZA2M_ANPR/ANPR_RZA2M_EBK/src/tensorflow_lite/tensorflow/lite/kernels/internal\types.h ****     size_ = dimensions_count;
 246:C:/Renesas/e2studio_2021_01_workspace_RZA2M_ANPR/ANPR_RZA2M_EBK/src/tensorflow_lite/tensorflow/lite/kernels/internal\types.h ****     if (dimensions_count > kMaxSmallSize) {
 247:C:/Renesas/e2studio_2021_01_workspace_RZA2M_ANPR/ANPR_RZA2M_EBK/src/tensorflow_lite/tensorflow/lite/kernels/internal\types.h **** #ifdef TF_LITE_STATIC_MEMORY
 248:C:/Renesas/e2studio_2021_01_workspace_RZA2M_ANPR/ANPR_RZA2M_EBK/src/tensorflow_lite/tensorflow/lite/kernels/internal\types.h ****       TFLITE_CHECK(false && "No shape resizing supported on this platform");
 249:C:/Renesas/e2studio_2021_01_workspace_RZA2M_ANPR/ANPR_RZA2M_EBK/src/tensorflow_lite/tensorflow/lite/kernels/internal\types.h **** #else  // TF_LITE_STATIC_MEMORY
 250:C:/Renesas/e2studio_2021_01_workspace_RZA2M_ANPR/ANPR_RZA2M_EBK/src/tensorflow_lite/tensorflow/lite/kernels/internal\types.h ****       dims_pointer_ = new int32_t[dimensions_count];
 251:C:/Renesas/e2studio_2021_01_workspace_RZA2M_ANPR/ANPR_RZA2M_EBK/src/tensorflow_lite/tensorflow/lite/kernels/internal\types.h **** #endif  // TF_LITE_STATIC_MEMORY
 252:C:/Renesas/e2studio_2021_01_workspace_RZA2M_ANPR/ANPR_RZA2M_EBK/src/tensorflow_lite/tensorflow/lite/kernels/internal\types.h ****     }
 253:C:/Renesas/e2studio_2021_01_workspace_RZA2M_ANPR/ANPR_RZA2M_EBK/src/tensorflow_lite/tensorflow/lite/kernels/internal\types.h ****   }
 254:C:/Renesas/e2studio_2021_01_workspace_RZA2M_ANPR/ANPR_RZA2M_EBK/src/tensorflow_lite/tensorflow/lite/kernels/internal\types.h **** 
 255:C:/Renesas/e2studio_2021_01_workspace_RZA2M_ANPR/ANPR_RZA2M_EBK/src/tensorflow_lite/tensorflow/lite/kernels/internal\types.h ****   inline void ReplaceWith(int dimensions_count, const int32_t* dims_data) {
 256:C:/Renesas/e2studio_2021_01_workspace_RZA2M_ANPR/ANPR_RZA2M_EBK/src/tensorflow_lite/tensorflow/lite/kernels/internal\types.h ****     Resize(dimensions_count);
 257:C:/Renesas/e2studio_2021_01_workspace_RZA2M_ANPR/ANPR_RZA2M_EBK/src/tensorflow_lite/tensorflow/lite/kernels/internal\types.h ****     int32_t* dst_dims = DimsData();
 258:C:/Renesas/e2studio_2021_01_workspace_RZA2M_ANPR/ANPR_RZA2M_EBK/src/tensorflow_lite/tensorflow/lite/kernels/internal\types.h ****     std::memcpy(dst_dims, dims_data, dimensions_count * sizeof(int32_t));
 259:C:/Renesas/e2studio_2021_01_workspace_RZA2M_ANPR/ANPR_RZA2M_EBK/src/tensorflow_lite/tensorflow/lite/kernels/internal\types.h ****   }
 260:C:/Renesas/e2studio_2021_01_workspace_RZA2M_ANPR/ANPR_RZA2M_EBK/src/tensorflow_lite/tensorflow/lite/kernels/internal\types.h **** 
 261:C:/Renesas/e2studio_2021_01_workspace_RZA2M_ANPR/ANPR_RZA2M_EBK/src/tensorflow_lite/tensorflow/lite/kernels/internal\types.h ****   template <typename T>
 262:C:/Renesas/e2studio_2021_01_workspace_RZA2M_ANPR/ANPR_RZA2M_EBK/src/tensorflow_lite/tensorflow/lite/kernels/internal\types.h ****   inline void BuildFrom(const T& src_iterable) {
 263:C:/Renesas/e2studio_2021_01_workspace_RZA2M_ANPR/ANPR_RZA2M_EBK/src/tensorflow_lite/tensorflow/lite/kernels/internal\types.h ****     const int dimensions_count =
 264:C:/Renesas/e2studio_2021_01_workspace_RZA2M_ANPR/ANPR_RZA2M_EBK/src/tensorflow_lite/tensorflow/lite/kernels/internal\types.h ****         std::distance(src_iterable.begin(), src_iterable.end());
 265:C:/Renesas/e2studio_2021_01_workspace_RZA2M_ANPR/ANPR_RZA2M_EBK/src/tensorflow_lite/tensorflow/lite/kernels/internal\types.h ****     Resize(dimensions_count);
 266:C:/Renesas/e2studio_2021_01_workspace_RZA2M_ANPR/ANPR_RZA2M_EBK/src/tensorflow_lite/tensorflow/lite/kernels/internal\types.h ****     int32_t* data = DimsData();
 267:C:/Renesas/e2studio_2021_01_workspace_RZA2M_ANPR/ANPR_RZA2M_EBK/src/tensorflow_lite/tensorflow/lite/kernels/internal\types.h ****     for (auto it : src_iterable) {
 268:C:/Renesas/e2studio_2021_01_workspace_RZA2M_ANPR/ANPR_RZA2M_EBK/src/tensorflow_lite/tensorflow/lite/kernels/internal\types.h ****       *data = it;
 269:C:/Renesas/e2studio_2021_01_workspace_RZA2M_ANPR/ANPR_RZA2M_EBK/src/tensorflow_lite/tensorflow/lite/kernels/internal\types.h ****       ++data;
 270:C:/Renesas/e2studio_2021_01_workspace_RZA2M_ANPR/ANPR_RZA2M_EBK/src/tensorflow_lite/tensorflow/lite/kernels/internal\types.h ****     }
 271:C:/Renesas/e2studio_2021_01_workspace_RZA2M_ANPR/ANPR_RZA2M_EBK/src/tensorflow_lite/tensorflow/lite/kernels/internal\types.h ****   }
 272:C:/Renesas/e2studio_2021_01_workspace_RZA2M_ANPR/ANPR_RZA2M_EBK/src/tensorflow_lite/tensorflow/lite/kernels/internal\types.h **** 
 273:C:/Renesas/e2studio_2021_01_workspace_RZA2M_ANPR/ANPR_RZA2M_EBK/src/tensorflow_lite/tensorflow/lite/kernels/internal\types.h ****   // This will probably be factored out. Old code made substantial use of 4-D
 274:C:/Renesas/e2studio_2021_01_workspace_RZA2M_ANPR/ANPR_RZA2M_EBK/src/tensorflow_lite/tensorflow/lite/kernels/internal\types.h ****   // shapes, and so this function is used to extend smaller shapes. Note that
 275:C:/Renesas/e2studio_2021_01_workspace_RZA2M_ANPR/ANPR_RZA2M_EBK/src/tensorflow_lite/tensorflow/lite/kernels/internal\types.h ****   // (a) as Dims<4>-dependent code is eliminated, the reliance on this should be
 276:C:/Renesas/e2studio_2021_01_workspace_RZA2M_ANPR/ANPR_RZA2M_EBK/src/tensorflow_lite/tensorflow/lite/kernels/internal\types.h ****   // reduced, and (b) some kernels are stricly 4-D, but then the shapes of their
 277:C:/Renesas/e2studio_2021_01_workspace_RZA2M_ANPR/ANPR_RZA2M_EBK/src/tensorflow_lite/tensorflow/lite/kernels/internal\types.h ****   // inputs should already be 4-D, so this function should not be needed.
 278:C:/Renesas/e2studio_2021_01_workspace_RZA2M_ANPR/ANPR_RZA2M_EBK/src/tensorflow_lite/tensorflow/lite/kernels/internal\types.h ****   inline static RuntimeShape ExtendedShape(int new_shape_size,
 279:C:/Renesas/e2studio_2021_01_workspace_RZA2M_ANPR/ANPR_RZA2M_EBK/src/tensorflow_lite/tensorflow/lite/kernels/internal\types.h ****                                            const RuntimeShape& shape) {
 280:C:/Renesas/e2studio_2021_01_workspace_RZA2M_ANPR/ANPR_RZA2M_EBK/src/tensorflow_lite/tensorflow/lite/kernels/internal\types.h ****     return RuntimeShape(new_shape_size, shape, 1);
 281:C:/Renesas/e2studio_2021_01_workspace_RZA2M_ANPR/ANPR_RZA2M_EBK/src/tensorflow_lite/tensorflow/lite/kernels/internal\types.h ****   }
 282:C:/Renesas/e2studio_2021_01_workspace_RZA2M_ANPR/ANPR_RZA2M_EBK/src/tensorflow_lite/tensorflow/lite/kernels/internal\types.h **** 
 283:C:/Renesas/e2studio_2021_01_workspace_RZA2M_ANPR/ANPR_RZA2M_EBK/src/tensorflow_lite/tensorflow/lite/kernels/internal\types.h ****   inline void BuildFrom(const std::initializer_list<int> init_list) {
 284:C:/Renesas/e2studio_2021_01_workspace_RZA2M_ANPR/ANPR_RZA2M_EBK/src/tensorflow_lite/tensorflow/lite/kernels/internal\types.h ****     BuildFrom<const std::initializer_list<int>>(init_list);
 285:C:/Renesas/e2studio_2021_01_workspace_RZA2M_ANPR/ANPR_RZA2M_EBK/src/tensorflow_lite/tensorflow/lite/kernels/internal\types.h ****   }
 286:C:/Renesas/e2studio_2021_01_workspace_RZA2M_ANPR/ANPR_RZA2M_EBK/src/tensorflow_lite/tensorflow/lite/kernels/internal\types.h **** 
 287:C:/Renesas/e2studio_2021_01_workspace_RZA2M_ANPR/ANPR_RZA2M_EBK/src/tensorflow_lite/tensorflow/lite/kernels/internal\types.h ****   // Returns the total count of elements, that is the size when flattened into a
 288:C:/Renesas/e2studio_2021_01_workspace_RZA2M_ANPR/ANPR_RZA2M_EBK/src/tensorflow_lite/tensorflow/lite/kernels/internal\types.h ****   // vector.
 289:C:/Renesas/e2studio_2021_01_workspace_RZA2M_ANPR/ANPR_RZA2M_EBK/src/tensorflow_lite/tensorflow/lite/kernels/internal\types.h ****   inline int FlatSize() const {
 290:C:/Renesas/e2studio_2021_01_workspace_RZA2M_ANPR/ANPR_RZA2M_EBK/src/tensorflow_lite/tensorflow/lite/kernels/internal\types.h ****     int buffer_size = 1;
 291:C:/Renesas/e2studio_2021_01_workspace_RZA2M_ANPR/ANPR_RZA2M_EBK/src/tensorflow_lite/tensorflow/lite/kernels/internal\types.h ****     const int* dims_data = reinterpret_cast<const int*>(DimsData());
 292:C:/Renesas/e2studio_2021_01_workspace_RZA2M_ANPR/ANPR_RZA2M_EBK/src/tensorflow_lite/tensorflow/lite/kernels/internal\types.h ****     for (int i = 0; i < size_; i++) {
 293:C:/Renesas/e2studio_2021_01_workspace_RZA2M_ANPR/ANPR_RZA2M_EBK/src/tensorflow_lite/tensorflow/lite/kernels/internal\types.h ****       buffer_size *= dims_data[i];
 294:C:/Renesas/e2studio_2021_01_workspace_RZA2M_ANPR/ANPR_RZA2M_EBK/src/tensorflow_lite/tensorflow/lite/kernels/internal\types.h ****     }
 295:C:/Renesas/e2studio_2021_01_workspace_RZA2M_ANPR/ANPR_RZA2M_EBK/src/tensorflow_lite/tensorflow/lite/kernels/internal\types.h ****     return buffer_size;
 296:C:/Renesas/e2studio_2021_01_workspace_RZA2M_ANPR/ANPR_RZA2M_EBK/src/tensorflow_lite/tensorflow/lite/kernels/internal\types.h ****   }
 297:C:/Renesas/e2studio_2021_01_workspace_RZA2M_ANPR/ANPR_RZA2M_EBK/src/tensorflow_lite/tensorflow/lite/kernels/internal\types.h **** 
 298:C:/Renesas/e2studio_2021_01_workspace_RZA2M_ANPR/ANPR_RZA2M_EBK/src/tensorflow_lite/tensorflow/lite/kernels/internal\types.h ****   bool operator!=(const RuntimeShape& comp) const { return !((*this) == comp); }
 299:C:/Renesas/e2studio_2021_01_workspace_RZA2M_ANPR/ANPR_RZA2M_EBK/src/tensorflow_lite/tensorflow/lite/kernels/internal\types.h **** 
 300:C:/Renesas/e2studio_2021_01_workspace_RZA2M_ANPR/ANPR_RZA2M_EBK/src/tensorflow_lite/tensorflow/lite/kernels/internal\types.h ****  private:
 301:C:/Renesas/e2studio_2021_01_workspace_RZA2M_ANPR/ANPR_RZA2M_EBK/src/tensorflow_lite/tensorflow/lite/kernels/internal\types.h ****   // For use only by ExtendedShape(), written to guarantee (return-value) copy
 302:C:/Renesas/e2studio_2021_01_workspace_RZA2M_ANPR/ANPR_RZA2M_EBK/src/tensorflow_lite/tensorflow/lite/kernels/internal\types.h ****   // elision in C++17.
 303:C:/Renesas/e2studio_2021_01_workspace_RZA2M_ANPR/ANPR_RZA2M_EBK/src/tensorflow_lite/tensorflow/lite/kernels/internal\types.h ****   // This creates a shape padded to the desired size with the specified value.
 304:C:/Renesas/e2studio_2021_01_workspace_RZA2M_ANPR/ANPR_RZA2M_EBK/src/tensorflow_lite/tensorflow/lite/kernels/internal\types.h ****   RuntimeShape(int new_shape_size, const RuntimeShape& shape, int pad_value)
 305:C:/Renesas/e2studio_2021_01_workspace_RZA2M_ANPR/ANPR_RZA2M_EBK/src/tensorflow_lite/tensorflow/lite/kernels/internal\types.h ****       : size_(0) {
 306:C:/Renesas/e2studio_2021_01_workspace_RZA2M_ANPR/ANPR_RZA2M_EBK/src/tensorflow_lite/tensorflow/lite/kernels/internal\types.h ****     // If the following check fails, it is likely because a 4D-only kernel is
 307:C:/Renesas/e2studio_2021_01_workspace_RZA2M_ANPR/ANPR_RZA2M_EBK/src/tensorflow_lite/tensorflow/lite/kernels/internal\types.h ****     // being used with an array of larger dimension count.
 308:C:/Renesas/e2studio_2021_01_workspace_RZA2M_ANPR/ANPR_RZA2M_EBK/src/tensorflow_lite/tensorflow/lite/kernels/internal\types.h ****     TFLITE_CHECK_GE(new_shape_size, shape.DimensionsCount());
 309:C:/Renesas/e2studio_2021_01_workspace_RZA2M_ANPR/ANPR_RZA2M_EBK/src/tensorflow_lite/tensorflow/lite/kernels/internal\types.h ****     Resize(new_shape_size);
 310:C:/Renesas/e2studio_2021_01_workspace_RZA2M_ANPR/ANPR_RZA2M_EBK/src/tensorflow_lite/tensorflow/lite/kernels/internal\types.h ****     const int size_increase = new_shape_size - shape.DimensionsCount();
 311:C:/Renesas/e2studio_2021_01_workspace_RZA2M_ANPR/ANPR_RZA2M_EBK/src/tensorflow_lite/tensorflow/lite/kernels/internal\types.h ****     for (int i = 0; i < size_increase; ++i) {
 266              		.loc 4 311 0
 267 010c 050072E2 		rsbs	r0, r2, #5
 268              	.LBE884:
 269              	.LBB897:
 270              	.LBB898:
 245:C:/Renesas/e2studio_2021_01_workspace_RZA2M_ANPR/ANPR_RZA2M_EBK/src/tensorflow_lite/tensorflow/lite/kernels/internal\types.h ****     if (dimensions_count > kMaxSmallSize) {
 271              		.loc 4 245 0
 272 0110 0530A0E3 		mov	r3, #5
 273 0114 C4308DE5 		str	r3, [sp, #196]
 274              	.LVL26:
 275              	.LBE898:
 276              	.LBE897:
 277              	.LBB899:
 278              		.loc 4 311 0
 279 0118 9E00000A 		beq	.L21
 280              	.LVL27:
 281 011c 010050E3 		cmp	r0, #1
 282              	.LBB885:
 283              	.LBB886:
 224:C:/Renesas/e2studio_2021_01_workspace_RZA2M_ANPR/ANPR_RZA2M_EBK/src/tensorflow_lite/tensorflow/lite/kernels/internal\types.h ****     }
 284              		.loc 4 224 0
 285 0120 0130A0E3 		mov	r3, #1
 286 0124 C8308DE5 		str	r3, [sp, #200]
 287              	.LVL28:
 288              	.LBE886:
 289              	.LBE885:
 290              		.loc 4 311 0
 291 0128 9A00000A 		beq	.L21
 292              	.LVL29:
 293 012c 020050E3 		cmp	r0, #2
 294              	.LBB892:
 295              	.LBB887:
 224:C:/Renesas/e2studio_2021_01_workspace_RZA2M_ANPR/ANPR_RZA2M_EBK/src/tensorflow_lite/tensorflow/lite/kernels/internal\types.h ****     }
 296              		.loc 4 224 0
 297 0130 CC308DE5 		str	r3, [sp, #204]
 298              	.LVL30:
 299              	.LBE887:
 300              	.LBE892:
 301              		.loc 4 311 0
 302 0134 9700000A 		beq	.L21
 303              	.LVL31:
 304 0138 030050E3 		cmp	r0, #3
 305              	.LBB893:
 306              	.LBB888:
 224:C:/Renesas/e2studio_2021_01_workspace_RZA2M_ANPR/ANPR_RZA2M_EBK/src/tensorflow_lite/tensorflow/lite/kernels/internal\types.h ****     }
 307              		.loc 4 224 0
 308 013c D0308DE5 		str	r3, [sp, #208]
 309              	.LVL32:
 310              	.LBE888:
 311              	.LBE893:
 312              		.loc 4 311 0
 313 0140 9400000A 		beq	.L21
 314              	.LVL33:
 315 0144 040050E3 		cmp	r0, #4
 316              	.LBB894:
 317              	.LBB889:
 224:C:/Renesas/e2studio_2021_01_workspace_RZA2M_ANPR/ANPR_RZA2M_EBK/src/tensorflow_lite/tensorflow/lite/kernels/internal\types.h ****     }
 318              		.loc 4 224 0
 319 0148 D4308DE5 		str	r3, [sp, #212]
 320              	.LVL34:
 321              	.LBE889:
 322              	.LBE894:
 323              		.loc 4 311 0
 324 014c 9100000A 		beq	.L21
 325              	.LVL35:
 326 0150 050050E3 		cmp	r0, #5
 327              	.LBB895:
 328              	.LBB890:
 224:C:/Renesas/e2studio_2021_01_workspace_RZA2M_ANPR/ANPR_RZA2M_EBK/src/tensorflow_lite/tensorflow/lite/kernels/internal\types.h ****     }
 329              		.loc 4 224 0
 330 0154 D8308DE5 		str	r3, [sp, #216]
 331              	.LVL36:
 332              	.LBE890:
 333              	.LBE895:
 334              		.loc 4 311 0
 335 0158 8E00000A 		beq	.L21
 336              	.LVL37:
 337              	.LEHB2:
 338              	.LBB896:
 339              	.LBB891:
 220:C:/Renesas/e2studio_2021_01_workspace_RZA2M_ANPR/ANPR_RZA2M_EBK/src/tensorflow_lite/tensorflow/lite/kernels/internal\types.h ****     if (size_ > kMaxSmallSize) {
 340              		.loc 4 220 0
 341 015c FEFFFFEB 		bl	abort
 342              	.LVL38:
 343              	.LEHE2:
 344              	.L13:
 345              	.LBE891:
 346              	.LBE896:
 347              	.LBE899:
 348              	.LBE883:
 349              	.LBE882:
 350              	.LBE881:
 351              	.LBE880:
 352              	.LBE1221:
 353              	.LBE1226:
 354              	.LBE1231:
 355              	.LBE1238:
 165:../src/tensorflow_lite/tensorflow/lite/micro/kernels/strided_slice.cc ****                                   tflite::micro::GetTensorData<int8_t>(input),
 356              		.loc 1 165 0
 357 0160 0510A0E1 		mov	r1, r5
 358 0164 94008DE2 		add	r0, sp, #148
 359              	.LEHB3:
 360 0168 FEFFFFEB 		bl	_ZN6tflite5micro14GetTensorShapeEPK16TfLiteEvalTensor
 361              	.LVL39:
 362              	.LEHE3:
 363              	.LBB1239:
 364              	.LBB1240:
  62:C:/Renesas/e2studio_2021_01_workspace_RZA2M_ANPR/ANPR_RZA2M_EBK/src/tensorflow_lite/tensorflow/lite/micro/kernels\kernel_util.h ****   return reinterpret_cast<const T*>(tensor->data.raw);
 365              		.loc 2 62 0
 366 016c 000055E3 		cmp	r5, #0
 367 0170 8600000A 		beq	.L1053
 368              	.LBE1240:
 369              	.LBE1239:
 167:../src/tensorflow_lite/tensorflow/lite/micro/kernels/strided_slice.cc ****                                   tflite::micro::GetTensorData<int8_t>(output));
 370              		.loc 1 167 0
 371 0174 0610A0E1 		mov	r1, r6
 372 0178 AC008DE2 		add	r0, sp, #172
 373              	.LBB1243:
 374              	.LBB1241:
 375              		.loc 2 63 0
 376 017c 00A095E5 		ldr	r10, [r5]
 377              	.LEHB4:
 378              	.LBE1241:
 379              	.LBE1243:
 167:../src/tensorflow_lite/tensorflow/lite/micro/kernels/strided_slice.cc ****                                   tflite::micro::GetTensorData<int8_t>(output));
 380              		.loc 1 167 0
 381 0180 FEFFFFEB 		bl	_ZN6tflite5micro14GetTensorShapeEPK16TfLiteEvalTensor
 382              	.LVL40:
 383              	.LEHE4:
 384              	.LBB1244:
 385              	.LBB1245:
 386              	.LBB1246:
 387              	.LBB1247:
  41:C:/Renesas/e2studio_2021_01_workspace_RZA2M_ANPR/ANPR_RZA2M_EBK/src/tensorflow_lite/tensorflow/lite/kernels/internal/reference\strided_slice.h **** 
 388              		.loc 3 41 0
 389 0184 5420A0E3 		mov	r2, #84
 390 0188 0410A0E1 		mov	r1, r4
 391 018c F4008DE2 		add	r0, sp, #244
 392              	.LBE1247:
 393              	.LBE1246:
 394              	.LBE1245:
 395              	.LBE1244:
 396              	.LBB1620:
 397              	.LBB1621:
  56:C:/Renesas/e2studio_2021_01_workspace_RZA2M_ANPR/ANPR_RZA2M_EBK/src/tensorflow_lite/tensorflow/lite/micro/kernels\kernel_util.h **** }
 398              		.loc 2 56 0
 399 0190 007096E5 		ldr	r7, [r6]
 400              	.LVL41:
 401              	.LBE1621:
 402              	.LBE1620:
 403              	.LBB1622:
 404              	.LBB1612:
 405              	.LBB1604:
 406              	.LBB1596:
  41:C:/Renesas/e2studio_2021_01_workspace_RZA2M_ANPR/ANPR_RZA2M_EBK/src/tensorflow_lite/tensorflow/lite/kernels/internal/reference\strided_slice.h **** 
 407              		.loc 3 41 0
 408 0194 FEFFFFEB 		bl	memcpy
 409              	.LVL42:
 410 0198 94209DE5 		ldr	r2, [sp, #148]
 411 019c FC34D4E1 		ldrsh	r3, [r4, #76]
 412 01a0 D060D4E1 		ldrsb	r6, [r4]
 413              	.LVL43:
  43:C:/Renesas/e2studio_2021_01_workspace_RZA2M_ANPR/ANPR_RZA2M_EBK/src/tensorflow_lite/tensorflow/lite/kernels/internal/reference\strided_slice.h ****   TFLITE_DCHECK_LE(unextended_output_shape.DimensionsCount(), 5);
 414              		.loc 3 43 0
 415 01a4 050052E3 		cmp	r2, #5
  41:C:/Renesas/e2studio_2021_01_workspace_RZA2M_ANPR/ANPR_RZA2M_EBK/src/tensorflow_lite/tensorflow/lite/kernels/internal/reference\strided_slice.h **** 
 416              		.loc 3 41 0
 417 01a8 D851D4E1 		ldrsb	r5, [r4, #24]
 418              	.LVL44:
 419 01ac D093D4E1 		ldrsb	r9, [r4, #48]
 420 01b0 F8B4D4E1 		ldrsh	fp, [r4, #72]
 421 01b4 08308DE5 		str	r3, [sp, #8]
 422 01b8 F045D4E1 		ldrsh	r4, [r4, #80]
 423              	.LVL45:
  43:C:/Renesas/e2studio_2021_01_workspace_RZA2M_ANPR/ANPR_RZA2M_EBK/src/tensorflow_lite/tensorflow/lite/kernels/internal/reference\strided_slice.h ****   TFLITE_DCHECK_LE(unextended_output_shape.DimensionsCount(), 5);
 424              		.loc 3 43 0
 425 01bc 710000CA 		bgt	.L1054
 426 01c0 AC809DE5 		ldr	r8, [sp, #172]
 427              	.LVL46:
 428              		.loc 3 44 0
 429 01c4 050058E3 		cmp	r8, #5
 430 01c8 6D0000CA 		bgt	.L1055
 431              	.LVL47:
 432              	.LBB1248:
 433              	.LBB1249:
 434              	.LBB1250:
 435              	.LBB1251:
 436              	.LBB1252:
 437              		.loc 4 311 0
 438 01cc 050072E2 		rsbs	r0, r2, #5
 439              	.LBE1252:
 440              	.LBB1265:
 441              	.LBB1266:
 245:C:/Renesas/e2studio_2021_01_workspace_RZA2M_ANPR/ANPR_RZA2M_EBK/src/tensorflow_lite/tensorflow/lite/kernels/internal\types.h ****     if (dimensions_count > kMaxSmallSize) {
 442              		.loc 4 245 0
 443 01d0 0530A0E3 		mov	r3, #5
 444 01d4 C4308DE5 		str	r3, [sp, #196]
 445              	.LVL48:
 446              	.LBE1266:
 447              	.LBE1265:
 448              	.LBB1267:
 449              		.loc 4 311 0
 450 01d8 4F00000A 		beq	.L340
 451              	.LVL49:
 452 01dc 010050E3 		cmp	r0, #1
 453              	.LBB1253:
 454              	.LBB1254:
 224:C:/Renesas/e2studio_2021_01_workspace_RZA2M_ANPR/ANPR_RZA2M_EBK/src/tensorflow_lite/tensorflow/lite/kernels/internal\types.h ****     }
 455              		.loc 4 224 0
 456 01e0 0130A0E3 		mov	r3, #1
 457 01e4 C8308DE5 		str	r3, [sp, #200]
 458              	.LVL50:
 459              	.LBE1254:
 460              	.LBE1253:
 461              		.loc 4 311 0
 462 01e8 4B00000A 		beq	.L340
 463              	.LVL51:
 464 01ec 020050E3 		cmp	r0, #2
 465              	.LBB1260:
 466              	.LBB1255:
 224:C:/Renesas/e2studio_2021_01_workspace_RZA2M_ANPR/ANPR_RZA2M_EBK/src/tensorflow_lite/tensorflow/lite/kernels/internal\types.h ****     }
 467              		.loc 4 224 0
 468 01f0 CC308DE5 		str	r3, [sp, #204]
 469              	.LVL52:
 470              	.LBE1255:
 471              	.LBE1260:
 472              		.loc 4 311 0
 473 01f4 4800000A 		beq	.L340
 474              	.LVL53:
 475 01f8 030050E3 		cmp	r0, #3
 476              	.LBB1261:
 477              	.LBB1256:
 224:C:/Renesas/e2studio_2021_01_workspace_RZA2M_ANPR/ANPR_RZA2M_EBK/src/tensorflow_lite/tensorflow/lite/kernels/internal\types.h ****     }
 478              		.loc 4 224 0
 479 01fc D0308DE5 		str	r3, [sp, #208]
 480              	.LVL54:
 481              	.LBE1256:
 482              	.LBE1261:
 483              		.loc 4 311 0
 484 0200 4500000A 		beq	.L340
 485              	.LVL55:
 486 0204 040050E3 		cmp	r0, #4
 487              	.LBB1262:
 488              	.LBB1257:
 224:C:/Renesas/e2studio_2021_01_workspace_RZA2M_ANPR/ANPR_RZA2M_EBK/src/tensorflow_lite/tensorflow/lite/kernels/internal\types.h ****     }
 489              		.loc 4 224 0
 490 0208 D4308DE5 		str	r3, [sp, #212]
 491              	.LVL56:
 492              	.LBE1257:
 493              	.LBE1262:
 494              		.loc 4 311 0
 495 020c 4200000A 		beq	.L340
 496              	.LVL57:
 497 0210 050050E3 		cmp	r0, #5
 498              	.LBB1263:
 499              	.LBB1258:
 224:C:/Renesas/e2studio_2021_01_workspace_RZA2M_ANPR/ANPR_RZA2M_EBK/src/tensorflow_lite/tensorflow/lite/kernels/internal\types.h ****     }
 500              		.loc 4 224 0
 501 0214 D8308DE5 		str	r3, [sp, #216]
 502              	.LVL58:
 503              	.LBE1258:
 504              	.LBE1263:
 505              		.loc 4 311 0
 506 0218 3F00000A 		beq	.L340
 507              	.LVL59:
 508              	.LEHB5:
 509              	.LBB1264:
 510              	.LBB1259:
 220:C:/Renesas/e2studio_2021_01_workspace_RZA2M_ANPR/ANPR_RZA2M_EBK/src/tensorflow_lite/tensorflow/lite/kernels/internal\types.h ****     if (size_ > kMaxSmallSize) {
 511              		.loc 4 220 0
 512 021c FEFFFFEB 		bl	abort
 513              	.LVL60:
 514              	.LEHE5:
 515              	.L12:
 516              	.LBE1259:
 517              	.LBE1264:
 518              	.LBE1267:
 519              	.LBE1251:
 520              	.LBE1250:
 521              	.LBE1249:
 522              	.LBE1248:
 523              	.LBE1596:
 524              	.LBE1604:
 525              	.LBE1612:
 526              	.LBE1622:
 158:../src/tensorflow_lite/tensorflow/lite/micro/kernels/strided_slice.cc ****           tflite::micro::GetTensorData<uint8_t>(input),
 527              		.loc 1 158 0
 528 0220 0510A0E1 		mov	r1, r5
 529 0224 94008DE2 		add	r0, sp, #148
 530              	.LEHB6:
 531 0228 FEFFFFEB 		bl	_ZN6tflite5micro14GetTensorShapeEPK16TfLiteEvalTensor
 532              	.LVL61:
 533              	.LEHE6:
 534              	.LBB1623:
 535              	.LBB1624:
  62:C:/Renesas/e2studio_2021_01_workspace_RZA2M_ANPR/ANPR_RZA2M_EBK/src/tensorflow_lite/tensorflow/lite/micro/kernels\kernel_util.h ****   return reinterpret_cast<const T*>(tensor->data.raw);
 536              		.loc 2 62 0
 537 022c 000055E3 		cmp	r5, #0
 538 0230 2A03000A 		beq	.L1056
 539              	.LBE1624:
 540              	.LBE1623:
 160:../src/tensorflow_lite/tensorflow/lite/micro/kernels/strided_slice.cc ****           tflite::micro::GetTensorData<uint8_t>(output));
 541              		.loc 1 160 0
 542 0234 0610A0E1 		mov	r1, r6
 543 0238 AC008DE2 		add	r0, sp, #172
 544              	.LBB1627:
 545              	.LBB1625:
 546              		.loc 2 63 0
 547 023c 00A095E5 		ldr	r10, [r5]
 548              	.LEHB7:
 549              	.LBE1625:
 550              	.LBE1627:
 160:../src/tensorflow_lite/tensorflow/lite/micro/kernels/strided_slice.cc ****           tflite::micro::GetTensorData<uint8_t>(output));
 551              		.loc 1 160 0
 552 0240 FEFFFFEB 		bl	_ZN6tflite5micro14GetTensorShapeEPK16TfLiteEvalTensor
 553              	.LVL62:
 554              	.LEHE7:
 555              	.LBB1628:
 556              	.LBB1629:
 557              	.LBB1630:
 558              	.LBB1631:
  41:C:/Renesas/e2studio_2021_01_workspace_RZA2M_ANPR/ANPR_RZA2M_EBK/src/tensorflow_lite/tensorflow/lite/kernels/internal/reference\strided_slice.h **** 
 559              		.loc 3 41 0
 560 0244 5420A0E3 		mov	r2, #84
 561 0248 0410A0E1 		mov	r1, r4
 562 024c F4008DE2 		add	r0, sp, #244
 563              	.LBE1631:
 564              	.LBE1630:
 565              	.LBE1629:
 566              	.LBE1628:
 567              	.LBB1983:
 568              	.LBB1984:
  56:C:/Renesas/e2studio_2021_01_workspace_RZA2M_ANPR/ANPR_RZA2M_EBK/src/tensorflow_lite/tensorflow/lite/micro/kernels\kernel_util.h **** }
 569              		.loc 2 56 0
 570 0250 007096E5 		ldr	r7, [r6]
 571              	.LVL63:
 572              	.LBE1984:
 573              	.LBE1983:
 574              	.LBB1985:
 575              	.LBB1979:
 576              	.LBB1975:
 577              	.LBB1971:
  41:C:/Renesas/e2studio_2021_01_workspace_RZA2M_ANPR/ANPR_RZA2M_EBK/src/tensorflow_lite/tensorflow/lite/kernels/internal/reference\strided_slice.h **** 
 578              		.loc 3 41 0
 579 0254 FEFFFFEB 		bl	memcpy
 580              	.LVL64:
 581 0258 94209DE5 		ldr	r2, [sp, #148]
 582 025c F834D4E1 		ldrsh	r3, [r4, #72]
 583 0260 D060D4E1 		ldrsb	r6, [r4]
 584              	.LVL65:
  43:C:/Renesas/e2studio_2021_01_workspace_RZA2M_ANPR/ANPR_RZA2M_EBK/src/tensorflow_lite/tensorflow/lite/kernels/internal/reference\strided_slice.h ****   TFLITE_DCHECK_LE(unextended_output_shape.DimensionsCount(), 5);
 585              		.loc 3 43 0
 586 0264 050052E3 		cmp	r2, #5
  41:C:/Renesas/e2studio_2021_01_workspace_RZA2M_ANPR/ANPR_RZA2M_EBK/src/tensorflow_lite/tensorflow/lite/kernels/internal/reference\strided_slice.h **** 
 587              		.loc 3 41 0
 588 0268 D851D4E1 		ldrsb	r5, [r4, #24]
 589              	.LVL66:
 590 026c D093D4E1 		ldrsb	r9, [r4, #48]
 591 0270 FCB4D4E1 		ldrsh	fp, [r4, #76]
 592 0274 08308DE5 		str	r3, [sp, #8]
 593 0278 F045D4E1 		ldrsh	r4, [r4, #80]
 594              	.LVL67:
  43:C:/Renesas/e2studio_2021_01_workspace_RZA2M_ANPR/ANPR_RZA2M_EBK/src/tensorflow_lite/tensorflow/lite/kernels/internal/reference\strided_slice.h ****   TFLITE_DCHECK_LE(unextended_output_shape.DimensionsCount(), 5);
 595              		.loc 3 43 0
 596 027c 150300CA 		bgt	.L1057
 597 0280 AC809DE5 		ldr	r8, [sp, #172]
 598              	.LVL68:
 599              		.loc 3 44 0
 600 0284 050058E3 		cmp	r8, #5
 601 0288 110300CA 		bgt	.L1058
 602              	.LVL69:
 603              	.LBB1632:
 604              	.LBB1633:
 605              	.LBB1634:
 606              	.LBB1635:
 607              	.LBB1636:
 608              		.loc 4 311 0
 609 028c 050072E2 		rsbs	r0, r2, #5
 610              	.LBE1636:
 611              	.LBB1649:
 612              	.LBB1650:
 245:C:/Renesas/e2studio_2021_01_workspace_RZA2M_ANPR/ANPR_RZA2M_EBK/src/tensorflow_lite/tensorflow/lite/kernels/internal\types.h ****     if (dimensions_count > kMaxSmallSize) {
 613              		.loc 4 245 0
 614 0290 0530A0E3 		mov	r3, #5
 615 0294 C4308DE5 		str	r3, [sp, #196]
 616              	.LVL70:
 617              	.LBE1650:
 618              	.LBE1649:
 619              	.LBB1651:
 620              		.loc 4 311 0
 621 0298 1203000A 		beq	.L181
 622              	.LVL71:
 623 029c 010050E3 		cmp	r0, #1
 624              	.LBB1637:
 625              	.LBB1638:
 224:C:/Renesas/e2studio_2021_01_workspace_RZA2M_ANPR/ANPR_RZA2M_EBK/src/tensorflow_lite/tensorflow/lite/kernels/internal\types.h ****     }
 626              		.loc 4 224 0
 627 02a0 0130A0E3 		mov	r3, #1
 628 02a4 C8308DE5 		str	r3, [sp, #200]
 629              	.LVL72:
 630              	.LBE1638:
 631              	.LBE1637:
 632              		.loc 4 311 0
 633 02a8 0E03000A 		beq	.L181
 634              	.LVL73:
 635 02ac 020050E3 		cmp	r0, #2
 636              	.LBB1644:
 637              	.LBB1639:
 224:C:/Renesas/e2studio_2021_01_workspace_RZA2M_ANPR/ANPR_RZA2M_EBK/src/tensorflow_lite/tensorflow/lite/kernels/internal\types.h ****     }
 638              		.loc 4 224 0
 639 02b0 CC308DE5 		str	r3, [sp, #204]
 640              	.LVL74:
 641              	.LBE1639:
 642              	.LBE1644:
 643              		.loc 4 311 0
 644 02b4 0B03000A 		beq	.L181
 645              	.LVL75:
 646 02b8 030050E3 		cmp	r0, #3
 647              	.LBB1645:
 648              	.LBB1640:
 224:C:/Renesas/e2studio_2021_01_workspace_RZA2M_ANPR/ANPR_RZA2M_EBK/src/tensorflow_lite/tensorflow/lite/kernels/internal\types.h ****     }
 649              		.loc 4 224 0
 650 02bc D0308DE5 		str	r3, [sp, #208]
 651              	.LVL76:
 652              	.LBE1640:
 653              	.LBE1645:
 654              		.loc 4 311 0
 655 02c0 0803000A 		beq	.L181
 656              	.LVL77:
 657 02c4 040050E3 		cmp	r0, #4
 658              	.LBB1646:
 659              	.LBB1641:
 224:C:/Renesas/e2studio_2021_01_workspace_RZA2M_ANPR/ANPR_RZA2M_EBK/src/tensorflow_lite/tensorflow/lite/kernels/internal\types.h ****     }
 660              		.loc 4 224 0
 661 02c8 D4308DE5 		str	r3, [sp, #212]
 662              	.LVL78:
 663              	.LBE1641:
 664              	.LBE1646:
 665              		.loc 4 311 0
 666 02cc 0503000A 		beq	.L181
 667              	.LVL79:
 668 02d0 050050E3 		cmp	r0, #5
 669              	.LBB1647:
 670              	.LBB1642:
 224:C:/Renesas/e2studio_2021_01_workspace_RZA2M_ANPR/ANPR_RZA2M_EBK/src/tensorflow_lite/tensorflow/lite/kernels/internal\types.h ****     }
 671              		.loc 4 224 0
 672 02d4 D8308DE5 		str	r3, [sp, #216]
 673              	.LVL80:
 674              	.LBE1642:
 675              	.LBE1647:
 676              		.loc 4 311 0
 677 02d8 0203000A 		beq	.L181
 678              	.LVL81:
 679              	.LEHB8:
 680              	.LBB1648:
 681              	.LBB1643:
 220:C:/Renesas/e2studio_2021_01_workspace_RZA2M_ANPR/ANPR_RZA2M_EBK/src/tensorflow_lite/tensorflow/lite/kernels/internal\types.h ****     if (size_ > kMaxSmallSize) {
 682              		.loc 4 220 0
 683 02dc FEFFFFEB 		bl	abort
 684              	.LVL82:
 685              	.LEHE8:
 686              	.L631:
 687              	.L489:
 688              	.LBE1643:
 689              	.LBE1648:
 690              	.LBE1651:
 691              	.LBE1635:
 692              	.LBE1634:
 693              	.LBE1633:
 694              	.LBE1632:
 695              	.LBE1971:
 696              	.LBE1975:
 697              	.LBE1979:
 698              	.LBE1985:
 699              	.LBB1986:
 700              	.LBB1987:
 203:C:/Renesas/e2studio_2021_01_workspace_RZA2M_ANPR/ANPR_RZA2M_EBK/src/tensorflow_lite/tensorflow/lite/kernels/internal\types.h **** #ifdef TF_LITE_STATIC_MEMORY
 701              		.loc 4 203 0
 702 02e0 AC309DE5 		ldr	r3, [sp, #172]
 703 02e4 050053E3 		cmp	r3, #5
 704 02e8 030000DA 		ble	.L497
 207:C:/Renesas/e2studio_2021_01_workspace_RZA2M_ANPR/ANPR_RZA2M_EBK/src/tensorflow_lite/tensorflow/lite/kernels/internal\types.h **** #endif  // TF_LITE_STATIC_MEMORY
 705              		.loc 4 207 0
 706 02ec B0009DE5 		ldr	r0, [sp, #176]
 707 02f0 000050E3 		cmp	r0, #0
 708 02f4 0000000A 		beq	.L497
 709 02f8 FEFFFFEB 		bl	_ZdaPv
 710              	.LVL83:
 711              	.L497:
 712              	.LBE1987:
 713              	.LBE1986:
 714              	.LBB1988:
 715              	.LBB1989:
 203:C:/Renesas/e2studio_2021_01_workspace_RZA2M_ANPR/ANPR_RZA2M_EBK/src/tensorflow_lite/tensorflow/lite/kernels/internal\types.h **** #ifdef TF_LITE_STATIC_MEMORY
 716              		.loc 4 203 0
 717 02fc 94309DE5 		ldr	r3, [sp, #148]
 718 0300 050053E3 		cmp	r3, #5
 719 0304 030000DA 		ble	.L498
 207:C:/Renesas/e2studio_2021_01_workspace_RZA2M_ANPR/ANPR_RZA2M_EBK/src/tensorflow_lite/tensorflow/lite/kernels/internal\types.h **** #endif  // TF_LITE_STATIC_MEMORY
 720              		.loc 4 207 0
 721 0308 98009DE5 		ldr	r0, [sp, #152]
 722 030c 000050E3 		cmp	r0, #0
 723 0310 0000000A 		beq	.L498
 724 0314 FEFFFFEB 		bl	_ZdaPv
 725              	.LVL84:
 726              	.L498:
 727              	.LEHB9:
 728 0318 FEFFFFEB 		bl	__cxa_end_cleanup
 729              	.LVL85:
 730              	.LEHE9:
 731              	.L340:
 732              	.LBE1989:
 733              	.LBE1988:
 734              	.LBB1990:
 735              	.LBB1613:
 736              	.LBB1605:
 737              	.LBB1597:
 738              	.LBB1271:
 739              	.LBB1270:
 740              	.LBB1269:
 741              	.LBB1268:
 312:C:/Renesas/e2studio_2021_01_workspace_RZA2M_ANPR/ANPR_RZA2M_EBK/src/tensorflow_lite/tensorflow/lite/kernels/internal\types.h ****       SetDim(i, pad_value);
 313:C:/Renesas/e2studio_2021_01_workspace_RZA2M_ANPR/ANPR_RZA2M_EBK/src/tensorflow_lite/tensorflow/lite/kernels/internal\types.h ****     }
 314:C:/Renesas/e2studio_2021_01_workspace_RZA2M_ANPR/ANPR_RZA2M_EBK/src/tensorflow_lite/tensorflow/lite/kernels/internal\types.h ****     std::memcpy(DimsData() + size_increase, shape.DimsData(),
 315:C:/Renesas/e2studio_2021_01_workspace_RZA2M_ANPR/ANPR_RZA2M_EBK/src/tensorflow_lite/tensorflow/lite/kernels/internal\types.h ****                 sizeof(int32_t) * shape.DimensionsCount());
 742              		.loc 4 315 0
 743 031c C8308DE2 		add	r3, sp, #200
 744 0320 0221A0E1 		lsl	r2, r2, #2
 745 0324 000183E0 		add	r0, r3, r0, lsl #2
 746              	.LVL86:
 747 0328 98108DE2 		add	r1, sp, #152
 748 032c FEFFFFEB 		bl	memcpy
 749              	.LVL87:
 750              	.LBE1268:
 751              	.LBE1269:
 752              	.LBE1270:
 753              	.LBE1271:
 754              	.LBB1272:
 755              	.LBB1273:
 756              	.LBB1274:
 757              	.LBB1275:
 758              	.LBB1276:
 311:C:/Renesas/e2studio_2021_01_workspace_RZA2M_ANPR/ANPR_RZA2M_EBK/src/tensorflow_lite/tensorflow/lite/kernels/internal\types.h ****       SetDim(i, pad_value);
 759              		.loc 4 311 0
 760 0330 050078E2 		rsbs	r0, r8, #5
 761              	.LBE1276:
 762              	.LBB1289:
 763              	.LBB1290:
 245:C:/Renesas/e2studio_2021_01_workspace_RZA2M_ANPR/ANPR_RZA2M_EBK/src/tensorflow_lite/tensorflow/lite/kernels/internal\types.h ****     if (dimensions_count > kMaxSmallSize) {
 764              		.loc 4 245 0
 765 0334 0530A0E3 		mov	r3, #5
 766 0338 DC308DE5 		str	r3, [sp, #220]
 767              	.LVL88:
 768              	.LBE1290:
 769              	.LBE1289:
 770              	.LBB1291:
 311:C:/Renesas/e2studio_2021_01_workspace_RZA2M_ANPR/ANPR_RZA2M_EBK/src/tensorflow_lite/tensorflow/lite/kernels/internal\types.h ****       SetDim(i, pad_value);
 771              		.loc 4 311 0
 772 033c 0403000A 		beq	.L338
 773              	.LVL89:
 774 0340 010050E3 		cmp	r0, #1
 775              	.LBB1277:
 776              	.LBB1278:
 224:C:/Renesas/e2studio_2021_01_workspace_RZA2M_ANPR/ANPR_RZA2M_EBK/src/tensorflow_lite/tensorflow/lite/kernels/internal\types.h ****     }
 777              		.loc 4 224 0
 778 0344 0130A0E3 		mov	r3, #1
 779 0348 E0308DE5 		str	r3, [sp, #224]
 780              	.LVL90:
 781              	.LBE1278:
 782              	.LBE1277:
 311:C:/Renesas/e2studio_2021_01_workspace_RZA2M_ANPR/ANPR_RZA2M_EBK/src/tensorflow_lite/tensorflow/lite/kernels/internal\types.h ****       SetDim(i, pad_value);
 783              		.loc 4 311 0
 784 034c 0003000A 		beq	.L338
 785              	.LVL91:
 786 0350 020050E3 		cmp	r0, #2
 787              	.LBB1284:
 788              	.LBB1279:
 224:C:/Renesas/e2studio_2021_01_workspace_RZA2M_ANPR/ANPR_RZA2M_EBK/src/tensorflow_lite/tensorflow/lite/kernels/internal\types.h ****     }
 789              		.loc 4 224 0
 790 0354 E4308DE5 		str	r3, [sp, #228]
 791              	.LVL92:
 792              	.LBE1279:
 793              	.LBE1284:
 311:C:/Renesas/e2studio_2021_01_workspace_RZA2M_ANPR/ANPR_RZA2M_EBK/src/tensorflow_lite/tensorflow/lite/kernels/internal\types.h ****       SetDim(i, pad_value);
 794              		.loc 4 311 0
 795 0358 FD02000A 		beq	.L338
 796              	.LVL93:
 797 035c 030050E3 		cmp	r0, #3
 798              	.LBB1285:
 799              	.LBB1280:
 224:C:/Renesas/e2studio_2021_01_workspace_RZA2M_ANPR/ANPR_RZA2M_EBK/src/tensorflow_lite/tensorflow/lite/kernels/internal\types.h ****     }
 800              		.loc 4 224 0
 801 0360 E8308DE5 		str	r3, [sp, #232]
 802              	.LVL94:
 803              	.LBE1280:
 804              	.LBE1285:
 311:C:/Renesas/e2studio_2021_01_workspace_RZA2M_ANPR/ANPR_RZA2M_EBK/src/tensorflow_lite/tensorflow/lite/kernels/internal\types.h ****       SetDim(i, pad_value);
 805              		.loc 4 311 0
 806 0364 FA02000A 		beq	.L338
 807              	.LVL95:
 808 0368 040050E3 		cmp	r0, #4
 809              	.LBB1286:
 810              	.LBB1281:
 224:C:/Renesas/e2studio_2021_01_workspace_RZA2M_ANPR/ANPR_RZA2M_EBK/src/tensorflow_lite/tensorflow/lite/kernels/internal\types.h ****     }
 811              		.loc 4 224 0
 812 036c EC308DE5 		str	r3, [sp, #236]
 813              	.LVL96:
 814              	.LBE1281:
 815              	.LBE1286:
 311:C:/Renesas/e2studio_2021_01_workspace_RZA2M_ANPR/ANPR_RZA2M_EBK/src/tensorflow_lite/tensorflow/lite/kernels/internal\types.h ****       SetDim(i, pad_value);
 816              		.loc 4 311 0
 817 0370 F702000A 		beq	.L338
 818              	.LVL97:
 819 0374 050050E3 		cmp	r0, #5
 820              	.LBB1287:
 821              	.LBB1282:
 224:C:/Renesas/e2studio_2021_01_workspace_RZA2M_ANPR/ANPR_RZA2M_EBK/src/tensorflow_lite/tensorflow/lite/kernels/internal\types.h ****     }
 822              		.loc 4 224 0
 823 0378 F0308DE5 		str	r3, [sp, #240]
 824              	.LVL98:
 825              	.LBE1282:
 826              	.LBE1287:
 311:C:/Renesas/e2studio_2021_01_workspace_RZA2M_ANPR/ANPR_RZA2M_EBK/src/tensorflow_lite/tensorflow/lite/kernels/internal\types.h ****       SetDim(i, pad_value);
 827              		.loc 4 311 0
 828 037c F402000A 		beq	.L338
 829              	.LVL99:
 830              	.LEHB10:
 831              	.LBB1288:
 832              	.LBB1283:
 220:C:/Renesas/e2studio_2021_01_workspace_RZA2M_ANPR/ANPR_RZA2M_EBK/src/tensorflow_lite/tensorflow/lite/kernels/internal\types.h ****     if (size_ > kMaxSmallSize) {
 833              		.loc 4 220 0
 834 0380 FEFFFFEB 		bl	abort
 835              	.LVL100:
 836              	.LEHE10:
 837              	.L1055:
 838              	.LEHB11:
 839              	.LBE1283:
 840              	.LBE1288:
 841              	.LBE1291:
 842              	.LBE1275:
 843              	.LBE1274:
 844              	.LBE1273:
 845              	.LBE1272:
 846              		.loc 3 44 0
 847 0384 FEFFFFEB 		bl	abort
 848              	.LVL101:
 849              	.L1054:
  43:C:/Renesas/e2studio_2021_01_workspace_RZA2M_ANPR/ANPR_RZA2M_EBK/src/tensorflow_lite/tensorflow/lite/kernels/internal/reference\strided_slice.h ****   TFLITE_DCHECK_LE(unextended_output_shape.DimensionsCount(), 5);
 850              		.loc 3 43 0
 851 0388 FEFFFFEB 		bl	abort
 852              	.LVL102:
 853              	.LEHE11:
 854              	.L624:
 855 038c DAFFFFEA 		b	.L497
 856              	.L1053:
 857              	.LEHB12:
 858              	.LBE1597:
 859              	.LBE1605:
 860              	.LBE1613:
 861              	.LBE1990:
 862              	.LBB1991:
 863              	.LBB1242:
  62:C:/Renesas/e2studio_2021_01_workspace_RZA2M_ANPR/ANPR_RZA2M_EBK/src/tensorflow_lite/tensorflow/lite/micro/kernels\kernel_util.h ****   return reinterpret_cast<const T*>(tensor->data.raw);
 864              		.loc 2 62 0
 865 0390 FEFFFFEB 		bl	abort
 866              	.LVL103:
 867              	.LEHE12:
 868              	.L625:
 869 0394 D1FFFFEA 		b	.L489
 870              	.LVL104:
 871              	.L21:
 872              	.LBE1242:
 873              	.LBE1991:
 874              	.LBB1992:
 875              	.LBB1232:
 876              	.LBB1227:
 877              	.LBB1222:
 878              	.LBB903:
 879              	.LBB902:
 880              	.LBB901:
 881              	.LBB900:
 882              		.loc 4 315 0
 883 0398 C8308DE2 		add	r3, sp, #200
 884 039c 0221A0E1 		lsl	r2, r2, #2
 885 03a0 000183E0 		add	r0, r3, r0, lsl #2
 886              	.LVL105:
 887 03a4 98108DE2 		add	r1, sp, #152
 888 03a8 FEFFFFEB 		bl	memcpy
 889              	.LVL106:
 890              	.LBE900:
 891              	.LBE901:
 892              	.LBE902:
 893              	.LBE903:
 894              	.LBB904:
 895              	.LBB905:
 896              	.LBB906:
 897              	.LBB907:
 898              	.LBB908:
 311:C:/Renesas/e2studio_2021_01_workspace_RZA2M_ANPR/ANPR_RZA2M_EBK/src/tensorflow_lite/tensorflow/lite/kernels/internal\types.h ****       SetDim(i, pad_value);
 899              		.loc 4 311 0
 900 03ac 05007AE2 		rsbs	r0, r10, #5
 901              	.LBE908:
 902              	.LBB921:
 903              	.LBB922:
 245:C:/Renesas/e2studio_2021_01_workspace_RZA2M_ANPR/ANPR_RZA2M_EBK/src/tensorflow_lite/tensorflow/lite/kernels/internal\types.h ****     if (dimensions_count > kMaxSmallSize) {
 904              		.loc 4 245 0
 905 03b0 0530A0E3 		mov	r3, #5
 906 03b4 DC308DE5 		str	r3, [sp, #220]
 907              	.LVL107:
 908              	.LBE922:
 909              	.LBE921:
 910              	.LBB923:
 311:C:/Renesas/e2studio_2021_01_workspace_RZA2M_ANPR/ANPR_RZA2M_EBK/src/tensorflow_lite/tensorflow/lite/kernels/internal\types.h ****       SetDim(i, pad_value);
 911              		.loc 4 311 0
 912 03b8 1C00000A 		beq	.L19
 913              	.LVL108:
 914 03bc 010050E3 		cmp	r0, #1
 915              	.LBB909:
 916              	.LBB910:
 224:C:/Renesas/e2studio_2021_01_workspace_RZA2M_ANPR/ANPR_RZA2M_EBK/src/tensorflow_lite/tensorflow/lite/kernels/internal\types.h ****     }
 917              		.loc 4 224 0
 918 03c0 0130A0E3 		mov	r3, #1
 919 03c4 E0308DE5 		str	r3, [sp, #224]
 920              	.LVL109:
 921              	.LBE910:
 922              	.LBE909:
 311:C:/Renesas/e2studio_2021_01_workspace_RZA2M_ANPR/ANPR_RZA2M_EBK/src/tensorflow_lite/tensorflow/lite/kernels/internal\types.h ****       SetDim(i, pad_value);
 923              		.loc 4 311 0
 924 03c8 1800000A 		beq	.L19
 925              	.LVL110:
 926 03cc 020050E3 		cmp	r0, #2
 927              	.LBB916:
 928              	.LBB911:
 224:C:/Renesas/e2studio_2021_01_workspace_RZA2M_ANPR/ANPR_RZA2M_EBK/src/tensorflow_lite/tensorflow/lite/kernels/internal\types.h ****     }
 929              		.loc 4 224 0
 930 03d0 E4308DE5 		str	r3, [sp, #228]
 931              	.LVL111:
 932              	.LBE911:
 933              	.LBE916:
 311:C:/Renesas/e2studio_2021_01_workspace_RZA2M_ANPR/ANPR_RZA2M_EBK/src/tensorflow_lite/tensorflow/lite/kernels/internal\types.h ****       SetDim(i, pad_value);
 934              		.loc 4 311 0
 935 03d4 1500000A 		beq	.L19
 936              	.LVL112:
 937 03d8 030050E3 		cmp	r0, #3
 938              	.LBB917:
 939              	.LBB912:
 224:C:/Renesas/e2studio_2021_01_workspace_RZA2M_ANPR/ANPR_RZA2M_EBK/src/tensorflow_lite/tensorflow/lite/kernels/internal\types.h ****     }
 940              		.loc 4 224 0
 941 03dc E8308DE5 		str	r3, [sp, #232]
 942              	.LVL113:
 943              	.LBE912:
 944              	.LBE917:
 311:C:/Renesas/e2studio_2021_01_workspace_RZA2M_ANPR/ANPR_RZA2M_EBK/src/tensorflow_lite/tensorflow/lite/kernels/internal\types.h ****       SetDim(i, pad_value);
 945              		.loc 4 311 0
 946 03e0 1200000A 		beq	.L19
 947              	.LVL114:
 948 03e4 040050E3 		cmp	r0, #4
 949              	.LBB918:
 950              	.LBB913:
 224:C:/Renesas/e2studio_2021_01_workspace_RZA2M_ANPR/ANPR_RZA2M_EBK/src/tensorflow_lite/tensorflow/lite/kernels/internal\types.h ****     }
 951              		.loc 4 224 0
 952 03e8 EC308DE5 		str	r3, [sp, #236]
 953              	.LVL115:
 954              	.LBE913:
 955              	.LBE918:
 311:C:/Renesas/e2studio_2021_01_workspace_RZA2M_ANPR/ANPR_RZA2M_EBK/src/tensorflow_lite/tensorflow/lite/kernels/internal\types.h ****       SetDim(i, pad_value);
 956              		.loc 4 311 0
 957 03ec 0F00000A 		beq	.L19
 958              	.LVL116:
 959 03f0 050050E3 		cmp	r0, #5
 960              	.LBB919:
 961              	.LBB914:
 224:C:/Renesas/e2studio_2021_01_workspace_RZA2M_ANPR/ANPR_RZA2M_EBK/src/tensorflow_lite/tensorflow/lite/kernels/internal\types.h ****     }
 962              		.loc 4 224 0
 963 03f4 F0308DE5 		str	r3, [sp, #240]
 964              	.LVL117:
 965              	.LBE914:
 966              	.LBE919:
 311:C:/Renesas/e2studio_2021_01_workspace_RZA2M_ANPR/ANPR_RZA2M_EBK/src/tensorflow_lite/tensorflow/lite/kernels/internal\types.h ****       SetDim(i, pad_value);
 967              		.loc 4 311 0
 968 03f8 0C00000A 		beq	.L19
 969              	.LVL118:
 970              	.LEHB13:
 971              	.LBB920:
 972              	.LBB915:
 220:C:/Renesas/e2studio_2021_01_workspace_RZA2M_ANPR/ANPR_RZA2M_EBK/src/tensorflow_lite/tensorflow/lite/kernels/internal\types.h ****     if (size_ > kMaxSmallSize) {
 973              		.loc 4 220 0
 974 03fc FEFFFFEB 		bl	abort
 975              	.LVL119:
 976              	.LEHE13:
 977              	.L1052:
 978              	.LEHB14:
 979              	.LBE915:
 980              	.LBE920:
 981              	.LBE923:
 982              	.LBE907:
 983              	.LBE906:
 984              	.LBE905:
 985              	.LBE904:
 986              		.loc 3 44 0
 987 0400 FEFFFFEB 		bl	abort
 988              	.LVL120:
 989              	.L1051:
  43:C:/Renesas/e2studio_2021_01_workspace_RZA2M_ANPR/ANPR_RZA2M_EBK/src/tensorflow_lite/tensorflow/lite/kernels/internal/reference\strided_slice.h ****   TFLITE_DCHECK_LE(unextended_output_shape.DimensionsCount(), 5);
 990              		.loc 3 43 0
 991 0404 FEFFFFEB 		bl	abort
 992              	.LVL121:
 993              	.LEHE14:
 994              	.L622:
 995 0408 BBFFFFEA 		b	.L497
 996              	.LVL122:
 997              	.L1050:
 998              	.LEHB15:
 999              	.LBE1222:
 1000              	.LBE1227:
 1001              	.LBE1232:
 1002              	.LBE1992:
 1003              	.LBB1993:
 1004              	.LBB874:
  62:C:/Renesas/e2studio_2021_01_workspace_RZA2M_ANPR/ANPR_RZA2M_EBK/src/tensorflow_lite/tensorflow/lite/micro/kernels\kernel_util.h ****   return reinterpret_cast<const T*>(tensor->data.raw);
 1005              		.loc 2 62 0
 1006 040c FEFFFFEB 		bl	abort
 1007              	.LVL123:
 1008              	.LEHE15:
 1009              	.L626:
 1010              	.L487:
 1011              	.LBE874:
 1012              	.LBE1993:
 1013              	.LBB1994:
 1014              	.LBB1614:
 1015              	.LBB1606:
 1016              	.LBB1598:
 1017              	.LBB1295:
 1018              	.LBB1296:
 203:C:/Renesas/e2studio_2021_01_workspace_RZA2M_ANPR/ANPR_RZA2M_EBK/src/tensorflow_lite/tensorflow/lite/kernels/internal\types.h **** #ifdef TF_LITE_STATIC_MEMORY
 1019              		.loc 4 203 0
 1020 0410 C4309DE5 		ldr	r3, [sp, #196]
 1021 0414 050053E3 		cmp	r3, #5
 1022 0418 B0FFFFDA 		ble	.L489
 207:C:/Renesas/e2studio_2021_01_workspace_RZA2M_ANPR/ANPR_RZA2M_EBK/src/tensorflow_lite/tensorflow/lite/kernels/internal\types.h **** #endif  // TF_LITE_STATIC_MEMORY
 1023              		.loc 4 207 0
 1024 041c C8009DE5 		ldr	r0, [sp, #200]
 1025 0420 000050E3 		cmp	r0, #0
 1026 0424 ADFFFF0A 		beq	.L489
 1027 0428 FEFFFFEB 		bl	_ZdaPv
 1028              	.LVL124:
 1029 042c ABFFFFEA 		b	.L489
 1030              	.LVL125:
 1031              	.L19:
 1032              	.LBE1296:
 1033              	.LBE1295:
 1034              	.LBE1598:
 1035              	.LBE1606:
 1036              	.LBE1614:
 1037              	.LBE1994:
 1038              	.LBB1995:
 1039              	.LBB1233:
 1040              	.LBB1228:
 1041              	.LBB1223:
 1042              	.LBB927:
 1043              	.LBB926:
 1044              	.LBB925:
 1045              	.LBB924:
 1046              		.loc 4 315 0
 1047 0430 E0308DE2 		add	r3, sp, #224
 1048 0434 0A21A0E1 		lsl	r2, r10, #2
 1049 0438 000183E0 		add	r0, r3, r0, lsl #2
 1050              	.LVL126:
 1051 043c B0108DE2 		add	r1, sp, #176
 1052 0440 FEFFFFEB 		bl	memcpy
 1053              	.LVL127:
 1054              	.LBE924:
 1055              	.LBE925:
 1056              	.LBE926:
 1057              	.LBE927:
 1058              	.LBB928:
 1059              	.LBB929:
 1060              		.file 5 "C:/Renesas/e2studio_2021_01_workspace_RZA2M_ANPR/ANPR_RZA2M_EBK/src/tensorflow_lite/tenso
   1:C:/Renesas/e2studio_2021_01_workspace_RZA2M_ANPR/ANPR_RZA2M_EBK/src/tensorflow_lite/tensorflow/lite/kernels/internal\strided_slice_logic.h **** /* Copyright 2018 The TensorFlow Authors. All Rights Reserved.
   2:C:/Renesas/e2studio_2021_01_workspace_RZA2M_ANPR/ANPR_RZA2M_EBK/src/tensorflow_lite/tensorflow/lite/kernels/internal\strided_slice_logic.h **** 
   3:C:/Renesas/e2studio_2021_01_workspace_RZA2M_ANPR/ANPR_RZA2M_EBK/src/tensorflow_lite/tensorflow/lite/kernels/internal\strided_slice_logic.h **** Licensed under the Apache License, Version 2.0 (the "License");
   4:C:/Renesas/e2studio_2021_01_workspace_RZA2M_ANPR/ANPR_RZA2M_EBK/src/tensorflow_lite/tensorflow/lite/kernels/internal\strided_slice_logic.h **** you may not use this file except in compliance with the License.
   5:C:/Renesas/e2studio_2021_01_workspace_RZA2M_ANPR/ANPR_RZA2M_EBK/src/tensorflow_lite/tensorflow/lite/kernels/internal\strided_slice_logic.h **** You may obtain a copy of the License at
   6:C:/Renesas/e2studio_2021_01_workspace_RZA2M_ANPR/ANPR_RZA2M_EBK/src/tensorflow_lite/tensorflow/lite/kernels/internal\strided_slice_logic.h **** 
   7:C:/Renesas/e2studio_2021_01_workspace_RZA2M_ANPR/ANPR_RZA2M_EBK/src/tensorflow_lite/tensorflow/lite/kernels/internal\strided_slice_logic.h ****     http://www.apache.org/licenses/LICENSE-2.0
   8:C:/Renesas/e2studio_2021_01_workspace_RZA2M_ANPR/ANPR_RZA2M_EBK/src/tensorflow_lite/tensorflow/lite/kernels/internal\strided_slice_logic.h **** 
   9:C:/Renesas/e2studio_2021_01_workspace_RZA2M_ANPR/ANPR_RZA2M_EBK/src/tensorflow_lite/tensorflow/lite/kernels/internal\strided_slice_logic.h **** Unless required by applicable law or agreed to in writing, software
  10:C:/Renesas/e2studio_2021_01_workspace_RZA2M_ANPR/ANPR_RZA2M_EBK/src/tensorflow_lite/tensorflow/lite/kernels/internal\strided_slice_logic.h **** distributed under the License is distributed on an "AS IS" BASIS,
  11:C:/Renesas/e2studio_2021_01_workspace_RZA2M_ANPR/ANPR_RZA2M_EBK/src/tensorflow_lite/tensorflow/lite/kernels/internal\strided_slice_logic.h **** WITHOUT WARRANTIES OR CONDITIONS OF ANY KIND, either express or implied.
  12:C:/Renesas/e2studio_2021_01_workspace_RZA2M_ANPR/ANPR_RZA2M_EBK/src/tensorflow_lite/tensorflow/lite/kernels/internal\strided_slice_logic.h **** See the License for the specific language governing permissions and
  13:C:/Renesas/e2studio_2021_01_workspace_RZA2M_ANPR/ANPR_RZA2M_EBK/src/tensorflow_lite/tensorflow/lite/kernels/internal\strided_slice_logic.h **** limitations under the License.
  14:C:/Renesas/e2studio_2021_01_workspace_RZA2M_ANPR/ANPR_RZA2M_EBK/src/tensorflow_lite/tensorflow/lite/kernels/internal\strided_slice_logic.h **** ==============================================================================*/
  15:C:/Renesas/e2studio_2021_01_workspace_RZA2M_ANPR/ANPR_RZA2M_EBK/src/tensorflow_lite/tensorflow/lite/kernels/internal\strided_slice_logic.h **** 
  16:C:/Renesas/e2studio_2021_01_workspace_RZA2M_ANPR/ANPR_RZA2M_EBK/src/tensorflow_lite/tensorflow/lite/kernels/internal\strided_slice_logic.h **** #ifndef TENSORFLOW_LITE_KERNELS_INTERNAL_STRIDED_SLICE_LOGIC_H_
  17:C:/Renesas/e2studio_2021_01_workspace_RZA2M_ANPR/ANPR_RZA2M_EBK/src/tensorflow_lite/tensorflow/lite/kernels/internal\strided_slice_logic.h **** #define TENSORFLOW_LITE_KERNELS_INTERNAL_STRIDED_SLICE_LOGIC_H_
  18:C:/Renesas/e2studio_2021_01_workspace_RZA2M_ANPR/ANPR_RZA2M_EBK/src/tensorflow_lite/tensorflow/lite/kernels/internal\strided_slice_logic.h **** 
  19:C:/Renesas/e2studio_2021_01_workspace_RZA2M_ANPR/ANPR_RZA2M_EBK/src/tensorflow_lite/tensorflow/lite/kernels/internal\strided_slice_logic.h **** #include <limits>
  20:C:/Renesas/e2studio_2021_01_workspace_RZA2M_ANPR/ANPR_RZA2M_EBK/src/tensorflow_lite/tensorflow/lite/kernels/internal\strided_slice_logic.h **** #include <vector>
  21:C:/Renesas/e2studio_2021_01_workspace_RZA2M_ANPR/ANPR_RZA2M_EBK/src/tensorflow_lite/tensorflow/lite/kernels/internal\strided_slice_logic.h **** 
  22:C:/Renesas/e2studio_2021_01_workspace_RZA2M_ANPR/ANPR_RZA2M_EBK/src/tensorflow_lite/tensorflow/lite/kernels/internal\strided_slice_logic.h **** #include "tensorflow/lite/kernels/internal/compatibility.h"
  23:C:/Renesas/e2studio_2021_01_workspace_RZA2M_ANPR/ANPR_RZA2M_EBK/src/tensorflow_lite/tensorflow/lite/kernels/internal\strided_slice_logic.h **** #include "tensorflow/lite/kernels/internal/types.h"
  24:C:/Renesas/e2studio_2021_01_workspace_RZA2M_ANPR/ANPR_RZA2M_EBK/src/tensorflow_lite/tensorflow/lite/kernels/internal\strided_slice_logic.h **** 
  25:C:/Renesas/e2studio_2021_01_workspace_RZA2M_ANPR/ANPR_RZA2M_EBK/src/tensorflow_lite/tensorflow/lite/kernels/internal\strided_slice_logic.h **** namespace tflite {
  26:C:/Renesas/e2studio_2021_01_workspace_RZA2M_ANPR/ANPR_RZA2M_EBK/src/tensorflow_lite/tensorflow/lite/kernels/internal\strided_slice_logic.h **** namespace strided_slice {
  27:C:/Renesas/e2studio_2021_01_workspace_RZA2M_ANPR/ANPR_RZA2M_EBK/src/tensorflow_lite/tensorflow/lite/kernels/internal\strided_slice_logic.h **** 
  28:C:/Renesas/e2studio_2021_01_workspace_RZA2M_ANPR/ANPR_RZA2M_EBK/src/tensorflow_lite/tensorflow/lite/kernels/internal\strided_slice_logic.h **** // Use until std::clamp() is available from C++17.
  29:C:/Renesas/e2studio_2021_01_workspace_RZA2M_ANPR/ANPR_RZA2M_EBK/src/tensorflow_lite/tensorflow/lite/kernels/internal\strided_slice_logic.h **** inline int Clamp(const int v, const int lo, const int hi) {
  30:C:/Renesas/e2studio_2021_01_workspace_RZA2M_ANPR/ANPR_RZA2M_EBK/src/tensorflow_lite/tensorflow/lite/kernels/internal\strided_slice_logic.h ****   TFLITE_DCHECK(!(hi < lo));
  31:C:/Renesas/e2studio_2021_01_workspace_RZA2M_ANPR/ANPR_RZA2M_EBK/src/tensorflow_lite/tensorflow/lite/kernels/internal\strided_slice_logic.h ****   if (hi < v) return hi;
  32:C:/Renesas/e2studio_2021_01_workspace_RZA2M_ANPR/ANPR_RZA2M_EBK/src/tensorflow_lite/tensorflow/lite/kernels/internal\strided_slice_logic.h ****   if (v < lo) return lo;
  33:C:/Renesas/e2studio_2021_01_workspace_RZA2M_ANPR/ANPR_RZA2M_EBK/src/tensorflow_lite/tensorflow/lite/kernels/internal\strided_slice_logic.h ****   return v;
  34:C:/Renesas/e2studio_2021_01_workspace_RZA2M_ANPR/ANPR_RZA2M_EBK/src/tensorflow_lite/tensorflow/lite/kernels/internal\strided_slice_logic.h **** }
  35:C:/Renesas/e2studio_2021_01_workspace_RZA2M_ANPR/ANPR_RZA2M_EBK/src/tensorflow_lite/tensorflow/lite/kernels/internal\strided_slice_logic.h **** 
  36:C:/Renesas/e2studio_2021_01_workspace_RZA2M_ANPR/ANPR_RZA2M_EBK/src/tensorflow_lite/tensorflow/lite/kernels/internal\strided_slice_logic.h **** inline void StridedSlicePadIndices(tflite::StridedSliceParams* p,
  37:C:/Renesas/e2studio_2021_01_workspace_RZA2M_ANPR/ANPR_RZA2M_EBK/src/tensorflow_lite/tensorflow/lite/kernels/internal\strided_slice_logic.h ****                                    int dim_count) {
  38:C:/Renesas/e2studio_2021_01_workspace_RZA2M_ANPR/ANPR_RZA2M_EBK/src/tensorflow_lite/tensorflow/lite/kernels/internal\strided_slice_logic.h ****   // Add indices and mask bits to fully include extra dimensions
  39:C:/Renesas/e2studio_2021_01_workspace_RZA2M_ANPR/ANPR_RZA2M_EBK/src/tensorflow_lite/tensorflow/lite/kernels/internal\strided_slice_logic.h ****   TFLITE_CHECK_LE(dim_count, 5);
  40:C:/Renesas/e2studio_2021_01_workspace_RZA2M_ANPR/ANPR_RZA2M_EBK/src/tensorflow_lite/tensorflow/lite/kernels/internal\strided_slice_logic.h ****   TFLITE_CHECK_GE(dim_count, p->start_indices_count);
 1061              		.loc 5 40 0
 1062 0444 050057E3 		cmp	r7, #5
 1063 0448 A00200CA 		bgt	.L1059
  41:C:/Renesas/e2studio_2021_01_workspace_RZA2M_ANPR/ANPR_RZA2M_EBK/src/tensorflow_lite/tensorflow/lite/kernels/internal\strided_slice_logic.h ****   TFLITE_CHECK_EQ(p->start_indices_count, p->stop_indices_count);
 1064              		.loc 5 41 0
 1065 044c 070055E1 		cmp	r5, r7
 1066 0450 9D02001A 		bne	.L1060
  42:C:/Renesas/e2studio_2021_01_workspace_RZA2M_ANPR/ANPR_RZA2M_EBK/src/tensorflow_lite/tensorflow/lite/kernels/internal\strided_slice_logic.h ****   TFLITE_CHECK_EQ(p->stop_indices_count, p->strides_count);
 1067              		.loc 5 42 0
 1068 0454 090055E1 		cmp	r5, r9
 1069 0458 9A02001A 		bne	.L1061
 1070              	.LBB930:
  43:C:/Renesas/e2studio_2021_01_workspace_RZA2M_ANPR/ANPR_RZA2M_EBK/src/tensorflow_lite/tensorflow/lite/kernels/internal\strided_slice_logic.h **** 
  44:C:/Renesas/e2studio_2021_01_workspace_RZA2M_ANPR/ANPR_RZA2M_EBK/src/tensorflow_lite/tensorflow/lite/kernels/internal\strided_slice_logic.h ****   const int pad_count = dim_count - p->start_indices_count;
  45:C:/Renesas/e2studio_2021_01_workspace_RZA2M_ANPR/ANPR_RZA2M_EBK/src/tensorflow_lite/tensorflow/lite/kernels/internal\strided_slice_logic.h **** 
  46:C:/Renesas/e2studio_2021_01_workspace_RZA2M_ANPR/ANPR_RZA2M_EBK/src/tensorflow_lite/tensorflow/lite/kernels/internal\strided_slice_logic.h ****   // Pad indices at start, so move arrays by pad_count.
  47:C:/Renesas/e2studio_2021_01_workspace_RZA2M_ANPR/ANPR_RZA2M_EBK/src/tensorflow_lite/tensorflow/lite/kernels/internal\strided_slice_logic.h ****   for (int i = p->start_indices_count - 1; i >= 0; --i) {
 1071              		.loc 5 47 0
 1072 045c 012055E2 		subs	r2, r5, #1
 1073              	.LBE930:
  44:C:/Renesas/e2studio_2021_01_workspace_RZA2M_ANPR/ANPR_RZA2M_EBK/src/tensorflow_lite/tensorflow/lite/kernels/internal\strided_slice_logic.h **** 
 1074              		.loc 5 44 0
 1075 0460 059065E2 		rsb	r9, r5, #5
 1076              	.LVL128:
 1077              	.LBB931:
 1078              		.loc 5 47 0
 1079 0464 4A00004A 		bmi	.L32
  48:C:/Renesas/e2studio_2021_01_workspace_RZA2M_ANPR/ANPR_RZA2M_EBK/src/tensorflow_lite/tensorflow/lite/kernels/internal\strided_slice_logic.h ****     p->strides[i + pad_count] = p->strides[i];
  49:C:/Renesas/e2studio_2021_01_workspace_RZA2M_ANPR/ANPR_RZA2M_EBK/src/tensorflow_lite/tensorflow/lite/kernels/internal\strided_slice_logic.h ****     p->start_indices[i + pad_count] = p->start_indices[i];
 1080              		.loc 5 49 0
 1081 0468 523F8DE2 		add	r3, sp, #328
 1082 046c 021183E0 		add	r1, r3, r2, lsl #2
  48:C:/Renesas/e2studio_2021_01_workspace_RZA2M_ANPR/ANPR_RZA2M_EBK/src/tensorflow_lite/tensorflow/lite/kernels/internal\strided_slice_logic.h ****     p->strides[i + pad_count] = p->strides[i];
 1083              		.loc 5 48 0
 1084 0470 053183E0 		add	r3, r3, r5, lsl #2
 1085 0474 022089E0 		add	r2, r9, r2
 1086              	.LVL129:
 1087 0478 240013E5 		ldr	r0, [r3, #-36]
 1088 047c 523F8DE2 		add	r3, sp, #328
 1089              		.loc 5 49 0
 1090 0480 50C011E5 		ldr	ip, [r1, #-80]
  48:C:/Renesas/e2studio_2021_01_workspace_RZA2M_ANPR/ANPR_RZA2M_EBK/src/tensorflow_lite/tensorflow/lite/kernels/internal\strided_slice_logic.h ****     p->strides[i + pad_count] = p->strides[i];
 1091              		.loc 5 48 0
 1092 0484 02E183E0 		add	lr, r3, r2, lsl #2
  50:C:/Renesas/e2studio_2021_01_workspace_RZA2M_ANPR/ANPR_RZA2M_EBK/src/tensorflow_lite/tensorflow/lite/kernels/internal\strided_slice_logic.h ****     p->stop_indices[i + pad_count] = p->stop_indices[i];
 1093              		.loc 5 50 0
 1094 0488 053183E0 		add	r3, r3, r5, lsl #2
 1095 048c 3C1013E5 		ldr	r1, [r3, #-60]
  47:C:/Renesas/e2studio_2021_01_workspace_RZA2M_ANPR/ANPR_RZA2M_EBK/src/tensorflow_lite/tensorflow/lite/kernels/internal\strided_slice_logic.h ****     p->strides[i + pad_count] = p->strides[i];
 1096              		.loc 5 47 0
 1097 0490 023045E2 		sub	r3, r5, #2
 1098              	.LVL130:
 1099 0494 010073E3 		cmn	r3, #1
  48:C:/Renesas/e2studio_2021_01_workspace_RZA2M_ANPR/ANPR_RZA2M_EBK/src/tensorflow_lite/tensorflow/lite/kernels/internal\strided_slice_logic.h ****     p->strides[i + pad_count] = p->strides[i];
 1100              		.loc 5 48 0
 1101 0498 20000EE5 		str	r0, [lr, #-32]
  49:C:/Renesas/e2studio_2021_01_workspace_RZA2M_ANPR/ANPR_RZA2M_EBK/src/tensorflow_lite/tensorflow/lite/kernels/internal\strided_slice_logic.h ****     p->stop_indices[i + pad_count] = p->stop_indices[i];
 1102              		.loc 5 49 0
 1103 049c 0E00A0E1 		mov	r0, lr
 1104              		.loc 5 50 0
 1105 04a0 52EF8DE2 		add	lr, sp, #328
  49:C:/Renesas/e2studio_2021_01_workspace_RZA2M_ANPR/ANPR_RZA2M_EBK/src/tensorflow_lite/tensorflow/lite/kernels/internal\strided_slice_logic.h ****     p->stop_indices[i + pad_count] = p->stop_indices[i];
 1106              		.loc 5 49 0
 1107 04a4 50C000E5 		str	ip, [r0, #-80]
 1108              		.loc 5 50 0
 1109 04a8 381000E5 		str	r1, [r0, #-56]
  47:C:/Renesas/e2studio_2021_01_workspace_RZA2M_ANPR/ANPR_RZA2M_EBK/src/tensorflow_lite/tensorflow/lite/kernels/internal\strided_slice_logic.h ****     p->strides[i + pad_count] = p->strides[i];
 1110              		.loc 5 47 0
 1111 04ac 3800000A 		beq	.L32
  48:C:/Renesas/e2studio_2021_01_workspace_RZA2M_ANPR/ANPR_RZA2M_EBK/src/tensorflow_lite/tensorflow/lite/kernels/internal\strided_slice_logic.h ****     p->start_indices[i + pad_count] = p->start_indices[i];
 1112              		.loc 5 48 0
 1113 04b0 05218EE0 		add	r2, lr, r5, lsl #2
  49:C:/Renesas/e2studio_2021_01_workspace_RZA2M_ANPR/ANPR_RZA2M_EBK/src/tensorflow_lite/tensorflow/lite/kernels/internal\strided_slice_logic.h ****     p->stop_indices[i + pad_count] = p->stop_indices[i];
 1114              		.loc 5 49 0
 1115 04b4 03118EE0 		add	r1, lr, r3, lsl #2
  48:C:/Renesas/e2studio_2021_01_workspace_RZA2M_ANPR/ANPR_RZA2M_EBK/src/tensorflow_lite/tensorflow/lite/kernels/internal\strided_slice_logic.h ****     p->start_indices[i + pad_count] = p->start_indices[i];
 1116              		.loc 5 48 0
 1117 04b8 280012E5 		ldr	r0, [r2, #-40]
 1118 04bc 0E20A0E1 		mov	r2, lr
 1119              		.loc 5 50 0
 1120 04c0 052182E0 		add	r2, r2, r5, lsl #2
  48:C:/Renesas/e2studio_2021_01_workspace_RZA2M_ANPR/ANPR_RZA2M_EBK/src/tensorflow_lite/tensorflow/lite/kernels/internal\strided_slice_logic.h ****     p->start_indices[i + pad_count] = p->start_indices[i];
 1121              		.loc 5 48 0
 1122 04c4 033089E0 		add	r3, r9, r3
 1123              	.LVL131:
  49:C:/Renesas/e2studio_2021_01_workspace_RZA2M_ANPR/ANPR_RZA2M_EBK/src/tensorflow_lite/tensorflow/lite/kernels/internal\strided_slice_logic.h ****     p->stop_indices[i + pad_count] = p->stop_indices[i];
 1124              		.loc 5 49 0
 1125 04c8 50C011E5 		ldr	ip, [r1, #-80]
  48:C:/Renesas/e2studio_2021_01_workspace_RZA2M_ANPR/ANPR_RZA2M_EBK/src/tensorflow_lite/tensorflow/lite/kernels/internal\strided_slice_logic.h ****     p->start_indices[i + pad_count] = p->start_indices[i];
 1126              		.loc 5 48 0
 1127 04cc 03E18EE0 		add	lr, lr, r3, lsl #2
 1128              		.loc 5 50 0
 1129 04d0 401012E5 		ldr	r1, [r2, #-64]
  47:C:/Renesas/e2studio_2021_01_workspace_RZA2M_ANPR/ANPR_RZA2M_EBK/src/tensorflow_lite/tensorflow/lite/kernels/internal\strided_slice_logic.h ****     p->strides[i + pad_count] = p->strides[i];
 1130              		.loc 5 47 0
 1131 04d4 032045E2 		sub	r2, r5, #3
 1132              	.LVL132:
 1133 04d8 010072E3 		cmn	r2, #1
  48:C:/Renesas/e2studio_2021_01_workspace_RZA2M_ANPR/ANPR_RZA2M_EBK/src/tensorflow_lite/tensorflow/lite/kernels/internal\strided_slice_logic.h ****     p->start_indices[i + pad_count] = p->start_indices[i];
 1134              		.loc 5 48 0
 1135 04dc 20000EE5 		str	r0, [lr, #-32]
  49:C:/Renesas/e2studio_2021_01_workspace_RZA2M_ANPR/ANPR_RZA2M_EBK/src/tensorflow_lite/tensorflow/lite/kernels/internal\strided_slice_logic.h ****     p->stop_indices[i + pad_count] = p->stop_indices[i];
 1136              		.loc 5 49 0
 1137 04e0 0E00A0E1 		mov	r0, lr
 1138              		.loc 5 50 0
 1139 04e4 52EF8DE2 		add	lr, sp, #328
  49:C:/Renesas/e2studio_2021_01_workspace_RZA2M_ANPR/ANPR_RZA2M_EBK/src/tensorflow_lite/tensorflow/lite/kernels/internal\strided_slice_logic.h ****     p->stop_indices[i + pad_count] = p->stop_indices[i];
 1140              		.loc 5 49 0
 1141 04e8 50C000E5 		str	ip, [r0, #-80]
 1142              		.loc 5 50 0
 1143 04ec 381000E5 		str	r1, [r0, #-56]
  47:C:/Renesas/e2studio_2021_01_workspace_RZA2M_ANPR/ANPR_RZA2M_EBK/src/tensorflow_lite/tensorflow/lite/kernels/internal\strided_slice_logic.h ****     p->strides[i + pad_count] = p->strides[i];
 1144              		.loc 5 47 0
 1145 04f0 2700000A 		beq	.L32
  48:C:/Renesas/e2studio_2021_01_workspace_RZA2M_ANPR/ANPR_RZA2M_EBK/src/tensorflow_lite/tensorflow/lite/kernels/internal\strided_slice_logic.h ****     p->start_indices[i + pad_count] = p->start_indices[i];
 1146              		.loc 5 48 0
 1147 04f4 05318EE0 		add	r3, lr, r5, lsl #2
  49:C:/Renesas/e2studio_2021_01_workspace_RZA2M_ANPR/ANPR_RZA2M_EBK/src/tensorflow_lite/tensorflow/lite/kernels/internal\strided_slice_logic.h ****     p->stop_indices[i + pad_count] = p->stop_indices[i];
 1148              		.loc 5 49 0
 1149 04f8 02118EE0 		add	r1, lr, r2, lsl #2
  48:C:/Renesas/e2studio_2021_01_workspace_RZA2M_ANPR/ANPR_RZA2M_EBK/src/tensorflow_lite/tensorflow/lite/kernels/internal\strided_slice_logic.h ****     p->start_indices[i + pad_count] = p->start_indices[i];
 1150              		.loc 5 48 0
 1151 04fc 2C0013E5 		ldr	r0, [r3, #-44]
 1152 0500 0E30A0E1 		mov	r3, lr
 1153              		.loc 5 50 0
 1154 0504 053183E0 		add	r3, r3, r5, lsl #2
  48:C:/Renesas/e2studio_2021_01_workspace_RZA2M_ANPR/ANPR_RZA2M_EBK/src/tensorflow_lite/tensorflow/lite/kernels/internal\strided_slice_logic.h ****     p->start_indices[i + pad_count] = p->start_indices[i];
 1155              		.loc 5 48 0
 1156 0508 022089E0 		add	r2, r9, r2
 1157              	.LVL133:
  49:C:/Renesas/e2studio_2021_01_workspace_RZA2M_ANPR/ANPR_RZA2M_EBK/src/tensorflow_lite/tensorflow/lite/kernels/internal\strided_slice_logic.h ****     p->stop_indices[i + pad_count] = p->stop_indices[i];
 1158              		.loc 5 49 0
 1159 050c 50C011E5 		ldr	ip, [r1, #-80]
  48:C:/Renesas/e2studio_2021_01_workspace_RZA2M_ANPR/ANPR_RZA2M_EBK/src/tensorflow_lite/tensorflow/lite/kernels/internal\strided_slice_logic.h ****     p->start_indices[i + pad_count] = p->start_indices[i];
 1160              		.loc 5 48 0
 1161 0510 02E18EE0 		add	lr, lr, r2, lsl #2
 1162              		.loc 5 50 0
 1163 0514 441013E5 		ldr	r1, [r3, #-68]
  47:C:/Renesas/e2studio_2021_01_workspace_RZA2M_ANPR/ANPR_RZA2M_EBK/src/tensorflow_lite/tensorflow/lite/kernels/internal\strided_slice_logic.h ****     p->strides[i + pad_count] = p->strides[i];
 1164              		.loc 5 47 0
 1165 0518 043045E2 		sub	r3, r5, #4
 1166              	.LVL134:
 1167 051c 010073E3 		cmn	r3, #1
  48:C:/Renesas/e2studio_2021_01_workspace_RZA2M_ANPR/ANPR_RZA2M_EBK/src/tensorflow_lite/tensorflow/lite/kernels/internal\strided_slice_logic.h ****     p->start_indices[i + pad_count] = p->start_indices[i];
 1168              		.loc 5 48 0
 1169 0520 20000EE5 		str	r0, [lr, #-32]
  49:C:/Renesas/e2studio_2021_01_workspace_RZA2M_ANPR/ANPR_RZA2M_EBK/src/tensorflow_lite/tensorflow/lite/kernels/internal\strided_slice_logic.h ****     p->stop_indices[i + pad_count] = p->stop_indices[i];
 1170              		.loc 5 49 0
 1171 0524 0E00A0E1 		mov	r0, lr
 1172              		.loc 5 50 0
 1173 0528 52EF8DE2 		add	lr, sp, #328
  49:C:/Renesas/e2studio_2021_01_workspace_RZA2M_ANPR/ANPR_RZA2M_EBK/src/tensorflow_lite/tensorflow/lite/kernels/internal\strided_slice_logic.h ****     p->stop_indices[i + pad_count] = p->stop_indices[i];
 1174              		.loc 5 49 0
 1175 052c 50C000E5 		str	ip, [r0, #-80]
 1176              		.loc 5 50 0
 1177 0530 381000E5 		str	r1, [r0, #-56]
  47:C:/Renesas/e2studio_2021_01_workspace_RZA2M_ANPR/ANPR_RZA2M_EBK/src/tensorflow_lite/tensorflow/lite/kernels/internal\strided_slice_logic.h ****     p->strides[i + pad_count] = p->strides[i];
 1178              		.loc 5 47 0
 1179 0534 1600000A 		beq	.L32
  48:C:/Renesas/e2studio_2021_01_workspace_RZA2M_ANPR/ANPR_RZA2M_EBK/src/tensorflow_lite/tensorflow/lite/kernels/internal\strided_slice_logic.h ****     p->start_indices[i + pad_count] = p->start_indices[i];
 1180              		.loc 5 48 0
 1181 0538 05018EE0 		add	r0, lr, r5, lsl #2
  49:C:/Renesas/e2studio_2021_01_workspace_RZA2M_ANPR/ANPR_RZA2M_EBK/src/tensorflow_lite/tensorflow/lite/kernels/internal\strided_slice_logic.h ****     p->stop_indices[i + pad_count] = p->stop_indices[i];
 1182              		.loc 5 49 0
 1183 053c 03118EE0 		add	r1, lr, r3, lsl #2
  48:C:/Renesas/e2studio_2021_01_workspace_RZA2M_ANPR/ANPR_RZA2M_EBK/src/tensorflow_lite/tensorflow/lite/kernels/internal\strided_slice_logic.h ****     p->start_indices[i + pad_count] = p->start_indices[i];
 1184              		.loc 5 48 0
 1185 0540 30C010E5 		ldr	ip, [r0, #-48]
 1186 0544 033089E0 		add	r3, r9, r3
 1187              	.LVL135:
 1188              		.loc 5 50 0
 1189 0548 482010E5 		ldr	r2, [r0, #-72]
  48:C:/Renesas/e2studio_2021_01_workspace_RZA2M_ANPR/ANPR_RZA2M_EBK/src/tensorflow_lite/tensorflow/lite/kernels/internal\strided_slice_logic.h ****     p->start_indices[i + pad_count] = p->start_indices[i];
 1190              		.loc 5 48 0
 1191 054c 03E18EE0 		add	lr, lr, r3, lsl #2
  49:C:/Renesas/e2studio_2021_01_workspace_RZA2M_ANPR/ANPR_RZA2M_EBK/src/tensorflow_lite/tensorflow/lite/kernels/internal\strided_slice_logic.h ****     p->stop_indices[i + pad_count] = p->stop_indices[i];
 1192              		.loc 5 49 0
 1193 0550 500011E5 		ldr	r0, [r1, #-80]
  47:C:/Renesas/e2studio_2021_01_workspace_RZA2M_ANPR/ANPR_RZA2M_EBK/src/tensorflow_lite/tensorflow/lite/kernels/internal\strided_slice_logic.h ****     p->strides[i + pad_count] = p->strides[i];
 1194              		.loc 5 47 0
 1195 0554 040055E3 		cmp	r5, #4
  49:C:/Renesas/e2studio_2021_01_workspace_RZA2M_ANPR/ANPR_RZA2M_EBK/src/tensorflow_lite/tensorflow/lite/kernels/internal\strided_slice_logic.h ****     p->stop_indices[i + pad_count] = p->stop_indices[i];
 1196              		.loc 5 49 0
 1197 0558 0E10A0E1 		mov	r1, lr
 1198              		.loc 5 50 0
 1199 055c 525F8DE2 		add	r5, sp, #328
 1200              	.LVL136:
  48:C:/Renesas/e2studio_2021_01_workspace_RZA2M_ANPR/ANPR_RZA2M_EBK/src/tensorflow_lite/tensorflow/lite/kernels/internal\strided_slice_logic.h ****     p->start_indices[i + pad_count] = p->start_indices[i];
 1201              		.loc 5 48 0
 1202 0560 20C00EE5 		str	ip, [lr, #-32]
  49:C:/Renesas/e2studio_2021_01_workspace_RZA2M_ANPR/ANPR_RZA2M_EBK/src/tensorflow_lite/tensorflow/lite/kernels/internal\strided_slice_logic.h ****     p->stop_indices[i + pad_count] = p->stop_indices[i];
 1203              		.loc 5 49 0
 1204 0564 50000EE5 		str	r0, [lr, #-80]
 1205              		.loc 5 50 0
 1206 0568 38200EE5 		str	r2, [lr, #-56]
  47:C:/Renesas/e2studio_2021_01_workspace_RZA2M_ANPR/ANPR_RZA2M_EBK/src/tensorflow_lite/tensorflow/lite/kernels/internal\strided_slice_logic.h ****     p->strides[i + pad_count] = p->strides[i];
 1207              		.loc 5 47 0
 1208 056c 0800000A 		beq	.L32
 1209              	.LVL137:
  48:C:/Renesas/e2studio_2021_01_workspace_RZA2M_ANPR/ANPR_RZA2M_EBK/src/tensorflow_lite/tensorflow/lite/kernels/internal\strided_slice_logic.h ****     p->start_indices[i + pad_count] = p->start_indices[i];
 1210              		.loc 5 48 0
 1211 0570 28019DE5 		ldr	r0, [sp, #296]
 1212 0574 093185E0 		add	r3, r5, r9, lsl #2
  49:C:/Renesas/e2studio_2021_01_workspace_RZA2M_ANPR/ANPR_RZA2M_EBK/src/tensorflow_lite/tensorflow/lite/kernels/internal\strided_slice_logic.h ****     p->stop_indices[i + pad_count] = p->stop_indices[i];
 1213              		.loc 5 49 0
 1214 0578 F8109DE5 		ldr	r1, [sp, #248]
 1215              		.loc 5 50 0
 1216 057c 10219DE5 		ldr	r2, [sp, #272]
  48:C:/Renesas/e2studio_2021_01_workspace_RZA2M_ANPR/ANPR_RZA2M_EBK/src/tensorflow_lite/tensorflow/lite/kernels/internal\strided_slice_logic.h ****     p->start_indices[i + pad_count] = p->start_indices[i];
 1217              		.loc 5 48 0
 1218 0580 200003E5 		str	r0, [r3, #-32]
  49:C:/Renesas/e2studio_2021_01_workspace_RZA2M_ANPR/ANPR_RZA2M_EBK/src/tensorflow_lite/tensorflow/lite/kernels/internal\strided_slice_logic.h ****     p->stop_indices[i + pad_count] = p->stop_indices[i];
 1219              		.loc 5 49 0
 1220 0584 093185E0 		add	r3, r5, r9, lsl #2
 1221 0588 501003E5 		str	r1, [r3, #-80]
 1222              		.loc 5 50 0
 1223 058c 093185E0 		add	r3, r5, r9, lsl #2
 1224 0590 382003E5 		str	r2, [r3, #-56]
 1225              	.LVL138:
 1226              	.L32:
 1227              	.LBE931:
 1228              	.LBB932:
  51:C:/Renesas/e2studio_2021_01_workspace_RZA2M_ANPR/ANPR_RZA2M_EBK/src/tensorflow_lite/tensorflow/lite/kernels/internal\strided_slice_logic.h ****   }
  52:C:/Renesas/e2studio_2021_01_workspace_RZA2M_ANPR/ANPR_RZA2M_EBK/src/tensorflow_lite/tensorflow/lite/kernels/internal\strided_slice_logic.h ****   for (int i = 0; i < pad_count; ++i) {
 1229              		.loc 5 52 0
 1230 0594 000059E3 		cmp	r9, #0
 1231 0598 1500000A 		beq	.L33
 1232 059c 0921A0E1 		lsl	r2, r9, #2
 1233 05a0 0010A0E3 		mov	r1, #0
 1234 05a4 F8008DE2 		add	r0, sp, #248
 1235 05a8 FEFFFFEB 		bl	memset
 1236              	.LVL139:
 1237 05ac 010059E3 		cmp	r9, #1
  53:C:/Renesas/e2studio_2021_01_workspace_RZA2M_ANPR/ANPR_RZA2M_EBK/src/tensorflow_lite/tensorflow/lite/kernels/internal\strided_slice_logic.h ****     p->start_indices[i] = 0;
  54:C:/Renesas/e2studio_2021_01_workspace_RZA2M_ANPR/ANPR_RZA2M_EBK/src/tensorflow_lite/tensorflow/lite/kernels/internal\strided_slice_logic.h ****     p->stop_indices[i] = 1;
 1238              		.loc 5 54 0
 1239 05b0 0130A0E3 		mov	r3, #1
 1240 05b4 10318DE5 		str	r3, [sp, #272]
  55:C:/Renesas/e2studio_2021_01_workspace_RZA2M_ANPR/ANPR_RZA2M_EBK/src/tensorflow_lite/tensorflow/lite/kernels/internal\strided_slice_logic.h ****     p->strides[i] = 1;
 1241              		.loc 5 55 0
 1242 05b8 28318DE5 		str	r3, [sp, #296]
 1243              	.LVL140:
  52:C:/Renesas/e2studio_2021_01_workspace_RZA2M_ANPR/ANPR_RZA2M_EBK/src/tensorflow_lite/tensorflow/lite/kernels/internal\strided_slice_logic.h ****     p->start_indices[i] = 0;
 1244              		.loc 5 52 0
 1245 05bc 0C00000A 		beq	.L33
 1246 05c0 020059E3 		cmp	r9, #2
  54:C:/Renesas/e2studio_2021_01_workspace_RZA2M_ANPR/ANPR_RZA2M_EBK/src/tensorflow_lite/tensorflow/lite/kernels/internal\strided_slice_logic.h ****     p->strides[i] = 1;
 1247              		.loc 5 54 0
 1248 05c4 14318DE5 		str	r3, [sp, #276]
 1249              		.loc 5 55 0
 1250 05c8 2C318DE5 		str	r3, [sp, #300]
 1251              	.LVL141:
  52:C:/Renesas/e2studio_2021_01_workspace_RZA2M_ANPR/ANPR_RZA2M_EBK/src/tensorflow_lite/tensorflow/lite/kernels/internal\strided_slice_logic.h ****     p->start_indices[i] = 0;
 1252              		.loc 5 52 0
 1253 05cc 0800000A 		beq	.L33
 1254 05d0 030059E3 		cmp	r9, #3
  54:C:/Renesas/e2studio_2021_01_workspace_RZA2M_ANPR/ANPR_RZA2M_EBK/src/tensorflow_lite/tensorflow/lite/kernels/internal\strided_slice_logic.h ****     p->strides[i] = 1;
 1255              		.loc 5 54 0
 1256 05d4 18318DE5 		str	r3, [sp, #280]
 1257              		.loc 5 55 0
 1258 05d8 30318DE5 		str	r3, [sp, #304]
 1259              	.LVL142:
  52:C:/Renesas/e2studio_2021_01_workspace_RZA2M_ANPR/ANPR_RZA2M_EBK/src/tensorflow_lite/tensorflow/lite/kernels/internal\strided_slice_logic.h ****     p->start_indices[i] = 0;
 1260              		.loc 5 52 0
 1261 05dc 0400000A 		beq	.L33
 1262 05e0 040059E3 		cmp	r9, #4
  54:C:/Renesas/e2studio_2021_01_workspace_RZA2M_ANPR/ANPR_RZA2M_EBK/src/tensorflow_lite/tensorflow/lite/kernels/internal\strided_slice_logic.h ****     p->strides[i] = 1;
 1263              		.loc 5 54 0
 1264 05e4 1C318DE5 		str	r3, [sp, #284]
 1265              		.loc 5 55 0
 1266 05e8 34318DE5 		str	r3, [sp, #308]
 1267              	.LVL143:
  52:C:/Renesas/e2studio_2021_01_workspace_RZA2M_ANPR/ANPR_RZA2M_EBK/src/tensorflow_lite/tensorflow/lite/kernels/internal\strided_slice_logic.h ****     p->start_indices[i] = 0;
 1268              		.loc 5 52 0
  54:C:/Renesas/e2studio_2021_01_workspace_RZA2M_ANPR/ANPR_RZA2M_EBK/src/tensorflow_lite/tensorflow/lite/kernels/internal\strided_slice_logic.h ****     p->strides[i] = 1;
 1269              		.loc 5 54 0
 1270 05ec 20318D15 		strne	r3, [sp, #288]
 1271              		.loc 5 55 0
 1272 05f0 38318D15 		strne	r3, [sp, #312]
 1273              	.LVL144:
 1274              	.L33:
 1275              	.LBE932:
  56:C:/Renesas/e2studio_2021_01_workspace_RZA2M_ANPR/ANPR_RZA2M_EBK/src/tensorflow_lite/tensorflow/lite/kernels/internal\strided_slice_logic.h ****   }
  57:C:/Renesas/e2studio_2021_01_workspace_RZA2M_ANPR/ANPR_RZA2M_EBK/src/tensorflow_lite/tensorflow/lite/kernels/internal\strided_slice_logic.h **** 
  58:C:/Renesas/e2studio_2021_01_workspace_RZA2M_ANPR/ANPR_RZA2M_EBK/src/tensorflow_lite/tensorflow/lite/kernels/internal\strided_slice_logic.h ****   // Pad masks with 0s or 1s as required.
  59:C:/Renesas/e2studio_2021_01_workspace_RZA2M_ANPR/ANPR_RZA2M_EBK/src/tensorflow_lite/tensorflow/lite/kernels/internal\strided_slice_logic.h ****   p->shrink_axis_mask <<= pad_count;
  60:C:/Renesas/e2studio_2021_01_workspace_RZA2M_ANPR/ANPR_RZA2M_EBK/src/tensorflow_lite/tensorflow/lite/kernels/internal\strided_slice_logic.h ****   p->ellipsis_mask <<= pad_count;
  61:C:/Renesas/e2studio_2021_01_workspace_RZA2M_ANPR/ANPR_RZA2M_EBK/src/tensorflow_lite/tensorflow/lite/kernels/internal\strided_slice_logic.h ****   p->new_axis_mask <<= pad_count;
  62:C:/Renesas/e2studio_2021_01_workspace_RZA2M_ANPR/ANPR_RZA2M_EBK/src/tensorflow_lite/tensorflow/lite/kernels/internal\strided_slice_logic.h ****   p->begin_mask <<= pad_count;
  63:C:/Renesas/e2studio_2021_01_workspace_RZA2M_ANPR/ANPR_RZA2M_EBK/src/tensorflow_lite/tensorflow/lite/kernels/internal\strided_slice_logic.h ****   p->end_mask <<= pad_count;
  64:C:/Renesas/e2studio_2021_01_workspace_RZA2M_ANPR/ANPR_RZA2M_EBK/src/tensorflow_lite/tensorflow/lite/kernels/internal\strided_slice_logic.h ****   p->begin_mask |= (1 << pad_count) - 1;
 1276              		.loc 5 64 0
 1277 05f4 0030E0E3 		mvn	r3, #0
 1278              	.LBE929:
 1279              	.LBE928:
 1280              	.LBB936:
 1281              	.LBB937:
 1282              	.LBB938:
 1283              	.LBB939:
 215:C:/Renesas/e2studio_2021_01_workspace_RZA2M_ANPR/ANPR_RZA2M_EBK/src/tensorflow_lite/tensorflow/lite/kernels/internal\types.h ****     return size_ > kMaxSmallSize ? dims_pointer_[i] : dims_[i];
 1284              		.loc 4 215 0
 1285 05f8 C4209DE5 		ldr	r2, [sp, #196]
 1286              	.LBE939:
 1287              	.LBE938:
 1288              	.LBE937:
 1289              	.LBE936:
 1290              	.LBB958:
 1291              	.LBB933:
 1292              		.loc 5 64 0
 1293 05fc 1339E0E1 		mvn	r3, r3, lsl r9
  59:C:/Renesas/e2studio_2021_01_workspace_RZA2M_ANPR/ANPR_RZA2M_EBK/src/tensorflow_lite/tensorflow/lite/kernels/internal\strided_slice_logic.h ****   p->ellipsis_mask <<= pad_count;
 1294              		.loc 5 59 0
 1295 0600 1449A0E1 		lsl	r4, r4, r9
 1296              		.loc 5 64 0
 1297 0604 7330BFE6 		sxth	r3, r3
 1298              	.LBE933:
 1299              	.LBE958:
 1300              	.LBB959:
 1301              	.LBB954:
 1302              	.LBB943:
 1303              	.LBB940:
 215:C:/Renesas/e2studio_2021_01_workspace_RZA2M_ANPR/ANPR_RZA2M_EBK/src/tensorflow_lite/tensorflow/lite/kernels/internal\types.h ****     return size_ > kMaxSmallSize ? dims_pointer_[i] : dims_[i];
 1304              		.loc 4 215 0
 1305 0608 000052E3 		cmp	r2, #0
 1306 060c 0C208DE5 		str	r2, [sp, #12]
 1307              	.LBE940:
 1308              	.LBE943:
 1309              	.LBE954:
 1310              	.LBE959:
 1311              	.LBB960:
 1312              	.LBB934:
  59:C:/Renesas/e2studio_2021_01_workspace_RZA2M_ANPR/ANPR_RZA2M_EBK/src/tensorflow_lite/tensorflow/lite/kernels/internal\strided_slice_logic.h ****   p->ellipsis_mask <<= pad_count;
 1313              		.loc 5 59 0
 1314 0610 7470BFE6 		sxth	r7, r4
 1315              	.LVL145:
 1316              		.loc 5 64 0
 1317 0614 165983E1 		orr	r5, r3, r6, lsl r9
  65:C:/Renesas/e2studio_2021_01_workspace_RZA2M_ANPR/ANPR_RZA2M_EBK/src/tensorflow_lite/tensorflow/lite/kernels/internal\strided_slice_logic.h ****   p->end_mask |= (1 << pad_count) - 1;
 1318              		.loc 5 65 0
 1319 0618 183983E1 		orr	r3, r3, r8, lsl r9
  64:C:/Renesas/e2studio_2021_01_workspace_RZA2M_ANPR/ANPR_RZA2M_EBK/src/tensorflow_lite/tensorflow/lite/kernels/internal\strided_slice_logic.h ****   p->end_mask |= (1 << pad_count) - 1;
 1320              		.loc 5 64 0
 1321 061c 7550BFE6 		sxth	r5, r5
 1322              		.loc 5 65 0
 1323 0620 7360BFE6 		sxth	r6, r3
 1324              	.LVL146:
 1325              	.LBE934:
 1326              	.LBE960:
 1327              	.LBB961:
 1328              	.LBB955:
 1329              	.LBB944:
 1330              	.LBB941:
 215:C:/Renesas/e2studio_2021_01_workspace_RZA2M_ANPR/ANPR_RZA2M_EBK/src/tensorflow_lite/tensorflow/lite/kernels/internal\types.h ****     return size_ > kMaxSmallSize ? dims_pointer_[i] : dims_[i];
 1331              		.loc 4 215 0
 1332 0624 260200DA 		ble	.L1062
 216:C:/Renesas/e2studio_2021_01_workspace_RZA2M_ANPR/ANPR_RZA2M_EBK/src/tensorflow_lite/tensorflow/lite/kernels/internal\types.h ****   }
 1333              		.loc 4 216 0
 1334 0628 050052E3 		cmp	r2, #5
 1335 062c 0230A0E1 		mov	r3, r2
 1336 0630 C8309DC5 		ldrgt	r3, [sp, #200]
 1337 0634 C8C09DD5 		ldrle	ip, [sp, #200]
 1338              	.LVL147:
 1339 0638 00C093C5 		ldrgt	ip, [r3]
 1340              	.LBE941:
 1341              	.LBE944:
  66:C:/Renesas/e2studio_2021_01_workspace_RZA2M_ANPR/ANPR_RZA2M_EBK/src/tensorflow_lite/tensorflow/lite/kernels/internal\strided_slice_logic.h **** 
  67:C:/Renesas/e2studio_2021_01_workspace_RZA2M_ANPR/ANPR_RZA2M_EBK/src/tensorflow_lite/tensorflow/lite/kernels/internal\strided_slice_logic.h ****   p->start_indices_count = dim_count;
  68:C:/Renesas/e2studio_2021_01_workspace_RZA2M_ANPR/ANPR_RZA2M_EBK/src/tensorflow_lite/tensorflow/lite/kernels/internal\strided_slice_logic.h ****   p->stop_indices_count = dim_count;
  69:C:/Renesas/e2studio_2021_01_workspace_RZA2M_ANPR/ANPR_RZA2M_EBK/src/tensorflow_lite/tensorflow/lite/kernels/internal\strided_slice_logic.h ****   p->strides_count = dim_count;
  70:C:/Renesas/e2studio_2021_01_workspace_RZA2M_ANPR/ANPR_RZA2M_EBK/src/tensorflow_lite/tensorflow/lite/kernels/internal\strided_slice_logic.h **** }
  71:C:/Renesas/e2studio_2021_01_workspace_RZA2M_ANPR/ANPR_RZA2M_EBK/src/tensorflow_lite/tensorflow/lite/kernels/internal\strided_slice_logic.h **** 
  72:C:/Renesas/e2studio_2021_01_workspace_RZA2M_ANPR/ANPR_RZA2M_EBK/src/tensorflow_lite/tensorflow/lite/kernels/internal\strided_slice_logic.h **** // Return the index for the first element along that axis. This index will be a
  73:C:/Renesas/e2studio_2021_01_workspace_RZA2M_ANPR/ANPR_RZA2M_EBK/src/tensorflow_lite/tensorflow/lite/kernels/internal\strided_slice_logic.h **** // positive integer between [0, axis_size] (or [-1, axis_size -1] if stride < 0)
  74:C:/Renesas/e2studio_2021_01_workspace_RZA2M_ANPR/ANPR_RZA2M_EBK/src/tensorflow_lite/tensorflow/lite/kernels/internal\strided_slice_logic.h **** // that can be used to index directly into the data.
  75:C:/Renesas/e2studio_2021_01_workspace_RZA2M_ANPR/ANPR_RZA2M_EBK/src/tensorflow_lite/tensorflow/lite/kernels/internal\strided_slice_logic.h **** inline int StartForAxis(const tflite::StridedSliceParams& params,
  76:C:/Renesas/e2studio_2021_01_workspace_RZA2M_ANPR/ANPR_RZA2M_EBK/src/tensorflow_lite/tensorflow/lite/kernels/internal\strided_slice_logic.h ****                         const RuntimeShape& input_shape, int axis) {
  77:C:/Renesas/e2studio_2021_01_workspace_RZA2M_ANPR/ANPR_RZA2M_EBK/src/tensorflow_lite/tensorflow/lite/kernels/internal\strided_slice_logic.h ****   const auto begin_mask = params.begin_mask;
  78:C:/Renesas/e2studio_2021_01_workspace_RZA2M_ANPR/ANPR_RZA2M_EBK/src/tensorflow_lite/tensorflow/lite/kernels/internal\strided_slice_logic.h ****   const auto* start_indices = params.start_indices;
  79:C:/Renesas/e2studio_2021_01_workspace_RZA2M_ANPR/ANPR_RZA2M_EBK/src/tensorflow_lite/tensorflow/lite/kernels/internal\strided_slice_logic.h ****   const auto* strides = params.strides;
  80:C:/Renesas/e2studio_2021_01_workspace_RZA2M_ANPR/ANPR_RZA2M_EBK/src/tensorflow_lite/tensorflow/lite/kernels/internal\strided_slice_logic.h ****   const int axis_size = input_shape.Dims(axis);
  81:C:/Renesas/e2studio_2021_01_workspace_RZA2M_ANPR/ANPR_RZA2M_EBK/src/tensorflow_lite/tensorflow/lite/kernels/internal\strided_slice_logic.h ****   if (axis_size == 0) {
 1342              		.loc 5 81 0
 1343 063c 00005CE3 		cmp	ip, #0
 1344 0640 1D02000A 		beq	.L544
  82:C:/Renesas/e2studio_2021_01_workspace_RZA2M_ANPR/ANPR_RZA2M_EBK/src/tensorflow_lite/tensorflow/lite/kernels/internal\strided_slice_logic.h ****     return 0;
  83:C:/Renesas/e2studio_2021_01_workspace_RZA2M_ANPR/ANPR_RZA2M_EBK/src/tensorflow_lite/tensorflow/lite/kernels/internal\strided_slice_logic.h ****   }
  84:C:/Renesas/e2studio_2021_01_workspace_RZA2M_ANPR/ANPR_RZA2M_EBK/src/tensorflow_lite/tensorflow/lite/kernels/internal\strided_slice_logic.h ****   // Begin with the specified index.
  85:C:/Renesas/e2studio_2021_01_workspace_RZA2M_ANPR/ANPR_RZA2M_EBK/src/tensorflow_lite/tensorflow/lite/kernels/internal\strided_slice_logic.h ****   int start = start_indices[axis];
  86:C:/Renesas/e2studio_2021_01_workspace_RZA2M_ANPR/ANPR_RZA2M_EBK/src/tensorflow_lite/tensorflow/lite/kernels/internal\strided_slice_logic.h **** 
  87:C:/Renesas/e2studio_2021_01_workspace_RZA2M_ANPR/ANPR_RZA2M_EBK/src/tensorflow_lite/tensorflow/lite/kernels/internal\strided_slice_logic.h ****   // begin_mask override
  88:C:/Renesas/e2studio_2021_01_workspace_RZA2M_ANPR/ANPR_RZA2M_EBK/src/tensorflow_lite/tensorflow/lite/kernels/internal\strided_slice_logic.h ****   if (begin_mask & 1 << axis) {
 1345              		.loc 5 88 0
 1346 0644 010015E3 		tst	r5, #1
  89:C:/Renesas/e2studio_2021_01_workspace_RZA2M_ANPR/ANPR_RZA2M_EBK/src/tensorflow_lite/tensorflow/lite/kernels/internal\strided_slice_logic.h ****     if (strides[axis] > 0) {
 1347              		.loc 5 89 0
 1348 0648 28219DE5 		ldr	r2, [sp, #296]
  85:C:/Renesas/e2studio_2021_01_workspace_RZA2M_ANPR/ANPR_RZA2M_EBK/src/tensorflow_lite/tensorflow/lite/kernels/internal\strided_slice_logic.h **** 
 1349              		.loc 5 85 0
 1350 064c F8309DE5 		ldr	r3, [sp, #248]
 1351              	.LVL148:
  88:C:/Renesas/e2studio_2021_01_workspace_RZA2M_ANPR/ANPR_RZA2M_EBK/src/tensorflow_lite/tensorflow/lite/kernels/internal\strided_slice_logic.h ****     if (strides[axis] > 0) {
 1352              		.loc 5 88 0
 1353 0650 1602000A 		beq	.L37
 1354              		.loc 5 89 0
 1355 0654 000052E3 		cmp	r2, #0
  90:C:/Renesas/e2studio_2021_01_workspace_RZA2M_ANPR/ANPR_RZA2M_EBK/src/tensorflow_lite/tensorflow/lite/kernels/internal\strided_slice_logic.h ****       // Forward iteration - use the first element. These values will get
  91:C:/Renesas/e2studio_2021_01_workspace_RZA2M_ANPR/ANPR_RZA2M_EBK/src/tensorflow_lite/tensorflow/lite/kernels/internal\strided_slice_logic.h ****       // clamped below (Note: We could have set them to 0 and axis_size-1, but
  92:C:/Renesas/e2studio_2021_01_workspace_RZA2M_ANPR/ANPR_RZA2M_EBK/src/tensorflow_lite/tensorflow/lite/kernels/internal\strided_slice_logic.h ****       // use lowest() and max() to maintain symmetry with StopForAxis())
  93:C:/Renesas/e2studio_2021_01_workspace_RZA2M_ANPR/ANPR_RZA2M_EBK/src/tensorflow_lite/tensorflow/lite/kernels/internal\strided_slice_logic.h ****       start = std::numeric_limits<int>::lowest();
 1356              		.loc 5 93 0
 1357 0658 0231A0C3 		movgt	r3, #-2147483648
 1358              	.LVL149:
  89:C:/Renesas/e2studio_2021_01_workspace_RZA2M_ANPR/ANPR_RZA2M_EBK/src/tensorflow_lite/tensorflow/lite/kernels/internal\strided_slice_logic.h ****       // Forward iteration - use the first element. These values will get
 1359              		.loc 5 89 0
 1360 065c 0F0200DA 		ble	.L1063
 1361              	.L38:
 1362              	.LVL150:
  94:C:/Renesas/e2studio_2021_01_workspace_RZA2M_ANPR/ANPR_RZA2M_EBK/src/tensorflow_lite/tensorflow/lite/kernels/internal\strided_slice_logic.h ****     } else {
  95:C:/Renesas/e2studio_2021_01_workspace_RZA2M_ANPR/ANPR_RZA2M_EBK/src/tensorflow_lite/tensorflow/lite/kernels/internal\strided_slice_logic.h ****       // Backward iteration - use the last element.
  96:C:/Renesas/e2studio_2021_01_workspace_RZA2M_ANPR/ANPR_RZA2M_EBK/src/tensorflow_lite/tensorflow/lite/kernels/internal\strided_slice_logic.h ****       start = std::numeric_limits<int>::max();
  97:C:/Renesas/e2studio_2021_01_workspace_RZA2M_ANPR/ANPR_RZA2M_EBK/src/tensorflow_lite/tensorflow/lite/kernels/internal\strided_slice_logic.h ****     }
  98:C:/Renesas/e2studio_2021_01_workspace_RZA2M_ANPR/ANPR_RZA2M_EBK/src/tensorflow_lite/tensorflow/lite/kernels/internal\strided_slice_logic.h ****   }
  99:C:/Renesas/e2studio_2021_01_workspace_RZA2M_ANPR/ANPR_RZA2M_EBK/src/tensorflow_lite/tensorflow/lite/kernels/internal\strided_slice_logic.h **** 
 100:C:/Renesas/e2studio_2021_01_workspace_RZA2M_ANPR/ANPR_RZA2M_EBK/src/tensorflow_lite/tensorflow/lite/kernels/internal\strided_slice_logic.h ****   // Handle negative indices
 101:C:/Renesas/e2studio_2021_01_workspace_RZA2M_ANPR/ANPR_RZA2M_EBK/src/tensorflow_lite/tensorflow/lite/kernels/internal\strided_slice_logic.h ****   if (start < 0) {
 102:C:/Renesas/e2studio_2021_01_workspace_RZA2M_ANPR/ANPR_RZA2M_EBK/src/tensorflow_lite/tensorflow/lite/kernels/internal\strided_slice_logic.h ****     start += axis_size;
 1363              		.loc 5 102 0
 1364 0660 0C3083E0 		add	r3, r3, ip
 1365              	.LVL151:
 1366              	.L41:
 103:C:/Renesas/e2studio_2021_01_workspace_RZA2M_ANPR/ANPR_RZA2M_EBK/src/tensorflow_lite/tensorflow/lite/kernels/internal\strided_slice_logic.h ****   }
 104:C:/Renesas/e2studio_2021_01_workspace_RZA2M_ANPR/ANPR_RZA2M_EBK/src/tensorflow_lite/tensorflow/lite/kernels/internal\strided_slice_logic.h **** 
 105:C:/Renesas/e2studio_2021_01_workspace_RZA2M_ANPR/ANPR_RZA2M_EBK/src/tensorflow_lite/tensorflow/lite/kernels/internal\strided_slice_logic.h ****   // Clamping
 106:C:/Renesas/e2studio_2021_01_workspace_RZA2M_ANPR/ANPR_RZA2M_EBK/src/tensorflow_lite/tensorflow/lite/kernels/internal\strided_slice_logic.h ****   if (strides[axis] > 0) {
 1367              		.loc 5 106 0
 1368 0664 000052E3 		cmp	r2, #0
 1369 0668 060200DA 		ble	.L42
 1370              	.LVL152:
 1371              	.LBB945:
 1372              	.LBB946:
  30:C:/Renesas/e2studio_2021_01_workspace_RZA2M_ANPR/ANPR_RZA2M_EBK/src/tensorflow_lite/tensorflow/lite/kernels/internal\strided_slice_logic.h ****   if (hi < v) return hi;
 1373              		.loc 5 30 0
 1374 066c 00005CE3 		cmp	ip, #0
 1375 0670 020200BA 		blt	.L1064
  31:C:/Renesas/e2studio_2021_01_workspace_RZA2M_ANPR/ANPR_RZA2M_EBK/src/tensorflow_lite/tensorflow/lite/kernels/internal\strided_slice_logic.h ****   if (v < lo) return lo;
 1376              		.loc 5 31 0
 1377 0674 0C0053E1 		cmp	r3, ip
 1378 0678 0C10A0C1 		movgt	r1, ip
 1379 067c C31FC3D1 		bicle	r1, r3, r3, asr #31
 1380              	.LVL153:
 1381              	.L44:
 1382              	.LBE946:
 1383              	.LBE945:
 1384              	.LBE955:
 1385              	.LBE961:
 1386              	.LBB962:
 1387              	.LBB963:
 107:C:/Renesas/e2studio_2021_01_workspace_RZA2M_ANPR/ANPR_RZA2M_EBK/src/tensorflow_lite/tensorflow/lite/kernels/internal\strided_slice_logic.h ****     // Forward iteration
 108:C:/Renesas/e2studio_2021_01_workspace_RZA2M_ANPR/ANPR_RZA2M_EBK/src/tensorflow_lite/tensorflow/lite/kernels/internal\strided_slice_logic.h ****     start = Clamp(start, 0, axis_size);
 109:C:/Renesas/e2studio_2021_01_workspace_RZA2M_ANPR/ANPR_RZA2M_EBK/src/tensorflow_lite/tensorflow/lite/kernels/internal\strided_slice_logic.h ****   } else {
 110:C:/Renesas/e2studio_2021_01_workspace_RZA2M_ANPR/ANPR_RZA2M_EBK/src/tensorflow_lite/tensorflow/lite/kernels/internal\strided_slice_logic.h ****     // Backward iteration
 111:C:/Renesas/e2studio_2021_01_workspace_RZA2M_ANPR/ANPR_RZA2M_EBK/src/tensorflow_lite/tensorflow/lite/kernels/internal\strided_slice_logic.h ****     start = Clamp(start, -1, axis_size - 1);
 112:C:/Renesas/e2studio_2021_01_workspace_RZA2M_ANPR/ANPR_RZA2M_EBK/src/tensorflow_lite/tensorflow/lite/kernels/internal\strided_slice_logic.h ****   }
 113:C:/Renesas/e2studio_2021_01_workspace_RZA2M_ANPR/ANPR_RZA2M_EBK/src/tensorflow_lite/tensorflow/lite/kernels/internal\strided_slice_logic.h **** 
 114:C:/Renesas/e2studio_2021_01_workspace_RZA2M_ANPR/ANPR_RZA2M_EBK/src/tensorflow_lite/tensorflow/lite/kernels/internal\strided_slice_logic.h ****   return start;
 115:C:/Renesas/e2studio_2021_01_workspace_RZA2M_ANPR/ANPR_RZA2M_EBK/src/tensorflow_lite/tensorflow/lite/kernels/internal\strided_slice_logic.h **** }
 116:C:/Renesas/e2studio_2021_01_workspace_RZA2M_ANPR/ANPR_RZA2M_EBK/src/tensorflow_lite/tensorflow/lite/kernels/internal\strided_slice_logic.h **** 
 117:C:/Renesas/e2studio_2021_01_workspace_RZA2M_ANPR/ANPR_RZA2M_EBK/src/tensorflow_lite/tensorflow/lite/kernels/internal\strided_slice_logic.h **** // Return the "real" index for the end of iteration along that axis. This is an
 118:C:/Renesas/e2studio_2021_01_workspace_RZA2M_ANPR/ANPR_RZA2M_EBK/src/tensorflow_lite/tensorflow/lite/kernels/internal\strided_slice_logic.h **** // "end" in the traditional C sense, in that it points to one past the last
 119:C:/Renesas/e2studio_2021_01_workspace_RZA2M_ANPR/ANPR_RZA2M_EBK/src/tensorflow_lite/tensorflow/lite/kernels/internal\strided_slice_logic.h **** // element. ie. So if you were iterating through all elements of a 1D array of
 120:C:/Renesas/e2studio_2021_01_workspace_RZA2M_ANPR/ANPR_RZA2M_EBK/src/tensorflow_lite/tensorflow/lite/kernels/internal\strided_slice_logic.h **** // size 4, this function would return 4 as the stop, because it is one past the
 121:C:/Renesas/e2studio_2021_01_workspace_RZA2M_ANPR/ANPR_RZA2M_EBK/src/tensorflow_lite/tensorflow/lite/kernels/internal\strided_slice_logic.h **** // "real" indices of 0, 1, 2 & 3.
 122:C:/Renesas/e2studio_2021_01_workspace_RZA2M_ANPR/ANPR_RZA2M_EBK/src/tensorflow_lite/tensorflow/lite/kernels/internal\strided_slice_logic.h **** inline int StopForAxis(const tflite::StridedSliceParams& params,
 123:C:/Renesas/e2studio_2021_01_workspace_RZA2M_ANPR/ANPR_RZA2M_EBK/src/tensorflow_lite/tensorflow/lite/kernels/internal\strided_slice_logic.h ****                        const RuntimeShape& input_shape, int axis,
 124:C:/Renesas/e2studio_2021_01_workspace_RZA2M_ANPR/ANPR_RZA2M_EBK/src/tensorflow_lite/tensorflow/lite/kernels/internal\strided_slice_logic.h ****                        int start_for_axis) {
 125:C:/Renesas/e2studio_2021_01_workspace_RZA2M_ANPR/ANPR_RZA2M_EBK/src/tensorflow_lite/tensorflow/lite/kernels/internal\strided_slice_logic.h ****   const auto end_mask = params.end_mask;
 126:C:/Renesas/e2studio_2021_01_workspace_RZA2M_ANPR/ANPR_RZA2M_EBK/src/tensorflow_lite/tensorflow/lite/kernels/internal\strided_slice_logic.h ****   const auto shrink_axis_mask = params.shrink_axis_mask;
 127:C:/Renesas/e2studio_2021_01_workspace_RZA2M_ANPR/ANPR_RZA2M_EBK/src/tensorflow_lite/tensorflow/lite/kernels/internal\strided_slice_logic.h ****   const auto* stop_indices = params.stop_indices;
 128:C:/Renesas/e2studio_2021_01_workspace_RZA2M_ANPR/ANPR_RZA2M_EBK/src/tensorflow_lite/tensorflow/lite/kernels/internal\strided_slice_logic.h ****   const auto* strides = params.strides;
 129:C:/Renesas/e2studio_2021_01_workspace_RZA2M_ANPR/ANPR_RZA2M_EBK/src/tensorflow_lite/tensorflow/lite/kernels/internal\strided_slice_logic.h ****   const int axis_size = input_shape.Dims(axis);
 130:C:/Renesas/e2studio_2021_01_workspace_RZA2M_ANPR/ANPR_RZA2M_EBK/src/tensorflow_lite/tensorflow/lite/kernels/internal\strided_slice_logic.h ****   if (axis_size == 0) {
 131:C:/Renesas/e2studio_2021_01_workspace_RZA2M_ANPR/ANPR_RZA2M_EBK/src/tensorflow_lite/tensorflow/lite/kernels/internal\strided_slice_logic.h ****     return 0;
 132:C:/Renesas/e2studio_2021_01_workspace_RZA2M_ANPR/ANPR_RZA2M_EBK/src/tensorflow_lite/tensorflow/lite/kernels/internal\strided_slice_logic.h ****   }
 133:C:/Renesas/e2studio_2021_01_workspace_RZA2M_ANPR/ANPR_RZA2M_EBK/src/tensorflow_lite/tensorflow/lite/kernels/internal\strided_slice_logic.h **** 
 134:C:/Renesas/e2studio_2021_01_workspace_RZA2M_ANPR/ANPR_RZA2M_EBK/src/tensorflow_lite/tensorflow/lite/kernels/internal\strided_slice_logic.h ****   // Begin with the specified index
 135:C:/Renesas/e2studio_2021_01_workspace_RZA2M_ANPR/ANPR_RZA2M_EBK/src/tensorflow_lite/tensorflow/lite/kernels/internal\strided_slice_logic.h ****   const bool shrink_axis = shrink_axis_mask & (1 << axis);
 136:C:/Renesas/e2studio_2021_01_workspace_RZA2M_ANPR/ANPR_RZA2M_EBK/src/tensorflow_lite/tensorflow/lite/kernels/internal\strided_slice_logic.h ****   int stop = stop_indices[axis];
 137:C:/Renesas/e2studio_2021_01_workspace_RZA2M_ANPR/ANPR_RZA2M_EBK/src/tensorflow_lite/tensorflow/lite/kernels/internal\strided_slice_logic.h **** 
 138:C:/Renesas/e2studio_2021_01_workspace_RZA2M_ANPR/ANPR_RZA2M_EBK/src/tensorflow_lite/tensorflow/lite/kernels/internal\strided_slice_logic.h ****   // When shrinking an axis, the end position does not matter (and can be
 139:C:/Renesas/e2studio_2021_01_workspace_RZA2M_ANPR/ANPR_RZA2M_EBK/src/tensorflow_lite/tensorflow/lite/kernels/internal\strided_slice_logic.h ****   // incorrect when negative indexing is used, see Issue #19260). Always use
 140:C:/Renesas/e2studio_2021_01_workspace_RZA2M_ANPR/ANPR_RZA2M_EBK/src/tensorflow_lite/tensorflow/lite/kernels/internal\strided_slice_logic.h ****   // start_for_axis + 1 to generate a length 1 slice, since start_for_axis has
 141:C:/Renesas/e2studio_2021_01_workspace_RZA2M_ANPR/ANPR_RZA2M_EBK/src/tensorflow_lite/tensorflow/lite/kernels/internal\strided_slice_logic.h ****   // already been adjusted for negative indices.
 142:C:/Renesas/e2studio_2021_01_workspace_RZA2M_ANPR/ANPR_RZA2M_EBK/src/tensorflow_lite/tensorflow/lite/kernels/internal\strided_slice_logic.h ****   if (shrink_axis) {
 1388              		.loc 5 142 0
 1389 0680 010017E3 		tst	r7, #1
 136:C:/Renesas/e2studio_2021_01_workspace_RZA2M_ANPR/ANPR_RZA2M_EBK/src/tensorflow_lite/tensorflow/lite/kernels/internal\strided_slice_logic.h **** 
 1390              		.loc 5 136 0
 1391 0684 10319DE5 		ldr	r3, [sp, #272]
 1392              	.LVL154:
 1393              		.loc 5 142 0
 1394 0688 FA01001A 		bne	.L1065
 143:C:/Renesas/e2studio_2021_01_workspace_RZA2M_ANPR/ANPR_RZA2M_EBK/src/tensorflow_lite/tensorflow/lite/kernels/internal\strided_slice_logic.h ****     return start_for_axis + 1;
 144:C:/Renesas/e2studio_2021_01_workspace_RZA2M_ANPR/ANPR_RZA2M_EBK/src/tensorflow_lite/tensorflow/lite/kernels/internal\strided_slice_logic.h ****   }
 145:C:/Renesas/e2studio_2021_01_workspace_RZA2M_ANPR/ANPR_RZA2M_EBK/src/tensorflow_lite/tensorflow/lite/kernels/internal\strided_slice_logic.h **** 
 146:C:/Renesas/e2studio_2021_01_workspace_RZA2M_ANPR/ANPR_RZA2M_EBK/src/tensorflow_lite/tensorflow/lite/kernels/internal\strided_slice_logic.h ****   // end_mask override
 147:C:/Renesas/e2studio_2021_01_workspace_RZA2M_ANPR/ANPR_RZA2M_EBK/src/tensorflow_lite/tensorflow/lite/kernels/internal\strided_slice_logic.h ****   if (end_mask & (1 << axis)) {
 1395              		.loc 5 147 0
 1396 068c 010016E3 		tst	r6, #1
 1397 0690 ED01000A 		beq	.L46
 148:C:/Renesas/e2studio_2021_01_workspace_RZA2M_ANPR/ANPR_RZA2M_EBK/src/tensorflow_lite/tensorflow/lite/kernels/internal\strided_slice_logic.h ****     if (strides[axis] > 0) {
 1398              		.loc 5 148 0
 1399 0694 000052E3 		cmp	r2, #0
 149:C:/Renesas/e2studio_2021_01_workspace_RZA2M_ANPR/ANPR_RZA2M_EBK/src/tensorflow_lite/tensorflow/lite/kernels/internal\strided_slice_logic.h ****       // Forward iteration - use the last element. These values will get
 150:C:/Renesas/e2studio_2021_01_workspace_RZA2M_ANPR/ANPR_RZA2M_EBK/src/tensorflow_lite/tensorflow/lite/kernels/internal\strided_slice_logic.h ****       // clamped below
 151:C:/Renesas/e2studio_2021_01_workspace_RZA2M_ANPR/ANPR_RZA2M_EBK/src/tensorflow_lite/tensorflow/lite/kernels/internal\strided_slice_logic.h ****       stop = std::numeric_limits<int>::max();
 152:C:/Renesas/e2studio_2021_01_workspace_RZA2M_ANPR/ANPR_RZA2M_EBK/src/tensorflow_lite/tensorflow/lite/kernels/internal\strided_slice_logic.h ****     } else {
 153:C:/Renesas/e2studio_2021_01_workspace_RZA2M_ANPR/ANPR_RZA2M_EBK/src/tensorflow_lite/tensorflow/lite/kernels/internal\strided_slice_logic.h ****       // Backward iteration - use the first element.
 154:C:/Renesas/e2studio_2021_01_workspace_RZA2M_ANPR/ANPR_RZA2M_EBK/src/tensorflow_lite/tensorflow/lite/kernels/internal\strided_slice_logic.h ****       stop = std::numeric_limits<int>::lowest();
 1400              		.loc 5 154 0
 1401 0698 0231A0D3 		movle	r3, #-2147483648
 1402              	.LVL155:
 148:C:/Renesas/e2studio_2021_01_workspace_RZA2M_ANPR/ANPR_RZA2M_EBK/src/tensorflow_lite/tensorflow/lite/kernels/internal\strided_slice_logic.h ****     if (strides[axis] > 0) {
 1403              		.loc 5 148 0
 1404 069c EC0100DA 		ble	.L48
 151:C:/Renesas/e2studio_2021_01_workspace_RZA2M_ANPR/ANPR_RZA2M_EBK/src/tensorflow_lite/tensorflow/lite/kernels/internal\strided_slice_logic.h ****     } else {
 1405              		.loc 5 151 0
 1406 06a0 0231E0E3 		mvn	r3, #-2147483648
 1407              	.LVL156:
 1408              	.L47:
 1409              	.LBB964:
 1410              	.LBB965:
  30:C:/Renesas/e2studio_2021_01_workspace_RZA2M_ANPR/ANPR_RZA2M_EBK/src/tensorflow_lite/tensorflow/lite/kernels/internal\strided_slice_logic.h ****   if (hi < v) return hi;
 1411              		.loc 5 30 0
 1412 06a4 00005CE3 		cmp	ip, #0
 1413 06a8 E60100BA 		blt	.L1066
  31:C:/Renesas/e2studio_2021_01_workspace_RZA2M_ANPR/ANPR_RZA2M_EBK/src/tensorflow_lite/tensorflow/lite/kernels/internal\strided_slice_logic.h ****   if (v < lo) return lo;
 1414              		.loc 5 31 0
 1415 06ac 03005CE1 		cmp	ip, r3
 1416 06b0 C3CFC3A1 		bicge	ip, r3, r3, asr #31
 1417              	.LVL157:
 1418              	.L36:
 1419              	.LBE965:
 1420              	.LBE964:
 1421              	.LBE963:
 1422              	.LBE962:
 1423              	.LBB974:
 1424              	.LBB975:
 1425              	.LBB976:
 1426              	.LBB977:
 215:C:/Renesas/e2studio_2021_01_workspace_RZA2M_ANPR/ANPR_RZA2M_EBK/src/tensorflow_lite/tensorflow/lite/kernels/internal\types.h ****     return size_ > kMaxSmallSize ? dims_pointer_[i] : dims_[i];
 1427              		.loc 4 215 0
 1428 06b4 0C309DE5 		ldr	r3, [sp, #12]
 1429 06b8 010053E3 		cmp	r3, #1
 1430 06bc E001000A 		beq	.L1067
 216:C:/Renesas/e2studio_2021_01_workspace_RZA2M_ANPR/ANPR_RZA2M_EBK/src/tensorflow_lite/tensorflow/lite/kernels/internal\types.h ****   }
 1431              		.loc 4 216 0
 1432 06c0 050053E3 		cmp	r3, #5
 1433 06c4 C8309DC5 		ldrgt	r3, [sp, #200]
 1434 06c8 CC209DD5 		ldrle	r2, [sp, #204]
 1435              	.LVL158:
 1436 06cc 042093C5 		ldrgt	r2, [r3, #4]
 1437              	.LBE977:
 1438              	.LBE976:
  81:C:/Renesas/e2studio_2021_01_workspace_RZA2M_ANPR/ANPR_RZA2M_EBK/src/tensorflow_lite/tensorflow/lite/kernels/internal\strided_slice_logic.h ****     return 0;
 1439              		.loc 5 81 0
 1440 06d0 000052E3 		cmp	r2, #0
 1441 06d4 D701000A 		beq	.L549
  88:C:/Renesas/e2studio_2021_01_workspace_RZA2M_ANPR/ANPR_RZA2M_EBK/src/tensorflow_lite/tensorflow/lite/kernels/internal\strided_slice_logic.h ****     if (strides[axis] > 0) {
 1442              		.loc 5 88 0
 1443 06d8 020015E3 		tst	r5, #2
  89:C:/Renesas/e2studio_2021_01_workspace_RZA2M_ANPR/ANPR_RZA2M_EBK/src/tensorflow_lite/tensorflow/lite/kernels/internal\strided_slice_logic.h ****       // Forward iteration - use the first element. These values will get
 1444              		.loc 5 89 0
 1445 06dc 2C019DE5 		ldr	r0, [sp, #300]
  85:C:/Renesas/e2studio_2021_01_workspace_RZA2M_ANPR/ANPR_RZA2M_EBK/src/tensorflow_lite/tensorflow/lite/kernels/internal\strided_slice_logic.h **** 
 1446              		.loc 5 85 0
 1447 06e0 FC309DE5 		ldr	r3, [sp, #252]
 1448              	.LVL159:
  88:C:/Renesas/e2studio_2021_01_workspace_RZA2M_ANPR/ANPR_RZA2M_EBK/src/tensorflow_lite/tensorflow/lite/kernels/internal\strided_slice_logic.h ****     if (strides[axis] > 0) {
 1449              		.loc 5 88 0
 1450 06e4 D001000A 		beq	.L57
  89:C:/Renesas/e2studio_2021_01_workspace_RZA2M_ANPR/ANPR_RZA2M_EBK/src/tensorflow_lite/tensorflow/lite/kernels/internal\strided_slice_logic.h ****       // Forward iteration - use the first element. These values will get
 1451              		.loc 5 89 0
 1452 06e8 000050E3 		cmp	r0, #0
  93:C:/Renesas/e2studio_2021_01_workspace_RZA2M_ANPR/ANPR_RZA2M_EBK/src/tensorflow_lite/tensorflow/lite/kernels/internal\strided_slice_logic.h ****     } else {
 1453              		.loc 5 93 0
 1454 06ec 0231A0C3 		movgt	r3, #-2147483648
 1455              	.LVL160:
  89:C:/Renesas/e2studio_2021_01_workspace_RZA2M_ANPR/ANPR_RZA2M_EBK/src/tensorflow_lite/tensorflow/lite/kernels/internal\strided_slice_logic.h ****       // Forward iteration - use the first element. These values will get
 1456              		.loc 5 89 0
 1457 06f0 C60100DA 		ble	.L1068
 1458              	.L58:
 1459              	.LVL161:
 102:C:/Renesas/e2studio_2021_01_workspace_RZA2M_ANPR/ANPR_RZA2M_EBK/src/tensorflow_lite/tensorflow/lite/kernels/internal\strided_slice_logic.h ****   }
 1460              		.loc 5 102 0
 1461 06f4 023083E0 		add	r3, r3, r2
 1462              	.LVL162:
 1463              	.L61:
 106:C:/Renesas/e2studio_2021_01_workspace_RZA2M_ANPR/ANPR_RZA2M_EBK/src/tensorflow_lite/tensorflow/lite/kernels/internal\strided_slice_logic.h ****     // Forward iteration
 1464              		.loc 5 106 0
 1465 06f8 000050E3 		cmp	r0, #0
 1466 06fc BB0100DA 		ble	.L62
 1467              	.LVL163:
 1468              	.LBB979:
 1469              	.LBB980:
  30:C:/Renesas/e2studio_2021_01_workspace_RZA2M_ANPR/ANPR_RZA2M_EBK/src/tensorflow_lite/tensorflow/lite/kernels/internal\strided_slice_logic.h ****   if (hi < v) return hi;
 1470              		.loc 5 30 0
 1471 0700 000052E3 		cmp	r2, #0
 1472 0704 C60100BA 		blt	.L1069
  31:C:/Renesas/e2studio_2021_01_workspace_RZA2M_ANPR/ANPR_RZA2M_EBK/src/tensorflow_lite/tensorflow/lite/kernels/internal\strided_slice_logic.h ****   if (v < lo) return lo;
 1473              		.loc 5 31 0
 1474 0708 020053E1 		cmp	r3, r2
 1475 070c 2C208DC5 		strgt	r2, [sp, #44]
 1476 0710 C33FC3D1 		bicle	r3, r3, r3, asr #31
 1477              	.LVL164:
 1478 0714 2C308DD5 		strle	r3, [sp, #44]
 1479              	.LVL165:
 1480              	.L64:
 1481              	.LBE980:
 1482              	.LBE979:
 1483              	.LBE975:
 1484              	.LBE974:
 1485              	.LBB995:
 1486              	.LBB996:
 142:C:/Renesas/e2studio_2021_01_workspace_RZA2M_ANPR/ANPR_RZA2M_EBK/src/tensorflow_lite/tensorflow/lite/kernels/internal\strided_slice_logic.h ****     return start_for_axis + 1;
 1487              		.loc 5 142 0
 1488 0718 020017E3 		tst	r7, #2
 136:C:/Renesas/e2studio_2021_01_workspace_RZA2M_ANPR/ANPR_RZA2M_EBK/src/tensorflow_lite/tensorflow/lite/kernels/internal\strided_slice_logic.h **** 
 1489              		.loc 5 136 0
 1490 071c 14319DE5 		ldr	r3, [sp, #276]
 1491              	.LVL166:
 142:C:/Renesas/e2studio_2021_01_workspace_RZA2M_ANPR/ANPR_RZA2M_EBK/src/tensorflow_lite/tensorflow/lite/kernels/internal\strided_slice_logic.h ****     return start_for_axis + 1;
 1492              		.loc 5 142 0
 1493 0720 AF01001A 		bne	.L1070
 147:C:/Renesas/e2studio_2021_01_workspace_RZA2M_ANPR/ANPR_RZA2M_EBK/src/tensorflow_lite/tensorflow/lite/kernels/internal\strided_slice_logic.h ****     if (strides[axis] > 0) {
 1494              		.loc 5 147 0
 1495 0724 020016E3 		tst	r6, #2
 1496 0728 A201000A 		beq	.L66
 148:C:/Renesas/e2studio_2021_01_workspace_RZA2M_ANPR/ANPR_RZA2M_EBK/src/tensorflow_lite/tensorflow/lite/kernels/internal\strided_slice_logic.h ****       // Forward iteration - use the last element. These values will get
 1497              		.loc 5 148 0
 1498 072c 000050E3 		cmp	r0, #0
 1499              		.loc 5 154 0
 1500 0730 0231A0D3 		movle	r3, #-2147483648
 1501              	.LVL167:
 148:C:/Renesas/e2studio_2021_01_workspace_RZA2M_ANPR/ANPR_RZA2M_EBK/src/tensorflow_lite/tensorflow/lite/kernels/internal\strided_slice_logic.h ****       // Forward iteration - use the last element. These values will get
 1502              		.loc 5 148 0
 1503 0734 A10100DA 		ble	.L68
 151:C:/Renesas/e2studio_2021_01_workspace_RZA2M_ANPR/ANPR_RZA2M_EBK/src/tensorflow_lite/tensorflow/lite/kernels/internal\strided_slice_logic.h ****     } else {
 1504              		.loc 5 151 0
 1505 0738 0231E0E3 		mvn	r3, #-2147483648
 1506              	.LVL168:
 1507              	.L67:
 1508              	.LBB997:
 1509              	.LBB998:
  30:C:/Renesas/e2studio_2021_01_workspace_RZA2M_ANPR/ANPR_RZA2M_EBK/src/tensorflow_lite/tensorflow/lite/kernels/internal\strided_slice_logic.h ****   if (hi < v) return hi;
 1510              		.loc 5 30 0
 1511 073c 000052E3 		cmp	r2, #0
 1512 0740 9B0100BA 		blt	.L1071
  31:C:/Renesas/e2studio_2021_01_workspace_RZA2M_ANPR/ANPR_RZA2M_EBK/src/tensorflow_lite/tensorflow/lite/kernels/internal\strided_slice_logic.h ****   if (v < lo) return lo;
 1513              		.loc 5 31 0
 1514 0744 030052E1 		cmp	r2, r3
 1515 0748 02E0A0B1 		movlt	lr, r2
 1516 074c C3EFC3A1 		bicge	lr, r3, r3, asr #31
 1517              	.LVL169:
 1518              	.L56:
 1519              	.LBE998:
 1520              	.LBE997:
 1521              	.LBE996:
 1522              	.LBE995:
 1523              	.LBB1008:
 1524              	.LBB1009:
 1525              	.LBB1010:
 1526              	.LBB1011:
 215:C:/Renesas/e2studio_2021_01_workspace_RZA2M_ANPR/ANPR_RZA2M_EBK/src/tensorflow_lite/tensorflow/lite/kernels/internal\types.h ****     return size_ > kMaxSmallSize ? dims_pointer_[i] : dims_[i];
 1527              		.loc 4 215 0
 1528 0750 0C309DE5 		ldr	r3, [sp, #12]
 1529 0754 020053E3 		cmp	r3, #2
 1530 0758 9401000A 		beq	.L1072
 216:C:/Renesas/e2studio_2021_01_workspace_RZA2M_ANPR/ANPR_RZA2M_EBK/src/tensorflow_lite/tensorflow/lite/kernels/internal\types.h ****   }
 1531              		.loc 4 216 0
 1532 075c 050053E3 		cmp	r3, #5
 1533 0760 C8309DC5 		ldrgt	r3, [sp, #200]
 1534 0764 D0309DD5 		ldrle	r3, [sp, #208]
 1535              	.LVL170:
 1536 0768 083093C5 		ldrgt	r3, [r3, #8]
 1537              	.LBE1011:
 1538              	.LBE1010:
  81:C:/Renesas/e2studio_2021_01_workspace_RZA2M_ANPR/ANPR_RZA2M_EBK/src/tensorflow_lite/tensorflow/lite/kernels/internal\strided_slice_logic.h ****     return 0;
 1539              		.loc 5 81 0
 1540 076c 000053E3 		cmp	r3, #0
 1541 0770 F004000A 		beq	.L554
  88:C:/Renesas/e2studio_2021_01_workspace_RZA2M_ANPR/ANPR_RZA2M_EBK/src/tensorflow_lite/tensorflow/lite/kernels/internal\strided_slice_logic.h ****     if (strides[axis] > 0) {
 1542              		.loc 5 88 0
 1543 0774 040015E3 		tst	r5, #4
  89:C:/Renesas/e2studio_2021_01_workspace_RZA2M_ANPR/ANPR_RZA2M_EBK/src/tensorflow_lite/tensorflow/lite/kernels/internal\strided_slice_logic.h ****       // Forward iteration - use the first element. These values will get
 1544              		.loc 5 89 0
 1545 0778 30419DE5 		ldr	r4, [sp, #304]
  85:C:/Renesas/e2studio_2021_01_workspace_RZA2M_ANPR/ANPR_RZA2M_EBK/src/tensorflow_lite/tensorflow/lite/kernels/internal\strided_slice_logic.h **** 
 1546              		.loc 5 85 0
 1547 077c 00019DE5 		ldr	r0, [sp, #256]
 1548              	.LVL171:
  88:C:/Renesas/e2studio_2021_01_workspace_RZA2M_ANPR/ANPR_RZA2M_EBK/src/tensorflow_lite/tensorflow/lite/kernels/internal\strided_slice_logic.h ****     if (strides[axis] > 0) {
 1549              		.loc 5 88 0
 1550 0780 E904000A 		beq	.L77
  89:C:/Renesas/e2studio_2021_01_workspace_RZA2M_ANPR/ANPR_RZA2M_EBK/src/tensorflow_lite/tensorflow/lite/kernels/internal\strided_slice_logic.h ****       // Forward iteration - use the first element. These values will get
 1551              		.loc 5 89 0
 1552 0784 000054E3 		cmp	r4, #0
  93:C:/Renesas/e2studio_2021_01_workspace_RZA2M_ANPR/ANPR_RZA2M_EBK/src/tensorflow_lite/tensorflow/lite/kernels/internal\strided_slice_logic.h ****     } else {
 1553              		.loc 5 93 0
 1554 0788 0201A0C3 		movgt	r0, #-2147483648
 1555              	.LVL172:
  89:C:/Renesas/e2studio_2021_01_workspace_RZA2M_ANPR/ANPR_RZA2M_EBK/src/tensorflow_lite/tensorflow/lite/kernels/internal\strided_slice_logic.h ****       // Forward iteration - use the first element. These values will get
 1556              		.loc 5 89 0
 1557 078c E10400DA 		ble	.L1073
 1558              	.L78:
 1559              	.LVL173:
 102:C:/Renesas/e2studio_2021_01_workspace_RZA2M_ANPR/ANPR_RZA2M_EBK/src/tensorflow_lite/tensorflow/lite/kernels/internal\strided_slice_logic.h ****   }
 1560              		.loc 5 102 0
 1561 0790 030080E0 		add	r0, r0, r3
 1562              	.LVL174:
 1563              	.L81:
 106:C:/Renesas/e2studio_2021_01_workspace_RZA2M_ANPR/ANPR_RZA2M_EBK/src/tensorflow_lite/tensorflow/lite/kernels/internal\strided_slice_logic.h ****     // Forward iteration
 1564              		.loc 5 106 0
 1565 0794 000054E3 		cmp	r4, #0
 1566 0798 D60400DA 		ble	.L82
 1567              	.LVL175:
 1568              	.LBB1013:
 1569              	.LBB1014:
  30:C:/Renesas/e2studio_2021_01_workspace_RZA2M_ANPR/ANPR_RZA2M_EBK/src/tensorflow_lite/tensorflow/lite/kernels/internal\strided_slice_logic.h ****   if (hi < v) return hi;
 1570              		.loc 5 30 0
 1571 079c 000053E3 		cmp	r3, #0
 1572 07a0 D20400BA 		blt	.L1074
  31:C:/Renesas/e2studio_2021_01_workspace_RZA2M_ANPR/ANPR_RZA2M_EBK/src/tensorflow_lite/tensorflow/lite/kernels/internal\strided_slice_logic.h ****   if (v < lo) return lo;
 1573              		.loc 5 31 0
 1574 07a4 030050E1 		cmp	r0, r3
 1575 07a8 28308DC5 		strgt	r3, [sp, #40]
 1576 07ac C00FC0D1 		bicle	r0, r0, r0, asr #31
 1577              	.LVL176:
 1578 07b0 28008DD5 		strle	r0, [sp, #40]
 1579              	.LVL177:
 1580              	.L84:
 1581              	.LBE1014:
 1582              	.LBE1013:
 1583              	.LBE1009:
 1584              	.LBE1008:
 1585              	.LBB1029:
 1586              	.LBB1030:
 142:C:/Renesas/e2studio_2021_01_workspace_RZA2M_ANPR/ANPR_RZA2M_EBK/src/tensorflow_lite/tensorflow/lite/kernels/internal\strided_slice_logic.h ****     return start_for_axis + 1;
 1587              		.loc 5 142 0
 1588 07b4 040017E3 		tst	r7, #4
 136:C:/Renesas/e2studio_2021_01_workspace_RZA2M_ANPR/ANPR_RZA2M_EBK/src/tensorflow_lite/tensorflow/lite/kernels/internal\strided_slice_logic.h **** 
 1589              		.loc 5 136 0
 1590 07b8 18019DE5 		ldr	r0, [sp, #280]
 1591              	.LVL178:
 142:C:/Renesas/e2studio_2021_01_workspace_RZA2M_ANPR/ANPR_RZA2M_EBK/src/tensorflow_lite/tensorflow/lite/kernels/internal\strided_slice_logic.h ****     return start_for_axis + 1;
 1592              		.loc 5 142 0
 1593 07bc C704001A 		bne	.L1075
 147:C:/Renesas/e2studio_2021_01_workspace_RZA2M_ANPR/ANPR_RZA2M_EBK/src/tensorflow_lite/tensorflow/lite/kernels/internal\strided_slice_logic.h ****     if (strides[axis] > 0) {
 1594              		.loc 5 147 0
 1595 07c0 040016E3 		tst	r6, #4
 1596 07c4 B804000A 		beq	.L86
 148:C:/Renesas/e2studio_2021_01_workspace_RZA2M_ANPR/ANPR_RZA2M_EBK/src/tensorflow_lite/tensorflow/lite/kernels/internal\strided_slice_logic.h ****       // Forward iteration - use the last element. These values will get
 1597              		.loc 5 148 0
 1598 07c8 000054E3 		cmp	r4, #0
 1599              		.loc 5 154 0
 1600 07cc 0201A0D3 		movle	r0, #-2147483648
 1601              	.LVL179:
 148:C:/Renesas/e2studio_2021_01_workspace_RZA2M_ANPR/ANPR_RZA2M_EBK/src/tensorflow_lite/tensorflow/lite/kernels/internal\strided_slice_logic.h ****       // Forward iteration - use the last element. These values will get
 1602              		.loc 5 148 0
 1603 07d0 B70400DA 		ble	.L88
 151:C:/Renesas/e2studio_2021_01_workspace_RZA2M_ANPR/ANPR_RZA2M_EBK/src/tensorflow_lite/tensorflow/lite/kernels/internal\strided_slice_logic.h ****     } else {
 1604              		.loc 5 151 0
 1605 07d4 0201E0E3 		mvn	r0, #-2147483648
 1606              	.LVL180:
 1607              	.L87:
 1608              	.LBB1031:
 1609              	.LBB1032:
  30:C:/Renesas/e2studio_2021_01_workspace_RZA2M_ANPR/ANPR_RZA2M_EBK/src/tensorflow_lite/tensorflow/lite/kernels/internal\strided_slice_logic.h ****   if (hi < v) return hi;
 1610              		.loc 5 30 0
 1611 07d8 000053E3 		cmp	r3, #0
 1612 07dc B10400BA 		blt	.L1076
  31:C:/Renesas/e2studio_2021_01_workspace_RZA2M_ANPR/ANPR_RZA2M_EBK/src/tensorflow_lite/tensorflow/lite/kernels/internal\strided_slice_logic.h ****   if (v < lo) return lo;
 1613              		.loc 5 31 0
 1614 07e0 000053E1 		cmp	r3, r0
 1615 07e4 48308DB5 		strlt	r3, [sp, #72]
 1616 07e8 C00FC0A1 		bicge	r0, r0, r0, asr #31
 1617              	.LVL181:
 1618 07ec 48008DA5 		strge	r0, [sp, #72]
 1619              	.LVL182:
 1620              	.L76:
 1621              	.LBE1032:
 1622              	.LBE1031:
 1623              	.LBE1030:
 1624              	.LBE1029:
 1625              	.LBB1044:
 1626              	.LBB1045:
 1627              	.LBB1046:
 1628              	.LBB1047:
 215:C:/Renesas/e2studio_2021_01_workspace_RZA2M_ANPR/ANPR_RZA2M_EBK/src/tensorflow_lite/tensorflow/lite/kernels/internal\types.h ****     return size_ > kMaxSmallSize ? dims_pointer_[i] : dims_[i];
 1629              		.loc 4 215 0
 1630 07f0 0C009DE5 		ldr	r0, [sp, #12]
 1631 07f4 030050E3 		cmp	r0, #3
 1632 07f8 A904000A 		beq	.L1077
 216:C:/Renesas/e2studio_2021_01_workspace_RZA2M_ANPR/ANPR_RZA2M_EBK/src/tensorflow_lite/tensorflow/lite/kernels/internal\types.h ****   }
 1633              		.loc 4 216 0
 1634 07fc 050050E3 		cmp	r0, #5
 1635 0800 C8009DC5 		ldrgt	r0, [sp, #200]
 1636 0804 D4009DD5 		ldrle	r0, [sp, #212]
 1637 0808 0C0090C5 		ldrgt	r0, [r0, #12]
 1638              	.LBE1047:
 1639              	.LBE1046:
  81:C:/Renesas/e2studio_2021_01_workspace_RZA2M_ANPR/ANPR_RZA2M_EBK/src/tensorflow_lite/tensorflow/lite/kernels/internal\strided_slice_logic.h ****     return 0;
 1640              		.loc 5 81 0
 1641 080c 000050E3 		cmp	r0, #0
 1642              	.LBB1050:
 1643              	.LBB1048:
 216:C:/Renesas/e2studio_2021_01_workspace_RZA2M_ANPR/ANPR_RZA2M_EBK/src/tensorflow_lite/tensorflow/lite/kernels/internal\types.h ****   }
 1644              		.loc 4 216 0
 1645 0810 1C008DE5 		str	r0, [sp, #28]
 1646              	.LVL183:
 1647              	.LBE1048:
 1648              	.LBE1050:
  81:C:/Renesas/e2studio_2021_01_workspace_RZA2M_ANPR/ANPR_RZA2M_EBK/src/tensorflow_lite/tensorflow/lite/kernels/internal\strided_slice_logic.h ****     return 0;
 1649              		.loc 5 81 0
 1650 0814 9F04000A 		beq	.L559
  88:C:/Renesas/e2studio_2021_01_workspace_RZA2M_ANPR/ANPR_RZA2M_EBK/src/tensorflow_lite/tensorflow/lite/kernels/internal\strided_slice_logic.h ****     if (strides[axis] > 0) {
 1651              		.loc 5 88 0
 1652 0818 080015E3 		tst	r5, #8
  89:C:/Renesas/e2studio_2021_01_workspace_RZA2M_ANPR/ANPR_RZA2M_EBK/src/tensorflow_lite/tensorflow/lite/kernels/internal\strided_slice_logic.h ****       // Forward iteration - use the first element. These values will get
 1653              		.loc 5 89 0
 1654 081c 34419DE5 		ldr	r4, [sp, #308]
  85:C:/Renesas/e2studio_2021_01_workspace_RZA2M_ANPR/ANPR_RZA2M_EBK/src/tensorflow_lite/tensorflow/lite/kernels/internal\strided_slice_logic.h **** 
 1655              		.loc 5 85 0
 1656 0820 04019DE5 		ldr	r0, [sp, #260]
 1657              	.LVL184:
  88:C:/Renesas/e2studio_2021_01_workspace_RZA2M_ANPR/ANPR_RZA2M_EBK/src/tensorflow_lite/tensorflow/lite/kernels/internal\strided_slice_logic.h ****     if (strides[axis] > 0) {
 1658              		.loc 5 88 0
 1659 0824 9804000A 		beq	.L97
  89:C:/Renesas/e2studio_2021_01_workspace_RZA2M_ANPR/ANPR_RZA2M_EBK/src/tensorflow_lite/tensorflow/lite/kernels/internal\strided_slice_logic.h ****       // Forward iteration - use the first element. These values will get
 1660              		.loc 5 89 0
 1661 0828 000054E3 		cmp	r4, #0
  93:C:/Renesas/e2studio_2021_01_workspace_RZA2M_ANPR/ANPR_RZA2M_EBK/src/tensorflow_lite/tensorflow/lite/kernels/internal\strided_slice_logic.h ****     } else {
 1662              		.loc 5 93 0
 1663 082c 0201A0C3 		movgt	r0, #-2147483648
 1664              	.LVL185:
  89:C:/Renesas/e2studio_2021_01_workspace_RZA2M_ANPR/ANPR_RZA2M_EBK/src/tensorflow_lite/tensorflow/lite/kernels/internal\strided_slice_logic.h ****       // Forward iteration - use the first element. These values will get
 1665              		.loc 5 89 0
 1666 0830 8F0400DA 		ble	.L1078
 1667              	.L98:
 1668              	.LVL186:
 102:C:/Renesas/e2studio_2021_01_workspace_RZA2M_ANPR/ANPR_RZA2M_EBK/src/tensorflow_lite/tensorflow/lite/kernels/internal\strided_slice_logic.h ****   }
 1669              		.loc 5 102 0
 1670 0834 1C809DE5 		ldr	r8, [sp, #28]
 1671 0838 080080E0 		add	r0, r0, r8
 1672              	.LVL187:
 1673              	.L101:
 106:C:/Renesas/e2studio_2021_01_workspace_RZA2M_ANPR/ANPR_RZA2M_EBK/src/tensorflow_lite/tensorflow/lite/kernels/internal\strided_slice_logic.h ****     // Forward iteration
 1674              		.loc 5 106 0
 1675 083c 000054E3 		cmp	r4, #0
 1676              	.LBB1051:
 1677              	.LBB1052:
  30:C:/Renesas/e2studio_2021_01_workspace_RZA2M_ANPR/ANPR_RZA2M_EBK/src/tensorflow_lite/tensorflow/lite/kernels/internal\strided_slice_logic.h ****   if (hi < v) return hi;
 1678              		.loc 5 30 0
 1679 0840 1C809DE5 		ldr	r8, [sp, #28]
 1680              	.LBE1052:
 1681              	.LBE1051:
 106:C:/Renesas/e2studio_2021_01_workspace_RZA2M_ANPR/ANPR_RZA2M_EBK/src/tensorflow_lite/tensorflow/lite/kernels/internal\strided_slice_logic.h ****     // Forward iteration
 1682              		.loc 5 106 0
 1683 0844 820400DA 		ble	.L102
 1684              	.LVL188:
 1685              	.LBB1055:
 1686              	.LBB1053:
  30:C:/Renesas/e2studio_2021_01_workspace_RZA2M_ANPR/ANPR_RZA2M_EBK/src/tensorflow_lite/tensorflow/lite/kernels/internal\strided_slice_logic.h ****   if (hi < v) return hi;
 1687              		.loc 5 30 0
 1688 0848 000058E3 		cmp	r8, #0
 1689 084c 7F0400BA 		blt	.L1079
  31:C:/Renesas/e2studio_2021_01_workspace_RZA2M_ANPR/ANPR_RZA2M_EBK/src/tensorflow_lite/tensorflow/lite/kernels/internal\strided_slice_logic.h ****   if (v < lo) return lo;
 1690              		.loc 5 31 0
 1691 0850 080050E1 		cmp	r0, r8
 1692 0854 0800A0C1 		movgt	r0, r8
 1693              	.LVL189:
 1694 0858 14008DC5 		strgt	r0, [sp, #20]
 1695 085c C00FC0D1 		bicle	r0, r0, r0, asr #31
 1696 0860 14008DD5 		strle	r0, [sp, #20]
 1697              	.LVL190:
 1698              	.L104:
 1699              	.LBE1053:
 1700              	.LBE1055:
 1701              	.LBE1045:
 1702              	.LBE1044:
 1703              	.LBB1068:
 1704              	.LBB1069:
 142:C:/Renesas/e2studio_2021_01_workspace_RZA2M_ANPR/ANPR_RZA2M_EBK/src/tensorflow_lite/tensorflow/lite/kernels/internal\strided_slice_logic.h ****     return start_for_axis + 1;
 1705              		.loc 5 142 0
 1706 0864 080017E3 		tst	r7, #8
 136:C:/Renesas/e2studio_2021_01_workspace_RZA2M_ANPR/ANPR_RZA2M_EBK/src/tensorflow_lite/tensorflow/lite/kernels/internal\strided_slice_logic.h **** 
 1707              		.loc 5 136 0
 1708 0868 1C019DE5 		ldr	r0, [sp, #284]
 1709              	.LVL191:
 142:C:/Renesas/e2studio_2021_01_workspace_RZA2M_ANPR/ANPR_RZA2M_EBK/src/tensorflow_lite/tensorflow/lite/kernels/internal\strided_slice_logic.h ****     return start_for_axis + 1;
 1710              		.loc 5 142 0
 1711 086c 7304001A 		bne	.L1080
 147:C:/Renesas/e2studio_2021_01_workspace_RZA2M_ANPR/ANPR_RZA2M_EBK/src/tensorflow_lite/tensorflow/lite/kernels/internal\strided_slice_logic.h ****     if (strides[axis] > 0) {
 1712              		.loc 5 147 0
 1713 0870 080016E3 		tst	r6, #8
 1714 0874 C904000A 		beq	.L106
 148:C:/Renesas/e2studio_2021_01_workspace_RZA2M_ANPR/ANPR_RZA2M_EBK/src/tensorflow_lite/tensorflow/lite/kernels/internal\strided_slice_logic.h ****       // Forward iteration - use the last element. These values will get
 1715              		.loc 5 148 0
 1716 0878 000054E3 		cmp	r4, #0
 1717              		.loc 5 154 0
 1718 087c 0201A0D3 		movle	r0, #-2147483648
 1719              	.LVL192:
 148:C:/Renesas/e2studio_2021_01_workspace_RZA2M_ANPR/ANPR_RZA2M_EBK/src/tensorflow_lite/tensorflow/lite/kernels/internal\strided_slice_logic.h ****       // Forward iteration - use the last element. These values will get
 1720              		.loc 5 148 0
 1721 0880 C80400DA 		ble	.L108
 151:C:/Renesas/e2studio_2021_01_workspace_RZA2M_ANPR/ANPR_RZA2M_EBK/src/tensorflow_lite/tensorflow/lite/kernels/internal\strided_slice_logic.h ****     } else {
 1722              		.loc 5 151 0
 1723 0884 0201E0E3 		mvn	r0, #-2147483648
 1724              	.LVL193:
 1725              	.L107:
 1726              	.LBB1070:
 1727              	.LBB1071:
  30:C:/Renesas/e2studio_2021_01_workspace_RZA2M_ANPR/ANPR_RZA2M_EBK/src/tensorflow_lite/tensorflow/lite/kernels/internal\strided_slice_logic.h ****   if (hi < v) return hi;
 1728              		.loc 5 30 0
 1729 0888 1C409DE5 		ldr	r4, [sp, #28]
 1730 088c 000054E3 		cmp	r4, #0
 1731 0890 D10400BA 		blt	.L1081
  31:C:/Renesas/e2studio_2021_01_workspace_RZA2M_ANPR/ANPR_RZA2M_EBK/src/tensorflow_lite/tensorflow/lite/kernels/internal\strided_slice_logic.h ****   if (v < lo) return lo;
 1732              		.loc 5 31 0
 1733 0894 000054E1 		cmp	r4, r0
 1734 0898 0400A0B1 		movlt	r0, r4
 1735              	.LVL194:
 1736 089c 4C008DB5 		strlt	r0, [sp, #76]
 1737 08a0 C00FC0A1 		bicge	r0, r0, r0, asr #31
 1738 08a4 4C008DA5 		strge	r0, [sp, #76]
 1739              	.LVL195:
 1740              	.L96:
 1741              	.LBE1071:
 1742              	.LBE1070:
 1743              	.LBE1069:
 1744              	.LBE1068:
 1745              	.LBB1083:
 1746              	.LBB1084:
 1747              	.LBB1085:
 1748              	.LBB1086:
 215:C:/Renesas/e2studio_2021_01_workspace_RZA2M_ANPR/ANPR_RZA2M_EBK/src/tensorflow_lite/tensorflow/lite/kernels/internal\types.h ****     return size_ > kMaxSmallSize ? dims_pointer_[i] : dims_[i];
 1749              		.loc 4 215 0
 1750 08a8 0C009DE5 		ldr	r0, [sp, #12]
 1751 08ac 040050E3 		cmp	r0, #4
 1752 08b0 B904000A 		beq	.L1082
 216:C:/Renesas/e2studio_2021_01_workspace_RZA2M_ANPR/ANPR_RZA2M_EBK/src/tensorflow_lite/tensorflow/lite/kernels/internal\types.h ****   }
 1753              		.loc 4 216 0
 1754 08b4 050050E3 		cmp	r0, #5
 1755 08b8 AD04001A 		bne	.L1083
 1756 08bc D8009DE5 		ldr	r0, [sp, #216]
 1757              	.LBE1086:
 1758              	.LBE1085:
  81:C:/Renesas/e2studio_2021_01_workspace_RZA2M_ANPR/ANPR_RZA2M_EBK/src/tensorflow_lite/tensorflow/lite/kernels/internal\strided_slice_logic.h ****     return 0;
 1759              		.loc 5 81 0
 1760 08c0 000050E3 		cmp	r0, #0
 1761              	.LBB1091:
 1762              	.LBB1087:
 216:C:/Renesas/e2studio_2021_01_workspace_RZA2M_ANPR/ANPR_RZA2M_EBK/src/tensorflow_lite/tensorflow/lite/kernels/internal\types.h ****   }
 1763              		.loc 4 216 0
 1764 08c4 58008DE5 		str	r0, [sp, #88]
 1765 08c8 18008DE5 		str	r0, [sp, #24]
 1766              	.LVL196:
 1767              	.LBE1087:
 1768              	.LBE1091:
  81:C:/Renesas/e2studio_2021_01_workspace_RZA2M_ANPR/ANPR_RZA2M_EBK/src/tensorflow_lite/tensorflow/lite/kernels/internal\strided_slice_logic.h ****     return 0;
 1769              		.loc 5 81 0
 1770 08cc A404000A 		beq	.L565
 1771              	.L116:
  88:C:/Renesas/e2studio_2021_01_workspace_RZA2M_ANPR/ANPR_RZA2M_EBK/src/tensorflow_lite/tensorflow/lite/kernels/internal\strided_slice_logic.h ****     if (strides[axis] > 0) {
 1772              		.loc 5 88 0
 1773 08d0 100015E3 		tst	r5, #16
  89:C:/Renesas/e2studio_2021_01_workspace_RZA2M_ANPR/ANPR_RZA2M_EBK/src/tensorflow_lite/tensorflow/lite/kernels/internal\strided_slice_logic.h ****       // Forward iteration - use the first element. These values will get
 1774              		.loc 5 89 0
 1775 08d4 38919DE5 		ldr	r9, [sp, #312]
  85:C:/Renesas/e2studio_2021_01_workspace_RZA2M_ANPR/ANPR_RZA2M_EBK/src/tensorflow_lite/tensorflow/lite/kernels/internal\strided_slice_logic.h **** 
 1776              		.loc 5 85 0
 1777 08d8 08019DE5 		ldr	r0, [sp, #264]
 1778              	.LVL197:
  88:C:/Renesas/e2studio_2021_01_workspace_RZA2M_ANPR/ANPR_RZA2M_EBK/src/tensorflow_lite/tensorflow/lite/kernels/internal\strided_slice_logic.h ****     if (strides[axis] > 0) {
 1779              		.loc 5 88 0
 1780 08dc 9D04000A 		beq	.L118
  89:C:/Renesas/e2studio_2021_01_workspace_RZA2M_ANPR/ANPR_RZA2M_EBK/src/tensorflow_lite/tensorflow/lite/kernels/internal\strided_slice_logic.h ****       // Forward iteration - use the first element. These values will get
 1781              		.loc 5 89 0
 1782 08e0 000059E3 		cmp	r9, #0
  93:C:/Renesas/e2studio_2021_01_workspace_RZA2M_ANPR/ANPR_RZA2M_EBK/src/tensorflow_lite/tensorflow/lite/kernels/internal\strided_slice_logic.h ****     } else {
 1783              		.loc 5 93 0
 1784 08e4 0201A0C3 		movgt	r0, #-2147483648
 1785              	.LVL198:
  89:C:/Renesas/e2studio_2021_01_workspace_RZA2M_ANPR/ANPR_RZA2M_EBK/src/tensorflow_lite/tensorflow/lite/kernels/internal\strided_slice_logic.h ****       // Forward iteration - use the first element. These values will get
 1786              		.loc 5 89 0
 1787 08e8 950400DA 		ble	.L1084
 1788              	.L119:
 1789              	.LVL199:
 102:C:/Renesas/e2studio_2021_01_workspace_RZA2M_ANPR/ANPR_RZA2M_EBK/src/tensorflow_lite/tensorflow/lite/kernels/internal\strided_slice_logic.h ****   }
 1790              		.loc 5 102 0
 1791 08ec 18409DE5 		ldr	r4, [sp, #24]
 1792 08f0 040080E0 		add	r0, r0, r4
 1793              	.LVL200:
 1794              	.L122:
 106:C:/Renesas/e2studio_2021_01_workspace_RZA2M_ANPR/ANPR_RZA2M_EBK/src/tensorflow_lite/tensorflow/lite/kernels/internal\strided_slice_logic.h ****     // Forward iteration
 1795              		.loc 5 106 0
 1796 08f4 000059E3 		cmp	r9, #0
 1797              	.LBB1092:
 1798              	.LBB1093:
  30:C:/Renesas/e2studio_2021_01_workspace_RZA2M_ANPR/ANPR_RZA2M_EBK/src/tensorflow_lite/tensorflow/lite/kernels/internal\strided_slice_logic.h ****   if (hi < v) return hi;
 1799              		.loc 5 30 0
 1800 08f8 18409DE5 		ldr	r4, [sp, #24]
 1801              	.LBE1093:
 1802              	.LBE1092:
 106:C:/Renesas/e2studio_2021_01_workspace_RZA2M_ANPR/ANPR_RZA2M_EBK/src/tensorflow_lite/tensorflow/lite/kernels/internal\strided_slice_logic.h ****     // Forward iteration
 1803              		.loc 5 106 0
 1804 08fc BB0400DA 		ble	.L123
 1805              	.LVL201:
 1806              	.LBB1096:
 1807              	.LBB1094:
  30:C:/Renesas/e2studio_2021_01_workspace_RZA2M_ANPR/ANPR_RZA2M_EBK/src/tensorflow_lite/tensorflow/lite/kernels/internal\strided_slice_logic.h ****   if (hi < v) return hi;
 1808              		.loc 5 30 0
 1809 0900 000054E3 		cmp	r4, #0
 1810 0904 B80400BA 		blt	.L1085
  31:C:/Renesas/e2studio_2021_01_workspace_RZA2M_ANPR/ANPR_RZA2M_EBK/src/tensorflow_lite/tensorflow/lite/kernels/internal\strided_slice_logic.h ****   if (v < lo) return lo;
 1811              		.loc 5 31 0
 1812 0908 000054E1 		cmp	r4, r0
 1813 090c 04A0A0B1 		movlt	r10, r4
 1814 0910 C0AFC0A1 		bicge	r10, r0, r0, asr #31
 1815              	.LVL202:
 1816              	.L125:
 1817              	.LBE1094:
 1818              	.LBE1096:
 1819              	.LBE1084:
 1820              	.LBE1083:
 1821              	.LBB1107:
 1822              	.LBB1108:
 142:C:/Renesas/e2studio_2021_01_workspace_RZA2M_ANPR/ANPR_RZA2M_EBK/src/tensorflow_lite/tensorflow/lite/kernels/internal\strided_slice_logic.h ****     return start_for_axis + 1;
 1823              		.loc 5 142 0
 1824 0914 100017E3 		tst	r7, #16
 136:C:/Renesas/e2studio_2021_01_workspace_RZA2M_ANPR/ANPR_RZA2M_EBK/src/tensorflow_lite/tensorflow/lite/kernels/internal\strided_slice_logic.h **** 
 1825              		.loc 5 136 0
 1826 0918 20019DE5 		ldr	r0, [sp, #288]
 1827              	.LVL203:
 142:C:/Renesas/e2studio_2021_01_workspace_RZA2M_ANPR/ANPR_RZA2M_EBK/src/tensorflow_lite/tensorflow/lite/kernels/internal\strided_slice_logic.h ****     return start_for_axis + 1;
 1828              		.loc 5 142 0
 1829 091c B004001A 		bne	.L1086
 147:C:/Renesas/e2studio_2021_01_workspace_RZA2M_ANPR/ANPR_RZA2M_EBK/src/tensorflow_lite/tensorflow/lite/kernels/internal\strided_slice_logic.h ****     if (strides[axis] > 0) {
 1830              		.loc 5 147 0
 1831 0920 100016E3 		tst	r6, #16
 1832 0924 0101000A 		beq	.L128
 148:C:/Renesas/e2studio_2021_01_workspace_RZA2M_ANPR/ANPR_RZA2M_EBK/src/tensorflow_lite/tensorflow/lite/kernels/internal\strided_slice_logic.h ****       // Forward iteration - use the last element. These values will get
 1833              		.loc 5 148 0
 1834 0928 000059E3 		cmp	r9, #0
 1835              		.loc 5 154 0
 1836 092c 0201A0D3 		movle	r0, #-2147483648
 1837              	.LVL204:
 148:C:/Renesas/e2studio_2021_01_workspace_RZA2M_ANPR/ANPR_RZA2M_EBK/src/tensorflow_lite/tensorflow/lite/kernels/internal\strided_slice_logic.h ****       // Forward iteration - use the last element. These values will get
 1838              		.loc 5 148 0
 1839 0930 000100DA 		ble	.L130
 151:C:/Renesas/e2studio_2021_01_workspace_RZA2M_ANPR/ANPR_RZA2M_EBK/src/tensorflow_lite/tensorflow/lite/kernels/internal\strided_slice_logic.h ****     } else {
 1840              		.loc 5 151 0
 1841 0934 0201E0E3 		mvn	r0, #-2147483648
 1842              	.LVL205:
 1843              	.L129:
 1844              	.LBB1109:
 1845              	.LBB1110:
  30:C:/Renesas/e2studio_2021_01_workspace_RZA2M_ANPR/ANPR_RZA2M_EBK/src/tensorflow_lite/tensorflow/lite/kernels/internal\strided_slice_logic.h ****   if (hi < v) return hi;
 1846              		.loc 5 30 0
 1847 0938 18409DE5 		ldr	r4, [sp, #24]
 1848 093c 000054E3 		cmp	r4, #0
 1849 0940 F90000BA 		blt	.L1087
  31:C:/Renesas/e2studio_2021_01_workspace_RZA2M_ANPR/ANPR_RZA2M_EBK/src/tensorflow_lite/tensorflow/lite/kernels/internal\strided_slice_logic.h ****   if (v < lo) return lo;
 1850              		.loc 5 31 0
 1851 0944 000054E1 		cmp	r4, r0
 1852 0948 0470A0B1 		movlt	r7, r4
 1853              	.LVL206:
 1854 094c C07FC0A1 		bicge	r7, r0, r0, asr #31
 1855              	.LVL207:
 1856              	.L127:
 1857              	.LBE1110:
 1858              	.LBE1109:
 1859              	.LBE1108:
 1860              	.LBE1107:
 1861              	.LBB1120:
 1862              	.LBB1121:
 1863              	.LBB1122:
 216:C:/Renesas/e2studio_2021_01_workspace_RZA2M_ANPR/ANPR_RZA2M_EBK/src/tensorflow_lite/tensorflow/lite/kernels/internal\types.h ****   }
 1864              		.loc 4 216 0
 1865 0950 0C009DE5 		ldr	r0, [sp, #12]
 1866 0954 050050E3 		cmp	r0, #5
 1867 0958 0901001A 		bne	.L906
 1868 095c D8009DE5 		ldr	r0, [sp, #216]
 1869 0960 58008DE5 		str	r0, [sp, #88]
 1870              	.LVL208:
 1871              	.L117:
 1872              	.LBE1122:
 1873              	.LBE1121:
  45:C:/Renesas/e2studio_2021_01_workspace_RZA2M_ANPR/ANPR_RZA2M_EBK/src/tensorflow_lite/tensorflow/lite/kernels/internal/reference\strided_slice.h ****   const RuntimeShape input_shape =
  46:C:/Renesas/e2studio_2021_01_workspace_RZA2M_ANPR/ANPR_RZA2M_EBK/src/tensorflow_lite/tensorflow/lite/kernels/internal/reference\strided_slice.h ****       RuntimeShape::ExtendedShape(5, unextended_input_shape);
  47:C:/Renesas/e2studio_2021_01_workspace_RZA2M_ANPR/ANPR_RZA2M_EBK/src/tensorflow_lite/tensorflow/lite/kernels/internal/reference\strided_slice.h ****   const RuntimeShape output_shape =
  48:C:/Renesas/e2studio_2021_01_workspace_RZA2M_ANPR/ANPR_RZA2M_EBK/src/tensorflow_lite/tensorflow/lite/kernels/internal/reference\strided_slice.h ****       RuntimeShape::ExtendedShape(5, unextended_output_shape);
  49:C:/Renesas/e2studio_2021_01_workspace_RZA2M_ANPR/ANPR_RZA2M_EBK/src/tensorflow_lite/tensorflow/lite/kernels/internal/reference\strided_slice.h **** 
  50:C:/Renesas/e2studio_2021_01_workspace_RZA2M_ANPR/ANPR_RZA2M_EBK/src/tensorflow_lite/tensorflow/lite/kernels/internal/reference\strided_slice.h ****   // Reverse and pad to 5 dimensions because that is what the runtime code
  51:C:/Renesas/e2studio_2021_01_workspace_RZA2M_ANPR/ANPR_RZA2M_EBK/src/tensorflow_lite/tensorflow/lite/kernels/internal/reference\strided_slice.h ****   // requires (ie. all shapes must be 5D and are given backwards).
  52:C:/Renesas/e2studio_2021_01_workspace_RZA2M_ANPR/ANPR_RZA2M_EBK/src/tensorflow_lite/tensorflow/lite/kernels/internal/reference\strided_slice.h ****   strided_slice::StridedSlicePadIndices(&params_copy, 5);
  53:C:/Renesas/e2studio_2021_01_workspace_RZA2M_ANPR/ANPR_RZA2M_EBK/src/tensorflow_lite/tensorflow/lite/kernels/internal/reference\strided_slice.h **** 
  54:C:/Renesas/e2studio_2021_01_workspace_RZA2M_ANPR/ANPR_RZA2M_EBK/src/tensorflow_lite/tensorflow/lite/kernels/internal/reference\strided_slice.h ****   const int start_0 = StartForAxis(params_copy, input_shape, 0);
  55:C:/Renesas/e2studio_2021_01_workspace_RZA2M_ANPR/ANPR_RZA2M_EBK/src/tensorflow_lite/tensorflow/lite/kernels/internal/reference\strided_slice.h ****   const int stop_0 = StopForAxis(params_copy, input_shape, 0, start_0);
  56:C:/Renesas/e2studio_2021_01_workspace_RZA2M_ANPR/ANPR_RZA2M_EBK/src/tensorflow_lite/tensorflow/lite/kernels/internal/reference\strided_slice.h ****   const int start_1 = StartForAxis(params_copy, input_shape, 1);
  57:C:/Renesas/e2studio_2021_01_workspace_RZA2M_ANPR/ANPR_RZA2M_EBK/src/tensorflow_lite/tensorflow/lite/kernels/internal/reference\strided_slice.h ****   const int stop_1 = StopForAxis(params_copy, input_shape, 1, start_1);
  58:C:/Renesas/e2studio_2021_01_workspace_RZA2M_ANPR/ANPR_RZA2M_EBK/src/tensorflow_lite/tensorflow/lite/kernels/internal/reference\strided_slice.h ****   const int start_2 = StartForAxis(params_copy, input_shape, 2);
  59:C:/Renesas/e2studio_2021_01_workspace_RZA2M_ANPR/ANPR_RZA2M_EBK/src/tensorflow_lite/tensorflow/lite/kernels/internal/reference\strided_slice.h ****   const int stop_2 = StopForAxis(params_copy, input_shape, 2, start_2);
  60:C:/Renesas/e2studio_2021_01_workspace_RZA2M_ANPR/ANPR_RZA2M_EBK/src/tensorflow_lite/tensorflow/lite/kernels/internal/reference\strided_slice.h ****   const int start_3 = StartForAxis(params_copy, input_shape, 3);
  61:C:/Renesas/e2studio_2021_01_workspace_RZA2M_ANPR/ANPR_RZA2M_EBK/src/tensorflow_lite/tensorflow/lite/kernels/internal/reference\strided_slice.h ****   const int stop_3 = StopForAxis(params_copy, input_shape, 3, start_3);
  62:C:/Renesas/e2studio_2021_01_workspace_RZA2M_ANPR/ANPR_RZA2M_EBK/src/tensorflow_lite/tensorflow/lite/kernels/internal/reference\strided_slice.h ****   const int start_4 = StartForAxis(params_copy, input_shape, 4);
  63:C:/Renesas/e2studio_2021_01_workspace_RZA2M_ANPR/ANPR_RZA2M_EBK/src/tensorflow_lite/tensorflow/lite/kernels/internal/reference\strided_slice.h ****   const int stop_4 = StopForAxis(params_copy, input_shape, 4, start_4);
  64:C:/Renesas/e2studio_2021_01_workspace_RZA2M_ANPR/ANPR_RZA2M_EBK/src/tensorflow_lite/tensorflow/lite/kernels/internal/reference\strided_slice.h **** 
  65:C:/Renesas/e2studio_2021_01_workspace_RZA2M_ANPR/ANPR_RZA2M_EBK/src/tensorflow_lite/tensorflow/lite/kernels/internal/reference\strided_slice.h ****   for (int offset_0 = start_0 * input_shape.Dims(1),
 1874              		.loc 3 65 0
 1875 0964 910201E0 		mul	r1, r1, r2
 1876 0968 40108DE5 		str	r1, [sp, #64]
 1877              	.LVL209:
  66:C:/Renesas/e2studio_2021_01_workspace_RZA2M_ANPR/ANPR_RZA2M_EBK/src/tensorflow_lite/tensorflow/lite/kernels/internal/reference\strided_slice.h ****            end_0 = stop_0 * input_shape.Dims(1),
  67:C:/Renesas/e2studio_2021_01_workspace_RZA2M_ANPR/ANPR_RZA2M_EBK/src/tensorflow_lite/tensorflow/lite/kernels/internal/reference\strided_slice.h ****            step_0 = params_copy.strides[0] * input_shape.Dims(1);
 1878              		.loc 3 67 0
 1879 096c 28119DE5 		ldr	r1, [sp, #296]
 1880              	.LVL210:
 1881 0970 68108DE5 		str	r1, [sp, #104]
 1882 0974 C8109DE5 		ldr	r1, [sp, #200]
 1883 0978 50108DE5 		str	r1, [sp, #80]
  66:C:/Renesas/e2studio_2021_01_workspace_RZA2M_ANPR/ANPR_RZA2M_EBK/src/tensorflow_lite/tensorflow/lite/kernels/internal/reference\strided_slice.h ****            end_0 = stop_0 * input_shape.Dims(1),
 1884              		.loc 3 66 0
 1885 097c 920C01E0 		mul	r1, r2, ip
 1886 0980 64108DE5 		str	r1, [sp, #100]
 1887              	.LVL211:
 1888              	.L135:
 1889 0984 40409DE5 		ldr	r4, [sp, #64]
 1890 0988 0981A0E1 		lsl	r8, r9, #2
 1891              		.loc 3 67 0
 1892 098c 68009DE5 		ldr	r0, [sp, #104]
 1893              	.LBB1123:
 1894              	.LBB1124:
 1895              	.LBB1125:
  68:C:/Renesas/e2studio_2021_01_workspace_RZA2M_ANPR/ANPR_RZA2M_EBK/src/tensorflow_lite/tensorflow/lite/kernels/internal/reference\strided_slice.h ****        !LoopCondition(offset_0, end_0, params_copy.strides[0]);
  69:C:/Renesas/e2studio_2021_01_workspace_RZA2M_ANPR/ANPR_RZA2M_EBK/src/tensorflow_lite/tensorflow/lite/kernels/internal/reference\strided_slice.h ****        offset_0 += step_0) {
  70:C:/Renesas/e2studio_2021_01_workspace_RZA2M_ANPR/ANPR_RZA2M_EBK/src/tensorflow_lite/tensorflow/lite/kernels/internal/reference\strided_slice.h ****     for (int offset_1 = (offset_0 + start_1) * input_shape.Dims(2),
  71:C:/Renesas/e2studio_2021_01_workspace_RZA2M_ANPR/ANPR_RZA2M_EBK/src/tensorflow_lite/tensorflow/lite/kernels/internal/reference\strided_slice.h ****              end_1 = (offset_0 + stop_1) * input_shape.Dims(2),
  72:C:/Renesas/e2studio_2021_01_workspace_RZA2M_ANPR/ANPR_RZA2M_EBK/src/tensorflow_lite/tensorflow/lite/kernels/internal/reference\strided_slice.h ****              step_1 = params_copy.strides[1] * input_shape.Dims(2);
  73:C:/Renesas/e2studio_2021_01_workspace_RZA2M_ANPR/ANPR_RZA2M_EBK/src/tensorflow_lite/tensorflow/lite/kernels/internal/reference\strided_slice.h ****          !LoopCondition(offset_1, end_1, params_copy.strides[1]);
  74:C:/Renesas/e2studio_2021_01_workspace_RZA2M_ANPR/ANPR_RZA2M_EBK/src/tensorflow_lite/tensorflow/lite/kernels/internal/reference\strided_slice.h ****          offset_1 += step_1) {
  75:C:/Renesas/e2studio_2021_01_workspace_RZA2M_ANPR/ANPR_RZA2M_EBK/src/tensorflow_lite/tensorflow/lite/kernels/internal/reference\strided_slice.h ****       for (int offset_2 = (offset_1 + start_2) * input_shape.Dims(3),
  76:C:/Renesas/e2studio_2021_01_workspace_RZA2M_ANPR/ANPR_RZA2M_EBK/src/tensorflow_lite/tensorflow/lite/kernels/internal/reference\strided_slice.h ****                end_2 = (offset_1 + stop_2) * input_shape.Dims(3),
  77:C:/Renesas/e2studio_2021_01_workspace_RZA2M_ANPR/ANPR_RZA2M_EBK/src/tensorflow_lite/tensorflow/lite/kernels/internal/reference\strided_slice.h ****                step_2 = params_copy.strides[2] * input_shape.Dims(3);
  78:C:/Renesas/e2studio_2021_01_workspace_RZA2M_ANPR/ANPR_RZA2M_EBK/src/tensorflow_lite/tensorflow/lite/kernels/internal/reference\strided_slice.h ****            !LoopCondition(offset_2, end_2, params_copy.strides[2]);
  79:C:/Renesas/e2studio_2021_01_workspace_RZA2M_ANPR/ANPR_RZA2M_EBK/src/tensorflow_lite/tensorflow/lite/kernels/internal/reference\strided_slice.h ****            offset_2 += step_2) {
  80:C:/Renesas/e2studio_2021_01_workspace_RZA2M_ANPR/ANPR_RZA2M_EBK/src/tensorflow_lite/tensorflow/lite/kernels/internal/reference\strided_slice.h ****         for (int offset_3 = (offset_2 + start_3) * input_shape.Dims(4),
  81:C:/Renesas/e2studio_2021_01_workspace_RZA2M_ANPR/ANPR_RZA2M_EBK/src/tensorflow_lite/tensorflow/lite/kernels/internal/reference\strided_slice.h ****                  end_3 = (offset_2 + stop_3) * input_shape.Dims(4),
  82:C:/Renesas/e2studio_2021_01_workspace_RZA2M_ANPR/ANPR_RZA2M_EBK/src/tensorflow_lite/tensorflow/lite/kernels/internal/reference\strided_slice.h ****                  step_3 = params_copy.strides[3] * input_shape.Dims(4);
 1896              		.loc 3 82 0
 1897 0990 34619DE5 		ldr	r6, [sp, #308]
 1898 0994 0E1084E0 		add	r1, r4, lr
 1899              	.LVL212:
 1900 0998 2CE09DE5 		ldr	lr, [sp, #44]
 1901 099c 930101E0 		mul	r1, r3, r1
 1902              	.LBE1125:
 1903              	.LBE1124:
 1904              	.LBE1123:
  67:C:/Renesas/e2studio_2021_01_workspace_RZA2M_ANPR/ANPR_RZA2M_EBK/src/tensorflow_lite/tensorflow/lite/kernels/internal/reference\strided_slice.h ****        !LoopCondition(offset_0, end_0, params_copy.strides[0]);
 1905              		.loc 3 67 0
 1906 09a0 900202E0 		mul	r2, r0, r2
 1907 09a4 54108DE5 		str	r1, [sp, #84]
 1908              	.LBB1181:
 1909              	.LBB1161:
 1910              	.LBB1142:
 1911              	.LBB1143:
 216:C:/Renesas/e2studio_2021_01_workspace_RZA2M_ANPR/ANPR_RZA2M_EBK/src/tensorflow_lite/tensorflow/lite/kernels/internal\types.h ****   }
 1912              		.loc 4 216 0
 1913 09a8 D4109DE5 		ldr	r1, [sp, #212]
 1914              	.LBE1143:
 1915              	.LBE1142:
 1916              	.LBE1161:
 1917              	.LBE1181:
  67:C:/Renesas/e2studio_2021_01_workspace_RZA2M_ANPR/ANPR_RZA2M_EBK/src/tensorflow_lite/tensorflow/lite/kernels/internal/reference\strided_slice.h ****        !LoopCondition(offset_0, end_0, params_copy.strides[0]);
 1918              		.loc 3 67 0
 1919 09ac 0200A0E1 		mov	r0, r2
 1920 09b0 78208DE5 		str	r2, [sp, #120]
 1921              	.LVL213:
 1922 09b4 930003E0 		mul	r3, r3, r0
 1923              	.LBB1182:
 1924              	.LBB1162:
 1925              	.LBB1163:
 216:C:/Renesas/e2studio_2021_01_workspace_RZA2M_ANPR/ANPR_RZA2M_EBK/src/tensorflow_lite/tensorflow/lite/kernels/internal\types.h ****   }
 1926              		.loc 4 216 0
 1927 09b8 D0209DE5 		ldr	r2, [sp, #208]
 1928              	.LBE1163:
 1929              	.LBE1162:
 1930              	.LBB1167:
 1931              	.LBB1147:
 1932              	.LBB1144:
 1933 09bc 6C108DE5 		str	r1, [sp, #108]
 1934              	.LBE1144:
 1935              	.LBE1147:
  77:C:/Renesas/e2studio_2021_01_workspace_RZA2M_ANPR/ANPR_RZA2M_EBK/src/tensorflow_lite/tensorflow/lite/kernels/internal/reference\strided_slice.h ****            !LoopCondition(offset_2, end_2, params_copy.strides[2]);
 1936              		.loc 3 77 0
 1937 09c0 30119DE5 		ldr	r1, [sp, #304]
 1938              	.LBE1167:
 1939              	.LBB1168:
 1940              	.LBB1164:
 216:C:/Renesas/e2studio_2021_01_workspace_RZA2M_ANPR/ANPR_RZA2M_EBK/src/tensorflow_lite/tensorflow/lite/kernels/internal\types.h ****   }
 1941              		.loc 4 216 0
 1942 09c4 02C0A0E1 		mov	ip, r2
 1943 09c8 84208DE5 		str	r2, [sp, #132]
 1944 09cc 88308DE5 		str	r3, [sp, #136]
 1945 09d0 04208EE0 		add	r2, lr, r4
 1946              	.LBE1164:
 1947              	.LBE1168:
 1948              	.LBB1169:
  77:C:/Renesas/e2studio_2021_01_workspace_RZA2M_ANPR/ANPR_RZA2M_EBK/src/tensorflow_lite/tensorflow/lite/kernels/internal/reference\strided_slice.h ****            !LoopCondition(offset_2, end_2, params_copy.strides[2]);
 1949              		.loc 3 77 0
 1950 09d4 24108DE5 		str	r1, [sp, #36]
 1951 09d8 900C03E0 		mul	r3, r0, ip
 1952              	.LBB1148:
 1953              		.loc 3 82 0
 1954 09dc 18109DE5 		ldr	r1, [sp, #24]
 1955 09e0 0B00A0E1 		mov	r0, fp
 1956              	.LVL214:
 1957              	.LBE1148:
 1958              	.LBE1169:
  72:C:/Renesas/e2studio_2021_01_workspace_RZA2M_ANPR/ANPR_RZA2M_EBK/src/tensorflow_lite/tensorflow/lite/kernels/internal/reference\strided_slice.h ****          !LoopCondition(offset_1, end_1, params_copy.strides[1]);
 1959              		.loc 3 72 0
 1960 09e4 2CE19DE5 		ldr	lr, [sp, #300]
 1961 09e8 0AB0A0E1 		mov	fp, r10
 1962              	.LVL215:
 1963 09ec 08A0A0E1 		mov	r10, r8
 1964 09f0 0780A0E1 		mov	r8, r7
 1965 09f4 74308DE5 		str	r3, [sp, #116]
 1966 09f8 0670A0E1 		mov	r7, r6
 1967              	.LBB1170:
 1968              	.LBB1149:
 1969              		.loc 3 82 0
 1970 09fc 960101E0 		mul	r1, r6, r1
 1971              	.LBE1149:
 1972              	.LBE1170:
  72:C:/Renesas/e2studio_2021_01_workspace_RZA2M_ANPR/ANPR_RZA2M_EBK/src/tensorflow_lite/tensorflow/lite/kernels/internal/reference\strided_slice.h ****          !LoopCondition(offset_1, end_1, params_copy.strides[1]);
 1973              		.loc 3 72 0
 1974 0a00 70E08DE5 		str	lr, [sp, #112]
 1975              	.LBB1171:
 1976              	.LBB1150:
 1977              		.loc 3 82 0
 1978 0a04 01E0A0E1 		mov	lr, r1
 1979 0a08 0E31A0E1 		lsl	r3, lr, #2
 1980 0a0c 0E60A0E1 		mov	r6, lr
 1981 0a10 04308DE5 		str	r3, [sp, #4]
 1982 0a14 0230A0E1 		mov	r3, r2
 1983 0a18 9C0303E0 		mul	r3, ip, r3
 1984 0a1c 5C308DE5 		str	r3, [sp, #92]
 1985              	.L161:
 1986              	.LVL216:
 1987              	.LBE1150:
 1988              	.LBE1171:
 1989              	.LBE1182:
 1990              	.LBB1183:
 1991              	.LBB1184:
 155:C:/Renesas/e2studio_2021_01_workspace_RZA2M_ANPR/ANPR_RZA2M_EBK/src/tensorflow_lite/tensorflow/lite/kernels/internal\strided_slice_logic.h ****     }
 156:C:/Renesas/e2studio_2021_01_workspace_RZA2M_ANPR/ANPR_RZA2M_EBK/src/tensorflow_lite/tensorflow/lite/kernels/internal\strided_slice_logic.h ****   }
 157:C:/Renesas/e2studio_2021_01_workspace_RZA2M_ANPR/ANPR_RZA2M_EBK/src/tensorflow_lite/tensorflow/lite/kernels/internal\strided_slice_logic.h **** 
 158:C:/Renesas/e2studio_2021_01_workspace_RZA2M_ANPR/ANPR_RZA2M_EBK/src/tensorflow_lite/tensorflow/lite/kernels/internal\strided_slice_logic.h ****   // Handle negative indices
 159:C:/Renesas/e2studio_2021_01_workspace_RZA2M_ANPR/ANPR_RZA2M_EBK/src/tensorflow_lite/tensorflow/lite/kernels/internal\strided_slice_logic.h ****   if (stop < 0) {
 160:C:/Renesas/e2studio_2021_01_workspace_RZA2M_ANPR/ANPR_RZA2M_EBK/src/tensorflow_lite/tensorflow/lite/kernels/internal\strided_slice_logic.h ****     stop += axis_size;
 161:C:/Renesas/e2studio_2021_01_workspace_RZA2M_ANPR/ANPR_RZA2M_EBK/src/tensorflow_lite/tensorflow/lite/kernels/internal\strided_slice_logic.h ****   }
 162:C:/Renesas/e2studio_2021_01_workspace_RZA2M_ANPR/ANPR_RZA2M_EBK/src/tensorflow_lite/tensorflow/lite/kernels/internal\strided_slice_logic.h **** 
 163:C:/Renesas/e2studio_2021_01_workspace_RZA2M_ANPR/ANPR_RZA2M_EBK/src/tensorflow_lite/tensorflow/lite/kernels/internal\strided_slice_logic.h ****   // Clamping
 164:C:/Renesas/e2studio_2021_01_workspace_RZA2M_ANPR/ANPR_RZA2M_EBK/src/tensorflow_lite/tensorflow/lite/kernels/internal\strided_slice_logic.h ****   // Because the end index points one past the last element, we need slightly
 165:C:/Renesas/e2studio_2021_01_workspace_RZA2M_ANPR/ANPR_RZA2M_EBK/src/tensorflow_lite/tensorflow/lite/kernels/internal\strided_slice_logic.h ****   // different clamping ranges depending on the direction.
