   1              		.cpu cortex-a9
   2              		.eabi_attribute 28, 1
   3              		.eabi_attribute 20, 1
   4              		.eabi_attribute 21, 1
   5              		.eabi_attribute 23, 3
   6              		.eabi_attribute 24, 1
   7              		.eabi_attribute 25, 1
   8              		.eabi_attribute 26, 1
   9              		.eabi_attribute 30, 2
  10              		.eabi_attribute 34, 0
  11              		.eabi_attribute 18, 4
  12              		.file	"strided_slice.cc"
  13              		.text
  14              	.Ltext0:
  15              		.cfi_sections	.debug_frame
  16              		.section	.text._ZN6tflite3ops5micro13strided_slice4InitEP13TfLiteContextPKcj,"ax",%progbits
  17              		.align	2
  18              		.global	_ZN6tflite3ops5micro13strided_slice4InitEP13TfLiteContextPKcj
  19              		.syntax unified
  20              		.arm
  21              		.fpu neon
  23              	_ZN6tflite3ops5micro13strided_slice4InitEP13TfLiteContextPKcj:
  24              		.fnstart
  25              	.LFB4519:
  26              		.file 1 "../src/tensorflow_lite/tensorflow/lite/micro/kernels/strided_slice.cc"
   1:../src/tensorflow_lite/tensorflow/lite/micro/kernels/strided_slice.cc **** /* Copyright 2018 The TensorFlow Authors. All Rights Reserved.
   2:../src/tensorflow_lite/tensorflow/lite/micro/kernels/strided_slice.cc **** 
   3:../src/tensorflow_lite/tensorflow/lite/micro/kernels/strided_slice.cc **** Licensed under the Apache License, Version 2.0 (the "License");
   4:../src/tensorflow_lite/tensorflow/lite/micro/kernels/strided_slice.cc **** you may not use this file except in compliance with the License.
   5:../src/tensorflow_lite/tensorflow/lite/micro/kernels/strided_slice.cc **** You may obtain a copy of the License at
   6:../src/tensorflow_lite/tensorflow/lite/micro/kernels/strided_slice.cc **** 
   7:../src/tensorflow_lite/tensorflow/lite/micro/kernels/strided_slice.cc ****     http://www.apache.org/licenses/LICENSE-2.0
   8:../src/tensorflow_lite/tensorflow/lite/micro/kernels/strided_slice.cc **** 
   9:../src/tensorflow_lite/tensorflow/lite/micro/kernels/strided_slice.cc **** Unless required by applicable law or agreed to in writing, software
  10:../src/tensorflow_lite/tensorflow/lite/micro/kernels/strided_slice.cc **** distributed under the License is distributed on an "AS IS" BASIS,
  11:../src/tensorflow_lite/tensorflow/lite/micro/kernels/strided_slice.cc **** WITHOUT WARRANTIES OR CONDITIONS OF ANY KIND, either express or implied.
  12:../src/tensorflow_lite/tensorflow/lite/micro/kernels/strided_slice.cc **** See the License for the specific language governing permissions and
  13:../src/tensorflow_lite/tensorflow/lite/micro/kernels/strided_slice.cc **** limitations under the License.
  14:../src/tensorflow_lite/tensorflow/lite/micro/kernels/strided_slice.cc **** ==============================================================================*/
  15:../src/tensorflow_lite/tensorflow/lite/micro/kernels/strided_slice.cc **** #include "tensorflow/lite/kernels/internal/reference/strided_slice.h"
  16:../src/tensorflow_lite/tensorflow/lite/micro/kernels/strided_slice.cc **** 
  17:../src/tensorflow_lite/tensorflow/lite/micro/kernels/strided_slice.cc **** #include <cmath>
  18:../src/tensorflow_lite/tensorflow/lite/micro/kernels/strided_slice.cc **** #include <cstring>
  19:../src/tensorflow_lite/tensorflow/lite/micro/kernels/strided_slice.cc **** 
  20:../src/tensorflow_lite/tensorflow/lite/micro/kernels/strided_slice.cc **** #include "tensorflow/lite/c/builtin_op_data.h"
  21:../src/tensorflow_lite/tensorflow/lite/micro/kernels/strided_slice.cc **** #include "tensorflow/lite/c/common.h"
  22:../src/tensorflow_lite/tensorflow/lite/micro/kernels/strided_slice.cc **** #include "tensorflow/lite/kernels/internal/tensor_ctypes.h"
  23:../src/tensorflow_lite/tensorflow/lite/micro/kernels/strided_slice.cc **** #include "tensorflow/lite/kernels/kernel_util.h"
  24:../src/tensorflow_lite/tensorflow/lite/micro/kernels/strided_slice.cc **** #include "tensorflow/lite/kernels/op_macros.h"
  25:../src/tensorflow_lite/tensorflow/lite/micro/kernels/strided_slice.cc **** #include "tensorflow/lite/micro/kernels/kernel_util.h"
  26:../src/tensorflow_lite/tensorflow/lite/micro/kernels/strided_slice.cc **** 
  27:../src/tensorflow_lite/tensorflow/lite/micro/kernels/strided_slice.cc **** namespace tflite {
  28:../src/tensorflow_lite/tensorflow/lite/micro/kernels/strided_slice.cc **** namespace ops {
  29:../src/tensorflow_lite/tensorflow/lite/micro/kernels/strided_slice.cc **** namespace micro {
  30:../src/tensorflow_lite/tensorflow/lite/micro/kernels/strided_slice.cc **** namespace strided_slice {
  31:../src/tensorflow_lite/tensorflow/lite/micro/kernels/strided_slice.cc **** 
  32:../src/tensorflow_lite/tensorflow/lite/micro/kernels/strided_slice.cc **** constexpr int kInputTensor = 0;
  33:../src/tensorflow_lite/tensorflow/lite/micro/kernels/strided_slice.cc **** constexpr int kBeginTensor = 1;
  34:../src/tensorflow_lite/tensorflow/lite/micro/kernels/strided_slice.cc **** constexpr int kEndTensor = 2;
  35:../src/tensorflow_lite/tensorflow/lite/micro/kernels/strided_slice.cc **** constexpr int kStridesTensor = 3;
  36:../src/tensorflow_lite/tensorflow/lite/micro/kernels/strided_slice.cc **** constexpr int kOutputTensor = 0;
  37:../src/tensorflow_lite/tensorflow/lite/micro/kernels/strided_slice.cc **** 
  38:../src/tensorflow_lite/tensorflow/lite/micro/kernels/strided_slice.cc **** struct StridedSliceContext {
  39:../src/tensorflow_lite/tensorflow/lite/micro/kernels/strided_slice.cc ****   StridedSliceContext(TfLiteContext* context, TfLiteNode* node) {
  40:../src/tensorflow_lite/tensorflow/lite/micro/kernels/strided_slice.cc ****     params = reinterpret_cast<TfLiteStridedSliceParams*>(node->builtin_data);
  41:../src/tensorflow_lite/tensorflow/lite/micro/kernels/strided_slice.cc ****     input = GetInput(context, node, kInputTensor);
  42:../src/tensorflow_lite/tensorflow/lite/micro/kernels/strided_slice.cc ****     begin = GetInput(context, node, kBeginTensor);
  43:../src/tensorflow_lite/tensorflow/lite/micro/kernels/strided_slice.cc ****     end = GetInput(context, node, kEndTensor);
  44:../src/tensorflow_lite/tensorflow/lite/micro/kernels/strided_slice.cc ****     strides = GetInput(context, node, kStridesTensor);
  45:../src/tensorflow_lite/tensorflow/lite/micro/kernels/strided_slice.cc ****     output = GetOutput(context, node, kOutputTensor);
  46:../src/tensorflow_lite/tensorflow/lite/micro/kernels/strided_slice.cc ****     dims = NumDimensions(input);
  47:../src/tensorflow_lite/tensorflow/lite/micro/kernels/strided_slice.cc ****   }
  48:../src/tensorflow_lite/tensorflow/lite/micro/kernels/strided_slice.cc ****   const TfLiteStridedSliceParams* params;
  49:../src/tensorflow_lite/tensorflow/lite/micro/kernels/strided_slice.cc ****   const TfLiteTensor* input;
  50:../src/tensorflow_lite/tensorflow/lite/micro/kernels/strided_slice.cc ****   const TfLiteTensor* begin;
  51:../src/tensorflow_lite/tensorflow/lite/micro/kernels/strided_slice.cc ****   const TfLiteTensor* end;
  52:../src/tensorflow_lite/tensorflow/lite/micro/kernels/strided_slice.cc ****   const TfLiteTensor* strides;
  53:../src/tensorflow_lite/tensorflow/lite/micro/kernels/strided_slice.cc ****   TfLiteTensor* output;
  54:../src/tensorflow_lite/tensorflow/lite/micro/kernels/strided_slice.cc ****   int dims;
  55:../src/tensorflow_lite/tensorflow/lite/micro/kernels/strided_slice.cc **** };
  56:../src/tensorflow_lite/tensorflow/lite/micro/kernels/strided_slice.cc **** 
  57:../src/tensorflow_lite/tensorflow/lite/micro/kernels/strided_slice.cc **** // This Op only supports 1-4D cases and since we use the reference 4D
  58:../src/tensorflow_lite/tensorflow/lite/micro/kernels/strided_slice.cc **** // implementation, the 1-3D tensors are mapped to 4D.
  59:../src/tensorflow_lite/tensorflow/lite/micro/kernels/strided_slice.cc **** const int kMaxDim = 4;
  60:../src/tensorflow_lite/tensorflow/lite/micro/kernels/strided_slice.cc **** 
  61:../src/tensorflow_lite/tensorflow/lite/micro/kernels/strided_slice.cc **** tflite::StridedSliceParams BuildStridedSliceParams(
  62:../src/tensorflow_lite/tensorflow/lite/micro/kernels/strided_slice.cc ****     StridedSliceContext* op_context) {
  63:../src/tensorflow_lite/tensorflow/lite/micro/kernels/strided_slice.cc ****   tflite::StridedSliceParams op_params;
  64:../src/tensorflow_lite/tensorflow/lite/micro/kernels/strided_slice.cc ****   op_params.start_indices_count = op_context->dims;
  65:../src/tensorflow_lite/tensorflow/lite/micro/kernels/strided_slice.cc ****   op_params.stop_indices_count = op_context->dims;
  66:../src/tensorflow_lite/tensorflow/lite/micro/kernels/strided_slice.cc ****   op_params.strides_count = op_context->dims;
  67:../src/tensorflow_lite/tensorflow/lite/micro/kernels/strided_slice.cc **** 
  68:../src/tensorflow_lite/tensorflow/lite/micro/kernels/strided_slice.cc ****   for (int i = 0; i < op_context->dims; ++i) {
  69:../src/tensorflow_lite/tensorflow/lite/micro/kernels/strided_slice.cc ****     op_params.start_indices[i] = GetTensorData<int32_t>(op_context->begin)[i];
  70:../src/tensorflow_lite/tensorflow/lite/micro/kernels/strided_slice.cc ****     op_params.stop_indices[i] = GetTensorData<int32_t>(op_context->end)[i];
  71:../src/tensorflow_lite/tensorflow/lite/micro/kernels/strided_slice.cc ****     op_params.strides[i] = GetTensorData<int32_t>(op_context->strides)[i];
  72:../src/tensorflow_lite/tensorflow/lite/micro/kernels/strided_slice.cc ****   }
  73:../src/tensorflow_lite/tensorflow/lite/micro/kernels/strided_slice.cc **** 
  74:../src/tensorflow_lite/tensorflow/lite/micro/kernels/strided_slice.cc ****   op_params.begin_mask = op_context->params->begin_mask;
  75:../src/tensorflow_lite/tensorflow/lite/micro/kernels/strided_slice.cc ****   op_params.ellipsis_mask = 0;
  76:../src/tensorflow_lite/tensorflow/lite/micro/kernels/strided_slice.cc ****   op_params.end_mask = op_context->params->end_mask;
  77:../src/tensorflow_lite/tensorflow/lite/micro/kernels/strided_slice.cc ****   op_params.new_axis_mask = 0;
  78:../src/tensorflow_lite/tensorflow/lite/micro/kernels/strided_slice.cc ****   op_params.shrink_axis_mask = op_context->params->shrink_axis_mask;
  79:../src/tensorflow_lite/tensorflow/lite/micro/kernels/strided_slice.cc ****   return op_params;
  80:../src/tensorflow_lite/tensorflow/lite/micro/kernels/strided_slice.cc **** }
  81:../src/tensorflow_lite/tensorflow/lite/micro/kernels/strided_slice.cc **** 
  82:../src/tensorflow_lite/tensorflow/lite/micro/kernels/strided_slice.cc **** // Processes the indexing tensors (begin, end and strides) to resize the
  83:../src/tensorflow_lite/tensorflow/lite/micro/kernels/strided_slice.cc **** // output tensor. This function is callable from both Prepare() and Eval() as
  84:../src/tensorflow_lite/tensorflow/lite/micro/kernels/strided_slice.cc **** // long as the caller ensures the indexing tensors are present.
  85:../src/tensorflow_lite/tensorflow/lite/micro/kernels/strided_slice.cc **** TfLiteStatus CheckOutputSize(TfLiteContext* context,
  86:../src/tensorflow_lite/tensorflow/lite/micro/kernels/strided_slice.cc ****                              StridedSliceContext* op_context) {
  87:../src/tensorflow_lite/tensorflow/lite/micro/kernels/strided_slice.cc ****   using ::tflite::strided_slice::StartForAxis;
  88:../src/tensorflow_lite/tensorflow/lite/micro/kernels/strided_slice.cc ****   using ::tflite::strided_slice::StopForAxis;
  89:../src/tensorflow_lite/tensorflow/lite/micro/kernels/strided_slice.cc ****   TfLiteIntArray* output_shape = op_context->output->dims;
  90:../src/tensorflow_lite/tensorflow/lite/micro/kernels/strided_slice.cc ****   int shape_size = 0;
  91:../src/tensorflow_lite/tensorflow/lite/micro/kernels/strided_slice.cc ****   auto op_params = BuildStridedSliceParams(op_context);
  92:../src/tensorflow_lite/tensorflow/lite/micro/kernels/strided_slice.cc ****   auto input_shape = GetTensorShape(op_context->input);
  93:../src/tensorflow_lite/tensorflow/lite/micro/kernels/strided_slice.cc ****   for (int idx = 0; idx < op_context->dims; ++idx) {
  94:../src/tensorflow_lite/tensorflow/lite/micro/kernels/strided_slice.cc ****     int32_t stride = GetTensorData<int32_t>(op_context->strides)[idx];
  95:../src/tensorflow_lite/tensorflow/lite/micro/kernels/strided_slice.cc ****     TF_LITE_ENSURE_MSG(context, stride != 0, "stride value has to be non-zero");
  96:../src/tensorflow_lite/tensorflow/lite/micro/kernels/strided_slice.cc ****     int32_t begin = StartForAxis(op_params, input_shape, idx);
  97:../src/tensorflow_lite/tensorflow/lite/micro/kernels/strided_slice.cc ****     int32_t end = StopForAxis(op_params, input_shape, idx, begin);
  98:../src/tensorflow_lite/tensorflow/lite/micro/kernels/strided_slice.cc **** 
  99:../src/tensorflow_lite/tensorflow/lite/micro/kernels/strided_slice.cc ****     // When shrinking an axis, the end position does not matter (and can be
 100:../src/tensorflow_lite/tensorflow/lite/micro/kernels/strided_slice.cc ****     // incorrect when negative indexing is used, see Issue #19260). Always use
 101:../src/tensorflow_lite/tensorflow/lite/micro/kernels/strided_slice.cc ****     // begin + 1 to generate a length 1 slice, since begin has
 102:../src/tensorflow_lite/tensorflow/lite/micro/kernels/strided_slice.cc ****     // already been adjusted for negative indices by StartForAxis.
 103:../src/tensorflow_lite/tensorflow/lite/micro/kernels/strided_slice.cc ****     const bool shrink_axis = op_context->params->shrink_axis_mask & (1 << idx);
 104:../src/tensorflow_lite/tensorflow/lite/micro/kernels/strided_slice.cc ****     if (shrink_axis) {
 105:../src/tensorflow_lite/tensorflow/lite/micro/kernels/strided_slice.cc ****       end = begin + 1;
 106:../src/tensorflow_lite/tensorflow/lite/micro/kernels/strided_slice.cc ****     }
 107:../src/tensorflow_lite/tensorflow/lite/micro/kernels/strided_slice.cc **** 
 108:../src/tensorflow_lite/tensorflow/lite/micro/kernels/strided_slice.cc ****     // This is valid for both positive and negative strides
 109:../src/tensorflow_lite/tensorflow/lite/micro/kernels/strided_slice.cc ****     int32_t dim_shape = std::ceil((end - begin) / static_cast<float>(stride));
 110:../src/tensorflow_lite/tensorflow/lite/micro/kernels/strided_slice.cc ****     dim_shape = dim_shape < 0 ? 0 : dim_shape;
 111:../src/tensorflow_lite/tensorflow/lite/micro/kernels/strided_slice.cc ****     if (!shrink_axis) {
 112:../src/tensorflow_lite/tensorflow/lite/micro/kernels/strided_slice.cc ****       TF_LITE_ENSURE_EQ(context, output_shape->data[shape_size], dim_shape);
 113:../src/tensorflow_lite/tensorflow/lite/micro/kernels/strided_slice.cc ****       shape_size++;
 114:../src/tensorflow_lite/tensorflow/lite/micro/kernels/strided_slice.cc ****     }
 115:../src/tensorflow_lite/tensorflow/lite/micro/kernels/strided_slice.cc ****   }
 116:../src/tensorflow_lite/tensorflow/lite/micro/kernels/strided_slice.cc ****   TF_LITE_ENSURE_EQ(context, output_shape->size, shape_size);
 117:../src/tensorflow_lite/tensorflow/lite/micro/kernels/strided_slice.cc ****   return kTfLiteOk;
 118:../src/tensorflow_lite/tensorflow/lite/micro/kernels/strided_slice.cc **** }
 119:../src/tensorflow_lite/tensorflow/lite/micro/kernels/strided_slice.cc **** 
 120:../src/tensorflow_lite/tensorflow/lite/micro/kernels/strided_slice.cc **** void* Init(TfLiteContext* context, const char* buffer, size_t length) {
  27              		.loc 1 120 0
  28              		.cfi_startproc
  29              		@ args = 0, pretend = 0, frame = 0
  30              		@ frame_needed = 0, uses_anonymous_args = 0
  31              	.LVL0:
 121:../src/tensorflow_lite/tensorflow/lite/micro/kernels/strided_slice.cc ****   TFLITE_DCHECK(context->AllocatePersistentBuffer != nullptr);
  32              		.loc 1 121 0
  33 0000 383090E5 		ldr	r3, [r0, #56]
  34 0004 000053E3 		cmp	r3, #0
  35 0008 0100000A 		beq	.L7
 122:../src/tensorflow_lite/tensorflow/lite/micro/kernels/strided_slice.cc ****   return context->AllocatePersistentBuffer(context, sizeof(StridedSliceParams));
  36              		.loc 1 122 0
  37 000c 5410A0E3 		mov	r1, #84
  38              	.LVL1:
  39 0010 13FF2FE1 		bx	r3
  40              	.LVL2:
  41              	.L7:
 120:../src/tensorflow_lite/tensorflow/lite/micro/kernels/strided_slice.cc ****   TFLITE_DCHECK(context->AllocatePersistentBuffer != nullptr);
  42              		.loc 1 120 0 discriminator 1
  43 0014 10402DE9 		push	{r4, lr}
  44              		.save {r4, lr}
  45              		.cfi_def_cfa_offset 8
  46              		.cfi_offset 4, -8
  47              		.cfi_offset 14, -4
 121:../src/tensorflow_lite/tensorflow/lite/micro/kernels/strided_slice.cc ****   TFLITE_DCHECK(context->AllocatePersistentBuffer != nullptr);
  48              		.loc 1 121 0 discriminator 1
  49 0018 FEFFFFEB 		bl	abort
  50              	.LVL3:
  51              		.cfi_endproc
  52              	.LFE4519:
  53              		.fnend
  55              		.section	.text._ZN6tflite3ops5micro13strided_slice4EvalEP13TfLiteContextP10TfLiteNode,"ax",%progbi
  56              		.align	2
  57              		.global	_ZN6tflite3ops5micro13strided_slice4EvalEP13TfLiteContextP10TfLiteNode
  58              		.syntax unified
  59              		.arm
  60              		.fpu neon
  62              	_ZN6tflite3ops5micro13strided_slice4EvalEP13TfLiteContextP10TfLiteNode:
  63              		.fnstart
  64              	.LFB4521:
 123:../src/tensorflow_lite/tensorflow/lite/micro/kernels/strided_slice.cc **** }
 124:../src/tensorflow_lite/tensorflow/lite/micro/kernels/strided_slice.cc **** 
 125:../src/tensorflow_lite/tensorflow/lite/micro/kernels/strided_slice.cc **** TfLiteStatus Prepare(TfLiteContext* context, TfLiteNode* node) {
 126:../src/tensorflow_lite/tensorflow/lite/micro/kernels/strided_slice.cc ****   TFLITE_DCHECK(node->user_data != nullptr);
 127:../src/tensorflow_lite/tensorflow/lite/micro/kernels/strided_slice.cc ****   StridedSliceParams* op_params =
 128:../src/tensorflow_lite/tensorflow/lite/micro/kernels/strided_slice.cc ****       static_cast<StridedSliceParams*>(node->user_data);
 129:../src/tensorflow_lite/tensorflow/lite/micro/kernels/strided_slice.cc ****   TF_LITE_ENSURE_EQ(context, NumInputs(node), 4);
 130:../src/tensorflow_lite/tensorflow/lite/micro/kernels/strided_slice.cc ****   TF_LITE_ENSURE_EQ(context, NumOutputs(node), 1);
 131:../src/tensorflow_lite/tensorflow/lite/micro/kernels/strided_slice.cc ****   StridedSliceContext op_context(context, node);
 132:../src/tensorflow_lite/tensorflow/lite/micro/kernels/strided_slice.cc ****   TF_LITE_ENSURE_MSG(context, op_context.dims <= kMaxDim,
 133:../src/tensorflow_lite/tensorflow/lite/micro/kernels/strided_slice.cc ****                      "input dim should not exceed 4");
 134:../src/tensorflow_lite/tensorflow/lite/micro/kernels/strided_slice.cc ****   auto params = BuildStridedSliceParams(&op_context);
 135:../src/tensorflow_lite/tensorflow/lite/micro/kernels/strided_slice.cc ****   memcpy(op_params, &params, sizeof(StridedSliceParams));
 136:../src/tensorflow_lite/tensorflow/lite/micro/kernels/strided_slice.cc ****   return CheckOutputSize(context, &op_context);
 137:../src/tensorflow_lite/tensorflow/lite/micro/kernels/strided_slice.cc **** }
 138:../src/tensorflow_lite/tensorflow/lite/micro/kernels/strided_slice.cc **** 
 139:../src/tensorflow_lite/tensorflow/lite/micro/kernels/strided_slice.cc **** TfLiteStatus Eval(TfLiteContext* context, TfLiteNode* node) {
  65              		.loc 1 139 0
  66              		.cfi_startproc
  67              		.cfi_personality 0,__gxx_personality_v0
  68              		.cfi_lsda 0,.LLSDA4521
  69              		@ args = 0, pretend = 0, frame = 328
  70              		@ frame_needed = 0, uses_anonymous_args = 0
  71              	.LVL4:
  72 0000 F04F2DE9 		push	{r4, r5, r6, r7, r8, r9, r10, fp, lr}
  73              		.save {r4, r5, r6, r7, r8, r9, r10, fp, lr}
  74              		.cfi_def_cfa_offset 36
  75              		.cfi_offset 4, -36
  76              		.cfi_offset 5, -32
  77              		.cfi_offset 6, -28
  78              		.cfi_offset 7, -24
  79              		.cfi_offset 8, -20
  80              		.cfi_offset 9, -16
  81              		.cfi_offset 10, -12
  82              		.cfi_offset 11, -8
  83              		.cfi_offset 14, -4
  84              		.pad #332
  85 0004 53DF4DE2 		sub	sp, sp, #332
  86              		.cfi_def_cfa_offset 368
 140:../src/tensorflow_lite/tensorflow/lite/micro/kernels/strided_slice.cc ****   TFLITE_DCHECK(node->user_data != nullptr);
  87              		.loc 1 140 0
  88 0008 104091E5 		ldr	r4, [r1, #16]
  89 000c 000054E3 		cmp	r4, #0
  90 0010 2100000A 		beq	.L10
  91              	.LBB859:
  92              	.LBB860:
  93              	.LBB861:
  94              		.file 2 "C:/Renesas/e2studio_2021_01_workspace_RZA2M_ANPR/ANPR_RZA2M_EBK/src/tensorflow_lite/tenso
   1:C:/Renesas/e2studio_2021_01_workspace_RZA2M_ANPR/ANPR_RZA2M_EBK/src/tensorflow_lite/tensorflow/lite/micro/kernels\kernel_util.h **** /* Copyright 2020 The TensorFlow Authors. All Rights Reserved.
   2:C:/Renesas/e2studio_2021_01_workspace_RZA2M_ANPR/ANPR_RZA2M_EBK/src/tensorflow_lite/tensorflow/lite/micro/kernels\kernel_util.h **** 
   3:C:/Renesas/e2studio_2021_01_workspace_RZA2M_ANPR/ANPR_RZA2M_EBK/src/tensorflow_lite/tensorflow/lite/micro/kernels\kernel_util.h **** Licensed under the Apache License, Version 2.0 (the "License");
   4:C:/Renesas/e2studio_2021_01_workspace_RZA2M_ANPR/ANPR_RZA2M_EBK/src/tensorflow_lite/tensorflow/lite/micro/kernels\kernel_util.h **** you may not use this file except in compliance with the License.
   5:C:/Renesas/e2studio_2021_01_workspace_RZA2M_ANPR/ANPR_RZA2M_EBK/src/tensorflow_lite/tensorflow/lite/micro/kernels\kernel_util.h **** You may obtain a copy of the License at
   6:C:/Renesas/e2studio_2021_01_workspace_RZA2M_ANPR/ANPR_RZA2M_EBK/src/tensorflow_lite/tensorflow/lite/micro/kernels\kernel_util.h **** 
   7:C:/Renesas/e2studio_2021_01_workspace_RZA2M_ANPR/ANPR_RZA2M_EBK/src/tensorflow_lite/tensorflow/lite/micro/kernels\kernel_util.h ****     http://www.apache.org/licenses/LICENSE-2.0
   8:C:/Renesas/e2studio_2021_01_workspace_RZA2M_ANPR/ANPR_RZA2M_EBK/src/tensorflow_lite/tensorflow/lite/micro/kernels\kernel_util.h **** 
   9:C:/Renesas/e2studio_2021_01_workspace_RZA2M_ANPR/ANPR_RZA2M_EBK/src/tensorflow_lite/tensorflow/lite/micro/kernels\kernel_util.h **** Unless required by applicable law or agreed to in writing, software
  10:C:/Renesas/e2studio_2021_01_workspace_RZA2M_ANPR/ANPR_RZA2M_EBK/src/tensorflow_lite/tensorflow/lite/micro/kernels\kernel_util.h **** distributed under the License is distributed on an "AS IS" BASIS,
  11:C:/Renesas/e2studio_2021_01_workspace_RZA2M_ANPR/ANPR_RZA2M_EBK/src/tensorflow_lite/tensorflow/lite/micro/kernels\kernel_util.h **** WITHOUT WARRANTIES OR CONDITIONS OF ANY KIND, either express or implied.
  12:C:/Renesas/e2studio_2021_01_workspace_RZA2M_ANPR/ANPR_RZA2M_EBK/src/tensorflow_lite/tensorflow/lite/micro/kernels\kernel_util.h **** See the License for the specific language governing permissions and
  13:C:/Renesas/e2studio_2021_01_workspace_RZA2M_ANPR/ANPR_RZA2M_EBK/src/tensorflow_lite/tensorflow/lite/micro/kernels\kernel_util.h **** limitations under the License.
  14:C:/Renesas/e2studio_2021_01_workspace_RZA2M_ANPR/ANPR_RZA2M_EBK/src/tensorflow_lite/tensorflow/lite/micro/kernels\kernel_util.h **** ==============================================================================*/
  15:C:/Renesas/e2studio_2021_01_workspace_RZA2M_ANPR/ANPR_RZA2M_EBK/src/tensorflow_lite/tensorflow/lite/micro/kernels\kernel_util.h **** 
  16:C:/Renesas/e2studio_2021_01_workspace_RZA2M_ANPR/ANPR_RZA2M_EBK/src/tensorflow_lite/tensorflow/lite/micro/kernels\kernel_util.h **** #ifndef TENSORFLOW_LITE_MICRO_KERNELS_KERNEL_UTIL_H_
  17:C:/Renesas/e2studio_2021_01_workspace_RZA2M_ANPR/ANPR_RZA2M_EBK/src/tensorflow_lite/tensorflow/lite/micro/kernels\kernel_util.h **** #define TENSORFLOW_LITE_MICRO_KERNELS_KERNEL_UTIL_H_
  18:C:/Renesas/e2studio_2021_01_workspace_RZA2M_ANPR/ANPR_RZA2M_EBK/src/tensorflow_lite/tensorflow/lite/micro/kernels\kernel_util.h **** 
  19:C:/Renesas/e2studio_2021_01_workspace_RZA2M_ANPR/ANPR_RZA2M_EBK/src/tensorflow_lite/tensorflow/lite/micro/kernels\kernel_util.h **** #include <cstdint>
  20:C:/Renesas/e2studio_2021_01_workspace_RZA2M_ANPR/ANPR_RZA2M_EBK/src/tensorflow_lite/tensorflow/lite/micro/kernels\kernel_util.h **** 
  21:C:/Renesas/e2studio_2021_01_workspace_RZA2M_ANPR/ANPR_RZA2M_EBK/src/tensorflow_lite/tensorflow/lite/micro/kernels\kernel_util.h **** #include "tensorflow/lite/c/builtin_op_data.h"
  22:C:/Renesas/e2studio_2021_01_workspace_RZA2M_ANPR/ANPR_RZA2M_EBK/src/tensorflow_lite/tensorflow/lite/micro/kernels\kernel_util.h **** #include "tensorflow/lite/c/common.h"
  23:C:/Renesas/e2studio_2021_01_workspace_RZA2M_ANPR/ANPR_RZA2M_EBK/src/tensorflow_lite/tensorflow/lite/micro/kernels\kernel_util.h **** #include "tensorflow/lite/kernels/internal/compatibility.h"
  24:C:/Renesas/e2studio_2021_01_workspace_RZA2M_ANPR/ANPR_RZA2M_EBK/src/tensorflow_lite/tensorflow/lite/micro/kernels\kernel_util.h **** #include "tensorflow/lite/kernels/internal/types.h"
  25:C:/Renesas/e2studio_2021_01_workspace_RZA2M_ANPR/ANPR_RZA2M_EBK/src/tensorflow_lite/tensorflow/lite/micro/kernels\kernel_util.h **** 
  26:C:/Renesas/e2studio_2021_01_workspace_RZA2M_ANPR/ANPR_RZA2M_EBK/src/tensorflow_lite/tensorflow/lite/micro/kernels\kernel_util.h **** namespace tflite {
  27:C:/Renesas/e2studio_2021_01_workspace_RZA2M_ANPR/ANPR_RZA2M_EBK/src/tensorflow_lite/tensorflow/lite/micro/kernels\kernel_util.h **** namespace micro {
  28:C:/Renesas/e2studio_2021_01_workspace_RZA2M_ANPR/ANPR_RZA2M_EBK/src/tensorflow_lite/tensorflow/lite/micro/kernels\kernel_util.h **** 
  29:C:/Renesas/e2studio_2021_01_workspace_RZA2M_ANPR/ANPR_RZA2M_EBK/src/tensorflow_lite/tensorflow/lite/micro/kernels\kernel_util.h **** // Returns a mutable tensor for a given input index. is_variable must be checked
  30:C:/Renesas/e2studio_2021_01_workspace_RZA2M_ANPR/ANPR_RZA2M_EBK/src/tensorflow_lite/tensorflow/lite/micro/kernels\kernel_util.h **** // during prepare when the full TfLiteTensor is available.
  31:C:/Renesas/e2studio_2021_01_workspace_RZA2M_ANPR/ANPR_RZA2M_EBK/src/tensorflow_lite/tensorflow/lite/micro/kernels\kernel_util.h **** inline TfLiteEvalTensor* GetMutableEvalInput(const TfLiteContext* context,
  32:C:/Renesas/e2studio_2021_01_workspace_RZA2M_ANPR/ANPR_RZA2M_EBK/src/tensorflow_lite/tensorflow/lite/micro/kernels\kernel_util.h ****                                              const TfLiteNode* node,
  33:C:/Renesas/e2studio_2021_01_workspace_RZA2M_ANPR/ANPR_RZA2M_EBK/src/tensorflow_lite/tensorflow/lite/micro/kernels\kernel_util.h ****                                              int index) {
  34:C:/Renesas/e2studio_2021_01_workspace_RZA2M_ANPR/ANPR_RZA2M_EBK/src/tensorflow_lite/tensorflow/lite/micro/kernels\kernel_util.h ****   TFLITE_DCHECK(context != nullptr);
  95              		.loc 2 34 0
  96 0014 000050E3 		cmp	r0, #0
  97 0018 0070A0E1 		mov	r7, r0
  98              	.LVL5:
  99 001c 1E00000A 		beq	.L10
  35:C:/Renesas/e2studio_2021_01_workspace_RZA2M_ANPR/ANPR_RZA2M_EBK/src/tensorflow_lite/tensorflow/lite/micro/kernels\kernel_util.h ****   TFLITE_DCHECK(node != nullptr);
  36:C:/Renesas/e2studio_2021_01_workspace_RZA2M_ANPR/ANPR_RZA2M_EBK/src/tensorflow_lite/tensorflow/lite/micro/kernels\kernel_util.h ****   return context->GetEvalTensor(context, node->inputs->data[index]);
 100              		.loc 2 36 0
 101 0020 002091E5 		ldr	r2, [r1]
 102 0024 0160A0E1 		mov	r6, r1
 103 0028 543090E5 		ldr	r3, [r0, #84]
 104 002c 041092E5 		ldr	r1, [r2, #4]
 105              	.LVL6:
 106              	.LEHB0:
 107 0030 33FF2FE1 		blx	r3
 108              	.LVL7:
 109              	.LBE861:
 110              	.LBE860:
 111              	.LBE859:
 112              	.LBB864:
 113              	.LBB865:
  37:C:/Renesas/e2studio_2021_01_workspace_RZA2M_ANPR/ANPR_RZA2M_EBK/src/tensorflow_lite/tensorflow/lite/micro/kernels\kernel_util.h **** }
  38:C:/Renesas/e2studio_2021_01_workspace_RZA2M_ANPR/ANPR_RZA2M_EBK/src/tensorflow_lite/tensorflow/lite/micro/kernels\kernel_util.h **** 
  39:C:/Renesas/e2studio_2021_01_workspace_RZA2M_ANPR/ANPR_RZA2M_EBK/src/tensorflow_lite/tensorflow/lite/micro/kernels\kernel_util.h **** // Returns the TfLiteEvalTensor struct for a given input index in a node.
  40:C:/Renesas/e2studio_2021_01_workspace_RZA2M_ANPR/ANPR_RZA2M_EBK/src/tensorflow_lite/tensorflow/lite/micro/kernels\kernel_util.h **** inline const TfLiteEvalTensor* GetEvalInput(const TfLiteContext* context,
  41:C:/Renesas/e2studio_2021_01_workspace_RZA2M_ANPR/ANPR_RZA2M_EBK/src/tensorflow_lite/tensorflow/lite/micro/kernels\kernel_util.h ****                                             const TfLiteNode* node, int index) {
  42:C:/Renesas/e2studio_2021_01_workspace_RZA2M_ANPR/ANPR_RZA2M_EBK/src/tensorflow_lite/tensorflow/lite/micro/kernels\kernel_util.h ****   return GetMutableEvalInput(context, node, index);
  43:C:/Renesas/e2studio_2021_01_workspace_RZA2M_ANPR/ANPR_RZA2M_EBK/src/tensorflow_lite/tensorflow/lite/micro/kernels\kernel_util.h **** }
  44:C:/Renesas/e2studio_2021_01_workspace_RZA2M_ANPR/ANPR_RZA2M_EBK/src/tensorflow_lite/tensorflow/lite/micro/kernels\kernel_util.h **** 
  45:C:/Renesas/e2studio_2021_01_workspace_RZA2M_ANPR/ANPR_RZA2M_EBK/src/tensorflow_lite/tensorflow/lite/micro/kernels\kernel_util.h **** // Returns the TfLiteEvalTensor struct for a given output index in a node.
  46:C:/Renesas/e2studio_2021_01_workspace_RZA2M_ANPR/ANPR_RZA2M_EBK/src/tensorflow_lite/tensorflow/lite/micro/kernels\kernel_util.h **** inline TfLiteEvalTensor* GetEvalOutput(const TfLiteContext* context,
  47:C:/Renesas/e2studio_2021_01_workspace_RZA2M_ANPR/ANPR_RZA2M_EBK/src/tensorflow_lite/tensorflow/lite/micro/kernels\kernel_util.h ****                                        const TfLiteNode* node, int index) {
  48:C:/Renesas/e2studio_2021_01_workspace_RZA2M_ANPR/ANPR_RZA2M_EBK/src/tensorflow_lite/tensorflow/lite/micro/kernels\kernel_util.h ****   TFLITE_DCHECK(context != nullptr);
  49:C:/Renesas/e2studio_2021_01_workspace_RZA2M_ANPR/ANPR_RZA2M_EBK/src/tensorflow_lite/tensorflow/lite/micro/kernels\kernel_util.h ****   TFLITE_DCHECK(node != nullptr);
  50:C:/Renesas/e2studio_2021_01_workspace_RZA2M_ANPR/ANPR_RZA2M_EBK/src/tensorflow_lite/tensorflow/lite/micro/kernels\kernel_util.h ****   return context->GetEvalTensor(context, node->outputs->data[index]);
 114              		.loc 2 50 0
 115 0034 042096E5 		ldr	r2, [r6, #4]
 116              	.LBE865:
 117              	.LBE864:
 118              	.LBB868:
 119              	.LBB863:
 120              	.LBB862:
  36:C:/Renesas/e2studio_2021_01_workspace_RZA2M_ANPR/ANPR_RZA2M_EBK/src/tensorflow_lite/tensorflow/lite/micro/kernels\kernel_util.h **** }
 121              		.loc 2 36 0
 122 0038 0050A0E1 		mov	r5, r0
 123              	.LVL8:
 124              	.LBE862:
 125              	.LBE863:
 126              	.LBE868:
 127              	.LBB869:
 128              	.LBB866:
 129              		.loc 2 50 0
 130 003c 543097E5 		ldr	r3, [r7, #84]
 131 0040 0700A0E1 		mov	r0, r7
 132 0044 041092E5 		ldr	r1, [r2, #4]
 133 0048 33FF2FE1 		blx	r3
 134              	.LVL9:
 135              	.LBE866:
 136              	.LBE869:
 141:../src/tensorflow_lite/tensorflow/lite/micro/kernels/strided_slice.cc ****   const StridedSliceParams& op_params =
 142:../src/tensorflow_lite/tensorflow/lite/micro/kernels/strided_slice.cc ****       *(static_cast<const StridedSliceParams*>(node->user_data));
 143:../src/tensorflow_lite/tensorflow/lite/micro/kernels/strided_slice.cc **** 
 144:../src/tensorflow_lite/tensorflow/lite/micro/kernels/strided_slice.cc ****   const TfLiteEvalTensor* input =
 145:../src/tensorflow_lite/tensorflow/lite/micro/kernels/strided_slice.cc ****       tflite::micro::GetEvalInput(context, node, kInputTensor);
 146:../src/tensorflow_lite/tensorflow/lite/micro/kernels/strided_slice.cc ****   TfLiteEvalTensor* output =
 147:../src/tensorflow_lite/tensorflow/lite/micro/kernels/strided_slice.cc ****       tflite::micro::GetEvalOutput(context, node, kOutputTensor);
 148:../src/tensorflow_lite/tensorflow/lite/micro/kernels/strided_slice.cc ****   switch (output->type) {
 137              		.loc 1 148 0
 138 004c 0830D0E5 		ldrb	r3, [r0, #8]	@ zero_extendqisi2
 139              	.LBB870:
 140              	.LBB867:
 141              		.loc 2 50 0
 142 0050 0060A0E1 		mov	r6, r0
 143              	.LVL10:
 144              	.LBE867:
 145              	.LBE870:
 146              		.loc 1 148 0
 147 0054 030053E3 		cmp	r3, #3
 148 0058 7000000A 		beq	.L12
 149 005c 090053E3 		cmp	r3, #9
 150 0060 3E00000A 		beq	.L13
 151 0064 010053E3 		cmp	r3, #1
 152 0068 0C00000A 		beq	.L1049
 149:../src/tensorflow_lite/tensorflow/lite/micro/kernels/strided_slice.cc ****     case kTfLiteFloat32:
 150:../src/tensorflow_lite/tensorflow/lite/micro/kernels/strided_slice.cc ****       reference_ops::StridedSlice(op_params,
 151:../src/tensorflow_lite/tensorflow/lite/micro/kernels/strided_slice.cc ****                                   tflite::micro::GetTensorShape(input),
 152:../src/tensorflow_lite/tensorflow/lite/micro/kernels/strided_slice.cc ****                                   tflite::micro::GetTensorData<float>(input),
 153:../src/tensorflow_lite/tensorflow/lite/micro/kernels/strided_slice.cc ****                                   tflite::micro::GetTensorShape(output),
 154:../src/tensorflow_lite/tensorflow/lite/micro/kernels/strided_slice.cc ****                                   tflite::micro::GetTensorData<float>(output));
 155:../src/tensorflow_lite/tensorflow/lite/micro/kernels/strided_slice.cc ****       break;
 156:../src/tensorflow_lite/tensorflow/lite/micro/kernels/strided_slice.cc ****     case kTfLiteUInt8:
 157:../src/tensorflow_lite/tensorflow/lite/micro/kernels/strided_slice.cc ****       reference_ops::StridedSlice(
 158:../src/tensorflow_lite/tensorflow/lite/micro/kernels/strided_slice.cc ****           op_params, tflite::micro::GetTensorShape(input),
 159:../src/tensorflow_lite/tensorflow/lite/micro/kernels/strided_slice.cc ****           tflite::micro::GetTensorData<uint8_t>(input),
 160:../src/tensorflow_lite/tensorflow/lite/micro/kernels/strided_slice.cc ****           tflite::micro::GetTensorShape(output),
 161:../src/tensorflow_lite/tensorflow/lite/micro/kernels/strided_slice.cc ****           tflite::micro::GetTensorData<uint8_t>(output));
 162:../src/tensorflow_lite/tensorflow/lite/micro/kernels/strided_slice.cc ****       break;
 163:../src/tensorflow_lite/tensorflow/lite/micro/kernels/strided_slice.cc ****     case kTfLiteInt8:
 164:../src/tensorflow_lite/tensorflow/lite/micro/kernels/strided_slice.cc ****       reference_ops::StridedSlice(op_params,
 165:../src/tensorflow_lite/tensorflow/lite/micro/kernels/strided_slice.cc ****                                   tflite::micro::GetTensorShape(input),
 166:../src/tensorflow_lite/tensorflow/lite/micro/kernels/strided_slice.cc ****                                   tflite::micro::GetTensorData<int8_t>(input),
 167:../src/tensorflow_lite/tensorflow/lite/micro/kernels/strided_slice.cc ****                                   tflite::micro::GetTensorShape(output),
 168:../src/tensorflow_lite/tensorflow/lite/micro/kernels/strided_slice.cc ****                                   tflite::micro::GetTensorData<int8_t>(output));
 169:../src/tensorflow_lite/tensorflow/lite/micro/kernels/strided_slice.cc ****       break;
 170:../src/tensorflow_lite/tensorflow/lite/micro/kernels/strided_slice.cc ****     default:
 171:../src/tensorflow_lite/tensorflow/lite/micro/kernels/strided_slice.cc ****       TF_LITE_KERNEL_LOG(context, "Type %s (%d) not supported.",
 153              		.loc 1 171 0
 154 006c 0800D5E5 		ldrb	r0, [r5, #8]	@ zero_extendqisi2
 155 0070 144097E5 		ldr	r4, [r7, #20]
 156              	.LVL11:
 157 0074 FEFFFFEB 		bl	TfLiteTypeGetName
 158              	.LVL12:
 159 0078 001000E3 		movw	r1, #:lower16:.LC1
 160 007c 0020A0E1 		mov	r2, r0
 161 0080 0830D5E5 		ldrb	r3, [r5, #8]	@ zero_extendqisi2
 162 0084 0700A0E1 		mov	r0, r7
 163 0088 001040E3 		movt	r1, #:upper16:.LC1
 164 008c 34FF2FE1 		blx	r4
 165              	.LVL13:
 172:../src/tensorflow_lite/tensorflow/lite/micro/kernels/strided_slice.cc ****                          TfLiteTypeGetName(input->type), input->type);
 173:../src/tensorflow_lite/tensorflow/lite/micro/kernels/strided_slice.cc ****       return kTfLiteError;
 166              		.loc 1 173 0
 167 0090 0100A0E3 		mov	r0, #1
 168              	.LVL14:
 169              	.L907:
 174:../src/tensorflow_lite/tensorflow/lite/micro/kernels/strided_slice.cc ****   }
 175:../src/tensorflow_lite/tensorflow/lite/micro/kernels/strided_slice.cc ****   return kTfLiteOk;
 176:../src/tensorflow_lite/tensorflow/lite/micro/kernels/strided_slice.cc **** }
 170              		.loc 1 176 0
 171 0094 53DF8DE2 		add	sp, sp, #332
 172              		.cfi_remember_state
 173              		.cfi_def_cfa_offset 36
 174              		@ sp needed
 175 0098 F08FBDE8 		pop	{r4, r5, r6, r7, r8, r9, r10, fp, pc}
 176              	.LVL15:
 177              	.L10:
 178              		.cfi_restore_state
 140:../src/tensorflow_lite/tensorflow/lite/micro/kernels/strided_slice.cc ****   const StridedSliceParams& op_params =
 179              		.loc 1 140 0 discriminator 1
 180 009c FEFFFFEB 		bl	abort
 181              	.LVL16:
 182              	.L1049:
 151:../src/tensorflow_lite/tensorflow/lite/micro/kernels/strided_slice.cc ****                                   tflite::micro::GetTensorData<float>(input),
 183              		.loc 1 151 0
 184 00a0 0510A0E1 		mov	r1, r5
 185 00a4 94008DE2 		add	r0, sp, #148
 186 00a8 FEFFFFEB 		bl	_ZN6tflite5micro14GetTensorShapeEPK16TfLiteEvalTensor
 187              	.LVL17:
 188              	.LEHE0:
 189              	.LBB871:
 190              	.LBB872:
  51:C:/Renesas/e2studio_2021_01_workspace_RZA2M_ANPR/ANPR_RZA2M_EBK/src/tensorflow_lite/tensorflow/lite/micro/kernels\kernel_util.h **** }
  52:C:/Renesas/e2studio_2021_01_workspace_RZA2M_ANPR/ANPR_RZA2M_EBK/src/tensorflow_lite/tensorflow/lite/micro/kernels\kernel_util.h **** 
  53:C:/Renesas/e2studio_2021_01_workspace_RZA2M_ANPR/ANPR_RZA2M_EBK/src/tensorflow_lite/tensorflow/lite/micro/kernels\kernel_util.h **** // Returns data for a TfLiteEvalTensor struct.
  54:C:/Renesas/e2studio_2021_01_workspace_RZA2M_ANPR/ANPR_RZA2M_EBK/src/tensorflow_lite/tensorflow/lite/micro/kernels\kernel_util.h **** template <typename T>
  55:C:/Renesas/e2studio_2021_01_workspace_RZA2M_ANPR/ANPR_RZA2M_EBK/src/tensorflow_lite/tensorflow/lite/micro/kernels\kernel_util.h **** T* GetTensorData(TfLiteEvalTensor* tensor) {
  56:C:/Renesas/e2studio_2021_01_workspace_RZA2M_ANPR/ANPR_RZA2M_EBK/src/tensorflow_lite/tensorflow/lite/micro/kernels\kernel_util.h ****   return tensor != nullptr ? reinterpret_cast<T*>(tensor->data.raw) : nullptr;
  57:C:/Renesas/e2studio_2021_01_workspace_RZA2M_ANPR/ANPR_RZA2M_EBK/src/tensorflow_lite/tensorflow/lite/micro/kernels\kernel_util.h **** }
  58:C:/Renesas/e2studio_2021_01_workspace_RZA2M_ANPR/ANPR_RZA2M_EBK/src/tensorflow_lite/tensorflow/lite/micro/kernels\kernel_util.h **** 
  59:C:/Renesas/e2studio_2021_01_workspace_RZA2M_ANPR/ANPR_RZA2M_EBK/src/tensorflow_lite/tensorflow/lite/micro/kernels\kernel_util.h **** // Returns const data for a TfLiteEvalTensor struct.
  60:C:/Renesas/e2studio_2021_01_workspace_RZA2M_ANPR/ANPR_RZA2M_EBK/src/tensorflow_lite/tensorflow/lite/micro/kernels\kernel_util.h **** template <typename T>
  61:C:/Renesas/e2studio_2021_01_workspace_RZA2M_ANPR/ANPR_RZA2M_EBK/src/tensorflow_lite/tensorflow/lite/micro/kernels\kernel_util.h **** const T* GetTensorData(const TfLiteEvalTensor* tensor) {
  62:C:/Renesas/e2studio_2021_01_workspace_RZA2M_ANPR/ANPR_RZA2M_EBK/src/tensorflow_lite/tensorflow/lite/micro/kernels\kernel_util.h ****   TFLITE_DCHECK(tensor != nullptr);
 191              		.loc 2 62 0
 192 00ac 000055E3 		cmp	r5, #0
 193 00b0 D500000A 		beq	.L1050
  63:C:/Renesas/e2studio_2021_01_workspace_RZA2M_ANPR/ANPR_RZA2M_EBK/src/tensorflow_lite/tensorflow/lite/micro/kernels\kernel_util.h ****   return reinterpret_cast<const T*>(tensor->data.raw);
 194              		.loc 2 63 0
 195 00b4 003095E5 		ldr	r3, [r5]
 196              	.LBE872:
 197              	.LBE871:
 153:../src/tensorflow_lite/tensorflow/lite/micro/kernels/strided_slice.cc ****                                   tflite::micro::GetTensorData<float>(output));
 198              		.loc 1 153 0
 199 00b8 0610A0E1 		mov	r1, r6
 200 00bc AC008DE2 		add	r0, sp, #172
 201              	.LBB875:
 202              	.LBB873:
 203              		.loc 2 63 0
 204 00c0 30308DE5 		str	r3, [sp, #48]
 205              	.LEHB1:
 206              	.LBE873:
 207              	.LBE875:
 153:../src/tensorflow_lite/tensorflow/lite/micro/kernels/strided_slice.cc ****                                   tflite::micro::GetTensorData<float>(output));
 208              		.loc 1 153 0
 209 00c4 FEFFFFEB 		bl	_ZN6tflite5micro14GetTensorShapeEPK16TfLiteEvalTensor
 210              	.LVL18:
 211              	.LEHE1:
 212              	.LBB876:
 213              	.LBB877:
 214              	.LBB878:
 215              	.LBB879:
 216              		.file 3 "C:/Renesas/e2studio_2021_01_workspace_RZA2M_ANPR/ANPR_RZA2M_EBK/src/tensorflow_lite/tenso
   1:C:/Renesas/e2studio_2021_01_workspace_RZA2M_ANPR/ANPR_RZA2M_EBK/src/tensorflow_lite/tensorflow/lite/kernels/internal/reference\strided_slice.h **** /* Copyright 2017 The TensorFlow Authors. All Rights Reserved.
   2:C:/Renesas/e2studio_2021_01_workspace_RZA2M_ANPR/ANPR_RZA2M_EBK/src/tensorflow_lite/tensorflow/lite/kernels/internal/reference\strided_slice.h **** 
   3:C:/Renesas/e2studio_2021_01_workspace_RZA2M_ANPR/ANPR_RZA2M_EBK/src/tensorflow_lite/tensorflow/lite/kernels/internal/reference\strided_slice.h **** Licensed under the Apache License, Version 2.0 (the "License");
   4:C:/Renesas/e2studio_2021_01_workspace_RZA2M_ANPR/ANPR_RZA2M_EBK/src/tensorflow_lite/tensorflow/lite/kernels/internal/reference\strided_slice.h **** you may not use this file except in compliance with the License.
   5:C:/Renesas/e2studio_2021_01_workspace_RZA2M_ANPR/ANPR_RZA2M_EBK/src/tensorflow_lite/tensorflow/lite/kernels/internal/reference\strided_slice.h **** You may obtain a copy of the License at
   6:C:/Renesas/e2studio_2021_01_workspace_RZA2M_ANPR/ANPR_RZA2M_EBK/src/tensorflow_lite/tensorflow/lite/kernels/internal/reference\strided_slice.h **** 
   7:C:/Renesas/e2studio_2021_01_workspace_RZA2M_ANPR/ANPR_RZA2M_EBK/src/tensorflow_lite/tensorflow/lite/kernels/internal/reference\strided_slice.h ****     http://www.apache.org/licenses/LICENSE-2.0
   8:C:/Renesas/e2studio_2021_01_workspace_RZA2M_ANPR/ANPR_RZA2M_EBK/src/tensorflow_lite/tensorflow/lite/kernels/internal/reference\strided_slice.h **** 
   9:C:/Renesas/e2studio_2021_01_workspace_RZA2M_ANPR/ANPR_RZA2M_EBK/src/tensorflow_lite/tensorflow/lite/kernels/internal/reference\strided_slice.h **** Unless required by applicable law or agreed to in writing, software
  10:C:/Renesas/e2studio_2021_01_workspace_RZA2M_ANPR/ANPR_RZA2M_EBK/src/tensorflow_lite/tensorflow/lite/kernels/internal/reference\strided_slice.h **** distributed under the License is distributed on an "AS IS" BASIS,
  11:C:/Renesas/e2studio_2021_01_workspace_RZA2M_ANPR/ANPR_RZA2M_EBK/src/tensorflow_lite/tensorflow/lite/kernels/internal/reference\strided_slice.h **** WITHOUT WARRANTIES OR CONDITIONS OF ANY KIND, either express or implied.
  12:C:/Renesas/e2studio_2021_01_workspace_RZA2M_ANPR/ANPR_RZA2M_EBK/src/tensorflow_lite/tensorflow/lite/kernels/internal/reference\strided_slice.h **** See the License for the specific language governing permissions and
  13:C:/Renesas/e2studio_2021_01_workspace_RZA2M_ANPR/ANPR_RZA2M_EBK/src/tensorflow_lite/tensorflow/lite/kernels/internal/reference\strided_slice.h **** limitations under the License.
  14:C:/Renesas/e2studio_2021_01_workspace_RZA2M_ANPR/ANPR_RZA2M_EBK/src/tensorflow_lite/tensorflow/lite/kernels/internal/reference\strided_slice.h **** ==============================================================================*/
  15:C:/Renesas/e2studio_2021_01_workspace_RZA2M_ANPR/ANPR_RZA2M_EBK/src/tensorflow_lite/tensorflow/lite/kernels/internal/reference\strided_slice.h **** #ifndef TENSORFLOW_LITE_KERNELS_INTERNAL_REFERENCE_STRIDED_SLICE_H_
  16:C:/Renesas/e2studio_2021_01_workspace_RZA2M_ANPR/ANPR_RZA2M_EBK/src/tensorflow_lite/tensorflow/lite/kernels/internal/reference\strided_slice.h **** #define TENSORFLOW_LITE_KERNELS_INTERNAL_REFERENCE_STRIDED_SLICE_H_
  17:C:/Renesas/e2studio_2021_01_workspace_RZA2M_ANPR/ANPR_RZA2M_EBK/src/tensorflow_lite/tensorflow/lite/kernels/internal/reference\strided_slice.h **** 
  18:C:/Renesas/e2studio_2021_01_workspace_RZA2M_ANPR/ANPR_RZA2M_EBK/src/tensorflow_lite/tensorflow/lite/kernels/internal/reference\strided_slice.h **** #include "ruy/profiler/instrumentation.h"  // from @ruy
  19:C:/Renesas/e2studio_2021_01_workspace_RZA2M_ANPR/ANPR_RZA2M_EBK/src/tensorflow_lite/tensorflow/lite/kernels/internal/reference\strided_slice.h **** #include "tensorflow/lite/kernels/internal/common.h"
  20:C:/Renesas/e2studio_2021_01_workspace_RZA2M_ANPR/ANPR_RZA2M_EBK/src/tensorflow_lite/tensorflow/lite/kernels/internal/reference\strided_slice.h **** #include "tensorflow/lite/kernels/internal/compatibility.h"
  21:C:/Renesas/e2studio_2021_01_workspace_RZA2M_ANPR/ANPR_RZA2M_EBK/src/tensorflow_lite/tensorflow/lite/kernels/internal/reference\strided_slice.h **** #include "tensorflow/lite/kernels/internal/portable_tensor.h"
  22:C:/Renesas/e2studio_2021_01_workspace_RZA2M_ANPR/ANPR_RZA2M_EBK/src/tensorflow_lite/tensorflow/lite/kernels/internal/reference\strided_slice.h **** #include "tensorflow/lite/kernels/internal/strided_slice_logic.h"
  23:C:/Renesas/e2studio_2021_01_workspace_RZA2M_ANPR/ANPR_RZA2M_EBK/src/tensorflow_lite/tensorflow/lite/kernels/internal/reference\strided_slice.h **** #include "tensorflow/lite/kernels/internal/types.h"
  24:C:/Renesas/e2studio_2021_01_workspace_RZA2M_ANPR/ANPR_RZA2M_EBK/src/tensorflow_lite/tensorflow/lite/kernels/internal/reference\strided_slice.h **** 
  25:C:/Renesas/e2studio_2021_01_workspace_RZA2M_ANPR/ANPR_RZA2M_EBK/src/tensorflow_lite/tensorflow/lite/kernels/internal/reference\strided_slice.h **** namespace tflite {
  26:C:/Renesas/e2studio_2021_01_workspace_RZA2M_ANPR/ANPR_RZA2M_EBK/src/tensorflow_lite/tensorflow/lite/kernels/internal/reference\strided_slice.h **** 
  27:C:/Renesas/e2studio_2021_01_workspace_RZA2M_ANPR/ANPR_RZA2M_EBK/src/tensorflow_lite/tensorflow/lite/kernels/internal/reference\strided_slice.h **** namespace reference_ops {
  28:C:/Renesas/e2studio_2021_01_workspace_RZA2M_ANPR/ANPR_RZA2M_EBK/src/tensorflow_lite/tensorflow/lite/kernels/internal/reference\strided_slice.h **** 
  29:C:/Renesas/e2studio_2021_01_workspace_RZA2M_ANPR/ANPR_RZA2M_EBK/src/tensorflow_lite/tensorflow/lite/kernels/internal/reference\strided_slice.h **** template <typename T>
  30:C:/Renesas/e2studio_2021_01_workspace_RZA2M_ANPR/ANPR_RZA2M_EBK/src/tensorflow_lite/tensorflow/lite/kernels/internal/reference\strided_slice.h **** inline void StridedSlice(const tflite::StridedSliceParams& op_params,
  31:C:/Renesas/e2studio_2021_01_workspace_RZA2M_ANPR/ANPR_RZA2M_EBK/src/tensorflow_lite/tensorflow/lite/kernels/internal/reference\strided_slice.h ****                          const RuntimeShape& unextended_input_shape,
  32:C:/Renesas/e2studio_2021_01_workspace_RZA2M_ANPR/ANPR_RZA2M_EBK/src/tensorflow_lite/tensorflow/lite/kernels/internal/reference\strided_slice.h ****                          const RuntimeShape& unextended_output_shape,
  33:C:/Renesas/e2studio_2021_01_workspace_RZA2M_ANPR/ANPR_RZA2M_EBK/src/tensorflow_lite/tensorflow/lite/kernels/internal/reference\strided_slice.h ****                          SequentialTensorWriter<T>* writer) {
  34:C:/Renesas/e2studio_2021_01_workspace_RZA2M_ANPR/ANPR_RZA2M_EBK/src/tensorflow_lite/tensorflow/lite/kernels/internal/reference\strided_slice.h ****   using strided_slice::LoopCondition;
  35:C:/Renesas/e2studio_2021_01_workspace_RZA2M_ANPR/ANPR_RZA2M_EBK/src/tensorflow_lite/tensorflow/lite/kernels/internal/reference\strided_slice.h ****   using strided_slice::StartForAxis;
  36:C:/Renesas/e2studio_2021_01_workspace_RZA2M_ANPR/ANPR_RZA2M_EBK/src/tensorflow_lite/tensorflow/lite/kernels/internal/reference\strided_slice.h ****   using strided_slice::StopForAxis;
  37:C:/Renesas/e2studio_2021_01_workspace_RZA2M_ANPR/ANPR_RZA2M_EBK/src/tensorflow_lite/tensorflow/lite/kernels/internal/reference\strided_slice.h **** 
  38:C:/Renesas/e2studio_2021_01_workspace_RZA2M_ANPR/ANPR_RZA2M_EBK/src/tensorflow_lite/tensorflow/lite/kernels/internal/reference\strided_slice.h ****   ruy::profiler::ScopeLabel label("StridedSlice");
  39:C:/Renesas/e2studio_2021_01_workspace_RZA2M_ANPR/ANPR_RZA2M_EBK/src/tensorflow_lite/tensorflow/lite/kernels/internal/reference\strided_slice.h **** 
  40:C:/Renesas/e2studio_2021_01_workspace_RZA2M_ANPR/ANPR_RZA2M_EBK/src/tensorflow_lite/tensorflow/lite/kernels/internal/reference\strided_slice.h ****   // Note that the output_shape is not used herein.
  41:C:/Renesas/e2studio_2021_01_workspace_RZA2M_ANPR/ANPR_RZA2M_EBK/src/tensorflow_lite/tensorflow/lite/kernels/internal/reference\strided_slice.h ****   tflite::StridedSliceParams params_copy = op_params;
 217              		.loc 3 41 0
 218 00c8 5420A0E3 		mov	r2, #84
 219 00cc 0410A0E1 		mov	r1, r4
 220 00d0 F4008DE2 		add	r0, sp, #244
 221              	.LBE879:
 222              	.LBE878:
 223              	.LBE877:
 224              	.LBE876:
 225              	.LBB1236:
 226              	.LBB1237:
  56:C:/Renesas/e2studio_2021_01_workspace_RZA2M_ANPR/ANPR_RZA2M_EBK/src/tensorflow_lite/tensorflow/lite/micro/kernels\kernel_util.h **** }
 227              		.loc 2 56 0
 228 00d4 00B096E5 		ldr	fp, [r6]
 229              	.LVL19:
 230              	.LBE1237:
 231              	.LBE1236:
 232              	.LBB1238:
 233              	.LBB1231:
 234              	.LBB1226:
 235              	.LBB1221:
 236              		.loc 3 41 0
 237 00d8 FEFFFFEB 		bl	memcpy
 238              	.LVL20:
 239 00dc 94209DE5 		ldr	r2, [sp, #148]
 240 00e0 D070D4E1 		ldrsb	r7, [r4]
 241              	.LVL21:
 242 00e4 D851D4E1 		ldrsb	r5, [r4, #24]
 243              	.LVL22:
  42:C:/Renesas/e2studio_2021_01_workspace_RZA2M_ANPR/ANPR_RZA2M_EBK/src/tensorflow_lite/tensorflow/lite/kernels/internal/reference\strided_slice.h **** 
  43:C:/Renesas/e2studio_2021_01_workspace_RZA2M_ANPR/ANPR_RZA2M_EBK/src/tensorflow_lite/tensorflow/lite/kernels/internal/reference\strided_slice.h ****   TFLITE_DCHECK_LE(unextended_input_shape.DimensionsCount(), 5);
 244              		.loc 3 43 0
 245 00e8 050052E3 		cmp	r2, #5
  41:C:/Renesas/e2studio_2021_01_workspace_RZA2M_ANPR/ANPR_RZA2M_EBK/src/tensorflow_lite/tensorflow/lite/kernels/internal/reference\strided_slice.h **** 
 246              		.loc 3 41 0
 247 00ec D093D4E1 		ldrsb	r9, [r4, #48]
 248 00f0 F864D4E1 		ldrsh	r6, [r4, #72]
 249 00f4 FC84D4E1 		ldrsh	r8, [r4, #76]
 250 00f8 F045D4E1 		ldrsh	r4, [r4, #80]
 251              	.LVL23:
 252              		.loc 3 43 0
 253 00fc C00000CA 		bgt	.L1051
 254 0100 ACA09DE5 		ldr	r10, [sp, #172]
 255              	.LVL24:
  44:C:/Renesas/e2studio_2021_01_workspace_RZA2M_ANPR/ANPR_RZA2M_EBK/src/tensorflow_lite/tensorflow/lite/kernels/internal/reference\strided_slice.h ****   TFLITE_DCHECK_LE(unextended_output_shape.DimensionsCount(), 5);
 256              		.loc 3 44 0
 257 0104 05005AE3 		cmp	r10, #5
 258 0108 BC0000CA 		bgt	.L1052
 259              	.LVL25:
 260              	.LBB880:
 261              	.LBB881:
 262              	.LBB882:
 263              	.LBB883:
 264              	.LBB884:
 265              		.file 4 "C:/Renesas/e2studio_2021_01_workspace_RZA2M_ANPR/ANPR_RZA2M_EBK/src/tensorflow_lite/tenso
   1:C:/Renesas/e2studio_2021_01_workspace_RZA2M_ANPR/ANPR_RZA2M_EBK/src/tensorflow_lite/tensorflow/lite/kernels/internal\types.h **** /* Copyright 2018 The TensorFlow Authors. All Rights Reserved.
   2:C:/Renesas/e2studio_2021_01_workspace_RZA2M_ANPR/ANPR_RZA2M_EBK/src/tensorflow_lite/tensorflow/lite/kernels/internal\types.h **** 
   3:C:/Renesas/e2studio_2021_01_workspace_RZA2M_ANPR/ANPR_RZA2M_EBK/src/tensorflow_lite/tensorflow/lite/kernels/internal\types.h **** Licensed under the Apache License, Version 2.0 (the "License");
   4:C:/Renesas/e2studio_2021_01_workspace_RZA2M_ANPR/ANPR_RZA2M_EBK/src/tensorflow_lite/tensorflow/lite/kernels/internal\types.h **** you may not use this file except in compliance with the License.
   5:C:/Renesas/e2studio_2021_01_workspace_RZA2M_ANPR/ANPR_RZA2M_EBK/src/tensorflow_lite/tensorflow/lite/kernels/internal\types.h **** You may obtain a copy of the License at
   6:C:/Renesas/e2studio_2021_01_workspace_RZA2M_ANPR/ANPR_RZA2M_EBK/src/tensorflow_lite/tensorflow/lite/kernels/internal\types.h **** 
   7:C:/Renesas/e2studio_2021_01_workspace_RZA2M_ANPR/ANPR_RZA2M_EBK/src/tensorflow_lite/tensorflow/lite/kernels/internal\types.h ****     http://www.apache.org/licenses/LICENSE-2.0
   8:C:/Renesas/e2studio_2021_01_workspace_RZA2M_ANPR/ANPR_RZA2M_EBK/src/tensorflow_lite/tensorflow/lite/kernels/internal\types.h **** 
   9:C:/Renesas/e2studio_2021_01_workspace_RZA2M_ANPR/ANPR_RZA2M_EBK/src/tensorflow_lite/tensorflow/lite/kernels/internal\types.h **** Unless required by applicable law or agreed to in writing, software
  10:C:/Renesas/e2studio_2021_01_workspace_RZA2M_ANPR/ANPR_RZA2M_EBK/src/tensorflow_lite/tensorflow/lite/kernels/internal\types.h **** distributed under the License is distributed on an "AS IS" BASIS,
  11:C:/Renesas/e2studio_2021_01_workspace_RZA2M_ANPR/ANPR_RZA2M_EBK/src/tensorflow_lite/tensorflow/lite/kernels/internal\types.h **** WITHOUT WARRANTIES OR CONDITIONS OF ANY KIND, either express or implied.
  12:C:/Renesas/e2studio_2021_01_workspace_RZA2M_ANPR/ANPR_RZA2M_EBK/src/tensorflow_lite/tensorflow/lite/kernels/internal\types.h **** See the License for the specific language governing permissions and
  13:C:/Renesas/e2studio_2021_01_workspace_RZA2M_ANPR/ANPR_RZA2M_EBK/src/tensorflow_lite/tensorflow/lite/kernels/internal\types.h **** limitations under the License.
  14:C:/Renesas/e2studio_2021_01_workspace_RZA2M_ANPR/ANPR_RZA2M_EBK/src/tensorflow_lite/tensorflow/lite/kernels/internal\types.h **** ==============================================================================*/
  15:C:/Renesas/e2studio_2021_01_workspace_RZA2M_ANPR/ANPR_RZA2M_EBK/src/tensorflow_lite/tensorflow/lite/kernels/internal\types.h **** #ifndef TENSORFLOW_LITE_KERNELS_INTERNAL_TYPES_H_
  16:C:/Renesas/e2studio_2021_01_workspace_RZA2M_ANPR/ANPR_RZA2M_EBK/src/tensorflow_lite/tensorflow/lite/kernels/internal\types.h **** #define TENSORFLOW_LITE_KERNELS_INTERNAL_TYPES_H_
  17:C:/Renesas/e2studio_2021_01_workspace_RZA2M_ANPR/ANPR_RZA2M_EBK/src/tensorflow_lite/tensorflow/lite/kernels/internal\types.h **** 
  18:C:/Renesas/e2studio_2021_01_workspace_RZA2M_ANPR/ANPR_RZA2M_EBK/src/tensorflow_lite/tensorflow/lite/kernels/internal\types.h **** #include <algorithm>
  19:C:/Renesas/e2studio_2021_01_workspace_RZA2M_ANPR/ANPR_RZA2M_EBK/src/tensorflow_lite/tensorflow/lite/kernels/internal\types.h **** #include <cstdint>
  20:C:/Renesas/e2studio_2021_01_workspace_RZA2M_ANPR/ANPR_RZA2M_EBK/src/tensorflow_lite/tensorflow/lite/kernels/internal\types.h **** #include <cstring>
  21:C:/Renesas/e2studio_2021_01_workspace_RZA2M_ANPR/ANPR_RZA2M_EBK/src/tensorflow_lite/tensorflow/lite/kernels/internal\types.h **** #include <initializer_list>
  22:C:/Renesas/e2studio_2021_01_workspace_RZA2M_ANPR/ANPR_RZA2M_EBK/src/tensorflow_lite/tensorflow/lite/kernels/internal\types.h **** 
  23:C:/Renesas/e2studio_2021_01_workspace_RZA2M_ANPR/ANPR_RZA2M_EBK/src/tensorflow_lite/tensorflow/lite/kernels/internal\types.h **** #include "tensorflow/lite/kernels/internal/compatibility.h"
  24:C:/Renesas/e2studio_2021_01_workspace_RZA2M_ANPR/ANPR_RZA2M_EBK/src/tensorflow_lite/tensorflow/lite/kernels/internal\types.h **** 
  25:C:/Renesas/e2studio_2021_01_workspace_RZA2M_ANPR/ANPR_RZA2M_EBK/src/tensorflow_lite/tensorflow/lite/kernels/internal\types.h **** namespace tflite {
  26:C:/Renesas/e2studio_2021_01_workspace_RZA2M_ANPR/ANPR_RZA2M_EBK/src/tensorflow_lite/tensorflow/lite/kernels/internal\types.h **** 
  27:C:/Renesas/e2studio_2021_01_workspace_RZA2M_ANPR/ANPR_RZA2M_EBK/src/tensorflow_lite/tensorflow/lite/kernels/internal\types.h **** enum class FusedActivationFunctionType : uint8_t {
  28:C:/Renesas/e2studio_2021_01_workspace_RZA2M_ANPR/ANPR_RZA2M_EBK/src/tensorflow_lite/tensorflow/lite/kernels/internal\types.h ****   kNone,
  29:C:/Renesas/e2studio_2021_01_workspace_RZA2M_ANPR/ANPR_RZA2M_EBK/src/tensorflow_lite/tensorflow/lite/kernels/internal\types.h ****   kRelu6,
  30:C:/Renesas/e2studio_2021_01_workspace_RZA2M_ANPR/ANPR_RZA2M_EBK/src/tensorflow_lite/tensorflow/lite/kernels/internal\types.h ****   kRelu1,
  31:C:/Renesas/e2studio_2021_01_workspace_RZA2M_ANPR/ANPR_RZA2M_EBK/src/tensorflow_lite/tensorflow/lite/kernels/internal\types.h ****   kRelu
  32:C:/Renesas/e2studio_2021_01_workspace_RZA2M_ANPR/ANPR_RZA2M_EBK/src/tensorflow_lite/tensorflow/lite/kernels/internal\types.h **** };
  33:C:/Renesas/e2studio_2021_01_workspace_RZA2M_ANPR/ANPR_RZA2M_EBK/src/tensorflow_lite/tensorflow/lite/kernels/internal\types.h **** enum class PaddingType : uint8_t { kNone, kSame, kValid };
  34:C:/Renesas/e2studio_2021_01_workspace_RZA2M_ANPR/ANPR_RZA2M_EBK/src/tensorflow_lite/tensorflow/lite/kernels/internal\types.h **** 
  35:C:/Renesas/e2studio_2021_01_workspace_RZA2M_ANPR/ANPR_RZA2M_EBK/src/tensorflow_lite/tensorflow/lite/kernels/internal\types.h **** struct PaddingValues {
  36:C:/Renesas/e2studio_2021_01_workspace_RZA2M_ANPR/ANPR_RZA2M_EBK/src/tensorflow_lite/tensorflow/lite/kernels/internal\types.h ****   int16_t width;
  37:C:/Renesas/e2studio_2021_01_workspace_RZA2M_ANPR/ANPR_RZA2M_EBK/src/tensorflow_lite/tensorflow/lite/kernels/internal\types.h ****   int16_t height;
  38:C:/Renesas/e2studio_2021_01_workspace_RZA2M_ANPR/ANPR_RZA2M_EBK/src/tensorflow_lite/tensorflow/lite/kernels/internal\types.h ****   // offset is used for calculating "remaining" padding, for example, `width`
  39:C:/Renesas/e2studio_2021_01_workspace_RZA2M_ANPR/ANPR_RZA2M_EBK/src/tensorflow_lite/tensorflow/lite/kernels/internal\types.h ****   // is 1 and `width_offset` is 1, so padding_left is 1 while padding_right is
  40:C:/Renesas/e2studio_2021_01_workspace_RZA2M_ANPR/ANPR_RZA2M_EBK/src/tensorflow_lite/tensorflow/lite/kernels/internal\types.h ****   // 1 + 1 = 2.
  41:C:/Renesas/e2studio_2021_01_workspace_RZA2M_ANPR/ANPR_RZA2M_EBK/src/tensorflow_lite/tensorflow/lite/kernels/internal\types.h ****   int16_t width_offset;
  42:C:/Renesas/e2studio_2021_01_workspace_RZA2M_ANPR/ANPR_RZA2M_EBK/src/tensorflow_lite/tensorflow/lite/kernels/internal\types.h ****   // Same as width_offset except it's over the height dimension.
  43:C:/Renesas/e2studio_2021_01_workspace_RZA2M_ANPR/ANPR_RZA2M_EBK/src/tensorflow_lite/tensorflow/lite/kernels/internal\types.h ****   int16_t height_offset;
  44:C:/Renesas/e2studio_2021_01_workspace_RZA2M_ANPR/ANPR_RZA2M_EBK/src/tensorflow_lite/tensorflow/lite/kernels/internal\types.h **** };
  45:C:/Renesas/e2studio_2021_01_workspace_RZA2M_ANPR/ANPR_RZA2M_EBK/src/tensorflow_lite/tensorflow/lite/kernels/internal\types.h **** 
  46:C:/Renesas/e2studio_2021_01_workspace_RZA2M_ANPR/ANPR_RZA2M_EBK/src/tensorflow_lite/tensorflow/lite/kernels/internal\types.h **** struct Padding3DValues {
  47:C:/Renesas/e2studio_2021_01_workspace_RZA2M_ANPR/ANPR_RZA2M_EBK/src/tensorflow_lite/tensorflow/lite/kernels/internal\types.h ****   int16_t width;
  48:C:/Renesas/e2studio_2021_01_workspace_RZA2M_ANPR/ANPR_RZA2M_EBK/src/tensorflow_lite/tensorflow/lite/kernels/internal\types.h ****   int16_t height;
  49:C:/Renesas/e2studio_2021_01_workspace_RZA2M_ANPR/ANPR_RZA2M_EBK/src/tensorflow_lite/tensorflow/lite/kernels/internal\types.h ****   int16_t depth;
  50:C:/Renesas/e2studio_2021_01_workspace_RZA2M_ANPR/ANPR_RZA2M_EBK/src/tensorflow_lite/tensorflow/lite/kernels/internal\types.h ****   // offset is used for calculating "remaining" padding, for example, `width`
  51:C:/Renesas/e2studio_2021_01_workspace_RZA2M_ANPR/ANPR_RZA2M_EBK/src/tensorflow_lite/tensorflow/lite/kernels/internal\types.h ****   // is 1 and `width_offset` is 1, so padding_left is 1 while padding_right is
  52:C:/Renesas/e2studio_2021_01_workspace_RZA2M_ANPR/ANPR_RZA2M_EBK/src/tensorflow_lite/tensorflow/lite/kernels/internal\types.h ****   // 1 + 1 = 2.
  53:C:/Renesas/e2studio_2021_01_workspace_RZA2M_ANPR/ANPR_RZA2M_EBK/src/tensorflow_lite/tensorflow/lite/kernels/internal\types.h ****   int16_t width_offset;
  54:C:/Renesas/e2studio_2021_01_workspace_RZA2M_ANPR/ANPR_RZA2M_EBK/src/tensorflow_lite/tensorflow/lite/kernels/internal\types.h ****   // Same as width_offset except it's over the height dimension.
  55:C:/Renesas/e2studio_2021_01_workspace_RZA2M_ANPR/ANPR_RZA2M_EBK/src/tensorflow_lite/tensorflow/lite/kernels/internal\types.h ****   int16_t height_offset;
  56:C:/Renesas/e2studio_2021_01_workspace_RZA2M_ANPR/ANPR_RZA2M_EBK/src/tensorflow_lite/tensorflow/lite/kernels/internal\types.h ****   // Same as width_offset except it's over the depth dimension.
  57:C:/Renesas/e2studio_2021_01_workspace_RZA2M_ANPR/ANPR_RZA2M_EBK/src/tensorflow_lite/tensorflow/lite/kernels/internal\types.h ****   int16_t depth_offset;
  58:C:/Renesas/e2studio_2021_01_workspace_RZA2M_ANPR/ANPR_RZA2M_EBK/src/tensorflow_lite/tensorflow/lite/kernels/internal\types.h **** };
  59:C:/Renesas/e2studio_2021_01_workspace_RZA2M_ANPR/ANPR_RZA2M_EBK/src/tensorflow_lite/tensorflow/lite/kernels/internal\types.h **** 
  60:C:/Renesas/e2studio_2021_01_workspace_RZA2M_ANPR/ANPR_RZA2M_EBK/src/tensorflow_lite/tensorflow/lite/kernels/internal\types.h **** // This enumeration allows for non-default formats for the weights array
  61:C:/Renesas/e2studio_2021_01_workspace_RZA2M_ANPR/ANPR_RZA2M_EBK/src/tensorflow_lite/tensorflow/lite/kernels/internal\types.h **** // of a fully-connected operator, allowing the use of special optimized
  62:C:/Renesas/e2studio_2021_01_workspace_RZA2M_ANPR/ANPR_RZA2M_EBK/src/tensorflow_lite/tensorflow/lite/kernels/internal\types.h **** // runtime paths.
  63:C:/Renesas/e2studio_2021_01_workspace_RZA2M_ANPR/ANPR_RZA2M_EBK/src/tensorflow_lite/tensorflow/lite/kernels/internal\types.h **** enum class FullyConnectedWeightsFormat : uint8_t {
  64:C:/Renesas/e2studio_2021_01_workspace_RZA2M_ANPR/ANPR_RZA2M_EBK/src/tensorflow_lite/tensorflow/lite/kernels/internal\types.h ****   // Default format (flat 2D layout, the inner contiguous dimension
  65:C:/Renesas/e2studio_2021_01_workspace_RZA2M_ANPR/ANPR_RZA2M_EBK/src/tensorflow_lite/tensorflow/lite/kernels/internal\types.h ****   // is input_depth, the outer non-contiguous dimension is output_depth)
  66:C:/Renesas/e2studio_2021_01_workspace_RZA2M_ANPR/ANPR_RZA2M_EBK/src/tensorflow_lite/tensorflow/lite/kernels/internal\types.h ****   kDefault,
  67:C:/Renesas/e2studio_2021_01_workspace_RZA2M_ANPR/ANPR_RZA2M_EBK/src/tensorflow_lite/tensorflow/lite/kernels/internal\types.h ****   // Summary: optimized layout for fast CPU runtime implementation,
  68:C:/Renesas/e2studio_2021_01_workspace_RZA2M_ANPR/ANPR_RZA2M_EBK/src/tensorflow_lite/tensorflow/lite/kernels/internal\types.h ****   // aimed specifically at ARM CPUs at the moment, and specialized for
  69:C:/Renesas/e2studio_2021_01_workspace_RZA2M_ANPR/ANPR_RZA2M_EBK/src/tensorflow_lite/tensorflow/lite/kernels/internal\types.h ****   // 8-bit quantized layers.
  70:C:/Renesas/e2studio_2021_01_workspace_RZA2M_ANPR/ANPR_RZA2M_EBK/src/tensorflow_lite/tensorflow/lite/kernels/internal\types.h ****   //
  71:C:/Renesas/e2studio_2021_01_workspace_RZA2M_ANPR/ANPR_RZA2M_EBK/src/tensorflow_lite/tensorflow/lite/kernels/internal\types.h ****   // The use case we're concerned with here is: 8-bit quantization,
  72:C:/Renesas/e2studio_2021_01_workspace_RZA2M_ANPR/ANPR_RZA2M_EBK/src/tensorflow_lite/tensorflow/lite/kernels/internal\types.h ****   // large weights matrix that doesn't fit in cache (e.g. 4096x2048 in
  73:C:/Renesas/e2studio_2021_01_workspace_RZA2M_ANPR/ANPR_RZA2M_EBK/src/tensorflow_lite/tensorflow/lite/kernels/internal\types.h ****   // a key application that drove this), very small batch size (e.g. 1 -- 4).
  74:C:/Renesas/e2studio_2021_01_workspace_RZA2M_ANPR/ANPR_RZA2M_EBK/src/tensorflow_lite/tensorflow/lite/kernels/internal\types.h ****   //
  75:C:/Renesas/e2studio_2021_01_workspace_RZA2M_ANPR/ANPR_RZA2M_EBK/src/tensorflow_lite/tensorflow/lite/kernels/internal\types.h ****   // Even with 8-bit quantization of weights, the performance of memory
  76:C:/Renesas/e2studio_2021_01_workspace_RZA2M_ANPR/ANPR_RZA2M_EBK/src/tensorflow_lite/tensorflow/lite/kernels/internal\types.h ****   // accesses to the weights can become the dominant issue when
  77:C:/Renesas/e2studio_2021_01_workspace_RZA2M_ANPR/ANPR_RZA2M_EBK/src/tensorflow_lite/tensorflow/lite/kernels/internal\types.h ****   // the batch size is small, so each weight value is used in only a few
  78:C:/Renesas/e2studio_2021_01_workspace_RZA2M_ANPR/ANPR_RZA2M_EBK/src/tensorflow_lite/tensorflow/lite/kernels/internal\types.h ****   // arithmetic ops, i.e. the fully-connected node has a low arithmetic
  79:C:/Renesas/e2studio_2021_01_workspace_RZA2M_ANPR/ANPR_RZA2M_EBK/src/tensorflow_lite/tensorflow/lite/kernels/internal\types.h ****   // intensity. The specific issues that arise are of three kinds:
  80:C:/Renesas/e2studio_2021_01_workspace_RZA2M_ANPR/ANPR_RZA2M_EBK/src/tensorflow_lite/tensorflow/lite/kernels/internal\types.h ****   // (1) One may, ideally, max out DRAM bandwidth, i.e. be truly memory
  81:C:/Renesas/e2studio_2021_01_workspace_RZA2M_ANPR/ANPR_RZA2M_EBK/src/tensorflow_lite/tensorflow/lite/kernels/internal\types.h ****   //     bound. That's the "good" issue to run into.
  82:C:/Renesas/e2studio_2021_01_workspace_RZA2M_ANPR/ANPR_RZA2M_EBK/src/tensorflow_lite/tensorflow/lite/kernels/internal\types.h ****   // (2) One may run into sub-optimal pre-fetching: the data hasn't been
  83:C:/Renesas/e2studio_2021_01_workspace_RZA2M_ANPR/ANPR_RZA2M_EBK/src/tensorflow_lite/tensorflow/lite/kernels/internal\types.h ****   //     prefetched into the cache by the time we need it.
  84:C:/Renesas/e2studio_2021_01_workspace_RZA2M_ANPR/ANPR_RZA2M_EBK/src/tensorflow_lite/tensorflow/lite/kernels/internal\types.h ****   // (3) One may run into cache aliasing: multiple values that are
  85:C:/Renesas/e2studio_2021_01_workspace_RZA2M_ANPR/ANPR_RZA2M_EBK/src/tensorflow_lite/tensorflow/lite/kernels/internal\types.h ****   //     pre-fetched, alias each other in the L1 cache (which typically
  86:C:/Renesas/e2studio_2021_01_workspace_RZA2M_ANPR/ANPR_RZA2M_EBK/src/tensorflow_lite/tensorflow/lite/kernels/internal\types.h ****   //     has only 4-way set associativity in ARM CPUs) and thus evict
  87:C:/Renesas/e2studio_2021_01_workspace_RZA2M_ANPR/ANPR_RZA2M_EBK/src/tensorflow_lite/tensorflow/lite/kernels/internal\types.h ****   //     each other before we get to using them.
  88:C:/Renesas/e2studio_2021_01_workspace_RZA2M_ANPR/ANPR_RZA2M_EBK/src/tensorflow_lite/tensorflow/lite/kernels/internal\types.h ****   //
  89:C:/Renesas/e2studio_2021_01_workspace_RZA2M_ANPR/ANPR_RZA2M_EBK/src/tensorflow_lite/tensorflow/lite/kernels/internal\types.h ****   // The point of this shuffling is to avoid issues (2) and (3) so that
  90:C:/Renesas/e2studio_2021_01_workspace_RZA2M_ANPR/ANPR_RZA2M_EBK/src/tensorflow_lite/tensorflow/lite/kernels/internal\types.h ****   // we get as fast as possible given only the hard constraint (1).
  91:C:/Renesas/e2studio_2021_01_workspace_RZA2M_ANPR/ANPR_RZA2M_EBK/src/tensorflow_lite/tensorflow/lite/kernels/internal\types.h ****   // This is achieved by turning the difficulty into a solution: the
  92:C:/Renesas/e2studio_2021_01_workspace_RZA2M_ANPR/ANPR_RZA2M_EBK/src/tensorflow_lite/tensorflow/lite/kernels/internal\types.h ****   // difficulty, that each value loaded from memory is used only in
  93:C:/Renesas/e2studio_2021_01_workspace_RZA2M_ANPR/ANPR_RZA2M_EBK/src/tensorflow_lite/tensorflow/lite/kernels/internal\types.h ****   // one kernel iteration, making this operation memory-intensive, hints at
  94:C:/Renesas/e2studio_2021_01_workspace_RZA2M_ANPR/ANPR_RZA2M_EBK/src/tensorflow_lite/tensorflow/lite/kernels/internal\types.h ****   // the solution, of shuffling the weights so that they are stored in the
  95:C:/Renesas/e2studio_2021_01_workspace_RZA2M_ANPR/ANPR_RZA2M_EBK/src/tensorflow_lite/tensorflow/lite/kernels/internal\types.h ****   // exact order as the kernel needs to load them, so that the memory
  96:C:/Renesas/e2studio_2021_01_workspace_RZA2M_ANPR/ANPR_RZA2M_EBK/src/tensorflow_lite/tensorflow/lite/kernels/internal\types.h ****   // accesses made by the kernel are trivial. This solves (2) because the
  97:C:/Renesas/e2studio_2021_01_workspace_RZA2M_ANPR/ANPR_RZA2M_EBK/src/tensorflow_lite/tensorflow/lite/kernels/internal\types.h ****   // trivial memory access pattern allows the CPU's automatic prefetching
  98:C:/Renesas/e2studio_2021_01_workspace_RZA2M_ANPR/ANPR_RZA2M_EBK/src/tensorflow_lite/tensorflow/lite/kernels/internal\types.h ****   // to perform very well (no need even for preload instructions), and this
  99:C:/Renesas/e2studio_2021_01_workspace_RZA2M_ANPR/ANPR_RZA2M_EBK/src/tensorflow_lite/tensorflow/lite/kernels/internal\types.h ****   // solves (3) because the values being loaded concurrently are now
 100:C:/Renesas/e2studio_2021_01_workspace_RZA2M_ANPR/ANPR_RZA2M_EBK/src/tensorflow_lite/tensorflow/lite/kernels/internal\types.h ****   // contiguous in the address space, thus don't alias each other in the cache.
 101:C:/Renesas/e2studio_2021_01_workspace_RZA2M_ANPR/ANPR_RZA2M_EBK/src/tensorflow_lite/tensorflow/lite/kernels/internal\types.h ****   //
 102:C:/Renesas/e2studio_2021_01_workspace_RZA2M_ANPR/ANPR_RZA2M_EBK/src/tensorflow_lite/tensorflow/lite/kernels/internal\types.h ****   // On ARM, we typically want our kernel to process a 4x16 block of weights
 103:C:/Renesas/e2studio_2021_01_workspace_RZA2M_ANPR/ANPR_RZA2M_EBK/src/tensorflow_lite/tensorflow/lite/kernels/internal\types.h ****   // at a time, because:
 104:C:/Renesas/e2studio_2021_01_workspace_RZA2M_ANPR/ANPR_RZA2M_EBK/src/tensorflow_lite/tensorflow/lite/kernels/internal\types.h ****   //   - 16 is the number of bytes in a NEON register.
 105:C:/Renesas/e2studio_2021_01_workspace_RZA2M_ANPR/ANPR_RZA2M_EBK/src/tensorflow_lite/tensorflow/lite/kernels/internal\types.h ****   //   - 4 is how many rows we need to handle concurrently in the kernel in
 106:C:/Renesas/e2studio_2021_01_workspace_RZA2M_ANPR/ANPR_RZA2M_EBK/src/tensorflow_lite/tensorflow/lite/kernels/internal\types.h ****   //     order to have sufficient mutual independence of instructions to
 107:C:/Renesas/e2studio_2021_01_workspace_RZA2M_ANPR/ANPR_RZA2M_EBK/src/tensorflow_lite/tensorflow/lite/kernels/internal\types.h ****   //     maximize arithmetic throughput.
 108:C:/Renesas/e2studio_2021_01_workspace_RZA2M_ANPR/ANPR_RZA2M_EBK/src/tensorflow_lite/tensorflow/lite/kernels/internal\types.h ****   //
 109:C:/Renesas/e2studio_2021_01_workspace_RZA2M_ANPR/ANPR_RZA2M_EBK/src/tensorflow_lite/tensorflow/lite/kernels/internal\types.h ****   // Finally, the 'Int8' part in the name refers to the fact that this
 110:C:/Renesas/e2studio_2021_01_workspace_RZA2M_ANPR/ANPR_RZA2M_EBK/src/tensorflow_lite/tensorflow/lite/kernels/internal\types.h ****   // weights format has each weights value encoded as a signed int8_t value,
 111:C:/Renesas/e2studio_2021_01_workspace_RZA2M_ANPR/ANPR_RZA2M_EBK/src/tensorflow_lite/tensorflow/lite/kernels/internal\types.h ****   // even if the data type of the weights buffer is uint8_t.  This is intended
 112:C:/Renesas/e2studio_2021_01_workspace_RZA2M_ANPR/ANPR_RZA2M_EBK/src/tensorflow_lite/tensorflow/lite/kernels/internal\types.h ****   // to save runtime kernels the effort to have to XOR the top bit of these
 113:C:/Renesas/e2studio_2021_01_workspace_RZA2M_ANPR/ANPR_RZA2M_EBK/src/tensorflow_lite/tensorflow/lite/kernels/internal\types.h ****   // bytes before using them in signed arithmetic, see this file for more
 114:C:/Renesas/e2studio_2021_01_workspace_RZA2M_ANPR/ANPR_RZA2M_EBK/src/tensorflow_lite/tensorflow/lite/kernels/internal\types.h ****   // explanations on the 'signed int8_t trick' in matrix multiplication kernels:
 115:C:/Renesas/e2studio_2021_01_workspace_RZA2M_ANPR/ANPR_RZA2M_EBK/src/tensorflow_lite/tensorflow/lite/kernels/internal\types.h ****   //
 116:C:/Renesas/e2studio_2021_01_workspace_RZA2M_ANPR/ANPR_RZA2M_EBK/src/tensorflow_lite/tensorflow/lite/kernels/internal\types.h ****   //   tensorflow/lite/toco/graph_transformations/ensure_uint8_weights_safe_for_fast_int8_kernels.c
 117:C:/Renesas/e2studio_2021_01_workspace_RZA2M_ANPR/ANPR_RZA2M_EBK/src/tensorflow_lite/tensorflow/lite/kernels/internal\types.h ****   //
 118:C:/Renesas/e2studio_2021_01_workspace_RZA2M_ANPR/ANPR_RZA2M_EBK/src/tensorflow_lite/tensorflow/lite/kernels/internal\types.h ****   kShuffled4x16Int8,
 119:C:/Renesas/e2studio_2021_01_workspace_RZA2M_ANPR/ANPR_RZA2M_EBK/src/tensorflow_lite/tensorflow/lite/kernels/internal\types.h **** };
 120:C:/Renesas/e2studio_2021_01_workspace_RZA2M_ANPR/ANPR_RZA2M_EBK/src/tensorflow_lite/tensorflow/lite/kernels/internal\types.h **** 
 121:C:/Renesas/e2studio_2021_01_workspace_RZA2M_ANPR/ANPR_RZA2M_EBK/src/tensorflow_lite/tensorflow/lite/kernels/internal\types.h **** // Quantization parameters, determining the mapping of quantized values
 122:C:/Renesas/e2studio_2021_01_workspace_RZA2M_ANPR/ANPR_RZA2M_EBK/src/tensorflow_lite/tensorflow/lite/kernels/internal\types.h **** // to real values (i.e. determining how quantized values are mathematically
 123:C:/Renesas/e2studio_2021_01_workspace_RZA2M_ANPR/ANPR_RZA2M_EBK/src/tensorflow_lite/tensorflow/lite/kernels/internal\types.h **** // interpreted).
 124:C:/Renesas/e2studio_2021_01_workspace_RZA2M_ANPR/ANPR_RZA2M_EBK/src/tensorflow_lite/tensorflow/lite/kernels/internal\types.h **** //
 125:C:/Renesas/e2studio_2021_01_workspace_RZA2M_ANPR/ANPR_RZA2M_EBK/src/tensorflow_lite/tensorflow/lite/kernels/internal\types.h **** // The correspondence is as follows:
 126:C:/Renesas/e2studio_2021_01_workspace_RZA2M_ANPR/ANPR_RZA2M_EBK/src/tensorflow_lite/tensorflow/lite/kernels/internal\types.h **** //
 127:C:/Renesas/e2studio_2021_01_workspace_RZA2M_ANPR/ANPR_RZA2M_EBK/src/tensorflow_lite/tensorflow/lite/kernels/internal\types.h **** //   real_value = scale * (quantized_value - zero_point);
 128:C:/Renesas/e2studio_2021_01_workspace_RZA2M_ANPR/ANPR_RZA2M_EBK/src/tensorflow_lite/tensorflow/lite/kernels/internal\types.h **** //
 129:C:/Renesas/e2studio_2021_01_workspace_RZA2M_ANPR/ANPR_RZA2M_EBK/src/tensorflow_lite/tensorflow/lite/kernels/internal\types.h **** // In other words, zero_point designates which quantized value corresponds to
 130:C:/Renesas/e2studio_2021_01_workspace_RZA2M_ANPR/ANPR_RZA2M_EBK/src/tensorflow_lite/tensorflow/lite/kernels/internal\types.h **** // the real 0 value, and scale designates the difference between the real values
 131:C:/Renesas/e2studio_2021_01_workspace_RZA2M_ANPR/ANPR_RZA2M_EBK/src/tensorflow_lite/tensorflow/lite/kernels/internal\types.h **** // corresponding to consecutive quantized values differing by 1.
 132:C:/Renesas/e2studio_2021_01_workspace_RZA2M_ANPR/ANPR_RZA2M_EBK/src/tensorflow_lite/tensorflow/lite/kernels/internal\types.h **** struct QuantizationParams {
 133:C:/Renesas/e2studio_2021_01_workspace_RZA2M_ANPR/ANPR_RZA2M_EBK/src/tensorflow_lite/tensorflow/lite/kernels/internal\types.h ****   int32_t zero_point = 0;
 134:C:/Renesas/e2studio_2021_01_workspace_RZA2M_ANPR/ANPR_RZA2M_EBK/src/tensorflow_lite/tensorflow/lite/kernels/internal\types.h ****   double scale = 0.0;
 135:C:/Renesas/e2studio_2021_01_workspace_RZA2M_ANPR/ANPR_RZA2M_EBK/src/tensorflow_lite/tensorflow/lite/kernels/internal\types.h **** };
 136:C:/Renesas/e2studio_2021_01_workspace_RZA2M_ANPR/ANPR_RZA2M_EBK/src/tensorflow_lite/tensorflow/lite/kernels/internal\types.h **** 
 137:C:/Renesas/e2studio_2021_01_workspace_RZA2M_ANPR/ANPR_RZA2M_EBK/src/tensorflow_lite/tensorflow/lite/kernels/internal\types.h **** inline bool operator==(const QuantizationParams& qp1,
 138:C:/Renesas/e2studio_2021_01_workspace_RZA2M_ANPR/ANPR_RZA2M_EBK/src/tensorflow_lite/tensorflow/lite/kernels/internal\types.h ****                        const QuantizationParams& qp2) {
 139:C:/Renesas/e2studio_2021_01_workspace_RZA2M_ANPR/ANPR_RZA2M_EBK/src/tensorflow_lite/tensorflow/lite/kernels/internal\types.h ****   return qp1.zero_point == qp2.zero_point && qp1.scale == qp2.scale;
 140:C:/Renesas/e2studio_2021_01_workspace_RZA2M_ANPR/ANPR_RZA2M_EBK/src/tensorflow_lite/tensorflow/lite/kernels/internal\types.h **** }
 141:C:/Renesas/e2studio_2021_01_workspace_RZA2M_ANPR/ANPR_RZA2M_EBK/src/tensorflow_lite/tensorflow/lite/kernels/internal\types.h **** 
 142:C:/Renesas/e2studio_2021_01_workspace_RZA2M_ANPR/ANPR_RZA2M_EBK/src/tensorflow_lite/tensorflow/lite/kernels/internal\types.h **** template <int N>
 143:C:/Renesas/e2studio_2021_01_workspace_RZA2M_ANPR/ANPR_RZA2M_EBK/src/tensorflow_lite/tensorflow/lite/kernels/internal\types.h **** struct Dims {
 144:C:/Renesas/e2studio_2021_01_workspace_RZA2M_ANPR/ANPR_RZA2M_EBK/src/tensorflow_lite/tensorflow/lite/kernels/internal\types.h ****   int sizes[N];
 145:C:/Renesas/e2studio_2021_01_workspace_RZA2M_ANPR/ANPR_RZA2M_EBK/src/tensorflow_lite/tensorflow/lite/kernels/internal\types.h ****   int strides[N];
 146:C:/Renesas/e2studio_2021_01_workspace_RZA2M_ANPR/ANPR_RZA2M_EBK/src/tensorflow_lite/tensorflow/lite/kernels/internal\types.h **** };
 147:C:/Renesas/e2studio_2021_01_workspace_RZA2M_ANPR/ANPR_RZA2M_EBK/src/tensorflow_lite/tensorflow/lite/kernels/internal\types.h **** 
 148:C:/Renesas/e2studio_2021_01_workspace_RZA2M_ANPR/ANPR_RZA2M_EBK/src/tensorflow_lite/tensorflow/lite/kernels/internal\types.h **** class RuntimeShape {
 149:C:/Renesas/e2studio_2021_01_workspace_RZA2M_ANPR/ANPR_RZA2M_EBK/src/tensorflow_lite/tensorflow/lite/kernels/internal\types.h ****  public:
 150:C:/Renesas/e2studio_2021_01_workspace_RZA2M_ANPR/ANPR_RZA2M_EBK/src/tensorflow_lite/tensorflow/lite/kernels/internal\types.h ****   // Shapes with dimensions up to 5 are stored directly in the structure, while
 151:C:/Renesas/e2studio_2021_01_workspace_RZA2M_ANPR/ANPR_RZA2M_EBK/src/tensorflow_lite/tensorflow/lite/kernels/internal\types.h ****   // larger shapes are separately allocated.
 152:C:/Renesas/e2studio_2021_01_workspace_RZA2M_ANPR/ANPR_RZA2M_EBK/src/tensorflow_lite/tensorflow/lite/kernels/internal\types.h ****   static constexpr int kMaxSmallSize = 5;
 153:C:/Renesas/e2studio_2021_01_workspace_RZA2M_ANPR/ANPR_RZA2M_EBK/src/tensorflow_lite/tensorflow/lite/kernels/internal\types.h **** 
 154:C:/Renesas/e2studio_2021_01_workspace_RZA2M_ANPR/ANPR_RZA2M_EBK/src/tensorflow_lite/tensorflow/lite/kernels/internal\types.h ****   RuntimeShape& operator=(RuntimeShape const&) = delete;
 155:C:/Renesas/e2studio_2021_01_workspace_RZA2M_ANPR/ANPR_RZA2M_EBK/src/tensorflow_lite/tensorflow/lite/kernels/internal\types.h **** 
 156:C:/Renesas/e2studio_2021_01_workspace_RZA2M_ANPR/ANPR_RZA2M_EBK/src/tensorflow_lite/tensorflow/lite/kernels/internal\types.h ****   RuntimeShape() : size_(0) {}
 157:C:/Renesas/e2studio_2021_01_workspace_RZA2M_ANPR/ANPR_RZA2M_EBK/src/tensorflow_lite/tensorflow/lite/kernels/internal\types.h **** 
 158:C:/Renesas/e2studio_2021_01_workspace_RZA2M_ANPR/ANPR_RZA2M_EBK/src/tensorflow_lite/tensorflow/lite/kernels/internal\types.h ****   explicit RuntimeShape(int dimensions_count) : size_(dimensions_count) {
 159:C:/Renesas/e2studio_2021_01_workspace_RZA2M_ANPR/ANPR_RZA2M_EBK/src/tensorflow_lite/tensorflow/lite/kernels/internal\types.h ****     if (dimensions_count > kMaxSmallSize) {
 160:C:/Renesas/e2studio_2021_01_workspace_RZA2M_ANPR/ANPR_RZA2M_EBK/src/tensorflow_lite/tensorflow/lite/kernels/internal\types.h **** #ifdef TF_LITE_STATIC_MEMORY
 161:C:/Renesas/e2studio_2021_01_workspace_RZA2M_ANPR/ANPR_RZA2M_EBK/src/tensorflow_lite/tensorflow/lite/kernels/internal\types.h ****       TFLITE_CHECK(false && "No shape resizing supported on this platform");
 162:C:/Renesas/e2studio_2021_01_workspace_RZA2M_ANPR/ANPR_RZA2M_EBK/src/tensorflow_lite/tensorflow/lite/kernels/internal\types.h **** #else  // TF_LITE_STATIC_MEMORY
 163:C:/Renesas/e2studio_2021_01_workspace_RZA2M_ANPR/ANPR_RZA2M_EBK/src/tensorflow_lite/tensorflow/lite/kernels/internal\types.h ****       dims_pointer_ = new int32_t[dimensions_count];
 164:C:/Renesas/e2studio_2021_01_workspace_RZA2M_ANPR/ANPR_RZA2M_EBK/src/tensorflow_lite/tensorflow/lite/kernels/internal\types.h **** #endif  // TF_LITE_STATIC_MEMORY
 165:C:/Renesas/e2studio_2021_01_workspace_RZA2M_ANPR/ANPR_RZA2M_EBK/src/tensorflow_lite/tensorflow/lite/kernels/internal\types.h ****     }
 166:C:/Renesas/e2studio_2021_01_workspace_RZA2M_ANPR/ANPR_RZA2M_EBK/src/tensorflow_lite/tensorflow/lite/kernels/internal\types.h ****   }
 167:C:/Renesas/e2studio_2021_01_workspace_RZA2M_ANPR/ANPR_RZA2M_EBK/src/tensorflow_lite/tensorflow/lite/kernels/internal\types.h **** 
 168:C:/Renesas/e2studio_2021_01_workspace_RZA2M_ANPR/ANPR_RZA2M_EBK/src/tensorflow_lite/tensorflow/lite/kernels/internal\types.h ****   RuntimeShape(int shape_size, int32_t value) : size_(0) {
 169:C:/Renesas/e2studio_2021_01_workspace_RZA2M_ANPR/ANPR_RZA2M_EBK/src/tensorflow_lite/tensorflow/lite/kernels/internal\types.h ****     Resize(shape_size);
 170:C:/Renesas/e2studio_2021_01_workspace_RZA2M_ANPR/ANPR_RZA2M_EBK/src/tensorflow_lite/tensorflow/lite/kernels/internal\types.h ****     for (int i = 0; i < shape_size; ++i) {
 171:C:/Renesas/e2studio_2021_01_workspace_RZA2M_ANPR/ANPR_RZA2M_EBK/src/tensorflow_lite/tensorflow/lite/kernels/internal\types.h ****       SetDim(i, value);
 172:C:/Renesas/e2studio_2021_01_workspace_RZA2M_ANPR/ANPR_RZA2M_EBK/src/tensorflow_lite/tensorflow/lite/kernels/internal\types.h ****     }
 173:C:/Renesas/e2studio_2021_01_workspace_RZA2M_ANPR/ANPR_RZA2M_EBK/src/tensorflow_lite/tensorflow/lite/kernels/internal\types.h ****   }
 174:C:/Renesas/e2studio_2021_01_workspace_RZA2M_ANPR/ANPR_RZA2M_EBK/src/tensorflow_lite/tensorflow/lite/kernels/internal\types.h **** 
 175:C:/Renesas/e2studio_2021_01_workspace_RZA2M_ANPR/ANPR_RZA2M_EBK/src/tensorflow_lite/tensorflow/lite/kernels/internal\types.h ****   RuntimeShape(int dimensions_count, const int32_t* dims_data) : size_(0) {
 176:C:/Renesas/e2studio_2021_01_workspace_RZA2M_ANPR/ANPR_RZA2M_EBK/src/tensorflow_lite/tensorflow/lite/kernels/internal\types.h ****     ReplaceWith(dimensions_count, dims_data);
 177:C:/Renesas/e2studio_2021_01_workspace_RZA2M_ANPR/ANPR_RZA2M_EBK/src/tensorflow_lite/tensorflow/lite/kernels/internal\types.h ****   }
 178:C:/Renesas/e2studio_2021_01_workspace_RZA2M_ANPR/ANPR_RZA2M_EBK/src/tensorflow_lite/tensorflow/lite/kernels/internal\types.h **** 
 179:C:/Renesas/e2studio_2021_01_workspace_RZA2M_ANPR/ANPR_RZA2M_EBK/src/tensorflow_lite/tensorflow/lite/kernels/internal\types.h ****   RuntimeShape(const std::initializer_list<int> init_list) : size_(0) {
 180:C:/Renesas/e2studio_2021_01_workspace_RZA2M_ANPR/ANPR_RZA2M_EBK/src/tensorflow_lite/tensorflow/lite/kernels/internal\types.h ****     BuildFrom(init_list);
 181:C:/Renesas/e2studio_2021_01_workspace_RZA2M_ANPR/ANPR_RZA2M_EBK/src/tensorflow_lite/tensorflow/lite/kernels/internal\types.h ****   }
 182:C:/Renesas/e2studio_2021_01_workspace_RZA2M_ANPR/ANPR_RZA2M_EBK/src/tensorflow_lite/tensorflow/lite/kernels/internal\types.h **** 
 183:C:/Renesas/e2studio_2021_01_workspace_RZA2M_ANPR/ANPR_RZA2M_EBK/src/tensorflow_lite/tensorflow/lite/kernels/internal\types.h ****   // Avoid using this constructor.  We should be able to delete it when C++17
 184:C:/Renesas/e2studio_2021_01_workspace_RZA2M_ANPR/ANPR_RZA2M_EBK/src/tensorflow_lite/tensorflow/lite/kernels/internal\types.h ****   // rolls out.
 185:C:/Renesas/e2studio_2021_01_workspace_RZA2M_ANPR/ANPR_RZA2M_EBK/src/tensorflow_lite/tensorflow/lite/kernels/internal\types.h ****   RuntimeShape(RuntimeShape const& other) : size_(other.DimensionsCount()) {
 186:C:/Renesas/e2studio_2021_01_workspace_RZA2M_ANPR/ANPR_RZA2M_EBK/src/tensorflow_lite/tensorflow/lite/kernels/internal\types.h ****     if (size_ > kMaxSmallSize) {
 187:C:/Renesas/e2studio_2021_01_workspace_RZA2M_ANPR/ANPR_RZA2M_EBK/src/tensorflow_lite/tensorflow/lite/kernels/internal\types.h **** #ifdef TF_LITE_STATIC_MEMORY
 188:C:/Renesas/e2studio_2021_01_workspace_RZA2M_ANPR/ANPR_RZA2M_EBK/src/tensorflow_lite/tensorflow/lite/kernels/internal\types.h ****       TFLITE_CHECK(false && "No shape resizing supported on this platform");
 189:C:/Renesas/e2studio_2021_01_workspace_RZA2M_ANPR/ANPR_RZA2M_EBK/src/tensorflow_lite/tensorflow/lite/kernels/internal\types.h **** #else
 190:C:/Renesas/e2studio_2021_01_workspace_RZA2M_ANPR/ANPR_RZA2M_EBK/src/tensorflow_lite/tensorflow/lite/kernels/internal\types.h ****       dims_pointer_ = new int32_t[size_];
 191:C:/Renesas/e2studio_2021_01_workspace_RZA2M_ANPR/ANPR_RZA2M_EBK/src/tensorflow_lite/tensorflow/lite/kernels/internal\types.h **** #endif
 192:C:/Renesas/e2studio_2021_01_workspace_RZA2M_ANPR/ANPR_RZA2M_EBK/src/tensorflow_lite/tensorflow/lite/kernels/internal\types.h ****     }
 193:C:/Renesas/e2studio_2021_01_workspace_RZA2M_ANPR/ANPR_RZA2M_EBK/src/tensorflow_lite/tensorflow/lite/kernels/internal\types.h ****     std::memcpy(DimsData(), other.DimsData(), sizeof(int32_t) * size_);
 194:C:/Renesas/e2studio_2021_01_workspace_RZA2M_ANPR/ANPR_RZA2M_EBK/src/tensorflow_lite/tensorflow/lite/kernels/internal\types.h ****   }
 195:C:/Renesas/e2studio_2021_01_workspace_RZA2M_ANPR/ANPR_RZA2M_EBK/src/tensorflow_lite/tensorflow/lite/kernels/internal\types.h **** 
 196:C:/Renesas/e2studio_2021_01_workspace_RZA2M_ANPR/ANPR_RZA2M_EBK/src/tensorflow_lite/tensorflow/lite/kernels/internal\types.h ****   bool operator==(const RuntimeShape& comp) const {
 197:C:/Renesas/e2studio_2021_01_workspace_RZA2M_ANPR/ANPR_RZA2M_EBK/src/tensorflow_lite/tensorflow/lite/kernels/internal\types.h ****     return this->size_ == comp.size_ &&
 198:C:/Renesas/e2studio_2021_01_workspace_RZA2M_ANPR/ANPR_RZA2M_EBK/src/tensorflow_lite/tensorflow/lite/kernels/internal\types.h ****            std::memcmp(DimsData(), comp.DimsData(), size_ * sizeof(int32_t)) ==
 199:C:/Renesas/e2studio_2021_01_workspace_RZA2M_ANPR/ANPR_RZA2M_EBK/src/tensorflow_lite/tensorflow/lite/kernels/internal\types.h ****                0;
 200:C:/Renesas/e2studio_2021_01_workspace_RZA2M_ANPR/ANPR_RZA2M_EBK/src/tensorflow_lite/tensorflow/lite/kernels/internal\types.h ****   }
 201:C:/Renesas/e2studio_2021_01_workspace_RZA2M_ANPR/ANPR_RZA2M_EBK/src/tensorflow_lite/tensorflow/lite/kernels/internal\types.h **** 
 202:C:/Renesas/e2studio_2021_01_workspace_RZA2M_ANPR/ANPR_RZA2M_EBK/src/tensorflow_lite/tensorflow/lite/kernels/internal\types.h ****   ~RuntimeShape() {
 203:C:/Renesas/e2studio_2021_01_workspace_RZA2M_ANPR/ANPR_RZA2M_EBK/src/tensorflow_lite/tensorflow/lite/kernels/internal\types.h ****     if (size_ > kMaxSmallSize) {
 204:C:/Renesas/e2studio_2021_01_workspace_RZA2M_ANPR/ANPR_RZA2M_EBK/src/tensorflow_lite/tensorflow/lite/kernels/internal\types.h **** #ifdef TF_LITE_STATIC_MEMORY
 205:C:/Renesas/e2studio_2021_01_workspace_RZA2M_ANPR/ANPR_RZA2M_EBK/src/tensorflow_lite/tensorflow/lite/kernels/internal\types.h ****       TFLITE_CHECK(false && "No shape resizing supported on this platform");
 206:C:/Renesas/e2studio_2021_01_workspace_RZA2M_ANPR/ANPR_RZA2M_EBK/src/tensorflow_lite/tensorflow/lite/kernels/internal\types.h **** #else  // TF_LITE_STATIC_MEMORY
 207:C:/Renesas/e2studio_2021_01_workspace_RZA2M_ANPR/ANPR_RZA2M_EBK/src/tensorflow_lite/tensorflow/lite/kernels/internal\types.h ****       delete[] dims_pointer_;
 208:C:/Renesas/e2studio_2021_01_workspace_RZA2M_ANPR/ANPR_RZA2M_EBK/src/tensorflow_lite/tensorflow/lite/kernels/internal\types.h **** #endif  // TF_LITE_STATIC_MEMORY
 209:C:/Renesas/e2studio_2021_01_workspace_RZA2M_ANPR/ANPR_RZA2M_EBK/src/tensorflow_lite/tensorflow/lite/kernels/internal\types.h ****     }
 210:C:/Renesas/e2studio_2021_01_workspace_RZA2M_ANPR/ANPR_RZA2M_EBK/src/tensorflow_lite/tensorflow/lite/kernels/internal\types.h ****   }
 211:C:/Renesas/e2studio_2021_01_workspace_RZA2M_ANPR/ANPR_RZA2M_EBK/src/tensorflow_lite/tensorflow/lite/kernels/internal\types.h **** 
 212:C:/Renesas/e2studio_2021_01_workspace_RZA2M_ANPR/ANPR_RZA2M_EBK/src/tensorflow_lite/tensorflow/lite/kernels/internal\types.h ****   inline int32_t DimensionsCount() const { return size_; }
 213:C:/Renesas/e2studio_2021_01_workspace_RZA2M_ANPR/ANPR_RZA2M_EBK/src/tensorflow_lite/tensorflow/lite/kernels/internal\types.h ****   inline int32_t Dims(int i) const {
 214:C:/Renesas/e2studio_2021_01_workspace_RZA2M_ANPR/ANPR_RZA2M_EBK/src/tensorflow_lite/tensorflow/lite/kernels/internal\types.h ****     TFLITE_DCHECK_GE(i, 0);
 215:C:/Renesas/e2studio_2021_01_workspace_RZA2M_ANPR/ANPR_RZA2M_EBK/src/tensorflow_lite/tensorflow/lite/kernels/internal\types.h ****     TFLITE_DCHECK_LT(i, size_);
 216:C:/Renesas/e2studio_2021_01_workspace_RZA2M_ANPR/ANPR_RZA2M_EBK/src/tensorflow_lite/tensorflow/lite/kernels/internal\types.h ****     return size_ > kMaxSmallSize ? dims_pointer_[i] : dims_[i];
 217:C:/Renesas/e2studio_2021_01_workspace_RZA2M_ANPR/ANPR_RZA2M_EBK/src/tensorflow_lite/tensorflow/lite/kernels/internal\types.h ****   }
 218:C:/Renesas/e2studio_2021_01_workspace_RZA2M_ANPR/ANPR_RZA2M_EBK/src/tensorflow_lite/tensorflow/lite/kernels/internal\types.h ****   inline void SetDim(int i, int32_t val) {
 219:C:/Renesas/e2studio_2021_01_workspace_RZA2M_ANPR/ANPR_RZA2M_EBK/src/tensorflow_lite/tensorflow/lite/kernels/internal\types.h ****     TFLITE_DCHECK_GE(i, 0);
 220:C:/Renesas/e2studio_2021_01_workspace_RZA2M_ANPR/ANPR_RZA2M_EBK/src/tensorflow_lite/tensorflow/lite/kernels/internal\types.h ****     TFLITE_DCHECK_LT(i, size_);
 221:C:/Renesas/e2studio_2021_01_workspace_RZA2M_ANPR/ANPR_RZA2M_EBK/src/tensorflow_lite/tensorflow/lite/kernels/internal\types.h ****     if (size_ > kMaxSmallSize) {
 222:C:/Renesas/e2studio_2021_01_workspace_RZA2M_ANPR/ANPR_RZA2M_EBK/src/tensorflow_lite/tensorflow/lite/kernels/internal\types.h ****       dims_pointer_[i] = val;
 223:C:/Renesas/e2studio_2021_01_workspace_RZA2M_ANPR/ANPR_RZA2M_EBK/src/tensorflow_lite/tensorflow/lite/kernels/internal\types.h ****     } else {
 224:C:/Renesas/e2studio_2021_01_workspace_RZA2M_ANPR/ANPR_RZA2M_EBK/src/tensorflow_lite/tensorflow/lite/kernels/internal\types.h ****       dims_[i] = val;
 225:C:/Renesas/e2studio_2021_01_workspace_RZA2M_ANPR/ANPR_RZA2M_EBK/src/tensorflow_lite/tensorflow/lite/kernels/internal\types.h ****     }
 226:C:/Renesas/e2studio_2021_01_workspace_RZA2M_ANPR/ANPR_RZA2M_EBK/src/tensorflow_lite/tensorflow/lite/kernels/internal\types.h ****   }
 227:C:/Renesas/e2studio_2021_01_workspace_RZA2M_ANPR/ANPR_RZA2M_EBK/src/tensorflow_lite/tensorflow/lite/kernels/internal\types.h **** 
 228:C:/Renesas/e2studio_2021_01_workspace_RZA2M_ANPR/ANPR_RZA2M_EBK/src/tensorflow_lite/tensorflow/lite/kernels/internal\types.h ****   inline int32_t* DimsData() {
 229:C:/Renesas/e2studio_2021_01_workspace_RZA2M_ANPR/ANPR_RZA2M_EBK/src/tensorflow_lite/tensorflow/lite/kernels/internal\types.h ****     return size_ > kMaxSmallSize ? dims_pointer_ : dims_;
 230:C:/Renesas/e2studio_2021_01_workspace_RZA2M_ANPR/ANPR_RZA2M_EBK/src/tensorflow_lite/tensorflow/lite/kernels/internal\types.h ****   }
 231:C:/Renesas/e2studio_2021_01_workspace_RZA2M_ANPR/ANPR_RZA2M_EBK/src/tensorflow_lite/tensorflow/lite/kernels/internal\types.h ****   inline const int32_t* DimsData() const {
 232:C:/Renesas/e2studio_2021_01_workspace_RZA2M_ANPR/ANPR_RZA2M_EBK/src/tensorflow_lite/tensorflow/lite/kernels/internal\types.h ****     return size_ > kMaxSmallSize ? dims_pointer_ : dims_;
 233:C:/Renesas/e2studio_2021_01_workspace_RZA2M_ANPR/ANPR_RZA2M_EBK/src/tensorflow_lite/tensorflow/lite/kernels/internal\types.h ****   }
 234:C:/Renesas/e2studio_2021_01_workspace_RZA2M_ANPR/ANPR_RZA2M_EBK/src/tensorflow_lite/tensorflow/lite/kernels/internal\types.h ****   // The caller must ensure that the shape is no bigger than 5-D.
 235:C:/Renesas/e2studio_2021_01_workspace_RZA2M_ANPR/ANPR_RZA2M_EBK/src/tensorflow_lite/tensorflow/lite/kernels/internal\types.h ****   inline const int32_t* DimsDataUpTo5D() const { return dims_; }
 236:C:/Renesas/e2studio_2021_01_workspace_RZA2M_ANPR/ANPR_RZA2M_EBK/src/tensorflow_lite/tensorflow/lite/kernels/internal\types.h **** 
 237:C:/Renesas/e2studio_2021_01_workspace_RZA2M_ANPR/ANPR_RZA2M_EBK/src/tensorflow_lite/tensorflow/lite/kernels/internal\types.h ****   inline void Resize(int dimensions_count) {
 238:C:/Renesas/e2studio_2021_01_workspace_RZA2M_ANPR/ANPR_RZA2M_EBK/src/tensorflow_lite/tensorflow/lite/kernels/internal\types.h ****     if (size_ > kMaxSmallSize) {
 239:C:/Renesas/e2studio_2021_01_workspace_RZA2M_ANPR/ANPR_RZA2M_EBK/src/tensorflow_lite/tensorflow/lite/kernels/internal\types.h **** #ifdef TF_LITE_STATIC_MEMORY
 240:C:/Renesas/e2studio_2021_01_workspace_RZA2M_ANPR/ANPR_RZA2M_EBK/src/tensorflow_lite/tensorflow/lite/kernels/internal\types.h ****       TFLITE_CHECK(false && "No shape resizing supported on this platform");
 241:C:/Renesas/e2studio_2021_01_workspace_RZA2M_ANPR/ANPR_RZA2M_EBK/src/tensorflow_lite/tensorflow/lite/kernels/internal\types.h **** #else  // TF_LITE_STATIC_MEMORY
 242:C:/Renesas/e2studio_2021_01_workspace_RZA2M_ANPR/ANPR_RZA2M_EBK/src/tensorflow_lite/tensorflow/lite/kernels/internal\types.h ****       delete[] dims_pointer_;
 243:C:/Renesas/e2studio_2021_01_workspace_RZA2M_ANPR/ANPR_RZA2M_EBK/src/tensorflow_lite/tensorflow/lite/kernels/internal\types.h **** #endif  // TF_LITE_STATIC_MEMORY
 244:C:/Renesas/e2studio_2021_01_workspace_RZA2M_ANPR/ANPR_RZA2M_EBK/src/tensorflow_lite/tensorflow/lite/kernels/internal\types.h ****     }
 245:C:/Renesas/e2studio_2021_01_workspace_RZA2M_ANPR/ANPR_RZA2M_EBK/src/tensorflow_lite/tensorflow/lite/kernels/internal\types.h ****     size_ = dimensions_count;
 246:C:/Renesas/e2studio_2021_01_workspace_RZA2M_ANPR/ANPR_RZA2M_EBK/src/tensorflow_lite/tensorflow/lite/kernels/internal\types.h ****     if (dimensions_count > kMaxSmallSize) {
 247:C:/Renesas/e2studio_2021_01_workspace_RZA2M_ANPR/ANPR_RZA2M_EBK/src/tensorflow_lite/tensorflow/lite/kernels/internal\types.h **** #ifdef TF_LITE_STATIC_MEMORY
 248:C:/Renesas/e2studio_2021_01_workspace_RZA2M_ANPR/ANPR_RZA2M_EBK/src/tensorflow_lite/tensorflow/lite/kernels/internal\types.h ****       TFLITE_CHECK(false && "No shape resizing supported on this platform");
 249:C:/Renesas/e2studio_2021_01_workspace_RZA2M_ANPR/ANPR_RZA2M_EBK/src/tensorflow_lite/tensorflow/lite/kernels/internal\types.h **** #else  // TF_LITE_STATIC_MEMORY
 250:C:/Renesas/e2studio_2021_01_workspace_RZA2M_ANPR/ANPR_RZA2M_EBK/src/tensorflow_lite/tensorflow/lite/kernels/internal\types.h ****       dims_pointer_ = new int32_t[dimensions_count];
 251:C:/Renesas/e2studio_2021_01_workspace_RZA2M_ANPR/ANPR_RZA2M_EBK/src/tensorflow_lite/tensorflow/lite/kernels/internal\types.h **** #endif  // TF_LITE_STATIC_MEMORY
 252:C:/Renesas/e2studio_2021_01_workspace_RZA2M_ANPR/ANPR_RZA2M_EBK/src/tensorflow_lite/tensorflow/lite/kernels/internal\types.h ****     }
 253:C:/Renesas/e2studio_2021_01_workspace_RZA2M_ANPR/ANPR_RZA2M_EBK/src/tensorflow_lite/tensorflow/lite/kernels/internal\types.h ****   }
 254:C:/Renesas/e2studio_2021_01_workspace_RZA2M_ANPR/ANPR_RZA2M_EBK/src/tensorflow_lite/tensorflow/lite/kernels/internal\types.h **** 
 255:C:/Renesas/e2studio_2021_01_workspace_RZA2M_ANPR/ANPR_RZA2M_EBK/src/tensorflow_lite/tensorflow/lite/kernels/internal\types.h ****   inline void ReplaceWith(int dimensions_count, const int32_t* dims_data) {
 256:C:/Renesas/e2studio_2021_01_workspace_RZA2M_ANPR/ANPR_RZA2M_EBK/src/tensorflow_lite/tensorflow/lite/kernels/internal\types.h ****     Resize(dimensions_count);
 257:C:/Renesas/e2studio_2021_01_workspace_RZA2M_ANPR/ANPR_RZA2M_EBK/src/tensorflow_lite/tensorflow/lite/kernels/internal\types.h ****     int32_t* dst_dims = DimsData();
 258:C:/Renesas/e2studio_2021_01_workspace_RZA2M_ANPR/ANPR_RZA2M_EBK/src/tensorflow_lite/tensorflow/lite/kernels/internal\types.h ****     std::memcpy(dst_dims, dims_data, dimensions_count * sizeof(int32_t));
 259:C:/Renesas/e2studio_2021_01_workspace_RZA2M_ANPR/ANPR_RZA2M_EBK/src/tensorflow_lite/tensorflow/lite/kernels/internal\types.h ****   }
 260:C:/Renesas/e2studio_2021_01_workspace_RZA2M_ANPR/ANPR_RZA2M_EBK/src/tensorflow_lite/tensorflow/lite/kernels/internal\types.h **** 
 261:C:/Renesas/e2studio_2021_01_workspace_RZA2M_ANPR/ANPR_RZA2M_EBK/src/tensorflow_lite/tensorflow/lite/kernels/internal\types.h ****   template <typename T>
 262:C:/Renesas/e2studio_2021_01_workspace_RZA2M_ANPR/ANPR_RZA2M_EBK/src/tensorflow_lite/tensorflow/lite/kernels/internal\types.h ****   inline void BuildFrom(const T& src_iterable) {
 263:C:/Renesas/e2studio_2021_01_workspace_RZA2M_ANPR/ANPR_RZA2M_EBK/src/tensorflow_lite/tensorflow/lite/kernels/internal\types.h ****     const int dimensions_count =
 264:C:/Renesas/e2studio_2021_01_workspace_RZA2M_ANPR/ANPR_RZA2M_EBK/src/tensorflow_lite/tensorflow/lite/kernels/internal\types.h ****         std::distance(src_iterable.begin(), src_iterable.end());
 265:C:/Renesas/e2studio_2021_01_workspace_RZA2M_ANPR/ANPR_RZA2M_EBK/src/tensorflow_lite/tensorflow/lite/kernels/internal\types.h ****     Resize(dimensions_count);
 266:C:/Renesas/e2studio_2021_01_workspace_RZA2M_ANPR/ANPR_RZA2M_EBK/src/tensorflow_lite/tensorflow/lite/kernels/internal\types.h ****     int32_t* data = DimsData();
 267:C:/Renesas/e2studio_2021_01_workspace_RZA2M_ANPR/ANPR_RZA2M_EBK/src/tensorflow_lite/tensorflow/lite/kernels/internal\types.h ****     for (auto it : src_iterable) {
 268:C:/Renesas/e2studio_2021_01_workspace_RZA2M_ANPR/ANPR_RZA2M_EBK/src/tensorflow_lite/tensorflow/lite/kernels/internal\types.h ****       *data = it;
 269:C:/Renesas/e2studio_2021_01_workspace_RZA2M_ANPR/ANPR_RZA2M_EBK/src/tensorflow_lite/tensorflow/lite/kernels/internal\types.h ****       ++data;
 270:C:/Renesas/e2studio_2021_01_workspace_RZA2M_ANPR/ANPR_RZA2M_EBK/src/tensorflow_lite/tensorflow/lite/kernels/internal\types.h ****     }
 271:C:/Renesas/e2studio_2021_01_workspace_RZA2M_ANPR/ANPR_RZA2M_EBK/src/tensorflow_lite/tensorflow/lite/kernels/internal\types.h ****   }
 272:C:/Renesas/e2studio_2021_01_workspace_RZA2M_ANPR/ANPR_RZA2M_EBK/src/tensorflow_lite/tensorflow/lite/kernels/internal\types.h **** 
 273:C:/Renesas/e2studio_2021_01_workspace_RZA2M_ANPR/ANPR_RZA2M_EBK/src/tensorflow_lite/tensorflow/lite/kernels/internal\types.h ****   // This will probably be factored out. Old code made substantial use of 4-D
 274:C:/Renesas/e2studio_2021_01_workspace_RZA2M_ANPR/ANPR_RZA2M_EBK/src/tensorflow_lite/tensorflow/lite/kernels/internal\types.h ****   // shapes, and so this function is used to extend smaller shapes. Note that
 275:C:/Renesas/e2studio_2021_01_workspace_RZA2M_ANPR/ANPR_RZA2M_EBK/src/tensorflow_lite/tensorflow/lite/kernels/internal\types.h ****   // (a) as Dims<4>-dependent code is eliminated, the reliance on this should be
 276:C:/Renesas/e2studio_2021_01_workspace_RZA2M_ANPR/ANPR_RZA2M_EBK/src/tensorflow_lite/tensorflow/lite/kernels/internal\types.h ****   // reduced, and (b) some kernels are stricly 4-D, but then the shapes of their
 277:C:/Renesas/e2studio_2021_01_workspace_RZA2M_ANPR/ANPR_RZA2M_EBK/src/tensorflow_lite/tensorflow/lite/kernels/internal\types.h ****   // inputs should already be 4-D, so this function should not be needed.
 278:C:/Renesas/e2studio_2021_01_workspace_RZA2M_ANPR/ANPR_RZA2M_EBK/src/tensorflow_lite/tensorflow/lite/kernels/internal\types.h ****   inline static RuntimeShape ExtendedShape(int new_shape_size,
 279:C:/Renesas/e2studio_2021_01_workspace_RZA2M_ANPR/ANPR_RZA2M_EBK/src/tensorflow_lite/tensorflow/lite/kernels/internal\types.h ****                                            const RuntimeShape& shape) {
 280:C:/Renesas/e2studio_2021_01_workspace_RZA2M_ANPR/ANPR_RZA2M_EBK/src/tensorflow_lite/tensorflow/lite/kernels/internal\types.h ****     return RuntimeShape(new_shape_size, shape, 1);
 281:C:/Renesas/e2studio_2021_01_workspace_RZA2M_ANPR/ANPR_RZA2M_EBK/src/tensorflow_lite/tensorflow/lite/kernels/internal\types.h ****   }
 282:C:/Renesas/e2studio_2021_01_workspace_RZA2M_ANPR/ANPR_RZA2M_EBK/src/tensorflow_lite/tensorflow/lite/kernels/internal\types.h **** 
 283:C:/Renesas/e2studio_2021_01_workspace_RZA2M_ANPR/ANPR_RZA2M_EBK/src/tensorflow_lite/tensorflow/lite/kernels/internal\types.h ****   inline void BuildFrom(const std::initializer_list<int> init_list) {
 284:C:/Renesas/e2studio_2021_01_workspace_RZA2M_ANPR/ANPR_RZA2M_EBK/src/tensorflow_lite/tensorflow/lite/kernels/internal\types.h ****     BuildFrom<const std::initializer_list<int>>(init_list);
 285:C:/Renesas/e2studio_2021_01_workspace_RZA2M_ANPR/ANPR_RZA2M_EBK/src/tensorflow_lite/tensorflow/lite/kernels/internal\types.h ****   }
 286:C:/Renesas/e2studio_2021_01_workspace_RZA2M_ANPR/ANPR_RZA2M_EBK/src/tensorflow_lite/tensorflow/lite/kernels/internal\types.h **** 
 287:C:/Renesas/e2studio_2021_01_workspace_RZA2M_ANPR/ANPR_RZA2M_EBK/src/tensorflow_lite/tensorflow/lite/kernels/internal\types.h ****   // Returns the total count of elements, that is the size when flattened into a
 288:C:/Renesas/e2studio_2021_01_workspace_RZA2M_ANPR/ANPR_RZA2M_EBK/src/tensorflow_lite/tensorflow/lite/kernels/internal\types.h ****   // vector.
 289:C:/Renesas/e2studio_2021_01_workspace_RZA2M_ANPR/ANPR_RZA2M_EBK/src/tensorflow_lite/tensorflow/lite/kernels/internal\types.h ****   inline int FlatSize() const {
 290:C:/Renesas/e2studio_2021_01_workspace_RZA2M_ANPR/ANPR_RZA2M_EBK/src/tensorflow_lite/tensorflow/lite/kernels/internal\types.h ****     int buffer_size = 1;
 291:C:/Renesas/e2studio_2021_01_workspace_RZA2M_ANPR/ANPR_RZA2M_EBK/src/tensorflow_lite/tensorflow/lite/kernels/internal\types.h ****     const int* dims_data = reinterpret_cast<const int*>(DimsData());
 292:C:/Renesas/e2studio_2021_01_workspace_RZA2M_ANPR/ANPR_RZA2M_EBK/src/tensorflow_lite/tensorflow/lite/kernels/internal\types.h ****     for (int i = 0; i < size_; i++) {
 293:C:/Renesas/e2studio_2021_01_workspace_RZA2M_ANPR/ANPR_RZA2M_EBK/src/tensorflow_lite/tensorflow/lite/kernels/internal\types.h ****       buffer_size *= dims_data[i];
 294:C:/Renesas/e2studio_2021_01_workspace_RZA2M_ANPR/ANPR_RZA2M_EBK/src/tensorflow_lite/tensorflow/lite/kernels/internal\types.h ****     }
 295:C:/Renesas/e2studio_2021_01_workspace_RZA2M_ANPR/ANPR_RZA2M_EBK/src/tensorflow_lite/tensorflow/lite/kernels/internal\types.h ****     return buffer_size;
 296:C:/Renesas/e2studio_2021_01_workspace_RZA2M_ANPR/ANPR_RZA2M_EBK/src/tensorflow_lite/tensorflow/lite/kernels/internal\types.h ****   }
 297:C:/Renesas/e2studio_2021_01_workspace_RZA2M_ANPR/ANPR_RZA2M_EBK/src/tensorflow_lite/tensorflow/lite/kernels/internal\types.h **** 
 298:C:/Renesas/e2studio_2021_01_workspace_RZA2M_ANPR/ANPR_RZA2M_EBK/src/tensorflow_lite/tensorflow/lite/kernels/internal\types.h ****   bool operator!=(const RuntimeShape& comp) const { return !((*this) == comp); }
 299:C:/Renesas/e2studio_2021_01_workspace_RZA2M_ANPR/ANPR_RZA2M_EBK/src/tensorflow_lite/tensorflow/lite/kernels/internal\types.h **** 
 300:C:/Renesas/e2studio_2021_01_workspace_RZA2M_ANPR/ANPR_RZA2M_EBK/src/tensorflow_lite/tensorflow/lite/kernels/internal\types.h ****  private:
 301:C:/Renesas/e2studio_2021_01_workspace_RZA2M_ANPR/ANPR_RZA2M_EBK/src/tensorflow_lite/tensorflow/lite/kernels/internal\types.h ****   // For use only by ExtendedShape(), written to guarantee (return-value) copy
 302:C:/Renesas/e2studio_2021_01_workspace_RZA2M_ANPR/ANPR_RZA2M_EBK/src/tensorflow_lite/tensorflow/lite/kernels/internal\types.h ****   // elision in C++17.
 303:C:/Renesas/e2studio_2021_01_workspace_RZA2M_ANPR/ANPR_RZA2M_EBK/src/tensorflow_lite/tensorflow/lite/kernels/internal\types.h ****   // This creates a shape padded to the desired size with the specified value.
 304:C:/Renesas/e2studio_2021_01_workspace_RZA2M_ANPR/ANPR_RZA2M_EBK/src/tensorflow_lite/tensorflow/lite/kernels/internal\types.h ****   RuntimeShape(int new_shape_size, const RuntimeShape& shape, int pad_value)
 305:C:/Renesas/e2studio_2021_01_workspace_RZA2M_ANPR/ANPR_RZA2M_EBK/src/tensorflow_lite/tensorflow/lite/kernels/internal\types.h ****       : size_(0) {
 306:C:/Renesas/e2studio_2021_01_workspace_RZA2M_ANPR/ANPR_RZA2M_EBK/src/tensorflow_lite/tensorflow/lite/kernels/internal\types.h ****     // If the following check fails, it is likely because a 4D-only kernel is
 307:C:/Renesas/e2studio_2021_01_workspace_RZA2M_ANPR/ANPR_RZA2M_EBK/src/tensorflow_lite/tensorflow/lite/kernels/internal\types.h ****     // being used with an array of larger dimension count.
 308:C:/Renesas/e2studio_2021_01_workspace_RZA2M_ANPR/ANPR_RZA2M_EBK/src/tensorflow_lite/tensorflow/lite/kernels/internal\types.h ****     TFLITE_CHECK_GE(new_shape_size, shape.DimensionsCount());
 309:C:/Renesas/e2studio_2021_01_workspace_RZA2M_ANPR/ANPR_RZA2M_EBK/src/tensorflow_lite/tensorflow/lite/kernels/internal\types.h ****     Resize(new_shape_size);
 310:C:/Renesas/e2studio_2021_01_workspace_RZA2M_ANPR/ANPR_RZA2M_EBK/src/tensorflow_lite/tensorflow/lite/kernels/internal\types.h ****     const int size_increase = new_shape_size - shape.DimensionsCount();
 311:C:/Renesas/e2studio_2021_01_workspace_RZA2M_ANPR/ANPR_RZA2M_EBK/src/tensorflow_lite/tensorflow/lite/kernels/internal\types.h ****     for (int i = 0; i < size_increase; ++i) {
 266              		.loc 4 311 0
 267 010c 050072E2 		rsbs	r0, r2, #5
 268              	.LBE884:
 269              	.LBB897:
 270              	.LBB898:
 245:C:/Renesas/e2studio_2021_01_workspace_RZA2M_ANPR/ANPR_RZA2M_EBK/src/tensorflow_lite/tensorflow/lite/kernels/internal\types.h ****     if (dimensions_count > kMaxSmallSize) {
 271              		.loc 4 245 0
 272 0110 0530A0E3 		mov	r3, #5
 273 0114 C4308DE5 		str	r3, [sp, #196]
 274              	.LVL26:
 275              	.LBE898:
 276              	.LBE897:
 277              	.LBB899:
 278              		.loc 4 311 0
 279 0118 9E00000A 		beq	.L21
 280              	.LVL27:
 281 011c 010050E3 		cmp	r0, #1
 282              	.LBB885:
 283              	.LBB886:
 224:C:/Renesas/e2studio_2021_01_workspace_RZA2M_ANPR/ANPR_RZA2M_EBK/src/tensorflow_lite/tensorflow/lite/kernels/internal\types.h ****     }
 284              		.loc 4 224 0
 285 0120 0130A0E3 		mov	r3, #1
 286 0124 C8308DE5 		str	r3, [sp, #200]
 287              	.LVL28:
 288              	.LBE886:
 289              	.LBE885:
 290              		.loc 4 311 0
 291 0128 9A00000A 		beq	.L21
 292              	.LVL29:
 293 012c 020050E3 		cmp	r0, #2
 294              	.LBB892:
 295              	.LBB887:
 224:C:/Renesas/e2studio_2021_01_workspace_RZA2M_ANPR/ANPR_RZA2M_EBK/src/tensorflow_lite/tensorflow/lite/kernels/internal\types.h ****     }
 296              		.loc 4 224 0
 297 0130 CC308DE5 		str	r3, [sp, #204]
 298              	.LVL30:
 299              	.LBE887:
 300              	.LBE892:
 301              		.loc 4 311 0
 302 0134 9700000A 		beq	.L21
 303              	.LVL31:
 304 0138 030050E3 		cmp	r0, #3
 305              	.LBB893:
 306              	.LBB888:
 224:C:/Renesas/e2studio_2021_01_workspace_RZA2M_ANPR/ANPR_RZA2M_EBK/src/tensorflow_lite/tensorflow/lite/kernels/internal\types.h ****     }
 307              		.loc 4 224 0
 308 013c D0308DE5 		str	r3, [sp, #208]
 309              	.LVL32:
 310              	.LBE888:
 311              	.LBE893:
 312              		.loc 4 311 0
 313 0140 9400000A 		beq	.L21
 314              	.LVL33:
 315 0144 040050E3 		cmp	r0, #4
 316              	.LBB894:
 317              	.LBB889:
 224:C:/Renesas/e2studio_2021_01_workspace_RZA2M_ANPR/ANPR_RZA2M_EBK/src/tensorflow_lite/tensorflow/lite/kernels/internal\types.h ****     }
 318              		.loc 4 224 0
 319 0148 D4308DE5 		str	r3, [sp, #212]
 320              	.LVL34:
 321              	.LBE889:
 322              	.LBE894:
 323              		.loc 4 311 0
 324 014c 9100000A 		beq	.L21
 325              	.LVL35:
 326 0150 050050E3 		cmp	r0, #5
 327              	.LBB895:
 328              	.LBB890:
 224:C:/Renesas/e2studio_2021_01_workspace_RZA2M_ANPR/ANPR_RZA2M_EBK/src/tensorflow_lite/tensorflow/lite/kernels/internal\types.h ****     }
 329              		.loc 4 224 0
 330 0154 D8308DE5 		str	r3, [sp, #216]
 331              	.LVL36:
 332              	.LBE890:
 333              	.LBE895:
 334              		.loc 4 311 0
 335 0158 8E00000A 		beq	.L21
 336              	.LVL37:
 337              	.LEHB2:
 338              	.LBB896:
 339              	.LBB891:
 220:C:/Renesas/e2studio_2021_01_workspace_RZA2M_ANPR/ANPR_RZA2M_EBK/src/tensorflow_lite/tensorflow/lite/kernels/internal\types.h ****     if (size_ > kMaxSmallSize) {
 340              		.loc 4 220 0
 341 015c FEFFFFEB 		bl	abort
 342              	.LVL38:
 343              	.LEHE2:
 344              	.L13:
 345              	.LBE891:
 346              	.LBE896:
 347              	.LBE899:
 348              	.LBE883:
 349              	.LBE882:
 350              	.LBE881:
 351              	.LBE880:
 352              	.LBE1221:
 353              	.LBE1226:
 354              	.LBE1231:
 355              	.LBE1238:
 165:../src/tensorflow_lite/tensorflow/lite/micro/kernels/strided_slice.cc ****                                   tflite::micro::GetTensorData<int8_t>(input),
 356              		.loc 1 165 0
 357 0160 0510A0E1 		mov	r1, r5
 358 0164 94008DE2 		add	r0, sp, #148
 359              	.LEHB3:
 360 0168 FEFFFFEB 		bl	_ZN6tflite5micro14GetTensorShapeEPK16TfLiteEvalTensor
 361              	.LVL39:
 362              	.LEHE3:
 363              	.LBB1239:
 364              	.LBB1240:
  62:C:/Renesas/e2studio_2021_01_workspace_RZA2M_ANPR/ANPR_RZA2M_EBK/src/tensorflow_lite/tensorflow/lite/micro/kernels\kernel_util.h ****   return reinterpret_cast<const T*>(tensor->data.raw);
 365              		.loc 2 62 0
 366 016c 000055E3 		cmp	r5, #0
 367 0170 8600000A 		beq	.L1053
 368              	.LBE1240:
 369              	.LBE1239:
 167:../src/tensorflow_lite/tensorflow/lite/micro/kernels/strided_slice.cc ****                                   tflite::micro::GetTensorData<int8_t>(output));
 370              		.loc 1 167 0
 371 0174 0610A0E1 		mov	r1, r6
 372 0178 AC008DE2 		add	r0, sp, #172
 373              	.LBB1243:
 374              	.LBB1241:
 375              		.loc 2 63 0
 376 017c 00A095E5 		ldr	r10, [r5]
 377              	.LEHB4:
 378              	.LBE1241:
 379              	.LBE1243:
 167:../src/tensorflow_lite/tensorflow/lite/micro/kernels/strided_slice.cc ****                                   tflite::micro::GetTensorData<int8_t>(output));
 380              		.loc 1 167 0
 381 0180 FEFFFFEB 		bl	_ZN6tflite5micro14GetTensorShapeEPK16TfLiteEvalTensor
 382              	.LVL40:
 383              	.LEHE4:
 384              	.LBB1244:
 385              	.LBB1245:
 386              	.LBB1246:
 387              	.LBB1247:
  41:C:/Renesas/e2studio_2021_01_workspace_RZA2M_ANPR/ANPR_RZA2M_EBK/src/tensorflow_lite/tensorflow/lite/kernels/internal/reference\strided_slice.h **** 
 388              		.loc 3 41 0
 389 0184 5420A0E3 		mov	r2, #84
 390 0188 0410A0E1 		mov	r1, r4
 391 018c F4008DE2 		add	r0, sp, #244
 392              	.LBE1247:
 393              	.LBE1246:
 394              	.LBE1245:
 395              	.LBE1244:
 396              	.LBB1620:
 397              	.LBB1621:
  56:C:/Renesas/e2studio_2021_01_workspace_RZA2M_ANPR/ANPR_RZA2M_EBK/src/tensorflow_lite/tensorflow/lite/micro/kernels\kernel_util.h **** }
 398              		.loc 2 56 0
 399 0190 007096E5 		ldr	r7, [r6]
 400              	.LVL41:
 401              	.LBE1621:
 402              	.LBE1620:
 403              	.LBB1622:
 404              	.LBB1612:
 405              	.LBB1604:
 406              	.LBB1596:
  41:C:/Renesas/e2studio_2021_01_workspace_RZA2M_ANPR/ANPR_RZA2M_EBK/src/tensorflow_lite/tensorflow/lite/kernels/internal/reference\strided_slice.h **** 
 407              		.loc 3 41 0
 408 0194 FEFFFFEB 		bl	memcpy
 409              	.LVL42:
 410 0198 94209DE5 		ldr	r2, [sp, #148]
 411 019c FC34D4E1 		ldrsh	r3, [r4, #76]
 412 01a0 D060D4E1 		ldrsb	r6, [r4]
 413              	.LVL43:
  43:C:/Renesas/e2studio_2021_01_workspace_RZA2M_ANPR/ANPR_RZA2M_EBK/src/tensorflow_lite/tensorflow/lite/kernels/internal/reference\strided_slice.h ****   TFLITE_DCHECK_LE(unextended_output_shape.DimensionsCount(), 5);
 414              		.loc 3 43 0
 415 01a4 050052E3 		cmp	r2, #5
  41:C:/Renesas/e2studio_2021_01_workspace_RZA2M_ANPR/ANPR_RZA2M_EBK/src/tensorflow_lite/tensorflow/lite/kernels/internal/reference\strided_slice.h **** 
 416              		.loc 3 41 0
 417 01a8 D851D4E1 		ldrsb	r5, [r4, #24]
 418              	.LVL44:
 419 01ac D093D4E1 		ldrsb	r9, [r4, #48]
 420 01b0 F8B4D4E1 		ldrsh	fp, [r4, #72]
 421 01b4 08308DE5 		str	r3, [sp, #8]
 422 01b8 F045D4E1 		ldrsh	r4, [r4, #80]
 423              	.LVL45:
  43:C:/Renesas/e2studio_2021_01_workspace_RZA2M_ANPR/ANPR_RZA2M_EBK/src/tensorflow_lite/tensorflow/lite/kernels/internal/reference\strided_slice.h ****   TFLITE_DCHECK_LE(unextended_output_shape.DimensionsCount(), 5);
 424              		.loc 3 43 0
 425 01bc 710000CA 		bgt	.L1054
 426 01c0 AC809DE5 		ldr	r8, [sp, #172]
 427              	.LVL46:
 428              		.loc 3 44 0
 429 01c4 050058E3 		cmp	r8, #5
 430 01c8 6D0000CA 		bgt	.L1055
 431              	.LVL47:
 432              	.LBB1248:
 433              	.LBB1249:
 434              	.LBB1250:
 435              	.LBB1251:
 436              	.LBB1252:
 437              		.loc 4 311 0
 438 01cc 050072E2 		rsbs	r0, r2, #5
 439              	.LBE1252:
 440              	.LBB1265:
 441              	.LBB1266:
 245:C:/Renesas/e2studio_2021_01_workspace_RZA2M_ANPR/ANPR_RZA2M_EBK/src/tensorflow_lite/tensorflow/lite/kernels/internal\types.h ****     if (dimensions_count > kMaxSmallSize) {
 442              		.loc 4 245 0
 443 01d0 0530A0E3 		mov	r3, #5
 444 01d4 C4308DE5 		str	r3, [sp, #196]
 445              	.LVL48:
 446              	.LBE1266:
 447              	.LBE1265:
 448              	.LBB1267:
 449              		.loc 4 311 0
 450 01d8 4F00000A 		beq	.L340
 451              	.LVL49:
 452 01dc 010050E3 		cmp	r0, #1
 453              	.LBB1253:
 454              	.LBB1254:
 224:C:/Renesas/e2studio_2021_01_workspace_RZA2M_ANPR/ANPR_RZA2M_EBK/src/tensorflow_lite/tensorflow/lite/kernels/internal\types.h ****     }
 455              		.loc 4 224 0
 456 01e0 0130A0E3 		mov	r3, #1
 457 01e4 C8308DE5 		str	r3, [sp, #200]
 458              	.LVL50:
 459              	.LBE1254:
 460              	.LBE1253:
 461              		.loc 4 311 0
 462 01e8 4B00000A 		beq	.L340
 463              	.LVL51:
 464 01ec 020050E3 		cmp	r0, #2
 465              	.LBB1260:
 466              	.LBB1255:
 224:C:/Renesas/e2studio_2021_01_workspace_RZA2M_ANPR/ANPR_RZA2M_EBK/src/tensorflow_lite/tensorflow/lite/kernels/internal\types.h ****     }
 467              		.loc 4 224 0
 468 01f0 CC308DE5 		str	r3, [sp, #204]
 469              	.LVL52:
 470              	.LBE1255:
 471              	.LBE1260:
 472              		.loc 4 311 0
 473 01f4 4800000A 		beq	.L340
 474              	.LVL53:
 475 01f8 030050E3 		cmp	r0, #3
 476              	.LBB1261:
 477              	.LBB1256:
 224:C:/Renesas/e2studio_2021_01_workspace_RZA2M_ANPR/ANPR_RZA2M_EBK/src/tensorflow_lite/tensorflow/lite/kernels/internal\types.h ****     }
 478              		.loc 4 224 0
 479 01fc D0308DE5 		str	r3, [sp, #208]
 480              	.LVL54:
 481              	.LBE1256:
 482              	.LBE1261:
 483              		.loc 4 311 0
 484 0200 4500000A 		beq	.L340
 485              	.LVL55:
 486 0204 040050E3 		cmp	r0, #4
 487              	.LBB1262:
 488              	.LBB1257:
 224:C:/Renesas/e2studio_2021_01_workspace_RZA2M_ANPR/ANPR_RZA2M_EBK/src/tensorflow_lite/tensorflow/lite/kernels/internal\types.h ****     }
 489              		.loc 4 224 0
 490 0208 D4308DE5 		str	r3, [sp, #212]
 491              	.LVL56:
 492              	.LBE1257:
 493              	.LBE1262:
 494              		.loc 4 311 0
 495 020c 4200000A 		beq	.L340
 496              	.LVL57:
 497 0210 050050E3 		cmp	r0, #5
 498              	.LBB1263:
 499              	.LBB1258:
 224:C:/Renesas/e2studio_2021_01_workspace_RZA2M_ANPR/ANPR_RZA2M_EBK/src/tensorflow_lite/tensorflow/lite/kernels/internal\types.h ****     }
 500              		.loc 4 224 0
 501 0214 D8308DE5 		str	r3, [sp, #216]
 502              	.LVL58:
 503              	.LBE1258:
 504              	.LBE1263:
 505              		.loc 4 311 0
 506 0218 3F00000A 		beq	.L340
 507              	.LVL59:
 508              	.LEHB5:
 509              	.LBB1264:
 510              	.LBB1259:
 220:C:/Renesas/e2studio_2021_01_workspace_RZA2M_ANPR/ANPR_RZA2M_EBK/src/tensorflow_lite/tensorflow/lite/kernels/internal\types.h ****     if (size_ > kMaxSmallSize) {
 511              		.loc 4 220 0
 512 021c FEFFFFEB 		bl	abort
 513              	.LVL60:
 514              	.LEHE5:
 515              	.L12:
 516              	.LBE1259:
 517              	.LBE1264:
 518              	.LBE1267:
 519              	.LBE1251:
 520              	.LBE1250:
 521              	.LBE1249:
 522              	.LBE1248:
 523              	.LBE1596:
 524              	.LBE1604:
 525              	.LBE1612:
 526              	.LBE1622:
 158:../src/tensorflow_lite/tensorflow/lite/micro/kernels/strided_slice.cc ****           tflite::micro::GetTensorData<uint8_t>(input),
 527              		.loc 1 158 0
 528 0220 0510A0E1 		mov	r1, r5
 529 0224 94008DE2 		add	r0, sp, #148
 530              	.LEHB6:
 531 0228 FEFFFFEB 		bl	_ZN6tflite5micro14GetTensorShapeEPK16TfLiteEvalTensor
 532              	.LVL61:
 533              	.LEHE6:
 534              	.LBB1623:
 535              	.LBB1624:
  62:C:/Renesas/e2studio_2021_01_workspace_RZA2M_ANPR/ANPR_RZA2M_EBK/src/tensorflow_lite/tensorflow/lite/micro/kernels\kernel_util.h ****   return reinterpret_cast<const T*>(tensor->data.raw);
 536              		.loc 2 62 0
 537 022c 000055E3 		cmp	r5, #0
 538 0230 2A03000A 		beq	.L1056
 539              	.LBE1624:
 540              	.LBE1623:
 160:../src/tensorflow_lite/tensorflow/lite/micro/kernels/strided_slice.cc ****           tflite::micro::GetTensorData<uint8_t>(output));
 541              		.loc 1 160 0
 542 0234 0610A0E1 		mov	r1, r6
 543 0238 AC008DE2 		add	r0, sp, #172
 544              	.LBB1627:
 545              	.LBB1625:
 546              		.loc 2 63 0
 547 023c 00A095E5 		ldr	r10, [r5]
 548              	.LEHB7:
 549              	.LBE1625:
 550              	.LBE1627:
 160:../src/tensorflow_lite/tensorflow/lite/micro/kernels/strided_slice.cc ****           tflite::micro::GetTensorData<uint8_t>(output));
 551              		.loc 1 160 0
 552 0240 FEFFFFEB 		bl	_ZN6tflite5micro14GetTensorShapeEPK16TfLiteEvalTensor
 553              	.LVL62:
 554              	.LEHE7:
 555              	.LBB1628:
 556              	.LBB1629:
 557              	.LBB1630:
 558              	.LBB1631:
  41:C:/Renesas/e2studio_2021_01_workspace_RZA2M_ANPR/ANPR_RZA2M_EBK/src/tensorflow_lite/tensorflow/lite/kernels/internal/reference\strided_slice.h **** 
 559              		.loc 3 41 0
 560 0244 5420A0E3 		mov	r2, #84
 561 0248 0410A0E1 		mov	r1, r4
 562 024c F4008DE2 		add	r0, sp, #244
 563              	.LBE1631:
 564              	.LBE1630:
 565              	.LBE1629:
 566              	.LBE1628:
 567              	.LBB1983:
 568              	.LBB1984:
  56:C:/Renesas/e2studio_2021_01_workspace_RZA2M_ANPR/ANPR_RZA2M_EBK/src/tensorflow_lite/tensorflow/lite/micro/kernels\kernel_util.h **** }
 569              		.loc 2 56 0
 570 0250 007096E5 		ldr	r7, [r6]
 571              	.LVL63:
 572              	.LBE1984:
 573              	.LBE1983:
 574              	.LBB1985:
 575              	.LBB1979:
 576              	.LBB1975:
 577              	.LBB1971:
  41:C:/Renesas/e2studio_2021_01_workspace_RZA2M_ANPR/ANPR_RZA2M_EBK/src/tensorflow_lite/tensorflow/lite/kernels/internal/reference\strided_slice.h **** 
 578              		.loc 3 41 0
 579 0254 FEFFFFEB 		bl	memcpy
 580              	.LVL64:
 581 0258 94209DE5 		ldr	r2, [sp, #148]
 582 025c F834D4E1 		ldrsh	r3, [r4, #72]
 583 0260 D060D4E1 		ldrsb	r6, [r4]
 584              	.LVL65:
  43:C:/Renesas/e2studio_2021_01_workspace_RZA2M_ANPR/ANPR_RZA2M_EBK/src/tensorflow_lite/tensorflow/lite/kernels/internal/reference\strided_slice.h ****   TFLITE_DCHECK_LE(unextended_output_shape.DimensionsCount(), 5);
 585              		.loc 3 43 0
 586 0264 050052E3 		cmp	r2, #5
  41:C:/Renesas/e2studio_2021_01_workspace_RZA2M_ANPR/ANPR_RZA2M_EBK/src/tensorflow_lite/tensorflow/lite/kernels/internal/reference\strided_slice.h **** 
 587              		.loc 3 41 0
 588 0268 D851D4E1 		ldrsb	r5, [r4, #24]
 589              	.LVL66:
 590 026c D093D4E1 		ldrsb	r9, [r4, #48]
 591 0270 FCB4D4E1 		ldrsh	fp, [r4, #76]
 592 0274 08308DE5 		str	r3, [sp, #8]
 593 0278 F045D4E1 		ldrsh	r4, [r4, #80]
 594              	.LVL67:
  43:C:/Renesas/e2studio_2021_01_workspace_RZA2M_ANPR/ANPR_RZA2M_EBK/src/tensorflow_lite/tensorflow/lite/kernels/internal/reference\strided_slice.h ****   TFLITE_DCHECK_LE(unextended_output_shape.DimensionsCount(), 5);
 595              		.loc 3 43 0
 596 027c 150300CA 		bgt	.L1057
 597 0280 AC809DE5 		ldr	r8, [sp, #172]
 598              	.LVL68:
 599              		.loc 3 44 0
 600 0284 050058E3 		cmp	r8, #5
 601 0288 110300CA 		bgt	.L1058
 602              	.LVL69:
 603              	.LBB1632:
 604              	.LBB1633:
 605              	.LBB1634:
 606              	.LBB1635:
 607              	.LBB1636:
 608              		.loc 4 311 0
 609 028c 050072E2 		rsbs	r0, r2, #5
 610              	.LBE1636:
 611              	.LBB1649:
 612              	.LBB1650:
 245:C:/Renesas/e2studio_2021_01_workspace_RZA2M_ANPR/ANPR_RZA2M_EBK/src/tensorflow_lite/tensorflow/lite/kernels/internal\types.h ****     if (dimensions_count > kMaxSmallSize) {
 613              		.loc 4 245 0
 614 0290 0530A0E3 		mov	r3, #5
 615 0294 C4308DE5 		str	r3, [sp, #196]
 616              	.LVL70:
 617              	.LBE1650:
 618              	.LBE1649:
 619              	.LBB1651:
 620              		.loc 4 311 0
 621 0298 1203000A 		beq	.L181
 622              	.LVL71:
 623 029c 010050E3 		cmp	r0, #1
 624              	.LBB1637:
 625              	.LBB1638:
 224:C:/Renesas/e2studio_2021_01_workspace_RZA2M_ANPR/ANPR_RZA2M_EBK/src/tensorflow_lite/tensorflow/lite/kernels/internal\types.h ****     }
 626              		.loc 4 224 0
 627 02a0 0130A0E3 		mov	r3, #1
 628 02a4 C8308DE5 		str	r3, [sp, #200]
 629              	.LVL72:
 630              	.LBE1638:
 631              	.LBE1637:
 632              		.loc 4 311 0
 633 02a8 0E03000A 		beq	.L181
 634              	.LVL73:
 635 02ac 020050E3 		cmp	r0, #2
 636              	.LBB1644:
 637              	.LBB1639:
 224:C:/Renesas/e2studio_2021_01_workspace_RZA2M_ANPR/ANPR_RZA2M_EBK/src/tensorflow_lite/tensorflow/lite/kernels/internal\types.h ****     }
 638              		.loc 4 224 0
 639 02b0 CC308DE5 		str	r3, [sp, #204]
 640              	.LVL74:
 641              	.LBE1639:
 642              	.LBE1644:
 643              		.loc 4 311 0
 644 02b4 0B03000A 		beq	.L181
 645              	.LVL75:
 646 02b8 030050E3 		cmp	r0, #3
 647              	.LBB1645:
 648              	.LBB1640:
 224:C:/Renesas/e2studio_2021_01_workspace_RZA2M_ANPR/ANPR_RZA2M_EBK/src/tensorflow_lite/tensorflow/lite/kernels/internal\types.h ****     }
 649              		.loc 4 224 0
 650 02bc D0308DE5 		str	r3, [sp, #208]
 651              	.LVL76:
 652              	.LBE1640:
 653              	.LBE1645:
 654              		.loc 4 311 0
 655 02c0 0803000A 		beq	.L181
 656              	.LVL77:
 657 02c4 040050E3 		cmp	r0, #4
 658              	.LBB1646:
 659              	.LBB1641:
 224:C:/Renesas/e2studio_2021_01_workspace_RZA2M_ANPR/ANPR_RZA2M_EBK/src/tensorflow_lite/tensorflow/lite/kernels/internal\types.h ****     }
 660              		.loc 4 224 0
 661 02c8 D4308DE5 		str	r3, [sp, #212]
 662              	.LVL78:
 663              	.LBE1641:
 664              	.LBE1646:
 665              		.loc 4 311 0
 666 02cc 0503000A 		beq	.L181
 667              	.LVL79:
 668 02d0 050050E3 		cmp	r0, #5
 669              	.LBB1647:
 670              	.LBB1642:
 224:C:/Renesas/e2studio_2021_01_workspace_RZA2M_ANPR/ANPR_RZA2M_EBK/src/tensorflow_lite/tensorflow/lite/kernels/internal\types.h ****     }
 671              		.loc 4 224 0
 672 02d4 D8308DE5 		str	r3, [sp, #216]
 673              	.LVL80:
 674              	.LBE1642:
 675              	.LBE1647:
 676              		.loc 4 311 0
 677 02d8 0203000A 		beq	.L181
 678              	.LVL81:
 679              	.LEHB8:
 680              	.LBB1648:
 681              	.LBB1643:
 220:C:/Renesas/e2studio_2021_01_workspace_RZA2M_ANPR/ANPR_RZA2M_EBK/src/tensorflow_lite/tensorflow/lite/kernels/internal\types.h ****     if (size_ > kMaxSmallSize) {
 682              		.loc 4 220 0
 683 02dc FEFFFFEB 		bl	abort
 684              	.LVL82:
 685              	.LEHE8:
 686              	.L631:
 687              	.L489:
 688              	.LBE1643:
 689              	.LBE1648:
 690              	.LBE1651:
 691              	.LBE1635:
 692              	.LBE1634:
 693              	.LBE1633:
 694              	.LBE1632:
 695              	.LBE1971:
 696              	.LBE1975:
 697              	.LBE1979:
 698              	.LBE1985:
 699              	.LBB1986:
 700              	.LBB1987:
 203:C:/Renesas/e2studio_2021_01_workspace_RZA2M_ANPR/ANPR_RZA2M_EBK/src/tensorflow_lite/tensorflow/lite/kernels/internal\types.h **** #ifdef TF_LITE_STATIC_MEMORY
 701              		.loc 4 203 0
 702 02e0 AC309DE5 		ldr	r3, [sp, #172]
 703 02e4 050053E3 		cmp	r3, #5
 704 02e8 030000DA 		ble	.L497
 207:C:/Renesas/e2studio_2021_01_workspace_RZA2M_ANPR/ANPR_RZA2M_EBK/src/tensorflow_lite/tensorflow/lite/kernels/internal\types.h **** #endif  // TF_LITE_STATIC_MEMORY
 705              		.loc 4 207 0
 706 02ec B0009DE5 		ldr	r0, [sp, #176]
 707 02f0 000050E3 		cmp	r0, #0
 708 02f4 0000000A 		beq	.L497
 709 02f8 FEFFFFEB 		bl	_ZdaPv
 710              	.LVL83:
 711              	.L497:
 712              	.LBE1987:
 713              	.LBE1986:
 714              	.LBB1988:
 715              	.LBB1989:
 203:C:/Renesas/e2studio_2021_01_workspace_RZA2M_ANPR/ANPR_RZA2M_EBK/src/tensorflow_lite/tensorflow/lite/kernels/internal\types.h **** #ifdef TF_LITE_STATIC_MEMORY
 716              		.loc 4 203 0
 717 02fc 94309DE5 		ldr	r3, [sp, #148]
 718 0300 050053E3 		cmp	r3, #5
 719 0304 030000DA 		ble	.L498
 207:C:/Renesas/e2studio_2021_01_workspace_RZA2M_ANPR/ANPR_RZA2M_EBK/src/tensorflow_lite/tensorflow/lite/kernels/internal\types.h **** #endif  // TF_LITE_STATIC_MEMORY
 720              		.loc 4 207 0
 721 0308 98009DE5 		ldr	r0, [sp, #152]
 722 030c 000050E3 		cmp	r0, #0
 723 0310 0000000A 		beq	.L498
 724 0314 FEFFFFEB 		bl	_ZdaPv
 725              	.LVL84:
 726              	.L498:
 727              	.LEHB9:
 728 0318 FEFFFFEB 		bl	__cxa_end_cleanup
 729              	.LVL85:
 730              	.LEHE9:
 731              	.L340:
 732              	.LBE1989:
 733              	.LBE1988:
 734              	.LBB1990:
 735              	.LBB1613:
 736              	.LBB1605:
 737              	.LBB1597:
 738              	.LBB1271:
 739              	.LBB1270:
 740              	.LBB1269:
 741              	.LBB1268:
 312:C:/Renesas/e2studio_2021_01_workspace_RZA2M_ANPR/ANPR_RZA2M_EBK/src/tensorflow_lite/tensorflow/lite/kernels/internal\types.h ****       SetDim(i, pad_value);
 313:C:/Renesas/e2studio_2021_01_workspace_RZA2M_ANPR/ANPR_RZA2M_EBK/src/tensorflow_lite/tensorflow/lite/kernels/internal\types.h ****     }
 314:C:/Renesas/e2studio_2021_01_workspace_RZA2M_ANPR/ANPR_RZA2M_EBK/src/tensorflow_lite/tensorflow/lite/kernels/internal\types.h ****     std::memcpy(DimsData() + size_increase, shape.DimsData(),
 315:C:/Renesas/e2studio_2021_01_workspace_RZA2M_ANPR/ANPR_RZA2M_EBK/src/tensorflow_lite/tensorflow/lite/kernels/internal\types.h ****                 sizeof(int32_t) * shape.DimensionsCount());
 742              		.loc 4 315 0
 743 031c C8308DE2 		add	r3, sp, #200
 744 0320 0221A0E1 		lsl	r2, r2, #2
 745 0324 000183E0 		add	r0, r3, r0, lsl #2
 746              	.LVL86:
 747 0328 98108DE2 		add	r1, sp, #152
 748 032c FEFFFFEB 		bl	memcpy
 749              	.LVL87:
 750              	.LBE1268:
 751              	.LBE1269:
 752              	.LBE1270:
 753              	.LBE1271:
 754              	.LBB1272:
 755              	.LBB1273:
 756              	.LBB1274:
 757              	.LBB1275:
 758              	.LBB1276:
 311:C:/Renesas/e2studio_2021_01_workspace_RZA2M_ANPR/ANPR_RZA2M_EBK/src/tensorflow_lite/tensorflow/lite/kernels/internal\types.h ****       SetDim(i, pad_value);
 759              		.loc 4 311 0
 760 0330 050078E2 		rsbs	r0, r8, #5
 761              	.LBE1276:
 762              	.LBB1289:
 763              	.LBB1290:
 245:C:/Renesas/e2studio_2021_01_workspace_RZA2M_ANPR/ANPR_RZA2M_EBK/src/tensorflow_lite/tensorflow/lite/kernels/internal\types.h ****     if (dimensions_count > kMaxSmallSize) {
 764              		.loc 4 245 0
 765 0334 0530A0E3 		mov	r3, #5
 766 0338 DC308DE5 		str	r3, [sp, #220]
 767              	.LVL88:
 768              	.LBE1290:
 769              	.LBE1289:
 770              	.LBB1291:
 311:C:/Renesas/e2studio_2021_01_workspace_RZA2M_ANPR/ANPR_RZA2M_EBK/src/tensorflow_lite/tensorflow/lite/kernels/internal\types.h ****       SetDim(i, pad_value);
 771              		.loc 4 311 0
 772 033c 0403000A 		beq	.L338
 773              	.LVL89:
 774 0340 010050E3 		cmp	r0, #1
 775              	.LBB1277:
 776              	.LBB1278:
 224:C:/Renesas/e2studio_2021_01_workspace_RZA2M_ANPR/ANPR_RZA2M_EBK/src/tensorflow_lite/tensorflow/lite/kernels/internal\types.h ****     }
 777              		.loc 4 224 0
 778 0344 0130A0E3 		mov	r3, #1
 779 0348 E0308DE5 		str	r3, [sp, #224]
 780              	.LVL90:
 781              	.LBE1278:
 782              	.LBE1277:
 311:C:/Renesas/e2studio_2021_01_workspace_RZA2M_ANPR/ANPR_RZA2M_EBK/src/tensorflow_lite/tensorflow/lite/kernels/internal\types.h ****       SetDim(i, pad_value);
 783              		.loc 4 311 0
 784 034c 0003000A 		beq	.L338
 785              	.LVL91:
 786 0350 020050E3 		cmp	r0, #2
 787              	.LBB1284:
 788              	.LBB1279:
 224:C:/Renesas/e2studio_2021_01_workspace_RZA2M_ANPR/ANPR_RZA2M_EBK/src/tensorflow_lite/tensorflow/lite/kernels/internal\types.h ****     }
 789              		.loc 4 224 0
 790 0354 E4308DE5 		str	r3, [sp, #228]
 791              	.LVL92:
 792              	.LBE1279:
 793              	.LBE1284:
 311:C:/Renesas/e2studio_2021_01_workspace_RZA2M_ANPR/ANPR_RZA2M_EBK/src/tensorflow_lite/tensorflow/lite/kernels/internal\types.h ****       SetDim(i, pad_value);
 794              		.loc 4 311 0
 795 0358 FD02000A 		beq	.L338
 796              	.LVL93:
 797 035c 030050E3 		cmp	r0, #3
 798              	.LBB1285:
 799              	.LBB1280:
 224:C:/Renesas/e2studio_2021_01_workspace_RZA2M_ANPR/ANPR_RZA2M_EBK/src/tensorflow_lite/tensorflow/lite/kernels/internal\types.h ****     }
 800              		.loc 4 224 0
 801 0360 E8308DE5 		str	r3, [sp, #232]
 802              	.LVL94:
 803              	.LBE1280:
 804              	.LBE1285:
 311:C:/Renesas/e2studio_2021_01_workspace_RZA2M_ANPR/ANPR_RZA2M_EBK/src/tensorflow_lite/tensorflow/lite/kernels/internal\types.h ****       SetDim(i, pad_value);
 805              		.loc 4 311 0
 806 0364 FA02000A 		beq	.L338
 807              	.LVL95:
 808 0368 040050E3 		cmp	r0, #4
 809              	.LBB1286:
 810              	.LBB1281:
 224:C:/Renesas/e2studio_2021_01_workspace_RZA2M_ANPR/ANPR_RZA2M_EBK/src/tensorflow_lite/tensorflow/lite/kernels/internal\types.h ****     }
 811              		.loc 4 224 0
 812 036c EC308DE5 		str	r3, [sp, #236]
 813              	.LVL96:
 814              	.LBE1281:
 815              	.LBE1286:
 311:C:/Renesas/e2studio_2021_01_workspace_RZA2M_ANPR/ANPR_RZA2M_EBK/src/tensorflow_lite/tensorflow/lite/kernels/internal\types.h ****       SetDim(i, pad_value);
 816              		.loc 4 311 0
 817 0370 F702000A 		beq	.L338
 818              	.LVL97:
 819 0374 050050E3 		cmp	r0, #5
 820              	.LBB1287:
 821              	.LBB1282:
 224:C:/Renesas/e2studio_2021_01_workspace_RZA2M_ANPR/ANPR_RZA2M_EBK/src/tensorflow_lite/tensorflow/lite/kernels/internal\types.h ****     }
 822              		.loc 4 224 0
 823 0378 F0308DE5 		str	r3, [sp, #240]
 824              	.LVL98:
 825              	.LBE1282:
 826              	.LBE1287:
 311:C:/Renesas/e2studio_2021_01_workspace_RZA2M_ANPR/ANPR_RZA2M_EBK/src/tensorflow_lite/tensorflow/lite/kernels/internal\types.h ****       SetDim(i, pad_value);
 827              		.loc 4 311 0
 828 037c F402000A 		beq	.L338
 829              	.LVL99:
 830              	.LEHB10:
 831              	.LBB1288:
 832              	.LBB1283:
 220:C:/Renesas/e2studio_2021_01_workspace_RZA2M_ANPR/ANPR_RZA2M_EBK/src/tensorflow_lite/tensorflow/lite/kernels/internal\types.h ****     if (size_ > kMaxSmallSize) {
 833              		.loc 4 220 0
 834 0380 FEFFFFEB 		bl	abort
 835              	.LVL100:
 836              	.LEHE10:
 837              	.L1055:
 838              	.LEHB11:
 839              	.LBE1283:
 840              	.LBE1288:
 841              	.LBE1291:
 842              	.LBE1275:
 843              	.LBE1274:
 844              	.LBE1273:
 845              	.LBE1272:
 846              		.loc 3 44 0
 847 0384 FEFFFFEB 		bl	abort
 848              	.LVL101:
 849              	.L1054:
  43:C:/Renesas/e2studio_2021_01_workspace_RZA2M_ANPR/ANPR_RZA2M_EBK/src/tensorflow_lite/tensorflow/lite/kernels/internal/reference\strided_slice.h ****   TFLITE_DCHECK_LE(unextended_output_shape.DimensionsCount(), 5);
 850              		.loc 3 43 0
 851 0388 FEFFFFEB 		bl	abort
 852              	.LVL102:
 853              	.LEHE11:
 854              	.L624:
 855 038c DAFFFFEA 		b	.L497
 856              	.L1053:
 857              	.LEHB12:
 858              	.LBE1597:
 859              	.LBE1605:
 860              	.LBE1613:
 861              	.LBE1990:
 862              	.LBB1991:
 863              	.LBB1242:
  62:C:/Renesas/e2studio_2021_01_workspace_RZA2M_ANPR/ANPR_RZA2M_EBK/src/tensorflow_lite/tensorflow/lite/micro/kernels\kernel_util.h ****   return reinterpret_cast<const T*>(tensor->data.raw);
 864              		.loc 2 62 0
 865 0390 FEFFFFEB 		bl	abort
 866              	.LVL103:
 867              	.LEHE12:
 868              	.L625:
 869 0394 D1FFFFEA 		b	.L489
 870              	.LVL104:
 871              	.L21:
 872              	.LBE1242:
 873              	.LBE1991:
 874              	.LBB1992:
 875              	.LBB1232:
 876              	.LBB1227:
 877              	.LBB1222:
 878              	.LBB903:
 879              	.LBB902:
 880              	.LBB901:
 881              	.LBB900:
 882              		.loc 4 315 0
 883 0398 C8308DE2 		add	r3, sp, #200
 884 039c 0221A0E1 		lsl	r2, r2, #2
 885 03a0 000183E0 		add	r0, r3, r0, lsl #2
 886              	.LVL105:
 887 03a4 98108DE2 		add	r1, sp, #152
 888 03a8 FEFFFFEB 		bl	memcpy
 889              	.LVL106:
 890              	.LBE900:
 891              	.LBE901:
 892              	.LBE902:
 893              	.LBE903:
 894              	.LBB904:
 895              	.LBB905:
 896              	.LBB906:
 897              	.LBB907:
 898              	.LBB908:
 311:C:/Renesas/e2studio_2021_01_workspace_RZA2M_ANPR/ANPR_RZA2M_EBK/src/tensorflow_lite/tensorflow/lite/kernels/internal\types.h ****       SetDim(i, pad_value);
 899              		.loc 4 311 0
 900 03ac 05007AE2 		rsbs	r0, r10, #5
 901              	.LBE908:
 902              	.LBB921:
 903              	.LBB922:
 245:C:/Renesas/e2studio_2021_01_workspace_RZA2M_ANPR/ANPR_RZA2M_EBK/src/tensorflow_lite/tensorflow/lite/kernels/internal\types.h ****     if (dimensions_count > kMaxSmallSize) {
 904              		.loc 4 245 0
 905 03b0 0530A0E3 		mov	r3, #5
 906 03b4 DC308DE5 		str	r3, [sp, #220]
 907              	.LVL107:
 908              	.LBE922:
 909              	.LBE921:
 910              	.LBB923:
 311:C:/Renesas/e2studio_2021_01_workspace_RZA2M_ANPR/ANPR_RZA2M_EBK/src/tensorflow_lite/tensorflow/lite/kernels/internal\types.h ****       SetDim(i, pad_value);
 911              		.loc 4 311 0
 912 03b8 1C00000A 		beq	.L19
 913              	.LVL108:
 914 03bc 010050E3 		cmp	r0, #1
 915              	.LBB909:
 916              	.LBB910:
 224:C:/Renesas/e2studio_2021_01_workspace_RZA2M_ANPR/ANPR_RZA2M_EBK/src/tensorflow_lite/tensorflow/lite/kernels/internal\types.h ****     }
 917              		.loc 4 224 0
 918 03c0 0130A0E3 		mov	r3, #1
 919 03c4 E0308DE5 		str	r3, [sp, #224]
 920              	.LVL109:
 921              	.LBE910:
 922              	.LBE909:
 311:C:/Renesas/e2studio_2021_01_workspace_RZA2M_ANPR/ANPR_RZA2M_EBK/src/tensorflow_lite/tensorflow/lite/kernels/internal\types.h ****       SetDim(i, pad_value);
 923              		.loc 4 311 0
 924 03c8 1800000A 		beq	.L19
 925              	.LVL110:
 926 03cc 020050E3 		cmp	r0, #2
 927              	.LBB916:
 928              	.LBB911:
 224:C:/Renesas/e2studio_2021_01_workspace_RZA2M_ANPR/ANPR_RZA2M_EBK/src/tensorflow_lite/tensorflow/lite/kernels/internal\types.h ****     }
 929              		.loc 4 224 0
 930 03d0 E4308DE5 		str	r3, [sp, #228]
 931              	.LVL111:
 932              	.LBE911:
 933              	.LBE916:
 311:C:/Renesas/e2studio_2021_01_workspace_RZA2M_ANPR/ANPR_RZA2M_EBK/src/tensorflow_lite/tensorflow/lite/kernels/internal\types.h ****       SetDim(i, pad_value);
 934              		.loc 4 311 0
 935 03d4 1500000A 		beq	.L19
 936              	.LVL112:
 937 03d8 030050E3 		cmp	r0, #3
 938              	.LBB917:
 939              	.LBB912:
 224:C:/Renesas/e2studio_2021_01_workspace_RZA2M_ANPR/ANPR_RZA2M_EBK/src/tensorflow_lite/tensorflow/lite/kernels/internal\types.h ****     }
 940              		.loc 4 224 0
 941 03dc E8308DE5 		str	r3, [sp, #232]
 942              	.LVL113:
 943              	.LBE912:
 944              	.LBE917:
 311:C:/Renesas/e2studio_2021_01_workspace_RZA2M_ANPR/ANPR_RZA2M_EBK/src/tensorflow_lite/tensorflow/lite/kernels/internal\types.h ****       SetDim(i, pad_value);
 945              		.loc 4 311 0
 946 03e0 1200000A 		beq	.L19
 947              	.LVL114:
 948 03e4 040050E3 		cmp	r0, #4
 949              	.LBB918:
 950              	.LBB913:
 224:C:/Renesas/e2studio_2021_01_workspace_RZA2M_ANPR/ANPR_RZA2M_EBK/src/tensorflow_lite/tensorflow/lite/kernels/internal\types.h ****     }
 951              		.loc 4 224 0
 952 03e8 EC308DE5 		str	r3, [sp, #236]
 953              	.LVL115:
 954              	.LBE913:
 955              	.LBE918:
 311:C:/Renesas/e2studio_2021_01_workspace_RZA2M_ANPR/ANPR_RZA2M_EBK/src/tensorflow_lite/tensorflow/lite/kernels/internal\types.h ****       SetDim(i, pad_value);
 956              		.loc 4 311 0
 957 03ec 0F00000A 		beq	.L19
 958              	.LVL116:
 959 03f0 050050E3 		cmp	r0, #5
 960              	.LBB919:
 961              	.LBB914:
 224:C:/Renesas/e2studio_2021_01_workspace_RZA2M_ANPR/ANPR_RZA2M_EBK/src/tensorflow_lite/tensorflow/lite/kernels/internal\types.h ****     }
 962              		.loc 4 224 0
 963 03f4 F0308DE5 		str	r3, [sp, #240]
 964              	.LVL117:
 965              	.LBE914:
 966              	.LBE919:
 311:C:/Renesas/e2studio_2021_01_workspace_RZA2M_ANPR/ANPR_RZA2M_EBK/src/tensorflow_lite/tensorflow/lite/kernels/internal\types.h ****       SetDim(i, pad_value);
 967              		.loc 4 311 0
 968 03f8 0C00000A 		beq	.L19
 969              	.LVL118:
 970              	.LEHB13:
 971              	.LBB920:
 972              	.LBB915:
 220:C:/Renesas/e2studio_2021_01_workspace_RZA2M_ANPR/ANPR_RZA2M_EBK/src/tensorflow_lite/tensorflow/lite/kernels/internal\types.h ****     if (size_ > kMaxSmallSize) {
 973              		.loc 4 220 0
 974 03fc FEFFFFEB 		bl	abort
 975              	.LVL119:
 976              	.LEHE13:
 977              	.L1052:
 978              	.LEHB14:
 979              	.LBE915:
 980              	.LBE920:
 981              	.LBE923:
 982              	.LBE907:
 983              	.LBE906:
 984              	.LBE905:
 985              	.LBE904:
 986              		.loc 3 44 0
 987 0400 FEFFFFEB 		bl	abort
 988              	.LVL120:
 989              	.L1051:
  43:C:/Renesas/e2studio_2021_01_workspace_RZA2M_ANPR/ANPR_RZA2M_EBK/src/tensorflow_lite/tensorflow/lite/kernels/internal/reference\strided_slice.h ****   TFLITE_DCHECK_LE(unextended_output_shape.DimensionsCount(), 5);
 990              		.loc 3 43 0
 991 0404 FEFFFFEB 		bl	abort
 992              	.LVL121:
 993              	.LEHE14:
 994              	.L622:
 995 0408 BBFFFFEA 		b	.L497
 996              	.LVL122:
 997              	.L1050:
 998              	.LEHB15:
 999              	.LBE1222:
 1000              	.LBE1227:
 1001              	.LBE1232:
 1002              	.LBE1992:
 1003              	.LBB1993:
 1004              	.LBB874:
  62:C:/Renesas/e2studio_2021_01_workspace_RZA2M_ANPR/ANPR_RZA2M_EBK/src/tensorflow_lite/tensorflow/lite/micro/kernels\kernel_util.h ****   return reinterpret_cast<const T*>(tensor->data.raw);
 1005              		.loc 2 62 0
 1006 040c FEFFFFEB 		bl	abort
 1007              	.LVL123:
 1008              	.LEHE15:
 1009              	.L626:
 1010              	.L487:
 1011              	.LBE874:
 1012              	.LBE1993:
 1013              	.LBB1994:
 1014              	.LBB1614:
 1015              	.LBB1606:
 1016              	.LBB1598:
 1017              	.LBB1295:
 1018              	.LBB1296:
 203:C:/Renesas/e2studio_2021_01_workspace_RZA2M_ANPR/ANPR_RZA2M_EBK/src/tensorflow_lite/tensorflow/lite/kernels/internal\types.h **** #ifdef TF_LITE_STATIC_MEMORY
 1019              		.loc 4 203 0
 1020 0410 C4309DE5 		ldr	r3, [sp, #196]
 1021 0414 050053E3 		cmp	r3, #5
 1022 0418 B0FFFFDA 		ble	.L489
 207:C:/Renesas/e2studio_2021_01_workspace_RZA2M_ANPR/ANPR_RZA2M_EBK/src/tensorflow_lite/tensorflow/lite/kernels/internal\types.h **** #endif  // TF_LITE_STATIC_MEMORY
 1023              		.loc 4 207 0
 1024 041c C8009DE5 		ldr	r0, [sp, #200]
 1025 0420 000050E3 		cmp	r0, #0
 1026 0424 ADFFFF0A 		beq	.L489
 1027 0428 FEFFFFEB 		bl	_ZdaPv
 1028              	.LVL124:
 1029 042c ABFFFFEA 		b	.L489
 1030              	.LVL125:
 1031              	.L19:
 1032              	.LBE1296:
 1033              	.LBE1295:
 1034              	.LBE1598:
 1035              	.LBE1606:
 1036              	.LBE1614:
 1037              	.LBE1994:
 1038              	.LBB1995:
 1039              	.LBB1233:
 1040              	.LBB1228:
 1041              	.LBB1223:
 1042              	.LBB927:
 1043              	.LBB926:
 1044              	.LBB925:
 1045              	.LBB924:
 1046              		.loc 4 315 0
 1047 0430 E0308DE2 		add	r3, sp, #224
 1048 0434 0A21A0E1 		lsl	r2, r10, #2
 1049 0438 000183E0 		add	r0, r3, r0, lsl #2
 1050              	.LVL126:
 1051 043c B0108DE2 		add	r1, sp, #176
 1052 0440 FEFFFFEB 		bl	memcpy
 1053              	.LVL127:
 1054              	.LBE924:
 1055              	.LBE925:
 1056              	.LBE926:
 1057              	.LBE927:
 1058              	.LBB928:
 1059              	.LBB929:
 1060              		.file 5 "C:/Renesas/e2studio_2021_01_workspace_RZA2M_ANPR/ANPR_RZA2M_EBK/src/tensorflow_lite/tenso
   1:C:/Renesas/e2studio_2021_01_workspace_RZA2M_ANPR/ANPR_RZA2M_EBK/src/tensorflow_lite/tensorflow/lite/kernels/internal\strided_slice_logic.h **** /* Copyright 2018 The TensorFlow Authors. All Rights Reserved.
   2:C:/Renesas/e2studio_2021_01_workspace_RZA2M_ANPR/ANPR_RZA2M_EBK/src/tensorflow_lite/tensorflow/lite/kernels/internal\strided_slice_logic.h **** 
   3:C:/Renesas/e2studio_2021_01_workspace_RZA2M_ANPR/ANPR_RZA2M_EBK/src/tensorflow_lite/tensorflow/lite/kernels/internal\strided_slice_logic.h **** Licensed under the Apache License, Version 2.0 (the "License");
   4:C:/Renesas/e2studio_2021_01_workspace_RZA2M_ANPR/ANPR_RZA2M_EBK/src/tensorflow_lite/tensorflow/lite/kernels/internal\strided_slice_logic.h **** you may not use this file except in compliance with the License.
   5:C:/Renesas/e2studio_2021_01_workspace_RZA2M_ANPR/ANPR_RZA2M_EBK/src/tensorflow_lite/tensorflow/lite/kernels/internal\strided_slice_logic.h **** You may obtain a copy of the License at
   6:C:/Renesas/e2studio_2021_01_workspace_RZA2M_ANPR/ANPR_RZA2M_EBK/src/tensorflow_lite/tensorflow/lite/kernels/internal\strided_slice_logic.h **** 
   7:C:/Renesas/e2studio_2021_01_workspace_RZA2M_ANPR/ANPR_RZA2M_EBK/src/tensorflow_lite/tensorflow/lite/kernels/internal\strided_slice_logic.h ****     http://www.apache.org/licenses/LICENSE-2.0
   8:C:/Renesas/e2studio_2021_01_workspace_RZA2M_ANPR/ANPR_RZA2M_EBK/src/tensorflow_lite/tensorflow/lite/kernels/internal\strided_slice_logic.h **** 
   9:C:/Renesas/e2studio_2021_01_workspace_RZA2M_ANPR/ANPR_RZA2M_EBK/src/tensorflow_lite/tensorflow/lite/kernels/internal\strided_slice_logic.h **** Unless required by applicable law or agreed to in writing, software
  10:C:/Renesas/e2studio_2021_01_workspace_RZA2M_ANPR/ANPR_RZA2M_EBK/src/tensorflow_lite/tensorflow/lite/kernels/internal\strided_slice_logic.h **** distributed under the License is distributed on an "AS IS" BASIS,
  11:C:/Renesas/e2studio_2021_01_workspace_RZA2M_ANPR/ANPR_RZA2M_EBK/src/tensorflow_lite/tensorflow/lite/kernels/internal\strided_slice_logic.h **** WITHOUT WARRANTIES OR CONDITIONS OF ANY KIND, either express or implied.
  12:C:/Renesas/e2studio_2021_01_workspace_RZA2M_ANPR/ANPR_RZA2M_EBK/src/tensorflow_lite/tensorflow/lite/kernels/internal\strided_slice_logic.h **** See the License for the specific language governing permissions and
  13:C:/Renesas/e2studio_2021_01_workspace_RZA2M_ANPR/ANPR_RZA2M_EBK/src/tensorflow_lite/tensorflow/lite/kernels/internal\strided_slice_logic.h **** limitations under the License.
  14:C:/Renesas/e2studio_2021_01_workspace_RZA2M_ANPR/ANPR_RZA2M_EBK/src/tensorflow_lite/tensorflow/lite/kernels/internal\strided_slice_logic.h **** ==============================================================================*/
  15:C:/Renesas/e2studio_2021_01_workspace_RZA2M_ANPR/ANPR_RZA2M_EBK/src/tensorflow_lite/tensorflow/lite/kernels/internal\strided_slice_logic.h **** 
  16:C:/Renesas/e2studio_2021_01_workspace_RZA2M_ANPR/ANPR_RZA2M_EBK/src/tensorflow_lite/tensorflow/lite/kernels/internal\strided_slice_logic.h **** #ifndef TENSORFLOW_LITE_KERNELS_INTERNAL_STRIDED_SLICE_LOGIC_H_
  17:C:/Renesas/e2studio_2021_01_workspace_RZA2M_ANPR/ANPR_RZA2M_EBK/src/tensorflow_lite/tensorflow/lite/kernels/internal\strided_slice_logic.h **** #define TENSORFLOW_LITE_KERNELS_INTERNAL_STRIDED_SLICE_LOGIC_H_
  18:C:/Renesas/e2studio_2021_01_workspace_RZA2M_ANPR/ANPR_RZA2M_EBK/src/tensorflow_lite/tensorflow/lite/kernels/internal\strided_slice_logic.h **** 
  19:C:/Renesas/e2studio_2021_01_workspace_RZA2M_ANPR/ANPR_RZA2M_EBK/src/tensorflow_lite/tensorflow/lite/kernels/internal\strided_slice_logic.h **** #include <limits>
  20:C:/Renesas/e2studio_2021_01_workspace_RZA2M_ANPR/ANPR_RZA2M_EBK/src/tensorflow_lite/tensorflow/lite/kernels/internal\strided_slice_logic.h **** #include <vector>
  21:C:/Renesas/e2studio_2021_01_workspace_RZA2M_ANPR/ANPR_RZA2M_EBK/src/tensorflow_lite/tensorflow/lite/kernels/internal\strided_slice_logic.h **** 
  22:C:/Renesas/e2studio_2021_01_workspace_RZA2M_ANPR/ANPR_RZA2M_EBK/src/tensorflow_lite/tensorflow/lite/kernels/internal\strided_slice_logic.h **** #include "tensorflow/lite/kernels/internal/compatibility.h"
  23:C:/Renesas/e2studio_2021_01_workspace_RZA2M_ANPR/ANPR_RZA2M_EBK/src/tensorflow_lite/tensorflow/lite/kernels/internal\strided_slice_logic.h **** #include "tensorflow/lite/kernels/internal/types.h"
  24:C:/Renesas/e2studio_2021_01_workspace_RZA2M_ANPR/ANPR_RZA2M_EBK/src/tensorflow_lite/tensorflow/lite/kernels/internal\strided_slice_logic.h **** 
  25:C:/Renesas/e2studio_2021_01_workspace_RZA2M_ANPR/ANPR_RZA2M_EBK/src/tensorflow_lite/tensorflow/lite/kernels/internal\strided_slice_logic.h **** namespace tflite {
  26:C:/Renesas/e2studio_2021_01_workspace_RZA2M_ANPR/ANPR_RZA2M_EBK/src/tensorflow_lite/tensorflow/lite/kernels/internal\strided_slice_logic.h **** namespace strided_slice {
  27:C:/Renesas/e2studio_2021_01_workspace_RZA2M_ANPR/ANPR_RZA2M_EBK/src/tensorflow_lite/tensorflow/lite/kernels/internal\strided_slice_logic.h **** 
  28:C:/Renesas/e2studio_2021_01_workspace_RZA2M_ANPR/ANPR_RZA2M_EBK/src/tensorflow_lite/tensorflow/lite/kernels/internal\strided_slice_logic.h **** // Use until std::clamp() is available from C++17.
  29:C:/Renesas/e2studio_2021_01_workspace_RZA2M_ANPR/ANPR_RZA2M_EBK/src/tensorflow_lite/tensorflow/lite/kernels/internal\strided_slice_logic.h **** inline int Clamp(const int v, const int lo, const int hi) {
  30:C:/Renesas/e2studio_2021_01_workspace_RZA2M_ANPR/ANPR_RZA2M_EBK/src/tensorflow_lite/tensorflow/lite/kernels/internal\strided_slice_logic.h ****   TFLITE_DCHECK(!(hi < lo));
  31:C:/Renesas/e2studio_2021_01_workspace_RZA2M_ANPR/ANPR_RZA2M_EBK/src/tensorflow_lite/tensorflow/lite/kernels/internal\strided_slice_logic.h ****   if (hi < v) return hi;
  32:C:/Renesas/e2studio_2021_01_workspace_RZA2M_ANPR/ANPR_RZA2M_EBK/src/tensorflow_lite/tensorflow/lite/kernels/internal\strided_slice_logic.h ****   if (v < lo) return lo;
  33:C:/Renesas/e2studio_2021_01_workspace_RZA2M_ANPR/ANPR_RZA2M_EBK/src/tensorflow_lite/tensorflow/lite/kernels/internal\strided_slice_logic.h ****   return v;
  34:C:/Renesas/e2studio_2021_01_workspace_RZA2M_ANPR/ANPR_RZA2M_EBK/src/tensorflow_lite/tensorflow/lite/kernels/internal\strided_slice_logic.h **** }
  35:C:/Renesas/e2studio_2021_01_workspace_RZA2M_ANPR/ANPR_RZA2M_EBK/src/tensorflow_lite/tensorflow/lite/kernels/internal\strided_slice_logic.h **** 
  36:C:/Renesas/e2studio_2021_01_workspace_RZA2M_ANPR/ANPR_RZA2M_EBK/src/tensorflow_lite/tensorflow/lite/kernels/internal\strided_slice_logic.h **** inline void StridedSlicePadIndices(tflite::StridedSliceParams* p,
  37:C:/Renesas/e2studio_2021_01_workspace_RZA2M_ANPR/ANPR_RZA2M_EBK/src/tensorflow_lite/tensorflow/lite/kernels/internal\strided_slice_logic.h ****                                    int dim_count) {
  38:C:/Renesas/e2studio_2021_01_workspace_RZA2M_ANPR/ANPR_RZA2M_EBK/src/tensorflow_lite/tensorflow/lite/kernels/internal\strided_slice_logic.h ****   // Add indices and mask bits to fully include extra dimensions
  39:C:/Renesas/e2studio_2021_01_workspace_RZA2M_ANPR/ANPR_RZA2M_EBK/src/tensorflow_lite/tensorflow/lite/kernels/internal\strided_slice_logic.h ****   TFLITE_CHECK_LE(dim_count, 5);
  40:C:/Renesas/e2studio_2021_01_workspace_RZA2M_ANPR/ANPR_RZA2M_EBK/src/tensorflow_lite/tensorflow/lite/kernels/internal\strided_slice_logic.h ****   TFLITE_CHECK_GE(dim_count, p->start_indices_count);
 1061              		.loc 5 40 0
 1062 0444 050057E3 		cmp	r7, #5
 1063 0448 A00200CA 		bgt	.L1059
  41:C:/Renesas/e2studio_2021_01_workspace_RZA2M_ANPR/ANPR_RZA2M_EBK/src/tensorflow_lite/tensorflow/lite/kernels/internal\strided_slice_logic.h ****   TFLITE_CHECK_EQ(p->start_indices_count, p->stop_indices_count);
 1064              		.loc 5 41 0
 1065 044c 070055E1 		cmp	r5, r7
 1066 0450 9D02001A 		bne	.L1060
  42:C:/Renesas/e2studio_2021_01_workspace_RZA2M_ANPR/ANPR_RZA2M_EBK/src/tensorflow_lite/tensorflow/lite/kernels/internal\strided_slice_logic.h ****   TFLITE_CHECK_EQ(p->stop_indices_count, p->strides_count);
 1067              		.loc 5 42 0
 1068 0454 090055E1 		cmp	r5, r9
 1069 0458 9A02001A 		bne	.L1061
 1070              	.LBB930:
  43:C:/Renesas/e2studio_2021_01_workspace_RZA2M_ANPR/ANPR_RZA2M_EBK/src/tensorflow_lite/tensorflow/lite/kernels/internal\strided_slice_logic.h **** 
  44:C:/Renesas/e2studio_2021_01_workspace_RZA2M_ANPR/ANPR_RZA2M_EBK/src/tensorflow_lite/tensorflow/lite/kernels/internal\strided_slice_logic.h ****   const int pad_count = dim_count - p->start_indices_count;
  45:C:/Renesas/e2studio_2021_01_workspace_RZA2M_ANPR/ANPR_RZA2M_EBK/src/tensorflow_lite/tensorflow/lite/kernels/internal\strided_slice_logic.h **** 
  46:C:/Renesas/e2studio_2021_01_workspace_RZA2M_ANPR/ANPR_RZA2M_EBK/src/tensorflow_lite/tensorflow/lite/kernels/internal\strided_slice_logic.h ****   // Pad indices at start, so move arrays by pad_count.
  47:C:/Renesas/e2studio_2021_01_workspace_RZA2M_ANPR/ANPR_RZA2M_EBK/src/tensorflow_lite/tensorflow/lite/kernels/internal\strided_slice_logic.h ****   for (int i = p->start_indices_count - 1; i >= 0; --i) {
 1071              		.loc 5 47 0
 1072 045c 012055E2 		subs	r2, r5, #1
 1073              	.LBE930:
  44:C:/Renesas/e2studio_2021_01_workspace_RZA2M_ANPR/ANPR_RZA2M_EBK/src/tensorflow_lite/tensorflow/lite/kernels/internal\strided_slice_logic.h **** 
 1074              		.loc 5 44 0
 1075 0460 059065E2 		rsb	r9, r5, #5
 1076              	.LVL128:
 1077              	.LBB931:
 1078              		.loc 5 47 0
 1079 0464 4A00004A 		bmi	.L32
  48:C:/Renesas/e2studio_2021_01_workspace_RZA2M_ANPR/ANPR_RZA2M_EBK/src/tensorflow_lite/tensorflow/lite/kernels/internal\strided_slice_logic.h ****     p->strides[i + pad_count] = p->strides[i];
  49:C:/Renesas/e2studio_2021_01_workspace_RZA2M_ANPR/ANPR_RZA2M_EBK/src/tensorflow_lite/tensorflow/lite/kernels/internal\strided_slice_logic.h ****     p->start_indices[i + pad_count] = p->start_indices[i];
 1080              		.loc 5 49 0
 1081 0468 523F8DE2 		add	r3, sp, #328
 1082 046c 021183E0 		add	r1, r3, r2, lsl #2
  48:C:/Renesas/e2studio_2021_01_workspace_RZA2M_ANPR/ANPR_RZA2M_EBK/src/tensorflow_lite/tensorflow/lite/kernels/internal\strided_slice_logic.h ****     p->strides[i + pad_count] = p->strides[i];
 1083              		.loc 5 48 0
 1084 0470 053183E0 		add	r3, r3, r5, lsl #2
 1085 0474 022089E0 		add	r2, r9, r2
 1086              	.LVL129:
 1087 0478 240013E5 		ldr	r0, [r3, #-36]
 1088 047c 523F8DE2 		add	r3, sp, #328
 1089              		.loc 5 49 0
 1090 0480 50C011E5 		ldr	ip, [r1, #-80]
  48:C:/Renesas/e2studio_2021_01_workspace_RZA2M_ANPR/ANPR_RZA2M_EBK/src/tensorflow_lite/tensorflow/lite/kernels/internal\strided_slice_logic.h ****     p->strides[i + pad_count] = p->strides[i];
 1091              		.loc 5 48 0
 1092 0484 02E183E0 		add	lr, r3, r2, lsl #2
  50:C:/Renesas/e2studio_2021_01_workspace_RZA2M_ANPR/ANPR_RZA2M_EBK/src/tensorflow_lite/tensorflow/lite/kernels/internal\strided_slice_logic.h ****     p->stop_indices[i + pad_count] = p->stop_indices[i];
 1093              		.loc 5 50 0
 1094 0488 053183E0 		add	r3, r3, r5, lsl #2
 1095 048c 3C1013E5 		ldr	r1, [r3, #-60]
  47:C:/Renesas/e2studio_2021_01_workspace_RZA2M_ANPR/ANPR_RZA2M_EBK/src/tensorflow_lite/tensorflow/lite/kernels/internal\strided_slice_logic.h ****     p->strides[i + pad_count] = p->strides[i];
 1096              		.loc 5 47 0
 1097 0490 023045E2 		sub	r3, r5, #2
 1098              	.LVL130:
 1099 0494 010073E3 		cmn	r3, #1
  48:C:/Renesas/e2studio_2021_01_workspace_RZA2M_ANPR/ANPR_RZA2M_EBK/src/tensorflow_lite/tensorflow/lite/kernels/internal\strided_slice_logic.h ****     p->strides[i + pad_count] = p->strides[i];
 1100              		.loc 5 48 0
 1101 0498 20000EE5 		str	r0, [lr, #-32]
  49:C:/Renesas/e2studio_2021_01_workspace_RZA2M_ANPR/ANPR_RZA2M_EBK/src/tensorflow_lite/tensorflow/lite/kernels/internal\strided_slice_logic.h ****     p->stop_indices[i + pad_count] = p->stop_indices[i];
 1102              		.loc 5 49 0
 1103 049c 0E00A0E1 		mov	r0, lr
 1104              		.loc 5 50 0
 1105 04a0 52EF8DE2 		add	lr, sp, #328
  49:C:/Renesas/e2studio_2021_01_workspace_RZA2M_ANPR/ANPR_RZA2M_EBK/src/tensorflow_lite/tensorflow/lite/kernels/internal\strided_slice_logic.h ****     p->stop_indices[i + pad_count] = p->stop_indices[i];
 1106              		.loc 5 49 0
 1107 04a4 50C000E5 		str	ip, [r0, #-80]
 1108              		.loc 5 50 0
 1109 04a8 381000E5 		str	r1, [r0, #-56]
  47:C:/Renesas/e2studio_2021_01_workspace_RZA2M_ANPR/ANPR_RZA2M_EBK/src/tensorflow_lite/tensorflow/lite/kernels/internal\strided_slice_logic.h ****     p->strides[i + pad_count] = p->strides[i];
 1110              		.loc 5 47 0
 1111 04ac 3800000A 		beq	.L32
  48:C:/Renesas/e2studio_2021_01_workspace_RZA2M_ANPR/ANPR_RZA2M_EBK/src/tensorflow_lite/tensorflow/lite/kernels/internal\strided_slice_logic.h ****     p->start_indices[i + pad_count] = p->start_indices[i];
 1112              		.loc 5 48 0
 1113 04b0 05218EE0 		add	r2, lr, r5, lsl #2
  49:C:/Renesas/e2studio_2021_01_workspace_RZA2M_ANPR/ANPR_RZA2M_EBK/src/tensorflow_lite/tensorflow/lite/kernels/internal\strided_slice_logic.h ****     p->stop_indices[i + pad_count] = p->stop_indices[i];
 1114              		.loc 5 49 0
 1115 04b4 03118EE0 		add	r1, lr, r3, lsl #2
  48:C:/Renesas/e2studio_2021_01_workspace_RZA2M_ANPR/ANPR_RZA2M_EBK/src/tensorflow_lite/tensorflow/lite/kernels/internal\strided_slice_logic.h ****     p->start_indices[i + pad_count] = p->start_indices[i];
 1116              		.loc 5 48 0
 1117 04b8 280012E5 		ldr	r0, [r2, #-40]
 1118 04bc 0E20A0E1 		mov	r2, lr
 1119              		.loc 5 50 0
 1120 04c0 052182E0 		add	r2, r2, r5, lsl #2
  48:C:/Renesas/e2studio_2021_01_workspace_RZA2M_ANPR/ANPR_RZA2M_EBK/src/tensorflow_lite/tensorflow/lite/kernels/internal\strided_slice_logic.h ****     p->start_indices[i + pad_count] = p->start_indices[i];
 1121              		.loc 5 48 0
 1122 04c4 033089E0 		add	r3, r9, r3
 1123              	.LVL131:
  49:C:/Renesas/e2studio_2021_01_workspace_RZA2M_ANPR/ANPR_RZA2M_EBK/src/tensorflow_lite/tensorflow/lite/kernels/internal\strided_slice_logic.h ****     p->stop_indices[i + pad_count] = p->stop_indices[i];
 1124              		.loc 5 49 0
 1125 04c8 50C011E5 		ldr	ip, [r1, #-80]
  48:C:/Renesas/e2studio_2021_01_workspace_RZA2M_ANPR/ANPR_RZA2M_EBK/src/tensorflow_lite/tensorflow/lite/kernels/internal\strided_slice_logic.h ****     p->start_indices[i + pad_count] = p->start_indices[i];
 1126              		.loc 5 48 0
 1127 04cc 03E18EE0 		add	lr, lr, r3, lsl #2
 1128              		.loc 5 50 0
 1129 04d0 401012E5 		ldr	r1, [r2, #-64]
  47:C:/Renesas/e2studio_2021_01_workspace_RZA2M_ANPR/ANPR_RZA2M_EBK/src/tensorflow_lite/tensorflow/lite/kernels/internal\strided_slice_logic.h ****     p->strides[i + pad_count] = p->strides[i];
 1130              		.loc 5 47 0
 1131 04d4 032045E2 		sub	r2, r5, #3
 1132              	.LVL132:
 1133 04d8 010072E3 		cmn	r2, #1
  48:C:/Renesas/e2studio_2021_01_workspace_RZA2M_ANPR/ANPR_RZA2M_EBK/src/tensorflow_lite/tensorflow/lite/kernels/internal\strided_slice_logic.h ****     p->start_indices[i + pad_count] = p->start_indices[i];
 1134              		.loc 5 48 0
 1135 04dc 20000EE5 		str	r0, [lr, #-32]
  49:C:/Renesas/e2studio_2021_01_workspace_RZA2M_ANPR/ANPR_RZA2M_EBK/src/tensorflow_lite/tensorflow/lite/kernels/internal\strided_slice_logic.h ****     p->stop_indices[i + pad_count] = p->stop_indices[i];
 1136              		.loc 5 49 0
 1137 04e0 0E00A0E1 		mov	r0, lr
 1138              		.loc 5 50 0
 1139 04e4 52EF8DE2 		add	lr, sp, #328
  49:C:/Renesas/e2studio_2021_01_workspace_RZA2M_ANPR/ANPR_RZA2M_EBK/src/tensorflow_lite/tensorflow/lite/kernels/internal\strided_slice_logic.h ****     p->stop_indices[i + pad_count] = p->stop_indices[i];
 1140              		.loc 5 49 0
 1141 04e8 50C000E5 		str	ip, [r0, #-80]
 1142              		.loc 5 50 0
 1143 04ec 381000E5 		str	r1, [r0, #-56]
  47:C:/Renesas/e2studio_2021_01_workspace_RZA2M_ANPR/ANPR_RZA2M_EBK/src/tensorflow_lite/tensorflow/lite/kernels/internal\strided_slice_logic.h ****     p->strides[i + pad_count] = p->strides[i];
 1144              		.loc 5 47 0
 1145 04f0 2700000A 		beq	.L32
  48:C:/Renesas/e2studio_2021_01_workspace_RZA2M_ANPR/ANPR_RZA2M_EBK/src/tensorflow_lite/tensorflow/lite/kernels/internal\strided_slice_logic.h ****     p->start_indices[i + pad_count] = p->start_indices[i];
 1146              		.loc 5 48 0
 1147 04f4 05318EE0 		add	r3, lr, r5, lsl #2
  49:C:/Renesas/e2studio_2021_01_workspace_RZA2M_ANPR/ANPR_RZA2M_EBK/src/tensorflow_lite/tensorflow/lite/kernels/internal\strided_slice_logic.h ****     p->stop_indices[i + pad_count] = p->stop_indices[i];
 1148              		.loc 5 49 0
 1149 04f8 02118EE0 		add	r1, lr, r2, lsl #2
  48:C:/Renesas/e2studio_2021_01_workspace_RZA2M_ANPR/ANPR_RZA2M_EBK/src/tensorflow_lite/tensorflow/lite/kernels/internal\strided_slice_logic.h ****     p->start_indices[i + pad_count] = p->start_indices[i];
 1150              		.loc 5 48 0
 1151 04fc 2C0013E5 		ldr	r0, [r3, #-44]
 1152 0500 0E30A0E1 		mov	r3, lr
 1153              		.loc 5 50 0
 1154 0504 053183E0 		add	r3, r3, r5, lsl #2
  48:C:/Renesas/e2studio_2021_01_workspace_RZA2M_ANPR/ANPR_RZA2M_EBK/src/tensorflow_lite/tensorflow/lite/kernels/internal\strided_slice_logic.h ****     p->start_indices[i + pad_count] = p->start_indices[i];
 1155              		.loc 5 48 0
 1156 0508 022089E0 		add	r2, r9, r2
 1157              	.LVL133:
  49:C:/Renesas/e2studio_2021_01_workspace_RZA2M_ANPR/ANPR_RZA2M_EBK/src/tensorflow_lite/tensorflow/lite/kernels/internal\strided_slice_logic.h ****     p->stop_indices[i + pad_count] = p->stop_indices[i];
 1158              		.loc 5 49 0
 1159 050c 50C011E5 		ldr	ip, [r1, #-80]
  48:C:/Renesas/e2studio_2021_01_workspace_RZA2M_ANPR/ANPR_RZA2M_EBK/src/tensorflow_lite/tensorflow/lite/kernels/internal\strided_slice_logic.h ****     p->start_indices[i + pad_count] = p->start_indices[i];
 1160              		.loc 5 48 0
 1161 0510 02E18EE0 		add	lr, lr, r2, lsl #2
 1162              		.loc 5 50 0
 1163 0514 441013E5 		ldr	r1, [r3, #-68]
  47:C:/Renesas/e2studio_2021_01_workspace_RZA2M_ANPR/ANPR_RZA2M_EBK/src/tensorflow_lite/tensorflow/lite/kernels/internal\strided_slice_logic.h ****     p->strides[i + pad_count] = p->strides[i];
 1164              		.loc 5 47 0
 1165 0518 043045E2 		sub	r3, r5, #4
 1166              	.LVL134:
 1167 051c 010073E3 		cmn	r3, #1
  48:C:/Renesas/e2studio_2021_01_workspace_RZA2M_ANPR/ANPR_RZA2M_EBK/src/tensorflow_lite/tensorflow/lite/kernels/internal\strided_slice_logic.h ****     p->start_indices[i + pad_count] = p->start_indices[i];
 1168              		.loc 5 48 0
 1169 0520 20000EE5 		str	r0, [lr, #-32]
  49:C:/Renesas/e2studio_2021_01_workspace_RZA2M_ANPR/ANPR_RZA2M_EBK/src/tensorflow_lite/tensorflow/lite/kernels/internal\strided_slice_logic.h ****     p->stop_indices[i + pad_count] = p->stop_indices[i];
 1170              		.loc 5 49 0
 1171 0524 0E00A0E1 		mov	r0, lr
 1172              		.loc 5 50 0
 1173 0528 52EF8DE2 		add	lr, sp, #328
  49:C:/Renesas/e2studio_2021_01_workspace_RZA2M_ANPR/ANPR_RZA2M_EBK/src/tensorflow_lite/tensorflow/lite/kernels/internal\strided_slice_logic.h ****     p->stop_indices[i + pad_count] = p->stop_indices[i];
 1174              		.loc 5 49 0
 1175 052c 50C000E5 		str	ip, [r0, #-80]
 1176              		.loc 5 50 0
 1177 0530 381000E5 		str	r1, [r0, #-56]
  47:C:/Renesas/e2studio_2021_01_workspace_RZA2M_ANPR/ANPR_RZA2M_EBK/src/tensorflow_lite/tensorflow/lite/kernels/internal\strided_slice_logic.h ****     p->strides[i + pad_count] = p->strides[i];
 1178              		.loc 5 47 0
 1179 0534 1600000A 		beq	.L32
  48:C:/Renesas/e2studio_2021_01_workspace_RZA2M_ANPR/ANPR_RZA2M_EBK/src/tensorflow_lite/tensorflow/lite/kernels/internal\strided_slice_logic.h ****     p->start_indices[i + pad_count] = p->start_indices[i];
 1180              		.loc 5 48 0
 1181 0538 05018EE0 		add	r0, lr, r5, lsl #2
  49:C:/Renesas/e2studio_2021_01_workspace_RZA2M_ANPR/ANPR_RZA2M_EBK/src/tensorflow_lite/tensorflow/lite/kernels/internal\strided_slice_logic.h ****     p->stop_indices[i + pad_count] = p->stop_indices[i];
 1182              		.loc 5 49 0
 1183 053c 03118EE0 		add	r1, lr, r3, lsl #2
  48:C:/Renesas/e2studio_2021_01_workspace_RZA2M_ANPR/ANPR_RZA2M_EBK/src/tensorflow_lite/tensorflow/lite/kernels/internal\strided_slice_logic.h ****     p->start_indices[i + pad_count] = p->start_indices[i];
 1184              		.loc 5 48 0
 1185 0540 30C010E5 		ldr	ip, [r0, #-48]
 1186 0544 033089E0 		add	r3, r9, r3
 1187              	.LVL135:
 1188              		.loc 5 50 0
 1189 0548 482010E5 		ldr	r2, [r0, #-72]
  48:C:/Renesas/e2studio_2021_01_workspace_RZA2M_ANPR/ANPR_RZA2M_EBK/src/tensorflow_lite/tensorflow/lite/kernels/internal\strided_slice_logic.h ****     p->start_indices[i + pad_count] = p->start_indices[i];
 1190              		.loc 5 48 0
 1191 054c 03E18EE0 		add	lr, lr, r3, lsl #2
  49:C:/Renesas/e2studio_2021_01_workspace_RZA2M_ANPR/ANPR_RZA2M_EBK/src/tensorflow_lite/tensorflow/lite/kernels/internal\strided_slice_logic.h ****     p->stop_indices[i + pad_count] = p->stop_indices[i];
 1192              		.loc 5 49 0
 1193 0550 500011E5 		ldr	r0, [r1, #-80]
  47:C:/Renesas/e2studio_2021_01_workspace_RZA2M_ANPR/ANPR_RZA2M_EBK/src/tensorflow_lite/tensorflow/lite/kernels/internal\strided_slice_logic.h ****     p->strides[i + pad_count] = p->strides[i];
 1194              		.loc 5 47 0
 1195 0554 040055E3 		cmp	r5, #4
  49:C:/Renesas/e2studio_2021_01_workspace_RZA2M_ANPR/ANPR_RZA2M_EBK/src/tensorflow_lite/tensorflow/lite/kernels/internal\strided_slice_logic.h ****     p->stop_indices[i + pad_count] = p->stop_indices[i];
 1196              		.loc 5 49 0
 1197 0558 0E10A0E1 		mov	r1, lr
 1198              		.loc 5 50 0
 1199 055c 525F8DE2 		add	r5, sp, #328
 1200              	.LVL136:
  48:C:/Renesas/e2studio_2021_01_workspace_RZA2M_ANPR/ANPR_RZA2M_EBK/src/tensorflow_lite/tensorflow/lite/kernels/internal\strided_slice_logic.h ****     p->start_indices[i + pad_count] = p->start_indices[i];
 1201              		.loc 5 48 0
 1202 0560 20C00EE5 		str	ip, [lr, #-32]
  49:C:/Renesas/e2studio_2021_01_workspace_RZA2M_ANPR/ANPR_RZA2M_EBK/src/tensorflow_lite/tensorflow/lite/kernels/internal\strided_slice_logic.h ****     p->stop_indices[i + pad_count] = p->stop_indices[i];
 1203              		.loc 5 49 0
 1204 0564 50000EE5 		str	r0, [lr, #-80]
 1205              		.loc 5 50 0
 1206 0568 38200EE5 		str	r2, [lr, #-56]
  47:C:/Renesas/e2studio_2021_01_workspace_RZA2M_ANPR/ANPR_RZA2M_EBK/src/tensorflow_lite/tensorflow/lite/kernels/internal\strided_slice_logic.h ****     p->strides[i + pad_count] = p->strides[i];
 1207              		.loc 5 47 0
 1208 056c 0800000A 		beq	.L32
 1209              	.LVL137:
  48:C:/Renesas/e2studio_2021_01_workspace_RZA2M_ANPR/ANPR_RZA2M_EBK/src/tensorflow_lite/tensorflow/lite/kernels/internal\strided_slice_logic.h ****     p->start_indices[i + pad_count] = p->start_indices[i];
 1210              		.loc 5 48 0
 1211 0570 28019DE5 		ldr	r0, [sp, #296]
 1212 0574 093185E0 		add	r3, r5, r9, lsl #2
  49:C:/Renesas/e2studio_2021_01_workspace_RZA2M_ANPR/ANPR_RZA2M_EBK/src/tensorflow_lite/tensorflow/lite/kernels/internal\strided_slice_logic.h ****     p->stop_indices[i + pad_count] = p->stop_indices[i];
 1213              		.loc 5 49 0
 1214 0578 F8109DE5 		ldr	r1, [sp, #248]
 1215              		.loc 5 50 0
 1216 057c 10219DE5 		ldr	r2, [sp, #272]
  48:C:/Renesas/e2studio_2021_01_workspace_RZA2M_ANPR/ANPR_RZA2M_EBK/src/tensorflow_lite/tensorflow/lite/kernels/internal\strided_slice_logic.h ****     p->start_indices[i + pad_count] = p->start_indices[i];
 1217              		.loc 5 48 0
 1218 0580 200003E5 		str	r0, [r3, #-32]
  49:C:/Renesas/e2studio_2021_01_workspace_RZA2M_ANPR/ANPR_RZA2M_EBK/src/tensorflow_lite/tensorflow/lite/kernels/internal\strided_slice_logic.h ****     p->stop_indices[i + pad_count] = p->stop_indices[i];
 1219              		.loc 5 49 0
 1220 0584 093185E0 		add	r3, r5, r9, lsl #2
 1221 0588 501003E5 		str	r1, [r3, #-80]
 1222              		.loc 5 50 0
 1223 058c 093185E0 		add	r3, r5, r9, lsl #2
 1224 0590 382003E5 		str	r2, [r3, #-56]
 1225              	.LVL138:
 1226              	.L32:
 1227              	.LBE931:
 1228              	.LBB932:
  51:C:/Renesas/e2studio_2021_01_workspace_RZA2M_ANPR/ANPR_RZA2M_EBK/src/tensorflow_lite/tensorflow/lite/kernels/internal\strided_slice_logic.h ****   }
  52:C:/Renesas/e2studio_2021_01_workspace_RZA2M_ANPR/ANPR_RZA2M_EBK/src/tensorflow_lite/tensorflow/lite/kernels/internal\strided_slice_logic.h ****   for (int i = 0; i < pad_count; ++i) {
 1229              		.loc 5 52 0
 1230 0594 000059E3 		cmp	r9, #0
 1231 0598 1500000A 		beq	.L33
 1232 059c 0921A0E1 		lsl	r2, r9, #2
 1233 05a0 0010A0E3 		mov	r1, #0
 1234 05a4 F8008DE2 		add	r0, sp, #248
 1235 05a8 FEFFFFEB 		bl	memset
 1236              	.LVL139:
 1237 05ac 010059E3 		cmp	r9, #1
  53:C:/Renesas/e2studio_2021_01_workspace_RZA2M_ANPR/ANPR_RZA2M_EBK/src/tensorflow_lite/tensorflow/lite/kernels/internal\strided_slice_logic.h ****     p->start_indices[i] = 0;
  54:C:/Renesas/e2studio_2021_01_workspace_RZA2M_ANPR/ANPR_RZA2M_EBK/src/tensorflow_lite/tensorflow/lite/kernels/internal\strided_slice_logic.h ****     p->stop_indices[i] = 1;
 1238              		.loc 5 54 0
 1239 05b0 0130A0E3 		mov	r3, #1
 1240 05b4 10318DE5 		str	r3, [sp, #272]
  55:C:/Renesas/e2studio_2021_01_workspace_RZA2M_ANPR/ANPR_RZA2M_EBK/src/tensorflow_lite/tensorflow/lite/kernels/internal\strided_slice_logic.h ****     p->strides[i] = 1;
 1241              		.loc 5 55 0
 1242 05b8 28318DE5 		str	r3, [sp, #296]
 1243              	.LVL140:
  52:C:/Renesas/e2studio_2021_01_workspace_RZA2M_ANPR/ANPR_RZA2M_EBK/src/tensorflow_lite/tensorflow/lite/kernels/internal\strided_slice_logic.h ****     p->start_indices[i] = 0;
 1244              		.loc 5 52 0
 1245 05bc 0C00000A 		beq	.L33
 1246 05c0 020059E3 		cmp	r9, #2
  54:C:/Renesas/e2studio_2021_01_workspace_RZA2M_ANPR/ANPR_RZA2M_EBK/src/tensorflow_lite/tensorflow/lite/kernels/internal\strided_slice_logic.h ****     p->strides[i] = 1;
 1247              		.loc 5 54 0
 1248 05c4 14318DE5 		str	r3, [sp, #276]
 1249              		.loc 5 55 0
 1250 05c8 2C318DE5 		str	r3, [sp, #300]
 1251              	.LVL141:
  52:C:/Renesas/e2studio_2021_01_workspace_RZA2M_ANPR/ANPR_RZA2M_EBK/src/tensorflow_lite/tensorflow/lite/kernels/internal\strided_slice_logic.h ****     p->start_indices[i] = 0;
 1252              		.loc 5 52 0
 1253 05cc 0800000A 		beq	.L33
 1254 05d0 030059E3 		cmp	r9, #3
  54:C:/Renesas/e2studio_2021_01_workspace_RZA2M_ANPR/ANPR_RZA2M_EBK/src/tensorflow_lite/tensorflow/lite/kernels/internal\strided_slice_logic.h ****     p->strides[i] = 1;
 1255              		.loc 5 54 0
 1256 05d4 18318DE5 		str	r3, [sp, #280]
 1257              		.loc 5 55 0
 1258 05d8 30318DE5 		str	r3, [sp, #304]
 1259              	.LVL142:
  52:C:/Renesas/e2studio_2021_01_workspace_RZA2M_ANPR/ANPR_RZA2M_EBK/src/tensorflow_lite/tensorflow/lite/kernels/internal\strided_slice_logic.h ****     p->start_indices[i] = 0;
 1260              		.loc 5 52 0
 1261 05dc 0400000A 		beq	.L33
 1262 05e0 040059E3 		cmp	r9, #4
  54:C:/Renesas/e2studio_2021_01_workspace_RZA2M_ANPR/ANPR_RZA2M_EBK/src/tensorflow_lite/tensorflow/lite/kernels/internal\strided_slice_logic.h ****     p->strides[i] = 1;
 1263              		.loc 5 54 0
 1264 05e4 1C318DE5 		str	r3, [sp, #284]
 1265              		.loc 5 55 0
 1266 05e8 34318DE5 		str	r3, [sp, #308]
 1267              	.LVL143:
  52:C:/Renesas/e2studio_2021_01_workspace_RZA2M_ANPR/ANPR_RZA2M_EBK/src/tensorflow_lite/tensorflow/lite/kernels/internal\strided_slice_logic.h ****     p->start_indices[i] = 0;
 1268              		.loc 5 52 0
  54:C:/Renesas/e2studio_2021_01_workspace_RZA2M_ANPR/ANPR_RZA2M_EBK/src/tensorflow_lite/tensorflow/lite/kernels/internal\strided_slice_logic.h ****     p->strides[i] = 1;
 1269              		.loc 5 54 0
 1270 05ec 20318D15 		strne	r3, [sp, #288]
 1271              		.loc 5 55 0
 1272 05f0 38318D15 		strne	r3, [sp, #312]
 1273              	.LVL144:
 1274              	.L33:
 1275              	.LBE932:
  56:C:/Renesas/e2studio_2021_01_workspace_RZA2M_ANPR/ANPR_RZA2M_EBK/src/tensorflow_lite/tensorflow/lite/kernels/internal\strided_slice_logic.h ****   }
  57:C:/Renesas/e2studio_2021_01_workspace_RZA2M_ANPR/ANPR_RZA2M_EBK/src/tensorflow_lite/tensorflow/lite/kernels/internal\strided_slice_logic.h **** 
  58:C:/Renesas/e2studio_2021_01_workspace_RZA2M_ANPR/ANPR_RZA2M_EBK/src/tensorflow_lite/tensorflow/lite/kernels/internal\strided_slice_logic.h ****   // Pad masks with 0s or 1s as required.
  59:C:/Renesas/e2studio_2021_01_workspace_RZA2M_ANPR/ANPR_RZA2M_EBK/src/tensorflow_lite/tensorflow/lite/kernels/internal\strided_slice_logic.h ****   p->shrink_axis_mask <<= pad_count;
  60:C:/Renesas/e2studio_2021_01_workspace_RZA2M_ANPR/ANPR_RZA2M_EBK/src/tensorflow_lite/tensorflow/lite/kernels/internal\strided_slice_logic.h ****   p->ellipsis_mask <<= pad_count;
  61:C:/Renesas/e2studio_2021_01_workspace_RZA2M_ANPR/ANPR_RZA2M_EBK/src/tensorflow_lite/tensorflow/lite/kernels/internal\strided_slice_logic.h ****   p->new_axis_mask <<= pad_count;
  62:C:/Renesas/e2studio_2021_01_workspace_RZA2M_ANPR/ANPR_RZA2M_EBK/src/tensorflow_lite/tensorflow/lite/kernels/internal\strided_slice_logic.h ****   p->begin_mask <<= pad_count;
  63:C:/Renesas/e2studio_2021_01_workspace_RZA2M_ANPR/ANPR_RZA2M_EBK/src/tensorflow_lite/tensorflow/lite/kernels/internal\strided_slice_logic.h ****   p->end_mask <<= pad_count;
  64:C:/Renesas/e2studio_2021_01_workspace_RZA2M_ANPR/ANPR_RZA2M_EBK/src/tensorflow_lite/tensorflow/lite/kernels/internal\strided_slice_logic.h ****   p->begin_mask |= (1 << pad_count) - 1;
 1276              		.loc 5 64 0
 1277 05f4 0030E0E3 		mvn	r3, #0
 1278              	.LBE929:
 1279              	.LBE928:
 1280              	.LBB936:
 1281              	.LBB937:
 1282              	.LBB938:
 1283              	.LBB939:
 215:C:/Renesas/e2studio_2021_01_workspace_RZA2M_ANPR/ANPR_RZA2M_EBK/src/tensorflow_lite/tensorflow/lite/kernels/internal\types.h ****     return size_ > kMaxSmallSize ? dims_pointer_[i] : dims_[i];
 1284              		.loc 4 215 0
 1285 05f8 C4209DE5 		ldr	r2, [sp, #196]
 1286              	.LBE939:
 1287              	.LBE938:
 1288              	.LBE937:
 1289              	.LBE936:
 1290              	.LBB958:
 1291              	.LBB933:
 1292              		.loc 5 64 0
 1293 05fc 1339E0E1 		mvn	r3, r3, lsl r9
  59:C:/Renesas/e2studio_2021_01_workspace_RZA2M_ANPR/ANPR_RZA2M_EBK/src/tensorflow_lite/tensorflow/lite/kernels/internal\strided_slice_logic.h ****   p->ellipsis_mask <<= pad_count;
 1294              		.loc 5 59 0
 1295 0600 1449A0E1 		lsl	r4, r4, r9
 1296              		.loc 5 64 0
 1297 0604 7330BFE6 		sxth	r3, r3
 1298              	.LBE933:
 1299              	.LBE958:
 1300              	.LBB959:
 1301              	.LBB954:
 1302              	.LBB943:
 1303              	.LBB940:
 215:C:/Renesas/e2studio_2021_01_workspace_RZA2M_ANPR/ANPR_RZA2M_EBK/src/tensorflow_lite/tensorflow/lite/kernels/internal\types.h ****     return size_ > kMaxSmallSize ? dims_pointer_[i] : dims_[i];
 1304              		.loc 4 215 0
 1305 0608 000052E3 		cmp	r2, #0
 1306 060c 0C208DE5 		str	r2, [sp, #12]
 1307              	.LBE940:
 1308              	.LBE943:
 1309              	.LBE954:
 1310              	.LBE959:
 1311              	.LBB960:
 1312              	.LBB934:
  59:C:/Renesas/e2studio_2021_01_workspace_RZA2M_ANPR/ANPR_RZA2M_EBK/src/tensorflow_lite/tensorflow/lite/kernels/internal\strided_slice_logic.h ****   p->ellipsis_mask <<= pad_count;
 1313              		.loc 5 59 0
 1314 0610 7470BFE6 		sxth	r7, r4
 1315              	.LVL145:
 1316              		.loc 5 64 0
 1317 0614 165983E1 		orr	r5, r3, r6, lsl r9
  65:C:/Renesas/e2studio_2021_01_workspace_RZA2M_ANPR/ANPR_RZA2M_EBK/src/tensorflow_lite/tensorflow/lite/kernels/internal\strided_slice_logic.h ****   p->end_mask |= (1 << pad_count) - 1;
 1318              		.loc 5 65 0
 1319 0618 183983E1 		orr	r3, r3, r8, lsl r9
  64:C:/Renesas/e2studio_2021_01_workspace_RZA2M_ANPR/ANPR_RZA2M_EBK/src/tensorflow_lite/tensorflow/lite/kernels/internal\strided_slice_logic.h ****   p->end_mask |= (1 << pad_count) - 1;
 1320              		.loc 5 64 0
 1321 061c 7550BFE6 		sxth	r5, r5
 1322              		.loc 5 65 0
 1323 0620 7360BFE6 		sxth	r6, r3
 1324              	.LVL146:
 1325              	.LBE934:
 1326              	.LBE960:
 1327              	.LBB961:
 1328              	.LBB955:
 1329              	.LBB944:
 1330              	.LBB941:
 215:C:/Renesas/e2studio_2021_01_workspace_RZA2M_ANPR/ANPR_RZA2M_EBK/src/tensorflow_lite/tensorflow/lite/kernels/internal\types.h ****     return size_ > kMaxSmallSize ? dims_pointer_[i] : dims_[i];
 1331              		.loc 4 215 0
 1332 0624 260200DA 		ble	.L1062
 216:C:/Renesas/e2studio_2021_01_workspace_RZA2M_ANPR/ANPR_RZA2M_EBK/src/tensorflow_lite/tensorflow/lite/kernels/internal\types.h ****   }
 1333              		.loc 4 216 0
 1334 0628 050052E3 		cmp	r2, #5
 1335 062c 0230A0E1 		mov	r3, r2
 1336 0630 C8309DC5 		ldrgt	r3, [sp, #200]
 1337 0634 C8C09DD5 		ldrle	ip, [sp, #200]
 1338              	.LVL147:
 1339 0638 00C093C5 		ldrgt	ip, [r3]
 1340              	.LBE941:
 1341              	.LBE944:
  66:C:/Renesas/e2studio_2021_01_workspace_RZA2M_ANPR/ANPR_RZA2M_EBK/src/tensorflow_lite/tensorflow/lite/kernels/internal\strided_slice_logic.h **** 
  67:C:/Renesas/e2studio_2021_01_workspace_RZA2M_ANPR/ANPR_RZA2M_EBK/src/tensorflow_lite/tensorflow/lite/kernels/internal\strided_slice_logic.h ****   p->start_indices_count = dim_count;
  68:C:/Renesas/e2studio_2021_01_workspace_RZA2M_ANPR/ANPR_RZA2M_EBK/src/tensorflow_lite/tensorflow/lite/kernels/internal\strided_slice_logic.h ****   p->stop_indices_count = dim_count;
  69:C:/Renesas/e2studio_2021_01_workspace_RZA2M_ANPR/ANPR_RZA2M_EBK/src/tensorflow_lite/tensorflow/lite/kernels/internal\strided_slice_logic.h ****   p->strides_count = dim_count;
  70:C:/Renesas/e2studio_2021_01_workspace_RZA2M_ANPR/ANPR_RZA2M_EBK/src/tensorflow_lite/tensorflow/lite/kernels/internal\strided_slice_logic.h **** }
  71:C:/Renesas/e2studio_2021_01_workspace_RZA2M_ANPR/ANPR_RZA2M_EBK/src/tensorflow_lite/tensorflow/lite/kernels/internal\strided_slice_logic.h **** 
  72:C:/Renesas/e2studio_2021_01_workspace_RZA2M_ANPR/ANPR_RZA2M_EBK/src/tensorflow_lite/tensorflow/lite/kernels/internal\strided_slice_logic.h **** // Return the index for the first element along that axis. This index will be a
  73:C:/Renesas/e2studio_2021_01_workspace_RZA2M_ANPR/ANPR_RZA2M_EBK/src/tensorflow_lite/tensorflow/lite/kernels/internal\strided_slice_logic.h **** // positive integer between [0, axis_size] (or [-1, axis_size -1] if stride < 0)
  74:C:/Renesas/e2studio_2021_01_workspace_RZA2M_ANPR/ANPR_RZA2M_EBK/src/tensorflow_lite/tensorflow/lite/kernels/internal\strided_slice_logic.h **** // that can be used to index directly into the data.
  75:C:/Renesas/e2studio_2021_01_workspace_RZA2M_ANPR/ANPR_RZA2M_EBK/src/tensorflow_lite/tensorflow/lite/kernels/internal\strided_slice_logic.h **** inline int StartForAxis(const tflite::StridedSliceParams& params,
  76:C:/Renesas/e2studio_2021_01_workspace_RZA2M_ANPR/ANPR_RZA2M_EBK/src/tensorflow_lite/tensorflow/lite/kernels/internal\strided_slice_logic.h ****                         const RuntimeShape& input_shape, int axis) {
  77:C:/Renesas/e2studio_2021_01_workspace_RZA2M_ANPR/ANPR_RZA2M_EBK/src/tensorflow_lite/tensorflow/lite/kernels/internal\strided_slice_logic.h ****   const auto begin_mask = params.begin_mask;
  78:C:/Renesas/e2studio_2021_01_workspace_RZA2M_ANPR/ANPR_RZA2M_EBK/src/tensorflow_lite/tensorflow/lite/kernels/internal\strided_slice_logic.h ****   const auto* start_indices = params.start_indices;
  79:C:/Renesas/e2studio_2021_01_workspace_RZA2M_ANPR/ANPR_RZA2M_EBK/src/tensorflow_lite/tensorflow/lite/kernels/internal\strided_slice_logic.h ****   const auto* strides = params.strides;
  80:C:/Renesas/e2studio_2021_01_workspace_RZA2M_ANPR/ANPR_RZA2M_EBK/src/tensorflow_lite/tensorflow/lite/kernels/internal\strided_slice_logic.h ****   const int axis_size = input_shape.Dims(axis);
  81:C:/Renesas/e2studio_2021_01_workspace_RZA2M_ANPR/ANPR_RZA2M_EBK/src/tensorflow_lite/tensorflow/lite/kernels/internal\strided_slice_logic.h ****   if (axis_size == 0) {
 1342              		.loc 5 81 0
 1343 063c 00005CE3 		cmp	ip, #0
 1344 0640 1D02000A 		beq	.L544
  82:C:/Renesas/e2studio_2021_01_workspace_RZA2M_ANPR/ANPR_RZA2M_EBK/src/tensorflow_lite/tensorflow/lite/kernels/internal\strided_slice_logic.h ****     return 0;
  83:C:/Renesas/e2studio_2021_01_workspace_RZA2M_ANPR/ANPR_RZA2M_EBK/src/tensorflow_lite/tensorflow/lite/kernels/internal\strided_slice_logic.h ****   }
  84:C:/Renesas/e2studio_2021_01_workspace_RZA2M_ANPR/ANPR_RZA2M_EBK/src/tensorflow_lite/tensorflow/lite/kernels/internal\strided_slice_logic.h ****   // Begin with the specified index.
  85:C:/Renesas/e2studio_2021_01_workspace_RZA2M_ANPR/ANPR_RZA2M_EBK/src/tensorflow_lite/tensorflow/lite/kernels/internal\strided_slice_logic.h ****   int start = start_indices[axis];
  86:C:/Renesas/e2studio_2021_01_workspace_RZA2M_ANPR/ANPR_RZA2M_EBK/src/tensorflow_lite/tensorflow/lite/kernels/internal\strided_slice_logic.h **** 
  87:C:/Renesas/e2studio_2021_01_workspace_RZA2M_ANPR/ANPR_RZA2M_EBK/src/tensorflow_lite/tensorflow/lite/kernels/internal\strided_slice_logic.h ****   // begin_mask override
  88:C:/Renesas/e2studio_2021_01_workspace_RZA2M_ANPR/ANPR_RZA2M_EBK/src/tensorflow_lite/tensorflow/lite/kernels/internal\strided_slice_logic.h ****   if (begin_mask & 1 << axis) {
 1345              		.loc 5 88 0
 1346 0644 010015E3 		tst	r5, #1
  89:C:/Renesas/e2studio_2021_01_workspace_RZA2M_ANPR/ANPR_RZA2M_EBK/src/tensorflow_lite/tensorflow/lite/kernels/internal\strided_slice_logic.h ****     if (strides[axis] > 0) {
 1347              		.loc 5 89 0
 1348 0648 28219DE5 		ldr	r2, [sp, #296]
  85:C:/Renesas/e2studio_2021_01_workspace_RZA2M_ANPR/ANPR_RZA2M_EBK/src/tensorflow_lite/tensorflow/lite/kernels/internal\strided_slice_logic.h **** 
 1349              		.loc 5 85 0
 1350 064c F8309DE5 		ldr	r3, [sp, #248]
 1351              	.LVL148:
  88:C:/Renesas/e2studio_2021_01_workspace_RZA2M_ANPR/ANPR_RZA2M_EBK/src/tensorflow_lite/tensorflow/lite/kernels/internal\strided_slice_logic.h ****     if (strides[axis] > 0) {
 1352              		.loc 5 88 0
 1353 0650 1602000A 		beq	.L37
 1354              		.loc 5 89 0
 1355 0654 000052E3 		cmp	r2, #0
  90:C:/Renesas/e2studio_2021_01_workspace_RZA2M_ANPR/ANPR_RZA2M_EBK/src/tensorflow_lite/tensorflow/lite/kernels/internal\strided_slice_logic.h ****       // Forward iteration - use the first element. These values will get
  91:C:/Renesas/e2studio_2021_01_workspace_RZA2M_ANPR/ANPR_RZA2M_EBK/src/tensorflow_lite/tensorflow/lite/kernels/internal\strided_slice_logic.h ****       // clamped below (Note: We could have set them to 0 and axis_size-1, but
  92:C:/Renesas/e2studio_2021_01_workspace_RZA2M_ANPR/ANPR_RZA2M_EBK/src/tensorflow_lite/tensorflow/lite/kernels/internal\strided_slice_logic.h ****       // use lowest() and max() to maintain symmetry with StopForAxis())
  93:C:/Renesas/e2studio_2021_01_workspace_RZA2M_ANPR/ANPR_RZA2M_EBK/src/tensorflow_lite/tensorflow/lite/kernels/internal\strided_slice_logic.h ****       start = std::numeric_limits<int>::lowest();
 1356              		.loc 5 93 0
 1357 0658 0231A0C3 		movgt	r3, #-2147483648
 1358              	.LVL149:
  89:C:/Renesas/e2studio_2021_01_workspace_RZA2M_ANPR/ANPR_RZA2M_EBK/src/tensorflow_lite/tensorflow/lite/kernels/internal\strided_slice_logic.h ****       // Forward iteration - use the first element. These values will get
 1359              		.loc 5 89 0
 1360 065c 0F0200DA 		ble	.L1063
 1361              	.L38:
 1362              	.LVL150:
  94:C:/Renesas/e2studio_2021_01_workspace_RZA2M_ANPR/ANPR_RZA2M_EBK/src/tensorflow_lite/tensorflow/lite/kernels/internal\strided_slice_logic.h ****     } else {
  95:C:/Renesas/e2studio_2021_01_workspace_RZA2M_ANPR/ANPR_RZA2M_EBK/src/tensorflow_lite/tensorflow/lite/kernels/internal\strided_slice_logic.h ****       // Backward iteration - use the last element.
  96:C:/Renesas/e2studio_2021_01_workspace_RZA2M_ANPR/ANPR_RZA2M_EBK/src/tensorflow_lite/tensorflow/lite/kernels/internal\strided_slice_logic.h ****       start = std::numeric_limits<int>::max();
  97:C:/Renesas/e2studio_2021_01_workspace_RZA2M_ANPR/ANPR_RZA2M_EBK/src/tensorflow_lite/tensorflow/lite/kernels/internal\strided_slice_logic.h ****     }
  98:C:/Renesas/e2studio_2021_01_workspace_RZA2M_ANPR/ANPR_RZA2M_EBK/src/tensorflow_lite/tensorflow/lite/kernels/internal\strided_slice_logic.h ****   }
  99:C:/Renesas/e2studio_2021_01_workspace_RZA2M_ANPR/ANPR_RZA2M_EBK/src/tensorflow_lite/tensorflow/lite/kernels/internal\strided_slice_logic.h **** 
 100:C:/Renesas/e2studio_2021_01_workspace_RZA2M_ANPR/ANPR_RZA2M_EBK/src/tensorflow_lite/tensorflow/lite/kernels/internal\strided_slice_logic.h ****   // Handle negative indices
 101:C:/Renesas/e2studio_2021_01_workspace_RZA2M_ANPR/ANPR_RZA2M_EBK/src/tensorflow_lite/tensorflow/lite/kernels/internal\strided_slice_logic.h ****   if (start < 0) {
 102:C:/Renesas/e2studio_2021_01_workspace_RZA2M_ANPR/ANPR_RZA2M_EBK/src/tensorflow_lite/tensorflow/lite/kernels/internal\strided_slice_logic.h ****     start += axis_size;
 1363              		.loc 5 102 0
 1364 0660 0C3083E0 		add	r3, r3, ip
 1365              	.LVL151:
 1366              	.L41:
 103:C:/Renesas/e2studio_2021_01_workspace_RZA2M_ANPR/ANPR_RZA2M_EBK/src/tensorflow_lite/tensorflow/lite/kernels/internal\strided_slice_logic.h ****   }
 104:C:/Renesas/e2studio_2021_01_workspace_RZA2M_ANPR/ANPR_RZA2M_EBK/src/tensorflow_lite/tensorflow/lite/kernels/internal\strided_slice_logic.h **** 
 105:C:/Renesas/e2studio_2021_01_workspace_RZA2M_ANPR/ANPR_RZA2M_EBK/src/tensorflow_lite/tensorflow/lite/kernels/internal\strided_slice_logic.h ****   // Clamping
 106:C:/Renesas/e2studio_2021_01_workspace_RZA2M_ANPR/ANPR_RZA2M_EBK/src/tensorflow_lite/tensorflow/lite/kernels/internal\strided_slice_logic.h ****   if (strides[axis] > 0) {
 1367              		.loc 5 106 0
 1368 0664 000052E3 		cmp	r2, #0
 1369 0668 060200DA 		ble	.L42
 1370              	.LVL152:
 1371              	.LBB945:
 1372              	.LBB946:
  30:C:/Renesas/e2studio_2021_01_workspace_RZA2M_ANPR/ANPR_RZA2M_EBK/src/tensorflow_lite/tensorflow/lite/kernels/internal\strided_slice_logic.h ****   if (hi < v) return hi;
 1373              		.loc 5 30 0
 1374 066c 00005CE3 		cmp	ip, #0
 1375 0670 020200BA 		blt	.L1064
  31:C:/Renesas/e2studio_2021_01_workspace_RZA2M_ANPR/ANPR_RZA2M_EBK/src/tensorflow_lite/tensorflow/lite/kernels/internal\strided_slice_logic.h ****   if (v < lo) return lo;
 1376              		.loc 5 31 0
 1377 0674 0C0053E1 		cmp	r3, ip
 1378 0678 0C10A0C1 		movgt	r1, ip
 1379 067c C31FC3D1 		bicle	r1, r3, r3, asr #31
 1380              	.LVL153:
 1381              	.L44:
 1382              	.LBE946:
 1383              	.LBE945:
 1384              	.LBE955:
 1385              	.LBE961:
 1386              	.LBB962:
 1387              	.LBB963:
 107:C:/Renesas/e2studio_2021_01_workspace_RZA2M_ANPR/ANPR_RZA2M_EBK/src/tensorflow_lite/tensorflow/lite/kernels/internal\strided_slice_logic.h ****     // Forward iteration
 108:C:/Renesas/e2studio_2021_01_workspace_RZA2M_ANPR/ANPR_RZA2M_EBK/src/tensorflow_lite/tensorflow/lite/kernels/internal\strided_slice_logic.h ****     start = Clamp(start, 0, axis_size);
 109:C:/Renesas/e2studio_2021_01_workspace_RZA2M_ANPR/ANPR_RZA2M_EBK/src/tensorflow_lite/tensorflow/lite/kernels/internal\strided_slice_logic.h ****   } else {
 110:C:/Renesas/e2studio_2021_01_workspace_RZA2M_ANPR/ANPR_RZA2M_EBK/src/tensorflow_lite/tensorflow/lite/kernels/internal\strided_slice_logic.h ****     // Backward iteration
 111:C:/Renesas/e2studio_2021_01_workspace_RZA2M_ANPR/ANPR_RZA2M_EBK/src/tensorflow_lite/tensorflow/lite/kernels/internal\strided_slice_logic.h ****     start = Clamp(start, -1, axis_size - 1);
 112:C:/Renesas/e2studio_2021_01_workspace_RZA2M_ANPR/ANPR_RZA2M_EBK/src/tensorflow_lite/tensorflow/lite/kernels/internal\strided_slice_logic.h ****   }
 113:C:/Renesas/e2studio_2021_01_workspace_RZA2M_ANPR/ANPR_RZA2M_EBK/src/tensorflow_lite/tensorflow/lite/kernels/internal\strided_slice_logic.h **** 
 114:C:/Renesas/e2studio_2021_01_workspace_RZA2M_ANPR/ANPR_RZA2M_EBK/src/tensorflow_lite/tensorflow/lite/kernels/internal\strided_slice_logic.h ****   return start;
 115:C:/Renesas/e2studio_2021_01_workspace_RZA2M_ANPR/ANPR_RZA2M_EBK/src/tensorflow_lite/tensorflow/lite/kernels/internal\strided_slice_logic.h **** }
 116:C:/Renesas/e2studio_2021_01_workspace_RZA2M_ANPR/ANPR_RZA2M_EBK/src/tensorflow_lite/tensorflow/lite/kernels/internal\strided_slice_logic.h **** 
 117:C:/Renesas/e2studio_2021_01_workspace_RZA2M_ANPR/ANPR_RZA2M_EBK/src/tensorflow_lite/tensorflow/lite/kernels/internal\strided_slice_logic.h **** // Return the "real" index for the end of iteration along that axis. This is an
 118:C:/Renesas/e2studio_2021_01_workspace_RZA2M_ANPR/ANPR_RZA2M_EBK/src/tensorflow_lite/tensorflow/lite/kernels/internal\strided_slice_logic.h **** // "end" in the traditional C sense, in that it points to one past the last
 119:C:/Renesas/e2studio_2021_01_workspace_RZA2M_ANPR/ANPR_RZA2M_EBK/src/tensorflow_lite/tensorflow/lite/kernels/internal\strided_slice_logic.h **** // element. ie. So if you were iterating through all elements of a 1D array of
 120:C:/Renesas/e2studio_2021_01_workspace_RZA2M_ANPR/ANPR_RZA2M_EBK/src/tensorflow_lite/tensorflow/lite/kernels/internal\strided_slice_logic.h **** // size 4, this function would return 4 as the stop, because it is one past the
 121:C:/Renesas/e2studio_2021_01_workspace_RZA2M_ANPR/ANPR_RZA2M_EBK/src/tensorflow_lite/tensorflow/lite/kernels/internal\strided_slice_logic.h **** // "real" indices of 0, 1, 2 & 3.
 122:C:/Renesas/e2studio_2021_01_workspace_RZA2M_ANPR/ANPR_RZA2M_EBK/src/tensorflow_lite/tensorflow/lite/kernels/internal\strided_slice_logic.h **** inline int StopForAxis(const tflite::StridedSliceParams& params,
 123:C:/Renesas/e2studio_2021_01_workspace_RZA2M_ANPR/ANPR_RZA2M_EBK/src/tensorflow_lite/tensorflow/lite/kernels/internal\strided_slice_logic.h ****                        const RuntimeShape& input_shape, int axis,
 124:C:/Renesas/e2studio_2021_01_workspace_RZA2M_ANPR/ANPR_RZA2M_EBK/src/tensorflow_lite/tensorflow/lite/kernels/internal\strided_slice_logic.h ****                        int start_for_axis) {
 125:C:/Renesas/e2studio_2021_01_workspace_RZA2M_ANPR/ANPR_RZA2M_EBK/src/tensorflow_lite/tensorflow/lite/kernels/internal\strided_slice_logic.h ****   const auto end_mask = params.end_mask;
 126:C:/Renesas/e2studio_2021_01_workspace_RZA2M_ANPR/ANPR_RZA2M_EBK/src/tensorflow_lite/tensorflow/lite/kernels/internal\strided_slice_logic.h ****   const auto shrink_axis_mask = params.shrink_axis_mask;
 127:C:/Renesas/e2studio_2021_01_workspace_RZA2M_ANPR/ANPR_RZA2M_EBK/src/tensorflow_lite/tensorflow/lite/kernels/internal\strided_slice_logic.h ****   const auto* stop_indices = params.stop_indices;
 128:C:/Renesas/e2studio_2021_01_workspace_RZA2M_ANPR/ANPR_RZA2M_EBK/src/tensorflow_lite/tensorflow/lite/kernels/internal\strided_slice_logic.h ****   const auto* strides = params.strides;
 129:C:/Renesas/e2studio_2021_01_workspace_RZA2M_ANPR/ANPR_RZA2M_EBK/src/tensorflow_lite/tensorflow/lite/kernels/internal\strided_slice_logic.h ****   const int axis_size = input_shape.Dims(axis);
 130:C:/Renesas/e2studio_2021_01_workspace_RZA2M_ANPR/ANPR_RZA2M_EBK/src/tensorflow_lite/tensorflow/lite/kernels/internal\strided_slice_logic.h ****   if (axis_size == 0) {
 131:C:/Renesas/e2studio_2021_01_workspace_RZA2M_ANPR/ANPR_RZA2M_EBK/src/tensorflow_lite/tensorflow/lite/kernels/internal\strided_slice_logic.h ****     return 0;
 132:C:/Renesas/e2studio_2021_01_workspace_RZA2M_ANPR/ANPR_RZA2M_EBK/src/tensorflow_lite/tensorflow/lite/kernels/internal\strided_slice_logic.h ****   }
 133:C:/Renesas/e2studio_2021_01_workspace_RZA2M_ANPR/ANPR_RZA2M_EBK/src/tensorflow_lite/tensorflow/lite/kernels/internal\strided_slice_logic.h **** 
 134:C:/Renesas/e2studio_2021_01_workspace_RZA2M_ANPR/ANPR_RZA2M_EBK/src/tensorflow_lite/tensorflow/lite/kernels/internal\strided_slice_logic.h ****   // Begin with the specified index
 135:C:/Renesas/e2studio_2021_01_workspace_RZA2M_ANPR/ANPR_RZA2M_EBK/src/tensorflow_lite/tensorflow/lite/kernels/internal\strided_slice_logic.h ****   const bool shrink_axis = shrink_axis_mask & (1 << axis);
 136:C:/Renesas/e2studio_2021_01_workspace_RZA2M_ANPR/ANPR_RZA2M_EBK/src/tensorflow_lite/tensorflow/lite/kernels/internal\strided_slice_logic.h ****   int stop = stop_indices[axis];
 137:C:/Renesas/e2studio_2021_01_workspace_RZA2M_ANPR/ANPR_RZA2M_EBK/src/tensorflow_lite/tensorflow/lite/kernels/internal\strided_slice_logic.h **** 
 138:C:/Renesas/e2studio_2021_01_workspace_RZA2M_ANPR/ANPR_RZA2M_EBK/src/tensorflow_lite/tensorflow/lite/kernels/internal\strided_slice_logic.h ****   // When shrinking an axis, the end position does not matter (and can be
 139:C:/Renesas/e2studio_2021_01_workspace_RZA2M_ANPR/ANPR_RZA2M_EBK/src/tensorflow_lite/tensorflow/lite/kernels/internal\strided_slice_logic.h ****   // incorrect when negative indexing is used, see Issue #19260). Always use
 140:C:/Renesas/e2studio_2021_01_workspace_RZA2M_ANPR/ANPR_RZA2M_EBK/src/tensorflow_lite/tensorflow/lite/kernels/internal\strided_slice_logic.h ****   // start_for_axis + 1 to generate a length 1 slice, since start_for_axis has
 141:C:/Renesas/e2studio_2021_01_workspace_RZA2M_ANPR/ANPR_RZA2M_EBK/src/tensorflow_lite/tensorflow/lite/kernels/internal\strided_slice_logic.h ****   // already been adjusted for negative indices.
 142:C:/Renesas/e2studio_2021_01_workspace_RZA2M_ANPR/ANPR_RZA2M_EBK/src/tensorflow_lite/tensorflow/lite/kernels/internal\strided_slice_logic.h ****   if (shrink_axis) {
 1388              		.loc 5 142 0
 1389 0680 010017E3 		tst	r7, #1
 136:C:/Renesas/e2studio_2021_01_workspace_RZA2M_ANPR/ANPR_RZA2M_EBK/src/tensorflow_lite/tensorflow/lite/kernels/internal\strided_slice_logic.h **** 
 1390              		.loc 5 136 0
 1391 0684 10319DE5 		ldr	r3, [sp, #272]
 1392              	.LVL154:
 1393              		.loc 5 142 0
 1394 0688 FA01001A 		bne	.L1065
 143:C:/Renesas/e2studio_2021_01_workspace_RZA2M_ANPR/ANPR_RZA2M_EBK/src/tensorflow_lite/tensorflow/lite/kernels/internal\strided_slice_logic.h ****     return start_for_axis + 1;
 144:C:/Renesas/e2studio_2021_01_workspace_RZA2M_ANPR/ANPR_RZA2M_EBK/src/tensorflow_lite/tensorflow/lite/kernels/internal\strided_slice_logic.h ****   }
 145:C:/Renesas/e2studio_2021_01_workspace_RZA2M_ANPR/ANPR_RZA2M_EBK/src/tensorflow_lite/tensorflow/lite/kernels/internal\strided_slice_logic.h **** 
 146:C:/Renesas/e2studio_2021_01_workspace_RZA2M_ANPR/ANPR_RZA2M_EBK/src/tensorflow_lite/tensorflow/lite/kernels/internal\strided_slice_logic.h ****   // end_mask override
 147:C:/Renesas/e2studio_2021_01_workspace_RZA2M_ANPR/ANPR_RZA2M_EBK/src/tensorflow_lite/tensorflow/lite/kernels/internal\strided_slice_logic.h ****   if (end_mask & (1 << axis)) {
 1395              		.loc 5 147 0
 1396 068c 010016E3 		tst	r6, #1
 1397 0690 ED01000A 		beq	.L46
 148:C:/Renesas/e2studio_2021_01_workspace_RZA2M_ANPR/ANPR_RZA2M_EBK/src/tensorflow_lite/tensorflow/lite/kernels/internal\strided_slice_logic.h ****     if (strides[axis] > 0) {
 1398              		.loc 5 148 0
 1399 0694 000052E3 		cmp	r2, #0
 149:C:/Renesas/e2studio_2021_01_workspace_RZA2M_ANPR/ANPR_RZA2M_EBK/src/tensorflow_lite/tensorflow/lite/kernels/internal\strided_slice_logic.h ****       // Forward iteration - use the last element. These values will get
 150:C:/Renesas/e2studio_2021_01_workspace_RZA2M_ANPR/ANPR_RZA2M_EBK/src/tensorflow_lite/tensorflow/lite/kernels/internal\strided_slice_logic.h ****       // clamped below
 151:C:/Renesas/e2studio_2021_01_workspace_RZA2M_ANPR/ANPR_RZA2M_EBK/src/tensorflow_lite/tensorflow/lite/kernels/internal\strided_slice_logic.h ****       stop = std::numeric_limits<int>::max();
 152:C:/Renesas/e2studio_2021_01_workspace_RZA2M_ANPR/ANPR_RZA2M_EBK/src/tensorflow_lite/tensorflow/lite/kernels/internal\strided_slice_logic.h ****     } else {
 153:C:/Renesas/e2studio_2021_01_workspace_RZA2M_ANPR/ANPR_RZA2M_EBK/src/tensorflow_lite/tensorflow/lite/kernels/internal\strided_slice_logic.h ****       // Backward iteration - use the first element.
 154:C:/Renesas/e2studio_2021_01_workspace_RZA2M_ANPR/ANPR_RZA2M_EBK/src/tensorflow_lite/tensorflow/lite/kernels/internal\strided_slice_logic.h ****       stop = std::numeric_limits<int>::lowest();
 1400              		.loc 5 154 0
 1401 0698 0231A0D3 		movle	r3, #-2147483648
 1402              	.LVL155:
 148:C:/Renesas/e2studio_2021_01_workspace_RZA2M_ANPR/ANPR_RZA2M_EBK/src/tensorflow_lite/tensorflow/lite/kernels/internal\strided_slice_logic.h ****     if (strides[axis] > 0) {
 1403              		.loc 5 148 0
 1404 069c EC0100DA 		ble	.L48
 151:C:/Renesas/e2studio_2021_01_workspace_RZA2M_ANPR/ANPR_RZA2M_EBK/src/tensorflow_lite/tensorflow/lite/kernels/internal\strided_slice_logic.h ****     } else {
 1405              		.loc 5 151 0
 1406 06a0 0231E0E3 		mvn	r3, #-2147483648
 1407              	.LVL156:
 1408              	.L47:
 1409              	.LBB964:
 1410              	.LBB965:
  30:C:/Renesas/e2studio_2021_01_workspace_RZA2M_ANPR/ANPR_RZA2M_EBK/src/tensorflow_lite/tensorflow/lite/kernels/internal\strided_slice_logic.h ****   if (hi < v) return hi;
 1411              		.loc 5 30 0
 1412 06a4 00005CE3 		cmp	ip, #0
 1413 06a8 E60100BA 		blt	.L1066
  31:C:/Renesas/e2studio_2021_01_workspace_RZA2M_ANPR/ANPR_RZA2M_EBK/src/tensorflow_lite/tensorflow/lite/kernels/internal\strided_slice_logic.h ****   if (v < lo) return lo;
 1414              		.loc 5 31 0
 1415 06ac 03005CE1 		cmp	ip, r3
 1416 06b0 C3CFC3A1 		bicge	ip, r3, r3, asr #31
 1417              	.LVL157:
 1418              	.L36:
 1419              	.LBE965:
 1420              	.LBE964:
 1421              	.LBE963:
 1422              	.LBE962:
 1423              	.LBB974:
 1424              	.LBB975:
 1425              	.LBB976:
 1426              	.LBB977:
 215:C:/Renesas/e2studio_2021_01_workspace_RZA2M_ANPR/ANPR_RZA2M_EBK/src/tensorflow_lite/tensorflow/lite/kernels/internal\types.h ****     return size_ > kMaxSmallSize ? dims_pointer_[i] : dims_[i];
 1427              		.loc 4 215 0
 1428 06b4 0C309DE5 		ldr	r3, [sp, #12]
 1429 06b8 010053E3 		cmp	r3, #1
 1430 06bc E001000A 		beq	.L1067
 216:C:/Renesas/e2studio_2021_01_workspace_RZA2M_ANPR/ANPR_RZA2M_EBK/src/tensorflow_lite/tensorflow/lite/kernels/internal\types.h ****   }
 1431              		.loc 4 216 0
 1432 06c0 050053E3 		cmp	r3, #5
 1433 06c4 C8309DC5 		ldrgt	r3, [sp, #200]
 1434 06c8 CC209DD5 		ldrle	r2, [sp, #204]
 1435              	.LVL158:
 1436 06cc 042093C5 		ldrgt	r2, [r3, #4]
 1437              	.LBE977:
 1438              	.LBE976:
  81:C:/Renesas/e2studio_2021_01_workspace_RZA2M_ANPR/ANPR_RZA2M_EBK/src/tensorflow_lite/tensorflow/lite/kernels/internal\strided_slice_logic.h ****     return 0;
 1439              		.loc 5 81 0
 1440 06d0 000052E3 		cmp	r2, #0
 1441 06d4 D701000A 		beq	.L549
  88:C:/Renesas/e2studio_2021_01_workspace_RZA2M_ANPR/ANPR_RZA2M_EBK/src/tensorflow_lite/tensorflow/lite/kernels/internal\strided_slice_logic.h ****     if (strides[axis] > 0) {
 1442              		.loc 5 88 0
 1443 06d8 020015E3 		tst	r5, #2
  89:C:/Renesas/e2studio_2021_01_workspace_RZA2M_ANPR/ANPR_RZA2M_EBK/src/tensorflow_lite/tensorflow/lite/kernels/internal\strided_slice_logic.h ****       // Forward iteration - use the first element. These values will get
 1444              		.loc 5 89 0
 1445 06dc 2C019DE5 		ldr	r0, [sp, #300]
  85:C:/Renesas/e2studio_2021_01_workspace_RZA2M_ANPR/ANPR_RZA2M_EBK/src/tensorflow_lite/tensorflow/lite/kernels/internal\strided_slice_logic.h **** 
 1446              		.loc 5 85 0
 1447 06e0 FC309DE5 		ldr	r3, [sp, #252]
 1448              	.LVL159:
  88:C:/Renesas/e2studio_2021_01_workspace_RZA2M_ANPR/ANPR_RZA2M_EBK/src/tensorflow_lite/tensorflow/lite/kernels/internal\strided_slice_logic.h ****     if (strides[axis] > 0) {
 1449              		.loc 5 88 0
 1450 06e4 D001000A 		beq	.L57
  89:C:/Renesas/e2studio_2021_01_workspace_RZA2M_ANPR/ANPR_RZA2M_EBK/src/tensorflow_lite/tensorflow/lite/kernels/internal\strided_slice_logic.h ****       // Forward iteration - use the first element. These values will get
 1451              		.loc 5 89 0
 1452 06e8 000050E3 		cmp	r0, #0
  93:C:/Renesas/e2studio_2021_01_workspace_RZA2M_ANPR/ANPR_RZA2M_EBK/src/tensorflow_lite/tensorflow/lite/kernels/internal\strided_slice_logic.h ****     } else {
 1453              		.loc 5 93 0
 1454 06ec 0231A0C3 		movgt	r3, #-2147483648
 1455              	.LVL160:
  89:C:/Renesas/e2studio_2021_01_workspace_RZA2M_ANPR/ANPR_RZA2M_EBK/src/tensorflow_lite/tensorflow/lite/kernels/internal\strided_slice_logic.h ****       // Forward iteration - use the first element. These values will get
 1456              		.loc 5 89 0
 1457 06f0 C60100DA 		ble	.L1068
 1458              	.L58:
 1459              	.LVL161:
 102:C:/Renesas/e2studio_2021_01_workspace_RZA2M_ANPR/ANPR_RZA2M_EBK/src/tensorflow_lite/tensorflow/lite/kernels/internal\strided_slice_logic.h ****   }
 1460              		.loc 5 102 0
 1461 06f4 023083E0 		add	r3, r3, r2
 1462              	.LVL162:
 1463              	.L61:
 106:C:/Renesas/e2studio_2021_01_workspace_RZA2M_ANPR/ANPR_RZA2M_EBK/src/tensorflow_lite/tensorflow/lite/kernels/internal\strided_slice_logic.h ****     // Forward iteration
 1464              		.loc 5 106 0
 1465 06f8 000050E3 		cmp	r0, #0
 1466 06fc BB0100DA 		ble	.L62
 1467              	.LVL163:
 1468              	.LBB979:
 1469              	.LBB980:
  30:C:/Renesas/e2studio_2021_01_workspace_RZA2M_ANPR/ANPR_RZA2M_EBK/src/tensorflow_lite/tensorflow/lite/kernels/internal\strided_slice_logic.h ****   if (hi < v) return hi;
 1470              		.loc 5 30 0
 1471 0700 000052E3 		cmp	r2, #0
 1472 0704 C60100BA 		blt	.L1069
  31:C:/Renesas/e2studio_2021_01_workspace_RZA2M_ANPR/ANPR_RZA2M_EBK/src/tensorflow_lite/tensorflow/lite/kernels/internal\strided_slice_logic.h ****   if (v < lo) return lo;
 1473              		.loc 5 31 0
 1474 0708 020053E1 		cmp	r3, r2
 1475 070c 2C208DC5 		strgt	r2, [sp, #44]
 1476 0710 C33FC3D1 		bicle	r3, r3, r3, asr #31
 1477              	.LVL164:
 1478 0714 2C308DD5 		strle	r3, [sp, #44]
 1479              	.LVL165:
 1480              	.L64:
 1481              	.LBE980:
 1482              	.LBE979:
 1483              	.LBE975:
 1484              	.LBE974:
 1485              	.LBB995:
 1486              	.LBB996:
 142:C:/Renesas/e2studio_2021_01_workspace_RZA2M_ANPR/ANPR_RZA2M_EBK/src/tensorflow_lite/tensorflow/lite/kernels/internal\strided_slice_logic.h ****     return start_for_axis + 1;
 1487              		.loc 5 142 0
 1488 0718 020017E3 		tst	r7, #2
 136:C:/Renesas/e2studio_2021_01_workspace_RZA2M_ANPR/ANPR_RZA2M_EBK/src/tensorflow_lite/tensorflow/lite/kernels/internal\strided_slice_logic.h **** 
 1489              		.loc 5 136 0
 1490 071c 14319DE5 		ldr	r3, [sp, #276]
 1491              	.LVL166:
 142:C:/Renesas/e2studio_2021_01_workspace_RZA2M_ANPR/ANPR_RZA2M_EBK/src/tensorflow_lite/tensorflow/lite/kernels/internal\strided_slice_logic.h ****     return start_for_axis + 1;
 1492              		.loc 5 142 0
 1493 0720 AF01001A 		bne	.L1070
 147:C:/Renesas/e2studio_2021_01_workspace_RZA2M_ANPR/ANPR_RZA2M_EBK/src/tensorflow_lite/tensorflow/lite/kernels/internal\strided_slice_logic.h ****     if (strides[axis] > 0) {
 1494              		.loc 5 147 0
 1495 0724 020016E3 		tst	r6, #2
 1496 0728 A201000A 		beq	.L66
 148:C:/Renesas/e2studio_2021_01_workspace_RZA2M_ANPR/ANPR_RZA2M_EBK/src/tensorflow_lite/tensorflow/lite/kernels/internal\strided_slice_logic.h ****       // Forward iteration - use the last element. These values will get
 1497              		.loc 5 148 0
 1498 072c 000050E3 		cmp	r0, #0
 1499              		.loc 5 154 0
 1500 0730 0231A0D3 		movle	r3, #-2147483648
 1501              	.LVL167:
 148:C:/Renesas/e2studio_2021_01_workspace_RZA2M_ANPR/ANPR_RZA2M_EBK/src/tensorflow_lite/tensorflow/lite/kernels/internal\strided_slice_logic.h ****       // Forward iteration - use the last element. These values will get
 1502              		.loc 5 148 0
 1503 0734 A10100DA 		ble	.L68
 151:C:/Renesas/e2studio_2021_01_workspace_RZA2M_ANPR/ANPR_RZA2M_EBK/src/tensorflow_lite/tensorflow/lite/kernels/internal\strided_slice_logic.h ****     } else {
 1504              		.loc 5 151 0
 1505 0738 0231E0E3 		mvn	r3, #-2147483648
 1506              	.LVL168:
 1507              	.L67:
 1508              	.LBB997:
 1509              	.LBB998:
  30:C:/Renesas/e2studio_2021_01_workspace_RZA2M_ANPR/ANPR_RZA2M_EBK/src/tensorflow_lite/tensorflow/lite/kernels/internal\strided_slice_logic.h ****   if (hi < v) return hi;
 1510              		.loc 5 30 0
 1511 073c 000052E3 		cmp	r2, #0
 1512 0740 9B0100BA 		blt	.L1071
  31:C:/Renesas/e2studio_2021_01_workspace_RZA2M_ANPR/ANPR_RZA2M_EBK/src/tensorflow_lite/tensorflow/lite/kernels/internal\strided_slice_logic.h ****   if (v < lo) return lo;
 1513              		.loc 5 31 0
 1514 0744 030052E1 		cmp	r2, r3
 1515 0748 02E0A0B1 		movlt	lr, r2
 1516 074c C3EFC3A1 		bicge	lr, r3, r3, asr #31
 1517              	.LVL169:
 1518              	.L56:
 1519              	.LBE998:
 1520              	.LBE997:
 1521              	.LBE996:
 1522              	.LBE995:
 1523              	.LBB1008:
 1524              	.LBB1009:
 1525              	.LBB1010:
 1526              	.LBB1011:
 215:C:/Renesas/e2studio_2021_01_workspace_RZA2M_ANPR/ANPR_RZA2M_EBK/src/tensorflow_lite/tensorflow/lite/kernels/internal\types.h ****     return size_ > kMaxSmallSize ? dims_pointer_[i] : dims_[i];
 1527              		.loc 4 215 0
 1528 0750 0C309DE5 		ldr	r3, [sp, #12]
 1529 0754 020053E3 		cmp	r3, #2
 1530 0758 9401000A 		beq	.L1072
 216:C:/Renesas/e2studio_2021_01_workspace_RZA2M_ANPR/ANPR_RZA2M_EBK/src/tensorflow_lite/tensorflow/lite/kernels/internal\types.h ****   }
 1531              		.loc 4 216 0
 1532 075c 050053E3 		cmp	r3, #5
 1533 0760 C8309DC5 		ldrgt	r3, [sp, #200]
 1534 0764 D0309DD5 		ldrle	r3, [sp, #208]
 1535              	.LVL170:
 1536 0768 083093C5 		ldrgt	r3, [r3, #8]
 1537              	.LBE1011:
 1538              	.LBE1010:
  81:C:/Renesas/e2studio_2021_01_workspace_RZA2M_ANPR/ANPR_RZA2M_EBK/src/tensorflow_lite/tensorflow/lite/kernels/internal\strided_slice_logic.h ****     return 0;
 1539              		.loc 5 81 0
 1540 076c 000053E3 		cmp	r3, #0
 1541 0770 F004000A 		beq	.L554
  88:C:/Renesas/e2studio_2021_01_workspace_RZA2M_ANPR/ANPR_RZA2M_EBK/src/tensorflow_lite/tensorflow/lite/kernels/internal\strided_slice_logic.h ****     if (strides[axis] > 0) {
 1542              		.loc 5 88 0
 1543 0774 040015E3 		tst	r5, #4
  89:C:/Renesas/e2studio_2021_01_workspace_RZA2M_ANPR/ANPR_RZA2M_EBK/src/tensorflow_lite/tensorflow/lite/kernels/internal\strided_slice_logic.h ****       // Forward iteration - use the first element. These values will get
 1544              		.loc 5 89 0
 1545 0778 30419DE5 		ldr	r4, [sp, #304]
  85:C:/Renesas/e2studio_2021_01_workspace_RZA2M_ANPR/ANPR_RZA2M_EBK/src/tensorflow_lite/tensorflow/lite/kernels/internal\strided_slice_logic.h **** 
 1546              		.loc 5 85 0
 1547 077c 00019DE5 		ldr	r0, [sp, #256]
 1548              	.LVL171:
  88:C:/Renesas/e2studio_2021_01_workspace_RZA2M_ANPR/ANPR_RZA2M_EBK/src/tensorflow_lite/tensorflow/lite/kernels/internal\strided_slice_logic.h ****     if (strides[axis] > 0) {
 1549              		.loc 5 88 0
 1550 0780 E904000A 		beq	.L77
  89:C:/Renesas/e2studio_2021_01_workspace_RZA2M_ANPR/ANPR_RZA2M_EBK/src/tensorflow_lite/tensorflow/lite/kernels/internal\strided_slice_logic.h ****       // Forward iteration - use the first element. These values will get
 1551              		.loc 5 89 0
 1552 0784 000054E3 		cmp	r4, #0
  93:C:/Renesas/e2studio_2021_01_workspace_RZA2M_ANPR/ANPR_RZA2M_EBK/src/tensorflow_lite/tensorflow/lite/kernels/internal\strided_slice_logic.h ****     } else {
 1553              		.loc 5 93 0
 1554 0788 0201A0C3 		movgt	r0, #-2147483648
 1555              	.LVL172:
  89:C:/Renesas/e2studio_2021_01_workspace_RZA2M_ANPR/ANPR_RZA2M_EBK/src/tensorflow_lite/tensorflow/lite/kernels/internal\strided_slice_logic.h ****       // Forward iteration - use the first element. These values will get
 1556              		.loc 5 89 0
 1557 078c E10400DA 		ble	.L1073
 1558              	.L78:
 1559              	.LVL173:
 102:C:/Renesas/e2studio_2021_01_workspace_RZA2M_ANPR/ANPR_RZA2M_EBK/src/tensorflow_lite/tensorflow/lite/kernels/internal\strided_slice_logic.h ****   }
 1560              		.loc 5 102 0
 1561 0790 030080E0 		add	r0, r0, r3
 1562              	.LVL174:
 1563              	.L81:
 106:C:/Renesas/e2studio_2021_01_workspace_RZA2M_ANPR/ANPR_RZA2M_EBK/src/tensorflow_lite/tensorflow/lite/kernels/internal\strided_slice_logic.h ****     // Forward iteration
 1564              		.loc 5 106 0
 1565 0794 000054E3 		cmp	r4, #0
 1566 0798 D60400DA 		ble	.L82
 1567              	.LVL175:
 1568              	.LBB1013:
 1569              	.LBB1014:
  30:C:/Renesas/e2studio_2021_01_workspace_RZA2M_ANPR/ANPR_RZA2M_EBK/src/tensorflow_lite/tensorflow/lite/kernels/internal\strided_slice_logic.h ****   if (hi < v) return hi;
 1570              		.loc 5 30 0
 1571 079c 000053E3 		cmp	r3, #0
 1572 07a0 D20400BA 		blt	.L1074
  31:C:/Renesas/e2studio_2021_01_workspace_RZA2M_ANPR/ANPR_RZA2M_EBK/src/tensorflow_lite/tensorflow/lite/kernels/internal\strided_slice_logic.h ****   if (v < lo) return lo;
 1573              		.loc 5 31 0
 1574 07a4 030050E1 		cmp	r0, r3
 1575 07a8 28308DC5 		strgt	r3, [sp, #40]
 1576 07ac C00FC0D1 		bicle	r0, r0, r0, asr #31
 1577              	.LVL176:
 1578 07b0 28008DD5 		strle	r0, [sp, #40]
 1579              	.LVL177:
 1580              	.L84:
 1581              	.LBE1014:
 1582              	.LBE1013:
 1583              	.LBE1009:
 1584              	.LBE1008:
 1585              	.LBB1029:
 1586              	.LBB1030:
 142:C:/Renesas/e2studio_2021_01_workspace_RZA2M_ANPR/ANPR_RZA2M_EBK/src/tensorflow_lite/tensorflow/lite/kernels/internal\strided_slice_logic.h ****     return start_for_axis + 1;
 1587              		.loc 5 142 0
 1588 07b4 040017E3 		tst	r7, #4
 136:C:/Renesas/e2studio_2021_01_workspace_RZA2M_ANPR/ANPR_RZA2M_EBK/src/tensorflow_lite/tensorflow/lite/kernels/internal\strided_slice_logic.h **** 
 1589              		.loc 5 136 0
 1590 07b8 18019DE5 		ldr	r0, [sp, #280]
 1591              	.LVL178:
 142:C:/Renesas/e2studio_2021_01_workspace_RZA2M_ANPR/ANPR_RZA2M_EBK/src/tensorflow_lite/tensorflow/lite/kernels/internal\strided_slice_logic.h ****     return start_for_axis + 1;
 1592              		.loc 5 142 0
 1593 07bc C704001A 		bne	.L1075
 147:C:/Renesas/e2studio_2021_01_workspace_RZA2M_ANPR/ANPR_RZA2M_EBK/src/tensorflow_lite/tensorflow/lite/kernels/internal\strided_slice_logic.h ****     if (strides[axis] > 0) {
 1594              		.loc 5 147 0
 1595 07c0 040016E3 		tst	r6, #4
 1596 07c4 B804000A 		beq	.L86
 148:C:/Renesas/e2studio_2021_01_workspace_RZA2M_ANPR/ANPR_RZA2M_EBK/src/tensorflow_lite/tensorflow/lite/kernels/internal\strided_slice_logic.h ****       // Forward iteration - use the last element. These values will get
 1597              		.loc 5 148 0
 1598 07c8 000054E3 		cmp	r4, #0
 1599              		.loc 5 154 0
 1600 07cc 0201A0D3 		movle	r0, #-2147483648
 1601              	.LVL179:
 148:C:/Renesas/e2studio_2021_01_workspace_RZA2M_ANPR/ANPR_RZA2M_EBK/src/tensorflow_lite/tensorflow/lite/kernels/internal\strided_slice_logic.h ****       // Forward iteration - use the last element. These values will get
 1602              		.loc 5 148 0
 1603 07d0 B70400DA 		ble	.L88
 151:C:/Renesas/e2studio_2021_01_workspace_RZA2M_ANPR/ANPR_RZA2M_EBK/src/tensorflow_lite/tensorflow/lite/kernels/internal\strided_slice_logic.h ****     } else {
 1604              		.loc 5 151 0
 1605 07d4 0201E0E3 		mvn	r0, #-2147483648
 1606              	.LVL180:
 1607              	.L87:
 1608              	.LBB1031:
 1609              	.LBB1032:
  30:C:/Renesas/e2studio_2021_01_workspace_RZA2M_ANPR/ANPR_RZA2M_EBK/src/tensorflow_lite/tensorflow/lite/kernels/internal\strided_slice_logic.h ****   if (hi < v) return hi;
 1610              		.loc 5 30 0
 1611 07d8 000053E3 		cmp	r3, #0
 1612 07dc B10400BA 		blt	.L1076
  31:C:/Renesas/e2studio_2021_01_workspace_RZA2M_ANPR/ANPR_RZA2M_EBK/src/tensorflow_lite/tensorflow/lite/kernels/internal\strided_slice_logic.h ****   if (v < lo) return lo;
 1613              		.loc 5 31 0
 1614 07e0 000053E1 		cmp	r3, r0
 1615 07e4 48308DB5 		strlt	r3, [sp, #72]
 1616 07e8 C00FC0A1 		bicge	r0, r0, r0, asr #31
 1617              	.LVL181:
 1618 07ec 48008DA5 		strge	r0, [sp, #72]
 1619              	.LVL182:
 1620              	.L76:
 1621              	.LBE1032:
 1622              	.LBE1031:
 1623              	.LBE1030:
 1624              	.LBE1029:
 1625              	.LBB1044:
 1626              	.LBB1045:
 1627              	.LBB1046:
 1628              	.LBB1047:
 215:C:/Renesas/e2studio_2021_01_workspace_RZA2M_ANPR/ANPR_RZA2M_EBK/src/tensorflow_lite/tensorflow/lite/kernels/internal\types.h ****     return size_ > kMaxSmallSize ? dims_pointer_[i] : dims_[i];
 1629              		.loc 4 215 0
 1630 07f0 0C009DE5 		ldr	r0, [sp, #12]
 1631 07f4 030050E3 		cmp	r0, #3
 1632 07f8 A904000A 		beq	.L1077
 216:C:/Renesas/e2studio_2021_01_workspace_RZA2M_ANPR/ANPR_RZA2M_EBK/src/tensorflow_lite/tensorflow/lite/kernels/internal\types.h ****   }
 1633              		.loc 4 216 0
 1634 07fc 050050E3 		cmp	r0, #5
 1635 0800 C8009DC5 		ldrgt	r0, [sp, #200]
 1636 0804 D4009DD5 		ldrle	r0, [sp, #212]
 1637 0808 0C0090C5 		ldrgt	r0, [r0, #12]
 1638              	.LBE1047:
 1639              	.LBE1046:
  81:C:/Renesas/e2studio_2021_01_workspace_RZA2M_ANPR/ANPR_RZA2M_EBK/src/tensorflow_lite/tensorflow/lite/kernels/internal\strided_slice_logic.h ****     return 0;
 1640              		.loc 5 81 0
 1641 080c 000050E3 		cmp	r0, #0
 1642              	.LBB1050:
 1643              	.LBB1048:
 216:C:/Renesas/e2studio_2021_01_workspace_RZA2M_ANPR/ANPR_RZA2M_EBK/src/tensorflow_lite/tensorflow/lite/kernels/internal\types.h ****   }
 1644              		.loc 4 216 0
 1645 0810 1C008DE5 		str	r0, [sp, #28]
 1646              	.LVL183:
 1647              	.LBE1048:
 1648              	.LBE1050:
  81:C:/Renesas/e2studio_2021_01_workspace_RZA2M_ANPR/ANPR_RZA2M_EBK/src/tensorflow_lite/tensorflow/lite/kernels/internal\strided_slice_logic.h ****     return 0;
 1649              		.loc 5 81 0
 1650 0814 9F04000A 		beq	.L559
  88:C:/Renesas/e2studio_2021_01_workspace_RZA2M_ANPR/ANPR_RZA2M_EBK/src/tensorflow_lite/tensorflow/lite/kernels/internal\strided_slice_logic.h ****     if (strides[axis] > 0) {
 1651              		.loc 5 88 0
 1652 0818 080015E3 		tst	r5, #8
  89:C:/Renesas/e2studio_2021_01_workspace_RZA2M_ANPR/ANPR_RZA2M_EBK/src/tensorflow_lite/tensorflow/lite/kernels/internal\strided_slice_logic.h ****       // Forward iteration - use the first element. These values will get
 1653              		.loc 5 89 0
 1654 081c 34419DE5 		ldr	r4, [sp, #308]
  85:C:/Renesas/e2studio_2021_01_workspace_RZA2M_ANPR/ANPR_RZA2M_EBK/src/tensorflow_lite/tensorflow/lite/kernels/internal\strided_slice_logic.h **** 
 1655              		.loc 5 85 0
 1656 0820 04019DE5 		ldr	r0, [sp, #260]
 1657              	.LVL184:
  88:C:/Renesas/e2studio_2021_01_workspace_RZA2M_ANPR/ANPR_RZA2M_EBK/src/tensorflow_lite/tensorflow/lite/kernels/internal\strided_slice_logic.h ****     if (strides[axis] > 0) {
 1658              		.loc 5 88 0
 1659 0824 9804000A 		beq	.L97
  89:C:/Renesas/e2studio_2021_01_workspace_RZA2M_ANPR/ANPR_RZA2M_EBK/src/tensorflow_lite/tensorflow/lite/kernels/internal\strided_slice_logic.h ****       // Forward iteration - use the first element. These values will get
 1660              		.loc 5 89 0
 1661 0828 000054E3 		cmp	r4, #0
  93:C:/Renesas/e2studio_2021_01_workspace_RZA2M_ANPR/ANPR_RZA2M_EBK/src/tensorflow_lite/tensorflow/lite/kernels/internal\strided_slice_logic.h ****     } else {
 1662              		.loc 5 93 0
 1663 082c 0201A0C3 		movgt	r0, #-2147483648
 1664              	.LVL185:
  89:C:/Renesas/e2studio_2021_01_workspace_RZA2M_ANPR/ANPR_RZA2M_EBK/src/tensorflow_lite/tensorflow/lite/kernels/internal\strided_slice_logic.h ****       // Forward iteration - use the first element. These values will get
 1665              		.loc 5 89 0
 1666 0830 8F0400DA 		ble	.L1078
 1667              	.L98:
 1668              	.LVL186:
 102:C:/Renesas/e2studio_2021_01_workspace_RZA2M_ANPR/ANPR_RZA2M_EBK/src/tensorflow_lite/tensorflow/lite/kernels/internal\strided_slice_logic.h ****   }
 1669              		.loc 5 102 0
 1670 0834 1C809DE5 		ldr	r8, [sp, #28]
 1671 0838 080080E0 		add	r0, r0, r8
 1672              	.LVL187:
 1673              	.L101:
 106:C:/Renesas/e2studio_2021_01_workspace_RZA2M_ANPR/ANPR_RZA2M_EBK/src/tensorflow_lite/tensorflow/lite/kernels/internal\strided_slice_logic.h ****     // Forward iteration
 1674              		.loc 5 106 0
 1675 083c 000054E3 		cmp	r4, #0
 1676              	.LBB1051:
 1677              	.LBB1052:
  30:C:/Renesas/e2studio_2021_01_workspace_RZA2M_ANPR/ANPR_RZA2M_EBK/src/tensorflow_lite/tensorflow/lite/kernels/internal\strided_slice_logic.h ****   if (hi < v) return hi;
 1678              		.loc 5 30 0
 1679 0840 1C809DE5 		ldr	r8, [sp, #28]
 1680              	.LBE1052:
 1681              	.LBE1051:
 106:C:/Renesas/e2studio_2021_01_workspace_RZA2M_ANPR/ANPR_RZA2M_EBK/src/tensorflow_lite/tensorflow/lite/kernels/internal\strided_slice_logic.h ****     // Forward iteration
 1682              		.loc 5 106 0
 1683 0844 820400DA 		ble	.L102
 1684              	.LVL188:
 1685              	.LBB1055:
 1686              	.LBB1053:
  30:C:/Renesas/e2studio_2021_01_workspace_RZA2M_ANPR/ANPR_RZA2M_EBK/src/tensorflow_lite/tensorflow/lite/kernels/internal\strided_slice_logic.h ****   if (hi < v) return hi;
 1687              		.loc 5 30 0
 1688 0848 000058E3 		cmp	r8, #0
 1689 084c 7F0400BA 		blt	.L1079
  31:C:/Renesas/e2studio_2021_01_workspace_RZA2M_ANPR/ANPR_RZA2M_EBK/src/tensorflow_lite/tensorflow/lite/kernels/internal\strided_slice_logic.h ****   if (v < lo) return lo;
 1690              		.loc 5 31 0
 1691 0850 080050E1 		cmp	r0, r8
 1692 0854 0800A0C1 		movgt	r0, r8
 1693              	.LVL189:
 1694 0858 14008DC5 		strgt	r0, [sp, #20]
 1695 085c C00FC0D1 		bicle	r0, r0, r0, asr #31
 1696 0860 14008DD5 		strle	r0, [sp, #20]
 1697              	.LVL190:
 1698              	.L104:
 1699              	.LBE1053:
 1700              	.LBE1055:
 1701              	.LBE1045:
 1702              	.LBE1044:
 1703              	.LBB1068:
 1704              	.LBB1069:
 142:C:/Renesas/e2studio_2021_01_workspace_RZA2M_ANPR/ANPR_RZA2M_EBK/src/tensorflow_lite/tensorflow/lite/kernels/internal\strided_slice_logic.h ****     return start_for_axis + 1;
 1705              		.loc 5 142 0
 1706 0864 080017E3 		tst	r7, #8
 136:C:/Renesas/e2studio_2021_01_workspace_RZA2M_ANPR/ANPR_RZA2M_EBK/src/tensorflow_lite/tensorflow/lite/kernels/internal\strided_slice_logic.h **** 
 1707              		.loc 5 136 0
 1708 0868 1C019DE5 		ldr	r0, [sp, #284]
 1709              	.LVL191:
 142:C:/Renesas/e2studio_2021_01_workspace_RZA2M_ANPR/ANPR_RZA2M_EBK/src/tensorflow_lite/tensorflow/lite/kernels/internal\strided_slice_logic.h ****     return start_for_axis + 1;
 1710              		.loc 5 142 0
 1711 086c 7304001A 		bne	.L1080
 147:C:/Renesas/e2studio_2021_01_workspace_RZA2M_ANPR/ANPR_RZA2M_EBK/src/tensorflow_lite/tensorflow/lite/kernels/internal\strided_slice_logic.h ****     if (strides[axis] > 0) {
 1712              		.loc 5 147 0
 1713 0870 080016E3 		tst	r6, #8
 1714 0874 C904000A 		beq	.L106
 148:C:/Renesas/e2studio_2021_01_workspace_RZA2M_ANPR/ANPR_RZA2M_EBK/src/tensorflow_lite/tensorflow/lite/kernels/internal\strided_slice_logic.h ****       // Forward iteration - use the last element. These values will get
 1715              		.loc 5 148 0
 1716 0878 000054E3 		cmp	r4, #0
 1717              		.loc 5 154 0
 1718 087c 0201A0D3 		movle	r0, #-2147483648
 1719              	.LVL192:
 148:C:/Renesas/e2studio_2021_01_workspace_RZA2M_ANPR/ANPR_RZA2M_EBK/src/tensorflow_lite/tensorflow/lite/kernels/internal\strided_slice_logic.h ****       // Forward iteration - use the last element. These values will get
 1720              		.loc 5 148 0
 1721 0880 C80400DA 		ble	.L108
 151:C:/Renesas/e2studio_2021_01_workspace_RZA2M_ANPR/ANPR_RZA2M_EBK/src/tensorflow_lite/tensorflow/lite/kernels/internal\strided_slice_logic.h ****     } else {
 1722              		.loc 5 151 0
 1723 0884 0201E0E3 		mvn	r0, #-2147483648
 1724              	.LVL193:
 1725              	.L107:
 1726              	.LBB1070:
 1727              	.LBB1071:
  30:C:/Renesas/e2studio_2021_01_workspace_RZA2M_ANPR/ANPR_RZA2M_EBK/src/tensorflow_lite/tensorflow/lite/kernels/internal\strided_slice_logic.h ****   if (hi < v) return hi;
 1728              		.loc 5 30 0
 1729 0888 1C409DE5 		ldr	r4, [sp, #28]
 1730 088c 000054E3 		cmp	r4, #0
 1731 0890 D10400BA 		blt	.L1081
  31:C:/Renesas/e2studio_2021_01_workspace_RZA2M_ANPR/ANPR_RZA2M_EBK/src/tensorflow_lite/tensorflow/lite/kernels/internal\strided_slice_logic.h ****   if (v < lo) return lo;
 1732              		.loc 5 31 0
 1733 0894 000054E1 		cmp	r4, r0
 1734 0898 0400A0B1 		movlt	r0, r4
 1735              	.LVL194:
 1736 089c 4C008DB5 		strlt	r0, [sp, #76]
 1737 08a0 C00FC0A1 		bicge	r0, r0, r0, asr #31
 1738 08a4 4C008DA5 		strge	r0, [sp, #76]
 1739              	.LVL195:
 1740              	.L96:
 1741              	.LBE1071:
 1742              	.LBE1070:
 1743              	.LBE1069:
 1744              	.LBE1068:
 1745              	.LBB1083:
 1746              	.LBB1084:
 1747              	.LBB1085:
 1748              	.LBB1086:
 215:C:/Renesas/e2studio_2021_01_workspace_RZA2M_ANPR/ANPR_RZA2M_EBK/src/tensorflow_lite/tensorflow/lite/kernels/internal\types.h ****     return size_ > kMaxSmallSize ? dims_pointer_[i] : dims_[i];
 1749              		.loc 4 215 0
 1750 08a8 0C009DE5 		ldr	r0, [sp, #12]
 1751 08ac 040050E3 		cmp	r0, #4
 1752 08b0 B904000A 		beq	.L1082
 216:C:/Renesas/e2studio_2021_01_workspace_RZA2M_ANPR/ANPR_RZA2M_EBK/src/tensorflow_lite/tensorflow/lite/kernels/internal\types.h ****   }
 1753              		.loc 4 216 0
 1754 08b4 050050E3 		cmp	r0, #5
 1755 08b8 AD04001A 		bne	.L1083
 1756 08bc D8009DE5 		ldr	r0, [sp, #216]
 1757              	.LBE1086:
 1758              	.LBE1085:
  81:C:/Renesas/e2studio_2021_01_workspace_RZA2M_ANPR/ANPR_RZA2M_EBK/src/tensorflow_lite/tensorflow/lite/kernels/internal\strided_slice_logic.h ****     return 0;
 1759              		.loc 5 81 0
 1760 08c0 000050E3 		cmp	r0, #0
 1761              	.LBB1091:
 1762              	.LBB1087:
 216:C:/Renesas/e2studio_2021_01_workspace_RZA2M_ANPR/ANPR_RZA2M_EBK/src/tensorflow_lite/tensorflow/lite/kernels/internal\types.h ****   }
 1763              		.loc 4 216 0
 1764 08c4 58008DE5 		str	r0, [sp, #88]
 1765 08c8 18008DE5 		str	r0, [sp, #24]
 1766              	.LVL196:
 1767              	.LBE1087:
 1768              	.LBE1091:
  81:C:/Renesas/e2studio_2021_01_workspace_RZA2M_ANPR/ANPR_RZA2M_EBK/src/tensorflow_lite/tensorflow/lite/kernels/internal\strided_slice_logic.h ****     return 0;
 1769              		.loc 5 81 0
 1770 08cc A404000A 		beq	.L565
 1771              	.L116:
  88:C:/Renesas/e2studio_2021_01_workspace_RZA2M_ANPR/ANPR_RZA2M_EBK/src/tensorflow_lite/tensorflow/lite/kernels/internal\strided_slice_logic.h ****     if (strides[axis] > 0) {
 1772              		.loc 5 88 0
 1773 08d0 100015E3 		tst	r5, #16
  89:C:/Renesas/e2studio_2021_01_workspace_RZA2M_ANPR/ANPR_RZA2M_EBK/src/tensorflow_lite/tensorflow/lite/kernels/internal\strided_slice_logic.h ****       // Forward iteration - use the first element. These values will get
 1774              		.loc 5 89 0
 1775 08d4 38919DE5 		ldr	r9, [sp, #312]
  85:C:/Renesas/e2studio_2021_01_workspace_RZA2M_ANPR/ANPR_RZA2M_EBK/src/tensorflow_lite/tensorflow/lite/kernels/internal\strided_slice_logic.h **** 
 1776              		.loc 5 85 0
 1777 08d8 08019DE5 		ldr	r0, [sp, #264]
 1778              	.LVL197:
  88:C:/Renesas/e2studio_2021_01_workspace_RZA2M_ANPR/ANPR_RZA2M_EBK/src/tensorflow_lite/tensorflow/lite/kernels/internal\strided_slice_logic.h ****     if (strides[axis] > 0) {
 1779              		.loc 5 88 0
 1780 08dc 9D04000A 		beq	.L118
  89:C:/Renesas/e2studio_2021_01_workspace_RZA2M_ANPR/ANPR_RZA2M_EBK/src/tensorflow_lite/tensorflow/lite/kernels/internal\strided_slice_logic.h ****       // Forward iteration - use the first element. These values will get
 1781              		.loc 5 89 0
 1782 08e0 000059E3 		cmp	r9, #0
  93:C:/Renesas/e2studio_2021_01_workspace_RZA2M_ANPR/ANPR_RZA2M_EBK/src/tensorflow_lite/tensorflow/lite/kernels/internal\strided_slice_logic.h ****     } else {
 1783              		.loc 5 93 0
 1784 08e4 0201A0C3 		movgt	r0, #-2147483648
 1785              	.LVL198:
  89:C:/Renesas/e2studio_2021_01_workspace_RZA2M_ANPR/ANPR_RZA2M_EBK/src/tensorflow_lite/tensorflow/lite/kernels/internal\strided_slice_logic.h ****       // Forward iteration - use the first element. These values will get
 1786              		.loc 5 89 0
 1787 08e8 950400DA 		ble	.L1084
 1788              	.L119:
 1789              	.LVL199:
 102:C:/Renesas/e2studio_2021_01_workspace_RZA2M_ANPR/ANPR_RZA2M_EBK/src/tensorflow_lite/tensorflow/lite/kernels/internal\strided_slice_logic.h ****   }
 1790              		.loc 5 102 0
 1791 08ec 18409DE5 		ldr	r4, [sp, #24]
 1792 08f0 040080E0 		add	r0, r0, r4
 1793              	.LVL200:
 1794              	.L122:
 106:C:/Renesas/e2studio_2021_01_workspace_RZA2M_ANPR/ANPR_RZA2M_EBK/src/tensorflow_lite/tensorflow/lite/kernels/internal\strided_slice_logic.h ****     // Forward iteration
 1795              		.loc 5 106 0
 1796 08f4 000059E3 		cmp	r9, #0
 1797              	.LBB1092:
 1798              	.LBB1093:
  30:C:/Renesas/e2studio_2021_01_workspace_RZA2M_ANPR/ANPR_RZA2M_EBK/src/tensorflow_lite/tensorflow/lite/kernels/internal\strided_slice_logic.h ****   if (hi < v) return hi;
 1799              		.loc 5 30 0
 1800 08f8 18409DE5 		ldr	r4, [sp, #24]
 1801              	.LBE1093:
 1802              	.LBE1092:
 106:C:/Renesas/e2studio_2021_01_workspace_RZA2M_ANPR/ANPR_RZA2M_EBK/src/tensorflow_lite/tensorflow/lite/kernels/internal\strided_slice_logic.h ****     // Forward iteration
 1803              		.loc 5 106 0
 1804 08fc BB0400DA 		ble	.L123
 1805              	.LVL201:
 1806              	.LBB1096:
 1807              	.LBB1094:
  30:C:/Renesas/e2studio_2021_01_workspace_RZA2M_ANPR/ANPR_RZA2M_EBK/src/tensorflow_lite/tensorflow/lite/kernels/internal\strided_slice_logic.h ****   if (hi < v) return hi;
 1808              		.loc 5 30 0
 1809 0900 000054E3 		cmp	r4, #0
 1810 0904 B80400BA 		blt	.L1085
  31:C:/Renesas/e2studio_2021_01_workspace_RZA2M_ANPR/ANPR_RZA2M_EBK/src/tensorflow_lite/tensorflow/lite/kernels/internal\strided_slice_logic.h ****   if (v < lo) return lo;
 1811              		.loc 5 31 0
 1812 0908 000054E1 		cmp	r4, r0
 1813 090c 04A0A0B1 		movlt	r10, r4
 1814 0910 C0AFC0A1 		bicge	r10, r0, r0, asr #31
 1815              	.LVL202:
 1816              	.L125:
 1817              	.LBE1094:
 1818              	.LBE1096:
 1819              	.LBE1084:
 1820              	.LBE1083:
 1821              	.LBB1107:
 1822              	.LBB1108:
 142:C:/Renesas/e2studio_2021_01_workspace_RZA2M_ANPR/ANPR_RZA2M_EBK/src/tensorflow_lite/tensorflow/lite/kernels/internal\strided_slice_logic.h ****     return start_for_axis + 1;
 1823              		.loc 5 142 0
 1824 0914 100017E3 		tst	r7, #16
 136:C:/Renesas/e2studio_2021_01_workspace_RZA2M_ANPR/ANPR_RZA2M_EBK/src/tensorflow_lite/tensorflow/lite/kernels/internal\strided_slice_logic.h **** 
 1825              		.loc 5 136 0
 1826 0918 20019DE5 		ldr	r0, [sp, #288]
 1827              	.LVL203:
 142:C:/Renesas/e2studio_2021_01_workspace_RZA2M_ANPR/ANPR_RZA2M_EBK/src/tensorflow_lite/tensorflow/lite/kernels/internal\strided_slice_logic.h ****     return start_for_axis + 1;
 1828              		.loc 5 142 0
 1829 091c B004001A 		bne	.L1086
 147:C:/Renesas/e2studio_2021_01_workspace_RZA2M_ANPR/ANPR_RZA2M_EBK/src/tensorflow_lite/tensorflow/lite/kernels/internal\strided_slice_logic.h ****     if (strides[axis] > 0) {
 1830              		.loc 5 147 0
 1831 0920 100016E3 		tst	r6, #16
 1832 0924 0101000A 		beq	.L128
 148:C:/Renesas/e2studio_2021_01_workspace_RZA2M_ANPR/ANPR_RZA2M_EBK/src/tensorflow_lite/tensorflow/lite/kernels/internal\strided_slice_logic.h ****       // Forward iteration - use the last element. These values will get
 1833              		.loc 5 148 0
 1834 0928 000059E3 		cmp	r9, #0
 1835              		.loc 5 154 0
 1836 092c 0201A0D3 		movle	r0, #-2147483648
 1837              	.LVL204:
 148:C:/Renesas/e2studio_2021_01_workspace_RZA2M_ANPR/ANPR_RZA2M_EBK/src/tensorflow_lite/tensorflow/lite/kernels/internal\strided_slice_logic.h ****       // Forward iteration - use the last element. These values will get
 1838              		.loc 5 148 0
 1839 0930 000100DA 		ble	.L130
 151:C:/Renesas/e2studio_2021_01_workspace_RZA2M_ANPR/ANPR_RZA2M_EBK/src/tensorflow_lite/tensorflow/lite/kernels/internal\strided_slice_logic.h ****     } else {
 1840              		.loc 5 151 0
 1841 0934 0201E0E3 		mvn	r0, #-2147483648
 1842              	.LVL205:
 1843              	.L129:
 1844              	.LBB1109:
 1845              	.LBB1110:
  30:C:/Renesas/e2studio_2021_01_workspace_RZA2M_ANPR/ANPR_RZA2M_EBK/src/tensorflow_lite/tensorflow/lite/kernels/internal\strided_slice_logic.h ****   if (hi < v) return hi;
 1846              		.loc 5 30 0
 1847 0938 18409DE5 		ldr	r4, [sp, #24]
 1848 093c 000054E3 		cmp	r4, #0
 1849 0940 F90000BA 		blt	.L1087
  31:C:/Renesas/e2studio_2021_01_workspace_RZA2M_ANPR/ANPR_RZA2M_EBK/src/tensorflow_lite/tensorflow/lite/kernels/internal\strided_slice_logic.h ****   if (v < lo) return lo;
 1850              		.loc 5 31 0
 1851 0944 000054E1 		cmp	r4, r0
 1852 0948 0470A0B1 		movlt	r7, r4
 1853              	.LVL206:
 1854 094c C07FC0A1 		bicge	r7, r0, r0, asr #31
 1855              	.LVL207:
 1856              	.L127:
 1857              	.LBE1110:
 1858              	.LBE1109:
 1859              	.LBE1108:
 1860              	.LBE1107:
 1861              	.LBB1120:
 1862              	.LBB1121:
 1863              	.LBB1122:
 216:C:/Renesas/e2studio_2021_01_workspace_RZA2M_ANPR/ANPR_RZA2M_EBK/src/tensorflow_lite/tensorflow/lite/kernels/internal\types.h ****   }
 1864              		.loc 4 216 0
 1865 0950 0C009DE5 		ldr	r0, [sp, #12]
 1866 0954 050050E3 		cmp	r0, #5
 1867 0958 0901001A 		bne	.L906
 1868 095c D8009DE5 		ldr	r0, [sp, #216]
 1869 0960 58008DE5 		str	r0, [sp, #88]
 1870              	.LVL208:
 1871              	.L117:
 1872              	.LBE1122:
 1873              	.LBE1121:
  45:C:/Renesas/e2studio_2021_01_workspace_RZA2M_ANPR/ANPR_RZA2M_EBK/src/tensorflow_lite/tensorflow/lite/kernels/internal/reference\strided_slice.h ****   const RuntimeShape input_shape =
  46:C:/Renesas/e2studio_2021_01_workspace_RZA2M_ANPR/ANPR_RZA2M_EBK/src/tensorflow_lite/tensorflow/lite/kernels/internal/reference\strided_slice.h ****       RuntimeShape::ExtendedShape(5, unextended_input_shape);
  47:C:/Renesas/e2studio_2021_01_workspace_RZA2M_ANPR/ANPR_RZA2M_EBK/src/tensorflow_lite/tensorflow/lite/kernels/internal/reference\strided_slice.h ****   const RuntimeShape output_shape =
  48:C:/Renesas/e2studio_2021_01_workspace_RZA2M_ANPR/ANPR_RZA2M_EBK/src/tensorflow_lite/tensorflow/lite/kernels/internal/reference\strided_slice.h ****       RuntimeShape::ExtendedShape(5, unextended_output_shape);
  49:C:/Renesas/e2studio_2021_01_workspace_RZA2M_ANPR/ANPR_RZA2M_EBK/src/tensorflow_lite/tensorflow/lite/kernels/internal/reference\strided_slice.h **** 
  50:C:/Renesas/e2studio_2021_01_workspace_RZA2M_ANPR/ANPR_RZA2M_EBK/src/tensorflow_lite/tensorflow/lite/kernels/internal/reference\strided_slice.h ****   // Reverse and pad to 5 dimensions because that is what the runtime code
  51:C:/Renesas/e2studio_2021_01_workspace_RZA2M_ANPR/ANPR_RZA2M_EBK/src/tensorflow_lite/tensorflow/lite/kernels/internal/reference\strided_slice.h ****   // requires (ie. all shapes must be 5D and are given backwards).
  52:C:/Renesas/e2studio_2021_01_workspace_RZA2M_ANPR/ANPR_RZA2M_EBK/src/tensorflow_lite/tensorflow/lite/kernels/internal/reference\strided_slice.h ****   strided_slice::StridedSlicePadIndices(&params_copy, 5);
  53:C:/Renesas/e2studio_2021_01_workspace_RZA2M_ANPR/ANPR_RZA2M_EBK/src/tensorflow_lite/tensorflow/lite/kernels/internal/reference\strided_slice.h **** 
  54:C:/Renesas/e2studio_2021_01_workspace_RZA2M_ANPR/ANPR_RZA2M_EBK/src/tensorflow_lite/tensorflow/lite/kernels/internal/reference\strided_slice.h ****   const int start_0 = StartForAxis(params_copy, input_shape, 0);
  55:C:/Renesas/e2studio_2021_01_workspace_RZA2M_ANPR/ANPR_RZA2M_EBK/src/tensorflow_lite/tensorflow/lite/kernels/internal/reference\strided_slice.h ****   const int stop_0 = StopForAxis(params_copy, input_shape, 0, start_0);
  56:C:/Renesas/e2studio_2021_01_workspace_RZA2M_ANPR/ANPR_RZA2M_EBK/src/tensorflow_lite/tensorflow/lite/kernels/internal/reference\strided_slice.h ****   const int start_1 = StartForAxis(params_copy, input_shape, 1);
  57:C:/Renesas/e2studio_2021_01_workspace_RZA2M_ANPR/ANPR_RZA2M_EBK/src/tensorflow_lite/tensorflow/lite/kernels/internal/reference\strided_slice.h ****   const int stop_1 = StopForAxis(params_copy, input_shape, 1, start_1);
  58:C:/Renesas/e2studio_2021_01_workspace_RZA2M_ANPR/ANPR_RZA2M_EBK/src/tensorflow_lite/tensorflow/lite/kernels/internal/reference\strided_slice.h ****   const int start_2 = StartForAxis(params_copy, input_shape, 2);
  59:C:/Renesas/e2studio_2021_01_workspace_RZA2M_ANPR/ANPR_RZA2M_EBK/src/tensorflow_lite/tensorflow/lite/kernels/internal/reference\strided_slice.h ****   const int stop_2 = StopForAxis(params_copy, input_shape, 2, start_2);
  60:C:/Renesas/e2studio_2021_01_workspace_RZA2M_ANPR/ANPR_RZA2M_EBK/src/tensorflow_lite/tensorflow/lite/kernels/internal/reference\strided_slice.h ****   const int start_3 = StartForAxis(params_copy, input_shape, 3);
  61:C:/Renesas/e2studio_2021_01_workspace_RZA2M_ANPR/ANPR_RZA2M_EBK/src/tensorflow_lite/tensorflow/lite/kernels/internal/reference\strided_slice.h ****   const int stop_3 = StopForAxis(params_copy, input_shape, 3, start_3);
  62:C:/Renesas/e2studio_2021_01_workspace_RZA2M_ANPR/ANPR_RZA2M_EBK/src/tensorflow_lite/tensorflow/lite/kernels/internal/reference\strided_slice.h ****   const int start_4 = StartForAxis(params_copy, input_shape, 4);
  63:C:/Renesas/e2studio_2021_01_workspace_RZA2M_ANPR/ANPR_RZA2M_EBK/src/tensorflow_lite/tensorflow/lite/kernels/internal/reference\strided_slice.h ****   const int stop_4 = StopForAxis(params_copy, input_shape, 4, start_4);
  64:C:/Renesas/e2studio_2021_01_workspace_RZA2M_ANPR/ANPR_RZA2M_EBK/src/tensorflow_lite/tensorflow/lite/kernels/internal/reference\strided_slice.h **** 
  65:C:/Renesas/e2studio_2021_01_workspace_RZA2M_ANPR/ANPR_RZA2M_EBK/src/tensorflow_lite/tensorflow/lite/kernels/internal/reference\strided_slice.h ****   for (int offset_0 = start_0 * input_shape.Dims(1),
 1874              		.loc 3 65 0
 1875 0964 910201E0 		mul	r1, r1, r2
 1876 0968 40108DE5 		str	r1, [sp, #64]
 1877              	.LVL209:
  66:C:/Renesas/e2studio_2021_01_workspace_RZA2M_ANPR/ANPR_RZA2M_EBK/src/tensorflow_lite/tensorflow/lite/kernels/internal/reference\strided_slice.h ****            end_0 = stop_0 * input_shape.Dims(1),
  67:C:/Renesas/e2studio_2021_01_workspace_RZA2M_ANPR/ANPR_RZA2M_EBK/src/tensorflow_lite/tensorflow/lite/kernels/internal/reference\strided_slice.h ****            step_0 = params_copy.strides[0] * input_shape.Dims(1);
 1878              		.loc 3 67 0
 1879 096c 28119DE5 		ldr	r1, [sp, #296]
 1880              	.LVL210:
 1881 0970 68108DE5 		str	r1, [sp, #104]
 1882 0974 C8109DE5 		ldr	r1, [sp, #200]
 1883 0978 50108DE5 		str	r1, [sp, #80]
  66:C:/Renesas/e2studio_2021_01_workspace_RZA2M_ANPR/ANPR_RZA2M_EBK/src/tensorflow_lite/tensorflow/lite/kernels/internal/reference\strided_slice.h ****            end_0 = stop_0 * input_shape.Dims(1),
 1884              		.loc 3 66 0
 1885 097c 920C01E0 		mul	r1, r2, ip
 1886 0980 64108DE5 		str	r1, [sp, #100]
 1887              	.LVL211:
 1888              	.L135:
 1889 0984 40409DE5 		ldr	r4, [sp, #64]
 1890 0988 0981A0E1 		lsl	r8, r9, #2
 1891              		.loc 3 67 0
 1892 098c 68009DE5 		ldr	r0, [sp, #104]
 1893              	.LBB1123:
 1894              	.LBB1124:
 1895              	.LBB1125:
  68:C:/Renesas/e2studio_2021_01_workspace_RZA2M_ANPR/ANPR_RZA2M_EBK/src/tensorflow_lite/tensorflow/lite/kernels/internal/reference\strided_slice.h ****        !LoopCondition(offset_0, end_0, params_copy.strides[0]);
  69:C:/Renesas/e2studio_2021_01_workspace_RZA2M_ANPR/ANPR_RZA2M_EBK/src/tensorflow_lite/tensorflow/lite/kernels/internal/reference\strided_slice.h ****        offset_0 += step_0) {
  70:C:/Renesas/e2studio_2021_01_workspace_RZA2M_ANPR/ANPR_RZA2M_EBK/src/tensorflow_lite/tensorflow/lite/kernels/internal/reference\strided_slice.h ****     for (int offset_1 = (offset_0 + start_1) * input_shape.Dims(2),
  71:C:/Renesas/e2studio_2021_01_workspace_RZA2M_ANPR/ANPR_RZA2M_EBK/src/tensorflow_lite/tensorflow/lite/kernels/internal/reference\strided_slice.h ****              end_1 = (offset_0 + stop_1) * input_shape.Dims(2),
  72:C:/Renesas/e2studio_2021_01_workspace_RZA2M_ANPR/ANPR_RZA2M_EBK/src/tensorflow_lite/tensorflow/lite/kernels/internal/reference\strided_slice.h ****              step_1 = params_copy.strides[1] * input_shape.Dims(2);
  73:C:/Renesas/e2studio_2021_01_workspace_RZA2M_ANPR/ANPR_RZA2M_EBK/src/tensorflow_lite/tensorflow/lite/kernels/internal/reference\strided_slice.h ****          !LoopCondition(offset_1, end_1, params_copy.strides[1]);
  74:C:/Renesas/e2studio_2021_01_workspace_RZA2M_ANPR/ANPR_RZA2M_EBK/src/tensorflow_lite/tensorflow/lite/kernels/internal/reference\strided_slice.h ****          offset_1 += step_1) {
  75:C:/Renesas/e2studio_2021_01_workspace_RZA2M_ANPR/ANPR_RZA2M_EBK/src/tensorflow_lite/tensorflow/lite/kernels/internal/reference\strided_slice.h ****       for (int offset_2 = (offset_1 + start_2) * input_shape.Dims(3),
  76:C:/Renesas/e2studio_2021_01_workspace_RZA2M_ANPR/ANPR_RZA2M_EBK/src/tensorflow_lite/tensorflow/lite/kernels/internal/reference\strided_slice.h ****                end_2 = (offset_1 + stop_2) * input_shape.Dims(3),
  77:C:/Renesas/e2studio_2021_01_workspace_RZA2M_ANPR/ANPR_RZA2M_EBK/src/tensorflow_lite/tensorflow/lite/kernels/internal/reference\strided_slice.h ****                step_2 = params_copy.strides[2] * input_shape.Dims(3);
  78:C:/Renesas/e2studio_2021_01_workspace_RZA2M_ANPR/ANPR_RZA2M_EBK/src/tensorflow_lite/tensorflow/lite/kernels/internal/reference\strided_slice.h ****            !LoopCondition(offset_2, end_2, params_copy.strides[2]);
  79:C:/Renesas/e2studio_2021_01_workspace_RZA2M_ANPR/ANPR_RZA2M_EBK/src/tensorflow_lite/tensorflow/lite/kernels/internal/reference\strided_slice.h ****            offset_2 += step_2) {
  80:C:/Renesas/e2studio_2021_01_workspace_RZA2M_ANPR/ANPR_RZA2M_EBK/src/tensorflow_lite/tensorflow/lite/kernels/internal/reference\strided_slice.h ****         for (int offset_3 = (offset_2 + start_3) * input_shape.Dims(4),
  81:C:/Renesas/e2studio_2021_01_workspace_RZA2M_ANPR/ANPR_RZA2M_EBK/src/tensorflow_lite/tensorflow/lite/kernels/internal/reference\strided_slice.h ****                  end_3 = (offset_2 + stop_3) * input_shape.Dims(4),
  82:C:/Renesas/e2studio_2021_01_workspace_RZA2M_ANPR/ANPR_RZA2M_EBK/src/tensorflow_lite/tensorflow/lite/kernels/internal/reference\strided_slice.h ****                  step_3 = params_copy.strides[3] * input_shape.Dims(4);
 1896              		.loc 3 82 0
 1897 0990 34619DE5 		ldr	r6, [sp, #308]
 1898 0994 0E1084E0 		add	r1, r4, lr
 1899              	.LVL212:
 1900 0998 2CE09DE5 		ldr	lr, [sp, #44]
 1901 099c 930101E0 		mul	r1, r3, r1
 1902              	.LBE1125:
 1903              	.LBE1124:
 1904              	.LBE1123:
  67:C:/Renesas/e2studio_2021_01_workspace_RZA2M_ANPR/ANPR_RZA2M_EBK/src/tensorflow_lite/tensorflow/lite/kernels/internal/reference\strided_slice.h ****        !LoopCondition(offset_0, end_0, params_copy.strides[0]);
 1905              		.loc 3 67 0
 1906 09a0 900202E0 		mul	r2, r0, r2
 1907 09a4 54108DE5 		str	r1, [sp, #84]
 1908              	.LBB1181:
 1909              	.LBB1161:
 1910              	.LBB1142:
 1911              	.LBB1143:
 216:C:/Renesas/e2studio_2021_01_workspace_RZA2M_ANPR/ANPR_RZA2M_EBK/src/tensorflow_lite/tensorflow/lite/kernels/internal\types.h ****   }
 1912              		.loc 4 216 0
 1913 09a8 D4109DE5 		ldr	r1, [sp, #212]
 1914              	.LBE1143:
 1915              	.LBE1142:
 1916              	.LBE1161:
 1917              	.LBE1181:
  67:C:/Renesas/e2studio_2021_01_workspace_RZA2M_ANPR/ANPR_RZA2M_EBK/src/tensorflow_lite/tensorflow/lite/kernels/internal/reference\strided_slice.h ****        !LoopCondition(offset_0, end_0, params_copy.strides[0]);
 1918              		.loc 3 67 0
 1919 09ac 0200A0E1 		mov	r0, r2
 1920 09b0 78208DE5 		str	r2, [sp, #120]
 1921              	.LVL213:
 1922 09b4 930003E0 		mul	r3, r3, r0
 1923              	.LBB1182:
 1924              	.LBB1162:
 1925              	.LBB1163:
 216:C:/Renesas/e2studio_2021_01_workspace_RZA2M_ANPR/ANPR_RZA2M_EBK/src/tensorflow_lite/tensorflow/lite/kernels/internal\types.h ****   }
 1926              		.loc 4 216 0
 1927 09b8 D0209DE5 		ldr	r2, [sp, #208]
 1928              	.LBE1163:
 1929              	.LBE1162:
 1930              	.LBB1167:
 1931              	.LBB1147:
 1932              	.LBB1144:
 1933 09bc 6C108DE5 		str	r1, [sp, #108]
 1934              	.LBE1144:
 1935              	.LBE1147:
  77:C:/Renesas/e2studio_2021_01_workspace_RZA2M_ANPR/ANPR_RZA2M_EBK/src/tensorflow_lite/tensorflow/lite/kernels/internal/reference\strided_slice.h ****            !LoopCondition(offset_2, end_2, params_copy.strides[2]);
 1936              		.loc 3 77 0
 1937 09c0 30119DE5 		ldr	r1, [sp, #304]
 1938              	.LBE1167:
 1939              	.LBB1168:
 1940              	.LBB1164:
 216:C:/Renesas/e2studio_2021_01_workspace_RZA2M_ANPR/ANPR_RZA2M_EBK/src/tensorflow_lite/tensorflow/lite/kernels/internal\types.h ****   }
 1941              		.loc 4 216 0
 1942 09c4 02C0A0E1 		mov	ip, r2
 1943 09c8 84208DE5 		str	r2, [sp, #132]
 1944 09cc 88308DE5 		str	r3, [sp, #136]
 1945 09d0 04208EE0 		add	r2, lr, r4
 1946              	.LBE1164:
 1947              	.LBE1168:
 1948              	.LBB1169:
  77:C:/Renesas/e2studio_2021_01_workspace_RZA2M_ANPR/ANPR_RZA2M_EBK/src/tensorflow_lite/tensorflow/lite/kernels/internal/reference\strided_slice.h ****            !LoopCondition(offset_2, end_2, params_copy.strides[2]);
 1949              		.loc 3 77 0
 1950 09d4 24108DE5 		str	r1, [sp, #36]
 1951 09d8 900C03E0 		mul	r3, r0, ip
 1952              	.LBB1148:
 1953              		.loc 3 82 0
 1954 09dc 18109DE5 		ldr	r1, [sp, #24]
 1955 09e0 0B00A0E1 		mov	r0, fp
 1956              	.LVL214:
 1957              	.LBE1148:
 1958              	.LBE1169:
  72:C:/Renesas/e2studio_2021_01_workspace_RZA2M_ANPR/ANPR_RZA2M_EBK/src/tensorflow_lite/tensorflow/lite/kernels/internal/reference\strided_slice.h ****          !LoopCondition(offset_1, end_1, params_copy.strides[1]);
 1959              		.loc 3 72 0
 1960 09e4 2CE19DE5 		ldr	lr, [sp, #300]
 1961 09e8 0AB0A0E1 		mov	fp, r10
 1962              	.LVL215:
 1963 09ec 08A0A0E1 		mov	r10, r8
 1964 09f0 0780A0E1 		mov	r8, r7
 1965 09f4 74308DE5 		str	r3, [sp, #116]
 1966 09f8 0670A0E1 		mov	r7, r6
 1967              	.LBB1170:
 1968              	.LBB1149:
 1969              		.loc 3 82 0
 1970 09fc 960101E0 		mul	r1, r6, r1
 1971              	.LBE1149:
 1972              	.LBE1170:
  72:C:/Renesas/e2studio_2021_01_workspace_RZA2M_ANPR/ANPR_RZA2M_EBK/src/tensorflow_lite/tensorflow/lite/kernels/internal/reference\strided_slice.h ****          !LoopCondition(offset_1, end_1, params_copy.strides[1]);
 1973              		.loc 3 72 0
 1974 0a00 70E08DE5 		str	lr, [sp, #112]
 1975              	.LBB1171:
 1976              	.LBB1150:
 1977              		.loc 3 82 0
 1978 0a04 01E0A0E1 		mov	lr, r1
 1979 0a08 0E31A0E1 		lsl	r3, lr, #2
 1980 0a0c 0E60A0E1 		mov	r6, lr
 1981 0a10 04308DE5 		str	r3, [sp, #4]
 1982 0a14 0230A0E1 		mov	r3, r2
 1983 0a18 9C0303E0 		mul	r3, ip, r3
 1984 0a1c 5C308DE5 		str	r3, [sp, #92]
 1985              	.L161:
 1986              	.LVL216:
 1987              	.LBE1150:
 1988              	.LBE1171:
 1989              	.LBE1182:
 1990              	.LBB1183:
 1991              	.LBB1184:
 155:C:/Renesas/e2studio_2021_01_workspace_RZA2M_ANPR/ANPR_RZA2M_EBK/src/tensorflow_lite/tensorflow/lite/kernels/internal\strided_slice_logic.h ****     }
 156:C:/Renesas/e2studio_2021_01_workspace_RZA2M_ANPR/ANPR_RZA2M_EBK/src/tensorflow_lite/tensorflow/lite/kernels/internal\strided_slice_logic.h ****   }
 157:C:/Renesas/e2studio_2021_01_workspace_RZA2M_ANPR/ANPR_RZA2M_EBK/src/tensorflow_lite/tensorflow/lite/kernels/internal\strided_slice_logic.h **** 
 158:C:/Renesas/e2studio_2021_01_workspace_RZA2M_ANPR/ANPR_RZA2M_EBK/src/tensorflow_lite/tensorflow/lite/kernels/internal\strided_slice_logic.h ****   // Handle negative indices
 159:C:/Renesas/e2studio_2021_01_workspace_RZA2M_ANPR/ANPR_RZA2M_EBK/src/tensorflow_lite/tensorflow/lite/kernels/internal\strided_slice_logic.h ****   if (stop < 0) {
 160:C:/Renesas/e2studio_2021_01_workspace_RZA2M_ANPR/ANPR_RZA2M_EBK/src/tensorflow_lite/tensorflow/lite/kernels/internal\strided_slice_logic.h ****     stop += axis_size;
 161:C:/Renesas/e2studio_2021_01_workspace_RZA2M_ANPR/ANPR_RZA2M_EBK/src/tensorflow_lite/tensorflow/lite/kernels/internal\strided_slice_logic.h ****   }
 162:C:/Renesas/e2studio_2021_01_workspace_RZA2M_ANPR/ANPR_RZA2M_EBK/src/tensorflow_lite/tensorflow/lite/kernels/internal\strided_slice_logic.h **** 
 163:C:/Renesas/e2studio_2021_01_workspace_RZA2M_ANPR/ANPR_RZA2M_EBK/src/tensorflow_lite/tensorflow/lite/kernels/internal\strided_slice_logic.h ****   // Clamping
 164:C:/Renesas/e2studio_2021_01_workspace_RZA2M_ANPR/ANPR_RZA2M_EBK/src/tensorflow_lite/tensorflow/lite/kernels/internal\strided_slice_logic.h ****   // Because the end index points one past the last element, we need slightly
 165:C:/Renesas/e2studio_2021_01_workspace_RZA2M_ANPR/ANPR_RZA2M_EBK/src/tensorflow_lite/tensorflow/lite/kernels/internal\strided_slice_logic.h ****   // different clamping ranges depending on the direction.
 166:C:/Renesas/e2studio_2021_01_workspace_RZA2M_ANPR/ANPR_RZA2M_EBK/src/tensorflow_lite/tensorflow/lite/kernels/internal\strided_slice_logic.h ****   if (strides[axis] > 0) {
 167:C:/Renesas/e2studio_2021_01_workspace_RZA2M_ANPR/ANPR_RZA2M_EBK/src/tensorflow_lite/tensorflow/lite/kernels/internal\strided_slice_logic.h ****     // Forward iteration
 168:C:/Renesas/e2studio_2021_01_workspace_RZA2M_ANPR/ANPR_RZA2M_EBK/src/tensorflow_lite/tensorflow/lite/kernels/internal\strided_slice_logic.h ****     stop = Clamp(stop, 0, axis_size);
 169:C:/Renesas/e2studio_2021_01_workspace_RZA2M_ANPR/ANPR_RZA2M_EBK/src/tensorflow_lite/tensorflow/lite/kernels/internal\strided_slice_logic.h ****   } else {
 170:C:/Renesas/e2studio_2021_01_workspace_RZA2M_ANPR/ANPR_RZA2M_EBK/src/tensorflow_lite/tensorflow/lite/kernels/internal\strided_slice_logic.h ****     // Backward iteration
 171:C:/Renesas/e2studio_2021_01_workspace_RZA2M_ANPR/ANPR_RZA2M_EBK/src/tensorflow_lite/tensorflow/lite/kernels/internal\strided_slice_logic.h ****     stop = Clamp(stop, -1, axis_size - 1);
 172:C:/Renesas/e2studio_2021_01_workspace_RZA2M_ANPR/ANPR_RZA2M_EBK/src/tensorflow_lite/tensorflow/lite/kernels/internal\strided_slice_logic.h ****   }
 173:C:/Renesas/e2studio_2021_01_workspace_RZA2M_ANPR/ANPR_RZA2M_EBK/src/tensorflow_lite/tensorflow/lite/kernels/internal\strided_slice_logic.h **** 
 174:C:/Renesas/e2studio_2021_01_workspace_RZA2M_ANPR/ANPR_RZA2M_EBK/src/tensorflow_lite/tensorflow/lite/kernels/internal\strided_slice_logic.h ****   return stop;
 175:C:/Renesas/e2studio_2021_01_workspace_RZA2M_ANPR/ANPR_RZA2M_EBK/src/tensorflow_lite/tensorflow/lite/kernels/internal\strided_slice_logic.h **** }
 176:C:/Renesas/e2studio_2021_01_workspace_RZA2M_ANPR/ANPR_RZA2M_EBK/src/tensorflow_lite/tensorflow/lite/kernels/internal\strided_slice_logic.h **** 
 177:C:/Renesas/e2studio_2021_01_workspace_RZA2M_ANPR/ANPR_RZA2M_EBK/src/tensorflow_lite/tensorflow/lite/kernels/internal\strided_slice_logic.h **** inline bool LoopCondition(int index, int stop, int stride) {
 178:C:/Renesas/e2studio_2021_01_workspace_RZA2M_ANPR/ANPR_RZA2M_EBK/src/tensorflow_lite/tensorflow/lite/kernels/internal\strided_slice_logic.h ****   // True when we have reached the end of an axis and should loop.
 179:C:/Renesas/e2studio_2021_01_workspace_RZA2M_ANPR/ANPR_RZA2M_EBK/src/tensorflow_lite/tensorflow/lite/kernels/internal\strided_slice_logic.h ****   return stride > 0 ? index >= stop : index <= stop;
 1992              		.loc 5 179 0
 1993 0a20 68309DE5 		ldr	r3, [sp, #104]
 1994 0a24 64209DE5 		ldr	r2, [sp, #100]
 1995 0a28 000053E3 		cmp	r3, #0
 1996 0a2c 40309DE5 		ldr	r3, [sp, #64]
 1997 0a30 7F0400DA 		ble	.L136
 1998 0a34 020053E1 		cmp	r3, r2
 1999 0a38 0030A0B3 		movlt	r3, #0
 2000 0a3c 0130A0A3 		movge	r3, #1
 2001              	.L137:
 2002              	.LVL217:
 2003              	.LBE1184:
 2004              	.LBE1183:
  65:C:/Renesas/e2studio_2021_01_workspace_RZA2M_ANPR/ANPR_RZA2M_EBK/src/tensorflow_lite/tensorflow/lite/kernels/internal/reference\strided_slice.h ****            end_0 = stop_0 * input_shape.Dims(1),
 2005              		.loc 3 65 0
 2006 0a40 000053E3 		cmp	r3, #0
 2007 0a44 6F04001A 		bne	.L138
 2008              	.LBB1186:
 2009              	.LBB1172:
 2010              	.LBB1165:
 216:C:/Renesas/e2studio_2021_01_workspace_RZA2M_ANPR/ANPR_RZA2M_EBK/src/tensorflow_lite/tensorflow/lite/kernels/internal\types.h ****   }
 2011              		.loc 4 216 0
 2012 0a48 0C309DE5 		ldr	r3, [sp, #12]
 2013 0a4c 2C209DE5 		ldr	r2, [sp, #44]
 2014 0a50 48C09DE5 		ldr	ip, [sp, #72]
 2015 0a54 050053E3 		cmp	r3, #5
 2016 0a58 40309DE5 		ldr	r3, [sp, #64]
 2017 0a5c 022083E0 		add	r2, r3, r2
 2018              	.LVL218:
 2019 0a60 50309D15 		ldrne	r3, [sp, #80]
 2020              	.LBE1165:
 2021              	.LBE1172:
  70:C:/Renesas/e2studio_2021_01_workspace_RZA2M_ANPR/ANPR_RZA2M_EBK/src/tensorflow_lite/tensorflow/lite/kernels/internal/reference\strided_slice.h ****              end_1 = (offset_0 + stop_1) * input_shape.Dims(2),
 2022              		.loc 3 70 0
 2023 0a64 5C309D05 		ldreq	r3, [sp, #92]
 2024              	.LBB1173:
 2025              	.LBB1166:
 216:C:/Renesas/e2studio_2021_01_workspace_RZA2M_ANPR/ANPR_RZA2M_EBK/src/tensorflow_lite/tensorflow/lite/kernels/internal\types.h ****   }
 2026              		.loc 4 216 0
 2027 0a68 08309315 		ldrne	r3, [r3, #8]
 2028              	.LVL219:
 2029              	.LBE1166:
 2030              	.LBE1173:
  70:C:/Renesas/e2studio_2021_01_workspace_RZA2M_ANPR/ANPR_RZA2M_EBK/src/tensorflow_lite/tensorflow/lite/kernels/internal/reference\strided_slice.h ****              end_1 = (offset_0 + stop_1) * input_shape.Dims(2),
 2031              		.loc 3 70 0
 2032 0a6c 44308D05 		streq	r3, [sp, #68]
 2033              	.LBB1174:
 2034              	.LBB1175:
 216:C:/Renesas/e2studio_2021_01_workspace_RZA2M_ANPR/ANPR_RZA2M_EBK/src/tensorflow_lite/tensorflow/lite/kernels/internal\types.h ****   }
 2035              		.loc 4 216 0
 2036 0a70 84309D05 		ldreq	r3, [sp, #132]
 2037              	.LBE1175:
 2038              	.LBE1174:
  70:C:/Renesas/e2studio_2021_01_workspace_RZA2M_ANPR/ANPR_RZA2M_EBK/src/tensorflow_lite/tensorflow/lite/kernels/internal/reference\strided_slice.h ****              end_1 = (offset_0 + stop_1) * input_shape.Dims(2),
 2039              		.loc 3 70 0
 2040 0a74 92030210 		mulne	r2, r2, r3
 2041 0a78 44208D15 		strne	r2, [sp, #68]
 2042              	.LVL220:
  72:C:/Renesas/e2studio_2021_01_workspace_RZA2M_ANPR/ANPR_RZA2M_EBK/src/tensorflow_lite/tensorflow/lite/kernels/internal/reference\strided_slice.h ****          !LoopCondition(offset_1, end_1, params_copy.strides[1]);
 2043              		.loc 3 72 0
 2044 0a7c 70209DE5 		ldr	r2, [sp, #112]
 2045 0a80 920303E0 		mul	r3, r2, r3
 2046 0a84 28209DE5 		ldr	r2, [sp, #40]
 2047 0a88 0310A0E1 		mov	r1, r3
 2048 0a8c 80308DE5 		str	r3, [sp, #128]
 2049              	.LVL221:
 2050 0a90 44309DE5 		ldr	r3, [sp, #68]
 2051 0a94 032082E0 		add	r2, r2, r3
 2052 0a98 0C3083E0 		add	r3, r3, ip
 2053 0a9c 6CC09DE5 		ldr	ip, [sp, #108]
 2054 0aa0 9C0202E0 		mul	r2, ip, r2
 2055 0aa4 60208DE5 		str	r2, [sp, #96]
 2056 0aa8 0120A0E1 		mov	r2, r1
 2057 0aac 9C0101E0 		mul	r1, ip, r1
 2058              	.LVL222:
 2059 0ab0 8C108DE5 		str	r1, [sp, #140]
 2060 0ab4 1C109DE5 		ldr	r1, [sp, #28]
 2061 0ab8 920102E0 		mul	r2, r2, r1
 2062              	.LVL223:
 2063 0abc 910303E0 		mul	r3, r1, r3
 2064 0ac0 7C208DE5 		str	r2, [sp, #124]
 2065 0ac4 20308DE5 		str	r3, [sp, #32]
 2066              	.LVL224:
 2067              	.L160:
 2068              	.LBB1176:
 2069              	.LBB1177:
 2070              		.loc 5 179 0
 2071 0ac8 70309DE5 		ldr	r3, [sp, #112]
 2072 0acc 54209DE5 		ldr	r2, [sp, #84]
 2073 0ad0 000053E3 		cmp	r3, #0
 2074 0ad4 44309DE5 		ldr	r3, [sp, #68]
 2075 0ad8 810000DA 		ble	.L141
 2076 0adc 020053E1 		cmp	r3, r2
 2077 0ae0 0030A0B3 		movlt	r3, #0
 2078 0ae4 0130A0A3 		movge	r3, #1
 2079              	.LVL225:
 2080              	.LBE1177:
 2081              	.LBE1176:
  70:C:/Renesas/e2studio_2021_01_workspace_RZA2M_ANPR/ANPR_RZA2M_EBK/src/tensorflow_lite/tensorflow/lite/kernels/internal/reference\strided_slice.h ****              end_1 = (offset_0 + stop_1) * input_shape.Dims(2),
 2082              		.loc 3 70 0
 2083 0ae8 000053E3 		cmp	r3, #0
 2084 0aec 8100001A 		bne	.L143
 2085              	.L1094:
 2086              	.LBB1179:
 2087              	.LBB1151:
 2088              	.LBB1145:
 216:C:/Renesas/e2studio_2021_01_workspace_RZA2M_ANPR/ANPR_RZA2M_EBK/src/tensorflow_lite/tensorflow/lite/kernels/internal\types.h ****   }
 2089              		.loc 4 216 0
 2090 0af0 0C309DE5 		ldr	r3, [sp, #12]
 2091 0af4 44209DE5 		ldr	r2, [sp, #68]
 2092 0af8 14C09DE5 		ldr	ip, [sp, #20]
 2093 0afc 050053E3 		cmp	r3, #5
 2094 0b00 28309DE5 		ldr	r3, [sp, #40]
 2095 0b04 022083E0 		add	r2, r3, r2
 2096              	.LVL226:
 2097 0b08 50309D15 		ldrne	r3, [sp, #80]
 2098              	.LBE1145:
 2099              	.LBE1151:
  75:C:/Renesas/e2studio_2021_01_workspace_RZA2M_ANPR/ANPR_RZA2M_EBK/src/tensorflow_lite/tensorflow/lite/kernels/internal/reference\strided_slice.h ****                end_2 = (offset_1 + stop_2) * input_shape.Dims(3),
 2100              		.loc 3 75 0
 2101 0b0c 60309D05 		ldreq	r3, [sp, #96]
 2102              	.LBB1152:
 2103              	.LBB1146:
 216:C:/Renesas/e2studio_2021_01_workspace_RZA2M_ANPR/ANPR_RZA2M_EBK/src/tensorflow_lite/tensorflow/lite/kernels/internal\types.h ****   }
 2104              		.loc 4 216 0
 2105 0b10 0C309315 		ldrne	r3, [r3, #12]
 2106              	.LVL227:
 2107              	.LBE1146:
 2108              	.LBE1152:
  75:C:/Renesas/e2studio_2021_01_workspace_RZA2M_ANPR/ANPR_RZA2M_EBK/src/tensorflow_lite/tensorflow/lite/kernels/internal/reference\strided_slice.h ****                end_2 = (offset_1 + stop_2) * input_shape.Dims(3),
 2109              		.loc 3 75 0
 2110 0b14 08308D05 		streq	r3, [sp, #8]
 2111              	.LBB1153:
 2112              	.LBB1154:
 216:C:/Renesas/e2studio_2021_01_workspace_RZA2M_ANPR/ANPR_RZA2M_EBK/src/tensorflow_lite/tensorflow/lite/kernels/internal\types.h ****   }
 2113              		.loc 4 216 0
 2114 0b18 6C309D05 		ldreq	r3, [sp, #108]
 2115 0b1c 08109D05 		ldreq	r1, [sp, #8]
 2116              	.LBE1154:
 2117              	.LBE1153:
  75:C:/Renesas/e2studio_2021_01_workspace_RZA2M_ANPR/ANPR_RZA2M_EBK/src/tensorflow_lite/tensorflow/lite/kernels/internal/reference\strided_slice.h ****                end_2 = (offset_1 + stop_2) * input_shape.Dims(3),
 2118              		.loc 3 75 0
 2119 0b20 93020210 		mulne	r2, r3, r2
 2120 0b24 0210A011 		movne	r1, r2
 2121 0b28 08208D15 		strne	r2, [sp, #8]
 2122              	.LVL228:
  77:C:/Renesas/e2studio_2021_01_workspace_RZA2M_ANPR/ANPR_RZA2M_EBK/src/tensorflow_lite/tensorflow/lite/kernels/internal/reference\strided_slice.h ****            !LoopCondition(offset_2, end_2, params_copy.strides[2]);
 2123              		.loc 3 77 0
 2124 0b2c 24209DE5 		ldr	r2, [sp, #36]
 2125 0b30 920303E0 		mul	r3, r2, r3
 2126 0b34 0320A0E1 		mov	r2, r3
 2127 0b38 34308DE5 		str	r3, [sp, #52]
 2128              	.LVL229:
 2129 0b3c 01308CE0 		add	r3, ip, r1
 2130 0b40 4CC09DE5 		ldr	ip, [sp, #76]
 2131 0b44 01508CE0 		add	r5, ip, r1
 2132 0b48 58109DE5 		ldr	r1, [sp, #88]
 2133 0b4c 910303E0 		mul	r3, r1, r3
 2134 0b50 10308DE5 		str	r3, [sp, #16]
 2135 0b54 0230A0E1 		mov	r3, r2
 2136 0b58 910202E0 		mul	r2, r1, r2
 2137              	.LVL230:
 2138 0b5c 38208DE5 		str	r2, [sp, #56]
 2139 0b60 18209DE5 		ldr	r2, [sp, #24]
 2140 0b64 920303E0 		mul	r3, r2, r3
 2141              	.LVL231:
 2142 0b68 920505E0 		mul	r5, r2, r5
 2143 0b6c 3C308DE5 		str	r3, [sp, #60]
 2144              	.LVL232:
 2145              	.L159:
 2146              	.LBB1155:
 2147              	.LBB1156:
 2148              		.loc 5 179 0
 2149 0b70 24309DE5 		ldr	r3, [sp, #36]
 2150 0b74 20209DE5 		ldr	r2, [sp, #32]
 2151 0b78 000053E3 		cmp	r3, #0
 2152 0b7c 08309DE5 		ldr	r3, [sp, #8]
 2153 0b80 450000DA 		ble	.L146
 2154 0b84 020053E1 		cmp	r3, r2
 2155 0b88 0030A0B3 		movlt	r3, #0
 2156 0b8c 0130A0A3 		movge	r3, #1
 2157              	.LVL233:
 2158              	.LBE1156:
 2159              	.LBE1155:
  75:C:/Renesas/e2studio_2021_01_workspace_RZA2M_ANPR/ANPR_RZA2M_EBK/src/tensorflow_lite/tensorflow/lite/kernels/internal/reference\strided_slice.h ****                end_2 = (offset_1 + stop_2) * input_shape.Dims(3),
 2160              		.loc 3 75 0
 2161 0b90 000053E3 		cmp	r3, #0
 2162 0b94 4500001A 		bne	.L148
 2163              	.L1093:
 2164              	.LBB1158:
 2165              	.LBB1126:
 2166              	.LBB1127:
 216:C:/Renesas/e2studio_2021_01_workspace_RZA2M_ANPR/ANPR_RZA2M_EBK/src/tensorflow_lite/tensorflow/lite/kernels/internal\types.h ****   }
 2167              		.loc 4 216 0
 2168 0b98 0C309DE5 		ldr	r3, [sp, #12]
 2169 0b9c 14209DE5 		ldr	r2, [sp, #20]
 2170 0ba0 050053E3 		cmp	r3, #5
 2171 0ba4 08309DE5 		ldr	r3, [sp, #8]
 2172              	.LBE1127:
 2173              	.LBE1126:
  80:C:/Renesas/e2studio_2021_01_workspace_RZA2M_ANPR/ANPR_RZA2M_EBK/src/tensorflow_lite/tensorflow/lite/kernels/internal/reference\strided_slice.h ****                  end_3 = (offset_2 + stop_3) * input_shape.Dims(4),
 2174              		.loc 3 80 0
 2175 0ba8 10E09D05 		ldreq	lr, [sp, #16]
 2176 0bac 023083E0 		add	r3, r3, r2
 2177              	.LVL234:
 2178 0bb0 50209D15 		ldrne	r2, [sp, #80]
 2179 0bb4 10E09215 		ldrne	lr, [r2, #16]
 2180 0bb8 9E030E10 		mulne	lr, lr, r3
 2181              	.LVL235:
 2182 0bbc 30309DE5 		ldr	r3, [sp, #48]
 2183              	.LBB1128:
 2184              	.LBB1129:
 2185              		.loc 5 179 0
 2186 0bc0 000057E3 		cmp	r7, #0
 2187 0bc4 0E408BE0 		add	r4, fp, lr
 2188 0bc8 044183E0 		add	r4, r3, r4, lsl #2
 2189              	.LVL236:
 2190 0bcc 170000DA 		ble	.L151
 2191              	.L1089:
 2192 0bd0 05005EE1 		cmp	lr, r5
 2193 0bd4 0030A0B3 		movlt	r3, #0
 2194 0bd8 0130A0A3 		movge	r3, #1
 2195              	.LVL237:
 2196              	.LBE1129:
 2197              	.LBE1128:
  80:C:/Renesas/e2studio_2021_01_workspace_RZA2M_ANPR/ANPR_RZA2M_EBK/src/tensorflow_lite/tensorflow/lite/kernels/internal/reference\strided_slice.h ****                  end_3 = (offset_2 + stop_3) * input_shape.Dims(4),
 2198              		.loc 3 80 0
 2199 0bdc 000053E3 		cmp	r3, #0
 2200 0be0 1700001A 		bne	.L153
 2201              	.L1090:
 2202 0be4 000059E3 		cmp	r9, #0
 2203 0be8 0020A0E1 		mov	r2, r0
 2204 0bec 0410A0E1 		mov	r1, r4
 2205 0bf0 0E308BE0 		add	r3, fp, lr
 2206              	.LVL238:
 2207 0bf4 0EC088E0 		add	ip, r8, lr
 2208              	.LVL239:
 2209 0bf8 040000CA 		bgt	.L157
 2210 0bfc 1F0000EA 		b	.L156
 2211              	.L1088:
 2212              	.LVL240:
 2213              	.LBB1131:
 2214              	.LBB1132:
 2215              	.LBB1133:
 2216              		.file 6 "C:/Renesas/e2studio_2021_01_workspace_RZA2M_ANPR/ANPR_RZA2M_EBK/src/tensorflow_lite/tenso
   1:C:/Renesas/e2studio_2021_01_workspace_RZA2M_ANPR/ANPR_RZA2M_EBK/src/tensorflow_lite/tensorflow/lite/kernels/internal\portable_tensor.h **** /* Copyright 2017 The TensorFlow Authors. All Rights Reserved.
   2:C:/Renesas/e2studio_2021_01_workspace_RZA2M_ANPR/ANPR_RZA2M_EBK/src/tensorflow_lite/tensorflow/lite/kernels/internal\portable_tensor.h **** 
   3:C:/Renesas/e2studio_2021_01_workspace_RZA2M_ANPR/ANPR_RZA2M_EBK/src/tensorflow_lite/tensorflow/lite/kernels/internal\portable_tensor.h **** Licensed under the Apache License, Version 2.0 (the "License");
   4:C:/Renesas/e2studio_2021_01_workspace_RZA2M_ANPR/ANPR_RZA2M_EBK/src/tensorflow_lite/tensorflow/lite/kernels/internal\portable_tensor.h **** you may not use this file except in compliance with the License.
   5:C:/Renesas/e2studio_2021_01_workspace_RZA2M_ANPR/ANPR_RZA2M_EBK/src/tensorflow_lite/tensorflow/lite/kernels/internal\portable_tensor.h **** You may obtain a copy of the License at
   6:C:/Renesas/e2studio_2021_01_workspace_RZA2M_ANPR/ANPR_RZA2M_EBK/src/tensorflow_lite/tensorflow/lite/kernels/internal\portable_tensor.h **** 
   7:C:/Renesas/e2studio_2021_01_workspace_RZA2M_ANPR/ANPR_RZA2M_EBK/src/tensorflow_lite/tensorflow/lite/kernels/internal\portable_tensor.h ****     http://www.apache.org/licenses/LICENSE-2.0
   8:C:/Renesas/e2studio_2021_01_workspace_RZA2M_ANPR/ANPR_RZA2M_EBK/src/tensorflow_lite/tensorflow/lite/kernels/internal\portable_tensor.h **** 
   9:C:/Renesas/e2studio_2021_01_workspace_RZA2M_ANPR/ANPR_RZA2M_EBK/src/tensorflow_lite/tensorflow/lite/kernels/internal\portable_tensor.h **** Unless required by applicable law or agreed to in writing, software
  10:C:/Renesas/e2studio_2021_01_workspace_RZA2M_ANPR/ANPR_RZA2M_EBK/src/tensorflow_lite/tensorflow/lite/kernels/internal\portable_tensor.h **** distributed under the License is distributed on an "AS IS" BASIS,
  11:C:/Renesas/e2studio_2021_01_workspace_RZA2M_ANPR/ANPR_RZA2M_EBK/src/tensorflow_lite/tensorflow/lite/kernels/internal\portable_tensor.h **** WITHOUT WARRANTIES OR CONDITIONS OF ANY KIND, either express or implied.
  12:C:/Renesas/e2studio_2021_01_workspace_RZA2M_ANPR/ANPR_RZA2M_EBK/src/tensorflow_lite/tensorflow/lite/kernels/internal\portable_tensor.h **** See the License for the specific language governing permissions and
  13:C:/Renesas/e2studio_2021_01_workspace_RZA2M_ANPR/ANPR_RZA2M_EBK/src/tensorflow_lite/tensorflow/lite/kernels/internal\portable_tensor.h **** limitations under the License.
  14:C:/Renesas/e2studio_2021_01_workspace_RZA2M_ANPR/ANPR_RZA2M_EBK/src/tensorflow_lite/tensorflow/lite/kernels/internal\portable_tensor.h **** ==============================================================================*/
  15:C:/Renesas/e2studio_2021_01_workspace_RZA2M_ANPR/ANPR_RZA2M_EBK/src/tensorflow_lite/tensorflow/lite/kernels/internal\portable_tensor.h **** #ifndef TENSORFLOW_LITE_KERNELS_INTERNAL_PORTABLE_TENSOR_H_
  16:C:/Renesas/e2studio_2021_01_workspace_RZA2M_ANPR/ANPR_RZA2M_EBK/src/tensorflow_lite/tensorflow/lite/kernels/internal\portable_tensor.h **** #define TENSORFLOW_LITE_KERNELS_INTERNAL_PORTABLE_TENSOR_H_
  17:C:/Renesas/e2studio_2021_01_workspace_RZA2M_ANPR/ANPR_RZA2M_EBK/src/tensorflow_lite/tensorflow/lite/kernels/internal\portable_tensor.h **** 
  18:C:/Renesas/e2studio_2021_01_workspace_RZA2M_ANPR/ANPR_RZA2M_EBK/src/tensorflow_lite/tensorflow/lite/kernels/internal\portable_tensor.h **** #include <vector>
  19:C:/Renesas/e2studio_2021_01_workspace_RZA2M_ANPR/ANPR_RZA2M_EBK/src/tensorflow_lite/tensorflow/lite/kernels/internal\portable_tensor.h **** 
  20:C:/Renesas/e2studio_2021_01_workspace_RZA2M_ANPR/ANPR_RZA2M_EBK/src/tensorflow_lite/tensorflow/lite/kernels/internal\portable_tensor.h **** #include "tensorflow/lite/c/common.h"
  21:C:/Renesas/e2studio_2021_01_workspace_RZA2M_ANPR/ANPR_RZA2M_EBK/src/tensorflow_lite/tensorflow/lite/kernels/internal\portable_tensor.h **** #include "tensorflow/lite/kernels/internal/tensor_ctypes.h"
  22:C:/Renesas/e2studio_2021_01_workspace_RZA2M_ANPR/ANPR_RZA2M_EBK/src/tensorflow_lite/tensorflow/lite/kernels/internal\portable_tensor.h **** #include "tensorflow/lite/kernels/internal/types.h"
  23:C:/Renesas/e2studio_2021_01_workspace_RZA2M_ANPR/ANPR_RZA2M_EBK/src/tensorflow_lite/tensorflow/lite/kernels/internal\portable_tensor.h **** 
  24:C:/Renesas/e2studio_2021_01_workspace_RZA2M_ANPR/ANPR_RZA2M_EBK/src/tensorflow_lite/tensorflow/lite/kernels/internal\portable_tensor.h **** namespace tflite {
  25:C:/Renesas/e2studio_2021_01_workspace_RZA2M_ANPR/ANPR_RZA2M_EBK/src/tensorflow_lite/tensorflow/lite/kernels/internal\portable_tensor.h **** 
  26:C:/Renesas/e2studio_2021_01_workspace_RZA2M_ANPR/ANPR_RZA2M_EBK/src/tensorflow_lite/tensorflow/lite/kernels/internal\portable_tensor.h **** inline RuntimeShape GetTensorShape(std::vector<int32_t> data) {
  27:C:/Renesas/e2studio_2021_01_workspace_RZA2M_ANPR/ANPR_RZA2M_EBK/src/tensorflow_lite/tensorflow/lite/kernels/internal\portable_tensor.h ****   return RuntimeShape(data.size(), data.data());
  28:C:/Renesas/e2studio_2021_01_workspace_RZA2M_ANPR/ANPR_RZA2M_EBK/src/tensorflow_lite/tensorflow/lite/kernels/internal\portable_tensor.h **** }
  29:C:/Renesas/e2studio_2021_01_workspace_RZA2M_ANPR/ANPR_RZA2M_EBK/src/tensorflow_lite/tensorflow/lite/kernels/internal\portable_tensor.h **** 
  30:C:/Renesas/e2studio_2021_01_workspace_RZA2M_ANPR/ANPR_RZA2M_EBK/src/tensorflow_lite/tensorflow/lite/kernels/internal\portable_tensor.h **** // A list of tensors in a format that can be used by kernels like split and
  31:C:/Renesas/e2studio_2021_01_workspace_RZA2M_ANPR/ANPR_RZA2M_EBK/src/tensorflow_lite/tensorflow/lite/kernels/internal\portable_tensor.h **** // concatenation.
  32:C:/Renesas/e2studio_2021_01_workspace_RZA2M_ANPR/ANPR_RZA2M_EBK/src/tensorflow_lite/tensorflow/lite/kernels/internal\portable_tensor.h **** template <typename T>
  33:C:/Renesas/e2studio_2021_01_workspace_RZA2M_ANPR/ANPR_RZA2M_EBK/src/tensorflow_lite/tensorflow/lite/kernels/internal\portable_tensor.h **** class VectorOfTensors {
  34:C:/Renesas/e2studio_2021_01_workspace_RZA2M_ANPR/ANPR_RZA2M_EBK/src/tensorflow_lite/tensorflow/lite/kernels/internal\portable_tensor.h ****  public:
  35:C:/Renesas/e2studio_2021_01_workspace_RZA2M_ANPR/ANPR_RZA2M_EBK/src/tensorflow_lite/tensorflow/lite/kernels/internal\portable_tensor.h ****   // Build with the tensors in 'tensor_list'.
  36:C:/Renesas/e2studio_2021_01_workspace_RZA2M_ANPR/ANPR_RZA2M_EBK/src/tensorflow_lite/tensorflow/lite/kernels/internal\portable_tensor.h ****   VectorOfTensors(const TfLiteContext& context,
  37:C:/Renesas/e2studio_2021_01_workspace_RZA2M_ANPR/ANPR_RZA2M_EBK/src/tensorflow_lite/tensorflow/lite/kernels/internal\portable_tensor.h ****                   const TfLiteIntArray& tensor_list) {
  38:C:/Renesas/e2studio_2021_01_workspace_RZA2M_ANPR/ANPR_RZA2M_EBK/src/tensorflow_lite/tensorflow/lite/kernels/internal\portable_tensor.h ****     int num_tensors = tensor_list.size;
  39:C:/Renesas/e2studio_2021_01_workspace_RZA2M_ANPR/ANPR_RZA2M_EBK/src/tensorflow_lite/tensorflow/lite/kernels/internal\portable_tensor.h **** 
  40:C:/Renesas/e2studio_2021_01_workspace_RZA2M_ANPR/ANPR_RZA2M_EBK/src/tensorflow_lite/tensorflow/lite/kernels/internal\portable_tensor.h ****     all_data_.reserve(num_tensors);
  41:C:/Renesas/e2studio_2021_01_workspace_RZA2M_ANPR/ANPR_RZA2M_EBK/src/tensorflow_lite/tensorflow/lite/kernels/internal\portable_tensor.h ****     all_shape_.reserve(num_tensors);
  42:C:/Renesas/e2studio_2021_01_workspace_RZA2M_ANPR/ANPR_RZA2M_EBK/src/tensorflow_lite/tensorflow/lite/kernels/internal\portable_tensor.h ****     all_shape_ptr_.reserve(num_tensors);
  43:C:/Renesas/e2studio_2021_01_workspace_RZA2M_ANPR/ANPR_RZA2M_EBK/src/tensorflow_lite/tensorflow/lite/kernels/internal\portable_tensor.h **** 
  44:C:/Renesas/e2studio_2021_01_workspace_RZA2M_ANPR/ANPR_RZA2M_EBK/src/tensorflow_lite/tensorflow/lite/kernels/internal\portable_tensor.h ****     for (int i = 0; i < num_tensors; ++i) {
  45:C:/Renesas/e2studio_2021_01_workspace_RZA2M_ANPR/ANPR_RZA2M_EBK/src/tensorflow_lite/tensorflow/lite/kernels/internal\portable_tensor.h ****       TfLiteTensor* t = &context.tensors[tensor_list.data[i]];
  46:C:/Renesas/e2studio_2021_01_workspace_RZA2M_ANPR/ANPR_RZA2M_EBK/src/tensorflow_lite/tensorflow/lite/kernels/internal\portable_tensor.h ****       all_data_.push_back(GetTensorData<T>(t));
  47:C:/Renesas/e2studio_2021_01_workspace_RZA2M_ANPR/ANPR_RZA2M_EBK/src/tensorflow_lite/tensorflow/lite/kernels/internal\portable_tensor.h ****       all_shape_.push_back(GetTensorShape(t));
  48:C:/Renesas/e2studio_2021_01_workspace_RZA2M_ANPR/ANPR_RZA2M_EBK/src/tensorflow_lite/tensorflow/lite/kernels/internal\portable_tensor.h ****     }
  49:C:/Renesas/e2studio_2021_01_workspace_RZA2M_ANPR/ANPR_RZA2M_EBK/src/tensorflow_lite/tensorflow/lite/kernels/internal\portable_tensor.h **** 
  50:C:/Renesas/e2studio_2021_01_workspace_RZA2M_ANPR/ANPR_RZA2M_EBK/src/tensorflow_lite/tensorflow/lite/kernels/internal\portable_tensor.h ****     // Taking the pointer from inside a std::vector is only OK if the vector is
  51:C:/Renesas/e2studio_2021_01_workspace_RZA2M_ANPR/ANPR_RZA2M_EBK/src/tensorflow_lite/tensorflow/lite/kernels/internal\portable_tensor.h ****     // never modified, so we populate all_shape in the previous loop and then we
  52:C:/Renesas/e2studio_2021_01_workspace_RZA2M_ANPR/ANPR_RZA2M_EBK/src/tensorflow_lite/tensorflow/lite/kernels/internal\portable_tensor.h ****     // are free to grab iterators here.
  53:C:/Renesas/e2studio_2021_01_workspace_RZA2M_ANPR/ANPR_RZA2M_EBK/src/tensorflow_lite/tensorflow/lite/kernels/internal\portable_tensor.h ****     for (int i = 0; i < num_tensors; ++i) {
  54:C:/Renesas/e2studio_2021_01_workspace_RZA2M_ANPR/ANPR_RZA2M_EBK/src/tensorflow_lite/tensorflow/lite/kernels/internal\portable_tensor.h ****       all_shape_ptr_.push_back(&all_shape_[i]);
  55:C:/Renesas/e2studio_2021_01_workspace_RZA2M_ANPR/ANPR_RZA2M_EBK/src/tensorflow_lite/tensorflow/lite/kernels/internal\portable_tensor.h ****     }
  56:C:/Renesas/e2studio_2021_01_workspace_RZA2M_ANPR/ANPR_RZA2M_EBK/src/tensorflow_lite/tensorflow/lite/kernels/internal\portable_tensor.h ****   }
  57:C:/Renesas/e2studio_2021_01_workspace_RZA2M_ANPR/ANPR_RZA2M_EBK/src/tensorflow_lite/tensorflow/lite/kernels/internal\portable_tensor.h ****   // Return a pointer to the data pointers of all tensors in the list. For
  58:C:/Renesas/e2studio_2021_01_workspace_RZA2M_ANPR/ANPR_RZA2M_EBK/src/tensorflow_lite/tensorflow/lite/kernels/internal\portable_tensor.h ****   // example:
  59:C:/Renesas/e2studio_2021_01_workspace_RZA2M_ANPR/ANPR_RZA2M_EBK/src/tensorflow_lite/tensorflow/lite/kernels/internal\portable_tensor.h ****   //   float* const* f = v.data();
  60:C:/Renesas/e2studio_2021_01_workspace_RZA2M_ANPR/ANPR_RZA2M_EBK/src/tensorflow_lite/tensorflow/lite/kernels/internal\portable_tensor.h ****   //   f[0][1] is the second element of the first tensor.
  61:C:/Renesas/e2studio_2021_01_workspace_RZA2M_ANPR/ANPR_RZA2M_EBK/src/tensorflow_lite/tensorflow/lite/kernels/internal\portable_tensor.h ****   T* const* data() const { return all_data_.data(); }
  62:C:/Renesas/e2studio_2021_01_workspace_RZA2M_ANPR/ANPR_RZA2M_EBK/src/tensorflow_lite/tensorflow/lite/kernels/internal\portable_tensor.h **** 
  63:C:/Renesas/e2studio_2021_01_workspace_RZA2M_ANPR/ANPR_RZA2M_EBK/src/tensorflow_lite/tensorflow/lite/kernels/internal\portable_tensor.h ****   // Return a pointer the shape pointers of all tensors in the list. For
  64:C:/Renesas/e2studio_2021_01_workspace_RZA2M_ANPR/ANPR_RZA2M_EBK/src/tensorflow_lite/tensorflow/lite/kernels/internal\portable_tensor.h ****   // example:
  65:C:/Renesas/e2studio_2021_01_workspace_RZA2M_ANPR/ANPR_RZA2M_EBK/src/tensorflow_lite/tensorflow/lite/kernels/internal\portable_tensor.h ****   //   const RuntimeShape* const* d = v.dims();
  66:C:/Renesas/e2studio_2021_01_workspace_RZA2M_ANPR/ANPR_RZA2M_EBK/src/tensorflow_lite/tensorflow/lite/kernels/internal\portable_tensor.h ****   //   dims[1] are the dimensions of the second tensor in the list.
  67:C:/Renesas/e2studio_2021_01_workspace_RZA2M_ANPR/ANPR_RZA2M_EBK/src/tensorflow_lite/tensorflow/lite/kernels/internal\portable_tensor.h ****   const RuntimeShape* const* shapes() const { return all_shape_ptr_.data(); }
  68:C:/Renesas/e2studio_2021_01_workspace_RZA2M_ANPR/ANPR_RZA2M_EBK/src/tensorflow_lite/tensorflow/lite/kernels/internal\portable_tensor.h **** 
  69:C:/Renesas/e2studio_2021_01_workspace_RZA2M_ANPR/ANPR_RZA2M_EBK/src/tensorflow_lite/tensorflow/lite/kernels/internal\portable_tensor.h ****  private:
  70:C:/Renesas/e2studio_2021_01_workspace_RZA2M_ANPR/ANPR_RZA2M_EBK/src/tensorflow_lite/tensorflow/lite/kernels/internal\portable_tensor.h ****   std::vector<T*> all_data_;
  71:C:/Renesas/e2studio_2021_01_workspace_RZA2M_ANPR/ANPR_RZA2M_EBK/src/tensorflow_lite/tensorflow/lite/kernels/internal\portable_tensor.h ****   std::vector<RuntimeShape> all_shape_;
  72:C:/Renesas/e2studio_2021_01_workspace_RZA2M_ANPR/ANPR_RZA2M_EBK/src/tensorflow_lite/tensorflow/lite/kernels/internal\portable_tensor.h ****   std::vector<RuntimeShape*> all_shape_ptr_;
  73:C:/Renesas/e2studio_2021_01_workspace_RZA2M_ANPR/ANPR_RZA2M_EBK/src/tensorflow_lite/tensorflow/lite/kernels/internal\portable_tensor.h **** };
  74:C:/Renesas/e2studio_2021_01_workspace_RZA2M_ANPR/ANPR_RZA2M_EBK/src/tensorflow_lite/tensorflow/lite/kernels/internal\portable_tensor.h **** 
  75:C:/Renesas/e2studio_2021_01_workspace_RZA2M_ANPR/ANPR_RZA2M_EBK/src/tensorflow_lite/tensorflow/lite/kernels/internal\portable_tensor.h **** // A list of quantized tensors in a format that can be used by kernels like
  76:C:/Renesas/e2studio_2021_01_workspace_RZA2M_ANPR/ANPR_RZA2M_EBK/src/tensorflow_lite/tensorflow/lite/kernels/internal\portable_tensor.h **** // split and concatenation.
  77:C:/Renesas/e2studio_2021_01_workspace_RZA2M_ANPR/ANPR_RZA2M_EBK/src/tensorflow_lite/tensorflow/lite/kernels/internal\portable_tensor.h **** class VectorOfQuantizedTensors : public VectorOfTensors<uint8_t> {
  78:C:/Renesas/e2studio_2021_01_workspace_RZA2M_ANPR/ANPR_RZA2M_EBK/src/tensorflow_lite/tensorflow/lite/kernels/internal\portable_tensor.h ****  public:
  79:C:/Renesas/e2studio_2021_01_workspace_RZA2M_ANPR/ANPR_RZA2M_EBK/src/tensorflow_lite/tensorflow/lite/kernels/internal\portable_tensor.h ****   // Build with the tensors in 'tensor_list'.
  80:C:/Renesas/e2studio_2021_01_workspace_RZA2M_ANPR/ANPR_RZA2M_EBK/src/tensorflow_lite/tensorflow/lite/kernels/internal\portable_tensor.h ****   VectorOfQuantizedTensors(const TfLiteContext& context,
  81:C:/Renesas/e2studio_2021_01_workspace_RZA2M_ANPR/ANPR_RZA2M_EBK/src/tensorflow_lite/tensorflow/lite/kernels/internal\portable_tensor.h ****                            const TfLiteIntArray& tensor_list)
  82:C:/Renesas/e2studio_2021_01_workspace_RZA2M_ANPR/ANPR_RZA2M_EBK/src/tensorflow_lite/tensorflow/lite/kernels/internal\portable_tensor.h ****       : VectorOfTensors<uint8_t>(context, tensor_list) {
  83:C:/Renesas/e2studio_2021_01_workspace_RZA2M_ANPR/ANPR_RZA2M_EBK/src/tensorflow_lite/tensorflow/lite/kernels/internal\portable_tensor.h ****     for (int i = 0; i < tensor_list.size; ++i) {
  84:C:/Renesas/e2studio_2021_01_workspace_RZA2M_ANPR/ANPR_RZA2M_EBK/src/tensorflow_lite/tensorflow/lite/kernels/internal\portable_tensor.h ****       TfLiteTensor* t = &context.tensors[tensor_list.data[i]];
  85:C:/Renesas/e2studio_2021_01_workspace_RZA2M_ANPR/ANPR_RZA2M_EBK/src/tensorflow_lite/tensorflow/lite/kernels/internal\portable_tensor.h ****       zero_point_.push_back(t->params.zero_point);
  86:C:/Renesas/e2studio_2021_01_workspace_RZA2M_ANPR/ANPR_RZA2M_EBK/src/tensorflow_lite/tensorflow/lite/kernels/internal\portable_tensor.h ****       scale_.push_back(t->params.scale);
  87:C:/Renesas/e2studio_2021_01_workspace_RZA2M_ANPR/ANPR_RZA2M_EBK/src/tensorflow_lite/tensorflow/lite/kernels/internal\portable_tensor.h ****     }
  88:C:/Renesas/e2studio_2021_01_workspace_RZA2M_ANPR/ANPR_RZA2M_EBK/src/tensorflow_lite/tensorflow/lite/kernels/internal\portable_tensor.h ****   }
  89:C:/Renesas/e2studio_2021_01_workspace_RZA2M_ANPR/ANPR_RZA2M_EBK/src/tensorflow_lite/tensorflow/lite/kernels/internal\portable_tensor.h **** 
  90:C:/Renesas/e2studio_2021_01_workspace_RZA2M_ANPR/ANPR_RZA2M_EBK/src/tensorflow_lite/tensorflow/lite/kernels/internal\portable_tensor.h ****   const float* scale() const { return scale_.data(); }
  91:C:/Renesas/e2studio_2021_01_workspace_RZA2M_ANPR/ANPR_RZA2M_EBK/src/tensorflow_lite/tensorflow/lite/kernels/internal\portable_tensor.h ****   const int32_t* zero_point() const { return zero_point_.data(); }
  92:C:/Renesas/e2studio_2021_01_workspace_RZA2M_ANPR/ANPR_RZA2M_EBK/src/tensorflow_lite/tensorflow/lite/kernels/internal\portable_tensor.h **** 
  93:C:/Renesas/e2studio_2021_01_workspace_RZA2M_ANPR/ANPR_RZA2M_EBK/src/tensorflow_lite/tensorflow/lite/kernels/internal\portable_tensor.h ****  private:
  94:C:/Renesas/e2studio_2021_01_workspace_RZA2M_ANPR/ANPR_RZA2M_EBK/src/tensorflow_lite/tensorflow/lite/kernels/internal\portable_tensor.h ****   std::vector<int32_t> zero_point_;
  95:C:/Renesas/e2studio_2021_01_workspace_RZA2M_ANPR/ANPR_RZA2M_EBK/src/tensorflow_lite/tensorflow/lite/kernels/internal\portable_tensor.h ****   std::vector<float> scale_;
  96:C:/Renesas/e2studio_2021_01_workspace_RZA2M_ANPR/ANPR_RZA2M_EBK/src/tensorflow_lite/tensorflow/lite/kernels/internal\portable_tensor.h **** };
  97:C:/Renesas/e2studio_2021_01_workspace_RZA2M_ANPR/ANPR_RZA2M_EBK/src/tensorflow_lite/tensorflow/lite/kernels/internal\portable_tensor.h **** 
  98:C:/Renesas/e2studio_2021_01_workspace_RZA2M_ANPR/ANPR_RZA2M_EBK/src/tensorflow_lite/tensorflow/lite/kernels/internal\portable_tensor.h **** // Writes randomly accessed values from `input` sequentially into `output`.
  99:C:/Renesas/e2studio_2021_01_workspace_RZA2M_ANPR/ANPR_RZA2M_EBK/src/tensorflow_lite/tensorflow/lite/kernels/internal\portable_tensor.h **** template <typename T>
 100:C:/Renesas/e2studio_2021_01_workspace_RZA2M_ANPR/ANPR_RZA2M_EBK/src/tensorflow_lite/tensorflow/lite/kernels/internal\portable_tensor.h **** class SequentialTensorWriter {
 101:C:/Renesas/e2studio_2021_01_workspace_RZA2M_ANPR/ANPR_RZA2M_EBK/src/tensorflow_lite/tensorflow/lite/kernels/internal\portable_tensor.h ****  public:
 102:C:/Renesas/e2studio_2021_01_workspace_RZA2M_ANPR/ANPR_RZA2M_EBK/src/tensorflow_lite/tensorflow/lite/kernels/internal\portable_tensor.h ****   SequentialTensorWriter(const TfLiteTensor* input, TfLiteTensor* output) {
 103:C:/Renesas/e2studio_2021_01_workspace_RZA2M_ANPR/ANPR_RZA2M_EBK/src/tensorflow_lite/tensorflow/lite/kernels/internal\portable_tensor.h ****     input_data_ = GetTensorData<T>(input);
 104:C:/Renesas/e2studio_2021_01_workspace_RZA2M_ANPR/ANPR_RZA2M_EBK/src/tensorflow_lite/tensorflow/lite/kernels/internal\portable_tensor.h ****     output_ptr_ = GetTensorData<T>(output);
 105:C:/Renesas/e2studio_2021_01_workspace_RZA2M_ANPR/ANPR_RZA2M_EBK/src/tensorflow_lite/tensorflow/lite/kernels/internal\portable_tensor.h ****   }
 106:C:/Renesas/e2studio_2021_01_workspace_RZA2M_ANPR/ANPR_RZA2M_EBK/src/tensorflow_lite/tensorflow/lite/kernels/internal\portable_tensor.h ****   SequentialTensorWriter(const T* input_data, T* output_data)
 107:C:/Renesas/e2studio_2021_01_workspace_RZA2M_ANPR/ANPR_RZA2M_EBK/src/tensorflow_lite/tensorflow/lite/kernels/internal\portable_tensor.h ****       : input_data_(input_data), output_ptr_(output_data) {}
 108:C:/Renesas/e2studio_2021_01_workspace_RZA2M_ANPR/ANPR_RZA2M_EBK/src/tensorflow_lite/tensorflow/lite/kernels/internal\portable_tensor.h **** 
 109:C:/Renesas/e2studio_2021_01_workspace_RZA2M_ANPR/ANPR_RZA2M_EBK/src/tensorflow_lite/tensorflow/lite/kernels/internal\portable_tensor.h ****   void Write(int position) { *output_ptr_++ = input_data_[position]; }
 2217              		.loc 6 109 0
 2218 0c00 000091E5 		ldr	r0, [r1]	@ float
 2219              	.LVL241:
 2220              	.LBE1133:
 2221              	.LBE1132:
  83:C:/Renesas/e2studio_2021_01_workspace_RZA2M_ANPR/ANPR_RZA2M_EBK/src/tensorflow_lite/tensorflow/lite/kernels/internal/reference\strided_slice.h ****              !LoopCondition(offset_3, end_3, params_copy.strides[3]);
  84:C:/Renesas/e2studio_2021_01_workspace_RZA2M_ANPR/ANPR_RZA2M_EBK/src/tensorflow_lite/tensorflow/lite/kernels/internal/reference\strided_slice.h ****              offset_3 += step_3) {
  85:C:/Renesas/e2studio_2021_01_workspace_RZA2M_ANPR/ANPR_RZA2M_EBK/src/tensorflow_lite/tensorflow/lite/kernels/internal/reference\strided_slice.h ****           for (int offset_4 = offset_3 + start_4, end_4 = offset_3 + stop_4;
 2222              		.loc 3 85 0
 2223 0c04 093083E0 		add	r3, r3, r9
 2224              	.LVL242:
 2225 0c08 0A1081E0 		add	r1, r1, r10
 2226              	.LBB1137:
 2227              	.LBB1134:
 2228              		.loc 6 109 0
 2229 0c0c 040082E4 		str	r0, [r2], #4	@ float
 2230              	.LVL243:
 2231              	.L157:
 2232              	.LBE1134:
 2233              	.LBE1137:
 2234              		.loc 3 85 0
 2235 0c10 0C0053E1 		cmp	r3, ip
 2236 0c14 0200A0E1 		mov	r0, r2
 2237              	.LVL244:
 2238 0c18 F8FFFFBA 		blt	.L1088
 2239 0c1c 04309DE5 		ldr	r3, [sp, #4]
 2240              	.LVL245:
 2241              	.LBE1131:
  80:C:/Renesas/e2studio_2021_01_workspace_RZA2M_ANPR/ANPR_RZA2M_EBK/src/tensorflow_lite/tensorflow/lite/kernels/internal/reference\strided_slice.h ****                  end_3 = (offset_2 + stop_3) * input_shape.Dims(4),
 2242              		.loc 3 80 0
 2243 0c20 06E08EE0 		add	lr, lr, r6
 2244              	.LVL246:
 2245 0c24 034084E0 		add	r4, r4, r3
 2246              	.L1092:
 2247              	.LVL247:
 2248              	.LBB1140:
 2249              	.LBB1130:
 2250              		.loc 5 179 0
 2251 0c28 000057E3 		cmp	r7, #0
 2252 0c2c E7FFFFCA 		bgt	.L1089
 2253              	.LVL248:
 2254              	.L151:
 2255 0c30 05005EE1 		cmp	lr, r5
 2256 0c34 0030A0C3 		movgt	r3, #0
 2257 0c38 0130A0D3 		movle	r3, #1
 2258              	.LVL249:
 2259              	.LBE1130:
 2260              	.LBE1140:
  80:C:/Renesas/e2studio_2021_01_workspace_RZA2M_ANPR/ANPR_RZA2M_EBK/src/tensorflow_lite/tensorflow/lite/kernels/internal/reference\strided_slice.h ****                  end_3 = (offset_2 + stop_3) * input_shape.Dims(4),
 2261              		.loc 3 80 0
 2262 0c3c 000053E3 		cmp	r3, #0
 2263 0c40 E7FFFF0A 		beq	.L1090
 2264              	.L153:
 2265              	.LBE1158:
  75:C:/Renesas/e2studio_2021_01_workspace_RZA2M_ANPR/ANPR_RZA2M_EBK/src/tensorflow_lite/tensorflow/lite/kernels/internal/reference\strided_slice.h ****                end_2 = (offset_1 + stop_2) * input_shape.Dims(3),
 2266              		.loc 3 75 0
 2267 0c44 08309DE5 		ldr	r3, [sp, #8]
 2268 0c48 34209DE5 		ldr	r2, [sp, #52]
 2269 0c4c 023083E0 		add	r3, r3, r2
 2270 0c50 38209DE5 		ldr	r2, [sp, #56]
 2271 0c54 08308DE5 		str	r3, [sp, #8]
 2272              	.LVL250:
 2273 0c58 10309DE5 		ldr	r3, [sp, #16]
 2274              	.LVL251:
 2275 0c5c 023083E0 		add	r3, r3, r2
 2276 0c60 10308DE5 		str	r3, [sp, #16]
 2277 0c64 3C309DE5 		ldr	r3, [sp, #60]
 2278 0c68 035085E0 		add	r5, r5, r3
 2279              	.LVL252:
 2280 0c6c BFFFFFEA 		b	.L159
 2281              	.LVL253:
 2282              	.L1091:
 2283              	.LBB1159:
 2284              	.LBB1141:
 2285              	.LBB1138:
 2286              	.LBB1135:
 2287              		.loc 6 109 0
 2288 0c70 000091E5 		ldr	r0, [r1]	@ float
 2289              	.LVL254:
 2290              	.LBE1135:
 2291              	.LBE1138:
 2292              		.loc 3 85 0
 2293 0c74 093083E0 		add	r3, r3, r9
 2294              	.LVL255:
 2295 0c78 0A1081E0 		add	r1, r1, r10
 2296              	.LBB1139:
 2297              	.LBB1136:
 2298              		.loc 6 109 0
 2299 0c7c 040082E4 		str	r0, [r2], #4	@ float
 2300              	.LVL256:
 2301              	.L156:
 2302              	.LBE1136:
 2303              	.LBE1139:
 2304              		.loc 3 85 0
 2305 0c80 03005CE1 		cmp	ip, r3
 2306 0c84 0200A0E1 		mov	r0, r2
 2307              	.LVL257:
 2308 0c88 F8FFFFBA 		blt	.L1091
 2309 0c8c 04309DE5 		ldr	r3, [sp, #4]
 2310              	.LVL258:
 2311              	.LBE1141:
  80:C:/Renesas/e2studio_2021_01_workspace_RZA2M_ANPR/ANPR_RZA2M_EBK/src/tensorflow_lite/tensorflow/lite/kernels/internal/reference\strided_slice.h ****                  end_3 = (offset_2 + stop_3) * input_shape.Dims(4),
 2312              		.loc 3 80 0
 2313 0c90 06E08EE0 		add	lr, lr, r6
 2314              	.LVL259:
 2315 0c94 034084E0 		add	r4, r4, r3
 2316 0c98 E2FFFFEA 		b	.L1092
 2317              	.LVL260:
 2318              	.L146:
 2319              	.LBE1159:
 2320              	.LBB1160:
 2321              	.LBB1157:
 2322              		.loc 5 179 0
 2323 0c9c 020053E1 		cmp	r3, r2
 2324 0ca0 0030A0C3 		movgt	r3, #0
 2325              	.LVL261:
 2326 0ca4 0130A0D3 		movle	r3, #1
 2327              	.LVL262:
 2328              	.LBE1157:
 2329              	.LBE1160:
  75:C:/Renesas/e2studio_2021_01_workspace_RZA2M_ANPR/ANPR_RZA2M_EBK/src/tensorflow_lite/tensorflow/lite/kernels/internal/reference\strided_slice.h ****                end_2 = (offset_1 + stop_2) * input_shape.Dims(3),
 2330              		.loc 3 75 0
 2331 0ca8 000053E3 		cmp	r3, #0
 2332 0cac B9FFFF0A 		beq	.L1093
 2333              	.L148:
 2334              	.LBE1179:
  70:C:/Renesas/e2studio_2021_01_workspace_RZA2M_ANPR/ANPR_RZA2M_EBK/src/tensorflow_lite/tensorflow/lite/kernels/internal/reference\strided_slice.h ****              end_1 = (offset_0 + stop_1) * input_shape.Dims(2),
 2335              		.loc 3 70 0
 2336 0cb0 44309DE5 		ldr	r3, [sp, #68]
 2337 0cb4 80209DE5 		ldr	r2, [sp, #128]
 2338 0cb8 023083E0 		add	r3, r3, r2
 2339 0cbc 8C209DE5 		ldr	r2, [sp, #140]
 2340 0cc0 44308DE5 		str	r3, [sp, #68]
 2341              	.LVL263:
 2342 0cc4 60309DE5 		ldr	r3, [sp, #96]
 2343              	.LVL264:
 2344 0cc8 023083E0 		add	r3, r3, r2
 2345 0ccc 7C209DE5 		ldr	r2, [sp, #124]
 2346 0cd0 60308DE5 		str	r3, [sp, #96]
 2347 0cd4 20309DE5 		ldr	r3, [sp, #32]
 2348 0cd8 023083E0 		add	r3, r3, r2
 2349 0cdc 20308DE5 		str	r3, [sp, #32]
 2350              	.LVL265:
 2351 0ce0 78FFFFEA 		b	.L160
 2352              	.LVL266:
 2353              	.L141:
 2354              	.LBB1180:
 2355              	.LBB1178:
 2356              		.loc 5 179 0
 2357 0ce4 020053E1 		cmp	r3, r2
 2358 0ce8 0030A0C3 		movgt	r3, #0
 2359              	.LVL267:
 2360 0cec 0130A0D3 		movle	r3, #1
 2361              	.LVL268:
 2362              	.LBE1178:
 2363              	.LBE1180:
  70:C:/Renesas/e2studio_2021_01_workspace_RZA2M_ANPR/ANPR_RZA2M_EBK/src/tensorflow_lite/tensorflow/lite/kernels/internal/reference\strided_slice.h ****              end_1 = (offset_0 + stop_1) * input_shape.Dims(2),
 2364              		.loc 3 70 0
 2365 0cf0 000053E3 		cmp	r3, #0
 2366 0cf4 7DFFFF0A 		beq	.L1094
 2367              	.L143:
 2368              	.LBE1186:
  65:C:/Renesas/e2studio_2021_01_workspace_RZA2M_ANPR/ANPR_RZA2M_EBK/src/tensorflow_lite/tensorflow/lite/kernels/internal/reference\strided_slice.h ****            end_0 = stop_0 * input_shape.Dims(1),
 2369              		.loc 3 65 0
 2370 0cf8 40309DE5 		ldr	r3, [sp, #64]
 2371 0cfc 78209DE5 		ldr	r2, [sp, #120]
 2372 0d00 023083E0 		add	r3, r3, r2
 2373 0d04 74209DE5 		ldr	r2, [sp, #116]
 2374 0d08 40308DE5 		str	r3, [sp, #64]
 2375              	.LVL269:
 2376 0d0c 5C309DE5 		ldr	r3, [sp, #92]
 2377              	.LVL270:
 2378 0d10 023083E0 		add	r3, r3, r2
 2379 0d14 88209DE5 		ldr	r2, [sp, #136]
 2380 0d18 5C308DE5 		str	r3, [sp, #92]
 2381 0d1c 54309DE5 		ldr	r3, [sp, #84]
 2382 0d20 023083E0 		add	r3, r3, r2
 2383 0d24 54308DE5 		str	r3, [sp, #84]
 2384              	.LVL271:
 2385 0d28 3CFFFFEA 		b	.L161
 2386              	.LVL272:
 2387              	.L1087:
 2388              	.LEHB16:
 2389              	.LBE1120:
 2390              	.LBB1188:
 2391              	.LBB1117:
 2392              	.LBB1112:
 2393              	.LBB1111:
  30:C:/Renesas/e2studio_2021_01_workspace_RZA2M_ANPR/ANPR_RZA2M_EBK/src/tensorflow_lite/tensorflow/lite/kernels/internal\strided_slice_logic.h ****   if (hi < v) return hi;
 2394              		.loc 5 30 0
 2395 0d2c FEFFFFEB 		bl	abort
 2396              	.LVL273:
 2397              	.L128:
 2398              	.LBE1111:
 2399              	.LBE1112:
 159:C:/Renesas/e2studio_2021_01_workspace_RZA2M_ANPR/ANPR_RZA2M_EBK/src/tensorflow_lite/tensorflow/lite/kernels/internal\strided_slice_logic.h ****     stop += axis_size;
 2400              		.loc 5 159 0
 2401 0d30 000050E3 		cmp	r0, #0
 2402 0d34 010000AA 		bge	.L131
 2403              	.LVL274:
 2404              	.L130:
 160:C:/Renesas/e2studio_2021_01_workspace_RZA2M_ANPR/ANPR_RZA2M_EBK/src/tensorflow_lite/tensorflow/lite/kernels/internal\strided_slice_logic.h ****   }
 2405              		.loc 5 160 0
 2406 0d38 18409DE5 		ldr	r4, [sp, #24]
 2407 0d3c 040080E0 		add	r0, r0, r4
 2408              	.LVL275:
 2409              	.L131:
 166:C:/Renesas/e2studio_2021_01_workspace_RZA2M_ANPR/ANPR_RZA2M_EBK/src/tensorflow_lite/tensorflow/lite/kernels/internal\strided_slice_logic.h ****     // Forward iteration
 2410              		.loc 5 166 0
 2411 0d40 000059E3 		cmp	r9, #0
 2412 0d44 FBFEFFCA 		bgt	.L129
 171:C:/Renesas/e2studio_2021_01_workspace_RZA2M_ANPR/ANPR_RZA2M_EBK/src/tensorflow_lite/tensorflow/lite/kernels/internal\strided_slice_logic.h ****   }
 2413              		.loc 5 171 0
 2414 0d48 18409DE5 		ldr	r4, [sp, #24]
 2415 0d4c 017044E2 		sub	r7, r4, #1
 2416              	.LVL276:
 2417              	.LBB1113:
 2418              	.LBB1114:
  30:C:/Renesas/e2studio_2021_01_workspace_RZA2M_ANPR/ANPR_RZA2M_EBK/src/tensorflow_lite/tensorflow/lite/kernels/internal\strided_slice_logic.h ****   if (hi < v) return hi;
 2419              		.loc 5 30 0
 2420 0d50 010077E3 		cmn	r7, #1
 2421 0d54 BA0300BA 		blt	.L1095
  31:C:/Renesas/e2studio_2021_01_workspace_RZA2M_ANPR/ANPR_RZA2M_EBK/src/tensorflow_lite/tensorflow/lite/kernels/internal\strided_slice_logic.h ****   if (v < lo) return lo;
 2422              		.loc 5 31 0
 2423 0d58 070050E1 		cmp	r0, r7
 2424 0d5c C07F80D1 		orrle	r7, r0, r0, asr #31
 2425              	.LVL277:
 2426 0d60 FAFEFFEA 		b	.L127
 2427              	.LVL278:
 2428              	.L627:
 2429              	.L990:
 2430              	.LBE1114:
 2431              	.LBE1113:
 2432              	.LBE1117:
 2433              	.LBE1188:
 2434              	.LBE1223:
 2435              	.LBE1228:
 2436              	.LBE1233:
 2437              	.LBE1995:
 2438              	.LBB1996:
 2439              	.LBB1615:
 2440              	.LBB1607:
 2441              	.LBB1599:
 2442              	.LBB1297:
 2443              	.LBB1298:
 203:C:/Renesas/e2studio_2021_01_workspace_RZA2M_ANPR/ANPR_RZA2M_EBK/src/tensorflow_lite/tensorflow/lite/kernels/internal\types.h **** #ifdef TF_LITE_STATIC_MEMORY
 2444              		.loc 4 203 0
 2445 0d64 DC309DE5 		ldr	r3, [sp, #220]
 2446 0d68 050053E3 		cmp	r3, #5
 2447 0d6c A7FDFFDA 		ble	.L487
 207:C:/Renesas/e2studio_2021_01_workspace_RZA2M_ANPR/ANPR_RZA2M_EBK/src/tensorflow_lite/tensorflow/lite/kernels/internal\types.h **** #endif  // TF_LITE_STATIC_MEMORY
 2448              		.loc 4 207 0
 2449 0d70 E0009DE5 		ldr	r0, [sp, #224]
 2450 0d74 000050E3 		cmp	r0, #0
 2451 0d78 A4FDFF0A 		beq	.L487
 2452 0d7c FEFFFFEB 		bl	_ZdaPv
 2453              	.LVL279:
 2454 0d80 A2FDFFEA 		b	.L487
 2455              	.LVL280:
 2456              	.L906:
 2457 0d84 C8009DE5 		ldr	r0, [sp, #200]
 2458 0d88 50008DE5 		str	r0, [sp, #80]
 2459              	.LVL281:
 2460              	.L115:
 2461              	.LBE1298:
 2462              	.LBE1297:
 2463              	.LBE1599:
 2464              	.LBE1607:
 2465              	.LBE1615:
 2466              	.LBE1996:
 2467              	.LBB1997:
 2468              	.LBB1234:
 2469              	.LBB1229:
 2470              	.LBB1224:
 2471              	.LBB1189:
  65:C:/Renesas/e2studio_2021_01_workspace_RZA2M_ANPR/ANPR_RZA2M_EBK/src/tensorflow_lite/tensorflow/lite/kernels/internal/reference\strided_slice.h ****            end_0 = stop_0 * input_shape.Dims(1),
 2472              		.loc 3 65 0
 2473 0d8c 910201E0 		mul	r1, r1, r2
 2474 0d90 40108DE5 		str	r1, [sp, #64]
 2475              	.LVL282:
  67:C:/Renesas/e2studio_2021_01_workspace_RZA2M_ANPR/ANPR_RZA2M_EBK/src/tensorflow_lite/tensorflow/lite/kernels/internal/reference\strided_slice.h ****        !LoopCondition(offset_0, end_0, params_copy.strides[0]);
 2476              		.loc 3 67 0
 2477 0d94 28119DE5 		ldr	r1, [sp, #296]
 2478              	.LVL283:
 2479 0d98 68108DE5 		str	r1, [sp, #104]
 2480 0d9c D8109DE5 		ldr	r1, [sp, #216]
 2481 0da0 58108DE5 		str	r1, [sp, #88]
  66:C:/Renesas/e2studio_2021_01_workspace_RZA2M_ANPR/ANPR_RZA2M_EBK/src/tensorflow_lite/tensorflow/lite/kernels/internal/reference\strided_slice.h ****            step_0 = params_copy.strides[0] * input_shape.Dims(1);
 2482              		.loc 3 66 0
 2483 0da4 920C01E0 		mul	r1, r2, ip
 2484 0da8 64108DE5 		str	r1, [sp, #100]
 2485              	.LVL284:
 2486 0dac F4FEFFEA 		b	.L135
 2487              	.LVL285:
 2488              	.L1072:
 2489              	.LBE1189:
 2490              	.LBB1190:
 2491              	.LBB1026:
 2492              	.LBB1016:
 2493              	.LBB1012:
 215:C:/Renesas/e2studio_2021_01_workspace_RZA2M_ANPR/ANPR_RZA2M_EBK/src/tensorflow_lite/tensorflow/lite/kernels/internal\types.h ****     return size_ > kMaxSmallSize ? dims_pointer_[i] : dims_[i];
 2494              		.loc 4 215 0
 2495 0db0 FEFFFFEB 		bl	abort
 2496              	.LVL286:
 2497              	.L1071:
 2498              	.LBE1012:
 2499              	.LBE1016:
 2500              	.LBE1026:
 2501              	.LBE1190:
 2502              	.LBB1191:
 2503              	.LBB1005:
 2504              	.LBB1000:
 2505              	.LBB999:
  30:C:/Renesas/e2studio_2021_01_workspace_RZA2M_ANPR/ANPR_RZA2M_EBK/src/tensorflow_lite/tensorflow/lite/kernels/internal\strided_slice_logic.h ****   if (hi < v) return hi;
 2506              		.loc 5 30 0
 2507 0db4 FEFFFFEB 		bl	abort
 2508              	.LVL287:
 2509              	.L66:
 2510              	.LBE999:
 2511              	.LBE1000:
 159:C:/Renesas/e2studio_2021_01_workspace_RZA2M_ANPR/ANPR_RZA2M_EBK/src/tensorflow_lite/tensorflow/lite/kernels/internal\strided_slice_logic.h ****     stop += axis_size;
 2512              		.loc 5 159 0
 2513 0db8 000053E3 		cmp	r3, #0
 2514 0dbc 000000AA 		bge	.L69
 2515              	.LVL288:
 2516              	.L68:
 160:C:/Renesas/e2studio_2021_01_workspace_RZA2M_ANPR/ANPR_RZA2M_EBK/src/tensorflow_lite/tensorflow/lite/kernels/internal\strided_slice_logic.h ****   }
 2517              		.loc 5 160 0
 2518 0dc0 023083E0 		add	r3, r3, r2
 2519              	.LVL289:
 2520              	.L69:
 166:C:/Renesas/e2studio_2021_01_workspace_RZA2M_ANPR/ANPR_RZA2M_EBK/src/tensorflow_lite/tensorflow/lite/kernels/internal\strided_slice_logic.h ****     // Forward iteration
 2521              		.loc 5 166 0
 2522 0dc4 000050E3 		cmp	r0, #0
 2523 0dc8 5BFEFFCA 		bgt	.L67
 171:C:/Renesas/e2studio_2021_01_workspace_RZA2M_ANPR/ANPR_RZA2M_EBK/src/tensorflow_lite/tensorflow/lite/kernels/internal\strided_slice_logic.h ****   }
 2524              		.loc 5 171 0
 2525 0dcc 01E042E2 		sub	lr, r2, #1
 2526              	.LVL290:
 2527              	.LBB1001:
 2528              	.LBB1002:
  30:C:/Renesas/e2studio_2021_01_workspace_RZA2M_ANPR/ANPR_RZA2M_EBK/src/tensorflow_lite/tensorflow/lite/kernels/internal\strided_slice_logic.h ****   if (hi < v) return hi;
 2529              		.loc 5 30 0
 2530 0dd0 01007EE3 		cmn	lr, #1
 2531 0dd4 130000BA 		blt	.L1096
  31:C:/Renesas/e2studio_2021_01_workspace_RZA2M_ANPR/ANPR_RZA2M_EBK/src/tensorflow_lite/tensorflow/lite/kernels/internal\strided_slice_logic.h ****   if (v < lo) return lo;
 2532              		.loc 5 31 0
 2533 0dd8 0E0053E1 		cmp	r3, lr
 2534 0ddc C3EF83D1 		orrle	lr, r3, r3, asr #31
 2535              	.LVL291:
 2536 0de0 5AFEFFEA 		b	.L56
 2537              	.LVL292:
 2538              	.L1070:
 2539              	.LBE1002:
 2540              	.LBE1001:
 143:C:/Renesas/e2studio_2021_01_workspace_RZA2M_ANPR/ANPR_RZA2M_EBK/src/tensorflow_lite/tensorflow/lite/kernels/internal\strided_slice_logic.h ****   }
 2541              		.loc 5 143 0
 2542 0de4 2C309DE5 		ldr	r3, [sp, #44]
 2543              	.LVL293:
 2544 0de8 01E083E2 		add	lr, r3, #1
 2545 0dec 57FEFFEA 		b	.L56
 2546              	.LVL294:
 2547              	.L62:
 2548              	.LBE1005:
 2549              	.LBE1191:
 2550              	.LBB1192:
 2551              	.LBB992:
 111:C:/Renesas/e2studio_2021_01_workspace_RZA2M_ANPR/ANPR_RZA2M_EBK/src/tensorflow_lite/tensorflow/lite/kernels/internal\strided_slice_logic.h ****   }
 2552              		.loc 5 111 0
 2553 0df0 01E042E2 		sub	lr, r2, #1
 2554              	.LBB982:
 2555              	.LBB983:
  30:C:/Renesas/e2studio_2021_01_workspace_RZA2M_ANPR/ANPR_RZA2M_EBK/src/tensorflow_lite/tensorflow/lite/kernels/internal\strided_slice_logic.h ****   if (hi < v) return hi;
 2556              		.loc 5 30 0
 2557 0df4 01007EE3 		cmn	lr, #1
 2558              	.LBE983:
 2559              	.LBE982:
 111:C:/Renesas/e2studio_2021_01_workspace_RZA2M_ANPR/ANPR_RZA2M_EBK/src/tensorflow_lite/tensorflow/lite/kernels/internal\strided_slice_logic.h ****   }
 2560              		.loc 5 111 0
 2561 0df8 2CE08DE5 		str	lr, [sp, #44]
 2562              	.LVL295:
 2563              	.LBB987:
 2564              	.LBB984:
  30:C:/Renesas/e2studio_2021_01_workspace_RZA2M_ANPR/ANPR_RZA2M_EBK/src/tensorflow_lite/tensorflow/lite/kernels/internal\strided_slice_logic.h ****   if (hi < v) return hi;
 2565              		.loc 5 30 0
 2566 0dfc 070000BA 		blt	.L530
  31:C:/Renesas/e2studio_2021_01_workspace_RZA2M_ANPR/ANPR_RZA2M_EBK/src/tensorflow_lite/tensorflow/lite/kernels/internal\strided_slice_logic.h ****   if (v < lo) return lo;
 2567              		.loc 5 31 0
 2568 0e00 0E0053E1 		cmp	r3, lr
 2569 0e04 C33F83D1 		orrle	r3, r3, r3, asr #31
 2570              	.LVL296:
 2571 0e08 2C308DD5 		strle	r3, [sp, #44]
 2572 0e0c 41FEFFEA 		b	.L64
 2573              	.LVL297:
 2574              	.L1068:
 2575              	.LBE984:
 2576              	.LBE987:
 111:C:/Renesas/e2studio_2021_01_workspace_RZA2M_ANPR/ANPR_RZA2M_EBK/src/tensorflow_lite/tensorflow/lite/kernels/internal\strided_slice_logic.h ****   }
 2577              		.loc 5 111 0
 2578 0e10 013042E2 		sub	r3, r2, #1
 2579              	.LBB988:
 2580              	.LBB985:
  30:C:/Renesas/e2studio_2021_01_workspace_RZA2M_ANPR/ANPR_RZA2M_EBK/src/tensorflow_lite/tensorflow/lite/kernels/internal\strided_slice_logic.h ****   if (hi < v) return hi;
 2581              		.loc 5 30 0
 2582 0e14 010073E3 		cmn	r3, #1
 2583              	.LBE985:
 2584              	.LBE988:
 111:C:/Renesas/e2studio_2021_01_workspace_RZA2M_ANPR/ANPR_RZA2M_EBK/src/tensorflow_lite/tensorflow/lite/kernels/internal\strided_slice_logic.h ****   }
 2585              		.loc 5 111 0
 2586 0e18 2C308DE5 		str	r3, [sp, #44]
 2587              	.LVL298:
 2588              	.LBB989:
 2589              	.LBB986:
  30:C:/Renesas/e2studio_2021_01_workspace_RZA2M_ANPR/ANPR_RZA2M_EBK/src/tensorflow_lite/tensorflow/lite/kernels/internal\strided_slice_logic.h ****   if (hi < v) return hi;
 2590              		.loc 5 30 0
 2591 0e1c 3DFEFFAA 		bge	.L64
 2592              	.LVL299:
 2593              	.L530:
 2594 0e20 FEFFFFEB 		bl	abort
 2595              	.LVL300:
 2596              	.L1069:
 2597              	.LBE986:
 2598              	.LBE989:
 2599              	.LBB990:
 2600              	.LBB981:
 2601 0e24 FEFFFFEB 		bl	abort
 2602              	.LVL301:
 2603              	.L1096:
 2604              	.LBE981:
 2605              	.LBE990:
 2606              	.LBE992:
 2607              	.LBE1192:
 2608              	.LBB1193:
 2609              	.LBB1006:
 2610              	.LBB1004:
 2611              	.LBB1003:
 2612 0e28 FEFFFFEB 		bl	abort
 2613              	.LVL302:
 2614              	.L57:
 2615              	.LBE1003:
 2616              	.LBE1004:
 2617              	.LBE1006:
 2618              	.LBE1193:
 2619              	.LBB1194:
 2620              	.LBB993:
 101:C:/Renesas/e2studio_2021_01_workspace_RZA2M_ANPR/ANPR_RZA2M_EBK/src/tensorflow_lite/tensorflow/lite/kernels/internal\strided_slice_logic.h ****     start += axis_size;
 2621              		.loc 5 101 0
 2622 0e2c 000053E3 		cmp	r3, #0
 2623 0e30 30FEFFAA 		bge	.L61
 2624 0e34 2EFEFFEA 		b	.L58
 2625              	.LVL303:
 2626              	.L549:
  82:C:/Renesas/e2studio_2021_01_workspace_RZA2M_ANPR/ANPR_RZA2M_EBK/src/tensorflow_lite/tensorflow/lite/kernels/internal\strided_slice_logic.h ****   }
 2627              		.loc 5 82 0
 2628 0e38 2C208DE5 		str	r2, [sp, #44]
 2629              	.LBE993:
 2630              	.LBE1194:
 2631              	.LBB1195:
 2632              	.LBB1007:
 131:C:/Renesas/e2studio_2021_01_workspace_RZA2M_ANPR/ANPR_RZA2M_EBK/src/tensorflow_lite/tensorflow/lite/kernels/internal\strided_slice_logic.h ****   }
 2633              		.loc 5 131 0
 2634 0e3c 02E0A0E1 		mov	lr, r2
 2635 0e40 42FEFFEA 		b	.L56
 2636              	.LVL304:
 2637              	.L1067:
 2638              	.LBE1007:
 2639              	.LBE1195:
 2640              	.LBB1196:
 2641              	.LBB994:
 2642              	.LBB991:
 2643              	.LBB978:
 215:C:/Renesas/e2studio_2021_01_workspace_RZA2M_ANPR/ANPR_RZA2M_EBK/src/tensorflow_lite/tensorflow/lite/kernels/internal\types.h ****     return size_ > kMaxSmallSize ? dims_pointer_[i] : dims_[i];
 2644              		.loc 4 215 0
 2645 0e44 FEFFFFEB 		bl	abort
 2646              	.LVL305:
 2647              	.L1066:
 2648              	.LBE978:
 2649              	.LBE991:
 2650              	.LBE994:
 2651              	.LBE1196:
 2652              	.LBB1197:
 2653              	.LBB972:
 2654              	.LBB967:
 2655              	.LBB966:
  30:C:/Renesas/e2studio_2021_01_workspace_RZA2M_ANPR/ANPR_RZA2M_EBK/src/tensorflow_lite/tensorflow/lite/kernels/internal\strided_slice_logic.h ****   if (hi < v) return hi;
 2656              		.loc 5 30 0
 2657 0e48 FEFFFFEB 		bl	abort
 2658              	.LVL306:
 2659              	.L46:
 2660              	.LBE966:
 2661              	.LBE967:
 159:C:/Renesas/e2studio_2021_01_workspace_RZA2M_ANPR/ANPR_RZA2M_EBK/src/tensorflow_lite/tensorflow/lite/kernels/internal\strided_slice_logic.h ****     stop += axis_size;
 2662              		.loc 5 159 0
 2663 0e4c 000053E3 		cmp	r3, #0
 2664 0e50 000000AA 		bge	.L49
 2665              	.LVL307:
 2666              	.L48:
 160:C:/Renesas/e2studio_2021_01_workspace_RZA2M_ANPR/ANPR_RZA2M_EBK/src/tensorflow_lite/tensorflow/lite/kernels/internal\strided_slice_logic.h ****   }
 2667              		.loc 5 160 0
 2668 0e54 0C3083E0 		add	r3, r3, ip
 2669              	.LVL308:
 2670              	.L49:
 166:C:/Renesas/e2studio_2021_01_workspace_RZA2M_ANPR/ANPR_RZA2M_EBK/src/tensorflow_lite/tensorflow/lite/kernels/internal\strided_slice_logic.h ****     // Forward iteration
 2671              		.loc 5 166 0
 2672 0e58 000052E3 		cmp	r2, #0
 2673 0e5c 10FEFFCA 		bgt	.L47
 171:C:/Renesas/e2studio_2021_01_workspace_RZA2M_ANPR/ANPR_RZA2M_EBK/src/tensorflow_lite/tensorflow/lite/kernels/internal\strided_slice_logic.h ****   }
 2674              		.loc 5 171 0
 2675 0e60 01C04CE2 		sub	ip, ip, #1
 2676              	.LVL309:
 2677              	.LBB968:
 2678              	.LBB969:
  30:C:/Renesas/e2studio_2021_01_workspace_RZA2M_ANPR/ANPR_RZA2M_EBK/src/tensorflow_lite/tensorflow/lite/kernels/internal\strided_slice_logic.h ****   if (hi < v) return hi;
 2679              		.loc 5 30 0
 2680 0e64 01007CE3 		cmn	ip, #1
 2681 0e68 050000BA 		blt	.L1097
  31:C:/Renesas/e2studio_2021_01_workspace_RZA2M_ANPR/ANPR_RZA2M_EBK/src/tensorflow_lite/tensorflow/lite/kernels/internal\strided_slice_logic.h ****   if (v < lo) return lo;
 2682              		.loc 5 31 0
 2683 0e6c 0C0053E1 		cmp	r3, ip
 2684 0e70 C3CF83D1 		orrle	ip, r3, r3, asr #31
 2685              	.LVL310:
 2686 0e74 0EFEFFEA 		b	.L36
 2687              	.LVL311:
 2688              	.L1065:
 2689              	.LBE969:
 2690              	.LBE968:
 143:C:/Renesas/e2studio_2021_01_workspace_RZA2M_ANPR/ANPR_RZA2M_EBK/src/tensorflow_lite/tensorflow/lite/kernels/internal\strided_slice_logic.h ****   }
 2691              		.loc 5 143 0
 2692 0e78 01C081E2 		add	ip, r1, #1
 2693 0e7c 0CFEFFEA 		b	.L36
 2694              	.LVL312:
 2695              	.L1064:
 2696              	.LBE972:
 2697              	.LBE1197:
 2698              	.LBB1198:
 2699              	.LBB956:
 2700              	.LBB948:
 2701              	.LBB947:
  30:C:/Renesas/e2studio_2021_01_workspace_RZA2M_ANPR/ANPR_RZA2M_EBK/src/tensorflow_lite/tensorflow/lite/kernels/internal\strided_slice_logic.h ****   if (hi < v) return hi;
 2702              		.loc 5 30 0
 2703 0e80 FEFFFFEB 		bl	abort
 2704              	.LVL313:
 2705              	.L1097:
 2706              	.LBE947:
 2707              	.LBE948:
 2708              	.LBE956:
 2709              	.LBE1198:
 2710              	.LBB1199:
 2711              	.LBB973:
 2712              	.LBB971:
 2713              	.LBB970:
 2714 0e84 FEFFFFEB 		bl	abort
 2715              	.LVL314:
 2716              	.L42:
 2717              	.LBE970:
 2718              	.LBE971:
 2719              	.LBE973:
 2720              	.LBE1199:
 2721              	.LBB1200:
 2722              	.LBB957:
 111:C:/Renesas/e2studio_2021_01_workspace_RZA2M_ANPR/ANPR_RZA2M_EBK/src/tensorflow_lite/tensorflow/lite/kernels/internal\strided_slice_logic.h ****   }
 2723              		.loc 5 111 0
 2724 0e88 01104CE2 		sub	r1, ip, #1
 2725              	.LVL315:
 2726              	.LBB949:
 2727              	.LBB950:
  30:C:/Renesas/e2studio_2021_01_workspace_RZA2M_ANPR/ANPR_RZA2M_EBK/src/tensorflow_lite/tensorflow/lite/kernels/internal\strided_slice_logic.h ****   if (hi < v) return hi;
 2728              		.loc 5 30 0
 2729 0e8c 010071E3 		cmn	r1, #1
 2730 0e90 050000BA 		blt	.L529
  31:C:/Renesas/e2studio_2021_01_workspace_RZA2M_ANPR/ANPR_RZA2M_EBK/src/tensorflow_lite/tensorflow/lite/kernels/internal\strided_slice_logic.h ****   if (v < lo) return lo;
 2731              		.loc 5 31 0
 2732 0e94 010053E1 		cmp	r3, r1
 2733 0e98 C31F83D1 		orrle	r1, r3, r3, asr #31
 2734              	.LVL316:
 2735 0e9c F7FDFFEA 		b	.L44
 2736              	.LVL317:
 2737              	.L1063:
 2738              	.LBE950:
 2739              	.LBE949:
 111:C:/Renesas/e2studio_2021_01_workspace_RZA2M_ANPR/ANPR_RZA2M_EBK/src/tensorflow_lite/tensorflow/lite/kernels/internal\strided_slice_logic.h ****   }
 2740              		.loc 5 111 0
 2741 0ea0 01104CE2 		sub	r1, ip, #1
 2742              	.LVL318:
 2743              	.LBB952:
 2744              	.LBB951:
  30:C:/Renesas/e2studio_2021_01_workspace_RZA2M_ANPR/ANPR_RZA2M_EBK/src/tensorflow_lite/tensorflow/lite/kernels/internal\strided_slice_logic.h ****   if (hi < v) return hi;
 2745              		.loc 5 30 0
 2746 0ea4 010071E3 		cmn	r1, #1
 2747 0ea8 F4FDFFAA 		bge	.L44
 2748              	.LVL319:
 2749              	.L529:
 2750 0eac FEFFFFEB 		bl	abort
 2751              	.LVL320:
 2752              	.L37:
 2753              	.LBE951:
 2754              	.LBE952:
 101:C:/Renesas/e2studio_2021_01_workspace_RZA2M_ANPR/ANPR_RZA2M_EBK/src/tensorflow_lite/tensorflow/lite/kernels/internal\strided_slice_logic.h ****     start += axis_size;
 2755              		.loc 5 101 0
 2756 0eb0 000053E3 		cmp	r3, #0
 2757 0eb4 EAFDFFAA 		bge	.L41
 2758 0eb8 E8FDFFEA 		b	.L38
 2759              	.LVL321:
 2760              	.L544:
  82:C:/Renesas/e2studio_2021_01_workspace_RZA2M_ANPR/ANPR_RZA2M_EBK/src/tensorflow_lite/tensorflow/lite/kernels/internal\strided_slice_logic.h ****   }
 2761              		.loc 5 82 0
 2762 0ebc 0C10A0E1 		mov	r1, ip
 2763 0ec0 FBFDFFEA 		b	.L36
 2764              	.LVL322:
 2765              	.L1062:
 2766              	.LBB953:
 2767              	.LBB942:
 215:C:/Renesas/e2studio_2021_01_workspace_RZA2M_ANPR/ANPR_RZA2M_EBK/src/tensorflow_lite/tensorflow/lite/kernels/internal\types.h ****     return size_ > kMaxSmallSize ? dims_pointer_[i] : dims_[i];
 2768              		.loc 4 215 0
 2769 0ec4 FEFFFFEB 		bl	abort
 2770              	.LVL323:
 2771              	.L1061:
 2772              	.LBE942:
 2773              	.LBE953:
 2774              	.LBE957:
 2775              	.LBE1200:
 2776              	.LBB1201:
 2777              	.LBB935:
  42:C:/Renesas/e2studio_2021_01_workspace_RZA2M_ANPR/ANPR_RZA2M_EBK/src/tensorflow_lite/tensorflow/lite/kernels/internal\strided_slice_logic.h **** 
 2778              		.loc 5 42 0
 2779 0ec8 FEFFFFEB 		bl	abort
 2780              	.LVL324:
 2781              	.L1060:
  41:C:/Renesas/e2studio_2021_01_workspace_RZA2M_ANPR/ANPR_RZA2M_EBK/src/tensorflow_lite/tensorflow/lite/kernels/internal\strided_slice_logic.h ****   TFLITE_CHECK_EQ(p->stop_indices_count, p->strides_count);
 2782              		.loc 5 41 0
 2783 0ecc FEFFFFEB 		bl	abort
 2784              	.LVL325:
 2785              	.L1059:
  40:C:/Renesas/e2studio_2021_01_workspace_RZA2M_ANPR/ANPR_RZA2M_EBK/src/tensorflow_lite/tensorflow/lite/kernels/internal\strided_slice_logic.h ****   TFLITE_CHECK_EQ(p->start_indices_count, p->stop_indices_count);
 2786              		.loc 5 40 0
 2787 0ed0 FEFFFFEB 		bl	abort
 2788              	.LVL326:
 2789              	.LEHE16:
 2790              	.L1058:
 2791              	.LEHB17:
 2792              	.LBE935:
 2793              	.LBE1201:
 2794              	.LBE1224:
 2795              	.LBE1229:
 2796              	.LBE1234:
 2797              	.LBE1997:
 2798              	.LBB1998:
 2799              	.LBB1980:
 2800              	.LBB1976:
 2801              	.LBB1972:
  44:C:/Renesas/e2studio_2021_01_workspace_RZA2M_ANPR/ANPR_RZA2M_EBK/src/tensorflow_lite/tensorflow/lite/kernels/internal/reference\strided_slice.h ****   const RuntimeShape input_shape =
 2802              		.loc 3 44 0
 2803 0ed4 FEFFFFEB 		bl	abort
 2804              	.LVL327:
 2805              	.L1057:
  43:C:/Renesas/e2studio_2021_01_workspace_RZA2M_ANPR/ANPR_RZA2M_EBK/src/tensorflow_lite/tensorflow/lite/kernels/internal/reference\strided_slice.h ****   TFLITE_DCHECK_LE(unextended_output_shape.DimensionsCount(), 5);
 2806              		.loc 3 43 0
 2807 0ed8 FEFFFFEB 		bl	abort
 2808              	.LVL328:
 2809              	.LEHE17:
 2810              	.L623:
 2811 0edc 06FDFFEA 		b	.L497
 2812              	.LVL329:
 2813              	.L1056:
 2814              	.LEHB18:
 2815              	.LBE1972:
 2816              	.LBE1976:
 2817              	.LBE1980:
 2818              	.LBE1998:
 2819              	.LBB1999:
 2820              	.LBB1626:
  62:C:/Renesas/e2studio_2021_01_workspace_RZA2M_ANPR/ANPR_RZA2M_EBK/src/tensorflow_lite/tensorflow/lite/micro/kernels\kernel_util.h ****   return reinterpret_cast<const T*>(tensor->data.raw);
 2821              		.loc 2 62 0
 2822 0ee0 FEFFFFEB 		bl	abort
 2823              	.LVL330:
 2824              	.LEHE18:
 2825              	.L628:
 2826 0ee4 FDFCFFEA 		b	.L489
 2827              	.LVL331:
 2828              	.L181:
 2829              	.LBE1626:
 2830              	.LBE1999:
 2831              	.LBB2000:
 2832              	.LBB1981:
 2833              	.LBB1977:
 2834              	.LBB1973:
 2835              	.LBB1655:
 2836              	.LBB1654:
 2837              	.LBB1653:
 2838              	.LBB1652:
 2839              		.loc 4 315 0
 2840 0ee8 C8308DE2 		add	r3, sp, #200
 2841 0eec 0221A0E1 		lsl	r2, r2, #2
 2842 0ef0 000183E0 		add	r0, r3, r0, lsl #2
 2843              	.LVL332:
 2844 0ef4 98108DE2 		add	r1, sp, #152
 2845 0ef8 FEFFFFEB 		bl	memcpy
 2846              	.LVL333:
 2847              	.LBE1652:
 2848              	.LBE1653:
 2849              	.LBE1654:
 2850              	.LBE1655:
 2851              	.LBB1656:
 2852              	.LBB1657:
 2853              	.LBB1658:
 2854              	.LBB1659:
 2855              	.LBB1660:
 311:C:/Renesas/e2studio_2021_01_workspace_RZA2M_ANPR/ANPR_RZA2M_EBK/src/tensorflow_lite/tensorflow/lite/kernels/internal\types.h ****       SetDim(i, pad_value);
 2856              		.loc 4 311 0
 2857 0efc 050078E2 		rsbs	r0, r8, #5
 2858              	.LBE1660:
 2859              	.LBB1673:
 2860              	.LBB1674:
 245:C:/Renesas/e2studio_2021_01_workspace_RZA2M_ANPR/ANPR_RZA2M_EBK/src/tensorflow_lite/tensorflow/lite/kernels/internal\types.h ****     if (dimensions_count > kMaxSmallSize) {
 2861              		.loc 4 245 0
 2862 0f00 0530A0E3 		mov	r3, #5
 2863 0f04 DC308DE5 		str	r3, [sp, #220]
 2864              	.LVL334:
 2865              	.LBE1674:
 2866              	.LBE1673:
 2867              	.LBB1675:
 311:C:/Renesas/e2studio_2021_01_workspace_RZA2M_ANPR/ANPR_RZA2M_EBK/src/tensorflow_lite/tensorflow/lite/kernels/internal\types.h ****       SetDim(i, pad_value);
 2868              		.loc 4 311 0
 2869 0f08 7303000A 		beq	.L179
 2870              	.LVL335:
 2871 0f0c 010050E3 		cmp	r0, #1
 2872              	.LBB1661:
 2873              	.LBB1662:
 224:C:/Renesas/e2studio_2021_01_workspace_RZA2M_ANPR/ANPR_RZA2M_EBK/src/tensorflow_lite/tensorflow/lite/kernels/internal\types.h ****     }
 2874              		.loc 4 224 0
 2875 0f10 0130A0E3 		mov	r3, #1
 2876 0f14 E0308DE5 		str	r3, [sp, #224]
 2877              	.LVL336:
 2878              	.LBE1662:
 2879              	.LBE1661:
 311:C:/Renesas/e2studio_2021_01_workspace_RZA2M_ANPR/ANPR_RZA2M_EBK/src/tensorflow_lite/tensorflow/lite/kernels/internal\types.h ****       SetDim(i, pad_value);
 2880              		.loc 4 311 0
 2881 0f18 6F03000A 		beq	.L179
 2882              	.LVL337:
 2883 0f1c 020050E3 		cmp	r0, #2
 2884              	.LBB1668:
 2885              	.LBB1663:
 224:C:/Renesas/e2studio_2021_01_workspace_RZA2M_ANPR/ANPR_RZA2M_EBK/src/tensorflow_lite/tensorflow/lite/kernels/internal\types.h ****     }
 2886              		.loc 4 224 0
 2887 0f20 E4308DE5 		str	r3, [sp, #228]
 2888              	.LVL338:
 2889              	.LBE1663:
 2890              	.LBE1668:
 311:C:/Renesas/e2studio_2021_01_workspace_RZA2M_ANPR/ANPR_RZA2M_EBK/src/tensorflow_lite/tensorflow/lite/kernels/internal\types.h ****       SetDim(i, pad_value);
 2891              		.loc 4 311 0
 2892 0f24 6C03000A 		beq	.L179
 2893              	.LVL339:
 2894 0f28 030050E3 		cmp	r0, #3
 2895              	.LBB1669:
 2896              	.LBB1664:
 224:C:/Renesas/e2studio_2021_01_workspace_RZA2M_ANPR/ANPR_RZA2M_EBK/src/tensorflow_lite/tensorflow/lite/kernels/internal\types.h ****     }
 2897              		.loc 4 224 0
 2898 0f2c E8308DE5 		str	r3, [sp, #232]
 2899              	.LVL340:
 2900              	.LBE1664:
 2901              	.LBE1669:
 311:C:/Renesas/e2studio_2021_01_workspace_RZA2M_ANPR/ANPR_RZA2M_EBK/src/tensorflow_lite/tensorflow/lite/kernels/internal\types.h ****       SetDim(i, pad_value);
 2902              		.loc 4 311 0
 2903 0f30 6903000A 		beq	.L179
 2904              	.LVL341:
 2905 0f34 040050E3 		cmp	r0, #4
 2906              	.LBB1670:
 2907              	.LBB1665:
 224:C:/Renesas/e2studio_2021_01_workspace_RZA2M_ANPR/ANPR_RZA2M_EBK/src/tensorflow_lite/tensorflow/lite/kernels/internal\types.h ****     }
 2908              		.loc 4 224 0
 2909 0f38 EC308DE5 		str	r3, [sp, #236]
 2910              	.LVL342:
 2911              	.LBE1665:
 2912              	.LBE1670:
 311:C:/Renesas/e2studio_2021_01_workspace_RZA2M_ANPR/ANPR_RZA2M_EBK/src/tensorflow_lite/tensorflow/lite/kernels/internal\types.h ****       SetDim(i, pad_value);
 2913              		.loc 4 311 0
 2914 0f3c 6603000A 		beq	.L179
 2915              	.LVL343:
 2916 0f40 050050E3 		cmp	r0, #5
 2917              	.LBB1671:
 2918              	.LBB1666:
 224:C:/Renesas/e2studio_2021_01_workspace_RZA2M_ANPR/ANPR_RZA2M_EBK/src/tensorflow_lite/tensorflow/lite/kernels/internal\types.h ****     }
 2919              		.loc 4 224 0
 2920 0f44 F0308DE5 		str	r3, [sp, #240]
 2921              	.LVL344:
 2922              	.LBE1666:
 2923              	.LBE1671:
 311:C:/Renesas/e2studio_2021_01_workspace_RZA2M_ANPR/ANPR_RZA2M_EBK/src/tensorflow_lite/tensorflow/lite/kernels/internal\types.h ****       SetDim(i, pad_value);
 2924              		.loc 4 311 0
 2925 0f48 6303000A 		beq	.L179
 2926              	.LVL345:
 2927              	.LEHB19:
 2928              	.LBB1672:
 2929              	.LBB1667:
 220:C:/Renesas/e2studio_2021_01_workspace_RZA2M_ANPR/ANPR_RZA2M_EBK/src/tensorflow_lite/tensorflow/lite/kernels/internal\types.h ****     if (size_ > kMaxSmallSize) {
 2930              		.loc 4 220 0
 2931 0f4c FEFFFFEB 		bl	abort
 2932              	.LVL346:
 2933              	.LEHE19:
 2934              	.L632:
 2935 0f50 2EFDFFEA 		b	.L487
 2936              	.LVL347:
 2937              	.L338:
 2938              	.LBE1667:
 2939              	.LBE1672:
 2940              	.LBE1675:
 2941              	.LBE1659:
 2942              	.LBE1658:
 2943              	.LBE1657:
 2944              	.LBE1656:
 2945              	.LBE1973:
 2946              	.LBE1977:
 2947              	.LBE1981:
 2948              	.LBE2000:
 2949              	.LBB2001:
 2950              	.LBB1616:
 2951              	.LBB1608:
 2952              	.LBB1600:
 2953              	.LBB1299:
 2954              	.LBB1294:
 2955              	.LBB1293:
 2956              	.LBB1292:
 2957              		.loc 4 315 0
 2958 0f54 E0308DE2 		add	r3, sp, #224
 2959 0f58 0821A0E1 		lsl	r2, r8, #2
 2960 0f5c 000183E0 		add	r0, r3, r0, lsl #2
 2961              	.LVL348:
 2962 0f60 B0108DE2 		add	r1, sp, #176
 2963 0f64 FEFFFFEB 		bl	memcpy
 2964              	.LVL349:
 2965              	.LBE1292:
 2966              	.LBE1293:
 2967              	.LBE1294:
 2968              	.LBE1299:
 2969              	.LBB1300:
 2970              	.LBB1301:
  40:C:/Renesas/e2studio_2021_01_workspace_RZA2M_ANPR/ANPR_RZA2M_EBK/src/tensorflow_lite/tensorflow/lite/kernels/internal\strided_slice_logic.h ****   TFLITE_CHECK_EQ(p->start_indices_count, p->stop_indices_count);
 2971              		.loc 5 40 0
 2972 0f68 050056E3 		cmp	r6, #5
 2973 0f6c 580300CA 		bgt	.L1098
  41:C:/Renesas/e2studio_2021_01_workspace_RZA2M_ANPR/ANPR_RZA2M_EBK/src/tensorflow_lite/tensorflow/lite/kernels/internal\strided_slice_logic.h ****   TFLITE_CHECK_EQ(p->stop_indices_count, p->strides_count);
 2974              		.loc 5 41 0
 2975 0f70 060055E1 		cmp	r5, r6
 2976 0f74 5503001A 		bne	.L1099
  42:C:/Renesas/e2studio_2021_01_workspace_RZA2M_ANPR/ANPR_RZA2M_EBK/src/tensorflow_lite/tensorflow/lite/kernels/internal\strided_slice_logic.h **** 
 2977              		.loc 5 42 0
 2978 0f78 090055E1 		cmp	r5, r9
 2979 0f7c 5203001A 		bne	.L1100
 2980              	.LBB1302:
  47:C:/Renesas/e2studio_2021_01_workspace_RZA2M_ANPR/ANPR_RZA2M_EBK/src/tensorflow_lite/tensorflow/lite/kernels/internal\strided_slice_logic.h ****     p->strides[i + pad_count] = p->strides[i];
 2981              		.loc 5 47 0
 2982 0f80 012055E2 		subs	r2, r5, #1
 2983              	.LBE1302:
  44:C:/Renesas/e2studio_2021_01_workspace_RZA2M_ANPR/ANPR_RZA2M_EBK/src/tensorflow_lite/tensorflow/lite/kernels/internal\strided_slice_logic.h **** 
 2984              		.loc 5 44 0
 2985 0f84 059065E2 		rsb	r9, r5, #5
 2986              	.LVL350:
 2987              	.LBB1303:
  47:C:/Renesas/e2studio_2021_01_workspace_RZA2M_ANPR/ANPR_RZA2M_EBK/src/tensorflow_lite/tensorflow/lite/kernels/internal\strided_slice_logic.h ****     p->strides[i + pad_count] = p->strides[i];
 2988              		.loc 5 47 0
 2989 0f88 4900004A 		bmi	.L351
  49:C:/Renesas/e2studio_2021_01_workspace_RZA2M_ANPR/ANPR_RZA2M_EBK/src/tensorflow_lite/tensorflow/lite/kernels/internal\strided_slice_logic.h ****     p->stop_indices[i + pad_count] = p->stop_indices[i];
 2990              		.loc 5 49 0
 2991 0f8c 523F8DE2 		add	r3, sp, #328
 2992 0f90 021183E0 		add	r1, r3, r2, lsl #2
  48:C:/Renesas/e2studio_2021_01_workspace_RZA2M_ANPR/ANPR_RZA2M_EBK/src/tensorflow_lite/tensorflow/lite/kernels/internal\strided_slice_logic.h ****     p->start_indices[i + pad_count] = p->start_indices[i];
 2993              		.loc 5 48 0
 2994 0f94 053183E0 		add	r3, r3, r5, lsl #2
 2995 0f98 022089E0 		add	r2, r9, r2
 2996              	.LVL351:
 2997 0f9c 240013E5 		ldr	r0, [r3, #-36]
 2998 0fa0 523F8DE2 		add	r3, sp, #328
  49:C:/Renesas/e2studio_2021_01_workspace_RZA2M_ANPR/ANPR_RZA2M_EBK/src/tensorflow_lite/tensorflow/lite/kernels/internal\strided_slice_logic.h ****     p->stop_indices[i + pad_count] = p->stop_indices[i];
 2999              		.loc 5 49 0
 3000 0fa4 50C011E5 		ldr	ip, [r1, #-80]
  48:C:/Renesas/e2studio_2021_01_workspace_RZA2M_ANPR/ANPR_RZA2M_EBK/src/tensorflow_lite/tensorflow/lite/kernels/internal\strided_slice_logic.h ****     p->start_indices[i + pad_count] = p->start_indices[i];
 3001              		.loc 5 48 0
 3002 0fa8 02E183E0 		add	lr, r3, r2, lsl #2
  50:C:/Renesas/e2studio_2021_01_workspace_RZA2M_ANPR/ANPR_RZA2M_EBK/src/tensorflow_lite/tensorflow/lite/kernels/internal\strided_slice_logic.h ****   }
 3003              		.loc 5 50 0
 3004 0fac 053183E0 		add	r3, r3, r5, lsl #2
 3005 0fb0 3C1013E5 		ldr	r1, [r3, #-60]
  47:C:/Renesas/e2studio_2021_01_workspace_RZA2M_ANPR/ANPR_RZA2M_EBK/src/tensorflow_lite/tensorflow/lite/kernels/internal\strided_slice_logic.h ****     p->strides[i + pad_count] = p->strides[i];
 3006              		.loc 5 47 0
 3007 0fb4 023045E2 		sub	r3, r5, #2
 3008              	.LVL352:
 3009 0fb8 010073E3 		cmn	r3, #1
  48:C:/Renesas/e2studio_2021_01_workspace_RZA2M_ANPR/ANPR_RZA2M_EBK/src/tensorflow_lite/tensorflow/lite/kernels/internal\strided_slice_logic.h ****     p->start_indices[i + pad_count] = p->start_indices[i];
 3010              		.loc 5 48 0
 3011 0fbc 20000EE5 		str	r0, [lr, #-32]
  49:C:/Renesas/e2studio_2021_01_workspace_RZA2M_ANPR/ANPR_RZA2M_EBK/src/tensorflow_lite/tensorflow/lite/kernels/internal\strided_slice_logic.h ****     p->stop_indices[i + pad_count] = p->stop_indices[i];
 3012              		.loc 5 49 0
 3013 0fc0 0E00A0E1 		mov	r0, lr
  50:C:/Renesas/e2studio_2021_01_workspace_RZA2M_ANPR/ANPR_RZA2M_EBK/src/tensorflow_lite/tensorflow/lite/kernels/internal\strided_slice_logic.h ****   }
 3014              		.loc 5 50 0
 3015 0fc4 52EF8DE2 		add	lr, sp, #328
  49:C:/Renesas/e2studio_2021_01_workspace_RZA2M_ANPR/ANPR_RZA2M_EBK/src/tensorflow_lite/tensorflow/lite/kernels/internal\strided_slice_logic.h ****     p->stop_indices[i + pad_count] = p->stop_indices[i];
 3016              		.loc 5 49 0
 3017 0fc8 50C000E5 		str	ip, [r0, #-80]
  50:C:/Renesas/e2studio_2021_01_workspace_RZA2M_ANPR/ANPR_RZA2M_EBK/src/tensorflow_lite/tensorflow/lite/kernels/internal\strided_slice_logic.h ****   }
 3018              		.loc 5 50 0
 3019 0fcc 381000E5 		str	r1, [r0, #-56]
  47:C:/Renesas/e2studio_2021_01_workspace_RZA2M_ANPR/ANPR_RZA2M_EBK/src/tensorflow_lite/tensorflow/lite/kernels/internal\strided_slice_logic.h ****     p->strides[i + pad_count] = p->strides[i];
 3020              		.loc 5 47 0
 3021 0fd0 3700000A 		beq	.L351
  48:C:/Renesas/e2studio_2021_01_workspace_RZA2M_ANPR/ANPR_RZA2M_EBK/src/tensorflow_lite/tensorflow/lite/kernels/internal\strided_slice_logic.h ****     p->start_indices[i + pad_count] = p->start_indices[i];
 3022              		.loc 5 48 0
 3023 0fd4 05218EE0 		add	r2, lr, r5, lsl #2
  49:C:/Renesas/e2studio_2021_01_workspace_RZA2M_ANPR/ANPR_RZA2M_EBK/src/tensorflow_lite/tensorflow/lite/kernels/internal\strided_slice_logic.h ****     p->stop_indices[i + pad_count] = p->stop_indices[i];
 3024              		.loc 5 49 0
 3025 0fd8 03118EE0 		add	r1, lr, r3, lsl #2
  48:C:/Renesas/e2studio_2021_01_workspace_RZA2M_ANPR/ANPR_RZA2M_EBK/src/tensorflow_lite/tensorflow/lite/kernels/internal\strided_slice_logic.h ****     p->start_indices[i + pad_count] = p->start_indices[i];
 3026              		.loc 5 48 0
 3027 0fdc 280012E5 		ldr	r0, [r2, #-40]
 3028 0fe0 0E20A0E1 		mov	r2, lr
  50:C:/Renesas/e2studio_2021_01_workspace_RZA2M_ANPR/ANPR_RZA2M_EBK/src/tensorflow_lite/tensorflow/lite/kernels/internal\strided_slice_logic.h ****   }
 3029              		.loc 5 50 0
 3030 0fe4 052182E0 		add	r2, r2, r5, lsl #2
  48:C:/Renesas/e2studio_2021_01_workspace_RZA2M_ANPR/ANPR_RZA2M_EBK/src/tensorflow_lite/tensorflow/lite/kernels/internal\strided_slice_logic.h ****     p->start_indices[i + pad_count] = p->start_indices[i];
 3031              		.loc 5 48 0
 3032 0fe8 093083E0 		add	r3, r3, r9
 3033              	.LVL353:
  49:C:/Renesas/e2studio_2021_01_workspace_RZA2M_ANPR/ANPR_RZA2M_EBK/src/tensorflow_lite/tensorflow/lite/kernels/internal\strided_slice_logic.h ****     p->stop_indices[i + pad_count] = p->stop_indices[i];
 3034              		.loc 5 49 0
 3035 0fec 50C011E5 		ldr	ip, [r1, #-80]
  48:C:/Renesas/e2studio_2021_01_workspace_RZA2M_ANPR/ANPR_RZA2M_EBK/src/tensorflow_lite/tensorflow/lite/kernels/internal\strided_slice_logic.h ****     p->start_indices[i + pad_count] = p->start_indices[i];
 3036              		.loc 5 48 0
 3037 0ff0 03E18EE0 		add	lr, lr, r3, lsl #2
  50:C:/Renesas/e2studio_2021_01_workspace_RZA2M_ANPR/ANPR_RZA2M_EBK/src/tensorflow_lite/tensorflow/lite/kernels/internal\strided_slice_logic.h ****   }
 3038              		.loc 5 50 0
 3039 0ff4 401012E5 		ldr	r1, [r2, #-64]
  47:C:/Renesas/e2studio_2021_01_workspace_RZA2M_ANPR/ANPR_RZA2M_EBK/src/tensorflow_lite/tensorflow/lite/kernels/internal\strided_slice_logic.h ****     p->strides[i + pad_count] = p->strides[i];
 3040              		.loc 5 47 0
 3041 0ff8 032045E2 		sub	r2, r5, #3
 3042              	.LVL354:
 3043 0ffc 010072E3 		cmn	r2, #1
  48:C:/Renesas/e2studio_2021_01_workspace_RZA2M_ANPR/ANPR_RZA2M_EBK/src/tensorflow_lite/tensorflow/lite/kernels/internal\strided_slice_logic.h ****     p->start_indices[i + pad_count] = p->start_indices[i];
 3044              		.loc 5 48 0
 3045 1000 20000EE5 		str	r0, [lr, #-32]
  49:C:/Renesas/e2studio_2021_01_workspace_RZA2M_ANPR/ANPR_RZA2M_EBK/src/tensorflow_lite/tensorflow/lite/kernels/internal\strided_slice_logic.h ****     p->stop_indices[i + pad_count] = p->stop_indices[i];
 3046              		.loc 5 49 0
 3047 1004 0E00A0E1 		mov	r0, lr
  50:C:/Renesas/e2studio_2021_01_workspace_RZA2M_ANPR/ANPR_RZA2M_EBK/src/tensorflow_lite/tensorflow/lite/kernels/internal\strided_slice_logic.h ****   }
 3048              		.loc 5 50 0
 3049 1008 52EF8DE2 		add	lr, sp, #328
  49:C:/Renesas/e2studio_2021_01_workspace_RZA2M_ANPR/ANPR_RZA2M_EBK/src/tensorflow_lite/tensorflow/lite/kernels/internal\strided_slice_logic.h ****     p->stop_indices[i + pad_count] = p->stop_indices[i];
 3050              		.loc 5 49 0
 3051 100c 50C000E5 		str	ip, [r0, #-80]
  50:C:/Renesas/e2studio_2021_01_workspace_RZA2M_ANPR/ANPR_RZA2M_EBK/src/tensorflow_lite/tensorflow/lite/kernels/internal\strided_slice_logic.h ****   }
 3052              		.loc 5 50 0
 3053 1010 381000E5 		str	r1, [r0, #-56]
  47:C:/Renesas/e2studio_2021_01_workspace_RZA2M_ANPR/ANPR_RZA2M_EBK/src/tensorflow_lite/tensorflow/lite/kernels/internal\strided_slice_logic.h ****     p->strides[i + pad_count] = p->strides[i];
 3054              		.loc 5 47 0
 3055 1014 2600000A 		beq	.L351
  48:C:/Renesas/e2studio_2021_01_workspace_RZA2M_ANPR/ANPR_RZA2M_EBK/src/tensorflow_lite/tensorflow/lite/kernels/internal\strided_slice_logic.h ****     p->start_indices[i + pad_count] = p->start_indices[i];
 3056              		.loc 5 48 0
 3057 1018 05318EE0 		add	r3, lr, r5, lsl #2
  49:C:/Renesas/e2studio_2021_01_workspace_RZA2M_ANPR/ANPR_RZA2M_EBK/src/tensorflow_lite/tensorflow/lite/kernels/internal\strided_slice_logic.h ****     p->stop_indices[i + pad_count] = p->stop_indices[i];
 3058              		.loc 5 49 0
 3059 101c 02118EE0 		add	r1, lr, r2, lsl #2
  48:C:/Renesas/e2studio_2021_01_workspace_RZA2M_ANPR/ANPR_RZA2M_EBK/src/tensorflow_lite/tensorflow/lite/kernels/internal\strided_slice_logic.h ****     p->start_indices[i + pad_count] = p->start_indices[i];
 3060              		.loc 5 48 0
 3061 1020 2C0013E5 		ldr	r0, [r3, #-44]
 3062 1024 0E30A0E1 		mov	r3, lr
  50:C:/Renesas/e2studio_2021_01_workspace_RZA2M_ANPR/ANPR_RZA2M_EBK/src/tensorflow_lite/tensorflow/lite/kernels/internal\strided_slice_logic.h ****   }
 3063              		.loc 5 50 0
 3064 1028 053183E0 		add	r3, r3, r5, lsl #2
  48:C:/Renesas/e2studio_2021_01_workspace_RZA2M_ANPR/ANPR_RZA2M_EBK/src/tensorflow_lite/tensorflow/lite/kernels/internal\strided_slice_logic.h ****     p->start_indices[i + pad_count] = p->start_indices[i];
 3065              		.loc 5 48 0
 3066 102c 092082E0 		add	r2, r2, r9
 3067              	.LVL355:
  49:C:/Renesas/e2studio_2021_01_workspace_RZA2M_ANPR/ANPR_RZA2M_EBK/src/tensorflow_lite/tensorflow/lite/kernels/internal\strided_slice_logic.h ****     p->stop_indices[i + pad_count] = p->stop_indices[i];
 3068              		.loc 5 49 0
 3069 1030 50C011E5 		ldr	ip, [r1, #-80]
  48:C:/Renesas/e2studio_2021_01_workspace_RZA2M_ANPR/ANPR_RZA2M_EBK/src/tensorflow_lite/tensorflow/lite/kernels/internal\strided_slice_logic.h ****     p->start_indices[i + pad_count] = p->start_indices[i];
 3070              		.loc 5 48 0
 3071 1034 02E18EE0 		add	lr, lr, r2, lsl #2
  50:C:/Renesas/e2studio_2021_01_workspace_RZA2M_ANPR/ANPR_RZA2M_EBK/src/tensorflow_lite/tensorflow/lite/kernels/internal\strided_slice_logic.h ****   }
 3072              		.loc 5 50 0
 3073 1038 441013E5 		ldr	r1, [r3, #-68]
  47:C:/Renesas/e2studio_2021_01_workspace_RZA2M_ANPR/ANPR_RZA2M_EBK/src/tensorflow_lite/tensorflow/lite/kernels/internal\strided_slice_logic.h ****     p->strides[i + pad_count] = p->strides[i];
 3074              		.loc 5 47 0
 3075 103c 043045E2 		sub	r3, r5, #4
 3076              	.LVL356:
 3077 1040 010073E3 		cmn	r3, #1
  48:C:/Renesas/e2studio_2021_01_workspace_RZA2M_ANPR/ANPR_RZA2M_EBK/src/tensorflow_lite/tensorflow/lite/kernels/internal\strided_slice_logic.h ****     p->start_indices[i + pad_count] = p->start_indices[i];
 3078              		.loc 5 48 0
 3079 1044 20000EE5 		str	r0, [lr, #-32]
  49:C:/Renesas/e2studio_2021_01_workspace_RZA2M_ANPR/ANPR_RZA2M_EBK/src/tensorflow_lite/tensorflow/lite/kernels/internal\strided_slice_logic.h ****     p->stop_indices[i + pad_count] = p->stop_indices[i];
 3080              		.loc 5 49 0
 3081 1048 0E00A0E1 		mov	r0, lr
  50:C:/Renesas/e2studio_2021_01_workspace_RZA2M_ANPR/ANPR_RZA2M_EBK/src/tensorflow_lite/tensorflow/lite/kernels/internal\strided_slice_logic.h ****   }
 3082              		.loc 5 50 0
 3083 104c 52EF8DE2 		add	lr, sp, #328
  49:C:/Renesas/e2studio_2021_01_workspace_RZA2M_ANPR/ANPR_RZA2M_EBK/src/tensorflow_lite/tensorflow/lite/kernels/internal\strided_slice_logic.h ****     p->stop_indices[i + pad_count] = p->stop_indices[i];
 3084              		.loc 5 49 0
 3085 1050 50C000E5 		str	ip, [r0, #-80]
  50:C:/Renesas/e2studio_2021_01_workspace_RZA2M_ANPR/ANPR_RZA2M_EBK/src/tensorflow_lite/tensorflow/lite/kernels/internal\strided_slice_logic.h ****   }
 3086              		.loc 5 50 0
 3087 1054 381000E5 		str	r1, [r0, #-56]
  47:C:/Renesas/e2studio_2021_01_workspace_RZA2M_ANPR/ANPR_RZA2M_EBK/src/tensorflow_lite/tensorflow/lite/kernels/internal\strided_slice_logic.h ****     p->strides[i + pad_count] = p->strides[i];
 3088              		.loc 5 47 0
 3089 1058 1500000A 		beq	.L351
  48:C:/Renesas/e2studio_2021_01_workspace_RZA2M_ANPR/ANPR_RZA2M_EBK/src/tensorflow_lite/tensorflow/lite/kernels/internal\strided_slice_logic.h ****     p->start_indices[i + pad_count] = p->start_indices[i];
 3090              		.loc 5 48 0
 3091 105c 05018EE0 		add	r0, lr, r5, lsl #2
  49:C:/Renesas/e2studio_2021_01_workspace_RZA2M_ANPR/ANPR_RZA2M_EBK/src/tensorflow_lite/tensorflow/lite/kernels/internal\strided_slice_logic.h ****     p->stop_indices[i + pad_count] = p->stop_indices[i];
 3092              		.loc 5 49 0
 3093 1060 03118EE0 		add	r1, lr, r3, lsl #2
  48:C:/Renesas/e2studio_2021_01_workspace_RZA2M_ANPR/ANPR_RZA2M_EBK/src/tensorflow_lite/tensorflow/lite/kernels/internal\strided_slice_logic.h ****     p->start_indices[i + pad_count] = p->start_indices[i];
 3094              		.loc 5 48 0
 3095 1064 30C010E5 		ldr	ip, [r0, #-48]
 3096 1068 093083E0 		add	r3, r3, r9
 3097              	.LVL357:
  50:C:/Renesas/e2studio_2021_01_workspace_RZA2M_ANPR/ANPR_RZA2M_EBK/src/tensorflow_lite/tensorflow/lite/kernels/internal\strided_slice_logic.h ****   }
 3098              		.loc 5 50 0
 3099 106c 482010E5 		ldr	r2, [r0, #-72]
  48:C:/Renesas/e2studio_2021_01_workspace_RZA2M_ANPR/ANPR_RZA2M_EBK/src/tensorflow_lite/tensorflow/lite/kernels/internal\strided_slice_logic.h ****     p->start_indices[i + pad_count] = p->start_indices[i];
 3100              		.loc 5 48 0
 3101 1070 03E18EE0 		add	lr, lr, r3, lsl #2
  49:C:/Renesas/e2studio_2021_01_workspace_RZA2M_ANPR/ANPR_RZA2M_EBK/src/tensorflow_lite/tensorflow/lite/kernels/internal\strided_slice_logic.h ****     p->stop_indices[i + pad_count] = p->stop_indices[i];
 3102              		.loc 5 49 0
 3103 1074 500011E5 		ldr	r0, [r1, #-80]
  47:C:/Renesas/e2studio_2021_01_workspace_RZA2M_ANPR/ANPR_RZA2M_EBK/src/tensorflow_lite/tensorflow/lite/kernels/internal\strided_slice_logic.h ****     p->strides[i + pad_count] = p->strides[i];
 3104              		.loc 5 47 0
 3105 1078 040055E3 		cmp	r5, #4
  48:C:/Renesas/e2studio_2021_01_workspace_RZA2M_ANPR/ANPR_RZA2M_EBK/src/tensorflow_lite/tensorflow/lite/kernels/internal\strided_slice_logic.h ****     p->start_indices[i + pad_count] = p->start_indices[i];
 3106              		.loc 5 48 0
 3107 107c 20C00EE5 		str	ip, [lr, #-32]
  50:C:/Renesas/e2studio_2021_01_workspace_RZA2M_ANPR/ANPR_RZA2M_EBK/src/tensorflow_lite/tensorflow/lite/kernels/internal\strided_slice_logic.h ****   }
 3108              		.loc 5 50 0
 3109 1080 525F8DE2 		add	r5, sp, #328
 3110              	.LVL358:
 3111 1084 38200EE5 		str	r2, [lr, #-56]
  49:C:/Renesas/e2studio_2021_01_workspace_RZA2M_ANPR/ANPR_RZA2M_EBK/src/tensorflow_lite/tensorflow/lite/kernels/internal\strided_slice_logic.h ****     p->stop_indices[i + pad_count] = p->stop_indices[i];
 3112              		.loc 5 49 0
 3113 1088 50000EE5 		str	r0, [lr, #-80]
  47:C:/Renesas/e2studio_2021_01_workspace_RZA2M_ANPR/ANPR_RZA2M_EBK/src/tensorflow_lite/tensorflow/lite/kernels/internal\strided_slice_logic.h ****     p->strides[i + pad_count] = p->strides[i];
 3114              		.loc 5 47 0
 3115 108c 0800000A 		beq	.L351
 3116              	.LVL359:
  48:C:/Renesas/e2studio_2021_01_workspace_RZA2M_ANPR/ANPR_RZA2M_EBK/src/tensorflow_lite/tensorflow/lite/kernels/internal\strided_slice_logic.h ****     p->start_indices[i + pad_count] = p->start_indices[i];
 3117              		.loc 5 48 0
 3118 1090 28019DE5 		ldr	r0, [sp, #296]
 3119 1094 093185E0 		add	r3, r5, r9, lsl #2
  49:C:/Renesas/e2studio_2021_01_workspace_RZA2M_ANPR/ANPR_RZA2M_EBK/src/tensorflow_lite/tensorflow/lite/kernels/internal\strided_slice_logic.h ****     p->stop_indices[i + pad_count] = p->stop_indices[i];
 3120              		.loc 5 49 0
 3121 1098 F8109DE5 		ldr	r1, [sp, #248]
  50:C:/Renesas/e2studio_2021_01_workspace_RZA2M_ANPR/ANPR_RZA2M_EBK/src/tensorflow_lite/tensorflow/lite/kernels/internal\strided_slice_logic.h ****   }
 3122              		.loc 5 50 0
 3123 109c 10219DE5 		ldr	r2, [sp, #272]
  48:C:/Renesas/e2studio_2021_01_workspace_RZA2M_ANPR/ANPR_RZA2M_EBK/src/tensorflow_lite/tensorflow/lite/kernels/internal\strided_slice_logic.h ****     p->start_indices[i + pad_count] = p->start_indices[i];
 3124              		.loc 5 48 0
 3125 10a0 200003E5 		str	r0, [r3, #-32]
  49:C:/Renesas/e2studio_2021_01_workspace_RZA2M_ANPR/ANPR_RZA2M_EBK/src/tensorflow_lite/tensorflow/lite/kernels/internal\strided_slice_logic.h ****     p->stop_indices[i + pad_count] = p->stop_indices[i];
 3126              		.loc 5 49 0
 3127 10a4 093185E0 		add	r3, r5, r9, lsl #2
 3128 10a8 501003E5 		str	r1, [r3, #-80]
  50:C:/Renesas/e2studio_2021_01_workspace_RZA2M_ANPR/ANPR_RZA2M_EBK/src/tensorflow_lite/tensorflow/lite/kernels/internal\strided_slice_logic.h ****   }
 3129              		.loc 5 50 0
 3130 10ac 093185E0 		add	r3, r5, r9, lsl #2
 3131 10b0 382003E5 		str	r2, [r3, #-56]
 3132              	.LVL360:
 3133              	.L351:
 3134              	.LBE1303:
 3135              	.LBB1304:
  52:C:/Renesas/e2studio_2021_01_workspace_RZA2M_ANPR/ANPR_RZA2M_EBK/src/tensorflow_lite/tensorflow/lite/kernels/internal\strided_slice_logic.h ****     p->start_indices[i] = 0;
 3136              		.loc 5 52 0
 3137 10b4 000059E3 		cmp	r9, #0
 3138 10b8 1500000A 		beq	.L352
 3139 10bc 0921A0E1 		lsl	r2, r9, #2
 3140 10c0 0010A0E3 		mov	r1, #0
 3141 10c4 F8008DE2 		add	r0, sp, #248
 3142 10c8 FEFFFFEB 		bl	memset
 3143              	.LVL361:
 3144 10cc 010059E3 		cmp	r9, #1
  54:C:/Renesas/e2studio_2021_01_workspace_RZA2M_ANPR/ANPR_RZA2M_EBK/src/tensorflow_lite/tensorflow/lite/kernels/internal\strided_slice_logic.h ****     p->strides[i] = 1;
 3145              		.loc 5 54 0
 3146 10d0 0130A0E3 		mov	r3, #1
 3147 10d4 10318DE5 		str	r3, [sp, #272]
  55:C:/Renesas/e2studio_2021_01_workspace_RZA2M_ANPR/ANPR_RZA2M_EBK/src/tensorflow_lite/tensorflow/lite/kernels/internal\strided_slice_logic.h ****   }
 3148              		.loc 5 55 0
 3149 10d8 28318DE5 		str	r3, [sp, #296]
 3150              	.LVL362:
  52:C:/Renesas/e2studio_2021_01_workspace_RZA2M_ANPR/ANPR_RZA2M_EBK/src/tensorflow_lite/tensorflow/lite/kernels/internal\strided_slice_logic.h ****     p->start_indices[i] = 0;
 3151              		.loc 5 52 0
 3152 10dc 0C00000A 		beq	.L352
 3153 10e0 020059E3 		cmp	r9, #2
  54:C:/Renesas/e2studio_2021_01_workspace_RZA2M_ANPR/ANPR_RZA2M_EBK/src/tensorflow_lite/tensorflow/lite/kernels/internal\strided_slice_logic.h ****     p->strides[i] = 1;
 3154              		.loc 5 54 0
 3155 10e4 14318DE5 		str	r3, [sp, #276]
  55:C:/Renesas/e2studio_2021_01_workspace_RZA2M_ANPR/ANPR_RZA2M_EBK/src/tensorflow_lite/tensorflow/lite/kernels/internal\strided_slice_logic.h ****   }
 3156              		.loc 5 55 0
 3157 10e8 2C318DE5 		str	r3, [sp, #300]
 3158              	.LVL363:
  52:C:/Renesas/e2studio_2021_01_workspace_RZA2M_ANPR/ANPR_RZA2M_EBK/src/tensorflow_lite/tensorflow/lite/kernels/internal\strided_slice_logic.h ****     p->start_indices[i] = 0;
 3159              		.loc 5 52 0
 3160 10ec 0800000A 		beq	.L352
 3161 10f0 030059E3 		cmp	r9, #3
  54:C:/Renesas/e2studio_2021_01_workspace_RZA2M_ANPR/ANPR_RZA2M_EBK/src/tensorflow_lite/tensorflow/lite/kernels/internal\strided_slice_logic.h ****     p->strides[i] = 1;
 3162              		.loc 5 54 0
 3163 10f4 18318DE5 		str	r3, [sp, #280]
  55:C:/Renesas/e2studio_2021_01_workspace_RZA2M_ANPR/ANPR_RZA2M_EBK/src/tensorflow_lite/tensorflow/lite/kernels/internal\strided_slice_logic.h ****   }
 3164              		.loc 5 55 0
 3165 10f8 30318DE5 		str	r3, [sp, #304]
 3166              	.LVL364:
  52:C:/Renesas/e2studio_2021_01_workspace_RZA2M_ANPR/ANPR_RZA2M_EBK/src/tensorflow_lite/tensorflow/lite/kernels/internal\strided_slice_logic.h ****     p->start_indices[i] = 0;
 3167              		.loc 5 52 0
 3168 10fc 0400000A 		beq	.L352
 3169 1100 040059E3 		cmp	r9, #4
  54:C:/Renesas/e2studio_2021_01_workspace_RZA2M_ANPR/ANPR_RZA2M_EBK/src/tensorflow_lite/tensorflow/lite/kernels/internal\strided_slice_logic.h ****     p->strides[i] = 1;
 3170              		.loc 5 54 0
 3171 1104 1C318DE5 		str	r3, [sp, #284]
  55:C:/Renesas/e2studio_2021_01_workspace_RZA2M_ANPR/ANPR_RZA2M_EBK/src/tensorflow_lite/tensorflow/lite/kernels/internal\strided_slice_logic.h ****   }
 3172              		.loc 5 55 0
 3173 1108 34318DE5 		str	r3, [sp, #308]
 3174              	.LVL365:
  52:C:/Renesas/e2studio_2021_01_workspace_RZA2M_ANPR/ANPR_RZA2M_EBK/src/tensorflow_lite/tensorflow/lite/kernels/internal\strided_slice_logic.h ****     p->start_indices[i] = 0;
 3175              		.loc 5 52 0
  54:C:/Renesas/e2studio_2021_01_workspace_RZA2M_ANPR/ANPR_RZA2M_EBK/src/tensorflow_lite/tensorflow/lite/kernels/internal\strided_slice_logic.h ****     p->strides[i] = 1;
 3176              		.loc 5 54 0
 3177 110c 20318D15 		strne	r3, [sp, #288]
  55:C:/Renesas/e2studio_2021_01_workspace_RZA2M_ANPR/ANPR_RZA2M_EBK/src/tensorflow_lite/tensorflow/lite/kernels/internal\strided_slice_logic.h ****   }
 3178              		.loc 5 55 0
 3179 1110 38318D15 		strne	r3, [sp, #312]
 3180              	.LVL366:
 3181              	.L352:
 3182              	.LBE1304:
 3183              	.LBE1301:
 3184              	.LBE1300:
 3185              	.LBB1308:
 3186              	.LBB1309:
 3187              	.LBB1310:
 3188              	.LBB1311:
 215:C:/Renesas/e2studio_2021_01_workspace_RZA2M_ANPR/ANPR_RZA2M_EBK/src/tensorflow_lite/tensorflow/lite/kernels/internal\types.h ****     return size_ > kMaxSmallSize ? dims_pointer_[i] : dims_[i];
 3189              		.loc 4 215 0
 3190 1114 C4209DE5 		ldr	r2, [sp, #196]
 3191              	.LBE1311:
 3192              	.LBE1310:
 3193              	.LBE1309:
 3194              	.LBE1308:
 3195              	.LBB1330:
 3196              	.LBB1305:
  64:C:/Renesas/e2studio_2021_01_workspace_RZA2M_ANPR/ANPR_RZA2M_EBK/src/tensorflow_lite/tensorflow/lite/kernels/internal\strided_slice_logic.h ****   p->end_mask |= (1 << pad_count) - 1;
 3197              		.loc 5 64 0
 3198 1118 0030E0E3 		mvn	r3, #0
 3199 111c 1339E0E1 		mvn	r3, r3, lsl r9
  59:C:/Renesas/e2studio_2021_01_workspace_RZA2M_ANPR/ANPR_RZA2M_EBK/src/tensorflow_lite/tensorflow/lite/kernels/internal\strided_slice_logic.h ****   p->ellipsis_mask <<= pad_count;
 3200              		.loc 5 59 0
 3201 1120 1449A0E1 		lsl	r4, r4, r9
 3202              	.LBE1305:
 3203              	.LBE1330:
 3204              	.LBB1331:
 3205              	.LBB1326:
 3206              	.LBB1315:
 3207              	.LBB1312:
 215:C:/Renesas/e2studio_2021_01_workspace_RZA2M_ANPR/ANPR_RZA2M_EBK/src/tensorflow_lite/tensorflow/lite/kernels/internal\types.h ****     return size_ > kMaxSmallSize ? dims_pointer_[i] : dims_[i];
 3208              		.loc 4 215 0
 3209 1124 04208DE5 		str	r2, [sp, #4]
 3210 1128 000052E3 		cmp	r2, #0
 3211              	.LBE1312:
 3212              	.LBE1315:
 3213              	.LBE1326:
 3214              	.LBE1331:
 3215              	.LBB1332:
 3216              	.LBB1306:
  65:C:/Renesas/e2studio_2021_01_workspace_RZA2M_ANPR/ANPR_RZA2M_EBK/src/tensorflow_lite/tensorflow/lite/kernels/internal\strided_slice_logic.h **** 
 3217              		.loc 5 65 0
 3218 112c 08209DE5 		ldr	r2, [sp, #8]
  64:C:/Renesas/e2studio_2021_01_workspace_RZA2M_ANPR/ANPR_RZA2M_EBK/src/tensorflow_lite/tensorflow/lite/kernels/internal\strided_slice_logic.h ****   p->end_mask |= (1 << pad_count) - 1;
 3219              		.loc 5 64 0
 3220 1130 7330BFE6 		sxth	r3, r3
  59:C:/Renesas/e2studio_2021_01_workspace_RZA2M_ANPR/ANPR_RZA2M_EBK/src/tensorflow_lite/tensorflow/lite/kernels/internal\strided_slice_logic.h ****   p->ellipsis_mask <<= pad_count;
 3221              		.loc 5 59 0
 3222 1134 7460BFE6 		sxth	r6, r4
 3223              	.LVL367:
  64:C:/Renesas/e2studio_2021_01_workspace_RZA2M_ANPR/ANPR_RZA2M_EBK/src/tensorflow_lite/tensorflow/lite/kernels/internal\strided_slice_logic.h ****   p->end_mask |= (1 << pad_count) - 1;
 3224              		.loc 5 64 0
 3225 1138 1B4983E1 		orr	r4, r3, fp, lsl r9
  65:C:/Renesas/e2studio_2021_01_workspace_RZA2M_ANPR/ANPR_RZA2M_EBK/src/tensorflow_lite/tensorflow/lite/kernels/internal\strided_slice_logic.h **** 
 3226              		.loc 5 65 0
 3227 113c 123983E1 		orr	r3, r3, r2, lsl r9
  64:C:/Renesas/e2studio_2021_01_workspace_RZA2M_ANPR/ANPR_RZA2M_EBK/src/tensorflow_lite/tensorflow/lite/kernels/internal\strided_slice_logic.h ****   p->end_mask |= (1 << pad_count) - 1;
 3228              		.loc 5 64 0
 3229 1140 7440BFE6 		sxth	r4, r4
  65:C:/Renesas/e2studio_2021_01_workspace_RZA2M_ANPR/ANPR_RZA2M_EBK/src/tensorflow_lite/tensorflow/lite/kernels/internal\strided_slice_logic.h **** 
 3230              		.loc 5 65 0
 3231 1144 7350BFE6 		sxth	r5, r3
 3232              	.LVL368:
 3233              	.LBE1306:
 3234              	.LBE1332:
 3235              	.LBB1333:
 3236              	.LBB1327:
 3237              	.LBB1316:
 3238              	.LBB1313:
 215:C:/Renesas/e2studio_2021_01_workspace_RZA2M_ANPR/ANPR_RZA2M_EBK/src/tensorflow_lite/tensorflow/lite/kernels/internal\types.h ****     return size_ > kMaxSmallSize ? dims_pointer_[i] : dims_[i];
 3239              		.loc 4 215 0
 3240 1148 DE0200DA 		ble	.L1101
 216:C:/Renesas/e2studio_2021_01_workspace_RZA2M_ANPR/ANPR_RZA2M_EBK/src/tensorflow_lite/tensorflow/lite/kernels/internal\types.h ****   }
 3241              		.loc 4 216 0
 3242 114c 04309DE5 		ldr	r3, [sp, #4]
 3243 1150 050053E3 		cmp	r3, #5
 3244 1154 C8309DC5 		ldrgt	r3, [sp, #200]
 3245 1158 C8C09DD5 		ldrle	ip, [sp, #200]
 3246              	.LVL369:
 3247 115c 00C093C5 		ldrgt	ip, [r3]
 3248              	.LBE1313:
 3249              	.LBE1316:
  81:C:/Renesas/e2studio_2021_01_workspace_RZA2M_ANPR/ANPR_RZA2M_EBK/src/tensorflow_lite/tensorflow/lite/kernels/internal\strided_slice_logic.h ****     return 0;
 3250              		.loc 5 81 0
 3251 1160 00005CE3 		cmp	ip, #0
 3252 1164 D502000A 		beq	.L596
  88:C:/Renesas/e2studio_2021_01_workspace_RZA2M_ANPR/ANPR_RZA2M_EBK/src/tensorflow_lite/tensorflow/lite/kernels/internal\strided_slice_logic.h ****     if (strides[axis] > 0) {
 3253              		.loc 5 88 0
 3254 1168 010014E3 		tst	r4, #1
  89:C:/Renesas/e2studio_2021_01_workspace_RZA2M_ANPR/ANPR_RZA2M_EBK/src/tensorflow_lite/tensorflow/lite/kernels/internal\strided_slice_logic.h ****       // Forward iteration - use the first element. These values will get
 3255              		.loc 5 89 0
 3256 116c 28119DE5 		ldr	r1, [sp, #296]
  85:C:/Renesas/e2studio_2021_01_workspace_RZA2M_ANPR/ANPR_RZA2M_EBK/src/tensorflow_lite/tensorflow/lite/kernels/internal\strided_slice_logic.h **** 
 3257              		.loc 5 85 0
 3258 1170 F8209DE5 		ldr	r2, [sp, #248]
 3259              	.LVL370:
  88:C:/Renesas/e2studio_2021_01_workspace_RZA2M_ANPR/ANPR_RZA2M_EBK/src/tensorflow_lite/tensorflow/lite/kernels/internal\strided_slice_logic.h ****     if (strides[axis] > 0) {
 3260              		.loc 5 88 0
 3261 1174 CE02000A 		beq	.L356
  89:C:/Renesas/e2studio_2021_01_workspace_RZA2M_ANPR/ANPR_RZA2M_EBK/src/tensorflow_lite/tensorflow/lite/kernels/internal\strided_slice_logic.h ****       // Forward iteration - use the first element. These values will get
 3262              		.loc 5 89 0
 3263 1178 000051E3 		cmp	r1, #0
  93:C:/Renesas/e2studio_2021_01_workspace_RZA2M_ANPR/ANPR_RZA2M_EBK/src/tensorflow_lite/tensorflow/lite/kernels/internal\strided_slice_logic.h ****     } else {
 3264              		.loc 5 93 0
 3265 117c 0221A0C3 		movgt	r2, #-2147483648
 3266              	.LVL371:
  89:C:/Renesas/e2studio_2021_01_workspace_RZA2M_ANPR/ANPR_RZA2M_EBK/src/tensorflow_lite/tensorflow/lite/kernels/internal\strided_slice_logic.h ****       // Forward iteration - use the first element. These values will get
 3267              		.loc 5 89 0
 3268 1180 C50200DA 		ble	.L1102
 3269              	.L357:
 3270              	.LVL372:
 102:C:/Renesas/e2studio_2021_01_workspace_RZA2M_ANPR/ANPR_RZA2M_EBK/src/tensorflow_lite/tensorflow/lite/kernels/internal\strided_slice_logic.h ****   }
 3271              		.loc 5 102 0
 3272 1184 0C2082E0 		add	r2, r2, ip
 3273              	.LVL373:
 3274              	.L360:
 106:C:/Renesas/e2studio_2021_01_workspace_RZA2M_ANPR/ANPR_RZA2M_EBK/src/tensorflow_lite/tensorflow/lite/kernels/internal\strided_slice_logic.h ****     // Forward iteration
 3275              		.loc 5 106 0
 3276 1188 000051E3 		cmp	r1, #0
 3277 118c BC0200DA 		ble	.L361
 3278              	.LVL374:
 3279              	.LBB1317:
 3280              	.LBB1318:
  30:C:/Renesas/e2studio_2021_01_workspace_RZA2M_ANPR/ANPR_RZA2M_EBK/src/tensorflow_lite/tensorflow/lite/kernels/internal\strided_slice_logic.h ****   if (hi < v) return hi;
 3281              		.loc 5 30 0
 3282 1190 00005CE3 		cmp	ip, #0
 3283 1194 C40200BA 		blt	.L1103
  31:C:/Renesas/e2studio_2021_01_workspace_RZA2M_ANPR/ANPR_RZA2M_EBK/src/tensorflow_lite/tensorflow/lite/kernels/internal\strided_slice_logic.h ****   if (v < lo) return lo;
 3284              		.loc 5 31 0
 3285 1198 0C0052E1 		cmp	r2, ip
 3286 119c 0C30A0C1 		movgt	r3, ip
 3287 11a0 C23FC2D1 		bicle	r3, r2, r2, asr #31
 3288              	.LVL375:
 3289              	.L363:
 3290              	.LBE1318:
 3291              	.LBE1317:
 3292              	.LBE1327:
 3293              	.LBE1333:
 3294              	.LBB1334:
 3295              	.LBB1335:
 142:C:/Renesas/e2studio_2021_01_workspace_RZA2M_ANPR/ANPR_RZA2M_EBK/src/tensorflow_lite/tensorflow/lite/kernels/internal\strided_slice_logic.h ****     return start_for_axis + 1;
 3296              		.loc 5 142 0
 3297 11a4 010016E3 		tst	r6, #1
 136:C:/Renesas/e2studio_2021_01_workspace_RZA2M_ANPR/ANPR_RZA2M_EBK/src/tensorflow_lite/tensorflow/lite/kernels/internal\strided_slice_logic.h **** 
 3298              		.loc 5 136 0
 3299 11a8 10219DE5 		ldr	r2, [sp, #272]
 3300              	.LVL376:
 142:C:/Renesas/e2studio_2021_01_workspace_RZA2M_ANPR/ANPR_RZA2M_EBK/src/tensorflow_lite/tensorflow/lite/kernels/internal\strided_slice_logic.h ****     return start_for_axis + 1;
 3301              		.loc 5 142 0
 3302 11ac B202001A 		bne	.L1104
 147:C:/Renesas/e2studio_2021_01_workspace_RZA2M_ANPR/ANPR_RZA2M_EBK/src/tensorflow_lite/tensorflow/lite/kernels/internal\strided_slice_logic.h ****     if (strides[axis] > 0) {
 3303              		.loc 5 147 0
 3304 11b0 010015E3 		tst	r5, #1
 3305 11b4 A502000A 		beq	.L365
 148:C:/Renesas/e2studio_2021_01_workspace_RZA2M_ANPR/ANPR_RZA2M_EBK/src/tensorflow_lite/tensorflow/lite/kernels/internal\strided_slice_logic.h ****       // Forward iteration - use the last element. These values will get
 3306              		.loc 5 148 0
 3307 11b8 000051E3 		cmp	r1, #0
 154:C:/Renesas/e2studio_2021_01_workspace_RZA2M_ANPR/ANPR_RZA2M_EBK/src/tensorflow_lite/tensorflow/lite/kernels/internal\strided_slice_logic.h ****     }
 3308              		.loc 5 154 0
 3309 11bc 0221A0D3 		movle	r2, #-2147483648
 3310              	.LVL377:
 148:C:/Renesas/e2studio_2021_01_workspace_RZA2M_ANPR/ANPR_RZA2M_EBK/src/tensorflow_lite/tensorflow/lite/kernels/internal\strided_slice_logic.h ****       // Forward iteration - use the last element. These values will get
 3311              		.loc 5 148 0
 3312 11c0 A40200DA 		ble	.L367
 151:C:/Renesas/e2studio_2021_01_workspace_RZA2M_ANPR/ANPR_RZA2M_EBK/src/tensorflow_lite/tensorflow/lite/kernels/internal\strided_slice_logic.h ****     } else {
 3313              		.loc 5 151 0
 3314 11c4 0221E0E3 		mvn	r2, #-2147483648
 3315              	.LVL378:
 3316              	.L366:
 3317              	.LBB1336:
 3318              	.LBB1337:
  30:C:/Renesas/e2studio_2021_01_workspace_RZA2M_ANPR/ANPR_RZA2M_EBK/src/tensorflow_lite/tensorflow/lite/kernels/internal\strided_slice_logic.h ****   if (hi < v) return hi;
 3319              		.loc 5 30 0
 3320 11c8 00005CE3 		cmp	ip, #0
 3321 11cc 9E0200BA 		blt	.L1105
  31:C:/Renesas/e2studio_2021_01_workspace_RZA2M_ANPR/ANPR_RZA2M_EBK/src/tensorflow_lite/tensorflow/lite/kernels/internal\strided_slice_logic.h ****   if (v < lo) return lo;
 3322              		.loc 5 31 0
 3323 11d0 02005CE1 		cmp	ip, r2
 3324 11d4 C2CFC2A1 		bicge	ip, r2, r2, asr #31
 3325              	.LVL379:
 3326              	.L355:
 3327              	.LBE1337:
 3328              	.LBE1336:
 3329              	.LBE1335:
 3330              	.LBE1334:
 3331              	.LBB1346:
 3332              	.LBB1347:
 3333              	.LBB1348:
 3334              	.LBB1349:
 215:C:/Renesas/e2studio_2021_01_workspace_RZA2M_ANPR/ANPR_RZA2M_EBK/src/tensorflow_lite/tensorflow/lite/kernels/internal\types.h ****     return size_ > kMaxSmallSize ? dims_pointer_[i] : dims_[i];
 3335              		.loc 4 215 0
 3336 11d8 04209DE5 		ldr	r2, [sp, #4]
 3337 11dc 010052E3 		cmp	r2, #1
 3338 11e0 9802000A 		beq	.L1106
 216:C:/Renesas/e2studio_2021_01_workspace_RZA2M_ANPR/ANPR_RZA2M_EBK/src/tensorflow_lite/tensorflow/lite/kernels/internal\types.h ****   }
 3339              		.loc 4 216 0
 3340 11e4 050052E3 		cmp	r2, #5
 3341 11e8 C8209DC5 		ldrgt	r2, [sp, #200]
 3342 11ec CC209DD5 		ldrle	r2, [sp, #204]
 3343              	.LVL380:
 3344 11f0 042092C5 		ldrgt	r2, [r2, #4]
 3345              	.LBE1349:
 3346              	.LBE1348:
  81:C:/Renesas/e2studio_2021_01_workspace_RZA2M_ANPR/ANPR_RZA2M_EBK/src/tensorflow_lite/tensorflow/lite/kernels/internal\strided_slice_logic.h ****     return 0;
 3347              		.loc 5 81 0
 3348 11f4 000052E3 		cmp	r2, #0
 3349 11f8 D705000A 		beq	.L601
  88:C:/Renesas/e2studio_2021_01_workspace_RZA2M_ANPR/ANPR_RZA2M_EBK/src/tensorflow_lite/tensorflow/lite/kernels/internal\strided_slice_logic.h ****     if (strides[axis] > 0) {
 3350              		.loc 5 88 0
 3351 11fc 020014E3 		tst	r4, #2
  89:C:/Renesas/e2studio_2021_01_workspace_RZA2M_ANPR/ANPR_RZA2M_EBK/src/tensorflow_lite/tensorflow/lite/kernels/internal\strided_slice_logic.h ****       // Forward iteration - use the first element. These values will get
 3352              		.loc 5 89 0
 3353 1200 2C019DE5 		ldr	r0, [sp, #300]
  85:C:/Renesas/e2studio_2021_01_workspace_RZA2M_ANPR/ANPR_RZA2M_EBK/src/tensorflow_lite/tensorflow/lite/kernels/internal\strided_slice_logic.h **** 
 3354              		.loc 5 85 0
 3355 1204 FC109DE5 		ldr	r1, [sp, #252]
 3356              	.LVL381:
  88:C:/Renesas/e2studio_2021_01_workspace_RZA2M_ANPR/ANPR_RZA2M_EBK/src/tensorflow_lite/tensorflow/lite/kernels/internal\strided_slice_logic.h ****     if (strides[axis] > 0) {
 3357              		.loc 5 88 0
 3358 1208 D005000A 		beq	.L376
  89:C:/Renesas/e2studio_2021_01_workspace_RZA2M_ANPR/ANPR_RZA2M_EBK/src/tensorflow_lite/tensorflow/lite/kernels/internal\strided_slice_logic.h ****       // Forward iteration - use the first element. These values will get
 3359              		.loc 5 89 0
 3360 120c 000050E3 		cmp	r0, #0
  93:C:/Renesas/e2studio_2021_01_workspace_RZA2M_ANPR/ANPR_RZA2M_EBK/src/tensorflow_lite/tensorflow/lite/kernels/internal\strided_slice_logic.h ****     } else {
 3361              		.loc 5 93 0
 3362 1210 0211A0C3 		movgt	r1, #-2147483648
 3363              	.LVL382:
  89:C:/Renesas/e2studio_2021_01_workspace_RZA2M_ANPR/ANPR_RZA2M_EBK/src/tensorflow_lite/tensorflow/lite/kernels/internal\strided_slice_logic.h ****       // Forward iteration - use the first element. These values will get
 3364              		.loc 5 89 0
 3365 1214 C80500DA 		ble	.L1107
 3366              	.L377:
 3367              	.LVL383:
 102:C:/Renesas/e2studio_2021_01_workspace_RZA2M_ANPR/ANPR_RZA2M_EBK/src/tensorflow_lite/tensorflow/lite/kernels/internal\strided_slice_logic.h ****   }
 3368              		.loc 5 102 0
 3369 1218 021081E0 		add	r1, r1, r2
 3370              	.LVL384:
 3371              	.L380:
 106:C:/Renesas/e2studio_2021_01_workspace_RZA2M_ANPR/ANPR_RZA2M_EBK/src/tensorflow_lite/tensorflow/lite/kernels/internal\strided_slice_logic.h ****     // Forward iteration
 3372              		.loc 5 106 0
 3373 121c 000050E3 		cmp	r0, #0
 3374 1220 BD0500DA 		ble	.L381
 3375              	.LVL385:
 3376              	.LBB1351:
 3377              	.LBB1352:
  30:C:/Renesas/e2studio_2021_01_workspace_RZA2M_ANPR/ANPR_RZA2M_EBK/src/tensorflow_lite/tensorflow/lite/kernels/internal\strided_slice_logic.h ****   if (hi < v) return hi;
 3378              		.loc 5 30 0
 3379 1224 000052E3 		cmp	r2, #0
 3380 1228 B90500BA 		blt	.L1108
  31:C:/Renesas/e2studio_2021_01_workspace_RZA2M_ANPR/ANPR_RZA2M_EBK/src/tensorflow_lite/tensorflow/lite/kernels/internal\strided_slice_logic.h ****   if (v < lo) return lo;
 3381              		.loc 5 31 0
 3382 122c 020051E1 		cmp	r1, r2
 3383 1230 18208DC5 		strgt	r2, [sp, #24]
 3384 1234 C11FC1D1 		bicle	r1, r1, r1, asr #31
 3385              	.LVL386:
 3386 1238 18108DD5 		strle	r1, [sp, #24]
 3387              	.LVL387:
 3388              	.L383:
 3389              	.LBE1352:
 3390              	.LBE1351:
 3391              	.LBE1347:
 3392              	.LBE1346:
 3393              	.LBB1367:
 3394              	.LBB1368:
 142:C:/Renesas/e2studio_2021_01_workspace_RZA2M_ANPR/ANPR_RZA2M_EBK/src/tensorflow_lite/tensorflow/lite/kernels/internal\strided_slice_logic.h ****     return start_for_axis + 1;
 3395              		.loc 5 142 0
 3396 123c 020016E3 		tst	r6, #2
 136:C:/Renesas/e2studio_2021_01_workspace_RZA2M_ANPR/ANPR_RZA2M_EBK/src/tensorflow_lite/tensorflow/lite/kernels/internal\strided_slice_logic.h **** 
 3397              		.loc 5 136 0
 3398 1240 14119DE5 		ldr	r1, [sp, #276]
 3399              	.LVL388:
 142:C:/Renesas/e2studio_2021_01_workspace_RZA2M_ANPR/ANPR_RZA2M_EBK/src/tensorflow_lite/tensorflow/lite/kernels/internal\strided_slice_logic.h ****     return start_for_axis + 1;
 3400              		.loc 5 142 0
 3401 1244 AE05001A 		bne	.L1109
 147:C:/Renesas/e2studio_2021_01_workspace_RZA2M_ANPR/ANPR_RZA2M_EBK/src/tensorflow_lite/tensorflow/lite/kernels/internal\strided_slice_logic.h ****     if (strides[axis] > 0) {
 3402              		.loc 5 147 0
 3403 1248 020015E3 		tst	r5, #2
 3404 124c 9F05000A 		beq	.L385
 148:C:/Renesas/e2studio_2021_01_workspace_RZA2M_ANPR/ANPR_RZA2M_EBK/src/tensorflow_lite/tensorflow/lite/kernels/internal\strided_slice_logic.h ****       // Forward iteration - use the last element. These values will get
 3405              		.loc 5 148 0
 3406 1250 000050E3 		cmp	r0, #0
 154:C:/Renesas/e2studio_2021_01_workspace_RZA2M_ANPR/ANPR_RZA2M_EBK/src/tensorflow_lite/tensorflow/lite/kernels/internal\strided_slice_logic.h ****     }
 3407              		.loc 5 154 0
 3408 1254 0211A0D3 		movle	r1, #-2147483648
 3409              	.LVL389:
 148:C:/Renesas/e2studio_2021_01_workspace_RZA2M_ANPR/ANPR_RZA2M_EBK/src/tensorflow_lite/tensorflow/lite/kernels/internal\strided_slice_logic.h ****       // Forward iteration - use the last element. These values will get
 3410              		.loc 5 148 0
 3411 1258 9E0500DA 		ble	.L387
 151:C:/Renesas/e2studio_2021_01_workspace_RZA2M_ANPR/ANPR_RZA2M_EBK/src/tensorflow_lite/tensorflow/lite/kernels/internal\strided_slice_logic.h ****     } else {
 3412              		.loc 5 151 0
 3413 125c 0211E0E3 		mvn	r1, #-2147483648
 3414              	.LVL390:
 3415              	.L386:
 3416              	.LBB1369:
 3417              	.LBB1370:
  30:C:/Renesas/e2studio_2021_01_workspace_RZA2M_ANPR/ANPR_RZA2M_EBK/src/tensorflow_lite/tensorflow/lite/kernels/internal\strided_slice_logic.h ****   if (hi < v) return hi;
 3418              		.loc 5 30 0
 3419 1260 000052E3 		cmp	r2, #0
 3420 1264 C60500BA 		blt	.L1110
  31:C:/Renesas/e2studio_2021_01_workspace_RZA2M_ANPR/ANPR_RZA2M_EBK/src/tensorflow_lite/tensorflow/lite/kernels/internal\strided_slice_logic.h ****   if (v < lo) return lo;
 3421              		.loc 5 31 0
 3422 1268 020051E1 		cmp	r1, r2
 3423 126c 34208DC5 		strgt	r2, [sp, #52]
 3424 1270 C11FC1D1 		bicle	r1, r1, r1, asr #31
 3425              	.LVL391:
 3426 1274 34108DD5 		strle	r1, [sp, #52]
 3427              	.LVL392:
 3428              	.L375:
 3429              	.LBE1370:
 3430              	.LBE1369:
 3431              	.LBE1368:
 3432              	.LBE1367:
 3433              	.LBB1383:
 3434              	.LBB1384:
 3435              	.LBB1385:
 3436              	.LBB1386:
 215:C:/Renesas/e2studio_2021_01_workspace_RZA2M_ANPR/ANPR_RZA2M_EBK/src/tensorflow_lite/tensorflow/lite/kernels/internal\types.h ****     return size_ > kMaxSmallSize ? dims_pointer_[i] : dims_[i];
 3437              		.loc 4 215 0
 3438 1278 04109DE5 		ldr	r1, [sp, #4]
 3439 127c 020051E3 		cmp	r1, #2
 3440 1280 BE05000A 		beq	.L1111
 216:C:/Renesas/e2studio_2021_01_workspace_RZA2M_ANPR/ANPR_RZA2M_EBK/src/tensorflow_lite/tensorflow/lite/kernels/internal\types.h ****   }
 3441              		.loc 4 216 0
 3442 1284 050051E3 		cmp	r1, #5
 3443 1288 C8109DC5 		ldrgt	r1, [sp, #200]
 3444 128c D0109DD5 		ldrle	r1, [sp, #208]
 3445              	.LVL393:
 3446 1290 081091C5 		ldrgt	r1, [r1, #8]
 3447              	.LBE1386:
 3448              	.LBE1385:
  81:C:/Renesas/e2studio_2021_01_workspace_RZA2M_ANPR/ANPR_RZA2M_EBK/src/tensorflow_lite/tensorflow/lite/kernels/internal\strided_slice_logic.h ****     return 0;
 3449              		.loc 5 81 0
 3450 1294 000051E3 		cmp	r1, #0
 3451 1298 B505000A 		beq	.L606
  88:C:/Renesas/e2studio_2021_01_workspace_RZA2M_ANPR/ANPR_RZA2M_EBK/src/tensorflow_lite/tensorflow/lite/kernels/internal\strided_slice_logic.h ****     if (strides[axis] > 0) {
 3452              		.loc 5 88 0
 3453 129c 040014E3 		tst	r4, #4
  89:C:/Renesas/e2studio_2021_01_workspace_RZA2M_ANPR/ANPR_RZA2M_EBK/src/tensorflow_lite/tensorflow/lite/kernels/internal\strided_slice_logic.h ****       // Forward iteration - use the first element. These values will get
 3454              		.loc 5 89 0
 3455 12a0 30E19DE5 		ldr	lr, [sp, #304]
  85:C:/Renesas/e2studio_2021_01_workspace_RZA2M_ANPR/ANPR_RZA2M_EBK/src/tensorflow_lite/tensorflow/lite/kernels/internal\strided_slice_logic.h **** 
 3456              		.loc 5 85 0
 3457 12a4 00019DE5 		ldr	r0, [sp, #256]
 3458              	.LVL394:
  88:C:/Renesas/e2studio_2021_01_workspace_RZA2M_ANPR/ANPR_RZA2M_EBK/src/tensorflow_lite/tensorflow/lite/kernels/internal\strided_slice_logic.h ****     if (strides[axis] > 0) {
 3459              		.loc 5 88 0
 3460 12a8 AE05000A 		beq	.L396
  89:C:/Renesas/e2studio_2021_01_workspace_RZA2M_ANPR/ANPR_RZA2M_EBK/src/tensorflow_lite/tensorflow/lite/kernels/internal\strided_slice_logic.h ****       // Forward iteration - use the first element. These values will get
 3461              		.loc 5 89 0
 3462 12ac 00005EE3 		cmp	lr, #0
  93:C:/Renesas/e2studio_2021_01_workspace_RZA2M_ANPR/ANPR_RZA2M_EBK/src/tensorflow_lite/tensorflow/lite/kernels/internal\strided_slice_logic.h ****     } else {
 3463              		.loc 5 93 0
 3464 12b0 0201A0C3 		movgt	r0, #-2147483648
 3465              	.LVL395:
  89:C:/Renesas/e2studio_2021_01_workspace_RZA2M_ANPR/ANPR_RZA2M_EBK/src/tensorflow_lite/tensorflow/lite/kernels/internal\strided_slice_logic.h ****       // Forward iteration - use the first element. These values will get
 3466              		.loc 5 89 0
 3467 12b4 BB0500DA 		ble	.L1112
 3468              	.L397:
 3469              	.LVL396:
 102:C:/Renesas/e2studio_2021_01_workspace_RZA2M_ANPR/ANPR_RZA2M_EBK/src/tensorflow_lite/tensorflow/lite/kernels/internal\strided_slice_logic.h ****   }
 3470              		.loc 5 102 0
 3471 12b8 010080E0 		add	r0, r0, r1
 3472              	.LVL397:
 3473              	.L400:
 106:C:/Renesas/e2studio_2021_01_workspace_RZA2M_ANPR/ANPR_RZA2M_EBK/src/tensorflow_lite/tensorflow/lite/kernels/internal\strided_slice_logic.h ****     // Forward iteration
 3474              		.loc 5 106 0
 3475 12bc 00005EE3 		cmp	lr, #0
 3476 12c0 B00500DA 		ble	.L401
 3477              	.LVL398:
 3478              	.LBB1388:
 3479              	.LBB1389:
  30:C:/Renesas/e2studio_2021_01_workspace_RZA2M_ANPR/ANPR_RZA2M_EBK/src/tensorflow_lite/tensorflow/lite/kernels/internal\strided_slice_logic.h ****   if (hi < v) return hi;
 3480              		.loc 5 30 0
 3481 12c4 000051E3 		cmp	r1, #0
 3482 12c8 BB0500BA 		blt	.L1113
  31:C:/Renesas/e2studio_2021_01_workspace_RZA2M_ANPR/ANPR_RZA2M_EBK/src/tensorflow_lite/tensorflow/lite/kernels/internal\strided_slice_logic.h ****   if (v < lo) return lo;
 3483              		.loc 5 31 0
 3484 12cc 010050E1 		cmp	r0, r1
 3485 12d0 14108DC5 		strgt	r1, [sp, #20]
 3486 12d4 C00FC0D1 		bicle	r0, r0, r0, asr #31
 3487              	.LVL399:
 3488 12d8 14008DD5 		strle	r0, [sp, #20]
 3489              	.LVL400:
 3490              	.L403:
 3491              	.LBE1389:
 3492              	.LBE1388:
 3493              	.LBE1384:
 3494              	.LBE1383:
 3495              	.LBB1404:
 3496              	.LBB1405:
 142:C:/Renesas/e2studio_2021_01_workspace_RZA2M_ANPR/ANPR_RZA2M_EBK/src/tensorflow_lite/tensorflow/lite/kernels/internal\strided_slice_logic.h ****     return start_for_axis + 1;
 3497              		.loc 5 142 0
 3498 12dc 040016E3 		tst	r6, #4
 136:C:/Renesas/e2studio_2021_01_workspace_RZA2M_ANPR/ANPR_RZA2M_EBK/src/tensorflow_lite/tensorflow/lite/kernels/internal\strided_slice_logic.h **** 
 3499              		.loc 5 136 0
 3500 12e0 18019DE5 		ldr	r0, [sp, #280]
 3501              	.LVL401:
 142:C:/Renesas/e2studio_2021_01_workspace_RZA2M_ANPR/ANPR_RZA2M_EBK/src/tensorflow_lite/tensorflow/lite/kernels/internal\strided_slice_logic.h ****     return start_for_axis + 1;
 3502              		.loc 5 142 0
 3503 12e4 D101001A 		bne	.L1114
 147:C:/Renesas/e2studio_2021_01_workspace_RZA2M_ANPR/ANPR_RZA2M_EBK/src/tensorflow_lite/tensorflow/lite/kernels/internal\strided_slice_logic.h ****     if (strides[axis] > 0) {
 3504              		.loc 5 147 0
 3505 12e8 040015E3 		tst	r5, #4
 3506 12ec C201000A 		beq	.L405
 148:C:/Renesas/e2studio_2021_01_workspace_RZA2M_ANPR/ANPR_RZA2M_EBK/src/tensorflow_lite/tensorflow/lite/kernels/internal\strided_slice_logic.h ****       // Forward iteration - use the last element. These values will get
 3507              		.loc 5 148 0
 3508 12f0 00005EE3 		cmp	lr, #0
 154:C:/Renesas/e2studio_2021_01_workspace_RZA2M_ANPR/ANPR_RZA2M_EBK/src/tensorflow_lite/tensorflow/lite/kernels/internal\strided_slice_logic.h ****     }
 3509              		.loc 5 154 0
 3510 12f4 0201A0D3 		movle	r0, #-2147483648
 3511              	.LVL402:
 148:C:/Renesas/e2studio_2021_01_workspace_RZA2M_ANPR/ANPR_RZA2M_EBK/src/tensorflow_lite/tensorflow/lite/kernels/internal\strided_slice_logic.h ****       // Forward iteration - use the last element. These values will get
 3512              		.loc 5 148 0
 3513 12f8 C10100DA 		ble	.L407
 151:C:/Renesas/e2studio_2021_01_workspace_RZA2M_ANPR/ANPR_RZA2M_EBK/src/tensorflow_lite/tensorflow/lite/kernels/internal\strided_slice_logic.h ****     } else {
 3514              		.loc 5 151 0
 3515 12fc 0201E0E3 		mvn	r0, #-2147483648
 3516              	.LVL403:
 3517              	.L406:
 3518              	.LBB1406:
 3519              	.LBB1407:
  30:C:/Renesas/e2studio_2021_01_workspace_RZA2M_ANPR/ANPR_RZA2M_EBK/src/tensorflow_lite/tensorflow/lite/kernels/internal\strided_slice_logic.h ****   if (hi < v) return hi;
 3520              		.loc 5 30 0
 3521 1300 000051E3 		cmp	r1, #0
 3522 1304 BB0100BA 		blt	.L1115
  31:C:/Renesas/e2studio_2021_01_workspace_RZA2M_ANPR/ANPR_RZA2M_EBK/src/tensorflow_lite/tensorflow/lite/kernels/internal\strided_slice_logic.h ****   if (v < lo) return lo;
 3523              		.loc 5 31 0
 3524 1308 010050E1 		cmp	r0, r1
 3525 130c 38108DC5 		strgt	r1, [sp, #56]
 3526 1310 C01FC0D1 		bicle	r1, r0, r0, asr #31
 3527 1314 38108DD5 		strle	r1, [sp, #56]
 3528              	.LVL404:
 3529              	.L395:
 3530              	.LBE1407:
 3531              	.LBE1406:
 3532              	.LBE1405:
 3533              	.LBE1404:
 3534              	.LBB1419:
 3535              	.LBB1420:
 3536              	.LBB1421:
 3537              	.LBB1422:
 215:C:/Renesas/e2studio_2021_01_workspace_RZA2M_ANPR/ANPR_RZA2M_EBK/src/tensorflow_lite/tensorflow/lite/kernels/internal\types.h ****     return size_ > kMaxSmallSize ? dims_pointer_[i] : dims_[i];
 3538              		.loc 4 215 0
 3539 1318 04109DE5 		ldr	r1, [sp, #4]
 3540 131c 030051E3 		cmp	r1, #3
 3541 1320 B301000A 		beq	.L1116
 216:C:/Renesas/e2studio_2021_01_workspace_RZA2M_ANPR/ANPR_RZA2M_EBK/src/tensorflow_lite/tensorflow/lite/kernels/internal\types.h ****   }
 3542              		.loc 4 216 0
 3543 1324 050051E3 		cmp	r1, #5
 3544 1328 C8109DC5 		ldrgt	r1, [sp, #200]
 3545 132c D4109DD5 		ldrle	r1, [sp, #212]
 3546              	.LVL405:
 3547 1330 0C1091C5 		ldrgt	r1, [r1, #12]
 3548              	.LBE1422:
 3549              	.LBE1421:
  81:C:/Renesas/e2studio_2021_01_workspace_RZA2M_ANPR/ANPR_RZA2M_EBK/src/tensorflow_lite/tensorflow/lite/kernels/internal\strided_slice_logic.h ****     return 0;
 3550              		.loc 5 81 0
 3551 1334 000051E3 		cmp	r1, #0
 3552 1338 AA01000A 		beq	.L611
  88:C:/Renesas/e2studio_2021_01_workspace_RZA2M_ANPR/ANPR_RZA2M_EBK/src/tensorflow_lite/tensorflow/lite/kernels/internal\strided_slice_logic.h ****     if (strides[axis] > 0) {
 3553              		.loc 5 88 0
 3554 133c 080014E3 		tst	r4, #8
  89:C:/Renesas/e2studio_2021_01_workspace_RZA2M_ANPR/ANPR_RZA2M_EBK/src/tensorflow_lite/tensorflow/lite/kernels/internal\strided_slice_logic.h ****       // Forward iteration - use the first element. These values will get
 3555              		.loc 5 89 0
 3556 1340 34E19DE5 		ldr	lr, [sp, #308]
  85:C:/Renesas/e2studio_2021_01_workspace_RZA2M_ANPR/ANPR_RZA2M_EBK/src/tensorflow_lite/tensorflow/lite/kernels/internal\strided_slice_logic.h **** 
 3557              		.loc 5 85 0
 3558 1344 04019DE5 		ldr	r0, [sp, #260]
 3559              	.LVL406:
  88:C:/Renesas/e2studio_2021_01_workspace_RZA2M_ANPR/ANPR_RZA2M_EBK/src/tensorflow_lite/tensorflow/lite/kernels/internal\strided_slice_logic.h ****     if (strides[axis] > 0) {
 3560              		.loc 5 88 0
 3561 1348 A301000A 		beq	.L416
  89:C:/Renesas/e2studio_2021_01_workspace_RZA2M_ANPR/ANPR_RZA2M_EBK/src/tensorflow_lite/tensorflow/lite/kernels/internal\strided_slice_logic.h ****       // Forward iteration - use the first element. These values will get
 3562              		.loc 5 89 0
 3563 134c 00005EE3 		cmp	lr, #0
  93:C:/Renesas/e2studio_2021_01_workspace_RZA2M_ANPR/ANPR_RZA2M_EBK/src/tensorflow_lite/tensorflow/lite/kernels/internal\strided_slice_logic.h ****     } else {
 3564              		.loc 5 93 0
 3565 1350 0201A0C3 		movgt	r0, #-2147483648
 3566              	.LVL407:
  89:C:/Renesas/e2studio_2021_01_workspace_RZA2M_ANPR/ANPR_RZA2M_EBK/src/tensorflow_lite/tensorflow/lite/kernels/internal\strided_slice_logic.h ****       // Forward iteration - use the first element. These values will get
 3567              		.loc 5 89 0
 3568 1354 9B0100DA 		ble	.L1117
 3569              	.L417:
 3570              	.LVL408:
 102:C:/Renesas/e2studio_2021_01_workspace_RZA2M_ANPR/ANPR_RZA2M_EBK/src/tensorflow_lite/tensorflow/lite/kernels/internal\strided_slice_logic.h ****   }
 3571              		.loc 5 102 0
 3572 1358 010080E0 		add	r0, r0, r1
 3573              	.LVL409:
 3574              	.L420:
 106:C:/Renesas/e2studio_2021_01_workspace_RZA2M_ANPR/ANPR_RZA2M_EBK/src/tensorflow_lite/tensorflow/lite/kernels/internal\strided_slice_logic.h ****     // Forward iteration
 3575              		.loc 5 106 0
 3576 135c 00005EE3 		cmp	lr, #0
 3577 1360 900100DA 		ble	.L421
 3578              	.LVL410:
 3579              	.LBB1424:
 3580              	.LBB1425:
  30:C:/Renesas/e2studio_2021_01_workspace_RZA2M_ANPR/ANPR_RZA2M_EBK/src/tensorflow_lite/tensorflow/lite/kernels/internal\strided_slice_logic.h ****   if (hi < v) return hi;
 3581              		.loc 5 30 0
 3582 1364 000051E3 		cmp	r1, #0
 3583 1368 8C0100BA 		blt	.L1118
  31:C:/Renesas/e2studio_2021_01_workspace_RZA2M_ANPR/ANPR_RZA2M_EBK/src/tensorflow_lite/tensorflow/lite/kernels/internal\strided_slice_logic.h ****   if (v < lo) return lo;
 3584              		.loc 5 31 0
 3585 136c 010050E1 		cmp	r0, r1
 3586 1370 08108DC5 		strgt	r1, [sp, #8]
 3587 1374 C00FC0D1 		bicle	r0, r0, r0, asr #31
 3588              	.LVL411:
 3589 1378 08008DD5 		strle	r0, [sp, #8]
 3590              	.LVL412:
 3591              	.L423:
 3592              	.LBE1425:
 3593              	.LBE1424:
 3594              	.LBE1420:
 3595              	.LBE1419:
 3596              	.LBB1440:
 3597              	.LBB1441:
 142:C:/Renesas/e2studio_2021_01_workspace_RZA2M_ANPR/ANPR_RZA2M_EBK/src/tensorflow_lite/tensorflow/lite/kernels/internal\strided_slice_logic.h ****     return start_for_axis + 1;
 3598              		.loc 5 142 0
 3599 137c 080016E3 		tst	r6, #8
 136:C:/Renesas/e2studio_2021_01_workspace_RZA2M_ANPR/ANPR_RZA2M_EBK/src/tensorflow_lite/tensorflow/lite/kernels/internal\strided_slice_logic.h **** 
 3600              		.loc 5 136 0
 3601 1380 1C019DE5 		ldr	r0, [sp, #284]
 3602              	.LVL413:
 142:C:/Renesas/e2studio_2021_01_workspace_RZA2M_ANPR/ANPR_RZA2M_EBK/src/tensorflow_lite/tensorflow/lite/kernels/internal\strided_slice_logic.h ****     return start_for_axis + 1;
 3603              		.loc 5 142 0
 3604 1384 8101001A 		bne	.L1119
 147:C:/Renesas/e2studio_2021_01_workspace_RZA2M_ANPR/ANPR_RZA2M_EBK/src/tensorflow_lite/tensorflow/lite/kernels/internal\strided_slice_logic.h ****     if (strides[axis] > 0) {
 3605              		.loc 5 147 0
 3606 1388 080015E3 		tst	r5, #8
 3607 138c 7201000A 		beq	.L425
 148:C:/Renesas/e2studio_2021_01_workspace_RZA2M_ANPR/ANPR_RZA2M_EBK/src/tensorflow_lite/tensorflow/lite/kernels/internal\strided_slice_logic.h ****       // Forward iteration - use the last element. These values will get
 3608              		.loc 5 148 0
 3609 1390 00005EE3 		cmp	lr, #0
 154:C:/Renesas/e2studio_2021_01_workspace_RZA2M_ANPR/ANPR_RZA2M_EBK/src/tensorflow_lite/tensorflow/lite/kernels/internal\strided_slice_logic.h ****     }
 3610              		.loc 5 154 0
 3611 1394 0201A0D3 		movle	r0, #-2147483648
 3612              	.LVL414:
 148:C:/Renesas/e2studio_2021_01_workspace_RZA2M_ANPR/ANPR_RZA2M_EBK/src/tensorflow_lite/tensorflow/lite/kernels/internal\strided_slice_logic.h ****       // Forward iteration - use the last element. These values will get
 3613              		.loc 5 148 0
 3614 1398 710100DA 		ble	.L427
 151:C:/Renesas/e2studio_2021_01_workspace_RZA2M_ANPR/ANPR_RZA2M_EBK/src/tensorflow_lite/tensorflow/lite/kernels/internal\strided_slice_logic.h ****     } else {
 3615              		.loc 5 151 0
 3616 139c 0201E0E3 		mvn	r0, #-2147483648
 3617              	.LVL415:
 3618              	.L426:
 3619              	.LBB1442:
 3620              	.LBB1443:
  30:C:/Renesas/e2studio_2021_01_workspace_RZA2M_ANPR/ANPR_RZA2M_EBK/src/tensorflow_lite/tensorflow/lite/kernels/internal\strided_slice_logic.h ****   if (hi < v) return hi;
 3621              		.loc 5 30 0
 3622 13a0 000051E3 		cmp	r1, #0
 3623 13a4 6B0100BA 		blt	.L1120
  31:C:/Renesas/e2studio_2021_01_workspace_RZA2M_ANPR/ANPR_RZA2M_EBK/src/tensorflow_lite/tensorflow/lite/kernels/internal\strided_slice_logic.h ****   if (v < lo) return lo;
 3624              		.loc 5 31 0
 3625 13a8 000051E1 		cmp	r1, r0
 3626 13ac 0C108DB5 		strlt	r1, [sp, #12]
 3627 13b0 C01FC0A1 		bicge	r1, r0, r0, asr #31
 3628 13b4 0C108DA5 		strge	r1, [sp, #12]
 3629              	.LVL416:
 3630              	.L415:
 3631              	.LBE1443:
 3632              	.LBE1442:
 3633              	.LBE1441:
 3634              	.LBE1440:
 3635              	.LBB1455:
 3636              	.LBB1456:
 3637              	.LBB1457:
 3638              	.LBB1458:
 215:C:/Renesas/e2studio_2021_01_workspace_RZA2M_ANPR/ANPR_RZA2M_EBK/src/tensorflow_lite/tensorflow/lite/kernels/internal\types.h ****     return size_ > kMaxSmallSize ? dims_pointer_[i] : dims_[i];
 3639              		.loc 4 215 0
 3640 13b8 04109DE5 		ldr	r1, [sp, #4]
 3641 13bc 040051E3 		cmp	r1, #4
 3642 13c0 6301000A 		beq	.L1121
 216:C:/Renesas/e2studio_2021_01_workspace_RZA2M_ANPR/ANPR_RZA2M_EBK/src/tensorflow_lite/tensorflow/lite/kernels/internal\types.h ****   }
 3643              		.loc 4 216 0
 3644 13c4 050051E3 		cmp	r1, #5
 3645 13c8 5801001A 		bne	.L1122
 3646 13cc D8109DE5 		ldr	r1, [sp, #216]
 3647              	.LBE1458:
 3648              	.LBE1457:
  81:C:/Renesas/e2studio_2021_01_workspace_RZA2M_ANPR/ANPR_RZA2M_EBK/src/tensorflow_lite/tensorflow/lite/kernels/internal\strided_slice_logic.h ****     return 0;
 3649              		.loc 5 81 0
 3650 13d0 000051E3 		cmp	r1, #0
 3651              	.LVL417:
 3652              	.LBB1462:
 3653              	.LBB1459:
 216:C:/Renesas/e2studio_2021_01_workspace_RZA2M_ANPR/ANPR_RZA2M_EBK/src/tensorflow_lite/tensorflow/lite/kernels/internal\types.h ****   }
 3654              		.loc 4 216 0
 3655 13d4 20108DE5 		str	r1, [sp, #32]
 3656              	.LBE1459:
 3657              	.LBE1462:
  81:C:/Renesas/e2studio_2021_01_workspace_RZA2M_ANPR/ANPR_RZA2M_EBK/src/tensorflow_lite/tensorflow/lite/kernels/internal\strided_slice_logic.h ****     return 0;
 3658              		.loc 5 81 0
 3659 13d8 5001000A 		beq	.L617
 3660              	.L435:
  88:C:/Renesas/e2studio_2021_01_workspace_RZA2M_ANPR/ANPR_RZA2M_EBK/src/tensorflow_lite/tensorflow/lite/kernels/internal\strided_slice_logic.h ****     if (strides[axis] > 0) {
 3661              		.loc 5 88 0
 3662 13dc 100014E3 		tst	r4, #16
  89:C:/Renesas/e2studio_2021_01_workspace_RZA2M_ANPR/ANPR_RZA2M_EBK/src/tensorflow_lite/tensorflow/lite/kernels/internal\strided_slice_logic.h ****       // Forward iteration - use the first element. These values will get
 3663              		.loc 5 89 0
 3664 13e0 38919DE5 		ldr	r9, [sp, #312]
  85:C:/Renesas/e2studio_2021_01_workspace_RZA2M_ANPR/ANPR_RZA2M_EBK/src/tensorflow_lite/tensorflow/lite/kernels/internal\strided_slice_logic.h **** 
 3665              		.loc 5 85 0
 3666 13e4 08019DE5 		ldr	r0, [sp, #264]
 3667              	.LVL418:
  88:C:/Renesas/e2studio_2021_01_workspace_RZA2M_ANPR/ANPR_RZA2M_EBK/src/tensorflow_lite/tensorflow/lite/kernels/internal\strided_slice_logic.h ****     if (strides[axis] > 0) {
 3668              		.loc 5 88 0
 3669 13e8 4901000A 		beq	.L437
  89:C:/Renesas/e2studio_2021_01_workspace_RZA2M_ANPR/ANPR_RZA2M_EBK/src/tensorflow_lite/tensorflow/lite/kernels/internal\strided_slice_logic.h ****       // Forward iteration - use the first element. These values will get
 3670              		.loc 5 89 0
 3671 13ec 000059E3 		cmp	r9, #0
  93:C:/Renesas/e2studio_2021_01_workspace_RZA2M_ANPR/ANPR_RZA2M_EBK/src/tensorflow_lite/tensorflow/lite/kernels/internal\strided_slice_logic.h ****     } else {
 3672              		.loc 5 93 0
 3673 13f0 0201A0C3 		movgt	r0, #-2147483648
 3674              	.LVL419:
  89:C:/Renesas/e2studio_2021_01_workspace_RZA2M_ANPR/ANPR_RZA2M_EBK/src/tensorflow_lite/tensorflow/lite/kernels/internal\strided_slice_logic.h ****       // Forward iteration - use the first element. These values will get
 3675              		.loc 5 89 0
 3676 13f4 420100DA 		ble	.L1123
 3677              	.L438:
 3678              	.LVL420:
 102:C:/Renesas/e2studio_2021_01_workspace_RZA2M_ANPR/ANPR_RZA2M_EBK/src/tensorflow_lite/tensorflow/lite/kernels/internal\strided_slice_logic.h ****   }
 3679              		.loc 5 102 0
 3680 13f8 010080E0 		add	r0, r0, r1
 3681              	.LVL421:
 3682              	.L441:
 106:C:/Renesas/e2studio_2021_01_workspace_RZA2M_ANPR/ANPR_RZA2M_EBK/src/tensorflow_lite/tensorflow/lite/kernels/internal\strided_slice_logic.h ****     // Forward iteration
 3683              		.loc 5 106 0
 3684 13fc 000059E3 		cmp	r9, #0
 3685 1400 390100DA 		ble	.L442
 3686              	.LVL422:
 3687              	.LBB1463:
 3688              	.LBB1464:
  30:C:/Renesas/e2studio_2021_01_workspace_RZA2M_ANPR/ANPR_RZA2M_EBK/src/tensorflow_lite/tensorflow/lite/kernels/internal\strided_slice_logic.h ****   if (hi < v) return hi;
 3689              		.loc 5 30 0
 3690 1404 000051E3 		cmp	r1, #0
 3691 1408 360100BA 		blt	.L1124
  31:C:/Renesas/e2studio_2021_01_workspace_RZA2M_ANPR/ANPR_RZA2M_EBK/src/tensorflow_lite/tensorflow/lite/kernels/internal\strided_slice_logic.h ****   if (v < lo) return lo;
 3692              		.loc 5 31 0
 3693 140c 000051E1 		cmp	r1, r0
 3694 1410 01B0A0B1 		movlt	fp, r1
 3695 1414 C0BFC0A1 		bicge	fp, r0, r0, asr #31
 3696              	.LVL423:
 3697              	.L444:
 3698              	.LBE1464:
 3699              	.LBE1463:
 3700              	.LBE1456:
 3701              	.LBE1455:
 3702              	.LBB1476:
 3703              	.LBB1477:
 142:C:/Renesas/e2studio_2021_01_workspace_RZA2M_ANPR/ANPR_RZA2M_EBK/src/tensorflow_lite/tensorflow/lite/kernels/internal\strided_slice_logic.h ****     return start_for_axis + 1;
 3704              		.loc 5 142 0
 3705 1418 100016E3 		tst	r6, #16
 136:C:/Renesas/e2studio_2021_01_workspace_RZA2M_ANPR/ANPR_RZA2M_EBK/src/tensorflow_lite/tensorflow/lite/kernels/internal\strided_slice_logic.h **** 
 3706              		.loc 5 136 0
 3707 141c 20019DE5 		ldr	r0, [sp, #288]
 3708              	.LVL424:
 142:C:/Renesas/e2studio_2021_01_workspace_RZA2M_ANPR/ANPR_RZA2M_EBK/src/tensorflow_lite/tensorflow/lite/kernels/internal\strided_slice_logic.h ****     return start_for_axis + 1;
 3709              		.loc 5 142 0
 3710 1420 2D01001A 		bne	.L1125
 147:C:/Renesas/e2studio_2021_01_workspace_RZA2M_ANPR/ANPR_RZA2M_EBK/src/tensorflow_lite/tensorflow/lite/kernels/internal\strided_slice_logic.h ****     if (strides[axis] > 0) {
 3711              		.loc 5 147 0
 3712 1424 100015E3 		tst	r5, #16
 3713 1428 1F01000A 		beq	.L447
 148:C:/Renesas/e2studio_2021_01_workspace_RZA2M_ANPR/ANPR_RZA2M_EBK/src/tensorflow_lite/tensorflow/lite/kernels/internal\strided_slice_logic.h ****       // Forward iteration - use the last element. These values will get
 3714              		.loc 5 148 0
 3715 142c 000059E3 		cmp	r9, #0
 154:C:/Renesas/e2studio_2021_01_workspace_RZA2M_ANPR/ANPR_RZA2M_EBK/src/tensorflow_lite/tensorflow/lite/kernels/internal\strided_slice_logic.h ****     }
 3716              		.loc 5 154 0
 3717 1430 0201A0D3 		movle	r0, #-2147483648
 3718              	.LVL425:
 148:C:/Renesas/e2studio_2021_01_workspace_RZA2M_ANPR/ANPR_RZA2M_EBK/src/tensorflow_lite/tensorflow/lite/kernels/internal\strided_slice_logic.h ****       // Forward iteration - use the last element. These values will get
 3719              		.loc 5 148 0
 3720 1434 1E0100DA 		ble	.L449
 151:C:/Renesas/e2studio_2021_01_workspace_RZA2M_ANPR/ANPR_RZA2M_EBK/src/tensorflow_lite/tensorflow/lite/kernels/internal\strided_slice_logic.h ****     } else {
 3721              		.loc 5 151 0
 3722 1438 0201E0E3 		mvn	r0, #-2147483648
 3723              	.LVL426:
 3724              	.L448:
 3725              	.LBB1478:
 3726              	.LBB1479:
  30:C:/Renesas/e2studio_2021_01_workspace_RZA2M_ANPR/ANPR_RZA2M_EBK/src/tensorflow_lite/tensorflow/lite/kernels/internal\strided_slice_logic.h ****   if (hi < v) return hi;
 3727              		.loc 5 30 0
 3728 143c 000051E3 		cmp	r1, #0
 3729 1440 180100BA 		blt	.L1126
  31:C:/Renesas/e2studio_2021_01_workspace_RZA2M_ANPR/ANPR_RZA2M_EBK/src/tensorflow_lite/tensorflow/lite/kernels/internal\strided_slice_logic.h ****   if (v < lo) return lo;
 3730              		.loc 5 31 0
 3731 1444 000051E1 		cmp	r1, r0
 3732 1448 0160A0B1 		movlt	r6, r1
 3733              	.LVL427:
 3734 144c C06FC0A1 		bicge	r6, r0, r0, asr #31
 3735              	.LVL428:
 3736              	.L446:
 3737              	.LBE1479:
 3738              	.LBE1478:
 3739              	.LBE1477:
 3740              	.LBE1476:
 3741              	.LBB1489:
 3742              	.LBB1490:
 3743              	.LBB1491:
 216:C:/Renesas/e2studio_2021_01_workspace_RZA2M_ANPR/ANPR_RZA2M_EBK/src/tensorflow_lite/tensorflow/lite/kernels/internal\types.h ****   }
 3744              		.loc 4 216 0
 3745 1450 04109DE5 		ldr	r1, [sp, #4]
 3746 1454 050051E3 		cmp	r1, #5
 3747 1458 0701001A 		bne	.L929
 3748 145c D8109DE5 		ldr	r1, [sp, #216]
 3749 1460 20108DE5 		str	r1, [sp, #32]
 3750              	.LVL429:
 3751              	.L436:
 3752              	.LBE1491:
 3753              	.LBE1490:
  65:C:/Renesas/e2studio_2021_01_workspace_RZA2M_ANPR/ANPR_RZA2M_EBK/src/tensorflow_lite/tensorflow/lite/kernels/internal/reference\strided_slice.h ****            end_0 = stop_0 * input_shape.Dims(1),
 3754              		.loc 3 65 0
 3755 1464 930203E0 		mul	r3, r3, r2
 3756 1468 28308DE5 		str	r3, [sp, #40]
 3757              	.LVL430:
  67:C:/Renesas/e2studio_2021_01_workspace_RZA2M_ANPR/ANPR_RZA2M_EBK/src/tensorflow_lite/tensorflow/lite/kernels/internal/reference\strided_slice.h ****        !LoopCondition(offset_0, end_0, params_copy.strides[0]);
 3758              		.loc 3 67 0
 3759 146c 28319DE5 		ldr	r3, [sp, #296]
 3760              	.LVL431:
 3761 1470 50308DE5 		str	r3, [sp, #80]
 3762 1474 C8309DE5 		ldr	r3, [sp, #200]
 3763 1478 3C308DE5 		str	r3, [sp, #60]
  66:C:/Renesas/e2studio_2021_01_workspace_RZA2M_ANPR/ANPR_RZA2M_EBK/src/tensorflow_lite/tensorflow/lite/kernels/internal/reference\strided_slice.h ****            step_0 = params_copy.strides[0] * input_shape.Dims(1);
 3764              		.loc 3 66 0
 3765 147c 920C03E0 		mul	r3, r2, ip
 3766 1480 4C308DE5 		str	r3, [sp, #76]
 3767              	.LVL432:
 3768              	.L454:
 3769              	.LBB1492:
 3770              	.LBB1493:
 3771              	.LBB1494:
 216:C:/Renesas/e2studio_2021_01_workspace_RZA2M_ANPR/ANPR_RZA2M_EBK/src/tensorflow_lite/tensorflow/lite/kernels/internal\types.h ****   }
 3772              		.loc 4 216 0
 3773 1484 D0309DE5 		ldr	r3, [sp, #208]
 3774              	.LVL433:
 3775 1488 28009DE5 		ldr	r0, [sp, #40]
 3776 148c 18C09DE5 		ldr	ip, [sp, #24]
 3777 1490 0310A0E1 		mov	r1, r3
 3778 1494 74308DE5 		str	r3, [sp, #116]
 3779              	.LBE1494:
 3780              	.LBE1493:
 3781              	.LBB1498:
 3782              	.LBB1499:
  82:C:/Renesas/e2studio_2021_01_workspace_RZA2M_ANPR/ANPR_RZA2M_EBK/src/tensorflow_lite/tensorflow/lite/kernels/internal/reference\strided_slice.h ****              !LoopCondition(offset_3, end_3, params_copy.strides[3]);
 3783              		.loc 3 82 0
 3784 1498 34819DE5 		ldr	r8, [sp, #308]
 3785 149c 00308CE0 		add	r3, ip, r0
 3786              	.LBE1499:
 3787              	.LBE1498:
 3788              	.LBE1492:
  67:C:/Renesas/e2studio_2021_01_workspace_RZA2M_ANPR/ANPR_RZA2M_EBK/src/tensorflow_lite/tensorflow/lite/kernels/internal/reference\strided_slice.h ****        !LoopCondition(offset_0, end_0, params_copy.strides[0]);
 3789              		.loc 3 67 0
 3790 14a0 50C09DE5 		ldr	ip, [sp, #80]
 3791 14a4 9C0202E0 		mul	r2, ip, r2
 3792 14a8 02C0A0E1 		mov	ip, r2
 3793 14ac 6C208DE5 		str	r2, [sp, #108]
 3794              	.LVL434:
 3795 14b0 0020A0E1 		mov	r2, r0
 3796              	.LVL435:
 3797 14b4 34009DE5 		ldr	r0, [sp, #52]
 3798 14b8 002082E0 		add	r2, r2, r0
 3799              	.LBB1554:
  72:C:/Renesas/e2studio_2021_01_workspace_RZA2M_ANPR/ANPR_RZA2M_EBK/src/tensorflow_lite/tensorflow/lite/kernels/internal/reference\strided_slice.h ****          !LoopCondition(offset_1, end_1, params_copy.strides[1]);
 3800              		.loc 3 72 0
 3801 14bc 2C019DE5 		ldr	r0, [sp, #300]
 3802 14c0 032042E0 		sub	r2, r2, r3
 3803 14c4 910303E0 		mul	r3, r1, r3
 3804 14c8 910202E0 		mul	r2, r1, r2
 3805 14cc 5C008DE5 		str	r0, [sp, #92]
 3806              	.LBB1542:
 3807              	.LBB1524:
 3808              	.LBB1525:
 216:C:/Renesas/e2studio_2021_01_workspace_RZA2M_ANPR/ANPR_RZA2M_EBK/src/tensorflow_lite/tensorflow/lite/kernels/internal\types.h ****   }
 3809              		.loc 4 216 0
 3810 14d0 D4009DE5 		ldr	r0, [sp, #212]
 3811 14d4 44308DE5 		str	r3, [sp, #68]
 3812 14d8 910C03E0 		mul	r3, r1, ip
 3813 14dc 0710A0E1 		mov	r1, r7
 3814 14e0 0A70A0E1 		mov	r7, r10
 3815              	.LVL436:
 3816 14e4 60208DE5 		str	r2, [sp, #96]
 3817 14e8 06A0A0E1 		mov	r10, r6
 3818              	.LVL437:
 3819              	.LBE1525:
 3820              	.LBE1524:
  77:C:/Renesas/e2studio_2021_01_workspace_RZA2M_ANPR/ANPR_RZA2M_EBK/src/tensorflow_lite/tensorflow/lite/kernels/internal/reference\strided_slice.h ****            !LoopCondition(offset_2, end_2, params_copy.strides[2]);
 3821              		.loc 3 77 0
 3822 14ec 30219DE5 		ldr	r2, [sp, #304]
 3823              	.LBB1530:
 3824              	.LBB1526:
 216:C:/Renesas/e2studio_2021_01_workspace_RZA2M_ANPR/ANPR_RZA2M_EBK/src/tensorflow_lite/tensorflow/lite/kernels/internal\types.h ****   }
 3825              		.loc 4 216 0
 3826 14f0 58008DE5 		str	r0, [sp, #88]
 3827 14f4 64308DE5 		str	r3, [sp, #100]
 3828              	.LBE1526:
 3829              	.LBE1530:
  77:C:/Renesas/e2studio_2021_01_workspace_RZA2M_ANPR/ANPR_RZA2M_EBK/src/tensorflow_lite/tensorflow/lite/kernels/internal/reference\strided_slice.h ****            !LoopCondition(offset_2, end_2, params_copy.strides[2]);
 3830              		.loc 3 77 0
 3831 14f8 10208DE5 		str	r2, [sp, #16]
 3832              	.LVL438:
 3833              	.L480:
 3834              	.LBE1542:
 3835              	.LBE1554:
 3836              	.LBB1555:
 3837              	.LBB1556:
 3838              		.loc 5 179 0
 3839 14fc 50309DE5 		ldr	r3, [sp, #80]
 3840 1500 4C209DE5 		ldr	r2, [sp, #76]
 3841 1504 000053E3 		cmp	r3, #0
 3842 1508 28309DE5 		ldr	r3, [sp, #40]
 3843 150c D60000DA 		ble	.L455
 3844 1510 020053E1 		cmp	r3, r2
 3845 1514 0030A0B3 		movlt	r3, #0
 3846 1518 0130A0A3 		movge	r3, #1
 3847              	.L456:
 3848              	.LVL439:
 3849              	.LBE1556:
 3850              	.LBE1555:
  65:C:/Renesas/e2studio_2021_01_workspace_RZA2M_ANPR/ANPR_RZA2M_EBK/src/tensorflow_lite/tensorflow/lite/kernels/internal/reference\strided_slice.h ****            end_0 = stop_0 * input_shape.Dims(1),
 3851              		.loc 3 65 0
 3852 151c 000053E3 		cmp	r3, #0
 3853 1520 B300001A 		bne	.L457
 3854              	.LBB1558:
 3855              	.LBB1543:
 3856              	.LBB1495:
 216:C:/Renesas/e2studio_2021_01_workspace_RZA2M_ANPR/ANPR_RZA2M_EBK/src/tensorflow_lite/tensorflow/lite/kernels/internal\types.h ****   }
 3857              		.loc 4 216 0
 3858 1524 04309DE5 		ldr	r3, [sp, #4]
 3859 1528 18209DE5 		ldr	r2, [sp, #24]
 3860 152c 050053E3 		cmp	r3, #5
 3861 1530 28309DE5 		ldr	r3, [sp, #40]
 3862 1534 020083E0 		add	r0, r3, r2
 3863              	.LVL440:
 3864 1538 A300001A 		bne	.L1127
 3865              	.LVL441:
 3866              	.LBE1495:
 3867              	.LBE1543:
  70:C:/Renesas/e2studio_2021_01_workspace_RZA2M_ANPR/ANPR_RZA2M_EBK/src/tensorflow_lite/tensorflow/lite/kernels/internal/reference\strided_slice.h ****              end_1 = (offset_0 + stop_1) * input_shape.Dims(2),
 3868              		.loc 3 70 0
 3869 153c 44309DE5 		ldr	r3, [sp, #68]
 3870 1540 60209DE5 		ldr	r2, [sp, #96]
 3871 1544 2C308DE5 		str	r3, [sp, #44]
 3872              	.LVL442:
 3873 1548 023083E0 		add	r3, r3, r2
 3874              	.LVL443:
 3875 154c 54308DE5 		str	r3, [sp, #84]
 3876              	.LVL444:
 3877              	.LBB1544:
 3878              	.LBB1545:
 216:C:/Renesas/e2studio_2021_01_workspace_RZA2M_ANPR/ANPR_RZA2M_EBK/src/tensorflow_lite/tensorflow/lite/kernels/internal\types.h ****   }
 3879              		.loc 4 216 0
 3880 1550 74309DE5 		ldr	r3, [sp, #116]
 3881              	.LVL445:
 3882              	.L459:
 3883              	.LBE1545:
 3884              	.LBE1544:
  72:C:/Renesas/e2studio_2021_01_workspace_RZA2M_ANPR/ANPR_RZA2M_EBK/src/tensorflow_lite/tensorflow/lite/kernels/internal/reference\strided_slice.h ****          !LoopCondition(offset_1, end_1, params_copy.strides[1]);
 3885              		.loc 3 72 0
 3886 1554 5C209DE5 		ldr	r2, [sp, #92]
 3887 1558 38009DE5 		ldr	r0, [sp, #56]
 3888 155c 920303E0 		mul	r3, r2, r3
 3889 1560 14209DE5 		ldr	r2, [sp, #20]
 3890 1564 03C0A0E1 		mov	ip, r3
 3891 1568 70308DE5 		str	r3, [sp, #112]
 3892              	.LVL446:
 3893 156c 2C309DE5 		ldr	r3, [sp, #44]
 3894              	.LVL447:
 3895 1570 032082E0 		add	r2, r2, r3
 3896 1574 033080E0 		add	r3, r0, r3
 3897 1578 58009DE5 		ldr	r0, [sp, #88]
 3898 157c 023043E0 		sub	r3, r3, r2
 3899 1580 900303E0 		mul	r3, r0, r3
 3900 1584 900202E0 		mul	r2, r0, r2
 3901 1588 68308DE5 		str	r3, [sp, #104]
 3902 158c 900C03E0 		mul	r3, r0, ip
 3903 1590 48208DE5 		str	r2, [sp, #72]
 3904 1594 78308DE5 		str	r3, [sp, #120]
 3905              	.LVL448:
 3906              	.L479:
 3907              	.LBB1546:
 3908              	.LBB1547:
 3909              		.loc 5 179 0
 3910 1598 5C309DE5 		ldr	r3, [sp, #92]
 3911 159c 54209DE5 		ldr	r2, [sp, #84]
 3912 15a0 000053E3 		cmp	r3, #0
 3913 15a4 2C309DE5 		ldr	r3, [sp, #44]
 3914 15a8 790000DA 		ble	.L460
 3915 15ac 020053E1 		cmp	r3, r2
 3916 15b0 0030A0B3 		movlt	r3, #0
 3917 15b4 0130A0A3 		movge	r3, #1
 3918              	.LVL449:
 3919              	.LBE1547:
 3920              	.LBE1546:
  70:C:/Renesas/e2studio_2021_01_workspace_RZA2M_ANPR/ANPR_RZA2M_EBK/src/tensorflow_lite/tensorflow/lite/kernels/internal/reference\strided_slice.h ****              end_1 = (offset_0 + stop_1) * input_shape.Dims(2),
 3921              		.loc 3 70 0
 3922 15b8 000053E3 		cmp	r3, #0
 3923 15bc 7900001A 		bne	.L462
 3924              	.L1136:
 3925              	.LBB1549:
 3926              	.LBB1531:
 3927              	.LBB1527:
 216:C:/Renesas/e2studio_2021_01_workspace_RZA2M_ANPR/ANPR_RZA2M_EBK/src/tensorflow_lite/tensorflow/lite/kernels/internal\types.h ****   }
 3928              		.loc 4 216 0
 3929 15c0 04309DE5 		ldr	r3, [sp, #4]
 3930 15c4 14209DE5 		ldr	r2, [sp, #20]
 3931 15c8 050053E3 		cmp	r3, #5
 3932 15cc 2C309DE5 		ldr	r3, [sp, #44]
 3933 15d0 025083E0 		add	r5, r3, r2
 3934              	.LVL450:
 3935 15d4 6500001A 		bne	.L1128
 3936              	.LVL451:
 3937              	.LBE1527:
 3938              	.LBE1531:
  75:C:/Renesas/e2studio_2021_01_workspace_RZA2M_ANPR/ANPR_RZA2M_EBK/src/tensorflow_lite/tensorflow/lite/kernels/internal/reference\strided_slice.h ****                end_2 = (offset_1 + stop_2) * input_shape.Dims(3),
 3939              		.loc 3 75 0
 3940 15d8 48309DE5 		ldr	r3, [sp, #72]
 3941 15dc 68209DE5 		ldr	r2, [sp, #104]
 3942 15e0 0350A0E1 		mov	r5, r3
 3943              	.LVL452:
 3944 15e4 033082E0 		add	r3, r2, r3
 3945              	.LVL453:
 3946 15e8 1C308DE5 		str	r3, [sp, #28]
 3947              	.LVL454:
 3948              	.LBB1532:
 3949              	.LBB1533:
 216:C:/Renesas/e2studio_2021_01_workspace_RZA2M_ANPR/ANPR_RZA2M_EBK/src/tensorflow_lite/tensorflow/lite/kernels/internal\types.h ****   }
 3950              		.loc 4 216 0
 3951 15ec 58309DE5 		ldr	r3, [sp, #88]
 3952              	.LVL455:
 3953              	.L464:
 3954              	.LBE1533:
 3955              	.LBE1532:
  77:C:/Renesas/e2studio_2021_01_workspace_RZA2M_ANPR/ANPR_RZA2M_EBK/src/tensorflow_lite/tensorflow/lite/kernels/internal/reference\strided_slice.h ****            !LoopCondition(offset_2, end_2, params_copy.strides[2]);
 3956              		.loc 3 77 0
 3957 15f0 10209DE5 		ldr	r2, [sp, #16]
 3958 15f4 920303E0 		mul	r3, r2, r3
 3959 15f8 20209DE5 		ldr	r2, [sp, #32]
 3960 15fc 0300A0E1 		mov	r0, r3
 3961 1600 30308DE5 		str	r3, [sp, #48]
 3962              	.LVL456:
 3963 1604 08309DE5 		ldr	r3, [sp, #8]
 3964 1608 056083E0 		add	r6, r3, r5
 3965 160c 0C309DE5 		ldr	r3, [sp, #12]
 3966 1610 033085E0 		add	r3, r5, r3
 3967 1614 063043E0 		sub	r3, r3, r6
 3968 1618 920606E0 		mul	r6, r2, r6
 3969 161c 920303E0 		mul	r3, r2, r3
 3970 1620 40308DE5 		str	r3, [sp, #64]
 3971 1624 920003E0 		mul	r3, r2, r0
 3972 1628 24308DE5 		str	r3, [sp, #36]
 3973              	.LVL457:
 3974              	.LBB1534:
 3975              	.LBB1535:
 3976              		.loc 5 179 0
 3977 162c 10309DE5 		ldr	r3, [sp, #16]
 3978 1630 000053E3 		cmp	r3, #0
 3979 1634 1C309DE5 		ldr	r3, [sp, #28]
 3980 1638 360000DA 		ble	.L465
 3981              	.LVL458:
 3982              	.L1132:
 3983 163c 030055E1 		cmp	r5, r3
 3984 1640 0030A0B3 		movlt	r3, #0
 3985 1644 0130A0A3 		movge	r3, #1
 3986              	.LVL459:
 3987              	.LBE1535:
 3988              	.LBE1534:
  75:C:/Renesas/e2studio_2021_01_workspace_RZA2M_ANPR/ANPR_RZA2M_EBK/src/tensorflow_lite/tensorflow/lite/kernels/internal/reference\strided_slice.h ****                end_2 = (offset_1 + stop_2) * input_shape.Dims(3),
 3989              		.loc 3 75 0
 3990 1648 000053E3 		cmp	r3, #0
 3991 164c 3600001A 		bne	.L467
 3992              	.L1133:
 3993              	.LBB1537:
 3994              	.LBB1500:
 3995              	.LBB1501:
 216:C:/Renesas/e2studio_2021_01_workspace_RZA2M_ANPR/ANPR_RZA2M_EBK/src/tensorflow_lite/tensorflow/lite/kernels/internal\types.h ****   }
 3996              		.loc 4 216 0
 3997 1650 04309DE5 		ldr	r3, [sp, #4]
 3998 1654 050053E3 		cmp	r3, #5
 3999 1658 08309DE5 		ldr	r3, [sp, #8]
 4000              	.LBE1501:
 4001              	.LBE1500:
 4002              	.LBB1504:
 4003              	.LBB1505:
 4004 165c 20E09D05 		ldreq	lr, [sp, #32]
 4005 1660 03C085E0 		add	ip, r5, r3
 4006              	.LVL460:
 4007              	.LBE1505:
 4008              	.LBE1504:
 4009              	.LBB1506:
 4010              	.LBB1502:
 4011 1664 3C309D15 		ldrne	r3, [sp, #60]
 4012 1668 40309D05 		ldreq	r3, [sp, #64]
 4013              	.LBE1502:
 4014              	.LBE1506:
  80:C:/Renesas/e2studio_2021_01_workspace_RZA2M_ANPR/ANPR_RZA2M_EBK/src/tensorflow_lite/tensorflow/lite/kernels/internal/reference\strided_slice.h ****                  end_3 = (offset_2 + stop_3) * input_shape.Dims(4),
 4015              		.loc 3 80 0
 4016 166c 06C0A001 		moveq	ip, r6
 4017              	.LBB1507:
 4018              	.LBB1503:
 216:C:/Renesas/e2studio_2021_01_workspace_RZA2M_ANPR/ANPR_RZA2M_EBK/src/tensorflow_lite/tensorflow/lite/kernels/internal\types.h ****   }
 4019              		.loc 4 216 0
 4020 1670 10E09315 		ldrne	lr, [r3, #16]
 4021              	.LVL461:
 4022              	.LBE1503:
 4023              	.LBE1507:
  81:C:/Renesas/e2studio_2021_01_workspace_RZA2M_ANPR/ANPR_RZA2M_EBK/src/tensorflow_lite/tensorflow/lite/kernels/internal/reference\strided_slice.h ****                  step_3 = params_copy.strides[3] * input_shape.Dims(4);
 4024              		.loc 3 81 0
 4025 1674 0C309D15 		ldrne	r3, [sp, #12]
 4026 1678 03408600 		addeq	r4, r6, r3
 4027 167c 03408510 		addne	r4, r5, r3
  80:C:/Renesas/e2studio_2021_01_workspace_RZA2M_ANPR/ANPR_RZA2M_EBK/src/tensorflow_lite/tensorflow/lite/kernels/internal/reference\strided_slice.h ****                  end_3 = (offset_2 + stop_3) * input_shape.Dims(4),
 4028              		.loc 3 80 0
 4029 1680 9E0C0C10 		mulne	ip, lr, ip
  81:C:/Renesas/e2studio_2021_01_workspace_RZA2M_ANPR/ANPR_RZA2M_EBK/src/tensorflow_lite/tensorflow/lite/kernels/internal/reference\strided_slice.h ****                  step_3 = params_copy.strides[3] * input_shape.Dims(4);
 4030              		.loc 3 81 0
 4031 1684 9E040410 		mulne	r4, lr, r4
 4032              	.LVL462:
 4033              	.LBB1508:
 4034              	.LBB1509:
 4035              		.loc 5 179 0
 4036 1688 000058E3 		cmp	r8, #0
 4037              	.LBE1509:
 4038              	.LBE1508:
  82:C:/Renesas/e2studio_2021_01_workspace_RZA2M_ANPR/ANPR_RZA2M_EBK/src/tensorflow_lite/tensorflow/lite/kernels/internal/reference\strided_slice.h ****              !LoopCondition(offset_3, end_3, params_copy.strides[3]);
 4039              		.loc 3 82 0
 4040 168c 980E0EE0 		mul	lr, r8, lr
 4041              	.LVL463:
 4042              	.LBB1512:
 4043              	.LBB1510:
 4044              		.loc 5 179 0
 4045 1690 130000DA 		ble	.L470
 4046              	.L1130:
 4047 1694 04005CE1 		cmp	ip, r4
 4048 1698 0030A0B3 		movlt	r3, #0
 4049 169c 0130A0A3 		movge	r3, #1
 4050              	.LVL464:
 4051              	.LBE1510:
 4052              	.LBE1512:
  80:C:/Renesas/e2studio_2021_01_workspace_RZA2M_ANPR/ANPR_RZA2M_EBK/src/tensorflow_lite/tensorflow/lite/kernels/internal/reference\strided_slice.h ****                  end_3 = (offset_2 + stop_3) * input_shape.Dims(4),
 4053              		.loc 3 80 0
 4054 16a0 000053E3 		cmp	r3, #0
 4055 16a4 1300001A 		bne	.L472
 4056              	.L1131:
 4057 16a8 000059E3 		cmp	r9, #0
 4058 16ac 0120A0E1 		mov	r2, r1
 4059 16b0 0C308BE0 		add	r3, fp, ip
 4060              	.LVL465:
 4061 16b4 0C008AE0 		add	r0, r10, ip
 4062              	.LVL466:
 4063 16b8 030000CA 		bgt	.L476
 4064 16bc 260000EA 		b	.L475
 4065              	.L1129:
 4066              	.LVL467:
 4067              	.LBB1513:
 4068              	.LBB1514:
 4069              	.LBB1515:
 4070              		.loc 6 109 0
 4071 16c0 D31097E1 		ldrsb	r1, [r7, r3]
 4072              	.LVL468:
 4073              	.LBE1515:
 4074              	.LBE1514:
 4075              		.loc 3 85 0
 4076 16c4 093083E0 		add	r3, r3, r9
 4077              	.LVL469:
 4078              	.LBB1519:
 4079              	.LBB1516:
 4080              		.loc 6 109 0
 4081 16c8 0110C2E4 		strb	r1, [r2], #1
 4082              	.LVL470:
 4083              	.L476:
 4084              	.LBE1516:
 4085              	.LBE1519:
 4086              		.loc 3 85 0
 4087 16cc 000053E1 		cmp	r3, r0
 4088 16d0 0210A0E1 		mov	r1, r2
 4089              	.LVL471:
 4090 16d4 F9FFFFBA 		blt	.L1129
 4091              	.LBE1513:
  80:C:/Renesas/e2studio_2021_01_workspace_RZA2M_ANPR/ANPR_RZA2M_EBK/src/tensorflow_lite/tensorflow/lite/kernels/internal/reference\strided_slice.h ****                  end_3 = (offset_2 + stop_3) * input_shape.Dims(4),
 4092              		.loc 3 80 0
 4093 16d8 0EC08CE0 		add	ip, ip, lr
 4094              	.LVL472:
 4095              	.L1135:
 4096              	.LBB1522:
 4097              	.LBB1511:
 4098              		.loc 5 179 0
 4099 16dc 000058E3 		cmp	r8, #0
 4100 16e0 EBFFFFCA 		bgt	.L1130
 4101              	.LVL473:
 4102              	.L470:
 4103 16e4 04005CE1 		cmp	ip, r4
 4104 16e8 0030A0C3 		movgt	r3, #0
 4105 16ec 0130A0D3 		movle	r3, #1
 4106              	.LVL474:
 4107              	.LBE1511:
 4108              	.LBE1522:
  80:C:/Renesas/e2studio_2021_01_workspace_RZA2M_ANPR/ANPR_RZA2M_EBK/src/tensorflow_lite/tensorflow/lite/kernels/internal/reference\strided_slice.h ****                  end_3 = (offset_2 + stop_3) * input_shape.Dims(4),
 4109              		.loc 3 80 0
 4110 16f0 000053E3 		cmp	r3, #0
 4111 16f4 EBFFFF0A 		beq	.L1131
 4112              	.L472:
 4113              	.LBE1537:
  75:C:/Renesas/e2studio_2021_01_workspace_RZA2M_ANPR/ANPR_RZA2M_EBK/src/tensorflow_lite/tensorflow/lite/kernels/internal/reference\strided_slice.h ****                end_2 = (offset_1 + stop_2) * input_shape.Dims(3),
 4114              		.loc 3 75 0
 4115 16f8 30309DE5 		ldr	r3, [sp, #48]
 4116 16fc 035085E0 		add	r5, r5, r3
 4117              	.LVL475:
 4118 1700 24309DE5 		ldr	r3, [sp, #36]
 4119 1704 036086E0 		add	r6, r6, r3
 4120              	.LVL476:
 4121              	.LBB1538:
 4122              	.LBB1536:
 4123              		.loc 5 179 0
 4124 1708 10309DE5 		ldr	r3, [sp, #16]
 4125 170c 000053E3 		cmp	r3, #0
 4126 1710 1C309DE5 		ldr	r3, [sp, #28]
 4127 1714 C8FFFFCA 		bgt	.L1132
 4128              	.LVL477:
 4129              	.L465:
 4130 1718 030055E1 		cmp	r5, r3
 4131 171c 0030A0C3 		movgt	r3, #0
 4132 1720 0130A0D3 		movle	r3, #1
 4133              	.LVL478:
 4134              	.LBE1536:
 4135              	.LBE1538:
  75:C:/Renesas/e2studio_2021_01_workspace_RZA2M_ANPR/ANPR_RZA2M_EBK/src/tensorflow_lite/tensorflow/lite/kernels/internal/reference\strided_slice.h ****                end_2 = (offset_1 + stop_2) * input_shape.Dims(3),
 4136              		.loc 3 75 0
 4137 1724 000053E3 		cmp	r3, #0
 4138 1728 C8FFFF0A 		beq	.L1133
 4139              	.L467:
 4140              	.LBE1549:
  70:C:/Renesas/e2studio_2021_01_workspace_RZA2M_ANPR/ANPR_RZA2M_EBK/src/tensorflow_lite/tensorflow/lite/kernels/internal/reference\strided_slice.h ****              end_1 = (offset_0 + stop_1) * input_shape.Dims(2),
 4141              		.loc 3 70 0
 4142 172c 2C309DE5 		ldr	r3, [sp, #44]
 4143 1730 70209DE5 		ldr	r2, [sp, #112]
 4144 1734 023083E0 		add	r3, r3, r2
 4145 1738 78209DE5 		ldr	r2, [sp, #120]
 4146 173c 2C308DE5 		str	r3, [sp, #44]
 4147              	.LVL479:
 4148 1740 48309DE5 		ldr	r3, [sp, #72]
 4149              	.LVL480:
 4150 1744 023083E0 		add	r3, r3, r2
 4151 1748 48308DE5 		str	r3, [sp, #72]
 4152 174c 91FFFFEA 		b	.L479
 4153              	.LVL481:
 4154              	.L1134:
 4155              	.LBB1550:
 4156              	.LBB1539:
 4157              	.LBB1523:
 4158              	.LBB1520:
 4159              	.LBB1517:
 4160              		.loc 6 109 0
 4161 1750 D31097E1 		ldrsb	r1, [r7, r3]
 4162              	.LVL482:
 4163              	.LBE1517:
 4164              	.LBE1520:
 4165              		.loc 3 85 0
 4166 1754 093083E0 		add	r3, r3, r9
 4167              	.LVL483:
 4168              	.LBB1521:
 4169              	.LBB1518:
 4170              		.loc 6 109 0
 4171 1758 0110C2E4 		strb	r1, [r2], #1
 4172              	.LVL484:
 4173              	.L475:
 4174              	.LBE1518:
 4175              	.LBE1521:
 4176              		.loc 3 85 0
 4177 175c 030050E1 		cmp	r0, r3
 4178 1760 0210A0E1 		mov	r1, r2
 4179              	.LVL485:
 4180 1764 F9FFFFBA 		blt	.L1134
 4181              	.LBE1523:
  80:C:/Renesas/e2studio_2021_01_workspace_RZA2M_ANPR/ANPR_RZA2M_EBK/src/tensorflow_lite/tensorflow/lite/kernels/internal/reference\strided_slice.h ****                  end_3 = (offset_2 + stop_3) * input_shape.Dims(4),
 4182              		.loc 3 80 0
 4183 1768 0EC08CE0 		add	ip, ip, lr
 4184              	.LVL486:
 4185 176c DAFFFFEA 		b	.L1135
 4186              	.LVL487:
 4187              	.L1128:
 4188 1770 0320A0E1 		mov	r2, r3
 4189              	.LBE1539:
 4190              	.LBB1540:
 4191              	.LBB1528:
 216:C:/Renesas/e2studio_2021_01_workspace_RZA2M_ANPR/ANPR_RZA2M_EBK/src/tensorflow_lite/tensorflow/lite/kernels/internal\types.h ****   }
 4192              		.loc 4 216 0
 4193 1774 3C309DE5 		ldr	r3, [sp, #60]
 4194              	.LBE1528:
 4195              	.LBE1540:
  76:C:/Renesas/e2studio_2021_01_workspace_RZA2M_ANPR/ANPR_RZA2M_EBK/src/tensorflow_lite/tensorflow/lite/kernels/internal/reference\strided_slice.h ****                step_2 = params_copy.strides[2] * input_shape.Dims(3);
 4196              		.loc 3 76 0
 4197 1778 38009DE5 		ldr	r0, [sp, #56]
 4198              	.LBB1541:
 4199              	.LBB1529:
 216:C:/Renesas/e2studio_2021_01_workspace_RZA2M_ANPR/ANPR_RZA2M_EBK/src/tensorflow_lite/tensorflow/lite/kernels/internal\types.h ****   }
 4200              		.loc 4 216 0
 4201 177c 0C3093E5 		ldr	r3, [r3, #12]
 4202              	.LVL488:
 4203              	.LBE1529:
 4204              	.LBE1541:
  76:C:/Renesas/e2studio_2021_01_workspace_RZA2M_ANPR/ANPR_RZA2M_EBK/src/tensorflow_lite/tensorflow/lite/kernels/internal/reference\strided_slice.h ****                step_2 = params_copy.strides[2] * input_shape.Dims(3);
 4205              		.loc 3 76 0
 4206 1780 002082E0 		add	r2, r2, r0
 4207 1784 930202E0 		mul	r2, r3, r2
  75:C:/Renesas/e2studio_2021_01_workspace_RZA2M_ANPR/ANPR_RZA2M_EBK/src/tensorflow_lite/tensorflow/lite/kernels/internal/reference\strided_slice.h ****                end_2 = (offset_1 + stop_2) * input_shape.Dims(3),
 4208              		.loc 3 75 0
 4209 1788 930505E0 		mul	r5, r3, r5
 4210              	.LVL489:
  76:C:/Renesas/e2studio_2021_01_workspace_RZA2M_ANPR/ANPR_RZA2M_EBK/src/tensorflow_lite/tensorflow/lite/kernels/internal/reference\strided_slice.h ****                step_2 = params_copy.strides[2] * input_shape.Dims(3);
 4211              		.loc 3 76 0
 4212 178c 1C208DE5 		str	r2, [sp, #28]
 4213              	.LVL490:
 4214 1790 96FFFFEA 		b	.L464
 4215              	.LVL491:
 4216              	.L460:
 4217              	.LBE1550:
 4218              	.LBB1551:
 4219              	.LBB1548:
 4220              		.loc 5 179 0
 4221 1794 020053E1 		cmp	r3, r2
 4222 1798 0030A0C3 		movgt	r3, #0
 4223              	.LVL492:
 4224 179c 0130A0D3 		movle	r3, #1
 4225              	.LVL493:
 4226              	.LBE1548:
 4227              	.LBE1551:
  70:C:/Renesas/e2studio_2021_01_workspace_RZA2M_ANPR/ANPR_RZA2M_EBK/src/tensorflow_lite/tensorflow/lite/kernels/internal/reference\strided_slice.h ****              end_1 = (offset_0 + stop_1) * input_shape.Dims(2),
 4228              		.loc 3 70 0
 4229 17a0 000053E3 		cmp	r3, #0
 4230 17a4 85FFFF0A 		beq	.L1136
 4231              	.L462:
 4232              	.LBE1558:
  65:C:/Renesas/e2studio_2021_01_workspace_RZA2M_ANPR/ANPR_RZA2M_EBK/src/tensorflow_lite/tensorflow/lite/kernels/internal/reference\strided_slice.h ****            end_0 = stop_0 * input_shape.Dims(1),
 4233              		.loc 3 65 0
 4234 17a8 28309DE5 		ldr	r3, [sp, #40]
 4235 17ac 6C209DE5 		ldr	r2, [sp, #108]
 4236 17b0 023083E0 		add	r3, r3, r2
 4237 17b4 64209DE5 		ldr	r2, [sp, #100]
 4238 17b8 28308DE5 		str	r3, [sp, #40]
 4239              	.LVL494:
 4240 17bc 44309DE5 		ldr	r3, [sp, #68]
 4241              	.LVL495:
 4242 17c0 023083E0 		add	r3, r3, r2
 4243 17c4 44308DE5 		str	r3, [sp, #68]
 4244 17c8 4BFFFFEA 		b	.L480
 4245              	.LVL496:
 4246              	.L1127:
 4247 17cc 0320A0E1 		mov	r2, r3
 4248              	.LBB1559:
 4249              	.LBB1552:
 4250              	.LBB1496:
 216:C:/Renesas/e2studio_2021_01_workspace_RZA2M_ANPR/ANPR_RZA2M_EBK/src/tensorflow_lite/tensorflow/lite/kernels/internal\types.h ****   }
 4251              		.loc 4 216 0
 4252 17d0 3C309DE5 		ldr	r3, [sp, #60]
 4253              	.LBE1496:
 4254              	.LBE1552:
  71:C:/Renesas/e2studio_2021_01_workspace_RZA2M_ANPR/ANPR_RZA2M_EBK/src/tensorflow_lite/tensorflow/lite/kernels/internal/reference\strided_slice.h ****              step_1 = params_copy.strides[1] * input_shape.Dims(2);
 4255              		.loc 3 71 0
 4256 17d4 34C09DE5 		ldr	ip, [sp, #52]
 4257              	.LBB1553:
 4258              	.LBB1497:
 216:C:/Renesas/e2studio_2021_01_workspace_RZA2M_ANPR/ANPR_RZA2M_EBK/src/tensorflow_lite/tensorflow/lite/kernels/internal\types.h ****   }
 4259              		.loc 4 216 0
 4260 17d8 083093E5 		ldr	r3, [r3, #8]
 4261              	.LVL497:
 4262              	.LBE1497:
 4263              	.LBE1553:
  71:C:/Renesas/e2studio_2021_01_workspace_RZA2M_ANPR/ANPR_RZA2M_EBK/src/tensorflow_lite/tensorflow/lite/kernels/internal/reference\strided_slice.h ****              step_1 = params_copy.strides[1] * input_shape.Dims(2);
 4264              		.loc 3 71 0
 4265 17dc 0C2082E0 		add	r2, r2, ip
  70:C:/Renesas/e2studio_2021_01_workspace_RZA2M_ANPR/ANPR_RZA2M_EBK/src/tensorflow_lite/tensorflow/lite/kernels/internal/reference\strided_slice.h ****              end_1 = (offset_0 + stop_1) * input_shape.Dims(2),
 4266              		.loc 3 70 0
 4267 17e0 930000E0 		mul	r0, r3, r0
  71:C:/Renesas/e2studio_2021_01_workspace_RZA2M_ANPR/ANPR_RZA2M_EBK/src/tensorflow_lite/tensorflow/lite/kernels/internal/reference\strided_slice.h ****              step_1 = params_copy.strides[1] * input_shape.Dims(2);
 4268              		.loc 3 71 0
 4269 17e4 930202E0 		mul	r2, r3, r2
  70:C:/Renesas/e2studio_2021_01_workspace_RZA2M_ANPR/ANPR_RZA2M_EBK/src/tensorflow_lite/tensorflow/lite/kernels/internal/reference\strided_slice.h ****              end_1 = (offset_0 + stop_1) * input_shape.Dims(2),
 4270              		.loc 3 70 0
 4271 17e8 2C008DE5 		str	r0, [sp, #44]
 4272              	.LVL498:
  71:C:/Renesas/e2studio_2021_01_workspace_RZA2M_ANPR/ANPR_RZA2M_EBK/src/tensorflow_lite/tensorflow/lite/kernels/internal/reference\strided_slice.h ****              step_1 = params_copy.strides[1] * input_shape.Dims(2);
 4273              		.loc 3 71 0
 4274 17ec 54208DE5 		str	r2, [sp, #84]
 4275              	.LVL499:
 4276 17f0 57FFFFEA 		b	.L459
 4277              	.LVL500:
 4278              	.L457:
 4279              	.LBE1559:
 4280              	.LBE1489:
 4281              	.LBB1561:
 4282              	.LBB1562:
 203:C:/Renesas/e2studio_2021_01_workspace_RZA2M_ANPR/ANPR_RZA2M_EBK/src/tensorflow_lite/tensorflow/lite/kernels/internal\types.h **** #ifdef TF_LITE_STATIC_MEMORY
 4283              		.loc 4 203 0
 4284 17f4 DC309DE5 		ldr	r3, [sp, #220]
 4285 17f8 050053E3 		cmp	r3, #5
 4286 17fc 030000DA 		ble	.L481
 207:C:/Renesas/e2studio_2021_01_workspace_RZA2M_ANPR/ANPR_RZA2M_EBK/src/tensorflow_lite/tensorflow/lite/kernels/internal\types.h **** #endif  // TF_LITE_STATIC_MEMORY
 4287              		.loc 4 207 0
 4288 1800 E0009DE5 		ldr	r0, [sp, #224]
 4289 1804 000050E3 		cmp	r0, #0
 4290 1808 0000000A 		beq	.L481
 4291 180c FEFFFFEB 		bl	_ZdaPv
 4292              	.LVL501:
 4293              	.L481:
 4294              	.LBE1562:
 4295              	.LBE1561:
 4296              	.LBB1563:
 4297              	.LBB1564:
 203:C:/Renesas/e2studio_2021_01_workspace_RZA2M_ANPR/ANPR_RZA2M_EBK/src/tensorflow_lite/tensorflow/lite/kernels/internal\types.h **** #ifdef TF_LITE_STATIC_MEMORY
 4298              		.loc 4 203 0
 4299 1810 04309DE5 		ldr	r3, [sp, #4]
 4300 1814 050053E3 		cmp	r3, #5
 4301 1818 0300000A 		beq	.L482
 4302              	.LVL502:
 4303              	.L973:
 207:C:/Renesas/e2studio_2021_01_workspace_RZA2M_ANPR/ANPR_RZA2M_EBK/src/tensorflow_lite/tensorflow/lite/kernels/internal\types.h **** #endif  // TF_LITE_STATIC_MEMORY
 4304              		.loc 4 207 0
 4305 181c C8009DE5 		ldr	r0, [sp, #200]
 4306 1820 000050E3 		cmp	r0, #0
 4307 1824 0000000A 		beq	.L482
 4308 1828 FEFFFFEB 		bl	_ZdaPv
 4309              	.LVL503:
 4310              	.L482:
 4311              	.LBE1564:
 4312              	.LBE1563:
 4313              	.LBE1600:
 4314              	.LBE1608:
 4315              	.LBE1616:
 4316              	.LBE2001:
 4317              	.LBB2002:
 4318              	.LBB2003:
 203:C:/Renesas/e2studio_2021_01_workspace_RZA2M_ANPR/ANPR_RZA2M_EBK/src/tensorflow_lite/tensorflow/lite/kernels/internal\types.h **** #ifdef TF_LITE_STATIC_MEMORY
 4319              		.loc 4 203 0
 4320 182c AC309DE5 		ldr	r3, [sp, #172]
 4321 1830 050053E3 		cmp	r3, #5
 4322 1834 030000DA 		ble	.L484
 207:C:/Renesas/e2studio_2021_01_workspace_RZA2M_ANPR/ANPR_RZA2M_EBK/src/tensorflow_lite/tensorflow/lite/kernels/internal\types.h **** #endif  // TF_LITE_STATIC_MEMORY
 4323              		.loc 4 207 0
 4324 1838 B0009DE5 		ldr	r0, [sp, #176]
 4325 183c 000050E3 		cmp	r0, #0
 4326 1840 0000000A 		beq	.L484
 4327 1844 FEFFFFEB 		bl	_ZdaPv
 4328              	.LVL504:
 4329              	.L484:
 4330              	.LBE2003:
 4331              	.LBE2002:
 4332              	.LBB2004:
 4333              	.LBB2005:
 203:C:/Renesas/e2studio_2021_01_workspace_RZA2M_ANPR/ANPR_RZA2M_EBK/src/tensorflow_lite/tensorflow/lite/kernels/internal\types.h **** #ifdef TF_LITE_STATIC_MEMORY
 4334              		.loc 4 203 0
 4335 1848 94309DE5 		ldr	r3, [sp, #148]
 4336 184c 050053E3 		cmp	r3, #5
 4337 1850 030000DA 		ble	.L492
 207:C:/Renesas/e2studio_2021_01_workspace_RZA2M_ANPR/ANPR_RZA2M_EBK/src/tensorflow_lite/tensorflow/lite/kernels/internal\types.h **** #endif  // TF_LITE_STATIC_MEMORY
 4338              		.loc 4 207 0
 4339 1854 98009DE5 		ldr	r0, [sp, #152]
 4340 1858 000050E3 		cmp	r0, #0
 4341 185c 0000000A 		beq	.L492
 4342 1860 FEFFFFEB 		bl	_ZdaPv
 4343              	.LVL505:
 4344              	.L492:
 4345              	.LBE2005:
 4346              	.LBE2004:
 175:../src/tensorflow_lite/tensorflow/lite/micro/kernels/strided_slice.cc **** }
 4347              		.loc 1 175 0
 4348 1864 0000A0E3 		mov	r0, #0
 169:../src/tensorflow_lite/tensorflow/lite/micro/kernels/strided_slice.cc ****     default:
 4349              		.loc 1 169 0
 4350 1868 09FAFFEA 		b	.L907
 4351              	.LVL506:
 4352              	.L455:
 4353              	.LBB2006:
 4354              	.LBB1617:
 4355              	.LBB1609:
 4356              	.LBB1601:
 4357              	.LBB1565:
 4358              	.LBB1560:
 4359              	.LBB1557:
 4360              		.loc 5 179 0
 4361 186c 020053E1 		cmp	r3, r2
 4362 1870 0030A0C3 		movgt	r3, #0
 4363              	.LVL507:
 4364 1874 0130A0D3 		movle	r3, #1
 4365 1878 27FFFFEA 		b	.L456
 4366              	.LVL508:
 4367              	.L929:
 4368 187c C8109DE5 		ldr	r1, [sp, #200]
 4369 1880 3C108DE5 		str	r1, [sp, #60]
 4370              	.LVL509:
 4371              	.L434:
 4372              	.LBE1557:
 4373              	.LBE1560:
  65:C:/Renesas/e2studio_2021_01_workspace_RZA2M_ANPR/ANPR_RZA2M_EBK/src/tensorflow_lite/tensorflow/lite/kernels/internal/reference\strided_slice.h ****            end_0 = stop_0 * input_shape.Dims(1),
 4374              		.loc 3 65 0
 4375 1884 930203E0 		mul	r3, r3, r2
 4376 1888 28308DE5 		str	r3, [sp, #40]
 4377              	.LVL510:
  67:C:/Renesas/e2studio_2021_01_workspace_RZA2M_ANPR/ANPR_RZA2M_EBK/src/tensorflow_lite/tensorflow/lite/kernels/internal/reference\strided_slice.h ****        !LoopCondition(offset_0, end_0, params_copy.strides[0]);
 4378              		.loc 3 67 0
 4379 188c 28319DE5 		ldr	r3, [sp, #296]
 4380              	.LVL511:
 4381 1890 50308DE5 		str	r3, [sp, #80]
 4382 1894 D8309DE5 		ldr	r3, [sp, #216]
 4383 1898 20308DE5 		str	r3, [sp, #32]
  66:C:/Renesas/e2studio_2021_01_workspace_RZA2M_ANPR/ANPR_RZA2M_EBK/src/tensorflow_lite/tensorflow/lite/kernels/internal/reference\strided_slice.h ****            step_0 = params_copy.strides[0] * input_shape.Dims(1);
 4384              		.loc 3 66 0
 4385 189c 920C03E0 		mul	r3, r2, ip
 4386 18a0 4C308DE5 		str	r3, [sp, #76]
 4387              	.LVL512:
 4388 18a4 F6FEFFEA 		b	.L454
 4389              	.LVL513:
 4390              	.L1126:
 4391              	.LEHB20:
 4392              	.LBE1565:
 4393              	.LBB1566:
 4394              	.LBB1486:
 4395              	.LBB1481:
 4396              	.LBB1480:
  30:C:/Renesas/e2studio_2021_01_workspace_RZA2M_ANPR/ANPR_RZA2M_EBK/src/tensorflow_lite/tensorflow/lite/kernels/internal\strided_slice_logic.h ****   if (hi < v) return hi;
 4397              		.loc 5 30 0
 4398 18a8 FEFFFFEB 		bl	abort
 4399              	.LVL514:
 4400              	.L447:
 4401              	.LBE1480:
 4402              	.LBE1481:
 159:C:/Renesas/e2studio_2021_01_workspace_RZA2M_ANPR/ANPR_RZA2M_EBK/src/tensorflow_lite/tensorflow/lite/kernels/internal\strided_slice_logic.h ****     stop += axis_size;
 4403              		.loc 5 159 0
 4404 18ac 000050E3 		cmp	r0, #0
 4405 18b0 000000AA 		bge	.L450
 4406              	.LVL515:
 4407              	.L449:
 160:C:/Renesas/e2studio_2021_01_workspace_RZA2M_ANPR/ANPR_RZA2M_EBK/src/tensorflow_lite/tensorflow/lite/kernels/internal\strided_slice_logic.h ****   }
 4408              		.loc 5 160 0
 4409 18b4 010080E0 		add	r0, r0, r1
 4410              	.LVL516:
 4411              	.L450:
 166:C:/Renesas/e2studio_2021_01_workspace_RZA2M_ANPR/ANPR_RZA2M_EBK/src/tensorflow_lite/tensorflow/lite/kernels/internal\strided_slice_logic.h ****     // Forward iteration
 4412              		.loc 5 166 0
 4413 18b8 000059E3 		cmp	r9, #0
 4414 18bc DEFEFFCA 		bgt	.L448
 171:C:/Renesas/e2studio_2021_01_workspace_RZA2M_ANPR/ANPR_RZA2M_EBK/src/tensorflow_lite/tensorflow/lite/kernels/internal\strided_slice_logic.h ****   }
 4415              		.loc 5 171 0
 4416 18c0 016041E2 		sub	r6, r1, #1
 4417              	.LVL517:
 4418              	.LBB1482:
 4419              	.LBB1483:
  30:C:/Renesas/e2studio_2021_01_workspace_RZA2M_ANPR/ANPR_RZA2M_EBK/src/tensorflow_lite/tensorflow/lite/kernels/internal\strided_slice_logic.h ****   if (hi < v) return hi;
 4420              		.loc 5 30 0
 4421 18c4 010076E3 		cmn	r6, #1
 4422 18c8 050000BA 		blt	.L1137
  31:C:/Renesas/e2studio_2021_01_workspace_RZA2M_ANPR/ANPR_RZA2M_EBK/src/tensorflow_lite/tensorflow/lite/kernels/internal\strided_slice_logic.h ****   if (v < lo) return lo;
 4423              		.loc 5 31 0
 4424 18cc 060050E1 		cmp	r0, r6
 4425 18d0 C06F80D1 		orrle	r6, r0, r0, asr #31
 4426              	.LVL518:
 4427 18d4 DDFEFFEA 		b	.L446
 4428              	.LVL519:
 4429              	.L633:
 4430 18d8 21FDFFEA 		b	.L990
 4431              	.LVL520:
 4432              	.L1125:
 4433              	.LBE1483:
 4434              	.LBE1482:
 143:C:/Renesas/e2studio_2021_01_workspace_RZA2M_ANPR/ANPR_RZA2M_EBK/src/tensorflow_lite/tensorflow/lite/kernels/internal\strided_slice_logic.h ****   }
 4435              		.loc 5 143 0
 4436 18dc 01608BE2 		add	r6, fp, #1
 4437              	.LVL521:
 4438 18e0 DAFEFFEA 		b	.L446
 4439              	.LVL522:
 4440              	.L1137:
 4441              	.LBB1485:
 4442              	.LBB1484:
  30:C:/Renesas/e2studio_2021_01_workspace_RZA2M_ANPR/ANPR_RZA2M_EBK/src/tensorflow_lite/tensorflow/lite/kernels/internal\strided_slice_logic.h ****   if (hi < v) return hi;
 4443              		.loc 5 30 0
 4444 18e4 FEFFFFEB 		bl	abort
 4445              	.LVL523:
 4446              	.L1124:
 4447              	.LBE1484:
 4448              	.LBE1485:
 4449              	.LBE1486:
 4450              	.LBE1566:
 4451              	.LBB1567:
 4452              	.LBB1473:
 4453              	.LBB1466:
 4454              	.LBB1465:
 4455 18e8 FEFFFFEB 		bl	abort
 4456              	.LVL524:
 4457              	.L442:
 4458              	.LBE1465:
 4459              	.LBE1466:
 111:C:/Renesas/e2studio_2021_01_workspace_RZA2M_ANPR/ANPR_RZA2M_EBK/src/tensorflow_lite/tensorflow/lite/kernels/internal\strided_slice_logic.h ****   }
 4460              		.loc 5 111 0
 4461 18ec 01B041E2 		sub	fp, r1, #1
 4462              	.LVL525:
 4463              	.LBB1467:
 4464              	.LBB1468:
  30:C:/Renesas/e2studio_2021_01_workspace_RZA2M_ANPR/ANPR_RZA2M_EBK/src/tensorflow_lite/tensorflow/lite/kernels/internal\strided_slice_logic.h ****   if (hi < v) return hi;
 4465              		.loc 5 30 0
 4466 18f0 01007BE3 		cmn	fp, #1
 4467 18f4 050000BA 		blt	.L543
  31:C:/Renesas/e2studio_2021_01_workspace_RZA2M_ANPR/ANPR_RZA2M_EBK/src/tensorflow_lite/tensorflow/lite/kernels/internal\strided_slice_logic.h ****   if (v < lo) return lo;
 4468              		.loc 5 31 0
 4469 18f8 0B0050E1 		cmp	r0, fp
 4470 18fc C0BF80D1 		orrle	fp, r0, r0, asr #31
 4471              	.LVL526:
 4472 1900 C4FEFFEA 		b	.L444
 4473              	.LVL527:
 4474              	.L1123:
 4475              	.LBE1468:
 4476              	.LBE1467:
 111:C:/Renesas/e2studio_2021_01_workspace_RZA2M_ANPR/ANPR_RZA2M_EBK/src/tensorflow_lite/tensorflow/lite/kernels/internal\strided_slice_logic.h ****   }
 4477              		.loc 5 111 0
 4478 1904 01B041E2 		sub	fp, r1, #1
 4479              	.LVL528:
 4480              	.LBB1470:
 4481              	.LBB1469:
  30:C:/Renesas/e2studio_2021_01_workspace_RZA2M_ANPR/ANPR_RZA2M_EBK/src/tensorflow_lite/tensorflow/lite/kernels/internal\strided_slice_logic.h ****   if (hi < v) return hi;
 4482              		.loc 5 30 0
 4483 1908 01007BE3 		cmn	fp, #1
 4484 190c C1FEFFAA 		bge	.L444
 4485              	.LVL529:
 4486              	.L543:
 4487 1910 FEFFFFEB 		bl	abort
 4488              	.LVL530:
 4489              	.L437:
 4490              	.LBE1469:
 4491              	.LBE1470:
 101:C:/Renesas/e2studio_2021_01_workspace_RZA2M_ANPR/ANPR_RZA2M_EBK/src/tensorflow_lite/tensorflow/lite/kernels/internal\strided_slice_logic.h ****     start += axis_size;
 4492              		.loc 5 101 0
 4493 1914 000050E3 		cmp	r0, #0
 4494 1918 B7FEFFAA 		bge	.L441
 4495 191c B5FEFFEA 		b	.L438
 4496              	.LVL531:
 4497              	.L617:
 4498 1920 01B0A0E1 		mov	fp, r1
 4499 1924 38919DE5 		ldr	r9, [sp, #312]
 4500              	.LBE1473:
 4501              	.LBE1567:
 4502              	.LBB1568:
 4503              	.LBB1487:
 131:C:/Renesas/e2studio_2021_01_workspace_RZA2M_ANPR/ANPR_RZA2M_EBK/src/tensorflow_lite/tensorflow/lite/kernels/internal\strided_slice_logic.h ****   }
 4504              		.loc 5 131 0
 4505 1928 0160A0E1 		mov	r6, r1
 4506 192c CCFEFFEA 		b	.L436
 4507              	.LVL532:
 4508              	.L1122:
 4509              	.LBE1487:
 4510              	.LBE1568:
 4511              	.LBB1569:
 4512              	.LBB1474:
 4513              	.LBB1471:
 4514              	.LBB1460:
 216:C:/Renesas/e2studio_2021_01_workspace_RZA2M_ANPR/ANPR_RZA2M_EBK/src/tensorflow_lite/tensorflow/lite/kernels/internal\types.h ****   }
 4515              		.loc 4 216 0
 4516 1930 C8109DE5 		ldr	r1, [sp, #200]
 4517 1934 3C108DE5 		str	r1, [sp, #60]
 4518 1938 101091E5 		ldr	r1, [r1, #16]
 4519              	.LVL533:
 4520              	.LBE1460:
 4521              	.LBE1471:
  81:C:/Renesas/e2studio_2021_01_workspace_RZA2M_ANPR/ANPR_RZA2M_EBK/src/tensorflow_lite/tensorflow/lite/kernels/internal\strided_slice_logic.h ****     return 0;
 4522              		.loc 5 81 0
 4523 193c 000051E3 		cmp	r1, #0
 4524 1940 A5FEFF1A 		bne	.L435
 4525 1944 38919DE5 		ldr	r9, [sp, #312]
 4526              	.LBE1474:
 4527              	.LBE1569:
 4528              	.LBB1570:
 4529              	.LBB1488:
 131:C:/Renesas/e2studio_2021_01_workspace_RZA2M_ANPR/ANPR_RZA2M_EBK/src/tensorflow_lite/tensorflow/lite/kernels/internal\strided_slice_logic.h ****   }
 4530              		.loc 5 131 0
 4531 1948 0160A0E1 		mov	r6, r1
 4532              	.LBE1488:
 4533              	.LBE1570:
 4534              	.LBB1571:
 4535              	.LBB1475:
  82:C:/Renesas/e2studio_2021_01_workspace_RZA2M_ANPR/ANPR_RZA2M_EBK/src/tensorflow_lite/tensorflow/lite/kernels/internal\strided_slice_logic.h ****   }
 4536              		.loc 5 82 0
 4537 194c 01B0A0E1 		mov	fp, r1
 4538 1950 CBFFFFEA 		b	.L434
 4539              	.LVL534:
 4540              	.L1121:
 4541              	.LBB1472:
 4542              	.LBB1461:
 215:C:/Renesas/e2studio_2021_01_workspace_RZA2M_ANPR/ANPR_RZA2M_EBK/src/tensorflow_lite/tensorflow/lite/kernels/internal\types.h ****     return size_ > kMaxSmallSize ? dims_pointer_[i] : dims_[i];
 4543              		.loc 4 215 0
 4544 1954 FEFFFFEB 		bl	abort
 4545              	.LVL535:
 4546              	.L1120:
 4547              	.LBE1461:
 4548              	.LBE1472:
 4549              	.LBE1475:
 4550              	.LBE1571:
 4551              	.LBB1572:
 4552              	.LBB1452:
 4553              	.LBB1445:
 4554              	.LBB1444:
  30:C:/Renesas/e2studio_2021_01_workspace_RZA2M_ANPR/ANPR_RZA2M_EBK/src/tensorflow_lite/tensorflow/lite/kernels/internal\strided_slice_logic.h ****   if (hi < v) return hi;
 4555              		.loc 5 30 0
 4556 1958 FEFFFFEB 		bl	abort
 4557              	.LVL536:
 4558              	.L425:
 4559              	.LBE1444:
 4560              	.LBE1445:
 159:C:/Renesas/e2studio_2021_01_workspace_RZA2M_ANPR/ANPR_RZA2M_EBK/src/tensorflow_lite/tensorflow/lite/kernels/internal\strided_slice_logic.h ****     stop += axis_size;
 4561              		.loc 5 159 0
 4562 195c 000050E3 		cmp	r0, #0
 4563 1960 000000AA 		bge	.L428
 4564              	.LVL537:
 4565              	.L427:
 160:C:/Renesas/e2studio_2021_01_workspace_RZA2M_ANPR/ANPR_RZA2M_EBK/src/tensorflow_lite/tensorflow/lite/kernels/internal\strided_slice_logic.h ****   }
 4566              		.loc 5 160 0
 4567 1964 010080E0 		add	r0, r0, r1
 4568              	.LVL538:
 4569              	.L428:
 166:C:/Renesas/e2studio_2021_01_workspace_RZA2M_ANPR/ANPR_RZA2M_EBK/src/tensorflow_lite/tensorflow/lite/kernels/internal\strided_slice_logic.h ****     // Forward iteration
 4570              		.loc 5 166 0
 4571 1968 00005EE3 		cmp	lr, #0
 4572 196c 8BFEFFCA 		bgt	.L426
 171:C:/Renesas/e2studio_2021_01_workspace_RZA2M_ANPR/ANPR_RZA2M_EBK/src/tensorflow_lite/tensorflow/lite/kernels/internal\strided_slice_logic.h ****   }
 4573              		.loc 5 171 0
 4574 1970 011041E2 		sub	r1, r1, #1
 4575              	.LBB1446:
 4576              	.LBB1447:
  30:C:/Renesas/e2studio_2021_01_workspace_RZA2M_ANPR/ANPR_RZA2M_EBK/src/tensorflow_lite/tensorflow/lite/kernels/internal\strided_slice_logic.h ****   if (hi < v) return hi;
 4577              		.loc 5 30 0
 4578 1974 010071E3 		cmn	r1, #1
 4579              	.LBE1447:
 4580              	.LBE1446:
 171:C:/Renesas/e2studio_2021_01_workspace_RZA2M_ANPR/ANPR_RZA2M_EBK/src/tensorflow_lite/tensorflow/lite/kernels/internal\strided_slice_logic.h ****   }
 4581              		.loc 5 171 0
 4582 1978 0C108DE5 		str	r1, [sp, #12]
 4583              	.LVL539:
 4584              	.LBB1450:
 4585              	.LBB1448:
  30:C:/Renesas/e2studio_2021_01_workspace_RZA2M_ANPR/ANPR_RZA2M_EBK/src/tensorflow_lite/tensorflow/lite/kernels/internal\strided_slice_logic.h ****   if (hi < v) return hi;
 4586              		.loc 5 30 0
 4587 197c 080000BA 		blt	.L1138
  31:C:/Renesas/e2studio_2021_01_workspace_RZA2M_ANPR/ANPR_RZA2M_EBK/src/tensorflow_lite/tensorflow/lite/kernels/internal\strided_slice_logic.h ****   if (v < lo) return lo;
 4588              		.loc 5 31 0
 4589 1980 010050E1 		cmp	r0, r1
 4590 1984 C01F80D1 		orrle	r1, r0, r0, asr #31
 4591              	.LVL540:
 4592 1988 0C108DD5 		strle	r1, [sp, #12]
 4593              	.LVL541:
 4594 198c 89FEFFEA 		b	.L415
 4595              	.LVL542:
 4596              	.L1119:
 4597              	.LBE1448:
 4598              	.LBE1450:
 143:C:/Renesas/e2studio_2021_01_workspace_RZA2M_ANPR/ANPR_RZA2M_EBK/src/tensorflow_lite/tensorflow/lite/kernels/internal\strided_slice_logic.h ****   }
 4599              		.loc 5 143 0
 4600 1990 08109DE5 		ldr	r1, [sp, #8]
 4601 1994 011081E2 		add	r1, r1, #1
 4602 1998 0C108DE5 		str	r1, [sp, #12]
 4603 199c 85FEFFEA 		b	.L415
 4604              	.LVL543:
 4605              	.L1118:
 4606              	.LBE1452:
 4607              	.LBE1572:
 4608              	.LBB1573:
 4609              	.LBB1437:
 4610              	.LBB1427:
 4611              	.LBB1426:
  30:C:/Renesas/e2studio_2021_01_workspace_RZA2M_ANPR/ANPR_RZA2M_EBK/src/tensorflow_lite/tensorflow/lite/kernels/internal\strided_slice_logic.h ****   if (hi < v) return hi;
 4612              		.loc 5 30 0
 4613 19a0 FEFFFFEB 		bl	abort
 4614              	.LVL544:
 4615              	.L1138:
 4616              	.LBE1426:
 4617              	.LBE1427:
 4618              	.LBE1437:
 4619              	.LBE1573:
 4620              	.LBB1574:
 4621              	.LBB1453:
 4622              	.LBB1451:
 4623              	.LBB1449:
 4624 19a4 FEFFFFEB 		bl	abort
 4625              	.LVL545:
 4626              	.L421:
 4627              	.LBE1449:
 4628              	.LBE1451:
 4629              	.LBE1453:
 4630              	.LBE1574:
 4631              	.LBB1575:
 4632              	.LBB1438:
 111:C:/Renesas/e2studio_2021_01_workspace_RZA2M_ANPR/ANPR_RZA2M_EBK/src/tensorflow_lite/tensorflow/lite/kernels/internal\strided_slice_logic.h ****   }
 4633              		.loc 5 111 0
 4634 19a8 018041E2 		sub	r8, r1, #1
 4635              	.LBB1428:
 4636              	.LBB1429:
  30:C:/Renesas/e2studio_2021_01_workspace_RZA2M_ANPR/ANPR_RZA2M_EBK/src/tensorflow_lite/tensorflow/lite/kernels/internal\strided_slice_logic.h ****   if (hi < v) return hi;
 4637              		.loc 5 30 0
 4638 19ac 010078E3 		cmn	r8, #1
 4639              	.LBE1429:
 4640              	.LBE1428:
 111:C:/Renesas/e2studio_2021_01_workspace_RZA2M_ANPR/ANPR_RZA2M_EBK/src/tensorflow_lite/tensorflow/lite/kernels/internal\strided_slice_logic.h ****   }
 4641              		.loc 5 111 0
 4642 19b0 08808DE5 		str	r8, [sp, #8]
 4643              	.LVL546:
 4644              	.LBB1433:
 4645              	.LBB1430:
  30:C:/Renesas/e2studio_2021_01_workspace_RZA2M_ANPR/ANPR_RZA2M_EBK/src/tensorflow_lite/tensorflow/lite/kernels/internal\strided_slice_logic.h ****   if (hi < v) return hi;
 4646              		.loc 5 30 0
 4647 19b4 070000BA 		blt	.L542
  31:C:/Renesas/e2studio_2021_01_workspace_RZA2M_ANPR/ANPR_RZA2M_EBK/src/tensorflow_lite/tensorflow/lite/kernels/internal\strided_slice_logic.h ****   if (v < lo) return lo;
 4648              		.loc 5 31 0
 4649 19b8 080050E1 		cmp	r0, r8
 4650 19bc C00F80D1 		orrle	r0, r0, r0, asr #31
 4651              	.LVL547:
 4652 19c0 08008DD5 		strle	r0, [sp, #8]
 4653 19c4 6CFEFFEA 		b	.L423
 4654              	.LVL548:
 4655              	.L1117:
 4656              	.LBE1430:
 4657              	.LBE1433:
 111:C:/Renesas/e2studio_2021_01_workspace_RZA2M_ANPR/ANPR_RZA2M_EBK/src/tensorflow_lite/tensorflow/lite/kernels/internal\strided_slice_logic.h ****   }
 4658              		.loc 5 111 0
 4659 19c8 010041E2 		sub	r0, r1, #1
 4660              	.LBB1434:
 4661              	.LBB1431:
  30:C:/Renesas/e2studio_2021_01_workspace_RZA2M_ANPR/ANPR_RZA2M_EBK/src/tensorflow_lite/tensorflow/lite/kernels/internal\strided_slice_logic.h ****   if (hi < v) return hi;
 4662              		.loc 5 30 0
 4663 19cc 010070E3 		cmn	r0, #1
 4664              	.LBE1431:
 4665              	.LBE1434:
 111:C:/Renesas/e2studio_2021_01_workspace_RZA2M_ANPR/ANPR_RZA2M_EBK/src/tensorflow_lite/tensorflow/lite/kernels/internal\strided_slice_logic.h ****   }
 4666              		.loc 5 111 0
 4667 19d0 08008DE5 		str	r0, [sp, #8]
 4668              	.LVL549:
 4669              	.LBB1435:
 4670              	.LBB1432:
  30:C:/Renesas/e2studio_2021_01_workspace_RZA2M_ANPR/ANPR_RZA2M_EBK/src/tensorflow_lite/tensorflow/lite/kernels/internal\strided_slice_logic.h ****   if (hi < v) return hi;
 4671              		.loc 5 30 0
 4672 19d4 68FEFFAA 		bge	.L423
 4673              	.LVL550:
 4674              	.L542:
 4675 19d8 FEFFFFEB 		bl	abort
 4676              	.LVL551:
 4677              	.L416:
 4678              	.LBE1432:
 4679              	.LBE1435:
 101:C:/Renesas/e2studio_2021_01_workspace_RZA2M_ANPR/ANPR_RZA2M_EBK/src/tensorflow_lite/tensorflow/lite/kernels/internal\strided_slice_logic.h ****     start += axis_size;
 4680              		.loc 5 101 0
 4681 19dc 000050E3 		cmp	r0, #0
 4682 19e0 5DFEFFAA 		bge	.L420
 4683 19e4 5BFEFFEA 		b	.L417
 4684              	.LVL552:
 4685              	.L611:
  82:C:/Renesas/e2studio_2021_01_workspace_RZA2M_ANPR/ANPR_RZA2M_EBK/src/tensorflow_lite/tensorflow/lite/kernels/internal\strided_slice_logic.h ****   }
 4686              		.loc 5 82 0
 4687 19e8 08108DE5 		str	r1, [sp, #8]
 4688              	.LBE1438:
 4689              	.LBE1575:
 4690              	.LBB1576:
 4691              	.LBB1454:
 131:C:/Renesas/e2studio_2021_01_workspace_RZA2M_ANPR/ANPR_RZA2M_EBK/src/tensorflow_lite/tensorflow/lite/kernels/internal\strided_slice_logic.h ****   }
 4692              		.loc 5 131 0
 4693 19ec 0C108DE5 		str	r1, [sp, #12]
 4694 19f0 70FEFFEA 		b	.L415
 4695              	.LVL553:
 4696              	.L1116:
 4697              	.LBE1454:
 4698              	.LBE1576:
 4699              	.LBB1577:
 4700              	.LBB1439:
 4701              	.LBB1436:
 4702              	.LBB1423:
 215:C:/Renesas/e2studio_2021_01_workspace_RZA2M_ANPR/ANPR_RZA2M_EBK/src/tensorflow_lite/tensorflow/lite/kernels/internal\types.h ****     return size_ > kMaxSmallSize ? dims_pointer_[i] : dims_[i];
 4703              		.loc 4 215 0
 4704 19f4 FEFFFFEB 		bl	abort
 4705              	.LVL554:
 4706              	.L1115:
 4707              	.LBE1423:
 4708              	.LBE1436:
 4709              	.LBE1439:
 4710              	.LBE1577:
 4711              	.LBB1578:
 4712              	.LBB1416:
 4713              	.LBB1409:
 4714              	.LBB1408:
  30:C:/Renesas/e2studio_2021_01_workspace_RZA2M_ANPR/ANPR_RZA2M_EBK/src/tensorflow_lite/tensorflow/lite/kernels/internal\strided_slice_logic.h ****   if (hi < v) return hi;
 4715              		.loc 5 30 0
 4716 19f8 FEFFFFEB 		bl	abort
 4717              	.LVL555:
 4718              	.LEHE20:
 4719              	.L405:
 4720              	.LBE1408:
 4721              	.LBE1409:
 159:C:/Renesas/e2studio_2021_01_workspace_RZA2M_ANPR/ANPR_RZA2M_EBK/src/tensorflow_lite/tensorflow/lite/kernels/internal\strided_slice_logic.h ****     stop += axis_size;
 4722              		.loc 5 159 0
 4723 19fc 000050E3 		cmp	r0, #0
 4724 1a00 000000AA 		bge	.L408
 4725              	.LVL556:
 4726              	.L407:
 160:C:/Renesas/e2studio_2021_01_workspace_RZA2M_ANPR/ANPR_RZA2M_EBK/src/tensorflow_lite/tensorflow/lite/kernels/internal\strided_slice_logic.h ****   }
 4727              		.loc 5 160 0
 4728 1a04 010080E0 		add	r0, r0, r1
 4729              	.LVL557:
 4730              	.L408:
 166:C:/Renesas/e2studio_2021_01_workspace_RZA2M_ANPR/ANPR_RZA2M_EBK/src/tensorflow_lite/tensorflow/lite/kernels/internal\strided_slice_logic.h ****     // Forward iteration
 4731              		.loc 5 166 0
 4732 1a08 00005EE3 		cmp	lr, #0
 4733 1a0c 3BFEFFCA 		bgt	.L406
 171:C:/Renesas/e2studio_2021_01_workspace_RZA2M_ANPR/ANPR_RZA2M_EBK/src/tensorflow_lite/tensorflow/lite/kernels/internal\strided_slice_logic.h ****   }
 4734              		.loc 5 171 0
 4735 1a10 011041E2 		sub	r1, r1, #1
 4736              	.LBB1410:
 4737              	.LBB1411:
  30:C:/Renesas/e2studio_2021_01_workspace_RZA2M_ANPR/ANPR_RZA2M_EBK/src/tensorflow_lite/tensorflow/lite/kernels/internal\strided_slice_logic.h ****   if (hi < v) return hi;
 4738              		.loc 5 30 0
 4739 1a14 010071E3 		cmn	r1, #1
 4740              	.LBE1411:
 4741              	.LBE1410:
 171:C:/Renesas/e2studio_2021_01_workspace_RZA2M_ANPR/ANPR_RZA2M_EBK/src/tensorflow_lite/tensorflow/lite/kernels/internal\strided_slice_logic.h ****   }
 4742              		.loc 5 171 0
 4743 1a18 38108DE5 		str	r1, [sp, #56]
 4744              	.LVL558:
 4745              	.LBB1414:
 4746              	.LBB1412:
  30:C:/Renesas/e2studio_2021_01_workspace_RZA2M_ANPR/ANPR_RZA2M_EBK/src/tensorflow_lite/tensorflow/lite/kernels/internal\strided_slice_logic.h ****   if (hi < v) return hi;
 4747              		.loc 5 30 0
 4748 1a1c E70300BA 		blt	.L1139
  31:C:/Renesas/e2studio_2021_01_workspace_RZA2M_ANPR/ANPR_RZA2M_EBK/src/tensorflow_lite/tensorflow/lite/kernels/internal\strided_slice_logic.h ****   if (v < lo) return lo;
 4749              		.loc 5 31 0
 4750 1a20 010050E1 		cmp	r0, r1
 4751 1a24 C01F80D1 		orrle	r1, r0, r0, asr #31
 4752              	.LVL559:
 4753 1a28 38108DD5 		strle	r1, [sp, #56]
 4754              	.LVL560:
 4755 1a2c 39FEFFEA 		b	.L395
 4756              	.LVL561:
 4757              	.L1114:
 4758              	.LBE1412:
 4759              	.LBE1414:
 143:C:/Renesas/e2studio_2021_01_workspace_RZA2M_ANPR/ANPR_RZA2M_EBK/src/tensorflow_lite/tensorflow/lite/kernels/internal\strided_slice_logic.h ****   }
 4760              		.loc 5 143 0
 4761 1a30 14109DE5 		ldr	r1, [sp, #20]
 4762 1a34 011081E2 		add	r1, r1, #1
 4763 1a38 38108DE5 		str	r1, [sp, #56]
 4764 1a3c 35FEFFEA 		b	.L395
 4765              	.LVL562:
 4766              	.L1080:
 4767              	.LBE1416:
 4768              	.LBE1578:
 4769              	.LBE1601:
 4770              	.LBE1609:
 4771              	.LBE1617:
 4772              	.LBE2006:
 4773              	.LBB2007:
 4774              	.LBB1235:
 4775              	.LBB1230:
 4776              	.LBB1225:
 4777              	.LBB1202:
 4778              	.LBB1080:
 4779 1a40 14009DE5 		ldr	r0, [sp, #20]
 4780              	.LVL563:
 4781 1a44 010080E2 		add	r0, r0, #1
 4782 1a48 4C008DE5 		str	r0, [sp, #76]
 4783 1a4c 95FBFFEA 		b	.L96
 4784              	.LVL564:
 4785              	.L1079:
 4786              	.LEHB21:
 4787              	.LBE1080:
 4788              	.LBE1202:
 4789              	.LBB1203:
 4790              	.LBB1066:
 4791              	.LBB1056:
 4792              	.LBB1054:
  30:C:/Renesas/e2studio_2021_01_workspace_RZA2M_ANPR/ANPR_RZA2M_EBK/src/tensorflow_lite/tensorflow/lite/kernels/internal\strided_slice_logic.h ****   if (hi < v) return hi;
 4793              		.loc 5 30 0
 4794 1a50 FEFFFFEB 		bl	abort
 4795              	.LVL565:
 4796              	.L102:
 4797              	.LBE1054:
 4798              	.LBE1056:
 111:C:/Renesas/e2studio_2021_01_workspace_RZA2M_ANPR/ANPR_RZA2M_EBK/src/tensorflow_lite/tensorflow/lite/kernels/internal\strided_slice_logic.h ****   }
 4799              		.loc 5 111 0
 4800 1a54 018048E2 		sub	r8, r8, #1
 4801              	.LBB1057:
 4802              	.LBB1058:
  30:C:/Renesas/e2studio_2021_01_workspace_RZA2M_ANPR/ANPR_RZA2M_EBK/src/tensorflow_lite/tensorflow/lite/kernels/internal\strided_slice_logic.h ****   if (hi < v) return hi;
 4803              		.loc 5 30 0
 4804 1a58 010078E3 		cmn	r8, #1
 4805              	.LBE1058:
 4806              	.LBE1057:
 111:C:/Renesas/e2studio_2021_01_workspace_RZA2M_ANPR/ANPR_RZA2M_EBK/src/tensorflow_lite/tensorflow/lite/kernels/internal\strided_slice_logic.h ****   }
 4807              		.loc 5 111 0
 4808 1a5c 14808DE5 		str	r8, [sp, #20]
 4809              	.LVL566:
 4810              	.LBB1062:
 4811              	.LBB1059:
  30:C:/Renesas/e2studio_2021_01_workspace_RZA2M_ANPR/ANPR_RZA2M_EBK/src/tensorflow_lite/tensorflow/lite/kernels/internal\strided_slice_logic.h ****   if (hi < v) return hi;
 4812              		.loc 5 30 0
 4813 1a60 080000BA 		blt	.L532
  31:C:/Renesas/e2studio_2021_01_workspace_RZA2M_ANPR/ANPR_RZA2M_EBK/src/tensorflow_lite/tensorflow/lite/kernels/internal\strided_slice_logic.h ****   if (v < lo) return lo;
 4814              		.loc 5 31 0
 4815 1a64 080050E1 		cmp	r0, r8
 4816 1a68 C00F80D1 		orrle	r0, r0, r0, asr #31
 4817              	.LVL567:
 4818 1a6c 14008DD5 		strle	r0, [sp, #20]
 4819 1a70 7BFBFFEA 		b	.L104
 4820              	.LVL568:
 4821              	.L1078:
 4822              	.LBE1059:
 4823              	.LBE1062:
 111:C:/Renesas/e2studio_2021_01_workspace_RZA2M_ANPR/ANPR_RZA2M_EBK/src/tensorflow_lite/tensorflow/lite/kernels/internal\strided_slice_logic.h ****   }
 4824              		.loc 5 111 0
 4825 1a74 1C009DE5 		ldr	r0, [sp, #28]
 4826 1a78 010040E2 		sub	r0, r0, #1
 4827              	.LBB1063:
 4828              	.LBB1060:
  30:C:/Renesas/e2studio_2021_01_workspace_RZA2M_ANPR/ANPR_RZA2M_EBK/src/tensorflow_lite/tensorflow/lite/kernels/internal\strided_slice_logic.h ****   if (hi < v) return hi;
 4829              		.loc 5 30 0
 4830 1a7c 010070E3 		cmn	r0, #1
 4831              	.LBE1060:
 4832              	.LBE1063:
 111:C:/Renesas/e2studio_2021_01_workspace_RZA2M_ANPR/ANPR_RZA2M_EBK/src/tensorflow_lite/tensorflow/lite/kernels/internal\strided_slice_logic.h ****   }
 4833              		.loc 5 111 0
 4834 1a80 14008DE5 		str	r0, [sp, #20]
 4835              	.LVL569:
 4836              	.LBB1064:
 4837              	.LBB1061:
  30:C:/Renesas/e2studio_2021_01_workspace_RZA2M_ANPR/ANPR_RZA2M_EBK/src/tensorflow_lite/tensorflow/lite/kernels/internal\strided_slice_logic.h ****   if (hi < v) return hi;
 4838              		.loc 5 30 0
 4839 1a84 76FBFFAA 		bge	.L104
 4840              	.LVL570:
 4841              	.L532:
 4842 1a88 FEFFFFEB 		bl	abort
 4843              	.LVL571:
 4844              	.L97:
 4845              	.LBE1061:
 4846              	.LBE1064:
 101:C:/Renesas/e2studio_2021_01_workspace_RZA2M_ANPR/ANPR_RZA2M_EBK/src/tensorflow_lite/tensorflow/lite/kernels/internal\strided_slice_logic.h ****     start += axis_size;
 4847              		.loc 5 101 0
 4848 1a8c 000050E3 		cmp	r0, #0
 4849 1a90 69FBFFAA 		bge	.L101
 4850 1a94 66FBFFEA 		b	.L98
 4851              	.LVL572:
 4852              	.L559:
  82:C:/Renesas/e2studio_2021_01_workspace_RZA2M_ANPR/ANPR_RZA2M_EBK/src/tensorflow_lite/tensorflow/lite/kernels/internal\strided_slice_logic.h ****   }
 4853              		.loc 5 82 0
 4854 1a98 14008DE5 		str	r0, [sp, #20]
 4855              	.LBE1066:
 4856              	.LBE1203:
 4857              	.LBB1204:
 4858              	.LBB1081:
 131:C:/Renesas/e2studio_2021_01_workspace_RZA2M_ANPR/ANPR_RZA2M_EBK/src/tensorflow_lite/tensorflow/lite/kernels/internal\strided_slice_logic.h ****   }
 4859              		.loc 5 131 0
 4860 1a9c 4C008DE5 		str	r0, [sp, #76]
 4861 1aa0 80FBFFEA 		b	.L96
 4862              	.LVL573:
 4863              	.L1077:
 4864              	.LBE1081:
 4865              	.LBE1204:
 4866              	.LBB1205:
 4867              	.LBB1067:
 4868              	.LBB1065:
 4869              	.LBB1049:
 215:C:/Renesas/e2studio_2021_01_workspace_RZA2M_ANPR/ANPR_RZA2M_EBK/src/tensorflow_lite/tensorflow/lite/kernels/internal\types.h ****     return size_ > kMaxSmallSize ? dims_pointer_[i] : dims_[i];
 4870              		.loc 4 215 0
 4871 1aa4 FEFFFFEB 		bl	abort
 4872              	.LVL574:
 4873              	.L1076:
 4874              	.LBE1049:
 4875              	.LBE1065:
 4876              	.LBE1067:
 4877              	.LBE1205:
 4878              	.LBB1206:
 4879              	.LBB1041:
 4880              	.LBB1034:
 4881              	.LBB1033:
  30:C:/Renesas/e2studio_2021_01_workspace_RZA2M_ANPR/ANPR_RZA2M_EBK/src/tensorflow_lite/tensorflow/lite/kernels/internal\strided_slice_logic.h ****   if (hi < v) return hi;
 4882              		.loc 5 30 0
 4883 1aa8 FEFFFFEB 		bl	abort
 4884              	.LVL575:
 4885              	.L86:
 4886              	.LBE1033:
 4887              	.LBE1034:
 159:C:/Renesas/e2studio_2021_01_workspace_RZA2M_ANPR/ANPR_RZA2M_EBK/src/tensorflow_lite/tensorflow/lite/kernels/internal\strided_slice_logic.h ****     stop += axis_size;
 4888              		.loc 5 159 0
 4889 1aac 000050E3 		cmp	r0, #0
 4890 1ab0 000000AA 		bge	.L89
 4891              	.LVL576:
 4892              	.L88:
 160:C:/Renesas/e2studio_2021_01_workspace_RZA2M_ANPR/ANPR_RZA2M_EBK/src/tensorflow_lite/tensorflow/lite/kernels/internal\strided_slice_logic.h ****   }
 4893              		.loc 5 160 0
 4894 1ab4 030080E0 		add	r0, r0, r3
 4895              	.LVL577:
 4896              	.L89:
 166:C:/Renesas/e2studio_2021_01_workspace_RZA2M_ANPR/ANPR_RZA2M_EBK/src/tensorflow_lite/tensorflow/lite/kernels/internal\strided_slice_logic.h ****     // Forward iteration
 4897              		.loc 5 166 0
 4898 1ab8 000054E3 		cmp	r4, #0
 4899 1abc 45FBFFCA 		bgt	.L87
 171:C:/Renesas/e2studio_2021_01_workspace_RZA2M_ANPR/ANPR_RZA2M_EBK/src/tensorflow_lite/tensorflow/lite/kernels/internal\strided_slice_logic.h ****   }
 4900              		.loc 5 171 0
 4901 1ac0 014043E2 		sub	r4, r3, #1
 4902              	.LBB1035:
 4903              	.LBB1036:
  30:C:/Renesas/e2studio_2021_01_workspace_RZA2M_ANPR/ANPR_RZA2M_EBK/src/tensorflow_lite/tensorflow/lite/kernels/internal\strided_slice_logic.h ****   if (hi < v) return hi;
 4904              		.loc 5 30 0
 4905 1ac4 010074E3 		cmn	r4, #1
 4906              	.LBE1036:
 4907              	.LBE1035:
 171:C:/Renesas/e2studio_2021_01_workspace_RZA2M_ANPR/ANPR_RZA2M_EBK/src/tensorflow_lite/tensorflow/lite/kernels/internal\strided_slice_logic.h ****   }
 4908              		.loc 5 171 0
 4909 1ac8 48408DE5 		str	r4, [sp, #72]
 4910              	.LVL578:
 4911              	.LBB1039:
 4912              	.LBB1037:
  30:C:/Renesas/e2studio_2021_01_workspace_RZA2M_ANPR/ANPR_RZA2M_EBK/src/tensorflow_lite/tensorflow/lite/kernels/internal\strided_slice_logic.h ****   if (hi < v) return hi;
 4913              		.loc 5 30 0
 4914 1acc 080000BA 		blt	.L1140
  31:C:/Renesas/e2studio_2021_01_workspace_RZA2M_ANPR/ANPR_RZA2M_EBK/src/tensorflow_lite/tensorflow/lite/kernels/internal\strided_slice_logic.h ****   if (v < lo) return lo;
 4915              		.loc 5 31 0
 4916 1ad0 040050E1 		cmp	r0, r4
 4917 1ad4 C00F80D1 		orrle	r0, r0, r0, asr #31
 4918              	.LVL579:
 4919 1ad8 48008DD5 		strle	r0, [sp, #72]
 4920 1adc 43FBFFEA 		b	.L76
 4921              	.LVL580:
 4922              	.L1075:
 4923              	.LBE1037:
 4924              	.LBE1039:
 143:C:/Renesas/e2studio_2021_01_workspace_RZA2M_ANPR/ANPR_RZA2M_EBK/src/tensorflow_lite/tensorflow/lite/kernels/internal\strided_slice_logic.h ****   }
 4925              		.loc 5 143 0
 4926 1ae0 28009DE5 		ldr	r0, [sp, #40]
 4927              	.LVL581:
 4928 1ae4 010080E2 		add	r0, r0, #1
 4929 1ae8 48008DE5 		str	r0, [sp, #72]
 4930 1aec 3FFBFFEA 		b	.L76
 4931              	.LVL582:
 4932              	.L1074:
 4933              	.LBE1041:
 4934              	.LBE1206:
 4935              	.LBB1207:
 4936              	.LBB1027:
 4937              	.LBB1017:
 4938              	.LBB1015:
  30:C:/Renesas/e2studio_2021_01_workspace_RZA2M_ANPR/ANPR_RZA2M_EBK/src/tensorflow_lite/tensorflow/lite/kernels/internal\strided_slice_logic.h ****   if (hi < v) return hi;
 4939              		.loc 5 30 0
 4940 1af0 FEFFFFEB 		bl	abort
 4941              	.LVL583:
 4942              	.L1140:
 4943              	.LBE1015:
 4944              	.LBE1017:
 4945              	.LBE1027:
 4946              	.LBE1207:
 4947              	.LBB1208:
 4948              	.LBB1042:
 4949              	.LBB1040:
 4950              	.LBB1038:
 4951 1af4 FEFFFFEB 		bl	abort
 4952              	.LVL584:
 4953              	.L82:
 4954              	.LBE1038:
 4955              	.LBE1040:
 4956              	.LBE1042:
 4957              	.LBE1208:
 4958              	.LBB1209:
 4959              	.LBB1028:
 111:C:/Renesas/e2studio_2021_01_workspace_RZA2M_ANPR/ANPR_RZA2M_EBK/src/tensorflow_lite/tensorflow/lite/kernels/internal\strided_slice_logic.h ****   }
 4960              		.loc 5 111 0
 4961 1af8 018043E2 		sub	r8, r3, #1
 4962              	.LBB1018:
 4963              	.LBB1019:
  30:C:/Renesas/e2studio_2021_01_workspace_RZA2M_ANPR/ANPR_RZA2M_EBK/src/tensorflow_lite/tensorflow/lite/kernels/internal\strided_slice_logic.h ****   if (hi < v) return hi;
 4964              		.loc 5 30 0
 4965 1afc 010078E3 		cmn	r8, #1
 4966              	.LBE1019:
 4967              	.LBE1018:
 111:C:/Renesas/e2studio_2021_01_workspace_RZA2M_ANPR/ANPR_RZA2M_EBK/src/tensorflow_lite/tensorflow/lite/kernels/internal\strided_slice_logic.h ****   }
 4968              		.loc 5 111 0
 4969 1b00 28808DE5 		str	r8, [sp, #40]
 4970              	.LVL585:
 4971              	.LBB1023:
 4972              	.LBB1020:
  30:C:/Renesas/e2studio_2021_01_workspace_RZA2M_ANPR/ANPR_RZA2M_EBK/src/tensorflow_lite/tensorflow/lite/kernels/internal\strided_slice_logic.h ****   if (hi < v) return hi;
 4973              		.loc 5 30 0
 4974 1b04 070000BA 		blt	.L531
  31:C:/Renesas/e2studio_2021_01_workspace_RZA2M_ANPR/ANPR_RZA2M_EBK/src/tensorflow_lite/tensorflow/lite/kernels/internal\strided_slice_logic.h ****   if (v < lo) return lo;
 4975              		.loc 5 31 0
 4976 1b08 080050E1 		cmp	r0, r8
 4977 1b0c C00F80D1 		orrle	r0, r0, r0, asr #31
 4978              	.LVL586:
 4979 1b10 28008DD5 		strle	r0, [sp, #40]
 4980 1b14 26FBFFEA 		b	.L84
 4981              	.LVL587:
 4982              	.L1073:
 4983              	.LBE1020:
 4984              	.LBE1023:
 111:C:/Renesas/e2studio_2021_01_workspace_RZA2M_ANPR/ANPR_RZA2M_EBK/src/tensorflow_lite/tensorflow/lite/kernels/internal\strided_slice_logic.h ****   }
 4985              		.loc 5 111 0
 4986 1b18 010043E2 		sub	r0, r3, #1
 4987              	.LBB1024:
 4988              	.LBB1021:
  30:C:/Renesas/e2studio_2021_01_workspace_RZA2M_ANPR/ANPR_RZA2M_EBK/src/tensorflow_lite/tensorflow/lite/kernels/internal\strided_slice_logic.h ****   if (hi < v) return hi;
 4989              		.loc 5 30 0
 4990 1b1c 010070E3 		cmn	r0, #1
 4991              	.LBE1021:
 4992              	.LBE1024:
 111:C:/Renesas/e2studio_2021_01_workspace_RZA2M_ANPR/ANPR_RZA2M_EBK/src/tensorflow_lite/tensorflow/lite/kernels/internal\strided_slice_logic.h ****   }
 4993              		.loc 5 111 0
 4994 1b20 28008DE5 		str	r0, [sp, #40]
 4995              	.LVL588:
 4996              	.LBB1025:
 4997              	.LBB1022:
  30:C:/Renesas/e2studio_2021_01_workspace_RZA2M_ANPR/ANPR_RZA2M_EBK/src/tensorflow_lite/tensorflow/lite/kernels/internal\strided_slice_logic.h ****   if (hi < v) return hi;
 4998              		.loc 5 30 0
 4999 1b24 22FBFFAA 		bge	.L84
 5000              	.LVL589:
 5001              	.L531:
 5002 1b28 FEFFFFEB 		bl	abort
 5003              	.LVL590:
 5004              	.L77:
 5005              	.LBE1022:
 5006              	.LBE1025:
 101:C:/Renesas/e2studio_2021_01_workspace_RZA2M_ANPR/ANPR_RZA2M_EBK/src/tensorflow_lite/tensorflow/lite/kernels/internal\strided_slice_logic.h ****     start += axis_size;
 5007              		.loc 5 101 0
 5008 1b2c 000050E3 		cmp	r0, #0
 5009 1b30 17FBFFAA 		bge	.L81
 5010 1b34 15FBFFEA 		b	.L78
 5011              	.LVL591:
 5012              	.L554:
  82:C:/Renesas/e2studio_2021_01_workspace_RZA2M_ANPR/ANPR_RZA2M_EBK/src/tensorflow_lite/tensorflow/lite/kernels/internal\strided_slice_logic.h ****   }
 5013              		.loc 5 82 0
 5014 1b38 28308DE5 		str	r3, [sp, #40]
 5015              	.LBE1028:
 5016              	.LBE1209:
 5017              	.LBB1210:
 5018              	.LBB1043:
 131:C:/Renesas/e2studio_2021_01_workspace_RZA2M_ANPR/ANPR_RZA2M_EBK/src/tensorflow_lite/tensorflow/lite/kernels/internal\strided_slice_logic.h ****   }
 5019              		.loc 5 131 0
 5020 1b3c 48308DE5 		str	r3, [sp, #72]
 5021 1b40 2AFBFFEA 		b	.L76
 5022              	.LVL592:
 5023              	.L1084:
 5024              	.LBE1043:
 5025              	.LBE1210:
 5026              	.LBB1211:
 5027              	.LBB1105:
 111:C:/Renesas/e2studio_2021_01_workspace_RZA2M_ANPR/ANPR_RZA2M_EBK/src/tensorflow_lite/tensorflow/lite/kernels/internal\strided_slice_logic.h ****   }
 5028              		.loc 5 111 0
 5029 1b44 18009DE5 		ldr	r0, [sp, #24]
 5030 1b48 01A040E2 		sub	r10, r0, #1
 5031              	.LVL593:
 5032              	.LBB1097:
 5033              	.LBB1098:
  30:C:/Renesas/e2studio_2021_01_workspace_RZA2M_ANPR/ANPR_RZA2M_EBK/src/tensorflow_lite/tensorflow/lite/kernels/internal\strided_slice_logic.h ****   if (hi < v) return hi;
 5034              		.loc 5 30 0
 5035 1b4c 01007AE3 		cmn	r10, #1
 5036 1b50 6FFBFFAA 		bge	.L125
 5037              	.LVL594:
 5038              	.L533:
 5039 1b54 FEFFFFEB 		bl	abort
 5040              	.LVL595:
 5041              	.L118:
 5042              	.LBE1098:
 5043              	.LBE1097:
 101:C:/Renesas/e2studio_2021_01_workspace_RZA2M_ANPR/ANPR_RZA2M_EBK/src/tensorflow_lite/tensorflow/lite/kernels/internal\strided_slice_logic.h ****     start += axis_size;
 5044              		.loc 5 101 0
 5045 1b58 000050E3 		cmp	r0, #0
 5046 1b5c 64FBFFAA 		bge	.L122
 5047 1b60 61FBFFEA 		b	.L119
 5048              	.LVL596:
 5049              	.L565:
 5050 1b64 0070A0E1 		mov	r7, r0
 5051 1b68 38919DE5 		ldr	r9, [sp, #312]
  82:C:/Renesas/e2studio_2021_01_workspace_RZA2M_ANPR/ANPR_RZA2M_EBK/src/tensorflow_lite/tensorflow/lite/kernels/internal\strided_slice_logic.h ****   }
 5052              		.loc 5 82 0
 5053 1b6c 00A0A0E1 		mov	r10, r0
 5054 1b70 7BFBFFEA 		b	.L117
 5055              	.LVL597:
 5056              	.L1083:
 5057              	.LBB1100:
 5058              	.LBB1088:
 216:C:/Renesas/e2studio_2021_01_workspace_RZA2M_ANPR/ANPR_RZA2M_EBK/src/tensorflow_lite/tensorflow/lite/kernels/internal\types.h ****   }
 5059              		.loc 4 216 0
 5060 1b74 C8009DE5 		ldr	r0, [sp, #200]
 5061 1b78 50008DE5 		str	r0, [sp, #80]
 5062 1b7c 100090E5 		ldr	r0, [r0, #16]
 5063              	.LBE1088:
 5064              	.LBE1100:
  81:C:/Renesas/e2studio_2021_01_workspace_RZA2M_ANPR/ANPR_RZA2M_EBK/src/tensorflow_lite/tensorflow/lite/kernels/internal\strided_slice_logic.h ****     return 0;
 5065              		.loc 5 81 0
 5066 1b80 000050E3 		cmp	r0, #0
 5067              	.LBB1101:
 5068              	.LBB1089:
 216:C:/Renesas/e2studio_2021_01_workspace_RZA2M_ANPR/ANPR_RZA2M_EBK/src/tensorflow_lite/tensorflow/lite/kernels/internal\types.h ****   }
 5069              		.loc 4 216 0
 5070 1b84 18008DE5 		str	r0, [sp, #24]
 5071              	.LVL598:
 5072              	.LBE1089:
 5073              	.LBE1101:
  81:C:/Renesas/e2studio_2021_01_workspace_RZA2M_ANPR/ANPR_RZA2M_EBK/src/tensorflow_lite/tensorflow/lite/kernels/internal\strided_slice_logic.h ****     return 0;
 5074              		.loc 5 81 0
 5075 1b88 50FBFF1A 		bne	.L116
 5076 1b8c 0070A0E1 		mov	r7, r0
 5077 1b90 38919DE5 		ldr	r9, [sp, #312]
  82:C:/Renesas/e2studio_2021_01_workspace_RZA2M_ANPR/ANPR_RZA2M_EBK/src/tensorflow_lite/tensorflow/lite/kernels/internal\strided_slice_logic.h ****   }
 5078              		.loc 5 82 0
 5079 1b94 00A0A0E1 		mov	r10, r0
 5080 1b98 7BFCFFEA 		b	.L115
 5081              	.LVL599:
 5082              	.L1082:
 5083              	.LBB1102:
 5084              	.LBB1090:
 215:C:/Renesas/e2studio_2021_01_workspace_RZA2M_ANPR/ANPR_RZA2M_EBK/src/tensorflow_lite/tensorflow/lite/kernels/internal\types.h ****     return size_ > kMaxSmallSize ? dims_pointer_[i] : dims_[i];
 5085              		.loc 4 215 0
 5086 1b9c FEFFFFEB 		bl	abort
 5087              	.LVL600:
 5088              	.L106:
 5089              	.LBE1090:
 5090              	.LBE1102:
 5091              	.LBE1105:
 5092              	.LBE1211:
 5093              	.LBB1212:
 5094              	.LBB1082:
 159:C:/Renesas/e2studio_2021_01_workspace_RZA2M_ANPR/ANPR_RZA2M_EBK/src/tensorflow_lite/tensorflow/lite/kernels/internal\strided_slice_logic.h ****     stop += axis_size;
 5095              		.loc 5 159 0
 5096 1ba0 000050E3 		cmp	r0, #0
 5097 1ba4 010000AA 		bge	.L109
 5098              	.LVL601:
 5099              	.L108:
 160:C:/Renesas/e2studio_2021_01_workspace_RZA2M_ANPR/ANPR_RZA2M_EBK/src/tensorflow_lite/tensorflow/lite/kernels/internal\strided_slice_logic.h ****   }
 5100              		.loc 5 160 0
 5101 1ba8 1C809DE5 		ldr	r8, [sp, #28]
 5102 1bac 080080E0 		add	r0, r0, r8
 5103              	.LVL602:
 5104              	.L109:
 166:C:/Renesas/e2studio_2021_01_workspace_RZA2M_ANPR/ANPR_RZA2M_EBK/src/tensorflow_lite/tensorflow/lite/kernels/internal\strided_slice_logic.h ****     // Forward iteration
 5105              		.loc 5 166 0
 5106 1bb0 000054E3 		cmp	r4, #0
 5107 1bb4 33FBFFCA 		bgt	.L107
 171:C:/Renesas/e2studio_2021_01_workspace_RZA2M_ANPR/ANPR_RZA2M_EBK/src/tensorflow_lite/tensorflow/lite/kernels/internal\strided_slice_logic.h ****   }
 5108              		.loc 5 171 0
 5109 1bb8 1C409DE5 		ldr	r4, [sp, #28]
 5110 1bbc 014044E2 		sub	r4, r4, #1
 5111              	.LBB1073:
 5112              	.LBB1074:
  30:C:/Renesas/e2studio_2021_01_workspace_RZA2M_ANPR/ANPR_RZA2M_EBK/src/tensorflow_lite/tensorflow/lite/kernels/internal\strided_slice_logic.h ****   if (hi < v) return hi;
 5113              		.loc 5 30 0
 5114 1bc0 010074E3 		cmn	r4, #1
 5115              	.LBE1074:
 5116              	.LBE1073:
 171:C:/Renesas/e2studio_2021_01_workspace_RZA2M_ANPR/ANPR_RZA2M_EBK/src/tensorflow_lite/tensorflow/lite/kernels/internal\strided_slice_logic.h ****   }
 5117              		.loc 5 171 0
 5118 1bc4 4C408DE5 		str	r4, [sp, #76]
 5119              	.LVL603:
 5120              	.LBB1077:
 5121              	.LBB1075:
  30:C:/Renesas/e2studio_2021_01_workspace_RZA2M_ANPR/ANPR_RZA2M_EBK/src/tensorflow_lite/tensorflow/lite/kernels/internal\strided_slice_logic.h ****   if (hi < v) return hi;
 5122              		.loc 5 30 0
 5123 1bc8 040000BA 		blt	.L1141
  31:C:/Renesas/e2studio_2021_01_workspace_RZA2M_ANPR/ANPR_RZA2M_EBK/src/tensorflow_lite/tensorflow/lite/kernels/internal\strided_slice_logic.h ****   if (v < lo) return lo;
 5124              		.loc 5 31 0
 5125 1bcc 040050E1 		cmp	r0, r4
 5126 1bd0 C00F80D1 		orrle	r0, r0, r0, asr #31
 5127              	.LVL604:
 5128 1bd4 4C008DD5 		strle	r0, [sp, #76]
 5129 1bd8 32FBFFEA 		b	.L96
 5130              	.LVL605:
 5131              	.L1081:
 5132              	.LBE1075:
 5133              	.LBE1077:
 5134              	.LBB1078:
 5135              	.LBB1072:
  30:C:/Renesas/e2studio_2021_01_workspace_RZA2M_ANPR/ANPR_RZA2M_EBK/src/tensorflow_lite/tensorflow/lite/kernels/internal\strided_slice_logic.h ****   if (hi < v) return hi;
 5136              		.loc 5 30 0
 5137 1bdc FEFFFFEB 		bl	abort
 5138              	.LVL606:
 5139              	.L1141:
 5140              	.LBE1072:
 5141              	.LBE1078:
 5142              	.LBB1079:
 5143              	.LBB1076:
 5144 1be0 FEFFFFEB 		bl	abort
 5145              	.LVL607:
 5146              	.L1086:
 5147              	.LBE1076:
 5148              	.LBE1079:
 5149              	.LBE1082:
 5150              	.LBE1212:
 5151              	.LBB1213:
 5152              	.LBB1118:
 143:C:/Renesas/e2studio_2021_01_workspace_RZA2M_ANPR/ANPR_RZA2M_EBK/src/tensorflow_lite/tensorflow/lite/kernels/internal\strided_slice_logic.h ****   }
 5153              		.loc 5 143 0
 5154 1be4 01708AE2 		add	r7, r10, #1
 5155              	.LVL608:
 5156 1be8 58FBFFEA 		b	.L127
 5157              	.LVL609:
 5158              	.L1085:
 5159              	.LBE1118:
 5160              	.LBE1213:
 5161              	.LBB1214:
 5162              	.LBB1106:
 5163              	.LBB1103:
 5164              	.LBB1095:
  30:C:/Renesas/e2studio_2021_01_workspace_RZA2M_ANPR/ANPR_RZA2M_EBK/src/tensorflow_lite/tensorflow/lite/kernels/internal\strided_slice_logic.h ****   if (hi < v) return hi;
 5165              		.loc 5 30 0
 5166 1bec FEFFFFEB 		bl	abort
 5167              	.LVL610:
 5168              	.L123:
 5169              	.LBE1095:
 5170              	.LBE1103:
 111:C:/Renesas/e2studio_2021_01_workspace_RZA2M_ANPR/ANPR_RZA2M_EBK/src/tensorflow_lite/tensorflow/lite/kernels/internal\strided_slice_logic.h ****   }
 5171              		.loc 5 111 0
 5172 1bf0 01A044E2 		sub	r10, r4, #1
 5173              	.LVL611:
 5174              	.LBB1104:
 5175              	.LBB1099:
  30:C:/Renesas/e2studio_2021_01_workspace_RZA2M_ANPR/ANPR_RZA2M_EBK/src/tensorflow_lite/tensorflow/lite/kernels/internal\strided_slice_logic.h ****   if (hi < v) return hi;
 5176              		.loc 5 30 0
 5177 1bf4 01007AE3 		cmn	r10, #1
 5178 1bf8 D5FFFFBA 		blt	.L533
  31:C:/Renesas/e2studio_2021_01_workspace_RZA2M_ANPR/ANPR_RZA2M_EBK/src/tensorflow_lite/tensorflow/lite/kernels/internal\strided_slice_logic.h ****   if (v < lo) return lo;
 5179              		.loc 5 31 0
 5180 1bfc 0A0050E1 		cmp	r0, r10
 5181 1c00 C0AF80D1 		orrle	r10, r0, r0, asr #31
 5182              	.LVL612:
 5183 1c04 42FBFFEA 		b	.L125
 5184              	.LVL613:
 5185              	.L138:
 5186              	.LBE1099:
 5187              	.LBE1104:
 5188              	.LBE1106:
 5189              	.LBE1214:
 5190              	.LBB1215:
 5191              	.LBB1216:
 203:C:/Renesas/e2studio_2021_01_workspace_RZA2M_ANPR/ANPR_RZA2M_EBK/src/tensorflow_lite/tensorflow/lite/kernels/internal\types.h **** #ifdef TF_LITE_STATIC_MEMORY
 5192              		.loc 4 203 0
 5193 1c08 DC309DE5 		ldr	r3, [sp, #220]
 5194 1c0c 050053E3 		cmp	r3, #5
 5195 1c10 030000DA 		ble	.L162
 207:C:/Renesas/e2studio_2021_01_workspace_RZA2M_ANPR/ANPR_RZA2M_EBK/src/tensorflow_lite/tensorflow/lite/kernels/internal\types.h **** #endif  // TF_LITE_STATIC_MEMORY
 5196              		.loc 4 207 0
 5197 1c14 E0009DE5 		ldr	r0, [sp, #224]
 5198              	.LVL614:
 5199 1c18 000050E3 		cmp	r0, #0
 5200 1c1c 0000000A 		beq	.L162
 5201 1c20 FEFFFFEB 		bl	_ZdaPv
 5202              	.LVL615:
 5203              	.L162:
 5204              	.LBE1216:
 5205              	.LBE1215:
 5206              	.LBB1217:
 5207              	.LBB1218:
 203:C:/Renesas/e2studio_2021_01_workspace_RZA2M_ANPR/ANPR_RZA2M_EBK/src/tensorflow_lite/tensorflow/lite/kernels/internal\types.h **** #ifdef TF_LITE_STATIC_MEMORY
 5208              		.loc 4 203 0
 5209 1c24 0C309DE5 		ldr	r3, [sp, #12]
 5210 1c28 050053E3 		cmp	r3, #5
 5211 1c2c FAFEFF1A 		bne	.L973
 5212 1c30 FDFEFFEA 		b	.L482
 5213              	.LVL616:
 5214              	.L136:
 5215              	.LBE1218:
 5216              	.LBE1217:
 5217              	.LBB1219:
 5218              	.LBB1187:
 5219              	.LBB1185:
 5220              		.loc 5 179 0
 5221 1c34 020053E1 		cmp	r3, r2
 5222 1c38 0030A0C3 		movgt	r3, #0
 5223              	.LVL617:
 5224 1c3c 0130A0D3 		movle	r3, #1
 5225 1c40 7EFBFFEA 		b	.L137
 5226              	.LVL618:
 5227              	.L1095:
 5228              	.LBE1185:
 5229              	.LBE1187:
 5230              	.LBE1219:
 5231              	.LBB1220:
 5232              	.LBB1119:
 5233              	.LBB1116:
 5234              	.LBB1115:
  30:C:/Renesas/e2studio_2021_01_workspace_RZA2M_ANPR/ANPR_RZA2M_EBK/src/tensorflow_lite/tensorflow/lite/kernels/internal\strided_slice_logic.h ****   if (hi < v) return hi;
 5235              		.loc 5 30 0
 5236 1c44 FEFFFFEB 		bl	abort
 5237              	.LVL619:
 5238              	.LEHE21:
 5239              	.L1106:
 5240              	.LEHB22:
 5241              	.LBE1115:
 5242              	.LBE1116:
 5243              	.LBE1119:
 5244              	.LBE1220:
 5245              	.LBE1225:
 5246              	.LBE1230:
 5247              	.LBE1235:
 5248              	.LBE2007:
 5249              	.LBB2008:
 5250              	.LBB1618:
 5251              	.LBB1610:
 5252              	.LBB1602:
 5253              	.LBB1579:
 5254              	.LBB1364:
 5255              	.LBB1354:
 5256              	.LBB1350:
 215:C:/Renesas/e2studio_2021_01_workspace_RZA2M_ANPR/ANPR_RZA2M_EBK/src/tensorflow_lite/tensorflow/lite/kernels/internal\types.h ****     return size_ > kMaxSmallSize ? dims_pointer_[i] : dims_[i];
 5257              		.loc 4 215 0
 5258 1c48 FEFFFFEB 		bl	abort
 5259              	.LVL620:
 5260              	.L1105:
 5261              	.LBE1350:
 5262              	.LBE1354:
 5263              	.LBE1364:
 5264              	.LBE1579:
 5265              	.LBB1580:
 5266              	.LBB1344:
 5267              	.LBB1339:
 5268              	.LBB1338:
  30:C:/Renesas/e2studio_2021_01_workspace_RZA2M_ANPR/ANPR_RZA2M_EBK/src/tensorflow_lite/tensorflow/lite/kernels/internal\strided_slice_logic.h ****   if (hi < v) return hi;
 5269              		.loc 5 30 0
 5270 1c4c FEFFFFEB 		bl	abort
 5271              	.LVL621:
 5272              	.L365:
 5273              	.LBE1338:
 5274              	.LBE1339:
 159:C:/Renesas/e2studio_2021_01_workspace_RZA2M_ANPR/ANPR_RZA2M_EBK/src/tensorflow_lite/tensorflow/lite/kernels/internal\strided_slice_logic.h ****     stop += axis_size;
 5275              		.loc 5 159 0
 5276 1c50 000052E3 		cmp	r2, #0
 5277 1c54 000000AA 		bge	.L368
 5278              	.LVL622:
 5279              	.L367:
 160:C:/Renesas/e2studio_2021_01_workspace_RZA2M_ANPR/ANPR_RZA2M_EBK/src/tensorflow_lite/tensorflow/lite/kernels/internal\strided_slice_logic.h ****   }
 5280              		.loc 5 160 0
 5281 1c58 0C2082E0 		add	r2, r2, ip
 5282              	.LVL623:
 5283              	.L368:
 166:C:/Renesas/e2studio_2021_01_workspace_RZA2M_ANPR/ANPR_RZA2M_EBK/src/tensorflow_lite/tensorflow/lite/kernels/internal\strided_slice_logic.h ****     // Forward iteration
 5284              		.loc 5 166 0
 5285 1c5c 000051E3 		cmp	r1, #0
 5286 1c60 58FDFFCA 		bgt	.L366
 171:C:/Renesas/e2studio_2021_01_workspace_RZA2M_ANPR/ANPR_RZA2M_EBK/src/tensorflow_lite/tensorflow/lite/kernels/internal\strided_slice_logic.h ****   }
 5287              		.loc 5 171 0
 5288 1c64 01C04CE2 		sub	ip, ip, #1
 5289              	.LVL624:
 5290              	.LBB1340:
 5291              	.LBB1341:
  30:C:/Renesas/e2studio_2021_01_workspace_RZA2M_ANPR/ANPR_RZA2M_EBK/src/tensorflow_lite/tensorflow/lite/kernels/internal\strided_slice_logic.h ****   if (hi < v) return hi;
 5292              		.loc 5 30 0
 5293 1c68 01007CE3 		cmn	ip, #1
 5294 1c6c 0F0000BA 		blt	.L1142
  31:C:/Renesas/e2studio_2021_01_workspace_RZA2M_ANPR/ANPR_RZA2M_EBK/src/tensorflow_lite/tensorflow/lite/kernels/internal\strided_slice_logic.h ****   if (v < lo) return lo;
 5295              		.loc 5 31 0
 5296 1c70 0C0052E1 		cmp	r2, ip
 5297 1c74 C2CF82D1 		orrle	ip, r2, r2, asr #31
 5298              	.LVL625:
 5299 1c78 56FDFFEA 		b	.L355
 5300              	.LVL626:
 5301              	.L1104:
 5302              	.LBE1341:
 5303              	.LBE1340:
 143:C:/Renesas/e2studio_2021_01_workspace_RZA2M_ANPR/ANPR_RZA2M_EBK/src/tensorflow_lite/tensorflow/lite/kernels/internal\strided_slice_logic.h ****   }
 5304              		.loc 5 143 0
 5305 1c7c 01C083E2 		add	ip, r3, #1
 5306 1c80 54FDFFEA 		b	.L355
 5307              	.LVL627:
 5308              	.L361:
 5309              	.LBE1344:
 5310              	.LBE1580:
 5311              	.LBB1581:
 5312              	.LBB1328:
 111:C:/Renesas/e2studio_2021_01_workspace_RZA2M_ANPR/ANPR_RZA2M_EBK/src/tensorflow_lite/tensorflow/lite/kernels/internal\strided_slice_logic.h ****   }
 5313              		.loc 5 111 0
 5314 1c84 01304CE2 		sub	r3, ip, #1
 5315              	.LVL628:
 5316              	.LBB1320:
 5317              	.LBB1321:
  30:C:/Renesas/e2studio_2021_01_workspace_RZA2M_ANPR/ANPR_RZA2M_EBK/src/tensorflow_lite/tensorflow/lite/kernels/internal\strided_slice_logic.h ****   if (hi < v) return hi;
 5318              		.loc 5 30 0
 5319 1c88 010073E3 		cmn	r3, #1
 5320 1c8c 050000BA 		blt	.L539
  31:C:/Renesas/e2studio_2021_01_workspace_RZA2M_ANPR/ANPR_RZA2M_EBK/src/tensorflow_lite/tensorflow/lite/kernels/internal\strided_slice_logic.h ****   if (v < lo) return lo;
 5321              		.loc 5 31 0
 5322 1c90 030052E1 		cmp	r2, r3
 5323 1c94 C23F82D1 		orrle	r3, r2, r2, asr #31
 5324              	.LVL629:
 5325 1c98 41FDFFEA 		b	.L363
 5326              	.LVL630:
 5327              	.L1102:
 5328              	.LBE1321:
 5329              	.LBE1320:
 111:C:/Renesas/e2studio_2021_01_workspace_RZA2M_ANPR/ANPR_RZA2M_EBK/src/tensorflow_lite/tensorflow/lite/kernels/internal\strided_slice_logic.h ****   }
 5330              		.loc 5 111 0
 5331 1c9c 01304CE2 		sub	r3, ip, #1
 5332              	.LVL631:
 5333              	.LBB1323:
 5334              	.LBB1322:
  30:C:/Renesas/e2studio_2021_01_workspace_RZA2M_ANPR/ANPR_RZA2M_EBK/src/tensorflow_lite/tensorflow/lite/kernels/internal\strided_slice_logic.h ****   if (hi < v) return hi;
 5335              		.loc 5 30 0
 5336 1ca0 010073E3 		cmn	r3, #1
 5337 1ca4 3EFDFFAA 		bge	.L363
 5338              	.LVL632:
 5339              	.L539:
 5340 1ca8 FEFFFFEB 		bl	abort
 5341              	.LVL633:
 5342              	.L1103:
 5343              	.LBE1322:
 5344              	.LBE1323:
 5345              	.LBB1324:
 5346              	.LBB1319:
 5347 1cac FEFFFFEB 		bl	abort
 5348              	.LVL634:
 5349              	.L1142:
 5350              	.LBE1319:
 5351              	.LBE1324:
 5352              	.LBE1328:
 5353              	.LBE1581:
 5354              	.LBB1582:
 5355              	.LBB1345:
 5356              	.LBB1343:
 5357              	.LBB1342:
 5358 1cb0 FEFFFFEB 		bl	abort
 5359              	.LVL635:
 5360              	.L356:
 5361              	.LBE1342:
 5362              	.LBE1343:
 5363              	.LBE1345:
 5364              	.LBE1582:
 5365              	.LBB1583:
 5366              	.LBB1329:
 101:C:/Renesas/e2studio_2021_01_workspace_RZA2M_ANPR/ANPR_RZA2M_EBK/src/tensorflow_lite/tensorflow/lite/kernels/internal\strided_slice_logic.h ****     start += axis_size;
 5367              		.loc 5 101 0
 5368 1cb4 000052E3 		cmp	r2, #0
 5369 1cb8 32FDFFAA 		bge	.L360
 5370 1cbc 30FDFFEA 		b	.L357
 5371              	.LVL636:
 5372              	.L596:
  82:C:/Renesas/e2studio_2021_01_workspace_RZA2M_ANPR/ANPR_RZA2M_EBK/src/tensorflow_lite/tensorflow/lite/kernels/internal\strided_slice_logic.h ****   }
 5373              		.loc 5 82 0
 5374 1cc0 0C30A0E1 		mov	r3, ip
 5375 1cc4 43FDFFEA 		b	.L355
 5376              	.LVL637:
 5377              	.L1101:
 5378              	.LBB1325:
 5379              	.LBB1314:
 215:C:/Renesas/e2studio_2021_01_workspace_RZA2M_ANPR/ANPR_RZA2M_EBK/src/tensorflow_lite/tensorflow/lite/kernels/internal\types.h ****     return size_ > kMaxSmallSize ? dims_pointer_[i] : dims_[i];
 5380              		.loc 4 215 0
 5381 1cc8 FEFFFFEB 		bl	abort
 5382              	.LVL638:
 5383              	.L1100:
 5384              	.LBE1314:
 5385              	.LBE1325:
 5386              	.LBE1329:
 5387              	.LBE1583:
 5388              	.LBB1584:
 5389              	.LBB1307:
  42:C:/Renesas/e2studio_2021_01_workspace_RZA2M_ANPR/ANPR_RZA2M_EBK/src/tensorflow_lite/tensorflow/lite/kernels/internal\strided_slice_logic.h **** 
 5390              		.loc 5 42 0
 5391 1ccc FEFFFFEB 		bl	abort
 5392              	.LVL639:
 5393              	.L1099:
  41:C:/Renesas/e2studio_2021_01_workspace_RZA2M_ANPR/ANPR_RZA2M_EBK/src/tensorflow_lite/tensorflow/lite/kernels/internal\strided_slice_logic.h ****   TFLITE_CHECK_EQ(p->stop_indices_count, p->strides_count);
 5394              		.loc 5 41 0
 5395 1cd0 FEFFFFEB 		bl	abort
 5396              	.LVL640:
 5397              	.L1098:
  40:C:/Renesas/e2studio_2021_01_workspace_RZA2M_ANPR/ANPR_RZA2M_EBK/src/tensorflow_lite/tensorflow/lite/kernels/internal\strided_slice_logic.h ****   TFLITE_CHECK_EQ(p->start_indices_count, p->stop_indices_count);
 5398              		.loc 5 40 0
 5399 1cd4 FEFFFFEB 		bl	abort
 5400              	.LVL641:
 5401              	.LEHE22:
 5402              	.L629:
 5403 1cd8 CCF9FFEA 		b	.L487
 5404              	.LVL642:
 5405              	.L179:
 5406              	.LBE1307:
 5407              	.LBE1584:
 5408              	.LBE1602:
 5409              	.LBE1610:
 5410              	.LBE1618:
 5411              	.LBE2008:
 5412              	.LBB2009:
 5413              	.LBB1982:
 5414              	.LBB1978:
 5415              	.LBB1974:
 5416              	.LBB1679:
 5417              	.LBB1678:
 5418              	.LBB1677:
 5419              	.LBB1676:
 5420              		.loc 4 315 0
 5421 1cdc E0308DE2 		add	r3, sp, #224
 5422 1ce0 0821A0E1 		lsl	r2, r8, #2
 5423 1ce4 000183E0 		add	r0, r3, r0, lsl #2
 5424              	.LVL643:
 5425 1ce8 B0108DE2 		add	r1, sp, #176
 5426 1cec FEFFFFEB 		bl	memcpy
 5427              	.LVL644:
 5428              	.LBE1676:
 5429              	.LBE1677:
 5430              	.LBE1678:
 5431              	.LBE1679:
 5432              	.LBB1680:
 5433              	.LBB1681:
  40:C:/Renesas/e2studio_2021_01_workspace_RZA2M_ANPR/ANPR_RZA2M_EBK/src/tensorflow_lite/tensorflow/lite/kernels/internal\strided_slice_logic.h ****   TFLITE_CHECK_EQ(p->start_indices_count, p->stop_indices_count);
 5434              		.loc 5 40 0
 5435 1cf0 050056E3 		cmp	r6, #5
 5436 1cf4 F40200CA 		bgt	.L1143
  41:C:/Renesas/e2studio_2021_01_workspace_RZA2M_ANPR/ANPR_RZA2M_EBK/src/tensorflow_lite/tensorflow/lite/kernels/internal\strided_slice_logic.h ****   TFLITE_CHECK_EQ(p->stop_indices_count, p->strides_count);
 5437              		.loc 5 41 0
 5438 1cf8 060055E1 		cmp	r5, r6
 5439 1cfc F102001A 		bne	.L1144
  42:C:/Renesas/e2studio_2021_01_workspace_RZA2M_ANPR/ANPR_RZA2M_EBK/src/tensorflow_lite/tensorflow/lite/kernels/internal\strided_slice_logic.h **** 
 5440              		.loc 5 42 0
 5441 1d00 090055E1 		cmp	r5, r9
 5442 1d04 EE02001A 		bne	.L1145
 5443              	.LBB1682:
  47:C:/Renesas/e2studio_2021_01_workspace_RZA2M_ANPR/ANPR_RZA2M_EBK/src/tensorflow_lite/tensorflow/lite/kernels/internal\strided_slice_logic.h ****     p->strides[i + pad_count] = p->strides[i];
 5444              		.loc 5 47 0
 5445 1d08 012055E2 		subs	r2, r5, #1
 5446              	.LBE1682:
  44:C:/Renesas/e2studio_2021_01_workspace_RZA2M_ANPR/ANPR_RZA2M_EBK/src/tensorflow_lite/tensorflow/lite/kernels/internal\strided_slice_logic.h **** 
 5447              		.loc 5 44 0
 5448 1d0c 059065E2 		rsb	r9, r5, #5
 5449              	.LVL645:
 5450              	.LBB1683:
  47:C:/Renesas/e2studio_2021_01_workspace_RZA2M_ANPR/ANPR_RZA2M_EBK/src/tensorflow_lite/tensorflow/lite/kernels/internal\strided_slice_logic.h ****     p->strides[i + pad_count] = p->strides[i];
 5451              		.loc 5 47 0
 5452 1d10 4900004A 		bmi	.L192
  49:C:/Renesas/e2studio_2021_01_workspace_RZA2M_ANPR/ANPR_RZA2M_EBK/src/tensorflow_lite/tensorflow/lite/kernels/internal\strided_slice_logic.h ****     p->stop_indices[i + pad_count] = p->stop_indices[i];
 5453              		.loc 5 49 0
 5454 1d14 523F8DE2 		add	r3, sp, #328
 5455 1d18 021183E0 		add	r1, r3, r2, lsl #2
  48:C:/Renesas/e2studio_2021_01_workspace_RZA2M_ANPR/ANPR_RZA2M_EBK/src/tensorflow_lite/tensorflow/lite/kernels/internal\strided_slice_logic.h ****     p->start_indices[i + pad_count] = p->start_indices[i];
 5456              		.loc 5 48 0
 5457 1d1c 053183E0 		add	r3, r3, r5, lsl #2
 5458 1d20 022089E0 		add	r2, r9, r2
 5459              	.LVL646:
 5460 1d24 240013E5 		ldr	r0, [r3, #-36]
 5461 1d28 523F8DE2 		add	r3, sp, #328
  49:C:/Renesas/e2studio_2021_01_workspace_RZA2M_ANPR/ANPR_RZA2M_EBK/src/tensorflow_lite/tensorflow/lite/kernels/internal\strided_slice_logic.h ****     p->stop_indices[i + pad_count] = p->stop_indices[i];
 5462              		.loc 5 49 0
 5463 1d2c 50C011E5 		ldr	ip, [r1, #-80]
  48:C:/Renesas/e2studio_2021_01_workspace_RZA2M_ANPR/ANPR_RZA2M_EBK/src/tensorflow_lite/tensorflow/lite/kernels/internal\strided_slice_logic.h ****     p->start_indices[i + pad_count] = p->start_indices[i];
 5464              		.loc 5 48 0
 5465 1d30 02E183E0 		add	lr, r3, r2, lsl #2
  50:C:/Renesas/e2studio_2021_01_workspace_RZA2M_ANPR/ANPR_RZA2M_EBK/src/tensorflow_lite/tensorflow/lite/kernels/internal\strided_slice_logic.h ****   }
 5466              		.loc 5 50 0
 5467 1d34 053183E0 		add	r3, r3, r5, lsl #2
 5468 1d38 3C1013E5 		ldr	r1, [r3, #-60]
  47:C:/Renesas/e2studio_2021_01_workspace_RZA2M_ANPR/ANPR_RZA2M_EBK/src/tensorflow_lite/tensorflow/lite/kernels/internal\strided_slice_logic.h ****     p->strides[i + pad_count] = p->strides[i];
 5469              		.loc 5 47 0
 5470 1d3c 023045E2 		sub	r3, r5, #2
 5471              	.LVL647:
 5472 1d40 010073E3 		cmn	r3, #1
  48:C:/Renesas/e2studio_2021_01_workspace_RZA2M_ANPR/ANPR_RZA2M_EBK/src/tensorflow_lite/tensorflow/lite/kernels/internal\strided_slice_logic.h ****     p->start_indices[i + pad_count] = p->start_indices[i];
 5473              		.loc 5 48 0
 5474 1d44 20000EE5 		str	r0, [lr, #-32]
  49:C:/Renesas/e2studio_2021_01_workspace_RZA2M_ANPR/ANPR_RZA2M_EBK/src/tensorflow_lite/tensorflow/lite/kernels/internal\strided_slice_logic.h ****     p->stop_indices[i + pad_count] = p->stop_indices[i];
 5475              		.loc 5 49 0
 5476 1d48 0E00A0E1 		mov	r0, lr
  50:C:/Renesas/e2studio_2021_01_workspace_RZA2M_ANPR/ANPR_RZA2M_EBK/src/tensorflow_lite/tensorflow/lite/kernels/internal\strided_slice_logic.h ****   }
 5477              		.loc 5 50 0
 5478 1d4c 52EF8DE2 		add	lr, sp, #328
  49:C:/Renesas/e2studio_2021_01_workspace_RZA2M_ANPR/ANPR_RZA2M_EBK/src/tensorflow_lite/tensorflow/lite/kernels/internal\strided_slice_logic.h ****     p->stop_indices[i + pad_count] = p->stop_indices[i];
 5479              		.loc 5 49 0
 5480 1d50 50C000E5 		str	ip, [r0, #-80]
  50:C:/Renesas/e2studio_2021_01_workspace_RZA2M_ANPR/ANPR_RZA2M_EBK/src/tensorflow_lite/tensorflow/lite/kernels/internal\strided_slice_logic.h ****   }
 5481              		.loc 5 50 0
 5482 1d54 381000E5 		str	r1, [r0, #-56]
  47:C:/Renesas/e2studio_2021_01_workspace_RZA2M_ANPR/ANPR_RZA2M_EBK/src/tensorflow_lite/tensorflow/lite/kernels/internal\strided_slice_logic.h ****     p->strides[i + pad_count] = p->strides[i];
 5483              		.loc 5 47 0
 5484 1d58 3700000A 		beq	.L192
  48:C:/Renesas/e2studio_2021_01_workspace_RZA2M_ANPR/ANPR_RZA2M_EBK/src/tensorflow_lite/tensorflow/lite/kernels/internal\strided_slice_logic.h ****     p->start_indices[i + pad_count] = p->start_indices[i];
 5485              		.loc 5 48 0
 5486 1d5c 05218EE0 		add	r2, lr, r5, lsl #2
  49:C:/Renesas/e2studio_2021_01_workspace_RZA2M_ANPR/ANPR_RZA2M_EBK/src/tensorflow_lite/tensorflow/lite/kernels/internal\strided_slice_logic.h ****     p->stop_indices[i + pad_count] = p->stop_indices[i];
 5487              		.loc 5 49 0
 5488 1d60 03118EE0 		add	r1, lr, r3, lsl #2
  48:C:/Renesas/e2studio_2021_01_workspace_RZA2M_ANPR/ANPR_RZA2M_EBK/src/tensorflow_lite/tensorflow/lite/kernels/internal\strided_slice_logic.h ****     p->start_indices[i + pad_count] = p->start_indices[i];
 5489              		.loc 5 48 0
 5490 1d64 280012E5 		ldr	r0, [r2, #-40]
 5491 1d68 0E20A0E1 		mov	r2, lr
  50:C:/Renesas/e2studio_2021_01_workspace_RZA2M_ANPR/ANPR_RZA2M_EBK/src/tensorflow_lite/tensorflow/lite/kernels/internal\strided_slice_logic.h ****   }
 5492              		.loc 5 50 0
 5493 1d6c 052182E0 		add	r2, r2, r5, lsl #2
  48:C:/Renesas/e2studio_2021_01_workspace_RZA2M_ANPR/ANPR_RZA2M_EBK/src/tensorflow_lite/tensorflow/lite/kernels/internal\strided_slice_logic.h ****     p->start_indices[i + pad_count] = p->start_indices[i];
 5494              		.loc 5 48 0
 5495 1d70 033089E0 		add	r3, r9, r3
 5496              	.LVL648:
  49:C:/Renesas/e2studio_2021_01_workspace_RZA2M_ANPR/ANPR_RZA2M_EBK/src/tensorflow_lite/tensorflow/lite/kernels/internal\strided_slice_logic.h ****     p->stop_indices[i + pad_count] = p->stop_indices[i];
 5497              		.loc 5 49 0
 5498 1d74 50C011E5 		ldr	ip, [r1, #-80]
  48:C:/Renesas/e2studio_2021_01_workspace_RZA2M_ANPR/ANPR_RZA2M_EBK/src/tensorflow_lite/tensorflow/lite/kernels/internal\strided_slice_logic.h ****     p->start_indices[i + pad_count] = p->start_indices[i];
 5499              		.loc 5 48 0
 5500 1d78 03E18EE0 		add	lr, lr, r3, lsl #2
  50:C:/Renesas/e2studio_2021_01_workspace_RZA2M_ANPR/ANPR_RZA2M_EBK/src/tensorflow_lite/tensorflow/lite/kernels/internal\strided_slice_logic.h ****   }
 5501              		.loc 5 50 0
 5502 1d7c 401012E5 		ldr	r1, [r2, #-64]
  47:C:/Renesas/e2studio_2021_01_workspace_RZA2M_ANPR/ANPR_RZA2M_EBK/src/tensorflow_lite/tensorflow/lite/kernels/internal\strided_slice_logic.h ****     p->strides[i + pad_count] = p->strides[i];
 5503              		.loc 5 47 0
 5504 1d80 032045E2 		sub	r2, r5, #3
 5505              	.LVL649:
 5506 1d84 010072E3 		cmn	r2, #1
  48:C:/Renesas/e2studio_2021_01_workspace_RZA2M_ANPR/ANPR_RZA2M_EBK/src/tensorflow_lite/tensorflow/lite/kernels/internal\strided_slice_logic.h ****     p->start_indices[i + pad_count] = p->start_indices[i];
 5507              		.loc 5 48 0
 5508 1d88 20000EE5 		str	r0, [lr, #-32]
  49:C:/Renesas/e2studio_2021_01_workspace_RZA2M_ANPR/ANPR_RZA2M_EBK/src/tensorflow_lite/tensorflow/lite/kernels/internal\strided_slice_logic.h ****     p->stop_indices[i + pad_count] = p->stop_indices[i];
 5509              		.loc 5 49 0
 5510 1d8c 0E00A0E1 		mov	r0, lr
  50:C:/Renesas/e2studio_2021_01_workspace_RZA2M_ANPR/ANPR_RZA2M_EBK/src/tensorflow_lite/tensorflow/lite/kernels/internal\strided_slice_logic.h ****   }
 5511              		.loc 5 50 0
 5512 1d90 52EF8DE2 		add	lr, sp, #328
  49:C:/Renesas/e2studio_2021_01_workspace_RZA2M_ANPR/ANPR_RZA2M_EBK/src/tensorflow_lite/tensorflow/lite/kernels/internal\strided_slice_logic.h ****     p->stop_indices[i + pad_count] = p->stop_indices[i];
 5513              		.loc 5 49 0
 5514 1d94 50C000E5 		str	ip, [r0, #-80]
  50:C:/Renesas/e2studio_2021_01_workspace_RZA2M_ANPR/ANPR_RZA2M_EBK/src/tensorflow_lite/tensorflow/lite/kernels/internal\strided_slice_logic.h ****   }
 5515              		.loc 5 50 0
 5516 1d98 381000E5 		str	r1, [r0, #-56]
  47:C:/Renesas/e2studio_2021_01_workspace_RZA2M_ANPR/ANPR_RZA2M_EBK/src/tensorflow_lite/tensorflow/lite/kernels/internal\strided_slice_logic.h ****     p->strides[i + pad_count] = p->strides[i];
 5517              		.loc 5 47 0
 5518 1d9c 2600000A 		beq	.L192
  48:C:/Renesas/e2studio_2021_01_workspace_RZA2M_ANPR/ANPR_RZA2M_EBK/src/tensorflow_lite/tensorflow/lite/kernels/internal\strided_slice_logic.h ****     p->start_indices[i + pad_count] = p->start_indices[i];
 5519              		.loc 5 48 0
 5520 1da0 05318EE0 		add	r3, lr, r5, lsl #2
  49:C:/Renesas/e2studio_2021_01_workspace_RZA2M_ANPR/ANPR_RZA2M_EBK/src/tensorflow_lite/tensorflow/lite/kernels/internal\strided_slice_logic.h ****     p->stop_indices[i + pad_count] = p->stop_indices[i];
 5521              		.loc 5 49 0
 5522 1da4 02118EE0 		add	r1, lr, r2, lsl #2
  48:C:/Renesas/e2studio_2021_01_workspace_RZA2M_ANPR/ANPR_RZA2M_EBK/src/tensorflow_lite/tensorflow/lite/kernels/internal\strided_slice_logic.h ****     p->start_indices[i + pad_count] = p->start_indices[i];
 5523              		.loc 5 48 0
 5524 1da8 2C0013E5 		ldr	r0, [r3, #-44]
 5525 1dac 0E30A0E1 		mov	r3, lr
  50:C:/Renesas/e2studio_2021_01_workspace_RZA2M_ANPR/ANPR_RZA2M_EBK/src/tensorflow_lite/tensorflow/lite/kernels/internal\strided_slice_logic.h ****   }
 5526              		.loc 5 50 0
 5527 1db0 053183E0 		add	r3, r3, r5, lsl #2
  48:C:/Renesas/e2studio_2021_01_workspace_RZA2M_ANPR/ANPR_RZA2M_EBK/src/tensorflow_lite/tensorflow/lite/kernels/internal\strided_slice_logic.h ****     p->start_indices[i + pad_count] = p->start_indices[i];
 5528              		.loc 5 48 0
 5529 1db4 022089E0 		add	r2, r9, r2
 5530              	.LVL650:
  49:C:/Renesas/e2studio_2021_01_workspace_RZA2M_ANPR/ANPR_RZA2M_EBK/src/tensorflow_lite/tensorflow/lite/kernels/internal\strided_slice_logic.h ****     p->stop_indices[i + pad_count] = p->stop_indices[i];
 5531              		.loc 5 49 0
 5532 1db8 50C011E5 		ldr	ip, [r1, #-80]
  48:C:/Renesas/e2studio_2021_01_workspace_RZA2M_ANPR/ANPR_RZA2M_EBK/src/tensorflow_lite/tensorflow/lite/kernels/internal\strided_slice_logic.h ****     p->start_indices[i + pad_count] = p->start_indices[i];
 5533              		.loc 5 48 0
 5534 1dbc 02E18EE0 		add	lr, lr, r2, lsl #2
  50:C:/Renesas/e2studio_2021_01_workspace_RZA2M_ANPR/ANPR_RZA2M_EBK/src/tensorflow_lite/tensorflow/lite/kernels/internal\strided_slice_logic.h ****   }
 5535              		.loc 5 50 0
 5536 1dc0 441013E5 		ldr	r1, [r3, #-68]
  47:C:/Renesas/e2studio_2021_01_workspace_RZA2M_ANPR/ANPR_RZA2M_EBK/src/tensorflow_lite/tensorflow/lite/kernels/internal\strided_slice_logic.h ****     p->strides[i + pad_count] = p->strides[i];
 5537              		.loc 5 47 0
 5538 1dc4 043045E2 		sub	r3, r5, #4
 5539              	.LVL651:
 5540 1dc8 010073E3 		cmn	r3, #1
  48:C:/Renesas/e2studio_2021_01_workspace_RZA2M_ANPR/ANPR_RZA2M_EBK/src/tensorflow_lite/tensorflow/lite/kernels/internal\strided_slice_logic.h ****     p->start_indices[i + pad_count] = p->start_indices[i];
 5541              		.loc 5 48 0
 5542 1dcc 20000EE5 		str	r0, [lr, #-32]
  49:C:/Renesas/e2studio_2021_01_workspace_RZA2M_ANPR/ANPR_RZA2M_EBK/src/tensorflow_lite/tensorflow/lite/kernels/internal\strided_slice_logic.h ****     p->stop_indices[i + pad_count] = p->stop_indices[i];
 5543              		.loc 5 49 0
 5544 1dd0 0E00A0E1 		mov	r0, lr
  50:C:/Renesas/e2studio_2021_01_workspace_RZA2M_ANPR/ANPR_RZA2M_EBK/src/tensorflow_lite/tensorflow/lite/kernels/internal\strided_slice_logic.h ****   }
 5545              		.loc 5 50 0
 5546 1dd4 52EF8DE2 		add	lr, sp, #328
  49:C:/Renesas/e2studio_2021_01_workspace_RZA2M_ANPR/ANPR_RZA2M_EBK/src/tensorflow_lite/tensorflow/lite/kernels/internal\strided_slice_logic.h ****     p->stop_indices[i + pad_count] = p->stop_indices[i];
 5547              		.loc 5 49 0
 5548 1dd8 50C000E5 		str	ip, [r0, #-80]
  50:C:/Renesas/e2studio_2021_01_workspace_RZA2M_ANPR/ANPR_RZA2M_EBK/src/tensorflow_lite/tensorflow/lite/kernels/internal\strided_slice_logic.h ****   }
 5549              		.loc 5 50 0
 5550 1ddc 381000E5 		str	r1, [r0, #-56]
  47:C:/Renesas/e2studio_2021_01_workspace_RZA2M_ANPR/ANPR_RZA2M_EBK/src/tensorflow_lite/tensorflow/lite/kernels/internal\strided_slice_logic.h ****     p->strides[i + pad_count] = p->strides[i];
 5551              		.loc 5 47 0
 5552 1de0 1500000A 		beq	.L192
  48:C:/Renesas/e2studio_2021_01_workspace_RZA2M_ANPR/ANPR_RZA2M_EBK/src/tensorflow_lite/tensorflow/lite/kernels/internal\strided_slice_logic.h ****     p->start_indices[i + pad_count] = p->start_indices[i];
 5553              		.loc 5 48 0
 5554 1de4 05018EE0 		add	r0, lr, r5, lsl #2
  49:C:/Renesas/e2studio_2021_01_workspace_RZA2M_ANPR/ANPR_RZA2M_EBK/src/tensorflow_lite/tensorflow/lite/kernels/internal\strided_slice_logic.h ****     p->stop_indices[i + pad_count] = p->stop_indices[i];
 5555              		.loc 5 49 0
 5556 1de8 03118EE0 		add	r1, lr, r3, lsl #2
  48:C:/Renesas/e2studio_2021_01_workspace_RZA2M_ANPR/ANPR_RZA2M_EBK/src/tensorflow_lite/tensorflow/lite/kernels/internal\strided_slice_logic.h ****     p->start_indices[i + pad_count] = p->start_indices[i];
 5557              		.loc 5 48 0
 5558 1dec 30C010E5 		ldr	ip, [r0, #-48]
 5559 1df0 033089E0 		add	r3, r9, r3
 5560              	.LVL652:
  50:C:/Renesas/e2studio_2021_01_workspace_RZA2M_ANPR/ANPR_RZA2M_EBK/src/tensorflow_lite/tensorflow/lite/kernels/internal\strided_slice_logic.h ****   }
 5561              		.loc 5 50 0
 5562 1df4 482010E5 		ldr	r2, [r0, #-72]
  48:C:/Renesas/e2studio_2021_01_workspace_RZA2M_ANPR/ANPR_RZA2M_EBK/src/tensorflow_lite/tensorflow/lite/kernels/internal\strided_slice_logic.h ****     p->start_indices[i + pad_count] = p->start_indices[i];
 5563              		.loc 5 48 0
 5564 1df8 03E18EE0 		add	lr, lr, r3, lsl #2
  49:C:/Renesas/e2studio_2021_01_workspace_RZA2M_ANPR/ANPR_RZA2M_EBK/src/tensorflow_lite/tensorflow/lite/kernels/internal\strided_slice_logic.h ****     p->stop_indices[i + pad_count] = p->stop_indices[i];
 5565              		.loc 5 49 0
 5566 1dfc 500011E5 		ldr	r0, [r1, #-80]
  47:C:/Renesas/e2studio_2021_01_workspace_RZA2M_ANPR/ANPR_RZA2M_EBK/src/tensorflow_lite/tensorflow/lite/kernels/internal\strided_slice_logic.h ****     p->strides[i + pad_count] = p->strides[i];
 5567              		.loc 5 47 0
 5568 1e00 040055E3 		cmp	r5, #4
  48:C:/Renesas/e2studio_2021_01_workspace_RZA2M_ANPR/ANPR_RZA2M_EBK/src/tensorflow_lite/tensorflow/lite/kernels/internal\strided_slice_logic.h ****     p->start_indices[i + pad_count] = p->start_indices[i];
 5569              		.loc 5 48 0
 5570 1e04 20C00EE5 		str	ip, [lr, #-32]
  50:C:/Renesas/e2studio_2021_01_workspace_RZA2M_ANPR/ANPR_RZA2M_EBK/src/tensorflow_lite/tensorflow/lite/kernels/internal\strided_slice_logic.h ****   }
 5571              		.loc 5 50 0
 5572 1e08 525F8DE2 		add	r5, sp, #328
 5573              	.LVL653:
 5574 1e0c 38200EE5 		str	r2, [lr, #-56]
  49:C:/Renesas/e2studio_2021_01_workspace_RZA2M_ANPR/ANPR_RZA2M_EBK/src/tensorflow_lite/tensorflow/lite/kernels/internal\strided_slice_logic.h ****     p->stop_indices[i + pad_count] = p->stop_indices[i];
 5575              		.loc 5 49 0
 5576 1e10 50000EE5 		str	r0, [lr, #-80]
  47:C:/Renesas/e2studio_2021_01_workspace_RZA2M_ANPR/ANPR_RZA2M_EBK/src/tensorflow_lite/tensorflow/lite/kernels/internal\strided_slice_logic.h ****     p->strides[i + pad_count] = p->strides[i];
 5577              		.loc 5 47 0
 5578 1e14 0800000A 		beq	.L192
 5579              	.LVL654:
  48:C:/Renesas/e2studio_2021_01_workspace_RZA2M_ANPR/ANPR_RZA2M_EBK/src/tensorflow_lite/tensorflow/lite/kernels/internal\strided_slice_logic.h ****     p->start_indices[i + pad_count] = p->start_indices[i];
 5580              		.loc 5 48 0
 5581 1e18 28019DE5 		ldr	r0, [sp, #296]
 5582 1e1c 093185E0 		add	r3, r5, r9, lsl #2
  49:C:/Renesas/e2studio_2021_01_workspace_RZA2M_ANPR/ANPR_RZA2M_EBK/src/tensorflow_lite/tensorflow/lite/kernels/internal\strided_slice_logic.h ****     p->stop_indices[i + pad_count] = p->stop_indices[i];
 5583              		.loc 5 49 0
 5584 1e20 F8109DE5 		ldr	r1, [sp, #248]
  50:C:/Renesas/e2studio_2021_01_workspace_RZA2M_ANPR/ANPR_RZA2M_EBK/src/tensorflow_lite/tensorflow/lite/kernels/internal\strided_slice_logic.h ****   }
 5585              		.loc 5 50 0
 5586 1e24 10219DE5 		ldr	r2, [sp, #272]
  48:C:/Renesas/e2studio_2021_01_workspace_RZA2M_ANPR/ANPR_RZA2M_EBK/src/tensorflow_lite/tensorflow/lite/kernels/internal\strided_slice_logic.h ****     p->start_indices[i + pad_count] = p->start_indices[i];
 5587              		.loc 5 48 0
 5588 1e28 200003E5 		str	r0, [r3, #-32]
  49:C:/Renesas/e2studio_2021_01_workspace_RZA2M_ANPR/ANPR_RZA2M_EBK/src/tensorflow_lite/tensorflow/lite/kernels/internal\strided_slice_logic.h ****     p->stop_indices[i + pad_count] = p->stop_indices[i];
 5589              		.loc 5 49 0
 5590 1e2c 093185E0 		add	r3, r5, r9, lsl #2
 5591 1e30 501003E5 		str	r1, [r3, #-80]
  50:C:/Renesas/e2studio_2021_01_workspace_RZA2M_ANPR/ANPR_RZA2M_EBK/src/tensorflow_lite/tensorflow/lite/kernels/internal\strided_slice_logic.h ****   }
 5592              		.loc 5 50 0
 5593 1e34 093185E0 		add	r3, r5, r9, lsl #2
 5594 1e38 382003E5 		str	r2, [r3, #-56]
 5595              	.LVL655:
 5596              	.L192:
 5597              	.LBE1683:
 5598              	.LBB1684:
  52:C:/Renesas/e2studio_2021_01_workspace_RZA2M_ANPR/ANPR_RZA2M_EBK/src/tensorflow_lite/tensorflow/lite/kernels/internal\strided_slice_logic.h ****     p->start_indices[i] = 0;
 5599              		.loc 5 52 0
 5600 1e3c 000059E3 		cmp	r9, #0
 5601 1e40 1500000A 		beq	.L193
 5602 1e44 0921A0E1 		lsl	r2, r9, #2
 5603 1e48 0010A0E3 		mov	r1, #0
 5604 1e4c F8008DE2 		add	r0, sp, #248
 5605 1e50 FEFFFFEB 		bl	memset
 5606              	.LVL656:
 5607 1e54 010059E3 		cmp	r9, #1
  54:C:/Renesas/e2studio_2021_01_workspace_RZA2M_ANPR/ANPR_RZA2M_EBK/src/tensorflow_lite/tensorflow/lite/kernels/internal\strided_slice_logic.h ****     p->strides[i] = 1;
 5608              		.loc 5 54 0
 5609 1e58 0130A0E3 		mov	r3, #1
 5610 1e5c 10318DE5 		str	r3, [sp, #272]
  55:C:/Renesas/e2studio_2021_01_workspace_RZA2M_ANPR/ANPR_RZA2M_EBK/src/tensorflow_lite/tensorflow/lite/kernels/internal\strided_slice_logic.h ****   }
 5611              		.loc 5 55 0
 5612 1e60 28318DE5 		str	r3, [sp, #296]
 5613              	.LVL657:
  52:C:/Renesas/e2studio_2021_01_workspace_RZA2M_ANPR/ANPR_RZA2M_EBK/src/tensorflow_lite/tensorflow/lite/kernels/internal\strided_slice_logic.h ****     p->start_indices[i] = 0;
 5614              		.loc 5 52 0
 5615 1e64 0C00000A 		beq	.L193
 5616 1e68 020059E3 		cmp	r9, #2
  54:C:/Renesas/e2studio_2021_01_workspace_RZA2M_ANPR/ANPR_RZA2M_EBK/src/tensorflow_lite/tensorflow/lite/kernels/internal\strided_slice_logic.h ****     p->strides[i] = 1;
 5617              		.loc 5 54 0
 5618 1e6c 14318DE5 		str	r3, [sp, #276]
  55:C:/Renesas/e2studio_2021_01_workspace_RZA2M_ANPR/ANPR_RZA2M_EBK/src/tensorflow_lite/tensorflow/lite/kernels/internal\strided_slice_logic.h ****   }
 5619              		.loc 5 55 0
 5620 1e70 2C318DE5 		str	r3, [sp, #300]
 5621              	.LVL658:
  52:C:/Renesas/e2studio_2021_01_workspace_RZA2M_ANPR/ANPR_RZA2M_EBK/src/tensorflow_lite/tensorflow/lite/kernels/internal\strided_slice_logic.h ****     p->start_indices[i] = 0;
 5622              		.loc 5 52 0
 5623 1e74 0800000A 		beq	.L193
 5624 1e78 030059E3 		cmp	r9, #3
  54:C:/Renesas/e2studio_2021_01_workspace_RZA2M_ANPR/ANPR_RZA2M_EBK/src/tensorflow_lite/tensorflow/lite/kernels/internal\strided_slice_logic.h ****     p->strides[i] = 1;
 5625              		.loc 5 54 0
 5626 1e7c 18318DE5 		str	r3, [sp, #280]
  55:C:/Renesas/e2studio_2021_01_workspace_RZA2M_ANPR/ANPR_RZA2M_EBK/src/tensorflow_lite/tensorflow/lite/kernels/internal\strided_slice_logic.h ****   }
 5627              		.loc 5 55 0
 5628 1e80 30318DE5 		str	r3, [sp, #304]
 5629              	.LVL659:
  52:C:/Renesas/e2studio_2021_01_workspace_RZA2M_ANPR/ANPR_RZA2M_EBK/src/tensorflow_lite/tensorflow/lite/kernels/internal\strided_slice_logic.h ****     p->start_indices[i] = 0;
 5630              		.loc 5 52 0
 5631 1e84 0400000A 		beq	.L193
 5632 1e88 040059E3 		cmp	r9, #4
  54:C:/Renesas/e2studio_2021_01_workspace_RZA2M_ANPR/ANPR_RZA2M_EBK/src/tensorflow_lite/tensorflow/lite/kernels/internal\strided_slice_logic.h ****     p->strides[i] = 1;
 5633              		.loc 5 54 0
 5634 1e8c 1C318DE5 		str	r3, [sp, #284]
  55:C:/Renesas/e2studio_2021_01_workspace_RZA2M_ANPR/ANPR_RZA2M_EBK/src/tensorflow_lite/tensorflow/lite/kernels/internal\strided_slice_logic.h ****   }
 5635              		.loc 5 55 0
 5636 1e90 34318DE5 		str	r3, [sp, #308]
 5637              	.LVL660:
  52:C:/Renesas/e2studio_2021_01_workspace_RZA2M_ANPR/ANPR_RZA2M_EBK/src/tensorflow_lite/tensorflow/lite/kernels/internal\strided_slice_logic.h ****     p->start_indices[i] = 0;
 5638              		.loc 5 52 0
  54:C:/Renesas/e2studio_2021_01_workspace_RZA2M_ANPR/ANPR_RZA2M_EBK/src/tensorflow_lite/tensorflow/lite/kernels/internal\strided_slice_logic.h ****     p->strides[i] = 1;
 5639              		.loc 5 54 0
 5640 1e94 20318D15 		strne	r3, [sp, #288]
  55:C:/Renesas/e2studio_2021_01_workspace_RZA2M_ANPR/ANPR_RZA2M_EBK/src/tensorflow_lite/tensorflow/lite/kernels/internal\strided_slice_logic.h ****   }
 5641              		.loc 5 55 0
 5642 1e98 38318D15 		strne	r3, [sp, #312]
 5643              	.LVL661:
 5644              	.L193:
 5645              	.LBE1684:
 5646              	.LBE1681:
 5647              	.LBE1680:
 5648              	.LBB1688:
 5649              	.LBB1689:
 5650              	.LBB1690:
 5651              	.LBB1691:
 215:C:/Renesas/e2studio_2021_01_workspace_RZA2M_ANPR/ANPR_RZA2M_EBK/src/tensorflow_lite/tensorflow/lite/kernels/internal\types.h ****     return size_ > kMaxSmallSize ? dims_pointer_[i] : dims_[i];
 5652              		.loc 4 215 0
 5653 1e9c C4209DE5 		ldr	r2, [sp, #196]
 5654              	.LBE1691:
 5655              	.LBE1690:
 5656              	.LBE1689:
 5657              	.LBE1688:
 5658              	.LBB1710:
 5659              	.LBB1685:
  64:C:/Renesas/e2studio_2021_01_workspace_RZA2M_ANPR/ANPR_RZA2M_EBK/src/tensorflow_lite/tensorflow/lite/kernels/internal\strided_slice_logic.h ****   p->end_mask |= (1 << pad_count) - 1;
 5660              		.loc 5 64 0
 5661 1ea0 0030E0E3 		mvn	r3, #0
 5662 1ea4 1339E0E1 		mvn	r3, r3, lsl r9
  59:C:/Renesas/e2studio_2021_01_workspace_RZA2M_ANPR/ANPR_RZA2M_EBK/src/tensorflow_lite/tensorflow/lite/kernels/internal\strided_slice_logic.h ****   p->ellipsis_mask <<= pad_count;
 5663              		.loc 5 59 0
 5664 1ea8 1449A0E1 		lsl	r4, r4, r9
 5665              	.LBE1685:
 5666              	.LBE1710:
 5667              	.LBB1711:
 5668              	.LBB1706:
 5669              	.LBB1695:
 5670              	.LBB1692:
 215:C:/Renesas/e2studio_2021_01_workspace_RZA2M_ANPR/ANPR_RZA2M_EBK/src/tensorflow_lite/tensorflow/lite/kernels/internal\types.h ****     return size_ > kMaxSmallSize ? dims_pointer_[i] : dims_[i];
 5671              		.loc 4 215 0
 5672 1eac 04208DE5 		str	r2, [sp, #4]
 5673 1eb0 000052E3 		cmp	r2, #0
 5674              	.LBE1692:
 5675              	.LBE1695:
 5676              	.LBE1706:
 5677              	.LBE1711:
 5678              	.LBB1712:
 5679              	.LBB1686:
  64:C:/Renesas/e2studio_2021_01_workspace_RZA2M_ANPR/ANPR_RZA2M_EBK/src/tensorflow_lite/tensorflow/lite/kernels/internal\strided_slice_logic.h ****   p->end_mask |= (1 << pad_count) - 1;
 5680              		.loc 5 64 0
 5681 1eb4 08209DE5 		ldr	r2, [sp, #8]
 5682 1eb8 7330BFE6 		sxth	r3, r3
  59:C:/Renesas/e2studio_2021_01_workspace_RZA2M_ANPR/ANPR_RZA2M_EBK/src/tensorflow_lite/tensorflow/lite/kernels/internal\strided_slice_logic.h ****   p->ellipsis_mask <<= pad_count;
 5683              		.loc 5 59 0
 5684 1ebc 7460BFE6 		sxth	r6, r4
 5685              	.LVL662:
  64:C:/Renesas/e2studio_2021_01_workspace_RZA2M_ANPR/ANPR_RZA2M_EBK/src/tensorflow_lite/tensorflow/lite/kernels/internal\strided_slice_logic.h ****   p->end_mask |= (1 << pad_count) - 1;
 5686              		.loc 5 64 0
 5687 1ec0 124983E1 		orr	r4, r3, r2, lsl r9
  65:C:/Renesas/e2studio_2021_01_workspace_RZA2M_ANPR/ANPR_RZA2M_EBK/src/tensorflow_lite/tensorflow/lite/kernels/internal\strided_slice_logic.h **** 
 5688              		.loc 5 65 0
 5689 1ec4 1B3983E1 		orr	r3, r3, fp, lsl r9
  64:C:/Renesas/e2studio_2021_01_workspace_RZA2M_ANPR/ANPR_RZA2M_EBK/src/tensorflow_lite/tensorflow/lite/kernels/internal\strided_slice_logic.h ****   p->end_mask |= (1 << pad_count) - 1;
 5690              		.loc 5 64 0
 5691 1ec8 7440BFE6 		sxth	r4, r4
  65:C:/Renesas/e2studio_2021_01_workspace_RZA2M_ANPR/ANPR_RZA2M_EBK/src/tensorflow_lite/tensorflow/lite/kernels/internal\strided_slice_logic.h **** 
 5692              		.loc 5 65 0
 5693 1ecc 7350BFE6 		sxth	r5, r3
 5694              	.LVL663:
 5695              	.LBE1686:
 5696              	.LBE1712:
 5697              	.LBB1713:
 5698              	.LBB1707:
 5699              	.LBB1696:
 5700              	.LBB1693:
 215:C:/Renesas/e2studio_2021_01_workspace_RZA2M_ANPR/ANPR_RZA2M_EBK/src/tensorflow_lite/tensorflow/lite/kernels/internal\types.h ****     return size_ > kMaxSmallSize ? dims_pointer_[i] : dims_[i];
 5701              		.loc 4 215 0
 5702 1ed0 7A0200DA 		ble	.L1146
 216:C:/Renesas/e2studio_2021_01_workspace_RZA2M_ANPR/ANPR_RZA2M_EBK/src/tensorflow_lite/tensorflow/lite/kernels/internal\types.h ****   }
 5703              		.loc 4 216 0
 5704 1ed4 04309DE5 		ldr	r3, [sp, #4]
 5705 1ed8 050053E3 		cmp	r3, #5
 5706 1edc C8309DC5 		ldrgt	r3, [sp, #200]
 5707 1ee0 C8C09DD5 		ldrle	ip, [sp, #200]
 5708              	.LVL664:
 5709 1ee4 00C093C5 		ldrgt	ip, [r3]
 5710              	.LBE1693:
 5711              	.LBE1696:
  81:C:/Renesas/e2studio_2021_01_workspace_RZA2M_ANPR/ANPR_RZA2M_EBK/src/tensorflow_lite/tensorflow/lite/kernels/internal\strided_slice_logic.h ****     return 0;
 5712              		.loc 5 81 0
 5713 1ee8 00005CE3 		cmp	ip, #0
 5714 1eec 7102000A 		beq	.L570
  88:C:/Renesas/e2studio_2021_01_workspace_RZA2M_ANPR/ANPR_RZA2M_EBK/src/tensorflow_lite/tensorflow/lite/kernels/internal\strided_slice_logic.h ****     if (strides[axis] > 0) {
 5715              		.loc 5 88 0
 5716 1ef0 010014E3 		tst	r4, #1
  89:C:/Renesas/e2studio_2021_01_workspace_RZA2M_ANPR/ANPR_RZA2M_EBK/src/tensorflow_lite/tensorflow/lite/kernels/internal\strided_slice_logic.h ****       // Forward iteration - use the first element. These values will get
 5717              		.loc 5 89 0
 5718 1ef4 28119DE5 		ldr	r1, [sp, #296]
  85:C:/Renesas/e2studio_2021_01_workspace_RZA2M_ANPR/ANPR_RZA2M_EBK/src/tensorflow_lite/tensorflow/lite/kernels/internal\strided_slice_logic.h **** 
 5719              		.loc 5 85 0
 5720 1ef8 F8209DE5 		ldr	r2, [sp, #248]
 5721              	.LVL665:
  88:C:/Renesas/e2studio_2021_01_workspace_RZA2M_ANPR/ANPR_RZA2M_EBK/src/tensorflow_lite/tensorflow/lite/kernels/internal\strided_slice_logic.h ****     if (strides[axis] > 0) {
 5722              		.loc 5 88 0
 5723 1efc 6A02000A 		beq	.L197
  89:C:/Renesas/e2studio_2021_01_workspace_RZA2M_ANPR/ANPR_RZA2M_EBK/src/tensorflow_lite/tensorflow/lite/kernels/internal\strided_slice_logic.h ****       // Forward iteration - use the first element. These values will get
 5724              		.loc 5 89 0
 5725 1f00 000051E3 		cmp	r1, #0
  93:C:/Renesas/e2studio_2021_01_workspace_RZA2M_ANPR/ANPR_RZA2M_EBK/src/tensorflow_lite/tensorflow/lite/kernels/internal\strided_slice_logic.h ****     } else {
 5726              		.loc 5 93 0
 5727 1f04 0221A0C3 		movgt	r2, #-2147483648
 5728              	.LVL666:
  89:C:/Renesas/e2studio_2021_01_workspace_RZA2M_ANPR/ANPR_RZA2M_EBK/src/tensorflow_lite/tensorflow/lite/kernels/internal\strided_slice_logic.h ****       // Forward iteration - use the first element. These values will get
 5729              		.loc 5 89 0
 5730 1f08 630200DA 		ble	.L1147
 5731              	.L198:
 5732              	.LVL667:
 102:C:/Renesas/e2studio_2021_01_workspace_RZA2M_ANPR/ANPR_RZA2M_EBK/src/tensorflow_lite/tensorflow/lite/kernels/internal\strided_slice_logic.h ****   }
 5733              		.loc 5 102 0
 5734 1f0c 0C2082E0 		add	r2, r2, ip
 5735              	.LVL668:
 5736              	.L201:
 106:C:/Renesas/e2studio_2021_01_workspace_RZA2M_ANPR/ANPR_RZA2M_EBK/src/tensorflow_lite/tensorflow/lite/kernels/internal\strided_slice_logic.h ****     // Forward iteration
 5737              		.loc 5 106 0
 5738 1f10 000051E3 		cmp	r1, #0
 5739 1f14 5A0200DA 		ble	.L202
 5740              	.LVL669:
 5741              	.LBB1697:
 5742              	.LBB1698:
  30:C:/Renesas/e2studio_2021_01_workspace_RZA2M_ANPR/ANPR_RZA2M_EBK/src/tensorflow_lite/tensorflow/lite/kernels/internal\strided_slice_logic.h ****   if (hi < v) return hi;
 5743              		.loc 5 30 0
 5744 1f18 00005CE3 		cmp	ip, #0
 5745 1f1c 560200BA 		blt	.L1148
  31:C:/Renesas/e2studio_2021_01_workspace_RZA2M_ANPR/ANPR_RZA2M_EBK/src/tensorflow_lite/tensorflow/lite/kernels/internal\strided_slice_logic.h ****   if (v < lo) return lo;
 5746              		.loc 5 31 0
 5747 1f20 0C0052E1 		cmp	r2, ip
 5748 1f24 0C30A0C1 		movgt	r3, ip
 5749 1f28 C23FC2D1 		bicle	r3, r2, r2, asr #31
 5750              	.LVL670:
 5751              	.L204:
 5752              	.LBE1698:
 5753              	.LBE1697:
 5754              	.LBE1707:
 5755              	.LBE1713:
 5756              	.LBB1714:
 5757              	.LBB1715:
 142:C:/Renesas/e2studio_2021_01_workspace_RZA2M_ANPR/ANPR_RZA2M_EBK/src/tensorflow_lite/tensorflow/lite/kernels/internal\strided_slice_logic.h ****     return start_for_axis + 1;
 5758              		.loc 5 142 0
 5759 1f2c 010016E3 		tst	r6, #1
 136:C:/Renesas/e2studio_2021_01_workspace_RZA2M_ANPR/ANPR_RZA2M_EBK/src/tensorflow_lite/tensorflow/lite/kernels/internal\strided_slice_logic.h **** 
 5760              		.loc 5 136 0
 5761 1f30 10219DE5 		ldr	r2, [sp, #272]
 5762              	.LVL671:
 142:C:/Renesas/e2studio_2021_01_workspace_RZA2M_ANPR/ANPR_RZA2M_EBK/src/tensorflow_lite/tensorflow/lite/kernels/internal\strided_slice_logic.h ****     return start_for_axis + 1;
 5763              		.loc 5 142 0
 5764 1f34 4E02001A 		bne	.L1149
 147:C:/Renesas/e2studio_2021_01_workspace_RZA2M_ANPR/ANPR_RZA2M_EBK/src/tensorflow_lite/tensorflow/lite/kernels/internal\strided_slice_logic.h ****     if (strides[axis] > 0) {
 5765              		.loc 5 147 0
 5766 1f38 010015E3 		tst	r5, #1
 5767 1f3c 4102000A 		beq	.L206
 148:C:/Renesas/e2studio_2021_01_workspace_RZA2M_ANPR/ANPR_RZA2M_EBK/src/tensorflow_lite/tensorflow/lite/kernels/internal\strided_slice_logic.h ****       // Forward iteration - use the last element. These values will get
 5768              		.loc 5 148 0
 5769 1f40 000051E3 		cmp	r1, #0
 154:C:/Renesas/e2studio_2021_01_workspace_RZA2M_ANPR/ANPR_RZA2M_EBK/src/tensorflow_lite/tensorflow/lite/kernels/internal\strided_slice_logic.h ****     }
 5770              		.loc 5 154 0
 5771 1f44 0221A0D3 		movle	r2, #-2147483648
 5772              	.LVL672:
 148:C:/Renesas/e2studio_2021_01_workspace_RZA2M_ANPR/ANPR_RZA2M_EBK/src/tensorflow_lite/tensorflow/lite/kernels/internal\strided_slice_logic.h ****       // Forward iteration - use the last element. These values will get
 5773              		.loc 5 148 0
 5774 1f48 400200DA 		ble	.L208
 151:C:/Renesas/e2studio_2021_01_workspace_RZA2M_ANPR/ANPR_RZA2M_EBK/src/tensorflow_lite/tensorflow/lite/kernels/internal\strided_slice_logic.h ****     } else {
 5775              		.loc 5 151 0
 5776 1f4c 0221E0E3 		mvn	r2, #-2147483648
 5777              	.LVL673:
 5778              	.L207:
 5779              	.LBB1716:
 5780              	.LBB1717:
  30:C:/Renesas/e2studio_2021_01_workspace_RZA2M_ANPR/ANPR_RZA2M_EBK/src/tensorflow_lite/tensorflow/lite/kernels/internal\strided_slice_logic.h ****   if (hi < v) return hi;
 5781              		.loc 5 30 0
 5782 1f50 00005CE3 		cmp	ip, #0
 5783 1f54 3A0200BA 		blt	.L1150
  31:C:/Renesas/e2studio_2021_01_workspace_RZA2M_ANPR/ANPR_RZA2M_EBK/src/tensorflow_lite/tensorflow/lite/kernels/internal\strided_slice_logic.h ****   if (v < lo) return lo;
 5784              		.loc 5 31 0
 5785 1f58 02005CE1 		cmp	ip, r2
 5786 1f5c C2CFC2A1 		bicge	ip, r2, r2, asr #31
 5787              	.LVL674:
 5788              	.L196:
 5789              	.LBE1717:
 5790              	.LBE1716:
 5791              	.LBE1715:
 5792              	.LBE1714:
 5793              	.LBB1726:
 5794              	.LBB1727:
 5795              	.LBB1728:
 5796              	.LBB1729:
 215:C:/Renesas/e2studio_2021_01_workspace_RZA2M_ANPR/ANPR_RZA2M_EBK/src/tensorflow_lite/tensorflow/lite/kernels/internal\types.h ****     return size_ > kMaxSmallSize ? dims_pointer_[i] : dims_[i];
 5797              		.loc 4 215 0
 5798 1f60 04209DE5 		ldr	r2, [sp, #4]
 5799 1f64 010052E3 		cmp	r2, #1
 5800 1f68 3402000A 		beq	.L1151
 216:C:/Renesas/e2studio_2021_01_workspace_RZA2M_ANPR/ANPR_RZA2M_EBK/src/tensorflow_lite/tensorflow/lite/kernels/internal\types.h ****   }
 5801              		.loc 4 216 0
 5802 1f6c 050052E3 		cmp	r2, #5
 5803 1f70 C8209DC5 		ldrgt	r2, [sp, #200]
 5804 1f74 CC209DD5 		ldrle	r2, [sp, #204]
 5805              	.LVL675:
 5806 1f78 042092C5 		ldrgt	r2, [r2, #4]
 5807              	.LBE1729:
 5808              	.LBE1728:
  81:C:/Renesas/e2studio_2021_01_workspace_RZA2M_ANPR/ANPR_RZA2M_EBK/src/tensorflow_lite/tensorflow/lite/kernels/internal\strided_slice_logic.h ****     return 0;
 5809              		.loc 5 81 0
 5810 1f7c 000052E3 		cmp	r2, #0
 5811 1f80 2B02000A 		beq	.L575
  88:C:/Renesas/e2studio_2021_01_workspace_RZA2M_ANPR/ANPR_RZA2M_EBK/src/tensorflow_lite/tensorflow/lite/kernels/internal\strided_slice_logic.h ****     if (strides[axis] > 0) {
 5812              		.loc 5 88 0
 5813 1f84 020014E3 		tst	r4, #2
  89:C:/Renesas/e2studio_2021_01_workspace_RZA2M_ANPR/ANPR_RZA2M_EBK/src/tensorflow_lite/tensorflow/lite/kernels/internal\strided_slice_logic.h ****       // Forward iteration - use the first element. These values will get
 5814              		.loc 5 89 0
 5815 1f88 2C019DE5 		ldr	r0, [sp, #300]
  85:C:/Renesas/e2studio_2021_01_workspace_RZA2M_ANPR/ANPR_RZA2M_EBK/src/tensorflow_lite/tensorflow/lite/kernels/internal\strided_slice_logic.h **** 
 5816              		.loc 5 85 0
 5817 1f8c FC109DE5 		ldr	r1, [sp, #252]
 5818              	.LVL676:
  88:C:/Renesas/e2studio_2021_01_workspace_RZA2M_ANPR/ANPR_RZA2M_EBK/src/tensorflow_lite/tensorflow/lite/kernels/internal\strided_slice_logic.h ****     if (strides[axis] > 0) {
 5819              		.loc 5 88 0
 5820 1f90 2402000A 		beq	.L217
  89:C:/Renesas/e2studio_2021_01_workspace_RZA2M_ANPR/ANPR_RZA2M_EBK/src/tensorflow_lite/tensorflow/lite/kernels/internal\strided_slice_logic.h ****       // Forward iteration - use the first element. These values will get
 5821              		.loc 5 89 0
 5822 1f94 000050E3 		cmp	r0, #0
  93:C:/Renesas/e2studio_2021_01_workspace_RZA2M_ANPR/ANPR_RZA2M_EBK/src/tensorflow_lite/tensorflow/lite/kernels/internal\strided_slice_logic.h ****     } else {
 5823              		.loc 5 93 0
 5824 1f98 0211A0C3 		movgt	r1, #-2147483648
 5825              	.LVL677:
  89:C:/Renesas/e2studio_2021_01_workspace_RZA2M_ANPR/ANPR_RZA2M_EBK/src/tensorflow_lite/tensorflow/lite/kernels/internal\strided_slice_logic.h ****       // Forward iteration - use the first element. These values will get
 5826              		.loc 5 89 0
 5827 1f9c 1A0200DA 		ble	.L1152
 5828              	.L218:
 5829              	.LVL678:
 102:C:/Renesas/e2studio_2021_01_workspace_RZA2M_ANPR/ANPR_RZA2M_EBK/src/tensorflow_lite/tensorflow/lite/kernels/internal\strided_slice_logic.h ****   }
 5830              		.loc 5 102 0
 5831 1fa0 021081E0 		add	r1, r1, r2
 5832              	.LVL679:
 5833              	.L221:
 106:C:/Renesas/e2studio_2021_01_workspace_RZA2M_ANPR/ANPR_RZA2M_EBK/src/tensorflow_lite/tensorflow/lite/kernels/internal\strided_slice_logic.h ****     // Forward iteration
 5834              		.loc 5 106 0
 5835 1fa4 000050E3 		cmp	r0, #0
 5836 1fa8 0F0200DA 		ble	.L222
 5837              	.LVL680:
 5838              	.LBB1731:
 5839              	.LBB1732:
  30:C:/Renesas/e2studio_2021_01_workspace_RZA2M_ANPR/ANPR_RZA2M_EBK/src/tensorflow_lite/tensorflow/lite/kernels/internal\strided_slice_logic.h ****   if (hi < v) return hi;
 5840              		.loc 5 30 0
 5841 1fac 000052E3 		cmp	r2, #0
 5842 1fb0 1A0200BA 		blt	.L1153
  31:C:/Renesas/e2studio_2021_01_workspace_RZA2M_ANPR/ANPR_RZA2M_EBK/src/tensorflow_lite/tensorflow/lite/kernels/internal\strided_slice_logic.h ****   if (v < lo) return lo;
 5843              		.loc 5 31 0
 5844 1fb4 020051E1 		cmp	r1, r2
 5845 1fb8 18208DC5 		strgt	r2, [sp, #24]
 5846 1fbc C11FC1D1 		bicle	r1, r1, r1, asr #31
 5847              	.LVL681:
 5848 1fc0 18108DD5 		strle	r1, [sp, #24]
 5849              	.LVL682:
 5850              	.L224:
 5851              	.LBE1732:
 5852              	.LBE1731:
 5853              	.LBE1727:
 5854              	.LBE1726:
 5855              	.LBB1747:
 5856              	.LBB1748:
 142:C:/Renesas/e2studio_2021_01_workspace_RZA2M_ANPR/ANPR_RZA2M_EBK/src/tensorflow_lite/tensorflow/lite/kernels/internal\strided_slice_logic.h ****     return start_for_axis + 1;
 5857              		.loc 5 142 0
 5858 1fc4 020016E3 		tst	r6, #2
 136:C:/Renesas/e2studio_2021_01_workspace_RZA2M_ANPR/ANPR_RZA2M_EBK/src/tensorflow_lite/tensorflow/lite/kernels/internal\strided_slice_logic.h **** 
 5859              		.loc 5 136 0
 5860 1fc8 14119DE5 		ldr	r1, [sp, #276]
 5861              	.LVL683:
 142:C:/Renesas/e2studio_2021_01_workspace_RZA2M_ANPR/ANPR_RZA2M_EBK/src/tensorflow_lite/tensorflow/lite/kernels/internal\strided_slice_logic.h ****     return start_for_axis + 1;
 5862              		.loc 5 142 0
 5863 1fcc 0202001A 		bne	.L1154
 147:C:/Renesas/e2studio_2021_01_workspace_RZA2M_ANPR/ANPR_RZA2M_EBK/src/tensorflow_lite/tensorflow/lite/kernels/internal\strided_slice_logic.h ****     if (strides[axis] > 0) {
 5864              		.loc 5 147 0
 5865 1fd0 020015E3 		tst	r5, #2
 5866 1fd4 F301000A 		beq	.L226
 148:C:/Renesas/e2studio_2021_01_workspace_RZA2M_ANPR/ANPR_RZA2M_EBK/src/tensorflow_lite/tensorflow/lite/kernels/internal\strided_slice_logic.h ****       // Forward iteration - use the last element. These values will get
 5867              		.loc 5 148 0
 5868 1fd8 000050E3 		cmp	r0, #0
 154:C:/Renesas/e2studio_2021_01_workspace_RZA2M_ANPR/ANPR_RZA2M_EBK/src/tensorflow_lite/tensorflow/lite/kernels/internal\strided_slice_logic.h ****     }
 5869              		.loc 5 154 0
 5870 1fdc 0211A0D3 		movle	r1, #-2147483648
 5871              	.LVL684:
 148:C:/Renesas/e2studio_2021_01_workspace_RZA2M_ANPR/ANPR_RZA2M_EBK/src/tensorflow_lite/tensorflow/lite/kernels/internal\strided_slice_logic.h ****       // Forward iteration - use the last element. These values will get
 5872              		.loc 5 148 0
 5873 1fe0 F20100DA 		ble	.L228
 151:C:/Renesas/e2studio_2021_01_workspace_RZA2M_ANPR/ANPR_RZA2M_EBK/src/tensorflow_lite/tensorflow/lite/kernels/internal\strided_slice_logic.h ****     } else {
 5874              		.loc 5 151 0
 5875 1fe4 0211E0E3 		mvn	r1, #-2147483648
 5876              	.LVL685:
 5877              	.L227:
 5878              	.LBB1749:
 5879              	.LBB1750:
  30:C:/Renesas/e2studio_2021_01_workspace_RZA2M_ANPR/ANPR_RZA2M_EBK/src/tensorflow_lite/tensorflow/lite/kernels/internal\strided_slice_logic.h ****   if (hi < v) return hi;
 5880              		.loc 5 30 0
 5881 1fe8 000052E3 		cmp	r2, #0
 5882 1fec EC0100BA 		blt	.L1155
  31:C:/Renesas/e2studio_2021_01_workspace_RZA2M_ANPR/ANPR_RZA2M_EBK/src/tensorflow_lite/tensorflow/lite/kernels/internal\strided_slice_logic.h ****   if (v < lo) return lo;
 5883              		.loc 5 31 0
 5884 1ff0 020051E1 		cmp	r1, r2
 5885 1ff4 30208DC5 		strgt	r2, [sp, #48]
 5886 1ff8 C11FC1D1 		bicle	r1, r1, r1, asr #31
 5887              	.LVL686:
 5888 1ffc 30108DD5 		strle	r1, [sp, #48]
 5889              	.LVL687:
 5890              	.L216:
 5891              	.LBE1750:
 5892              	.LBE1749:
 5893              	.LBE1748:
 5894              	.LBE1747:
 5895              	.LBB1762:
 5896              	.LBB1763:
 5897              	.LBB1764:
 5898              	.LBB1765:
 215:C:/Renesas/e2studio_2021_01_workspace_RZA2M_ANPR/ANPR_RZA2M_EBK/src/tensorflow_lite/tensorflow/lite/kernels/internal\types.h ****     return size_ > kMaxSmallSize ? dims_pointer_[i] : dims_[i];
 5899              		.loc 4 215 0
 5900 2000 04109DE5 		ldr	r1, [sp, #4]
 5901 2004 020051E3 		cmp	r1, #2
 5902 2008 E401000A 		beq	.L1156
 216:C:/Renesas/e2studio_2021_01_workspace_RZA2M_ANPR/ANPR_RZA2M_EBK/src/tensorflow_lite/tensorflow/lite/kernels/internal\types.h ****   }
 5903              		.loc 4 216 0
 5904 200c 050051E3 		cmp	r1, #5
 5905 2010 C8109DC5 		ldrgt	r1, [sp, #200]
 5906 2014 D0109DD5 		ldrle	r1, [sp, #208]
 5907              	.LVL688:
 5908 2018 081091C5 		ldrgt	r1, [r1, #8]
 5909              	.LBE1765:
 5910              	.LBE1764:
  81:C:/Renesas/e2studio_2021_01_workspace_RZA2M_ANPR/ANPR_RZA2M_EBK/src/tensorflow_lite/tensorflow/lite/kernels/internal\strided_slice_logic.h ****     return 0;
 5911              		.loc 5 81 0
 5912 201c 000051E3 		cmp	r1, #0
 5913 2020 DB01000A 		beq	.L580
  88:C:/Renesas/e2studio_2021_01_workspace_RZA2M_ANPR/ANPR_RZA2M_EBK/src/tensorflow_lite/tensorflow/lite/kernels/internal\strided_slice_logic.h ****     if (strides[axis] > 0) {
 5914              		.loc 5 88 0
 5915 2024 040014E3 		tst	r4, #4
  89:C:/Renesas/e2studio_2021_01_workspace_RZA2M_ANPR/ANPR_RZA2M_EBK/src/tensorflow_lite/tensorflow/lite/kernels/internal\strided_slice_logic.h ****       // Forward iteration - use the first element. These values will get
 5916              		.loc 5 89 0
 5917 2028 30E19DE5 		ldr	lr, [sp, #304]
  85:C:/Renesas/e2studio_2021_01_workspace_RZA2M_ANPR/ANPR_RZA2M_EBK/src/tensorflow_lite/tensorflow/lite/kernels/internal\strided_slice_logic.h **** 
 5918              		.loc 5 85 0
 5919 202c 00019DE5 		ldr	r0, [sp, #256]
 5920              	.LVL689:
  88:C:/Renesas/e2studio_2021_01_workspace_RZA2M_ANPR/ANPR_RZA2M_EBK/src/tensorflow_lite/tensorflow/lite/kernels/internal\strided_slice_logic.h ****     if (strides[axis] > 0) {
 5921              		.loc 5 88 0
 5922 2030 D401000A 		beq	.L237
  89:C:/Renesas/e2studio_2021_01_workspace_RZA2M_ANPR/ANPR_RZA2M_EBK/src/tensorflow_lite/tensorflow/lite/kernels/internal\strided_slice_logic.h ****       // Forward iteration - use the first element. These values will get
 5923              		.loc 5 89 0
 5924 2034 00005EE3 		cmp	lr, #0
  93:C:/Renesas/e2studio_2021_01_workspace_RZA2M_ANPR/ANPR_RZA2M_EBK/src/tensorflow_lite/tensorflow/lite/kernels/internal\strided_slice_logic.h ****     } else {
 5925              		.loc 5 93 0
 5926 2038 0201A0C3 		movgt	r0, #-2147483648
 5927              	.LVL690:
  89:C:/Renesas/e2studio_2021_01_workspace_RZA2M_ANPR/ANPR_RZA2M_EBK/src/tensorflow_lite/tensorflow/lite/kernels/internal\strided_slice_logic.h ****       // Forward iteration - use the first element. These values will get
 5928              		.loc 5 89 0
 5929 203c CC0100DA 		ble	.L1157
 5930              	.L238:
 5931              	.LVL691:
 102:C:/Renesas/e2studio_2021_01_workspace_RZA2M_ANPR/ANPR_RZA2M_EBK/src/tensorflow_lite/tensorflow/lite/kernels/internal\strided_slice_logic.h ****   }
 5932              		.loc 5 102 0
 5933 2040 010080E0 		add	r0, r0, r1
 5934              	.LVL692:
 5935              	.L241:
 106:C:/Renesas/e2studio_2021_01_workspace_RZA2M_ANPR/ANPR_RZA2M_EBK/src/tensorflow_lite/tensorflow/lite/kernels/internal\strided_slice_logic.h ****     // Forward iteration
 5936              		.loc 5 106 0
 5937 2044 00005EE3 		cmp	lr, #0
 5938 2048 C10100DA 		ble	.L242
 5939              	.LVL693:
 5940              	.LBB1767:
 5941              	.LBB1768:
  30:C:/Renesas/e2studio_2021_01_workspace_RZA2M_ANPR/ANPR_RZA2M_EBK/src/tensorflow_lite/tensorflow/lite/kernels/internal\strided_slice_logic.h ****   if (hi < v) return hi;
 5942              		.loc 5 30 0
 5943 204c 000051E3 		cmp	r1, #0
 5944 2050 BD0100BA 		blt	.L1158
  31:C:/Renesas/e2studio_2021_01_workspace_RZA2M_ANPR/ANPR_RZA2M_EBK/src/tensorflow_lite/tensorflow/lite/kernels/internal\strided_slice_logic.h ****   if (v < lo) return lo;
 5945              		.loc 5 31 0
 5946 2054 010050E1 		cmp	r0, r1
 5947 2058 14108DC5 		strgt	r1, [sp, #20]
 5948 205c C00FC0D1 		bicle	r0, r0, r0, asr #31
 5949              	.LVL694:
 5950 2060 14008DD5 		strle	r0, [sp, #20]
 5951              	.LVL695:
 5952              	.L244:
 5953              	.LBE1768:
 5954              	.LBE1767:
 5955              	.LBE1763:
 5956              	.LBE1762:
 5957              	.LBB1783:
 5958              	.LBB1784:
 142:C:/Renesas/e2studio_2021_01_workspace_RZA2M_ANPR/ANPR_RZA2M_EBK/src/tensorflow_lite/tensorflow/lite/kernels/internal\strided_slice_logic.h ****     return start_for_axis + 1;
 5959              		.loc 5 142 0
 5960 2064 040016E3 		tst	r6, #4
 136:C:/Renesas/e2studio_2021_01_workspace_RZA2M_ANPR/ANPR_RZA2M_EBK/src/tensorflow_lite/tensorflow/lite/kernels/internal\strided_slice_logic.h **** 
 5961              		.loc 5 136 0
 5962 2068 18019DE5 		ldr	r0, [sp, #280]
 5963              	.LVL696:
 142:C:/Renesas/e2studio_2021_01_workspace_RZA2M_ANPR/ANPR_RZA2M_EBK/src/tensorflow_lite/tensorflow/lite/kernels/internal\strided_slice_logic.h ****     return start_for_axis + 1;
 5964              		.loc 5 142 0
 5965 206c B201001A 		bne	.L1159
 147:C:/Renesas/e2studio_2021_01_workspace_RZA2M_ANPR/ANPR_RZA2M_EBK/src/tensorflow_lite/tensorflow/lite/kernels/internal\strided_slice_logic.h ****     if (strides[axis] > 0) {
 5966              		.loc 5 147 0
 5967 2070 040015E3 		tst	r5, #4
 5968 2074 A301000A 		beq	.L246
 148:C:/Renesas/e2studio_2021_01_workspace_RZA2M_ANPR/ANPR_RZA2M_EBK/src/tensorflow_lite/tensorflow/lite/kernels/internal\strided_slice_logic.h ****       // Forward iteration - use the last element. These values will get
 5969              		.loc 5 148 0
 5970 2078 00005EE3 		cmp	lr, #0
 154:C:/Renesas/e2studio_2021_01_workspace_RZA2M_ANPR/ANPR_RZA2M_EBK/src/tensorflow_lite/tensorflow/lite/kernels/internal\strided_slice_logic.h ****     }
 5971              		.loc 5 154 0
 5972 207c 0201A0D3 		movle	r0, #-2147483648
 5973              	.LVL697:
 148:C:/Renesas/e2studio_2021_01_workspace_RZA2M_ANPR/ANPR_RZA2M_EBK/src/tensorflow_lite/tensorflow/lite/kernels/internal\strided_slice_logic.h ****       // Forward iteration - use the last element. These values will get
 5974              		.loc 5 148 0
 5975 2080 A20100DA 		ble	.L248
 151:C:/Renesas/e2studio_2021_01_workspace_RZA2M_ANPR/ANPR_RZA2M_EBK/src/tensorflow_lite/tensorflow/lite/kernels/internal\strided_slice_logic.h ****     } else {
 5976              		.loc 5 151 0
 5977 2084 0201E0E3 		mvn	r0, #-2147483648
 5978              	.LVL698:
 5979              	.L247:
 5980              	.LBB1785:
 5981              	.LBB1786:
  30:C:/Renesas/e2studio_2021_01_workspace_RZA2M_ANPR/ANPR_RZA2M_EBK/src/tensorflow_lite/tensorflow/lite/kernels/internal\strided_slice_logic.h ****   if (hi < v) return hi;
 5982              		.loc 5 30 0
 5983 2088 000051E3 		cmp	r1, #0
 5984 208c 9C0100BA 		blt	.L1160
  31:C:/Renesas/e2studio_2021_01_workspace_RZA2M_ANPR/ANPR_RZA2M_EBK/src/tensorflow_lite/tensorflow/lite/kernels/internal\strided_slice_logic.h ****   if (v < lo) return lo;
 5985              		.loc 5 31 0
 5986 2090 000051E1 		cmp	r1, r0
 5987 2094 34108DB5 		strlt	r1, [sp, #52]
 5988 2098 C01FC0A1 		bicge	r1, r0, r0, asr #31
 5989 209c 34108DA5 		strge	r1, [sp, #52]
 5990              	.LVL699:
 5991              	.L236:
 5992              	.LBE1786:
 5993              	.LBE1785:
 5994              	.LBE1784:
 5995              	.LBE1783:
 5996              	.LBB1798:
 5997              	.LBB1799:
 5998              	.LBB1800:
 5999              	.LBB1801:
 215:C:/Renesas/e2studio_2021_01_workspace_RZA2M_ANPR/ANPR_RZA2M_EBK/src/tensorflow_lite/tensorflow/lite/kernels/internal\types.h ****     return size_ > kMaxSmallSize ? dims_pointer_[i] : dims_[i];
 6000              		.loc 4 215 0
 6001 20a0 04109DE5 		ldr	r1, [sp, #4]
 6002 20a4 030051E3 		cmp	r1, #3
 6003 20a8 9401000A 		beq	.L1161
 216:C:/Renesas/e2studio_2021_01_workspace_RZA2M_ANPR/ANPR_RZA2M_EBK/src/tensorflow_lite/tensorflow/lite/kernels/internal\types.h ****   }
 6004              		.loc 4 216 0
 6005 20ac 050051E3 		cmp	r1, #5
 6006 20b0 C8109DC5 		ldrgt	r1, [sp, #200]
 6007 20b4 D4109DD5 		ldrle	r1, [sp, #212]
 6008              	.LVL700:
 6009 20b8 0C1091C5 		ldrgt	r1, [r1, #12]
 6010              	.LBE1801:
 6011              	.LBE1800:
  81:C:/Renesas/e2studio_2021_01_workspace_RZA2M_ANPR/ANPR_RZA2M_EBK/src/tensorflow_lite/tensorflow/lite/kernels/internal\strided_slice_logic.h ****     return 0;
 6012              		.loc 5 81 0
 6013 20bc 000051E3 		cmp	r1, #0
 6014 20c0 8B01000A 		beq	.L585
  88:C:/Renesas/e2studio_2021_01_workspace_RZA2M_ANPR/ANPR_RZA2M_EBK/src/tensorflow_lite/tensorflow/lite/kernels/internal\strided_slice_logic.h ****     if (strides[axis] > 0) {
 6015              		.loc 5 88 0
 6016 20c4 080014E3 		tst	r4, #8
  89:C:/Renesas/e2studio_2021_01_workspace_RZA2M_ANPR/ANPR_RZA2M_EBK/src/tensorflow_lite/tensorflow/lite/kernels/internal\strided_slice_logic.h ****       // Forward iteration - use the first element. These values will get
 6017              		.loc 5 89 0
 6018 20c8 34E19DE5 		ldr	lr, [sp, #308]
  85:C:/Renesas/e2studio_2021_01_workspace_RZA2M_ANPR/ANPR_RZA2M_EBK/src/tensorflow_lite/tensorflow/lite/kernels/internal\strided_slice_logic.h **** 
 6019              		.loc 5 85 0
 6020 20cc 04019DE5 		ldr	r0, [sp, #260]
 6021              	.LVL701:
  88:C:/Renesas/e2studio_2021_01_workspace_RZA2M_ANPR/ANPR_RZA2M_EBK/src/tensorflow_lite/tensorflow/lite/kernels/internal\strided_slice_logic.h ****     if (strides[axis] > 0) {
 6022              		.loc 5 88 0
 6023 20d0 8401000A 		beq	.L257
  89:C:/Renesas/e2studio_2021_01_workspace_RZA2M_ANPR/ANPR_RZA2M_EBK/src/tensorflow_lite/tensorflow/lite/kernels/internal\strided_slice_logic.h ****       // Forward iteration - use the first element. These values will get
 6024              		.loc 5 89 0
 6025 20d4 00005EE3 		cmp	lr, #0
  93:C:/Renesas/e2studio_2021_01_workspace_RZA2M_ANPR/ANPR_RZA2M_EBK/src/tensorflow_lite/tensorflow/lite/kernels/internal\strided_slice_logic.h ****     } else {
 6026              		.loc 5 93 0
 6027 20d8 0201A0C3 		movgt	r0, #-2147483648
 6028              	.LVL702:
  89:C:/Renesas/e2studio_2021_01_workspace_RZA2M_ANPR/ANPR_RZA2M_EBK/src/tensorflow_lite/tensorflow/lite/kernels/internal\strided_slice_logic.h ****       // Forward iteration - use the first element. These values will get
 6029              		.loc 5 89 0
 6030 20dc 7C0100DA 		ble	.L1162
 6031              	.L258:
 6032              	.LVL703:
 102:C:/Renesas/e2studio_2021_01_workspace_RZA2M_ANPR/ANPR_RZA2M_EBK/src/tensorflow_lite/tensorflow/lite/kernels/internal\strided_slice_logic.h ****   }
 6033              		.loc 5 102 0
 6034 20e0 010080E0 		add	r0, r0, r1
 6035              	.LVL704:
 6036              	.L261:
 106:C:/Renesas/e2studio_2021_01_workspace_RZA2M_ANPR/ANPR_RZA2M_EBK/src/tensorflow_lite/tensorflow/lite/kernels/internal\strided_slice_logic.h ****     // Forward iteration
 6037              		.loc 5 106 0
 6038 20e4 00005EE3 		cmp	lr, #0
 6039 20e8 710100DA 		ble	.L262
 6040              	.LVL705:
 6041              	.LBB1803:
 6042              	.LBB1804:
  30:C:/Renesas/e2studio_2021_01_workspace_RZA2M_ANPR/ANPR_RZA2M_EBK/src/tensorflow_lite/tensorflow/lite/kernels/internal\strided_slice_logic.h ****   if (hi < v) return hi;
 6043              		.loc 5 30 0
 6044 20ec 000051E3 		cmp	r1, #0
 6045 20f0 6E0100BA 		blt	.L1163
  31:C:/Renesas/e2studio_2021_01_workspace_RZA2M_ANPR/ANPR_RZA2M_EBK/src/tensorflow_lite/tensorflow/lite/kernels/internal\strided_slice_logic.h ****   if (v < lo) return lo;
 6046              		.loc 5 31 0
 6047 20f4 010050E1 		cmp	r0, r1
 6048 20f8 08108DC5 		strgt	r1, [sp, #8]
 6049 20fc C00FC0D1 		bicle	r0, r0, r0, asr #31
 6050              	.LVL706:
 6051 2100 08008DD5 		strle	r0, [sp, #8]
 6052              	.LVL707:
 6053              	.L264:
 6054              	.LBE1804:
 6055              	.LBE1803:
 6056              	.LBE1799:
 6057              	.LBE1798:
 6058              	.LBB1818:
 6059              	.LBB1819:
 142:C:/Renesas/e2studio_2021_01_workspace_RZA2M_ANPR/ANPR_RZA2M_EBK/src/tensorflow_lite/tensorflow/lite/kernels/internal\strided_slice_logic.h ****     return start_for_axis + 1;
 6060              		.loc 5 142 0
 6061 2104 080016E3 		tst	r6, #8
 136:C:/Renesas/e2studio_2021_01_workspace_RZA2M_ANPR/ANPR_RZA2M_EBK/src/tensorflow_lite/tensorflow/lite/kernels/internal\strided_slice_logic.h **** 
 6062              		.loc 5 136 0
 6063 2108 1C019DE5 		ldr	r0, [sp, #284]
 6064              	.LVL708:
 142:C:/Renesas/e2studio_2021_01_workspace_RZA2M_ANPR/ANPR_RZA2M_EBK/src/tensorflow_lite/tensorflow/lite/kernels/internal\strided_slice_logic.h ****     return start_for_axis + 1;
 6065              		.loc 5 142 0
 6066 210c 6301001A 		bne	.L1164
 147:C:/Renesas/e2studio_2021_01_workspace_RZA2M_ANPR/ANPR_RZA2M_EBK/src/tensorflow_lite/tensorflow/lite/kernels/internal\strided_slice_logic.h ****     if (strides[axis] > 0) {
 6067              		.loc 5 147 0
 6068 2110 080015E3 		tst	r5, #8
 6069 2114 5201000A 		beq	.L266
 148:C:/Renesas/e2studio_2021_01_workspace_RZA2M_ANPR/ANPR_RZA2M_EBK/src/tensorflow_lite/tensorflow/lite/kernels/internal\strided_slice_logic.h ****       // Forward iteration - use the last element. These values will get
 6070              		.loc 5 148 0
 6071 2118 00005EE3 		cmp	lr, #0
 154:C:/Renesas/e2studio_2021_01_workspace_RZA2M_ANPR/ANPR_RZA2M_EBK/src/tensorflow_lite/tensorflow/lite/kernels/internal\strided_slice_logic.h ****     }
 6072              		.loc 5 154 0
 6073 211c 0201A0D3 		movle	r0, #-2147483648
 6074              	.LVL709:
 148:C:/Renesas/e2studio_2021_01_workspace_RZA2M_ANPR/ANPR_RZA2M_EBK/src/tensorflow_lite/tensorflow/lite/kernels/internal\strided_slice_logic.h ****       // Forward iteration - use the last element. These values will get
 6075              		.loc 5 148 0
 6076 2120 510100DA 		ble	.L268
 151:C:/Renesas/e2studio_2021_01_workspace_RZA2M_ANPR/ANPR_RZA2M_EBK/src/tensorflow_lite/tensorflow/lite/kernels/internal\strided_slice_logic.h ****     } else {
 6077              		.loc 5 151 0
 6078 2124 0201E0E3 		mvn	r0, #-2147483648
 6079              	.LVL710:
 6080              	.L267:
 6081              	.LBB1820:
 6082              	.LBB1821:
  30:C:/Renesas/e2studio_2021_01_workspace_RZA2M_ANPR/ANPR_RZA2M_EBK/src/tensorflow_lite/tensorflow/lite/kernels/internal\strided_slice_logic.h ****   if (hi < v) return hi;
 6083              		.loc 5 30 0
 6084 2128 000051E3 		cmp	r1, #0
 6085 212c 590100BA 		blt	.L1165
  31:C:/Renesas/e2studio_2021_01_workspace_RZA2M_ANPR/ANPR_RZA2M_EBK/src/tensorflow_lite/tensorflow/lite/kernels/internal\strided_slice_logic.h ****   if (v < lo) return lo;
 6086              		.loc 5 31 0
 6087 2130 000051E1 		cmp	r1, r0
 6088 2134 0C108DB5 		strlt	r1, [sp, #12]
 6089 2138 C01FC0A1 		bicge	r1, r0, r0, asr #31
 6090 213c 0C108DA5 		strge	r1, [sp, #12]
 6091              	.LVL711:
 6092              	.L256:
 6093              	.LBE1821:
 6094              	.LBE1820:
 6095              	.LBE1819:
 6096              	.LBE1818:
 6097              	.LBB1832:
 6098              	.LBB1833:
 6099              	.LBB1834:
 6100              	.LBB1835:
 215:C:/Renesas/e2studio_2021_01_workspace_RZA2M_ANPR/ANPR_RZA2M_EBK/src/tensorflow_lite/tensorflow/lite/kernels/internal\types.h ****     return size_ > kMaxSmallSize ? dims_pointer_[i] : dims_[i];
 6101              		.loc 4 215 0
 6102 2140 04109DE5 		ldr	r1, [sp, #4]
 6103 2144 040051E3 		cmp	r1, #4
 6104 2148 4401000A 		beq	.L1166
 216:C:/Renesas/e2studio_2021_01_workspace_RZA2M_ANPR/ANPR_RZA2M_EBK/src/tensorflow_lite/tensorflow/lite/kernels/internal\types.h ****   }
 6105              		.loc 4 216 0
 6106 214c 050051E3 		cmp	r1, #5
 6107 2150 3901001A 		bne	.L1167
 6108 2154 D8109DE5 		ldr	r1, [sp, #216]
 6109              	.LBE1835:
 6110              	.LBE1834:
  81:C:/Renesas/e2studio_2021_01_workspace_RZA2M_ANPR/ANPR_RZA2M_EBK/src/tensorflow_lite/tensorflow/lite/kernels/internal\strided_slice_logic.h ****     return 0;
 6111              		.loc 5 81 0
 6112 2158 000051E3 		cmp	r1, #0
 6113              	.LVL712:
 6114              	.LBB1839:
 6115              	.LBB1836:
 216:C:/Renesas/e2studio_2021_01_workspace_RZA2M_ANPR/ANPR_RZA2M_EBK/src/tensorflow_lite/tensorflow/lite/kernels/internal\types.h ****   }
 6116              		.loc 4 216 0
 6117 215c 20108DE5 		str	r1, [sp, #32]
 6118              	.LBE1836:
 6119              	.LBE1839:
  81:C:/Renesas/e2studio_2021_01_workspace_RZA2M_ANPR/ANPR_RZA2M_EBK/src/tensorflow_lite/tensorflow/lite/kernels/internal\strided_slice_logic.h ****     return 0;
 6120              		.loc 5 81 0
 6121 2160 3101000A 		beq	.L591
 6122              	.L276:
  88:C:/Renesas/e2studio_2021_01_workspace_RZA2M_ANPR/ANPR_RZA2M_EBK/src/tensorflow_lite/tensorflow/lite/kernels/internal\strided_slice_logic.h ****     if (strides[axis] > 0) {
 6123              		.loc 5 88 0
 6124 2164 100014E3 		tst	r4, #16
  89:C:/Renesas/e2studio_2021_01_workspace_RZA2M_ANPR/ANPR_RZA2M_EBK/src/tensorflow_lite/tensorflow/lite/kernels/internal\strided_slice_logic.h ****       // Forward iteration - use the first element. These values will get
 6125              		.loc 5 89 0
 6126 2168 38919DE5 		ldr	r9, [sp, #312]
  85:C:/Renesas/e2studio_2021_01_workspace_RZA2M_ANPR/ANPR_RZA2M_EBK/src/tensorflow_lite/tensorflow/lite/kernels/internal\strided_slice_logic.h **** 
 6127              		.loc 5 85 0
 6128 216c 08019DE5 		ldr	r0, [sp, #264]
 6129              	.LVL713:
  88:C:/Renesas/e2studio_2021_01_workspace_RZA2M_ANPR/ANPR_RZA2M_EBK/src/tensorflow_lite/tensorflow/lite/kernels/internal\strided_slice_logic.h ****     if (strides[axis] > 0) {
 6130              		.loc 5 88 0
 6131 2170 2A01000A 		beq	.L278
  89:C:/Renesas/e2studio_2021_01_workspace_RZA2M_ANPR/ANPR_RZA2M_EBK/src/tensorflow_lite/tensorflow/lite/kernels/internal\strided_slice_logic.h ****       // Forward iteration - use the first element. These values will get
 6132              		.loc 5 89 0
 6133 2174 000059E3 		cmp	r9, #0
  93:C:/Renesas/e2studio_2021_01_workspace_RZA2M_ANPR/ANPR_RZA2M_EBK/src/tensorflow_lite/tensorflow/lite/kernels/internal\strided_slice_logic.h ****     } else {
 6134              		.loc 5 93 0
 6135 2178 0201A0C3 		movgt	r0, #-2147483648
 6136              	.LVL714:
  89:C:/Renesas/e2studio_2021_01_workspace_RZA2M_ANPR/ANPR_RZA2M_EBK/src/tensorflow_lite/tensorflow/lite/kernels/internal\strided_slice_logic.h ****       // Forward iteration - use the first element. These values will get
 6137              		.loc 5 89 0
 6138 217c 230100DA 		ble	.L1168
 6139              	.L279:
 6140              	.LVL715:
 102:C:/Renesas/e2studio_2021_01_workspace_RZA2M_ANPR/ANPR_RZA2M_EBK/src/tensorflow_lite/tensorflow/lite/kernels/internal\strided_slice_logic.h ****   }
 6141              		.loc 5 102 0
 6142 2180 010080E0 		add	r0, r0, r1
 6143              	.LVL716:
 6144              	.L282:
 106:C:/Renesas/e2studio_2021_01_workspace_RZA2M_ANPR/ANPR_RZA2M_EBK/src/tensorflow_lite/tensorflow/lite/kernels/internal\strided_slice_logic.h ****     // Forward iteration
 6145              		.loc 5 106 0
 6146 2184 000059E3 		cmp	r9, #0
 6147 2188 170100DA 		ble	.L283
 6148              	.LVL717:
 6149              	.LBB1840:
 6150              	.LBB1841:
  30:C:/Renesas/e2studio_2021_01_workspace_RZA2M_ANPR/ANPR_RZA2M_EBK/src/tensorflow_lite/tensorflow/lite/kernels/internal\strided_slice_logic.h ****   if (hi < v) return hi;
 6151              		.loc 5 30 0
 6152 218c 000051E3 		cmp	r1, #0
 6153 2190 140100BA 		blt	.L1169
  31:C:/Renesas/e2studio_2021_01_workspace_RZA2M_ANPR/ANPR_RZA2M_EBK/src/tensorflow_lite/tensorflow/lite/kernels/internal\strided_slice_logic.h ****   if (v < lo) return lo;
 6154              		.loc 5 31 0
 6155 2194 010050E1 		cmp	r0, r1
 6156 2198 01B0A0C1 		movgt	fp, r1
 6157 219c C0BFC0D1 		bicle	fp, r0, r0, asr #31
 6158              	.LVL718:
 6159              	.L285:
 6160              	.LBE1841:
 6161              	.LBE1840:
 6162              	.LBE1833:
 6163              	.LBE1832:
 6164              	.LBB1854:
 6165              	.LBB1855:
 142:C:/Renesas/e2studio_2021_01_workspace_RZA2M_ANPR/ANPR_RZA2M_EBK/src/tensorflow_lite/tensorflow/lite/kernels/internal\strided_slice_logic.h ****     return start_for_axis + 1;
 6166              		.loc 5 142 0
 6167 21a0 100016E3 		tst	r6, #16
 136:C:/Renesas/e2studio_2021_01_workspace_RZA2M_ANPR/ANPR_RZA2M_EBK/src/tensorflow_lite/tensorflow/lite/kernels/internal\strided_slice_logic.h **** 
 6168              		.loc 5 136 0
 6169 21a4 20019DE5 		ldr	r0, [sp, #288]
 6170              	.LVL719:
 142:C:/Renesas/e2studio_2021_01_workspace_RZA2M_ANPR/ANPR_RZA2M_EBK/src/tensorflow_lite/tensorflow/lite/kernels/internal\strided_slice_logic.h ****     return start_for_axis + 1;
 6171              		.loc 5 142 0
 6172 21a8 1501001A 		bne	.L1170
 147:C:/Renesas/e2studio_2021_01_workspace_RZA2M_ANPR/ANPR_RZA2M_EBK/src/tensorflow_lite/tensorflow/lite/kernels/internal\strided_slice_logic.h ****     if (strides[axis] > 0) {
 6173              		.loc 5 147 0
 6174 21ac 100015E3 		tst	r5, #16
 6175 21b0 0001000A 		beq	.L288
 148:C:/Renesas/e2studio_2021_01_workspace_RZA2M_ANPR/ANPR_RZA2M_EBK/src/tensorflow_lite/tensorflow/lite/kernels/internal\strided_slice_logic.h ****       // Forward iteration - use the last element. These values will get
 6176              		.loc 5 148 0
 6177 21b4 000059E3 		cmp	r9, #0
 154:C:/Renesas/e2studio_2021_01_workspace_RZA2M_ANPR/ANPR_RZA2M_EBK/src/tensorflow_lite/tensorflow/lite/kernels/internal\strided_slice_logic.h ****     }
 6178              		.loc 5 154 0
 6179 21b8 0201A0D3 		movle	r0, #-2147483648
 6180              	.LVL720:
 148:C:/Renesas/e2studio_2021_01_workspace_RZA2M_ANPR/ANPR_RZA2M_EBK/src/tensorflow_lite/tensorflow/lite/kernels/internal\strided_slice_logic.h ****       // Forward iteration - use the last element. These values will get
 6181              		.loc 5 148 0
 6182 21bc FF0000DA 		ble	.L290
 151:C:/Renesas/e2studio_2021_01_workspace_RZA2M_ANPR/ANPR_RZA2M_EBK/src/tensorflow_lite/tensorflow/lite/kernels/internal\strided_slice_logic.h ****     } else {
 6183              		.loc 5 151 0
 6184 21c0 0201E0E3 		mvn	r0, #-2147483648
 6185              	.LVL721:
 6186              	.L289:
 6187              	.LBB1856:
 6188              	.LBB1857:
  30:C:/Renesas/e2studio_2021_01_workspace_RZA2M_ANPR/ANPR_RZA2M_EBK/src/tensorflow_lite/tensorflow/lite/kernels/internal\strided_slice_logic.h ****   if (hi < v) return hi;
 6189              		.loc 5 30 0
 6190 21c4 000051E3 		cmp	r1, #0
 6191 21c8 F90000BA 		blt	.L1171
  31:C:/Renesas/e2studio_2021_01_workspace_RZA2M_ANPR/ANPR_RZA2M_EBK/src/tensorflow_lite/tensorflow/lite/kernels/internal\strided_slice_logic.h ****   if (v < lo) return lo;
 6192              		.loc 5 31 0
 6193 21cc 010050E1 		cmp	r0, r1
 6194 21d0 0160A0C1 		movgt	r6, r1
 6195              	.LVL722:
 6196 21d4 C06FC0D1 		bicle	r6, r0, r0, asr #31
 6197              	.LVL723:
 6198              	.L287:
 6199              	.LBE1857:
 6200              	.LBE1856:
 6201              	.LBE1855:
 6202              	.LBE1854:
 6203              	.LBB1868:
 6204              	.LBB1869:
 6205              	.LBB1870:
 216:C:/Renesas/e2studio_2021_01_workspace_RZA2M_ANPR/ANPR_RZA2M_EBK/src/tensorflow_lite/tensorflow/lite/kernels/internal\types.h ****   }
 6206              		.loc 4 216 0
 6207 21d8 04109DE5 		ldr	r1, [sp, #4]
 6208 21dc 050051E3 		cmp	r1, #5
 6209 21e0 E800001A 		bne	.L918
 6210 21e4 D8109DE5 		ldr	r1, [sp, #216]
 6211 21e8 20108DE5 		str	r1, [sp, #32]
 6212              	.LVL724:
 6213              	.L277:
 6214              	.LBE1870:
 6215              	.LBE1869:
  65:C:/Renesas/e2studio_2021_01_workspace_RZA2M_ANPR/ANPR_RZA2M_EBK/src/tensorflow_lite/tensorflow/lite/kernels/internal/reference\strided_slice.h ****            end_0 = stop_0 * input_shape.Dims(1),
 6216              		.loc 3 65 0
 6217 21ec 930203E0 		mul	r3, r3, r2
 6218 21f0 24308DE5 		str	r3, [sp, #36]
 6219              	.LVL725:
  67:C:/Renesas/e2studio_2021_01_workspace_RZA2M_ANPR/ANPR_RZA2M_EBK/src/tensorflow_lite/tensorflow/lite/kernels/internal/reference\strided_slice.h ****        !LoopCondition(offset_0, end_0, params_copy.strides[0]);
 6220              		.loc 3 67 0
 6221 21f4 28319DE5 		ldr	r3, [sp, #296]
 6222              	.LVL726:
 6223 21f8 50308DE5 		str	r3, [sp, #80]
 6224 21fc C8309DE5 		ldr	r3, [sp, #200]
 6225 2200 3C308DE5 		str	r3, [sp, #60]
  66:C:/Renesas/e2studio_2021_01_workspace_RZA2M_ANPR/ANPR_RZA2M_EBK/src/tensorflow_lite/tensorflow/lite/kernels/internal/reference\strided_slice.h ****            step_0 = params_copy.strides[0] * input_shape.Dims(1);
 6226              		.loc 3 66 0
 6227 2204 920C03E0 		mul	r3, r2, ip
 6228 2208 4C308DE5 		str	r3, [sp, #76]
 6229              	.LVL727:
 6230              	.L295:
 6231              	.LBB1871:
 6232              	.LBB1872:
 6233              	.LBB1873:
 216:C:/Renesas/e2studio_2021_01_workspace_RZA2M_ANPR/ANPR_RZA2M_EBK/src/tensorflow_lite/tensorflow/lite/kernels/internal\types.h ****   }
 6234              		.loc 4 216 0
 6235 220c D0309DE5 		ldr	r3, [sp, #208]
 6236              	.LVL728:
 6237 2210 24009DE5 		ldr	r0, [sp, #36]
 6238 2214 18C09DE5 		ldr	ip, [sp, #24]
 6239 2218 0310A0E1 		mov	r1, r3
 6240 221c 6C308DE5 		str	r3, [sp, #108]
 6241 2220 30E09DE5 		ldr	lr, [sp, #48]
 6242 2224 00308CE0 		add	r3, ip, r0
 6243              	.LBE1873:
 6244              	.LBE1872:
 6245              	.LBE1871:
  67:C:/Renesas/e2studio_2021_01_workspace_RZA2M_ANPR/ANPR_RZA2M_EBK/src/tensorflow_lite/tensorflow/lite/kernels/internal/reference\strided_slice.h ****        !LoopCondition(offset_0, end_0, params_copy.strides[0]);
 6246              		.loc 3 67 0
 6247 2228 50C09DE5 		ldr	ip, [sp, #80]
 6248              	.LBB1934:
 6249              	.LBB1877:
 6250              	.LBB1878:
  82:C:/Renesas/e2studio_2021_01_workspace_RZA2M_ANPR/ANPR_RZA2M_EBK/src/tensorflow_lite/tensorflow/lite/kernels/internal/reference\strided_slice.h ****              !LoopCondition(offset_3, end_3, params_copy.strides[3]);
 6251              		.loc 3 82 0
 6252 222c 34819DE5 		ldr	r8, [sp, #308]
 6253              	.LBE1878:
 6254              	.LBE1877:
 6255              	.LBE1934:
  67:C:/Renesas/e2studio_2021_01_workspace_RZA2M_ANPR/ANPR_RZA2M_EBK/src/tensorflow_lite/tensorflow/lite/kernels/internal/reference\strided_slice.h ****        !LoopCondition(offset_0, end_0, params_copy.strides[0]);
 6256              		.loc 3 67 0
 6257 2230 9C0202E0 		mul	r2, ip, r2
 6258 2234 02C0A0E1 		mov	ip, r2
 6259 2238 64208DE5 		str	r2, [sp, #100]
 6260              	.LVL729:
 6261 223c 00208EE0 		add	r2, lr, r0
 6262              	.LVL730:
 6263              	.LBB1935:
  72:C:/Renesas/e2studio_2021_01_workspace_RZA2M_ANPR/ANPR_RZA2M_EBK/src/tensorflow_lite/tensorflow/lite/kernels/internal/reference\strided_slice.h ****          !LoopCondition(offset_1, end_1, params_copy.strides[1]);
 6264              		.loc 3 72 0
 6265 2240 2C019DE5 		ldr	r0, [sp, #300]
 6266 2244 032042E0 		sub	r2, r2, r3
 6267 2248 910303E0 		mul	r3, r1, r3
 6268 224c 910202E0 		mul	r2, r1, r2
 6269 2250 5C008DE5 		str	r0, [sp, #92]
 6270              	.LBB1921:
 6271              	.LBB1903:
 6272              	.LBB1904:
 216:C:/Renesas/e2studio_2021_01_workspace_RZA2M_ANPR/ANPR_RZA2M_EBK/src/tensorflow_lite/tensorflow/lite/kernels/internal\types.h ****   }
 6273              		.loc 4 216 0
 6274 2254 D4009DE5 		ldr	r0, [sp, #212]
 6275 2258 48308DE5 		str	r3, [sp, #72]
 6276 225c 910C03E0 		mul	r3, r1, ip
 6277 2260 0710A0E1 		mov	r1, r7
 6278 2264 0A70A0E1 		mov	r7, r10
 6279              	.LVL731:
 6280 2268 78208DE5 		str	r2, [sp, #120]
 6281 226c 06A0A0E1 		mov	r10, r6
 6282              	.LVL732:
 6283              	.LBE1904:
 6284              	.LBE1903:
  77:C:/Renesas/e2studio_2021_01_workspace_RZA2M_ANPR/ANPR_RZA2M_EBK/src/tensorflow_lite/tensorflow/lite/kernels/internal/reference\strided_slice.h ****            !LoopCondition(offset_2, end_2, params_copy.strides[2]);
 6285              		.loc 3 77 0
 6286 2270 30219DE5 		ldr	r2, [sp, #304]
 6287              	.LBB1909:
 6288              	.LBB1905:
 216:C:/Renesas/e2studio_2021_01_workspace_RZA2M_ANPR/ANPR_RZA2M_EBK/src/tensorflow_lite/tensorflow/lite/kernels/internal\types.h ****   }
 6289              		.loc 4 216 0
 6290 2274 58008DE5 		str	r0, [sp, #88]
 6291 2278 74308DE5 		str	r3, [sp, #116]
 6292              	.LBE1905:
 6293              	.LBE1909:
  77:C:/Renesas/e2studio_2021_01_workspace_RZA2M_ANPR/ANPR_RZA2M_EBK/src/tensorflow_lite/tensorflow/lite/kernels/internal/reference\strided_slice.h ****            !LoopCondition(offset_2, end_2, params_copy.strides[2]);
 6294              		.loc 3 77 0
 6295 227c 10208DE5 		str	r2, [sp, #16]
 6296              	.LVL733:
 6297              	.L321:
 6298              	.LBE1921:
 6299              	.LBE1935:
 6300              	.LBB1936:
 6301              	.LBB1937:
 6302              		.loc 5 179 0
 6303 2280 50309DE5 		ldr	r3, [sp, #80]
 6304 2284 4C209DE5 		ldr	r2, [sp, #76]
 6305 2288 000053E3 		cmp	r3, #0
 6306 228c 24309DE5 		ldr	r3, [sp, #36]
 6307 2290 B80000DA 		ble	.L296
 6308 2294 020053E1 		cmp	r3, r2
 6309 2298 0030A0B3 		movlt	r3, #0
 6310 229c 0130A0A3 		movge	r3, #1
 6311              	.L297:
 6312              	.LVL734:
 6313              	.LBE1937:
 6314              	.LBE1936:
  65:C:/Renesas/e2studio_2021_01_workspace_RZA2M_ANPR/ANPR_RZA2M_EBK/src/tensorflow_lite/tensorflow/lite/kernels/internal/reference\strided_slice.h ****            end_0 = stop_0 * input_shape.Dims(1),
 6315              		.loc 3 65 0
 6316 22a0 000053E3 		cmp	r3, #0
 6317 22a4 52FDFF1A 		bne	.L457
 6318              	.LBB1939:
 6319              	.LBB1922:
 6320              	.LBB1874:
 216:C:/Renesas/e2studio_2021_01_workspace_RZA2M_ANPR/ANPR_RZA2M_EBK/src/tensorflow_lite/tensorflow/lite/kernels/internal\types.h ****   }
 6321              		.loc 4 216 0
 6322 22a8 04309DE5 		ldr	r3, [sp, #4]
 6323 22ac 24209DE5 		ldr	r2, [sp, #36]
 6324 22b0 050053E3 		cmp	r3, #5
 6325 22b4 18309DE5 		ldr	r3, [sp, #24]
 6326 22b8 020083E0 		add	r0, r3, r2
 6327              	.LVL735:
 6328 22bc A300001A 		bne	.L1172
 6329              	.LVL736:
 6330              	.LBE1874:
 6331              	.LBE1922:
  70:C:/Renesas/e2studio_2021_01_workspace_RZA2M_ANPR/ANPR_RZA2M_EBK/src/tensorflow_lite/tensorflow/lite/kernels/internal/reference\strided_slice.h ****              end_1 = (offset_0 + stop_1) * input_shape.Dims(2),
 6332              		.loc 3 70 0
 6333 22c0 48309DE5 		ldr	r3, [sp, #72]
 6334 22c4 78209DE5 		ldr	r2, [sp, #120]
 6335 22c8 28308DE5 		str	r3, [sp, #40]
 6336              	.LVL737:
 6337 22cc 023083E0 		add	r3, r3, r2
 6338              	.LVL738:
 6339 22d0 54308DE5 		str	r3, [sp, #84]
 6340              	.LVL739:
 6341              	.LBB1923:
 6342              	.LBB1924:
 216:C:/Renesas/e2studio_2021_01_workspace_RZA2M_ANPR/ANPR_RZA2M_EBK/src/tensorflow_lite/tensorflow/lite/kernels/internal\types.h ****   }
 6343              		.loc 4 216 0
 6344 22d4 6C309DE5 		ldr	r3, [sp, #108]
 6345              	.LVL740:
 6346              	.L300:
 6347              	.LBE1924:
 6348              	.LBE1923:
  72:C:/Renesas/e2studio_2021_01_workspace_RZA2M_ANPR/ANPR_RZA2M_EBK/src/tensorflow_lite/tensorflow/lite/kernels/internal/reference\strided_slice.h ****          !LoopCondition(offset_1, end_1, params_copy.strides[1]);
 6349              		.loc 3 72 0
 6350 22d8 5C209DE5 		ldr	r2, [sp, #92]
 6351 22dc 34009DE5 		ldr	r0, [sp, #52]
 6352 22e0 920303E0 		mul	r3, r2, r3
 6353 22e4 14209DE5 		ldr	r2, [sp, #20]
 6354 22e8 03C0A0E1 		mov	ip, r3
 6355 22ec 68308DE5 		str	r3, [sp, #104]
 6356              	.LVL741:
 6357 22f0 28309DE5 		ldr	r3, [sp, #40]
 6358              	.LVL742:
 6359 22f4 032082E0 		add	r2, r2, r3
 6360 22f8 003083E0 		add	r3, r3, r0
 6361 22fc 58009DE5 		ldr	r0, [sp, #88]
 6362 2300 023043E0 		sub	r3, r3, r2
 6363 2304 900303E0 		mul	r3, r0, r3
 6364 2308 900202E0 		mul	r2, r0, r2
 6365 230c 70308DE5 		str	r3, [sp, #112]
 6366 2310 900C03E0 		mul	r3, r0, ip
 6367 2314 44208DE5 		str	r2, [sp, #68]
 6368 2318 60308DE5 		str	r3, [sp, #96]
 6369              	.LVL743:
 6370              	.L320:
 6371              	.LBB1925:
 6372              	.LBB1926:
 6373              		.loc 5 179 0
 6374 231c 5C309DE5 		ldr	r3, [sp, #92]
 6375 2320 54209DE5 		ldr	r2, [sp, #84]
 6376 2324 000053E3 		cmp	r3, #0
 6377 2328 28309DE5 		ldr	r3, [sp, #40]
 6378 232c 700000DA 		ble	.L301
 6379 2330 020053E1 		cmp	r3, r2
 6380 2334 0030A0B3 		movlt	r3, #0
 6381 2338 0130A0A3 		movge	r3, #1
 6382              	.LVL744:
 6383              	.LBE1926:
 6384              	.LBE1925:
  70:C:/Renesas/e2studio_2021_01_workspace_RZA2M_ANPR/ANPR_RZA2M_EBK/src/tensorflow_lite/tensorflow/lite/kernels/internal/reference\strided_slice.h ****              end_1 = (offset_0 + stop_1) * input_shape.Dims(2),
 6385              		.loc 3 70 0
 6386 233c 000053E3 		cmp	r3, #0
 6387 2340 7000001A 		bne	.L303
 6388              	.L1181:
 6389              	.LBB1928:
 6390              	.LBB1910:
 6391              	.LBB1906:
 216:C:/Renesas/e2studio_2021_01_workspace_RZA2M_ANPR/ANPR_RZA2M_EBK/src/tensorflow_lite/tensorflow/lite/kernels/internal\types.h ****   }
 6392              		.loc 4 216 0
 6393 2344 04309DE5 		ldr	r3, [sp, #4]
 6394 2348 28209DE5 		ldr	r2, [sp, #40]
 6395 234c 050053E3 		cmp	r3, #5
 6396 2350 14309DE5 		ldr	r3, [sp, #20]
 6397 2354 025083E0 		add	r5, r3, r2
 6398              	.LVL745:
 6399 2358 7300001A 		bne	.L1173
 6400              	.LVL746:
 6401              	.LBE1906:
 6402              	.LBE1910:
  75:C:/Renesas/e2studio_2021_01_workspace_RZA2M_ANPR/ANPR_RZA2M_EBK/src/tensorflow_lite/tensorflow/lite/kernels/internal/reference\strided_slice.h ****                end_2 = (offset_1 + stop_2) * input_shape.Dims(3),
 6403              		.loc 3 75 0
 6404 235c 44309DE5 		ldr	r3, [sp, #68]
 6405 2360 70209DE5 		ldr	r2, [sp, #112]
 6406 2364 0350A0E1 		mov	r5, r3
 6407              	.LVL747:
 6408 2368 023083E0 		add	r3, r3, r2
 6409              	.LVL748:
 6410 236c 1C308DE5 		str	r3, [sp, #28]
 6411              	.LVL749:
 6412              	.LBB1911:
 6413              	.LBB1912:
 216:C:/Renesas/e2studio_2021_01_workspace_RZA2M_ANPR/ANPR_RZA2M_EBK/src/tensorflow_lite/tensorflow/lite/kernels/internal\types.h ****   }
 6414              		.loc 4 216 0
 6415 2370 58309DE5 		ldr	r3, [sp, #88]
 6416              	.LVL750:
 6417              	.L305:
 6418              	.LBE1912:
 6419              	.LBE1911:
  77:C:/Renesas/e2studio_2021_01_workspace_RZA2M_ANPR/ANPR_RZA2M_EBK/src/tensorflow_lite/tensorflow/lite/kernels/internal/reference\strided_slice.h ****            !LoopCondition(offset_2, end_2, params_copy.strides[2]);
 6420              		.loc 3 77 0
 6421 2374 10209DE5 		ldr	r2, [sp, #16]
 6422 2378 920303E0 		mul	r3, r2, r3
 6423 237c 20209DE5 		ldr	r2, [sp, #32]
 6424 2380 0300A0E1 		mov	r0, r3
 6425 2384 2C308DE5 		str	r3, [sp, #44]
 6426              	.LVL751:
 6427 2388 08309DE5 		ldr	r3, [sp, #8]
 6428 238c 056083E0 		add	r6, r3, r5
 6429 2390 0C309DE5 		ldr	r3, [sp, #12]
 6430 2394 053083E0 		add	r3, r3, r5
 6431 2398 063043E0 		sub	r3, r3, r6
 6432 239c 920606E0 		mul	r6, r2, r6
 6433 23a0 920303E0 		mul	r3, r2, r3
 6434 23a4 40308DE5 		str	r3, [sp, #64]
 6435 23a8 920003E0 		mul	r3, r2, r0
 6436 23ac 38308DE5 		str	r3, [sp, #56]
 6437              	.LVL752:
 6438              	.LBB1913:
 6439              	.LBB1914:
 6440              		.loc 5 179 0
 6441 23b0 10309DE5 		ldr	r3, [sp, #16]
 6442 23b4 000053E3 		cmp	r3, #0
 6443 23b8 1C309DE5 		ldr	r3, [sp, #28]
 6444 23bc 360000DA 		ble	.L306
 6445              	.LVL753:
 6446              	.L1177:
 6447 23c0 030055E1 		cmp	r5, r3
 6448 23c4 0030A0B3 		movlt	r3, #0
 6449 23c8 0130A0A3 		movge	r3, #1
 6450              	.LVL754:
 6451              	.LBE1914:
 6452              	.LBE1913:
  75:C:/Renesas/e2studio_2021_01_workspace_RZA2M_ANPR/ANPR_RZA2M_EBK/src/tensorflow_lite/tensorflow/lite/kernels/internal/reference\strided_slice.h ****                end_2 = (offset_1 + stop_2) * input_shape.Dims(3),
 6453              		.loc 3 75 0
 6454 23cc 000053E3 		cmp	r3, #0
 6455 23d0 3600001A 		bne	.L308
 6456              	.L1178:
 6457              	.LBB1916:
 6458              	.LBB1879:
 6459              	.LBB1880:
 216:C:/Renesas/e2studio_2021_01_workspace_RZA2M_ANPR/ANPR_RZA2M_EBK/src/tensorflow_lite/tensorflow/lite/kernels/internal\types.h ****   }
 6460              		.loc 4 216 0
 6461 23d4 04309DE5 		ldr	r3, [sp, #4]
 6462 23d8 050053E3 		cmp	r3, #5
 6463 23dc 08309DE5 		ldr	r3, [sp, #8]
 6464              	.LBE1880:
 6465              	.LBE1879:
 6466              	.LBB1883:
 6467              	.LBB1884:
 6468 23e0 20E09D05 		ldreq	lr, [sp, #32]
 6469 23e4 03C085E0 		add	ip, r5, r3
 6470              	.LVL755:
 6471              	.LBE1884:
 6472              	.LBE1883:
 6473              	.LBB1885:
 6474              	.LBB1881:
 6475 23e8 3C309D15 		ldrne	r3, [sp, #60]
 6476 23ec 40309D05 		ldreq	r3, [sp, #64]
 6477              	.LBE1881:
 6478              	.LBE1885:
  80:C:/Renesas/e2studio_2021_01_workspace_RZA2M_ANPR/ANPR_RZA2M_EBK/src/tensorflow_lite/tensorflow/lite/kernels/internal/reference\strided_slice.h ****                  end_3 = (offset_2 + stop_3) * input_shape.Dims(4),
 6479              		.loc 3 80 0
 6480 23f0 06C0A001 		moveq	ip, r6
 6481              	.LBB1886:
 6482              	.LBB1882:
 216:C:/Renesas/e2studio_2021_01_workspace_RZA2M_ANPR/ANPR_RZA2M_EBK/src/tensorflow_lite/tensorflow/lite/kernels/internal\types.h ****   }
 6483              		.loc 4 216 0
 6484 23f4 10E09315 		ldrne	lr, [r3, #16]
 6485              	.LVL756:
 6486              	.LBE1882:
 6487              	.LBE1886:
  81:C:/Renesas/e2studio_2021_01_workspace_RZA2M_ANPR/ANPR_RZA2M_EBK/src/tensorflow_lite/tensorflow/lite/kernels/internal/reference\strided_slice.h ****                  step_3 = params_copy.strides[3] * input_shape.Dims(4);
 6488              		.loc 3 81 0
 6489 23f8 0C309D15 		ldrne	r3, [sp, #12]
 6490 23fc 06408300 		addeq	r4, r3, r6
 6491 2400 05408310 		addne	r4, r3, r5
  80:C:/Renesas/e2studio_2021_01_workspace_RZA2M_ANPR/ANPR_RZA2M_EBK/src/tensorflow_lite/tensorflow/lite/kernels/internal/reference\strided_slice.h ****                  end_3 = (offset_2 + stop_3) * input_shape.Dims(4),
 6492              		.loc 3 80 0
 6493 2404 9E0C0C10 		mulne	ip, lr, ip
  81:C:/Renesas/e2studio_2021_01_workspace_RZA2M_ANPR/ANPR_RZA2M_EBK/src/tensorflow_lite/tensorflow/lite/kernels/internal/reference\strided_slice.h ****                  step_3 = params_copy.strides[3] * input_shape.Dims(4);
 6494              		.loc 3 81 0
 6495 2408 9E040410 		mulne	r4, lr, r4
 6496              	.LVL757:
 6497              	.LBB1887:
 6498              	.LBB1888:
 6499              		.loc 5 179 0
 6500 240c 000058E3 		cmp	r8, #0
 6501              	.LBE1888:
 6502              	.LBE1887:
  82:C:/Renesas/e2studio_2021_01_workspace_RZA2M_ANPR/ANPR_RZA2M_EBK/src/tensorflow_lite/tensorflow/lite/kernels/internal/reference\strided_slice.h ****              !LoopCondition(offset_3, end_3, params_copy.strides[3]);
 6503              		.loc 3 82 0
 6504 2410 980E0EE0 		mul	lr, r8, lr
 6505              	.LVL758:
 6506              	.LBB1891:
 6507              	.LBB1889:
 6508              		.loc 5 179 0
 6509 2414 130000DA 		ble	.L311
 6510              	.L1175:
 6511 2418 04005CE1 		cmp	ip, r4
 6512 241c 0030A0B3 		movlt	r3, #0
 6513 2420 0130A0A3 		movge	r3, #1
 6514              	.LVL759:
 6515              	.LBE1889:
 6516              	.LBE1891:
  80:C:/Renesas/e2studio_2021_01_workspace_RZA2M_ANPR/ANPR_RZA2M_EBK/src/tensorflow_lite/tensorflow/lite/kernels/internal/reference\strided_slice.h ****                  end_3 = (offset_2 + stop_3) * input_shape.Dims(4),
 6517              		.loc 3 80 0
 6518 2424 000053E3 		cmp	r3, #0
 6519 2428 1300001A 		bne	.L313
 6520              	.L1176:
 6521 242c 000059E3 		cmp	r9, #0
 6522 2430 0120A0E1 		mov	r2, r1
 6523 2434 0C308BE0 		add	r3, fp, ip
 6524              	.LVL760:
 6525 2438 0C008AE0 		add	r0, r10, ip
 6526              	.LVL761:
 6527 243c 030000CA 		bgt	.L317
 6528 2440 260000EA 		b	.L316
 6529              	.L1174:
 6530              	.LVL762:
 6531              	.LBB1892:
 6532              	.LBB1893:
 6533              	.LBB1894:
 6534              		.loc 6 109 0
 6535 2444 0310D7E7 		ldrb	r1, [r7, r3]	@ zero_extendqisi2
 6536              	.LVL763:
 6537              	.LBE1894:
 6538              	.LBE1893:
 6539              		.loc 3 85 0
 6540 2448 093083E0 		add	r3, r3, r9
 6541              	.LVL764:
 6542              	.LBB1898:
 6543              	.LBB1895:
 6544              		.loc 6 109 0
 6545 244c 0110C2E4 		strb	r1, [r2], #1
 6546              	.LVL765:
 6547              	.L317:
 6548              	.LBE1895:
 6549              	.LBE1898:
 6550              		.loc 3 85 0
 6551 2450 000053E1 		cmp	r3, r0
 6552 2454 0210A0E1 		mov	r1, r2
 6553              	.LVL766:
 6554 2458 F9FFFFBA 		blt	.L1174
 6555              	.LBE1892:
  80:C:/Renesas/e2studio_2021_01_workspace_RZA2M_ANPR/ANPR_RZA2M_EBK/src/tensorflow_lite/tensorflow/lite/kernels/internal/reference\strided_slice.h ****                  end_3 = (offset_2 + stop_3) * input_shape.Dims(4),
 6556              		.loc 3 80 0
 6557 245c 0EC08CE0 		add	ip, ip, lr
 6558              	.LVL767:
 6559              	.L1180:
 6560              	.LBB1901:
 6561              	.LBB1890:
 6562              		.loc 5 179 0
 6563 2460 000058E3 		cmp	r8, #0
 6564 2464 EBFFFFCA 		bgt	.L1175
 6565              	.LVL768:
 6566              	.L311:
 6567 2468 04005CE1 		cmp	ip, r4
 6568 246c 0030A0C3 		movgt	r3, #0
 6569 2470 0130A0D3 		movle	r3, #1
 6570              	.LVL769:
 6571              	.LBE1890:
 6572              	.LBE1901:
  80:C:/Renesas/e2studio_2021_01_workspace_RZA2M_ANPR/ANPR_RZA2M_EBK/src/tensorflow_lite/tensorflow/lite/kernels/internal/reference\strided_slice.h ****                  end_3 = (offset_2 + stop_3) * input_shape.Dims(4),
 6573              		.loc 3 80 0
 6574 2474 000053E3 		cmp	r3, #0
 6575 2478 EBFFFF0A 		beq	.L1176
 6576              	.L313:
 6577              	.LBE1916:
  75:C:/Renesas/e2studio_2021_01_workspace_RZA2M_ANPR/ANPR_RZA2M_EBK/src/tensorflow_lite/tensorflow/lite/kernels/internal/reference\strided_slice.h ****                end_2 = (offset_1 + stop_2) * input_shape.Dims(3),
 6578              		.loc 3 75 0
 6579 247c 2C309DE5 		ldr	r3, [sp, #44]
 6580 2480 035085E0 		add	r5, r5, r3
 6581              	.LVL770:
 6582 2484 38309DE5 		ldr	r3, [sp, #56]
 6583 2488 036086E0 		add	r6, r6, r3
 6584              	.LVL771:
 6585              	.LBB1917:
 6586              	.LBB1915:
 6587              		.loc 5 179 0
 6588 248c 10309DE5 		ldr	r3, [sp, #16]
 6589 2490 000053E3 		cmp	r3, #0
 6590 2494 1C309DE5 		ldr	r3, [sp, #28]
 6591 2498 C8FFFFCA 		bgt	.L1177
 6592              	.LVL772:
 6593              	.L306:
 6594 249c 030055E1 		cmp	r5, r3
 6595 24a0 0030A0C3 		movgt	r3, #0
 6596 24a4 0130A0D3 		movle	r3, #1
 6597              	.LVL773:
 6598              	.LBE1915:
 6599              	.LBE1917:
  75:C:/Renesas/e2studio_2021_01_workspace_RZA2M_ANPR/ANPR_RZA2M_EBK/src/tensorflow_lite/tensorflow/lite/kernels/internal/reference\strided_slice.h ****                end_2 = (offset_1 + stop_2) * input_shape.Dims(3),
 6600              		.loc 3 75 0
 6601 24a8 000053E3 		cmp	r3, #0
 6602 24ac C8FFFF0A 		beq	.L1178
 6603              	.L308:
 6604              	.LBE1928:
  70:C:/Renesas/e2studio_2021_01_workspace_RZA2M_ANPR/ANPR_RZA2M_EBK/src/tensorflow_lite/tensorflow/lite/kernels/internal/reference\strided_slice.h ****              end_1 = (offset_0 + stop_1) * input_shape.Dims(2),
 6605              		.loc 3 70 0
 6606 24b0 28309DE5 		ldr	r3, [sp, #40]
 6607 24b4 68209DE5 		ldr	r2, [sp, #104]
 6608 24b8 023083E0 		add	r3, r3, r2
 6609 24bc 60209DE5 		ldr	r2, [sp, #96]
 6610 24c0 28308DE5 		str	r3, [sp, #40]
 6611              	.LVL774:
 6612 24c4 44309DE5 		ldr	r3, [sp, #68]
 6613              	.LVL775:
 6614 24c8 023083E0 		add	r3, r3, r2
 6615 24cc 44308DE5 		str	r3, [sp, #68]
 6616 24d0 91FFFFEA 		b	.L320
 6617              	.LVL776:
 6618              	.L1179:
 6619              	.LBB1929:
 6620              	.LBB1918:
 6621              	.LBB1902:
 6622              	.LBB1899:
 6623              	.LBB1896:
 6624              		.loc 6 109 0
 6625 24d4 0310D7E7 		ldrb	r1, [r7, r3]	@ zero_extendqisi2
 6626              	.LVL777:
 6627              	.LBE1896:
 6628              	.LBE1899:
 6629              		.loc 3 85 0
 6630 24d8 093083E0 		add	r3, r3, r9
 6631              	.LVL778:
 6632              	.LBB1900:
 6633              	.LBB1897:
 6634              		.loc 6 109 0
 6635 24dc 0110C2E4 		strb	r1, [r2], #1
 6636              	.LVL779:
 6637              	.L316:
 6638              	.LBE1897:
 6639              	.LBE1900:
 6640              		.loc 3 85 0
 6641 24e0 030050E1 		cmp	r0, r3
 6642 24e4 0210A0E1 		mov	r1, r2
 6643              	.LVL780:
 6644 24e8 F9FFFFBA 		blt	.L1179
 6645              	.LBE1902:
  80:C:/Renesas/e2studio_2021_01_workspace_RZA2M_ANPR/ANPR_RZA2M_EBK/src/tensorflow_lite/tensorflow/lite/kernels/internal/reference\strided_slice.h ****                  end_3 = (offset_2 + stop_3) * input_shape.Dims(4),
 6646              		.loc 3 80 0
 6647 24ec 0EC08CE0 		add	ip, ip, lr
 6648              	.LVL781:
 6649 24f0 DAFFFFEA 		b	.L1180
 6650              	.LVL782:
 6651              	.L301:
 6652              	.LBE1918:
 6653              	.LBE1929:
 6654              	.LBB1930:
 6655              	.LBB1927:
 6656              		.loc 5 179 0
 6657 24f4 020053E1 		cmp	r3, r2
 6658 24f8 0030A0C3 		movgt	r3, #0
 6659              	.LVL783:
 6660 24fc 0130A0D3 		movle	r3, #1
 6661              	.LVL784:
 6662              	.LBE1927:
 6663              	.LBE1930:
  70:C:/Renesas/e2studio_2021_01_workspace_RZA2M_ANPR/ANPR_RZA2M_EBK/src/tensorflow_lite/tensorflow/lite/kernels/internal/reference\strided_slice.h ****              end_1 = (offset_0 + stop_1) * input_shape.Dims(2),
 6664              		.loc 3 70 0
 6665 2500 000053E3 		cmp	r3, #0
 6666 2504 8EFFFF0A 		beq	.L1181
 6667              	.L303:
 6668              	.LBE1939:
  65:C:/Renesas/e2studio_2021_01_workspace_RZA2M_ANPR/ANPR_RZA2M_EBK/src/tensorflow_lite/tensorflow/lite/kernels/internal/reference\strided_slice.h ****            end_0 = stop_0 * input_shape.Dims(1),
 6669              		.loc 3 65 0
 6670 2508 24309DE5 		ldr	r3, [sp, #36]
 6671 250c 64209DE5 		ldr	r2, [sp, #100]
 6672 2510 023083E0 		add	r3, r3, r2
 6673 2514 74209DE5 		ldr	r2, [sp, #116]
 6674 2518 24308DE5 		str	r3, [sp, #36]
 6675              	.LVL785:
 6676 251c 48309DE5 		ldr	r3, [sp, #72]
 6677              	.LVL786:
 6678 2520 023083E0 		add	r3, r3, r2
 6679 2524 48308DE5 		str	r3, [sp, #72]
 6680 2528 54FFFFEA 		b	.L321
 6681              	.LVL787:
 6682              	.L1173:
 6683              	.LBB1940:
 6684              	.LBB1931:
 6685              	.LBB1919:
 6686              	.LBB1907:
 216:C:/Renesas/e2studio_2021_01_workspace_RZA2M_ANPR/ANPR_RZA2M_EBK/src/tensorflow_lite/tensorflow/lite/kernels/internal\types.h ****   }
 6687              		.loc 4 216 0
 6688 252c 3C309DE5 		ldr	r3, [sp, #60]
 6689 2530 0200A0E1 		mov	r0, r2
 6690              	.LBE1907:
 6691              	.LBE1919:
  76:C:/Renesas/e2studio_2021_01_workspace_RZA2M_ANPR/ANPR_RZA2M_EBK/src/tensorflow_lite/tensorflow/lite/kernels/internal/reference\strided_slice.h ****                step_2 = params_copy.strides[2] * input_shape.Dims(3);
 6692              		.loc 3 76 0
 6693 2534 34209DE5 		ldr	r2, [sp, #52]
 6694              	.LBB1920:
 6695              	.LBB1908:
 216:C:/Renesas/e2studio_2021_01_workspace_RZA2M_ANPR/ANPR_RZA2M_EBK/src/tensorflow_lite/tensorflow/lite/kernels/internal\types.h ****   }
 6696              		.loc 4 216 0
 6697 2538 0C3093E5 		ldr	r3, [r3, #12]
 6698              	.LVL788:
 6699              	.LBE1908:
 6700              	.LBE1920:
  76:C:/Renesas/e2studio_2021_01_workspace_RZA2M_ANPR/ANPR_RZA2M_EBK/src/tensorflow_lite/tensorflow/lite/kernels/internal/reference\strided_slice.h ****                step_2 = params_copy.strides[2] * input_shape.Dims(3);
 6701              		.loc 3 76 0
 6702 253c 002082E0 		add	r2, r2, r0
 6703 2540 930202E0 		mul	r2, r3, r2
  75:C:/Renesas/e2studio_2021_01_workspace_RZA2M_ANPR/ANPR_RZA2M_EBK/src/tensorflow_lite/tensorflow/lite/kernels/internal/reference\strided_slice.h ****                end_2 = (offset_1 + stop_2) * input_shape.Dims(3),
 6704              		.loc 3 75 0
 6705 2544 950305E0 		mul	r5, r5, r3
 6706              	.LVL789:
  76:C:/Renesas/e2studio_2021_01_workspace_RZA2M_ANPR/ANPR_RZA2M_EBK/src/tensorflow_lite/tensorflow/lite/kernels/internal/reference\strided_slice.h ****                step_2 = params_copy.strides[2] * input_shape.Dims(3);
 6707              		.loc 3 76 0
 6708 2548 1C208DE5 		str	r2, [sp, #28]
 6709              	.LVL790:
 6710 254c 88FFFFEA 		b	.L305
 6711              	.LVL791:
 6712              	.L1172:
 6713              	.LBE1931:
 6714              	.LBB1932:
 6715              	.LBB1875:
 216:C:/Renesas/e2studio_2021_01_workspace_RZA2M_ANPR/ANPR_RZA2M_EBK/src/tensorflow_lite/tensorflow/lite/kernels/internal\types.h ****   }
 6716              		.loc 4 216 0
 6717 2550 3C309DE5 		ldr	r3, [sp, #60]
 6718 2554 02C0A0E1 		mov	ip, r2
 6719              	.LBE1875:
 6720              	.LBE1932:
  71:C:/Renesas/e2studio_2021_01_workspace_RZA2M_ANPR/ANPR_RZA2M_EBK/src/tensorflow_lite/tensorflow/lite/kernels/internal/reference\strided_slice.h ****              step_1 = params_copy.strides[1] * input_shape.Dims(2);
 6721              		.loc 3 71 0
 6722 2558 30209DE5 		ldr	r2, [sp, #48]
 6723              	.LBB1933:
 6724              	.LBB1876:
 216:C:/Renesas/e2studio_2021_01_workspace_RZA2M_ANPR/ANPR_RZA2M_EBK/src/tensorflow_lite/tensorflow/lite/kernels/internal\types.h ****   }
 6725              		.loc 4 216 0
 6726 255c 083093E5 		ldr	r3, [r3, #8]
 6727              	.LVL792:
 6728              	.LBE1876:
 6729              	.LBE1933:
  71:C:/Renesas/e2studio_2021_01_workspace_RZA2M_ANPR/ANPR_RZA2M_EBK/src/tensorflow_lite/tensorflow/lite/kernels/internal/reference\strided_slice.h ****              step_1 = params_copy.strides[1] * input_shape.Dims(2);
 6730              		.loc 3 71 0
 6731 2560 0C2082E0 		add	r2, r2, ip
  70:C:/Renesas/e2studio_2021_01_workspace_RZA2M_ANPR/ANPR_RZA2M_EBK/src/tensorflow_lite/tensorflow/lite/kernels/internal/reference\strided_slice.h ****              end_1 = (offset_0 + stop_1) * input_shape.Dims(2),
 6732              		.loc 3 70 0
 6733 2564 930000E0 		mul	r0, r3, r0
  71:C:/Renesas/e2studio_2021_01_workspace_RZA2M_ANPR/ANPR_RZA2M_EBK/src/tensorflow_lite/tensorflow/lite/kernels/internal/reference\strided_slice.h ****              step_1 = params_copy.strides[1] * input_shape.Dims(2);
 6734              		.loc 3 71 0
 6735 2568 930202E0 		mul	r2, r3, r2
  70:C:/Renesas/e2studio_2021_01_workspace_RZA2M_ANPR/ANPR_RZA2M_EBK/src/tensorflow_lite/tensorflow/lite/kernels/internal/reference\strided_slice.h ****              end_1 = (offset_0 + stop_1) * input_shape.Dims(2),
 6736              		.loc 3 70 0
 6737 256c 28008DE5 		str	r0, [sp, #40]
 6738              	.LVL793:
  71:C:/Renesas/e2studio_2021_01_workspace_RZA2M_ANPR/ANPR_RZA2M_EBK/src/tensorflow_lite/tensorflow/lite/kernels/internal/reference\strided_slice.h ****              step_1 = params_copy.strides[1] * input_shape.Dims(2);
 6739              		.loc 3 71 0
 6740 2570 54208DE5 		str	r2, [sp, #84]
 6741              	.LVL794:
 6742 2574 57FFFFEA 		b	.L300
 6743              	.LVL795:
 6744              	.L296:
 6745              	.LBE1940:
 6746              	.LBB1941:
 6747              	.LBB1938:
 6748              		.loc 5 179 0
 6749 2578 020053E1 		cmp	r3, r2
 6750 257c 0030A0C3 		movgt	r3, #0
 6751              	.LVL796:
 6752 2580 0130A0D3 		movle	r3, #1
 6753 2584 45FFFFEA 		b	.L297
 6754              	.LVL797:
 6755              	.L918:
 6756 2588 C8109DE5 		ldr	r1, [sp, #200]
 6757 258c 3C108DE5 		str	r1, [sp, #60]
 6758              	.LVL798:
 6759              	.L275:
 6760              	.LBE1938:
 6761              	.LBE1941:
  65:C:/Renesas/e2studio_2021_01_workspace_RZA2M_ANPR/ANPR_RZA2M_EBK/src/tensorflow_lite/tensorflow/lite/kernels/internal/reference\strided_slice.h ****            end_0 = stop_0 * input_shape.Dims(1),
 6762              		.loc 3 65 0
 6763 2590 930203E0 		mul	r3, r3, r2
 6764 2594 24308DE5 		str	r3, [sp, #36]
 6765              	.LVL799:
  67:C:/Renesas/e2studio_2021_01_workspace_RZA2M_ANPR/ANPR_RZA2M_EBK/src/tensorflow_lite/tensorflow/lite/kernels/internal/reference\strided_slice.h ****        !LoopCondition(offset_0, end_0, params_copy.strides[0]);
 6766              		.loc 3 67 0
 6767 2598 28319DE5 		ldr	r3, [sp, #296]
 6768              	.LVL800:
 6769 259c 50308DE5 		str	r3, [sp, #80]
 6770 25a0 D8309DE5 		ldr	r3, [sp, #216]
 6771 25a4 20308DE5 		str	r3, [sp, #32]
  66:C:/Renesas/e2studio_2021_01_workspace_RZA2M_ANPR/ANPR_RZA2M_EBK/src/tensorflow_lite/tensorflow/lite/kernels/internal/reference\strided_slice.h ****            step_0 = params_copy.strides[0] * input_shape.Dims(1);
 6772              		.loc 3 66 0
 6773 25a8 920C03E0 		mul	r3, r2, ip
 6774 25ac 4C308DE5 		str	r3, [sp, #76]
 6775              	.LVL801:
 6776 25b0 15FFFFEA 		b	.L295
 6777              	.LVL802:
 6778              	.L1171:
 6779              	.LEHB23:
 6780              	.LBE1868:
 6781              	.LBB1942:
 6782              	.LBB1864:
 6783              	.LBB1859:
 6784              	.LBB1858:
  30:C:/Renesas/e2studio_2021_01_workspace_RZA2M_ANPR/ANPR_RZA2M_EBK/src/tensorflow_lite/tensorflow/lite/kernels/internal\strided_slice_logic.h ****   if (hi < v) return hi;
 6785              		.loc 5 30 0
 6786 25b4 FEFFFFEB 		bl	abort
 6787              	.LVL803:
 6788              	.L288:
 6789              	.LBE1858:
 6790              	.LBE1859:
 159:C:/Renesas/e2studio_2021_01_workspace_RZA2M_ANPR/ANPR_RZA2M_EBK/src/tensorflow_lite/tensorflow/lite/kernels/internal\strided_slice_logic.h ****     stop += axis_size;
 6791              		.loc 5 159 0
 6792 25b8 000050E3 		cmp	r0, #0
 6793 25bc 000000AA 		bge	.L291
 6794              	.LVL804:
 6795              	.L290:
 160:C:/Renesas/e2studio_2021_01_workspace_RZA2M_ANPR/ANPR_RZA2M_EBK/src/tensorflow_lite/tensorflow/lite/kernels/internal\strided_slice_logic.h ****   }
 6796              		.loc 5 160 0
 6797 25c0 010080E0 		add	r0, r0, r1
 6798              	.LVL805:
 6799              	.L291:
 166:C:/Renesas/e2studio_2021_01_workspace_RZA2M_ANPR/ANPR_RZA2M_EBK/src/tensorflow_lite/tensorflow/lite/kernels/internal\strided_slice_logic.h ****     // Forward iteration
 6800              		.loc 5 166 0
 6801 25c4 000059E3 		cmp	r9, #0
 6802 25c8 FDFEFFCA 		bgt	.L289
 171:C:/Renesas/e2studio_2021_01_workspace_RZA2M_ANPR/ANPR_RZA2M_EBK/src/tensorflow_lite/tensorflow/lite/kernels/internal\strided_slice_logic.h ****   }
 6803              		.loc 5 171 0
 6804 25cc 016041E2 		sub	r6, r1, #1
 6805              	.LVL806:
 6806              	.LBB1860:
 6807              	.LBB1861:
  30:C:/Renesas/e2studio_2021_01_workspace_RZA2M_ANPR/ANPR_RZA2M_EBK/src/tensorflow_lite/tensorflow/lite/kernels/internal\strided_slice_logic.h ****   if (hi < v) return hi;
 6808              		.loc 5 30 0
 6809 25d0 010076E3 		cmn	r6, #1
 6810 25d4 0C0000BA 		blt	.L1182
  31:C:/Renesas/e2studio_2021_01_workspace_RZA2M_ANPR/ANPR_RZA2M_EBK/src/tensorflow_lite/tensorflow/lite/kernels/internal\strided_slice_logic.h ****   if (v < lo) return lo;
 6811              		.loc 5 31 0
 6812 25d8 060050E1 		cmp	r0, r6
 6813 25dc C06F80D1 		orrle	r6, r0, r0, asr #31
 6814              	.LVL807:
 6815 25e0 FCFEFFEA 		b	.L287
 6816              	.LVL808:
 6817              	.L630:
 6818 25e4 DEF9FFEA 		b	.L990
 6819              	.LVL809:
 6820              	.L1169:
 6821              	.LBE1861:
 6822              	.LBE1860:
 6823              	.LBE1864:
 6824              	.LBE1942:
 6825              	.LBB1943:
 6826              	.LBB1850:
 6827              	.LBB1843:
 6828              	.LBB1842:
  30:C:/Renesas/e2studio_2021_01_workspace_RZA2M_ANPR/ANPR_RZA2M_EBK/src/tensorflow_lite/tensorflow/lite/kernels/internal\strided_slice_logic.h ****   if (hi < v) return hi;
 6829              		.loc 5 30 0
 6830 25e8 FEFFFFEB 		bl	abort
 6831              	.LVL810:
 6832              	.L283:
 6833              	.LBE1842:
 6834              	.LBE1843:
 111:C:/Renesas/e2studio_2021_01_workspace_RZA2M_ANPR/ANPR_RZA2M_EBK/src/tensorflow_lite/tensorflow/lite/kernels/internal\strided_slice_logic.h ****   }
 6835              		.loc 5 111 0
 6836 25ec 01B041E2 		sub	fp, r1, #1
 6837              	.LVL811:
 6838              	.LBB1844:
 6839              	.LBB1845:
  30:C:/Renesas/e2studio_2021_01_workspace_RZA2M_ANPR/ANPR_RZA2M_EBK/src/tensorflow_lite/tensorflow/lite/kernels/internal\strided_slice_logic.h ****   if (hi < v) return hi;
 6840              		.loc 5 30 0
 6841 25f0 01007BE3 		cmn	fp, #1
 6842 25f4 080000BA 		blt	.L538
  31:C:/Renesas/e2studio_2021_01_workspace_RZA2M_ANPR/ANPR_RZA2M_EBK/src/tensorflow_lite/tensorflow/lite/kernels/internal\strided_slice_logic.h ****   if (v < lo) return lo;
 6843              		.loc 5 31 0
 6844 25f8 0B0050E1 		cmp	r0, fp
 6845 25fc C0BF80D1 		orrle	fp, r0, r0, asr #31
 6846              	.LVL812:
 6847 2600 E6FEFFEA 		b	.L285
 6848              	.LVL813:
 6849              	.L1170:
 6850              	.LBE1845:
 6851              	.LBE1844:
 6852              	.LBE1850:
 6853              	.LBE1943:
 6854              	.LBB1944:
 6855              	.LBB1865:
 143:C:/Renesas/e2studio_2021_01_workspace_RZA2M_ANPR/ANPR_RZA2M_EBK/src/tensorflow_lite/tensorflow/lite/kernels/internal\strided_slice_logic.h ****   }
 6856              		.loc 5 143 0
 6857 2604 01608BE2 		add	r6, fp, #1
 6858              	.LVL814:
 6859 2608 F2FEFFEA 		b	.L287
 6860              	.LVL815:
 6861              	.L1182:
 6862              	.LBB1863:
 6863              	.LBB1862:
  30:C:/Renesas/e2studio_2021_01_workspace_RZA2M_ANPR/ANPR_RZA2M_EBK/src/tensorflow_lite/tensorflow/lite/kernels/internal\strided_slice_logic.h ****   if (hi < v) return hi;
 6864              		.loc 5 30 0
 6865 260c FEFFFFEB 		bl	abort
 6866              	.LVL816:
 6867              	.L1168:
 6868              	.LBE1862:
 6869              	.LBE1863:
 6870              	.LBE1865:
 6871              	.LBE1944:
 6872              	.LBB1945:
 6873              	.LBB1851:
 111:C:/Renesas/e2studio_2021_01_workspace_RZA2M_ANPR/ANPR_RZA2M_EBK/src/tensorflow_lite/tensorflow/lite/kernels/internal\strided_slice_logic.h ****   }
 6874              		.loc 5 111 0
 6875 2610 01B041E2 		sub	fp, r1, #1
 6876              	.LVL817:
 6877              	.LBB1847:
 6878              	.LBB1846:
  30:C:/Renesas/e2studio_2021_01_workspace_RZA2M_ANPR/ANPR_RZA2M_EBK/src/tensorflow_lite/tensorflow/lite/kernels/internal\strided_slice_logic.h ****   if (hi < v) return hi;
 6879              		.loc 5 30 0
 6880 2614 01007BE3 		cmn	fp, #1
 6881 2618 E0FEFFAA 		bge	.L285
 6882              	.LVL818:
 6883              	.L538:
 6884 261c FEFFFFEB 		bl	abort
 6885              	.LVL819:
 6886              	.L278:
 6887              	.LBE1846:
 6888              	.LBE1847:
 101:C:/Renesas/e2studio_2021_01_workspace_RZA2M_ANPR/ANPR_RZA2M_EBK/src/tensorflow_lite/tensorflow/lite/kernels/internal\strided_slice_logic.h ****     start += axis_size;
 6889              		.loc 5 101 0
 6890 2620 000050E3 		cmp	r0, #0
 6891 2624 D6FEFFAA 		bge	.L282
 6892 2628 D4FEFFEA 		b	.L279
 6893              	.LVL820:
 6894              	.L591:
 6895 262c 01B0A0E1 		mov	fp, r1
 6896 2630 38919DE5 		ldr	r9, [sp, #312]
 6897              	.LBE1851:
 6898              	.LBE1945:
 6899              	.LBB1946:
 6900              	.LBB1866:
 131:C:/Renesas/e2studio_2021_01_workspace_RZA2M_ANPR/ANPR_RZA2M_EBK/src/tensorflow_lite/tensorflow/lite/kernels/internal\strided_slice_logic.h ****   }
 6901              		.loc 5 131 0
 6902 2634 0160A0E1 		mov	r6, r1
 6903 2638 EBFEFFEA 		b	.L277
 6904              	.LVL821:
 6905              	.L1167:
 6906              	.LBE1866:
 6907              	.LBE1946:
 6908              	.LBB1947:
 6909              	.LBB1852:
 6910              	.LBB1848:
 6911              	.LBB1837:
 216:C:/Renesas/e2studio_2021_01_workspace_RZA2M_ANPR/ANPR_RZA2M_EBK/src/tensorflow_lite/tensorflow/lite/kernels/internal\types.h ****   }
 6912              		.loc 4 216 0
 6913 263c C8109DE5 		ldr	r1, [sp, #200]
 6914 2640 3C108DE5 		str	r1, [sp, #60]
 6915 2644 101091E5 		ldr	r1, [r1, #16]
 6916              	.LVL822:
 6917              	.LBE1837:
 6918              	.LBE1848:
  81:C:/Renesas/e2studio_2021_01_workspace_RZA2M_ANPR/ANPR_RZA2M_EBK/src/tensorflow_lite/tensorflow/lite/kernels/internal\strided_slice_logic.h ****     return 0;
 6919              		.loc 5 81 0
 6920 2648 000051E3 		cmp	r1, #0
 6921 264c C4FEFF1A 		bne	.L276
 6922 2650 38919DE5 		ldr	r9, [sp, #312]
 6923              	.LBE1852:
 6924              	.LBE1947:
 6925              	.LBB1948:
 6926              	.LBB1867:
 131:C:/Renesas/e2studio_2021_01_workspace_RZA2M_ANPR/ANPR_RZA2M_EBK/src/tensorflow_lite/tensorflow/lite/kernels/internal\strided_slice_logic.h ****   }
 6927              		.loc 5 131 0
 6928 2654 0160A0E1 		mov	r6, r1
 6929              	.LBE1867:
 6930              	.LBE1948:
 6931              	.LBB1949:
 6932              	.LBB1853:
  82:C:/Renesas/e2studio_2021_01_workspace_RZA2M_ANPR/ANPR_RZA2M_EBK/src/tensorflow_lite/tensorflow/lite/kernels/internal\strided_slice_logic.h ****   }
 6933              		.loc 5 82 0
 6934 2658 01B0A0E1 		mov	fp, r1
 6935 265c CBFFFFEA 		b	.L275
 6936              	.LVL823:
 6937              	.L1166:
 6938              	.LBB1849:
 6939              	.LBB1838:
 215:C:/Renesas/e2studio_2021_01_workspace_RZA2M_ANPR/ANPR_RZA2M_EBK/src/tensorflow_lite/tensorflow/lite/kernels/internal\types.h ****     return size_ > kMaxSmallSize ? dims_pointer_[i] : dims_[i];
 6940              		.loc 4 215 0
 6941 2660 FEFFFFEB 		bl	abort
 6942              	.LVL824:
 6943              	.L266:
 6944              	.LBE1838:
 6945              	.LBE1849:
 6946              	.LBE1853:
 6947              	.LBE1949:
 6948              	.LBB1950:
 6949              	.LBB1830:
 159:C:/Renesas/e2studio_2021_01_workspace_RZA2M_ANPR/ANPR_RZA2M_EBK/src/tensorflow_lite/tensorflow/lite/kernels/internal\strided_slice_logic.h ****     stop += axis_size;
 6950              		.loc 5 159 0
 6951 2664 000050E3 		cmp	r0, #0
 6952 2668 000000AA 		bge	.L269
 6953              	.LVL825:
 6954              	.L268:
 160:C:/Renesas/e2studio_2021_01_workspace_RZA2M_ANPR/ANPR_RZA2M_EBK/src/tensorflow_lite/tensorflow/lite/kernels/internal\strided_slice_logic.h ****   }
 6955              		.loc 5 160 0
 6956 266c 010080E0 		add	r0, r0, r1
 6957              	.LVL826:
 6958              	.L269:
 166:C:/Renesas/e2studio_2021_01_workspace_RZA2M_ANPR/ANPR_RZA2M_EBK/src/tensorflow_lite/tensorflow/lite/kernels/internal\strided_slice_logic.h ****     // Forward iteration
 6959              		.loc 5 166 0
 6960 2670 00005EE3 		cmp	lr, #0
 6961 2674 ABFEFFCA 		bgt	.L267
 171:C:/Renesas/e2studio_2021_01_workspace_RZA2M_ANPR/ANPR_RZA2M_EBK/src/tensorflow_lite/tensorflow/lite/kernels/internal\strided_slice_logic.h ****   }
 6962              		.loc 5 171 0
 6963 2678 011041E2 		sub	r1, r1, #1
 6964              	.LBB1823:
 6965              	.LBB1824:
  30:C:/Renesas/e2studio_2021_01_workspace_RZA2M_ANPR/ANPR_RZA2M_EBK/src/tensorflow_lite/tensorflow/lite/kernels/internal\strided_slice_logic.h ****   if (hi < v) return hi;
 6966              		.loc 5 30 0
 6967 267c 010071E3 		cmn	r1, #1
 6968              	.LBE1824:
 6969              	.LBE1823:
 171:C:/Renesas/e2studio_2021_01_workspace_RZA2M_ANPR/ANPR_RZA2M_EBK/src/tensorflow_lite/tensorflow/lite/kernels/internal\strided_slice_logic.h ****   }
 6970              		.loc 5 171 0
 6971 2680 0C108DE5 		str	r1, [sp, #12]
 6972              	.LVL827:
 6973              	.LBB1827:
 6974              	.LBB1825:
  30:C:/Renesas/e2studio_2021_01_workspace_RZA2M_ANPR/ANPR_RZA2M_EBK/src/tensorflow_lite/tensorflow/lite/kernels/internal\strided_slice_logic.h ****   if (hi < v) return hi;
 6975              		.loc 5 30 0
 6976 2684 040000BA 		blt	.L1183
  31:C:/Renesas/e2studio_2021_01_workspace_RZA2M_ANPR/ANPR_RZA2M_EBK/src/tensorflow_lite/tensorflow/lite/kernels/internal\strided_slice_logic.h ****   if (v < lo) return lo;
 6977              		.loc 5 31 0
 6978 2688 010050E1 		cmp	r0, r1
 6979 268c C01F80D1 		orrle	r1, r0, r0, asr #31
 6980              	.LVL828:
 6981 2690 0C108DD5 		strle	r1, [sp, #12]
 6982              	.LVL829:
 6983 2694 A9FEFFEA 		b	.L256
 6984              	.LVL830:
 6985              	.L1165:
 6986              	.LBE1825:
 6987              	.LBE1827:
 6988              	.LBB1828:
 6989              	.LBB1822:
  30:C:/Renesas/e2studio_2021_01_workspace_RZA2M_ANPR/ANPR_RZA2M_EBK/src/tensorflow_lite/tensorflow/lite/kernels/internal\strided_slice_logic.h ****   if (hi < v) return hi;
 6990              		.loc 5 30 0
 6991 2698 FEFFFFEB 		bl	abort
 6992              	.LVL831:
 6993              	.L1183:
 6994              	.LBE1822:
 6995              	.LBE1828:
 6996              	.LBB1829:
 6997              	.LBB1826:
 6998 269c FEFFFFEB 		bl	abort
 6999              	.LVL832:
 7000              	.L1164:
 7001              	.LBE1826:
 7002              	.LBE1829:
 143:C:/Renesas/e2studio_2021_01_workspace_RZA2M_ANPR/ANPR_RZA2M_EBK/src/tensorflow_lite/tensorflow/lite/kernels/internal\strided_slice_logic.h ****   }
 7003              		.loc 5 143 0
 7004 26a0 08109DE5 		ldr	r1, [sp, #8]
 7005 26a4 011081E2 		add	r1, r1, #1
 7006 26a8 0C108DE5 		str	r1, [sp, #12]
 7007 26ac A3FEFFEA 		b	.L256
 7008              	.LVL833:
 7009              	.L1163:
 7010              	.LBE1830:
 7011              	.LBE1950:
 7012              	.LBB1951:
 7013              	.LBB1816:
 7014              	.LBB1806:
 7015              	.LBB1805:
  30:C:/Renesas/e2studio_2021_01_workspace_RZA2M_ANPR/ANPR_RZA2M_EBK/src/tensorflow_lite/tensorflow/lite/kernels/internal\strided_slice_logic.h ****   if (hi < v) return hi;
 7016              		.loc 5 30 0
 7017 26b0 FEFFFFEB 		bl	abort
 7018              	.LVL834:
 7019              	.L262:
 7020              	.LBE1805:
 7021              	.LBE1806:
 111:C:/Renesas/e2studio_2021_01_workspace_RZA2M_ANPR/ANPR_RZA2M_EBK/src/tensorflow_lite/tensorflow/lite/kernels/internal\strided_slice_logic.h ****   }
 7022              		.loc 5 111 0
 7023 26b4 018041E2 		sub	r8, r1, #1
 7024              	.LBB1807:
 7025              	.LBB1808:
  30:C:/Renesas/e2studio_2021_01_workspace_RZA2M_ANPR/ANPR_RZA2M_EBK/src/tensorflow_lite/tensorflow/lite/kernels/internal\strided_slice_logic.h ****   if (hi < v) return hi;
 7026              		.loc 5 30 0
 7027 26b8 010078E3 		cmn	r8, #1
 7028              	.LBE1808:
 7029              	.LBE1807:
 111:C:/Renesas/e2studio_2021_01_workspace_RZA2M_ANPR/ANPR_RZA2M_EBK/src/tensorflow_lite/tensorflow/lite/kernels/internal\strided_slice_logic.h ****   }
 7030              		.loc 5 111 0
 7031 26bc 08808DE5 		str	r8, [sp, #8]
 7032              	.LVL835:
 7033              	.LBB1812:
 7034              	.LBB1809:
  30:C:/Renesas/e2studio_2021_01_workspace_RZA2M_ANPR/ANPR_RZA2M_EBK/src/tensorflow_lite/tensorflow/lite/kernels/internal\strided_slice_logic.h ****   if (hi < v) return hi;
 7035              		.loc 5 30 0
 7036 26c0 070000BA 		blt	.L537
  31:C:/Renesas/e2studio_2021_01_workspace_RZA2M_ANPR/ANPR_RZA2M_EBK/src/tensorflow_lite/tensorflow/lite/kernels/internal\strided_slice_logic.h ****   if (v < lo) return lo;
 7037              		.loc 5 31 0
 7038 26c4 080050E1 		cmp	r0, r8
 7039 26c8 C00F80D1 		orrle	r0, r0, r0, asr #31
 7040              	.LVL836:
 7041 26cc 08008DD5 		strle	r0, [sp, #8]
 7042 26d0 8BFEFFEA 		b	.L264
 7043              	.LVL837:
 7044              	.L1162:
 7045              	.LBE1809:
 7046              	.LBE1812:
 111:C:/Renesas/e2studio_2021_01_workspace_RZA2M_ANPR/ANPR_RZA2M_EBK/src/tensorflow_lite/tensorflow/lite/kernels/internal\strided_slice_logic.h ****   }
 7047              		.loc 5 111 0
 7048 26d4 010041E2 		sub	r0, r1, #1
 7049              	.LBB1813:
 7050              	.LBB1810:
  30:C:/Renesas/e2studio_2021_01_workspace_RZA2M_ANPR/ANPR_RZA2M_EBK/src/tensorflow_lite/tensorflow/lite/kernels/internal\strided_slice_logic.h ****   if (hi < v) return hi;
 7051              		.loc 5 30 0
 7052 26d8 010070E3 		cmn	r0, #1
 7053              	.LBE1810:
 7054              	.LBE1813:
 111:C:/Renesas/e2studio_2021_01_workspace_RZA2M_ANPR/ANPR_RZA2M_EBK/src/tensorflow_lite/tensorflow/lite/kernels/internal\strided_slice_logic.h ****   }
 7055              		.loc 5 111 0
 7056 26dc 08008DE5 		str	r0, [sp, #8]
 7057              	.LVL838:
 7058              	.LBB1814:
 7059              	.LBB1811:
  30:C:/Renesas/e2studio_2021_01_workspace_RZA2M_ANPR/ANPR_RZA2M_EBK/src/tensorflow_lite/tensorflow/lite/kernels/internal\strided_slice_logic.h ****   if (hi < v) return hi;
 7060              		.loc 5 30 0
 7061 26e0 87FEFFAA 		bge	.L264
 7062              	.LVL839:
 7063              	.L537:
 7064 26e4 FEFFFFEB 		bl	abort
 7065              	.LVL840:
 7066              	.L257:
 7067              	.LBE1811:
 7068              	.LBE1814:
 101:C:/Renesas/e2studio_2021_01_workspace_RZA2M_ANPR/ANPR_RZA2M_EBK/src/tensorflow_lite/tensorflow/lite/kernels/internal\strided_slice_logic.h ****     start += axis_size;
 7069              		.loc 5 101 0
 7070 26e8 000050E3 		cmp	r0, #0
 7071 26ec 7CFEFFAA 		bge	.L261
 7072 26f0 7AFEFFEA 		b	.L258
 7073              	.LVL841:
 7074              	.L585:
  82:C:/Renesas/e2studio_2021_01_workspace_RZA2M_ANPR/ANPR_RZA2M_EBK/src/tensorflow_lite/tensorflow/lite/kernels/internal\strided_slice_logic.h ****   }
 7075              		.loc 5 82 0
 7076 26f4 08108DE5 		str	r1, [sp, #8]
 7077              	.LBE1816:
 7078              	.LBE1951:
 7079              	.LBB1952:
 7080              	.LBB1831:
 131:C:/Renesas/e2studio_2021_01_workspace_RZA2M_ANPR/ANPR_RZA2M_EBK/src/tensorflow_lite/tensorflow/lite/kernels/internal\strided_slice_logic.h ****   }
 7081              		.loc 5 131 0
 7082 26f8 0C108DE5 		str	r1, [sp, #12]
 7083 26fc 8FFEFFEA 		b	.L256
 7084              	.LVL842:
 7085              	.L1161:
 7086              	.LBE1831:
 7087              	.LBE1952:
 7088              	.LBB1953:
 7089              	.LBB1817:
 7090              	.LBB1815:
 7091              	.LBB1802:
 215:C:/Renesas/e2studio_2021_01_workspace_RZA2M_ANPR/ANPR_RZA2M_EBK/src/tensorflow_lite/tensorflow/lite/kernels/internal\types.h ****     return size_ > kMaxSmallSize ? dims_pointer_[i] : dims_[i];
 7092              		.loc 4 215 0
 7093 2700 FEFFFFEB 		bl	abort
 7094              	.LVL843:
 7095              	.L1160:
 7096              	.LBE1802:
 7097              	.LBE1815:
 7098              	.LBE1817:
 7099              	.LBE1953:
 7100              	.LBB1954:
 7101              	.LBB1795:
 7102              	.LBB1788:
 7103              	.LBB1787:
  30:C:/Renesas/e2studio_2021_01_workspace_RZA2M_ANPR/ANPR_RZA2M_EBK/src/tensorflow_lite/tensorflow/lite/kernels/internal\strided_slice_logic.h ****   if (hi < v) return hi;
 7104              		.loc 5 30 0
 7105 2704 FEFFFFEB 		bl	abort
 7106              	.LVL844:
 7107              	.L246:
 7108              	.LBE1787:
 7109              	.LBE1788:
 159:C:/Renesas/e2studio_2021_01_workspace_RZA2M_ANPR/ANPR_RZA2M_EBK/src/tensorflow_lite/tensorflow/lite/kernels/internal\strided_slice_logic.h ****     stop += axis_size;
 7110              		.loc 5 159 0
 7111 2708 000050E3 		cmp	r0, #0
 7112 270c 000000AA 		bge	.L249
 7113              	.LVL845:
 7114              	.L248:
 160:C:/Renesas/e2studio_2021_01_workspace_RZA2M_ANPR/ANPR_RZA2M_EBK/src/tensorflow_lite/tensorflow/lite/kernels/internal\strided_slice_logic.h ****   }
 7115              		.loc 5 160 0
 7116 2710 010080E0 		add	r0, r0, r1
 7117              	.LVL846:
 7118              	.L249:
 166:C:/Renesas/e2studio_2021_01_workspace_RZA2M_ANPR/ANPR_RZA2M_EBK/src/tensorflow_lite/tensorflow/lite/kernels/internal\strided_slice_logic.h ****     // Forward iteration
 7119              		.loc 5 166 0
 7120 2714 00005EE3 		cmp	lr, #0
 7121 2718 5AFEFFCA 		bgt	.L247
 171:C:/Renesas/e2studio_2021_01_workspace_RZA2M_ANPR/ANPR_RZA2M_EBK/src/tensorflow_lite/tensorflow/lite/kernels/internal\strided_slice_logic.h ****   }
 7122              		.loc 5 171 0
 7123 271c 011041E2 		sub	r1, r1, #1
 7124              	.LBB1789:
 7125              	.LBB1790:
  30:C:/Renesas/e2studio_2021_01_workspace_RZA2M_ANPR/ANPR_RZA2M_EBK/src/tensorflow_lite/tensorflow/lite/kernels/internal\strided_slice_logic.h ****   if (hi < v) return hi;
 7126              		.loc 5 30 0
 7127 2720 010071E3 		cmn	r1, #1
 7128              	.LBE1790:
 7129              	.LBE1789:
 171:C:/Renesas/e2studio_2021_01_workspace_RZA2M_ANPR/ANPR_RZA2M_EBK/src/tensorflow_lite/tensorflow/lite/kernels/internal\strided_slice_logic.h ****   }
 7130              		.loc 5 171 0
 7131 2724 34108DE5 		str	r1, [sp, #52]
 7132              	.LVL847:
 7133              	.LBB1793:
 7134              	.LBB1791:
  30:C:/Renesas/e2studio_2021_01_workspace_RZA2M_ANPR/ANPR_RZA2M_EBK/src/tensorflow_lite/tensorflow/lite/kernels/internal\strided_slice_logic.h ****   if (hi < v) return hi;
 7135              		.loc 5 30 0
 7136 2728 080000BA 		blt	.L1184
  31:C:/Renesas/e2studio_2021_01_workspace_RZA2M_ANPR/ANPR_RZA2M_EBK/src/tensorflow_lite/tensorflow/lite/kernels/internal\strided_slice_logic.h ****   if (v < lo) return lo;
 7137              		.loc 5 31 0
 7138 272c 010050E1 		cmp	r0, r1
 7139 2730 C01F80D1 		orrle	r1, r0, r0, asr #31
 7140              	.LVL848:
 7141 2734 34108DD5 		strle	r1, [sp, #52]
 7142              	.LVL849:
 7143 2738 58FEFFEA 		b	.L236
 7144              	.LVL850:
 7145              	.L1159:
 7146              	.LBE1791:
 7147              	.LBE1793:
 143:C:/Renesas/e2studio_2021_01_workspace_RZA2M_ANPR/ANPR_RZA2M_EBK/src/tensorflow_lite/tensorflow/lite/kernels/internal\strided_slice_logic.h ****   }
 7148              		.loc 5 143 0
 7149 273c 14109DE5 		ldr	r1, [sp, #20]
 7150 2740 011081E2 		add	r1, r1, #1
 7151 2744 34108DE5 		str	r1, [sp, #52]
 7152 2748 54FEFFEA 		b	.L236
 7153              	.LVL851:
 7154              	.L1158:
 7155              	.LBE1795:
 7156              	.LBE1954:
 7157              	.LBB1955:
 7158              	.LBB1780:
 7159              	.LBB1770:
 7160              	.LBB1769:
  30:C:/Renesas/e2studio_2021_01_workspace_RZA2M_ANPR/ANPR_RZA2M_EBK/src/tensorflow_lite/tensorflow/lite/kernels/internal\strided_slice_logic.h ****   if (hi < v) return hi;
 7161              		.loc 5 30 0
 7162 274c FEFFFFEB 		bl	abort
 7163              	.LVL852:
 7164              	.L1184:
 7165              	.LBE1769:
 7166              	.LBE1770:
 7167              	.LBE1780:
 7168              	.LBE1955:
 7169              	.LBB1956:
 7170              	.LBB1796:
 7171              	.LBB1794:
 7172              	.LBB1792:
 7173 2750 FEFFFFEB 		bl	abort
 7174              	.LVL853:
 7175              	.L242:
 7176              	.LBE1792:
 7177              	.LBE1794:
 7178              	.LBE1796:
 7179              	.LBE1956:
 7180              	.LBB1957:
 7181              	.LBB1781:
 111:C:/Renesas/e2studio_2021_01_workspace_RZA2M_ANPR/ANPR_RZA2M_EBK/src/tensorflow_lite/tensorflow/lite/kernels/internal\strided_slice_logic.h ****   }
 7182              		.loc 5 111 0
 7183 2754 018041E2 		sub	r8, r1, #1
 7184              	.LBB1771:
 7185              	.LBB1772:
  30:C:/Renesas/e2studio_2021_01_workspace_RZA2M_ANPR/ANPR_RZA2M_EBK/src/tensorflow_lite/tensorflow/lite/kernels/internal\strided_slice_logic.h ****   if (hi < v) return hi;
 7186              		.loc 5 30 0
 7187 2758 010078E3 		cmn	r8, #1
 7188              	.LBE1772:
 7189              	.LBE1771:
 111:C:/Renesas/e2studio_2021_01_workspace_RZA2M_ANPR/ANPR_RZA2M_EBK/src/tensorflow_lite/tensorflow/lite/kernels/internal\strided_slice_logic.h ****   }
 7190              		.loc 5 111 0
 7191 275c 14808DE5 		str	r8, [sp, #20]
 7192              	.LVL854:
 7193              	.LBB1776:
 7194              	.LBB1773:
  30:C:/Renesas/e2studio_2021_01_workspace_RZA2M_ANPR/ANPR_RZA2M_EBK/src/tensorflow_lite/tensorflow/lite/kernels/internal\strided_slice_logic.h ****   if (hi < v) return hi;
 7195              		.loc 5 30 0
 7196 2760 070000BA 		blt	.L536
  31:C:/Renesas/e2studio_2021_01_workspace_RZA2M_ANPR/ANPR_RZA2M_EBK/src/tensorflow_lite/tensorflow/lite/kernels/internal\strided_slice_logic.h ****   if (v < lo) return lo;
 7197              		.loc 5 31 0
 7198 2764 080050E1 		cmp	r0, r8
 7199 2768 C00F80D1 		orrle	r0, r0, r0, asr #31
 7200              	.LVL855:
 7201 276c 14008DD5 		strle	r0, [sp, #20]
 7202 2770 3BFEFFEA 		b	.L244
 7203              	.LVL856:
 7204              	.L1157:
 7205              	.LBE1773:
 7206              	.LBE1776:
 111:C:/Renesas/e2studio_2021_01_workspace_RZA2M_ANPR/ANPR_RZA2M_EBK/src/tensorflow_lite/tensorflow/lite/kernels/internal\strided_slice_logic.h ****   }
 7207              		.loc 5 111 0
 7208 2774 010041E2 		sub	r0, r1, #1
 7209              	.LBB1777:
 7210              	.LBB1774:
  30:C:/Renesas/e2studio_2021_01_workspace_RZA2M_ANPR/ANPR_RZA2M_EBK/src/tensorflow_lite/tensorflow/lite/kernels/internal\strided_slice_logic.h ****   if (hi < v) return hi;
 7211              		.loc 5 30 0
 7212 2778 010070E3 		cmn	r0, #1
 7213              	.LBE1774:
 7214              	.LBE1777:
 111:C:/Renesas/e2studio_2021_01_workspace_RZA2M_ANPR/ANPR_RZA2M_EBK/src/tensorflow_lite/tensorflow/lite/kernels/internal\strided_slice_logic.h ****   }
 7215              		.loc 5 111 0
 7216 277c 14008DE5 		str	r0, [sp, #20]
 7217              	.LVL857:
 7218              	.LBB1778:
 7219              	.LBB1775:
  30:C:/Renesas/e2studio_2021_01_workspace_RZA2M_ANPR/ANPR_RZA2M_EBK/src/tensorflow_lite/tensorflow/lite/kernels/internal\strided_slice_logic.h ****   if (hi < v) return hi;
 7220              		.loc 5 30 0
 7221 2780 37FEFFAA 		bge	.L244
 7222              	.LVL858:
 7223              	.L536:
 7224 2784 FEFFFFEB 		bl	abort
 7225              	.LVL859:
 7226              	.L237:
 7227              	.LBE1775:
 7228              	.LBE1778:
 101:C:/Renesas/e2studio_2021_01_workspace_RZA2M_ANPR/ANPR_RZA2M_EBK/src/tensorflow_lite/tensorflow/lite/kernels/internal\strided_slice_logic.h ****     start += axis_size;
 7229              		.loc 5 101 0
 7230 2788 000050E3 		cmp	r0, #0
 7231 278c 2CFEFFAA 		bge	.L241
 7232 2790 2AFEFFEA 		b	.L238
 7233              	.LVL860:
 7234              	.L580:
  82:C:/Renesas/e2studio_2021_01_workspace_RZA2M_ANPR/ANPR_RZA2M_EBK/src/tensorflow_lite/tensorflow/lite/kernels/internal\strided_slice_logic.h ****   }
 7235              		.loc 5 82 0
 7236 2794 14108DE5 		str	r1, [sp, #20]
 7237              	.LBE1781:
 7238              	.LBE1957:
 7239              	.LBB1958:
 7240              	.LBB1797:
 131:C:/Renesas/e2studio_2021_01_workspace_RZA2M_ANPR/ANPR_RZA2M_EBK/src/tensorflow_lite/tensorflow/lite/kernels/internal\strided_slice_logic.h ****   }
 7241              		.loc 5 131 0
 7242 2798 34108DE5 		str	r1, [sp, #52]
 7243 279c 3FFEFFEA 		b	.L236
 7244              	.LVL861:
 7245              	.L1156:
 7246              	.LBE1797:
 7247              	.LBE1958:
 7248              	.LBB1959:
 7249              	.LBB1782:
 7250              	.LBB1779:
 7251              	.LBB1766:
 215:C:/Renesas/e2studio_2021_01_workspace_RZA2M_ANPR/ANPR_RZA2M_EBK/src/tensorflow_lite/tensorflow/lite/kernels/internal\types.h ****     return size_ > kMaxSmallSize ? dims_pointer_[i] : dims_[i];
 7252              		.loc 4 215 0
 7253 27a0 FEFFFFEB 		bl	abort
 7254              	.LVL862:
 7255              	.L1155:
 7256              	.LBE1766:
 7257              	.LBE1779:
 7258              	.LBE1782:
 7259              	.LBE1959:
 7260              	.LBB1960:
 7261              	.LBB1759:
 7262              	.LBB1752:
 7263              	.LBB1751:
  30:C:/Renesas/e2studio_2021_01_workspace_RZA2M_ANPR/ANPR_RZA2M_EBK/src/tensorflow_lite/tensorflow/lite/kernels/internal\strided_slice_logic.h ****   if (hi < v) return hi;
 7264              		.loc 5 30 0
 7265 27a4 FEFFFFEB 		bl	abort
 7266              	.LVL863:
 7267              	.L226:
 7268              	.LBE1751:
 7269              	.LBE1752:
 159:C:/Renesas/e2studio_2021_01_workspace_RZA2M_ANPR/ANPR_RZA2M_EBK/src/tensorflow_lite/tensorflow/lite/kernels/internal\strided_slice_logic.h ****     stop += axis_size;
 7270              		.loc 5 159 0
 7271 27a8 000051E3 		cmp	r1, #0
 7272 27ac 000000AA 		bge	.L229
 7273              	.LVL864:
 7274              	.L228:
 160:C:/Renesas/e2studio_2021_01_workspace_RZA2M_ANPR/ANPR_RZA2M_EBK/src/tensorflow_lite/tensorflow/lite/kernels/internal\strided_slice_logic.h ****   }
 7275              		.loc 5 160 0
 7276 27b0 021081E0 		add	r1, r1, r2
 7277              	.LVL865:
 7278              	.L229:
 166:C:/Renesas/e2studio_2021_01_workspace_RZA2M_ANPR/ANPR_RZA2M_EBK/src/tensorflow_lite/tensorflow/lite/kernels/internal\strided_slice_logic.h ****     // Forward iteration
 7279              		.loc 5 166 0
 7280 27b4 000050E3 		cmp	r0, #0
 7281 27b8 0AFEFFCA 		bgt	.L227
 171:C:/Renesas/e2studio_2021_01_workspace_RZA2M_ANPR/ANPR_RZA2M_EBK/src/tensorflow_lite/tensorflow/lite/kernels/internal\strided_slice_logic.h ****   }
 7282              		.loc 5 171 0
 7283 27bc 010042E2 		sub	r0, r2, #1
 7284              	.LBB1753:
 7285              	.LBB1754:
  30:C:/Renesas/e2studio_2021_01_workspace_RZA2M_ANPR/ANPR_RZA2M_EBK/src/tensorflow_lite/tensorflow/lite/kernels/internal\strided_slice_logic.h ****   if (hi < v) return hi;
 7286              		.loc 5 30 0
 7287 27c0 010070E3 		cmn	r0, #1
 7288              	.LBE1754:
 7289              	.LBE1753:
 171:C:/Renesas/e2studio_2021_01_workspace_RZA2M_ANPR/ANPR_RZA2M_EBK/src/tensorflow_lite/tensorflow/lite/kernels/internal\strided_slice_logic.h ****   }
 7290              		.loc 5 171 0
 7291 27c4 30008DE5 		str	r0, [sp, #48]
 7292              	.LVL866:
 7293              	.LBB1757:
 7294              	.LBB1755:
  30:C:/Renesas/e2studio_2021_01_workspace_RZA2M_ANPR/ANPR_RZA2M_EBK/src/tensorflow_lite/tensorflow/lite/kernels/internal\strided_slice_logic.h ****   if (hi < v) return hi;
 7295              		.loc 5 30 0
 7296 27c8 150000BA 		blt	.L1185
  31:C:/Renesas/e2studio_2021_01_workspace_RZA2M_ANPR/ANPR_RZA2M_EBK/src/tensorflow_lite/tensorflow/lite/kernels/internal\strided_slice_logic.h ****   if (v < lo) return lo;
 7297              		.loc 5 31 0
 7298 27cc 000051E1 		cmp	r1, r0
 7299 27d0 C11F81D1 		orrle	r1, r1, r1, asr #31
 7300              	.LVL867:
 7301 27d4 30108DD5 		strle	r1, [sp, #48]
 7302 27d8 08FEFFEA 		b	.L216
 7303              	.LVL868:
 7304              	.L1154:
 7305              	.LBE1755:
 7306              	.LBE1757:
 143:C:/Renesas/e2studio_2021_01_workspace_RZA2M_ANPR/ANPR_RZA2M_EBK/src/tensorflow_lite/tensorflow/lite/kernels/internal\strided_slice_logic.h ****   }
 7307              		.loc 5 143 0
 7308 27dc 18109DE5 		ldr	r1, [sp, #24]
 7309              	.LVL869:
 7310 27e0 011081E2 		add	r1, r1, #1
 7311 27e4 30108DE5 		str	r1, [sp, #48]
 7312 27e8 04FEFFEA 		b	.L216
 7313              	.LVL870:
 7314              	.L222:
 7315              	.LBE1759:
 7316              	.LBE1960:
 7317              	.LBB1961:
 7318              	.LBB1744:
 111:C:/Renesas/e2studio_2021_01_workspace_RZA2M_ANPR/ANPR_RZA2M_EBK/src/tensorflow_lite/tensorflow/lite/kernels/internal\strided_slice_logic.h ****   }
 7319              		.loc 5 111 0
 7320 27ec 01E042E2 		sub	lr, r2, #1
 7321              	.LBB1734:
 7322              	.LBB1735:
  30:C:/Renesas/e2studio_2021_01_workspace_RZA2M_ANPR/ANPR_RZA2M_EBK/src/tensorflow_lite/tensorflow/lite/kernels/internal\strided_slice_logic.h ****   if (hi < v) return hi;
 7323              		.loc 5 30 0
 7324 27f0 01007EE3 		cmn	lr, #1
 7325              	.LBE1735:
 7326              	.LBE1734:
 111:C:/Renesas/e2studio_2021_01_workspace_RZA2M_ANPR/ANPR_RZA2M_EBK/src/tensorflow_lite/tensorflow/lite/kernels/internal\strided_slice_logic.h ****   }
 7327              		.loc 5 111 0
 7328 27f4 18E08DE5 		str	lr, [sp, #24]
 7329              	.LVL871:
 7330              	.LBB1739:
 7331              	.LBB1736:
  30:C:/Renesas/e2studio_2021_01_workspace_RZA2M_ANPR/ANPR_RZA2M_EBK/src/tensorflow_lite/tensorflow/lite/kernels/internal\strided_slice_logic.h ****   if (hi < v) return hi;
 7332              		.loc 5 30 0
 7333 27f8 070000BA 		blt	.L535
  31:C:/Renesas/e2studio_2021_01_workspace_RZA2M_ANPR/ANPR_RZA2M_EBK/src/tensorflow_lite/tensorflow/lite/kernels/internal\strided_slice_logic.h ****   if (v < lo) return lo;
 7334              		.loc 5 31 0
 7335 27fc 0E0051E1 		cmp	r1, lr
 7336 2800 C11F81D1 		orrle	r1, r1, r1, asr #31
 7337              	.LVL872:
 7338 2804 18108DD5 		strle	r1, [sp, #24]
 7339 2808 EDFDFFEA 		b	.L224
 7340              	.LVL873:
 7341              	.L1152:
 7342              	.LBE1736:
 7343              	.LBE1739:
 111:C:/Renesas/e2studio_2021_01_workspace_RZA2M_ANPR/ANPR_RZA2M_EBK/src/tensorflow_lite/tensorflow/lite/kernels/internal\strided_slice_logic.h ****   }
 7344              		.loc 5 111 0
 7345 280c 011042E2 		sub	r1, r2, #1
 7346              	.LBB1740:
 7347              	.LBB1737:
  30:C:/Renesas/e2studio_2021_01_workspace_RZA2M_ANPR/ANPR_RZA2M_EBK/src/tensorflow_lite/tensorflow/lite/kernels/internal\strided_slice_logic.h ****   if (hi < v) return hi;
 7348              		.loc 5 30 0
 7349 2810 010071E3 		cmn	r1, #1
 7350              	.LBE1737:
 7351              	.LBE1740:
 111:C:/Renesas/e2studio_2021_01_workspace_RZA2M_ANPR/ANPR_RZA2M_EBK/src/tensorflow_lite/tensorflow/lite/kernels/internal\strided_slice_logic.h ****   }
 7352              		.loc 5 111 0
 7353 2814 18108DE5 		str	r1, [sp, #24]
 7354              	.LVL874:
 7355              	.LBB1741:
 7356              	.LBB1738:
  30:C:/Renesas/e2studio_2021_01_workspace_RZA2M_ANPR/ANPR_RZA2M_EBK/src/tensorflow_lite/tensorflow/lite/kernels/internal\strided_slice_logic.h ****   if (hi < v) return hi;
 7357              		.loc 5 30 0
 7358 2818 E9FDFFAA 		bge	.L224
 7359              	.LVL875:
 7360              	.L535:
 7361 281c FEFFFFEB 		bl	abort
 7362              	.LVL876:
 7363              	.L1153:
 7364              	.LBE1738:
 7365              	.LBE1741:
 7366              	.LBB1742:
 7367              	.LBB1733:
 7368 2820 FEFFFFEB 		bl	abort
 7369              	.LVL877:
 7370              	.L1185:
 7371              	.LBE1733:
 7372              	.LBE1742:
 7373              	.LBE1744:
 7374              	.LBE1961:
 7375              	.LBB1962:
 7376              	.LBB1760:
 7377              	.LBB1758:
 7378              	.LBB1756:
 7379 2824 FEFFFFEB 		bl	abort
 7380              	.LVL878:
 7381              	.L217:
 7382              	.LBE1756:
 7383              	.LBE1758:
 7384              	.LBE1760:
 7385              	.LBE1962:
 7386              	.LBB1963:
 7387              	.LBB1745:
 101:C:/Renesas/e2studio_2021_01_workspace_RZA2M_ANPR/ANPR_RZA2M_EBK/src/tensorflow_lite/tensorflow/lite/kernels/internal\strided_slice_logic.h ****     start += axis_size;
 7388              		.loc 5 101 0
 7389 2828 000051E3 		cmp	r1, #0
 7390 282c DCFDFFAA 		bge	.L221
 7391 2830 DAFDFFEA 		b	.L218
 7392              	.LVL879:
 7393              	.L575:
  82:C:/Renesas/e2studio_2021_01_workspace_RZA2M_ANPR/ANPR_RZA2M_EBK/src/tensorflow_lite/tensorflow/lite/kernels/internal\strided_slice_logic.h ****   }
 7394              		.loc 5 82 0
 7395 2834 18208DE5 		str	r2, [sp, #24]
 7396              	.LBE1745:
 7397              	.LBE1963:
 7398              	.LBB1964:
 7399              	.LBB1761:
 131:C:/Renesas/e2studio_2021_01_workspace_RZA2M_ANPR/ANPR_RZA2M_EBK/src/tensorflow_lite/tensorflow/lite/kernels/internal\strided_slice_logic.h ****   }
 7400              		.loc 5 131 0
 7401 2838 30208DE5 		str	r2, [sp, #48]
 7402 283c EFFDFFEA 		b	.L216
 7403              	.LVL880:
 7404              	.L1151:
 7405              	.LBE1761:
 7406              	.LBE1964:
 7407              	.LBB1965:
 7408              	.LBB1746:
 7409              	.LBB1743:
 7410              	.LBB1730:
 215:C:/Renesas/e2studio_2021_01_workspace_RZA2M_ANPR/ANPR_RZA2M_EBK/src/tensorflow_lite/tensorflow/lite/kernels/internal\types.h ****     return size_ > kMaxSmallSize ? dims_pointer_[i] : dims_[i];
 7411              		.loc 4 215 0
 7412 2840 FEFFFFEB 		bl	abort
 7413              	.LVL881:
 7414              	.L1150:
 7415              	.LBE1730:
 7416              	.LBE1743:
 7417              	.LBE1746:
 7418              	.LBE1965:
 7419              	.LBB1966:
 7420              	.LBB1724:
 7421              	.LBB1719:
 7422              	.LBB1718:
  30:C:/Renesas/e2studio_2021_01_workspace_RZA2M_ANPR/ANPR_RZA2M_EBK/src/tensorflow_lite/tensorflow/lite/kernels/internal\strided_slice_logic.h ****   if (hi < v) return hi;
 7423              		.loc 5 30 0
 7424 2844 FEFFFFEB 		bl	abort
 7425              	.LVL882:
 7426              	.L206:
 7427              	.LBE1718:
 7428              	.LBE1719:
 159:C:/Renesas/e2studio_2021_01_workspace_RZA2M_ANPR/ANPR_RZA2M_EBK/src/tensorflow_lite/tensorflow/lite/kernels/internal\strided_slice_logic.h ****     stop += axis_size;
 7429              		.loc 5 159 0
 7430 2848 000052E3 		cmp	r2, #0
 7431 284c 000000AA 		bge	.L209
 7432              	.LVL883:
 7433              	.L208:
 160:C:/Renesas/e2studio_2021_01_workspace_RZA2M_ANPR/ANPR_RZA2M_EBK/src/tensorflow_lite/tensorflow/lite/kernels/internal\strided_slice_logic.h ****   }
 7434              		.loc 5 160 0
 7435 2850 0C2082E0 		add	r2, r2, ip
 7436              	.LVL884:
 7437              	.L209:
 166:C:/Renesas/e2studio_2021_01_workspace_RZA2M_ANPR/ANPR_RZA2M_EBK/src/tensorflow_lite/tensorflow/lite/kernels/internal\strided_slice_logic.h ****     // Forward iteration
 7438              		.loc 5 166 0
 7439 2854 000051E3 		cmp	r1, #0
 7440 2858 BCFDFFCA 		bgt	.L207
 171:C:/Renesas/e2studio_2021_01_workspace_RZA2M_ANPR/ANPR_RZA2M_EBK/src/tensorflow_lite/tensorflow/lite/kernels/internal\strided_slice_logic.h ****   }
 7441              		.loc 5 171 0
 7442 285c 01C04CE2 		sub	ip, ip, #1
 7443              	.LVL885:
 7444              	.LBB1720:
 7445              	.LBB1721:
  30:C:/Renesas/e2studio_2021_01_workspace_RZA2M_ANPR/ANPR_RZA2M_EBK/src/tensorflow_lite/tensorflow/lite/kernels/internal\strided_slice_logic.h ****   if (hi < v) return hi;
 7446              		.loc 5 30 0
 7447 2860 01007CE3 		cmn	ip, #1
 7448 2864 050000BA 		blt	.L1186
  31:C:/Renesas/e2studio_2021_01_workspace_RZA2M_ANPR/ANPR_RZA2M_EBK/src/tensorflow_lite/tensorflow/lite/kernels/internal\strided_slice_logic.h ****   if (v < lo) return lo;
 7449              		.loc 5 31 0
 7450 2868 0C0052E1 		cmp	r2, ip
 7451 286c C2CF82D1 		orrle	ip, r2, r2, asr #31
 7452              	.LVL886:
 7453 2870 BAFDFFEA 		b	.L196
 7454              	.LVL887:
 7455              	.L1149:
 7456              	.LBE1721:
 7457              	.LBE1720:
 143:C:/Renesas/e2studio_2021_01_workspace_RZA2M_ANPR/ANPR_RZA2M_EBK/src/tensorflow_lite/tensorflow/lite/kernels/internal\strided_slice_logic.h ****   }
 7458              		.loc 5 143 0
 7459 2874 01C083E2 		add	ip, r3, #1
 7460 2878 B8FDFFEA 		b	.L196
 7461              	.LVL888:
 7462              	.L1148:
 7463              	.LBE1724:
 7464              	.LBE1966:
 7465              	.LBB1967:
 7466              	.LBB1708:
 7467              	.LBB1700:
 7468              	.LBB1699:
  30:C:/Renesas/e2studio_2021_01_workspace_RZA2M_ANPR/ANPR_RZA2M_EBK/src/tensorflow_lite/tensorflow/lite/kernels/internal\strided_slice_logic.h ****   if (hi < v) return hi;
 7469              		.loc 5 30 0
 7470 287c FEFFFFEB 		bl	abort
 7471              	.LVL889:
 7472              	.L1186:
 7473              	.LBE1699:
 7474              	.LBE1700:
 7475              	.LBE1708:
 7476              	.LBE1967:
 7477              	.LBB1968:
 7478              	.LBB1725:
 7479              	.LBB1723:
 7480              	.LBB1722:
 7481 2880 FEFFFFEB 		bl	abort
 7482              	.LVL890:
 7483              	.L202:
 7484              	.LBE1722:
 7485              	.LBE1723:
 7486              	.LBE1725:
 7487              	.LBE1968:
 7488              	.LBB1969:
 7489              	.LBB1709:
 111:C:/Renesas/e2studio_2021_01_workspace_RZA2M_ANPR/ANPR_RZA2M_EBK/src/tensorflow_lite/tensorflow/lite/kernels/internal\strided_slice_logic.h ****   }
 7490              		.loc 5 111 0
 7491 2884 01304CE2 		sub	r3, ip, #1
 7492              	.LVL891:
 7493              	.LBB1701:
 7494              	.LBB1702:
  30:C:/Renesas/e2studio_2021_01_workspace_RZA2M_ANPR/ANPR_RZA2M_EBK/src/tensorflow_lite/tensorflow/lite/kernels/internal\strided_slice_logic.h ****   if (hi < v) return hi;
 7495              		.loc 5 30 0
 7496 2888 010073E3 		cmn	r3, #1
 7497 288c 050000BA 		blt	.L534
  31:C:/Renesas/e2studio_2021_01_workspace_RZA2M_ANPR/ANPR_RZA2M_EBK/src/tensorflow_lite/tensorflow/lite/kernels/internal\strided_slice_logic.h ****   if (v < lo) return lo;
 7498              		.loc 5 31 0
 7499 2890 030052E1 		cmp	r2, r3
 7500 2894 C23F82D1 		orrle	r3, r2, r2, asr #31
 7501              	.LVL892:
 7502 2898 A3FDFFEA 		b	.L204
 7503              	.LVL893:
 7504              	.L1147:
 7505              	.LBE1702:
 7506              	.LBE1701:
 111:C:/Renesas/e2studio_2021_01_workspace_RZA2M_ANPR/ANPR_RZA2M_EBK/src/tensorflow_lite/tensorflow/lite/kernels/internal\strided_slice_logic.h ****   }
 7507              		.loc 5 111 0
 7508 289c 01304CE2 		sub	r3, ip, #1
 7509              	.LVL894:
 7510              	.LBB1704:
 7511              	.LBB1703:
  30:C:/Renesas/e2studio_2021_01_workspace_RZA2M_ANPR/ANPR_RZA2M_EBK/src/tensorflow_lite/tensorflow/lite/kernels/internal\strided_slice_logic.h ****   if (hi < v) return hi;
 7512              		.loc 5 30 0
 7513 28a0 010073E3 		cmn	r3, #1
 7514 28a4 A0FDFFAA 		bge	.L204
 7515              	.LVL895:
 7516              	.L534:
 7517 28a8 FEFFFFEB 		bl	abort
 7518              	.LVL896:
 7519              	.L197:
 7520              	.LBE1703:
 7521              	.LBE1704:
 101:C:/Renesas/e2studio_2021_01_workspace_RZA2M_ANPR/ANPR_RZA2M_EBK/src/tensorflow_lite/tensorflow/lite/kernels/internal\strided_slice_logic.h ****     start += axis_size;
 7522              		.loc 5 101 0
 7523 28ac 000052E3 		cmp	r2, #0
 7524 28b0 96FDFFAA 		bge	.L201
 7525 28b4 94FDFFEA 		b	.L198
 7526              	.LVL897:
 7527              	.L570:
  82:C:/Renesas/e2studio_2021_01_workspace_RZA2M_ANPR/ANPR_RZA2M_EBK/src/tensorflow_lite/tensorflow/lite/kernels/internal\strided_slice_logic.h ****   }
 7528              		.loc 5 82 0
 7529 28b8 0C30A0E1 		mov	r3, ip
 7530 28bc A7FDFFEA 		b	.L196
 7531              	.LVL898:
 7532              	.L1146:
 7533              	.LBB1705:
 7534              	.LBB1694:
 215:C:/Renesas/e2studio_2021_01_workspace_RZA2M_ANPR/ANPR_RZA2M_EBK/src/tensorflow_lite/tensorflow/lite/kernels/internal\types.h ****     return size_ > kMaxSmallSize ? dims_pointer_[i] : dims_[i];
 7535              		.loc 4 215 0
 7536 28c0 FEFFFFEB 		bl	abort
 7537              	.LVL899:
 7538              	.L1145:
 7539              	.LBE1694:
 7540              	.LBE1705:
 7541              	.LBE1709:
 7542              	.LBE1969:
 7543              	.LBB1970:
 7544              	.LBB1687:
  42:C:/Renesas/e2studio_2021_01_workspace_RZA2M_ANPR/ANPR_RZA2M_EBK/src/tensorflow_lite/tensorflow/lite/kernels/internal\strided_slice_logic.h **** 
 7545              		.loc 5 42 0
 7546 28c4 FEFFFFEB 		bl	abort
 7547              	.LVL900:
 7548              	.L1144:
  41:C:/Renesas/e2studio_2021_01_workspace_RZA2M_ANPR/ANPR_RZA2M_EBK/src/tensorflow_lite/tensorflow/lite/kernels/internal\strided_slice_logic.h ****   TFLITE_CHECK_EQ(p->stop_indices_count, p->strides_count);
 7549              		.loc 5 41 0
 7550 28c8 FEFFFFEB 		bl	abort
 7551              	.LVL901:
 7552              	.L1143:
  40:C:/Renesas/e2studio_2021_01_workspace_RZA2M_ANPR/ANPR_RZA2M_EBK/src/tensorflow_lite/tensorflow/lite/kernels/internal\strided_slice_logic.h ****   TFLITE_CHECK_EQ(p->start_indices_count, p->stop_indices_count);
 7553              		.loc 5 40 0
 7554 28cc FEFFFFEB 		bl	abort
 7555              	.LVL902:
 7556              	.LEHE23:
 7557              	.L385:
 7558              	.LBE1687:
 7559              	.LBE1970:
 7560              	.LBE1974:
 7561              	.LBE1978:
 7562              	.LBE1982:
 7563              	.LBE2009:
 7564              	.LBB2010:
 7565              	.LBB1619:
 7566              	.LBB1611:
 7567              	.LBB1603:
 7568              	.LBB1585:
 7569              	.LBB1379:
 159:C:/Renesas/e2studio_2021_01_workspace_RZA2M_ANPR/ANPR_RZA2M_EBK/src/tensorflow_lite/tensorflow/lite/kernels/internal\strided_slice_logic.h ****     stop += axis_size;
 7570              		.loc 5 159 0
 7571 28d0 000051E3 		cmp	r1, #0
 7572 28d4 000000AA 		bge	.L388
 7573              	.LVL903:
 7574              	.L387:
 160:C:/Renesas/e2studio_2021_01_workspace_RZA2M_ANPR/ANPR_RZA2M_EBK/src/tensorflow_lite/tensorflow/lite/kernels/internal\strided_slice_logic.h ****   }
 7575              		.loc 5 160 0
 7576 28d8 021081E0 		add	r1, r1, r2
 7577              	.LVL904:
 7578              	.L388:
 166:C:/Renesas/e2studio_2021_01_workspace_RZA2M_ANPR/ANPR_RZA2M_EBK/src/tensorflow_lite/tensorflow/lite/kernels/internal\strided_slice_logic.h ****     // Forward iteration
 7579              		.loc 5 166 0
 7580 28dc 000050E3 		cmp	r0, #0
 7581 28e0 5EFAFFCA 		bgt	.L386
 171:C:/Renesas/e2studio_2021_01_workspace_RZA2M_ANPR/ANPR_RZA2M_EBK/src/tensorflow_lite/tensorflow/lite/kernels/internal\strided_slice_logic.h ****   }
 7582              		.loc 5 171 0
 7583 28e4 010042E2 		sub	r0, r2, #1
 7584              	.LBB1372:
 7585              	.LBB1373:
  30:C:/Renesas/e2studio_2021_01_workspace_RZA2M_ANPR/ANPR_RZA2M_EBK/src/tensorflow_lite/tensorflow/lite/kernels/internal\strided_slice_logic.h ****   if (hi < v) return hi;
 7586              		.loc 5 30 0
 7587 28e8 010070E3 		cmn	r0, #1
 7588              	.LBE1373:
 7589              	.LBE1372:
 171:C:/Renesas/e2studio_2021_01_workspace_RZA2M_ANPR/ANPR_RZA2M_EBK/src/tensorflow_lite/tensorflow/lite/kernels/internal\strided_slice_logic.h ****   }
 7590              		.loc 5 171 0
 7591 28ec 34008DE5 		str	r0, [sp, #52]
 7592              	.LVL905:
 7593              	.LBB1376:
 7594              	.LBB1374:
  30:C:/Renesas/e2studio_2021_01_workspace_RZA2M_ANPR/ANPR_RZA2M_EBK/src/tensorflow_lite/tensorflow/lite/kernels/internal\strided_slice_logic.h ****   if (hi < v) return hi;
 7595              		.loc 5 30 0
 7596 28f0 080000BA 		blt	.L1187
  31:C:/Renesas/e2studio_2021_01_workspace_RZA2M_ANPR/ANPR_RZA2M_EBK/src/tensorflow_lite/tensorflow/lite/kernels/internal\strided_slice_logic.h ****   if (v < lo) return lo;
 7597              		.loc 5 31 0
 7598 28f4 000051E1 		cmp	r1, r0
 7599 28f8 C11F81D1 		orrle	r1, r1, r1, asr #31
 7600              	.LVL906:
 7601 28fc 34108DD5 		strle	r1, [sp, #52]
 7602 2900 5CFAFFEA 		b	.L375
 7603              	.LVL907:
 7604              	.L1109:
 7605              	.LBE1374:
 7606              	.LBE1376:
 143:C:/Renesas/e2studio_2021_01_workspace_RZA2M_ANPR/ANPR_RZA2M_EBK/src/tensorflow_lite/tensorflow/lite/kernels/internal\strided_slice_logic.h ****   }
 7607              		.loc 5 143 0
 7608 2904 18109DE5 		ldr	r1, [sp, #24]
 7609              	.LVL908:
 7610 2908 011081E2 		add	r1, r1, #1
 7611 290c 34108DE5 		str	r1, [sp, #52]
 7612 2910 58FAFFEA 		b	.L375
 7613              	.LVL909:
 7614              	.L1108:
 7615              	.LEHB24:
 7616              	.LBE1379:
 7617              	.LBE1585:
 7618              	.LBB1586:
 7619              	.LBB1365:
 7620              	.LBB1355:
 7621              	.LBB1353:
  30:C:/Renesas/e2studio_2021_01_workspace_RZA2M_ANPR/ANPR_RZA2M_EBK/src/tensorflow_lite/tensorflow/lite/kernels/internal\strided_slice_logic.h ****   if (hi < v) return hi;
 7622              		.loc 5 30 0
 7623 2914 FEFFFFEB 		bl	abort
 7624              	.LVL910:
 7625              	.L1187:
 7626              	.LBE1353:
 7627              	.LBE1355:
 7628              	.LBE1365:
 7629              	.LBE1586:
 7630              	.LBB1587:
 7631              	.LBB1380:
 7632              	.LBB1377:
 7633              	.LBB1375:
 7634 2918 FEFFFFEB 		bl	abort
 7635              	.LVL911:
 7636              	.L381:
 7637              	.LBE1375:
 7638              	.LBE1377:
 7639              	.LBE1380:
 7640              	.LBE1587:
 7641              	.LBB1588:
 7642              	.LBB1366:
 111:C:/Renesas/e2studio_2021_01_workspace_RZA2M_ANPR/ANPR_RZA2M_EBK/src/tensorflow_lite/tensorflow/lite/kernels/internal\strided_slice_logic.h ****   }
 7643              		.loc 5 111 0
 7644 291c 01E042E2 		sub	lr, r2, #1
 7645              	.LBB1356:
 7646              	.LBB1357:
  30:C:/Renesas/e2studio_2021_01_workspace_RZA2M_ANPR/ANPR_RZA2M_EBK/src/tensorflow_lite/tensorflow/lite/kernels/internal\strided_slice_logic.h ****   if (hi < v) return hi;
 7647              		.loc 5 30 0
 7648 2920 01007EE3 		cmn	lr, #1
 7649              	.LBE1357:
 7650              	.LBE1356:
 111:C:/Renesas/e2studio_2021_01_workspace_RZA2M_ANPR/ANPR_RZA2M_EBK/src/tensorflow_lite/tensorflow/lite/kernels/internal\strided_slice_logic.h ****   }
 7651              		.loc 5 111 0
 7652 2924 18E08DE5 		str	lr, [sp, #24]
 7653              	.LVL912:
 7654              	.LBB1361:
 7655              	.LBB1358:
  30:C:/Renesas/e2studio_2021_01_workspace_RZA2M_ANPR/ANPR_RZA2M_EBK/src/tensorflow_lite/tensorflow/lite/kernels/internal\strided_slice_logic.h ****   if (hi < v) return hi;
 7656              		.loc 5 30 0
 7657 2928 070000BA 		blt	.L540
  31:C:/Renesas/e2studio_2021_01_workspace_RZA2M_ANPR/ANPR_RZA2M_EBK/src/tensorflow_lite/tensorflow/lite/kernels/internal\strided_slice_logic.h ****   if (v < lo) return lo;
 7658              		.loc 5 31 0
 7659 292c 0E0051E1 		cmp	r1, lr
 7660 2930 C11F81D1 		orrle	r1, r1, r1, asr #31
 7661              	.LVL913:
 7662 2934 18108DD5 		strle	r1, [sp, #24]
 7663 2938 3FFAFFEA 		b	.L383
 7664              	.LVL914:
 7665              	.L1107:
 7666              	.LBE1358:
 7667              	.LBE1361:
 111:C:/Renesas/e2studio_2021_01_workspace_RZA2M_ANPR/ANPR_RZA2M_EBK/src/tensorflow_lite/tensorflow/lite/kernels/internal\strided_slice_logic.h ****   }
 7668              		.loc 5 111 0
 7669 293c 011042E2 		sub	r1, r2, #1
 7670              	.LBB1362:
 7671              	.LBB1359:
  30:C:/Renesas/e2studio_2021_01_workspace_RZA2M_ANPR/ANPR_RZA2M_EBK/src/tensorflow_lite/tensorflow/lite/kernels/internal\strided_slice_logic.h ****   if (hi < v) return hi;
 7672              		.loc 5 30 0
 7673 2940 010071E3 		cmn	r1, #1
 7674              	.LBE1359:
 7675              	.LBE1362:
 111:C:/Renesas/e2studio_2021_01_workspace_RZA2M_ANPR/ANPR_RZA2M_EBK/src/tensorflow_lite/tensorflow/lite/kernels/internal\strided_slice_logic.h ****   }
 7676              		.loc 5 111 0
 7677 2944 18108DE5 		str	r1, [sp, #24]
 7678              	.LVL915:
 7679              	.LBB1363:
 7680              	.LBB1360:
  30:C:/Renesas/e2studio_2021_01_workspace_RZA2M_ANPR/ANPR_RZA2M_EBK/src/tensorflow_lite/tensorflow/lite/kernels/internal\strided_slice_logic.h ****   if (hi < v) return hi;
 7681              		.loc 5 30 0
 7682 2948 3BFAFFAA 		bge	.L383
 7683              	.LVL916:
 7684              	.L540:
 7685 294c FEFFFFEB 		bl	abort
 7686              	.LVL917:
 7687              	.L376:
 7688              	.LBE1360:
 7689              	.LBE1363:
 101:C:/Renesas/e2studio_2021_01_workspace_RZA2M_ANPR/ANPR_RZA2M_EBK/src/tensorflow_lite/tensorflow/lite/kernels/internal\strided_slice_logic.h ****     start += axis_size;
 7690              		.loc 5 101 0
 7691 2950 000051E3 		cmp	r1, #0
 7692 2954 30FAFFAA 		bge	.L380
 7693 2958 2EFAFFEA 		b	.L377
 7694              	.LVL918:
 7695              	.L601:
  82:C:/Renesas/e2studio_2021_01_workspace_RZA2M_ANPR/ANPR_RZA2M_EBK/src/tensorflow_lite/tensorflow/lite/kernels/internal\strided_slice_logic.h ****   }
 7696              		.loc 5 82 0
 7697 295c 18208DE5 		str	r2, [sp, #24]
 7698              	.LBE1366:
 7699              	.LBE1588:
 7700              	.LBB1589:
 7701              	.LBB1381:
 131:C:/Renesas/e2studio_2021_01_workspace_RZA2M_ANPR/ANPR_RZA2M_EBK/src/tensorflow_lite/tensorflow/lite/kernels/internal\strided_slice_logic.h ****   }
 7702              		.loc 5 131 0
 7703 2960 34208DE5 		str	r2, [sp, #52]
 7704 2964 43FAFFEA 		b	.L375
 7705              	.LVL919:
 7706              	.L396:
 7707              	.LBE1381:
 7708              	.LBE1589:
 7709              	.LBB1590:
 7710              	.LBB1401:
 101:C:/Renesas/e2studio_2021_01_workspace_RZA2M_ANPR/ANPR_RZA2M_EBK/src/tensorflow_lite/tensorflow/lite/kernels/internal\strided_slice_logic.h ****     start += axis_size;
 7711              		.loc 5 101 0
 7712 2968 000050E3 		cmp	r0, #0
 7713 296c 52FAFFAA 		bge	.L400
 7714 2970 50FAFFEA 		b	.L397
 7715              	.LVL920:
 7716              	.L606:
  82:C:/Renesas/e2studio_2021_01_workspace_RZA2M_ANPR/ANPR_RZA2M_EBK/src/tensorflow_lite/tensorflow/lite/kernels/internal\strided_slice_logic.h ****   }
 7717              		.loc 5 82 0
 7718 2974 14108DE5 		str	r1, [sp, #20]
 7719              	.LBE1401:
 7720              	.LBE1590:
 7721              	.LBB1591:
 7722              	.LBB1417:
 131:C:/Renesas/e2studio_2021_01_workspace_RZA2M_ANPR/ANPR_RZA2M_EBK/src/tensorflow_lite/tensorflow/lite/kernels/internal\strided_slice_logic.h ****   }
 7723              		.loc 5 131 0
 7724 2978 38108DE5 		str	r1, [sp, #56]
 7725 297c 65FAFFEA 		b	.L395
 7726              	.LVL921:
 7727              	.L1111:
 7728              	.LBE1417:
 7729              	.LBE1591:
 7730              	.LBB1592:
 7731              	.LBB1402:
 7732              	.LBB1391:
 7733              	.LBB1387:
 215:C:/Renesas/e2studio_2021_01_workspace_RZA2M_ANPR/ANPR_RZA2M_EBK/src/tensorflow_lite/tensorflow/lite/kernels/internal\types.h ****     return size_ > kMaxSmallSize ? dims_pointer_[i] : dims_[i];
 7734              		.loc 4 215 0
 7735 2980 FEFFFFEB 		bl	abort
 7736              	.LVL922:
 7737              	.L1110:
 7738              	.LBE1387:
 7739              	.LBE1391:
 7740              	.LBE1402:
 7741              	.LBE1592:
 7742              	.LBB1593:
 7743              	.LBB1382:
 7744              	.LBB1378:
 7745              	.LBB1371:
  30:C:/Renesas/e2studio_2021_01_workspace_RZA2M_ANPR/ANPR_RZA2M_EBK/src/tensorflow_lite/tensorflow/lite/kernels/internal\strided_slice_logic.h ****   if (hi < v) return hi;
 7746              		.loc 5 30 0
 7747 2984 FEFFFFEB 		bl	abort
 7748              	.LVL923:
 7749              	.L401:
 7750              	.LBE1371:
 7751              	.LBE1378:
 7752              	.LBE1382:
 7753              	.LBE1593:
 7754              	.LBB1594:
 7755              	.LBB1403:
 111:C:/Renesas/e2studio_2021_01_workspace_RZA2M_ANPR/ANPR_RZA2M_EBK/src/tensorflow_lite/tensorflow/lite/kernels/internal\strided_slice_logic.h ****   }
 7756              		.loc 5 111 0
 7757 2988 018041E2 		sub	r8, r1, #1
 7758              	.LBB1392:
 7759              	.LBB1393:
  30:C:/Renesas/e2studio_2021_01_workspace_RZA2M_ANPR/ANPR_RZA2M_EBK/src/tensorflow_lite/tensorflow/lite/kernels/internal\strided_slice_logic.h ****   if (hi < v) return hi;
 7760              		.loc 5 30 0
 7761 298c 010078E3 		cmn	r8, #1
 7762              	.LBE1393:
 7763              	.LBE1392:
 111:C:/Renesas/e2studio_2021_01_workspace_RZA2M_ANPR/ANPR_RZA2M_EBK/src/tensorflow_lite/tensorflow/lite/kernels/internal\strided_slice_logic.h ****   }
 7764              		.loc 5 111 0
 7765 2990 14808DE5 		str	r8, [sp, #20]
 7766              	.LVL924:
 7767              	.LBB1397:
 7768              	.LBB1394:
  30:C:/Renesas/e2studio_2021_01_workspace_RZA2M_ANPR/ANPR_RZA2M_EBK/src/tensorflow_lite/tensorflow/lite/kernels/internal\strided_slice_logic.h ****   if (hi < v) return hi;
 7769              		.loc 5 30 0
 7770 2994 070000BA 		blt	.L541
  31:C:/Renesas/e2studio_2021_01_workspace_RZA2M_ANPR/ANPR_RZA2M_EBK/src/tensorflow_lite/tensorflow/lite/kernels/internal\strided_slice_logic.h ****   if (v < lo) return lo;
 7771              		.loc 5 31 0
 7772 2998 080050E1 		cmp	r0, r8
 7773 299c C00F80D1 		orrle	r0, r0, r0, asr #31
 7774              	.LVL925:
 7775 29a0 14008DD5 		strle	r0, [sp, #20]
 7776 29a4 4CFAFFEA 		b	.L403
 7777              	.LVL926:
 7778              	.L1112:
 7779              	.LBE1394:
 7780              	.LBE1397:
 111:C:/Renesas/e2studio_2021_01_workspace_RZA2M_ANPR/ANPR_RZA2M_EBK/src/tensorflow_lite/tensorflow/lite/kernels/internal\strided_slice_logic.h ****   }
 7781              		.loc 5 111 0
 7782 29a8 010041E2 		sub	r0, r1, #1
 7783              	.LBB1398:
 7784              	.LBB1395:
  30:C:/Renesas/e2studio_2021_01_workspace_RZA2M_ANPR/ANPR_RZA2M_EBK/src/tensorflow_lite/tensorflow/lite/kernels/internal\strided_slice_logic.h ****   if (hi < v) return hi;
 7785              		.loc 5 30 0
 7786 29ac 010070E3 		cmn	r0, #1
 7787              	.LBE1395:
 7788              	.LBE1398:
 111:C:/Renesas/e2studio_2021_01_workspace_RZA2M_ANPR/ANPR_RZA2M_EBK/src/tensorflow_lite/tensorflow/lite/kernels/internal\strided_slice_logic.h ****   }
 7789              		.loc 5 111 0
 7790 29b0 14008DE5 		str	r0, [sp, #20]
 7791              	.LVL927:
 7792              	.LBB1399:
 7793              	.LBB1396:
  30:C:/Renesas/e2studio_2021_01_workspace_RZA2M_ANPR/ANPR_RZA2M_EBK/src/tensorflow_lite/tensorflow/lite/kernels/internal\strided_slice_logic.h ****   if (hi < v) return hi;
 7794              		.loc 5 30 0
 7795 29b4 48FAFFAA 		bge	.L403
 7796              	.LVL928:
 7797              	.L541:
 7798 29b8 FEFFFFEB 		bl	abort
 7799              	.LVL929:
 7800              	.L1113:
 7801              	.LBE1396:
 7802              	.LBE1399:
 7803              	.LBB1400:
 7804              	.LBB1390:
 7805 29bc FEFFFFEB 		bl	abort
 7806              	.LVL930:
 7807              	.L1139:
 7808              	.LBE1390:
 7809              	.LBE1400:
 7810              	.LBE1403:
 7811              	.LBE1594:
 7812              	.LBB1595:
 7813              	.LBB1418:
 7814              	.LBB1415:
 7815              	.LBB1413:
 7816 29c0 FEFFFFEB 		bl	abort
 7817              	.LVL931:
 7818              	.LEHE24:
 7819              	.LBE1413:
 7820              	.LBE1415:
 7821              	.LBE1418:
 7822              	.LBE1595:
 7823              	.LBE1603:
 7824              	.LBE1611:
 7825              	.LBE1619:
 7826              	.LBE2010:
 7827              		.cfi_endproc
 7828              	.LFE4521:
 7829              		.global	__gxx_personality_v0
 7830              		.personality	__gxx_personality_v0
 7831              		.handlerdata
 7832              	.LLSDA4521:
 7833 0008 FF       		.byte	0xff
 7834 0009 FF       		.byte	0xff
 7835 000a 01       		.byte	0x1
 7836 000b 9701     		.uleb128 .LLSDACSE4521-.LLSDACSB4521
 7837              	.LLSDACSB4521:
 7838 000d 30       		.uleb128 .LEHB0-.LFB4521
 7839 000e 7C       		.uleb128 .LEHE0-.LEHB0
 7840 000f 00       		.uleb128 0
 7841 0010 00       		.uleb128 0
 7842 0011 C401     		.uleb128 .LEHB1-.LFB4521
 7843 0013 04       		.uleb128 .LEHE1-.LEHB1
 7844 0014 8808     		.uleb128 .L622-.LFB4521
 7845 0016 00       		.uleb128 0
 7846 0017 DC02     		.uleb128 .LEHB2-.LFB4521
 7847 0019 04       		.uleb128 .LEHE2-.LEHB2
 7848 001a 9407     		.uleb128 .L625-.LFB4521
 7849 001c 00       		.uleb128 0
 7850 001d E802     		.uleb128 .LEHB3-.LFB4521
 7851 001f 04       		.uleb128 .LEHE3-.LEHB3
 7852 0020 00       		.uleb128 0
 7853 0021 00       		.uleb128 0
 7854 0022 8003     		.uleb128 .LEHB4-.LFB4521
 7855 0024 04       		.uleb128 .LEHE4-.LEHB4
 7856 0025 8C07     		.uleb128 .L624-.LFB4521
 7857 0027 00       		.uleb128 0
 7858 0028 9C04     		.uleb128 .LEHB5-.LFB4521
 7859 002a 04       		.uleb128 .LEHE5-.LEHB5
 7860 002b E005     		.uleb128 .L631-.LFB4521
 7861 002d 00       		.uleb128 0
 7862 002e A804     		.uleb128 .LEHB6-.LFB4521
 7863 0030 04       		.uleb128 .LEHE6-.LEHB6
 7864 0031 00       		.uleb128 0
 7865 0032 00       		.uleb128 0
 7866 0033 C004     		.uleb128 .LEHB7-.LFB4521
 7867 0035 04       		.uleb128 .LEHE7-.LEHB7
 7868 0036 DC1D     		.uleb128 .L623-.LFB4521
 7869 0038 00       		.uleb128 0
 7870 0039 DC05     		.uleb128 .LEHB8-.LFB4521
 7871 003b 04       		.uleb128 .LEHE8-.LEHB8
 7872 003c E41D     		.uleb128 .L628-.LFB4521
 7873 003e 00       		.uleb128 0
 7874 003f 9806     		.uleb128 .LEHB9-.LFB4521
 7875 0041 04       		.uleb128 .LEHE9-.LEHB9
 7876 0042 00       		.uleb128 0
 7877 0043 00       		.uleb128 0
 7878 0044 8007     		.uleb128 .LEHB10-.LFB4521
 7879 0046 04       		.uleb128 .LEHE10-.LEHB10
 7880 0047 D01E     		.uleb128 .L632-.LFB4521
 7881 0049 00       		.uleb128 0
 7882 004a 8407     		.uleb128 .LEHB11-.LFB4521
 7883 004c 08       		.uleb128 .LEHE11-.LEHB11
 7884 004d E005     		.uleb128 .L631-.LFB4521
 7885 004f 00       		.uleb128 0
 7886 0050 9007     		.uleb128 .LEHB12-.LFB4521
 7887 0052 04       		.uleb128 .LEHE12-.LEHB12
 7888 0053 8C07     		.uleb128 .L624-.LFB4521
 7889 0055 00       		.uleb128 0
 7890 0056 FC07     		.uleb128 .LEHB13-.LFB4521
 7891 0058 04       		.uleb128 .LEHE13-.LEHB13
 7892 0059 9008     		.uleb128 .L626-.LFB4521
 7893 005b 00       		.uleb128 0
 7894 005c 8008     		.uleb128 .LEHB14-.LFB4521
 7895 005e 08       		.uleb128 .LEHE14-.LEHB14
 7896 005f 9407     		.uleb128 .L625-.LFB4521
 7897 0061 00       		.uleb128 0
 7898 0062 8C08     		.uleb128 .LEHB15-.LFB4521
 7899 0064 04       		.uleb128 .LEHE15-.LEHB15
 7900 0065 8808     		.uleb128 .L622-.LFB4521
 7901 0067 00       		.uleb128 0
 7902 0068 AC1A     		.uleb128 .LEHB16-.LFB4521
 7903 006a A803     		.uleb128 .LEHE16-.LEHB16
 7904 006c E41A     		.uleb128 .L627-.LFB4521
 7905 006e 00       		.uleb128 0
 7906 006f D41D     		.uleb128 .LEHB17-.LFB4521
 7907 0071 08       		.uleb128 .LEHE17-.LEHB17
 7908 0072 E41D     		.uleb128 .L628-.LFB4521
 7909 0074 00       		.uleb128 0
 7910 0075 E01D     		.uleb128 .LEHB18-.LFB4521
 7911 0077 04       		.uleb128 .LEHE18-.LEHB18
 7912 0078 DC1D     		.uleb128 .L623-.LFB4521
 7913 007a 00       		.uleb128 0
 7914 007b CC1E     		.uleb128 .LEHB19-.LFB4521
 7915 007d 04       		.uleb128 .LEHE19-.LEHB19
 7916 007e D839     		.uleb128 .L629-.LFB4521
 7917 0080 00       		.uleb128 0
 7918 0081 A831     		.uleb128 .LEHB20-.LFB4521
 7919 0083 D402     		.uleb128 .LEHE20-.LEHB20
 7920 0085 D831     		.uleb128 .L633-.LFB4521
 7921 0087 00       		.uleb128 0
 7922 0088 D034     		.uleb128 .LEHB21-.LFB4521
 7923 008a F803     		.uleb128 .LEHE21-.LEHB21
 7924 008c E41A     		.uleb128 .L627-.LFB4521
 7925 008e 00       		.uleb128 0
 7926 008f C838     		.uleb128 .LEHB22-.LFB4521
 7927 0091 9001     		.uleb128 .LEHE22-.LEHB22
 7928 0093 D831     		.uleb128 .L633-.LFB4521
 7929 0095 00       		.uleb128 0
 7930 0096 B44B     		.uleb128 .LEHB23-.LFB4521
 7931 0098 9C06     		.uleb128 .LEHE23-.LEHB23
 7932 009a E44B     		.uleb128 .L630-.LFB4521
 7933 009c 00       		.uleb128 0
 7934 009d 9452     		.uleb128 .LEHB24-.LFB4521
 7935 009f B001     		.uleb128 .LEHE24-.LEHB24
 7936 00a1 D831     		.uleb128 .L633-.LFB4521
 7937 00a3 00       		.uleb128 0
 7938              	.LLSDACSE4521:
 7939              		.section	.text._ZN6tflite3ops5micro13strided_slice4EvalEP13TfLiteContextP10TfLiteNode
 7940              		.fnend
 7942              		.section	.text._ZN6tflite3ops5micro13strided_slice23BuildStridedSliceParamsEPNS2_19StridedSliceCon
 7943              		.align	2
 7944              		.global	_ZN6tflite3ops5micro13strided_slice23BuildStridedSliceParamsEPNS2_19StridedSliceContextE
 7945              		.syntax unified
 7946              		.arm
 7947              		.fpu neon
 7949              	_ZN6tflite3ops5micro13strided_slice23BuildStridedSliceParamsEPNS2_19StridedSliceContextE:
 7950              		.fnstart
 7951              	.LFB4517:
  62:../src/tensorflow_lite/tensorflow/lite/micro/kernels/strided_slice.cc ****   tflite::StridedSliceParams op_params;
 7952              		.loc 1 62 0
 7953              		.cfi_startproc
 7954              		@ args = 0, pretend = 0, frame = 0
 7955              		@ frame_needed = 0, uses_anonymous_args = 0
 7956              	.LVL932:
  64:../src/tensorflow_lite/tensorflow/lite/micro/kernels/strided_slice.cc ****   op_params.stop_indices_count = op_context->dims;
 7957              		.loc 1 64 0
 7958 0000 183091E5 		ldr	r3, [r1, #24]
  62:../src/tensorflow_lite/tensorflow/lite/micro/kernels/strided_slice.cc ****   tflite::StridedSliceParams op_params;
 7959              		.loc 1 62 0
 7960 0004 30402DE9 		push	{r4, r5, lr}
 7961              		.cfi_def_cfa_offset 12
 7962              		.cfi_offset 4, -12
 7963              		.cfi_offset 5, -8
 7964              		.cfi_offset 14, -4
 7965              	.LBB2018:
  68:../src/tensorflow_lite/tensorflow/lite/micro/kernels/strided_slice.cc ****     op_params.start_indices[i] = GetTensorData<int32_t>(op_context->begin)[i];
 7966              		.loc 1 68 0
 7967 0008 000053E3 		cmp	r3, #0
 7968              	.LBE2018:
  64:../src/tensorflow_lite/tensorflow/lite/micro/kernels/strided_slice.cc ****   op_params.stop_indices_count = op_context->dims;
 7969              		.loc 1 64 0
 7970 000c 7320AFE6 		sxtb	r2, r3
 7971 0010 0020C0E5 		strb	r2, [r0]
  65:../src/tensorflow_lite/tensorflow/lite/micro/kernels/strided_slice.cc ****   op_params.strides_count = op_context->dims;
 7972              		.loc 1 65 0
 7973 0014 1820C0E5 		strb	r2, [r0, #24]
  66:../src/tensorflow_lite/tensorflow/lite/micro/kernels/strided_slice.cc **** 
 7974              		.loc 1 66 0
 7975 0018 3020C0E5 		strb	r2, [r0, #48]
 7976              	.LVL933:
 7977              	.LBB2019:
  68:../src/tensorflow_lite/tensorflow/lite/micro/kernels/strided_slice.cc ****     op_params.start_indices[i] = GetTensorData<int32_t>(op_context->begin)[i];
 7978              		.loc 1 68 0
 7979 001c 310000DA 		ble	.L1198
 7980 0020 08C091E5 		ldr	ip, [r1, #8]
 7981 0024 0C2091E5 		ldr	r2, [r1, #12]
 7982 0028 104091E5 		ldr	r4, [r1, #16]
 7983 002c 00005CE3 		cmp	ip, #0
 7984 0030 3600000A 		beq	.L1300
 7985 0034 000054E3 		cmp	r4, #0
 7986 0038 6100000A 		beq	.L1301
 7987 003c 000052E3 		cmp	r2, #0
 7988 0040 04E09CE5 		ldr	lr, [ip, #4]
 7989 0044 8900000A 		beq	.L1302
 7990 0048 04C092E5 		ldr	ip, [r2, #4]
 7991 004c 010053E3 		cmp	r3, #1
 7992 0050 042094E5 		ldr	r2, [r4, #4]
  69:../src/tensorflow_lite/tensorflow/lite/micro/kernels/strided_slice.cc ****     op_params.stop_indices[i] = GetTensorData<int32_t>(op_context->end)[i];
 7993              		.loc 1 69 0
 7994 0054 00409EE5 		ldr	r4, [lr]
 7995 0058 044080E5 		str	r4, [r0, #4]
  70:../src/tensorflow_lite/tensorflow/lite/micro/kernels/strided_slice.cc ****     op_params.strides[i] = GetTensorData<int32_t>(op_context->strides)[i];
 7996              		.loc 1 70 0
 7997 005c 00409CE5 		ldr	r4, [ip]
 7998 0060 1C4080E5 		str	r4, [r0, #28]
  71:../src/tensorflow_lite/tensorflow/lite/micro/kernels/strided_slice.cc ****   }
 7999              		.loc 1 71 0
 8000 0064 004092E5 		ldr	r4, [r2]
 8001 0068 344080E5 		str	r4, [r0, #52]
 8002              	.LVL934:
  68:../src/tensorflow_lite/tensorflow/lite/micro/kernels/strided_slice.cc ****     op_params.start_indices[i] = GetTensorData<int32_t>(op_context->begin)[i];
 8003              		.loc 1 68 0
 8004 006c 1D00000A 		beq	.L1198
  69:../src/tensorflow_lite/tensorflow/lite/micro/kernels/strided_slice.cc ****     op_params.stop_indices[i] = GetTensorData<int32_t>(op_context->end)[i];
 8005              		.loc 1 69 0
 8006 0070 04409EE5 		ldr	r4, [lr, #4]
  68:../src/tensorflow_lite/tensorflow/lite/micro/kernels/strided_slice.cc ****     op_params.start_indices[i] = GetTensorData<int32_t>(op_context->begin)[i];
 8007              		.loc 1 68 0
 8008 0074 020053E3 		cmp	r3, #2
  69:../src/tensorflow_lite/tensorflow/lite/micro/kernels/strided_slice.cc ****     op_params.stop_indices[i] = GetTensorData<int32_t>(op_context->end)[i];
 8009              		.loc 1 69 0
 8010 0078 084080E5 		str	r4, [r0, #8]
  70:../src/tensorflow_lite/tensorflow/lite/micro/kernels/strided_slice.cc ****     op_params.strides[i] = GetTensorData<int32_t>(op_context->strides)[i];
 8011              		.loc 1 70 0
 8012 007c 04409CE5 		ldr	r4, [ip, #4]
 8013 0080 204080E5 		str	r4, [r0, #32]
  71:../src/tensorflow_lite/tensorflow/lite/micro/kernels/strided_slice.cc ****   }
 8014              		.loc 1 71 0
 8015 0084 044092E5 		ldr	r4, [r2, #4]
 8016 0088 384080E5 		str	r4, [r0, #56]
 8017              	.LVL935:
  68:../src/tensorflow_lite/tensorflow/lite/micro/kernels/strided_slice.cc ****     op_params.start_indices[i] = GetTensorData<int32_t>(op_context->begin)[i];
 8018              		.loc 1 68 0
 8019 008c 1500000A 		beq	.L1198
  69:../src/tensorflow_lite/tensorflow/lite/micro/kernels/strided_slice.cc ****     op_params.stop_indices[i] = GetTensorData<int32_t>(op_context->end)[i];
 8020              		.loc 1 69 0
 8021 0090 08409EE5 		ldr	r4, [lr, #8]
  68:../src/tensorflow_lite/tensorflow/lite/micro/kernels/strided_slice.cc ****     op_params.start_indices[i] = GetTensorData<int32_t>(op_context->begin)[i];
 8022              		.loc 1 68 0
 8023 0094 030053E3 		cmp	r3, #3
  69:../src/tensorflow_lite/tensorflow/lite/micro/kernels/strided_slice.cc ****     op_params.stop_indices[i] = GetTensorData<int32_t>(op_context->end)[i];
 8024              		.loc 1 69 0
 8025 0098 0C4080E5 		str	r4, [r0, #12]
  70:../src/tensorflow_lite/tensorflow/lite/micro/kernels/strided_slice.cc ****     op_params.strides[i] = GetTensorData<int32_t>(op_context->strides)[i];
 8026              		.loc 1 70 0
 8027 009c 08409CE5 		ldr	r4, [ip, #8]
 8028 00a0 244080E5 		str	r4, [r0, #36]
  71:../src/tensorflow_lite/tensorflow/lite/micro/kernels/strided_slice.cc ****   }
 8029              		.loc 1 71 0
 8030 00a4 084092E5 		ldr	r4, [r2, #8]
 8031 00a8 3C4080E5 		str	r4, [r0, #60]
 8032              	.LVL936:
  68:../src/tensorflow_lite/tensorflow/lite/micro/kernels/strided_slice.cc ****     op_params.start_indices[i] = GetTensorData<int32_t>(op_context->begin)[i];
 8033              		.loc 1 68 0
 8034 00ac 0D00000A 		beq	.L1198
  69:../src/tensorflow_lite/tensorflow/lite/micro/kernels/strided_slice.cc ****     op_params.stop_indices[i] = GetTensorData<int32_t>(op_context->end)[i];
 8035              		.loc 1 69 0
 8036 00b0 0C409EE5 		ldr	r4, [lr, #12]
  68:../src/tensorflow_lite/tensorflow/lite/micro/kernels/strided_slice.cc ****     op_params.start_indices[i] = GetTensorData<int32_t>(op_context->begin)[i];
 8037              		.loc 1 68 0
 8038 00b4 040053E3 		cmp	r3, #4
  69:../src/tensorflow_lite/tensorflow/lite/micro/kernels/strided_slice.cc ****     op_params.stop_indices[i] = GetTensorData<int32_t>(op_context->end)[i];
 8039              		.loc 1 69 0
 8040 00b8 104080E5 		str	r4, [r0, #16]
  70:../src/tensorflow_lite/tensorflow/lite/micro/kernels/strided_slice.cc ****     op_params.strides[i] = GetTensorData<int32_t>(op_context->strides)[i];
 8041              		.loc 1 70 0
 8042 00bc 0C309CE5 		ldr	r3, [ip, #12]
 8043 00c0 283080E5 		str	r3, [r0, #40]
  71:../src/tensorflow_lite/tensorflow/lite/micro/kernels/strided_slice.cc ****   }
 8044              		.loc 1 71 0
 8045 00c4 0C3092E5 		ldr	r3, [r2, #12]
 8046 00c8 403080E5 		str	r3, [r0, #64]
 8047              	.LVL937:
  68:../src/tensorflow_lite/tensorflow/lite/micro/kernels/strided_slice.cc ****     op_params.start_indices[i] = GetTensorData<int32_t>(op_context->begin)[i];
 8048              		.loc 1 68 0
 8049 00cc 0500000A 		beq	.L1198
  69:../src/tensorflow_lite/tensorflow/lite/micro/kernels/strided_slice.cc ****     op_params.stop_indices[i] = GetTensorData<int32_t>(op_context->end)[i];
 8050              		.loc 1 69 0
 8051 00d0 10309EE5 		ldr	r3, [lr, #16]
 8052 00d4 143080E5 		str	r3, [r0, #20]
  70:../src/tensorflow_lite/tensorflow/lite/micro/kernels/strided_slice.cc ****     op_params.strides[i] = GetTensorData<int32_t>(op_context->strides)[i];
 8053              		.loc 1 70 0
 8054 00d8 10309CE5 		ldr	r3, [ip, #16]
 8055 00dc 2C3080E5 		str	r3, [r0, #44]
  71:../src/tensorflow_lite/tensorflow/lite/micro/kernels/strided_slice.cc ****   }
 8056              		.loc 1 71 0
 8057 00e0 103092E5 		ldr	r3, [r2, #16]
 8058 00e4 443080E5 		str	r3, [r0, #68]
 8059              	.LVL938:
 8060              	.L1198:
 8061              	.LBE2019:
  74:../src/tensorflow_lite/tensorflow/lite/micro/kernels/strided_slice.cc ****   op_params.ellipsis_mask = 0;
 8062              		.loc 1 74 0
 8063 00e8 003091E5 		ldr	r3, [r1]
  75:../src/tensorflow_lite/tensorflow/lite/micro/kernels/strided_slice.cc ****   op_params.end_mask = op_context->params->end_mask;
 8064              		.loc 1 75 0
 8065 00ec 0020A0E3 		mov	r2, #0
 8066 00f0 BA24C0E1 		strh	r2, [r0, #74]	@ movhi
  77:../src/tensorflow_lite/tensorflow/lite/micro/kernels/strided_slice.cc ****   op_params.shrink_axis_mask = op_context->params->shrink_axis_mask;
 8067              		.loc 1 77 0
 8068 00f4 BE24C0E1 		strh	r2, [r0, #78]	@ movhi
  76:../src/tensorflow_lite/tensorflow/lite/micro/kernels/strided_slice.cc ****   op_params.new_axis_mask = 0;
 8069              		.loc 1 76 0
 8070 00f8 060093E8 		ldm	r3, {r1, r2}
 8071              	.LVL939:
  78:../src/tensorflow_lite/tensorflow/lite/micro/kernels/strided_slice.cc ****   return op_params;
 8072              		.loc 1 78 0
 8073 00fc 103093E5 		ldr	r3, [r3, #16]
  74:../src/tensorflow_lite/tensorflow/lite/micro/kernels/strided_slice.cc ****   op_params.ellipsis_mask = 0;
 8074              		.loc 1 74 0
 8075 0100 B814C0E1 		strh	r1, [r0, #72]	@ movhi
  76:../src/tensorflow_lite/tensorflow/lite/micro/kernels/strided_slice.cc ****   op_params.new_axis_mask = 0;
 8076              		.loc 1 76 0
 8077 0104 BC24C0E1 		strh	r2, [r0, #76]	@ movhi
  78:../src/tensorflow_lite/tensorflow/lite/micro/kernels/strided_slice.cc ****   return op_params;
 8078              		.loc 1 78 0
 8079 0108 B035C0E1 		strh	r3, [r0, #80]	@ movhi
  80:../src/tensorflow_lite/tensorflow/lite/micro/kernels/strided_slice.cc **** 
 8080              		.loc 1 80 0
 8081 010c 3080BDE8 		pop	{r4, r5, pc}
 8082              	.LVL940:
 8083              	.L1300:
 8084 0110 000054E3 		cmp	r4, #0
 8085 0114 7D00000A 		beq	.L1303
 8086 0118 000052E3 		cmp	r2, #0
 8087 011c C700000A 		beq	.L1304
 8088              	.LBB2020:
  69:../src/tensorflow_lite/tensorflow/lite/micro/kernels/strided_slice.cc ****     op_params.stop_indices[i] = GetTensorData<int32_t>(op_context->end)[i];
 8089              		.loc 1 69 0
 8090 0120 00509CE5 		ldr	r5, [ip]
  68:../src/tensorflow_lite/tensorflow/lite/micro/kernels/strided_slice.cc ****     op_params.start_indices[i] = GetTensorData<int32_t>(op_context->begin)[i];
 8091              		.loc 1 68 0
 8092 0124 010053E3 		cmp	r3, #1
 8093 0128 04E092E5 		ldr	lr, [r2, #4]
 8094 012c 042094E5 		ldr	r2, [r4, #4]
  69:../src/tensorflow_lite/tensorflow/lite/micro/kernels/strided_slice.cc ****     op_params.stop_indices[i] = GetTensorData<int32_t>(op_context->end)[i];
 8095              		.loc 1 69 0
 8096 0130 045080E5 		str	r5, [r0, #4]
  70:../src/tensorflow_lite/tensorflow/lite/micro/kernels/strided_slice.cc ****     op_params.strides[i] = GetTensorData<int32_t>(op_context->strides)[i];
 8097              		.loc 1 70 0
 8098 0134 00409EE5 		ldr	r4, [lr]
 8099 0138 1C4080E5 		str	r4, [r0, #28]
  71:../src/tensorflow_lite/tensorflow/lite/micro/kernels/strided_slice.cc ****   }
 8100              		.loc 1 71 0
 8101 013c 004092E5 		ldr	r4, [r2]
 8102 0140 344080E5 		str	r4, [r0, #52]
 8103              	.LVL941:
  68:../src/tensorflow_lite/tensorflow/lite/micro/kernels/strided_slice.cc ****     op_params.start_indices[i] = GetTensorData<int32_t>(op_context->begin)[i];
 8104              		.loc 1 68 0
 8105 0144 E7FFFF0A 		beq	.L1198
  69:../src/tensorflow_lite/tensorflow/lite/micro/kernels/strided_slice.cc ****     op_params.stop_indices[i] = GetTensorData<int32_t>(op_context->end)[i];
 8106              		.loc 1 69 0
 8107 0148 04409CE5 		ldr	r4, [ip, #4]
  68:../src/tensorflow_lite/tensorflow/lite/micro/kernels/strided_slice.cc ****     op_params.start_indices[i] = GetTensorData<int32_t>(op_context->begin)[i];
 8108              		.loc 1 68 0
 8109 014c 020053E3 		cmp	r3, #2
  69:../src/tensorflow_lite/tensorflow/lite/micro/kernels/strided_slice.cc ****     op_params.stop_indices[i] = GetTensorData<int32_t>(op_context->end)[i];
 8110              		.loc 1 69 0
 8111 0150 084080E5 		str	r4, [r0, #8]
  70:../src/tensorflow_lite/tensorflow/lite/micro/kernels/strided_slice.cc ****     op_params.strides[i] = GetTensorData<int32_t>(op_context->strides)[i];
 8112              		.loc 1 70 0
 8113 0154 04409EE5 		ldr	r4, [lr, #4]
 8114 0158 204080E5 		str	r4, [r0, #32]
  71:../src/tensorflow_lite/tensorflow/lite/micro/kernels/strided_slice.cc ****   }
 8115              		.loc 1 71 0
 8116 015c 044092E5 		ldr	r4, [r2, #4]
 8117 0160 384080E5 		str	r4, [r0, #56]
 8118              	.LVL942:
  68:../src/tensorflow_lite/tensorflow/lite/micro/kernels/strided_slice.cc ****     op_params.start_indices[i] = GetTensorData<int32_t>(op_context->begin)[i];
 8119              		.loc 1 68 0
 8120 0164 DFFFFF0A 		beq	.L1198
  69:../src/tensorflow_lite/tensorflow/lite/micro/kernels/strided_slice.cc ****     op_params.stop_indices[i] = GetTensorData<int32_t>(op_context->end)[i];
 8121              		.loc 1 69 0
 8122 0168 08409CE5 		ldr	r4, [ip, #8]
  68:../src/tensorflow_lite/tensorflow/lite/micro/kernels/strided_slice.cc ****     op_params.start_indices[i] = GetTensorData<int32_t>(op_context->begin)[i];
 8123              		.loc 1 68 0
 8124 016c 030053E3 		cmp	r3, #3
  69:../src/tensorflow_lite/tensorflow/lite/micro/kernels/strided_slice.cc ****     op_params.stop_indices[i] = GetTensorData<int32_t>(op_context->end)[i];
 8125              		.loc 1 69 0
 8126 0170 0C4080E5 		str	r4, [r0, #12]
  70:../src/tensorflow_lite/tensorflow/lite/micro/kernels/strided_slice.cc ****     op_params.strides[i] = GetTensorData<int32_t>(op_context->strides)[i];
 8127              		.loc 1 70 0
 8128 0174 08409EE5 		ldr	r4, [lr, #8]
 8129 0178 244080E5 		str	r4, [r0, #36]
  71:../src/tensorflow_lite/tensorflow/lite/micro/kernels/strided_slice.cc ****   }
 8130              		.loc 1 71 0
 8131 017c 084092E5 		ldr	r4, [r2, #8]
 8132 0180 3C4080E5 		str	r4, [r0, #60]
 8133              	.LVL943:
  68:../src/tensorflow_lite/tensorflow/lite/micro/kernels/strided_slice.cc ****     op_params.start_indices[i] = GetTensorData<int32_t>(op_context->begin)[i];
 8134              		.loc 1 68 0
 8135 0184 D7FFFF0A 		beq	.L1198
  69:../src/tensorflow_lite/tensorflow/lite/micro/kernels/strided_slice.cc ****     op_params.stop_indices[i] = GetTensorData<int32_t>(op_context->end)[i];
 8136              		.loc 1 69 0
 8137 0188 0C409CE5 		ldr	r4, [ip, #12]
  68:../src/tensorflow_lite/tensorflow/lite/micro/kernels/strided_slice.cc ****     op_params.start_indices[i] = GetTensorData<int32_t>(op_context->begin)[i];
 8138              		.loc 1 68 0
 8139 018c 040053E3 		cmp	r3, #4
  69:../src/tensorflow_lite/tensorflow/lite/micro/kernels/strided_slice.cc ****     op_params.stop_indices[i] = GetTensorData<int32_t>(op_context->end)[i];
 8140              		.loc 1 69 0
 8141 0190 104080E5 		str	r4, [r0, #16]
  70:../src/tensorflow_lite/tensorflow/lite/micro/kernels/strided_slice.cc ****     op_params.strides[i] = GetTensorData<int32_t>(op_context->strides)[i];
 8142              		.loc 1 70 0
 8143 0194 0C309EE5 		ldr	r3, [lr, #12]
 8144 0198 283080E5 		str	r3, [r0, #40]
  71:../src/tensorflow_lite/tensorflow/lite/micro/kernels/strided_slice.cc ****   }
 8145              		.loc 1 71 0
 8146 019c 0C3092E5 		ldr	r3, [r2, #12]
 8147 01a0 403080E5 		str	r3, [r0, #64]
 8148              	.LVL944:
  68:../src/tensorflow_lite/tensorflow/lite/micro/kernels/strided_slice.cc ****     op_params.start_indices[i] = GetTensorData<int32_t>(op_context->begin)[i];
 8149              		.loc 1 68 0
 8150 01a4 CFFFFF0A 		beq	.L1198
  69:../src/tensorflow_lite/tensorflow/lite/micro/kernels/strided_slice.cc ****     op_params.stop_indices[i] = GetTensorData<int32_t>(op_context->end)[i];
 8151              		.loc 1 69 0
 8152 01a8 10309CE5 		ldr	r3, [ip, #16]
 8153 01ac 143080E5 		str	r3, [r0, #20]
  70:../src/tensorflow_lite/tensorflow/lite/micro/kernels/strided_slice.cc ****     op_params.strides[i] = GetTensorData<int32_t>(op_context->strides)[i];
 8154              		.loc 1 70 0
 8155 01b0 10309EE5 		ldr	r3, [lr, #16]
 8156 01b4 2C3080E5 		str	r3, [r0, #44]
  71:../src/tensorflow_lite/tensorflow/lite/micro/kernels/strided_slice.cc ****   }
 8157              		.loc 1 71 0
 8158 01b8 103092E5 		ldr	r3, [r2, #16]
 8159 01bc 443080E5 		str	r3, [r0, #68]
 8160              	.LVL945:
 8161 01c0 C8FFFFEA 		b	.L1198
 8162              	.LVL946:
 8163              	.L1301:
 8164 01c4 000052E3 		cmp	r2, #0
 8165 01c8 04C09CE5 		ldr	ip, [ip, #4]
 8166 01cc 7400000A 		beq	.L1305
  69:../src/tensorflow_lite/tensorflow/lite/micro/kernels/strided_slice.cc ****     op_params.stop_indices[i] = GetTensorData<int32_t>(op_context->end)[i];
 8167              		.loc 1 69 0
 8168 01d0 00E09CE5 		ldr	lr, [ip]
  68:../src/tensorflow_lite/tensorflow/lite/micro/kernels/strided_slice.cc ****     op_params.start_indices[i] = GetTensorData<int32_t>(op_context->begin)[i];
 8169              		.loc 1 68 0
 8170 01d4 010053E3 		cmp	r3, #1
 8171 01d8 042092E5 		ldr	r2, [r2, #4]
  69:../src/tensorflow_lite/tensorflow/lite/micro/kernels/strided_slice.cc ****     op_params.stop_indices[i] = GetTensorData<int32_t>(op_context->end)[i];
 8172              		.loc 1 69 0
 8173 01dc 04E080E5 		str	lr, [r0, #4]
  70:../src/tensorflow_lite/tensorflow/lite/micro/kernels/strided_slice.cc ****     op_params.strides[i] = GetTensorData<int32_t>(op_context->strides)[i];
 8174              		.loc 1 70 0
 8175 01e0 00E092E5 		ldr	lr, [r2]
 8176 01e4 1CE080E5 		str	lr, [r0, #28]
  71:../src/tensorflow_lite/tensorflow/lite/micro/kernels/strided_slice.cc ****   }
 8177              		.loc 1 71 0
 8178 01e8 00E094E5 		ldr	lr, [r4]
 8179 01ec 34E080E5 		str	lr, [r0, #52]
 8180              	.LVL947:
  68:../src/tensorflow_lite/tensorflow/lite/micro/kernels/strided_slice.cc ****     op_params.start_indices[i] = GetTensorData<int32_t>(op_context->begin)[i];
 8181              		.loc 1 68 0
 8182 01f0 BCFFFF0A 		beq	.L1198
  69:../src/tensorflow_lite/tensorflow/lite/micro/kernels/strided_slice.cc ****     op_params.stop_indices[i] = GetTensorData<int32_t>(op_context->end)[i];
 8183              		.loc 1 69 0
 8184 01f4 04E09CE5 		ldr	lr, [ip, #4]
  68:../src/tensorflow_lite/tensorflow/lite/micro/kernels/strided_slice.cc ****     op_params.start_indices[i] = GetTensorData<int32_t>(op_context->begin)[i];
 8185              		.loc 1 68 0
 8186 01f8 020053E3 		cmp	r3, #2
  69:../src/tensorflow_lite/tensorflow/lite/micro/kernels/strided_slice.cc ****     op_params.stop_indices[i] = GetTensorData<int32_t>(op_context->end)[i];
 8187              		.loc 1 69 0
 8188 01fc 08E080E5 		str	lr, [r0, #8]
  70:../src/tensorflow_lite/tensorflow/lite/micro/kernels/strided_slice.cc ****     op_params.strides[i] = GetTensorData<int32_t>(op_context->strides)[i];
 8189              		.loc 1 70 0
 8190 0200 04E092E5 		ldr	lr, [r2, #4]
 8191 0204 20E080E5 		str	lr, [r0, #32]
  71:../src/tensorflow_lite/tensorflow/lite/micro/kernels/strided_slice.cc ****   }
 8192              		.loc 1 71 0
 8193 0208 04E094E5 		ldr	lr, [r4, #4]
 8194 020c 38E080E5 		str	lr, [r0, #56]
 8195              	.LVL948:
  68:../src/tensorflow_lite/tensorflow/lite/micro/kernels/strided_slice.cc ****     op_params.start_indices[i] = GetTensorData<int32_t>(op_context->begin)[i];
 8196              		.loc 1 68 0
 8197 0210 B4FFFF0A 		beq	.L1198
  69:../src/tensorflow_lite/tensorflow/lite/micro/kernels/strided_slice.cc ****     op_params.stop_indices[i] = GetTensorData<int32_t>(op_context->end)[i];
 8198              		.loc 1 69 0
 8199 0214 08E09CE5 		ldr	lr, [ip, #8]
  68:../src/tensorflow_lite/tensorflow/lite/micro/kernels/strided_slice.cc ****     op_params.start_indices[i] = GetTensorData<int32_t>(op_context->begin)[i];
 8200              		.loc 1 68 0
 8201 0218 030053E3 		cmp	r3, #3
  69:../src/tensorflow_lite/tensorflow/lite/micro/kernels/strided_slice.cc ****     op_params.stop_indices[i] = GetTensorData<int32_t>(op_context->end)[i];
 8202              		.loc 1 69 0
 8203 021c 0CE080E5 		str	lr, [r0, #12]
  70:../src/tensorflow_lite/tensorflow/lite/micro/kernels/strided_slice.cc ****     op_params.strides[i] = GetTensorData<int32_t>(op_context->strides)[i];
 8204              		.loc 1 70 0
 8205 0220 08E092E5 		ldr	lr, [r2, #8]
 8206 0224 24E080E5 		str	lr, [r0, #36]
  71:../src/tensorflow_lite/tensorflow/lite/micro/kernels/strided_slice.cc ****   }
 8207              		.loc 1 71 0
 8208 0228 08E094E5 		ldr	lr, [r4, #8]
 8209 022c 3CE080E5 		str	lr, [r0, #60]
 8210              	.LVL949:
  68:../src/tensorflow_lite/tensorflow/lite/micro/kernels/strided_slice.cc ****     op_params.start_indices[i] = GetTensorData<int32_t>(op_context->begin)[i];
 8211              		.loc 1 68 0
 8212 0230 ACFFFF0A 		beq	.L1198
  69:../src/tensorflow_lite/tensorflow/lite/micro/kernels/strided_slice.cc ****     op_params.stop_indices[i] = GetTensorData<int32_t>(op_context->end)[i];
 8213              		.loc 1 69 0
 8214 0234 0CE09CE5 		ldr	lr, [ip, #12]
  68:../src/tensorflow_lite/tensorflow/lite/micro/kernels/strided_slice.cc ****     op_params.start_indices[i] = GetTensorData<int32_t>(op_context->begin)[i];
 8215              		.loc 1 68 0
 8216 0238 040053E3 		cmp	r3, #4
  69:../src/tensorflow_lite/tensorflow/lite/micro/kernels/strided_slice.cc ****     op_params.stop_indices[i] = GetTensorData<int32_t>(op_context->end)[i];
 8217              		.loc 1 69 0
 8218 023c 10E080E5 		str	lr, [r0, #16]
  70:../src/tensorflow_lite/tensorflow/lite/micro/kernels/strided_slice.cc ****     op_params.strides[i] = GetTensorData<int32_t>(op_context->strides)[i];
 8219              		.loc 1 70 0
 8220 0240 0C3092E5 		ldr	r3, [r2, #12]
 8221 0244 283080E5 		str	r3, [r0, #40]
  71:../src/tensorflow_lite/tensorflow/lite/micro/kernels/strided_slice.cc ****   }
 8222              		.loc 1 71 0
 8223 0248 0C3094E5 		ldr	r3, [r4, #12]
 8224 024c 403080E5 		str	r3, [r0, #64]
 8225              	.LVL950:
  68:../src/tensorflow_lite/tensorflow/lite/micro/kernels/strided_slice.cc ****     op_params.start_indices[i] = GetTensorData<int32_t>(op_context->begin)[i];
 8226              		.loc 1 68 0
 8227 0250 A4FFFF0A 		beq	.L1198
  69:../src/tensorflow_lite/tensorflow/lite/micro/kernels/strided_slice.cc ****     op_params.stop_indices[i] = GetTensorData<int32_t>(op_context->end)[i];
 8228              		.loc 1 69 0
 8229 0254 10309CE5 		ldr	r3, [ip, #16]
 8230              	.L1298:
 8231 0258 143080E5 		str	r3, [r0, #20]
  70:../src/tensorflow_lite/tensorflow/lite/micro/kernels/strided_slice.cc ****     op_params.strides[i] = GetTensorData<int32_t>(op_context->strides)[i];
 8232              		.loc 1 70 0
 8233 025c 103092E5 		ldr	r3, [r2, #16]
 8234 0260 2C3080E5 		str	r3, [r0, #44]
  71:../src/tensorflow_lite/tensorflow/lite/micro/kernels/strided_slice.cc ****   }
 8235              		.loc 1 71 0
 8236 0264 103094E5 		ldr	r3, [r4, #16]
 8237 0268 443080E5 		str	r3, [r0, #68]
 8238              	.LVL951:
 8239 026c 9DFFFFEA 		b	.L1198
 8240              	.LVL952:
 8241              	.L1302:
 8242 0270 04C094E5 		ldr	ip, [r4, #4]
  68:../src/tensorflow_lite/tensorflow/lite/micro/kernels/strided_slice.cc ****     op_params.start_indices[i] = GetTensorData<int32_t>(op_context->begin)[i];
 8243              		.loc 1 68 0
 8244 0274 010053E3 		cmp	r3, #1
  69:../src/tensorflow_lite/tensorflow/lite/micro/kernels/strided_slice.cc ****     op_params.stop_indices[i] = GetTensorData<int32_t>(op_context->end)[i];
 8245              		.loc 1 69 0
 8246 0278 00409EE5 		ldr	r4, [lr]
 8247 027c 044080E5 		str	r4, [r0, #4]
  70:../src/tensorflow_lite/tensorflow/lite/micro/kernels/strided_slice.cc ****     op_params.strides[i] = GetTensorData<int32_t>(op_context->strides)[i];
 8248              		.loc 1 70 0
 8249 0280 004092E5 		ldr	r4, [r2]
 8250 0284 1C4080E5 		str	r4, [r0, #28]
  71:../src/tensorflow_lite/tensorflow/lite/micro/kernels/strided_slice.cc ****   }
 8251              		.loc 1 71 0
 8252 0288 00409CE5 		ldr	r4, [ip]
 8253 028c 344080E5 		str	r4, [r0, #52]
 8254              	.LVL953:
  68:../src/tensorflow_lite/tensorflow/lite/micro/kernels/strided_slice.cc ****     op_params.start_indices[i] = GetTensorData<int32_t>(op_context->begin)[i];
 8255              		.loc 1 68 0
 8256 0290 94FFFF0A 		beq	.L1198
  69:../src/tensorflow_lite/tensorflow/lite/micro/kernels/strided_slice.cc ****     op_params.stop_indices[i] = GetTensorData<int32_t>(op_context->end)[i];
 8257              		.loc 1 69 0
 8258 0294 04409EE5 		ldr	r4, [lr, #4]
  68:../src/tensorflow_lite/tensorflow/lite/micro/kernels/strided_slice.cc ****     op_params.start_indices[i] = GetTensorData<int32_t>(op_context->begin)[i];
 8259              		.loc 1 68 0
 8260 0298 020053E3 		cmp	r3, #2
  69:../src/tensorflow_lite/tensorflow/lite/micro/kernels/strided_slice.cc ****     op_params.stop_indices[i] = GetTensorData<int32_t>(op_context->end)[i];
 8261              		.loc 1 69 0
 8262 029c 084080E5 		str	r4, [r0, #8]
  70:../src/tensorflow_lite/tensorflow/lite/micro/kernels/strided_slice.cc ****     op_params.strides[i] = GetTensorData<int32_t>(op_context->strides)[i];
 8263              		.loc 1 70 0
 8264 02a0 044092E5 		ldr	r4, [r2, #4]
 8265 02a4 204080E5 		str	r4, [r0, #32]
  71:../src/tensorflow_lite/tensorflow/lite/micro/kernels/strided_slice.cc ****   }
 8266              		.loc 1 71 0
 8267 02a8 04409CE5 		ldr	r4, [ip, #4]
 8268 02ac 384080E5 		str	r4, [r0, #56]
 8269              	.LVL954:
  68:../src/tensorflow_lite/tensorflow/lite/micro/kernels/strided_slice.cc ****     op_params.start_indices[i] = GetTensorData<int32_t>(op_context->begin)[i];
 8270              		.loc 1 68 0
 8271 02b0 8CFFFF0A 		beq	.L1198
  69:../src/tensorflow_lite/tensorflow/lite/micro/kernels/strided_slice.cc ****     op_params.stop_indices[i] = GetTensorData<int32_t>(op_context->end)[i];
 8272              		.loc 1 69 0
 8273 02b4 08409EE5 		ldr	r4, [lr, #8]
  68:../src/tensorflow_lite/tensorflow/lite/micro/kernels/strided_slice.cc ****     op_params.start_indices[i] = GetTensorData<int32_t>(op_context->begin)[i];
 8274              		.loc 1 68 0
 8275 02b8 030053E3 		cmp	r3, #3
  69:../src/tensorflow_lite/tensorflow/lite/micro/kernels/strided_slice.cc ****     op_params.stop_indices[i] = GetTensorData<int32_t>(op_context->end)[i];
 8276              		.loc 1 69 0
 8277 02bc 0C4080E5 		str	r4, [r0, #12]
  70:../src/tensorflow_lite/tensorflow/lite/micro/kernels/strided_slice.cc ****     op_params.strides[i] = GetTensorData<int32_t>(op_context->strides)[i];
 8278              		.loc 1 70 0
 8279 02c0 084092E5 		ldr	r4, [r2, #8]
 8280 02c4 244080E5 		str	r4, [r0, #36]
  71:../src/tensorflow_lite/tensorflow/lite/micro/kernels/strided_slice.cc ****   }
 8281              		.loc 1 71 0
 8282 02c8 08409CE5 		ldr	r4, [ip, #8]
 8283 02cc 3C4080E5 		str	r4, [r0, #60]
 8284              	.LVL955:
  68:../src/tensorflow_lite/tensorflow/lite/micro/kernels/strided_slice.cc ****     op_params.start_indices[i] = GetTensorData<int32_t>(op_context->begin)[i];
 8285              		.loc 1 68 0
 8286 02d0 84FFFF0A 		beq	.L1198
  69:../src/tensorflow_lite/tensorflow/lite/micro/kernels/strided_slice.cc ****     op_params.stop_indices[i] = GetTensorData<int32_t>(op_context->end)[i];
 8287              		.loc 1 69 0
 8288 02d4 0C409EE5 		ldr	r4, [lr, #12]
  68:../src/tensorflow_lite/tensorflow/lite/micro/kernels/strided_slice.cc ****     op_params.start_indices[i] = GetTensorData<int32_t>(op_context->begin)[i];
 8289              		.loc 1 68 0
 8290 02d8 040053E3 		cmp	r3, #4
  69:../src/tensorflow_lite/tensorflow/lite/micro/kernels/strided_slice.cc ****     op_params.stop_indices[i] = GetTensorData<int32_t>(op_context->end)[i];
 8291              		.loc 1 69 0
 8292 02dc 104080E5 		str	r4, [r0, #16]
  70:../src/tensorflow_lite/tensorflow/lite/micro/kernels/strided_slice.cc ****     op_params.strides[i] = GetTensorData<int32_t>(op_context->strides)[i];
 8293              		.loc 1 70 0
 8294 02e0 0C3092E5 		ldr	r3, [r2, #12]
 8295 02e4 283080E5 		str	r3, [r0, #40]
  71:../src/tensorflow_lite/tensorflow/lite/micro/kernels/strided_slice.cc ****   }
 8296              		.loc 1 71 0
 8297 02e8 0C309CE5 		ldr	r3, [ip, #12]
 8298 02ec 403080E5 		str	r3, [r0, #64]
 8299              	.LVL956:
  68:../src/tensorflow_lite/tensorflow/lite/micro/kernels/strided_slice.cc ****     op_params.start_indices[i] = GetTensorData<int32_t>(op_context->begin)[i];
 8300              		.loc 1 68 0
 8301 02f0 7CFFFF0A 		beq	.L1198
  69:../src/tensorflow_lite/tensorflow/lite/micro/kernels/strided_slice.cc ****     op_params.stop_indices[i] = GetTensorData<int32_t>(op_context->end)[i];
 8302              		.loc 1 69 0
 8303 02f4 10309EE5 		ldr	r3, [lr, #16]
 8304              	.L1299:
 8305 02f8 143080E5 		str	r3, [r0, #20]
  70:../src/tensorflow_lite/tensorflow/lite/micro/kernels/strided_slice.cc ****     op_params.strides[i] = GetTensorData<int32_t>(op_context->strides)[i];
 8306              		.loc 1 70 0
 8307 02fc 103092E5 		ldr	r3, [r2, #16]
 8308 0300 2C3080E5 		str	r3, [r0, #44]
  71:../src/tensorflow_lite/tensorflow/lite/micro/kernels/strided_slice.cc ****   }
 8309              		.loc 1 71 0
 8310 0304 10309CE5 		ldr	r3, [ip, #16]
 8311 0308 443080E5 		str	r3, [r0, #68]
 8312              	.LVL957:
 8313 030c 75FFFFEA 		b	.L1198
 8314              	.LVL958:
 8315              	.L1303:
 8316 0310 000052E3 		cmp	r2, #0
 8317 0314 6C00000A 		beq	.L1306
  69:../src/tensorflow_lite/tensorflow/lite/micro/kernels/strided_slice.cc ****     op_params.stop_indices[i] = GetTensorData<int32_t>(op_context->end)[i];
 8318              		.loc 1 69 0
 8319 0318 00C094E5 		ldr	ip, [r4]
  68:../src/tensorflow_lite/tensorflow/lite/micro/kernels/strided_slice.cc ****     op_params.start_indices[i] = GetTensorData<int32_t>(op_context->begin)[i];
 8320              		.loc 1 68 0
 8321 031c 010053E3 		cmp	r3, #1
 8322 0320 042092E5 		ldr	r2, [r2, #4]
  69:../src/tensorflow_lite/tensorflow/lite/micro/kernels/strided_slice.cc ****     op_params.stop_indices[i] = GetTensorData<int32_t>(op_context->end)[i];
 8323              		.loc 1 69 0
 8324 0324 04C080E5 		str	ip, [r0, #4]
  70:../src/tensorflow_lite/tensorflow/lite/micro/kernels/strided_slice.cc ****     op_params.strides[i] = GetTensorData<int32_t>(op_context->strides)[i];
 8325              		.loc 1 70 0
 8326 0328 00C092E5 		ldr	ip, [r2]
 8327 032c 1CC080E5 		str	ip, [r0, #28]
  71:../src/tensorflow_lite/tensorflow/lite/micro/kernels/strided_slice.cc ****   }
 8328              		.loc 1 71 0
 8329 0330 00C094E5 		ldr	ip, [r4]
 8330 0334 34C080E5 		str	ip, [r0, #52]
 8331              	.LVL959:
  68:../src/tensorflow_lite/tensorflow/lite/micro/kernels/strided_slice.cc ****     op_params.start_indices[i] = GetTensorData<int32_t>(op_context->begin)[i];
 8332              		.loc 1 68 0
 8333 0338 6AFFFF0A 		beq	.L1198
  69:../src/tensorflow_lite/tensorflow/lite/micro/kernels/strided_slice.cc ****     op_params.stop_indices[i] = GetTensorData<int32_t>(op_context->end)[i];
 8334              		.loc 1 69 0
 8335 033c 04C094E5 		ldr	ip, [r4, #4]
  68:../src/tensorflow_lite/tensorflow/lite/micro/kernels/strided_slice.cc ****     op_params.start_indices[i] = GetTensorData<int32_t>(op_context->begin)[i];
 8336              		.loc 1 68 0
 8337 0340 020053E3 		cmp	r3, #2
  69:../src/tensorflow_lite/tensorflow/lite/micro/kernels/strided_slice.cc ****     op_params.stop_indices[i] = GetTensorData<int32_t>(op_context->end)[i];
 8338              		.loc 1 69 0
 8339 0344 08C080E5 		str	ip, [r0, #8]
  70:../src/tensorflow_lite/tensorflow/lite/micro/kernels/strided_slice.cc ****     op_params.strides[i] = GetTensorData<int32_t>(op_context->strides)[i];
 8340              		.loc 1 70 0
 8341 0348 04C092E5 		ldr	ip, [r2, #4]
 8342 034c 20C080E5 		str	ip, [r0, #32]
  71:../src/tensorflow_lite/tensorflow/lite/micro/kernels/strided_slice.cc ****   }
 8343              		.loc 1 71 0
 8344 0350 04C094E5 		ldr	ip, [r4, #4]
 8345 0354 38C080E5 		str	ip, [r0, #56]
 8346              	.LVL960:
  68:../src/tensorflow_lite/tensorflow/lite/micro/kernels/strided_slice.cc ****     op_params.start_indices[i] = GetTensorData<int32_t>(op_context->begin)[i];
 8347              		.loc 1 68 0
 8348 0358 62FFFF0A 		beq	.L1198
  69:../src/tensorflow_lite/tensorflow/lite/micro/kernels/strided_slice.cc ****     op_params.stop_indices[i] = GetTensorData<int32_t>(op_context->end)[i];
 8349              		.loc 1 69 0
 8350 035c 08C094E5 		ldr	ip, [r4, #8]
  68:../src/tensorflow_lite/tensorflow/lite/micro/kernels/strided_slice.cc ****     op_params.start_indices[i] = GetTensorData<int32_t>(op_context->begin)[i];
 8351              		.loc 1 68 0
 8352 0360 030053E3 		cmp	r3, #3
  69:../src/tensorflow_lite/tensorflow/lite/micro/kernels/strided_slice.cc ****     op_params.stop_indices[i] = GetTensorData<int32_t>(op_context->end)[i];
 8353              		.loc 1 69 0
 8354 0364 0CC080E5 		str	ip, [r0, #12]
  70:../src/tensorflow_lite/tensorflow/lite/micro/kernels/strided_slice.cc ****     op_params.strides[i] = GetTensorData<int32_t>(op_context->strides)[i];
 8355              		.loc 1 70 0
 8356 0368 08C092E5 		ldr	ip, [r2, #8]
 8357 036c 24C080E5 		str	ip, [r0, #36]
  71:../src/tensorflow_lite/tensorflow/lite/micro/kernels/strided_slice.cc ****   }
 8358              		.loc 1 71 0
 8359 0370 08C094E5 		ldr	ip, [r4, #8]
 8360 0374 3CC080E5 		str	ip, [r0, #60]
 8361              	.LVL961:
  68:../src/tensorflow_lite/tensorflow/lite/micro/kernels/strided_slice.cc ****     op_params.start_indices[i] = GetTensorData<int32_t>(op_context->begin)[i];
 8362              		.loc 1 68 0
 8363 0378 5AFFFF0A 		beq	.L1198
  69:../src/tensorflow_lite/tensorflow/lite/micro/kernels/strided_slice.cc ****     op_params.stop_indices[i] = GetTensorData<int32_t>(op_context->end)[i];
 8364              		.loc 1 69 0
 8365 037c 0CC094E5 		ldr	ip, [r4, #12]
  68:../src/tensorflow_lite/tensorflow/lite/micro/kernels/strided_slice.cc ****     op_params.start_indices[i] = GetTensorData<int32_t>(op_context->begin)[i];
 8366              		.loc 1 68 0
 8367 0380 040053E3 		cmp	r3, #4
  69:../src/tensorflow_lite/tensorflow/lite/micro/kernels/strided_slice.cc ****     op_params.stop_indices[i] = GetTensorData<int32_t>(op_context->end)[i];
 8368              		.loc 1 69 0
 8369 0384 10C080E5 		str	ip, [r0, #16]
  70:../src/tensorflow_lite/tensorflow/lite/micro/kernels/strided_slice.cc ****     op_params.strides[i] = GetTensorData<int32_t>(op_context->strides)[i];
 8370              		.loc 1 70 0
 8371 0388 0C3092E5 		ldr	r3, [r2, #12]
 8372 038c 283080E5 		str	r3, [r0, #40]
  71:../src/tensorflow_lite/tensorflow/lite/micro/kernels/strided_slice.cc ****   }
 8373              		.loc 1 71 0
 8374 0390 0C3094E5 		ldr	r3, [r4, #12]
 8375 0394 403080E5 		str	r3, [r0, #64]
 8376              	.LVL962:
  68:../src/tensorflow_lite/tensorflow/lite/micro/kernels/strided_slice.cc ****     op_params.start_indices[i] = GetTensorData<int32_t>(op_context->begin)[i];
 8377              		.loc 1 68 0
 8378 0398 52FFFF0A 		beq	.L1198
  69:../src/tensorflow_lite/tensorflow/lite/micro/kernels/strided_slice.cc ****     op_params.stop_indices[i] = GetTensorData<int32_t>(op_context->end)[i];
 8379              		.loc 1 69 0
 8380 039c 103094E5 		ldr	r3, [r4, #16]
 8381 03a0 ACFFFFEA 		b	.L1298
 8382              	.LVL963:
 8383              	.L1305:
 8384 03a4 00E09CE5 		ldr	lr, [ip]
  68:../src/tensorflow_lite/tensorflow/lite/micro/kernels/strided_slice.cc ****     op_params.start_indices[i] = GetTensorData<int32_t>(op_context->begin)[i];
 8385              		.loc 1 68 0
 8386 03a8 010053E3 		cmp	r3, #1
  69:../src/tensorflow_lite/tensorflow/lite/micro/kernels/strided_slice.cc ****     op_params.stop_indices[i] = GetTensorData<int32_t>(op_context->end)[i];
 8387              		.loc 1 69 0
 8388 03ac 04E080E5 		str	lr, [r0, #4]
  70:../src/tensorflow_lite/tensorflow/lite/micro/kernels/strided_slice.cc ****     op_params.strides[i] = GetTensorData<int32_t>(op_context->strides)[i];
 8389              		.loc 1 70 0
 8390 03b0 00E092E5 		ldr	lr, [r2]
 8391 03b4 1CE080E5 		str	lr, [r0, #28]
  71:../src/tensorflow_lite/tensorflow/lite/micro/kernels/strided_slice.cc ****   }
 8392              		.loc 1 71 0
 8393 03b8 00E092E5 		ldr	lr, [r2]
 8394 03bc 34E080E5 		str	lr, [r0, #52]
 8395              	.LVL964:
  68:../src/tensorflow_lite/tensorflow/lite/micro/kernels/strided_slice.cc ****     op_params.start_indices[i] = GetTensorData<int32_t>(op_context->begin)[i];
 8396              		.loc 1 68 0
 8397 03c0 48FFFF0A 		beq	.L1198
  69:../src/tensorflow_lite/tensorflow/lite/micro/kernels/strided_slice.cc ****     op_params.stop_indices[i] = GetTensorData<int32_t>(op_context->end)[i];
 8398              		.loc 1 69 0
 8399 03c4 04E09CE5 		ldr	lr, [ip, #4]
  68:../src/tensorflow_lite/tensorflow/lite/micro/kernels/strided_slice.cc ****     op_params.start_indices[i] = GetTensorData<int32_t>(op_context->begin)[i];
 8400              		.loc 1 68 0
 8401 03c8 020053E3 		cmp	r3, #2
  69:../src/tensorflow_lite/tensorflow/lite/micro/kernels/strided_slice.cc ****     op_params.stop_indices[i] = GetTensorData<int32_t>(op_context->end)[i];
 8402              		.loc 1 69 0
 8403 03cc 08E080E5 		str	lr, [r0, #8]
  70:../src/tensorflow_lite/tensorflow/lite/micro/kernels/strided_slice.cc ****     op_params.strides[i] = GetTensorData<int32_t>(op_context->strides)[i];
 8404              		.loc 1 70 0
 8405 03d0 04E092E5 		ldr	lr, [r2, #4]
 8406 03d4 20E080E5 		str	lr, [r0, #32]
  71:../src/tensorflow_lite/tensorflow/lite/micro/kernels/strided_slice.cc ****   }
 8407              		.loc 1 71 0
 8408 03d8 04E092E5 		ldr	lr, [r2, #4]
 8409 03dc 38E080E5 		str	lr, [r0, #56]
 8410              	.LVL965:
  68:../src/tensorflow_lite/tensorflow/lite/micro/kernels/strided_slice.cc ****     op_params.start_indices[i] = GetTensorData<int32_t>(op_context->begin)[i];
 8411              		.loc 1 68 0
 8412 03e0 40FFFF0A 		beq	.L1198
  69:../src/tensorflow_lite/tensorflow/lite/micro/kernels/strided_slice.cc ****     op_params.stop_indices[i] = GetTensorData<int32_t>(op_context->end)[i];
 8413              		.loc 1 69 0
 8414 03e4 08E09CE5 		ldr	lr, [ip, #8]
  68:../src/tensorflow_lite/tensorflow/lite/micro/kernels/strided_slice.cc ****     op_params.start_indices[i] = GetTensorData<int32_t>(op_context->begin)[i];
 8415              		.loc 1 68 0
 8416 03e8 030053E3 		cmp	r3, #3
  69:../src/tensorflow_lite/tensorflow/lite/micro/kernels/strided_slice.cc ****     op_params.stop_indices[i] = GetTensorData<int32_t>(op_context->end)[i];
 8417              		.loc 1 69 0
 8418 03ec 0CE080E5 		str	lr, [r0, #12]
  70:../src/tensorflow_lite/tensorflow/lite/micro/kernels/strided_slice.cc ****     op_params.strides[i] = GetTensorData<int32_t>(op_context->strides)[i];
 8419              		.loc 1 70 0
 8420 03f0 08E092E5 		ldr	lr, [r2, #8]
 8421 03f4 24E080E5 		str	lr, [r0, #36]
  71:../src/tensorflow_lite/tensorflow/lite/micro/kernels/strided_slice.cc ****   }
 8422              		.loc 1 71 0
 8423 03f8 08E092E5 		ldr	lr, [r2, #8]
 8424 03fc 3CE080E5 		str	lr, [r0, #60]
 8425              	.LVL966:
  68:../src/tensorflow_lite/tensorflow/lite/micro/kernels/strided_slice.cc ****     op_params.start_indices[i] = GetTensorData<int32_t>(op_context->begin)[i];
 8426              		.loc 1 68 0
 8427 0400 38FFFF0A 		beq	.L1198
  69:../src/tensorflow_lite/tensorflow/lite/micro/kernels/strided_slice.cc ****     op_params.stop_indices[i] = GetTensorData<int32_t>(op_context->end)[i];
 8428              		.loc 1 69 0
 8429 0404 0CE09CE5 		ldr	lr, [ip, #12]
  68:../src/tensorflow_lite/tensorflow/lite/micro/kernels/strided_slice.cc ****     op_params.start_indices[i] = GetTensorData<int32_t>(op_context->begin)[i];
 8430              		.loc 1 68 0
 8431 0408 040053E3 		cmp	r3, #4
  69:../src/tensorflow_lite/tensorflow/lite/micro/kernels/strided_slice.cc ****     op_params.stop_indices[i] = GetTensorData<int32_t>(op_context->end)[i];
 8432              		.loc 1 69 0
 8433 040c 10E080E5 		str	lr, [r0, #16]
  70:../src/tensorflow_lite/tensorflow/lite/micro/kernels/strided_slice.cc ****     op_params.strides[i] = GetTensorData<int32_t>(op_context->strides)[i];
 8434              		.loc 1 70 0
 8435 0410 0C3092E5 		ldr	r3, [r2, #12]
 8436 0414 283080E5 		str	r3, [r0, #40]
  71:../src/tensorflow_lite/tensorflow/lite/micro/kernels/strided_slice.cc ****   }
 8437              		.loc 1 71 0
 8438 0418 0C3092E5 		ldr	r3, [r2, #12]
 8439 041c 403080E5 		str	r3, [r0, #64]
 8440              	.LVL967:
  68:../src/tensorflow_lite/tensorflow/lite/micro/kernels/strided_slice.cc ****     op_params.start_indices[i] = GetTensorData<int32_t>(op_context->begin)[i];
 8441              		.loc 1 68 0
 8442 0420 30FFFF0A 		beq	.L1198
  69:../src/tensorflow_lite/tensorflow/lite/micro/kernels/strided_slice.cc ****     op_params.stop_indices[i] = GetTensorData<int32_t>(op_context->end)[i];
 8443              		.loc 1 69 0
 8444 0424 10309CE5 		ldr	r3, [ip, #16]
 8445              	.L1297:
 8446 0428 143080E5 		str	r3, [r0, #20]
  70:../src/tensorflow_lite/tensorflow/lite/micro/kernels/strided_slice.cc ****     op_params.strides[i] = GetTensorData<int32_t>(op_context->strides)[i];
 8447              		.loc 1 70 0
 8448 042c 103092E5 		ldr	r3, [r2, #16]
 8449 0430 2C3080E5 		str	r3, [r0, #44]
  71:../src/tensorflow_lite/tensorflow/lite/micro/kernels/strided_slice.cc ****   }
 8450              		.loc 1 71 0
 8451 0434 103092E5 		ldr	r3, [r2, #16]
 8452 0438 443080E5 		str	r3, [r0, #68]
 8453              	.LVL968:
 8454 043c 29FFFFEA 		b	.L1198
 8455              	.LVL969:
 8456              	.L1304:
  69:../src/tensorflow_lite/tensorflow/lite/micro/kernels/strided_slice.cc ****     op_params.stop_indices[i] = GetTensorData<int32_t>(op_context->end)[i];
 8457              		.loc 1 69 0
 8458 0440 00E092E5 		ldr	lr, [r2]
  68:../src/tensorflow_lite/tensorflow/lite/micro/kernels/strided_slice.cc ****     op_params.start_indices[i] = GetTensorData<int32_t>(op_context->begin)[i];
 8459              		.loc 1 68 0
 8460 0444 010053E3 		cmp	r3, #1
 8461 0448 04C094E5 		ldr	ip, [r4, #4]
  69:../src/tensorflow_lite/tensorflow/lite/micro/kernels/strided_slice.cc ****     op_params.stop_indices[i] = GetTensorData<int32_t>(op_context->end)[i];
 8462              		.loc 1 69 0
 8463 044c 04E080E5 		str	lr, [r0, #4]
  70:../src/tensorflow_lite/tensorflow/lite/micro/kernels/strided_slice.cc ****     op_params.strides[i] = GetTensorData<int32_t>(op_context->strides)[i];
 8464              		.loc 1 70 0
 8465 0450 00E092E5 		ldr	lr, [r2]
 8466 0454 1CE080E5 		str	lr, [r0, #28]
  71:../src/tensorflow_lite/tensorflow/lite/micro/kernels/strided_slice.cc ****   }
 8467              		.loc 1 71 0
 8468 0458 00E09CE5 		ldr	lr, [ip]
 8469 045c 34E080E5 		str	lr, [r0, #52]
 8470              	.LVL970:
  68:../src/tensorflow_lite/tensorflow/lite/micro/kernels/strided_slice.cc ****     op_params.start_indices[i] = GetTensorData<int32_t>(op_context->begin)[i];
 8471              		.loc 1 68 0
 8472 0460 20FFFF0A 		beq	.L1198
  69:../src/tensorflow_lite/tensorflow/lite/micro/kernels/strided_slice.cc ****     op_params.stop_indices[i] = GetTensorData<int32_t>(op_context->end)[i];
 8473              		.loc 1 69 0
 8474 0464 04E092E5 		ldr	lr, [r2, #4]
  68:../src/tensorflow_lite/tensorflow/lite/micro/kernels/strided_slice.cc ****     op_params.start_indices[i] = GetTensorData<int32_t>(op_context->begin)[i];
 8475              		.loc 1 68 0
 8476 0468 020053E3 		cmp	r3, #2
  69:../src/tensorflow_lite/tensorflow/lite/micro/kernels/strided_slice.cc ****     op_params.stop_indices[i] = GetTensorData<int32_t>(op_context->end)[i];
 8477              		.loc 1 69 0
 8478 046c 08E080E5 		str	lr, [r0, #8]
  70:../src/tensorflow_lite/tensorflow/lite/micro/kernels/strided_slice.cc ****     op_params.strides[i] = GetTensorData<int32_t>(op_context->strides)[i];
 8479              		.loc 1 70 0
 8480 0470 04E092E5 		ldr	lr, [r2, #4]
 8481 0474 20E080E5 		str	lr, [r0, #32]
  71:../src/tensorflow_lite/tensorflow/lite/micro/kernels/strided_slice.cc ****   }
 8482              		.loc 1 71 0
 8483 0478 04E09CE5 		ldr	lr, [ip, #4]
 8484 047c 38E080E5 		str	lr, [r0, #56]
 8485              	.LVL971:
  68:../src/tensorflow_lite/tensorflow/lite/micro/kernels/strided_slice.cc ****     op_params.start_indices[i] = GetTensorData<int32_t>(op_context->begin)[i];
 8486              		.loc 1 68 0
 8487 0480 18FFFF0A 		beq	.L1198
  69:../src/tensorflow_lite/tensorflow/lite/micro/kernels/strided_slice.cc ****     op_params.stop_indices[i] = GetTensorData<int32_t>(op_context->end)[i];
 8488              		.loc 1 69 0
 8489 0484 08E092E5 		ldr	lr, [r2, #8]
  68:../src/tensorflow_lite/tensorflow/lite/micro/kernels/strided_slice.cc ****     op_params.start_indices[i] = GetTensorData<int32_t>(op_context->begin)[i];
 8490              		.loc 1 68 0
 8491 0488 030053E3 		cmp	r3, #3
  69:../src/tensorflow_lite/tensorflow/lite/micro/kernels/strided_slice.cc ****     op_params.stop_indices[i] = GetTensorData<int32_t>(op_context->end)[i];
 8492              		.loc 1 69 0
 8493 048c 0CE080E5 		str	lr, [r0, #12]
  70:../src/tensorflow_lite/tensorflow/lite/micro/kernels/strided_slice.cc ****     op_params.strides[i] = GetTensorData<int32_t>(op_context->strides)[i];
 8494              		.loc 1 70 0
 8495 0490 08E092E5 		ldr	lr, [r2, #8]
 8496 0494 24E080E5 		str	lr, [r0, #36]
  71:../src/tensorflow_lite/tensorflow/lite/micro/kernels/strided_slice.cc ****   }
 8497              		.loc 1 71 0
 8498 0498 08E09CE5 		ldr	lr, [ip, #8]
 8499 049c 3CE080E5 		str	lr, [r0, #60]
 8500              	.LVL972:
  68:../src/tensorflow_lite/tensorflow/lite/micro/kernels/strided_slice.cc ****     op_params.start_indices[i] = GetTensorData<int32_t>(op_context->begin)[i];
 8501              		.loc 1 68 0
 8502 04a0 10FFFF0A 		beq	.L1198
  69:../src/tensorflow_lite/tensorflow/lite/micro/kernels/strided_slice.cc ****     op_params.stop_indices[i] = GetTensorData<int32_t>(op_context->end)[i];
 8503              		.loc 1 69 0
 8504 04a4 0CE092E5 		ldr	lr, [r2, #12]
  68:../src/tensorflow_lite/tensorflow/lite/micro/kernels/strided_slice.cc ****     op_params.start_indices[i] = GetTensorData<int32_t>(op_context->begin)[i];
 8505              		.loc 1 68 0
 8506 04a8 040053E3 		cmp	r3, #4
  69:../src/tensorflow_lite/tensorflow/lite/micro/kernels/strided_slice.cc ****     op_params.stop_indices[i] = GetTensorData<int32_t>(op_context->end)[i];
 8507              		.loc 1 69 0
 8508 04ac 10E080E5 		str	lr, [r0, #16]
  70:../src/tensorflow_lite/tensorflow/lite/micro/kernels/strided_slice.cc ****     op_params.strides[i] = GetTensorData<int32_t>(op_context->strides)[i];
 8509              		.loc 1 70 0
 8510 04b0 0C3092E5 		ldr	r3, [r2, #12]
 8511 04b4 283080E5 		str	r3, [r0, #40]
  71:../src/tensorflow_lite/tensorflow/lite/micro/kernels/strided_slice.cc ****   }
 8512              		.loc 1 71 0
 8513 04b8 0C309CE5 		ldr	r3, [ip, #12]
 8514 04bc 403080E5 		str	r3, [r0, #64]
 8515              	.LVL973:
  68:../src/tensorflow_lite/tensorflow/lite/micro/kernels/strided_slice.cc ****     op_params.start_indices[i] = GetTensorData<int32_t>(op_context->begin)[i];
 8516              		.loc 1 68 0
 8517 04c0 08FFFF0A 		beq	.L1198
  69:../src/tensorflow_lite/tensorflow/lite/micro/kernels/strided_slice.cc ****     op_params.stop_indices[i] = GetTensorData<int32_t>(op_context->end)[i];
 8518              		.loc 1 69 0
 8519 04c4 103092E5 		ldr	r3, [r2, #16]
 8520 04c8 8AFFFFEA 		b	.L1299
 8521              	.LVL974:
 8522              	.L1306:
 8523 04cc 00C092E5 		ldr	ip, [r2]
  68:../src/tensorflow_lite/tensorflow/lite/micro/kernels/strided_slice.cc ****     op_params.start_indices[i] = GetTensorData<int32_t>(op_context->begin)[i];
 8524              		.loc 1 68 0
 8525 04d0 010053E3 		cmp	r3, #1
  69:../src/tensorflow_lite/tensorflow/lite/micro/kernels/strided_slice.cc ****     op_params.stop_indices[i] = GetTensorData<int32_t>(op_context->end)[i];
 8526              		.loc 1 69 0
 8527 04d4 04C080E5 		str	ip, [r0, #4]
  70:../src/tensorflow_lite/tensorflow/lite/micro/kernels/strided_slice.cc ****     op_params.strides[i] = GetTensorData<int32_t>(op_context->strides)[i];
 8528              		.loc 1 70 0
 8529 04d8 00C092E5 		ldr	ip, [r2]
 8530 04dc 1CC080E5 		str	ip, [r0, #28]
  71:../src/tensorflow_lite/tensorflow/lite/micro/kernels/strided_slice.cc ****   }
 8531              		.loc 1 71 0
 8532 04e0 00C092E5 		ldr	ip, [r2]
 8533 04e4 34C080E5 		str	ip, [r0, #52]
 8534              	.LVL975:
  68:../src/tensorflow_lite/tensorflow/lite/micro/kernels/strided_slice.cc ****     op_params.start_indices[i] = GetTensorData<int32_t>(op_context->begin)[i];
 8535              		.loc 1 68 0
 8536 04e8 FEFEFF0A 		beq	.L1198
  69:../src/tensorflow_lite/tensorflow/lite/micro/kernels/strided_slice.cc ****     op_params.stop_indices[i] = GetTensorData<int32_t>(op_context->end)[i];
 8537              		.loc 1 69 0
 8538 04ec 04C092E5 		ldr	ip, [r2, #4]
  68:../src/tensorflow_lite/tensorflow/lite/micro/kernels/strided_slice.cc ****     op_params.start_indices[i] = GetTensorData<int32_t>(op_context->begin)[i];
 8539              		.loc 1 68 0
 8540 04f0 020053E3 		cmp	r3, #2
  69:../src/tensorflow_lite/tensorflow/lite/micro/kernels/strided_slice.cc ****     op_params.stop_indices[i] = GetTensorData<int32_t>(op_context->end)[i];
 8541              		.loc 1 69 0
 8542 04f4 08C080E5 		str	ip, [r0, #8]
  70:../src/tensorflow_lite/tensorflow/lite/micro/kernels/strided_slice.cc ****     op_params.strides[i] = GetTensorData<int32_t>(op_context->strides)[i];
 8543              		.loc 1 70 0
 8544 04f8 04C092E5 		ldr	ip, [r2, #4]
 8545 04fc 20C080E5 		str	ip, [r0, #32]
  71:../src/tensorflow_lite/tensorflow/lite/micro/kernels/strided_slice.cc ****   }
 8546              		.loc 1 71 0
 8547 0500 04C092E5 		ldr	ip, [r2, #4]
 8548 0504 38C080E5 		str	ip, [r0, #56]
 8549              	.LVL976:
  68:../src/tensorflow_lite/tensorflow/lite/micro/kernels/strided_slice.cc ****     op_params.start_indices[i] = GetTensorData<int32_t>(op_context->begin)[i];
 8550              		.loc 1 68 0
 8551 0508 F6FEFF0A 		beq	.L1198
  69:../src/tensorflow_lite/tensorflow/lite/micro/kernels/strided_slice.cc ****     op_params.stop_indices[i] = GetTensorData<int32_t>(op_context->end)[i];
 8552              		.loc 1 69 0
 8553 050c 08C092E5 		ldr	ip, [r2, #8]
  68:../src/tensorflow_lite/tensorflow/lite/micro/kernels/strided_slice.cc ****     op_params.start_indices[i] = GetTensorData<int32_t>(op_context->begin)[i];
 8554              		.loc 1 68 0
 8555 0510 030053E3 		cmp	r3, #3
  69:../src/tensorflow_lite/tensorflow/lite/micro/kernels/strided_slice.cc ****     op_params.stop_indices[i] = GetTensorData<int32_t>(op_context->end)[i];
 8556              		.loc 1 69 0
 8557 0514 0CC080E5 		str	ip, [r0, #12]
  70:../src/tensorflow_lite/tensorflow/lite/micro/kernels/strided_slice.cc ****     op_params.strides[i] = GetTensorData<int32_t>(op_context->strides)[i];
 8558              		.loc 1 70 0
 8559 0518 08C092E5 		ldr	ip, [r2, #8]
 8560 051c 24C080E5 		str	ip, [r0, #36]
  71:../src/tensorflow_lite/tensorflow/lite/micro/kernels/strided_slice.cc ****   }
 8561              		.loc 1 71 0
 8562 0520 08C092E5 		ldr	ip, [r2, #8]
 8563 0524 3CC080E5 		str	ip, [r0, #60]
 8564              	.LVL977:
  68:../src/tensorflow_lite/tensorflow/lite/micro/kernels/strided_slice.cc ****     op_params.start_indices[i] = GetTensorData<int32_t>(op_context->begin)[i];
 8565              		.loc 1 68 0
 8566 0528 EEFEFF0A 		beq	.L1198
  69:../src/tensorflow_lite/tensorflow/lite/micro/kernels/strided_slice.cc ****     op_params.stop_indices[i] = GetTensorData<int32_t>(op_context->end)[i];
 8567              		.loc 1 69 0
 8568 052c 0CC092E5 		ldr	ip, [r2, #12]
  68:../src/tensorflow_lite/tensorflow/lite/micro/kernels/strided_slice.cc ****     op_params.start_indices[i] = GetTensorData<int32_t>(op_context->begin)[i];
 8569              		.loc 1 68 0
 8570 0530 040053E3 		cmp	r3, #4
  69:../src/tensorflow_lite/tensorflow/lite/micro/kernels/strided_slice.cc ****     op_params.stop_indices[i] = GetTensorData<int32_t>(op_context->end)[i];
 8571              		.loc 1 69 0
 8572 0534 10C080E5 		str	ip, [r0, #16]
  70:../src/tensorflow_lite/tensorflow/lite/micro/kernels/strided_slice.cc ****     op_params.strides[i] = GetTensorData<int32_t>(op_context->strides)[i];
 8573              		.loc 1 70 0
 8574 0538 0C3092E5 		ldr	r3, [r2, #12]
 8575 053c 283080E5 		str	r3, [r0, #40]
  71:../src/tensorflow_lite/tensorflow/lite/micro/kernels/strided_slice.cc ****   }
 8576              		.loc 1 71 0
 8577 0540 0C3092E5 		ldr	r3, [r2, #12]
 8578 0544 403080E5 		str	r3, [r0, #64]
 8579              	.LVL978:
  68:../src/tensorflow_lite/tensorflow/lite/micro/kernels/strided_slice.cc ****     op_params.start_indices[i] = GetTensorData<int32_t>(op_context->begin)[i];
 8580              		.loc 1 68 0
 8581 0548 E6FEFF0A 		beq	.L1198
  69:../src/tensorflow_lite/tensorflow/lite/micro/kernels/strided_slice.cc ****     op_params.stop_indices[i] = GetTensorData<int32_t>(op_context->end)[i];
 8582              		.loc 1 69 0
 8583 054c 103092E5 		ldr	r3, [r2, #16]
 8584 0550 B4FFFFEA 		b	.L1297
 8585              	.LBE2020:
 8586              		.cfi_endproc
 8587              	.LFE4517:
 8588              		.cantunwind
 8589              		.fnend
 8591              		.section	.text._ZN6tflite3ops5micro13strided_slice15CheckOutputSizeEP13TfLiteContextPNS2_19Strided
 8592              		.align	2
 8593              		.global	_ZN6tflite3ops5micro13strided_slice15CheckOutputSizeEP13TfLiteContextPNS2_19StridedSliceCo
 8594              		.syntax unified
 8595              		.arm
 8596              		.fpu neon
 8598              	_ZN6tflite3ops5micro13strided_slice15CheckOutputSizeEP13TfLiteContextPNS2_19StridedSliceContextE:
 8599              		.fnstart
 8600              	.LFB4518:
  86:../src/tensorflow_lite/tensorflow/lite/micro/kernels/strided_slice.cc ****   using ::tflite::strided_slice::StartForAxis;
 8601              		.loc 1 86 0
 8602              		.cfi_startproc
 8603              		.cfi_personality 0,__gxx_personality_v0
 8604              		.cfi_lsda 0,.LLSDA4518
 8605              		@ args = 0, pretend = 0, frame = 136
 8606              		@ frame_needed = 0, uses_anonymous_args = 0
 8607              	.LVL979:
 8608 0000 F04F2DE9 		push	{r4, r5, r6, r7, r8, r9, r10, fp, lr}
 8609              		.save {r4, r5, r6, r7, r8, r9, r10, fp, lr}
 8610              		.cfi_def_cfa_offset 36
 8611              		.cfi_offset 4, -36
 8612              		.cfi_offset 5, -32
 8613              		.cfi_offset 6, -28
 8614              		.cfi_offset 7, -24
 8615              		.cfi_offset 8, -20
 8616              		.cfi_offset 9, -16
 8617              		.cfi_offset 10, -12
 8618              		.cfi_offset 11, -8
 8619              		.cfi_offset 14, -4
 8620              		.pad #156
 8621 0004 9CD04DE2 		sub	sp, sp, #156
 8622              		.cfi_def_cfa_offset 192
 8623              	.LBB2070:
 8624              	.LBB2071:
  64:../src/tensorflow_lite/tensorflow/lite/micro/kernels/strided_slice.cc ****   op_params.stop_indices_count = op_context->dims;
 8625              		.loc 1 64 0
 8626 0008 189091E5 		ldr	r9, [r1, #24]
 8627              	.LBE2071:
 8628              	.LBE2070:
  86:../src/tensorflow_lite/tensorflow/lite/micro/kernels/strided_slice.cc ****   using ::tflite::strided_slice::StartForAxis;
 8629              		.loc 1 86 0
 8630 000c 0160A0E1 		mov	r6, r1
  89:../src/tensorflow_lite/tensorflow/lite/micro/kernels/strided_slice.cc ****   int shape_size = 0;
 8631              		.loc 1 89 0
 8632 0010 142091E5 		ldr	r2, [r1, #20]
 8633              	.LBB2086:
 8634              	.LBB2077:
 8635              	.LBB2072:
  68:../src/tensorflow_lite/tensorflow/lite/micro/kernels/strided_slice.cc ****     op_params.start_indices[i] = GetTensorData<int32_t>(op_context->begin)[i];
 8636              		.loc 1 68 0
 8637 0014 000059E3 		cmp	r9, #0
 8638              	.LBE2072:
 8639              	.LBE2077:
 8640              	.LBE2086:
  86:../src/tensorflow_lite/tensorflow/lite/micro/kernels/strided_slice.cc ****   using ::tflite::strided_slice::StartForAxis;
 8641              		.loc 1 86 0
 8642 0018 24008DE5 		str	r0, [sp, #36]
 8643              	.LBB2087:
 8644              	.LBB2078:
  64:../src/tensorflow_lite/tensorflow/lite/micro/kernels/strided_slice.cc ****   op_params.stop_indices_count = op_context->dims;
 8645              		.loc 1 64 0
 8646 001c 7930AFE6 		sxtb	r3, r9
 8647              	.LBE2078:
 8648              	.LBE2087:
  89:../src/tensorflow_lite/tensorflow/lite/micro/kernels/strided_slice.cc ****   int shape_size = 0;
 8649              		.loc 1 89 0
 8650 0020 082092E5 		ldr	r2, [r2, #8]
 8651              	.LBB2088:
 8652              	.LBB2079:
  64:../src/tensorflow_lite/tensorflow/lite/micro/kernels/strided_slice.cc ****   op_params.stop_indices_count = op_context->dims;
 8653              		.loc 1 64 0
 8654 0024 4430CDE5 		strb	r3, [sp, #68]
  65:../src/tensorflow_lite/tensorflow/lite/micro/kernels/strided_slice.cc ****   op_params.strides_count = op_context->dims;
 8655              		.loc 1 65 0
 8656 0028 5C30CDE5 		strb	r3, [sp, #92]
 8657              	.LBE2079:
 8658              	.LBE2088:
  89:../src/tensorflow_lite/tensorflow/lite/micro/kernels/strided_slice.cc ****   int shape_size = 0;
 8659              		.loc 1 89 0
 8660 002c 18208DE5 		str	r2, [sp, #24]
 8661              	.LVL980:
 8662              	.LBB2089:
 8663              	.LBB2080:
  66:../src/tensorflow_lite/tensorflow/lite/micro/kernels/strided_slice.cc **** 
 8664              		.loc 1 66 0
 8665 0030 7430CDE5 		strb	r3, [sp, #116]
 8666              	.LVL981:
 8667              	.LBB2073:
  68:../src/tensorflow_lite/tensorflow/lite/micro/kernels/strided_slice.cc ****     op_params.start_indices[i] = GetTensorData<int32_t>(op_context->begin)[i];
 8668              		.loc 1 68 0
 8669 0034 310000DA 		ble	.L1314
 8670 0038 082091E5 		ldr	r2, [r1, #8]
 8671              	.LVL982:
 8672 003c 0C3091E5 		ldr	r3, [r1, #12]
 8673 0040 100091E5 		ldr	r0, [r1, #16]
 8674              	.LVL983:
 8675 0044 000052E3 		cmp	r2, #0
 8676 0048 0A01000A 		beq	.L1495
 8677 004c 000050E3 		cmp	r0, #0
 8678 0050 3501000A 		beq	.L1496
 8679 0054 000053E3 		cmp	r3, #0
 8680 0058 041092E5 		ldr	r1, [r2, #4]
 8681              	.LVL984:
 8682 005c 5D01000A 		beq	.L1497
 8683 0060 042093E5 		ldr	r2, [r3, #4]
 8684 0064 010059E3 		cmp	r9, #1
 8685 0068 043090E5 		ldr	r3, [r0, #4]
  69:../src/tensorflow_lite/tensorflow/lite/micro/kernels/strided_slice.cc ****     op_params.stop_indices[i] = GetTensorData<int32_t>(op_context->end)[i];
 8686              		.loc 1 69 0
 8687 006c 000091E5 		ldr	r0, [r1]
 8688 0070 48008DE5 		str	r0, [sp, #72]
  70:../src/tensorflow_lite/tensorflow/lite/micro/kernels/strided_slice.cc ****     op_params.strides[i] = GetTensorData<int32_t>(op_context->strides)[i];
 8689              		.loc 1 70 0
 8690 0074 000092E5 		ldr	r0, [r2]
 8691 0078 60008DE5 		str	r0, [sp, #96]
  71:../src/tensorflow_lite/tensorflow/lite/micro/kernels/strided_slice.cc ****   }
 8692              		.loc 1 71 0
 8693 007c 000093E5 		ldr	r0, [r3]
 8694 0080 78008DE5 		str	r0, [sp, #120]
 8695              	.LVL985:
  68:../src/tensorflow_lite/tensorflow/lite/micro/kernels/strided_slice.cc ****     op_params.start_indices[i] = GetTensorData<int32_t>(op_context->begin)[i];
 8696              		.loc 1 68 0
 8697 0084 1D00000A 		beq	.L1314
  69:../src/tensorflow_lite/tensorflow/lite/micro/kernels/strided_slice.cc ****     op_params.stop_indices[i] = GetTensorData<int32_t>(op_context->end)[i];
 8698              		.loc 1 69 0
 8699 0088 040091E5 		ldr	r0, [r1, #4]
  68:../src/tensorflow_lite/tensorflow/lite/micro/kernels/strided_slice.cc ****     op_params.start_indices[i] = GetTensorData<int32_t>(op_context->begin)[i];
 8700              		.loc 1 68 0
 8701 008c 020059E3 		cmp	r9, #2
  69:../src/tensorflow_lite/tensorflow/lite/micro/kernels/strided_slice.cc ****     op_params.stop_indices[i] = GetTensorData<int32_t>(op_context->end)[i];
 8702              		.loc 1 69 0
 8703 0090 4C008DE5 		str	r0, [sp, #76]
  70:../src/tensorflow_lite/tensorflow/lite/micro/kernels/strided_slice.cc ****     op_params.strides[i] = GetTensorData<int32_t>(op_context->strides)[i];
 8704              		.loc 1 70 0
 8705 0094 040092E5 		ldr	r0, [r2, #4]
 8706 0098 64008DE5 		str	r0, [sp, #100]
  71:../src/tensorflow_lite/tensorflow/lite/micro/kernels/strided_slice.cc ****   }
 8707              		.loc 1 71 0
 8708 009c 040093E5 		ldr	r0, [r3, #4]
 8709 00a0 7C008DE5 		str	r0, [sp, #124]
 8710              	.LVL986:
  68:../src/tensorflow_lite/tensorflow/lite/micro/kernels/strided_slice.cc ****     op_params.start_indices[i] = GetTensorData<int32_t>(op_context->begin)[i];
 8711              		.loc 1 68 0
 8712 00a4 1500000A 		beq	.L1314
  69:../src/tensorflow_lite/tensorflow/lite/micro/kernels/strided_slice.cc ****     op_params.stop_indices[i] = GetTensorData<int32_t>(op_context->end)[i];
 8713              		.loc 1 69 0
 8714 00a8 080091E5 		ldr	r0, [r1, #8]
  68:../src/tensorflow_lite/tensorflow/lite/micro/kernels/strided_slice.cc ****     op_params.start_indices[i] = GetTensorData<int32_t>(op_context->begin)[i];
 8715              		.loc 1 68 0
 8716 00ac 030059E3 		cmp	r9, #3
  69:../src/tensorflow_lite/tensorflow/lite/micro/kernels/strided_slice.cc ****     op_params.stop_indices[i] = GetTensorData<int32_t>(op_context->end)[i];
 8717              		.loc 1 69 0
 8718 00b0 50008DE5 		str	r0, [sp, #80]
  70:../src/tensorflow_lite/tensorflow/lite/micro/kernels/strided_slice.cc ****     op_params.strides[i] = GetTensorData<int32_t>(op_context->strides)[i];
 8719              		.loc 1 70 0
 8720 00b4 080092E5 		ldr	r0, [r2, #8]
 8721 00b8 68008DE5 		str	r0, [sp, #104]
  71:../src/tensorflow_lite/tensorflow/lite/micro/kernels/strided_slice.cc ****   }
 8722              		.loc 1 71 0
 8723 00bc 080093E5 		ldr	r0, [r3, #8]
 8724 00c0 80008DE5 		str	r0, [sp, #128]
 8725              	.LVL987:
  68:../src/tensorflow_lite/tensorflow/lite/micro/kernels/strided_slice.cc ****     op_params.start_indices[i] = GetTensorData<int32_t>(op_context->begin)[i];
 8726              		.loc 1 68 0
 8727 00c4 0D00000A 		beq	.L1314
  69:../src/tensorflow_lite/tensorflow/lite/micro/kernels/strided_slice.cc ****     op_params.stop_indices[i] = GetTensorData<int32_t>(op_context->end)[i];
 8728              		.loc 1 69 0
 8729 00c8 0C0091E5 		ldr	r0, [r1, #12]
  68:../src/tensorflow_lite/tensorflow/lite/micro/kernels/strided_slice.cc ****     op_params.start_indices[i] = GetTensorData<int32_t>(op_context->begin)[i];
 8730              		.loc 1 68 0
 8731 00cc 040059E3 		cmp	r9, #4
  69:../src/tensorflow_lite/tensorflow/lite/micro/kernels/strided_slice.cc ****     op_params.stop_indices[i] = GetTensorData<int32_t>(op_context->end)[i];
 8732              		.loc 1 69 0
 8733 00d0 54008DE5 		str	r0, [sp, #84]
  70:../src/tensorflow_lite/tensorflow/lite/micro/kernels/strided_slice.cc ****     op_params.strides[i] = GetTensorData<int32_t>(op_context->strides)[i];
 8734              		.loc 1 70 0
 8735 00d4 0C0092E5 		ldr	r0, [r2, #12]
 8736 00d8 6C008DE5 		str	r0, [sp, #108]
  71:../src/tensorflow_lite/tensorflow/lite/micro/kernels/strided_slice.cc ****   }
 8737              		.loc 1 71 0
 8738 00dc 0C0093E5 		ldr	r0, [r3, #12]
 8739 00e0 84008DE5 		str	r0, [sp, #132]
 8740              	.LVL988:
  68:../src/tensorflow_lite/tensorflow/lite/micro/kernels/strided_slice.cc ****     op_params.start_indices[i] = GetTensorData<int32_t>(op_context->begin)[i];
 8741              		.loc 1 68 0
 8742 00e4 0500000A 		beq	.L1314
  69:../src/tensorflow_lite/tensorflow/lite/micro/kernels/strided_slice.cc ****     op_params.stop_indices[i] = GetTensorData<int32_t>(op_context->end)[i];
 8743              		.loc 1 69 0
 8744 00e8 101091E5 		ldr	r1, [r1, #16]
 8745 00ec 58108DE5 		str	r1, [sp, #88]
  70:../src/tensorflow_lite/tensorflow/lite/micro/kernels/strided_slice.cc ****     op_params.strides[i] = GetTensorData<int32_t>(op_context->strides)[i];
 8746              		.loc 1 70 0
 8747 00f0 102092E5 		ldr	r2, [r2, #16]
 8748 00f4 70208DE5 		str	r2, [sp, #112]
  71:../src/tensorflow_lite/tensorflow/lite/micro/kernels/strided_slice.cc ****   }
 8749              		.loc 1 71 0
 8750 00f8 103093E5 		ldr	r3, [r3, #16]
 8751 00fc 88308DE5 		str	r3, [sp, #136]
 8752              	.LVL989:
 8753              	.L1314:
 8754              	.LBE2073:
  74:../src/tensorflow_lite/tensorflow/lite/micro/kernels/strided_slice.cc ****   op_params.ellipsis_mask = 0;
 8755              		.loc 1 74 0
 8756 0100 003096E5 		ldr	r3, [r6]
  75:../src/tensorflow_lite/tensorflow/lite/micro/kernels/strided_slice.cc ****   op_params.end_mask = op_context->params->end_mask;
 8757              		.loc 1 75 0
 8758 0104 0020A0E3 		mov	r2, #0
 8759              	.LBE2080:
 8760              	.LBE2089:
  92:../src/tensorflow_lite/tensorflow/lite/micro/kernels/strided_slice.cc ****   for (int idx = 0; idx < op_context->dims; ++idx) {
 8761              		.loc 1 92 0
 8762 0108 045096E5 		ldr	r5, [r6, #4]
 8763              	.LBB2090:
 8764              	.LBB2081:
  75:../src/tensorflow_lite/tensorflow/lite/micro/kernels/strided_slice.cc ****   op_params.end_mask = op_context->params->end_mask;
 8765              		.loc 1 75 0
 8766 010c BE28CDE1 		strh	r2, [sp, #142]	@ movhi
  74:../src/tensorflow_lite/tensorflow/lite/micro/kernels/strided_slice.cc ****   op_params.ellipsis_mask = 0;
 8767              		.loc 1 74 0
 8768 0110 F010D3E1 		ldrsh	r1, [r3]
  76:../src/tensorflow_lite/tensorflow/lite/micro/kernels/strided_slice.cc ****   op_params.new_axis_mask = 0;
 8769              		.loc 1 76 0
 8770 0114 F400D3E1 		ldrsh	r0, [r3, #4]
 8771              	.LBE2081:
 8772              	.LBE2090:
 8773              	.LBB2091:
 8774              	.LBB2092:
 8775              		.file 7 "C:/Renesas/e2studio_2021_01_workspace_RZA2M_ANPR/ANPR_RZA2M_EBK/src/tensorflow_lite/tenso
   1:C:/Renesas/e2studio_2021_01_workspace_RZA2M_ANPR/ANPR_RZA2M_EBK/src/tensorflow_lite/tensorflow/lite/kernels/internal\tensor_ctypes.h **** /* Copyright 2017 The TensorFlow Authors. All Rights Reserved.
   2:C:/Renesas/e2studio_2021_01_workspace_RZA2M_ANPR/ANPR_RZA2M_EBK/src/tensorflow_lite/tensorflow/lite/kernels/internal\tensor_ctypes.h **** 
   3:C:/Renesas/e2studio_2021_01_workspace_RZA2M_ANPR/ANPR_RZA2M_EBK/src/tensorflow_lite/tensorflow/lite/kernels/internal\tensor_ctypes.h **** Licensed under the Apache License, Version 2.0 (the "License");
   4:C:/Renesas/e2studio_2021_01_workspace_RZA2M_ANPR/ANPR_RZA2M_EBK/src/tensorflow_lite/tensorflow/lite/kernels/internal\tensor_ctypes.h **** you may not use this file except in compliance with the License.
   5:C:/Renesas/e2studio_2021_01_workspace_RZA2M_ANPR/ANPR_RZA2M_EBK/src/tensorflow_lite/tensorflow/lite/kernels/internal\tensor_ctypes.h **** You may obtain a copy of the License at
   6:C:/Renesas/e2studio_2021_01_workspace_RZA2M_ANPR/ANPR_RZA2M_EBK/src/tensorflow_lite/tensorflow/lite/kernels/internal\tensor_ctypes.h **** 
   7:C:/Renesas/e2studio_2021_01_workspace_RZA2M_ANPR/ANPR_RZA2M_EBK/src/tensorflow_lite/tensorflow/lite/kernels/internal\tensor_ctypes.h ****     http://www.apache.org/licenses/LICENSE-2.0
   8:C:/Renesas/e2studio_2021_01_workspace_RZA2M_ANPR/ANPR_RZA2M_EBK/src/tensorflow_lite/tensorflow/lite/kernels/internal\tensor_ctypes.h **** 
   9:C:/Renesas/e2studio_2021_01_workspace_RZA2M_ANPR/ANPR_RZA2M_EBK/src/tensorflow_lite/tensorflow/lite/kernels/internal\tensor_ctypes.h **** Unless required by applicable law or agreed to in writing, software
  10:C:/Renesas/e2studio_2021_01_workspace_RZA2M_ANPR/ANPR_RZA2M_EBK/src/tensorflow_lite/tensorflow/lite/kernels/internal\tensor_ctypes.h **** distributed under the License is distributed on an "AS IS" BASIS,
  11:C:/Renesas/e2studio_2021_01_workspace_RZA2M_ANPR/ANPR_RZA2M_EBK/src/tensorflow_lite/tensorflow/lite/kernels/internal\tensor_ctypes.h **** WITHOUT WARRANTIES OR CONDITIONS OF ANY KIND, either express or implied.
  12:C:/Renesas/e2studio_2021_01_workspace_RZA2M_ANPR/ANPR_RZA2M_EBK/src/tensorflow_lite/tensorflow/lite/kernels/internal\tensor_ctypes.h **** See the License for the specific language governing permissions and
  13:C:/Renesas/e2studio_2021_01_workspace_RZA2M_ANPR/ANPR_RZA2M_EBK/src/tensorflow_lite/tensorflow/lite/kernels/internal\tensor_ctypes.h **** limitations under the License.
  14:C:/Renesas/e2studio_2021_01_workspace_RZA2M_ANPR/ANPR_RZA2M_EBK/src/tensorflow_lite/tensorflow/lite/kernels/internal\tensor_ctypes.h **** ==============================================================================*/
  15:C:/Renesas/e2studio_2021_01_workspace_RZA2M_ANPR/ANPR_RZA2M_EBK/src/tensorflow_lite/tensorflow/lite/kernels/internal\tensor_ctypes.h **** #ifndef TENSORFLOW_LITE_KERNELS_INTERNAL_TENSOR_CTYPES_H_
  16:C:/Renesas/e2studio_2021_01_workspace_RZA2M_ANPR/ANPR_RZA2M_EBK/src/tensorflow_lite/tensorflow/lite/kernels/internal\tensor_ctypes.h **** #define TENSORFLOW_LITE_KERNELS_INTERNAL_TENSOR_CTYPES_H_
  17:C:/Renesas/e2studio_2021_01_workspace_RZA2M_ANPR/ANPR_RZA2M_EBK/src/tensorflow_lite/tensorflow/lite/kernels/internal\tensor_ctypes.h **** 
  18:C:/Renesas/e2studio_2021_01_workspace_RZA2M_ANPR/ANPR_RZA2M_EBK/src/tensorflow_lite/tensorflow/lite/kernels/internal\tensor_ctypes.h **** #include "tensorflow/lite/c/common.h"
  19:C:/Renesas/e2studio_2021_01_workspace_RZA2M_ANPR/ANPR_RZA2M_EBK/src/tensorflow_lite/tensorflow/lite/kernels/internal\tensor_ctypes.h **** #include "tensorflow/lite/kernels/internal/types.h"
  20:C:/Renesas/e2studio_2021_01_workspace_RZA2M_ANPR/ANPR_RZA2M_EBK/src/tensorflow_lite/tensorflow/lite/kernels/internal\tensor_ctypes.h **** 
  21:C:/Renesas/e2studio_2021_01_workspace_RZA2M_ANPR/ANPR_RZA2M_EBK/src/tensorflow_lite/tensorflow/lite/kernels/internal\tensor_ctypes.h **** namespace tflite {
  22:C:/Renesas/e2studio_2021_01_workspace_RZA2M_ANPR/ANPR_RZA2M_EBK/src/tensorflow_lite/tensorflow/lite/kernels/internal\tensor_ctypes.h **** 
  23:C:/Renesas/e2studio_2021_01_workspace_RZA2M_ANPR/ANPR_RZA2M_EBK/src/tensorflow_lite/tensorflow/lite/kernels/internal\tensor_ctypes.h **** template <typename T>
  24:C:/Renesas/e2studio_2021_01_workspace_RZA2M_ANPR/ANPR_RZA2M_EBK/src/tensorflow_lite/tensorflow/lite/kernels/internal\tensor_ctypes.h **** inline T* GetTensorData(TfLiteTensor* tensor) {
  25:C:/Renesas/e2studio_2021_01_workspace_RZA2M_ANPR/ANPR_RZA2M_EBK/src/tensorflow_lite/tensorflow/lite/kernels/internal\tensor_ctypes.h ****   return tensor != nullptr ? reinterpret_cast<T*>(tensor->data.raw) : nullptr;
  26:C:/Renesas/e2studio_2021_01_workspace_RZA2M_ANPR/ANPR_RZA2M_EBK/src/tensorflow_lite/tensorflow/lite/kernels/internal\tensor_ctypes.h **** }
  27:C:/Renesas/e2studio_2021_01_workspace_RZA2M_ANPR/ANPR_RZA2M_EBK/src/tensorflow_lite/tensorflow/lite/kernels/internal\tensor_ctypes.h **** 
  28:C:/Renesas/e2studio_2021_01_workspace_RZA2M_ANPR/ANPR_RZA2M_EBK/src/tensorflow_lite/tensorflow/lite/kernels/internal\tensor_ctypes.h **** template <typename T>
  29:C:/Renesas/e2studio_2021_01_workspace_RZA2M_ANPR/ANPR_RZA2M_EBK/src/tensorflow_lite/tensorflow/lite/kernels/internal\tensor_ctypes.h **** inline const T* GetTensorData(const TfLiteTensor* tensor) {
  30:C:/Renesas/e2studio_2021_01_workspace_RZA2M_ANPR/ANPR_RZA2M_EBK/src/tensorflow_lite/tensorflow/lite/kernels/internal\tensor_ctypes.h ****   return tensor != nullptr ? reinterpret_cast<const T*>(tensor->data.raw)
  31:C:/Renesas/e2studio_2021_01_workspace_RZA2M_ANPR/ANPR_RZA2M_EBK/src/tensorflow_lite/tensorflow/lite/kernels/internal\tensor_ctypes.h ****                            : nullptr;
  32:C:/Renesas/e2studio_2021_01_workspace_RZA2M_ANPR/ANPR_RZA2M_EBK/src/tensorflow_lite/tensorflow/lite/kernels/internal\tensor_ctypes.h **** }
  33:C:/Renesas/e2studio_2021_01_workspace_RZA2M_ANPR/ANPR_RZA2M_EBK/src/tensorflow_lite/tensorflow/lite/kernels/internal\tensor_ctypes.h **** 
  34:C:/Renesas/e2studio_2021_01_workspace_RZA2M_ANPR/ANPR_RZA2M_EBK/src/tensorflow_lite/tensorflow/lite/kernels/internal\tensor_ctypes.h **** inline RuntimeShape GetTensorShape(const TfLiteTensor* tensor) {
  35:C:/Renesas/e2studio_2021_01_workspace_RZA2M_ANPR/ANPR_RZA2M_EBK/src/tensorflow_lite/tensorflow/lite/kernels/internal\tensor_ctypes.h ****   if (tensor == nullptr) {
 8776              		.loc 7 35 0
 8777 0118 020055E1 		cmp	r5, r2
 8778              	.LBE2092:
 8779              	.LBE2091:
 8780              	.LBB2118:
 8781              	.LBB2082:
  78:../src/tensorflow_lite/tensorflow/lite/micro/kernels/strided_slice.cc ****   return op_params;
 8782              		.loc 1 78 0
 8783 011c F081D3E1 		ldrsh	r8, [r3, #16]
  74:../src/tensorflow_lite/tensorflow/lite/micro/kernels/strided_slice.cc ****   op_params.ellipsis_mask = 0;
 8784              		.loc 1 74 0
 8785 0120 14108DE5 		str	r1, [sp, #20]
  76:../src/tensorflow_lite/tensorflow/lite/micro/kernels/strided_slice.cc ****   op_params.new_axis_mask = 0;
 8786              		.loc 1 76 0
 8787 0124 20008DE5 		str	r0, [sp, #32]
  74:../src/tensorflow_lite/tensorflow/lite/micro/kernels/strided_slice.cc ****   op_params.ellipsis_mask = 0;
 8788              		.loc 1 74 0
 8789 0128 BC18CDE1 		strh	r1, [sp, #140]	@ movhi
  76:../src/tensorflow_lite/tensorflow/lite/micro/kernels/strided_slice.cc ****   op_params.new_axis_mask = 0;
 8790              		.loc 1 76 0
 8791 012c B009CDE1 		strh	r0, [sp, #144]	@ movhi
  78:../src/tensorflow_lite/tensorflow/lite/micro/kernels/strided_slice.cc ****   return op_params;
 8792              		.loc 1 78 0
 8793 0130 B489CDE1 		strh	r8, [sp, #148]	@ movhi
 8794              	.LVL990:
  77:../src/tensorflow_lite/tensorflow/lite/micro/kernels/strided_slice.cc ****   op_params.shrink_axis_mask = op_context->params->shrink_axis_mask;
 8795              		.loc 1 77 0
 8796 0134 B229CDE1 		strh	r2, [sp, #146]	@ movhi
 8797              	.LBE2082:
 8798              	.LBE2118:
 8799              	.LBB2119:
 8800              	.LBB2114:
 8801              		.loc 7 35 0
 8802 0138 9200000A 		beq	.L1498
  36:C:/Renesas/e2studio_2021_01_workspace_RZA2M_ANPR/ANPR_RZA2M_EBK/src/tensorflow_lite/tensorflow/lite/kernels/internal\tensor_ctypes.h ****     return RuntimeShape();
  37:C:/Renesas/e2studio_2021_01_workspace_RZA2M_ANPR/ANPR_RZA2M_EBK/src/tensorflow_lite/tensorflow/lite/kernels/internal\tensor_ctypes.h ****   }
  38:C:/Renesas/e2studio_2021_01_workspace_RZA2M_ANPR/ANPR_RZA2M_EBK/src/tensorflow_lite/tensorflow/lite/kernels/internal\tensor_ctypes.h **** 
  39:C:/Renesas/e2studio_2021_01_workspace_RZA2M_ANPR/ANPR_RZA2M_EBK/src/tensorflow_lite/tensorflow/lite/kernels/internal\tensor_ctypes.h ****   TfLiteIntArray* dims = tensor->dims;
 8803              		.loc 7 39 0
 8804 013c 085095E5 		ldr	r5, [r5, #8]
 8805              	.LVL991:
  40:C:/Renesas/e2studio_2021_01_workspace_RZA2M_ANPR/ANPR_RZA2M_EBK/src/tensorflow_lite/tensorflow/lite/kernels/internal\tensor_ctypes.h ****   const int dims_size = dims->size;
 8806              		.loc 7 40 0
 8807 0140 002095E5 		ldr	r2, [r5]
 8808              	.LVL992:
 8809              	.LBB2093:
 8810              	.LBB2094:
 8811              	.LBB2095:
 8812              	.LBB2096:
 8813              	.LBB2097:
 246:C:/Renesas/e2studio_2021_01_workspace_RZA2M_ANPR/ANPR_RZA2M_EBK/src/tensorflow_lite/tensorflow/lite/kernels/internal\types.h **** #ifdef TF_LITE_STATIC_MEMORY
 8814              		.loc 4 246 0
 8815 0144 050052E3 		cmp	r2, #5
 245:C:/Renesas/e2studio_2021_01_workspace_RZA2M_ANPR/ANPR_RZA2M_EBK/src/tensorflow_lite/tensorflow/lite/kernels/internal\types.h ****     if (dimensions_count > kMaxSmallSize) {
 8816              		.loc 4 245 0
 8817 0148 2C208DE5 		str	r2, [sp, #44]
 246:C:/Renesas/e2studio_2021_01_workspace_RZA2M_ANPR/ANPR_RZA2M_EBK/src/tensorflow_lite/tensorflow/lite/kernels/internal\types.h **** #ifdef TF_LITE_STATIC_MEMORY
 8818              		.loc 4 246 0
 8819 014c 620000DA 		ble	.L1320
 8820              	.LVL993:
 8821              	.LBB2098:
 8822              	.LBB2099:
 250:C:/Renesas/e2studio_2021_01_workspace_RZA2M_ANPR/ANPR_RZA2M_EBK/src/tensorflow_lite/tensorflow/lite/kernels/internal\types.h **** #endif  // TF_LITE_STATIC_MEMORY
 8823              		.loc 4 250 0
 8824 0150 2E0272E3 		cmn	r2, #-536870910
 8825 0154 E30100CA 		bgt	.L1321
 8826 0158 0241A0E1 		lsl	r4, r2, #2
 8827 015c 0400A0E1 		mov	r0, r4
 8828              	.LEHB25:
 8829 0160 FEFFFFEB 		bl	_Znaj
 8830              	.LVL994:
 8831              	.LEHE25:
 8832 0164 189096E5 		ldr	r9, [r6, #24]
 8833 0168 30008DE5 		str	r0, [sp, #48]
 8834              	.LVL995:
 8835              	.L1322:
 8836              	.LBE2099:
 8837              	.LBE2098:
 8838              	.LBE2097:
 8839              	.LBE2096:
 258:C:/Renesas/e2studio_2021_01_workspace_RZA2M_ANPR/ANPR_RZA2M_EBK/src/tensorflow_lite/tensorflow/lite/kernels/internal\types.h ****   }
 8840              		.loc 4 258 0
 8841 016c 041085E2 		add	r1, r5, #4
 8842 0170 0420A0E1 		mov	r2, r4
 8843 0174 FEFFFFEB 		bl	memcpy
 8844              	.LVL996:
 8845 0178 2C509DE5 		ldr	r5, [sp, #44]
 8846              	.LVL997:
 8847              	.L1319:
 8848              	.LBE2095:
 8849              	.LBE2094:
 8850              	.LBE2093:
 8851              	.LBE2114:
 8852              	.LBE2119:
 8853              	.LBB2120:
  93:../src/tensorflow_lite/tensorflow/lite/micro/kernels/strided_slice.cc ****     int32_t stride = GetTensorData<int32_t>(op_context->strides)[idx];
 8854              		.loc 1 93 0 discriminator 1
 8855 017c 000059E3 		cmp	r9, #0
 8856 0180 820000DA 		ble	.L1362
 8857              	.LBB2121:
 8858              	.LBB2122:
 8859              	.LBB2123:
 8860              	.LBB2124:
 8861              	.LBB2125:
 216:C:/Renesas/e2studio_2021_01_workspace_RZA2M_ANPR/ANPR_RZA2M_EBK/src/tensorflow_lite/tensorflow/lite/kernels/internal\types.h ****   }
 8862              		.loc 4 216 0
 8863 0184 30309DE5 		ldr	r3, [sp, #48]
 8864 0188 0040A0E3 		mov	r4, #0
 8865 018c 107096E5 		ldr	r7, [r6, #16]
 8866 0190 04A0A0E1 		mov	r10, r4
 8867 0194 44B08DE2 		add	fp, sp, #68
 8868 0198 1C308DE5 		str	r3, [sp, #28]
 8869 019c 0630A0E1 		mov	r3, r6
 8870 01a0 0960A0E1 		mov	r6, r9
 8871              	.LVL998:
 8872 01a4 0390A0E1 		mov	r9, r3
 8873 01a8 380000EA 		b	.L1349
 8874              	.LVL999:
 8875              	.L1506:
 8876              	.LBE2125:
 8877              	.LBE2124:
  88:C:/Renesas/e2studio_2021_01_workspace_RZA2M_ANPR/ANPR_RZA2M_EBK/src/tensorflow_lite/tensorflow/lite/kernels/internal\strided_slice_logic.h ****     if (strides[axis] > 0) {
 8878              		.loc 5 88 0
 8879 01ac 14109DE5 		ldr	r1, [sp, #20]
 8880 01b0 5114A0E1 		asr	r1, r1, r4
 8881 01b4 010011E3 		tst	r1, #1
 8882 01b8 4A00000A 		beq	.L1329
  89:C:/Renesas/e2studio_2021_01_workspace_RZA2M_ANPR/ANPR_RZA2M_EBK/src/tensorflow_lite/tensorflow/lite/kernels/internal\strided_slice_logic.h ****       // Forward iteration - use the first element. These values will get
 8883              		.loc 5 89 0
 8884 01bc 34109BE5 		ldr	r1, [fp, #52]
 8885 01c0 000051E3 		cmp	r1, #0
  93:C:/Renesas/e2studio_2021_01_workspace_RZA2M_ANPR/ANPR_RZA2M_EBK/src/tensorflow_lite/tensorflow/lite/kernels/internal\strided_slice_logic.h ****     } else {
 8886              		.loc 5 93 0
 8887 01c4 02C1A0C3 		movgt	ip, #-2147483648
  89:C:/Renesas/e2studio_2021_01_workspace_RZA2M_ANPR/ANPR_RZA2M_EBK/src/tensorflow_lite/tensorflow/lite/kernels/internal\strided_slice_logic.h ****       // Forward iteration - use the first element. These values will get
 8888              		.loc 5 89 0
 8889 01c8 6A0000DA 		ble	.L1499
 8890              	.L1330:
 8891              	.LVL1000:
 106:C:/Renesas/e2studio_2021_01_workspace_RZA2M_ANPR/ANPR_RZA2M_EBK/src/tensorflow_lite/tensorflow/lite/kernels/internal\strided_slice_logic.h ****     // Forward iteration
 8892              		.loc 5 106 0
 8893 01cc 000051E3 		cmp	r1, #0
 102:C:/Renesas/e2studio_2021_01_workspace_RZA2M_ANPR/ANPR_RZA2M_EBK/src/tensorflow_lite/tensorflow/lite/kernels/internal\strided_slice_logic.h ****   }
 8894              		.loc 5 102 0
 8895 01d0 03C08CE0 		add	ip, ip, r3
 8896              	.LVL1001:
 106:C:/Renesas/e2studio_2021_01_workspace_RZA2M_ANPR/ANPR_RZA2M_EBK/src/tensorflow_lite/tensorflow/lite/kernels/internal\strided_slice_logic.h ****     // Forward iteration
 8897              		.loc 5 106 0
 8898 01d4 490000DA 		ble	.L1334
 8899              	.L1507:
 8900              	.LVL1002:
 8901              	.LBB2128:
 8902              	.LBB2129:
  30:C:/Renesas/e2studio_2021_01_workspace_RZA2M_ANPR/ANPR_RZA2M_EBK/src/tensorflow_lite/tensorflow/lite/kernels/internal\strided_slice_logic.h ****   if (hi < v) return hi;
 8903              		.loc 5 30 0
 8904 01d8 000053E3 		cmp	r3, #0
 8905 01dc 9C0100BA 		blt	.L1500
  31:C:/Renesas/e2studio_2021_01_workspace_RZA2M_ANPR/ANPR_RZA2M_EBK/src/tensorflow_lite/tensorflow/lite/kernels/internal\strided_slice_logic.h ****   if (v < lo) return lo;
 8906              		.loc 5 31 0
 8907 01e0 03005CE1 		cmp	ip, r3
 8908 01e4 0310A0C1 		movgt	r1, r3
 8909 01e8 CC1FCCD1 		bicle	r1, ip, ip, asr #31
 8910              	.LVL1003:
 8911              	.L1336:
 8912              	.LBE2129:
 8913              	.LBE2128:
 8914              	.LBE2123:
 8915              	.LBE2122:
 8916              	.LBB2142:
 8917              	.LBB2143:
 135:C:/Renesas/e2studio_2021_01_workspace_RZA2M_ANPR/ANPR_RZA2M_EBK/src/tensorflow_lite/tensorflow/lite/kernels/internal\strided_slice_logic.h ****   int stop = stop_indices[axis];
 8918              		.loc 5 135 0
 8919 01ec 58C4A0E1 		asr	ip, r8, r4
 142:C:/Renesas/e2studio_2021_01_workspace_RZA2M_ANPR/ANPR_RZA2M_EBK/src/tensorflow_lite/tensorflow/lite/kernels/internal\strided_slice_logic.h ****     return start_for_axis + 1;
 8920              		.loc 5 142 0
 8921 01f0 01001CE3 		tst	ip, #1
 8922 01f4 4C00001A 		bne	.L1501
 8923              	.LVL1004:
 8924              	.L1481:
 147:C:/Renesas/e2studio_2021_01_workspace_RZA2M_ANPR/ANPR_RZA2M_EBK/src/tensorflow_lite/tensorflow/lite/kernels/internal\strided_slice_logic.h ****     if (strides[axis] > 0) {
 8925              		.loc 5 147 0
 8926 01f8 20009DE5 		ldr	r0, [sp, #32]
 8927 01fc 50C4A0E1 		asr	ip, r0, r4
 8928 0200 01001CE3 		tst	ip, #1
 8929 0204 4A00000A 		beq	.L1338
 148:C:/Renesas/e2studio_2021_01_workspace_RZA2M_ANPR/ANPR_RZA2M_EBK/src/tensorflow_lite/tensorflow/lite/kernels/internal\strided_slice_logic.h ****       // Forward iteration - use the last element. These values will get
 8930              		.loc 5 148 0
 8931 0208 34E09BE5 		ldr	lr, [fp, #52]
 8932 020c 00005EE3 		cmp	lr, #0
 154:C:/Renesas/e2studio_2021_01_workspace_RZA2M_ANPR/ANPR_RZA2M_EBK/src/tensorflow_lite/tensorflow/lite/kernels/internal\strided_slice_logic.h ****     }
 8933              		.loc 5 154 0
 8934 0210 02C1A0D3 		movle	ip, #-2147483648
 148:C:/Renesas/e2studio_2021_01_workspace_RZA2M_ANPR/ANPR_RZA2M_EBK/src/tensorflow_lite/tensorflow/lite/kernels/internal\strided_slice_logic.h ****       // Forward iteration - use the last element. These values will get
 8935              		.loc 5 148 0
 8936 0214 550000DA 		ble	.L1340
 151:C:/Renesas/e2studio_2021_01_workspace_RZA2M_ANPR/ANPR_RZA2M_EBK/src/tensorflow_lite/tensorflow/lite/kernels/internal\strided_slice_logic.h ****     } else {
 8937              		.loc 5 151 0
 8938 0218 02C1E0E3 		mvn	ip, #-2147483648
 8939              	.L1339:
 8940              	.LVL1005:
 8941              	.LBB2144:
 8942              	.LBB2145:
  30:C:/Renesas/e2studio_2021_01_workspace_RZA2M_ANPR/ANPR_RZA2M_EBK/src/tensorflow_lite/tensorflow/lite/kernels/internal\strided_slice_logic.h ****   if (hi < v) return hi;
 8943              		.loc 5 30 0
 8944 021c 000053E3 		cmp	r3, #0
 8945 0220 AE0100BA 		blt	.L1502
  31:C:/Renesas/e2studio_2021_01_workspace_RZA2M_ANPR/ANPR_RZA2M_EBK/src/tensorflow_lite/tensorflow/lite/kernels/internal\strided_slice_logic.h ****   if (v < lo) return lo;
 8946              		.loc 5 31 0
 8947 0224 03005CE1 		cmp	ip, r3
 8948 0228 CC3FCCD1 		bicle	r3, ip, ip, asr #31
 8949              	.LVL1006:
 8950              	.L1328:
 8951              	.LBE2145:
 8952              	.LBE2144:
 8953              	.LBE2143:
 8954              	.LBE2142:
 103:../src/tensorflow_lite/tensorflow/lite/micro/kernels/strided_slice.cc ****     if (shrink_axis) {
 8955              		.loc 1 103 0
 8956 022c 00C099E5 		ldr	ip, [r9]
 8957 0230 10C09CE5 		ldr	ip, [ip, #16]
 8958 0234 5CC4A0E1 		asr	ip, ip, r4
 104:../src/tensorflow_lite/tensorflow/lite/micro/kernels/strided_slice.cc ****       end = begin + 1;
 8959              		.loc 1 104 0
 8960 0238 01001CE3 		tst	ip, #1
 8961 023c 0F00001A 		bne	.L1346
 8962              	.LVL1007:
 109:../src/tensorflow_lite/tensorflow/lite/micro/kernels/strided_slice.cc ****     dim_shape = dim_shape < 0 ? 0 : dim_shape;
 8963              		.loc 1 109 0
 8964 0240 013043E0 		sub	r3, r3, r1
 8965 0244 902A07EE 		vmov	s15, r2	@ int
 8966 0248 103A07EE 		vmov	s14, r3	@ int
 8967 024c E77AF8EE 		vcvt.f32.s32	s15, s15
 8968 0250 C70AB8EE 		vcvt.f32.s32	s0, s14
 8969              	.LBB2154:
 8970              	.LBB2155:
 8971              		.file 8 "c:\\program files (x86)\\gnu tools arm embedded\\6 2017-q2-update\\arm-none-eabi\\include
   1:c:\program files (x86)\gnu tools arm embedded\6 2017-q2-update\arm-none-eabi\include\c++\6.3.1\cmath **** // -*- C++ -*- C forwarding header.
   2:c:\program files (x86)\gnu tools arm embedded\6 2017-q2-update\arm-none-eabi\include\c++\6.3.1\cmath **** 
   3:c:\program files (x86)\gnu tools arm embedded\6 2017-q2-update\arm-none-eabi\include\c++\6.3.1\cmath **** // Copyright (C) 1997-2016 Free Software Foundation, Inc.
   4:c:\program files (x86)\gnu tools arm embedded\6 2017-q2-update\arm-none-eabi\include\c++\6.3.1\cmath **** //
   5:c:\program files (x86)\gnu tools arm embedded\6 2017-q2-update\arm-none-eabi\include\c++\6.3.1\cmath **** // This file is part of the GNU ISO C++ Library.  This library is free
   6:c:\program files (x86)\gnu tools arm embedded\6 2017-q2-update\arm-none-eabi\include\c++\6.3.1\cmath **** // software; you can redistribute it and/or modify it under the
   7:c:\program files (x86)\gnu tools arm embedded\6 2017-q2-update\arm-none-eabi\include\c++\6.3.1\cmath **** // terms of the GNU General Public License as published by the
   8:c:\program files (x86)\gnu tools arm embedded\6 2017-q2-update\arm-none-eabi\include\c++\6.3.1\cmath **** // Free Software Foundation; either version 3, or (at your option)
   9:c:\program files (x86)\gnu tools arm embedded\6 2017-q2-update\arm-none-eabi\include\c++\6.3.1\cmath **** // any later version.
  10:c:\program files (x86)\gnu tools arm embedded\6 2017-q2-update\arm-none-eabi\include\c++\6.3.1\cmath **** 
  11:c:\program files (x86)\gnu tools arm embedded\6 2017-q2-update\arm-none-eabi\include\c++\6.3.1\cmath **** // This library is distributed in the hope that it will be useful,
  12:c:\program files (x86)\gnu tools arm embedded\6 2017-q2-update\arm-none-eabi\include\c++\6.3.1\cmath **** // but WITHOUT ANY WARRANTY; without even the implied warranty of
  13:c:\program files (x86)\gnu tools arm embedded\6 2017-q2-update\arm-none-eabi\include\c++\6.3.1\cmath **** // MERCHANTABILITY or FITNESS FOR A PARTICULAR PURPOSE.  See the
  14:c:\program files (x86)\gnu tools arm embedded\6 2017-q2-update\arm-none-eabi\include\c++\6.3.1\cmath **** // GNU General Public License for more details.
  15:c:\program files (x86)\gnu tools arm embedded\6 2017-q2-update\arm-none-eabi\include\c++\6.3.1\cmath **** 
  16:c:\program files (x86)\gnu tools arm embedded\6 2017-q2-update\arm-none-eabi\include\c++\6.3.1\cmath **** // Under Section 7 of GPL version 3, you are granted additional
  17:c:\program files (x86)\gnu tools arm embedded\6 2017-q2-update\arm-none-eabi\include\c++\6.3.1\cmath **** // permissions described in the GCC Runtime Library Exception, version
  18:c:\program files (x86)\gnu tools arm embedded\6 2017-q2-update\arm-none-eabi\include\c++\6.3.1\cmath **** // 3.1, as published by the Free Software Foundation.
  19:c:\program files (x86)\gnu tools arm embedded\6 2017-q2-update\arm-none-eabi\include\c++\6.3.1\cmath **** 
  20:c:\program files (x86)\gnu tools arm embedded\6 2017-q2-update\arm-none-eabi\include\c++\6.3.1\cmath **** // You should have received a copy of the GNU General Public License and
  21:c:\program files (x86)\gnu tools arm embedded\6 2017-q2-update\arm-none-eabi\include\c++\6.3.1\cmath **** // a copy of the GCC Runtime Library Exception along with this program;
  22:c:\program files (x86)\gnu tools arm embedded\6 2017-q2-update\arm-none-eabi\include\c++\6.3.1\cmath **** // see the files COPYING3 and COPYING.RUNTIME respectively.  If not, see
  23:c:\program files (x86)\gnu tools arm embedded\6 2017-q2-update\arm-none-eabi\include\c++\6.3.1\cmath **** // <http://www.gnu.org/licenses/>.
  24:c:\program files (x86)\gnu tools arm embedded\6 2017-q2-update\arm-none-eabi\include\c++\6.3.1\cmath **** 
  25:c:\program files (x86)\gnu tools arm embedded\6 2017-q2-update\arm-none-eabi\include\c++\6.3.1\cmath **** /** @file include/cmath
  26:c:\program files (x86)\gnu tools arm embedded\6 2017-q2-update\arm-none-eabi\include\c++\6.3.1\cmath ****  *  This is a Standard C++ Library file.  You should @c \#include this file
  27:c:\program files (x86)\gnu tools arm embedded\6 2017-q2-update\arm-none-eabi\include\c++\6.3.1\cmath ****  *  in your programs, rather than any of the @a *.h implementation files.
  28:c:\program files (x86)\gnu tools arm embedded\6 2017-q2-update\arm-none-eabi\include\c++\6.3.1\cmath ****  *
  29:c:\program files (x86)\gnu tools arm embedded\6 2017-q2-update\arm-none-eabi\include\c++\6.3.1\cmath ****  *  This is the C++ version of the Standard C Library header @c math.h,
  30:c:\program files (x86)\gnu tools arm embedded\6 2017-q2-update\arm-none-eabi\include\c++\6.3.1\cmath ****  *  and its contents are (mostly) the same as that header, but are all
  31:c:\program files (x86)\gnu tools arm embedded\6 2017-q2-update\arm-none-eabi\include\c++\6.3.1\cmath ****  *  contained in the namespace @c std (except for names which are defined
  32:c:\program files (x86)\gnu tools arm embedded\6 2017-q2-update\arm-none-eabi\include\c++\6.3.1\cmath ****  *  as macros in C).
  33:c:\program files (x86)\gnu tools arm embedded\6 2017-q2-update\arm-none-eabi\include\c++\6.3.1\cmath ****  */
  34:c:\program files (x86)\gnu tools arm embedded\6 2017-q2-update\arm-none-eabi\include\c++\6.3.1\cmath **** 
  35:c:\program files (x86)\gnu tools arm embedded\6 2017-q2-update\arm-none-eabi\include\c++\6.3.1\cmath **** //
  36:c:\program files (x86)\gnu tools arm embedded\6 2017-q2-update\arm-none-eabi\include\c++\6.3.1\cmath **** // ISO C++ 14882: 26.5  C library
  37:c:\program files (x86)\gnu tools arm embedded\6 2017-q2-update\arm-none-eabi\include\c++\6.3.1\cmath **** //
  38:c:\program files (x86)\gnu tools arm embedded\6 2017-q2-update\arm-none-eabi\include\c++\6.3.1\cmath **** 
  39:c:\program files (x86)\gnu tools arm embedded\6 2017-q2-update\arm-none-eabi\include\c++\6.3.1\cmath **** #pragma GCC system_header
  40:c:\program files (x86)\gnu tools arm embedded\6 2017-q2-update\arm-none-eabi\include\c++\6.3.1\cmath **** 
  41:c:\program files (x86)\gnu tools arm embedded\6 2017-q2-update\arm-none-eabi\include\c++\6.3.1\cmath **** #include <bits/c++config.h>
  42:c:\program files (x86)\gnu tools arm embedded\6 2017-q2-update\arm-none-eabi\include\c++\6.3.1\cmath **** #include <bits/cpp_type_traits.h>
  43:c:\program files (x86)\gnu tools arm embedded\6 2017-q2-update\arm-none-eabi\include\c++\6.3.1\cmath **** #include <ext/type_traits.h>
  44:c:\program files (x86)\gnu tools arm embedded\6 2017-q2-update\arm-none-eabi\include\c++\6.3.1\cmath **** #define _GLIBCXX_INCLUDE_NEXT_C_HEADERS
  45:c:\program files (x86)\gnu tools arm embedded\6 2017-q2-update\arm-none-eabi\include\c++\6.3.1\cmath **** #include_next <math.h>
  46:c:\program files (x86)\gnu tools arm embedded\6 2017-q2-update\arm-none-eabi\include\c++\6.3.1\cmath **** #undef _GLIBCXX_INCLUDE_NEXT_C_HEADERS
  47:c:\program files (x86)\gnu tools arm embedded\6 2017-q2-update\arm-none-eabi\include\c++\6.3.1\cmath **** 
  48:c:\program files (x86)\gnu tools arm embedded\6 2017-q2-update\arm-none-eabi\include\c++\6.3.1\cmath **** #ifndef _GLIBCXX_CMATH
  49:c:\program files (x86)\gnu tools arm embedded\6 2017-q2-update\arm-none-eabi\include\c++\6.3.1\cmath **** #define _GLIBCXX_CMATH 1
  50:c:\program files (x86)\gnu tools arm embedded\6 2017-q2-update\arm-none-eabi\include\c++\6.3.1\cmath **** 
  51:c:\program files (x86)\gnu tools arm embedded\6 2017-q2-update\arm-none-eabi\include\c++\6.3.1\cmath **** // Get rid of those macros defined in <math.h> in lieu of real functions.
  52:c:\program files (x86)\gnu tools arm embedded\6 2017-q2-update\arm-none-eabi\include\c++\6.3.1\cmath **** #undef abs
  53:c:\program files (x86)\gnu tools arm embedded\6 2017-q2-update\arm-none-eabi\include\c++\6.3.1\cmath **** #undef div
  54:c:\program files (x86)\gnu tools arm embedded\6 2017-q2-update\arm-none-eabi\include\c++\6.3.1\cmath **** #undef acos
  55:c:\program files (x86)\gnu tools arm embedded\6 2017-q2-update\arm-none-eabi\include\c++\6.3.1\cmath **** #undef asin
  56:c:\program files (x86)\gnu tools arm embedded\6 2017-q2-update\arm-none-eabi\include\c++\6.3.1\cmath **** #undef atan
  57:c:\program files (x86)\gnu tools arm embedded\6 2017-q2-update\arm-none-eabi\include\c++\6.3.1\cmath **** #undef atan2
  58:c:\program files (x86)\gnu tools arm embedded\6 2017-q2-update\arm-none-eabi\include\c++\6.3.1\cmath **** #undef ceil
  59:c:\program files (x86)\gnu tools arm embedded\6 2017-q2-update\arm-none-eabi\include\c++\6.3.1\cmath **** #undef cos
  60:c:\program files (x86)\gnu tools arm embedded\6 2017-q2-update\arm-none-eabi\include\c++\6.3.1\cmath **** #undef cosh
  61:c:\program files (x86)\gnu tools arm embedded\6 2017-q2-update\arm-none-eabi\include\c++\6.3.1\cmath **** #undef exp
  62:c:\program files (x86)\gnu tools arm embedded\6 2017-q2-update\arm-none-eabi\include\c++\6.3.1\cmath **** #undef fabs
  63:c:\program files (x86)\gnu tools arm embedded\6 2017-q2-update\arm-none-eabi\include\c++\6.3.1\cmath **** #undef floor
  64:c:\program files (x86)\gnu tools arm embedded\6 2017-q2-update\arm-none-eabi\include\c++\6.3.1\cmath **** #undef fmod
  65:c:\program files (x86)\gnu tools arm embedded\6 2017-q2-update\arm-none-eabi\include\c++\6.3.1\cmath **** #undef frexp
  66:c:\program files (x86)\gnu tools arm embedded\6 2017-q2-update\arm-none-eabi\include\c++\6.3.1\cmath **** #undef ldexp
  67:c:\program files (x86)\gnu tools arm embedded\6 2017-q2-update\arm-none-eabi\include\c++\6.3.1\cmath **** #undef log
  68:c:\program files (x86)\gnu tools arm embedded\6 2017-q2-update\arm-none-eabi\include\c++\6.3.1\cmath **** #undef log10
  69:c:\program files (x86)\gnu tools arm embedded\6 2017-q2-update\arm-none-eabi\include\c++\6.3.1\cmath **** #undef modf
  70:c:\program files (x86)\gnu tools arm embedded\6 2017-q2-update\arm-none-eabi\include\c++\6.3.1\cmath **** #undef pow
  71:c:\program files (x86)\gnu tools arm embedded\6 2017-q2-update\arm-none-eabi\include\c++\6.3.1\cmath **** #undef sin
  72:c:\program files (x86)\gnu tools arm embedded\6 2017-q2-update\arm-none-eabi\include\c++\6.3.1\cmath **** #undef sinh
  73:c:\program files (x86)\gnu tools arm embedded\6 2017-q2-update\arm-none-eabi\include\c++\6.3.1\cmath **** #undef sqrt
  74:c:\program files (x86)\gnu tools arm embedded\6 2017-q2-update\arm-none-eabi\include\c++\6.3.1\cmath **** #undef tan
  75:c:\program files (x86)\gnu tools arm embedded\6 2017-q2-update\arm-none-eabi\include\c++\6.3.1\cmath **** #undef tanh
  76:c:\program files (x86)\gnu tools arm embedded\6 2017-q2-update\arm-none-eabi\include\c++\6.3.1\cmath **** 
  77:c:\program files (x86)\gnu tools arm embedded\6 2017-q2-update\arm-none-eabi\include\c++\6.3.1\cmath **** extern "C++"
  78:c:\program files (x86)\gnu tools arm embedded\6 2017-q2-update\arm-none-eabi\include\c++\6.3.1\cmath **** {
  79:c:\program files (x86)\gnu tools arm embedded\6 2017-q2-update\arm-none-eabi\include\c++\6.3.1\cmath **** namespace std _GLIBCXX_VISIBILITY(default)
  80:c:\program files (x86)\gnu tools arm embedded\6 2017-q2-update\arm-none-eabi\include\c++\6.3.1\cmath **** {
  81:c:\program files (x86)\gnu tools arm embedded\6 2017-q2-update\arm-none-eabi\include\c++\6.3.1\cmath **** _GLIBCXX_BEGIN_NAMESPACE_VERSION
  82:c:\program files (x86)\gnu tools arm embedded\6 2017-q2-update\arm-none-eabi\include\c++\6.3.1\cmath **** 
  83:c:\program files (x86)\gnu tools arm embedded\6 2017-q2-update\arm-none-eabi\include\c++\6.3.1\cmath **** #ifndef __CORRECT_ISO_CPP_MATH_H_PROTO
  84:c:\program files (x86)\gnu tools arm embedded\6 2017-q2-update\arm-none-eabi\include\c++\6.3.1\cmath ****   inline _GLIBCXX_CONSTEXPR double
  85:c:\program files (x86)\gnu tools arm embedded\6 2017-q2-update\arm-none-eabi\include\c++\6.3.1\cmath ****   abs(double __x)
  86:c:\program files (x86)\gnu tools arm embedded\6 2017-q2-update\arm-none-eabi\include\c++\6.3.1\cmath ****   { return __builtin_fabs(__x); }
  87:c:\program files (x86)\gnu tools arm embedded\6 2017-q2-update\arm-none-eabi\include\c++\6.3.1\cmath **** #endif
  88:c:\program files (x86)\gnu tools arm embedded\6 2017-q2-update\arm-none-eabi\include\c++\6.3.1\cmath **** 
  89:c:\program files (x86)\gnu tools arm embedded\6 2017-q2-update\arm-none-eabi\include\c++\6.3.1\cmath **** #ifndef __CORRECT_ISO_CPP_MATH_H_PROTO
  90:c:\program files (x86)\gnu tools arm embedded\6 2017-q2-update\arm-none-eabi\include\c++\6.3.1\cmath ****   inline _GLIBCXX_CONSTEXPR float
  91:c:\program files (x86)\gnu tools arm embedded\6 2017-q2-update\arm-none-eabi\include\c++\6.3.1\cmath ****   abs(float __x)
  92:c:\program files (x86)\gnu tools arm embedded\6 2017-q2-update\arm-none-eabi\include\c++\6.3.1\cmath ****   { return __builtin_fabsf(__x); }
  93:c:\program files (x86)\gnu tools arm embedded\6 2017-q2-update\arm-none-eabi\include\c++\6.3.1\cmath **** 
  94:c:\program files (x86)\gnu tools arm embedded\6 2017-q2-update\arm-none-eabi\include\c++\6.3.1\cmath ****   inline _GLIBCXX_CONSTEXPR long double
  95:c:\program files (x86)\gnu tools arm embedded\6 2017-q2-update\arm-none-eabi\include\c++\6.3.1\cmath ****   abs(long double __x)
  96:c:\program files (x86)\gnu tools arm embedded\6 2017-q2-update\arm-none-eabi\include\c++\6.3.1\cmath ****   { return __builtin_fabsl(__x); }
  97:c:\program files (x86)\gnu tools arm embedded\6 2017-q2-update\arm-none-eabi\include\c++\6.3.1\cmath **** #endif
  98:c:\program files (x86)\gnu tools arm embedded\6 2017-q2-update\arm-none-eabi\include\c++\6.3.1\cmath **** 
  99:c:\program files (x86)\gnu tools arm embedded\6 2017-q2-update\arm-none-eabi\include\c++\6.3.1\cmath ****   template<typename _Tp>
 100:c:\program files (x86)\gnu tools arm embedded\6 2017-q2-update\arm-none-eabi\include\c++\6.3.1\cmath ****     inline _GLIBCXX_CONSTEXPR
 101:c:\program files (x86)\gnu tools arm embedded\6 2017-q2-update\arm-none-eabi\include\c++\6.3.1\cmath ****     typename __gnu_cxx::__enable_if<__is_integer<_Tp>::__value,
 102:c:\program files (x86)\gnu tools arm embedded\6 2017-q2-update\arm-none-eabi\include\c++\6.3.1\cmath ****                                     double>::__type
 103:c:\program files (x86)\gnu tools arm embedded\6 2017-q2-update\arm-none-eabi\include\c++\6.3.1\cmath ****     abs(_Tp __x)
 104:c:\program files (x86)\gnu tools arm embedded\6 2017-q2-update\arm-none-eabi\include\c++\6.3.1\cmath ****     { return __builtin_fabs(__x); }
 105:c:\program files (x86)\gnu tools arm embedded\6 2017-q2-update\arm-none-eabi\include\c++\6.3.1\cmath **** 
 106:c:\program files (x86)\gnu tools arm embedded\6 2017-q2-update\arm-none-eabi\include\c++\6.3.1\cmath ****   using ::acos;
 107:c:\program files (x86)\gnu tools arm embedded\6 2017-q2-update\arm-none-eabi\include\c++\6.3.1\cmath **** 
 108:c:\program files (x86)\gnu tools arm embedded\6 2017-q2-update\arm-none-eabi\include\c++\6.3.1\cmath **** #ifndef __CORRECT_ISO_CPP_MATH_H_PROTO
 109:c:\program files (x86)\gnu tools arm embedded\6 2017-q2-update\arm-none-eabi\include\c++\6.3.1\cmath ****   inline _GLIBCXX_CONSTEXPR float
 110:c:\program files (x86)\gnu tools arm embedded\6 2017-q2-update\arm-none-eabi\include\c++\6.3.1\cmath ****   acos(float __x)
 111:c:\program files (x86)\gnu tools arm embedded\6 2017-q2-update\arm-none-eabi\include\c++\6.3.1\cmath ****   { return __builtin_acosf(__x); }
 112:c:\program files (x86)\gnu tools arm embedded\6 2017-q2-update\arm-none-eabi\include\c++\6.3.1\cmath **** 
 113:c:\program files (x86)\gnu tools arm embedded\6 2017-q2-update\arm-none-eabi\include\c++\6.3.1\cmath ****   inline _GLIBCXX_CONSTEXPR long double
 114:c:\program files (x86)\gnu tools arm embedded\6 2017-q2-update\arm-none-eabi\include\c++\6.3.1\cmath ****   acos(long double __x)
 115:c:\program files (x86)\gnu tools arm embedded\6 2017-q2-update\arm-none-eabi\include\c++\6.3.1\cmath ****   { return __builtin_acosl(__x); }
 116:c:\program files (x86)\gnu tools arm embedded\6 2017-q2-update\arm-none-eabi\include\c++\6.3.1\cmath **** #endif
 117:c:\program files (x86)\gnu tools arm embedded\6 2017-q2-update\arm-none-eabi\include\c++\6.3.1\cmath **** 
 118:c:\program files (x86)\gnu tools arm embedded\6 2017-q2-update\arm-none-eabi\include\c++\6.3.1\cmath ****   template<typename _Tp>
 119:c:\program files (x86)\gnu tools arm embedded\6 2017-q2-update\arm-none-eabi\include\c++\6.3.1\cmath ****     inline _GLIBCXX_CONSTEXPR
 120:c:\program files (x86)\gnu tools arm embedded\6 2017-q2-update\arm-none-eabi\include\c++\6.3.1\cmath ****     typename __gnu_cxx::__enable_if<__is_integer<_Tp>::__value, 
 121:c:\program files (x86)\gnu tools arm embedded\6 2017-q2-update\arm-none-eabi\include\c++\6.3.1\cmath ****                                     double>::__type
 122:c:\program files (x86)\gnu tools arm embedded\6 2017-q2-update\arm-none-eabi\include\c++\6.3.1\cmath ****     acos(_Tp __x)
 123:c:\program files (x86)\gnu tools arm embedded\6 2017-q2-update\arm-none-eabi\include\c++\6.3.1\cmath ****     { return __builtin_acos(__x); }
 124:c:\program files (x86)\gnu tools arm embedded\6 2017-q2-update\arm-none-eabi\include\c++\6.3.1\cmath **** 
 125:c:\program files (x86)\gnu tools arm embedded\6 2017-q2-update\arm-none-eabi\include\c++\6.3.1\cmath ****   using ::asin;
 126:c:\program files (x86)\gnu tools arm embedded\6 2017-q2-update\arm-none-eabi\include\c++\6.3.1\cmath **** 
 127:c:\program files (x86)\gnu tools arm embedded\6 2017-q2-update\arm-none-eabi\include\c++\6.3.1\cmath **** #ifndef __CORRECT_ISO_CPP_MATH_H_PROTO
 128:c:\program files (x86)\gnu tools arm embedded\6 2017-q2-update\arm-none-eabi\include\c++\6.3.1\cmath ****   inline _GLIBCXX_CONSTEXPR float
 129:c:\program files (x86)\gnu tools arm embedded\6 2017-q2-update\arm-none-eabi\include\c++\6.3.1\cmath ****   asin(float __x)
 130:c:\program files (x86)\gnu tools arm embedded\6 2017-q2-update\arm-none-eabi\include\c++\6.3.1\cmath ****   { return __builtin_asinf(__x); }
 131:c:\program files (x86)\gnu tools arm embedded\6 2017-q2-update\arm-none-eabi\include\c++\6.3.1\cmath **** 
 132:c:\program files (x86)\gnu tools arm embedded\6 2017-q2-update\arm-none-eabi\include\c++\6.3.1\cmath ****   inline _GLIBCXX_CONSTEXPR long double
 133:c:\program files (x86)\gnu tools arm embedded\6 2017-q2-update\arm-none-eabi\include\c++\6.3.1\cmath ****   asin(long double __x)
 134:c:\program files (x86)\gnu tools arm embedded\6 2017-q2-update\arm-none-eabi\include\c++\6.3.1\cmath ****   { return __builtin_asinl(__x); }
 135:c:\program files (x86)\gnu tools arm embedded\6 2017-q2-update\arm-none-eabi\include\c++\6.3.1\cmath **** #endif
 136:c:\program files (x86)\gnu tools arm embedded\6 2017-q2-update\arm-none-eabi\include\c++\6.3.1\cmath **** 
 137:c:\program files (x86)\gnu tools arm embedded\6 2017-q2-update\arm-none-eabi\include\c++\6.3.1\cmath ****   template<typename _Tp>
 138:c:\program files (x86)\gnu tools arm embedded\6 2017-q2-update\arm-none-eabi\include\c++\6.3.1\cmath ****     inline _GLIBCXX_CONSTEXPR
 139:c:\program files (x86)\gnu tools arm embedded\6 2017-q2-update\arm-none-eabi\include\c++\6.3.1\cmath ****     typename __gnu_cxx::__enable_if<__is_integer<_Tp>::__value,
 140:c:\program files (x86)\gnu tools arm embedded\6 2017-q2-update\arm-none-eabi\include\c++\6.3.1\cmath ****                                     double>::__type
 141:c:\program files (x86)\gnu tools arm embedded\6 2017-q2-update\arm-none-eabi\include\c++\6.3.1\cmath ****     asin(_Tp __x)
 142:c:\program files (x86)\gnu tools arm embedded\6 2017-q2-update\arm-none-eabi\include\c++\6.3.1\cmath ****     { return __builtin_asin(__x); }
 143:c:\program files (x86)\gnu tools arm embedded\6 2017-q2-update\arm-none-eabi\include\c++\6.3.1\cmath **** 
 144:c:\program files (x86)\gnu tools arm embedded\6 2017-q2-update\arm-none-eabi\include\c++\6.3.1\cmath ****   using ::atan;
 145:c:\program files (x86)\gnu tools arm embedded\6 2017-q2-update\arm-none-eabi\include\c++\6.3.1\cmath **** 
 146:c:\program files (x86)\gnu tools arm embedded\6 2017-q2-update\arm-none-eabi\include\c++\6.3.1\cmath **** #ifndef __CORRECT_ISO_CPP_MATH_H_PROTO
 147:c:\program files (x86)\gnu tools arm embedded\6 2017-q2-update\arm-none-eabi\include\c++\6.3.1\cmath ****   inline _GLIBCXX_CONSTEXPR float
 148:c:\program files (x86)\gnu tools arm embedded\6 2017-q2-update\arm-none-eabi\include\c++\6.3.1\cmath ****   atan(float __x)
 149:c:\program files (x86)\gnu tools arm embedded\6 2017-q2-update\arm-none-eabi\include\c++\6.3.1\cmath ****   { return __builtin_atanf(__x); }
 150:c:\program files (x86)\gnu tools arm embedded\6 2017-q2-update\arm-none-eabi\include\c++\6.3.1\cmath **** 
 151:c:\program files (x86)\gnu tools arm embedded\6 2017-q2-update\arm-none-eabi\include\c++\6.3.1\cmath ****   inline _GLIBCXX_CONSTEXPR long double
 152:c:\program files (x86)\gnu tools arm embedded\6 2017-q2-update\arm-none-eabi\include\c++\6.3.1\cmath ****   atan(long double __x)
 153:c:\program files (x86)\gnu tools arm embedded\6 2017-q2-update\arm-none-eabi\include\c++\6.3.1\cmath ****   { return __builtin_atanl(__x); }
 154:c:\program files (x86)\gnu tools arm embedded\6 2017-q2-update\arm-none-eabi\include\c++\6.3.1\cmath **** #endif
 155:c:\program files (x86)\gnu tools arm embedded\6 2017-q2-update\arm-none-eabi\include\c++\6.3.1\cmath **** 
 156:c:\program files (x86)\gnu tools arm embedded\6 2017-q2-update\arm-none-eabi\include\c++\6.3.1\cmath ****   template<typename _Tp>
 157:c:\program files (x86)\gnu tools arm embedded\6 2017-q2-update\arm-none-eabi\include\c++\6.3.1\cmath ****     inline _GLIBCXX_CONSTEXPR
 158:c:\program files (x86)\gnu tools arm embedded\6 2017-q2-update\arm-none-eabi\include\c++\6.3.1\cmath ****     typename __gnu_cxx::__enable_if<__is_integer<_Tp>::__value,
 159:c:\program files (x86)\gnu tools arm embedded\6 2017-q2-update\arm-none-eabi\include\c++\6.3.1\cmath ****                                     double>::__type
 160:c:\program files (x86)\gnu tools arm embedded\6 2017-q2-update\arm-none-eabi\include\c++\6.3.1\cmath ****     atan(_Tp __x)
 161:c:\program files (x86)\gnu tools arm embedded\6 2017-q2-update\arm-none-eabi\include\c++\6.3.1\cmath ****     { return __builtin_atan(__x); }
 162:c:\program files (x86)\gnu tools arm embedded\6 2017-q2-update\arm-none-eabi\include\c++\6.3.1\cmath **** 
 163:c:\program files (x86)\gnu tools arm embedded\6 2017-q2-update\arm-none-eabi\include\c++\6.3.1\cmath ****   using ::atan2;
 164:c:\program files (x86)\gnu tools arm embedded\6 2017-q2-update\arm-none-eabi\include\c++\6.3.1\cmath **** 
 165:c:\program files (x86)\gnu tools arm embedded\6 2017-q2-update\arm-none-eabi\include\c++\6.3.1\cmath **** #ifndef __CORRECT_ISO_CPP_MATH_H_PROTO
 166:c:\program files (x86)\gnu tools arm embedded\6 2017-q2-update\arm-none-eabi\include\c++\6.3.1\cmath ****   inline _GLIBCXX_CONSTEXPR float
 167:c:\program files (x86)\gnu tools arm embedded\6 2017-q2-update\arm-none-eabi\include\c++\6.3.1\cmath ****   atan2(float __y, float __x)
 168:c:\program files (x86)\gnu tools arm embedded\6 2017-q2-update\arm-none-eabi\include\c++\6.3.1\cmath ****   { return __builtin_atan2f(__y, __x); }
 169:c:\program files (x86)\gnu tools arm embedded\6 2017-q2-update\arm-none-eabi\include\c++\6.3.1\cmath **** 
 170:c:\program files (x86)\gnu tools arm embedded\6 2017-q2-update\arm-none-eabi\include\c++\6.3.1\cmath ****   inline _GLIBCXX_CONSTEXPR long double
 171:c:\program files (x86)\gnu tools arm embedded\6 2017-q2-update\arm-none-eabi\include\c++\6.3.1\cmath ****   atan2(long double __y, long double __x)
 172:c:\program files (x86)\gnu tools arm embedded\6 2017-q2-update\arm-none-eabi\include\c++\6.3.1\cmath ****   { return __builtin_atan2l(__y, __x); }
 173:c:\program files (x86)\gnu tools arm embedded\6 2017-q2-update\arm-none-eabi\include\c++\6.3.1\cmath **** #endif
 174:c:\program files (x86)\gnu tools arm embedded\6 2017-q2-update\arm-none-eabi\include\c++\6.3.1\cmath **** 
 175:c:\program files (x86)\gnu tools arm embedded\6 2017-q2-update\arm-none-eabi\include\c++\6.3.1\cmath ****   template<typename _Tp, typename _Up>
 176:c:\program files (x86)\gnu tools arm embedded\6 2017-q2-update\arm-none-eabi\include\c++\6.3.1\cmath ****     inline _GLIBCXX_CONSTEXPR
 177:c:\program files (x86)\gnu tools arm embedded\6 2017-q2-update\arm-none-eabi\include\c++\6.3.1\cmath ****     typename __gnu_cxx::__promote_2<_Tp, _Up>::__type
 178:c:\program files (x86)\gnu tools arm embedded\6 2017-q2-update\arm-none-eabi\include\c++\6.3.1\cmath ****     atan2(_Tp __y, _Up __x)
 179:c:\program files (x86)\gnu tools arm embedded\6 2017-q2-update\arm-none-eabi\include\c++\6.3.1\cmath ****     {
 180:c:\program files (x86)\gnu tools arm embedded\6 2017-q2-update\arm-none-eabi\include\c++\6.3.1\cmath ****       typedef typename __gnu_cxx::__promote_2<_Tp, _Up>::__type __type;
 181:c:\program files (x86)\gnu tools arm embedded\6 2017-q2-update\arm-none-eabi\include\c++\6.3.1\cmath ****       return atan2(__type(__y), __type(__x));
 182:c:\program files (x86)\gnu tools arm embedded\6 2017-q2-update\arm-none-eabi\include\c++\6.3.1\cmath ****     }
 183:c:\program files (x86)\gnu tools arm embedded\6 2017-q2-update\arm-none-eabi\include\c++\6.3.1\cmath **** 
 184:c:\program files (x86)\gnu tools arm embedded\6 2017-q2-update\arm-none-eabi\include\c++\6.3.1\cmath ****   using ::ceil;
 185:c:\program files (x86)\gnu tools arm embedded\6 2017-q2-update\arm-none-eabi\include\c++\6.3.1\cmath **** 
 186:c:\program files (x86)\gnu tools arm embedded\6 2017-q2-update\arm-none-eabi\include\c++\6.3.1\cmath **** #ifndef __CORRECT_ISO_CPP_MATH_H_PROTO
 187:c:\program files (x86)\gnu tools arm embedded\6 2017-q2-update\arm-none-eabi\include\c++\6.3.1\cmath ****   inline _GLIBCXX_CONSTEXPR float
 188:c:\program files (x86)\gnu tools arm embedded\6 2017-q2-update\arm-none-eabi\include\c++\6.3.1\cmath ****   ceil(float __x)
 189:c:\program files (x86)\gnu tools arm embedded\6 2017-q2-update\arm-none-eabi\include\c++\6.3.1\cmath ****   { return __builtin_ceilf(__x); }
 8972              		.loc 8 189 0
 8973 0254 270A80EE 		vdiv.f32	s0, s0, s15
 8974 0258 FEFFFFEB 		bl	ceilf
 8975              	.LVL1008:
 8976              	.LBE2155:
 8977              	.LBE2154:
 112:../src/tensorflow_lite/tensorflow/lite/micro/kernels/strided_slice.cc ****       shape_size++;
 8978              		.loc 1 112 0
 8979 025c 18309DE5 		ldr	r3, [sp, #24]
 109:../src/tensorflow_lite/tensorflow/lite/micro/kernels/strided_slice.cc ****     dim_shape = dim_shape < 0 ? 0 : dim_shape;
 8980              		.loc 1 109 0
 8981 0260 C00ABDEE 		vcvt.s32.f32	s0, s0
 8982              	.LVL1009:
 112:../src/tensorflow_lite/tensorflow/lite/micro/kernels/strided_slice.cc ****       shape_size++;
 8983              		.loc 1 112 0
 8984 0264 0A2183E0 		add	r2, r3, r10, lsl #2
 110:../src/tensorflow_lite/tensorflow/lite/micro/kernels/strided_slice.cc ****     if (!shrink_axis) {
 8985              		.loc 1 110 0
 8986 0268 103A10EE 		vmov	r3, s0	@ int
 112:../src/tensorflow_lite/tensorflow/lite/micro/kernels/strided_slice.cc ****       shape_size++;
 8987              		.loc 1 112 0
 8988 026c 04C092E5 		ldr	ip, [r2, #4]
 110:../src/tensorflow_lite/tensorflow/lite/micro/kernels/strided_slice.cc ****     if (!shrink_axis) {
 8989              		.loc 1 110 0
 8990 0270 C33FC3E1 		bic	r3, r3, r3, asr #31
 8991              	.LVL1010:
 112:../src/tensorflow_lite/tensorflow/lite/micro/kernels/strided_slice.cc ****       shape_size++;
 8992              		.loc 1 112 0
 8993 0274 03005CE1 		cmp	ip, r3
 8994 0278 6C00001A 		bne	.L1503
 113:../src/tensorflow_lite/tensorflow/lite/micro/kernels/strided_slice.cc ****     }
 8995              		.loc 1 113 0
 8996 027c 01A08AE2 		add	r10, r10, #1
 8997              	.LVL1011:
 8998              	.L1346:
 8999              	.LBE2121:
  93:../src/tensorflow_lite/tensorflow/lite/micro/kernels/strided_slice.cc ****     int32_t stride = GetTensorData<int32_t>(op_context->strides)[idx];
 9000              		.loc 1 93 0 discriminator 2
 9001 0280 014084E2 		add	r4, r4, #1
 9002              	.LVL1012:
 9003 0284 04B08BE2 		add	fp, fp, #4
 9004 0288 060054E1 		cmp	r4, r6
 9005 028c 4000000A 		beq	.L1323
 9006              	.LVL1013:
 9007              	.L1349:
 9008              	.LBB2164:
 9009              	.LBB2156:
 9010              	.LBB2157:
  30:C:/Renesas/e2studio_2021_01_workspace_RZA2M_ANPR/ANPR_RZA2M_EBK/src/tensorflow_lite/tensorflow/lite/kernels/internal\tensor_ctypes.h ****                            : nullptr;
 9011              		.loc 7 30 0
 9012 0290 000057E3 		cmp	r7, #0
 9013 0294 0730A001 		moveq	r3, r7
 9014 0298 04309715 		ldrne	r3, [r7, #4]
 9015              	.L1324:
 9016              	.LBE2157:
 9017              	.LBE2156:
  94:../src/tensorflow_lite/tensorflow/lite/micro/kernels/strided_slice.cc ****     TF_LITE_ENSURE_MSG(context, stride != 0, "stride value has to be non-zero");
 9018              		.loc 1 94 0
 9019 029c 042193E7 		ldr	r2, [r3, r4, lsl #2]
 9020              	.LVL1014:
 9021 02a0 0431A0E1 		lsl	r3, r4, #2
  95:../src/tensorflow_lite/tensorflow/lite/micro/kernels/strided_slice.cc ****     int32_t begin = StartForAxis(op_params, input_shape, idx);
 9022              		.loc 1 95 0
 9023 02a4 000052E3 		cmp	r2, #0
 9024 02a8 4F00000A 		beq	.L1504
 9025              	.LVL1015:
 9026              	.LBB2158:
 9027              	.LBB2138:
 9028              	.LBB2131:
 9029              	.LBB2126:
 215:C:/Renesas/e2studio_2021_01_workspace_RZA2M_ANPR/ANPR_RZA2M_EBK/src/tensorflow_lite/tensorflow/lite/kernels/internal\types.h ****     return size_ > kMaxSmallSize ? dims_pointer_[i] : dims_[i];
 9030              		.loc 4 215 0
 9031 02ac 050054E1 		cmp	r4, r5
 9032 02b0 660100AA 		bge	.L1505
 216:C:/Renesas/e2studio_2021_01_workspace_RZA2M_ANPR/ANPR_RZA2M_EBK/src/tensorflow_lite/tensorflow/lite/kernels/internal\types.h ****   }
 9033              		.loc 4 216 0
 9034 02b4 050055E3 		cmp	r5, #5
 9035 02b8 1C309DC5 		ldrgt	r3, [sp, #28]
 9036 02bc 2C108DD2 		addle	r1, sp, #44
 9037 02c0 033081D0 		addle	r3, r1, r3
 9038 02c4 043093D5 		ldrle	r3, [r3, #4]
 9039              	.LVL1016:
 9040 02c8 043193C7 		ldrgt	r3, [r3, r4, lsl #2]
 9041              	.LBE2126:
 9042              	.LBE2131:
  81:C:/Renesas/e2studio_2021_01_workspace_RZA2M_ANPR/ANPR_RZA2M_EBK/src/tensorflow_lite/tensorflow/lite/kernels/internal\strided_slice_logic.h ****     return 0;
 9043              		.loc 5 81 0
 9044 02cc 000053E3 		cmp	r3, #0
 9045 02d0 B5FFFF1A 		bne	.L1506
  82:C:/Renesas/e2studio_2021_01_workspace_RZA2M_ANPR/ANPR_RZA2M_EBK/src/tensorflow_lite/tensorflow/lite/kernels/internal\strided_slice_logic.h ****   }
 9046              		.loc 5 82 0
 9047 02d4 0310A0E1 		mov	r1, r3
 9048 02d8 D3FFFFEA 		b	.L1328
 9049              	.LVL1017:
 9050              	.L1320:
 9051 02dc 0241A0E1 		lsl	r4, r2, #2
 9052              	.LBE2138:
 9053              	.LBE2158:
 9054              	.LBE2164:
 9055              	.LBE2120:
 9056              	.LBB2170:
 9057              	.LBB2115:
 9058              	.LBB2110:
 9059              	.LBB2108:
 9060              	.LBB2106:
 9061              	.LBB2103:
 9062              	.LBB2104:
 229:C:/Renesas/e2studio_2021_01_workspace_RZA2M_ANPR/ANPR_RZA2M_EBK/src/tensorflow_lite/tensorflow/lite/kernels/internal\types.h ****   }
 9063              		.loc 4 229 0
 9064 02e0 30008DE2 		add	r0, sp, #48
 9065 02e4 A0FFFFEA 		b	.L1322
 9066              	.LVL1018:
 9067              	.L1329:
 9068              	.LBE2104:
 9069              	.LBE2103:
 9070              	.LBE2106:
 9071              	.LBE2108:
 9072              	.LBE2110:
 9073              	.LBE2115:
 9074              	.LBE2170:
 9075              	.LBB2171:
 9076              	.LBB2165:
 9077              	.LBB2159:
 9078              	.LBB2139:
  85:C:/Renesas/e2studio_2021_01_workspace_RZA2M_ANPR/ANPR_RZA2M_EBK/src/tensorflow_lite/tensorflow/lite/kernels/internal\strided_slice_logic.h **** 
 9079              		.loc 5 85 0
 9080 02e8 04C09BE5 		ldr	ip, [fp, #4]
 9081 02ec 34109BE5 		ldr	r1, [fp, #52]
 101:C:/Renesas/e2studio_2021_01_workspace_RZA2M_ANPR/ANPR_RZA2M_EBK/src/tensorflow_lite/tensorflow/lite/kernels/internal\strided_slice_logic.h ****     start += axis_size;
 9082              		.loc 5 101 0
 9083 02f0 00005CE3 		cmp	ip, #0
 9084 02f4 B4FFFFBA 		blt	.L1330
 9085              	.LVL1019:
 106:C:/Renesas/e2studio_2021_01_workspace_RZA2M_ANPR/ANPR_RZA2M_EBK/src/tensorflow_lite/tensorflow/lite/kernels/internal\strided_slice_logic.h ****     // Forward iteration
 9086              		.loc 5 106 0
 9087 02f8 000051E3 		cmp	r1, #0
 9088 02fc B5FFFFCA 		bgt	.L1507
 9089              	.L1334:
 111:C:/Renesas/e2studio_2021_01_workspace_RZA2M_ANPR/ANPR_RZA2M_EBK/src/tensorflow_lite/tensorflow/lite/kernels/internal\strided_slice_logic.h ****   }
 9090              		.loc 5 111 0
 9091 0300 011043E2 		sub	r1, r3, #1
 9092              	.LVL1020:
 9093              	.LBB2132:
 9094              	.LBB2133:
  30:C:/Renesas/e2studio_2021_01_workspace_RZA2M_ANPR/ANPR_RZA2M_EBK/src/tensorflow_lite/tensorflow/lite/kernels/internal\strided_slice_logic.h ****   if (hi < v) return hi;
 9095              		.loc 5 30 0
 9096 0304 010071E3 		cmn	r1, #1
 9097 0308 1D0000BA 		blt	.L1361
  31:C:/Renesas/e2studio_2021_01_workspace_RZA2M_ANPR/ANPR_RZA2M_EBK/src/tensorflow_lite/tensorflow/lite/kernels/internal\strided_slice_logic.h ****   if (v < lo) return lo;
 9098              		.loc 5 31 0
 9099 030c 01005CE1 		cmp	ip, r1
 9100 0310 B5FFFFCA 		bgt	.L1336
 9101 0314 01007CE3 		cmn	ip, #1
 9102 0318 0C10A0A1 		movge	r1, ip
 9103              	.LVL1021:
 9104              	.LBE2133:
 9105              	.LBE2132:
 9106              	.LBE2139:
 9107              	.LBE2159:
 9108              	.LBB2160:
 9109              	.LBB2152:
 135:C:/Renesas/e2studio_2021_01_workspace_RZA2M_ANPR/ANPR_RZA2M_EBK/src/tensorflow_lite/tensorflow/lite/kernels/internal\strided_slice_logic.h ****   int stop = stop_indices[axis];
 9110              		.loc 5 135 0
 9111 031c 58C4A0E1 		asr	ip, r8, r4
 9112              	.LVL1022:
 9113 0320 0010E0B3 		mvnlt	r1, #0
 9114              	.LVL1023:
 142:C:/Renesas/e2studio_2021_01_workspace_RZA2M_ANPR/ANPR_RZA2M_EBK/src/tensorflow_lite/tensorflow/lite/kernels/internal\strided_slice_logic.h ****     return start_for_axis + 1;
 9115              		.loc 5 142 0
 9116 0324 01001CE3 		tst	ip, #1
 9117 0328 B2FFFF0A 		beq	.L1481
 9118              	.LVL1024:
 9119              	.L1501:
 143:C:/Renesas/e2studio_2021_01_workspace_RZA2M_ANPR/ANPR_RZA2M_EBK/src/tensorflow_lite/tensorflow/lite/kernels/internal\strided_slice_logic.h ****   }
 9120              		.loc 5 143 0
 9121 032c 013081E2 		add	r3, r1, #1
 9122 0330 BDFFFFEA 		b	.L1328
 9123              	.L1338:
 136:C:/Renesas/e2studio_2021_01_workspace_RZA2M_ANPR/ANPR_RZA2M_EBK/src/tensorflow_lite/tensorflow/lite/kernels/internal\strided_slice_logic.h **** 
 9124              		.loc 5 136 0
 9125 0334 1CC09BE5 		ldr	ip, [fp, #28]
 9126 0338 34E09BE5 		ldr	lr, [fp, #52]
 159:C:/Renesas/e2studio_2021_01_workspace_RZA2M_ANPR/ANPR_RZA2M_EBK/src/tensorflow_lite/tensorflow/lite/kernels/internal\strided_slice_logic.h ****     stop += axis_size;
 9127              		.loc 5 159 0
 9128 033c 00005CE3 		cmp	ip, #0
 9129 0340 0A0000BA 		blt	.L1340
 9130              	.L1342:
 9131              	.LVL1025:
 166:C:/Renesas/e2studio_2021_01_workspace_RZA2M_ANPR/ANPR_RZA2M_EBK/src/tensorflow_lite/tensorflow/lite/kernels/internal\strided_slice_logic.h ****     // Forward iteration
 9132              		.loc 5 166 0
 9133 0344 00005EE3 		cmp	lr, #0
 9134 0348 B3FFFFCA 		bgt	.L1339
 171:C:/Renesas/e2studio_2021_01_workspace_RZA2M_ANPR/ANPR_RZA2M_EBK/src/tensorflow_lite/tensorflow/lite/kernels/internal\strided_slice_logic.h ****   }
 9135              		.loc 5 171 0
 9136 034c 013043E2 		sub	r3, r3, #1
 9137              	.LVL1026:
 9138              	.LBB2147:
 9139              	.LBB2148:
  30:C:/Renesas/e2studio_2021_01_workspace_RZA2M_ANPR/ANPR_RZA2M_EBK/src/tensorflow_lite/tensorflow/lite/kernels/internal\strided_slice_logic.h ****   if (hi < v) return hi;
 9140              		.loc 5 30 0
 9141 0350 010073E3 		cmn	r3, #1
 9142 0354 620100BA 		blt	.L1508
  31:C:/Renesas/e2studio_2021_01_workspace_RZA2M_ANPR/ANPR_RZA2M_EBK/src/tensorflow_lite/tensorflow/lite/kernels/internal\strided_slice_logic.h ****   if (v < lo) return lo;
 9143              		.loc 5 31 0
 9144 0358 03005CE1 		cmp	ip, r3
 9145 035c B2FFFFCA 		bgt	.L1328
 9146              	.LVL1027:
 9147 0360 01007CE3 		cmn	ip, #1
 9148 0364 0C30A0A1 		movge	r3, ip
 9149 0368 0030E0B3 		mvnlt	r3, #0
 9150 036c AEFFFFEA 		b	.L1328
 9151              	.LVL1028:
 9152              	.L1340:
 9153              	.LBE2148:
 9154              	.LBE2147:
 160:C:/Renesas/e2studio_2021_01_workspace_RZA2M_ANPR/ANPR_RZA2M_EBK/src/tensorflow_lite/tensorflow/lite/kernels/internal\strided_slice_logic.h ****   }
 9155              		.loc 5 160 0
 9156 0370 03C08CE0 		add	ip, ip, r3
 9157              	.LVL1029:
 9158 0374 F2FFFFEA 		b	.L1342
 9159              	.LVL1030:
 9160              	.L1499:
 9161              	.LBE2152:
 9162              	.LBE2160:
 9163              	.LBB2161:
 9164              	.LBB2140:
 111:C:/Renesas/e2studio_2021_01_workspace_RZA2M_ANPR/ANPR_RZA2M_EBK/src/tensorflow_lite/tensorflow/lite/kernels/internal\strided_slice_logic.h ****   }
 9165              		.loc 5 111 0
 9166 0378 011043E2 		sub	r1, r3, #1
 9167              	.LVL1031:
 9168              	.LBB2135:
 9169              	.LBB2134:
  30:C:/Renesas/e2studio_2021_01_workspace_RZA2M_ANPR/ANPR_RZA2M_EBK/src/tensorflow_lite/tensorflow/lite/kernels/internal\strided_slice_logic.h ****   if (hi < v) return hi;
 9170              		.loc 5 30 0
 9171 037c 010071E3 		cmn	r1, #1
 9172 0380 99FFFFAA 		bge	.L1336
 9173              	.LVL1032:
 9174              	.L1361:
 9175              	.LEHB26:
 9176 0384 FEFFFFEB 		bl	abort
 9177              	.LVL1033:
 9178              	.L1498:
 9179              	.LBE2134:
 9180              	.LBE2135:
 9181              	.LBE2140:
 9182              	.LBE2161:
 9183              	.LBE2165:
 9184              	.LBE2171:
 9185              	.LBB2172:
 9186              	.LBB2116:
 9187              	.LBB2111:
 9188              	.LBB2112:
 156:C:/Renesas/e2studio_2021_01_workspace_RZA2M_ANPR/ANPR_RZA2M_EBK/src/tensorflow_lite/tensorflow/lite/kernels/internal\types.h **** 
 9189              		.loc 4 156 0
 9190 0388 2C508DE5 		str	r5, [sp, #44]
 9191 038c 7AFFFFEA 		b	.L1319
 9192              	.LVL1034:
 9193              	.L1362:
 9194              	.LBE2112:
 9195              	.LBE2111:
 9196              	.LBE2116:
 9197              	.LBE2172:
 9198              	.LBB2173:
  93:../src/tensorflow_lite/tensorflow/lite/micro/kernels/strided_slice.cc ****     int32_t stride = GetTensorData<int32_t>(op_context->strides)[idx];
 9199              		.loc 1 93 0
 9200 0390 00A0A0E3 		mov	r10, #0
 9201              	.LVL1035:
 9202              	.L1323:
 9203              	.LBE2173:
 116:../src/tensorflow_lite/tensorflow/lite/micro/kernels/strided_slice.cc ****   return kTfLiteOk;
 9204              		.loc 1 116 0
 9205 0394 18309DE5 		ldr	r3, [sp, #24]
 9206 0398 003093E5 		ldr	r3, [r3]
 9207 039c 0A0053E1 		cmp	r3, r10
 9208 03a0 2000000A 		beq	.L1369
 116:../src/tensorflow_lite/tensorflow/lite/micro/kernels/strided_slice.cc ****   return kTfLiteOk;
 9209              		.loc 1 116 0 is_stmt 0 discriminator 1
 9210 03a4 24E09DE5 		ldr	lr, [sp, #36]
 9211 03a8 000000E3 		movw	r0, #:lower16:.LC7
 9212 03ac 00C000E3 		movw	ip, #:lower16:.LC8
 9213 03b0 000040E3 		movt	r0, #:upper16:.LC7
 9214 03b4 00C040E3 		movt	ip, #:upper16:.LC8
 9215 03b8 002000E3 		movw	r2, #:lower16:.LC3
 9216 03bc 001000E3 		movw	r1, #:lower16:.LC4
 9217 03c0 08308DE5 		str	r3, [sp, #8]
 9218 03c4 04008DE5 		str	r0, [sp, #4]
 9219 03c8 002040E3 		movt	r2, #:upper16:.LC3
 9220 03cc 0CA08DE5 		str	r10, [sp, #12]
 9221 03d0 001040E3 		movt	r1, #:upper16:.LC4
 9222 03d4 00C08DE5 		str	ip, [sp]
 9223 03d8 0E00A0E1 		mov	r0, lr
 9224 03dc 7430A0E3 		mov	r3, #116
 9225 03e0 14409EE5 		ldr	r4, [lr, #20]
 9226 03e4 34FF2FE1 		blx	r4
 9227              	.LVL1036:
 9228 03e8 040000EA 		b	.L1348
 9229              	.LVL1037:
 9230              	.L1504:
 9231              	.LBB2174:
 9232              	.LBB2166:
  95:../src/tensorflow_lite/tensorflow/lite/micro/kernels/strided_slice.cc ****     int32_t begin = StartForAxis(op_params, input_shape, idx);
 9233              		.loc 1 95 0 is_stmt 1 discriminator 1
 9234 03ec 24009DE5 		ldr	r0, [sp, #36]
 9235 03f0 001000E3 		movw	r1, #:lower16:.LC2
 9236 03f4 001040E3 		movt	r1, #:upper16:.LC2
 9237 03f8 143090E5 		ldr	r3, [r0, #20]
 9238 03fc 33FF2FE1 		blx	r3
 9239              	.LVL1038:
 9240              	.L1348:
  95:../src/tensorflow_lite/tensorflow/lite/micro/kernels/strided_slice.cc ****     int32_t begin = StartForAxis(op_params, input_shape, idx);
 9241              		.loc 1 95 0 is_stmt 0
 9242 0400 0140A0E3 		mov	r4, #1
 9243              	.L1325:
 9244              	.LVL1039:
 9245              	.LBE2166:
 9246              	.LBE2174:
 9247              	.LBB2175:
 9248              	.LBB2176:
 203:C:/Renesas/e2studio_2021_01_workspace_RZA2M_ANPR/ANPR_RZA2M_EBK/src/tensorflow_lite/tensorflow/lite/kernels/internal\types.h **** #ifdef TF_LITE_STATIC_MEMORY
 9249              		.loc 4 203 0 is_stmt 1
 9250 0404 050055E3 		cmp	r5, #5
 9251 0408 030000DA 		ble	.L1371
 207:C:/Renesas/e2studio_2021_01_workspace_RZA2M_ANPR/ANPR_RZA2M_EBK/src/tensorflow_lite/tensorflow/lite/kernels/internal\types.h **** #endif  // TF_LITE_STATIC_MEMORY
 9252              		.loc 4 207 0
 9253 040c 30009DE5 		ldr	r0, [sp, #48]
 9254 0410 000050E3 		cmp	r0, #0
 9255 0414 0000000A 		beq	.L1371
 9256 0418 FEFFFFEB 		bl	_ZdaPv
 9257              	.LVL1040:
 9258              	.L1371:
 9259              	.LBE2176:
 9260              	.LBE2175:
 118:../src/tensorflow_lite/tensorflow/lite/micro/kernels/strided_slice.cc **** 
 9261              		.loc 1 118 0
 9262 041c 0400A0E1 		mov	r0, r4
 9263 0420 9CD08DE2 		add	sp, sp, #156
 9264              		.cfi_remember_state
 9265              		.cfi_def_cfa_offset 36
 9266              		@ sp needed
 9267 0424 F08FBDE8 		pop	{r4, r5, r6, r7, r8, r9, r10, fp, pc}
 9268              	.L1369:
 9269              		.cfi_restore_state
 117:../src/tensorflow_lite/tensorflow/lite/micro/kernels/strided_slice.cc **** }
 9270              		.loc 1 117 0
 9271 0428 0040A0E3 		mov	r4, #0
 9272 042c F4FFFFEA 		b	.L1325
 9273              	.LVL1041:
 9274              	.L1503:
 9275              	.LBB2177:
 9276              	.LBB2167:
 112:../src/tensorflow_lite/tensorflow/lite/micro/kernels/strided_slice.cc ****       shape_size++;
 9277              		.loc 1 112 0 discriminator 1
 9278 0430 08C08DE5 		str	ip, [sp, #8]
 9279 0434 000000E3 		movw	r0, #:lower16:.LC5
 9280 0438 24C09DE5 		ldr	ip, [sp, #36]
 9281 043c 00E000E3 		movw	lr, #:lower16:.LC6
 9282 0440 000040E3 		movt	r0, #:upper16:.LC5
 9283 0444 00E040E3 		movt	lr, #:upper16:.LC6
 9284 0448 002000E3 		movw	r2, #:lower16:.LC3
 9285 044c 001000E3 		movw	r1, #:lower16:.LC4
 9286 0450 0C308DE5 		str	r3, [sp, #12]
 9287 0454 002040E3 		movt	r2, #:upper16:.LC3
 9288 0458 04008DE5 		str	r0, [sp, #4]
 9289 045c 001040E3 		movt	r1, #:upper16:.LC4
 9290 0460 00E08DE5 		str	lr, [sp]
 9291 0464 0C00A0E1 		mov	r0, ip
 9292 0468 7030A0E3 		mov	r3, #112
 9293              	.LVL1042:
 9294 046c 14409CE5 		ldr	r4, [ip, #20]
 9295              	.LVL1043:
 9296 0470 34FF2FE1 		blx	r4
 9297              	.LVL1044:
 9298              	.LEHE26:
 9299 0474 E1FFFFEA 		b	.L1348
 9300              	.LVL1045:
 9301              	.L1495:
 9302 0478 000050E3 		cmp	r0, #0
 9303 047c 8400000A 		beq	.L1509
 9304 0480 000053E3 		cmp	r3, #0
 9305 0484 A700000A 		beq	.L1510
 9306              	.LBE2167:
 9307              	.LBE2177:
 9308              	.LBB2178:
 9309              	.LBB2083:
 9310              	.LBB2074:
  69:../src/tensorflow_lite/tensorflow/lite/micro/kernels/strided_slice.cc ****     op_params.stop_indices[i] = GetTensorData<int32_t>(op_context->end)[i];
 9311              		.loc 1 69 0
 9312 0488 00C092E5 		ldr	ip, [r2]
  68:../src/tensorflow_lite/tensorflow/lite/micro/kernels/strided_slice.cc ****     op_params.start_indices[i] = GetTensorData<int32_t>(op_context->begin)[i];
 9313              		.loc 1 68 0
 9314 048c 010059E3 		cmp	r9, #1
 9315 0490 041093E5 		ldr	r1, [r3, #4]
 9316              	.LVL1046:
 9317 0494 043090E5 		ldr	r3, [r0, #4]
  69:../src/tensorflow_lite/tensorflow/lite/micro/kernels/strided_slice.cc ****     op_params.stop_indices[i] = GetTensorData<int32_t>(op_context->end)[i];
 9318              		.loc 1 69 0
 9319 0498 48C08DE5 		str	ip, [sp, #72]
  70:../src/tensorflow_lite/tensorflow/lite/micro/kernels/strided_slice.cc ****     op_params.strides[i] = GetTensorData<int32_t>(op_context->strides)[i];
 9320              		.loc 1 70 0
 9321 049c 000091E5 		ldr	r0, [r1]
 9322 04a0 60008DE5 		str	r0, [sp, #96]
  71:../src/tensorflow_lite/tensorflow/lite/micro/kernels/strided_slice.cc ****   }
 9323              		.loc 1 71 0
 9324 04a4 000093E5 		ldr	r0, [r3]
 9325 04a8 78008DE5 		str	r0, [sp, #120]
 9326              	.LVL1047:
  68:../src/tensorflow_lite/tensorflow/lite/micro/kernels/strided_slice.cc ****     op_params.start_indices[i] = GetTensorData<int32_t>(op_context->begin)[i];
 9327              		.loc 1 68 0
 9328 04ac 13FFFF0A 		beq	.L1314
  69:../src/tensorflow_lite/tensorflow/lite/micro/kernels/strided_slice.cc ****     op_params.stop_indices[i] = GetTensorData<int32_t>(op_context->end)[i];
 9329              		.loc 1 69 0
 9330 04b0 040092E5 		ldr	r0, [r2, #4]
  68:../src/tensorflow_lite/tensorflow/lite/micro/kernels/strided_slice.cc ****     op_params.start_indices[i] = GetTensorData<int32_t>(op_context->begin)[i];
 9331              		.loc 1 68 0
 9332 04b4 020059E3 		cmp	r9, #2
  69:../src/tensorflow_lite/tensorflow/lite/micro/kernels/strided_slice.cc ****     op_params.stop_indices[i] = GetTensorData<int32_t>(op_context->end)[i];
 9333              		.loc 1 69 0
 9334 04b8 4C008DE5 		str	r0, [sp, #76]
  70:../src/tensorflow_lite/tensorflow/lite/micro/kernels/strided_slice.cc ****     op_params.strides[i] = GetTensorData<int32_t>(op_context->strides)[i];
 9335              		.loc 1 70 0
 9336 04bc 040091E5 		ldr	r0, [r1, #4]
 9337 04c0 64008DE5 		str	r0, [sp, #100]
  71:../src/tensorflow_lite/tensorflow/lite/micro/kernels/strided_slice.cc ****   }
 9338              		.loc 1 71 0
 9339 04c4 040093E5 		ldr	r0, [r3, #4]
 9340 04c8 7C008DE5 		str	r0, [sp, #124]
 9341              	.LVL1048:
  68:../src/tensorflow_lite/tensorflow/lite/micro/kernels/strided_slice.cc ****     op_params.start_indices[i] = GetTensorData<int32_t>(op_context->begin)[i];
 9342              		.loc 1 68 0
 9343 04cc 0BFFFF0A 		beq	.L1314
  69:../src/tensorflow_lite/tensorflow/lite/micro/kernels/strided_slice.cc ****     op_params.stop_indices[i] = GetTensorData<int32_t>(op_context->end)[i];
 9344              		.loc 1 69 0
 9345 04d0 080092E5 		ldr	r0, [r2, #8]
  68:../src/tensorflow_lite/tensorflow/lite/micro/kernels/strided_slice.cc ****     op_params.start_indices[i] = GetTensorData<int32_t>(op_context->begin)[i];
 9346              		.loc 1 68 0
 9347 04d4 030059E3 		cmp	r9, #3
  69:../src/tensorflow_lite/tensorflow/lite/micro/kernels/strided_slice.cc ****     op_params.stop_indices[i] = GetTensorData<int32_t>(op_context->end)[i];
 9348              		.loc 1 69 0
 9349 04d8 50008DE5 		str	r0, [sp, #80]
  70:../src/tensorflow_lite/tensorflow/lite/micro/kernels/strided_slice.cc ****     op_params.strides[i] = GetTensorData<int32_t>(op_context->strides)[i];
 9350              		.loc 1 70 0
 9351 04dc 080091E5 		ldr	r0, [r1, #8]
 9352 04e0 68008DE5 		str	r0, [sp, #104]
  71:../src/tensorflow_lite/tensorflow/lite/micro/kernels/strided_slice.cc ****   }
 9353              		.loc 1 71 0
 9354 04e4 080093E5 		ldr	r0, [r3, #8]
 9355 04e8 80008DE5 		str	r0, [sp, #128]
 9356              	.LVL1049:
  68:../src/tensorflow_lite/tensorflow/lite/micro/kernels/strided_slice.cc ****     op_params.start_indices[i] = GetTensorData<int32_t>(op_context->begin)[i];
 9357              		.loc 1 68 0
 9358 04ec 03FFFF0A 		beq	.L1314
  69:../src/tensorflow_lite/tensorflow/lite/micro/kernels/strided_slice.cc ****     op_params.stop_indices[i] = GetTensorData<int32_t>(op_context->end)[i];
 9359              		.loc 1 69 0
 9360 04f0 0C0092E5 		ldr	r0, [r2, #12]
  68:../src/tensorflow_lite/tensorflow/lite/micro/kernels/strided_slice.cc ****     op_params.start_indices[i] = GetTensorData<int32_t>(op_context->begin)[i];
 9361              		.loc 1 68 0
 9362 04f4 040059E3 		cmp	r9, #4
  69:../src/tensorflow_lite/tensorflow/lite/micro/kernels/strided_slice.cc ****     op_params.stop_indices[i] = GetTensorData<int32_t>(op_context->end)[i];
 9363              		.loc 1 69 0
 9364 04f8 54008DE5 		str	r0, [sp, #84]
  70:../src/tensorflow_lite/tensorflow/lite/micro/kernels/strided_slice.cc ****     op_params.strides[i] = GetTensorData<int32_t>(op_context->strides)[i];
 9365              		.loc 1 70 0
 9366 04fc 0C0091E5 		ldr	r0, [r1, #12]
 9367 0500 6C008DE5 		str	r0, [sp, #108]
  71:../src/tensorflow_lite/tensorflow/lite/micro/kernels/strided_slice.cc ****   }
 9368              		.loc 1 71 0
 9369 0504 0C0093E5 		ldr	r0, [r3, #12]
 9370 0508 84008DE5 		str	r0, [sp, #132]
 9371              	.LVL1050:
  68:../src/tensorflow_lite/tensorflow/lite/micro/kernels/strided_slice.cc ****     op_params.start_indices[i] = GetTensorData<int32_t>(op_context->begin)[i];
 9372              		.loc 1 68 0
 9373 050c FBFEFF0A 		beq	.L1314
  69:../src/tensorflow_lite/tensorflow/lite/micro/kernels/strided_slice.cc ****     op_params.stop_indices[i] = GetTensorData<int32_t>(op_context->end)[i];
 9374              		.loc 1 69 0
 9375 0510 102092E5 		ldr	r2, [r2, #16]
 9376 0514 58208DE5 		str	r2, [sp, #88]
  70:../src/tensorflow_lite/tensorflow/lite/micro/kernels/strided_slice.cc ****     op_params.strides[i] = GetTensorData<int32_t>(op_context->strides)[i];
 9377              		.loc 1 70 0
 9378 0518 102091E5 		ldr	r2, [r1, #16]
 9379 051c 70208DE5 		str	r2, [sp, #112]
  71:../src/tensorflow_lite/tensorflow/lite/micro/kernels/strided_slice.cc ****   }
 9380              		.loc 1 71 0
 9381 0520 103093E5 		ldr	r3, [r3, #16]
 9382 0524 88308DE5 		str	r3, [sp, #136]
 9383              	.LVL1051:
 9384 0528 F4FEFFEA 		b	.L1314
 9385              	.LVL1052:
 9386              	.L1496:
 9387 052c 000053E3 		cmp	r3, #0
 9388 0530 042092E5 		ldr	r2, [r2, #4]
 9389 0534 9E00000A 		beq	.L1511
  69:../src/tensorflow_lite/tensorflow/lite/micro/kernels/strided_slice.cc ****     op_params.stop_indices[i] = GetTensorData<int32_t>(op_context->end)[i];
 9390              		.loc 1 69 0
 9391 0538 001092E5 		ldr	r1, [r2]
 9392              	.LVL1053:
  68:../src/tensorflow_lite/tensorflow/lite/micro/kernels/strided_slice.cc ****     op_params.start_indices[i] = GetTensorData<int32_t>(op_context->begin)[i];
 9393              		.loc 1 68 0
 9394 053c 010059E3 		cmp	r9, #1
 9395 0540 043093E5 		ldr	r3, [r3, #4]
  69:../src/tensorflow_lite/tensorflow/lite/micro/kernels/strided_slice.cc ****     op_params.stop_indices[i] = GetTensorData<int32_t>(op_context->end)[i];
 9396              		.loc 1 69 0
 9397 0544 48108DE5 		str	r1, [sp, #72]
  70:../src/tensorflow_lite/tensorflow/lite/micro/kernels/strided_slice.cc ****     op_params.strides[i] = GetTensorData<int32_t>(op_context->strides)[i];
 9398              		.loc 1 70 0
 9399 0548 001093E5 		ldr	r1, [r3]
 9400 054c 60108DE5 		str	r1, [sp, #96]
  71:../src/tensorflow_lite/tensorflow/lite/micro/kernels/strided_slice.cc ****   }
 9401              		.loc 1 71 0
 9402 0550 001090E5 		ldr	r1, [r0]
 9403 0554 78108DE5 		str	r1, [sp, #120]
 9404              	.LVL1054:
  68:../src/tensorflow_lite/tensorflow/lite/micro/kernels/strided_slice.cc ****     op_params.start_indices[i] = GetTensorData<int32_t>(op_context->begin)[i];
 9405              		.loc 1 68 0
 9406 0558 E8FEFF0A 		beq	.L1314
  69:../src/tensorflow_lite/tensorflow/lite/micro/kernels/strided_slice.cc ****     op_params.stop_indices[i] = GetTensorData<int32_t>(op_context->end)[i];
 9407              		.loc 1 69 0
 9408 055c 041092E5 		ldr	r1, [r2, #4]
  68:../src/tensorflow_lite/tensorflow/lite/micro/kernels/strided_slice.cc ****     op_params.start_indices[i] = GetTensorData<int32_t>(op_context->begin)[i];
 9409              		.loc 1 68 0
 9410 0560 020059E3 		cmp	r9, #2
  69:../src/tensorflow_lite/tensorflow/lite/micro/kernels/strided_slice.cc ****     op_params.stop_indices[i] = GetTensorData<int32_t>(op_context->end)[i];
 9411              		.loc 1 69 0
 9412 0564 4C108DE5 		str	r1, [sp, #76]
  70:../src/tensorflow_lite/tensorflow/lite/micro/kernels/strided_slice.cc ****     op_params.strides[i] = GetTensorData<int32_t>(op_context->strides)[i];
 9413              		.loc 1 70 0
 9414 0568 041093E5 		ldr	r1, [r3, #4]
 9415 056c 64108DE5 		str	r1, [sp, #100]
  71:../src/tensorflow_lite/tensorflow/lite/micro/kernels/strided_slice.cc ****   }
 9416              		.loc 1 71 0
 9417 0570 041090E5 		ldr	r1, [r0, #4]
 9418 0574 7C108DE5 		str	r1, [sp, #124]
 9419              	.LVL1055:
  68:../src/tensorflow_lite/tensorflow/lite/micro/kernels/strided_slice.cc ****     op_params.start_indices[i] = GetTensorData<int32_t>(op_context->begin)[i];
 9420              		.loc 1 68 0
 9421 0578 E0FEFF0A 		beq	.L1314
  69:../src/tensorflow_lite/tensorflow/lite/micro/kernels/strided_slice.cc ****     op_params.stop_indices[i] = GetTensorData<int32_t>(op_context->end)[i];
 9422              		.loc 1 69 0
 9423 057c 081092E5 		ldr	r1, [r2, #8]
  68:../src/tensorflow_lite/tensorflow/lite/micro/kernels/strided_slice.cc ****     op_params.start_indices[i] = GetTensorData<int32_t>(op_context->begin)[i];
 9424              		.loc 1 68 0
 9425 0580 030059E3 		cmp	r9, #3
  69:../src/tensorflow_lite/tensorflow/lite/micro/kernels/strided_slice.cc ****     op_params.stop_indices[i] = GetTensorData<int32_t>(op_context->end)[i];
 9426              		.loc 1 69 0
 9427 0584 50108DE5 		str	r1, [sp, #80]
  70:../src/tensorflow_lite/tensorflow/lite/micro/kernels/strided_slice.cc ****     op_params.strides[i] = GetTensorData<int32_t>(op_context->strides)[i];
 9428              		.loc 1 70 0
 9429 0588 081093E5 		ldr	r1, [r3, #8]
 9430 058c 68108DE5 		str	r1, [sp, #104]
  71:../src/tensorflow_lite/tensorflow/lite/micro/kernels/strided_slice.cc ****   }
 9431              		.loc 1 71 0
 9432 0590 081090E5 		ldr	r1, [r0, #8]
 9433 0594 80108DE5 		str	r1, [sp, #128]
 9434              	.LVL1056:
  68:../src/tensorflow_lite/tensorflow/lite/micro/kernels/strided_slice.cc ****     op_params.start_indices[i] = GetTensorData<int32_t>(op_context->begin)[i];
 9435              		.loc 1 68 0
 9436 0598 D8FEFF0A 		beq	.L1314
  69:../src/tensorflow_lite/tensorflow/lite/micro/kernels/strided_slice.cc ****     op_params.stop_indices[i] = GetTensorData<int32_t>(op_context->end)[i];
 9437              		.loc 1 69 0
 9438 059c 0C1092E5 		ldr	r1, [r2, #12]
  68:../src/tensorflow_lite/tensorflow/lite/micro/kernels/strided_slice.cc ****     op_params.start_indices[i] = GetTensorData<int32_t>(op_context->begin)[i];
 9439              		.loc 1 68 0
 9440 05a0 040059E3 		cmp	r9, #4
  69:../src/tensorflow_lite/tensorflow/lite/micro/kernels/strided_slice.cc ****     op_params.stop_indices[i] = GetTensorData<int32_t>(op_context->end)[i];
 9441              		.loc 1 69 0
 9442 05a4 54108DE5 		str	r1, [sp, #84]
  70:../src/tensorflow_lite/tensorflow/lite/micro/kernels/strided_slice.cc ****     op_params.strides[i] = GetTensorData<int32_t>(op_context->strides)[i];
 9443              		.loc 1 70 0
 9444 05a8 0C1093E5 		ldr	r1, [r3, #12]
 9445 05ac 6C108DE5 		str	r1, [sp, #108]
  71:../src/tensorflow_lite/tensorflow/lite/micro/kernels/strided_slice.cc ****   }
 9446              		.loc 1 71 0
 9447 05b0 0C1090E5 		ldr	r1, [r0, #12]
 9448 05b4 84108DE5 		str	r1, [sp, #132]
 9449              	.LVL1057:
  68:../src/tensorflow_lite/tensorflow/lite/micro/kernels/strided_slice.cc ****     op_params.start_indices[i] = GetTensorData<int32_t>(op_context->begin)[i];
 9450              		.loc 1 68 0
 9451 05b8 D0FEFF0A 		beq	.L1314
  69:../src/tensorflow_lite/tensorflow/lite/micro/kernels/strided_slice.cc ****     op_params.stop_indices[i] = GetTensorData<int32_t>(op_context->end)[i];
 9452              		.loc 1 69 0
 9453 05bc 102092E5 		ldr	r2, [r2, #16]
 9454              	.L1485:
 9455 05c0 58208DE5 		str	r2, [sp, #88]
  70:../src/tensorflow_lite/tensorflow/lite/micro/kernels/strided_slice.cc ****     op_params.strides[i] = GetTensorData<int32_t>(op_context->strides)[i];
 9456              		.loc 1 70 0
 9457 05c4 103093E5 		ldr	r3, [r3, #16]
 9458 05c8 70308DE5 		str	r3, [sp, #112]
  71:../src/tensorflow_lite/tensorflow/lite/micro/kernels/strided_slice.cc ****   }
 9459              		.loc 1 71 0
 9460 05cc 103090E5 		ldr	r3, [r0, #16]
 9461 05d0 88308DE5 		str	r3, [sp, #136]
 9462              	.LVL1058:
 9463 05d4 C9FEFFEA 		b	.L1314
 9464              	.LVL1059:
 9465              	.L1497:
 9466 05d8 042090E5 		ldr	r2, [r0, #4]
  68:../src/tensorflow_lite/tensorflow/lite/micro/kernels/strided_slice.cc ****     op_params.start_indices[i] = GetTensorData<int32_t>(op_context->begin)[i];
 9467              		.loc 1 68 0
 9468 05dc 010059E3 		cmp	r9, #1
  69:../src/tensorflow_lite/tensorflow/lite/micro/kernels/strided_slice.cc ****     op_params.stop_indices[i] = GetTensorData<int32_t>(op_context->end)[i];
 9469              		.loc 1 69 0
 9470 05e0 000091E5 		ldr	r0, [r1]
 9471 05e4 48008DE5 		str	r0, [sp, #72]
  70:../src/tensorflow_lite/tensorflow/lite/micro/kernels/strided_slice.cc ****     op_params.strides[i] = GetTensorData<int32_t>(op_context->strides)[i];
 9472              		.loc 1 70 0
 9473 05e8 000093E5 		ldr	r0, [r3]
 9474 05ec 60008DE5 		str	r0, [sp, #96]
  71:../src/tensorflow_lite/tensorflow/lite/micro/kernels/strided_slice.cc ****   }
 9475              		.loc 1 71 0
 9476 05f0 000092E5 		ldr	r0, [r2]
 9477 05f4 78008DE5 		str	r0, [sp, #120]
 9478              	.LVL1060:
  68:../src/tensorflow_lite/tensorflow/lite/micro/kernels/strided_slice.cc ****     op_params.start_indices[i] = GetTensorData<int32_t>(op_context->begin)[i];
 9479              		.loc 1 68 0
 9480 05f8 C0FEFF0A 		beq	.L1314
  69:../src/tensorflow_lite/tensorflow/lite/micro/kernels/strided_slice.cc ****     op_params.stop_indices[i] = GetTensorData<int32_t>(op_context->end)[i];
 9481              		.loc 1 69 0
 9482 05fc 040091E5 		ldr	r0, [r1, #4]
  68:../src/tensorflow_lite/tensorflow/lite/micro/kernels/strided_slice.cc ****     op_params.start_indices[i] = GetTensorData<int32_t>(op_context->begin)[i];
 9483              		.loc 1 68 0
 9484 0600 020059E3 		cmp	r9, #2
  69:../src/tensorflow_lite/tensorflow/lite/micro/kernels/strided_slice.cc ****     op_params.stop_indices[i] = GetTensorData<int32_t>(op_context->end)[i];
 9485              		.loc 1 69 0
 9486 0604 4C008DE5 		str	r0, [sp, #76]
  70:../src/tensorflow_lite/tensorflow/lite/micro/kernels/strided_slice.cc ****     op_params.strides[i] = GetTensorData<int32_t>(op_context->strides)[i];
 9487              		.loc 1 70 0
 9488 0608 040093E5 		ldr	r0, [r3, #4]
 9489 060c 64008DE5 		str	r0, [sp, #100]
  71:../src/tensorflow_lite/tensorflow/lite/micro/kernels/strided_slice.cc ****   }
 9490              		.loc 1 71 0
 9491 0610 040092E5 		ldr	r0, [r2, #4]
 9492 0614 7C008DE5 		str	r0, [sp, #124]
 9493              	.LVL1061:
  68:../src/tensorflow_lite/tensorflow/lite/micro/kernels/strided_slice.cc ****     op_params.start_indices[i] = GetTensorData<int32_t>(op_context->begin)[i];
 9494              		.loc 1 68 0
 9495 0618 B8FEFF0A 		beq	.L1314
  69:../src/tensorflow_lite/tensorflow/lite/micro/kernels/strided_slice.cc ****     op_params.stop_indices[i] = GetTensorData<int32_t>(op_context->end)[i];
 9496              		.loc 1 69 0
 9497 061c 080091E5 		ldr	r0, [r1, #8]
  68:../src/tensorflow_lite/tensorflow/lite/micro/kernels/strided_slice.cc ****     op_params.start_indices[i] = GetTensorData<int32_t>(op_context->begin)[i];
 9498              		.loc 1 68 0
 9499 0620 030059E3 		cmp	r9, #3
  69:../src/tensorflow_lite/tensorflow/lite/micro/kernels/strided_slice.cc ****     op_params.stop_indices[i] = GetTensorData<int32_t>(op_context->end)[i];
 9500              		.loc 1 69 0
 9501 0624 50008DE5 		str	r0, [sp, #80]
  70:../src/tensorflow_lite/tensorflow/lite/micro/kernels/strided_slice.cc ****     op_params.strides[i] = GetTensorData<int32_t>(op_context->strides)[i];
 9502              		.loc 1 70 0
 9503 0628 080093E5 		ldr	r0, [r3, #8]
 9504 062c 68008DE5 		str	r0, [sp, #104]
  71:../src/tensorflow_lite/tensorflow/lite/micro/kernels/strided_slice.cc ****   }
 9505              		.loc 1 71 0
 9506 0630 080092E5 		ldr	r0, [r2, #8]
 9507 0634 80008DE5 		str	r0, [sp, #128]
 9508              	.LVL1062:
  68:../src/tensorflow_lite/tensorflow/lite/micro/kernels/strided_slice.cc ****     op_params.start_indices[i] = GetTensorData<int32_t>(op_context->begin)[i];
 9509              		.loc 1 68 0
 9510 0638 B0FEFF0A 		beq	.L1314
  69:../src/tensorflow_lite/tensorflow/lite/micro/kernels/strided_slice.cc ****     op_params.stop_indices[i] = GetTensorData<int32_t>(op_context->end)[i];
 9511              		.loc 1 69 0
 9512 063c 0C0091E5 		ldr	r0, [r1, #12]
  68:../src/tensorflow_lite/tensorflow/lite/micro/kernels/strided_slice.cc ****     op_params.start_indices[i] = GetTensorData<int32_t>(op_context->begin)[i];
 9513              		.loc 1 68 0
 9514 0640 040059E3 		cmp	r9, #4
  69:../src/tensorflow_lite/tensorflow/lite/micro/kernels/strided_slice.cc ****     op_params.stop_indices[i] = GetTensorData<int32_t>(op_context->end)[i];
 9515              		.loc 1 69 0
 9516 0644 54008DE5 		str	r0, [sp, #84]
  70:../src/tensorflow_lite/tensorflow/lite/micro/kernels/strided_slice.cc ****     op_params.strides[i] = GetTensorData<int32_t>(op_context->strides)[i];
 9517              		.loc 1 70 0
 9518 0648 0C0093E5 		ldr	r0, [r3, #12]
 9519 064c 6C008DE5 		str	r0, [sp, #108]
  71:../src/tensorflow_lite/tensorflow/lite/micro/kernels/strided_slice.cc ****   }
 9520              		.loc 1 71 0
 9521 0650 0C0092E5 		ldr	r0, [r2, #12]
 9522 0654 84008DE5 		str	r0, [sp, #132]
 9523              	.LVL1063:
  68:../src/tensorflow_lite/tensorflow/lite/micro/kernels/strided_slice.cc ****     op_params.start_indices[i] = GetTensorData<int32_t>(op_context->begin)[i];
 9524              		.loc 1 68 0
 9525 0658 A8FEFF0A 		beq	.L1314
  69:../src/tensorflow_lite/tensorflow/lite/micro/kernels/strided_slice.cc ****     op_params.stop_indices[i] = GetTensorData<int32_t>(op_context->end)[i];
 9526              		.loc 1 69 0
 9527 065c 101091E5 		ldr	r1, [r1, #16]
 9528              	.L1483:
 9529 0660 58108DE5 		str	r1, [sp, #88]
  70:../src/tensorflow_lite/tensorflow/lite/micro/kernels/strided_slice.cc ****     op_params.strides[i] = GetTensorData<int32_t>(op_context->strides)[i];
 9530              		.loc 1 70 0
 9531 0664 103093E5 		ldr	r3, [r3, #16]
 9532 0668 70308DE5 		str	r3, [sp, #112]
  71:../src/tensorflow_lite/tensorflow/lite/micro/kernels/strided_slice.cc ****   }
 9533              		.loc 1 71 0
 9534 066c 103092E5 		ldr	r3, [r2, #16]
 9535 0670 88308DE5 		str	r3, [sp, #136]
 9536              	.LVL1064:
 9537 0674 A1FEFFEA 		b	.L1314
 9538              	.LVL1065:
 9539              	.L1370:
 9540              	.LBE2074:
 9541              	.LBE2083:
 9542              	.LBE2178:
 9543              	.LBB2179:
 9544              	.LBB2180:
 203:C:/Renesas/e2studio_2021_01_workspace_RZA2M_ANPR/ANPR_RZA2M_EBK/src/tensorflow_lite/tensorflow/lite/kernels/internal\types.h **** #ifdef TF_LITE_STATIC_MEMORY
 9545              		.loc 4 203 0
 9546 0678 050055E3 		cmp	r5, #5
 9547 067c 030000DA 		ble	.L1352
 207:C:/Renesas/e2studio_2021_01_workspace_RZA2M_ANPR/ANPR_RZA2M_EBK/src/tensorflow_lite/tensorflow/lite/kernels/internal\types.h **** #endif  // TF_LITE_STATIC_MEMORY
 9548              		.loc 4 207 0
 9549 0680 30009DE5 		ldr	r0, [sp, #48]
 9550 0684 000050E3 		cmp	r0, #0
 9551 0688 0000000A 		beq	.L1352
 9552 068c FEFFFFEB 		bl	_ZdaPv
 9553              	.LVL1066:
 9554              	.L1352:
 9555              	.LEHB27:
 9556 0690 FEFFFFEB 		bl	__cxa_end_cleanup
 9557              	.LVL1067:
 9558              	.LEHE27:
 9559              	.L1509:
 9560 0694 000053E3 		cmp	r3, #0
 9561 0698 6E00000A 		beq	.L1512
 9562              	.LBE2180:
 9563              	.LBE2179:
 9564              	.LBB2181:
 9565              	.LBB2084:
 9566              	.LBB2075:
  69:../src/tensorflow_lite/tensorflow/lite/micro/kernels/strided_slice.cc ****     op_params.stop_indices[i] = GetTensorData<int32_t>(op_context->end)[i];
 9567              		.loc 1 69 0
 9568 069c 002090E5 		ldr	r2, [r0]
  68:../src/tensorflow_lite/tensorflow/lite/micro/kernels/strided_slice.cc ****     op_params.start_indices[i] = GetTensorData<int32_t>(op_context->begin)[i];
 9569              		.loc 1 68 0
 9570 06a0 010059E3 		cmp	r9, #1
 9571 06a4 043093E5 		ldr	r3, [r3, #4]
  69:../src/tensorflow_lite/tensorflow/lite/micro/kernels/strided_slice.cc ****     op_params.stop_indices[i] = GetTensorData<int32_t>(op_context->end)[i];
 9572              		.loc 1 69 0
 9573 06a8 48208DE5 		str	r2, [sp, #72]
  70:../src/tensorflow_lite/tensorflow/lite/micro/kernels/strided_slice.cc ****     op_params.strides[i] = GetTensorData<int32_t>(op_context->strides)[i];
 9574              		.loc 1 70 0
 9575 06ac 002093E5 		ldr	r2, [r3]
 9576 06b0 60208DE5 		str	r2, [sp, #96]
  71:../src/tensorflow_lite/tensorflow/lite/micro/kernels/strided_slice.cc ****   }
 9577              		.loc 1 71 0
 9578 06b4 002090E5 		ldr	r2, [r0]
 9579 06b8 78208DE5 		str	r2, [sp, #120]
 9580              	.LVL1068:
  68:../src/tensorflow_lite/tensorflow/lite/micro/kernels/strided_slice.cc ****     op_params.start_indices[i] = GetTensorData<int32_t>(op_context->begin)[i];
 9581              		.loc 1 68 0
 9582 06bc 8FFEFF0A 		beq	.L1314
  69:../src/tensorflow_lite/tensorflow/lite/micro/kernels/strided_slice.cc ****     op_params.stop_indices[i] = GetTensorData<int32_t>(op_context->end)[i];
 9583              		.loc 1 69 0
 9584 06c0 042090E5 		ldr	r2, [r0, #4]
  68:../src/tensorflow_lite/tensorflow/lite/micro/kernels/strided_slice.cc ****     op_params.start_indices[i] = GetTensorData<int32_t>(op_context->begin)[i];
 9585              		.loc 1 68 0
 9586 06c4 020059E3 		cmp	r9, #2
  69:../src/tensorflow_lite/tensorflow/lite/micro/kernels/strided_slice.cc ****     op_params.stop_indices[i] = GetTensorData<int32_t>(op_context->end)[i];
 9587              		.loc 1 69 0
 9588 06c8 4C208DE5 		str	r2, [sp, #76]
  70:../src/tensorflow_lite/tensorflow/lite/micro/kernels/strided_slice.cc ****     op_params.strides[i] = GetTensorData<int32_t>(op_context->strides)[i];
 9589              		.loc 1 70 0
 9590 06cc 042093E5 		ldr	r2, [r3, #4]
 9591 06d0 64208DE5 		str	r2, [sp, #100]
  71:../src/tensorflow_lite/tensorflow/lite/micro/kernels/strided_slice.cc ****   }
 9592              		.loc 1 71 0
 9593 06d4 042090E5 		ldr	r2, [r0, #4]
 9594 06d8 7C208DE5 		str	r2, [sp, #124]
 9595              	.LVL1069:
  68:../src/tensorflow_lite/tensorflow/lite/micro/kernels/strided_slice.cc ****     op_params.start_indices[i] = GetTensorData<int32_t>(op_context->begin)[i];
 9596              		.loc 1 68 0
 9597 06dc 87FEFF0A 		beq	.L1314
  69:../src/tensorflow_lite/tensorflow/lite/micro/kernels/strided_slice.cc ****     op_params.stop_indices[i] = GetTensorData<int32_t>(op_context->end)[i];
 9598              		.loc 1 69 0
 9599 06e0 082090E5 		ldr	r2, [r0, #8]
  68:../src/tensorflow_lite/tensorflow/lite/micro/kernels/strided_slice.cc ****     op_params.start_indices[i] = GetTensorData<int32_t>(op_context->begin)[i];
 9600              		.loc 1 68 0
 9601 06e4 030059E3 		cmp	r9, #3
  69:../src/tensorflow_lite/tensorflow/lite/micro/kernels/strided_slice.cc ****     op_params.stop_indices[i] = GetTensorData<int32_t>(op_context->end)[i];
 9602              		.loc 1 69 0
 9603 06e8 50208DE5 		str	r2, [sp, #80]
  70:../src/tensorflow_lite/tensorflow/lite/micro/kernels/strided_slice.cc ****     op_params.strides[i] = GetTensorData<int32_t>(op_context->strides)[i];
 9604              		.loc 1 70 0
 9605 06ec 082093E5 		ldr	r2, [r3, #8]
 9606 06f0 68208DE5 		str	r2, [sp, #104]
  71:../src/tensorflow_lite/tensorflow/lite/micro/kernels/strided_slice.cc ****   }
 9607              		.loc 1 71 0
 9608 06f4 082090E5 		ldr	r2, [r0, #8]
 9609 06f8 80208DE5 		str	r2, [sp, #128]
 9610              	.LVL1070:
  68:../src/tensorflow_lite/tensorflow/lite/micro/kernels/strided_slice.cc ****     op_params.start_indices[i] = GetTensorData<int32_t>(op_context->begin)[i];
 9611              		.loc 1 68 0
 9612 06fc 7FFEFF0A 		beq	.L1314
  69:../src/tensorflow_lite/tensorflow/lite/micro/kernels/strided_slice.cc ****     op_params.stop_indices[i] = GetTensorData<int32_t>(op_context->end)[i];
 9613              		.loc 1 69 0
 9614 0700 0C2090E5 		ldr	r2, [r0, #12]
  68:../src/tensorflow_lite/tensorflow/lite/micro/kernels/strided_slice.cc ****     op_params.start_indices[i] = GetTensorData<int32_t>(op_context->begin)[i];
 9615              		.loc 1 68 0
 9616 0704 040059E3 		cmp	r9, #4
  69:../src/tensorflow_lite/tensorflow/lite/micro/kernels/strided_slice.cc ****     op_params.stop_indices[i] = GetTensorData<int32_t>(op_context->end)[i];
 9617              		.loc 1 69 0
 9618 0708 54208DE5 		str	r2, [sp, #84]
  70:../src/tensorflow_lite/tensorflow/lite/micro/kernels/strided_slice.cc ****     op_params.strides[i] = GetTensorData<int32_t>(op_context->strides)[i];
 9619              		.loc 1 70 0
 9620 070c 0C2093E5 		ldr	r2, [r3, #12]
 9621 0710 6C208DE5 		str	r2, [sp, #108]
  71:../src/tensorflow_lite/tensorflow/lite/micro/kernels/strided_slice.cc ****   }
 9622              		.loc 1 71 0
 9623 0714 0C2090E5 		ldr	r2, [r0, #12]
 9624 0718 84208DE5 		str	r2, [sp, #132]
 9625              	.LVL1071:
  68:../src/tensorflow_lite/tensorflow/lite/micro/kernels/strided_slice.cc ****     op_params.start_indices[i] = GetTensorData<int32_t>(op_context->begin)[i];
 9626              		.loc 1 68 0
 9627 071c 77FEFF0A 		beq	.L1314
  69:../src/tensorflow_lite/tensorflow/lite/micro/kernels/strided_slice.cc ****     op_params.stop_indices[i] = GetTensorData<int32_t>(op_context->end)[i];
 9628              		.loc 1 69 0
 9629 0720 102090E5 		ldr	r2, [r0, #16]
 9630 0724 A5FFFFEA 		b	.L1485
 9631              	.LVL1072:
 9632              	.L1510:
 9633 0728 001093E5 		ldr	r1, [r3]
 9634              	.LVL1073:
  68:../src/tensorflow_lite/tensorflow/lite/micro/kernels/strided_slice.cc ****     op_params.start_indices[i] = GetTensorData<int32_t>(op_context->begin)[i];
 9635              		.loc 1 68 0
 9636 072c 010059E3 		cmp	r9, #1
 9637 0730 042090E5 		ldr	r2, [r0, #4]
  69:../src/tensorflow_lite/tensorflow/lite/micro/kernels/strided_slice.cc ****     op_params.stop_indices[i] = GetTensorData<int32_t>(op_context->end)[i];
 9638              		.loc 1 69 0
 9639 0734 48108DE5 		str	r1, [sp, #72]
  70:../src/tensorflow_lite/tensorflow/lite/micro/kernels/strided_slice.cc ****     op_params.strides[i] = GetTensorData<int32_t>(op_context->strides)[i];
 9640              		.loc 1 70 0
 9641 0738 001093E5 		ldr	r1, [r3]
 9642 073c 60108DE5 		str	r1, [sp, #96]
  71:../src/tensorflow_lite/tensorflow/lite/micro/kernels/strided_slice.cc ****   }
 9643              		.loc 1 71 0
 9644 0740 001092E5 		ldr	r1, [r2]
 9645 0744 78108DE5 		str	r1, [sp, #120]
 9646              	.LVL1074:
  68:../src/tensorflow_lite/tensorflow/lite/micro/kernels/strided_slice.cc ****     op_params.start_indices[i] = GetTensorData<int32_t>(op_context->begin)[i];
 9647              		.loc 1 68 0
 9648 0748 6CFEFF0A 		beq	.L1314
  69:../src/tensorflow_lite/tensorflow/lite/micro/kernels/strided_slice.cc ****     op_params.stop_indices[i] = GetTensorData<int32_t>(op_context->end)[i];
 9649              		.loc 1 69 0
 9650 074c 041093E5 		ldr	r1, [r3, #4]
  68:../src/tensorflow_lite/tensorflow/lite/micro/kernels/strided_slice.cc ****     op_params.start_indices[i] = GetTensorData<int32_t>(op_context->begin)[i];
 9651              		.loc 1 68 0
 9652 0750 020059E3 		cmp	r9, #2
  69:../src/tensorflow_lite/tensorflow/lite/micro/kernels/strided_slice.cc ****     op_params.stop_indices[i] = GetTensorData<int32_t>(op_context->end)[i];
 9653              		.loc 1 69 0
 9654 0754 4C108DE5 		str	r1, [sp, #76]
  70:../src/tensorflow_lite/tensorflow/lite/micro/kernels/strided_slice.cc ****     op_params.strides[i] = GetTensorData<int32_t>(op_context->strides)[i];
 9655              		.loc 1 70 0
 9656 0758 041093E5 		ldr	r1, [r3, #4]
 9657 075c 64108DE5 		str	r1, [sp, #100]
  71:../src/tensorflow_lite/tensorflow/lite/micro/kernels/strided_slice.cc ****   }
 9658              		.loc 1 71 0
 9659 0760 041092E5 		ldr	r1, [r2, #4]
 9660 0764 7C108DE5 		str	r1, [sp, #124]
 9661              	.LVL1075:
  68:../src/tensorflow_lite/tensorflow/lite/micro/kernels/strided_slice.cc ****     op_params.start_indices[i] = GetTensorData<int32_t>(op_context->begin)[i];
 9662              		.loc 1 68 0
 9663 0768 64FEFF0A 		beq	.L1314
  69:../src/tensorflow_lite/tensorflow/lite/micro/kernels/strided_slice.cc ****     op_params.stop_indices[i] = GetTensorData<int32_t>(op_context->end)[i];
 9664              		.loc 1 69 0
 9665 076c 081093E5 		ldr	r1, [r3, #8]
  68:../src/tensorflow_lite/tensorflow/lite/micro/kernels/strided_slice.cc ****     op_params.start_indices[i] = GetTensorData<int32_t>(op_context->begin)[i];
 9666              		.loc 1 68 0
 9667 0770 030059E3 		cmp	r9, #3
  69:../src/tensorflow_lite/tensorflow/lite/micro/kernels/strided_slice.cc ****     op_params.stop_indices[i] = GetTensorData<int32_t>(op_context->end)[i];
 9668              		.loc 1 69 0
 9669 0774 50108DE5 		str	r1, [sp, #80]
  70:../src/tensorflow_lite/tensorflow/lite/micro/kernels/strided_slice.cc ****     op_params.strides[i] = GetTensorData<int32_t>(op_context->strides)[i];
 9670              		.loc 1 70 0
 9671 0778 081093E5 		ldr	r1, [r3, #8]
 9672 077c 68108DE5 		str	r1, [sp, #104]
  71:../src/tensorflow_lite/tensorflow/lite/micro/kernels/strided_slice.cc ****   }
 9673              		.loc 1 71 0
 9674 0780 081092E5 		ldr	r1, [r2, #8]
 9675 0784 80108DE5 		str	r1, [sp, #128]
 9676              	.LVL1076:
  68:../src/tensorflow_lite/tensorflow/lite/micro/kernels/strided_slice.cc ****     op_params.start_indices[i] = GetTensorData<int32_t>(op_context->begin)[i];
 9677              		.loc 1 68 0
 9678 0788 5CFEFF0A 		beq	.L1314
  69:../src/tensorflow_lite/tensorflow/lite/micro/kernels/strided_slice.cc ****     op_params.stop_indices[i] = GetTensorData<int32_t>(op_context->end)[i];
 9679              		.loc 1 69 0
 9680 078c 0C1093E5 		ldr	r1, [r3, #12]
  68:../src/tensorflow_lite/tensorflow/lite/micro/kernels/strided_slice.cc ****     op_params.start_indices[i] = GetTensorData<int32_t>(op_context->begin)[i];
 9681              		.loc 1 68 0
 9682 0790 040059E3 		cmp	r9, #4
  69:../src/tensorflow_lite/tensorflow/lite/micro/kernels/strided_slice.cc ****     op_params.stop_indices[i] = GetTensorData<int32_t>(op_context->end)[i];
 9683              		.loc 1 69 0
 9684 0794 54108DE5 		str	r1, [sp, #84]
  70:../src/tensorflow_lite/tensorflow/lite/micro/kernels/strided_slice.cc ****     op_params.strides[i] = GetTensorData<int32_t>(op_context->strides)[i];
 9685              		.loc 1 70 0
 9686 0798 0C1093E5 		ldr	r1, [r3, #12]
 9687 079c 6C108DE5 		str	r1, [sp, #108]
  71:../src/tensorflow_lite/tensorflow/lite/micro/kernels/strided_slice.cc ****   }
 9688              		.loc 1 71 0
 9689 07a0 0C1092E5 		ldr	r1, [r2, #12]
 9690 07a4 84108DE5 		str	r1, [sp, #132]
 9691              	.LVL1077:
  68:../src/tensorflow_lite/tensorflow/lite/micro/kernels/strided_slice.cc ****     op_params.start_indices[i] = GetTensorData<int32_t>(op_context->begin)[i];
 9692              		.loc 1 68 0
 9693 07a8 54FEFF0A 		beq	.L1314
  69:../src/tensorflow_lite/tensorflow/lite/micro/kernels/strided_slice.cc ****     op_params.stop_indices[i] = GetTensorData<int32_t>(op_context->end)[i];
 9694              		.loc 1 69 0
 9695 07ac 101093E5 		ldr	r1, [r3, #16]
 9696 07b0 AAFFFFEA 		b	.L1483
 9697              	.LVL1078:
 9698              	.L1511:
 9699 07b4 001092E5 		ldr	r1, [r2]
 9700              	.LVL1079:
  68:../src/tensorflow_lite/tensorflow/lite/micro/kernels/strided_slice.cc ****     op_params.start_indices[i] = GetTensorData<int32_t>(op_context->begin)[i];
 9701              		.loc 1 68 0
 9702 07b8 010059E3 		cmp	r9, #1
  69:../src/tensorflow_lite/tensorflow/lite/micro/kernels/strided_slice.cc ****     op_params.stop_indices[i] = GetTensorData<int32_t>(op_context->end)[i];
 9703              		.loc 1 69 0
 9704 07bc 48108DE5 		str	r1, [sp, #72]
  70:../src/tensorflow_lite/tensorflow/lite/micro/kernels/strided_slice.cc ****     op_params.strides[i] = GetTensorData<int32_t>(op_context->strides)[i];
 9705              		.loc 1 70 0
 9706 07c0 001093E5 		ldr	r1, [r3]
 9707 07c4 60108DE5 		str	r1, [sp, #96]
  71:../src/tensorflow_lite/tensorflow/lite/micro/kernels/strided_slice.cc ****   }
 9708              		.loc 1 71 0
 9709 07c8 001093E5 		ldr	r1, [r3]
 9710 07cc 78108DE5 		str	r1, [sp, #120]
 9711              	.LVL1080:
  68:../src/tensorflow_lite/tensorflow/lite/micro/kernels/strided_slice.cc ****     op_params.start_indices[i] = GetTensorData<int32_t>(op_context->begin)[i];
 9712              		.loc 1 68 0
 9713 07d0 4AFEFF0A 		beq	.L1314
  69:../src/tensorflow_lite/tensorflow/lite/micro/kernels/strided_slice.cc ****     op_params.stop_indices[i] = GetTensorData<int32_t>(op_context->end)[i];
 9714              		.loc 1 69 0
 9715 07d4 041092E5 		ldr	r1, [r2, #4]
  68:../src/tensorflow_lite/tensorflow/lite/micro/kernels/strided_slice.cc ****     op_params.start_indices[i] = GetTensorData<int32_t>(op_context->begin)[i];
 9716              		.loc 1 68 0
 9717 07d8 020059E3 		cmp	r9, #2
  69:../src/tensorflow_lite/tensorflow/lite/micro/kernels/strided_slice.cc ****     op_params.stop_indices[i] = GetTensorData<int32_t>(op_context->end)[i];
 9718              		.loc 1 69 0
 9719 07dc 4C108DE5 		str	r1, [sp, #76]
  70:../src/tensorflow_lite/tensorflow/lite/micro/kernels/strided_slice.cc ****     op_params.strides[i] = GetTensorData<int32_t>(op_context->strides)[i];
 9720              		.loc 1 70 0
 9721 07e0 041093E5 		ldr	r1, [r3, #4]
 9722 07e4 64108DE5 		str	r1, [sp, #100]
  71:../src/tensorflow_lite/tensorflow/lite/micro/kernels/strided_slice.cc ****   }
 9723              		.loc 1 71 0
 9724 07e8 041093E5 		ldr	r1, [r3, #4]
 9725 07ec 7C108DE5 		str	r1, [sp, #124]
 9726              	.LVL1081:
  68:../src/tensorflow_lite/tensorflow/lite/micro/kernels/strided_slice.cc ****     op_params.start_indices[i] = GetTensorData<int32_t>(op_context->begin)[i];
 9727              		.loc 1 68 0
 9728 07f0 42FEFF0A 		beq	.L1314
  69:../src/tensorflow_lite/tensorflow/lite/micro/kernels/strided_slice.cc ****     op_params.stop_indices[i] = GetTensorData<int32_t>(op_context->end)[i];
 9729              		.loc 1 69 0
 9730 07f4 081092E5 		ldr	r1, [r2, #8]
  68:../src/tensorflow_lite/tensorflow/lite/micro/kernels/strided_slice.cc ****     op_params.start_indices[i] = GetTensorData<int32_t>(op_context->begin)[i];
 9731              		.loc 1 68 0
 9732 07f8 030059E3 		cmp	r9, #3
  69:../src/tensorflow_lite/tensorflow/lite/micro/kernels/strided_slice.cc ****     op_params.stop_indices[i] = GetTensorData<int32_t>(op_context->end)[i];
 9733              		.loc 1 69 0
 9734 07fc 50108DE5 		str	r1, [sp, #80]
  70:../src/tensorflow_lite/tensorflow/lite/micro/kernels/strided_slice.cc ****     op_params.strides[i] = GetTensorData<int32_t>(op_context->strides)[i];
 9735              		.loc 1 70 0
 9736 0800 081093E5 		ldr	r1, [r3, #8]
 9737 0804 68108DE5 		str	r1, [sp, #104]
  71:../src/tensorflow_lite/tensorflow/lite/micro/kernels/strided_slice.cc ****   }
 9738              		.loc 1 71 0
 9739 0808 081093E5 		ldr	r1, [r3, #8]
 9740 080c 80108DE5 		str	r1, [sp, #128]
 9741              	.LVL1082:
  68:../src/tensorflow_lite/tensorflow/lite/micro/kernels/strided_slice.cc ****     op_params.start_indices[i] = GetTensorData<int32_t>(op_context->begin)[i];
 9742              		.loc 1 68 0
 9743 0810 3AFEFF0A 		beq	.L1314
  69:../src/tensorflow_lite/tensorflow/lite/micro/kernels/strided_slice.cc ****     op_params.stop_indices[i] = GetTensorData<int32_t>(op_context->end)[i];
 9744              		.loc 1 69 0
 9745 0814 0C1092E5 		ldr	r1, [r2, #12]
  68:../src/tensorflow_lite/tensorflow/lite/micro/kernels/strided_slice.cc ****     op_params.start_indices[i] = GetTensorData<int32_t>(op_context->begin)[i];
 9746              		.loc 1 68 0
 9747 0818 040059E3 		cmp	r9, #4
  69:../src/tensorflow_lite/tensorflow/lite/micro/kernels/strided_slice.cc ****     op_params.stop_indices[i] = GetTensorData<int32_t>(op_context->end)[i];
 9748              		.loc 1 69 0
 9749 081c 54108DE5 		str	r1, [sp, #84]
  70:../src/tensorflow_lite/tensorflow/lite/micro/kernels/strided_slice.cc ****     op_params.strides[i] = GetTensorData<int32_t>(op_context->strides)[i];
 9750              		.loc 1 70 0
 9751 0820 0C1093E5 		ldr	r1, [r3, #12]
 9752 0824 6C108DE5 		str	r1, [sp, #108]
  71:../src/tensorflow_lite/tensorflow/lite/micro/kernels/strided_slice.cc ****   }
 9753              		.loc 1 71 0
 9754 0828 0C1093E5 		ldr	r1, [r3, #12]
 9755 082c 84108DE5 		str	r1, [sp, #132]
 9756              	.LVL1083:
  68:../src/tensorflow_lite/tensorflow/lite/micro/kernels/strided_slice.cc ****     op_params.start_indices[i] = GetTensorData<int32_t>(op_context->begin)[i];
 9757              		.loc 1 68 0
 9758 0830 32FEFF0A 		beq	.L1314
  69:../src/tensorflow_lite/tensorflow/lite/micro/kernels/strided_slice.cc ****     op_params.stop_indices[i] = GetTensorData<int32_t>(op_context->end)[i];
 9759              		.loc 1 69 0
 9760 0834 102092E5 		ldr	r2, [r2, #16]
 9761              	.L1484:
 9762 0838 58208DE5 		str	r2, [sp, #88]
  70:../src/tensorflow_lite/tensorflow/lite/micro/kernels/strided_slice.cc ****     op_params.strides[i] = GetTensorData<int32_t>(op_context->strides)[i];
 9763              		.loc 1 70 0
 9764 083c 102093E5 		ldr	r2, [r3, #16]
 9765 0840 70208DE5 		str	r2, [sp, #112]
  71:../src/tensorflow_lite/tensorflow/lite/micro/kernels/strided_slice.cc ****   }
 9766              		.loc 1 71 0
 9767 0844 103093E5 		ldr	r3, [r3, #16]
 9768 0848 88308DE5 		str	r3, [sp, #136]
 9769              	.LVL1084:
 9770 084c 2BFEFFEA 		b	.L1314
 9771              	.LVL1085:
 9772              	.L1505:
 9773              	.LEHB28:
 9774              	.LBE2075:
 9775              	.LBE2084:
 9776              	.LBE2181:
 9777              	.LBB2182:
 9778              	.LBB2168:
 9779              	.LBB2162:
 9780              	.LBB2141:
 9781              	.LBB2136:
 9782              	.LBB2127:
 215:C:/Renesas/e2studio_2021_01_workspace_RZA2M_ANPR/ANPR_RZA2M_EBK/src/tensorflow_lite/tensorflow/lite/kernels/internal\types.h ****     return size_ > kMaxSmallSize ? dims_pointer_[i] : dims_[i];
 9783              		.loc 4 215 0
 9784 0850 FEFFFFEB 		bl	abort
 9785              	.LVL1086:
 9786              	.L1500:
 9787              	.LBE2127:
 9788              	.LBE2136:
 9789              	.LBB2137:
 9790              	.LBB2130:
  30:C:/Renesas/e2studio_2021_01_workspace_RZA2M_ANPR/ANPR_RZA2M_EBK/src/tensorflow_lite/tensorflow/lite/kernels/internal\strided_slice_logic.h ****   if (hi < v) return hi;
 9791              		.loc 5 30 0
 9792 0854 FEFFFFEB 		bl	abort
 9793              	.LVL1087:
 9794              	.L1512:
 9795              	.LBE2130:
 9796              	.LBE2137:
 9797              	.LBE2141:
 9798              	.LBE2162:
 9799              	.LBE2168:
 9800              	.LBE2182:
 9801              	.LBB2183:
 9802              	.LBB2085:
 9803              	.LBB2076:
  69:../src/tensorflow_lite/tensorflow/lite/micro/kernels/strided_slice.cc ****     op_params.stop_indices[i] = GetTensorData<int32_t>(op_context->end)[i];
 9804              		.loc 1 69 0
 9805 0858 002093E5 		ldr	r2, [r3]
  68:../src/tensorflow_lite/tensorflow/lite/micro/kernels/strided_slice.cc ****     op_params.start_indices[i] = GetTensorData<int32_t>(op_context->begin)[i];
 9806              		.loc 1 68 0
 9807 085c 010059E3 		cmp	r9, #1
  69:../src/tensorflow_lite/tensorflow/lite/micro/kernels/strided_slice.cc ****     op_params.stop_indices[i] = GetTensorData<int32_t>(op_context->end)[i];
 9808              		.loc 1 69 0
 9809 0860 48208DE5 		str	r2, [sp, #72]
  70:../src/tensorflow_lite/tensorflow/lite/micro/kernels/strided_slice.cc ****     op_params.strides[i] = GetTensorData<int32_t>(op_context->strides)[i];
 9810              		.loc 1 70 0
 9811 0864 002093E5 		ldr	r2, [r3]
 9812 0868 60208DE5 		str	r2, [sp, #96]
  71:../src/tensorflow_lite/tensorflow/lite/micro/kernels/strided_slice.cc ****   }
 9813              		.loc 1 71 0
 9814 086c 002093E5 		ldr	r2, [r3]
 9815 0870 78208DE5 		str	r2, [sp, #120]
 9816              	.LVL1088:
  68:../src/tensorflow_lite/tensorflow/lite/micro/kernels/strided_slice.cc ****     op_params.start_indices[i] = GetTensorData<int32_t>(op_context->begin)[i];
 9817              		.loc 1 68 0
 9818 0874 21FEFF0A 		beq	.L1314
  69:../src/tensorflow_lite/tensorflow/lite/micro/kernels/strided_slice.cc ****     op_params.stop_indices[i] = GetTensorData<int32_t>(op_context->end)[i];
 9819              		.loc 1 69 0
 9820 0878 042093E5 		ldr	r2, [r3, #4]
  68:../src/tensorflow_lite/tensorflow/lite/micro/kernels/strided_slice.cc ****     op_params.start_indices[i] = GetTensorData<int32_t>(op_context->begin)[i];
 9821              		.loc 1 68 0
 9822 087c 020059E3 		cmp	r9, #2
  69:../src/tensorflow_lite/tensorflow/lite/micro/kernels/strided_slice.cc ****     op_params.stop_indices[i] = GetTensorData<int32_t>(op_context->end)[i];
 9823              		.loc 1 69 0
 9824 0880 4C208DE5 		str	r2, [sp, #76]
  70:../src/tensorflow_lite/tensorflow/lite/micro/kernels/strided_slice.cc ****     op_params.strides[i] = GetTensorData<int32_t>(op_context->strides)[i];
 9825              		.loc 1 70 0
 9826 0884 042093E5 		ldr	r2, [r3, #4]
 9827 0888 64208DE5 		str	r2, [sp, #100]
  71:../src/tensorflow_lite/tensorflow/lite/micro/kernels/strided_slice.cc ****   }
 9828              		.loc 1 71 0
 9829 088c 042093E5 		ldr	r2, [r3, #4]
 9830 0890 7C208DE5 		str	r2, [sp, #124]
 9831              	.LVL1089:
  68:../src/tensorflow_lite/tensorflow/lite/micro/kernels/strided_slice.cc ****     op_params.start_indices[i] = GetTensorData<int32_t>(op_context->begin)[i];
 9832              		.loc 1 68 0
 9833 0894 19FEFF0A 		beq	.L1314
  69:../src/tensorflow_lite/tensorflow/lite/micro/kernels/strided_slice.cc ****     op_params.stop_indices[i] = GetTensorData<int32_t>(op_context->end)[i];
 9834              		.loc 1 69 0
 9835 0898 082093E5 		ldr	r2, [r3, #8]
  68:../src/tensorflow_lite/tensorflow/lite/micro/kernels/strided_slice.cc ****     op_params.start_indices[i] = GetTensorData<int32_t>(op_context->begin)[i];
 9836              		.loc 1 68 0
 9837 089c 030059E3 		cmp	r9, #3
  69:../src/tensorflow_lite/tensorflow/lite/micro/kernels/strided_slice.cc ****     op_params.stop_indices[i] = GetTensorData<int32_t>(op_context->end)[i];
 9838              		.loc 1 69 0
 9839 08a0 50208DE5 		str	r2, [sp, #80]
  70:../src/tensorflow_lite/tensorflow/lite/micro/kernels/strided_slice.cc ****     op_params.strides[i] = GetTensorData<int32_t>(op_context->strides)[i];
 9840              		.loc 1 70 0
 9841 08a4 082093E5 		ldr	r2, [r3, #8]
 9842 08a8 68208DE5 		str	r2, [sp, #104]
  71:../src/tensorflow_lite/tensorflow/lite/micro/kernels/strided_slice.cc ****   }
 9843              		.loc 1 71 0
 9844 08ac 082093E5 		ldr	r2, [r3, #8]
 9845 08b0 80208DE5 		str	r2, [sp, #128]
 9846              	.LVL1090:
  68:../src/tensorflow_lite/tensorflow/lite/micro/kernels/strided_slice.cc ****     op_params.start_indices[i] = GetTensorData<int32_t>(op_context->begin)[i];
 9847              		.loc 1 68 0
 9848 08b4 11FEFF0A 		beq	.L1314
  69:../src/tensorflow_lite/tensorflow/lite/micro/kernels/strided_slice.cc ****     op_params.stop_indices[i] = GetTensorData<int32_t>(op_context->end)[i];
 9849              		.loc 1 69 0
 9850 08b8 0C2093E5 		ldr	r2, [r3, #12]
  68:../src/tensorflow_lite/tensorflow/lite/micro/kernels/strided_slice.cc ****     op_params.start_indices[i] = GetTensorData<int32_t>(op_context->begin)[i];
 9851              		.loc 1 68 0
 9852 08bc 040059E3 		cmp	r9, #4
  69:../src/tensorflow_lite/tensorflow/lite/micro/kernels/strided_slice.cc ****     op_params.stop_indices[i] = GetTensorData<int32_t>(op_context->end)[i];
 9853              		.loc 1 69 0
 9854 08c0 54208DE5 		str	r2, [sp, #84]
  70:../src/tensorflow_lite/tensorflow/lite/micro/kernels/strided_slice.cc ****     op_params.strides[i] = GetTensorData<int32_t>(op_context->strides)[i];
 9855              		.loc 1 70 0
 9856 08c4 0C2093E5 		ldr	r2, [r3, #12]
 9857 08c8 6C208DE5 		str	r2, [sp, #108]
  71:../src/tensorflow_lite/tensorflow/lite/micro/kernels/strided_slice.cc ****   }
 9858              		.loc 1 71 0
 9859 08cc 0C2093E5 		ldr	r2, [r3, #12]
 9860 08d0 84208DE5 		str	r2, [sp, #132]
 9861              	.LVL1091:
  68:../src/tensorflow_lite/tensorflow/lite/micro/kernels/strided_slice.cc ****     op_params.start_indices[i] = GetTensorData<int32_t>(op_context->begin)[i];
 9862              		.loc 1 68 0
 9863 08d4 09FEFF0A 		beq	.L1314
  69:../src/tensorflow_lite/tensorflow/lite/micro/kernels/strided_slice.cc ****     op_params.stop_indices[i] = GetTensorData<int32_t>(op_context->end)[i];
 9864              		.loc 1 69 0
 9865 08d8 102093E5 		ldr	r2, [r3, #16]
 9866 08dc D5FFFFEA 		b	.L1484
 9867              	.LVL1092:
 9868              	.L1502:
 9869              	.LBE2076:
 9870              	.LBE2085:
 9871              	.LBE2183:
 9872              	.LBB2184:
 9873              	.LBB2169:
 9874              	.LBB2163:
 9875              	.LBB2153:
 9876              	.LBB2150:
 9877              	.LBB2146:
  30:C:/Renesas/e2studio_2021_01_workspace_RZA2M_ANPR/ANPR_RZA2M_EBK/src/tensorflow_lite/tensorflow/lite/kernels/internal\strided_slice_logic.h ****   if (hi < v) return hi;
 9878              		.loc 5 30 0
 9879 08e0 FEFFFFEB 		bl	abort
 9880              	.LVL1093:
 9881              	.L1508:
 9882              	.LBE2146:
 9883              	.LBE2150:
 9884              	.LBB2151:
 9885              	.LBB2149:
 9886 08e4 FEFFFFEB 		bl	abort
 9887              	.LVL1094:
 9888              	.LEHE28:
 9889              	.L1321:
 9890              	.LEHB29:
 9891              	.LBE2149:
 9892              	.LBE2151:
 9893              	.LBE2153:
 9894              	.LBE2163:
 9895              	.LBE2169:
 9896              	.LBE2184:
 9897              	.LBB2185:
 9898              	.LBB2117:
 9899              	.LBB2113:
 9900              	.LBB2109:
 9901              	.LBB2107:
 9902              	.LBB2105:
 9903              	.LBB2102:
 9904              	.LBB2101:
 9905              	.LBB2100:
 250:C:/Renesas/e2studio_2021_01_workspace_RZA2M_ANPR/ANPR_RZA2M_EBK/src/tensorflow_lite/tensorflow/lite/kernels/internal\types.h **** #endif  // TF_LITE_STATIC_MEMORY
 9906              		.loc 4 250 0
 9907 08e8 FEFFFFEB 		bl	__cxa_throw_bad_array_new_length
 9908              	.LVL1095:
 9909              	.LEHE29:
 9910              	.LBE2100:
 9911              	.LBE2101:
 9912              	.LBE2102:
 9913              	.LBE2105:
 9914              	.LBE2107:
 9915              	.LBE2109:
 9916              	.LBE2113:
 9917              	.LBE2117:
 9918              	.LBE2185:
 9919              		.cfi_endproc
 9920              	.LFE4518:
 9921              		.personality	__gxx_personality_v0
 9922              		.handlerdata
 9923              	.LLSDA4518:
 9924 0008 FF       		.byte	0xff
 9925 0009 FF       		.byte	0xff
 9926 000a 01       		.byte	0x1
 9927 000b 1D       		.uleb128 .LLSDACSE4518-.LLSDACSB4518
 9928              	.LLSDACSB4518:
 9929 000c E002     		.uleb128 .LEHB25-.LFB4518
 9930 000e 04       		.uleb128 .LEHE25-.LEHB25
 9931 000f 00       		.uleb128 0
 9932 0010 00       		.uleb128 0
 9933 0011 8407     		.uleb128 .LEHB26-.LFB4518
 9934 0013 F001     		.uleb128 .LEHE26-.LEHB26
 9935 0015 F80C     		.uleb128 .L1370-.LFB4518
 9936 0017 00       		.uleb128 0
 9937 0018 900D     		.uleb128 .LEHB27-.LFB4518
 9938 001a 04       		.uleb128 .LEHE27-.LEHB27
 9939 001b 00       		.uleb128 0
 9940 001c 00       		.uleb128 0
 9941 001d D010     		.uleb128 .LEHB28-.LFB4518
 9942 001f 9801     		.uleb128 .LEHE28-.LEHB28
 9943 0021 F80C     		.uleb128 .L1370-.LFB4518
 9944 0023 00       		.uleb128 0
 9945 0024 E811     		.uleb128 .LEHB29-.LFB4518
 9946 0026 04       		.uleb128 .LEHE29-.LEHB29
 9947 0027 00       		.uleb128 0
 9948 0028 00       		.uleb128 0
 9949              	.LLSDACSE4518:
 9950              		.section	.text._ZN6tflite3ops5micro13strided_slice15CheckOutputSizeEP13TfLiteContextPNS2_19Strided
 9951              		.fnend
 9953              		.section	.text._ZN6tflite3ops5micro13strided_slice7PrepareEP13TfLiteContextP10TfLiteNode,"ax",%pro
 9954              		.align	2
 9955              		.global	_ZN6tflite3ops5micro13strided_slice7PrepareEP13TfLiteContextP10TfLiteNode
 9956              		.syntax unified
 9957              		.arm
 9958              		.fpu neon
 9960              	_ZN6tflite3ops5micro13strided_slice7PrepareEP13TfLiteContextP10TfLiteNode:
 9961              		.fnstart
 9962              	.LFB4520:
 125:../src/tensorflow_lite/tensorflow/lite/micro/kernels/strided_slice.cc ****   TFLITE_DCHECK(node->user_data != nullptr);
 9963              		.loc 1 125 0
 9964              		.cfi_startproc
 9965              		@ args = 0, pretend = 0, frame = 112
 9966              		@ frame_needed = 0, uses_anonymous_args = 0
 9967              	.LVL1096:
 9968 0000 F0402DE9 		push	{r4, r5, r6, r7, lr}
 9969              		.save {r4, r5, r6, r7, lr}
 9970              		.cfi_def_cfa_offset 20
 9971              		.cfi_offset 4, -20
 9972              		.cfi_offset 5, -16
 9973              		.cfi_offset 6, -12
 9974              		.cfi_offset 7, -8
 9975              		.cfi_offset 14, -4
 9976              		.pad #132
 9977 0004 84D04DE2 		sub	sp, sp, #132
 9978              		.cfi_def_cfa_offset 152
 126:../src/tensorflow_lite/tensorflow/lite/micro/kernels/strided_slice.cc ****   StridedSliceParams* op_params =
 9979              		.loc 1 126 0
 9980 0008 106091E5 		ldr	r6, [r1, #16]
 9981 000c 000056E3 		cmp	r6, #0
 9982 0010 6C01000A 		beq	.L1607
 9983              	.LBB2204:
 9984              	.LBB2205:
 9985              		.file 9 "C:/Renesas/e2studio_2021_01_workspace_RZA2M_ANPR/ANPR_RZA2M_EBK/src/tensorflow_lite/tenso
   1:C:/Renesas/e2studio_2021_01_workspace_RZA2M_ANPR/ANPR_RZA2M_EBK/src/tensorflow_lite/tensorflow/lite/kernels\kernel_util.h **** /* Copyright 2017 The TensorFlow Authors. All Rights Reserved.
   2:C:/Renesas/e2studio_2021_01_workspace_RZA2M_ANPR/ANPR_RZA2M_EBK/src/tensorflow_lite/tensorflow/lite/kernels\kernel_util.h **** 
   3:C:/Renesas/e2studio_2021_01_workspace_RZA2M_ANPR/ANPR_RZA2M_EBK/src/tensorflow_lite/tensorflow/lite/kernels\kernel_util.h **** Licensed under the Apache License, Version 2.0 (the "License");
   4:C:/Renesas/e2studio_2021_01_workspace_RZA2M_ANPR/ANPR_RZA2M_EBK/src/tensorflow_lite/tensorflow/lite/kernels\kernel_util.h **** you may not use this file except in compliance with the License.
   5:C:/Renesas/e2studio_2021_01_workspace_RZA2M_ANPR/ANPR_RZA2M_EBK/src/tensorflow_lite/tensorflow/lite/kernels\kernel_util.h **** You may obtain a copy of the License at
   6:C:/Renesas/e2studio_2021_01_workspace_RZA2M_ANPR/ANPR_RZA2M_EBK/src/tensorflow_lite/tensorflow/lite/kernels\kernel_util.h **** 
   7:C:/Renesas/e2studio_2021_01_workspace_RZA2M_ANPR/ANPR_RZA2M_EBK/src/tensorflow_lite/tensorflow/lite/kernels\kernel_util.h ****     http://www.apache.org/licenses/LICENSE-2.0
   8:C:/Renesas/e2studio_2021_01_workspace_RZA2M_ANPR/ANPR_RZA2M_EBK/src/tensorflow_lite/tensorflow/lite/kernels\kernel_util.h **** 
   9:C:/Renesas/e2studio_2021_01_workspace_RZA2M_ANPR/ANPR_RZA2M_EBK/src/tensorflow_lite/tensorflow/lite/kernels\kernel_util.h **** Unless required by applicable law or agreed to in writing, software
  10:C:/Renesas/e2studio_2021_01_workspace_RZA2M_ANPR/ANPR_RZA2M_EBK/src/tensorflow_lite/tensorflow/lite/kernels\kernel_util.h **** distributed under the License is distributed on an "AS IS" BASIS,
  11:C:/Renesas/e2studio_2021_01_workspace_RZA2M_ANPR/ANPR_RZA2M_EBK/src/tensorflow_lite/tensorflow/lite/kernels\kernel_util.h **** WITHOUT WARRANTIES OR CONDITIONS OF ANY KIND, either express or implied.
  12:C:/Renesas/e2studio_2021_01_workspace_RZA2M_ANPR/ANPR_RZA2M_EBK/src/tensorflow_lite/tensorflow/lite/kernels\kernel_util.h **** See the License for the specific language governing permissions and
  13:C:/Renesas/e2studio_2021_01_workspace_RZA2M_ANPR/ANPR_RZA2M_EBK/src/tensorflow_lite/tensorflow/lite/kernels\kernel_util.h **** limitations under the License.
  14:C:/Renesas/e2studio_2021_01_workspace_RZA2M_ANPR/ANPR_RZA2M_EBK/src/tensorflow_lite/tensorflow/lite/kernels\kernel_util.h **** ==============================================================================*/
  15:C:/Renesas/e2studio_2021_01_workspace_RZA2M_ANPR/ANPR_RZA2M_EBK/src/tensorflow_lite/tensorflow/lite/kernels\kernel_util.h **** #ifndef TENSORFLOW_LITE_KERNELS_KERNEL_UTIL_H_
  16:C:/Renesas/e2studio_2021_01_workspace_RZA2M_ANPR/ANPR_RZA2M_EBK/src/tensorflow_lite/tensorflow/lite/kernels\kernel_util.h **** #define TENSORFLOW_LITE_KERNELS_KERNEL_UTIL_H_
  17:C:/Renesas/e2studio_2021_01_workspace_RZA2M_ANPR/ANPR_RZA2M_EBK/src/tensorflow_lite/tensorflow/lite/kernels\kernel_util.h **** 
  18:C:/Renesas/e2studio_2021_01_workspace_RZA2M_ANPR/ANPR_RZA2M_EBK/src/tensorflow_lite/tensorflow/lite/kernels\kernel_util.h **** #include <stdint.h>
  19:C:/Renesas/e2studio_2021_01_workspace_RZA2M_ANPR/ANPR_RZA2M_EBK/src/tensorflow_lite/tensorflow/lite/kernels\kernel_util.h **** 
  20:C:/Renesas/e2studio_2021_01_workspace_RZA2M_ANPR/ANPR_RZA2M_EBK/src/tensorflow_lite/tensorflow/lite/kernels\kernel_util.h **** #include <limits>
  21:C:/Renesas/e2studio_2021_01_workspace_RZA2M_ANPR/ANPR_RZA2M_EBK/src/tensorflow_lite/tensorflow/lite/kernels\kernel_util.h **** 
  22:C:/Renesas/e2studio_2021_01_workspace_RZA2M_ANPR/ANPR_RZA2M_EBK/src/tensorflow_lite/tensorflow/lite/kernels\kernel_util.h **** #include "tensorflow/lite/c/builtin_op_data.h"
  23:C:/Renesas/e2studio_2021_01_workspace_RZA2M_ANPR/ANPR_RZA2M_EBK/src/tensorflow_lite/tensorflow/lite/kernels\kernel_util.h **** #include "tensorflow/lite/c/common.h"
  24:C:/Renesas/e2studio_2021_01_workspace_RZA2M_ANPR/ANPR_RZA2M_EBK/src/tensorflow_lite/tensorflow/lite/kernels\kernel_util.h **** 
  25:C:/Renesas/e2studio_2021_01_workspace_RZA2M_ANPR/ANPR_RZA2M_EBK/src/tensorflow_lite/tensorflow/lite/kernels\kernel_util.h **** namespace tflite {
  26:C:/Renesas/e2studio_2021_01_workspace_RZA2M_ANPR/ANPR_RZA2M_EBK/src/tensorflow_lite/tensorflow/lite/kernels\kernel_util.h **** 
  27:C:/Renesas/e2studio_2021_01_workspace_RZA2M_ANPR/ANPR_RZA2M_EBK/src/tensorflow_lite/tensorflow/lite/kernels\kernel_util.h **** // A fair number of functions in this header have historically been inline.
  28:C:/Renesas/e2studio_2021_01_workspace_RZA2M_ANPR/ANPR_RZA2M_EBK/src/tensorflow_lite/tensorflow/lite/kernels\kernel_util.h **** // It is ok to change functions to not be inline if the latency with
  29:C:/Renesas/e2studio_2021_01_workspace_RZA2M_ANPR/ANPR_RZA2M_EBK/src/tensorflow_lite/tensorflow/lite/kernels\kernel_util.h **** // benchmark_model for MobileNet + MobileBERT is unaffected. If such a change is
  30:C:/Renesas/e2studio_2021_01_workspace_RZA2M_ANPR/ANPR_RZA2M_EBK/src/tensorflow_lite/tensorflow/lite/kernels\kernel_util.h **** // made, move the newly non-inlined function declarations to the top of this
  31:C:/Renesas/e2studio_2021_01_workspace_RZA2M_ANPR/ANPR_RZA2M_EBK/src/tensorflow_lite/tensorflow/lite/kernels\kernel_util.h **** // header file.
  32:C:/Renesas/e2studio_2021_01_workspace_RZA2M_ANPR/ANPR_RZA2M_EBK/src/tensorflow_lite/tensorflow/lite/kernels\kernel_util.h **** 
  33:C:/Renesas/e2studio_2021_01_workspace_RZA2M_ANPR/ANPR_RZA2M_EBK/src/tensorflow_lite/tensorflow/lite/kernels\kernel_util.h **** // Note: You must check if result is not null:
  34:C:/Renesas/e2studio_2021_01_workspace_RZA2M_ANPR/ANPR_RZA2M_EBK/src/tensorflow_lite/tensorflow/lite/kernels\kernel_util.h **** //
  35:C:/Renesas/e2studio_2021_01_workspace_RZA2M_ANPR/ANPR_RZA2M_EBK/src/tensorflow_lite/tensorflow/lite/kernels\kernel_util.h **** //   TfLiteTensor* my_tensor = GetInput(context, node, kMyTensorIdx);
  36:C:/Renesas/e2studio_2021_01_workspace_RZA2M_ANPR/ANPR_RZA2M_EBK/src/tensorflow_lite/tensorflow/lite/kernels\kernel_util.h **** //   TF_LITE_ENSURE(context, my_tensor != nullptr);
  37:C:/Renesas/e2studio_2021_01_workspace_RZA2M_ANPR/ANPR_RZA2M_EBK/src/tensorflow_lite/tensorflow/lite/kernels\kernel_util.h **** //
  38:C:/Renesas/e2studio_2021_01_workspace_RZA2M_ANPR/ANPR_RZA2M_EBK/src/tensorflow_lite/tensorflow/lite/kernels\kernel_util.h **** // This is because the index might point to the optional tensor constant
  39:C:/Renesas/e2studio_2021_01_workspace_RZA2M_ANPR/ANPR_RZA2M_EBK/src/tensorflow_lite/tensorflow/lite/kernels\kernel_util.h **** // (kTfLiteOptionalTensor) in which case there is no tensor to return.
  40:C:/Renesas/e2studio_2021_01_workspace_RZA2M_ANPR/ANPR_RZA2M_EBK/src/tensorflow_lite/tensorflow/lite/kernels\kernel_util.h **** const TfLiteTensor* GetInput(const TfLiteContext* context,
  41:C:/Renesas/e2studio_2021_01_workspace_RZA2M_ANPR/ANPR_RZA2M_EBK/src/tensorflow_lite/tensorflow/lite/kernels\kernel_util.h ****                              const TfLiteNode* node, int index);
  42:C:/Renesas/e2studio_2021_01_workspace_RZA2M_ANPR/ANPR_RZA2M_EBK/src/tensorflow_lite/tensorflow/lite/kernels\kernel_util.h **** 
  43:C:/Renesas/e2studio_2021_01_workspace_RZA2M_ANPR/ANPR_RZA2M_EBK/src/tensorflow_lite/tensorflow/lite/kernels\kernel_util.h **** // Same as `GetInput` but returns boolean and uses output argument for tensor.
  44:C:/Renesas/e2studio_2021_01_workspace_RZA2M_ANPR/ANPR_RZA2M_EBK/src/tensorflow_lite/tensorflow/lite/kernels\kernel_util.h **** //
  45:C:/Renesas/e2studio_2021_01_workspace_RZA2M_ANPR/ANPR_RZA2M_EBK/src/tensorflow_lite/tensorflow/lite/kernels\kernel_util.h **** //   TfLiteTensor* my_tensor;
  46:C:/Renesas/e2studio_2021_01_workspace_RZA2M_ANPR/ANPR_RZA2M_EBK/src/tensorflow_lite/tensorflow/lite/kernels\kernel_util.h **** //   TF_LITE_ENSURE_OK(context,
  47:C:/Renesas/e2studio_2021_01_workspace_RZA2M_ANPR/ANPR_RZA2M_EBK/src/tensorflow_lite/tensorflow/lite/kernels\kernel_util.h **** //                     GetInputSafe(context, node, kMyTensorIdx, &my_tensor));
  48:C:/Renesas/e2studio_2021_01_workspace_RZA2M_ANPR/ANPR_RZA2M_EBK/src/tensorflow_lite/tensorflow/lite/kernels\kernel_util.h **** //   // can use my_tensor directly from here onwards, it is not nullptr
  49:C:/Renesas/e2studio_2021_01_workspace_RZA2M_ANPR/ANPR_RZA2M_EBK/src/tensorflow_lite/tensorflow/lite/kernels\kernel_util.h **** //
  50:C:/Renesas/e2studio_2021_01_workspace_RZA2M_ANPR/ANPR_RZA2M_EBK/src/tensorflow_lite/tensorflow/lite/kernels\kernel_util.h **** // Should be used in cases where the binary size is too large.
  51:C:/Renesas/e2studio_2021_01_workspace_RZA2M_ANPR/ANPR_RZA2M_EBK/src/tensorflow_lite/tensorflow/lite/kernels\kernel_util.h **** TfLiteStatus GetInputSafe(const TfLiteContext* context, const TfLiteNode* node,
  52:C:/Renesas/e2studio_2021_01_workspace_RZA2M_ANPR/ANPR_RZA2M_EBK/src/tensorflow_lite/tensorflow/lite/kernels\kernel_util.h ****                           int index, const TfLiteTensor** tensor);
  53:C:/Renesas/e2studio_2021_01_workspace_RZA2M_ANPR/ANPR_RZA2M_EBK/src/tensorflow_lite/tensorflow/lite/kernels\kernel_util.h **** 
  54:C:/Renesas/e2studio_2021_01_workspace_RZA2M_ANPR/ANPR_RZA2M_EBK/src/tensorflow_lite/tensorflow/lite/kernels\kernel_util.h **** // Note: You must check if result is not null:
  55:C:/Renesas/e2studio_2021_01_workspace_RZA2M_ANPR/ANPR_RZA2M_EBK/src/tensorflow_lite/tensorflow/lite/kernels\kernel_util.h **** //
  56:C:/Renesas/e2studio_2021_01_workspace_RZA2M_ANPR/ANPR_RZA2M_EBK/src/tensorflow_lite/tensorflow/lite/kernels\kernel_util.h **** //   TfLiteTensor* my_tensor = GetVariableInput(context, node, kMyTensorIdx);
  57:C:/Renesas/e2studio_2021_01_workspace_RZA2M_ANPR/ANPR_RZA2M_EBK/src/tensorflow_lite/tensorflow/lite/kernels\kernel_util.h **** //   TF_LITE_ENSURE(context, my_tensor != nullptr);
  58:C:/Renesas/e2studio_2021_01_workspace_RZA2M_ANPR/ANPR_RZA2M_EBK/src/tensorflow_lite/tensorflow/lite/kernels\kernel_util.h **** //
  59:C:/Renesas/e2studio_2021_01_workspace_RZA2M_ANPR/ANPR_RZA2M_EBK/src/tensorflow_lite/tensorflow/lite/kernels\kernel_util.h **** // This is because the index might point to the optional tensor constant
  60:C:/Renesas/e2studio_2021_01_workspace_RZA2M_ANPR/ANPR_RZA2M_EBK/src/tensorflow_lite/tensorflow/lite/kernels\kernel_util.h **** // (kTfLiteOptionalTensor) in which case there is no tensor to return.
  61:C:/Renesas/e2studio_2021_01_workspace_RZA2M_ANPR/ANPR_RZA2M_EBK/src/tensorflow_lite/tensorflow/lite/kernels\kernel_util.h **** TfLiteTensor* GetVariableInput(TfLiteContext* context, const TfLiteNode* node,
  62:C:/Renesas/e2studio_2021_01_workspace_RZA2M_ANPR/ANPR_RZA2M_EBK/src/tensorflow_lite/tensorflow/lite/kernels\kernel_util.h ****                                int index);
  63:C:/Renesas/e2studio_2021_01_workspace_RZA2M_ANPR/ANPR_RZA2M_EBK/src/tensorflow_lite/tensorflow/lite/kernels\kernel_util.h **** 
  64:C:/Renesas/e2studio_2021_01_workspace_RZA2M_ANPR/ANPR_RZA2M_EBK/src/tensorflow_lite/tensorflow/lite/kernels\kernel_util.h **** // Note: You must check if result is not null:
  65:C:/Renesas/e2studio_2021_01_workspace_RZA2M_ANPR/ANPR_RZA2M_EBK/src/tensorflow_lite/tensorflow/lite/kernels\kernel_util.h **** //
  66:C:/Renesas/e2studio_2021_01_workspace_RZA2M_ANPR/ANPR_RZA2M_EBK/src/tensorflow_lite/tensorflow/lite/kernels\kernel_util.h **** //   TfLiteTensor* my_tensor = GetOutput(context, node, kMyTensorIdx);
  67:C:/Renesas/e2studio_2021_01_workspace_RZA2M_ANPR/ANPR_RZA2M_EBK/src/tensorflow_lite/tensorflow/lite/kernels\kernel_util.h **** //   TF_LITE_ENSURE(context, my_tensor != nullptr);
  68:C:/Renesas/e2studio_2021_01_workspace_RZA2M_ANPR/ANPR_RZA2M_EBK/src/tensorflow_lite/tensorflow/lite/kernels\kernel_util.h **** //
  69:C:/Renesas/e2studio_2021_01_workspace_RZA2M_ANPR/ANPR_RZA2M_EBK/src/tensorflow_lite/tensorflow/lite/kernels\kernel_util.h **** // This is because the index might point to the optional tensor constant
  70:C:/Renesas/e2studio_2021_01_workspace_RZA2M_ANPR/ANPR_RZA2M_EBK/src/tensorflow_lite/tensorflow/lite/kernels\kernel_util.h **** // (kTfLiteOptionalTensor) in which case there is no tensor to return.
  71:C:/Renesas/e2studio_2021_01_workspace_RZA2M_ANPR/ANPR_RZA2M_EBK/src/tensorflow_lite/tensorflow/lite/kernels\kernel_util.h **** TfLiteTensor* GetOutput(TfLiteContext* context, const TfLiteNode* node,
  72:C:/Renesas/e2studio_2021_01_workspace_RZA2M_ANPR/ANPR_RZA2M_EBK/src/tensorflow_lite/tensorflow/lite/kernels\kernel_util.h ****                         int index);
  73:C:/Renesas/e2studio_2021_01_workspace_RZA2M_ANPR/ANPR_RZA2M_EBK/src/tensorflow_lite/tensorflow/lite/kernels\kernel_util.h **** 
  74:C:/Renesas/e2studio_2021_01_workspace_RZA2M_ANPR/ANPR_RZA2M_EBK/src/tensorflow_lite/tensorflow/lite/kernels\kernel_util.h **** // Same as `GetOutput` but returns boolean and uses output argument for tensor.
  75:C:/Renesas/e2studio_2021_01_workspace_RZA2M_ANPR/ANPR_RZA2M_EBK/src/tensorflow_lite/tensorflow/lite/kernels\kernel_util.h **** //
  76:C:/Renesas/e2studio_2021_01_workspace_RZA2M_ANPR/ANPR_RZA2M_EBK/src/tensorflow_lite/tensorflow/lite/kernels\kernel_util.h **** //   TfLiteTensor* my_tensor;
  77:C:/Renesas/e2studio_2021_01_workspace_RZA2M_ANPR/ANPR_RZA2M_EBK/src/tensorflow_lite/tensorflow/lite/kernels\kernel_util.h **** //   TF_LITE_ENSURE_OK(context,
  78:C:/Renesas/e2studio_2021_01_workspace_RZA2M_ANPR/ANPR_RZA2M_EBK/src/tensorflow_lite/tensorflow/lite/kernels\kernel_util.h **** //                     GetOutputSafe(context, node, kMyTensorIdx, &my_tensor));
  79:C:/Renesas/e2studio_2021_01_workspace_RZA2M_ANPR/ANPR_RZA2M_EBK/src/tensorflow_lite/tensorflow/lite/kernels\kernel_util.h **** //   // can use my_tensor directly from here onwards, it is not nullptr
  80:C:/Renesas/e2studio_2021_01_workspace_RZA2M_ANPR/ANPR_RZA2M_EBK/src/tensorflow_lite/tensorflow/lite/kernels\kernel_util.h **** //
  81:C:/Renesas/e2studio_2021_01_workspace_RZA2M_ANPR/ANPR_RZA2M_EBK/src/tensorflow_lite/tensorflow/lite/kernels\kernel_util.h **** // Should be used in cases where the binary size is too large.
  82:C:/Renesas/e2studio_2021_01_workspace_RZA2M_ANPR/ANPR_RZA2M_EBK/src/tensorflow_lite/tensorflow/lite/kernels\kernel_util.h **** TfLiteStatus GetOutputSafe(const TfLiteContext* context, const TfLiteNode* node,
  83:C:/Renesas/e2studio_2021_01_workspace_RZA2M_ANPR/ANPR_RZA2M_EBK/src/tensorflow_lite/tensorflow/lite/kernels\kernel_util.h ****                            int index, TfLiteTensor** tensor);
  84:C:/Renesas/e2studio_2021_01_workspace_RZA2M_ANPR/ANPR_RZA2M_EBK/src/tensorflow_lite/tensorflow/lite/kernels\kernel_util.h **** 
  85:C:/Renesas/e2studio_2021_01_workspace_RZA2M_ANPR/ANPR_RZA2M_EBK/src/tensorflow_lite/tensorflow/lite/kernels\kernel_util.h **** // Note: You must check if result is not null:
  86:C:/Renesas/e2studio_2021_01_workspace_RZA2M_ANPR/ANPR_RZA2M_EBK/src/tensorflow_lite/tensorflow/lite/kernels\kernel_util.h **** //
  87:C:/Renesas/e2studio_2021_01_workspace_RZA2M_ANPR/ANPR_RZA2M_EBK/src/tensorflow_lite/tensorflow/lite/kernels\kernel_util.h **** //   TfLiteTensor* my_tensor = GetOptionalInputTensor(context, node, kIdx);
  88:C:/Renesas/e2studio_2021_01_workspace_RZA2M_ANPR/ANPR_RZA2M_EBK/src/tensorflow_lite/tensorflow/lite/kernels\kernel_util.h **** //   TF_LITE_ENSURE(context, my_tensor != nullptr);
  89:C:/Renesas/e2studio_2021_01_workspace_RZA2M_ANPR/ANPR_RZA2M_EBK/src/tensorflow_lite/tensorflow/lite/kernels\kernel_util.h **** //
  90:C:/Renesas/e2studio_2021_01_workspace_RZA2M_ANPR/ANPR_RZA2M_EBK/src/tensorflow_lite/tensorflow/lite/kernels\kernel_util.h **** // This is because the index might point to the optional tensor constant
  91:C:/Renesas/e2studio_2021_01_workspace_RZA2M_ANPR/ANPR_RZA2M_EBK/src/tensorflow_lite/tensorflow/lite/kernels\kernel_util.h **** // (kTfLiteOptionalTensor) in which case there is no tensor to return.
  92:C:/Renesas/e2studio_2021_01_workspace_RZA2M_ANPR/ANPR_RZA2M_EBK/src/tensorflow_lite/tensorflow/lite/kernels\kernel_util.h **** //
  93:C:/Renesas/e2studio_2021_01_workspace_RZA2M_ANPR/ANPR_RZA2M_EBK/src/tensorflow_lite/tensorflow/lite/kernels\kernel_util.h **** // Deprecated. GetInput has the same functionality.
  94:C:/Renesas/e2studio_2021_01_workspace_RZA2M_ANPR/ANPR_RZA2M_EBK/src/tensorflow_lite/tensorflow/lite/kernels\kernel_util.h **** const TfLiteTensor* GetOptionalInputTensor(const TfLiteContext* context,
  95:C:/Renesas/e2studio_2021_01_workspace_RZA2M_ANPR/ANPR_RZA2M_EBK/src/tensorflow_lite/tensorflow/lite/kernels\kernel_util.h ****                                            const TfLiteNode* node, int index);
  96:C:/Renesas/e2studio_2021_01_workspace_RZA2M_ANPR/ANPR_RZA2M_EBK/src/tensorflow_lite/tensorflow/lite/kernels\kernel_util.h **** 
  97:C:/Renesas/e2studio_2021_01_workspace_RZA2M_ANPR/ANPR_RZA2M_EBK/src/tensorflow_lite/tensorflow/lite/kernels\kernel_util.h **** #ifndef TF_LITE_STATIC_MEMORY
  98:C:/Renesas/e2studio_2021_01_workspace_RZA2M_ANPR/ANPR_RZA2M_EBK/src/tensorflow_lite/tensorflow/lite/kernels\kernel_util.h **** // Note: You must check if result is not null:
  99:C:/Renesas/e2studio_2021_01_workspace_RZA2M_ANPR/ANPR_RZA2M_EBK/src/tensorflow_lite/tensorflow/lite/kernels\kernel_util.h **** //
 100:C:/Renesas/e2studio_2021_01_workspace_RZA2M_ANPR/ANPR_RZA2M_EBK/src/tensorflow_lite/tensorflow/lite/kernels\kernel_util.h **** //   TfLiteTensor* my_tensor = GetTemporary(context, node, kMyTensorIdx);
 101:C:/Renesas/e2studio_2021_01_workspace_RZA2M_ANPR/ANPR_RZA2M_EBK/src/tensorflow_lite/tensorflow/lite/kernels\kernel_util.h **** //   TF_LITE_ENSURE(context, my_tensor != nullptr);
 102:C:/Renesas/e2studio_2021_01_workspace_RZA2M_ANPR/ANPR_RZA2M_EBK/src/tensorflow_lite/tensorflow/lite/kernels\kernel_util.h **** //
 103:C:/Renesas/e2studio_2021_01_workspace_RZA2M_ANPR/ANPR_RZA2M_EBK/src/tensorflow_lite/tensorflow/lite/kernels\kernel_util.h **** // This is because the index might point to the optional tensor constant
 104:C:/Renesas/e2studio_2021_01_workspace_RZA2M_ANPR/ANPR_RZA2M_EBK/src/tensorflow_lite/tensorflow/lite/kernels\kernel_util.h **** // (kTfLiteOptionalTensor) in which case there is no tensor to return.
 105:C:/Renesas/e2studio_2021_01_workspace_RZA2M_ANPR/ANPR_RZA2M_EBK/src/tensorflow_lite/tensorflow/lite/kernels\kernel_util.h **** TfLiteTensor* GetTemporary(TfLiteContext* context, const TfLiteNode* node,
 106:C:/Renesas/e2studio_2021_01_workspace_RZA2M_ANPR/ANPR_RZA2M_EBK/src/tensorflow_lite/tensorflow/lite/kernels\kernel_util.h ****                            int index);
 107:C:/Renesas/e2studio_2021_01_workspace_RZA2M_ANPR/ANPR_RZA2M_EBK/src/tensorflow_lite/tensorflow/lite/kernels\kernel_util.h **** 
 108:C:/Renesas/e2studio_2021_01_workspace_RZA2M_ANPR/ANPR_RZA2M_EBK/src/tensorflow_lite/tensorflow/lite/kernels\kernel_util.h **** // Same as `GetTemporary` but returns boolean and uses output argument for
 109:C:/Renesas/e2studio_2021_01_workspace_RZA2M_ANPR/ANPR_RZA2M_EBK/src/tensorflow_lite/tensorflow/lite/kernels\kernel_util.h **** // tensor.
 110:C:/Renesas/e2studio_2021_01_workspace_RZA2M_ANPR/ANPR_RZA2M_EBK/src/tensorflow_lite/tensorflow/lite/kernels\kernel_util.h **** //
 111:C:/Renesas/e2studio_2021_01_workspace_RZA2M_ANPR/ANPR_RZA2M_EBK/src/tensorflow_lite/tensorflow/lite/kernels\kernel_util.h **** //   TfLiteTensor* my_tensor;
 112:C:/Renesas/e2studio_2021_01_workspace_RZA2M_ANPR/ANPR_RZA2M_EBK/src/tensorflow_lite/tensorflow/lite/kernels\kernel_util.h **** //   TF_LITE_ENSURE_OK(context,
 113:C:/Renesas/e2studio_2021_01_workspace_RZA2M_ANPR/ANPR_RZA2M_EBK/src/tensorflow_lite/tensorflow/lite/kernels\kernel_util.h **** //                     GetTemporarySafe(context, node, kMyTensorIdx,
 114:C:/Renesas/e2studio_2021_01_workspace_RZA2M_ANPR/ANPR_RZA2M_EBK/src/tensorflow_lite/tensorflow/lite/kernels\kernel_util.h **** //                     &my_tensor));
 115:C:/Renesas/e2studio_2021_01_workspace_RZA2M_ANPR/ANPR_RZA2M_EBK/src/tensorflow_lite/tensorflow/lite/kernels\kernel_util.h **** //   // can use my_tensor directly from here onwards, it is not nullptr
 116:C:/Renesas/e2studio_2021_01_workspace_RZA2M_ANPR/ANPR_RZA2M_EBK/src/tensorflow_lite/tensorflow/lite/kernels\kernel_util.h **** //
 117:C:/Renesas/e2studio_2021_01_workspace_RZA2M_ANPR/ANPR_RZA2M_EBK/src/tensorflow_lite/tensorflow/lite/kernels\kernel_util.h **** // Should be used in cases where the binary size is too large.
 118:C:/Renesas/e2studio_2021_01_workspace_RZA2M_ANPR/ANPR_RZA2M_EBK/src/tensorflow_lite/tensorflow/lite/kernels\kernel_util.h **** TfLiteStatus GetTemporarySafe(const TfLiteContext* context,
 119:C:/Renesas/e2studio_2021_01_workspace_RZA2M_ANPR/ANPR_RZA2M_EBK/src/tensorflow_lite/tensorflow/lite/kernels\kernel_util.h ****                               const TfLiteNode* node, int index,
 120:C:/Renesas/e2studio_2021_01_workspace_RZA2M_ANPR/ANPR_RZA2M_EBK/src/tensorflow_lite/tensorflow/lite/kernels\kernel_util.h ****                               TfLiteTensor** tensor);
 121:C:/Renesas/e2studio_2021_01_workspace_RZA2M_ANPR/ANPR_RZA2M_EBK/src/tensorflow_lite/tensorflow/lite/kernels\kernel_util.h **** 
 122:C:/Renesas/e2studio_2021_01_workspace_RZA2M_ANPR/ANPR_RZA2M_EBK/src/tensorflow_lite/tensorflow/lite/kernels\kernel_util.h **** // Note: You must check if result is not null:
 123:C:/Renesas/e2studio_2021_01_workspace_RZA2M_ANPR/ANPR_RZA2M_EBK/src/tensorflow_lite/tensorflow/lite/kernels\kernel_util.h **** //
 124:C:/Renesas/e2studio_2021_01_workspace_RZA2M_ANPR/ANPR_RZA2M_EBK/src/tensorflow_lite/tensorflow/lite/kernels\kernel_util.h **** //   TfLiteTensor* my_tensor = GetIntermediates(context, node, kMyTensorIdx);
 125:C:/Renesas/e2studio_2021_01_workspace_RZA2M_ANPR/ANPR_RZA2M_EBK/src/tensorflow_lite/tensorflow/lite/kernels\kernel_util.h **** //   TF_LITE_ENSURE(context, my_tensor != nullptr);
 126:C:/Renesas/e2studio_2021_01_workspace_RZA2M_ANPR/ANPR_RZA2M_EBK/src/tensorflow_lite/tensorflow/lite/kernels\kernel_util.h **** //
 127:C:/Renesas/e2studio_2021_01_workspace_RZA2M_ANPR/ANPR_RZA2M_EBK/src/tensorflow_lite/tensorflow/lite/kernels\kernel_util.h **** // This is because the index might point to the optional tensor constant
 128:C:/Renesas/e2studio_2021_01_workspace_RZA2M_ANPR/ANPR_RZA2M_EBK/src/tensorflow_lite/tensorflow/lite/kernels\kernel_util.h **** // (kTfLiteOptionalTensor) in which case there is no tensor to return.
 129:C:/Renesas/e2studio_2021_01_workspace_RZA2M_ANPR/ANPR_RZA2M_EBK/src/tensorflow_lite/tensorflow/lite/kernels\kernel_util.h **** const TfLiteTensor* GetIntermediates(TfLiteContext* context,
 130:C:/Renesas/e2studio_2021_01_workspace_RZA2M_ANPR/ANPR_RZA2M_EBK/src/tensorflow_lite/tensorflow/lite/kernels\kernel_util.h ****                                      const TfLiteNode* node, int index);
 131:C:/Renesas/e2studio_2021_01_workspace_RZA2M_ANPR/ANPR_RZA2M_EBK/src/tensorflow_lite/tensorflow/lite/kernels\kernel_util.h **** 
 132:C:/Renesas/e2studio_2021_01_workspace_RZA2M_ANPR/ANPR_RZA2M_EBK/src/tensorflow_lite/tensorflow/lite/kernels\kernel_util.h **** // Same as `GetIntermediates` but returns boolean and uses output argument for
 133:C:/Renesas/e2studio_2021_01_workspace_RZA2M_ANPR/ANPR_RZA2M_EBK/src/tensorflow_lite/tensorflow/lite/kernels\kernel_util.h **** // tensor.
 134:C:/Renesas/e2studio_2021_01_workspace_RZA2M_ANPR/ANPR_RZA2M_EBK/src/tensorflow_lite/tensorflow/lite/kernels\kernel_util.h **** //
 135:C:/Renesas/e2studio_2021_01_workspace_RZA2M_ANPR/ANPR_RZA2M_EBK/src/tensorflow_lite/tensorflow/lite/kernels\kernel_util.h **** //   TfLiteTensor* my_tensor;
 136:C:/Renesas/e2studio_2021_01_workspace_RZA2M_ANPR/ANPR_RZA2M_EBK/src/tensorflow_lite/tensorflow/lite/kernels\kernel_util.h **** //   TF_LITE_ENSURE_OK(context,
 137:C:/Renesas/e2studio_2021_01_workspace_RZA2M_ANPR/ANPR_RZA2M_EBK/src/tensorflow_lite/tensorflow/lite/kernels\kernel_util.h **** //                     GetIntermediatesSafe(context, node, kMyTensorIdx,
 138:C:/Renesas/e2studio_2021_01_workspace_RZA2M_ANPR/ANPR_RZA2M_EBK/src/tensorflow_lite/tensorflow/lite/kernels\kernel_util.h **** //                     &my_tensor));
 139:C:/Renesas/e2studio_2021_01_workspace_RZA2M_ANPR/ANPR_RZA2M_EBK/src/tensorflow_lite/tensorflow/lite/kernels\kernel_util.h **** //   // can use my_tensor directly from here onwards, it is not nullptr
 140:C:/Renesas/e2studio_2021_01_workspace_RZA2M_ANPR/ANPR_RZA2M_EBK/src/tensorflow_lite/tensorflow/lite/kernels\kernel_util.h **** //
 141:C:/Renesas/e2studio_2021_01_workspace_RZA2M_ANPR/ANPR_RZA2M_EBK/src/tensorflow_lite/tensorflow/lite/kernels\kernel_util.h **** // Should be used in cases where the binary size is too large.
 142:C:/Renesas/e2studio_2021_01_workspace_RZA2M_ANPR/ANPR_RZA2M_EBK/src/tensorflow_lite/tensorflow/lite/kernels\kernel_util.h **** TfLiteStatus GetIntermediatesSafe(const TfLiteContext* context,
 143:C:/Renesas/e2studio_2021_01_workspace_RZA2M_ANPR/ANPR_RZA2M_EBK/src/tensorflow_lite/tensorflow/lite/kernels\kernel_util.h ****                                   const TfLiteNode* node, int index,
 144:C:/Renesas/e2studio_2021_01_workspace_RZA2M_ANPR/ANPR_RZA2M_EBK/src/tensorflow_lite/tensorflow/lite/kernels\kernel_util.h ****                                   TfLiteTensor** tensor);
 145:C:/Renesas/e2studio_2021_01_workspace_RZA2M_ANPR/ANPR_RZA2M_EBK/src/tensorflow_lite/tensorflow/lite/kernels\kernel_util.h **** #endif  // TF_LITE_STATIC_MEMORY
 146:C:/Renesas/e2studio_2021_01_workspace_RZA2M_ANPR/ANPR_RZA2M_EBK/src/tensorflow_lite/tensorflow/lite/kernels\kernel_util.h **** 
 147:C:/Renesas/e2studio_2021_01_workspace_RZA2M_ANPR/ANPR_RZA2M_EBK/src/tensorflow_lite/tensorflow/lite/kernels\kernel_util.h **** inline int NumDimensions(const TfLiteTensor* t) { return t->dims->size; }
 148:C:/Renesas/e2studio_2021_01_workspace_RZA2M_ANPR/ANPR_RZA2M_EBK/src/tensorflow_lite/tensorflow/lite/kernels\kernel_util.h **** inline int SizeOfDimension(const TfLiteTensor* t, int dim) {
 149:C:/Renesas/e2studio_2021_01_workspace_RZA2M_ANPR/ANPR_RZA2M_EBK/src/tensorflow_lite/tensorflow/lite/kernels\kernel_util.h ****   return t->dims->data[dim];
 150:C:/Renesas/e2studio_2021_01_workspace_RZA2M_ANPR/ANPR_RZA2M_EBK/src/tensorflow_lite/tensorflow/lite/kernels\kernel_util.h **** }
 151:C:/Renesas/e2studio_2021_01_workspace_RZA2M_ANPR/ANPR_RZA2M_EBK/src/tensorflow_lite/tensorflow/lite/kernels\kernel_util.h **** 
 152:C:/Renesas/e2studio_2021_01_workspace_RZA2M_ANPR/ANPR_RZA2M_EBK/src/tensorflow_lite/tensorflow/lite/kernels\kernel_util.h **** inline int NumInputs(const TfLiteNode* node) { return node->inputs->size; }
 9986              		.loc 9 152 0
 9987 0014 003091E5 		ldr	r3, [r1]
 9988 0018 0140A0E1 		mov	r4, r1
 9989 001c 0050A0E1 		mov	r5, r0
 9990              	.LVL1097:
 9991 0020 003093E5 		ldr	r3, [r3]
 9992              	.LBE2205:
 9993              	.LBE2204:
 129:../src/tensorflow_lite/tensorflow/lite/micro/kernels/strided_slice.cc ****   TF_LITE_ENSURE_EQ(context, NumOutputs(node), 1);
 9994              		.loc 1 129 0
 9995 0024 040053E3 		cmp	r3, #4
 9996 0028 7700001A 		bne	.L1608
 9997              	.LVL1098:
 9998              	.LBB2206:
 9999              	.LBB2207:
 153:C:/Renesas/e2studio_2021_01_workspace_RZA2M_ANPR/ANPR_RZA2M_EBK/src/tensorflow_lite/tensorflow/lite/kernels\kernel_util.h **** inline int NumOutputs(const TfLiteNode* node) { return node->outputs->size; }
 10000              		.loc 9 153 0
 10001 002c 043091E5 		ldr	r3, [r1, #4]
 10002 0030 007093E5 		ldr	r7, [r3]
 10003              	.LBE2207:
 10004              	.LBE2206:
 130:../src/tensorflow_lite/tensorflow/lite/micro/kernels/strided_slice.cc ****   StridedSliceContext op_context(context, node);
 10005              		.loc 1 130 0
 10006 0034 010057E3 		cmp	r7, #1
 10007 0038 1200000A 		beq	.L1517
 10008              	.LVL1099:
 130:../src/tensorflow_lite/tensorflow/lite/micro/kernels/strided_slice.cc ****   StridedSliceContext op_context(context, node);
 10009              		.loc 1 130 0 is_stmt 0 discriminator 1
 10010 003c 00C000E3 		movw	ip, #:lower16:.LC11
 10011 0040 003000E3 		movw	r3, #:lower16:.LC12
 10012 0044 00C040E3 		movt	ip, #:upper16:.LC11
 10013 0048 003040E3 		movt	r3, #:upper16:.LC12
 10014 004c 0140A0E3 		mov	r4, #1
 10015 0050 002000E3 		movw	r2, #:lower16:.LC3
 10016 0054 001000E3 		movw	r1, #:lower16:.LC4
 10017              	.LVL1100:
 10018 0058 08708DE5 		str	r7, [sp, #8]
 10019 005c 002040E3 		movt	r2, #:upper16:.LC3
 10020 0060 145090E5 		ldr	r5, [r0, #20]
 10021 0064 001040E3 		movt	r1, #:upper16:.LC4
 10022 0068 00308DE5 		str	r3, [sp]
 10023 006c 04C08DE5 		str	ip, [sp, #4]
 10024 0070 8230A0E3 		mov	r3, #130
 10025 0074 0C408DE5 		str	r4, [sp, #12]
 10026 0078 35FF2FE1 		blx	r5
 10027              	.LVL1101:
 10028 007c 0400A0E1 		mov	r0, r4
 10029              	.LVL1102:
 10030              	.L1516:
 137:../src/tensorflow_lite/tensorflow/lite/micro/kernels/strided_slice.cc **** 
 10031              		.loc 1 137 0 is_stmt 1
 10032 0080 84D08DE2 		add	sp, sp, #132
 10033              		.cfi_remember_state
 10034              		.cfi_def_cfa_offset 20
 10035              		@ sp needed
 10036 0084 F080BDE8 		pop	{r4, r5, r6, r7, pc}
 10037              	.LVL1103:
 10038              	.L1517:
 10039              		.cfi_restore_state
 10040              	.LBB2208:
 10041              	.LBB2209:
 10042              	.LBB2210:
  40:../src/tensorflow_lite/tensorflow/lite/micro/kernels/strided_slice.cc ****     input = GetInput(context, node, kInputTensor);
 10043              		.loc 1 40 0
 10044 0088 143091E5 		ldr	r3, [r1, #20]
  41:../src/tensorflow_lite/tensorflow/lite/micro/kernels/strided_slice.cc ****     begin = GetInput(context, node, kBeginTensor);
 10045              		.loc 1 41 0
 10046 008c 0020A0E3 		mov	r2, #0
  40:../src/tensorflow_lite/tensorflow/lite/micro/kernels/strided_slice.cc ****     input = GetInput(context, node, kInputTensor);
 10047              		.loc 1 40 0
 10048 0090 10308DE5 		str	r3, [sp, #16]
  41:../src/tensorflow_lite/tensorflow/lite/micro/kernels/strided_slice.cc ****     begin = GetInput(context, node, kBeginTensor);
 10049              		.loc 1 41 0
 10050 0094 FEFFFFEB 		bl	_ZN6tflite8GetInputEPK13TfLiteContextPK10TfLiteNodei
 10051              	.LVL1104:
  42:../src/tensorflow_lite/tensorflow/lite/micro/kernels/strided_slice.cc ****     end = GetInput(context, node, kEndTensor);
 10052              		.loc 1 42 0
 10053 0098 0720A0E1 		mov	r2, r7
  41:../src/tensorflow_lite/tensorflow/lite/micro/kernels/strided_slice.cc ****     begin = GetInput(context, node, kBeginTensor);
 10054              		.loc 1 41 0
 10055 009c 14008DE5 		str	r0, [sp, #20]
  42:../src/tensorflow_lite/tensorflow/lite/micro/kernels/strided_slice.cc ****     end = GetInput(context, node, kEndTensor);
 10056              		.loc 1 42 0
 10057 00a0 0410A0E1 		mov	r1, r4
 10058 00a4 0500A0E1 		mov	r0, r5
 10059 00a8 FEFFFFEB 		bl	_ZN6tflite8GetInputEPK13TfLiteContextPK10TfLiteNodei
 10060              	.LVL1105:
  43:../src/tensorflow_lite/tensorflow/lite/micro/kernels/strided_slice.cc ****     strides = GetInput(context, node, kStridesTensor);
 10061              		.loc 1 43 0
 10062 00ac 0220A0E3 		mov	r2, #2
  42:../src/tensorflow_lite/tensorflow/lite/micro/kernels/strided_slice.cc ****     end = GetInput(context, node, kEndTensor);
 10063              		.loc 1 42 0
 10064 00b0 18008DE5 		str	r0, [sp, #24]
  43:../src/tensorflow_lite/tensorflow/lite/micro/kernels/strided_slice.cc ****     strides = GetInput(context, node, kStridesTensor);
 10065              		.loc 1 43 0
 10066 00b4 0410A0E1 		mov	r1, r4
 10067 00b8 0500A0E1 		mov	r0, r5
 10068 00bc FEFFFFEB 		bl	_ZN6tflite8GetInputEPK13TfLiteContextPK10TfLiteNodei
 10069              	.LVL1106:
  44:../src/tensorflow_lite/tensorflow/lite/micro/kernels/strided_slice.cc ****     output = GetOutput(context, node, kOutputTensor);
 10070              		.loc 1 44 0
 10071 00c0 0320A0E3 		mov	r2, #3
  43:../src/tensorflow_lite/tensorflow/lite/micro/kernels/strided_slice.cc ****     strides = GetInput(context, node, kStridesTensor);
 10072              		.loc 1 43 0
 10073 00c4 1C008DE5 		str	r0, [sp, #28]
  44:../src/tensorflow_lite/tensorflow/lite/micro/kernels/strided_slice.cc ****     output = GetOutput(context, node, kOutputTensor);
 10074              		.loc 1 44 0
 10075 00c8 0410A0E1 		mov	r1, r4
 10076 00cc 0500A0E1 		mov	r0, r5
 10077 00d0 FEFFFFEB 		bl	_ZN6tflite8GetInputEPK13TfLiteContextPK10TfLiteNodei
 10078              	.LVL1107:
  45:../src/tensorflow_lite/tensorflow/lite/micro/kernels/strided_slice.cc ****     dims = NumDimensions(input);
 10079              		.loc 1 45 0
 10080 00d4 0410A0E1 		mov	r1, r4
  44:../src/tensorflow_lite/tensorflow/lite/micro/kernels/strided_slice.cc ****     output = GetOutput(context, node, kOutputTensor);
 10081              		.loc 1 44 0
 10082 00d8 20008DE5 		str	r0, [sp, #32]
  45:../src/tensorflow_lite/tensorflow/lite/micro/kernels/strided_slice.cc ****     dims = NumDimensions(input);
 10083              		.loc 1 45 0
 10084 00dc 0020A0E3 		mov	r2, #0
 10085 00e0 0500A0E1 		mov	r0, r5
 10086 00e4 FEFFFFEB 		bl	_ZN6tflite9GetOutputEP13TfLiteContextPK10TfLiteNodei
 10087              	.LVL1108:
 10088              	.LBB2211:
 10089              	.LBB2212:
 147:C:/Renesas/e2studio_2021_01_workspace_RZA2M_ANPR/ANPR_RZA2M_EBK/src/tensorflow_lite/tensorflow/lite/kernels\kernel_util.h **** inline int SizeOfDimension(const TfLiteTensor* t, int dim) {
 10090              		.loc 9 147 0
 10091 00e8 14309DE5 		ldr	r3, [sp, #20]
 10092              	.LBE2212:
 10093              	.LBE2211:
  45:../src/tensorflow_lite/tensorflow/lite/micro/kernels/strided_slice.cc ****     dims = NumDimensions(input);
 10094              		.loc 1 45 0
 10095 00ec 24008DE5 		str	r0, [sp, #36]
 10096              	.LVL1109:
 10097              	.LBB2214:
 10098              	.LBB2213:
 147:C:/Renesas/e2studio_2021_01_workspace_RZA2M_ANPR/ANPR_RZA2M_EBK/src/tensorflow_lite/tensorflow/lite/kernels\kernel_util.h **** inline int SizeOfDimension(const TfLiteTensor* t, int dim) {
 10099              		.loc 9 147 0
 10100 00f0 083093E5 		ldr	r3, [r3, #8]
 10101              	.LVL1110:
 10102 00f4 003093E5 		ldr	r3, [r3]
 10103              	.LBE2213:
 10104              	.LBE2214:
 10105              	.LBE2210:
 10106              	.LBE2209:
 10107              	.LBE2208:
 132:../src/tensorflow_lite/tensorflow/lite/micro/kernels/strided_slice.cc ****                      "input dim should not exceed 4");
 10108              		.loc 1 132 0
 10109 00f8 040053E3 		cmp	r3, #4
 10110              	.LBB2217:
 10111              	.LBB2216:
 10112              	.LBB2215:
  46:../src/tensorflow_lite/tensorflow/lite/micro/kernels/strided_slice.cc ****   }
 10113              		.loc 1 46 0
 10114 00fc 28308DE5 		str	r3, [sp, #40]
 10115              	.LVL1111:
 10116              	.LBE2215:
 10117              	.LBE2216:
 10118              	.LBE2217:
 132:../src/tensorflow_lite/tensorflow/lite/micro/kernels/strided_slice.cc ****                      "input dim should not exceed 4");
 10119              		.loc 1 132 0
 10120 0100 540000CA 		bgt	.L1609
 10121              	.LVL1112:
 10122              	.LBB2218:
 10123              	.LBB2219:
  64:../src/tensorflow_lite/tensorflow/lite/micro/kernels/strided_slice.cc ****   op_params.stop_indices_count = op_context->dims;
 10124              		.loc 1 64 0
 10125 0104 7320AFE6 		sxtb	r2, r3
 10126              	.LBB2220:
  68:../src/tensorflow_lite/tensorflow/lite/micro/kernels/strided_slice.cc ****     op_params.start_indices[i] = GetTensorData<int32_t>(op_context->begin)[i];
 10127              		.loc 1 68 0
 10128 0108 000053E3 		cmp	r3, #0
 10129              	.LBE2220:
  64:../src/tensorflow_lite/tensorflow/lite/micro/kernels/strided_slice.cc ****   op_params.stop_indices_count = op_context->dims;
 10130              		.loc 1 64 0
 10131 010c 2C20CDE5 		strb	r2, [sp, #44]
  65:../src/tensorflow_lite/tensorflow/lite/micro/kernels/strided_slice.cc ****   op_params.strides_count = op_context->dims;
 10132              		.loc 1 65 0
 10133 0110 4420CDE5 		strb	r2, [sp, #68]
  66:../src/tensorflow_lite/tensorflow/lite/micro/kernels/strided_slice.cc **** 
 10134              		.loc 1 66 0
 10135 0114 5C20CDE5 		strb	r2, [sp, #92]
 10136              	.LVL1113:
 10137              	.LBB2221:
  68:../src/tensorflow_lite/tensorflow/lite/micro/kernels/strided_slice.cc ****     op_params.start_indices[i] = GetTensorData<int32_t>(op_context->begin)[i];
 10138              		.loc 1 68 0
 10139 0118 290000DA 		ble	.L1528
 10140 011c 18009DE5 		ldr	r0, [sp, #24]
 10141 0120 1C209DE5 		ldr	r2, [sp, #28]
 10142 0124 20109DE5 		ldr	r1, [sp, #32]
 10143 0128 000050E3 		cmp	r0, #0
 10144 012c 5000000A 		beq	.L1610
 10145 0130 000051E3 		cmp	r1, #0
 10146 0134 7400000A 		beq	.L1611
 10147 0138 000052E3 		cmp	r2, #0
 10148 013c 9600000A 		beq	.L1612
 10149 0140 04C090E5 		ldr	ip, [r0, #4]
 10150 0144 010053E3 		cmp	r3, #1
 10151 0148 040092E5 		ldr	r0, [r2, #4]
 10152 014c 042091E5 		ldr	r2, [r1, #4]
  69:../src/tensorflow_lite/tensorflow/lite/micro/kernels/strided_slice.cc ****     op_params.stop_indices[i] = GetTensorData<int32_t>(op_context->end)[i];
 10153              		.loc 1 69 0
 10154 0150 00109CE5 		ldr	r1, [ip]
 10155 0154 30108DE5 		str	r1, [sp, #48]
  70:../src/tensorflow_lite/tensorflow/lite/micro/kernels/strided_slice.cc ****     op_params.strides[i] = GetTensorData<int32_t>(op_context->strides)[i];
 10156              		.loc 1 70 0
 10157 0158 001090E5 		ldr	r1, [r0]
 10158 015c 48108DE5 		str	r1, [sp, #72]
  71:../src/tensorflow_lite/tensorflow/lite/micro/kernels/strided_slice.cc ****   }
 10159              		.loc 1 71 0
 10160 0160 001092E5 		ldr	r1, [r2]
 10161 0164 60108DE5 		str	r1, [sp, #96]
 10162              	.LVL1114:
  68:../src/tensorflow_lite/tensorflow/lite/micro/kernels/strided_slice.cc ****     op_params.start_indices[i] = GetTensorData<int32_t>(op_context->begin)[i];
 10163              		.loc 1 68 0
 10164 0168 1500000A 		beq	.L1528
  69:../src/tensorflow_lite/tensorflow/lite/micro/kernels/strided_slice.cc ****     op_params.stop_indices[i] = GetTensorData<int32_t>(op_context->end)[i];
 10165              		.loc 1 69 0
 10166 016c 04109CE5 		ldr	r1, [ip, #4]
  68:../src/tensorflow_lite/tensorflow/lite/micro/kernels/strided_slice.cc ****     op_params.start_indices[i] = GetTensorData<int32_t>(op_context->begin)[i];
 10167              		.loc 1 68 0
 10168 0170 020053E3 		cmp	r3, #2
  69:../src/tensorflow_lite/tensorflow/lite/micro/kernels/strided_slice.cc ****     op_params.stop_indices[i] = GetTensorData<int32_t>(op_context->end)[i];
 10169              		.loc 1 69 0
 10170 0174 34108DE5 		str	r1, [sp, #52]
  70:../src/tensorflow_lite/tensorflow/lite/micro/kernels/strided_slice.cc ****     op_params.strides[i] = GetTensorData<int32_t>(op_context->strides)[i];
 10171              		.loc 1 70 0
 10172 0178 041090E5 		ldr	r1, [r0, #4]
 10173 017c 4C108DE5 		str	r1, [sp, #76]
  71:../src/tensorflow_lite/tensorflow/lite/micro/kernels/strided_slice.cc ****   }
 10174              		.loc 1 71 0
 10175 0180 041092E5 		ldr	r1, [r2, #4]
 10176 0184 64108DE5 		str	r1, [sp, #100]
 10177              	.LVL1115:
  68:../src/tensorflow_lite/tensorflow/lite/micro/kernels/strided_slice.cc ****     op_params.start_indices[i] = GetTensorData<int32_t>(op_context->begin)[i];
 10178              		.loc 1 68 0
 10179 0188 0D00000A 		beq	.L1528
  69:../src/tensorflow_lite/tensorflow/lite/micro/kernels/strided_slice.cc ****     op_params.stop_indices[i] = GetTensorData<int32_t>(op_context->end)[i];
 10180              		.loc 1 69 0
 10181 018c 08109CE5 		ldr	r1, [ip, #8]
  68:../src/tensorflow_lite/tensorflow/lite/micro/kernels/strided_slice.cc ****     op_params.start_indices[i] = GetTensorData<int32_t>(op_context->begin)[i];
 10182              		.loc 1 68 0
 10183 0190 030053E3 		cmp	r3, #3
  69:../src/tensorflow_lite/tensorflow/lite/micro/kernels/strided_slice.cc ****     op_params.stop_indices[i] = GetTensorData<int32_t>(op_context->end)[i];
 10184              		.loc 1 69 0
 10185 0194 38108DE5 		str	r1, [sp, #56]
  70:../src/tensorflow_lite/tensorflow/lite/micro/kernels/strided_slice.cc ****     op_params.strides[i] = GetTensorData<int32_t>(op_context->strides)[i];
 10186              		.loc 1 70 0
 10187 0198 083090E5 		ldr	r3, [r0, #8]
 10188 019c 50308DE5 		str	r3, [sp, #80]
  71:../src/tensorflow_lite/tensorflow/lite/micro/kernels/strided_slice.cc ****   }
 10189              		.loc 1 71 0
 10190 01a0 083092E5 		ldr	r3, [r2, #8]
 10191 01a4 68308DE5 		str	r3, [sp, #104]
 10192              	.LVL1116:
  68:../src/tensorflow_lite/tensorflow/lite/micro/kernels/strided_slice.cc ****     op_params.start_indices[i] = GetTensorData<int32_t>(op_context->begin)[i];
 10193              		.loc 1 68 0
 10194 01a8 0500000A 		beq	.L1528
  69:../src/tensorflow_lite/tensorflow/lite/micro/kernels/strided_slice.cc ****     op_params.stop_indices[i] = GetTensorData<int32_t>(op_context->end)[i];
 10195              		.loc 1 69 0
 10196 01ac 0C309CE5 		ldr	r3, [ip, #12]
 10197              	.L1603:
 10198 01b0 3C308DE5 		str	r3, [sp, #60]
  70:../src/tensorflow_lite/tensorflow/lite/micro/kernels/strided_slice.cc ****     op_params.strides[i] = GetTensorData<int32_t>(op_context->strides)[i];
 10199              		.loc 1 70 0
 10200 01b4 0C3090E5 		ldr	r3, [r0, #12]
 10201 01b8 54308DE5 		str	r3, [sp, #84]
  71:../src/tensorflow_lite/tensorflow/lite/micro/kernels/strided_slice.cc ****   }
 10202              		.loc 1 71 0
 10203 01bc 0C3092E5 		ldr	r3, [r2, #12]
 10204 01c0 6C308DE5 		str	r3, [sp, #108]
 10205              	.LVL1117:
 10206              	.L1528:
 10207              	.LBE2221:
  74:../src/tensorflow_lite/tensorflow/lite/micro/kernels/strided_slice.cc ****   op_params.ellipsis_mask = 0;
 10208              		.loc 1 74 0
 10209 01c4 10309DE5 		ldr	r3, [sp, #16]
  75:../src/tensorflow_lite/tensorflow/lite/micro/kernels/strided_slice.cc ****   op_params.end_mask = op_context->params->end_mask;
 10210              		.loc 1 75 0
 10211 01c8 00C0A0E3 		mov	ip, #0
 10212              	.LBE2219:
 10213              	.LBE2218:
 135:../src/tensorflow_lite/tensorflow/lite/micro/kernels/strided_slice.cc ****   return CheckOutputSize(context, &op_context);
 10214              		.loc 1 135 0
 10215 01cc 5420A0E3 		mov	r2, #84
 10216 01d0 2C108DE2 		add	r1, sp, #44
 10217 01d4 0600A0E1 		mov	r0, r6
 10218              	.LBB2225:
 10219              	.LBB2223:
  75:../src/tensorflow_lite/tensorflow/lite/micro/kernels/strided_slice.cc ****   op_params.end_mask = op_context->params->end_mask;
 10220              		.loc 1 75 0
 10221 01d8 B6C7CDE1 		strh	ip, [sp, #118]	@ movhi
  76:../src/tensorflow_lite/tensorflow/lite/micro/kernels/strided_slice.cc ****   op_params.new_axis_mask = 0;
 10222              		.loc 1 76 0
 10223 01dc 104093E8 		ldm	r3, {r4, lr}
 10224              	.LVL1118:
  78:../src/tensorflow_lite/tensorflow/lite/micro/kernels/strided_slice.cc ****   return op_params;
 10225              		.loc 1 78 0
 10226 01e0 103093E5 		ldr	r3, [r3, #16]
  77:../src/tensorflow_lite/tensorflow/lite/micro/kernels/strided_slice.cc ****   op_params.shrink_axis_mask = op_context->params->shrink_axis_mask;
 10227              		.loc 1 77 0
 10228 01e4 BAC7CDE1 		strh	ip, [sp, #122]	@ movhi
  76:../src/tensorflow_lite/tensorflow/lite/micro/kernels/strided_slice.cc ****   op_params.new_axis_mask = 0;
 10229              		.loc 1 76 0
 10230 01e8 B8E7CDE1 		strh	lr, [sp, #120]	@ movhi
  78:../src/tensorflow_lite/tensorflow/lite/micro/kernels/strided_slice.cc ****   return op_params;
 10231              		.loc 1 78 0
 10232 01ec BC37CDE1 		strh	r3, [sp, #124]	@ movhi
 10233              	.LVL1119:
  74:../src/tensorflow_lite/tensorflow/lite/micro/kernels/strided_slice.cc ****   op_params.ellipsis_mask = 0;
 10234              		.loc 1 74 0
 10235 01f0 B447CDE1 		strh	r4, [sp, #116]	@ movhi
 10236              	.LBE2223:
 10237              	.LBE2225:
 135:../src/tensorflow_lite/tensorflow/lite/micro/kernels/strided_slice.cc ****   return CheckOutputSize(context, &op_context);
 10238              		.loc 1 135 0
 10239 01f4 FEFFFFEB 		bl	memcpy
 10240              	.LVL1120:
 136:../src/tensorflow_lite/tensorflow/lite/micro/kernels/strided_slice.cc **** }
 10241              		.loc 1 136 0
 10242 01f8 0500A0E1 		mov	r0, r5
 10243 01fc 10108DE2 		add	r1, sp, #16
 10244 0200 FEFFFFEB 		bl	_ZN6tflite3ops5micro13strided_slice15CheckOutputSizeEP13TfLiteContextPNS2_19StridedSliceContext
 10245              	.LVL1121:
 137:../src/tensorflow_lite/tensorflow/lite/micro/kernels/strided_slice.cc **** 
 10246              		.loc 1 137 0
 10247 0204 84D08DE2 		add	sp, sp, #132
 10248              		.cfi_remember_state
 10249              		.cfi_def_cfa_offset 20
 10250              		@ sp needed
 10251 0208 F080BDE8 		pop	{r4, r5, r6, r7, pc}
 10252              	.LVL1122:
 10253              	.L1608:
 10254              		.cfi_restore_state
 129:../src/tensorflow_lite/tensorflow/lite/micro/kernels/strided_slice.cc ****   TF_LITE_ENSURE_EQ(context, NumOutputs(node), 1);
 10255              		.loc 1 129 0 discriminator 1
 10256 020c 00E000E3 		movw	lr, #:lower16:.LC9
 10257 0210 00C000E3 		movw	ip, #:lower16:.LC10
 10258 0214 00E040E3 		movt	lr, #:upper16:.LC9
 10259 0218 00C040E3 		movt	ip, #:upper16:.LC10
 10260 021c 0460A0E3 		mov	r6, #4
 10261              	.LVL1123:
 10262 0220 002000E3 		movw	r2, #:lower16:.LC3
 10263 0224 001000E3 		movw	r1, #:lower16:.LC4
 10264              	.LVL1124:
 10265 0228 08308DE5 		str	r3, [sp, #8]
 10266              	.LVL1125:
 10267 022c 002040E3 		movt	r2, #:upper16:.LC3
 10268 0230 144090E5 		ldr	r4, [r0, #20]
 10269              	.LVL1126:
 10270 0234 001040E3 		movt	r1, #:upper16:.LC4
 10271 0238 04E08DE5 		str	lr, [sp, #4]
 10272 023c 00C08DE5 		str	ip, [sp]
 10273 0240 8130A0E3 		mov	r3, #129
 10274 0244 0C608DE5 		str	r6, [sp, #12]
 10275 0248 34FF2FE1 		blx	r4
 10276              	.LVL1127:
 10277 024c 0100A0E3 		mov	r0, #1
 137:../src/tensorflow_lite/tensorflow/lite/micro/kernels/strided_slice.cc **** 
 10278              		.loc 1 137 0 discriminator 1
 10279 0250 84D08DE2 		add	sp, sp, #132
 10280              		.cfi_remember_state
 10281              		.cfi_def_cfa_offset 20
 10282              		@ sp needed
 10283 0254 F080BDE8 		pop	{r4, r5, r6, r7, pc}
 10284              	.LVL1128:
 10285              	.L1609:
 10286              		.cfi_restore_state
 132:../src/tensorflow_lite/tensorflow/lite/micro/kernels/strided_slice.cc ****                      "input dim should not exceed 4");
 10287              		.loc 1 132 0 discriminator 1
 10288 0258 001000E3 		movw	r1, #:lower16:.LC13
 10289 025c 0500A0E1 		mov	r0, r5
 10290 0260 143095E5 		ldr	r3, [r5, #20]
 10291 0264 001040E3 		movt	r1, #:upper16:.LC13
 10292 0268 33FF2FE1 		blx	r3
 10293              	.LVL1129:
 10294 026c 0700A0E1 		mov	r0, r7
 10295 0270 82FFFFEA 		b	.L1516
 10296              	.LVL1130:
 10297              	.L1610:
 10298 0274 000051E3 		cmp	r1, #0
 10299 0278 5C00000A 		beq	.L1613
 10300 027c 000052E3 		cmp	r2, #0
 10301 0280 7800000A 		beq	.L1614
 10302              	.LBB2226:
 10303              	.LBB2224:
 10304              	.LBB2222:
  69:../src/tensorflow_lite/tensorflow/lite/micro/kernels/strided_slice.cc ****     op_params.stop_indices[i] = GetTensorData<int32_t>(op_context->end)[i];
 10305              		.loc 1 69 0
 10306 0284 00E090E5 		ldr	lr, [r0]
  68:../src/tensorflow_lite/tensorflow/lite/micro/kernels/strided_slice.cc ****     op_params.start_indices[i] = GetTensorData<int32_t>(op_context->begin)[i];
 10307              		.loc 1 68 0
 10308 0288 010053E3 		cmp	r3, #1
 10309 028c 04C092E5 		ldr	ip, [r2, #4]
 10310 0290 042091E5 		ldr	r2, [r1, #4]
  69:../src/tensorflow_lite/tensorflow/lite/micro/kernels/strided_slice.cc ****     op_params.stop_indices[i] = GetTensorData<int32_t>(op_context->end)[i];
 10311              		.loc 1 69 0
 10312 0294 30E08DE5 		str	lr, [sp, #48]
  70:../src/tensorflow_lite/tensorflow/lite/micro/kernels/strided_slice.cc ****     op_params.strides[i] = GetTensorData<int32_t>(op_context->strides)[i];
 10313              		.loc 1 70 0
 10314 0298 00109CE5 		ldr	r1, [ip]
 10315 029c 48108DE5 		str	r1, [sp, #72]
  71:../src/tensorflow_lite/tensorflow/lite/micro/kernels/strided_slice.cc ****   }
 10316              		.loc 1 71 0
 10317 02a0 001092E5 		ldr	r1, [r2]
 10318 02a4 60108DE5 		str	r1, [sp, #96]
 10319              	.LVL1131:
  68:../src/tensorflow_lite/tensorflow/lite/micro/kernels/strided_slice.cc ****     op_params.start_indices[i] = GetTensorData<int32_t>(op_context->begin)[i];
 10320              		.loc 1 68 0
 10321 02a8 C5FFFF0A 		beq	.L1528
  69:../src/tensorflow_lite/tensorflow/lite/micro/kernels/strided_slice.cc ****     op_params.stop_indices[i] = GetTensorData<int32_t>(op_context->end)[i];
 10322              		.loc 1 69 0
 10323 02ac 041090E5 		ldr	r1, [r0, #4]
  68:../src/tensorflow_lite/tensorflow/lite/micro/kernels/strided_slice.cc ****     op_params.start_indices[i] = GetTensorData<int32_t>(op_context->begin)[i];
 10324              		.loc 1 68 0
 10325 02b0 020053E3 		cmp	r3, #2
  69:../src/tensorflow_lite/tensorflow/lite/micro/kernels/strided_slice.cc ****     op_params.stop_indices[i] = GetTensorData<int32_t>(op_context->end)[i];
 10326              		.loc 1 69 0
 10327 02b4 34108DE5 		str	r1, [sp, #52]
  70:../src/tensorflow_lite/tensorflow/lite/micro/kernels/strided_slice.cc ****     op_params.strides[i] = GetTensorData<int32_t>(op_context->strides)[i];
 10328              		.loc 1 70 0
 10329 02b8 04109CE5 		ldr	r1, [ip, #4]
 10330 02bc 4C108DE5 		str	r1, [sp, #76]
  71:../src/tensorflow_lite/tensorflow/lite/micro/kernels/strided_slice.cc ****   }
 10331              		.loc 1 71 0
 10332 02c0 041092E5 		ldr	r1, [r2, #4]
 10333 02c4 64108DE5 		str	r1, [sp, #100]
 10334              	.LVL1132:
  68:../src/tensorflow_lite/tensorflow/lite/micro/kernels/strided_slice.cc ****     op_params.start_indices[i] = GetTensorData<int32_t>(op_context->begin)[i];
 10335              		.loc 1 68 0
 10336 02c8 BDFFFF0A 		beq	.L1528
  69:../src/tensorflow_lite/tensorflow/lite/micro/kernels/strided_slice.cc ****     op_params.stop_indices[i] = GetTensorData<int32_t>(op_context->end)[i];
 10337              		.loc 1 69 0
 10338 02cc 0010A0E3 		mov	r1, #0
  68:../src/tensorflow_lite/tensorflow/lite/micro/kernels/strided_slice.cc ****     op_params.start_indices[i] = GetTensorData<int32_t>(op_context->begin)[i];
 10339              		.loc 1 68 0
 10340 02d0 030053E3 		cmp	r3, #3
  69:../src/tensorflow_lite/tensorflow/lite/micro/kernels/strided_slice.cc ****     op_params.stop_indices[i] = GetTensorData<int32_t>(op_context->end)[i];
 10341              		.loc 1 69 0
 10342 02d4 083091E5 		ldr	r3, [r1, #8]
 10343 02d8 38308DE5 		str	r3, [sp, #56]
  70:../src/tensorflow_lite/tensorflow/lite/micro/kernels/strided_slice.cc ****     op_params.strides[i] = GetTensorData<int32_t>(op_context->strides)[i];
 10344              		.loc 1 70 0
 10345 02dc 08309CE5 		ldr	r3, [ip, #8]
 10346 02e0 50308DE5 		str	r3, [sp, #80]
  71:../src/tensorflow_lite/tensorflow/lite/micro/kernels/strided_slice.cc ****   }
 10347              		.loc 1 71 0
 10348 02e4 083092E5 		ldr	r3, [r2, #8]
 10349 02e8 68308DE5 		str	r3, [sp, #104]
 10350              	.LVL1133:
  68:../src/tensorflow_lite/tensorflow/lite/micro/kernels/strided_slice.cc ****     op_params.start_indices[i] = GetTensorData<int32_t>(op_context->begin)[i];
 10351              		.loc 1 68 0
 10352 02ec B4FFFF0A 		beq	.L1528
  69:../src/tensorflow_lite/tensorflow/lite/micro/kernels/strided_slice.cc ****     op_params.stop_indices[i] = GetTensorData<int32_t>(op_context->end)[i];
 10353              		.loc 1 69 0
 10354 02f0 0C3091E5 		ldr	r3, [r1, #12]
 10355 02f4 3C308DE5 		str	r3, [sp, #60]
  70:../src/tensorflow_lite/tensorflow/lite/micro/kernels/strided_slice.cc ****     op_params.strides[i] = GetTensorData<int32_t>(op_context->strides)[i];
 10356              		.loc 1 70 0
 10357 02f8 0C309CE5 		ldr	r3, [ip, #12]
 10358 02fc 54308DE5 		str	r3, [sp, #84]
  71:../src/tensorflow_lite/tensorflow/lite/micro/kernels/strided_slice.cc ****   }
 10359              		.loc 1 71 0
 10360 0300 0C3092E5 		ldr	r3, [r2, #12]
 10361 0304 6C308DE5 		str	r3, [sp, #108]
 10362              	.LVL1134:
 10363 0308 ADFFFFEA 		b	.L1528
 10364              	.LVL1135:
 10365              	.L1611:
 10366 030c 000052E3 		cmp	r2, #0
 10367 0310 7000000A 		beq	.L1615
 10368 0314 040090E5 		ldr	r0, [r0, #4]
  68:../src/tensorflow_lite/tensorflow/lite/micro/kernels/strided_slice.cc ****     op_params.start_indices[i] = GetTensorData<int32_t>(op_context->begin)[i];
 10369              		.loc 1 68 0
 10370 0318 010053E3 		cmp	r3, #1
 10371 031c 042092E5 		ldr	r2, [r2, #4]
  69:../src/tensorflow_lite/tensorflow/lite/micro/kernels/strided_slice.cc ****     op_params.stop_indices[i] = GetTensorData<int32_t>(op_context->end)[i];
 10372              		.loc 1 69 0
 10373 0320 00C090E5 		ldr	ip, [r0]
 10374 0324 30C08DE5 		str	ip, [sp, #48]
  70:../src/tensorflow_lite/tensorflow/lite/micro/kernels/strided_slice.cc ****     op_params.strides[i] = GetTensorData<int32_t>(op_context->strides)[i];
 10375              		.loc 1 70 0
 10376 0328 00C092E5 		ldr	ip, [r2]
 10377 032c 48C08DE5 		str	ip, [sp, #72]
  71:../src/tensorflow_lite/tensorflow/lite/micro/kernels/strided_slice.cc ****   }
 10378              		.loc 1 71 0
 10379 0330 00C091E5 		ldr	ip, [r1]
 10380 0334 60C08DE5 		str	ip, [sp, #96]
 10381              	.LVL1136:
  68:../src/tensorflow_lite/tensorflow/lite/micro/kernels/strided_slice.cc ****     op_params.start_indices[i] = GetTensorData<int32_t>(op_context->begin)[i];
 10382              		.loc 1 68 0
 10383 0338 A1FFFF0A 		beq	.L1528
  69:../src/tensorflow_lite/tensorflow/lite/micro/kernels/strided_slice.cc ****     op_params.stop_indices[i] = GetTensorData<int32_t>(op_context->end)[i];
 10384              		.loc 1 69 0
 10385 033c 04C090E5 		ldr	ip, [r0, #4]
  68:../src/tensorflow_lite/tensorflow/lite/micro/kernels/strided_slice.cc ****     op_params.start_indices[i] = GetTensorData<int32_t>(op_context->begin)[i];
 10386              		.loc 1 68 0
 10387 0340 020053E3 		cmp	r3, #2
  69:../src/tensorflow_lite/tensorflow/lite/micro/kernels/strided_slice.cc ****     op_params.stop_indices[i] = GetTensorData<int32_t>(op_context->end)[i];
 10388              		.loc 1 69 0
 10389 0344 34C08DE5 		str	ip, [sp, #52]
  70:../src/tensorflow_lite/tensorflow/lite/micro/kernels/strided_slice.cc ****     op_params.strides[i] = GetTensorData<int32_t>(op_context->strides)[i];
 10390              		.loc 1 70 0
 10391 0348 04C092E5 		ldr	ip, [r2, #4]
 10392 034c 4CC08DE5 		str	ip, [sp, #76]
  71:../src/tensorflow_lite/tensorflow/lite/micro/kernels/strided_slice.cc ****   }
 10393              		.loc 1 71 0
 10394 0350 041091E5 		ldr	r1, [r1, #4]
 10395 0354 64108DE5 		str	r1, [sp, #100]
 10396              	.LVL1137:
  68:../src/tensorflow_lite/tensorflow/lite/micro/kernels/strided_slice.cc ****     op_params.start_indices[i] = GetTensorData<int32_t>(op_context->begin)[i];
 10397              		.loc 1 68 0
 10398 0358 99FFFF0A 		beq	.L1528
  69:../src/tensorflow_lite/tensorflow/lite/micro/kernels/strided_slice.cc ****     op_params.stop_indices[i] = GetTensorData<int32_t>(op_context->end)[i];
 10399              		.loc 1 69 0
 10400 035c 08C090E5 		ldr	ip, [r0, #8]
  71:../src/tensorflow_lite/tensorflow/lite/micro/kernels/strided_slice.cc ****   }
 10401              		.loc 1 71 0
 10402 0360 0010A0E3 		mov	r1, #0
 10403              	.L1606:
  69:../src/tensorflow_lite/tensorflow/lite/micro/kernels/strided_slice.cc ****     op_params.stop_indices[i] = GetTensorData<int32_t>(op_context->end)[i];
 10404              		.loc 1 69 0
 10405 0364 38C08DE5 		str	ip, [sp, #56]
  68:../src/tensorflow_lite/tensorflow/lite/micro/kernels/strided_slice.cc ****     op_params.start_indices[i] = GetTensorData<int32_t>(op_context->begin)[i];
 10406              		.loc 1 68 0
 10407 0368 030053E3 		cmp	r3, #3
  70:../src/tensorflow_lite/tensorflow/lite/micro/kernels/strided_slice.cc ****     op_params.strides[i] = GetTensorData<int32_t>(op_context->strides)[i];
 10408              		.loc 1 70 0
 10409 036c 083092E5 		ldr	r3, [r2, #8]
 10410 0370 50308DE5 		str	r3, [sp, #80]
  71:../src/tensorflow_lite/tensorflow/lite/micro/kernels/strided_slice.cc ****   }
 10411              		.loc 1 71 0
 10412 0374 083091E5 		ldr	r3, [r1, #8]
 10413 0378 68308DE5 		str	r3, [sp, #104]
 10414              	.LVL1138:
  68:../src/tensorflow_lite/tensorflow/lite/micro/kernels/strided_slice.cc ****     op_params.start_indices[i] = GetTensorData<int32_t>(op_context->begin)[i];
 10415              		.loc 1 68 0
 10416 037c 90FFFF0A 		beq	.L1528
  69:../src/tensorflow_lite/tensorflow/lite/micro/kernels/strided_slice.cc ****     op_params.stop_indices[i] = GetTensorData<int32_t>(op_context->end)[i];
 10417              		.loc 1 69 0
 10418 0380 0C3090E5 		ldr	r3, [r0, #12]
 10419              	.L1604:
 10420 0384 3C308DE5 		str	r3, [sp, #60]
  70:../src/tensorflow_lite/tensorflow/lite/micro/kernels/strided_slice.cc ****     op_params.strides[i] = GetTensorData<int32_t>(op_context->strides)[i];
 10421              		.loc 1 70 0
 10422 0388 0C3092E5 		ldr	r3, [r2, #12]
 10423 038c 54308DE5 		str	r3, [sp, #84]
  71:../src/tensorflow_lite/tensorflow/lite/micro/kernels/strided_slice.cc ****   }
 10424              		.loc 1 71 0
 10425 0390 0C3091E5 		ldr	r3, [r1, #12]
 10426 0394 6C308DE5 		str	r3, [sp, #108]
 10427              	.LVL1139:
 10428 0398 89FFFFEA 		b	.L1528
 10429              	.LVL1140:
 10430              	.L1612:
 10431 039c 040090E5 		ldr	r0, [r0, #4]
  68:../src/tensorflow_lite/tensorflow/lite/micro/kernels/strided_slice.cc ****     op_params.start_indices[i] = GetTensorData<int32_t>(op_context->begin)[i];
 10432              		.loc 1 68 0
 10433 03a0 010053E3 		cmp	r3, #1
 10434 03a4 041091E5 		ldr	r1, [r1, #4]
  69:../src/tensorflow_lite/tensorflow/lite/micro/kernels/strided_slice.cc ****     op_params.stop_indices[i] = GetTensorData<int32_t>(op_context->end)[i];
 10435              		.loc 1 69 0
 10436 03a8 00C090E5 		ldr	ip, [r0]
 10437 03ac 30C08DE5 		str	ip, [sp, #48]
  70:../src/tensorflow_lite/tensorflow/lite/micro/kernels/strided_slice.cc ****     op_params.strides[i] = GetTensorData<int32_t>(op_context->strides)[i];
 10438              		.loc 1 70 0
 10439 03b0 00C092E5 		ldr	ip, [r2]
 10440 03b4 48C08DE5 		str	ip, [sp, #72]
  71:../src/tensorflow_lite/tensorflow/lite/micro/kernels/strided_slice.cc ****   }
 10441              		.loc 1 71 0
 10442 03b8 00C091E5 		ldr	ip, [r1]
 10443 03bc 60C08DE5 		str	ip, [sp, #96]
 10444              	.LVL1141:
  68:../src/tensorflow_lite/tensorflow/lite/micro/kernels/strided_slice.cc ****     op_params.start_indices[i] = GetTensorData<int32_t>(op_context->begin)[i];
 10445              		.loc 1 68 0
 10446 03c0 7FFFFF0A 		beq	.L1528
  69:../src/tensorflow_lite/tensorflow/lite/micro/kernels/strided_slice.cc ****     op_params.stop_indices[i] = GetTensorData<int32_t>(op_context->end)[i];
 10447              		.loc 1 69 0
 10448 03c4 04C090E5 		ldr	ip, [r0, #4]
  68:../src/tensorflow_lite/tensorflow/lite/micro/kernels/strided_slice.cc ****     op_params.start_indices[i] = GetTensorData<int32_t>(op_context->begin)[i];
 10449              		.loc 1 68 0
 10450 03c8 020053E3 		cmp	r3, #2
  69:../src/tensorflow_lite/tensorflow/lite/micro/kernels/strided_slice.cc ****     op_params.stop_indices[i] = GetTensorData<int32_t>(op_context->end)[i];
 10451              		.loc 1 69 0
 10452 03cc 34C08DE5 		str	ip, [sp, #52]
  70:../src/tensorflow_lite/tensorflow/lite/micro/kernels/strided_slice.cc ****     op_params.strides[i] = GetTensorData<int32_t>(op_context->strides)[i];
 10453              		.loc 1 70 0
 10454 03d0 042092E5 		ldr	r2, [r2, #4]
 10455 03d4 4C208DE5 		str	r2, [sp, #76]
  71:../src/tensorflow_lite/tensorflow/lite/micro/kernels/strided_slice.cc ****   }
 10456              		.loc 1 71 0
 10457 03d8 042091E5 		ldr	r2, [r1, #4]
 10458 03dc 64208DE5 		str	r2, [sp, #100]
 10459              	.LVL1142:
  68:../src/tensorflow_lite/tensorflow/lite/micro/kernels/strided_slice.cc ****     op_params.start_indices[i] = GetTensorData<int32_t>(op_context->begin)[i];
 10460              		.loc 1 68 0
 10461 03e0 77FFFF0A 		beq	.L1528
  69:../src/tensorflow_lite/tensorflow/lite/micro/kernels/strided_slice.cc ****     op_params.stop_indices[i] = GetTensorData<int32_t>(op_context->end)[i];
 10462              		.loc 1 69 0
 10463 03e4 08C090E5 		ldr	ip, [r0, #8]
  70:../src/tensorflow_lite/tensorflow/lite/micro/kernels/strided_slice.cc ****     op_params.strides[i] = GetTensorData<int32_t>(op_context->strides)[i];
 10464              		.loc 1 70 0
 10465 03e8 0020A0E3 		mov	r2, #0
 10466 03ec DCFFFFEA 		b	.L1606
 10467              	.LVL1143:
 10468              	.L1613:
 10469 03f0 000052E3 		cmp	r2, #0
 10470 03f4 5800000A 		beq	.L1616
 10471 03f8 040092E5 		ldr	r0, [r2, #4]
  68:../src/tensorflow_lite/tensorflow/lite/micro/kernels/strided_slice.cc ****     op_params.start_indices[i] = GetTensorData<int32_t>(op_context->begin)[i];
 10472              		.loc 1 68 0
 10473 03fc 010053E3 		cmp	r3, #1
  69:../src/tensorflow_lite/tensorflow/lite/micro/kernels/strided_slice.cc ****     op_params.stop_indices[i] = GetTensorData<int32_t>(op_context->end)[i];
 10474              		.loc 1 69 0
 10475 0400 002091E5 		ldr	r2, [r1]
 10476 0404 30208DE5 		str	r2, [sp, #48]
  70:../src/tensorflow_lite/tensorflow/lite/micro/kernels/strided_slice.cc ****     op_params.strides[i] = GetTensorData<int32_t>(op_context->strides)[i];
 10477              		.loc 1 70 0
 10478 0408 002090E5 		ldr	r2, [r0]
 10479 040c 48208DE5 		str	r2, [sp, #72]
  71:../src/tensorflow_lite/tensorflow/lite/micro/kernels/strided_slice.cc ****   }
 10480              		.loc 1 71 0
 10481 0410 002091E5 		ldr	r2, [r1]
 10482 0414 60208DE5 		str	r2, [sp, #96]
 10483              	.LVL1144:
  68:../src/tensorflow_lite/tensorflow/lite/micro/kernels/strided_slice.cc ****     op_params.start_indices[i] = GetTensorData<int32_t>(op_context->begin)[i];
 10484              		.loc 1 68 0
 10485 0418 69FFFF0A 		beq	.L1528
  69:../src/tensorflow_lite/tensorflow/lite/micro/kernels/strided_slice.cc ****     op_params.stop_indices[i] = GetTensorData<int32_t>(op_context->end)[i];
 10486              		.loc 1 69 0
 10487 041c 042091E5 		ldr	r2, [r1, #4]
  68:../src/tensorflow_lite/tensorflow/lite/micro/kernels/strided_slice.cc ****     op_params.start_indices[i] = GetTensorData<int32_t>(op_context->begin)[i];
 10488              		.loc 1 68 0
 10489 0420 020053E3 		cmp	r3, #2
  69:../src/tensorflow_lite/tensorflow/lite/micro/kernels/strided_slice.cc ****     op_params.stop_indices[i] = GetTensorData<int32_t>(op_context->end)[i];
 10490              		.loc 1 69 0
 10491 0424 34208DE5 		str	r2, [sp, #52]
  70:../src/tensorflow_lite/tensorflow/lite/micro/kernels/strided_slice.cc ****     op_params.strides[i] = GetTensorData<int32_t>(op_context->strides)[i];
 10492              		.loc 1 70 0
 10493 0428 042090E5 		ldr	r2, [r0, #4]
 10494 042c 4C208DE5 		str	r2, [sp, #76]
  71:../src/tensorflow_lite/tensorflow/lite/micro/kernels/strided_slice.cc ****   }
 10495              		.loc 1 71 0
 10496 0430 042091E5 		ldr	r2, [r1, #4]
 10497 0434 64208DE5 		str	r2, [sp, #100]
 10498              	.LVL1145:
  68:../src/tensorflow_lite/tensorflow/lite/micro/kernels/strided_slice.cc ****     op_params.start_indices[i] = GetTensorData<int32_t>(op_context->begin)[i];
 10499              		.loc 1 68 0
 10500 0438 61FFFF0A 		beq	.L1528
  69:../src/tensorflow_lite/tensorflow/lite/micro/kernels/strided_slice.cc ****     op_params.stop_indices[i] = GetTensorData<int32_t>(op_context->end)[i];
 10501              		.loc 1 69 0
 10502 043c 0020A0E3 		mov	r2, #0
  68:../src/tensorflow_lite/tensorflow/lite/micro/kernels/strided_slice.cc ****     op_params.start_indices[i] = GetTensorData<int32_t>(op_context->begin)[i];
 10503              		.loc 1 68 0
 10504 0440 030053E3 		cmp	r3, #3
  69:../src/tensorflow_lite/tensorflow/lite/micro/kernels/strided_slice.cc ****     op_params.stop_indices[i] = GetTensorData<int32_t>(op_context->end)[i];
 10505              		.loc 1 69 0
 10506 0444 083092E5 		ldr	r3, [r2, #8]
 10507 0448 38308DE5 		str	r3, [sp, #56]
  70:../src/tensorflow_lite/tensorflow/lite/micro/kernels/strided_slice.cc ****     op_params.strides[i] = GetTensorData<int32_t>(op_context->strides)[i];
 10508              		.loc 1 70 0
 10509 044c 083090E5 		ldr	r3, [r0, #8]
 10510 0450 50308DE5 		str	r3, [sp, #80]
  71:../src/tensorflow_lite/tensorflow/lite/micro/kernels/strided_slice.cc ****   }
 10511              		.loc 1 71 0
 10512 0454 083092E5 		ldr	r3, [r2, #8]
 10513 0458 68308DE5 		str	r3, [sp, #104]
 10514              	.LVL1146:
  68:../src/tensorflow_lite/tensorflow/lite/micro/kernels/strided_slice.cc ****     op_params.start_indices[i] = GetTensorData<int32_t>(op_context->begin)[i];
 10515              		.loc 1 68 0
 10516 045c 58FFFF0A 		beq	.L1528
  69:../src/tensorflow_lite/tensorflow/lite/micro/kernels/strided_slice.cc ****     op_params.stop_indices[i] = GetTensorData<int32_t>(op_context->end)[i];
 10517              		.loc 1 69 0
 10518 0460 0C3092E5 		ldr	r3, [r2, #12]
 10519 0464 51FFFFEA 		b	.L1603
 10520              	.LVL1147:
 10521              	.L1614:
 10522 0468 000092E5 		ldr	r0, [r2]
  68:../src/tensorflow_lite/tensorflow/lite/micro/kernels/strided_slice.cc ****     op_params.start_indices[i] = GetTensorData<int32_t>(op_context->begin)[i];
 10523              		.loc 1 68 0
 10524 046c 010053E3 		cmp	r3, #1
 10525 0470 041091E5 		ldr	r1, [r1, #4]
  69:../src/tensorflow_lite/tensorflow/lite/micro/kernels/strided_slice.cc ****     op_params.stop_indices[i] = GetTensorData<int32_t>(op_context->end)[i];
 10526              		.loc 1 69 0
 10527 0474 30008DE5 		str	r0, [sp, #48]
  70:../src/tensorflow_lite/tensorflow/lite/micro/kernels/strided_slice.cc ****     op_params.strides[i] = GetTensorData<int32_t>(op_context->strides)[i];
 10528              		.loc 1 70 0
 10529 0478 000092E5 		ldr	r0, [r2]
 10530 047c 48008DE5 		str	r0, [sp, #72]
  71:../src/tensorflow_lite/tensorflow/lite/micro/kernels/strided_slice.cc ****   }
 10531              		.loc 1 71 0
 10532 0480 000091E5 		ldr	r0, [r1]
 10533 0484 60008DE5 		str	r0, [sp, #96]
 10534              	.LVL1148:
  68:../src/tensorflow_lite/tensorflow/lite/micro/kernels/strided_slice.cc ****     op_params.start_indices[i] = GetTensorData<int32_t>(op_context->begin)[i];
 10535              		.loc 1 68 0
 10536 0488 4DFFFF0A 		beq	.L1528
  69:../src/tensorflow_lite/tensorflow/lite/micro/kernels/strided_slice.cc ****     op_params.stop_indices[i] = GetTensorData<int32_t>(op_context->end)[i];
 10537              		.loc 1 69 0
 10538 048c 040092E5 		ldr	r0, [r2, #4]
  68:../src/tensorflow_lite/tensorflow/lite/micro/kernels/strided_slice.cc ****     op_params.start_indices[i] = GetTensorData<int32_t>(op_context->begin)[i];
 10539              		.loc 1 68 0
 10540 0490 020053E3 		cmp	r3, #2
  69:../src/tensorflow_lite/tensorflow/lite/micro/kernels/strided_slice.cc ****     op_params.stop_indices[i] = GetTensorData<int32_t>(op_context->end)[i];
 10541              		.loc 1 69 0
 10542 0494 34008DE5 		str	r0, [sp, #52]
  70:../src/tensorflow_lite/tensorflow/lite/micro/kernels/strided_slice.cc ****     op_params.strides[i] = GetTensorData<int32_t>(op_context->strides)[i];
 10543              		.loc 1 70 0
 10544 0498 042092E5 		ldr	r2, [r2, #4]
 10545 049c 4C208DE5 		str	r2, [sp, #76]
  71:../src/tensorflow_lite/tensorflow/lite/micro/kernels/strided_slice.cc ****   }
 10546              		.loc 1 71 0
 10547 04a0 042091E5 		ldr	r2, [r1, #4]
 10548 04a4 64208DE5 		str	r2, [sp, #100]
 10549              	.LVL1149:
  68:../src/tensorflow_lite/tensorflow/lite/micro/kernels/strided_slice.cc ****     op_params.start_indices[i] = GetTensorData<int32_t>(op_context->begin)[i];
 10550              		.loc 1 68 0
 10551 04a8 45FFFF0A 		beq	.L1528
  69:../src/tensorflow_lite/tensorflow/lite/micro/kernels/strided_slice.cc ****     op_params.stop_indices[i] = GetTensorData<int32_t>(op_context->end)[i];
 10552              		.loc 1 69 0
 10553 04ac 0020A0E3 		mov	r2, #0
  68:../src/tensorflow_lite/tensorflow/lite/micro/kernels/strided_slice.cc ****     op_params.start_indices[i] = GetTensorData<int32_t>(op_context->begin)[i];
 10554              		.loc 1 68 0
 10555 04b0 030053E3 		cmp	r3, #3
  69:../src/tensorflow_lite/tensorflow/lite/micro/kernels/strided_slice.cc ****     op_params.stop_indices[i] = GetTensorData<int32_t>(op_context->end)[i];
 10556              		.loc 1 69 0
 10557 04b4 083092E5 		ldr	r3, [r2, #8]
 10558 04b8 38308DE5 		str	r3, [sp, #56]
  70:../src/tensorflow_lite/tensorflow/lite/micro/kernels/strided_slice.cc ****     op_params.strides[i] = GetTensorData<int32_t>(op_context->strides)[i];
 10559              		.loc 1 70 0
 10560 04bc 083092E5 		ldr	r3, [r2, #8]
 10561 04c0 50308DE5 		str	r3, [sp, #80]
  71:../src/tensorflow_lite/tensorflow/lite/micro/kernels/strided_slice.cc ****   }
 10562              		.loc 1 71 0
 10563 04c4 083091E5 		ldr	r3, [r1, #8]
 10564 04c8 68308DE5 		str	r3, [sp, #104]
 10565              	.LVL1150:
  68:../src/tensorflow_lite/tensorflow/lite/micro/kernels/strided_slice.cc ****     op_params.start_indices[i] = GetTensorData<int32_t>(op_context->begin)[i];
 10566              		.loc 1 68 0
 10567 04cc 3CFFFF0A 		beq	.L1528
  69:../src/tensorflow_lite/tensorflow/lite/micro/kernels/strided_slice.cc ****     op_params.stop_indices[i] = GetTensorData<int32_t>(op_context->end)[i];
 10568              		.loc 1 69 0
 10569 04d0 0C3092E5 		ldr	r3, [r2, #12]
 10570 04d4 AAFFFFEA 		b	.L1604
 10571              	.LVL1151:
 10572              	.L1615:
 10573 04d8 041090E5 		ldr	r1, [r0, #4]
  68:../src/tensorflow_lite/tensorflow/lite/micro/kernels/strided_slice.cc ****     op_params.start_indices[i] = GetTensorData<int32_t>(op_context->begin)[i];
 10574              		.loc 1 68 0
 10575 04dc 010053E3 		cmp	r3, #1
  69:../src/tensorflow_lite/tensorflow/lite/micro/kernels/strided_slice.cc ****     op_params.stop_indices[i] = GetTensorData<int32_t>(op_context->end)[i];
 10576              		.loc 1 69 0
 10577 04e0 000091E5 		ldr	r0, [r1]
 10578 04e4 30008DE5 		str	r0, [sp, #48]
  70:../src/tensorflow_lite/tensorflow/lite/micro/kernels/strided_slice.cc ****     op_params.strides[i] = GetTensorData<int32_t>(op_context->strides)[i];
 10579              		.loc 1 70 0
 10580 04e8 000092E5 		ldr	r0, [r2]
 10581 04ec 48008DE5 		str	r0, [sp, #72]
  71:../src/tensorflow_lite/tensorflow/lite/micro/kernels/strided_slice.cc ****   }
 10582              		.loc 1 71 0
 10583 04f0 000092E5 		ldr	r0, [r2]
 10584 04f4 60008DE5 		str	r0, [sp, #96]
 10585              	.LVL1152:
  68:../src/tensorflow_lite/tensorflow/lite/micro/kernels/strided_slice.cc ****     op_params.start_indices[i] = GetTensorData<int32_t>(op_context->begin)[i];
 10586              		.loc 1 68 0
 10587 04f8 31FFFF0A 		beq	.L1528
  69:../src/tensorflow_lite/tensorflow/lite/micro/kernels/strided_slice.cc ****     op_params.stop_indices[i] = GetTensorData<int32_t>(op_context->end)[i];
 10588              		.loc 1 69 0
 10589 04fc 040091E5 		ldr	r0, [r1, #4]
  68:../src/tensorflow_lite/tensorflow/lite/micro/kernels/strided_slice.cc ****     op_params.start_indices[i] = GetTensorData<int32_t>(op_context->begin)[i];
 10590              		.loc 1 68 0
 10591 0500 020053E3 		cmp	r3, #2
  69:../src/tensorflow_lite/tensorflow/lite/micro/kernels/strided_slice.cc ****     op_params.stop_indices[i] = GetTensorData<int32_t>(op_context->end)[i];
 10592              		.loc 1 69 0
 10593 0504 34008DE5 		str	r0, [sp, #52]
  70:../src/tensorflow_lite/tensorflow/lite/micro/kernels/strided_slice.cc ****     op_params.strides[i] = GetTensorData<int32_t>(op_context->strides)[i];
 10594              		.loc 1 70 0
 10595 0508 040092E5 		ldr	r0, [r2, #4]
 10596 050c 4C008DE5 		str	r0, [sp, #76]
  71:../src/tensorflow_lite/tensorflow/lite/micro/kernels/strided_slice.cc ****   }
 10597              		.loc 1 71 0
 10598 0510 042092E5 		ldr	r2, [r2, #4]
 10599 0514 64208DE5 		str	r2, [sp, #100]
 10600              	.LVL1153:
  68:../src/tensorflow_lite/tensorflow/lite/micro/kernels/strided_slice.cc ****     op_params.start_indices[i] = GetTensorData<int32_t>(op_context->begin)[i];
 10601              		.loc 1 68 0
 10602 0518 29FFFF0A 		beq	.L1528
  69:../src/tensorflow_lite/tensorflow/lite/micro/kernels/strided_slice.cc ****     op_params.stop_indices[i] = GetTensorData<int32_t>(op_context->end)[i];
 10603              		.loc 1 69 0
 10604 051c 080091E5 		ldr	r0, [r1, #8]
  70:../src/tensorflow_lite/tensorflow/lite/micro/kernels/strided_slice.cc ****     op_params.strides[i] = GetTensorData<int32_t>(op_context->strides)[i];
 10605              		.loc 1 70 0
 10606 0520 0020A0E3 		mov	r2, #0
  68:../src/tensorflow_lite/tensorflow/lite/micro/kernels/strided_slice.cc ****     op_params.start_indices[i] = GetTensorData<int32_t>(op_context->begin)[i];
 10607              		.loc 1 68 0
 10608 0524 030053E3 		cmp	r3, #3
  69:../src/tensorflow_lite/tensorflow/lite/micro/kernels/strided_slice.cc ****     op_params.stop_indices[i] = GetTensorData<int32_t>(op_context->end)[i];
 10609              		.loc 1 69 0
 10610 0528 38008DE5 		str	r0, [sp, #56]
  70:../src/tensorflow_lite/tensorflow/lite/micro/kernels/strided_slice.cc ****     op_params.strides[i] = GetTensorData<int32_t>(op_context->strides)[i];
 10611              		.loc 1 70 0
 10612 052c 083092E5 		ldr	r3, [r2, #8]
 10613 0530 50308DE5 		str	r3, [sp, #80]
  71:../src/tensorflow_lite/tensorflow/lite/micro/kernels/strided_slice.cc ****   }
 10614              		.loc 1 71 0
 10615 0534 083092E5 		ldr	r3, [r2, #8]
 10616 0538 68308DE5 		str	r3, [sp, #104]
 10617              	.LVL1154:
  68:../src/tensorflow_lite/tensorflow/lite/micro/kernels/strided_slice.cc ****     op_params.start_indices[i] = GetTensorData<int32_t>(op_context->begin)[i];
 10618              		.loc 1 68 0
 10619 053c 20FFFF0A 		beq	.L1528
  69:../src/tensorflow_lite/tensorflow/lite/micro/kernels/strided_slice.cc ****     op_params.stop_indices[i] = GetTensorData<int32_t>(op_context->end)[i];
 10620              		.loc 1 69 0
 10621 0540 0C3091E5 		ldr	r3, [r1, #12]
 10622              	.L1602:
 10623 0544 3C308DE5 		str	r3, [sp, #60]
  70:../src/tensorflow_lite/tensorflow/lite/micro/kernels/strided_slice.cc ****     op_params.strides[i] = GetTensorData<int32_t>(op_context->strides)[i];
 10624              		.loc 1 70 0
 10625 0548 0C3092E5 		ldr	r3, [r2, #12]
 10626 054c 54308DE5 		str	r3, [sp, #84]
  71:../src/tensorflow_lite/tensorflow/lite/micro/kernels/strided_slice.cc ****   }
 10627              		.loc 1 71 0
 10628 0550 0C3092E5 		ldr	r3, [r2, #12]
 10629 0554 6C308DE5 		str	r3, [sp, #108]
 10630              	.LVL1155:
 10631 0558 19FFFFEA 		b	.L1528
 10632              	.LVL1156:
 10633              	.L1616:
  69:../src/tensorflow_lite/tensorflow/lite/micro/kernels/strided_slice.cc ****     op_params.stop_indices[i] = GetTensorData<int32_t>(op_context->end)[i];
 10634              		.loc 1 69 0
 10635 055c 001092E5 		ldr	r1, [r2]
  68:../src/tensorflow_lite/tensorflow/lite/micro/kernels/strided_slice.cc ****     op_params.start_indices[i] = GetTensorData<int32_t>(op_context->begin)[i];
 10636              		.loc 1 68 0
 10637 0560 010053E3 		cmp	r3, #1
  69:../src/tensorflow_lite/tensorflow/lite/micro/kernels/strided_slice.cc ****     op_params.stop_indices[i] = GetTensorData<int32_t>(op_context->end)[i];
 10638              		.loc 1 69 0
 10639 0564 30108DE5 		str	r1, [sp, #48]
  70:../src/tensorflow_lite/tensorflow/lite/micro/kernels/strided_slice.cc ****     op_params.strides[i] = GetTensorData<int32_t>(op_context->strides)[i];
 10640              		.loc 1 70 0
 10641 0568 001092E5 		ldr	r1, [r2]
 10642 056c 48108DE5 		str	r1, [sp, #72]
  71:../src/tensorflow_lite/tensorflow/lite/micro/kernels/strided_slice.cc ****   }
 10643              		.loc 1 71 0
 10644 0570 001092E5 		ldr	r1, [r2]
 10645 0574 60108DE5 		str	r1, [sp, #96]
 10646              	.LVL1157:
  68:../src/tensorflow_lite/tensorflow/lite/micro/kernels/strided_slice.cc ****     op_params.start_indices[i] = GetTensorData<int32_t>(op_context->begin)[i];
 10647              		.loc 1 68 0
 10648 0578 11FFFF0A 		beq	.L1528
  69:../src/tensorflow_lite/tensorflow/lite/micro/kernels/strided_slice.cc ****     op_params.stop_indices[i] = GetTensorData<int32_t>(op_context->end)[i];
 10649              		.loc 1 69 0
 10650 057c 041092E5 		ldr	r1, [r2, #4]
  68:../src/tensorflow_lite/tensorflow/lite/micro/kernels/strided_slice.cc ****     op_params.start_indices[i] = GetTensorData<int32_t>(op_context->begin)[i];
 10651              		.loc 1 68 0
 10652 0580 020053E3 		cmp	r3, #2
  69:../src/tensorflow_lite/tensorflow/lite/micro/kernels/strided_slice.cc ****     op_params.stop_indices[i] = GetTensorData<int32_t>(op_context->end)[i];
 10653              		.loc 1 69 0
 10654 0584 34108DE5 		str	r1, [sp, #52]
  70:../src/tensorflow_lite/tensorflow/lite/micro/kernels/strided_slice.cc ****     op_params.strides[i] = GetTensorData<int32_t>(op_context->strides)[i];
 10655              		.loc 1 70 0
 10656 0588 041092E5 		ldr	r1, [r2, #4]
 10657 058c 4C108DE5 		str	r1, [sp, #76]
  71:../src/tensorflow_lite/tensorflow/lite/micro/kernels/strided_slice.cc ****   }
 10658              		.loc 1 71 0
 10659 0590 042092E5 		ldr	r2, [r2, #4]
 10660 0594 64208DE5 		str	r2, [sp, #100]
 10661              	.LVL1158:
  68:../src/tensorflow_lite/tensorflow/lite/micro/kernels/strided_slice.cc ****     op_params.start_indices[i] = GetTensorData<int32_t>(op_context->begin)[i];
 10662              		.loc 1 68 0
 10663 0598 09FFFF0A 		beq	.L1528
  69:../src/tensorflow_lite/tensorflow/lite/micro/kernels/strided_slice.cc ****     op_params.stop_indices[i] = GetTensorData<int32_t>(op_context->end)[i];
 10664              		.loc 1 69 0
 10665 059c 0020A0E3 		mov	r2, #0
  68:../src/tensorflow_lite/tensorflow/lite/micro/kernels/strided_slice.cc ****     op_params.start_indices[i] = GetTensorData<int32_t>(op_context->begin)[i];
 10666              		.loc 1 68 0
 10667 05a0 030053E3 		cmp	r3, #3
  69:../src/tensorflow_lite/tensorflow/lite/micro/kernels/strided_slice.cc ****     op_params.stop_indices[i] = GetTensorData<int32_t>(op_context->end)[i];
 10668              		.loc 1 69 0
 10669 05a4 083092E5 		ldr	r3, [r2, #8]
 10670 05a8 38308DE5 		str	r3, [sp, #56]
  70:../src/tensorflow_lite/tensorflow/lite/micro/kernels/strided_slice.cc ****     op_params.strides[i] = GetTensorData<int32_t>(op_context->strides)[i];
 10671              		.loc 1 70 0
 10672 05ac 083092E5 		ldr	r3, [r2, #8]
 10673 05b0 50308DE5 		str	r3, [sp, #80]
  71:../src/tensorflow_lite/tensorflow/lite/micro/kernels/strided_slice.cc ****   }
 10674              		.loc 1 71 0
 10675 05b4 083092E5 		ldr	r3, [r2, #8]
 10676 05b8 68308DE5 		str	r3, [sp, #104]
 10677              	.LVL1159:
  69:../src/tensorflow_lite/tensorflow/lite/micro/kernels/strided_slice.cc ****     op_params.stop_indices[i] = GetTensorData<int32_t>(op_context->end)[i];
 10678              		.loc 1 69 0
 10679 05bc 0C309215 		ldrne	r3, [r2, #12]
  68:../src/tensorflow_lite/tensorflow/lite/micro/kernels/strided_slice.cc ****     op_params.start_indices[i] = GetTensorData<int32_t>(op_context->begin)[i];
 10680              		.loc 1 68 0
 10681 05c0 DFFFFF1A 		bne	.L1602
 10682 05c4 FEFEFFEA 		b	.L1528
 10683              	.LVL1160:
 10684              	.L1607:
 10685              	.LBE2222:
 10686              	.LBE2224:
 10687              	.LBE2226:
 126:../src/tensorflow_lite/tensorflow/lite/micro/kernels/strided_slice.cc ****   StridedSliceParams* op_params =
 10688              		.loc 1 126 0 discriminator 1
 10689 05c8 FEFFFFEB 		bl	abort
 10690              	.LVL1161:
 10691              		.cfi_endproc
 10692              	.LFE4520:
 10693              		.fnend
 10695              		.section	.text._ZN6tflite3ops5micro22Register_STRIDED_SLICEEv,"ax",%progbits
 10696              		.align	2
 10697              		.global	_ZN6tflite3ops5micro22Register_STRIDED_SLICEEv
 10698              		.syntax unified
 10699              		.arm
 10700              		.fpu neon
 10702              	_ZN6tflite3ops5micro22Register_STRIDED_SLICEEv:
 10703              		.fnstart
 10704              	.LFB4522:
 177:../src/tensorflow_lite/tensorflow/lite/micro/kernels/strided_slice.cc **** }  // namespace strided_slice
 178:../src/tensorflow_lite/tensorflow/lite/micro/kernels/strided_slice.cc **** 
 179:../src/tensorflow_lite/tensorflow/lite/micro/kernels/strided_slice.cc **** TfLiteRegistration Register_STRIDED_SLICE() {
 10705              		.loc 1 179 0
 10706              		.cfi_startproc
 10707              		@ args = 0, pretend = 0, frame = 0
 10708              		@ frame_needed = 0, uses_anonymous_args = 0
 10709              	.LVL1162:
 180:../src/tensorflow_lite/tensorflow/lite/micro/kernels/strided_slice.cc ****   return {/*init=*/strided_slice::Init,
 181:../src/tensorflow_lite/tensorflow/lite/micro/kernels/strided_slice.cc ****           /*free=*/nullptr,
 182:../src/tensorflow_lite/tensorflow/lite/micro/kernels/strided_slice.cc ****           /*prepare=*/strided_slice::Prepare,
 183:../src/tensorflow_lite/tensorflow/lite/micro/kernels/strided_slice.cc ****           /*invoke=*/strided_slice::Eval,
 184:../src/tensorflow_lite/tensorflow/lite/micro/kernels/strided_slice.cc ****           /*profiling_string=*/nullptr,
 185:../src/tensorflow_lite/tensorflow/lite/micro/kernels/strided_slice.cc ****           /*builtin_code=*/0,
 186:../src/tensorflow_lite/tensorflow/lite/micro/kernels/strided_slice.cc ****           /*custom_name=*/nullptr,
 187:../src/tensorflow_lite/tensorflow/lite/micro/kernels/strided_slice.cc ****           /*version=*/0};
 10710              		.loc 1 187 0
 10711 0000 00C000E3 		movw	ip, #:lower16:.LANCHOR0
 179:../src/tensorflow_lite/tensorflow/lite/micro/kernels/strided_slice.cc ****   return {/*init=*/strided_slice::Init,
 10712              		.loc 1 179 0
 10713 0004 10402DE9 		push	{r4, lr}
 10714              		.cfi_def_cfa_offset 8
 10715              		.cfi_offset 4, -8
 10716              		.cfi_offset 14, -4
 10717              		.loc 1 187 0
 10718 0008 00C040E3 		movt	ip, #:upper16:.LANCHOR0
 179:../src/tensorflow_lite/tensorflow/lite/micro/kernels/strided_slice.cc ****   return {/*init=*/strided_slice::Init,
 10719              		.loc 1 179 0
 10720 000c 0040A0E1 		mov	r4, r0
 10721              		.loc 1 187 0
 10722 0010 00E0A0E1 		mov	lr, r0
 10723 0014 0F00BCE8 		ldmia	ip!, {r0, r1, r2, r3}
 10724              	.LVL1163:
 10725 0018 0F00AEE8 		stmia	lr!, {r0, r1, r2, r3}
 10726 001c 0F009CE8 		ldm	ip, {r0, r1, r2, r3}
 10727 0020 0F008EE8 		stm	lr, {r0, r1, r2, r3}
 188:../src/tensorflow_lite/tensorflow/lite/micro/kernels/strided_slice.cc **** }
 10728              		.loc 1 188 0
 10729 0024 0400A0E1 		mov	r0, r4
 10730 0028 1080BDE8 		pop	{r4, pc}
 10731              		.cfi_endproc
 10732              	.LFE4522:
 10733              		.cantunwind
 10734              		.fnend
 10736              		.section	.rodata
 10737              		.align	2
 10738              		.set	.LANCHOR0,. + 0
 10739              	.LC0:
 10740 0000 00000000 		.word	_ZN6tflite3ops5micro13strided_slice4InitEP13TfLiteContextPKcj
 10741 0004 00000000 		.word	0
 10742 0008 00000000 		.word	_ZN6tflite3ops5micro13strided_slice7PrepareEP13TfLiteContextP10TfLiteNode
 10743 000c 00000000 		.word	_ZN6tflite3ops5micro13strided_slice4EvalEP13TfLiteContextP10TfLiteNode
 10744 0010 00000000 		.word	0
 10745 0014 00000000 		.word	0
 10746 0018 00000000 		.word	0
 10747 001c 00000000 		.word	0
 10748              		.section	.rodata._ZN6tflite3ops5micro13strided_slice15CheckOutputSizeEP13TfLiteContextPNS2_19Strid
 10749              		.align	2
 10750              	.LC2:
 10751 0000 2E2E2F73 		.ascii	"../src/tensorflow_lite/tensorflow/lite/micro/kernel"
 10751      72632F74 
 10751      656E736F 
 10751      72666C6F 
 10751      775F6C69 
 10752 0033 732F7374 		.ascii	"s/strided_slice.cc stride value has to be non-zero\000"
 10752      72696465 
 10752      645F736C 
 10752      6963652E 
 10752      63632073 
 10753 0066 0000     		.space	2
 10754              	.LC3:
 10755 0068 2E2E2F73 		.ascii	"../src/tensorflow_lite/tensorflow/lite/micro/kernel"
 10755      72632F74 
 10755      656E736F 
 10755      72666C6F 
 10755      775F6C69 
 10756 009b 732F7374 		.ascii	"s/strided_slice.cc\000"
 10756      72696465 
 10756      645F736C 
 10756      6963652E 
 10756      636300
 10757 00ae 0000     		.space	2
 10758              	.LC4:
 10759 00b0 25733A25 		.ascii	"%s:%d %s != %s (%d != %d)\000"
 10759      64202573 
 10759      20213D20 
 10759      25732028 
 10759      25642021 
 10760 00ca 0000     		.space	2
 10761              	.LC5:
 10762 00cc 64696D5F 		.ascii	"dim_shape\000"
 10762      73686170 
 10762      6500
 10763 00d6 0000     		.space	2
 10764              	.LC6:
 10765 00d8 6F757470 		.ascii	"output_shape->data[shape_size]\000"
 10765      75745F73 
 10765      68617065 
 10765      2D3E6461 
 10765      74615B73 
 10766 00f7 00       		.space	1
 10767              	.LC7:
 10768 00f8 73686170 		.ascii	"shape_size\000"
 10768      655F7369 
 10768      7A6500
 10769 0103 00       		.space	1
 10770              	.LC8:
 10771 0104 6F757470 		.ascii	"output_shape->size\000"
 10771      75745F73 
 10771      68617065 
 10771      2D3E7369 
 10771      7A6500
 10772              		.section	.rodata._ZN6tflite3ops5micro13strided_slice4EvalEP13TfLiteContextP10TfLiteNode.str1.4,"aM
 10773              		.align	2
 10774              	.LC1:
 10775 0000 54797065 		.ascii	"Type %s (%d) not supported.\000"
 10775      20257320 
 10775      28256429 
 10775      206E6F74 
 10775      20737570 
 10776              		.section	.rodata._ZN6tflite3ops5micro13strided_slice7PrepareEP13TfLiteContextP10TfLiteNode.str1.4,
 10777              		.align	2
 10778              	.LC9:
 10779 0000 3400     		.ascii	"4\000"
 10780 0002 0000     		.space	2
 10781              	.LC10:
 10782 0004 4E756D49 		.ascii	"NumInputs(node)\000"
 10782      6E707574 
 10782      73286E6F 
 10782      64652900 
 10783              	.LC11:
 10784 0014 3100     		.ascii	"1\000"
 10785 0016 0000     		.space	2
 10786              	.LC12:
 10787 0018 4E756D4F 		.ascii	"NumOutputs(node)\000"
 10787      75747075 
 10787      7473286E 
 10787      6F646529 
 10787      00
 10788 0029 000000   		.space	3
 10789              	.LC13:
 10790 002c 2E2E2F73 		.ascii	"../src/tensorflow_lite/tensorflow/lite/micro/kernel"
 10790      72632F74 
 10790      656E736F 
 10790      72666C6F 
 10790      775F6C69 
 10791 005f 732F7374 		.ascii	"s/strided_slice.cc input dim should not exceed 4\000"
 10791      72696465 
 10791      645F736C 
 10791      6963652E 
 10791      63632069 
 10792              		.text
 10793              	.Letext0:
 10794              		.file 10 "C:/Renesas/e2studio_2021_01_workspace_RZA2M_ANPR/ANPR_RZA2M_EBK/src/tensorflow_lite/thir
 10795              		.file 11 "<built-in>"
 10796              		.file 12 "c:\\program files (x86)\\gnu tools arm embedded\\6 2017-q2-update\\arm-none-eabi\\includ
 10797              		.file 13 "c:\\program files (x86)\\gnu tools arm embedded\\6 2017-q2-update\\arm-none-eabi\\includ
 10798              		.file 14 "c:\\program files (x86)\\gnu tools arm embedded\\6 2017-q2-update\\arm-none-eabi\\includ
 10799              		.file 15 "c:\\program files (x86)\\gnu tools arm embedded\\6 2017-q2-update\\arm-none-eabi\\includ
 10800              		.file 16 "c:\\program files (x86)\\gnu tools arm embedded\\6 2017-q2-update\\arm-none-eabi\\includ
 10801              		.file 17 "c:\\program files (x86)\\gnu tools arm embedded\\6 2017-q2-update\\arm-none-eabi\\includ
 10802              		.file 18 "c:\\program files (x86)\\gnu tools arm embedded\\6 2017-q2-update\\arm-none-eabi\\includ
 10803              		.file 19 "c:\\program files (x86)\\gnu tools arm embedded\\6 2017-q2-update\\arm-none-eabi\\includ
 10804              		.file 20 "c:\\program files (x86)\\gnu tools arm embedded\\6 2017-q2-update\\arm-none-eabi\\includ
 10805              		.file 21 "c:\\program files (x86)\\gnu tools arm embedded\\6 2017-q2-update\\arm-none-eabi\\includ
 10806              		.file 22 "c:\\program files (x86)\\gnu tools arm embedded\\6 2017-q2-update\\arm-none-eabi\\includ
 10807              		.file 23 "c:\\program files (x86)\\gnu tools arm embedded\\6 2017-q2-update\\arm-none-eabi\\includ
 10808              		.file 24 "c:\\program files (x86)\\gnu tools arm embedded\\6 2017-q2-update\\arm-none-eabi\\includ
 10809              		.file 25 "c:\\program files (x86)\\gnu tools arm embedded\\6 2017-q2-update\\arm-none-eabi\\includ
 10810              		.file 26 "c:\\program files (x86)\\gnu tools arm embedded\\6 2017-q2-update\\arm-none-eabi\\includ
 10811              		.file 27 "c:\\program files (x86)\\gnu tools arm embedded\\6 2017-q2-update\\arm-none-eabi\\includ
 10812              		.file 28 "c:\\program files (x86)\\gnu tools arm embedded\\6 2017-q2-update\\arm-none-eabi\\includ
 10813              		.file 29 "c:\\program files (x86)\\gnu tools arm embedded\\6 2017-q2-update\\arm-none-eabi\\includ
 10814              		.file 30 "c:\\program files (x86)\\gnu tools arm embedded\\6 2017-q2-update\\arm-none-eabi\\includ
 10815              		.file 31 "c:\\program files (x86)\\gnu tools arm embedded\\6 2017-q2-update\\arm-none-eabi\\includ
 10816              		.file 32 "c:\\program files (x86)\\gnu tools arm embedded\\6 2017-q2-update\\arm-none-eabi\\includ
 10817              		.file 33 "c:\\program files (x86)\\gnu tools arm embedded\\6 2017-q2-update\\lib\\gcc\\arm-none-ea
 10818              		.file 34 "c:\\program files (x86)\\gnu tools arm embedded\\6 2017-q2-update\\arm-none-eabi\\includ
 10819              		.file 35 "c:\\program files (x86)\\gnu tools arm embedded\\6 2017-q2-update\\arm-none-eabi\\includ
 10820              		.file 36 "c:\\program files (x86)\\gnu tools arm embedded\\6 2017-q2-update\\arm-none-eabi\\includ
 10821              		.file 37 "c:\\program files (x86)\\gnu tools arm embedded\\6 2017-q2-update\\arm-none-eabi\\includ
 10822              		.file 38 "c:\\program files (x86)\\gnu tools arm embedded\\6 2017-q2-update\\lib\\gcc\\arm-none-ea
 10823              		.file 39 "c:\\program files (x86)\\gnu tools arm embedded\\6 2017-q2-update\\arm-none-eabi\\includ
 10824              		.file 40 "c:\\program files (x86)\\gnu tools arm embedded\\6 2017-q2-update\\arm-none-eabi\\includ
 10825              		.file 41 "c:\\program files (x86)\\gnu tools arm embedded\\6 2017-q2-update\\arm-none-eabi\\includ
 10826              		.file 42 "c:\\program files (x86)\\gnu tools arm embedded\\6 2017-q2-update\\arm-none-eabi\\includ
 10827              		.file 43 "c:\\program files (x86)\\gnu tools arm embedded\\6 2017-q2-update\\arm-none-eabi\\includ
 10828              		.file 44 "c:\\program files (x86)\\gnu tools arm embedded\\6 2017-q2-update\\arm-none-eabi\\includ
 10829              		.file 45 "c:\\program files (x86)\\gnu tools arm embedded\\6 2017-q2-update\\arm-none-eabi\\includ
 10830              		.file 46 "c:\\program files (x86)\\gnu tools arm embedded\\6 2017-q2-update\\arm-none-eabi\\includ
 10831              		.file 47 "c:\\program files (x86)\\gnu tools arm embedded\\6 2017-q2-update\\arm-none-eabi\\includ
 10832              		.file 48 "C:/Renesas/e2studio_2021_01_workspace_RZA2M_ANPR/ANPR_RZA2M_EBK/src/tensorflow_lite/thir
 10833              		.file 49 "c:\\program files (x86)\\gnu tools arm embedded\\6 2017-q2-update\\arm-none-eabi\\includ
 10834              		.file 50 "C:/Renesas/e2studio_2021_01_workspace_RZA2M_ANPR/ANPR_RZA2M_EBK/src/tensorflow_lite/tens
 10835              		.file 51 "C:/Renesas/e2studio_2021_01_workspace_RZA2M_ANPR/ANPR_RZA2M_EBK/src/tensorflow_lite/tens
 10836              		.file 52 "C:/Renesas/e2studio_2021_01_workspace_RZA2M_ANPR/ANPR_RZA2M_EBK/src/tensorflow_lite/tens
 10837              		.file 53 "C:/Renesas/e2studio_2021_01_workspace_RZA2M_ANPR/ANPR_RZA2M_EBK/src/tensorflow_lite/tens
 10838              		.file 54 "C:/Renesas/e2studio_2021_01_workspace_RZA2M_ANPR/ANPR_RZA2M_EBK/src/tensorflow_lite/tens
DEFINED SYMBOLS
                            *ABS*:00000000 strided_slice.cc
C:\Users\a5050395\AppData\Local\Temp\cczY7KXD.s:17     .text._ZN6tflite3ops5micro13strided_slice4InitEP13TfLiteContextPKcj:00000000 $a
C:\Users\a5050395\AppData\Local\Temp\cczY7KXD.s:23     .text._ZN6tflite3ops5micro13strided_slice4InitEP13TfLiteContextPKcj:00000000 _ZN6tflite3ops5micro13strided_slice4InitEP13TfLiteContextPKcj
.ARM.exidx.text._ZN6tflite3ops5micro13strided_slice4InitEP13TfLiteContextPKcj:00000000 $d
C:\Users\a5050395\AppData\Local\Temp\cczY7KXD.s:56     .text._ZN6tflite3ops5micro13strided_slice4EvalEP13TfLiteContextP10TfLiteNode:00000000 $a
C:\Users\a5050395\AppData\Local\Temp\cczY7KXD.s:62     .text._ZN6tflite3ops5micro13strided_slice4EvalEP13TfLiteContextP10TfLiteNode:00000000 _ZN6tflite3ops5micro13strided_slice4EvalEP13TfLiteContextP10TfLiteNode
C:\Users\a5050395\AppData\Local\Temp\cczY7KXD.s:10774  .rodata._ZN6tflite3ops5micro13strided_slice4EvalEP13TfLiteContextP10TfLiteNode.str1.4:00000000 .LC1
.ARM.extab.text._ZN6tflite3ops5micro13strided_slice4EvalEP13TfLiteContextP10TfLiteNode:00000000 $d
.ARM.exidx.text._ZN6tflite3ops5micro13strided_slice4EvalEP13TfLiteContextP10TfLiteNode:00000000 $d
C:\Users\a5050395\AppData\Local\Temp\cczY7KXD.s:7943   .text._ZN6tflite3ops5micro13strided_slice23BuildStridedSliceParamsEPNS2_19StridedSliceContextE:00000000 $a
C:\Users\a5050395\AppData\Local\Temp\cczY7KXD.s:7949   .text._ZN6tflite3ops5micro13strided_slice23BuildStridedSliceParamsEPNS2_19StridedSliceContextE:00000000 _ZN6tflite3ops5micro13strided_slice23BuildStridedSliceParamsEPNS2_19StridedSliceContextE
.ARM.exidx.text._ZN6tflite3ops5micro13strided_slice23BuildStridedSliceParamsEPNS2_19StridedSliceContextE:00000000 $d
C:\Users\a5050395\AppData\Local\Temp\cczY7KXD.s:8592   .text._ZN6tflite3ops5micro13strided_slice15CheckOutputSizeEP13TfLiteContextPNS2_19StridedSliceContextE:00000000 $a
C:\Users\a5050395\AppData\Local\Temp\cczY7KXD.s:8598   .text._ZN6tflite3ops5micro13strided_slice15CheckOutputSizeEP13TfLiteContextPNS2_19StridedSliceContextE:00000000 _ZN6tflite3ops5micro13strided_slice15CheckOutputSizeEP13TfLiteContextPNS2_19StridedSliceContextE
C:\Users\a5050395\AppData\Local\Temp\cczY7KXD.s:10767  .rodata._ZN6tflite3ops5micro13strided_slice15CheckOutputSizeEP13TfLiteContextPNS2_19StridedSliceContextE.str1.4:000000f8 .LC7
C:\Users\a5050395\AppData\Local\Temp\cczY7KXD.s:10770  .rodata._ZN6tflite3ops5micro13strided_slice15CheckOutputSizeEP13TfLiteContextPNS2_19StridedSliceContextE.str1.4:00000104 .LC8
C:\Users\a5050395\AppData\Local\Temp\cczY7KXD.s:10754  .rodata._ZN6tflite3ops5micro13strided_slice15CheckOutputSizeEP13TfLiteContextPNS2_19StridedSliceContextE.str1.4:00000068 .LC3
C:\Users\a5050395\AppData\Local\Temp\cczY7KXD.s:10758  .rodata._ZN6tflite3ops5micro13strided_slice15CheckOutputSizeEP13TfLiteContextPNS2_19StridedSliceContextE.str1.4:000000b0 .LC4
C:\Users\a5050395\AppData\Local\Temp\cczY7KXD.s:10750  .rodata._ZN6tflite3ops5micro13strided_slice15CheckOutputSizeEP13TfLiteContextPNS2_19StridedSliceContextE.str1.4:00000000 .LC2
C:\Users\a5050395\AppData\Local\Temp\cczY7KXD.s:10761  .rodata._ZN6tflite3ops5micro13strided_slice15CheckOutputSizeEP13TfLiteContextPNS2_19StridedSliceContextE.str1.4:000000cc .LC5
C:\Users\a5050395\AppData\Local\Temp\cczY7KXD.s:10764  .rodata._ZN6tflite3ops5micro13strided_slice15CheckOutputSizeEP13TfLiteContextPNS2_19StridedSliceContextE.str1.4:000000d8 .LC6
.ARM.extab.text._ZN6tflite3ops5micro13strided_slice15CheckOutputSizeEP13TfLiteContextPNS2_19StridedSliceContextE:00000000 $d
.ARM.exidx.text._ZN6tflite3ops5micro13strided_slice15CheckOutputSizeEP13TfLiteContextPNS2_19StridedSliceContextE:00000000 $d
C:\Users\a5050395\AppData\Local\Temp\cczY7KXD.s:9954   .text._ZN6tflite3ops5micro13strided_slice7PrepareEP13TfLiteContextP10TfLiteNode:00000000 $a
C:\Users\a5050395\AppData\Local\Temp\cczY7KXD.s:9960   .text._ZN6tflite3ops5micro13strided_slice7PrepareEP13TfLiteContextP10TfLiteNode:00000000 _ZN6tflite3ops5micro13strided_slice7PrepareEP13TfLiteContextP10TfLiteNode
C:\Users\a5050395\AppData\Local\Temp\cczY7KXD.s:10783  .rodata._ZN6tflite3ops5micro13strided_slice7PrepareEP13TfLiteContextP10TfLiteNode.str1.4:00000014 .LC11
C:\Users\a5050395\AppData\Local\Temp\cczY7KXD.s:10786  .rodata._ZN6tflite3ops5micro13strided_slice7PrepareEP13TfLiteContextP10TfLiteNode.str1.4:00000018 .LC12
C:\Users\a5050395\AppData\Local\Temp\cczY7KXD.s:10778  .rodata._ZN6tflite3ops5micro13strided_slice7PrepareEP13TfLiteContextP10TfLiteNode.str1.4:00000000 .LC9
C:\Users\a5050395\AppData\Local\Temp\cczY7KXD.s:10781  .rodata._ZN6tflite3ops5micro13strided_slice7PrepareEP13TfLiteContextP10TfLiteNode.str1.4:00000004 .LC10
C:\Users\a5050395\AppData\Local\Temp\cczY7KXD.s:10789  .rodata._ZN6tflite3ops5micro13strided_slice7PrepareEP13TfLiteContextP10TfLiteNode.str1.4:0000002c .LC13
.ARM.exidx.text._ZN6tflite3ops5micro13strided_slice7PrepareEP13TfLiteContextP10TfLiteNode:00000000 $d
C:\Users\a5050395\AppData\Local\Temp\cczY7KXD.s:10696  .text._ZN6tflite3ops5micro22Register_STRIDED_SLICEEv:00000000 $a
C:\Users\a5050395\AppData\Local\Temp\cczY7KXD.s:10702  .text._ZN6tflite3ops5micro22Register_STRIDED_SLICEEv:00000000 _ZN6tflite3ops5micro22Register_STRIDED_SLICEEv
C:\Users\a5050395\AppData\Local\Temp\cczY7KXD.s:10738  .rodata:00000000 .LANCHOR0
.ARM.exidx.text._ZN6tflite3ops5micro22Register_STRIDED_SLICEEv:00000000 $d
C:\Users\a5050395\AppData\Local\Temp\cczY7KXD.s:10737  .rodata:00000000 $d
C:\Users\a5050395\AppData\Local\Temp\cczY7KXD.s:10749  .rodata._ZN6tflite3ops5micro13strided_slice15CheckOutputSizeEP13TfLiteContextPNS2_19StridedSliceContextE.str1.4:00000000 $d
C:\Users\a5050395\AppData\Local\Temp\cczY7KXD.s:10773  .rodata._ZN6tflite3ops5micro13strided_slice4EvalEP13TfLiteContextP10TfLiteNode.str1.4:00000000 $d
C:\Users\a5050395\AppData\Local\Temp\cczY7KXD.s:10777  .rodata._ZN6tflite3ops5micro13strided_slice7PrepareEP13TfLiteContextP10TfLiteNode.str1.4:00000000 $d
                     .debug_frame:00000010 $d
                           .group:00000000 wm4.0.3e1481985cce1e923928453d8be0a65b
                           .group:00000000 wm4.cconfig.h.31.1472b8c7bd4952a63a52f3f4f718f872
                           .group:00000000 wm4.cpu_defines.h.31.54d44f9d3e7c42875c5a7fd49795eb93
                           .group:00000000 wm4.cconfig.h.515.5e729db314ae74226e291b4ae081e353
                           .group:00000000 wm4.atomic_lockfree_defines.h.31.d5c6334fb1e95c9462b052951f1411df
                           .group:00000000 wm4.exception_defines.h.31.ca6841b9be3287386aafc5c717935b2e
                           .group:00000000 wm4.concept_check.h.31.f19605d278e56917c68a56d378be308c
                           .group:00000000 wm4.type_traits.30.2c7323a483bcd7601e8b71d2546ae284
                           .group:00000000 wm4.move.h.152.41d7b9e6779674d169b7813982cfa003
                           .group:00000000 wm4.cpp_type_traits.h.33.9f2bfd8c4471a9a299f6da3ec24c745c
                           .group:00000000 wm4.numeric_traits.h.30.aa01a98564b7e55086aad9e53c7e5c53
                           .group:00000000 wm4.assertions.h.30.51d443923f0d242550e04246a7819b39
                           .group:00000000 wm4.stl_iterator.h.1250.45f349a262f1b0d836d8edbc4b7b98ff
                           .group:00000000 wm4.debug.h.30.5c1f223b12199e851d4d42805b788ccf
                           .group:00000000 wm4.stl_algobase.h.491.aa250b69c90aafa2a0a62b8c58cd5f30
                           .group:00000000 wm4._newlib_version.h.4.3572908597b70d672d181fc7fc501c19
                           .group:00000000 wm4.newlib.h.21.59901f4bf241ab46c63694665baa7297
                           .group:00000000 wm4.features.h.22.37852b648068a281464730a5a4cc748e
                           .group:00000000 wm4.config.h.219.65a553ab5bef5482f0d7880b0d33015e
                           .group:00000000 wm4._ansi.h.23.1ee1144430bedaab1a14c7b57a6c8384
                           .group:00000000 wm4.stddef.h.39.fa2e86d241f4df50b9327c72832885e1
                           .group:00000000 wm4._default_types.h.6.959254cf5f09734ea7516c89e8bb21bd
                           .group:00000000 wm4.lock.h.2.1461d1fff82dffe8bfddc23307f6484f
                           .group:00000000 wm4._types.h.125.5cf8a495f1f7ef36777ad868a1e32068
                           .group:00000000 wm4.stddef.h.161.7e98c9c86da0ed2d27af2ef92af7d013
                           .group:00000000 wm4._types.h.183.c226d164ceca1f2ecb9ae9360c54a098
                           .group:00000000 wm4.reent.h.17.23b059516345f8f5abfa01ddc379570f
                           .group:00000000 wm4.wchar.h.8.acdef4366e64def8c588421024712d23
                           .group:00000000 wm4.stddef.h.161.9f48187563b2a85291a91832aa425498
                           .group:00000000 wm4.cdefs.h.47.9bc8274c84fddbf05edd550eb0bf48cd
                           .group:00000000 wm4.stdarg.h.34.3a23a216c0c293b3d2ea2e89281481e6
                           .group:00000000 wm4.wchar.h.41.bce54f0deafe8a72ebb0005417e8a086
                           .group:00000000 wm4.cwchar.48.c4e882638bf84f6da89479dda6fe8e17
                           .group:00000000 wm4.stdint.h.4.659be5aa44c4ab4eb7c7cc2b24d8ceee
                           .group:00000000 wm4._intsup.h.10.cce27fed8484c08a33f522034c30d2b5
                           .group:00000000 wm4._stdint.h.10.c24fa3af3bc1706662bb5593a907e841
                           .group:00000000 wm4.stdint.h.23.4c107c5a20920bfc6e94fb2672bbd9ee
                           .group:00000000 wm4.allocator.h.52.0ceafb36dc1b82dbfa6b05003082e3f5
                           .group:00000000 wm4.stddef.h.161.38688f2eb958a8ed58fdb61ffe554c94
                           .group:00000000 wm4.locale.h.16.524572cf3c2ed9856516685acdc598fe
                           .group:00000000 wm4.clocale.45.c36d2d5b631a875aa5273176b54fdf0f
                           .group:00000000 wm4.ctype.h.2.da310d2ad165ccf8b86542f76fdb938d
                           .group:00000000 wm4.cctype.45.0da5714876b0be7f2d816b53d9670403
                           .group:00000000 wm4.gthr.h.27.ceb1c66b926f052afcba57e8784df0d4
                           .group:00000000 wm4.gthrdefault.h.27.edc94d4398c0534988962be77dc3c2e1
                           .group:00000000 wm4.atomic_word.h.30.9e0ac69fd462d5e650933e05133b4afa
                           .group:00000000 wm4.alloc_traits.h.31.c41c7c4789404962122a4e991dfa3abf
                           .group:00000000 wm4.cstdlib.44.52c5efdfb0f3c176bd11e611a0b94959
                           .group:00000000 wm4.stdlib.h.13.4ed386f5c1a80d71e72172885d946ef2
                           .group:00000000 wm4.stdlib.h.56.b4ddaf162082f284ba35b4444af99a9a
                           .group:00000000 wm4.cstdlib.76.ae666499c8f9b0ace1b4b23fe143da2c
                           .group:00000000 wm4.stdio.h.27.3fc80220048df77954e38daec3bb9670
                           .group:00000000 wm4.types.h.40.e8c16e7ec36ba55f133d0616070e25fc
                           .group:00000000 wm4.types.h.114.fb65732f4f5f288a036a25898de2c91f
                           .group:00000000 wm4.stdio.h.2.4aa87247282eca6c8f36f9de33d8df1a
                           .group:00000000 wm4.stdio.h.81.c3e9cb15e5af2807c4650345134c1a8a
                           .group:00000000 wm4.cstdio.45.ba8d321feb18bfc8923454067605c368
                           .group:00000000 wm4.errno.h.2.ba016d646105af6cad23be83630b6a3f
                           .group:00000000 wm4.errno.h.9.1ecd7b1049497a0ab61da0f6cbd4b0c6
                           .group:00000000 wm4.functional_hash.h.31.bccc014fee6fc3f930045d809df6f486
                           .group:00000000 wm4.functional.549.0bc5b448cf999863d3841495cd6fe920
                           .group:00000000 wm4.limits.38.55aefcf041805b6211ca3649dd2ab1b5
                           .group:00000000 wm4.assert.h.11.a5d97ca77559a42890313c4941c01fd9
                           .group:00000000 wm4.math.h.13.e7cbdea54f4da98ab8f7fad4d23502b2
                           .group:00000000 wm4.cmath.46.d6e5b776115d39075860ed881d18f087
                           .group:00000000 wm4.detect_platform.h.19.a1891273c0cad215067ddb8219400136
                           .group:00000000 wm4.fixedpoint.h.567.8a6371d9452be19811601bace78b0abc
                           .group:00000000 wm4.cmath.44.b3bcbb5fe53ec6617dec8aa8eb7b03cc
                           .group:00000000 wm4.cppmath.h.27.51580d700716589df4b364298e2ef577
                           .group:00000000 wm4.neon_check.h.16.79a4dcb572cbeac06c4924f1f20cb68d
                           .group:00000000 wm4.string.h.8.c4b8571ce60dff2817f43fec8b86aecd
                           .group:00000000 wm4.cstring.45.6ab09de7fb97b576e744347688ddc8d7
                           .group:00000000 wm4.op_macros.h.42.7b718cb416a067e7bb07e7699647769b
                           .group:00000000 wm4.compatibility.h.23.702d6356326ea59aded8ef5c6c4626d5
                           .group:00000000 wm4.stdbool.h.29.01580e438512fc255c0619569742ffd3
                           .group:00000000 wm4.c_api_types.h.20.9b09175981ed746180e205cc0b4b2bfd
                           .group:00000000 wm4.common.h.77.124de099ec0ac4f95ebf1618a5f42cf6
                           .group:00000000 wm4.builtin_op_data.h.16.b961d1222c948363e3f10ad99298fd3f

UNDEFINED SYMBOLS
abort
__aeabi_unwind_cpp_pr0
__gxx_personality_v0
TfLiteTypeGetName
_ZN6tflite5micro14GetTensorShapeEPK16TfLiteEvalTensor
memcpy
_ZdaPv
__cxa_end_cleanup
memset
_Znaj
ceilf
__cxa_throw_bad_array_new_length
_ZN6tflite8GetInputEPK13TfLiteContextPK10TfLiteNodei
_ZN6tflite9GetOutputEP13TfLiteContextPK10TfLiteNodei
