   1              		.cpu cortex-a9
   2              		.eabi_attribute 28, 1
   3              		.eabi_attribute 20, 1
   4              		.eabi_attribute 21, 1
   5              		.eabi_attribute 23, 3
   6              		.eabi_attribute 24, 1
   7              		.eabi_attribute 25, 1
   8              		.eabi_attribute 26, 1
   9              		.eabi_attribute 30, 2
  10              		.eabi_attribute 34, 0
  11              		.eabi_attribute 18, 4
  12              		.file	"add.cc"
  13              		.section	.text._ZN6tflite3ops5micro3add4InitEP13TfLiteContextPKcj,"ax",%progbits
  14              		.align	2
  15              		.global	_ZN6tflite3ops5micro3add4InitEP13TfLiteContextPKcj
  16              		.syntax unified
  17              		.arm
  18              		.fpu neon
  20              	_ZN6tflite3ops5micro3add4InitEP13TfLiteContextPKcj:
  21              		.fnstart
  22              	.LFB9120:
  23              		@ args = 0, pretend = 0, frame = 0
  24              		@ frame_needed = 0, uses_anonymous_args = 0
  25 0000 383090E5 		ldr	r3, [r0, #56]
  26 0004 000053E3 		cmp	r3, #0
  27 0008 0100000A 		beq	.L7
  28 000c 3C10A0E3 		mov	r1, #60
  29 0010 13FF2FE1 		bx	r3
  30              	.L7:
  31 0014 10402DE9 		push	{r4, lr}
  32              		.save {r4, lr}
  33 0018 FEFFFFEB 		bl	abort
  34              		.fnend
  36              		.section	.text._ZN6tflite3ops5micro3add7PrepareEP13TfLiteContextP10TfLiteNode,"ax",%progbits
  37              		.align	2
  38              		.global	_ZN6tflite3ops5micro3add7PrepareEP13TfLiteContextP10TfLiteNode
  39              		.syntax unified
  40              		.arm
  41              		.fpu neon
  43              	_ZN6tflite3ops5micro3add7PrepareEP13TfLiteContextP10TfLiteNode:
  44              		.fnstart
  45              	.LFB9121:
  46              		@ args = 0, pretend = 0, frame = 0
  47              		@ frame_needed = 0, uses_anonymous_args = 0
  48 0000 103091E5 		ldr	r3, [r1, #16]
  49 0004 F0432DE9 		push	{r4, r5, r6, r7, r8, r9, lr}
  50              		.save {r4, r5, r6, r7, r8, r9, lr}
  51 0008 048B2DED 		vpush.64	{d8, d9}
  52              		.vsave {d8, d9}
  53              		.pad #12
  54 000c 0CD04DE2 		sub	sp, sp, #12
  55 0010 000053E3 		cmp	r3, #0
  56 0014 7300000A 		beq	.L10
  57 0018 143091E5 		ldr	r3, [r1, #20]
  58 001c 0140A0E1 		mov	r4, r1
  59 0020 000053E3 		cmp	r3, #0
  60 0024 6F00000A 		beq	.L10
  61 0028 0020A0E3 		mov	r2, #0
  62 002c 0060A0E1 		mov	r6, r0
  63 0030 FEFFFFEB 		bl	_ZN6tflite8GetInputEPK13TfLiteContextPK10TfLiteNodei
  64 0034 007050E2 		subs	r7, r0, #0
  65 0038 4700000A 		beq	.L13
  66 003c 0120A0E3 		mov	r2, #1
  67 0040 0410A0E1 		mov	r1, r4
  68 0044 0600A0E1 		mov	r0, r6
  69 0048 FEFFFFEB 		bl	_ZN6tflite8GetInputEPK13TfLiteContextPK10TfLiteNodei
  70 004c 009050E2 		subs	r9, r0, #0
  71 0050 4100000A 		beq	.L13
  72 0054 0020A0E3 		mov	r2, #0
  73 0058 0410A0E1 		mov	r1, r4
  74 005c 0600A0E1 		mov	r0, r6
  75 0060 FEFFFFEB 		bl	_ZN6tflite9GetOutputEP13TfLiteContextPK10TfLiteNodei
  76 0064 008050E2 		subs	r8, r0, #0
  77 0068 3B00000A 		beq	.L13
  78 006c 0910A0E1 		mov	r1, r9
  79 0070 0700A0E1 		mov	r0, r7
  80 0074 105094E5 		ldr	r5, [r4, #16]
  81 0078 144094E5 		ldr	r4, [r4, #20]
  82 007c FEFFFFEB 		bl	_ZN6tflite14HaveSameShapesEPK12TfLiteTensorS2_
  83 0080 0030D8E5 		ldrb	r3, [r8]	@ zero_extendqisi2
  84 0084 010020E2 		eor	r0, r0, #1
  85 0088 0000C5E5 		strb	r0, [r5]
  86 008c 090053E3 		cmp	r3, #9
  87 0090 03005313 		cmpne	r3, #3
  88 0094 0100A003 		moveq	r0, #1
  89 0098 0000A013 		movne	r0, #0
  90 009c 3200001A 		bne	.L14
  91 00a0 036AD9ED 		vldr.32	s13, [r9, #12]
  92 00a4 14C0A0E3 		mov	ip, #20
  93 00a8 037AD7ED 		vldr.32	s15, [r7, #12]
  94 00ac 0C0085E0 		add	r0, r5, ip
  95 00b0 037A98ED 		vldr.32	s14, [r8, #12]
  96 00b4 041085E2 		add	r1, r5, #4
  97 00b8 4C3BDFED 		vldr.64	d19, .L35
  98 00bc E62AF7EE 		vcvt.f64.f32	d18, s13
  99 00c0 E67AF4EE 		vcmpe.f32	s15, s13
 100 00c4 10FAF1EE 		vmrs	APSR_nzcv, FPSCR
 101 00c8 E70AB7EE 		vcvt.f64.f32	d0, s15
 102 00cc 667AF04E 		vmovmi.f32	s15, s13
 103 00d0 E70AF7EE 		vcvt.f64.f32	d16, s15
 104 00d4 C71AF7EE 		vcvt.f64.f32	d17, s14
 105 00d8 102097E5 		ldr	r2, [r7, #16]
 106 00dc 103099E5 		ldr	r3, [r9, #16]
 107 00e0 A00B70EE 		vadd.f64	d16, d16, d16
 108 00e4 A31B61EE 		vmul.f64	d17, d17, d19
 109 00e8 002062E2 		rsb	r2, r2, #0
 110 00ec 282085E5 		str	r2, [r5, #40]
 111 00f0 003063E2 		rsb	r3, r3, #0
 112 00f4 102098E5 		ldr	r2, [r8, #16]
 113 00f8 200B80EE 		vdiv.f64	d0, d0, d16
 114 00fc A09B82EE 		vdiv.f64	d9, d18, d16
 115 0100 A18B80EE 		vdiv.f64	d8, d16, d17
 116 0104 2C3085E5 		str	r3, [r5, #44]
 117 0108 24C085E5 		str	ip, [r5, #36]
 118 010c 302085E5 		str	r2, [r5, #48]
 119 0110 FEFFFFEB 		bl	_ZN6tflite35QuantizeMultiplierSmallerThanOneExpEdPlPi
 120 0114 081085E2 		add	r1, r5, #8
 121 0118 180085E2 		add	r0, r5, #24
 122 011c 490BB0EE 		vmov.f64	d0, d9
 123 0120 FEFFFFEB 		bl	_ZN6tflite35QuantizeMultiplierSmallerThanOneExpEdPlPi
 124 0124 201085E2 		add	r1, r5, #32
 125 0128 1C0085E2 		add	r0, r5, #28
 126 012c 480BB0EE 		vmov.f64	d0, d8
 127 0130 FEFFFFEB 		bl	_ZN6tflite35QuantizeMultiplierSmallerThanOneExpEdPlPi
 128 0134 103085E2 		add	r3, r5, #16
 129 0138 0010D4E5 		ldrb	r1, [r4]	@ zero_extendqisi2
 130 013c 0820A0E1 		mov	r2, r8
 131 0140 00308DE5 		str	r3, [sp]
 132 0144 0600A0E1 		mov	r0, r6
 133 0148 0C3085E2 		add	r3, r5, #12
 134 014c FEFFFFEB 		bl	_ZN6tflite33CalculateActivationRangeQuantizedEP13TfLiteContext21TfLiteFusedActivationP12TfLiteT
 135 0150 0CD08DE2 		add	sp, sp, #12
 136              		@ sp needed
 137 0154 048BBDEC 		vldm	sp!, {d8-d9}
 138 0158 F083BDE8 		pop	{r4, r5, r6, r7, r8, r9, pc}
 139              	.L13:
 140 015c 0100A0E3 		mov	r0, #1
 141              	.L12:
 142 0160 0CD08DE2 		add	sp, sp, #12
 143              		@ sp needed
 144 0164 048BBDEC 		vldm	sp!, {d8-d9}
 145 0168 F083BDE8 		pop	{r4, r5, r6, r7, r8, r9, pc}
 146              	.L14:
 147 016c 010053E3 		cmp	r3, #1
 148 0170 FAFFFF1A 		bne	.L12
 149 0174 0030D4E5 		ldrb	r3, [r4]	@ zero_extendqisi2
 150 0178 010053E3 		cmp	r3, #1
 151 017c 0D00000A 		beq	.L33
 152 0180 030053E3 		cmp	r3, #3
 153 0184 1100000A 		beq	.L34
 154 0188 020053E3 		cmp	r3, #2
 155 018c 0020A003 		moveq	r2, #0
 156 0190 FF3F0F13 		movwne	r3, #65535
 157 0194 802F4B03 		movteq	r2, 49024
 158 0198 FE35A003 		moveq	r3, #1065353216
 159 019c 0225E013 		mvnne	r2, #8388608
 160 01a0 7F3F4713 		movtne	r3, 32639
 161 01a4 0000A003 		moveq	r0, #0
 162 01a8 0000A013 		movne	r0, #0
 163 01ac 342085E5 		str	r2, [r5, #52]	@ float
 164 01b0 383085E5 		str	r3, [r5, #56]	@ float
 165 01b4 E9FFFFEA 		b	.L12
 166              	.L33:
 167 01b8 FF3F0FE3 		movw	r3, #65535
 168 01bc 0020A0E3 		mov	r2, #0
 169 01c0 7F3F47E3 		movt	r3, 32639
 170 01c4 342085E5 		str	r2, [r5, #52]	@ float
 171 01c8 383085E5 		str	r3, [r5, #56]	@ float
 172 01cc E3FFFFEA 		b	.L12
 173              	.L34:
 174 01d0 0030A0E3 		mov	r3, #0
 175 01d4 0020A0E3 		mov	r2, #0
 176 01d8 C03044E3 		movt	r3, 16576
 177 01dc 342085E5 		str	r2, [r5, #52]	@ float
 178 01e0 383085E5 		str	r3, [r5, #56]	@ float
 179 01e4 DDFFFFEA 		b	.L12
 180              	.L10:
 181 01e8 FEFFFFEB 		bl	abort
 182              	.L36:
 183 01ec 00F020E3 		.align	3
 184              	.L35:
 185 01f0 00000000 		.word	0
 186 01f4 00003041 		.word	1093664768
 187              		.fnend
 189              		.section	.text._ZN6tflite13reference_ops22ProcessBroadcastShapesERKNS_12RuntimeShapeES3_PNS_16Arit
 190              		.align	2
 191              		.weak	_ZN6tflite13reference_ops22ProcessBroadcastShapesERKNS_12RuntimeShapeES3_PNS_16ArithmeticPar
 192              		.syntax unified
 193              		.arm
 194              		.fpu neon
 196              	_ZN6tflite13reference_ops22ProcessBroadcastShapesERKNS_12RuntimeShapeES3_PNS_16ArithmeticParamsE:
 197              		.fnstart
 198              	.LFB4249:
 199              		@ args = 0, pretend = 0, frame = 80
 200              		@ frame_needed = 0, uses_anonymous_args = 0
 201 0000 F04F2DE9 		push	{r4, r5, r6, r7, r8, r9, r10, fp, lr}
 202              		.save {r4, r5, r6, r7, r8, r9, r10, fp, lr}
 203 0004 0240A0E1 		mov	r4, r2
 204 0008 005091E5 		ldr	r5, [r1]
 205 000c 0420A0E3 		mov	r2, #4
 206              		.pad #84
 207 0010 54D04DE2 		sub	sp, sp, #84
 208 0014 0070A0E1 		mov	r7, r0
 209 0018 003090E5 		ldr	r3, [r0]
 210 001c 0160A0E1 		mov	r6, r1
 211 0020 0020C4E5 		strb	r2, [r4]
 212 0024 050053E1 		cmp	r3, r5
 213 0028 0350A0A1 		movge	r5, r3
 214 002c 050055E3 		cmp	r5, #5
 215 0030 CD0000DA 		ble	.L38
 216 0034 2E0275E3 		cmn	r5, #-536870910
 217 0038 C50300CA 		bgt	.L39
 218 003c 0501A0E1 		lsl	r0, r5, #2
 219              	.LEHB0:
 220 0040 FEFFFFEB 		bl	_Znaj
 221              	.LEHE0:
 222 0044 080055E3 		cmp	r5, #8
 223 0048 0C008DE5 		str	r0, [sp, #12]
 224 004c 0020A0D3 		movle	r2, #0
 225 0050 120000DA 		ble	.L41
 226 0054 091045E2 		sub	r1, r5, #9
 227 0058 883080E2 		add	r3, r0, #136
 228 005c 0710C1E3 		bic	r1, r1, #7
 229 0060 0020A0E3 		mov	r2, #0
 230 0064 081081E2 		add	r1, r1, #8
 231 0068 01C0A0E3 		mov	ip, #1
 232              	.L45:
 233 006c 082082E2 		add	r2, r2, #8
 234 0070 00F0D3F5 		pld	[r3]
 235 0074 010052E1 		cmp	r2, r1
 236 0078 88C003E5 		str	ip, [r3, #-136]
 237 007c 84C003E5 		str	ip, [r3, #-132]
 238 0080 203083E2 		add	r3, r3, #32
 239 0084 A0C003E5 		str	ip, [r3, #-160]
 240 0088 9CC003E5 		str	ip, [r3, #-156]
 241 008c 98C003E5 		str	ip, [r3, #-152]
 242 0090 94C003E5 		str	ip, [r3, #-148]
 243 0094 90C003E5 		str	ip, [r3, #-144]
 244 0098 8CC003E5 		str	ip, [r3, #-140]
 245 009c F2FFFF1A 		bne	.L45
 246              	.L41:
 247 00a0 020180E0 		add	r0, r0, r2, lsl #2
 248 00a4 0130A0E3 		mov	r3, #1
 249              	.L47:
 250 00a8 012082E2 		add	r2, r2, #1
 251 00ac 043080E4 		str	r3, [r0], #4
 252 00b0 020055E1 		cmp	r5, r2
 253 00b4 FBFFFFCA 		bgt	.L47
 254 00b8 003097E5 		ldr	r3, [r7]
 255 00bc 0020A0E3 		mov	r2, #0
 256 00c0 20208DE5 		str	r2, [sp, #32]
 257 00c4 050053E1 		cmp	r3, r5
 258 00c8 20508DD5 		strle	r5, [sp, #32]
 259 00cc AF0000CA 		bgt	.L43
 260              	.L201:
 261 00d0 2E0275E3 		cmn	r5, #-536870910
 262 00d4 8E0300CA 		bgt	.L49
 263 00d8 0501A0E1 		lsl	r0, r5, #2
 264              	.LEHB1:
 265 00dc FEFFFFEB 		bl	_Znaj
 266              	.LEHE1:
 267 00e0 002097E5 		ldr	r2, [r7]
 268 00e4 24008DE5 		str	r0, [sp, #36]
 269 00e8 023045E0 		sub	r3, r5, r2
 270 00ec 000053E3 		cmp	r3, #0
 271 00f0 0D0000DA 		ble	.L195
 272 00f4 000055E3 		cmp	r5, #0
 273 00f8 040040C2 		subgt	r0, r0, #4
 274 00fc 0020A0C3 		movgt	r2, #0
 275 0100 0110A0C3 		movgt	r1, #1
 276 0104 020000CA 		bgt	.L52
 277 0108 BF0000EA 		b	.L53
 278              	.L430:
 279 010c 050052E1 		cmp	r2, r5
 280 0110 BD00000A 		beq	.L53
 281              	.L52:
 282 0114 012082E2 		add	r2, r2, #1
 283 0118 0410A0E5 		str	r1, [r0, #4]!
 284 011c 030052E1 		cmp	r2, r3
 285 0120 F9FFFFBA 		blt	.L430
 286 0124 24009DE5 		ldr	r0, [sp, #36]
 287 0128 002097E5 		ldr	r2, [r7]
 288              	.L195:
 289 012c 050052E3 		cmp	r2, #5
 290 0130 030180E0 		add	r0, r0, r3, lsl #2
 291 0134 041097C5 		ldrgt	r1, [r7, #4]
 292 0138 041087D2 		addle	r1, r7, #4
 293 013c 0221A0E1 		lsl	r2, r2, #2
 294 0140 FEFFFFEB 		bl	memcpy
 295 0144 002096E5 		ldr	r2, [r6]
 296 0148 0030A0E3 		mov	r3, #0
 297 014c 38308DE5 		str	r3, [sp, #56]
 298 0150 050052E1 		cmp	r2, r5
 299 0154 710300CA 		bgt	.L504
 300 0158 050055E3 		cmp	r5, #5
 301 015c 38508DE5 		str	r5, [sp, #56]
 302 0160 AD0000DA 		ble	.L60
 303 0164 2E0275E3 		cmn	r5, #-536870910
 304 0168 760300CA 		bgt	.L61
 305 016c 0501A0E1 		lsl	r0, r5, #2
 306              	.LEHB2:
 307 0170 FEFFFFEB 		bl	_Znaj
 308              	.LEHE2:
 309 0174 002096E5 		ldr	r2, [r6]
 310 0178 3C008DE5 		str	r0, [sp, #60]
 311 017c 021045E0 		sub	r1, r5, r2
 312 0180 000051E3 		cmp	r1, #0
 313 0184 042040C2 		subgt	r2, r0, #4
 314 0188 0030A0C3 		movgt	r3, #0
 315 018c 0100A0C3 		movgt	r0, #1
 316 0190 020000CA 		bgt	.L64
 317 0194 070000EA 		b	.L197
 318              	.L432:
 319 0198 050053E1 		cmp	r3, r5
 320 019c BB00000A 		beq	.L65
 321              	.L64:
 322 01a0 013083E2 		add	r3, r3, #1
 323 01a4 0400A2E5 		str	r0, [r2, #4]!
 324 01a8 010053E1 		cmp	r3, r1
 325 01ac F9FFFFBA 		blt	.L432
 326 01b0 3C009DE5 		ldr	r0, [sp, #60]
 327 01b4 002096E5 		ldr	r2, [r6]
 328              	.L197:
 329 01b8 050052E3 		cmp	r2, #5
 330 01bc 010180E0 		add	r0, r0, r1, lsl #2
 331 01c0 0221A0E1 		lsl	r2, r2, #2
 332 01c4 041096C5 		ldrgt	r1, [r6, #4]
 333 01c8 041086D2 		addle	r1, r6, #4
 334 01cc FEFFFFEB 		bl	memcpy
 335 01d0 20709DE5 		ldr	r7, [sp, #32]
 336 01d4 38609DE5 		ldr	r6, [sp, #56]
 337 01d8 060057E1 		cmp	r7, r6
 338 01dc AC00000A 		beq	.L505
 339              	.L71:
 340 01e0 013055E2 		subs	r3, r5, #1
 341 01e4 3900004A 		bmi	.L83
 342 01e8 070053E1 		cmp	r3, r7
 343 01ec 7E0100AA 		bge	.L77
 344 01f0 050057E3 		cmp	r7, #5
 345 01f4 24809DE5 		ldr	r8, [sp, #36]
 346 01f8 3C009DE5 		ldr	r0, [sp, #60]
 347 01fc B60000CA 		bgt	.L79
 348 0200 050056E3 		cmp	r6, #5
 349 0204 430100CA 		bgt	.L80
 350 0208 50208DE2 		add	r2, sp, #80
 351 020c 060053E1 		cmp	r3, r6
 352 0210 032182E0 		add	r2, r2, r3, lsl #2
 353 0214 2CC012E5 		ldr	ip, [r2, #-44]
 354 0218 370300AA 		bge	.L81
 355 021c 14E012E5 		ldr	lr, [r2, #-20]
 356 0220 0C005EE1 		cmp	lr, ip
 357 0224 DD00001A 		bne	.L82
 358 0228 022055E2 		subs	r2, r5, #2
 359 022c 2700004A 		bmi	.L83
 360 0230 070052E1 		cmp	r2, r7
 361 0234 6C0100AA 		bge	.L77
 362 0238 50108DE2 		add	r1, sp, #80
 363 023c 060052E1 		cmp	r2, r6
 364 0240 022181E0 		add	r2, r1, r2, lsl #2
 365 0244 2CC012E5 		ldr	ip, [r2, #-44]
 366 0248 2B0300AA 		bge	.L81
 367 024c 14E012E5 		ldr	lr, [r2, #-20]
 368 0250 0E005CE1 		cmp	ip, lr
 369 0254 D100001A 		bne	.L82
 370 0258 032045E2 		sub	r2, r5, #3
 371 025c 010072E3 		cmn	r2, #1
 372 0260 1A00000A 		beq	.L83
 373 0264 020057E1 		cmp	r7, r2
 374 0268 5F0100DA 		ble	.L77
 375 026c 020056E1 		cmp	r6, r2
 376 0270 022181E0 		add	r2, r1, r2, lsl #2
 377 0274 2CC012E5 		ldr	ip, [r2, #-44]
 378 0278 1F0300DA 		ble	.L81
 379 027c 14E012E5 		ldr	lr, [r2, #-20]
 380 0280 0C005EE1 		cmp	lr, ip
 381 0284 C500001A 		bne	.L82
 382 0288 042045E2 		sub	r2, r5, #4
 383 028c 010072E3 		cmn	r2, #1
 384 0290 0E00000A 		beq	.L83
 385 0294 020057E1 		cmp	r7, r2
 386 0298 530100DA 		ble	.L77
 387 029c 020056E1 		cmp	r6, r2
 388 02a0 022181E0 		add	r2, r1, r2, lsl #2
 389 02a4 2CC012E5 		ldr	ip, [r2, #-44]
 390 02a8 130300DA 		ble	.L81
 391 02ac 14E012E5 		ldr	lr, [r2, #-20]
 392 02b0 0E005CE1 		cmp	ip, lr
 393 02b4 B900001A 		bne	.L82
 394 02b8 040055E3 		cmp	r5, #4
 395 02bc 0300000A 		beq	.L83
 396 02c0 000058E1 		cmp	r8, r0
 397 02c4 08C0A0E1 		mov	ip, r8
 398 02c8 00E0A0E1 		mov	lr, r0
 399 02cc B300001A 		bne	.L82
 400              	.L83:
 401 02d0 0020D4E5 		ldrb	r2, [r4]	@ zero_extendqisi2
 402 02d4 021042E2 		sub	r1, r2, #2
 403 02d8 010051E3 		cmp	r1, #1
 404 02dc 0E03008A 		bhi	.L506
 405 02e0 030052E3 		cmp	r2, #3
 406 02e4 01E0A0E3 		mov	lr, #1
 407 02e8 0620A001 		moveq	r2, r6
 408 02ec 0710A001 		moveq	r1, r7
 409 02f0 38008D02 		addeq	r0, sp, #56
 410 02f4 20C08D02 		addeq	ip, sp, #32
 411 02f8 0720A011 		movne	r2, r7
 412 02fc 0610A011 		movne	r1, r6
 413 0300 20008D12 		addne	r0, sp, #32
 414 0304 38C08D12 		addne	ip, sp, #56
 415 0308 000053E3 		cmp	r3, #0
 416 030c 50E084E5 		str	lr, [r4, #80]
 417 0310 54E084E5 		str	lr, [r4, #84]
 418 0314 58E084E5 		str	lr, [r4, #88]
 419 0318 5CE084E5 		str	lr, [r4, #92]
 420 031c 60E084E5 		str	lr, [r4, #96]
 421 0320 570100AA 		bge	.L90
 422              	.L97:
 423 0324 050056E3 		cmp	r6, #5
 424 0328 0180A0E3 		mov	r8, #1
 425 032c 650000CA 		bgt	.L507
 426              	.L180:
 427 0330 050057E3 		cmp	r7, #5
 428 0334 030000DA 		ble	.L181
 429 0338 24009DE5 		ldr	r0, [sp, #36]
 430 033c 000050E3 		cmp	r0, #0
 431 0340 0000000A 		beq	.L181
 432 0344 FEFFFFEB 		bl	_ZdaPv
 433              	.L181:
 434 0348 050055E3 		cmp	r5, #5
 435 034c 030000DA 		ble	.L238
 436 0350 0C009DE5 		ldr	r0, [sp, #12]
 437 0354 000050E3 		cmp	r0, #0
 438 0358 0000000A 		beq	.L238
 439 035c FEFFFFEB 		bl	_ZdaPv
 440              	.L238:
 441 0360 0800A0E1 		mov	r0, r8
 442 0364 54D08DE2 		add	sp, sp, #84
 443              		@ sp needed
 444 0368 F08FBDE8 		pop	{r4, r5, r6, r7, r8, r9, r10, fp, pc}
 445              	.L38:
 446 036c 000055E3 		cmp	r5, #0
 447 0370 EB0200DA 		ble	.L508
 448 0374 030055E1 		cmp	r5, r3
 449 0378 0020A0E3 		mov	r2, #0
 450 037c 0110A0E3 		mov	r1, #1
 451 0380 20208DE5 		str	r2, [sp, #32]
 452 0384 0C108DE5 		str	r1, [sp, #12]
 453 0388 0320A0E1 		mov	r2, r3
 454 038c 000000AA 		bge	.L509
 455              	.L43:
 456              	.LEHB3:
 457 0390 FEFFFFEB 		bl	abort
 458              	.L509:
 459 0394 20508DE5 		str	r5, [sp, #32]
 460              	.L48:
 461 0398 033045E0 		sub	r3, r5, r3
 462 039c 000053E3 		cmp	r3, #0
 463 03a0 E90200DA 		ble	.L510
 464 03a4 000055E3 		cmp	r5, #0
 465 03a8 170000DA 		ble	.L53
 466 03ac 010053E3 		cmp	r3, #1
 467 03b0 0120A0E3 		mov	r2, #1
 468 03b4 24208DE5 		str	r2, [sp, #36]
 469 03b8 1400000A 		beq	.L54
 470 03bc 020055E1 		cmp	r5, r2
 471 03c0 1100000A 		beq	.L53
 472 03c4 020053E3 		cmp	r3, #2
 473 03c8 28208DE5 		str	r2, [sp, #40]
 474 03cc 0F00000A 		beq	.L54
 475 03d0 020055E3 		cmp	r5, #2
 476 03d4 0C00000A 		beq	.L53
 477 03d8 030053E3 		cmp	r3, #3
 478 03dc 2C208DE5 		str	r2, [sp, #44]
 479 03e0 0A00000A 		beq	.L54
 480 03e4 030055E3 		cmp	r5, #3
 481 03e8 0700000A 		beq	.L53
 482 03ec 040053E3 		cmp	r3, #4
 483 03f0 30208DE5 		str	r2, [sp, #48]
 484 03f4 0500000A 		beq	.L54
 485 03f8 040055E3 		cmp	r5, #4
 486 03fc 0200000A 		beq	.L53
 487 0400 050053E3 		cmp	r3, #5
 488 0404 34208DE5 		str	r2, [sp, #52]
 489 0408 0000000A 		beq	.L54
 490              	.L53:
 491 040c FEFFFFEB 		bl	abort
 492              	.LEHE3:
 493              	.L54:
 494 0410 002097E5 		ldr	r2, [r7]
 495 0414 24008DE2 		add	r0, sp, #36
 496 0418 43FFFFEA 		b	.L195
 497              	.L60:
 498 041c 021045E0 		sub	r1, r5, r2
 499 0420 000051E3 		cmp	r1, #0
 500 0424 010100DA 		ble	.L511
 501 0428 000055E3 		cmp	r5, #0
 502 042c 170000DA 		ble	.L65
 503 0430 010051E3 		cmp	r1, #1
 504 0434 0130A0E3 		mov	r3, #1
 505 0438 3C308DE5 		str	r3, [sp, #60]
 506 043c FD00000A 		beq	.L66
 507 0440 030055E1 		cmp	r5, r3
 508 0444 1100000A 		beq	.L65
 509 0448 020051E3 		cmp	r1, #2
 510 044c 40308DE5 		str	r3, [sp, #64]
 511 0450 F800000A 		beq	.L66
 512 0454 020055E3 		cmp	r5, #2
 513 0458 0C00000A 		beq	.L65
 514 045c 030051E3 		cmp	r1, #3
 515 0460 44308DE5 		str	r3, [sp, #68]
 516 0464 F300000A 		beq	.L66
 517 0468 030055E3 		cmp	r5, #3
 518 046c 0700000A 		beq	.L65
 519 0470 040051E3 		cmp	r1, #4
 520 0474 48308DE5 		str	r3, [sp, #72]
 521 0478 EE00000A 		beq	.L66
 522 047c 050055E3 		cmp	r5, #5
 523 0480 0200001A 		bne	.L65
 524 0484 050051E3 		cmp	r1, #5
 525 0488 4C308DE5 		str	r3, [sp, #76]
 526 048c E900000A 		beq	.L66
 527              	.L65:
 528              	.LEHB4:
 529 0490 FEFFFFEB 		bl	abort
 530              	.LEHE4:
 531              	.L505:
 532 0494 050057E3 		cmp	r7, #5
 533 0498 0721A0E1 		lsl	r2, r7, #2
 534 049c 24009DC5 		ldrgt	r0, [sp, #36]
 535 04a0 24008DD2 		addle	r0, sp, #36
 536 04a4 3C109DC5 		ldrgt	r1, [sp, #60]
 537 04a8 3C108DD2 		addle	r1, sp, #60
 538 04ac FEFFFFEB 		bl	memcmp
 539 04b0 008050E2 		subs	r8, r0, #0
 540 04b4 49FFFF1A 		bne	.L71
 541 04b8 0130A0E3 		mov	r3, #1
 542 04bc 0030C4E5 		strb	r3, [r4]
 543              	.L91:
 544 04c0 050056E3 		cmp	r6, #5
 545 04c4 99FFFFDA 		ble	.L180
 546              	.L507:
 547 04c8 3C009DE5 		ldr	r0, [sp, #60]
 548 04cc 000050E3 		cmp	r0, #0
 549 04d0 96FFFF0A 		beq	.L180
 550 04d4 FEFFFFEB 		bl	_ZdaPv
 551 04d8 94FFFFEA 		b	.L180
 552              	.L79:
 553 04dc 050056E3 		cmp	r6, #5
 554 04e0 C20000CA 		bgt	.L84
 555 04e4 060053E1 		cmp	r3, r6
 556 04e8 0321A0E1 		lsl	r2, r3, #2
 557 04ec 03C198E7 		ldr	ip, [r8, r3, lsl #2]
 558 04f0 810200AA 		bge	.L81
 559 04f4 50108DE2 		add	r1, sp, #80
 560 04f8 021081E0 		add	r1, r1, r2
 561 04fc 14E011E5 		ldr	lr, [r1, #-20]
 562 0500 0E005CE1 		cmp	ip, lr
 563 0504 2500001A 		bne	.L82
 564 0508 021055E2 		subs	r1, r5, #2
 565 050c 6FFFFF4A 		bmi	.L83
 566 0510 010056E1 		cmp	r6, r1
 567 0514 028088E0 		add	r8, r8, r2
 568 0518 04C018E5 		ldr	ip, [r8, #-4]
 569 051c 760200DA 		ble	.L81
 570 0520 50208DE2 		add	r2, sp, #80
 571 0524 011182E0 		add	r1, r2, r1, lsl #2
 572 0528 14E011E5 		ldr	lr, [r1, #-20]
 573 052c 0C005EE1 		cmp	lr, ip
 574 0530 1A00001A 		bne	.L82
 575 0534 032045E2 		sub	r2, r5, #3
 576 0538 010072E3 		cmn	r2, #1
 577 053c 63FFFF0A 		beq	.L83
 578 0540 020056E1 		cmp	r6, r2
 579 0544 08C018E5 		ldr	ip, [r8, #-8]
 580 0548 6B0200DA 		ble	.L81
 581 054c 50108DE2 		add	r1, sp, #80
 582 0550 022181E0 		add	r2, r1, r2, lsl #2
 583 0554 14E012E5 		ldr	lr, [r2, #-20]
 584 0558 0E005CE1 		cmp	ip, lr
 585 055c 0F00001A 		bne	.L82
 586 0560 042045E2 		sub	r2, r5, #4
 587 0564 010072E3 		cmn	r2, #1
 588 0568 58FFFF0A 		beq	.L83
 589 056c 020056E1 		cmp	r6, r2
 590 0570 0CC018E5 		ldr	ip, [r8, #-12]
 591 0574 600200DA 		ble	.L81
 592 0578 022181E0 		add	r2, r1, r2, lsl #2
 593 057c 14E012E5 		ldr	lr, [r2, #-20]
 594 0580 0C005EE1 		cmp	lr, ip
 595 0584 0500001A 		bne	.L82
 596 0588 040055E3 		cmp	r5, #4
 597 058c 4FFFFF0A 		beq	.L83
 598 0590 10C018E5 		ldr	ip, [r8, #-16]
 599 0594 3CE09DE5 		ldr	lr, [sp, #60]
 600 0598 0E005CE1 		cmp	ip, lr
 601 059c 4BFFFF0A 		beq	.L83
 602              	.L82:
 603 05a0 01005CE3 		cmp	ip, #1
 604 05a4 A600001A 		bne	.L87
 605 05a8 50C084E5 		str	ip, [r4, #80]
 606 05ac 0610A0E1 		mov	r1, r6
 607 05b0 54C084E5 		str	ip, [r4, #84]
 608 05b4 0720A0E1 		mov	r2, r7
 609 05b8 58C084E5 		str	ip, [r4, #88]
 610 05bc 20008DE2 		add	r0, sp, #32
 611 05c0 5CC084E5 		str	ip, [r4, #92]
 612 05c4 02E0A0E3 		mov	lr, #2
 613 05c8 60C084E5 		str	ip, [r4, #96]
 614 05cc 38C08DE2 		add	ip, sp, #56
 615 05d0 00E0C4E5 		strb	lr, [r4]
 616              	.L88:
 617 05d4 050052E3 		cmp	r2, #5
 618 05d8 AC0000CA 		bgt	.L100
 619 05dc 050051E3 		cmp	r1, #5
 620 05e0 C00000CA 		bgt	.L101
 621 05e4 0591A0E1 		lsl	r9, r5, #2
 622 05e8 01E0A0E3 		mov	lr, #1
 623 05ec 09A080E0 		add	r10, r0, r9
 624 05f0 09908CE0 		add	r9, ip, r9
 625              	.L106:
 626 05f4 010053E1 		cmp	r3, r1
 627 05f8 04801AE4 		ldr	r8, [r10], #-4
 628 05fc 430200AA 		bge	.L102
 629 0600 04B019E4 		ldr	fp, [r9], #-4
 630 0604 0B0058E1 		cmp	r8, fp
 631 0608 EF00000A 		beq	.L512
 632              	.L103:
 633 060c 000053E3 		cmp	r3, #0
 634 0610 43FFFFBA 		blt	.L97
 635 0614 020053E1 		cmp	r3, r2
 636 0618 160100AA 		bge	.L117
 637 061c 050052E3 		cmp	r2, #5
 638 0620 2B0100CA 		bgt	.L118
 639 0624 050051E3 		cmp	r1, #5
 640 0628 820100CA 		bgt	.L119
 641 062c 03E1A0E1 		lsl	lr, r3, #2
 642 0630 0180A0E3 		mov	r8, #1
 643 0634 08E08EE2 		add	lr, lr, #8
 644 0638 0EA080E0 		add	r10, r0, lr
 645 063c 0EE08CE0 		add	lr, ip, lr
 646              	.L124:
 647 0640 04903AE5 		ldr	r9, [r10, #-4]!
 648 0644 010059E3 		cmp	r9, #1
 649 0648 FE00000A 		beq	.L513
 650              	.L120:
 651 064c 000053E3 		cmp	r3, #0
 652 0650 33FFFFBA 		blt	.L97
 653 0654 020053E1 		cmp	r3, r2
 654 0658 EE0000AA 		bge	.L133
 655 065c 050052E3 		cmp	r2, #5
 656 0660 320100CA 		bgt	.L134
 657 0664 050051E3 		cmp	r1, #5
 658 0668 870100CA 		bgt	.L135
 659 066c 0391A0E1 		lsl	r9, r3, #2
 660 0670 01E0A0E3 		mov	lr, #1
 661 0674 089089E2 		add	r9, r9, #8
 662 0678 09A080E0 		add	r10, r0, r9
 663 067c 09908CE0 		add	r9, ip, r9
 664              	.L140:
 665 0680 010053E1 		cmp	r3, r1
 666 0684 04B03AE5 		ldr	fp, [r10, #-4]!
 667 0688 1C0200AA 		bge	.L136
 668 068c 048039E5 		ldr	r8, [r9, #-4]!
 669 0690 0B0058E1 		cmp	r8, fp
 670 0694 D600000A 		beq	.L514
 671 0698 000053E3 		cmp	r3, #0
 672 069c 0391A0A1 		lslge	r9, r3, #2
 673 06a0 089089A2 		addge	r9, r9, #8
 674 06a4 09A08CA0 		addge	r10, ip, r9
 675 06a8 099080A0 		addge	r9, r0, r9
 676 06ac 1CFFFFBA 		blt	.L97
 677              	.L156:
 678 06b0 04E03AE5 		ldr	lr, [r10, #-4]!
 679 06b4 01005EE3 		cmp	lr, #1
 680 06b8 EF00000A 		beq	.L515
 681              	.L153:
 682 06bc 030052E1 		cmp	r2, r3
 683 06c0 DF0000DA 		ble	.L164
 684 06c4 050052E3 		cmp	r2, #5
 685 06c8 00809CE5 		ldr	r8, [ip]
 686 06cc 400100CA 		bgt	.L165
 687 06d0 050058E3 		cmp	r8, #5
 688 06d4 960100CA 		bgt	.L166
 689 06d8 0311A0E1 		lsl	r1, r3, #2
 690 06dc 081081E2 		add	r1, r1, #8
 691 06e0 010080E0 		add	r0, r0, r1
 692 06e4 01C08CE0 		add	ip, ip, r1
 693              	.L171:
 694 06e8 080053E1 		cmp	r3, r8
 695 06ec 04E030E5 		ldr	lr, [r0, #-4]!
 696 06f0 040200AA 		bge	.L167
 697 06f4 04103CE5 		ldr	r1, [ip, #-4]!
 698 06f8 0E0051E1 		cmp	r1, lr
 699 06fc C600000A 		beq	.L516
 700              	.L168:
 701 0700 000053E3 		cmp	r3, #0
 702 0704 0430A0A3 		movge	r3, #4
 703 0708 0180A0A3 		movge	r8, #1
 704 070c 0030C4A5 		strbge	r3, [r4]
 705 0710 6AFFFFAA 		bge	.L91
 706 0714 02FFFFEA 		b	.L97
 707              	.L80:
 708 0718 0311A0E1 		lsl	r1, r3, #2
 709 071c 50208DE2 		add	r2, sp, #80
 710 0720 060053E1 		cmp	r3, r6
 711 0724 012082E0 		add	r2, r2, r1
 712 0728 2CC012E5 		ldr	ip, [r2, #-44]
 713 072c F20100AA 		bge	.L81
 714 0730 03E190E7 		ldr	lr, [r0, r3, lsl #2]
 715 0734 0C005EE1 		cmp	lr, ip
 716 0738 98FFFF1A 		bne	.L82
 717 073c 022055E2 		subs	r2, r5, #2
 718 0740 E2FEFF4A 		bmi	.L83
 719 0744 020057E1 		cmp	r7, r2
 720 0748 270000DA 		ble	.L77
 721 074c 50C08DE2 		add	ip, sp, #80
 722 0750 011080E0 		add	r1, r0, r1
 723 0754 02218CE0 		add	r2, ip, r2, lsl #2
 724 0758 04E011E5 		ldr	lr, [r1, #-4]
 725 075c 2CC012E5 		ldr	ip, [r2, #-44]
 726 0760 0C005EE1 		cmp	lr, ip
 727 0764 8DFFFF1A 		bne	.L82
 728 0768 032045E2 		sub	r2, r5, #3
 729 076c 010072E3 		cmn	r2, #1
 730 0770 D6FEFF0A 		beq	.L83
 731 0774 020057E1 		cmp	r7, r2
 732 0778 1B0000DA 		ble	.L77
 733 077c 50008DE2 		add	r0, sp, #80
 734 0780 08E011E5 		ldr	lr, [r1, #-8]
 735 0784 022180E0 		add	r2, r0, r2, lsl #2
 736 0788 2CC012E5 		ldr	ip, [r2, #-44]
 737 078c 0E005CE1 		cmp	ip, lr
 738 0790 82FFFF1A 		bne	.L82
 739 0794 042045E2 		sub	r2, r5, #4
 740 0798 010072E3 		cmn	r2, #1
 741 079c CBFEFF0A 		beq	.L83
 742 07a0 020057E1 		cmp	r7, r2
 743 07a4 100000DA 		ble	.L77
 744 07a8 022180E0 		add	r2, r0, r2, lsl #2
 745 07ac 0CE011E5 		ldr	lr, [r1, #-12]
 746 07b0 2CC012E5 		ldr	ip, [r2, #-44]
 747 07b4 0E005CE1 		cmp	ip, lr
 748 07b8 78FFFF1A 		bne	.L82
 749 07bc 052045E2 		sub	r2, r5, #5
 750 07c0 010072E3 		cmn	r2, #1
 751 07c4 C1FEFF0A 		beq	.L83
 752 07c8 020057E1 		cmp	r7, r2
 753 07cc 060000DA 		ble	.L77
 754 07d0 022180E0 		add	r2, r0, r2, lsl #2
 755 07d4 10E011E5 		ldr	lr, [r1, #-16]
 756 07d8 2CC012E5 		ldr	ip, [r2, #-44]
 757 07dc 0E005CE1 		cmp	ip, lr
 758 07e0 6EFFFF1A 		bne	.L82
 759 07e4 050055E3 		cmp	r5, #5
 760 07e8 B8FEFF0A 		beq	.L83
 761              	.L77:
 762              	.LEHB5:
 763 07ec FEFFFFEB 		bl	abort
 764              	.L84:
 765 07f0 0511A0E1 		lsl	r1, r5, #2
 766 07f4 0320A0E1 		mov	r2, r3
 767 07f8 018088E0 		add	r8, r8, r1
 768 07fc 011080E0 		add	r1, r0, r1
 769 0800 030000EA 		b	.L78
 770              	.L86:
 771 0804 012052E2 		subs	r2, r2, #1
 772 0808 B0FEFF3A 		bcc	.L83
 773 080c 070052E1 		cmp	r2, r7
 774 0810 F5FFFFAA 		bge	.L77
 775              	.L78:
 776 0814 020056E1 		cmp	r6, r2
 777 0818 04C038E5 		ldr	ip, [r8, #-4]!
 778 081c B60100DA 		ble	.L81
 779 0820 04E031E5 		ldr	lr, [r1, #-4]!
 780 0824 0E005CE1 		cmp	ip, lr
 781 0828 F5FFFF0A 		beq	.L86
 782 082c 5BFFFFEA 		b	.L82
 783              	.L511:
 784 0830 3C008DE2 		add	r0, sp, #60
 785 0834 5FFEFFEA 		b	.L197
 786              	.L66:
 787 0838 002096E5 		ldr	r2, [r6]
 788 083c 3C008DE2 		add	r0, sp, #60
 789 0840 5CFEFFEA 		b	.L197
 790              	.L87:
 791 0844 01005EE3 		cmp	lr, #1
 792 0848 0430A013 		movne	r3, #4
 793 084c 0180A013 		movne	r8, #1
 794 0850 0030C415 		strbne	r3, [r4]
 795 0854 19FFFF1A 		bne	.L91
 796 0858 0710A0E1 		mov	r1, r7
 797 085c 0620A0E1 		mov	r2, r6
 798 0860 38008DE2 		add	r0, sp, #56
 799 0864 20C08DE2 		add	ip, sp, #32
 800 0868 0380A0E3 		mov	r8, #3
 801 086c 50E084E5 		str	lr, [r4, #80]
 802 0870 54E084E5 		str	lr, [r4, #84]
 803 0874 58E084E5 		str	lr, [r4, #88]
 804 0878 5CE084E5 		str	lr, [r4, #92]
 805 087c 60E084E5 		str	lr, [r4, #96]
 806 0880 0080C4E5 		strb	r8, [r4]
 807              	.L90:
 808 0884 020053E1 		cmp	r3, r2
 809 0888 51FFFFBA 		blt	.L88
 810 088c 570000EA 		b	.L99
 811              	.L100:
 812 0890 050051E3 		cmp	r1, #5
 813 0894 280000CA 		bgt	.L108
 814 0898 049090E5 		ldr	r9, [r0, #4]
 815 089c 0581A0E1 		lsl	r8, r5, #2
 816 08a0 01E0A0E3 		mov	lr, #1
 817 08a4 08A08CE0 		add	r10, ip, r8
 818 08a8 089089E0 		add	r9, r9, r8
 819 08ac 040000EA 		b	.L109
 820              	.L517:
 821 08b0 980E0EE0 		mul	lr, r8, lr
 822 08b4 013043E2 		sub	r3, r3, #1
 823 08b8 010073E3 		cmn	r3, #1
 824 08bc 60E084E5 		str	lr, [r4, #96]
 825 08c0 97FEFF0A 		beq	.L97
 826              	.L109:
 827 08c4 010053E1 		cmp	r3, r1
 828 08c8 048039E5 		ldr	r8, [r9, #-4]!
 829 08cc 8F0100AA 		bge	.L102
 830 08d0 04B01AE4 		ldr	fp, [r10], #-4
 831 08d4 0B0058E1 		cmp	r8, fp
 832 08d8 4BFFFF1A 		bne	.L103
 833 08dc 010073E3 		cmn	r3, #1
 834 08e0 F2FFFF1A 		bne	.L517
 835              	.L104:
 836 08e4 FEFFFFEB 		bl	abort
 837              	.LEHE5:
 838              	.L101:
 839 08e8 059180E0 		add	r9, r0, r5, lsl #2
 840 08ec 01E0A0E3 		mov	lr, #1
 841 08f0 060000EA 		b	.L107
 842              	.L518:
 843 08f4 980E0EE0 		mul	lr, r8, lr
 844 08f8 013043E2 		sub	r3, r3, #1
 845 08fc 010073E3 		cmn	r3, #1
 846 0900 60E084E5 		str	lr, [r4, #96]
 847 0904 86FEFF0A 		beq	.L97
 848 0908 020053E1 		cmp	r3, r2
 849 090c 370000AA 		bge	.L99
 850              	.L107:
 851 0910 010053E1 		cmp	r3, r1
 852 0914 048019E4 		ldr	r8, [r9], #-4
 853 0918 7C0100AA 		bge	.L102
 854 091c 04B09CE5 		ldr	fp, [ip, #4]
 855 0920 00A049E0 		sub	r10, r9, r0
 856 0924 0AA09BE7 		ldr	r10, [fp, r10]
 857 0928 0A0058E1 		cmp	r8, r10
 858 092c 36FFFF1A 		bne	.L103
 859 0930 010073E3 		cmn	r3, #1
 860 0934 EEFFFF1A 		bne	.L518
 861 0938 E9FFFFEA 		b	.L104
 862              	.L108:
 863 093c 04B090E5 		ldr	fp, [r0, #4]
 864 0940 0180A0E3 		mov	r8, #1
 865 0944 00008DE5 		str	r0, [sp]
 866 0948 05918BE0 		add	r9, fp, r5, lsl #2
 867              	.L98:
 868 094c 010053E1 		cmp	r3, r1
 869 0950 04E039E5 		ldr	lr, [r9, #-4]!
 870 0954 6D0100AA 		bge	.L102
 871 0958 04009CE5 		ldr	r0, [ip, #4]
 872 095c 0BA049E0 		sub	r10, r9, fp
 873 0960 0AA090E7 		ldr	r10, [r0, r10]
 874 0964 0A005EE1 		cmp	lr, r10
 875 0968 4F00000A 		beq	.L519
 876 096c 00009DE5 		ldr	r0, [sp]
 877 0970 25FFFFEA 		b	.L103
 878              	.L234:
 879              	.L148:
 880 0974 050056E3 		cmp	r6, #5
 881 0978 030000DA 		ble	.L184
 882 097c 3C009DE5 		ldr	r0, [sp, #60]
 883 0980 000050E3 		cmp	r0, #0
 884 0984 0000000A 		beq	.L184
 885 0988 FEFFFFEB 		bl	_ZdaPv
 886              	.L184:
 887 098c 20309DE5 		ldr	r3, [sp, #32]
 888 0990 050053E3 		cmp	r3, #5
 889 0994 030000DA 		ble	.L186
 890 0998 24009DE5 		ldr	r0, [sp, #36]
 891 099c 000050E3 		cmp	r0, #0
 892 09a0 0000000A 		beq	.L186
 893 09a4 FEFFFFEB 		bl	_ZdaPv
 894              	.L186:
 895 09a8 050055E3 		cmp	r5, #5
 896 09ac 030000DA 		ble	.L187
 897              	.L188:
 898 09b0 0C009DE5 		ldr	r0, [sp, #12]
 899 09b4 000050E3 		cmp	r0, #0
 900 09b8 0000000A 		beq	.L187
 901 09bc FEFFFFEB 		bl	_ZdaPv
 902              	.L187:
 903              	.LEHB6:
 904 09c0 FEFFFFEB 		bl	__cxa_end_cleanup
 905              	.LEHE6:
 906              	.L230:
 907 09c4 F7FFFFEA 		b	.L186
 908              	.L231:
 909 09c8 EFFFFFEA 		b	.L184
 910              	.L512:
 911 09cc 010073E3 		cmn	r3, #1
 912 09d0 C3FFFF0A 		beq	.L104
 913 09d4 980E0EE0 		mul	lr, r8, lr
 914 09d8 013043E2 		sub	r3, r3, #1
 915 09dc 010073E3 		cmn	r3, #1
 916 09e0 60E084E5 		str	lr, [r4, #96]
 917 09e4 4EFEFF0A 		beq	.L97
 918 09e8 020053E1 		cmp	r3, r2
 919 09ec 00FFFFBA 		blt	.L106
 920              	.L99:
 921              	.LEHB7:
 922 09f0 FEFFFFEB 		bl	abort
 923              	.L514:
 924 09f4 010073E3 		cmn	r3, #1
 925 09f8 3D01000A 		beq	.L138
 926 09fc 980E0EE0 		mul	lr, r8, lr
 927 0a00 013043E2 		sub	r3, r3, #1
 928 0a04 010073E3 		cmn	r3, #1
 929 0a08 58E084E5 		str	lr, [r4, #88]
 930 0a0c 44FEFF0A 		beq	.L97
 931 0a10 020053E1 		cmp	r3, r2
 932 0a14 19FFFFBA 		blt	.L140
 933              	.L133:
 934 0a18 FEFFFFEB 		bl	abort
 935              	.L516:
 936 0a1c 010073E3 		cmn	r3, #1
 937 0a20 8100000A 		beq	.L169
 938 0a24 50E094E5 		ldr	lr, [r4, #80]
 939 0a28 013043E2 		sub	r3, r3, #1
 940 0a2c 010073E3 		cmn	r3, #1
 941 0a30 910E01E0 		mul	r1, r1, lr
 942 0a34 501084E5 		str	r1, [r4, #80]
 943 0a38 39FEFF0A 		beq	.L97
 944 0a3c 020053E1 		cmp	r3, r2
 945 0a40 28FFFFBA 		blt	.L171
 946              	.L164:
 947 0a44 FEFFFFEB 		bl	abort
 948              	.L513:
 949 0a48 010073E3 		cmn	r3, #1
 950 0a4c 3600000A 		beq	.L121
 951 0a50 010053E1 		cmp	r3, r1
 952 0a54 270100AA 		bge	.L122
 953 0a58 04903EE5 		ldr	r9, [lr, #-4]!
 954 0a5c 013043E2 		sub	r3, r3, #1
 955 0a60 010073E3 		cmn	r3, #1
 956 0a64 990808E0 		mul	r8, r9, r8
 957 0a68 5C8084E5 		str	r8, [r4, #92]
 958 0a6c 2CFEFF0A 		beq	.L97
 959 0a70 020053E1 		cmp	r3, r2
 960 0a74 F1FEFFBA 		blt	.L124
 961              	.L117:
 962 0a78 FEFFFFEB 		bl	abort
 963              	.L515:
 964 0a7c 020053E1 		cmp	r3, r2
 965 0a80 9F0000AA 		bge	.L154
 966 0a84 548094E5 		ldr	r8, [r4, #84]
 967 0a88 013043E2 		sub	r3, r3, #1
 968 0a8c 04E039E5 		ldr	lr, [r9, #-4]!
 969 0a90 010073E3 		cmn	r3, #1
 970 0a94 9E080EE0 		mul	lr, lr, r8
 971 0a98 54E084E5 		str	lr, [r4, #84]
 972 0a9c 20FEFF0A 		beq	.L97
 973 0aa0 010053E1 		cmp	r3, r1
 974 0aa4 01FFFFBA 		blt	.L156
 975              	.L157:
 976 0aa8 FEFFFFEB 		bl	abort
 977              	.L519:
 978 0aac 010073E3 		cmn	r3, #1
 979 0ab0 8BFFFF0A 		beq	.L104
 980 0ab4 980E08E0 		mul	r8, r8, lr
 981 0ab8 013043E2 		sub	r3, r3, #1
 982 0abc 010073E3 		cmn	r3, #1
 983 0ac0 608084E5 		str	r8, [r4, #96]
 984 0ac4 16FEFF0A 		beq	.L97
 985 0ac8 020053E1 		cmp	r3, r2
 986 0acc 9EFFFFBA 		blt	.L98
 987 0ad0 C6FFFFEA 		b	.L99
 988              	.L118:
 989 0ad4 050051E3 		cmp	r1, #5
 990 0ad8 AA0000CA 		bgt	.L126
 991 0adc 0381A0E1 		lsl	r8, r3, #2
 992 0ae0 04A090E5 		ldr	r10, [r0, #4]
 993 0ae4 01E0A0E3 		mov	lr, #1
 994 0ae8 089088E2 		add	r9, r8, #8
 995 0aec 09908CE0 		add	r9, ip, r9
 996 0af0 08A08AE0 		add	r10, r10, r8
 997 0af4 070000EA 		b	.L127
 998              	.L520:
 999 0af8 010053E1 		cmp	r3, r1
 1000 0afc FD0000AA 		bge	.L122
 1001 0b00 048039E5 		ldr	r8, [r9, #-4]!
 1002 0b04 013043E2 		sub	r3, r3, #1
 1003 0b08 010073E3 		cmn	r3, #1
 1004 0b0c 980E0EE0 		mul	lr, r8, lr
 1005 0b10 5CE084E5 		str	lr, [r4, #92]
 1006 0b14 02FEFF0A 		beq	.L97
 1007              	.L127:
 1008 0b18 04801AE4 		ldr	r8, [r10], #-4
 1009 0b1c 010058E3 		cmp	r8, #1
 1010 0b20 C9FEFF1A 		bne	.L120
 1011 0b24 010073E3 		cmn	r3, #1
 1012 0b28 F2FFFF1A 		bne	.L520
 1013              	.L121:
 1014 0b2c FEFFFFEB 		bl	abort
 1015              	.LEHE7:
 1016              	.L134:
 1017 0b30 050051E3 		cmp	r1, #5
 1018 0b34 A90000CA 		bgt	.L143
 1019 0b38 0381A0E1 		lsl	r8, r3, #2
 1020 0b3c 04A090E5 		ldr	r10, [r0, #4]
 1021 0b40 01E0A0E3 		mov	lr, #1
 1022 0b44 089088E2 		add	r9, r8, #8
 1023 0b48 09908CE0 		add	r9, ip, r9
 1024 0b4c 08A08AE0 		add	r10, r10, r8
 1025              	.L145:
 1026 0b50 010053E1 		cmp	r3, r1
 1027 0b54 04801AE4 		ldr	r8, [r10], #-4
 1028 0b58 E80000AA 		bge	.L136
 1029 0b5c 04B039E5 		ldr	fp, [r9, #-4]!
 1030 0b60 0B0058E1 		cmp	r8, fp
 1031 0b64 1200000A 		beq	.L521
 1032 0b68 000053E3 		cmp	r3, #0
 1033 0b6c 019083A2 		addge	r9, r3, #1
 1034 0b70 09918CA0 		addge	r9, ip, r9, lsl #2
 1035 0b74 EAFDFFBA 		blt	.L97
 1036              	.L158:
 1037 0b78 04E019E4 		ldr	lr, [r9], #-4
 1038 0b7c 01005EE3 		cmp	lr, #1
 1039 0b80 CDFEFF1A 		bne	.L153
 1040 0b84 04E090E5 		ldr	lr, [r0, #4]
 1041 0b88 0C8049E0 		sub	r8, r9, ip
 1042 0b8c 54A094E5 		ldr	r10, [r4, #84]
 1043 0b90 013043E2 		sub	r3, r3, #1
 1044 0b94 010073E3 		cmn	r3, #1
 1045 0b98 08E09EE7 		ldr	lr, [lr, r8]
 1046 0b9c 9E0A0EE0 		mul	lr, lr, r10
 1047 0ba0 54E084E5 		str	lr, [r4, #84]
 1048 0ba4 DEFDFF0A 		beq	.L97
 1049 0ba8 010053E1 		cmp	r3, r1
 1050 0bac F1FFFFBA 		blt	.L158
 1051 0bb0 BCFFFFEA 		b	.L157
 1052              	.L521:
 1053 0bb4 010073E3 		cmn	r3, #1
 1054 0bb8 CD00000A 		beq	.L138
 1055 0bbc 9E080EE0 		mul	lr, lr, r8
 1056 0bc0 013043E2 		sub	r3, r3, #1
 1057 0bc4 010073E3 		cmn	r3, #1
 1058 0bc8 58E084E5 		str	lr, [r4, #88]
 1059 0bcc DFFFFF1A 		bne	.L145
 1060 0bd0 D3FDFFEA 		b	.L97
 1061              	.L165:
 1062 0bd4 050058E3 		cmp	r8, #5
 1063 0bd8 AF0000CA 		bgt	.L173
 1064 0bdc 0311A0E1 		lsl	r1, r3, #2
 1065 0be0 040090E5 		ldr	r0, [r0, #4]
 1066 0be4 082081E2 		add	r2, r1, #8
 1067 0be8 010080E0 		add	r0, r0, r1
 1068 0bec 02C08CE0 		add	ip, ip, r2
 1069 0bf0 050000EA 		b	.L174
 1070              	.L522:
 1071 0bf4 501094E5 		ldr	r1, [r4, #80]
 1072 0bf8 013043E2 		sub	r3, r3, #1
 1073 0bfc 010073E3 		cmn	r3, #1
 1074 0c00 920102E0 		mul	r2, r2, r1
 1075 0c04 502084E5 		str	r2, [r4, #80]
 1076 0c08 C5FDFF0A 		beq	.L97
 1077              	.L174:
 1078 0c0c 080053E1 		cmp	r3, r8
 1079 0c10 041010E4 		ldr	r1, [r0], #-4
 1080 0c14 BB0000AA 		bge	.L167
 1081 0c18 04203CE5 		ldr	r2, [ip, #-4]!
 1082 0c1c 010052E1 		cmp	r2, r1
 1083 0c20 B6FEFF1A 		bne	.L168
 1084 0c24 010073E3 		cmn	r3, #1
 1085 0c28 F1FFFF1A 		bne	.L522
 1086              	.L169:
 1087              	.LEHB8:
 1088 0c2c FEFFFFEB 		bl	abort
 1089              	.LEHE8:
 1090              	.L232:
 1091              	.L491:
 1092 0c30 38609DE5 		ldr	r6, [sp, #56]
 1093 0c34 4EFFFFEA 		b	.L148
 1094              	.L119:
 1095 0c38 019083E2 		add	r9, r3, #1
 1096 0c3c 01E0A0E3 		mov	lr, #1
 1097 0c40 099180E0 		add	r9, r0, r9, lsl #2
 1098              	.L125:
 1099 0c44 048019E4 		ldr	r8, [r9], #-4
 1100 0c48 010058E3 		cmp	r8, #1
 1101 0c4c 7EFEFF1A 		bne	.L120
 1102 0c50 010073E3 		cmn	r3, #1
 1103 0c54 B4FFFF0A 		beq	.L121
 1104 0c58 010053E1 		cmp	r3, r1
 1105 0c5c A50000AA 		bge	.L122
 1106 0c60 04A09CE5 		ldr	r10, [ip, #4]
 1107 0c64 008049E0 		sub	r8, r9, r0
 1108 0c68 013043E2 		sub	r3, r3, #1
 1109 0c6c 010073E3 		cmn	r3, #1
 1110 0c70 08809AE7 		ldr	r8, [r10, r8]
 1111 0c74 980E0EE0 		mul	lr, r8, lr
 1112 0c78 5CE084E5 		str	lr, [r4, #92]
 1113 0c7c A8FDFF0A 		beq	.L97
 1114 0c80 020053E1 		cmp	r3, r2
 1115 0c84 EEFFFFBA 		blt	.L125
 1116 0c88 7AFFFFEA 		b	.L117
 1117              	.L135:
 1118 0c8c 019083E2 		add	r9, r3, #1
 1119 0c90 01E0A0E3 		mov	lr, #1
 1120 0c94 099180E0 		add	r9, r0, r9, lsl #2
 1121              	.L142:
 1122 0c98 010053E1 		cmp	r3, r1
 1123 0c9c 04B019E4 		ldr	fp, [r9], #-4
 1124 0ca0 960000AA 		bge	.L136
 1125 0ca4 04A09CE5 		ldr	r10, [ip, #4]
 1126 0ca8 008049E0 		sub	r8, r9, r0
 1127 0cac 08809AE7 		ldr	r8, [r10, r8]
 1128 0cb0 0B0058E1 		cmp	r8, fp
 1129 0cb4 1400000A 		beq	.L523
 1130 0cb8 000053E3 		cmp	r3, #0
 1131 0cbc 0391A0A1 		lslge	r9, r3, #2
 1132 0cc0 088089A2 		addge	r8, r9, #8
 1133 0cc4 09908AA0 		addge	r9, r10, r9
 1134 0cc8 088080A0 		addge	r8, r0, r8
 1135 0ccc 070000AA 		bge	.L159
 1136 0cd0 93FDFFEA 		b	.L97
 1137              	.L524:
 1138 0cd4 54E094E5 		ldr	lr, [r4, #84]
 1139 0cd8 013043E2 		sub	r3, r3, #1
 1140 0cdc 041038E5 		ldr	r1, [r8, #-4]!
 1141 0ce0 010073E3 		cmn	r3, #1
 1142 0ce4 910E01E0 		mul	r1, r1, lr
 1143 0ce8 541084E5 		str	r1, [r4, #84]
 1144 0cec 8CFDFF0A 		beq	.L97
 1145              	.L159:
 1146 0cf0 041019E4 		ldr	r1, [r9], #-4
 1147 0cf4 010051E3 		cmp	r1, #1
 1148 0cf8 6FFEFF1A 		bne	.L153
 1149 0cfc 020053E1 		cmp	r3, r2
 1150 0d00 F3FFFFBA 		blt	.L524
 1151              	.L154:
 1152              	.LEHB9:
 1153 0d04 FEFFFFEB 		bl	abort
 1154              	.LEHE9:
 1155              	.L236:
 1156 0d08 C8FFFFEA 		b	.L491
 1157              	.L523:
 1158 0d0c 010073E3 		cmn	r3, #1
 1159 0d10 7700000A 		beq	.L138
 1160 0d14 9E080EE0 		mul	lr, lr, r8
 1161 0d18 013043E2 		sub	r3, r3, #1
 1162 0d1c 010073E3 		cmn	r3, #1
 1163 0d20 58E084E5 		str	lr, [r4, #88]
 1164 0d24 7EFDFF0A 		beq	.L97
 1165 0d28 020053E1 		cmp	r3, r2
 1166 0d2c D9FFFFBA 		blt	.L142
 1167 0d30 38FFFFEA 		b	.L133
 1168              	.L166:
 1169 0d34 019083E2 		add	r9, r3, #1
 1170 0d38 099180E0 		add	r9, r0, r9, lsl #2
 1171              	.L172:
 1172 0d3c 080053E1 		cmp	r3, r8
 1173 0d40 04E019E4 		ldr	lr, [r9], #-4
 1174 0d44 6F0000AA 		bge	.L167
 1175 0d48 04A09CE5 		ldr	r10, [ip, #4]
 1176 0d4c 001049E0 		sub	r1, r9, r0
 1177 0d50 01109AE7 		ldr	r1, [r10, r1]
 1178 0d54 0E0051E1 		cmp	r1, lr
 1179 0d58 68FEFF1A 		bne	.L168
 1180 0d5c 010073E3 		cmn	r3, #1
 1181 0d60 B1FFFF0A 		beq	.L169
 1182 0d64 50E094E5 		ldr	lr, [r4, #80]
 1183 0d68 013043E2 		sub	r3, r3, #1
 1184 0d6c 010073E3 		cmn	r3, #1
 1185 0d70 910E01E0 		mul	r1, r1, lr
 1186 0d74 501084E5 		str	r1, [r4, #80]
 1187 0d78 69FDFF0A 		beq	.L97
 1188 0d7c 020053E1 		cmp	r3, r2
 1189 0d80 EDFFFFBA 		blt	.L172
 1190 0d84 2EFFFFEA 		b	.L164
 1191              	.L126:
 1192 0d88 049090E5 		ldr	r9, [r0, #4]
 1193 0d8c 01E0A0E3 		mov	lr, #1
 1194 0d90 04A069E2 		rsb	r10, r9, #4
 1195 0d94 039189E0 		add	r9, r9, r3, lsl #2
 1196              	.L116:
 1197 0d98 048019E4 		ldr	r8, [r9], #-4
 1198 0d9c 010058E3 		cmp	r8, #1
 1199 0da0 29FEFF1A 		bne	.L120
 1200 0da4 010073E3 		cmn	r3, #1
 1201 0da8 5FFFFF0A 		beq	.L121
 1202 0dac 010053E1 		cmp	r3, r1
 1203 0db0 500000AA 		bge	.L122
 1204 0db4 04809CE5 		ldr	r8, [ip, #4]
 1205 0db8 013043E2 		sub	r3, r3, #1
 1206 0dbc 010073E3 		cmn	r3, #1
 1207 0dc0 098088E0 		add	r8, r8, r9
 1208 0dc4 0A8098E7 		ldr	r8, [r8, r10]
 1209 0dc8 980E0EE0 		mul	lr, r8, lr
 1210 0dcc 5CE084E5 		str	lr, [r4, #92]
 1211 0dd0 53FDFF0A 		beq	.L97
 1212 0dd4 020053E1 		cmp	r3, r2
 1213 0dd8 EEFFFFBA 		blt	.L116
 1214 0ddc 25FFFFEA 		b	.L117
 1215              	.L143:
 1216 0de0 049090E5 		ldr	r9, [r0, #4]
 1217 0de4 0180A0E3 		mov	r8, #1
 1218 0de8 04008DE5 		str	r0, [sp, #4]
 1219 0dec 04E069E2 		rsb	lr, r9, #4
 1220 0df0 039189E0 		add	r9, r9, r3, lsl #2
 1221 0df4 00E08DE5 		str	lr, [sp]
 1222              	.L132:
 1223 0df8 010053E1 		cmp	r3, r1
 1224 0dfc 04E019E4 		ldr	lr, [r9], #-4
 1225 0e00 3E0000AA 		bge	.L136
 1226 0e04 04A09CE5 		ldr	r10, [ip, #4]
 1227 0e08 00009DE5 		ldr	r0, [sp]
 1228 0e0c 09B08AE0 		add	fp, r10, r9
 1229 0e10 00B09BE7 		ldr	fp, [fp, r0]
 1230 0e14 0B005EE1 		cmp	lr, fp
 1231 0e18 1500000A 		beq	.L525
 1232 0e1c 000053E3 		cmp	r3, #0
 1233 0e20 04009DE5 		ldr	r0, [sp, #4]
 1234 0e24 03918AA0 		addge	r9, r10, r3, lsl #2
 1235 0e28 04A06AA2 		rsbge	r10, r10, #4
 1236 0e2c 3CFDFFBA 		blt	.L97
 1237              	.L152:
 1238 0e30 04E019E4 		ldr	lr, [r9], #-4
 1239 0e34 01005EE3 		cmp	lr, #1
 1240 0e38 1FFEFF1A 		bne	.L153
 1241 0e3c 020053E1 		cmp	r3, r2
 1242 0e40 AFFFFFAA 		bge	.L154
 1243 0e44 048090E5 		ldr	r8, [r0, #4]
 1244 0e48 013043E2 		sub	r3, r3, #1
 1245 0e4c 54B094E5 		ldr	fp, [r4, #84]
 1246 0e50 010073E3 		cmn	r3, #1
 1247 0e54 098088E0 		add	r8, r8, r9
 1248 0e58 0AE098E7 		ldr	lr, [r8, r10]
 1249 0e5c 9E0B0EE0 		mul	lr, lr, fp
 1250 0e60 54E084E5 		str	lr, [r4, #84]
 1251 0e64 2EFDFF0A 		beq	.L97
 1252 0e68 010053E1 		cmp	r3, r1
 1253 0e6c EFFFFFBA 		blt	.L152
 1254 0e70 0CFFFFEA 		b	.L157
 1255              	.L525:
 1256 0e74 010073E3 		cmn	r3, #1
 1257 0e78 1D00000A 		beq	.L138
 1258 0e7c 980E08E0 		mul	r8, r8, lr
 1259 0e80 013043E2 		sub	r3, r3, #1
 1260 0e84 010073E3 		cmn	r3, #1
 1261 0e88 588084E5 		str	r8, [r4, #88]
 1262 0e8c 24FDFF0A 		beq	.L97
 1263 0e90 020053E1 		cmp	r3, r2
 1264 0e94 D7FFFFBA 		blt	.L132
 1265 0e98 DEFEFFEA 		b	.L133
 1266              	.L173:
 1267 0e9c 04E090E5 		ldr	lr, [r0, #4]
 1268 0ea0 04906EE2 		rsb	r9, lr, #4
 1269 0ea4 03E18EE0 		add	lr, lr, r3, lsl #2
 1270              	.L163:
 1271 0ea8 080053E1 		cmp	r3, r8
 1272 0eac 04A01EE4 		ldr	r10, [lr], #-4
 1273 0eb0 140000AA 		bge	.L167
 1274 0eb4 04009CE5 		ldr	r0, [ip, #4]
 1275 0eb8 0E0080E0 		add	r0, r0, lr
 1276 0ebc 091090E7 		ldr	r1, [r0, r9]
 1277 0ec0 01005AE1 		cmp	r10, r1
 1278 0ec4 0DFEFF1A 		bne	.L168
 1279 0ec8 010073E3 		cmn	r3, #1
 1280 0ecc 56FFFF0A 		beq	.L169
 1281 0ed0 501094E5 		ldr	r1, [r4, #80]
 1282 0ed4 013043E2 		sub	r3, r3, #1
 1283 0ed8 010073E3 		cmn	r3, #1
 1284 0edc 9A0101E0 		mul	r1, r10, r1
 1285 0ee0 501084E5 		str	r1, [r4, #80]
 1286 0ee4 0EFDFF0A 		beq	.L97
 1287 0ee8 020053E1 		cmp	r3, r2
 1288 0eec EDFFFFBA 		blt	.L163
 1289 0ef0 D3FEFFEA 		b	.L164
 1290              	.L138:
 1291              	.LEHB10:
 1292 0ef4 FEFFFFEB 		bl	abort
 1293              	.L122:
 1294 0ef8 FEFFFFEB 		bl	abort
 1295              	.L81:
 1296 0efc FEFFFFEB 		bl	abort
 1297              	.LEHE10:
 1298              	.L136:
 1299              	.LEHB11:
 1300 0f00 FEFFFFEB 		bl	abort
 1301              	.LEHE11:
 1302              	.L235:
 1303 0f04 49FFFFEA 		b	.L491
 1304              	.L167:
 1305              	.LEHB12:
 1306 0f08 FEFFFFEB 		bl	abort
 1307              	.LEHE12:
 1308              	.L237:
 1309 0f0c 47FFFFEA 		b	.L491
 1310              	.L102:
 1311              	.LEHB13:
 1312 0f10 FEFFFFEB 		bl	abort
 1313              	.LEHE13:
 1314              	.L49:
 1315              	.LEHB14:
 1316 0f14 FEFFFFEB 		bl	__cxa_throw_bad_array_new_length
 1317              	.LEHE14:
 1318              	.L233:
 1319 0f18 A4FEFFEA 		b	.L188
 1320              	.L506:
 1321              	.LEHB15:
 1322 0f1c FEFFFFEB 		bl	abort
 1323              	.LEHE15:
 1324              	.L504:
 1325              	.LEHB16:
 1326 0f20 FEFFFFEB 		bl	abort
 1327              	.L508:
 1328 0f24 050053E1 		cmp	r3, r5
 1329 0f28 0020A0E3 		mov	r2, #0
 1330 0f2c 20208DE5 		str	r2, [sp, #32]
 1331 0f30 0320A0E1 		mov	r2, r3
 1332 0f34 15FDFFCA 		bgt	.L43
 1333 0f38 050055E3 		cmp	r5, #5
 1334 0f3c 20508DE5 		str	r5, [sp, #32]
 1335 0f40 62FCFFCA 		bgt	.L201
 1336 0f44 13FDFFEA 		b	.L48
 1337              	.L61:
 1338 0f48 FEFFFFEB 		bl	__cxa_throw_bad_array_new_length
 1339              	.LEHE16:
 1340              	.L510:
 1341 0f4c 24008DE2 		add	r0, sp, #36
 1342 0f50 75FCFFEA 		b	.L195
 1343              	.L39:
 1344              	.LEHB17:
 1345 0f54 FEFFFFEB 		bl	__cxa_throw_bad_array_new_length
 1346              	.LEHE17:
 1347              		.global	__gxx_personality_v0
 1348              		.personality	__gxx_personality_v0
 1349              		.handlerdata
 1350              	.LLSDA4249:
 1351 0008 FF       		.byte	0xff
 1352 0009 FF       		.byte	0xff
 1353 000a 01       		.byte	0x1
 1354 000b 6B       		.uleb128 .LLSDACSE4249-.LLSDACSB4249
 1355              	.LLSDACSB4249:
 1356 000c 40       		.uleb128 .LEHB0-.LFB4249
 1357 000d 04       		.uleb128 .LEHE0-.LEHB0
 1358 000e 00       		.uleb128 0
 1359 000f 00       		.uleb128 0
 1360 0010 DC01     		.uleb128 .LEHB1-.LFB4249
 1361 0012 04       		.uleb128 .LEHE1-.LEHB1
 1362 0013 981E     		.uleb128 .L233-.LFB4249
 1363 0015 00       		.uleb128 0
 1364 0016 F002     		.uleb128 .LEHB2-.LFB4249
 1365 0018 04       		.uleb128 .LEHE2-.LEHB2
 1366 0019 C813     		.uleb128 .L231-.LFB4249
 1367 001b 00       		.uleb128 0
 1368 001c 9007     		.uleb128 .LEHB3-.LFB4249
 1369 001e 8001     		.uleb128 .LEHE3-.LEHB3
 1370 0020 C413     		.uleb128 .L230-.LFB4249
 1371 0022 00       		.uleb128 0
 1372 0023 9009     		.uleb128 .LEHB4-.LFB4249
 1373 0025 04       		.uleb128 .LEHE4-.LEHB4
 1374 0026 C813     		.uleb128 .L231-.LFB4249
 1375 0028 00       		.uleb128 0
 1376 0029 EC0F     		.uleb128 .LEHB5-.LFB4249
 1377 002b FC01     		.uleb128 .LEHE5-.LEHB5
 1378 002d F412     		.uleb128 .L234-.LFB4249
 1379 002f 00       		.uleb128 0
 1380 0030 C013     		.uleb128 .LEHB6-.LFB4249
 1381 0032 04       		.uleb128 .LEHE6-.LEHB6
 1382 0033 00       		.uleb128 0
 1383 0034 00       		.uleb128 0
 1384 0035 F013     		.uleb128 .LEHB7-.LFB4249
 1385 0037 C002     		.uleb128 .LEHE7-.LEHB7
 1386 0039 F412     		.uleb128 .L234-.LFB4249
 1387 003b 00       		.uleb128 0
 1388 003c AC18     		.uleb128 .LEHB8-.LFB4249
 1389 003e 04       		.uleb128 .LEHE8-.LEHB8
 1390 003f B018     		.uleb128 .L232-.LFB4249
 1391 0041 00       		.uleb128 0
 1392 0042 841A     		.uleb128 .LEHB9-.LFB4249
 1393 0044 04       		.uleb128 .LEHE9-.LEHB9
 1394 0045 881A     		.uleb128 .L236-.LFB4249
 1395 0047 00       		.uleb128 0
 1396 0048 F41D     		.uleb128 .LEHB10-.LFB4249
 1397 004a 0C       		.uleb128 .LEHE10-.LEHB10
 1398 004b F412     		.uleb128 .L234-.LFB4249
 1399 004d 00       		.uleb128 0
 1400 004e 801E     		.uleb128 .LEHB11-.LFB4249
 1401 0050 04       		.uleb128 .LEHE11-.LEHB11
 1402 0051 841E     		.uleb128 .L235-.LFB4249
 1403 0053 00       		.uleb128 0
 1404 0054 881E     		.uleb128 .LEHB12-.LFB4249
 1405 0056 04       		.uleb128 .LEHE12-.LEHB12
 1406 0057 8C1E     		.uleb128 .L237-.LFB4249
 1407 0059 00       		.uleb128 0
 1408 005a 901E     		.uleb128 .LEHB13-.LFB4249
 1409 005c 04       		.uleb128 .LEHE13-.LEHB13
 1410 005d F412     		.uleb128 .L234-.LFB4249
 1411 005f 00       		.uleb128 0
 1412 0060 941E     		.uleb128 .LEHB14-.LFB4249
 1413 0062 04       		.uleb128 .LEHE14-.LEHB14
 1414 0063 981E     		.uleb128 .L233-.LFB4249
 1415 0065 00       		.uleb128 0
 1416 0066 9C1E     		.uleb128 .LEHB15-.LFB4249
 1417 0068 04       		.uleb128 .LEHE15-.LEHB15
 1418 0069 F412     		.uleb128 .L234-.LFB4249
 1419 006b 00       		.uleb128 0
 1420 006c A01E     		.uleb128 .LEHB16-.LFB4249
 1421 006e 2C       		.uleb128 .LEHE16-.LEHB16
 1422 006f C813     		.uleb128 .L231-.LFB4249
 1423 0071 00       		.uleb128 0
 1424 0072 D41E     		.uleb128 .LEHB17-.LFB4249
 1425 0074 04       		.uleb128 .LEHE17-.LEHB17
 1426 0075 00       		.uleb128 0
 1427 0076 00       		.uleb128 0
 1428              	.LLSDACSE4249:
 1429              		.section	.text._ZN6tflite13reference_ops22ProcessBroadcastShapesERKNS_12RuntimeShapeES3_PNS_16Arit
 1430              		.fnend
 1432              		.section	.text._ZN6tflite3ops5micro3add15CalculateOpDataEP13TfLiteContextP15TfLiteAddParamsPK12TfL
 1433              		.align	2
 1434              		.global	_ZN6tflite3ops5micro3add15CalculateOpDataEP13TfLiteContextP15TfLiteAddParamsPK12TfLiteTens
 1435              		.syntax unified
 1436              		.arm
 1437              		.fpu neon
 1439              	_ZN6tflite3ops5micro3add15CalculateOpDataEP13TfLiteContextP15TfLiteAddParamsPK12TfLiteTensorS9_PS7_
 1440              		.fnstart
 1441              	.LFB9117:
 1442              		@ args = 8, pretend = 0, frame = 0
 1443              		@ frame_needed = 0, uses_anonymous_args = 0
 1444 0000 F0472DE9 		push	{r4, r5, r6, r7, r8, r9, r10, lr}
 1445              		.save {r4, r5, r6, r7, r8, r9, r10, lr}
 1446 0004 0090A0E1 		mov	r9, r0
 1447 0008 048B2DED 		vpush.64	{d8, d9}
 1448              		.vsave {d8, d9}
 1449 000c 0180A0E1 		mov	r8, r1
 1450 0010 0200A0E1 		mov	r0, r2
 1451 0014 0310A0E1 		mov	r1, r3
 1452 0018 30509DE5 		ldr	r5, [sp, #48]
 1453 001c 0270A0E1 		mov	r7, r2
 1454 0020 34409DE5 		ldr	r4, [sp, #52]
 1455 0024 0360A0E1 		mov	r6, r3
 1456 0028 FEFFFFEB 		bl	_ZN6tflite14HaveSameShapesEPK12TfLiteTensorS2_
 1457 002c 0010D5E5 		ldrb	r1, [r5]	@ zero_extendqisi2
 1458 0030 010020E2 		eor	r0, r0, #1
 1459 0034 0000C4E5 		strb	r0, [r4]
 1460 0038 090051E3 		cmp	r1, #9
 1461 003c 03005113 		cmpne	r1, #3
 1462 0040 2D00001A 		bne	.L527
 1463 0044 036AD6ED 		vldr.32	s13, [r6, #12]
 1464 0048 14C0A0E3 		mov	ip, #20
 1465 004c 037AD7ED 		vldr.32	s15, [r7, #12]
 1466 0050 0C0084E0 		add	r0, r4, ip
 1467 0054 037A95ED 		vldr.32	s14, [r5, #12]
 1468 0058 041084E2 		add	r1, r4, #4
 1469 005c 493BDFED 		vldr.64	d19, .L541
 1470 0060 E62AF7EE 		vcvt.f64.f32	d18, s13
 1471 0064 E67AF4EE 		vcmpe.f32	s15, s13
 1472 0068 10FAF1EE 		vmrs	APSR_nzcv, FPSCR
 1473 006c E70AB7EE 		vcvt.f64.f32	d0, s15
 1474 0070 667AF04E 		vmovmi.f32	s15, s13
 1475 0074 E70AF7EE 		vcvt.f64.f32	d16, s15
 1476 0078 C71AF7EE 		vcvt.f64.f32	d17, s14
 1477 007c 102097E5 		ldr	r2, [r7, #16]
 1478 0080 103096E5 		ldr	r3, [r6, #16]
 1479 0084 A00B70EE 		vadd.f64	d16, d16, d16
 1480 0088 A31B61EE 		vmul.f64	d17, d17, d19
 1481 008c 002062E2 		rsb	r2, r2, #0
 1482 0090 282084E5 		str	r2, [r4, #40]
 1483 0094 003063E2 		rsb	r3, r3, #0
 1484 0098 102095E5 		ldr	r2, [r5, #16]
 1485 009c 200B80EE 		vdiv.f64	d0, d0, d16
 1486 00a0 A09B82EE 		vdiv.f64	d9, d18, d16
 1487 00a4 A18B80EE 		vdiv.f64	d8, d16, d17
 1488 00a8 2C3084E5 		str	r3, [r4, #44]
 1489 00ac 302084E5 		str	r2, [r4, #48]
 1490 00b0 24C084E5 		str	ip, [r4, #36]
 1491 00b4 FEFFFFEB 		bl	_ZN6tflite35QuantizeMultiplierSmallerThanOneExpEdPlPi
 1492 00b8 081084E2 		add	r1, r4, #8
 1493 00bc 180084E2 		add	r0, r4, #24
 1494 00c0 490BB0EE 		vmov.f64	d0, d9
 1495 00c4 FEFFFFEB 		bl	_ZN6tflite35QuantizeMultiplierSmallerThanOneExpEdPlPi
 1496 00c8 201084E2 		add	r1, r4, #32
 1497 00cc 1C0084E2 		add	r0, r4, #28
 1498 00d0 480BB0EE 		vmov.f64	d0, d8
 1499 00d4 FEFFFFEB 		bl	_ZN6tflite35QuantizeMultiplierSmallerThanOneExpEdPlPi
 1500 00d8 103084E2 		add	r3, r4, #16
 1501 00dc 0010D8E5 		ldrb	r1, [r8]	@ zero_extendqisi2
 1502 00e0 30308DE5 		str	r3, [sp, #48]
 1503 00e4 0520A0E1 		mov	r2, r5
 1504 00e8 048BBDEC 		vldm	sp!, {d8-d9}
 1505 00ec 0900A0E1 		mov	r0, r9
 1506 00f0 0C3084E2 		add	r3, r4, #12
 1507 00f4 F047BDE8 		pop	{r4, r5, r6, r7, r8, r9, r10, lr}
 1508 00f8 FEFFFFEA 		b	_ZN6tflite33CalculateActivationRangeQuantizedEP13TfLiteContext21TfLiteFusedActivationP12TfLiteTe
 1509              	.L527:
 1510 00fc 010051E3 		cmp	r1, #1
 1511 0100 0200000A 		beq	.L538
 1512              	.L530:
 1513 0104 048BBDEC 		vldm	sp!, {d8-d9}
 1514 0108 0000A0E3 		mov	r0, #0
 1515 010c F087BDE8 		pop	{r4, r5, r6, r7, r8, r9, r10, pc}
 1516              	.L538:
 1517 0110 0030D8E5 		ldrb	r3, [r8]	@ zero_extendqisi2
 1518 0114 010053E3 		cmp	r3, #1
 1519 0118 0D00000A 		beq	.L539
 1520 011c 030053E3 		cmp	r3, #3
 1521 0120 1100000A 		beq	.L540
 1522 0124 048BBDEC 		vldm	sp!, {d8-d9}
 1523 0128 020053E3 		cmp	r3, #2
 1524 012c 0020A003 		moveq	r2, #0
 1525 0130 FF3F0F13 		movwne	r3, #65535
 1526 0134 802F4B03 		movteq	r2, 49024
 1527 0138 FE35A003 		moveq	r3, #1065353216
 1528 013c 0225E013 		mvnne	r2, #8388608
 1529 0140 7F3F4713 		movtne	r3, 32639
 1530 0144 0000A0E3 		mov	r0, #0
 1531 0148 342084E5 		str	r2, [r4, #52]	@ float
 1532 014c 383084E5 		str	r3, [r4, #56]	@ float
 1533 0150 F087BDE8 		pop	{r4, r5, r6, r7, r8, r9, r10, pc}
 1534              	.L539:
 1535 0154 FF3F0FE3 		movw	r3, #65535
 1536 0158 0020A0E3 		mov	r2, #0
 1537 015c 7F3F47E3 		movt	r3, 32639
 1538 0160 342084E5 		str	r2, [r4, #52]	@ float
 1539 0164 383084E5 		str	r3, [r4, #56]	@ float
 1540 0168 E5FFFFEA 		b	.L530
 1541              	.L540:
 1542 016c 0030A0E3 		mov	r3, #0
 1543 0170 0020A0E3 		mov	r2, #0
 1544 0174 C03044E3 		movt	r3, 16576
 1545 0178 342084E5 		str	r2, [r4, #52]	@ float
 1546 017c 383084E5 		str	r3, [r4, #56]	@ float
 1547 0180 DFFFFFEA 		b	.L530
 1548              	.L542:
 1549 0184 00F020E3 		.align	3
 1550              	.L541:
 1551 0188 00000000 		.word	0
 1552 018c 00003041 		.word	1093664768
 1553              		.fnend
 1555              		.section	.text._ZN6tflite3ops5micro3add7EvalAddEP13TfLiteContextP10TfLiteNodeP15TfLiteAddParamsPKN
 1556              		.align	2
 1557              		.global	_ZN6tflite3ops5micro3add7EvalAddEP13TfLiteContextP10TfLiteNodeP15TfLiteAddParamsPKNS2_6OpD
 1558              		.syntax unified
 1559              		.arm
 1560              		.fpu neon
 1562              	_ZN6tflite3ops5micro3add7EvalAddEP13TfLiteContextP10TfLiteNodeP15TfLiteAddParamsPKNS2_6OpDataEPK16T
 1563              		.fnstart
 1564              	.LFB9118:
 1565              		@ args = 12, pretend = 0, frame = 320
 1566              		@ frame_needed = 0, uses_anonymous_args = 0
 1567 0000 0020D3E5 		ldrb	r2, [r3]	@ zero_extendqisi2
 1568 0004 F04F2DE9 		push	{r4, r5, r6, r7, r8, r9, r10, fp, lr}
 1569              		.save {r4, r5, r6, r7, r8, r9, r10, fp, lr}
 1570 0008 028B2DED 		vpush.64	{d8}
 1571              		.vsave {d8}
 1572              		.pad #324
 1573 000c 51DF4DE2 		sub	sp, sp, #324
 1574 0010 000052E3 		cmp	r2, #0
 1575 0014 70419DE5 		ldr	r4, [sp, #368]
 1576 0018 0D8A93ED 		vldr.32	s16, [r3, #52]
 1577 001c 0E8AD3ED 		vldr.32	s17, [r3, #56]
 1578 0020 0410A0E1 		mov	r1, r4
 1579 0024 74719DE5 		ldr	r7, [sp, #372]
 1580 0028 78619DE5 		ldr	r6, [sp, #376]
 1581 002c 4200000A 		beq	.L544
 1582 0030 70008DE2 		add	r0, sp, #112
 1583              	.LEHB18:
 1584 0034 FEFFFFEB 		bl	_ZN6tflite5micro14GetTensorShapeEPK16TfLiteEvalTensor
 1585              	.LEHE18:
 1586 0038 000054E3 		cmp	r4, #0
 1587 003c 9D04000A 		beq	.L906
 1588 0040 0710A0E1 		mov	r1, r7
 1589 0044 88008DE2 		add	r0, sp, #136
 1590 0048 004094E5 		ldr	r4, [r4]
 1591              	.LEHB19:
 1592 004c FEFFFFEB 		bl	_ZN6tflite5micro14GetTensorShapeEPK16TfLiteEvalTensor
 1593              	.LEHE19:
 1594 0050 000057E3 		cmp	r7, #0
 1595 0054 7F04000A 		beq	.L907
 1596 0058 0610A0E1 		mov	r1, r6
 1597 005c A0008DE2 		add	r0, sp, #160
 1598 0060 005097E5 		ldr	r5, [r7]
 1599              	.LEHB20:
 1600 0064 FEFFFFEB 		bl	_ZN6tflite5micro14GetTensorShapeEPK16TfLiteEvalTensor
 1601              	.LEHE20:
 1602 0068 70209DE5 		ldr	r2, [sp, #112]
 1603 006c 000056E3 		cmp	r6, #0
 1604 0070 00609615 		ldrne	r6, [r6]
 1605 0074 0030A0E3 		mov	r3, #0
 1606 0078 D0308DE5 		str	r3, [sp, #208]
 1607 007c 040052E3 		cmp	r2, #4
 1608 0080 720400CA 		bgt	.L908
 1609 0084 040072E2 		rsbs	r0, r2, #4
 1610 0088 0430A0E3 		mov	r3, #4
 1611 008c D0308DE5 		str	r3, [sp, #208]
 1612 0090 0D00000A 		beq	.L552
 1613 0094 010050E3 		cmp	r0, #1
 1614 0098 0130A0E3 		mov	r3, #1
 1615 009c D4308DE5 		str	r3, [sp, #212]
 1616 00a0 0900000A 		beq	.L552
 1617 00a4 020050E3 		cmp	r0, #2
 1618 00a8 D8308DE5 		str	r3, [sp, #216]
 1619 00ac 0600000A 		beq	.L552
 1620 00b0 030050E3 		cmp	r0, #3
 1621 00b4 DC308DE5 		str	r3, [sp, #220]
 1622 00b8 0300000A 		beq	.L552
 1623 00bc 040050E3 		cmp	r0, #4
 1624 00c0 E0308DE5 		str	r3, [sp, #224]
 1625 00c4 0000000A 		beq	.L552
 1626              	.LEHB21:
 1627 00c8 FEFFFFEB 		bl	abort
 1628              	.LEHE21:
 1629              	.L552:
 1630 00cc D4308DE2 		add	r3, sp, #212
 1631 00d0 0221A0E1 		lsl	r2, r2, #2
 1632 00d4 000183E0 		add	r0, r3, r0, lsl #2
 1633 00d8 74108DE2 		add	r1, sp, #116
 1634 00dc FEFFFFEB 		bl	memcpy
 1635 00e0 88209DE5 		ldr	r2, [sp, #136]
 1636 00e4 0030A0E3 		mov	r3, #0
 1637 00e8 E8308DE5 		str	r3, [sp, #232]
 1638 00ec 040052E3 		cmp	r2, #4
 1639 00f0 460400CA 		bgt	.L909
 1640 00f4 040072E2 		rsbs	r0, r2, #4
 1641 00f8 0430A0E3 		mov	r3, #4
 1642 00fc E8308DE5 		str	r3, [sp, #232]
 1643 0100 B101000A 		beq	.L559
 1644 0104 010050E3 		cmp	r0, #1
 1645 0108 0130A0E3 		mov	r3, #1
 1646 010c EC308DE5 		str	r3, [sp, #236]
 1647 0110 AD01000A 		beq	.L559
 1648 0114 020050E3 		cmp	r0, #2
 1649 0118 F0308DE5 		str	r3, [sp, #240]
 1650 011c AA01000A 		beq	.L559
 1651 0120 030050E3 		cmp	r0, #3
 1652 0124 F4308DE5 		str	r3, [sp, #244]
 1653 0128 A701000A 		beq	.L559
 1654 012c 040050E3 		cmp	r0, #4
 1655 0130 F8308DE5 		str	r3, [sp, #248]
 1656 0134 A401000A 		beq	.L559
 1657              	.LEHB22:
 1658 0138 FEFFFFEB 		bl	abort
 1659              	.LEHE22:
 1660              	.L544:
 1661 013c E8008DE2 		add	r0, sp, #232
 1662              	.LEHB23:
 1663 0140 FEFFFFEB 		bl	_ZN6tflite5micro14GetTensorShapeEPK16TfLiteEvalTensor
 1664              	.LEHE23:
 1665 0144 000054E3 		cmp	r4, #0
 1666 0148 5904000A 		beq	.L910
 1667 014c 0710A0E1 		mov	r1, r7
 1668 0150 010C8DE2 		add	r0, sp, #256
 1669 0154 005094E5 		ldr	r5, [r4]
 1670              	.LEHB24:
 1671 0158 FEFFFFEB 		bl	_ZN6tflite5micro14GetTensorShapeEPK16TfLiteEvalTensor
 1672              	.LEHE24:
 1673 015c 000057E3 		cmp	r7, #0
 1674 0160 5104000A 		beq	.L911
 1675 0164 0610A0E1 		mov	r1, r6
 1676 0168 120E8DE2 		add	r0, sp, #288
 1677 016c 004097E5 		ldr	r4, [r7]
 1678              	.LEHB25:
 1679 0170 FEFFFFEB 		bl	_ZN6tflite5micro14GetTensorShapeEPK16TfLiteEvalTensor
 1680              	.LEHE25:
 1681 0174 E8E09DE5 		ldr	lr, [sp, #232]
 1682 0178 000056E3 		cmp	r6, #0
 1683 017c 00309615 		ldrne	r3, [r6]
 1684 0180 0630A001 		moveq	r3, r6
 1685 0184 05005EE3 		cmp	lr, #5
 1686 0188 8D0100CA 		bgt	.L912
 1687 018c 00005EE3 		cmp	lr, #0
 1688 0190 0100A0D3 		movle	r0, #1
 1689 0194 500000DA 		ble	.L662
 1690 0198 EC608DE2 		add	r6, sp, #236
 1691              	.L661:
 1692 019c 5621A0E7 		sbfx	r2, r6, #2, #1
 1693 01a0 032002E2 		and	r2, r2, #3
 1694 01a4 0E0052E1 		cmp	r2, lr
 1695 01a8 0E20A021 		movcs	r2, lr
 1696 01ac 08005EE3 		cmp	lr, #8
 1697 01b0 0E20A0D1 		movle	r2, lr
 1698 01b4 5F0300CA 		bgt	.L913
 1699              	.L663:
 1700 01b8 010052E3 		cmp	r2, #1
 1701 01bc 000096E5 		ldr	r0, [r6]
 1702 01c0 FC01000A 		beq	.L755
 1703 01c4 041096E5 		ldr	r1, [r6, #4]
 1704 01c8 020052E3 		cmp	r2, #2
 1705 01cc 910000E0 		mul	r0, r1, r0
 1706 01d0 F801000A 		beq	.L755
 1707 01d4 081096E5 		ldr	r1, [r6, #8]
 1708 01d8 030052E3 		cmp	r2, #3
 1709 01dc 910000E0 		mul	r0, r1, r0
 1710 01e0 F401000A 		beq	.L755
 1711 01e4 0C1096E5 		ldr	r1, [r6, #12]
 1712 01e8 040052E3 		cmp	r2, #4
 1713 01ec 910000E0 		mul	r0, r1, r0
 1714 01f0 F001000A 		beq	.L755
 1715 01f4 101096E5 		ldr	r1, [r6, #16]
 1716 01f8 050052E3 		cmp	r2, #5
 1717 01fc 910000E0 		mul	r0, r1, r0
 1718 0200 EC01000A 		beq	.L755
 1719 0204 141096E5 		ldr	r1, [r6, #20]
 1720 0208 060052E3 		cmp	r2, #6
 1721 020c 910000E0 		mul	r0, r1, r0
 1722 0210 E801000A 		beq	.L755
 1723 0214 181096E5 		ldr	r1, [r6, #24]
 1724 0218 070052E3 		cmp	r2, #7
 1725 021c 910000E0 		mul	r0, r1, r0
 1726 0220 E401000A 		beq	.L755
 1727 0224 1C1096E5 		ldr	r1, [r6, #28]
 1728 0228 0870A0E3 		mov	r7, #8
 1729 022c 910000E0 		mul	r0, r1, r0
 1730              	.L665:
 1731 0230 02005EE1 		cmp	lr, r2
 1732 0234 2800000A 		beq	.L662
 1733              	.L664:
 1734 0238 02804EE0 		sub	r8, lr, r2
 1735 023c 01104EE2 		sub	r1, lr, #1
 1736 0240 04C048E2 		sub	ip, r8, #4
 1737 0244 021041E0 		sub	r1, r1, r2
 1738 0248 2CC1A0E1 		lsr	ip, ip, #2
 1739 024c 020051E3 		cmp	r1, #2
 1740 0250 01C08CE2 		add	ip, ip, #1
 1741 0254 0C91A0E1 		lsl	r9, ip, #2
 1742 0258 1200009A 		bls	.L667
 1743 025c 022186E0 		add	r2, r6, r2, lsl #2
 1744 0260 5100C0F2 		vmov.i32	q8, #1  @ v4si
 1745 0264 0010A0E3 		mov	r1, #0
 1746              	.L669:
 1747 0268 011081E2 		add	r1, r1, #1
 1748 026c DF2A62F4 		vld1.64	{d18-d19}, [r2:64]
 1749 0270 01005CE1 		cmp	ip, r1
 1750 0274 102082E2 		add	r2, r2, #16
 1751 0278 F20960F2 		vmul.i32	q8, q8, q9
 1752 027c F9FFFF8A 		bhi	.L669
 1753 0280 090058E1 		cmp	r8, r9
 1754 0284 097087E0 		add	r7, r7, r9
 1755 0288 5020C0F2 		vmov.i32	q9, #0  @ v4si
 1756 028c E248F0F2 		vext.32	q10, q8, q9, #2
 1757 0290 F40960F2 		vmul.i32	q8, q8, q10
 1758 0294 E224F0F2 		vext.32	q9, q8, q9, #1
 1759 0298 F20960F2 		vmul.i32	q8, q8, q9
 1760 029c 901B10EE 		vmov.32	r1, d16[0]
 1761 02a0 910000E0 		mul	r0, r1, r0
 1762 02a4 0C00000A 		beq	.L662
 1763              	.L667:
 1764 02a8 071196E7 		ldr	r1, [r6, r7, lsl #2]
 1765 02ac 012087E2 		add	r2, r7, #1
 1766 02b0 02005EE1 		cmp	lr, r2
 1767 02b4 0721A0E1 		lsl	r2, r7, #2
 1768 02b8 910000E0 		mul	r0, r1, r0
 1769 02bc 060000DA 		ble	.L662
 1770 02c0 022086E0 		add	r2, r6, r2
 1771 02c4 021087E2 		add	r1, r7, #2
 1772 02c8 04C092E5 		ldr	ip, [r2, #4]
 1773 02cc 01005EE1 		cmp	lr, r1
 1774 02d0 9C0000E0 		mul	r0, ip, r0
 1775 02d4 082092C5 		ldrgt	r2, [r2, #8]
 1776 02d8 920000C0 		mulgt	r0, r2, r0
 1777              	.L662:
 1778 02dc 00E19DE5 		ldr	lr, [sp, #256]
 1779 02e0 05005EE3 		cmp	lr, #5
 1780 02e4 BE0100DA 		ble	.L673
 1781 02e8 04819DE5 		ldr	r8, [sp, #260]
 1782              	.L674:
 1783 02ec 5821A0E7 		sbfx	r2, r8, #2, #1
 1784 02f0 032002E2 		and	r2, r2, #3
 1785 02f4 0E0052E1 		cmp	r2, lr
 1786 02f8 0E20A021 		movcs	r2, lr
 1787 02fc 08005EE3 		cmp	lr, #8
 1788 0300 0E20A0D1 		movle	r2, lr
 1789 0304 060300CA 		bgt	.L914
 1790              	.L676:
 1791 0308 010052E3 		cmp	r2, #1
 1792 030c 00C098E5 		ldr	ip, [r8]
 1793 0310 AC01000A 		beq	.L765
 1794 0314 041098E5 		ldr	r1, [r8, #4]
 1795 0318 020052E3 		cmp	r2, #2
 1796 031c 910C0CE0 		mul	ip, r1, ip
 1797 0320 A801000A 		beq	.L765
 1798 0324 081098E5 		ldr	r1, [r8, #8]
 1799 0328 030052E3 		cmp	r2, #3
 1800 032c 910C0CE0 		mul	ip, r1, ip
 1801 0330 A401000A 		beq	.L765
 1802 0334 0C1098E5 		ldr	r1, [r8, #12]
 1803 0338 040052E3 		cmp	r2, #4
 1804 033c 910C0CE0 		mul	ip, r1, ip
 1805 0340 A001000A 		beq	.L765
 1806 0344 101098E5 		ldr	r1, [r8, #16]
 1807 0348 050052E3 		cmp	r2, #5
 1808 034c 910C0CE0 		mul	ip, r1, ip
 1809 0350 9C01000A 		beq	.L765
 1810 0354 141098E5 		ldr	r1, [r8, #20]
 1811 0358 060052E3 		cmp	r2, #6
 1812 035c 910C0CE0 		mul	ip, r1, ip
 1813 0360 9801000A 		beq	.L765
 1814 0364 181098E5 		ldr	r1, [r8, #24]
 1815 0368 070052E3 		cmp	r2, #7
 1816 036c 910C0CE0 		mul	ip, r1, ip
 1817 0370 9401000A 		beq	.L765
 1818 0374 1C1098E5 		ldr	r1, [r8, #28]
 1819 0378 0870A0E3 		mov	r7, #8
 1820 037c 910C0CE0 		mul	ip, r1, ip
 1821              	.L678:
 1822 0380 02005EE1 		cmp	lr, r2
 1823 0384 2800000A 		beq	.L675
 1824              	.L677:
 1825 0388 02104EE0 		sub	r1, lr, r2
 1826 038c 01904EE2 		sub	r9, lr, #1
 1827 0390 046041E2 		sub	r6, r1, #4
 1828 0394 029049E0 		sub	r9, r9, r2
 1829 0398 2661A0E1 		lsr	r6, r6, #2
 1830 039c 020059E3 		cmp	r9, #2
 1831 03a0 016086E2 		add	r6, r6, #1
 1832 03a4 06A1A0E1 		lsl	r10, r6, #2
 1833 03a8 1200009A 		bls	.L680
 1834 03ac 022188E0 		add	r2, r8, r2, lsl #2
 1835 03b0 5100C0F2 		vmov.i32	q8, #1  @ v4si
 1836 03b4 0090A0E3 		mov	r9, #0
 1837              	.L682:
 1838 03b8 019089E2 		add	r9, r9, #1
 1839 03bc DF2A62F4 		vld1.64	{d18-d19}, [r2:64]
 1840 03c0 090056E1 		cmp	r6, r9
 1841 03c4 102082E2 		add	r2, r2, #16
 1842 03c8 F20960F2 		vmul.i32	q8, q8, q9
 1843 03cc F9FFFF8A 		bhi	.L682
 1844 03d0 0A0051E1 		cmp	r1, r10
 1845 03d4 0A7087E0 		add	r7, r7, r10
 1846 03d8 5020C0F2 		vmov.i32	q9, #0  @ v4si
 1847 03dc E248F0F2 		vext.32	q10, q8, q9, #2
 1848 03e0 F40960F2 		vmul.i32	q8, q8, q10
 1849 03e4 E224F0F2 		vext.32	q9, q8, q9, #1
 1850 03e8 F20960F2 		vmul.i32	q8, q8, q9
 1851 03ec 901B10EE 		vmov.32	r1, d16[0]
 1852 03f0 910C0CE0 		mul	ip, r1, ip
 1853 03f4 0C00000A 		beq	.L675
 1854              	.L680:
 1855 03f8 071198E7 		ldr	r1, [r8, r7, lsl #2]
 1856 03fc 012087E2 		add	r2, r7, #1
 1857 0400 02005EE1 		cmp	lr, r2
 1858 0404 0721A0E1 		lsl	r2, r7, #2
 1859 0408 910C0CE0 		mul	ip, r1, ip
 1860 040c 060000DA 		ble	.L675
 1861 0410 022088E0 		add	r2, r8, r2
 1862 0414 021087E2 		add	r1, r7, #2
 1863 0418 046092E5 		ldr	r6, [r2, #4]
 1864 041c 01005EE1 		cmp	lr, r1
 1865 0420 960C0CE0 		mul	ip, r6, ip
 1866 0424 082092C5 		ldrgt	r2, [r2, #8]
 1867 0428 920C0CC0 		mulgt	ip, r2, ip
 1868              	.L675:
 1869 042c 20719DE5 		ldr	r7, [sp, #288]
 1870 0430 050057E3 		cmp	r7, #5
 1871 0434 650100DA 		ble	.L686
 1872 0438 24619DE5 		ldr	r6, [sp, #292]
 1873              	.L687:
 1874 043c 5621A0E7 		sbfx	r2, r6, #2, #1
 1875 0440 032002E2 		and	r2, r2, #3
 1876 0444 070052E1 		cmp	r2, r7
 1877 0448 0210A031 		movcc	r1, r2
 1878 044c 0710A021 		movcs	r1, r7
 1879 0450 080057E3 		cmp	r7, #8
 1880 0454 0710A0D1 		movle	r1, r7
 1881 0458 AC0200CA 		bgt	.L915
 1882              	.L689:
 1883 045c 010051E3 		cmp	r1, #1
 1884 0460 002096E5 		ldr	r2, [r6]
 1885 0464 5501000A 		beq	.L775
 1886 0468 048096E5 		ldr	r8, [r6, #4]
 1887 046c 020051E3 		cmp	r1, #2
 1888 0470 980202E0 		mul	r2, r8, r2
 1889 0474 5101000A 		beq	.L775
 1890 0478 088096E5 		ldr	r8, [r6, #8]
 1891 047c 030051E3 		cmp	r1, #3
 1892 0480 980202E0 		mul	r2, r8, r2
 1893 0484 4D01000A 		beq	.L775
 1894 0488 0C8096E5 		ldr	r8, [r6, #12]
 1895 048c 040051E3 		cmp	r1, #4
 1896 0490 980202E0 		mul	r2, r8, r2
 1897 0494 4901000A 		beq	.L775
 1898 0498 108096E5 		ldr	r8, [r6, #16]
 1899 049c 050051E3 		cmp	r1, #5
 1900 04a0 980202E0 		mul	r2, r8, r2
 1901 04a4 4501000A 		beq	.L775
 1902 04a8 148096E5 		ldr	r8, [r6, #20]
 1903 04ac 060051E3 		cmp	r1, #6
 1904 04b0 980202E0 		mul	r2, r8, r2
 1905 04b4 4101000A 		beq	.L775
 1906 04b8 188096E5 		ldr	r8, [r6, #24]
 1907 04bc 070051E3 		cmp	r1, #7
 1908 04c0 980202E0 		mul	r2, r8, r2
 1909 04c4 3D01000A 		beq	.L775
 1910 04c8 1C9096E5 		ldr	r9, [r6, #28]
 1911 04cc 0880A0E3 		mov	r8, #8
 1912 04d0 990202E0 		mul	r2, r9, r2
 1913              	.L691:
 1914 04d4 010057E1 		cmp	r7, r1
 1915 04d8 2A00000A 		beq	.L688
 1916              	.L690:
 1917 04dc 01B047E0 		sub	fp, r7, r1
 1918 04e0 01A047E2 		sub	r10, r7, #1
 1919 04e4 04904BE2 		sub	r9, fp, #4
 1920 04e8 01A04AE0 		sub	r10, r10, r1
 1921 04ec 2991A0E1 		lsr	r9, r9, #2
 1922 04f0 02005AE3 		cmp	r10, #2
 1923 04f4 019089E2 		add	r9, r9, #1
 1924 04f8 09A1A0E1 		lsl	r10, r9, #2
 1925 04fc 00A08DE5 		str	r10, [sp]
 1926 0500 1300009A 		bls	.L693
 1927 0504 011186E0 		add	r1, r6, r1, lsl #2
 1928 0508 5120C0F2 		vmov.i32	q9, #1  @ v4si
 1929 050c 00A0A0E3 		mov	r10, #0
 1930              	.L695:
 1931 0510 01A08AE2 		add	r10, r10, #1
 1932 0514 DF0A61F4 		vld1.64	{d16-d17}, [r1:64]
 1933 0518 0A0059E1 		cmp	r9, r10
 1934 051c 101081E2 		add	r1, r1, #16
 1935 0520 F02962F2 		vmul.i32	q9, q9, q8
 1936 0524 F9FFFF8A 		bhi	.L695
 1937 0528 00109DE5 		ldr	r1, [sp]
 1938 052c 5040C0F2 		vmov.i32	q10, #0  @ v4si
 1939 0530 0B0051E1 		cmp	r1, fp
 1940 0534 018088E0 		add	r8, r8, r1
 1941 0538 E408F2F2 		vext.32	q8, q9, q10, #2
 1942 053c F20960F2 		vmul.i32	q8, q8, q9
 1943 0540 E444F0F2 		vext.32	q10, q8, q10, #1
 1944 0544 F40960F2 		vmul.i32	q8, q8, q10
 1945 0548 901B10EE 		vmov.32	r1, d16[0]
 1946 054c 910202E0 		mul	r2, r1, r2
 1947 0550 0C00000A 		beq	.L688
 1948              	.L693:
 1949 0554 089196E7 		ldr	r9, [r6, r8, lsl #2]
 1950 0558 011088E2 		add	r1, r8, #1
 1951 055c 010057E1 		cmp	r7, r1
 1952 0560 0811A0E1 		lsl	r1, r8, #2
 1953 0564 990202E0 		mul	r2, r9, r2
 1954 0568 060000DA 		ble	.L688
 1955 056c 016086E0 		add	r6, r6, r1
 1956 0570 028088E2 		add	r8, r8, #2
 1957 0574 041096E5 		ldr	r1, [r6, #4]
 1958 0578 080057E1 		cmp	r7, r8
 1959 057c 910202E0 		mul	r2, r1, r2
 1960 0580 081096C5 		ldrgt	r1, [r6, #8]
 1961 0584 910202C0 		mulgt	r2, r1, r2
 1962              	.L688:
 1963 0588 0C0050E1 		cmp	r0, ip
 1964 058c 3203001A 		bne	.L916
 1965 0590 000052E1 		cmp	r2, r0
 1966 0594 3103001A 		bne	.L700
 1967 0598 000052E3 		cmp	r2, #0
 1968 059c 710000DA 		ble	.L706
 1969 05a0 080052E3 		cmp	r2, #8
 1970 05a4 920200DA 		ble	.L776
 1971 05a8 098042E2 		sub	r8, r2, #9
 1972 05ac 400085E2 		add	r0, r5, #64
 1973 05b0 0780C8E3 		bic	r8, r8, #7
 1974 05b4 401084E2 		add	r1, r4, #64
 1975 05b8 088088E2 		add	r8, r8, #8
 1976 05bc 03C0A0E1 		mov	ip, r3
 1977 05c0 0060A0E3 		mov	r6, #0
 1978              	.L705:
 1979 05c4 107A10ED 		vldr.32	s14, [r0, #-64]
 1980 05c8 086086E2 		add	r6, r6, #8
 1981 05cc 107A51ED 		vldr.32	s15, [r1, #-64]
 1982 05d0 20C08CE2 		add	ip, ip, #32
 1983 05d4 00F0D0F5 		pld	[r0]
 1984 05d8 200080E2 		add	r0, r0, #32
 1985 05dc 00F0D1F5 		pld	[r1]
 1986 05e0 201081E2 		add	r1, r1, #32
 1987 05e4 277A77EE 		vadd.f32	s15, s14, s15
 1988 05e8 E78AB4EE 		vcmpe.f32	s16, s15
 1989 05ec 10FAF1EE 		vmrs	APSR_nzcv, FPSCR
 1990 05f0 487AF0CE 		vmovgt.f32	s15, s16
 1991 05f4 E78AF4EE 		vcmpe.f32	s17, s15
 1992 05f8 10FAF1EE 		vmrs	APSR_nzcv, FPSCR
 1993 05fc 687AF04E 		vmovmi.f32	s15, s17
 1994 0600 087A4CED 		vstr.32	s15, [ip, #-32]
 1995 0604 177A11ED 		vldr.32	s14, [r1, #-92]
 1996 0608 177A50ED 		vldr.32	s15, [r0, #-92]
 1997 060c 277A77EE 		vadd.f32	s15, s14, s15
 1998 0610 E78AB4EE 		vcmpe.f32	s16, s15
 1999 0614 10FAF1EE 		vmrs	APSR_nzcv, FPSCR
 2000 0618 487AF0CE 		vmovgt.f32	s15, s16
 2001 061c E78AF4EE 		vcmpe.f32	s17, s15
 2002 0620 10FAF1EE 		vmrs	APSR_nzcv, FPSCR
 2003 0624 687AF04E 		vmovmi.f32	s15, s17
 2004 0628 077A4CED 		vstr.32	s15, [ip, #-28]
 2005 062c 167A11ED 		vldr.32	s14, [r1, #-88]
 2006 0630 167A50ED 		vldr.32	s15, [r0, #-88]
 2007 0634 277A77EE 		vadd.f32	s15, s14, s15
 2008 0638 E78AB4EE 		vcmpe.f32	s16, s15
 2009 063c 10FAF1EE 		vmrs	APSR_nzcv, FPSCR
 2010 0640 487AF0CE 		vmovgt.f32	s15, s16
 2011 0644 E78AF4EE 		vcmpe.f32	s17, s15
 2012 0648 10FAF1EE 		vmrs	APSR_nzcv, FPSCR
 2013 064c 687AF04E 		vmovmi.f32	s15, s17
 2014 0650 067A4CED 		vstr.32	s15, [ip, #-24]
 2015 0654 157A11ED 		vldr.32	s14, [r1, #-84]
 2016 0658 157A50ED 		vldr.32	s15, [r0, #-84]
 2017 065c 277A77EE 		vadd.f32	s15, s14, s15
 2018 0660 E78AB4EE 		vcmpe.f32	s16, s15
 2019 0664 10FAF1EE 		vmrs	APSR_nzcv, FPSCR
 2020 0668 487AF0CE 		vmovgt.f32	s15, s16
 2021 066c E78AF4EE 		vcmpe.f32	s17, s15
 2022 0670 10FAF1EE 		vmrs	APSR_nzcv, FPSCR
 2023 0674 687AF04E 		vmovmi.f32	s15, s17
 2024 0678 057A4CED 		vstr.32	s15, [ip, #-20]
 2025 067c 147A10ED 		vldr.32	s14, [r0, #-80]
 2026 0680 147A51ED 		vldr.32	s15, [r1, #-80]
 2027 0684 277A77EE 		vadd.f32	s15, s14, s15
 2028 0688 E78AB4EE 		vcmpe.f32	s16, s15
 2029 068c 10FAF1EE 		vmrs	APSR_nzcv, FPSCR
 2030 0690 487AF0CE 		vmovgt.f32	s15, s16
 2031 0694 E78AF4EE 		vcmpe.f32	s17, s15
 2032 0698 10FAF1EE 		vmrs	APSR_nzcv, FPSCR
 2033 069c 687AF04E 		vmovmi.f32	s15, s17
 2034 06a0 047A4CED 		vstr.32	s15, [ip, #-16]
 2035 06a4 137A11ED 		vldr.32	s14, [r1, #-76]
 2036 06a8 137A50ED 		vldr.32	s15, [r0, #-76]
 2037 06ac 277A77EE 		vadd.f32	s15, s14, s15
 2038 06b0 E78AB4EE 		vcmpe.f32	s16, s15
 2039 06b4 10FAF1EE 		vmrs	APSR_nzcv, FPSCR
 2040 06b8 487AF0CE 		vmovgt.f32	s15, s16
 2041 06bc E78AF4EE 		vcmpe.f32	s17, s15
 2042 06c0 10FAF1EE 		vmrs	APSR_nzcv, FPSCR
 2043 06c4 687AF04E 		vmovmi.f32	s15, s17
 2044 06c8 037A4CED 		vstr.32	s15, [ip, #-12]
 2045 06cc 127A11ED 		vldr.32	s14, [r1, #-72]
 2046 06d0 127A50ED 		vldr.32	s15, [r0, #-72]
 2047 06d4 277A77EE 		vadd.f32	s15, s14, s15
 2048 06d8 E78AB4EE 		vcmpe.f32	s16, s15
 2049 06dc 10FAF1EE 		vmrs	APSR_nzcv, FPSCR
 2050 06e0 487AF0CE 		vmovgt.f32	s15, s16
 2051 06e4 E78AF4EE 		vcmpe.f32	s17, s15
 2052 06e8 10FAF1EE 		vmrs	APSR_nzcv, FPSCR
 2053 06ec 687AF04E 		vmovmi.f32	s15, s17
 2054 06f0 027A4CED 		vstr.32	s15, [ip, #-8]
 2055 06f4 117A10ED 		vldr.32	s14, [r0, #-68]
 2056 06f8 117A51ED 		vldr.32	s15, [r1, #-68]
 2057 06fc 277A77EE 		vadd.f32	s15, s14, s15
 2058 0700 E78AB4EE 		vcmpe.f32	s16, s15
 2059 0704 10FAF1EE 		vmrs	APSR_nzcv, FPSCR
 2060 0708 487AF0CE 		vmovgt.f32	s15, s16
 2061 070c E78AF4EE 		vcmpe.f32	s17, s15
 2062 0710 10FAF1EE 		vmrs	APSR_nzcv, FPSCR
 2063 0714 687AF04E 		vmovmi.f32	s15, s17
 2064 0718 080056E1 		cmp	r6, r8
 2065 071c 017A4CED 		vstr.32	s15, [ip, #-4]
 2066 0720 A7FFFF1A 		bne	.L705
 2067              	.L704:
 2068 0724 0611A0E1 		lsl	r1, r6, #2
 2069 0728 015085E0 		add	r5, r5, r1
 2070 072c 014084E0 		add	r4, r4, r1
 2071 0730 013083E0 		add	r3, r3, r1
 2072              	.L707:
 2073 0734 017AB5EC 		vldmia.32	r5!, {s14}
 2074 0738 016086E2 		add	r6, r6, #1
 2075 073c 017AF4EC 		vldmia.32	r4!, {s15}
 2076 0740 277A77EE 		vadd.f32	s15, s14, s15
 2077 0744 E78AB4EE 		vcmpe.f32	s16, s15
 2078 0748 10FAF1EE 		vmrs	APSR_nzcv, FPSCR
 2079 074c 487AF0CE 		vmovgt.f32	s15, s16
 2080 0750 E78AF4EE 		vcmpe.f32	s17, s15
 2081 0754 10FAF1EE 		vmrs	APSR_nzcv, FPSCR
 2082 0758 687AF04E 		vmovmi.f32	s15, s17
 2083 075c 060052E1 		cmp	r2, r6
 2084 0760 017AE3EC 		vstmia.32	r3!, {s15}
 2085 0764 F2FFFFCA 		bgt	.L707
 2086              	.L706:
 2087 0768 050057E3 		cmp	r7, #5
 2088 076c 040000DA 		ble	.L703
 2089 0770 24019DE5 		ldr	r0, [sp, #292]
 2090 0774 000050E3 		cmp	r0, #0
 2091 0778 0100000A 		beq	.L703
 2092 077c FEFFFFEB 		bl	_ZdaPv
 2093 0780 00E19DE5 		ldr	lr, [sp, #256]
 2094              	.L703:
 2095 0784 05005EE3 		cmp	lr, #5
 2096 0788 030000DA 		ble	.L708
 2097 078c 04019DE5 		ldr	r0, [sp, #260]
 2098 0790 000050E3 		cmp	r0, #0
 2099 0794 0000000A 		beq	.L708
 2100 0798 FEFFFFEB 		bl	_ZdaPv
 2101              	.L708:
 2102 079c E8309DE5 		ldr	r3, [sp, #232]
 2103 07a0 050053E3 		cmp	r3, #5
 2104 07a4 030000DA 		ble	.L543
 2105 07a8 EC009DE5 		ldr	r0, [sp, #236]
 2106 07ac 000050E3 		cmp	r0, #0
 2107 07b0 0000000A 		beq	.L543
 2108              	.L894:
 2109 07b4 FEFFFFEB 		bl	_ZdaPv
 2110              	.L543:
 2111 07b8 51DF8DE2 		add	sp, sp, #324
 2112              		@ sp needed
 2113 07bc 028BBDEC 		vldm	sp!, {d8}
 2114 07c0 F08FBDE8 		pop	{r4, r5, r6, r7, r8, r9, r10, fp, pc}
 2115              	.L912:
 2116 07c4 EC609DE5 		ldr	r6, [sp, #236]
 2117 07c8 73FEFFEA 		b	.L661
 2118              	.L559:
 2119 07cc EC308DE2 		add	r3, sp, #236
 2120 07d0 0221A0E1 		lsl	r2, r2, #2
 2121 07d4 000183E0 		add	r0, r3, r0, lsl #2
 2122 07d8 8C108DE2 		add	r1, sp, #140
 2123 07dc FEFFFFEB 		bl	memcpy
 2124 07e0 D0709DE5 		ldr	r7, [sp, #208]
 2125 07e4 D4309DE5 		ldr	r3, [sp, #212]
 2126 07e8 050057E3 		cmp	r7, #5
 2127 07ec 600100CA 		bgt	.L917
 2128 07f0 030057E3 		cmp	r7, #3
 2129 07f4 A20200DA 		ble	.L561
 2130 07f8 E0109DE5 		ldr	r1, [sp, #224]
 2131 07fc 01E0A0E3 		mov	lr, #1
 2132 0800 DCC09DE5 		ldr	ip, [sp, #220]
 2133 0804 D8209DE5 		ldr	r2, [sp, #216]
 2134 0808 E8809DE5 		ldr	r8, [sp, #232]
 2135 080c 00318DE5 		str	r3, [sp, #256]
 2136 0810 9C0100E0 		mul	r0, ip, r1
 2137 0814 04218DE5 		str	r2, [sp, #260]
 2138 0818 050058E3 		cmp	r8, #5
 2139 081c 0C118DE5 		str	r1, [sp, #268]
 2140 0820 18118DE5 		str	r1, [sp, #280]
 2141 0824 08C18DE5 		str	ip, [sp, #264]
 2142 0828 920002E0 		mul	r2, r2, r0
 2143 082c 14018DE5 		str	r0, [sp, #276]
 2144 0830 1CE18DE5 		str	lr, [sp, #284]
 2145 0834 EC009DE5 		ldr	r0, [sp, #236]
 2146 0838 10218DE5 		str	r2, [sp, #272]
 2147 083c 5F0100CA 		bgt	.L563
 2148              	.L939:
 2149 0840 030058E3 		cmp	r8, #3
 2150 0844 820200DA 		ble	.L564
 2151 0848 F8209DE5 		ldr	r2, [sp, #248]
 2152 084c 0190A0E3 		mov	r9, #1
 2153 0850 F4109DE5 		ldr	r1, [sp, #244]
 2154 0854 050057E3 		cmp	r7, #5
 2155 0858 F0C09DE5 		ldr	ip, [sp, #240]
 2156 085c 3C918DE5 		str	r9, [sp, #316]
 2157 0860 20018DE5 		str	r0, [sp, #288]
 2158 0864 91020EE0 		mul	lr, r1, r2
 2159 0868 2C218DE5 		str	r2, [sp, #300]
 2160 086c 38218DE5 		str	r2, [sp, #312]
 2161 0870 28118DE5 		str	r1, [sp, #296]
 2162 0874 24C18DE5 		str	ip, [sp, #292]
 2163 0878 9C0E09E0 		mul	r9, ip, lr
 2164 087c 34E18DE5 		str	lr, [sp, #308]
 2165 0880 30918DE5 		str	r9, [sp, #304]
 2166 0884 5B0000CA 		bgt	.L918
 2167 0888 000057E3 		cmp	r7, #0
 2168 088c 8D0200DA 		ble	.L569
 2169 0890 000053E1 		cmp	r3, r0
 2170 0894 0600000A 		beq	.L570
 2171 0898 010053E3 		cmp	r3, #1
 2172 089c 0B02000A 		beq	.L571
 2173 08a0 010050E3 		cmp	r0, #1
 2174 08a4 8502001A 		bne	.L572
 2175 08a8 0000A0E3 		mov	r0, #0
 2176 08ac 20318DE5 		str	r3, [sp, #288]
 2177 08b0 30018DE5 		str	r0, [sp, #304]
 2178              	.L570:
 2179 08b4 010057E3 		cmp	r7, #1
 2180 08b8 8202000A 		beq	.L569
 2181 08bc D8309DE5 		ldr	r3, [sp, #216]
 2182 08c0 03005CE1 		cmp	ip, r3
 2183 08c4 0600000A 		beq	.L574
 2184 08c8 010053E3 		cmp	r3, #1
 2185 08cc 0702000A 		beq	.L573
 2186 08d0 01005CE3 		cmp	ip, #1
 2187 08d4 7902001A 		bne	.L572
 2188 08d8 0000A0E3 		mov	r0, #0
 2189 08dc 24318DE5 		str	r3, [sp, #292]
 2190 08e0 34018DE5 		str	r0, [sp, #308]
 2191              	.L574:
 2192 08e4 020057E3 		cmp	r7, #2
 2193 08e8 7602000A 		beq	.L569
 2194 08ec DC309DE5 		ldr	r3, [sp, #220]
 2195 08f0 030051E1 		cmp	r1, r3
 2196 08f4 0600000A 		beq	.L576
 2197 08f8 010053E3 		cmp	r3, #1
 2198 08fc F701000A 		beq	.L575
 2199 0900 010051E3 		cmp	r1, #1
 2200 0904 6D02001A 		bne	.L572
 2201 0908 0010A0E3 		mov	r1, #0
 2202 090c 28318DE5 		str	r3, [sp, #296]
 2203 0910 38118DE5 		str	r1, [sp, #312]
 2204              	.L576:
 2205 0914 030057E3 		cmp	r7, #3
 2206 0918 6A02000A 		beq	.L569
 2207 091c E0309DE5 		ldr	r3, [sp, #224]
 2208 0920 030052E1 		cmp	r2, r3
 2209 0924 0600000A 		beq	.L722
 2210              	.L899:
 2211 0928 010053E3 		cmp	r3, #1
 2212 092c AC01000A 		beq	.L587
 2213 0930 010052E3 		cmp	r2, #1
 2214 0934 6102001A 		bne	.L572
 2215 0938 0020A0E3 		mov	r2, #0
 2216 093c 2C318DE5 		str	r3, [sp, #300]
 2217 0940 3C218DE5 		str	r2, [sp, #316]
 2218              	.L722:
 2219 0944 050057E3 		cmp	r7, #5
 2220 0948 030000DA 		ble	.L607
 2221 094c D4009DE5 		ldr	r0, [sp, #212]
 2222 0950 000050E3 		cmp	r0, #0
 2223 0954 0000000A 		beq	.L607
 2224 0958 FEFFFFEB 		bl	_ZdaPv
 2225              	.L607:
 2226 095c A0209DE5 		ldr	r2, [sp, #160]
 2227 0960 0030A0E3 		mov	r3, #0
 2228 0964 B8308DE5 		str	r3, [sp, #184]
 2229 0968 040052E3 		cmp	r2, #4
 2230 096c 260200CA 		bgt	.L919
 2231 0970 040072E2 		rsbs	r0, r2, #4
 2232 0974 0430A0E3 		mov	r3, #4
 2233 0978 B8308DE5 		str	r3, [sp, #184]
 2234 097c 4800000A 		beq	.L619
 2235 0980 010050E3 		cmp	r0, #1
 2236 0984 0130A0E3 		mov	r3, #1
 2237 0988 BC308DE5 		str	r3, [sp, #188]
 2238 098c 4400000A 		beq	.L619
 2239 0990 020050E3 		cmp	r0, #2
 2240 0994 C0308DE5 		str	r3, [sp, #192]
 2241 0998 4100000A 		beq	.L619
 2242 099c 030050E3 		cmp	r0, #3
 2243 09a0 C4308DE5 		str	r3, [sp, #196]
 2244 09a4 3E00000A 		beq	.L619
 2245 09a8 040050E3 		cmp	r0, #4
 2246 09ac C8308DE5 		str	r3, [sp, #200]
 2247 09b0 3B00000A 		beq	.L619
 2248              	.LEHB26:
 2249 09b4 FEFFFFEB 		bl	abort
 2250              	.LEHE26:
 2251              	.L755:
 2252 09b8 0270A0E1 		mov	r7, r2
 2253 09bc 1BFEFFEA 		b	.L665
 2254              	.L775:
 2255 09c0 0180A0E1 		mov	r8, r1
 2256 09c4 C2FEFFEA 		b	.L691
 2257              	.L765:
 2258 09c8 0270A0E1 		mov	r7, r2
 2259 09cc 6BFEFFEA 		b	.L678
 2260              	.L686:
 2261 09d0 000057E3 		cmp	r7, #0
 2262 09d4 0120A0D3 		movle	r2, #1
 2263 09d8 EAFEFFDA 		ble	.L688
 2264 09dc 496F8DE2 		add	r6, sp, #292
 2265 09e0 95FEFFEA 		b	.L687
 2266              	.L673:
 2267 09e4 00005EE3 		cmp	lr, #0
 2268 09e8 01C0A0D3 		movle	ip, #1
 2269 09ec 8EFEFFDA 		ble	.L675
 2270 09f0 418F8DE2 		add	r8, sp, #260
 2271 09f4 3CFEFFEA 		b	.L674
 2272              	.L918:
 2273 09f8 00E093E5 		ldr	lr, [r3]
 2274 09fc 00005EE1 		cmp	lr, r0
 2275 0a00 0900000A 		beq	.L580
 2276 0a04 01005EE3 		cmp	lr, #1
 2277 0a08 00E0A003 		moveq	lr, #0
 2278 0a0c 00018D05 		streq	r0, [sp, #256]
 2279 0a10 10E18D05 		streq	lr, [sp, #272]
 2280 0a14 0400000A 		beq	.L580
 2281 0a18 010050E3 		cmp	r0, #1
 2282 0a1c 2702001A 		bne	.L572
 2283 0a20 0000A0E3 		mov	r0, #0
 2284 0a24 20E18DE5 		str	lr, [sp, #288]
 2285 0a28 30018DE5 		str	r0, [sp, #304]
 2286              	.L580:
 2287 0a2c 040093E5 		ldr	r0, [r3, #4]
 2288 0a30 0C0050E1 		cmp	r0, ip
 2289 0a34 0900000A 		beq	.L582
 2290 0a38 010050E3 		cmp	r0, #1
 2291 0a3c 0000A003 		moveq	r0, #0
 2292 0a40 04C18D05 		streq	ip, [sp, #260]
 2293 0a44 14018D05 		streq	r0, [sp, #276]
 2294 0a48 0400000A 		beq	.L582
 2295 0a4c 01005CE3 		cmp	ip, #1
 2296 0a50 1A02001A 		bne	.L572
 2297 0a54 00C0A0E3 		mov	ip, #0
 2298 0a58 24018DE5 		str	r0, [sp, #292]
 2299 0a5c 34C18DE5 		str	ip, [sp, #308]
 2300              	.L582:
 2301 0a60 080093E5 		ldr	r0, [r3, #8]
 2302 0a64 010050E1 		cmp	r0, r1
 2303 0a68 0900000A 		beq	.L584
 2304 0a6c 010050E3 		cmp	r0, #1
 2305 0a70 0000A003 		moveq	r0, #0
 2306 0a74 08118D05 		streq	r1, [sp, #264]
 2307 0a78 18018D05 		streq	r0, [sp, #280]
 2308 0a7c 0400000A 		beq	.L584
 2309 0a80 010051E3 		cmp	r1, #1
 2310 0a84 0D02001A 		bne	.L572
 2311 0a88 0010A0E3 		mov	r1, #0
 2312 0a8c 28018DE5 		str	r0, [sp, #296]
 2313 0a90 38118DE5 		str	r1, [sp, #312]
 2314              	.L584:
 2315 0a94 0C3093E5 		ldr	r3, [r3, #12]
 2316 0a98 030052E1 		cmp	r2, r3
 2317 0a9c A1FFFF1A 		bne	.L899
 2318 0aa0 A7FFFFEA 		b	.L722
 2319              	.L619:
 2320 0aa4 BC308DE2 		add	r3, sp, #188
 2321 0aa8 0221A0E1 		lsl	r2, r2, #2
 2322 0aac 000183E0 		add	r0, r3, r0, lsl #2
 2323 0ab0 A4108DE2 		add	r1, sp, #164
 2324 0ab4 FEFFFFEB 		bl	memcpy
 2325 0ab8 B8A09DE5 		ldr	r10, [sp, #184]
 2326 0abc 00005AE3 		cmp	r10, #0
 2327 0ac0 D00100DA 		ble	.L920
 2328 0ac4 C8B09DE5 		ldr	fp, [sp, #200]
 2329 0ac8 0000A0E3 		mov	r0, #0
 2330 0acc 4C608DE5 		str	r6, [sp, #76]
 2331 0ad0 C4609DE5 		ldr	r6, [sp, #196]
 2332 0ad4 34E19DE5 		ldr	lr, [sp, #308]
 2333 0ad8 0B21A0E1 		lsl	r2, fp, #2
 2334 0adc 54408DE5 		str	r4, [sp, #84]
 2335 0ae0 14419DE5 		ldr	r4, [sp, #276]
 2336 0ae4 34208DE5 		str	r2, [sp, #52]
 2337 0ae8 9B0602E0 		mul	r2, fp, r6
 2338 0aec 50508DE5 		str	r5, [sp, #80]
 2339 0af0 38519DE5 		ldr	r5, [sp, #312]
 2340 0af4 30319DE5 		ldr	r3, [sp, #304]
 2341 0af8 0221A0E1 		lsl	r2, r2, #2
 2342 0afc C0709DE5 		ldr	r7, [sp, #192]
 2343 0b00 3C819DE5 		ldr	r8, [sp, #316]
 2344 0b04 58208DE5 		str	r2, [sp, #88]
 2345 0b08 0E21A0E1 		lsl	r2, lr, #2
 2346 0b0c 0331A0E1 		lsl	r3, r3, #2
 2347 0b10 10C19DE5 		ldr	ip, [sp, #272]
 2348 0b14 5C208DE5 		str	r2, [sp, #92]
 2349 0b18 0421A0E1 		lsl	r2, r4, #2
 2350 0b1c 68308DE5 		str	r3, [sp, #104]
 2351 0b20 960701E0 		mul	r1, r6, r7
 2352 0b24 60208DE5 		str	r2, [sp, #96]
 2353 0b28 0521A0E1 		lsl	r2, r5, #2
 2354 0b2c 1C319DE5 		ldr	r3, [sp, #284]
 2355 0b30 0CC1A0E1 		lsl	ip, ip, #2
 2356 0b34 38208DE5 		str	r2, [sp, #56]
 2357 0b38 18219DE5 		ldr	r2, [sp, #280]
 2358 0b3c 0111A0E1 		lsl	r1, r1, #2
 2359 0b40 6CC08DE5 		str	ip, [sp, #108]
 2360 0b44 9B0101E0 		mul	r1, fp, r1
 2361 0b48 BC909DE5 		ldr	r9, [sp, #188]
 2362 0b4c 0221A0E1 		lsl	r2, r2, #2
 2363 0b50 3C208DE5 		str	r2, [sp, #60]
 2364 0b54 0821A0E1 		lsl	r2, r8, #2
 2365 0b58 64108DE5 		str	r1, [sp, #100]
 2366 0b5c 20208DE5 		str	r2, [sp, #32]
 2367 0b60 0321A0E1 		lsl	r2, r3, #2
 2368 0b64 0332A0E1 		lsl	r3, r3, #4
 2369 0b68 00819DE5 		ldr	r8, [sp, #256]
 2370 0b6c 24208DE5 		str	r2, [sp, #36]
 2371 0b70 10308DE5 		str	r3, [sp, #16]
 2372 0b74 04319DE5 		ldr	r3, [sp, #260]
 2373 0b78 00308DE5 		str	r3, [sp]
 2374 0b7c 08319DE5 		ldr	r3, [sp, #264]
 2375 0b80 04308DE5 		str	r3, [sp, #4]
 2376 0b84 0C319DE5 		ldr	r3, [sp, #268]
 2377 0b88 08308DE5 		str	r3, [sp, #8]
 2378 0b8c 20319DE5 		ldr	r3, [sp, #288]
 2379 0b90 0C308DE5 		str	r3, [sp, #12]
 2380 0b94 24319DE5 		ldr	r3, [sp, #292]
 2381 0b98 14308DE5 		str	r3, [sp, #20]
 2382 0b9c 28319DE5 		ldr	r3, [sp, #296]
 2383 0ba0 18308DE5 		str	r3, [sp, #24]
 2384 0ba4 2C319DE5 		ldr	r3, [sp, #300]
 2385 0ba8 1C308DE5 		str	r3, [sp, #28]
 2386 0bac 0630A0E1 		mov	r3, r6
 2387 0bb0 0760A0E1 		mov	r6, r7
 2388 0bb4 0370A0E1 		mov	r7, r3
 2389              	.L621:
 2390 0bb8 05005AE3 		cmp	r10, #5
 2391 0bbc 003099C5 		ldrgt	r3, [r9]
 2392 0bc0 0930A0D1 		movle	r3, r9
 2393 0bc4 000053E1 		cmp	r3, r0
 2394 0bc8 710100DA 		ble	.L623
 2395 0bcc 01005AE3 		cmp	r10, #1
 2396 0bd0 8B01000A 		beq	.L921
 2397 0bd4 54309DE5 		ldr	r3, [sp, #84]
 2398 0bd8 00C0A0E3 		mov	ip, #0
 2399 0bdc 48308DE5 		str	r3, [sp, #72]
 2400 0be0 50309DE5 		ldr	r3, [sp, #80]
 2401 0be4 44308DE5 		str	r3, [sp, #68]
 2402 0be8 4C309DE5 		ldr	r3, [sp, #76]
 2403 0bec 40308DE5 		str	r3, [sp, #64]
 2404              	.L624:
 2405 0bf0 05005AE3 		cmp	r10, #5
 2406 0bf4 043099C5 		ldrgt	r3, [r9, #4]
 2407 0bf8 0630A0D1 		movle	r3, r6
 2408 0bfc 0C0053E1 		cmp	r3, ip
 2409 0c00 550100DA 		ble	.L626
 2410 0c04 02005AE3 		cmp	r10, #2
 2411 0c08 7C01000A 		beq	.L922
 2412 0c0c 48309DE5 		ldr	r3, [sp, #72]
 2413 0c10 0010A0E3 		mov	r1, #0
 2414 0c14 30308DE5 		str	r3, [sp, #48]
 2415 0c18 44309DE5 		ldr	r3, [sp, #68]
 2416 0c1c 2C308DE5 		str	r3, [sp, #44]
 2417 0c20 40309DE5 		ldr	r3, [sp, #64]
 2418 0c24 28308DE5 		str	r3, [sp, #40]
 2419              	.L627:
 2420 0c28 05005AE3 		cmp	r10, #5
 2421 0c2c 083099C5 		ldrgt	r3, [r9, #8]
 2422 0c30 0730A0D1 		movle	r3, r7
 2423 0c34 010053E1 		cmp	r3, r1
 2424 0c38 310100DA 		ble	.L629
 2425 0c3c 03005AE3 		cmp	r10, #3
 2426 0c40 4401000A 		beq	.L923
 2427 0c44 05005AE3 		cmp	r10, #5
 2428 0c48 30209DE5 		ldr	r2, [sp, #48]
 2429 0c4c 2CE09DE5 		ldr	lr, [sp, #44]
 2430 0c50 0030A0E3 		mov	r3, #0
 2431 0c54 28509DE5 		ldr	r5, [sp, #40]
 2432 0c58 320000DA 		ble	.L742
 2433 0c5c 420000EA 		b	.L924
 2434              	.L938:
 2435 0c60 04005AE3 		cmp	r10, #4
 2436 0c64 3401001A 		bne	.L925
 2437 0c68 000059E1 		cmp	r9, r0
 2438 0c6c 230100DA 		ble	.L926
 2439 0c70 0C0056E1 		cmp	r6, ip
 2440 0c74 140100DA 		ble	.L927
 2441 0c78 010057E1 		cmp	r7, r1
 2442 0c7c 110100DA 		ble	.L928
 2443 0c80 03005BE1 		cmp	fp, r3
 2444 0c84 0E0100DA 		ble	.L929
 2445 0c88 000058E1 		cmp	r8, r0
 2446 0c8c 0B0100DA 		ble	.L930
 2447 0c90 00409DE5 		ldr	r4, [sp]
 2448 0c94 0C0054E1 		cmp	r4, ip
 2449 0c98 070100DA 		ble	.L931
 2450 0c9c 04409DE5 		ldr	r4, [sp, #4]
 2451 0ca0 010054E1 		cmp	r4, r1
 2452 0ca4 030100DA 		ble	.L932
 2453 0ca8 08409DE5 		ldr	r4, [sp, #8]
 2454 0cac 030054E1 		cmp	r4, r3
 2455 0cb0 FF0000DA 		ble	.L933
 2456 0cb4 0C409DE5 		ldr	r4, [sp, #12]
 2457 0cb8 007AD2ED 		vldr.32	s15, [r2]
 2458 0cbc 000054E1 		cmp	r4, r0
 2459 0cc0 10409DE5 		ldr	r4, [sp, #16]
 2460 0cc4 02F0D4F7 		pld	[r4, r2]
 2461 0cc8 F80000DA 		ble	.L934
 2462 0ccc 14409DE5 		ldr	r4, [sp, #20]
 2463 0cd0 0C0054E1 		cmp	r4, ip
 2464 0cd4 F40000DA 		ble	.L935
 2465 0cd8 18409DE5 		ldr	r4, [sp, #24]
 2466 0cdc 010054E1 		cmp	r4, r1
 2467 0ce0 F00000DA 		ble	.L936
 2468 0ce4 1C409DE5 		ldr	r4, [sp, #28]
 2469 0ce8 030054E1 		cmp	r4, r3
 2470 0cec EC0000DA 		ble	.L937
 2471 0cf0 007A9EED 		vldr.32	s14, [lr]
 2472 0cf4 013083E2 		add	r3, r3, #1
 2473 0cf8 24409DE5 		ldr	r4, [sp, #36]
 2474 0cfc 877A77EE 		vadd.f32	s15, s15, s14
 2475 0d00 042082E0 		add	r2, r2, r4
 2476 0d04 20409DE5 		ldr	r4, [sp, #32]
 2477 0d08 678AB4EE 		vcmp.f32	s16, s15
 2478 0d0c 04E08EE0 		add	lr, lr, r4
 2479 0d10 10FAF1EE 		vmrs	APSR_nzcv, FPSCR
 2480 0d14 487AF0CE 		vmovgt.f32	s15, s16
 2481 0d18 678AF4EE 		vcmp.f32	s17, s15
 2482 0d1c 10FAF1EE 		vmrs	APSR_nzcv, FPSCR
 2483 0d20 687AF04E 		vmovmi.f32	s15, s17
 2484 0d24 017AE5EC 		vstmia.32	r5!, {s15}
 2485              	.L742:
 2486 0d28 0B40A0E1 		mov	r4, fp
 2487              	.L631:
 2488 0d2c 030054E1 		cmp	r4, r3
 2489 0d30 CAFFFFCA 		bgt	.L938
 2490 0d34 28309DE5 		ldr	r3, [sp, #40]
 2491 0d38 011081E2 		add	r1, r1, #1
 2492 0d3c 34209DE5 		ldr	r2, [sp, #52]
 2493 0d40 023083E0 		add	r3, r3, r2
 2494 0d44 38209DE5 		ldr	r2, [sp, #56]
 2495 0d48 28308DE5 		str	r3, [sp, #40]
 2496 0d4c 2C309DE5 		ldr	r3, [sp, #44]
 2497 0d50 023083E0 		add	r3, r3, r2
 2498 0d54 3C209DE5 		ldr	r2, [sp, #60]
 2499 0d58 2C308DE5 		str	r3, [sp, #44]
 2500 0d5c 30309DE5 		ldr	r3, [sp, #48]
 2501 0d60 023083E0 		add	r3, r3, r2
 2502 0d64 30308DE5 		str	r3, [sp, #48]
 2503 0d68 AEFFFFEA 		b	.L627
 2504              	.L924:
 2505 0d6c 0C4099E5 		ldr	r4, [r9, #12]
 2506 0d70 EDFFFFEA 		b	.L631
 2507              	.L917:
 2508 0d74 080093E5 		ldr	r0, [r3, #8]
 2509 0d78 01C0A0E3 		mov	ip, #1
 2510 0d7c 0C2093E5 		ldr	r2, [r3, #12]
 2511 0d80 041093E5 		ldr	r1, [r3, #4]
 2512 0d84 E8809DE5 		ldr	r8, [sp, #232]
 2513 0d88 0C218DE5 		str	r2, [sp, #268]
 2514 0d8c 18218DE5 		str	r2, [sp, #280]
 2515 0d90 900202E0 		mul	r2, r0, r2
 2516 0d94 08018DE5 		str	r0, [sp, #264]
 2517 0d98 050058E3 		cmp	r8, #5
 2518 0d9c 000093E5 		ldr	r0, [r3]
 2519 0da0 04118DE5 		str	r1, [sp, #260]
 2520 0da4 910201E0 		mul	r1, r1, r2
 2521 0da8 1CC18DE5 		str	ip, [sp, #284]
 2522 0dac 00018DE5 		str	r0, [sp, #256]
 2523 0db0 14218DE5 		str	r2, [sp, #276]
 2524 0db4 EC009DE5 		ldr	r0, [sp, #236]
 2525 0db8 10118DE5 		str	r1, [sp, #272]
 2526 0dbc 9FFEFFDA 		ble	.L939
 2527              	.L563:
 2528 0dc0 08C090E5 		ldr	ip, [r0, #8]
 2529 0dc4 050057E3 		cmp	r7, #5
 2530 0dc8 0C2090E5 		ldr	r2, [r0, #12]
 2531 0dcc 01E0A0E3 		mov	lr, #1
 2532 0dd0 041090E5 		ldr	r1, [r0, #4]
 2533 0dd4 28C18DE5 		str	ip, [sp, #296]
 2534 0dd8 2C218DE5 		str	r2, [sp, #300]
 2535 0ddc 38218DE5 		str	r2, [sp, #312]
 2536 0de0 9C0202E0 		mul	r2, ip, r2
 2537 0de4 00C090E5 		ldr	ip, [r0]
 2538 0de8 24118DE5 		str	r1, [sp, #292]
 2539 0dec 3CE18DE5 		str	lr, [sp, #316]
 2540 0df0 910201E0 		mul	r1, r1, r2
 2541 0df4 34218DE5 		str	r2, [sp, #308]
 2542 0df8 20C18DE5 		str	ip, [sp, #288]
 2543 0dfc 30118DE5 		str	r1, [sp, #304]
 2544 0e00 510000CA 		bgt	.L940
 2545 0e04 000057E3 		cmp	r7, #0
 2546 0e08 2E0100DA 		ble	.L569
 2547 0e0c 002090E5 		ldr	r2, [r0]
 2548 0e10 020053E1 		cmp	r3, r2
 2549 0e14 0900000A 		beq	.L588
 2550 0e18 010053E3 		cmp	r3, #1
 2551 0e1c 0030A003 		moveq	r3, #0
 2552 0e20 00218D05 		streq	r2, [sp, #256]
 2553 0e24 10318D05 		streq	r3, [sp, #272]
 2554 0e28 0400000A 		beq	.L588
 2555 0e2c 010052E3 		cmp	r2, #1
 2556 0e30 2201001A 		bne	.L572
 2557 0e34 0020A0E3 		mov	r2, #0
 2558 0e38 20318DE5 		str	r3, [sp, #288]
 2559 0e3c 30218DE5 		str	r2, [sp, #304]
 2560              	.L588:
 2561 0e40 010057E3 		cmp	r7, #1
 2562 0e44 1F01000A 		beq	.L569
 2563 0e48 D8309DE5 		ldr	r3, [sp, #216]
 2564 0e4c 042090E5 		ldr	r2, [r0, #4]
 2565 0e50 030052E1 		cmp	r2, r3
 2566 0e54 0900000A 		beq	.L591
 2567 0e58 010053E3 		cmp	r3, #1
 2568 0e5c 0030A003 		moveq	r3, #0
 2569 0e60 04218D05 		streq	r2, [sp, #260]
 2570 0e64 14318D05 		streq	r3, [sp, #276]
 2571 0e68 0400000A 		beq	.L591
 2572 0e6c 010052E3 		cmp	r2, #1
 2573 0e70 1201001A 		bne	.L572
 2574 0e74 0020A0E3 		mov	r2, #0
 2575 0e78 24318DE5 		str	r3, [sp, #292]
 2576 0e7c 34218DE5 		str	r2, [sp, #308]
 2577              	.L591:
 2578 0e80 020057E3 		cmp	r7, #2
 2579 0e84 0F01000A 		beq	.L569
 2580 0e88 DC309DE5 		ldr	r3, [sp, #220]
 2581 0e8c 082090E5 		ldr	r2, [r0, #8]
 2582 0e90 030052E1 		cmp	r2, r3
 2583 0e94 0900000A 		beq	.L593
 2584 0e98 010053E3 		cmp	r3, #1
 2585 0e9c 0030A003 		moveq	r3, #0
 2586 0ea0 08218D05 		streq	r2, [sp, #264]
 2587 0ea4 18318D05 		streq	r3, [sp, #280]
 2588 0ea8 0400000A 		beq	.L593
 2589 0eac 010052E3 		cmp	r2, #1
 2590 0eb0 0201001A 		bne	.L572
 2591 0eb4 0020A0E3 		mov	r2, #0
 2592 0eb8 28318DE5 		str	r3, [sp, #296]
 2593 0ebc 38218DE5 		str	r2, [sp, #312]
 2594              	.L593:
 2595 0ec0 030057E3 		cmp	r7, #3
 2596 0ec4 FF00000A 		beq	.L569
 2597 0ec8 E0309DE5 		ldr	r3, [sp, #224]
 2598 0ecc 0C2090E5 		ldr	r2, [r0, #12]
 2599 0ed0 030052E1 		cmp	r2, r3
 2600 0ed4 0900000A 		beq	.L596
 2601              	.L603:
 2602 0ed8 010053E3 		cmp	r3, #1
 2603 0edc 0030A003 		moveq	r3, #0
 2604 0ee0 0C218D05 		streq	r2, [sp, #268]
 2605 0ee4 1C318D05 		streq	r3, [sp, #284]
 2606 0ee8 0400000A 		beq	.L596
 2607 0eec 010052E3 		cmp	r2, #1
 2608 0ef0 0020A003 		moveq	r2, #0
 2609 0ef4 2C318D05 		streq	r3, [sp, #300]
 2610 0ef8 3C218D05 		streq	r2, [sp, #316]
 2611 0efc EF00001A 		bne	.L572
 2612              	.L596:
 2613 0f00 000050E3 		cmp	r0, #0
 2614 0f04 8EFEFF0A 		beq	.L722
 2615 0f08 FEFFFFEB 		bl	_ZdaPv
 2616 0f0c 8CFEFFEA 		b	.L722
 2617              	.L915:
 2618 0f10 000051E3 		cmp	r1, #0
 2619 0f14 0120A003 		moveq	r2, #1
 2620 0f18 0180A001 		moveq	r8, r1
 2621 0f1c 6EFDFF0A 		beq	.L690
 2622 0f20 4DFDFFEA 		b	.L689
 2623              	.L914:
 2624 0f24 000052E3 		cmp	r2, #0
 2625 0f28 01C0A003 		moveq	ip, #1
 2626 0f2c 0270A001 		moveq	r7, r2
 2627 0f30 14FDFF0A 		beq	.L677
 2628 0f34 F3FCFFEA 		b	.L676
 2629              	.L913:
 2630 0f38 000052E3 		cmp	r2, #0
 2631 0f3c 0100A003 		moveq	r0, #1
 2632 0f40 0270A001 		moveq	r7, r2
 2633 0f44 BBFCFF0A 		beq	.L664
 2634 0f48 9AFCFFEA 		b	.L663
 2635              	.L940:
 2636 0f4c 001093E5 		ldr	r1, [r3]
 2637 0f50 002090E5 		ldr	r2, [r0]
 2638 0f54 020051E1 		cmp	r1, r2
 2639 0f58 0600000A 		beq	.L597
 2640 0f5c 010051E3 		cmp	r1, #1
 2641 0f60 4B00000A 		beq	.L598
 2642 0f64 010052E3 		cmp	r2, #1
 2643 0f68 D400001A 		bne	.L572
 2644 0f6c 0020A0E3 		mov	r2, #0
 2645 0f70 20118DE5 		str	r1, [sp, #288]
 2646 0f74 30218DE5 		str	r2, [sp, #304]
 2647              	.L597:
 2648 0f78 041093E5 		ldr	r1, [r3, #4]
 2649 0f7c 042090E5 		ldr	r2, [r0, #4]
 2650 0f80 020051E1 		cmp	r1, r2
 2651 0f84 0600000A 		beq	.L599
 2652 0f88 010051E3 		cmp	r1, #1
 2653 0f8c 3800000A 		beq	.L600
 2654 0f90 010052E3 		cmp	r2, #1
 2655 0f94 C900001A 		bne	.L572
 2656 0f98 0020A0E3 		mov	r2, #0
 2657 0f9c 24118DE5 		str	r1, [sp, #292]
 2658 0fa0 34218DE5 		str	r2, [sp, #308]
 2659              	.L599:
 2660 0fa4 081093E5 		ldr	r1, [r3, #8]
 2661 0fa8 082090E5 		ldr	r2, [r0, #8]
 2662 0fac 020051E1 		cmp	r1, r2
 2663 0fb0 0600000A 		beq	.L601
 2664 0fb4 010051E3 		cmp	r1, #1
 2665 0fb8 3100000A 		beq	.L602
 2666 0fbc 010052E3 		cmp	r2, #1
 2667 0fc0 BE00001A 		bne	.L572
 2668 0fc4 0020A0E3 		mov	r2, #0
 2669 0fc8 28118DE5 		str	r1, [sp, #296]
 2670 0fcc 38218DE5 		str	r2, [sp, #312]
 2671              	.L601:
 2672 0fd0 0C3093E5 		ldr	r3, [r3, #12]
 2673 0fd4 0C2090E5 		ldr	r2, [r0, #12]
 2674 0fd8 020053E1 		cmp	r3, r2
 2675 0fdc BDFFFF1A 		bne	.L603
 2676 0fe0 C6FFFFEA 		b	.L596
 2677              	.L587:
 2678 0fe4 0030A0E3 		mov	r3, #0
 2679 0fe8 0C218DE5 		str	r2, [sp, #268]
 2680 0fec 1C318DE5 		str	r3, [sp, #284]
 2681 0ff0 53FEFFEA 		b	.L722
 2682              	.L776:
 2683 0ff4 0060A0E3 		mov	r6, #0
 2684 0ff8 C9FDFFEA 		b	.L704
 2685              	.L785:
 2686              	.L891:
 2687 0ffc D0709DE5 		ldr	r7, [sp, #208]
 2688              	.L558:
 2689 1000 050057E3 		cmp	r7, #5
 2690 1004 030000DA 		ble	.L615
 2691 1008 D4009DE5 		ldr	r0, [sp, #212]
 2692 100c 000050E3 		cmp	r0, #0
 2693 1010 0000000A 		beq	.L615
 2694              	.L892:
 2695 1014 FEFFFFEB 		bl	_ZdaPv
 2696              	.L615:
 2697 1018 A0309DE5 		ldr	r3, [sp, #160]
 2698 101c 050053E3 		cmp	r3, #5
 2699 1020 030000DA 		ble	.L711
 2700 1024 A4009DE5 		ldr	r0, [sp, #164]
 2701 1028 000050E3 		cmp	r0, #0
 2702 102c 0000000A 		beq	.L711
 2703 1030 FEFFFFEB 		bl	_ZdaPv
 2704              	.L711:
 2705 1034 88309DE5 		ldr	r3, [sp, #136]
 2706 1038 050053E3 		cmp	r3, #5
 2707 103c 030000DA 		ble	.L713
 2708 1040 8C009DE5 		ldr	r0, [sp, #140]
 2709 1044 000050E3 		cmp	r0, #0
 2710 1048 0000000A 		beq	.L713
 2711 104c FEFFFFEB 		bl	_ZdaPv
 2712              	.L713:
 2713 1050 70309DE5 		ldr	r3, [sp, #112]
 2714 1054 050053E3 		cmp	r3, #5
 2715 1058 030000DA 		ble	.L720
 2716 105c 74009DE5 		ldr	r0, [sp, #116]
 2717 1060 000050E3 		cmp	r0, #0
 2718 1064 0000000A 		beq	.L720
 2719              	.L898:
 2720 1068 FEFFFFEB 		bl	_ZdaPv
 2721              	.L720:
 2722              	.LEHB27:
 2723 106c FEFFFFEB 		bl	__cxa_end_cleanup
 2724              	.LEHE27:
 2725              	.L779:
 2726 1070 E8FFFFEA 		b	.L615
 2727              	.L600:
 2728 1074 0010A0E3 		mov	r1, #0
 2729 1078 04218DE5 		str	r2, [sp, #260]
 2730 107c 14118DE5 		str	r1, [sp, #276]
 2731 1080 C7FFFFEA 		b	.L599
 2732              	.L602:
 2733 1084 0010A0E3 		mov	r1, #0
 2734 1088 08218DE5 		str	r2, [sp, #264]
 2735 108c 18118DE5 		str	r1, [sp, #280]
 2736 1090 CEFFFFEA 		b	.L601
 2737              	.L598:
 2738 1094 0010A0E3 		mov	r1, #0
 2739 1098 00218DE5 		str	r2, [sp, #256]
 2740 109c 10118DE5 		str	r1, [sp, #272]
 2741 10a0 B4FFFFEA 		b	.L597
 2742              	.L937:
 2743              	.LEHB28:
 2744 10a4 FEFFFFEB 		bl	abort
 2745              	.L936:
 2746 10a8 FEFFFFEB 		bl	abort
 2747              	.L935:
 2748 10ac FEFFFFEB 		bl	abort
 2749              	.L934:
 2750 10b0 FEFFFFEB 		bl	abort
 2751              	.L933:
 2752 10b4 FEFFFFEB 		bl	abort
 2753              	.L932:
 2754 10b8 FEFFFFEB 		bl	abort
 2755              	.L931:
 2756 10bc FEFFFFEB 		bl	abort
 2757              	.L930:
 2758 10c0 FEFFFFEB 		bl	abort
 2759              	.L929:
 2760 10c4 FEFFFFEB 		bl	abort
 2761              	.L928:
 2762 10c8 FEFFFFEB 		bl	abort
 2763              	.L927:
 2764 10cc FEFFFFEB 		bl	abort
 2765              	.L571:
 2766 10d0 0030A0E3 		mov	r3, #0
 2767 10d4 00018DE5 		str	r0, [sp, #256]
 2768 10d8 10318DE5 		str	r3, [sp, #272]
 2769 10dc F4FDFFEA 		b	.L570
 2770              	.L575:
 2771 10e0 0030A0E3 		mov	r3, #0
 2772 10e4 08118DE5 		str	r1, [sp, #264]
 2773 10e8 18318DE5 		str	r3, [sp, #280]
 2774 10ec 08FEFFEA 		b	.L576
 2775              	.L573:
 2776 10f0 0030A0E3 		mov	r3, #0
 2777 10f4 04C18DE5 		str	ip, [sp, #260]
 2778 10f8 14318DE5 		str	r3, [sp, #276]
 2779 10fc F8FDFFEA 		b	.L574
 2780              	.L926:
 2781 1100 FEFFFFEB 		bl	abort
 2782              	.LEHE28:
 2783              	.L629:
 2784 1104 40309DE5 		ldr	r3, [sp, #64]
 2785 1108 01C08CE2 		add	ip, ip, #1
 2786 110c 58209DE5 		ldr	r2, [sp, #88]
 2787 1110 023083E0 		add	r3, r3, r2
 2788 1114 5C209DE5 		ldr	r2, [sp, #92]
 2789 1118 40308DE5 		str	r3, [sp, #64]
 2790 111c 44309DE5 		ldr	r3, [sp, #68]
 2791 1120 023083E0 		add	r3, r3, r2
 2792 1124 60209DE5 		ldr	r2, [sp, #96]
 2793 1128 44308DE5 		str	r3, [sp, #68]
 2794 112c 48309DE5 		ldr	r3, [sp, #72]
 2795 1130 023083E0 		add	r3, r3, r2
 2796 1134 48308DE5 		str	r3, [sp, #72]
 2797 1138 ACFEFFEA 		b	.L624
 2798              	.L925:
 2799              	.LEHB29:
 2800 113c FEFFFFEB 		bl	abort
 2801              	.LEHE29:
 2802              	.L787:
 2803 1140 05005AE3 		cmp	r10, #5
 2804 1144 B3FFFFDA 		ble	.L615
 2805 1148 BC009DE5 		ldr	r0, [sp, #188]
 2806 114c 000050E3 		cmp	r0, #0
 2807 1150 AFFFFF1A 		bne	.L892
 2808 1154 AFFFFFEA 		b	.L615
 2809              	.L923:
 2810              	.LEHB30:
 2811 1158 FEFFFFEB 		bl	abort
 2812              	.L626:
 2813 115c 4C309DE5 		ldr	r3, [sp, #76]
 2814 1160 010080E2 		add	r0, r0, #1
 2815 1164 64209DE5 		ldr	r2, [sp, #100]
 2816 1168 023083E0 		add	r3, r3, r2
 2817 116c 68209DE5 		ldr	r2, [sp, #104]
 2818 1170 4C308DE5 		str	r3, [sp, #76]
 2819 1174 50309DE5 		ldr	r3, [sp, #80]
 2820 1178 023083E0 		add	r3, r3, r2
 2821 117c 6C209DE5 		ldr	r2, [sp, #108]
 2822 1180 50308DE5 		str	r3, [sp, #80]
 2823 1184 54309DE5 		ldr	r3, [sp, #84]
 2824 1188 023083E0 		add	r3, r3, r2
 2825 118c 54308DE5 		str	r3, [sp, #84]
 2826 1190 88FEFFEA 		b	.L621
 2827              	.L623:
 2828 1194 05005AE3 		cmp	r10, #5
 2829 1198 0A0000DA 		ble	.L653
 2830 119c 000059E3 		cmp	r9, #0
 2831 11a0 0800000A 		beq	.L653
 2832 11a4 0900A0E1 		mov	r0, r9
 2833 11a8 FEFFFFEB 		bl	_ZdaPv
 2834 11ac A0309DE5 		ldr	r3, [sp, #160]
 2835 11b0 050053E3 		cmp	r3, #5
 2836 11b4 030000DA 		ble	.L653
 2837 11b8 A4009DE5 		ldr	r0, [sp, #164]
 2838 11bc 000050E3 		cmp	r0, #0
 2839 11c0 0000000A 		beq	.L653
 2840 11c4 FEFFFFEB 		bl	_ZdaPv
 2841              	.L653:
 2842 11c8 88309DE5 		ldr	r3, [sp, #136]
 2843 11cc 050053E3 		cmp	r3, #5
 2844 11d0 030000DA 		ble	.L654
 2845 11d4 8C009DE5 		ldr	r0, [sp, #140]
 2846 11d8 000050E3 		cmp	r0, #0
 2847 11dc 0000000A 		beq	.L654
 2848 11e0 FEFFFFEB 		bl	_ZdaPv
 2849              	.L654:
 2850 11e4 70309DE5 		ldr	r3, [sp, #112]
 2851 11e8 050053E3 		cmp	r3, #5
 2852 11ec 71FDFFDA 		ble	.L543
 2853 11f0 74009DE5 		ldr	r0, [sp, #116]
 2854 11f4 000050E3 		cmp	r0, #0
 2855 11f8 6DFDFF1A 		bne	.L894
 2856 11fc 6DFDFFEA 		b	.L543
 2857              	.L922:
 2858 1200 FEFFFFEB 		bl	abort
 2859              	.L921:
 2860 1204 FEFFFFEB 		bl	abort
 2861              	.L920:
 2862 1208 FEFFFFEB 		bl	abort
 2863              	.L919:
 2864 120c FEFFFFEB 		bl	abort
 2865              	.LEHE30:
 2866              	.L909:
 2867              	.LEHB31:
 2868 1210 FEFFFFEB 		bl	abort
 2869              	.LEHE31:
 2870              	.L781:
 2871              	.L717:
 2872 1214 00319DE5 		ldr	r3, [sp, #256]
 2873 1218 050053E3 		cmp	r3, #5
 2874 121c 030000DA 		ble	.L719
 2875 1220 04019DE5 		ldr	r0, [sp, #260]
 2876 1224 000050E3 		cmp	r0, #0
 2877 1228 0000000A 		beq	.L719
 2878 122c FEFFFFEB 		bl	_ZdaPv
 2879              	.L719:
 2880 1230 E8309DE5 		ldr	r3, [sp, #232]
 2881 1234 050053E3 		cmp	r3, #5
 2882 1238 8BFFFFDA 		ble	.L720
 2883 123c EC009DE5 		ldr	r0, [sp, #236]
 2884 1240 000050E3 		cmp	r0, #0
 2885 1244 87FFFF1A 		bne	.L898
 2886 1248 87FFFFEA 		b	.L720
 2887              	.L784:
 2888 124c 6AFFFFEA 		b	.L891
 2889              	.L908:
 2890              	.LEHB32:
 2891 1250 FEFFFFEB 		bl	abort
 2892              	.LEHE32:
 2893              	.L564:
 2894              	.LEHB33:
 2895 1254 FEFFFFEB 		bl	abort
 2896              	.LEHE33:
 2897              	.L907:
 2898              	.LEHB34:
 2899 1258 FEFFFFEB 		bl	abort
 2900              	.LEHE34:
 2901              	.L916:
 2902              	.LEHB35:
 2903 125c FEFFFFEB 		bl	abort
 2904              	.L700:
 2905 1260 FEFFFFEB 		bl	abort
 2906              	.LEHE35:
 2907              	.L782:
 2908 1264 20319DE5 		ldr	r3, [sp, #288]
 2909 1268 050053E3 		cmp	r3, #5
 2910 126c E8FFFFDA 		ble	.L717
 2911 1270 24019DE5 		ldr	r0, [sp, #292]
 2912 1274 000050E3 		cmp	r0, #0
 2913 1278 E5FFFF0A 		beq	.L717
 2914 127c FEFFFFEB 		bl	_ZdaPv
 2915 1280 E3FFFFEA 		b	.L717
 2916              	.L561:
 2917              	.LEHB36:
 2918 1284 FEFFFFEB 		bl	abort
 2919              	.LEHE36:
 2920              	.L783:
 2921              	.L611:
 2922 1288 050058E3 		cmp	r8, #5
 2923 128c 5BFFFFDA 		ble	.L558
 2924 1290 EC009DE5 		ldr	r0, [sp, #236]
 2925 1294 000050E3 		cmp	r0, #0
 2926 1298 58FFFF0A 		beq	.L558
 2927 129c FEFFFFEB 		bl	_ZdaPv
 2928 12a0 56FFFFEA 		b	.L558
 2929              	.L786:
 2930 12a4 E8809DE5 		ldr	r8, [sp, #232]
 2931 12a8 F6FFFFEA 		b	.L611
 2932              	.L911:
 2933              	.LEHB37:
 2934 12ac FEFFFFEB 		bl	abort
 2935              	.LEHE37:
 2936              	.L780:
 2937 12b0 DEFFFFEA 		b	.L719
 2938              	.L910:
 2939              	.LEHB38:
 2940 12b4 FEFFFFEB 		bl	abort
 2941              	.LEHE38:
 2942              	.L906:
 2943              	.LEHB39:
 2944 12b8 FEFFFFEB 		bl	abort
 2945              	.LEHE39:
 2946              	.L777:
 2947 12bc 63FFFFEA 		b	.L713
 2948              	.L572:
 2949              	.LEHB40:
 2950 12c0 FEFFFFEB 		bl	abort
 2951              	.L778:
 2952 12c4 5AFFFFEA 		b	.L711
 2953              	.L569:
 2954 12c8 FEFFFFEB 		bl	abort
 2955              	.LEHE40:
 2956              		.personality	__gxx_personality_v0
 2957              		.handlerdata
 2958              	.LLSDA9118:
 2959 000c FF       		.byte	0xff
 2960 000d FF       		.byte	0xff
 2961 000e 01       		.byte	0x1
 2962 000f 8501     		.uleb128 .LLSDACSE9118-.LLSDACSB9118
 2963              	.LLSDACSB9118:
 2964 0011 34       		.uleb128 .LEHB18-.LFB9118
 2965 0012 04       		.uleb128 .LEHE18-.LEHB18
 2966 0013 00       		.uleb128 0
 2967 0014 00       		.uleb128 0
 2968 0015 4C       		.uleb128 .LEHB19-.LFB9118
 2969 0016 04       		.uleb128 .LEHE19-.LEHB19
 2970 0017 BC25     		.uleb128 .L777-.LFB9118
 2971 0019 00       		.uleb128 0
 2972 001a 64       		.uleb128 .LEHB20-.LFB9118
 2973 001b 04       		.uleb128 .LEHE20-.LEHB20
 2974 001c C425     		.uleb128 .L778-.LFB9118
 2975 001e 00       		.uleb128 0
 2976 001f C801     		.uleb128 .LEHB21-.LFB9118
 2977 0021 04       		.uleb128 .LEHE21-.LEHB21
 2978 0022 F020     		.uleb128 .L779-.LFB9118
 2979 0024 00       		.uleb128 0
 2980 0025 B802     		.uleb128 .LEHB22-.LFB9118
 2981 0027 04       		.uleb128 .LEHE22-.LEHB22
 2982 0028 FC1F     		.uleb128 .L785-.LFB9118
 2983 002a 00       		.uleb128 0
 2984 002b C002     		.uleb128 .LEHB23-.LFB9118
 2985 002d 04       		.uleb128 .LEHE23-.LEHB23
 2986 002e 00       		.uleb128 0
 2987 002f 00       		.uleb128 0
 2988 0030 D802     		.uleb128 .LEHB24-.LFB9118
 2989 0032 04       		.uleb128 .LEHE24-.LEHB24
 2990 0033 B025     		.uleb128 .L780-.LFB9118
 2991 0035 00       		.uleb128 0
 2992 0036 F002     		.uleb128 .LEHB25-.LFB9118
 2993 0038 04       		.uleb128 .LEHE25-.LEHB25
 2994 0039 9424     		.uleb128 .L781-.LFB9118
 2995 003b 00       		.uleb128 0
 2996 003c B413     		.uleb128 .LEHB26-.LFB9118
 2997 003e 04       		.uleb128 .LEHE26-.LEHB26
 2998 003f F020     		.uleb128 .L779-.LFB9118
 2999 0041 00       		.uleb128 0
 3000 0042 EC20     		.uleb128 .LEHB27-.LFB9118
 3001 0044 04       		.uleb128 .LEHE27-.LEHB27
 3002 0045 00       		.uleb128 0
 3003 0046 00       		.uleb128 0
 3004 0047 A421     		.uleb128 .LEHB28-.LFB9118
 3005 0049 60       		.uleb128 .LEHE28-.LEHB28
 3006 004a F020     		.uleb128 .L779-.LFB9118
 3007 004c 00       		.uleb128 0
 3008 004d BC22     		.uleb128 .LEHB29-.LFB9118
 3009 004f 04       		.uleb128 .LEHE29-.LEHB29
 3010 0050 C022     		.uleb128 .L787-.LFB9118
 3011 0052 00       		.uleb128 0
 3012 0053 D822     		.uleb128 .LEHB30-.LFB9118
 3013 0055 B801     		.uleb128 .LEHE30-.LEHB30
 3014 0057 F020     		.uleb128 .L779-.LFB9118
 3015 0059 00       		.uleb128 0
 3016 005a 9024     		.uleb128 .LEHB31-.LFB9118
 3017 005c 04       		.uleb128 .LEHE31-.LEHB31
 3018 005d CC24     		.uleb128 .L784-.LFB9118
 3019 005f 00       		.uleb128 0
 3020 0060 D024     		.uleb128 .LEHB32-.LFB9118
 3021 0062 04       		.uleb128 .LEHE32-.LEHB32
 3022 0063 F020     		.uleb128 .L779-.LFB9118
 3023 0065 00       		.uleb128 0
 3024 0066 D424     		.uleb128 .LEHB33-.LFB9118
 3025 0068 04       		.uleb128 .LEHE33-.LEHB33
 3026 0069 8825     		.uleb128 .L783-.LFB9118
 3027 006b 00       		.uleb128 0
 3028 006c D824     		.uleb128 .LEHB34-.LFB9118
 3029 006e 04       		.uleb128 .LEHE34-.LEHB34
 3030 006f C425     		.uleb128 .L778-.LFB9118
 3031 0071 00       		.uleb128 0
 3032 0072 DC24     		.uleb128 .LEHB35-.LFB9118
 3033 0074 08       		.uleb128 .LEHE35-.LEHB35
 3034 0075 E424     		.uleb128 .L782-.LFB9118
 3035 0077 00       		.uleb128 0
 3036 0078 8425     		.uleb128 .LEHB36-.LFB9118
 3037 007a 04       		.uleb128 .LEHE36-.LEHB36
 3038 007b A425     		.uleb128 .L786-.LFB9118
 3039 007d 00       		.uleb128 0
 3040 007e AC25     		.uleb128 .LEHB37-.LFB9118
 3041 0080 04       		.uleb128 .LEHE37-.LEHB37
 3042 0081 9424     		.uleb128 .L781-.LFB9118
 3043 0083 00       		.uleb128 0
 3044 0084 B425     		.uleb128 .LEHB38-.LFB9118
 3045 0086 04       		.uleb128 .LEHE38-.LEHB38
 3046 0087 B025     		.uleb128 .L780-.LFB9118
 3047 0089 00       		.uleb128 0
 3048 008a B825     		.uleb128 .LEHB39-.LFB9118
 3049 008c 04       		.uleb128 .LEHE39-.LEHB39
 3050 008d BC25     		.uleb128 .L777-.LFB9118
 3051 008f 00       		.uleb128 0
 3052 0090 C025     		.uleb128 .LEHB40-.LFB9118
 3053 0092 0C       		.uleb128 .LEHE40-.LEHB40
 3054 0093 8825     		.uleb128 .L783-.LFB9118
 3055 0095 00       		.uleb128 0
 3056              	.LLSDACSE9118:
 3057              		.section	.text._ZN6tflite3ops5micro3add7EvalAddEP13TfLiteContextP10TfLiteNodeP15TfLiteAddParamsPKN
 3058              		.fnend
 3060              		.section	.text._ZN6tflite3ops5micro3add16EvalAddQuantizedEP13TfLiteContextP10TfLiteNodeP15TfLiteAd
 3061              		.align	2
 3062              		.global	_ZN6tflite3ops5micro3add16EvalAddQuantizedEP13TfLiteContextP10TfLiteNodeP15TfLiteAddParams
 3063              		.syntax unified
 3064              		.arm
 3065              		.fpu neon
 3067              	_ZN6tflite3ops5micro3add16EvalAddQuantizedEP13TfLiteContextP10TfLiteNodeP15TfLiteAddParamsPKNS2_6Op
 3068              		.fnstart
 3069              	.LFB9119:
 3070              		@ args = 12, pretend = 0, frame = 448
 3071              		@ frame_needed = 0, uses_anonymous_args = 0
 3072 0000 F04F2DE9 		push	{r4, r5, r6, r7, r8, r9, r10, fp, lr}
 3073              		.save {r4, r5, r6, r7, r8, r9, r10, fp, lr}
 3074              		.pad #500
 3075 0004 7DDF4DE2 		sub	sp, sp, #500
 3076 0008 20629DE5 		ldr	r6, [sp, #544]
 3077 000c 0820D6E5 		ldrb	r2, [r6, #8]	@ zero_extendqisi2
 3078 0010 090052E3 		cmp	r2, #9
 3079 0014 03005213 		cmpne	r2, #3
 3080 0018 0200000A 		beq	.L1786
 3081              	.L1604:
 3082 001c 0000A0E3 		mov	r0, #0
 3083 0020 7DDF8DE2 		add	sp, sp, #500
 3084              		@ sp needed
 3085 0024 F08FBDE8 		pop	{r4, r5, r6, r7, r8, r9, r10, fp, pc}
 3086              	.L1786:
 3087 0028 282093E5 		ldr	r2, [r3, #40]
 3088 002c 520F8DE2 		add	r0, sp, #328
 3089 0030 14E093E5 		ldr	lr, [r3, #20]
 3090 0034 04C093E5 		ldr	ip, [r3, #4]
 3091 0038 8C218DE5 		str	r2, [sp, #396]
 3092 003c 2C2093E5 		ldr	r2, [r3, #44]
 3093 0040 A4E18DE5 		str	lr, [sp, #420]
 3094 0044 A8C18DE5 		str	ip, [sp, #424]
 3095 0048 18E093E5 		ldr	lr, [r3, #24]
 3096 004c 08C093E5 		ldr	ip, [r3, #8]
 3097 0050 90218DE5 		str	r2, [sp, #400]
 3098 0054 302093E5 		ldr	r2, [r3, #48]
 3099 0058 244093E5 		ldr	r4, [r3, #36]
 3100 005c ACE18DE5 		str	lr, [sp, #428]
 3101 0060 B0C18DE5 		str	ip, [sp, #432]
 3102 0064 1CE093E5 		ldr	lr, [r3, #28]
 3103 0068 20C093E5 		ldr	ip, [r3, #32]
 3104 006c 94218DE5 		str	r2, [sp, #404]
 3105 0070 102093E5 		ldr	r2, [r3, #16]
 3106 0074 0C3093E5 		ldr	r3, [r3, #12]
 3107 0078 18129DE5 		ldr	r1, [sp, #536]
 3108 007c A0418DE5 		str	r4, [sp, #416]
 3109 0080 98E18DE5 		str	lr, [sp, #408]
 3110 0084 9CC18DE5 		str	ip, [sp, #412]
 3111 0088 B8218DE5 		str	r2, [sp, #440]
 3112 008c B4318DE5 		str	r3, [sp, #436]
 3113              	.LEHB41:
 3114 0090 FEFFFFEB 		bl	_ZN6tflite5micro14GetTensorShapeEPK16TfLiteEvalTensor
 3115              	.LEHE41:
 3116 0094 5A0F8DE2 		add	r0, sp, #360
 3117 0098 1C129DE5 		ldr	r1, [sp, #540]
 3118              	.LEHB42:
 3119 009c FEFFFFEB 		bl	_ZN6tflite5micro14GetTensorShapeEPK16TfLiteEvalTensor
 3120              	.LEHE42:
 3121 00a0 622F8DE2 		add	r2, sp, #392
 3122 00a4 5A1F8DE2 		add	r1, sp, #360
 3123 00a8 520F8DE2 		add	r0, sp, #328
 3124              	.LEHB43:
 3125 00ac FEFFFFEB 		bl	_ZN6tflite13reference_ops22ProcessBroadcastShapesERKNS_12RuntimeShapeES3_PNS_16ArithmeticParams
 3126              	.LEHE43:
 3127 00b0 68319DE5 		ldr	r3, [sp, #360]
 3128 00b4 0040A0E1 		mov	r4, r0
 3129 00b8 050053E3 		cmp	r3, #5
 3130 00bc 030000DA 		ble	.L943
 3131 00c0 6C019DE5 		ldr	r0, [sp, #364]
 3132 00c4 000050E3 		cmp	r0, #0
 3133 00c8 0000000A 		beq	.L943
 3134 00cc FEFFFFEB 		bl	_ZdaPv
 3135              	.L943:
 3136 00d0 48319DE5 		ldr	r3, [sp, #328]
 3137 00d4 050053E3 		cmp	r3, #5
 3138 00d8 030000DA 		ble	.L944
 3139 00dc 4C019DE5 		ldr	r0, [sp, #332]
 3140 00e0 000050E3 		cmp	r0, #0
 3141 00e4 0000000A 		beq	.L944
 3142 00e8 FEFFFFEB 		bl	_ZdaPv
 3143              	.L944:
 3144 00ec 0830D6E5 		ldrb	r3, [r6, #8]	@ zero_extendqisi2
 3145 00f0 090053E3 		cmp	r3, #9
 3146 00f4 9802000A 		beq	.L1787
 3147 00f8 000054E3 		cmp	r4, #0
 3148 00fc 18129DE5 		ldr	r1, [sp, #536]
 3149 0100 D301001A 		bne	.L1788
 3150 0104 130E8DE2 		add	r0, sp, #304
 3151              	.LEHB44:
 3152 0108 FEFFFFEB 		bl	_ZN6tflite5micro14GetTensorShapeEPK16TfLiteEvalTensor
 3153              	.LEHE44:
 3154 010c 18329DE5 		ldr	r3, [sp, #536]
 3155 0110 000053E3 		cmp	r3, #0
 3156 0114 990A000A 		beq	.L1789
 3157 0118 520F8DE2 		add	r0, sp, #328
 3158 011c 1C129DE5 		ldr	r1, [sp, #540]
 3159 0120 005093E5 		ldr	r5, [r3]
 3160              	.LEHB45:
 3161 0124 FEFFFFEB 		bl	_ZN6tflite5micro14GetTensorShapeEPK16TfLiteEvalTensor
 3162              	.LEHE45:
 3163 0128 1C329DE5 		ldr	r3, [sp, #540]
 3164 012c 000053E3 		cmp	r3, #0
 3165 0130 900A000A 		beq	.L1790
 3166 0134 5A0F8DE2 		add	r0, sp, #360
 3167 0138 0610A0E1 		mov	r1, r6
 3168 013c 004093E5 		ldr	r4, [r3]
 3169              	.LEHB46:
 3170 0140 FEFFFFEB 		bl	_ZN6tflite5micro14GetTensorShapeEPK16TfLiteEvalTensor
 3171              	.LEHE46:
 3172 0144 B4219DE5 		ldr	r2, [sp, #436]
 3173 0148 B8319DE5 		ldr	r3, [sp, #440]
 3174 014c 006096E5 		ldr	r6, [r6]
 3175 0150 030052E1 		cmp	r2, r3
 3176 0154 850A00CA 		bgt	.L1791
 3177 0158 30C19DE5 		ldr	ip, [sp, #304]
 3178 015c 05005CE3 		cmp	ip, #5
 3179 0160 DD0300DA 		ble	.L1239
 3180 0164 34E19DE5 		ldr	lr, [sp, #308]
 3181              	.L1240:
 3182 0168 5E31A0E7 		sbfx	r3, lr, #2, #1
 3183 016c 033003E2 		and	r3, r3, #3
 3184 0170 0C0053E1 		cmp	r3, ip
 3185 0174 0C30A021 		movcs	r3, ip
 3186 0178 08005CE3 		cmp	ip, #8
 3187 017c 0C30A0D1 		movle	r3, ip
 3188 0180 E40500CA 		bgt	.L1792
 3189              	.L1242:
 3190 0184 010053E3 		cmp	r3, #1
 3191 0188 00209EE5 		ldr	r2, [lr]
 3192 018c C403000A 		beq	.L1425
 3193 0190 04109EE5 		ldr	r1, [lr, #4]
 3194 0194 020053E3 		cmp	r3, #2
 3195 0198 910202E0 		mul	r2, r1, r2
 3196 019c C003000A 		beq	.L1425
 3197 01a0 08109EE5 		ldr	r1, [lr, #8]
 3198 01a4 030053E3 		cmp	r3, #3
 3199 01a8 910202E0 		mul	r2, r1, r2
 3200 01ac BC03000A 		beq	.L1425
 3201 01b0 0C109EE5 		ldr	r1, [lr, #12]
 3202 01b4 040053E3 		cmp	r3, #4
 3203 01b8 910202E0 		mul	r2, r1, r2
 3204 01bc B803000A 		beq	.L1425
 3205 01c0 10109EE5 		ldr	r1, [lr, #16]
 3206 01c4 050053E3 		cmp	r3, #5
 3207 01c8 910202E0 		mul	r2, r1, r2
 3208 01cc B403000A 		beq	.L1425
 3209 01d0 14109EE5 		ldr	r1, [lr, #20]
 3210 01d4 060053E3 		cmp	r3, #6
 3211 01d8 910202E0 		mul	r2, r1, r2
 3212 01dc B003000A 		beq	.L1425
 3213 01e0 18109EE5 		ldr	r1, [lr, #24]
 3214 01e4 070053E3 		cmp	r3, #7
 3215 01e8 910202E0 		mul	r2, r1, r2
 3216 01ec AC03000A 		beq	.L1425
 3217 01f0 1C109EE5 		ldr	r1, [lr, #28]
 3218 01f4 0870A0E3 		mov	r7, #8
 3219 01f8 910202E0 		mul	r2, r1, r2
 3220              	.L1244:
 3221 01fc 03005CE1 		cmp	ip, r3
 3222 0200 2800000A 		beq	.L1241
 3223              	.L1243:
 3224 0204 03804CE0 		sub	r8, ip, r3
 3225 0208 01104CE2 		sub	r1, ip, #1
 3226 020c 040048E2 		sub	r0, r8, #4
 3227 0210 031041E0 		sub	r1, r1, r3
 3228 0214 2001A0E1 		lsr	r0, r0, #2
 3229 0218 020051E3 		cmp	r1, #2
 3230 021c 010080E2 		add	r0, r0, #1
 3231 0220 0091A0E1 		lsl	r9, r0, #2
 3232 0224 1200009A 		bls	.L1246
 3233 0228 03318EE0 		add	r3, lr, r3, lsl #2
 3234 022c 5100C0F2 		vmov.i32	q8, #1  @ v4si
 3235 0230 0010A0E3 		mov	r1, #0
 3236              	.L1248:
 3237 0234 011081E2 		add	r1, r1, #1
 3238 0238 DF2A63F4 		vld1.64	{d18-d19}, [r3:64]
 3239 023c 010050E1 		cmp	r0, r1
 3240 0240 103083E2 		add	r3, r3, #16
 3241 0244 F20960F2 		vmul.i32	q8, q8, q9
 3242 0248 F9FFFF8A 		bhi	.L1248
 3243 024c 090058E1 		cmp	r8, r9
 3244 0250 097087E0 		add	r7, r7, r9
 3245 0254 5020C0F2 		vmov.i32	q9, #0  @ v4si
 3246 0258 E248F0F2 		vext.32	q10, q8, q9, #2
 3247 025c F40960F2 		vmul.i32	q8, q8, q10
 3248 0260 E224F0F2 		vext.32	q9, q8, q9, #1
 3249 0264 F20960F2 		vmul.i32	q8, q8, q9
 3250 0268 901B10EE 		vmov.32	r1, d16[0]
 3251 026c 910202E0 		mul	r2, r1, r2
 3252 0270 0C00000A 		beq	.L1241
 3253              	.L1246:
 3254 0274 07119EE7 		ldr	r1, [lr, r7, lsl #2]
 3255 0278 013087E2 		add	r3, r7, #1
 3256 027c 03005CE1 		cmp	ip, r3
 3257 0280 0731A0E1 		lsl	r3, r7, #2
 3258 0284 910202E0 		mul	r2, r1, r2
 3259 0288 060000DA 		ble	.L1241
 3260 028c 03308EE0 		add	r3, lr, r3
 3261 0290 021087E2 		add	r1, r7, #2
 3262 0294 040093E5 		ldr	r0, [r3, #4]
 3263 0298 01005CE1 		cmp	ip, r1
 3264 029c 900202E0 		mul	r2, r0, r2
 3265 02a0 083093C5 		ldrgt	r3, [r3, #8]
 3266 02a4 930202C0 		mulgt	r2, r3, r2
 3267              	.L1241:
 3268 02a8 48C19DE5 		ldr	ip, [sp, #328]
 3269 02ac 05005CE3 		cmp	ip, #5
 3270 02b0 7F0300DA 		ble	.L1252
 3271 02b4 4C719DE5 		ldr	r7, [sp, #332]
 3272              	.L1253:
 3273 02b8 5731A0E7 		sbfx	r3, r7, #2, #1
 3274 02bc 033003E2 		and	r3, r3, #3
 3275 02c0 0C0053E1 		cmp	r3, ip
 3276 02c4 0C30A021 		movcs	r3, ip
 3277 02c8 08005CE3 		cmp	ip, #8
 3278 02cc 0C30A0D1 		movle	r3, ip
 3279 02d0 8B0500CA 		bgt	.L1793
 3280              	.L1255:
 3281 02d4 010053E3 		cmp	r3, #1
 3282 02d8 00A097E5 		ldr	r10, [r7]
 3283 02dc 7203000A 		beq	.L1435
 3284 02e0 041097E5 		ldr	r1, [r7, #4]
 3285 02e4 020053E3 		cmp	r3, #2
 3286 02e8 910A0AE0 		mul	r10, r1, r10
 3287 02ec 6E03000A 		beq	.L1435
 3288 02f0 081097E5 		ldr	r1, [r7, #8]
 3289 02f4 030053E3 		cmp	r3, #3
 3290 02f8 910A0AE0 		mul	r10, r1, r10
 3291 02fc 6A03000A 		beq	.L1435
 3292 0300 0C1097E5 		ldr	r1, [r7, #12]
 3293 0304 040053E3 		cmp	r3, #4
 3294 0308 910A0AE0 		mul	r10, r1, r10
 3295 030c 6603000A 		beq	.L1435
 3296 0310 101097E5 		ldr	r1, [r7, #16]
 3297 0314 050053E3 		cmp	r3, #5
 3298 0318 910A0AE0 		mul	r10, r1, r10
 3299 031c 6203000A 		beq	.L1435
 3300 0320 141097E5 		ldr	r1, [r7, #20]
 3301 0324 060053E3 		cmp	r3, #6
 3302 0328 910A0AE0 		mul	r10, r1, r10
 3303 032c 5E03000A 		beq	.L1435
 3304 0330 181097E5 		ldr	r1, [r7, #24]
 3305 0334 070053E3 		cmp	r3, #7
 3306 0338 910A0AE0 		mul	r10, r1, r10
 3307 033c 5A03000A 		beq	.L1435
 3308 0340 1C1097E5 		ldr	r1, [r7, #28]
 3309 0344 08E0A0E3 		mov	lr, #8
 3310 0348 910A0AE0 		mul	r10, r1, r10
 3311              	.L1257:
 3312 034c 03005CE1 		cmp	ip, r3
 3313 0350 2800000A 		beq	.L1254
 3314              	.L1256:
 3315 0354 03104CE0 		sub	r1, ip, r3
 3316 0358 01804CE2 		sub	r8, ip, #1
 3317 035c 040041E2 		sub	r0, r1, #4
 3318 0360 038048E0 		sub	r8, r8, r3
 3319 0364 2001A0E1 		lsr	r0, r0, #2
 3320 0368 020058E3 		cmp	r8, #2
 3321 036c 010080E2 		add	r0, r0, #1
 3322 0370 0091A0E1 		lsl	r9, r0, #2
 3323 0374 1200009A 		bls	.L1259
 3324 0378 033187E0 		add	r3, r7, r3, lsl #2
 3325 037c 5100C0F2 		vmov.i32	q8, #1  @ v4si
 3326 0380 0080A0E3 		mov	r8, #0
 3327              	.L1261:
 3328 0384 018088E2 		add	r8, r8, #1
 3329 0388 DF2A63F4 		vld1.64	{d18-d19}, [r3:64]
 3330 038c 080050E1 		cmp	r0, r8
 3331 0390 103083E2 		add	r3, r3, #16
 3332 0394 F20960F2 		vmul.i32	q8, q8, q9
 3333 0398 F9FFFF8A 		bhi	.L1261
 3334 039c 090051E1 		cmp	r1, r9
 3335 03a0 09E08EE0 		add	lr, lr, r9
 3336 03a4 5020C0F2 		vmov.i32	q9, #0  @ v4si
 3337 03a8 E248F0F2 		vext.32	q10, q8, q9, #2
 3338 03ac F40960F2 		vmul.i32	q8, q8, q10
 3339 03b0 E224F0F2 		vext.32	q9, q8, q9, #1
 3340 03b4 F20960F2 		vmul.i32	q8, q8, q9
 3341 03b8 901B10EE 		vmov.32	r1, d16[0]
 3342 03bc 910A0AE0 		mul	r10, r1, r10
 3343 03c0 0C00000A 		beq	.L1254
 3344              	.L1259:
 3345 03c4 0E1197E7 		ldr	r1, [r7, lr, lsl #2]
 3346 03c8 01308EE2 		add	r3, lr, #1
 3347 03cc 03005CE1 		cmp	ip, r3
 3348 03d0 0E31A0E1 		lsl	r3, lr, #2
 3349 03d4 910A0AE0 		mul	r10, r1, r10
 3350 03d8 060000DA 		ble	.L1254
 3351 03dc 033087E0 		add	r3, r7, r3
 3352 03e0 02108EE2 		add	r1, lr, #2
 3353 03e4 040093E5 		ldr	r0, [r3, #4]
 3354 03e8 01005CE1 		cmp	ip, r1
 3355 03ec 900A0AE0 		mul	r10, r0, r10
 3356 03f0 083093C5 		ldrgt	r3, [r3, #8]
 3357 03f4 930A0AC0 		mulgt	r10, r3, r10
 3358              	.L1254:
 3359 03f8 68119DE5 		ldr	r1, [sp, #360]
 3360 03fc 050051E3 		cmp	r1, #5
 3361 0400 300300DA 		ble	.L1265
 3362 0404 6C719DE5 		ldr	r7, [sp, #364]
 3363              	.L1266:
 3364 0408 5731A0E7 		sbfx	r3, r7, #2, #1
 3365 040c 033003E2 		and	r3, r3, #3
 3366 0410 010053E1 		cmp	r3, r1
 3367 0414 0130A021 		movcs	r3, r1
 3368 0418 080051E3 		cmp	r1, #8
 3369 041c 0130A0D1 		movle	r3, r1
 3370 0420 320500CA 		bgt	.L1794
 3371              	.L1268:
 3372 0424 010053E3 		cmp	r3, #1
 3373 0428 00E097E5 		ldr	lr, [r7]
 3374 042c 1A03000A 		beq	.L1445
 3375 0430 040097E5 		ldr	r0, [r7, #4]
 3376 0434 020053E3 		cmp	r3, #2
 3377 0438 900E0EE0 		mul	lr, r0, lr
 3378 043c 1603000A 		beq	.L1445
 3379 0440 080097E5 		ldr	r0, [r7, #8]
 3380 0444 030053E3 		cmp	r3, #3
 3381 0448 900E0EE0 		mul	lr, r0, lr
 3382 044c 1203000A 		beq	.L1445
 3383 0450 0C0097E5 		ldr	r0, [r7, #12]
 3384 0454 040053E3 		cmp	r3, #4
 3385 0458 900E0EE0 		mul	lr, r0, lr
 3386 045c 0E03000A 		beq	.L1445
 3387 0460 100097E5 		ldr	r0, [r7, #16]
 3388 0464 050053E3 		cmp	r3, #5
 3389 0468 900E0EE0 		mul	lr, r0, lr
 3390 046c 0A03000A 		beq	.L1445
 3391 0470 140097E5 		ldr	r0, [r7, #20]
 3392 0474 060053E3 		cmp	r3, #6
 3393 0478 900E0EE0 		mul	lr, r0, lr
 3394 047c 0603000A 		beq	.L1445
 3395 0480 180097E5 		ldr	r0, [r7, #24]
 3396 0484 070053E3 		cmp	r3, #7
 3397 0488 900E0EE0 		mul	lr, r0, lr
 3398 048c 0203000A 		beq	.L1445
 3399 0490 1C0097E5 		ldr	r0, [r7, #28]
 3400 0494 0880A0E3 		mov	r8, #8
 3401 0498 900E0EE0 		mul	lr, r0, lr
 3402              	.L1270:
 3403 049c 030051E1 		cmp	r1, r3
 3404 04a0 2800000A 		beq	.L1267
 3405              	.L1269:
 3406 04a4 039041E0 		sub	r9, r1, r3
 3407 04a8 01B041E2 		sub	fp, r1, #1
 3408 04ac 040049E2 		sub	r0, r9, #4
 3409 04b0 03B04BE0 		sub	fp, fp, r3
 3410 04b4 2001A0E1 		lsr	r0, r0, #2
 3411 04b8 02005BE3 		cmp	fp, #2
 3412 04bc 01C080E2 		add	ip, r0, #1
 3413 04c0 0C01A0E1 		lsl	r0, ip, #2
 3414 04c4 1200009A 		bls	.L1272
 3415 04c8 033187E0 		add	r3, r7, r3, lsl #2
 3416 04cc 5100C0F2 		vmov.i32	q8, #1  @ v4si
 3417 04d0 00B0A0E3 		mov	fp, #0
 3418              	.L1274:
 3419 04d4 01B08BE2 		add	fp, fp, #1
 3420 04d8 DF2A63F4 		vld1.64	{d18-d19}, [r3:64]
 3421 04dc 0B005CE1 		cmp	ip, fp
 3422 04e0 103083E2 		add	r3, r3, #16
 3423 04e4 F20960F2 		vmul.i32	q8, q8, q9
 3424 04e8 F9FFFF8A 		bhi	.L1274
 3425 04ec 090050E1 		cmp	r0, r9
 3426 04f0 008088E0 		add	r8, r8, r0
 3427 04f4 5020C0F2 		vmov.i32	q9, #0  @ v4si
 3428 04f8 E248F0F2 		vext.32	q10, q8, q9, #2
 3429 04fc F40960F2 		vmul.i32	q8, q8, q10
 3430 0500 E224F0F2 		vext.32	q9, q8, q9, #1
 3431 0504 F20960F2 		vmul.i32	q8, q8, q9
 3432 0508 900B10EE 		vmov.32	r0, d16[0]
 3433 050c 900E0EE0 		mul	lr, r0, lr
 3434 0510 0C00000A 		beq	.L1267
 3435              	.L1272:
 3436 0514 080197E7 		ldr	r0, [r7, r8, lsl #2]
 3437 0518 013088E2 		add	r3, r8, #1
 3438 051c 030051E1 		cmp	r1, r3
 3439 0520 0831A0E1 		lsl	r3, r8, #2
 3440 0524 900E0EE0 		mul	lr, r0, lr
 3441 0528 060000DA 		ble	.L1267
 3442 052c 033087E0 		add	r3, r7, r3
 3443 0530 020088E2 		add	r0, r8, #2
 3444 0534 04C093E5 		ldr	ip, [r3, #4]
 3445 0538 000051E1 		cmp	r1, r0
 3446 053c 9C0E0EE0 		mul	lr, ip, lr
 3447 0540 083093C5 		ldrgt	r3, [r3, #8]
 3448 0544 930E0EC0 		mulgt	lr, r3, lr
 3449              	.L1267:
 3450 0548 02005AE1 		cmp	r10, r2
 3451 054c 7009001A 		bne	.L1795
 3452 0550 0A005EE1 		cmp	lr, r10
 3453 0554 6D09001A 		bne	.L1796
 3454 0558 8C319DE5 		ldr	r3, [sp, #396]
 3455 055c FF0073E3 		cmn	r3, #255
 3456 0560 690900BA 		blt	.L1797
 3457 0564 90219DE5 		ldr	r2, [sp, #400]
 3458 0568 FF0072E3 		cmn	r2, #255
 3459 056c 650900BA 		blt	.L1798
 3460 0570 FF0053E3 		cmp	r3, #255
 3461 0574 680900CA 		bgt	.L1799
 3462 0578 FF0052E3 		cmp	r2, #255
 3463 057c 650900CA 		bgt	.L1800
 3464 0580 FF0073E3 		cmn	r3, #255
 3465 0584 6509000A 		beq	.L1801
 3466 0588 FF0072E3 		cmn	r2, #255
 3467 058c 5C09000A 		beq	.L1802
 3468 0590 FF0053E3 		cmp	r3, #255
 3469 0594 6B09000A 		beq	.L1803
 3470 0598 FF0052E3 		cmp	r2, #255
 3471 059c 6809000A 		beq	.L1287
 3472 05a0 00005AE3 		cmp	r10, #0
 3473 05a4 950000DA 		ble	.L1288
 3474 05a8 05C0A0E1 		mov	ip, r5
 3475 05ac 01E044E2 		sub	lr, r4, #1
 3476 05b0 0AA085E0 		add	r10, r5, r10
 3477 05b4 016046E2 		sub	r6, r6, #1
 3478 05b8 EA0BDFED 		vldr.64	d16, .L1879	@ int
 3479 05bc 010000EA 		b	.L1289
 3480              	.L1810:
 3481 05c0 8C319DE5 		ldr	r3, [sp, #396]
 3482 05c4 90219DE5 		ldr	r2, [sp, #400]
 3483              	.L1289:
 3484 05c8 A0519DE5 		ldr	r5, [sp, #416]
 3485 05cc 0140DCE4 		ldrb	r4, [ip], #1	@ zero_extendqisi2
 3486 05d0 A4719DE5 		ldr	r7, [sp, #420]
 3487 05d4 0110FEE5 		ldrb	r1, [lr, #1]!	@ zero_extendqisi2
 3488 05d8 034084E0 		add	r4, r4, r3
 3489 05dc A8019DE5 		ldr	r0, [sp, #424]
 3490 05e0 1445A0E1 		lsl	r4, r4, r5
 3491 05e4 021081E0 		add	r1, r1, r2
 3492 05e8 9427C3E0 		smull	r2, r3, r4, r7
 3493 05ec 070054E1 		cmp	r4, r7
 3494 05f0 02015403 		cmpeq	r4, #-2147483648
 3495 05f4 0170A003 		moveq	r7, #1
 3496 05f8 0070A013 		movne	r7, #0
 3497 05fc 1115A0E1 		lsl	r1, r1, r5
 3498 0600 000052E3 		cmp	r2, #0
 3499 0604 0040D3E2 		sbcs	r4, r3, #0
 3500 0608 0141A0A3 		movge	r4, #1073741824
 3501 060c 0741A0B3 		movlt	r4, #-1073741823
 3502 0610 0050A0A3 		movge	r5, #0
 3503 0614 0050E0B3 		mvnlt	r5, #0
 3504 0618 000057E3 		cmp	r7, #0
 3505 061c 0241E013 		mvnne	r4, #-2147483648
 3506 0620 0800001A 		bne	.L1291
 3507 0624 024094E0 		adds	r4, r4, r2
 3508 0628 0350A5E0 		adc	r5, r5, r3
 3509 062c 0030A0E3 		mov	r3, #0
 3510 0630 C52FA0E1 		asr	r2, r5, #31
 3511 0634 0221C2E3 		bic	r2, r2, #-2147483648
 3512 0638 024094E0 		adds	r4, r4, r2
 3513 063c A44FA0E1 		lsr	r4, r4, #31
 3514 0640 0350A5E0 		adc	r5, r5, r3
 3515 0644 854084E1 		orr	r4, r4, r5, lsl #1
 3516              	.L1291:
 3517 0648 000050E3 		cmp	r0, #0
 3518 064c 003060E2 		rsb	r3, r0, #0
 3519 0650 F20800CA 		bgt	.L1804
 3520 0654 1F0070E3 		cmn	r0, #31
 3521 0658 E80800BA 		blt	.L1805
 3522 065c 903B02EE 		vmov.32	d18[0], r3
 3523 0660 5403A0E1 		asr	r0, r4, r3
 3524 0664 AC519DE5 		ldr	r5, [sp, #428]
 3525 0668 A01472F3 		vshl.u64	d17, d16, d18
 3526 066c B0719DE5 		ldr	r7, [sp, #432]
 3527 0670 050051E1 		cmp	r1, r5
 3528 0674 02015103 		cmpeq	r1, #-2147483648
 3529 0678 318B59EC 		vmov	r8, r9, d17	@ int
 3530 067c 018048E2 		sub	r8, r8, #1
 3531 0680 C830A0E1 		asr	r3, r8, #1
 3532 0684 048008E0 		and	r8, r8, r4
 3533 0688 A44F83E0 		add	r4, r3, r4, lsr #31
 3534 068c 9125C3E0 		smull	r2, r3, r1, r5
 3535 0690 0110A003 		moveq	r1, #1
 3536 0694 0010A013 		movne	r1, #0
 3537 0698 040058E1 		cmp	r8, r4
 3538 069c 010080C2 		addgt	r0, r0, #1
 3539 06a0 000052E3 		cmp	r2, #0
 3540 06a4 0040D3E2 		sbcs	r4, r3, #0
 3541 06a8 0141A0A3 		movge	r4, #1073741824
 3542 06ac 0741A0B3 		movlt	r4, #-1073741823
 3543 06b0 0050A0A3 		movge	r5, #0
 3544 06b4 0050E0B3 		mvnlt	r5, #0
 3545 06b8 000051E3 		cmp	r1, #0
 3546 06bc 0241E013 		mvnne	r4, #-2147483648
 3547 06c0 0800001A 		bne	.L1295
 3548 06c4 024094E0 		adds	r4, r4, r2
 3549 06c8 0350A5E0 		adc	r5, r5, r3
 3550 06cc 0030A0E3 		mov	r3, #0
 3551 06d0 C52FA0E1 		asr	r2, r5, #31
 3552 06d4 0221C2E3 		bic	r2, r2, #-2147483648
 3553 06d8 024094E0 		adds	r4, r4, r2
 3554 06dc A44FA0E1 		lsr	r4, r4, #31
 3555 06e0 0350A5E0 		adc	r5, r5, r3
 3556 06e4 854084E1 		orr	r4, r4, r5, lsl #1
 3557              	.L1295:
 3558 06e8 000057E3 		cmp	r7, #0
 3559 06ec 003067E2 		rsb	r3, r7, #0
 3560 06f0 BA0800CA 		bgt	.L1806
 3561 06f4 1F0077E3 		cmn	r7, #31
 3562 06f8 B00800BA 		blt	.L1807
 3563 06fc 903B02EE 		vmov.32	d18[0], r3
 3564 0700 5413A0E1 		asr	r1, r4, r3
 3565 0704 98719DE5 		ldr	r7, [sp, #408]
 3566 0708 A01472F3 		vshl.u64	d17, d16, d18
 3567 070c 9C519DE5 		ldr	r5, [sp, #412]
 3568 0710 318B59EC 		vmov	r8, r9, d17	@ int
 3569 0714 018048E2 		sub	r8, r8, #1
 3570 0718 C830A0E1 		asr	r3, r8, #1
 3571 071c 048008E0 		and	r8, r8, r4
 3572 0720 A43F83E0 		add	r3, r3, r4, lsr #31
 3573 0724 030058E1 		cmp	r8, r3
 3574 0728 0130A0D1 		movle	r3, r1
 3575 072c 013081C2 		addgt	r3, r1, #1
 3576 0730 000083E0 		add	r0, r3, r0
 3577 0734 9027C3E0 		smull	r2, r3, r0, r7
 3578 0738 070050E1 		cmp	r0, r7
 3579 073c 02015003 		cmpeq	r0, #-2147483648
 3580 0740 0140A003 		moveq	r4, #1
 3581 0744 0040A013 		movne	r4, #0
 3582 0748 000052E3 		cmp	r2, #0
 3583 074c 0010D3E2 		sbcs	r1, r3, #0
 3584 0750 0101A0A3 		movge	r0, #1073741824
 3585 0754 0010A0A3 		movge	r1, #0
 3586 0758 0701A0B3 		movlt	r0, #-1073741823
 3587 075c 0010E0B3 		mvnlt	r1, #0
 3588 0760 000054E3 		cmp	r4, #0
 3589 0764 0221E013 		mvnne	r2, #-2147483648
 3590 0768 0800001A 		bne	.L1299
 3591 076c 020090E0 		adds	r0, r0, r2
 3592 0770 0310A1E0 		adc	r1, r1, r3
 3593 0774 0030A0E3 		mov	r3, #0
 3594 0778 C12FA0E1 		asr	r2, r1, #31
 3595 077c 0221C2E3 		bic	r2, r2, #-2147483648
 3596 0780 002092E0 		adds	r2, r2, r0
 3597 0784 A22FA0E1 		lsr	r2, r2, #31
 3598 0788 0130A3E0 		adc	r3, r3, r1
 3599 078c 832082E1 		orr	r2, r2, r3, lsl #1
 3600              	.L1299:
 3601 0790 000055E3 		cmp	r5, #0
 3602 0794 003065E2 		rsb	r3, r5, #0
 3603 0798 800800CA 		bgt	.L1808
 3604 079c 1F0075E3 		cmn	r5, #31
 3605 07a0 610800BA 		blt	.L1809
 3606 07a4 903B02EE 		vmov.32	d18[0], r3
 3607 07a8 5213A0E1 		asr	r1, r2, r3
 3608 07ac B4019DE5 		ldr	r0, [sp, #436]
 3609 07b0 A01472F3 		vshl.u64	d17, d16, d18
 3610 07b4 314B55EC 		vmov	r4, r5, d17	@ int
 3611 07b8 014044E2 		sub	r4, r4, #1
 3612 07bc 94519DE5 		ldr	r5, [sp, #404]
 3613 07c0 C430A0E1 		asr	r3, r4, #1
 3614 07c4 024004E0 		and	r4, r4, r2
 3615 07c8 A23F83E0 		add	r3, r3, r2, lsr #31
 3616 07cc B8219DE5 		ldr	r2, [sp, #440]
 3617 07d0 030054E1 		cmp	r4, r3
 3618 07d4 0130A0D1 		movle	r3, r1
 3619 07d8 013081C2 		addgt	r3, r1, #1
 3620 07dc 053083E0 		add	r3, r3, r5
 3621 07e0 000053E1 		cmp	r3, r0
 3622 07e4 0030A0B1 		movlt	r3, r0
 3623 07e8 020053E1 		cmp	r3, r2
 3624 07ec 0230A0A1 		movge	r3, r2
 3625 07f0 0A005CE1 		cmp	ip, r10
 3626 07f4 0130E6E5 		strb	r3, [r6, #1]!
 3627 07f8 70FFFF1A 		bne	.L1810
 3628 07fc 68119DE5 		ldr	r1, [sp, #360]
 3629              	.L1288:
 3630 0800 050051E3 		cmp	r1, #5
 3631 0804 030000DA 		ble	.L1303
 3632              	.L1747:
 3633 0808 6C019DE5 		ldr	r0, [sp, #364]
 3634 080c 000050E3 		cmp	r0, #0
 3635 0810 0000000A 		beq	.L1303
 3636 0814 FEFFFFEB 		bl	_ZdaPv
 3637              	.L1303:
 3638 0818 48319DE5 		ldr	r3, [sp, #328]
 3639 081c 050053E3 		cmp	r3, #5
 3640 0820 030000DA 		ble	.L1304
 3641 0824 4C019DE5 		ldr	r0, [sp, #332]
 3642 0828 000050E3 		cmp	r0, #0
 3643 082c 0000000A 		beq	.L1304
 3644 0830 FEFFFFEB 		bl	_ZdaPv
 3645              	.L1304:
 3646 0834 30319DE5 		ldr	r3, [sp, #304]
 3647 0838 050053E3 		cmp	r3, #5
 3648 083c F6FDFFDA 		ble	.L1604
 3649 0840 34019DE5 		ldr	r0, [sp, #308]
 3650 0844 000050E3 		cmp	r0, #0
 3651 0848 F3FDFF0A 		beq	.L1604
 3652              	.L1705:
 3653 084c FEFFFFEB 		bl	_ZdaPv
 3654 0850 F1FDFFEA 		b	.L1604
 3655              	.L1788:
 3656 0854 B8008DE2 		add	r0, sp, #184
 3657              	.LEHB47:
 3658 0858 FEFFFFEB 		bl	_ZN6tflite5micro14GetTensorShapeEPK16TfLiteEvalTensor
 3659              	.LEHE47:
 3660 085c 18329DE5 		ldr	r3, [sp, #536]
 3661 0860 000053E3 		cmp	r3, #0
 3662 0864 DC08000A 		beq	.L1811
 3663 0868 1C129DE5 		ldr	r1, [sp, #540]
 3664 086c D0008DE2 		add	r0, sp, #208
 3665 0870 004093E5 		ldr	r4, [r3]
 3666              	.LEHB48:
 3667 0874 FEFFFFEB 		bl	_ZN6tflite5micro14GetTensorShapeEPK16TfLiteEvalTensor
 3668              	.LEHE48:
 3669 0878 1C329DE5 		ldr	r3, [sp, #540]
 3670 087c 000053E3 		cmp	r3, #0
 3671 0880 D308000A 		beq	.L1812
 3672 0884 0610A0E1 		mov	r1, r6
 3673 0888 E8008DE2 		add	r0, sp, #232
 3674 088c 005093E5 		ldr	r5, [r3]
 3675              	.LEHB49:
 3676 0890 FEFFFFEB 		bl	_ZN6tflite5micro14GetTensorShapeEPK16TfLiteEvalTensor
 3677              	.LEHE49:
 3678 0894 B8209DE5 		ldr	r2, [sp, #184]
 3679 0898 0030A0E3 		mov	r3, #0
 3680 089c 007096E5 		ldr	r7, [r6]
 3681 08a0 18318DE5 		str	r3, [sp, #280]
 3682 08a4 040052E3 		cmp	r2, #4
 3683 08a8 910800CA 		bgt	.L1813
 3684 08ac 040072E2 		rsbs	r0, r2, #4
 3685 08b0 0430A0E3 		mov	r3, #4
 3686 08b4 18318DE5 		str	r3, [sp, #280]
 3687 08b8 0D00000A 		beq	.L1123
 3688 08bc 010050E3 		cmp	r0, #1
 3689 08c0 0130A0E3 		mov	r3, #1
 3690 08c4 1C318DE5 		str	r3, [sp, #284]
 3691 08c8 0900000A 		beq	.L1123
 3692 08cc 020050E3 		cmp	r0, #2
 3693 08d0 20318DE5 		str	r3, [sp, #288]
 3694 08d4 0600000A 		beq	.L1123
 3695 08d8 030050E3 		cmp	r0, #3
 3696 08dc 24318DE5 		str	r3, [sp, #292]
 3697 08e0 0300000A 		beq	.L1123
 3698 08e4 040050E3 		cmp	r0, #4
 3699 08e8 28318DE5 		str	r3, [sp, #296]
 3700 08ec 0000000A 		beq	.L1123
 3701              	.LEHB50:
 3702 08f0 FEFFFFEB 		bl	abort
 3703              	.LEHE50:
 3704              	.L1123:
 3705 08f4 473F8DE2 		add	r3, sp, #284
 3706 08f8 0221A0E1 		lsl	r2, r2, #2
 3707 08fc 000183E0 		add	r0, r3, r0, lsl #2
 3708 0900 BC108DE2 		add	r1, sp, #188
 3709 0904 FEFFFFEB 		bl	memcpy
 3710 0908 D0209DE5 		ldr	r2, [sp, #208]
 3711 090c 0030A0E3 		mov	r3, #0
 3712 0910 30318DE5 		str	r3, [sp, #304]
 3713 0914 040052E3 		cmp	r2, #4
 3714 0918 740800CA 		bgt	.L1814
 3715 091c 040072E2 		rsbs	r0, r2, #4
 3716 0920 0430A0E3 		mov	r3, #4
 3717 0924 30318DE5 		str	r3, [sp, #304]
 3718 0928 1000000A 		beq	.L1130
 3719 092c 010050E3 		cmp	r0, #1
 3720 0930 0130A0E3 		mov	r3, #1
 3721 0934 34318DE5 		str	r3, [sp, #308]
 3722 0938 0C00000A 		beq	.L1130
 3723 093c 020050E3 		cmp	r0, #2
 3724 0940 38318DE5 		str	r3, [sp, #312]
 3725 0944 0900000A 		beq	.L1130
 3726 0948 030050E3 		cmp	r0, #3
 3727 094c 3C318DE5 		str	r3, [sp, #316]
 3728 0950 0600000A 		beq	.L1130
 3729 0954 040050E3 		cmp	r0, #4
 3730 0958 40318DE5 		str	r3, [sp, #320]
 3731 095c 0300000A 		beq	.L1130
 3732              	.LEHB51:
 3733 0960 FEFFFFEB 		bl	abort
 3734              	.LEHE51:
 3735              	.L1880:
 3736 0964 00F020E3 		.align	3
 3737              	.L1879:
 3738 0968 01000000 		.word	1
 3739 096c 00000000 		.word	0
 3740              	.L1130:
 3741 0970 4D3F8DE2 		add	r3, sp, #308
 3742 0974 0221A0E1 		lsl	r2, r2, #2
 3743 0978 000183E0 		add	r0, r3, r0, lsl #2
 3744 097c D4108DE2 		add	r1, sp, #212
 3745 0980 FEFFFFEB 		bl	memcpy
 3746 0984 18619DE5 		ldr	r6, [sp, #280]
 3747 0988 1C319DE5 		ldr	r3, [sp, #284]
 3748 098c 050056E3 		cmp	r6, #5
 3749 0990 2A0200CA 		bgt	.L1815
 3750 0994 030056E3 		cmp	r6, #3
 3751 0998 580800DA 		ble	.L1132
 3752 099c 28119DE5 		ldr	r1, [sp, #296]
 3753 09a0 01E0A0E3 		mov	lr, #1
 3754 09a4 24C19DE5 		ldr	ip, [sp, #292]
 3755 09a8 20219DE5 		ldr	r2, [sp, #288]
 3756 09ac 48318DE5 		str	r3, [sp, #328]
 3757 09b0 54118DE5 		str	r1, [sp, #340]
 3758 09b4 9C0100E0 		mul	r0, ip, r1
 3759 09b8 4C218DE5 		str	r2, [sp, #332]
 3760 09bc 60118DE5 		str	r1, [sp, #352]
 3761 09c0 50C18DE5 		str	ip, [sp, #336]
 3762 09c4 64E18DE5 		str	lr, [sp, #356]
 3763 09c8 920002E0 		mul	r2, r2, r0
 3764 09cc 5C018DE5 		str	r0, [sp, #348]
 3765 09d0 58218DE5 		str	r2, [sp, #344]
 3766              	.L1133:
 3767 09d4 30819DE5 		ldr	r8, [sp, #304]
 3768 09d8 34019DE5 		ldr	r0, [sp, #308]
 3769 09dc 050058E3 		cmp	r8, #5
 3770 09e0 C20100CA 		bgt	.L1134
 3771 09e4 030058E3 		cmp	r8, #3
 3772 09e8 430800DA 		ble	.L1135
 3773 09ec 40219DE5 		ldr	r2, [sp, #320]
 3774 09f0 0190A0E3 		mov	r9, #1
 3775 09f4 3C119DE5 		ldr	r1, [sp, #316]
 3776 09f8 050056E3 		cmp	r6, #5
 3777 09fc 38C19DE5 		ldr	ip, [sp, #312]
 3778 0a00 84918DE5 		str	r9, [sp, #388]
 3779 0a04 68018DE5 		str	r0, [sp, #360]
 3780 0a08 91020EE0 		mul	lr, r1, r2
 3781 0a0c 74218DE5 		str	r2, [sp, #372]
 3782 0a10 80218DE5 		str	r2, [sp, #384]
 3783 0a14 70118DE5 		str	r1, [sp, #368]
 3784 0a18 6CC18DE5 		str	ip, [sp, #364]
 3785 0a1c 9C0E09E0 		mul	r9, ip, lr
 3786 0a20 7CE18DE5 		str	lr, [sp, #380]
 3787 0a24 78918DE5 		str	r9, [sp, #376]
 3788 0a28 C90300CA 		bgt	.L1816
 3789 0a2c 000056E3 		cmp	r6, #0
 3790 0a30 450800DA 		ble	.L1140
 3791 0a34 000053E1 		cmp	r3, r0
 3792 0a38 0600000A 		beq	.L1141
 3793 0a3c 010053E3 		cmp	r3, #1
 3794 0a40 7706000A 		beq	.L1142
 3795 0a44 010050E3 		cmp	r0, #1
 3796 0a48 1C08001A 		bne	.L1143
 3797 0a4c 0000A0E3 		mov	r0, #0
 3798 0a50 68318DE5 		str	r3, [sp, #360]
 3799 0a54 78018DE5 		str	r0, [sp, #376]
 3800              	.L1141:
 3801 0a58 010056E3 		cmp	r6, #1
 3802 0a5c 3A08000A 		beq	.L1140
 3803 0a60 20319DE5 		ldr	r3, [sp, #288]
 3804 0a64 03005CE1 		cmp	ip, r3
 3805 0a68 0600000A 		beq	.L1145
 3806 0a6c 010053E3 		cmp	r3, #1
 3807 0a70 7306000A 		beq	.L1144
 3808 0a74 01005CE3 		cmp	ip, #1
 3809 0a78 1008001A 		bne	.L1143
 3810 0a7c 0000A0E3 		mov	r0, #0
 3811 0a80 6C318DE5 		str	r3, [sp, #364]
 3812 0a84 7C018DE5 		str	r0, [sp, #380]
 3813              	.L1145:
 3814 0a88 020056E3 		cmp	r6, #2
 3815 0a8c 2E08000A 		beq	.L1140
 3816 0a90 24319DE5 		ldr	r3, [sp, #292]
 3817 0a94 030051E1 		cmp	r1, r3
 3818 0a98 0600000A 		beq	.L1147
 3819 0a9c 010053E3 		cmp	r3, #1
 3820 0aa0 6306000A 		beq	.L1146
 3821 0aa4 010051E3 		cmp	r1, #1
 3822 0aa8 0408001A 		bne	.L1143
 3823 0aac 0010A0E3 		mov	r1, #0
 3824 0ab0 70318DE5 		str	r3, [sp, #368]
 3825 0ab4 80118DE5 		str	r1, [sp, #384]
 3826              	.L1147:
 3827 0ab8 030056E3 		cmp	r6, #3
 3828 0abc 2208000A 		beq	.L1140
 3829 0ac0 28319DE5 		ldr	r3, [sp, #296]
 3830 0ac4 030052E1 		cmp	r2, r3
 3831 0ac8 0600000A 		beq	.L1338
 3832              	.L1718:
 3833 0acc 010053E3 		cmp	r3, #1
 3834 0ad0 EB05000A 		beq	.L1158
 3835 0ad4 010052E3 		cmp	r2, #1
 3836 0ad8 F807001A 		bne	.L1143
 3837 0adc 0020A0E3 		mov	r2, #0
 3838 0ae0 74318DE5 		str	r3, [sp, #372]
 3839 0ae4 84218DE5 		str	r2, [sp, #388]
 3840              	.L1338:
 3841 0ae8 050056E3 		cmp	r6, #5
 3842 0aec 030000DA 		ble	.L1178
 3843 0af0 1C019DE5 		ldr	r0, [sp, #284]
 3844 0af4 000050E3 		cmp	r0, #0
 3845 0af8 0000000A 		beq	.L1178
 3846 0afc FEFFFFEB 		bl	_ZdaPv
 3847              	.L1178:
 3848 0b00 E8209DE5 		ldr	r2, [sp, #232]
 3849 0b04 0030A0E3 		mov	r3, #0
 3850 0b08 00318DE5 		str	r3, [sp, #256]
 3851 0b0c 040052E3 		cmp	r2, #4
 3852 0b10 110800CA 		bgt	.L1817
 3853 0b14 040072E2 		rsbs	r0, r2, #4
 3854 0b18 0430A0E3 		mov	r3, #4
 3855 0b1c 00318DE5 		str	r3, [sp, #256]
 3856 0b20 1C02000A 		beq	.L1190
 3857 0b24 010050E3 		cmp	r0, #1
 3858 0b28 0130A0E3 		mov	r3, #1
 3859 0b2c 04318DE5 		str	r3, [sp, #260]
 3860 0b30 1802000A 		beq	.L1190
 3861 0b34 020050E3 		cmp	r0, #2
 3862 0b38 08318DE5 		str	r3, [sp, #264]
 3863 0b3c 1502000A 		beq	.L1190
 3864 0b40 030050E3 		cmp	r0, #3
 3865 0b44 0C318DE5 		str	r3, [sp, #268]
 3866 0b48 1202000A 		beq	.L1190
 3867 0b4c 040050E3 		cmp	r0, #4
 3868 0b50 10318DE5 		str	r3, [sp, #272]
 3869 0b54 0F02000A 		beq	.L1190
 3870              	.LEHB52:
 3871 0b58 FEFFFFEB 		bl	abort
 3872              	.LEHE52:
 3873              	.L1787:
 3874 0b5c 000054E3 		cmp	r4, #0
 3875 0b60 A603001A 		bne	.L1818
 3876 0b64 18329DE5 		ldr	r3, [sp, #536]
 3877 0b68 000053E3 		cmp	r3, #0
 3878 0b6c F707000A 		beq	.L1071
 3879 0b70 1C329DE5 		ldr	r3, [sp, #540]
 3880 0b74 000053E3 		cmp	r3, #0
 3881 0b78 18329DE5 		ldr	r3, [sp, #536]
 3882 0b7c 003093E5 		ldr	r3, [r3]
 3883 0b80 54308DE5 		str	r3, [sp, #84]
 3884 0b84 F107000A 		beq	.L1071
 3885 0b88 1C329DE5 		ldr	r3, [sp, #540]
 3886 0b8c 130E8DE2 		add	r0, sp, #304
 3887 0b90 18129DE5 		ldr	r1, [sp, #536]
 3888 0b94 8C519DE5 		ldr	r5, [sp, #396]
 3889 0b98 004093E5 		ldr	r4, [r3]
 3890 0b9c 90319DE5 		ldr	r3, [sp, #400]
 3891 0ba0 A4719DE5 		ldr	r7, [sp, #420]
 3892 0ba4 A8B19DE5 		ldr	fp, [sp, #424]
 3893 0ba8 30308DE5 		str	r3, [sp, #48]
 3894 0bac AC319DE5 		ldr	r3, [sp, #428]
 3895 0bb0 34308DE5 		str	r3, [sp, #52]
 3896 0bb4 B0319DE5 		ldr	r3, [sp, #432]
 3897 0bb8 38308DE5 		str	r3, [sp, #56]
 3898 0bbc A0319DE5 		ldr	r3, [sp, #416]
 3899 0bc0 3C308DE5 		str	r3, [sp, #60]
 3900 0bc4 003096E5 		ldr	r3, [r6]
 3901 0bc8 58308DE5 		str	r3, [sp, #88]
 3902 0bcc 94319DE5 		ldr	r3, [sp, #404]
 3903 0bd0 40308DE5 		str	r3, [sp, #64]
 3904 0bd4 98319DE5 		ldr	r3, [sp, #408]
 3905 0bd8 44308DE5 		str	r3, [sp, #68]
 3906 0bdc 9C319DE5 		ldr	r3, [sp, #412]
 3907 0be0 48308DE5 		str	r3, [sp, #72]
 3908 0be4 B4319DE5 		ldr	r3, [sp, #436]
 3909 0be8 4C308DE5 		str	r3, [sp, #76]
 3910 0bec B8319DE5 		ldr	r3, [sp, #440]
 3911 0bf0 50308DE5 		str	r3, [sp, #80]
 3912              	.LEHB53:
 3913 0bf4 FEFFFFEB 		bl	_ZN6tflite5micro14GetTensorShapeEPK16TfLiteEvalTensor
 3914              	.LEHE53:
 3915 0bf8 1C129DE5 		ldr	r1, [sp, #540]
 3916 0bfc 520F8DE2 		add	r0, sp, #328
 3917              	.LEHB54:
 3918 0c00 FEFFFFEB 		bl	_ZN6tflite5micro14GetTensorShapeEPK16TfLiteEvalTensor
 3919              	.LEHE54:
 3920 0c04 0610A0E1 		mov	r1, r6
 3921 0c08 5A0F8DE2 		add	r0, sp, #360
 3922              	.LEHB55:
 3923 0c0c FEFFFFEB 		bl	_ZN6tflite5micro14GetTensorShapeEPK16TfLiteEvalTensor
 3924              	.LEHE55:
 3925 0c10 30019DE5 		ldr	r0, [sp, #304]
 3926 0c14 050050E3 		cmp	r0, #5
 3927 0c18 B60100CA 		bgt	.L1819
 3928 0c1c 000050E3 		cmp	r0, #0
 3929 0c20 0110A0D3 		movle	r1, #1
 3930 0c24 500000DA 		ble	.L1074
 3931 0c28 4D2F8DE2 		add	r2, sp, #308
 3932              	.L1073:
 3933 0c2c 5231A0E7 		sbfx	r3, r2, #2, #1
 3934 0c30 033003E2 		and	r3, r3, #3
 3935 0c34 000053E1 		cmp	r3, r0
 3936 0c38 0030A021 		movcs	r3, r0
 3937 0c3c 080050E3 		cmp	r0, #8
 3938 0c40 0030A0D1 		movle	r3, r0
 3939 0c44 7F0500CA 		bgt	.L1820
 3940              	.L1075:
 3941 0c48 010053E3 		cmp	r3, #1
 3942 0c4c 001092E5 		ldr	r1, [r2]
 3943 0c50 2403000A 		beq	.L1384
 3944 0c54 04C092E5 		ldr	ip, [r2, #4]
 3945 0c58 020053E3 		cmp	r3, #2
 3946 0c5c 9C0101E0 		mul	r1, ip, r1
 3947 0c60 2003000A 		beq	.L1384
 3948 0c64 08C092E5 		ldr	ip, [r2, #8]
 3949 0c68 030053E3 		cmp	r3, #3
 3950 0c6c 9C0101E0 		mul	r1, ip, r1
 3951 0c70 1C03000A 		beq	.L1384
 3952 0c74 0CC092E5 		ldr	ip, [r2, #12]
 3953 0c78 040053E3 		cmp	r3, #4
 3954 0c7c 9C0101E0 		mul	r1, ip, r1
 3955 0c80 1803000A 		beq	.L1384
 3956 0c84 10C092E5 		ldr	ip, [r2, #16]
 3957 0c88 050053E3 		cmp	r3, #5
 3958 0c8c 9C0101E0 		mul	r1, ip, r1
 3959 0c90 1403000A 		beq	.L1384
 3960 0c94 14C092E5 		ldr	ip, [r2, #20]
 3961 0c98 060053E3 		cmp	r3, #6
 3962 0c9c 9C0101E0 		mul	r1, ip, r1
 3963 0ca0 1003000A 		beq	.L1384
 3964 0ca4 18C092E5 		ldr	ip, [r2, #24]
 3965 0ca8 070053E3 		cmp	r3, #7
 3966 0cac 9C0101E0 		mul	r1, ip, r1
 3967 0cb0 0C03000A 		beq	.L1384
 3968 0cb4 1CE092E5 		ldr	lr, [r2, #28]
 3969 0cb8 08C0A0E3 		mov	ip, #8
 3970 0cbc 9E0101E0 		mul	r1, lr, r1
 3971              	.L1077:
 3972 0cc0 030050E1 		cmp	r0, r3
 3973 0cc4 2800000A 		beq	.L1074
 3974              	.L1076:
 3975 0cc8 038040E0 		sub	r8, r0, r3
 3976 0ccc 016040E2 		sub	r6, r0, #1
 3977 0cd0 04E048E2 		sub	lr, r8, #4
 3978 0cd4 036046E0 		sub	r6, r6, r3
 3979 0cd8 2EE1A0E1 		lsr	lr, lr, #2
 3980 0cdc 020056E3 		cmp	r6, #2
 3981 0ce0 01E08EE2 		add	lr, lr, #1
 3982 0ce4 0E91A0E1 		lsl	r9, lr, #2
 3983 0ce8 1200009A 		bls	.L1079
 3984 0cec 033182E0 		add	r3, r2, r3, lsl #2
 3985 0cf0 5120C0F2 		vmov.i32	q9, #1  @ v4si
 3986 0cf4 0060A0E3 		mov	r6, #0
 3987              	.L1081:
 3988 0cf8 016086E2 		add	r6, r6, #1
 3989 0cfc DF0A63F4 		vld1.64	{d16-d17}, [r3:64]
 3990 0d00 06005EE1 		cmp	lr, r6
 3991 0d04 103083E2 		add	r3, r3, #16
 3992 0d08 F02962F2 		vmul.i32	q9, q9, q8
 3993 0d0c F9FFFF8A 		bhi	.L1081
 3994 0d10 080059E1 		cmp	r9, r8
 3995 0d14 09C08CE0 		add	ip, ip, r9
 3996 0d18 5000C0F2 		vmov.i32	q8, #0  @ v4si
 3997 0d1c E048F2F2 		vext.32	q10, q9, q8, #2
 3998 0d20 F22964F2 		vmul.i32	q9, q10, q9
 3999 0d24 E004F2F2 		vext.32	q8, q9, q8, #1
 4000 0d28 F20960F2 		vmul.i32	q8, q8, q9
 4001 0d2c 903B10EE 		vmov.32	r3, d16[0]
 4002 0d30 930101E0 		mul	r1, r3, r1
 4003 0d34 0C00000A 		beq	.L1074
 4004              	.L1079:
 4005 0d38 0CE192E7 		ldr	lr, [r2, ip, lsl #2]
 4006 0d3c 01308CE2 		add	r3, ip, #1
 4007 0d40 030050E1 		cmp	r0, r3
 4008 0d44 0C31A0E1 		lsl	r3, ip, #2
 4009 0d48 9E0101E0 		mul	r1, lr, r1
 4010 0d4c 060000DA 		ble	.L1074
 4011 0d50 032082E0 		add	r2, r2, r3
 4012 0d54 02C08CE2 		add	ip, ip, #2
 4013 0d58 043092E5 		ldr	r3, [r2, #4]
 4014 0d5c 0C0050E1 		cmp	r0, ip
 4015 0d60 930101E0 		mul	r1, r3, r1
 4016 0d64 083092C5 		ldrgt	r3, [r2, #8]
 4017 0d68 930101C0 		mulgt	r1, r3, r1
 4018              	.L1074:
 4019 0d6c 48219DE5 		ldr	r2, [sp, #328]
 4020 0d70 050052E3 		cmp	r2, #5
 4021 0d74 EC0200DA 		ble	.L1085
 4022 0d78 4CC19DE5 		ldr	ip, [sp, #332]
 4023              	.L1086:
 4024 0d7c 5C31A0E7 		sbfx	r3, ip, #2, #1
 4025 0d80 033003E2 		and	r3, r3, #3
 4026 0d84 020053E1 		cmp	r3, r2
 4027 0d88 0230A021 		movcs	r3, r2
 4028 0d8c 080052E3 		cmp	r2, #8
 4029 0d90 0230A0D1 		movle	r3, r2
 4030 0d94 300500CA 		bgt	.L1821
 4031              	.L1088:
 4032 0d98 010053E3 		cmp	r3, #1
 4033 0d9c 00009CE5 		ldr	r0, [ip]
 4034 0da0 CE02000A 		beq	.L1394
 4035 0da4 04E09CE5 		ldr	lr, [ip, #4]
 4036 0da8 020053E3 		cmp	r3, #2
 4037 0dac 9E0000E0 		mul	r0, lr, r0
 4038 0db0 CA02000A 		beq	.L1394
 4039 0db4 08E09CE5 		ldr	lr, [ip, #8]
 4040 0db8 030053E3 		cmp	r3, #3
 4041 0dbc 9E0000E0 		mul	r0, lr, r0
 4042 0dc0 C602000A 		beq	.L1394
 4043 0dc4 0CE09CE5 		ldr	lr, [ip, #12]
 4044 0dc8 040053E3 		cmp	r3, #4
 4045 0dcc 9E0000E0 		mul	r0, lr, r0
 4046 0dd0 C202000A 		beq	.L1394
 4047 0dd4 10E09CE5 		ldr	lr, [ip, #16]
 4048 0dd8 050053E3 		cmp	r3, #5
 4049 0ddc 9E0000E0 		mul	r0, lr, r0
 4050 0de0 BE02000A 		beq	.L1394
 4051 0de4 14E09CE5 		ldr	lr, [ip, #20]
 4052 0de8 060053E3 		cmp	r3, #6
 4053 0dec 9E0000E0 		mul	r0, lr, r0
 4054 0df0 BA02000A 		beq	.L1394
 4055 0df4 18E09CE5 		ldr	lr, [ip, #24]
 4056 0df8 070053E3 		cmp	r3, #7
 4057 0dfc 9E0000E0 		mul	r0, lr, r0
 4058 0e00 B602000A 		beq	.L1394
 4059 0e04 1C609CE5 		ldr	r6, [ip, #28]
 4060 0e08 08E0A0E3 		mov	lr, #8
 4061 0e0c 960000E0 		mul	r0, r6, r0
 4062              	.L1090:
 4063 0e10 030052E1 		cmp	r2, r3
 4064 0e14 2800000A 		beq	.L1087
 4065              	.L1089:
 4066 0e18 039042E0 		sub	r9, r2, r3
 4067 0e1c 018042E2 		sub	r8, r2, #1
 4068 0e20 046049E2 		sub	r6, r9, #4
 4069 0e24 038048E0 		sub	r8, r8, r3
 4070 0e28 2661A0E1 		lsr	r6, r6, #2
 4071 0e2c 020058E3 		cmp	r8, #2
 4072 0e30 016086E2 		add	r6, r6, #1
 4073 0e34 06A1A0E1 		lsl	r10, r6, #2
 4074 0e38 1200009A 		bls	.L1092
 4075 0e3c 03318CE0 		add	r3, ip, r3, lsl #2
 4076 0e40 5120C0F2 		vmov.i32	q9, #1  @ v4si
 4077 0e44 0080A0E3 		mov	r8, #0
 4078              	.L1094:
 4079 0e48 018088E2 		add	r8, r8, #1
 4080 0e4c DF0A63F4 		vld1.64	{d16-d17}, [r3:64]
 4081 0e50 080056E1 		cmp	r6, r8
 4082 0e54 103083E2 		add	r3, r3, #16
 4083 0e58 F02962F2 		vmul.i32	q9, q9, q8
 4084 0e5c F9FFFF8A 		bhi	.L1094
 4085 0e60 09005AE1 		cmp	r10, r9
 4086 0e64 0AE08EE0 		add	lr, lr, r10
 4087 0e68 5000C0F2 		vmov.i32	q8, #0  @ v4si
 4088 0e6c E048F2F2 		vext.32	q10, q9, q8, #2
 4089 0e70 F22964F2 		vmul.i32	q9, q10, q9
 4090 0e74 E004F2F2 		vext.32	q8, q9, q8, #1
 4091 0e78 F20960F2 		vmul.i32	q8, q8, q9
 4092 0e7c 903B10EE 		vmov.32	r3, d16[0]
 4093 0e80 930000E0 		mul	r0, r3, r0
 4094 0e84 0C00000A 		beq	.L1087
 4095              	.L1092:
 4096 0e88 0E619CE7 		ldr	r6, [ip, lr, lsl #2]
 4097 0e8c 01308EE2 		add	r3, lr, #1
 4098 0e90 030052E1 		cmp	r2, r3
 4099 0e94 0E31A0E1 		lsl	r3, lr, #2
 4100 0e98 960000E0 		mul	r0, r6, r0
 4101 0e9c 060000DA 		ble	.L1087
 4102 0ea0 03308CE0 		add	r3, ip, r3
 4103 0ea4 02E08EE2 		add	lr, lr, #2
 4104 0ea8 04C093E5 		ldr	ip, [r3, #4]
 4105 0eac 0E0052E1 		cmp	r2, lr
 4106 0eb0 9C0000E0 		mul	r0, ip, r0
 4107 0eb4 083093C5 		ldrgt	r3, [r3, #8]
 4108 0eb8 930000C0 		mulgt	r0, r3, r0
 4109              	.L1087:
 4110 0ebc 68C19DE5 		ldr	ip, [sp, #360]
 4111 0ec0 05005CE3 		cmp	ip, #5
 4112 0ec4 9D0200DA 		ble	.L1098
 4113 0ec8 6CE19DE5 		ldr	lr, [sp, #364]
 4114              	.L1099:
 4115 0ecc 5E31A0E7 		sbfx	r3, lr, #2, #1
 4116 0ed0 033003E2 		and	r3, r3, #3
 4117 0ed4 0C0053E1 		cmp	r3, ip
 4118 0ed8 0C30A021 		movcs	r3, ip
 4119 0edc 08005CE3 		cmp	ip, #8
 4120 0ee0 0C30A0D1 		movle	r3, ip
 4121 0ee4 E10400CA 		bgt	.L1822
 4122              	.L1101:
 4123 0ee8 010053E3 		cmp	r3, #1
 4124 0eec 00209EE5 		ldr	r2, [lr]
 4125 0ef0 7802000A 		beq	.L1404
 4126 0ef4 04609EE5 		ldr	r6, [lr, #4]
 4127 0ef8 020053E3 		cmp	r3, #2
 4128 0efc 960202E0 		mul	r2, r6, r2
 4129 0f00 7402000A 		beq	.L1404
 4130 0f04 08609EE5 		ldr	r6, [lr, #8]
 4131 0f08 030053E3 		cmp	r3, #3
 4132 0f0c 960202E0 		mul	r2, r6, r2
 4133 0f10 7002000A 		beq	.L1404
 4134 0f14 0C609EE5 		ldr	r6, [lr, #12]
 4135 0f18 040053E3 		cmp	r3, #4
 4136 0f1c 960202E0 		mul	r2, r6, r2
 4137 0f20 6C02000A 		beq	.L1404
 4138 0f24 10609EE5 		ldr	r6, [lr, #16]
 4139 0f28 050053E3 		cmp	r3, #5
 4140 0f2c 960202E0 		mul	r2, r6, r2
 4141 0f30 6802000A 		beq	.L1404
 4142 0f34 14609EE5 		ldr	r6, [lr, #20]
 4143 0f38 060053E3 		cmp	r3, #6
 4144 0f3c 960202E0 		mul	r2, r6, r2
 4145 0f40 6402000A 		beq	.L1404
 4146 0f44 18609EE5 		ldr	r6, [lr, #24]
 4147 0f48 070053E3 		cmp	r3, #7
 4148 0f4c 960202E0 		mul	r2, r6, r2
 4149 0f50 6002000A 		beq	.L1404
 4150 0f54 1C809EE5 		ldr	r8, [lr, #28]
 4151 0f58 0860A0E3 		mov	r6, #8
 4152 0f5c 980202E0 		mul	r2, r8, r2
 4153              	.L1103:
 4154 0f60 03005CE1 		cmp	ip, r3
 4155 0f64 2A00000A 		beq	.L1100
 4156              	.L1102:
 4157 0f68 03A04CE0 		sub	r10, ip, r3
 4158 0f6c 01904CE2 		sub	r9, ip, #1
 4159 0f70 04804AE2 		sub	r8, r10, #4
 4160 0f74 039049E0 		sub	r9, r9, r3
 4161 0f78 2881A0E1 		lsr	r8, r8, #2
 4162 0f7c 020059E3 		cmp	r9, #2
 4163 0f80 018088E2 		add	r8, r8, #1
 4164 0f84 0891A0E1 		lsl	r9, r8, #2
 4165 0f88 5C908DE5 		str	r9, [sp, #92]
 4166 0f8c 1300009A 		bls	.L1105
 4167 0f90 03318EE0 		add	r3, lr, r3, lsl #2
 4168 0f94 5100C0F2 		vmov.i32	q8, #1  @ v4si
 4169 0f98 0090A0E3 		mov	r9, #0
 4170              	.L1107:
 4171 0f9c 019089E2 		add	r9, r9, #1
 4172 0fa0 DF2A63F4 		vld1.64	{d18-d19}, [r3:64]
 4173 0fa4 090058E1 		cmp	r8, r9
 4174 0fa8 103083E2 		add	r3, r3, #16
 4175 0fac F20960F2 		vmul.i32	q8, q8, q9
 4176 0fb0 F9FFFF8A 		bhi	.L1107
 4177 0fb4 5C309DE5 		ldr	r3, [sp, #92]
 4178 0fb8 5020C0F2 		vmov.i32	q9, #0  @ v4si
 4179 0fbc 0A0053E1 		cmp	r3, r10
 4180 0fc0 036086E0 		add	r6, r6, r3
 4181 0fc4 E248F0F2 		vext.32	q10, q8, q9, #2
 4182 0fc8 F04964F2 		vmul.i32	q10, q10, q8
 4183 0fcc E204F4F2 		vext.32	q8, q10, q9, #1
 4184 0fd0 F40960F2 		vmul.i32	q8, q8, q10
 4185 0fd4 903B10EE 		vmov.32	r3, d16[0]
 4186 0fd8 930202E0 		mul	r2, r3, r2
 4187 0fdc 0C00000A 		beq	.L1100
 4188              	.L1105:
 4189 0fe0 06819EE7 		ldr	r8, [lr, r6, lsl #2]
 4190 0fe4 013086E2 		add	r3, r6, #1
 4191 0fe8 03005CE1 		cmp	ip, r3
 4192 0fec 0631A0E1 		lsl	r3, r6, #2
 4193 0ff0 980202E0 		mul	r2, r8, r2
 4194 0ff4 060000DA 		ble	.L1100
 4195 0ff8 03E08EE0 		add	lr, lr, r3
 4196 0ffc 026086E2 		add	r6, r6, #2
 4197 1000 04309EE5 		ldr	r3, [lr, #4]
 4198 1004 06005CE1 		cmp	ip, r6
 4199 1008 930202E0 		mul	r2, r3, r2
 4200 100c 08309EC5 		ldrgt	r3, [lr, #8]
 4201 1010 930202C0 		mulgt	r2, r3, r2
 4202              	.L1100:
 4203 1014 000051E1 		cmp	r1, r0
 4204 1018 A506001A 		bne	.L1823
 4205 101c 010052E1 		cmp	r2, r1
 4206 1020 A206001A 		bne	.L1824
 4207 1024 44C09DE5 		ldr	ip, [sp, #68]
 4208 1028 0730A0E1 		mov	r3, r7
 4209 102c 4C109DE5 		ldr	r1, [sp, #76]
 4210 1030 48009DE5 		ldr	r0, [sp, #72]
 4211 1034 1CC08DE5 		str	ip, [sp, #28]
 4212 1038 40C09DE5 		ldr	ip, [sp, #64]
 4213 103c 2C208DE5 		str	r2, [sp, #44]
 4214 1040 50209DE5 		ldr	r2, [sp, #80]
 4215 1044 18C08DE5 		str	ip, [sp, #24]
 4216 1048 58C09DE5 		ldr	ip, [sp, #88]
 4217 104c 28208DE5 		str	r2, [sp, #40]
 4218 1050 0520A0E1 		mov	r2, r5
 4219 1054 24108DE5 		str	r1, [sp, #36]
 4220 1058 0410A0E1 		mov	r1, r4
 4221 105c 14C08DE5 		str	ip, [sp, #20]
 4222 1060 3CC09DE5 		ldr	ip, [sp, #60]
 4223 1064 20008DE5 		str	r0, [sp, #32]
 4224 1068 54009DE5 		ldr	r0, [sp, #84]
 4225 106c 10C08DE5 		str	ip, [sp, #16]
 4226 1070 38C09DE5 		ldr	ip, [sp, #56]
 4227 1074 0CC08DE5 		str	ip, [sp, #12]
 4228 1078 34C09DE5 		ldr	ip, [sp, #52]
 4229 107c 08C08DE5 		str	ip, [sp, #8]
 4230 1080 30C09DE5 		ldr	ip, [sp, #48]
 4231 1084 00188DE8 		stm	sp, {fp, ip}
 4232              	.LEHB56:
 4233 1088 FEFFFFEB 		bl	arm_elementwise_add_s8
 4234              	.LEHE56:
 4235 108c 68319DE5 		ldr	r3, [sp, #360]
 4236 1090 050053E3 		cmp	r3, #5
 4237 1094 DFFDFFDA 		ble	.L1303
 4238 1098 DAFDFFEA 		b	.L1747
 4239              	.L1445:
 4240 109c 0380A0E1 		mov	r8, r3
 4241 10a0 FDFCFFEA 		b	.L1270
 4242              	.L1425:
 4243 10a4 0370A0E1 		mov	r7, r3
 4244 10a8 53FCFFEA 		b	.L1244
 4245              	.L1435:
 4246 10ac 03E0A0E1 		mov	lr, r3
 4247 10b0 A5FCFFEA 		b	.L1257
 4248              	.L1252:
 4249 10b4 00005CE3 		cmp	ip, #0
 4250 10b8 01A0A0D3 		movle	r10, #1
 4251 10bc CDFCFFDA 		ble	.L1254
 4252 10c0 537F8DE2 		add	r7, sp, #332
 4253 10c4 7BFCFFEA 		b	.L1253
 4254              	.L1265:
 4255 10c8 000051E3 		cmp	r1, #0
 4256 10cc 01E0A0D3 		movle	lr, #1
 4257 10d0 1CFDFFDA 		ble	.L1267
 4258 10d4 5B7F8DE2 		add	r7, sp, #364
 4259 10d8 CAFCFFEA 		b	.L1266
 4260              	.L1239:
 4261 10dc 00005CE3 		cmp	ip, #0
 4262 10e0 0120A0D3 		movle	r2, #1
 4263 10e4 6FFCFFDA 		ble	.L1241
 4264 10e8 4DEF8DE2 		add	lr, sp, #308
 4265 10ec 1DFCFFEA 		b	.L1240
 4266              	.L1134:
 4267 10f0 08C090E5 		ldr	ip, [r0, #8]
 4268 10f4 050056E3 		cmp	r6, #5
 4269 10f8 0C2090E5 		ldr	r2, [r0, #12]
 4270 10fc 01E0A0E3 		mov	lr, #1
 4271 1100 041090E5 		ldr	r1, [r0, #4]
 4272 1104 70C18DE5 		str	ip, [sp, #368]
 4273 1108 74218DE5 		str	r2, [sp, #372]
 4274 110c 80218DE5 		str	r2, [sp, #384]
 4275 1110 9C0202E0 		mul	r2, ip, r2
 4276 1114 00C090E5 		ldr	ip, [r0]
 4277 1118 6C118DE5 		str	r1, [sp, #364]
 4278 111c 84E18DE5 		str	lr, [sp, #388]
 4279 1120 910201E0 		mul	r1, r1, r2
 4280 1124 7C218DE5 		str	r2, [sp, #380]
 4281 1128 68C18DE5 		str	ip, [sp, #360]
 4282 112c 78118DE5 		str	r1, [sp, #376]
 4283 1130 720000CA 		bgt	.L1825
 4284 1134 000056E3 		cmp	r6, #0
 4285 1138 830600DA 		ble	.L1140
 4286 113c 002090E5 		ldr	r2, [r0]
 4287 1140 020053E1 		cmp	r3, r2
 4288 1144 0900000A 		beq	.L1159
 4289 1148 010053E3 		cmp	r3, #1
 4290 114c 0030A003 		moveq	r3, #0
 4291 1150 48218D05 		streq	r2, [sp, #328]
 4292 1154 58318D05 		streq	r3, [sp, #344]
 4293 1158 0400000A 		beq	.L1159
 4294 115c 010052E3 		cmp	r2, #1
 4295 1160 5606001A 		bne	.L1143
 4296 1164 0020A0E3 		mov	r2, #0
 4297 1168 68318DE5 		str	r3, [sp, #360]
 4298 116c 78218DE5 		str	r2, [sp, #376]
 4299              	.L1159:
 4300 1170 010056E3 		cmp	r6, #1
 4301 1174 7406000A 		beq	.L1140
 4302 1178 20319DE5 		ldr	r3, [sp, #288]
 4303 117c 042090E5 		ldr	r2, [r0, #4]
 4304 1180 030052E1 		cmp	r2, r3
 4305 1184 0900000A 		beq	.L1162
 4306 1188 010053E3 		cmp	r3, #1
 4307 118c 0030A003 		moveq	r3, #0
 4308 1190 4C218D05 		streq	r2, [sp, #332]
 4309 1194 5C318D05 		streq	r3, [sp, #348]
 4310 1198 0400000A 		beq	.L1162
 4311 119c 010052E3 		cmp	r2, #1
 4312 11a0 4606001A 		bne	.L1143
 4313 11a4 0020A0E3 		mov	r2, #0
 4314 11a8 6C318DE5 		str	r3, [sp, #364]
 4315 11ac 7C218DE5 		str	r2, [sp, #380]
 4316              	.L1162:
 4317 11b0 020056E3 		cmp	r6, #2
 4318 11b4 6406000A 		beq	.L1140
 4319 11b8 24319DE5 		ldr	r3, [sp, #292]
 4320 11bc 082090E5 		ldr	r2, [r0, #8]
 4321 11c0 030052E1 		cmp	r2, r3
 4322 11c4 0900000A 		beq	.L1164
 4323 11c8 010053E3 		cmp	r3, #1
 4324 11cc 0030A003 		moveq	r3, #0
 4325 11d0 50218D05 		streq	r2, [sp, #336]
 4326 11d4 60318D05 		streq	r3, [sp, #352]
 4327 11d8 0400000A 		beq	.L1164
 4328 11dc 010052E3 		cmp	r2, #1
 4329 11e0 3606001A 		bne	.L1143
 4330 11e4 0020A0E3 		mov	r2, #0
 4331 11e8 70318DE5 		str	r3, [sp, #368]
 4332 11ec 80218DE5 		str	r2, [sp, #384]
 4333              	.L1164:
 4334 11f0 030056E3 		cmp	r6, #3
 4335 11f4 5406000A 		beq	.L1140
 4336 11f8 28319DE5 		ldr	r3, [sp, #296]
 4337 11fc 0C2090E5 		ldr	r2, [r0, #12]
 4338 1200 030052E1 		cmp	r2, r3
 4339 1204 0900000A 		beq	.L1167
 4340              	.L1174:
 4341 1208 010053E3 		cmp	r3, #1
 4342 120c 0030A003 		moveq	r3, #0
 4343 1210 54218D05 		streq	r2, [sp, #340]
 4344 1214 64318D05 		streq	r3, [sp, #356]
 4345 1218 0400000A 		beq	.L1167
 4346 121c 010052E3 		cmp	r2, #1
 4347 1220 0020A003 		moveq	r2, #0
 4348 1224 74318D05 		streq	r3, [sp, #372]
 4349 1228 84218D05 		streq	r2, [sp, #388]
 4350 122c 2306001A 		bne	.L1143
 4351              	.L1167:
 4352 1230 000050E3 		cmp	r0, #0
 4353 1234 2BFEFF0A 		beq	.L1338
 4354 1238 FEFFFFEB 		bl	_ZdaPv
 4355 123c 29FEFFEA 		b	.L1338
 4356              	.L1815:
 4357 1240 080093E5 		ldr	r0, [r3, #8]
 4358 1244 01C0A0E3 		mov	ip, #1
 4359 1248 0C2093E5 		ldr	r2, [r3, #12]
 4360 124c 041093E5 		ldr	r1, [r3, #4]
 4361 1250 50018DE5 		str	r0, [sp, #336]
 4362 1254 54218DE5 		str	r2, [sp, #340]
 4363 1258 60218DE5 		str	r2, [sp, #352]
 4364 125c 900202E0 		mul	r2, r0, r2
 4365 1260 000093E5 		ldr	r0, [r3]
 4366 1264 4C118DE5 		str	r1, [sp, #332]
 4367 1268 64C18DE5 		str	ip, [sp, #356]
 4368 126c 910201E0 		mul	r1, r1, r2
 4369 1270 5C218DE5 		str	r2, [sp, #348]
 4370 1274 48018DE5 		str	r0, [sp, #328]
 4371 1278 58118DE5 		str	r1, [sp, #344]
 4372 127c D4FDFFEA 		b	.L1133
 4373              	.L1473:
 4374              	.L1700:
 4375 1280 18619DE5 		ldr	r6, [sp, #280]
 4376              	.L1129:
 4377 1284 050056E3 		cmp	r6, #5
 4378 1288 030000DA 		ble	.L1186
 4379 128c 1C019DE5 		ldr	r0, [sp, #284]
 4380 1290 000050E3 		cmp	r0, #0
 4381 1294 0000000A 		beq	.L1186
 4382              	.L1702:
 4383 1298 FEFFFFEB 		bl	_ZdaPv
 4384              	.L1186:
 4385 129c E8309DE5 		ldr	r3, [sp, #232]
 4386 12a0 050053E3 		cmp	r3, #5
 4387 12a4 030000DA 		ble	.L1322
 4388 12a8 EC009DE5 		ldr	r0, [sp, #236]
 4389 12ac 000050E3 		cmp	r0, #0
 4390 12b0 0000000A 		beq	.L1322
 4391 12b4 FEFFFFEB 		bl	_ZdaPv
 4392              	.L1322:
 4393 12b8 D0309DE5 		ldr	r3, [sp, #208]
 4394 12bc 050053E3 		cmp	r3, #5
 4395 12c0 030000DA 		ble	.L1324
 4396 12c4 D4009DE5 		ldr	r0, [sp, #212]
 4397 12c8 000050E3 		cmp	r0, #0
 4398 12cc 0000000A 		beq	.L1324
 4399 12d0 FEFFFFEB 		bl	_ZdaPv
 4400              	.L1324:
 4401 12d4 B8309DE5 		ldr	r3, [sp, #184]
 4402 12d8 050053E3 		cmp	r3, #5
 4403 12dc 030000DA 		ble	.L1331
 4404 12e0 BC009DE5 		ldr	r0, [sp, #188]
 4405 12e4 000050E3 		cmp	r0, #0
 4406 12e8 0000000A 		beq	.L1331
 4407              	.L1716:
 4408 12ec FEFFFFEB 		bl	_ZdaPv
 4409              	.L1331:
 4410              	.LEHB57:
 4411 12f0 FEFFFFEB 		bl	__cxa_end_cleanup
 4412              	.L1462:
 4413 12f4 E8FFFFEA 		b	.L1186
 4414              	.L1819:
 4415 12f8 34219DE5 		ldr	r2, [sp, #308]
 4416 12fc 4AFEFFEA 		b	.L1073
 4417              	.L1825:
 4418 1300 001093E5 		ldr	r1, [r3]
 4419 1304 002090E5 		ldr	r2, [r0]
 4420 1308 020051E1 		cmp	r1, r2
 4421 130c 0600000A 		beq	.L1168
 4422 1310 010051E3 		cmp	r1, #1
 4423 1314 A204000A 		beq	.L1169
 4424 1318 010052E3 		cmp	r2, #1
 4425 131c E705001A 		bne	.L1143
 4426 1320 0020A0E3 		mov	r2, #0
 4427 1324 68118DE5 		str	r1, [sp, #360]
 4428 1328 78218DE5 		str	r2, [sp, #376]
 4429              	.L1168:
 4430 132c 041093E5 		ldr	r1, [r3, #4]
 4431 1330 042090E5 		ldr	r2, [r0, #4]
 4432 1334 020051E1 		cmp	r1, r2
 4433 1338 0600000A 		beq	.L1170
 4434 133c 010051E3 		cmp	r1, #1
 4435 1340 9B04000A 		beq	.L1171
 4436 1344 010052E3 		cmp	r2, #1
 4437 1348 DC05001A 		bne	.L1143
 4438 134c 0020A0E3 		mov	r2, #0
 4439 1350 6C118DE5 		str	r1, [sp, #364]
 4440 1354 7C218DE5 		str	r2, [sp, #380]
 4441              	.L1170:
 4442 1358 081093E5 		ldr	r1, [r3, #8]
 4443 135c 082090E5 		ldr	r2, [r0, #8]
 4444 1360 020051E1 		cmp	r1, r2
 4445 1364 0600000A 		beq	.L1172
 4446 1368 010051E3 		cmp	r1, #1
 4447 136c 0005000A 		beq	.L1173
 4448 1370 010052E3 		cmp	r2, #1
 4449 1374 D105001A 		bne	.L1143
 4450 1378 0020A0E3 		mov	r2, #0
 4451 137c 70118DE5 		str	r1, [sp, #368]
 4452 1380 80218DE5 		str	r2, [sp, #384]
 4453              	.L1172:
 4454 1384 0C3093E5 		ldr	r3, [r3, #12]
 4455 1388 0C2090E5 		ldr	r2, [r0, #12]
 4456 138c 020053E1 		cmp	r3, r2
 4457 1390 9CFFFF1A 		bne	.L1174
 4458 1394 A5FFFFEA 		b	.L1167
 4459              	.L1190:
 4460 1398 413F8DE2 		add	r3, sp, #260
 4461 139c 0221A0E1 		lsl	r2, r2, #2
 4462 13a0 000183E0 		add	r0, r3, r0, lsl #2
 4463 13a4 EC108DE2 		add	r1, sp, #236
 4464 13a8 FEFFFFEB 		bl	memcpy
 4465 13ac 00319DE5 		ldr	r3, [sp, #256]
 4466 13b0 000053E3 		cmp	r3, #0
 4467 13b4 38308DE5 		str	r3, [sp, #56]
 4468 13b8 BB0500DA 		ble	.L1826
 4469 13bc 84219DE5 		ldr	r2, [sp, #388]
 4470 13c0 00B0A0E3 		mov	fp, #0
 4471 13c4 08319DE5 		ldr	r3, [sp, #264]
 4472 13c8 0BA0A0E1 		mov	r10, fp
 4473 13cc 9C708DE5 		str	r7, [sp, #156]
 4474 13d0 02E0A0E1 		mov	lr, r2
 4475 13d4 6C208DE5 		str	r2, [sp, #108]
 4476 13d8 64219DE5 		ldr	r2, [sp, #356]
 4477 13dc 0310A0E1 		mov	r1, r3
 4478 13e0 48308DE5 		str	r3, [sp, #72]
 4479 13e4 0C319DE5 		ldr	r3, [sp, #268]
 4480 13e8 0260A0E1 		mov	r6, r2
 4481 13ec 70208DE5 		str	r2, [sp, #112]
 4482 13f0 10219DE5 		ldr	r2, [sp, #272]
 4483 13f4 0300A0E1 		mov	r0, r3
 4484 13f8 3C308DE5 		str	r3, [sp, #60]
 4485 13fc 610BDFED 		vldr.64	d16, .L1881	@ int
 4486 1400 02C0A0E1 		mov	ip, r2
 4487 1404 30208DE5 		str	r2, [sp, #48]
 4488 1408 930102E0 		mul	r2, r3, r1
 4489 140c 04319DE5 		ldr	r3, [sp, #260]
 4490 1410 8E10A0E1 		lsl	r1, lr, #1
 4491 1414 4CE19DE5 		ldr	lr, [sp, #332]
 4492 1418 9C0000E0 		mul	r0, ip, r0
 4493 141c 34308DE5 		str	r3, [sp, #52]
 4494 1420 48319DE5 		ldr	r3, [sp, #328]
 4495 1424 9C0202E0 		mul	r2, ip, r2
 4496 1428 44E08DE5 		str	lr, [sp, #68]
 4497 142c 01E085E0 		add	lr, r5, r1
 4498 1430 001061E2 		rsb	r1, r1, #0
 4499 1434 98E08DE5 		str	lr, [sp, #152]
 4500 1438 40308DE5 		str	r3, [sp, #64]
 4501 143c 8630A0E1 		lsl	r3, r6, #1
 4502 1440 68108DE5 		str	r1, [sp, #104]
 4503 1444 031084E0 		add	r1, r4, r3
 4504 1448 003063E2 		rsb	r3, r3, #0
 4505 144c 58308DE5 		str	r3, [sp, #88]
 4506 1450 50319DE5 		ldr	r3, [sp, #336]
 4507 1454 B4008DE5 		str	r0, [sp, #180]
 4508 1458 94108DE5 		str	r1, [sp, #148]
 4509 145c 4C308DE5 		str	r3, [sp, #76]
 4510 1460 54319DE5 		ldr	r3, [sp, #340]
 4511 1464 B0208DE5 		str	r2, [sp, #176]
 4512 1468 50308DE5 		str	r3, [sp, #80]
 4513 146c 5C319DE5 		ldr	r3, [sp, #348]
 4514 1470 A4308DE5 		str	r3, [sp, #164]
 4515 1474 60319DE5 		ldr	r3, [sp, #352]
 4516 1478 80308DE5 		str	r3, [sp, #128]
 4517 147c 68319DE5 		ldr	r3, [sp, #360]
 4518 1480 54308DE5 		str	r3, [sp, #84]
 4519 1484 6C319DE5 		ldr	r3, [sp, #364]
 4520 1488 5C308DE5 		str	r3, [sp, #92]
 4521 148c 70319DE5 		ldr	r3, [sp, #368]
 4522 1490 60308DE5 		str	r3, [sp, #96]
 4523 1494 74319DE5 		ldr	r3, [sp, #372]
 4524 1498 64308DE5 		str	r3, [sp, #100]
 4525 149c 7C319DE5 		ldr	r3, [sp, #380]
 4526 14a0 A8308DE5 		str	r3, [sp, #168]
 4527 14a4 80319DE5 		ldr	r3, [sp, #384]
 4528 14a8 84308DE5 		str	r3, [sp, #132]
 4529 14ac 78319DE5 		ldr	r3, [sp, #376]
 4530 14b0 A0308DE5 		str	r3, [sp, #160]
 4531 14b4 58319DE5 		ldr	r3, [sp, #344]
 4532 14b8 AC308DE5 		str	r3, [sp, #172]
 4533              	.L1192:
 4534 14bc 38309DE5 		ldr	r3, [sp, #56]
 4535 14c0 050053E3 		cmp	r3, #5
 4536 14c4 34309DE5 		ldr	r3, [sp, #52]
 4537 14c8 003093C5 		ldrgt	r3, [r3]
 4538 14cc 03005AE1 		cmp	r10, r3
 4539 14d0 38309DE5 		ldr	r3, [sp, #56]
 4540 14d4 8A0400AA 		bge	.L1194
 4541 14d8 010053E3 		cmp	r3, #1
 4542 14dc 9605000A 		beq	.L1195
 4543 14e0 94309DE5 		ldr	r3, [sp, #148]
 4544 14e4 00B0A0E3 		mov	fp, #0
 4545 14e8 88308DE5 		str	r3, [sp, #136]
 4546 14ec 98309DE5 		ldr	r3, [sp, #152]
 4547 14f0 8C308DE5 		str	r3, [sp, #140]
 4548 14f4 9C309DE5 		ldr	r3, [sp, #156]
 4549 14f8 90308DE5 		str	r3, [sp, #144]
 4550              	.L1196:
 4551 14fc 38309DE5 		ldr	r3, [sp, #56]
 4552 1500 050053E3 		cmp	r3, #5
 4553 1504 34309DC5 		ldrgt	r3, [sp, #52]
 4554 1508 48309DD5 		ldrle	r3, [sp, #72]
 4555 150c 043093C5 		ldrgt	r3, [r3, #4]
 4556 1510 03005BE1 		cmp	fp, r3
 4557 1514 9E0400AA 		bge	.L1198
 4558 1518 38309DE5 		ldr	r3, [sp, #56]
 4559 151c 020053E3 		cmp	r3, #2
 4560 1520 8005000A 		beq	.L1199
 4561 1524 88309DE5 		ldr	r3, [sp, #136]
 4562 1528 0090A0E3 		mov	r9, #0
 4563 152c 78308DE5 		str	r3, [sp, #120]
 4564 1530 8C309DE5 		ldr	r3, [sp, #140]
 4565 1534 7C308DE5 		str	r3, [sp, #124]
 4566 1538 90309DE5 		ldr	r3, [sp, #144]
 4567 153c 74308DE5 		str	r3, [sp, #116]
 4568              	.L1200:
 4569 1540 38309DE5 		ldr	r3, [sp, #56]
 4570 1544 050053E3 		cmp	r3, #5
 4571 1548 34309DC5 		ldrgt	r3, [sp, #52]
 4572 154c 3C309DD5 		ldrle	r3, [sp, #60]
 4573 1550 083093C5 		ldrgt	r3, [r3, #8]
 4574 1554 030059E1 		cmp	r9, r3
 4575 1558 FB0300AA 		bge	.L1202
 4576 155c 38309DE5 		ldr	r3, [sp, #56]
 4577 1560 030053E3 		cmp	r3, #3
 4578 1564 2604000A 		beq	.L1827
 4579 1568 050053E3 		cmp	r3, #5
 4580 156c 78C09DE5 		ldr	ip, [sp, #120]
 4581 1570 7C709DE5 		ldr	r7, [sp, #124]
 4582 1574 0000A0E3 		mov	r0, #0
 4583 1578 74809DE5 		ldr	r8, [sp, #116]
 4584 157c C10000DA 		ble	.L1409
 4585 1580 D10000EA 		b	.L1828
 4586              	.L1882:
 4587 1584 00F020E3 		.align	3
 4588              	.L1881:
 4589 1588 01000000 		.word	1
 4590 158c 00000000 		.word	0
 4591              	.L1334:
 4592 1590 40309DE5 		ldr	r3, [sp, #64]
 4593 1594 03005AE1 		cmp	r10, r3
 4594 1598 8C319DE5 		ldr	r3, [sp, #396]
 4595 159c B00300AA 		bge	.L1829
 4596 15a0 44209DE5 		ldr	r2, [sp, #68]
 4597 15a4 02005BE1 		cmp	fp, r2
 4598 15a8 B60300AA 		bge	.L1830
 4599 15ac 4C209DE5 		ldr	r2, [sp, #76]
 4600 15b0 020059E1 		cmp	r9, r2
 4601 15b4 B20300AA 		bge	.L1831
 4602 15b8 50209DE5 		ldr	r2, [sp, #80]
 4603 15bc 020050E1 		cmp	r0, r2
 4604 15c0 B50300AA 		bge	.L1832
 4605 15c4 58209DE5 		ldr	r2, [sp, #88]
 4606 15c8 54109DE5 		ldr	r1, [sp, #84]
 4607 15cc 00F0DCF5 		pld	[ip]
 4608 15d0 0220DCE7 		ldrb	r2, [ip, r2]	@ zero_extendqisi2
 4609 15d4 01005AE1 		cmp	r10, r1
 4610 15d8 90119DE5 		ldr	r1, [sp, #400]
 4611 15dc 033082E0 		add	r3, r2, r3
 4612 15e0 AC0300AA 		bge	.L1833
 4613 15e4 5C209DE5 		ldr	r2, [sp, #92]
 4614 15e8 02005BE1 		cmp	fp, r2
 4615 15ec A80300AA 		bge	.L1834
 4616 15f0 60209DE5 		ldr	r2, [sp, #96]
 4617 15f4 020059E1 		cmp	r9, r2
 4618 15f8 A40300AA 		bge	.L1835
 4619 15fc 64209DE5 		ldr	r2, [sp, #100]
 4620 1600 020050E1 		cmp	r0, r2
 4621 1604 A00300AA 		bge	.L1836
 4622 1608 A0219DE5 		ldr	r2, [sp, #416]
 4623 160c 68409DE5 		ldr	r4, [sp, #104]
 4624 1610 A4E19DE5 		ldr	lr, [sp, #420]
 4625 1614 00F0D7F5 		pld	[r7]
 4626 1618 0440D7E7 		ldrb	r4, [r7, r4]	@ zero_extendqisi2
 4627 161c 1332A0E1 		lsl	r3, r3, r2
 4628 1620 A8619DE5 		ldr	r6, [sp, #424]
 4629 1624 0E0053E1 		cmp	r3, lr
 4630 1628 02015303 		cmpeq	r3, #-2147483648
 4631 162c 011084E0 		add	r1, r4, r1
 4632 1630 934EC5E0 		smull	r4, r5, r3, lr
 4633 1634 01E0A003 		moveq	lr, #1
 4634 1638 00E0A013 		movne	lr, #0
 4635 163c 1112A0E1 		lsl	r1, r1, r2
 4636 1640 000054E3 		cmp	r4, #0
 4637 1644 0030D5E2 		sbcs	r3, r5, #0
 4638 1648 0121A0A3 		movge	r2, #1073741824
 4639 164c 0030A0A3 		movge	r3, #0
 4640 1650 0721A0B3 		movlt	r2, #-1073741823
 4641 1654 0030E0B3 		mvnlt	r3, #0
 4642 1658 00005EE3 		cmp	lr, #0
 4643 165c 0241E013 		mvnne	r4, #-2147483648
 4644 1660 0800001A 		bne	.L1213
 4645 1664 024094E0 		adds	r4, r4, r2
 4646 1668 0350A5E0 		adc	r5, r5, r3
 4647 166c 0030A0E3 		mov	r3, #0
 4648 1670 C52FA0E1 		asr	r2, r5, #31
 4649 1674 0221C2E3 		bic	r2, r2, #-2147483648
 4650 1678 024094E0 		adds	r4, r4, r2
 4651 167c A44FA0E1 		lsr	r4, r4, #31
 4652 1680 0350A5E0 		adc	r5, r5, r3
 4653 1684 854084E1 		orr	r4, r4, r5, lsl #1
 4654              	.L1213:
 4655 1688 000056E3 		cmp	r6, #0
 4656 168c 00E066E2 		rsb	lr, r6, #0
 4657 1690 BB0300CA 		bgt	.L1837
 4658 1694 1F0076E3 		cmn	r6, #31
 4659 1698 D10300BA 		blt	.L1838
 4660 169c 90EB01EE 		vmov.32	d17[0], lr
 4661 16a0 546EA0E1 		asr	r6, r4, lr
 4662 16a4 AC219DE5 		ldr	r2, [sp, #428]
 4663 16a8 A07431F3 		vshl.u64	d7, d16, d17
 4664 16ac 020051E1 		cmp	r1, r2
 4665 16b0 02015103 		cmpeq	r1, #-2147483648
 4666 16b4 103A17EE 		vmov	r3, s14	@ int
 4667 16b8 013043E2 		sub	r3, r3, #1
 4668 16bc C3E0A0E1 		asr	lr, r3, #1
 4669 16c0 043003E0 		and	r3, r3, r4
 4670 16c4 A4EF8EE0 		add	lr, lr, r4, lsr #31
 4671 16c8 9142C5E0 		smull	r4, r5, r1, r2
 4672 16cc 0110A003 		moveq	r1, #1
 4673 16d0 0010A013 		movne	r1, #0
 4674 16d4 0E0053E1 		cmp	r3, lr
 4675 16d8 06E0A0D1 		movle	lr, r6
 4676 16dc 01E086C2 		addgt	lr, r6, #1
 4677 16e0 B0619DE5 		ldr	r6, [sp, #432]
 4678 16e4 000054E3 		cmp	r4, #0
 4679 16e8 0030D5E2 		sbcs	r3, r5, #0
 4680 16ec 0121A0A3 		movge	r2, #1073741824
 4681 16f0 0721A0B3 		movlt	r2, #-1073741823
 4682 16f4 0030A0A3 		movge	r3, #0
 4683 16f8 0030E0B3 		mvnlt	r3, #0
 4684 16fc 000051E3 		cmp	r1, #0
 4685 1700 0221E013 		mvnne	r2, #-2147483648
 4686 1704 0800001A 		bne	.L1217
 4687 1708 024094E0 		adds	r4, r4, r2
 4688 170c 0350A5E0 		adc	r5, r5, r3
 4689 1710 0030A0E3 		mov	r3, #0
 4690 1714 C52FA0E1 		asr	r2, r5, #31
 4691 1718 0221C2E3 		bic	r2, r2, #-2147483648
 4692 171c 042092E0 		adds	r2, r2, r4
 4693 1720 A22FA0E1 		lsr	r2, r2, #31
 4694 1724 0530A3E0 		adc	r3, r3, r5
 4695 1728 832082E1 		orr	r2, r2, r3, lsl #1
 4696              	.L1217:
 4697 172c 000056E3 		cmp	r6, #0
 4698 1730 001066E2 		rsb	r1, r6, #0
 4699 1734 A20300CA 		bgt	.L1839
 4700 1738 1F0076E3 		cmn	r6, #31
 4701 173c E80300BA 		blt	.L1840
 4702 1740 901B02EE 		vmov.32	d18[0], r1
 4703 1744 5231A0E1 		asr	r3, r2, r1
 4704 1748 98619DE5 		ldr	r6, [sp, #408]
 4705 174c A01472F3 		vshl.u64	d17, d16, d18
 4706 1750 314B55EC 		vmov	r4, r5, d17	@ int
 4707 1754 015044E2 		sub	r5, r4, #1
 4708 1758 C510A0E1 		asr	r1, r5, #1
 4709 175c 025005E0 		and	r5, r5, r2
 4710 1760 A22F81E0 		add	r2, r1, r2, lsr #31
 4711 1764 9C119DE5 		ldr	r1, [sp, #412]
 4712 1768 020055E1 		cmp	r5, r2
 4713 176c 0320A0D1 		movle	r2, r3
 4714 1770 012083C2 		addgt	r2, r3, #1
 4715 1774 0EE082E0 		add	lr, r2, lr
 4716 1778 9E46C5E0 		smull	r4, r5, lr, r6
 4717 177c 06005EE1 		cmp	lr, r6
 4718 1780 02015E03 		cmpeq	lr, #-2147483648
 4719 1784 01E0A003 		moveq	lr, #1
 4720 1788 00E0A013 		movne	lr, #0
 4721 178c 000054E3 		cmp	r4, #0
 4722 1790 0030D5E2 		sbcs	r3, r5, #0
 4723 1794 0121A0A3 		movge	r2, #1073741824
 4724 1798 0721A0B3 		movlt	r2, #-1073741823
 4725 179c 0030A0A3 		movge	r3, #0
 4726 17a0 0030E0B3 		mvnlt	r3, #0
 4727 17a4 00005EE3 		cmp	lr, #0
 4728 17a8 0221E013 		mvnne	r2, #-2147483648
 4729 17ac 0800001A 		bne	.L1221
 4730 17b0 024094E0 		adds	r4, r4, r2
 4731 17b4 0350A5E0 		adc	r5, r5, r3
 4732 17b8 0030A0E3 		mov	r3, #0
 4733 17bc C52FA0E1 		asr	r2, r5, #31
 4734 17c0 0221C2E3 		bic	r2, r2, #-2147483648
 4735 17c4 042092E0 		adds	r2, r2, r4
 4736 17c8 A22FA0E1 		lsr	r2, r2, #31
 4737 17cc 0530A3E0 		adc	r3, r3, r5
 4738 17d0 832082E1 		orr	r2, r2, r3, lsl #1
 4739              	.L1221:
 4740 17d4 000051E3 		cmp	r1, #0
 4741 17d8 00E061E2 		rsb	lr, r1, #0
 4742 17dc B70300CA 		bgt	.L1841
 4743 17e0 1F0071E3 		cmn	r1, #31
 4744 17e4 AD0300BA 		blt	.L1842
 4745 17e8 90EB02EE 		vmov.32	d18[0], lr
 4746 17ec 523EA0E1 		asr	r3, r2, lr
 4747 17f0 94619DE5 		ldr	r6, [sp, #404]
 4748 17f4 A01472F3 		vshl.u64	d17, d16, d18
 4749 17f8 B4E19DE5 		ldr	lr, [sp, #436]
 4750 17fc 314B55EC 		vmov	r4, r5, d17	@ int
 4751 1800 011044E2 		sub	r1, r4, #1
 4752 1804 B8519DE5 		ldr	r5, [sp, #440]
 4753 1808 C140A0E1 		asr	r4, r1, #1
 4754 180c 021001E0 		and	r1, r1, r2
 4755 1810 A22F84E0 		add	r2, r4, r2, lsr #31
 4756 1814 020051E1 		cmp	r1, r2
 4757 1818 0310A0D1 		movle	r1, r3
 4758 181c 011083C2 		addgt	r1, r3, #1
 4759 1820 38309DE5 		ldr	r3, [sp, #56]
 4760 1824 061081E0 		add	r1, r1, r6
 4761 1828 0E0051E1 		cmp	r1, lr
 4762 182c 0E10A0B1 		movlt	r1, lr
 4763 1830 050051E1 		cmp	r1, r5
 4764 1834 0510A0A1 		movge	r1, r5
 4765 1838 040053E3 		cmp	r3, #4
 4766 183c A703001A 		bne	.L1843
 4767 1840 34309DE5 		ldr	r3, [sp, #52]
 4768 1844 03005AE1 		cmp	r10, r3
 4769 1848 040300AA 		bge	.L1844
 4770 184c 48309DE5 		ldr	r3, [sp, #72]
 4771 1850 03005BE1 		cmp	fp, r3
 4772 1854 FF0200AA 		bge	.L1845
 4773 1858 3C309DE5 		ldr	r3, [sp, #60]
 4774 185c 030059E1 		cmp	r9, r3
 4775 1860 FB0200AA 		bge	.L1846
 4776 1864 30309DE5 		ldr	r3, [sp, #48]
 4777 1868 030050E1 		cmp	r0, r3
 4778 186c 6C309DE5 		ldr	r3, [sp, #108]
 4779 1870 037087E0 		add	r7, r7, r3
 4780 1874 70309DE5 		ldr	r3, [sp, #112]
 4781 1878 03C08CE0 		add	ip, ip, r3
 4782 187c F60200AA 		bge	.L1847
 4783 1880 010080E2 		add	r0, r0, #1
 4784 1884 0110C8E4 		strb	r1, [r8], #1
 4785              	.L1409:
 4786 1888 30309DE5 		ldr	r3, [sp, #48]
 4787              	.L1204:
 4788 188c 030050E1 		cmp	r0, r3
 4789 1890 3EFFFFBA 		blt	.L1334
 4790 1894 74309DE5 		ldr	r3, [sp, #116]
 4791 1898 019089E2 		add	r9, r9, #1
 4792 189c 30209DE5 		ldr	r2, [sp, #48]
 4793 18a0 023083E0 		add	r3, r3, r2
 4794 18a4 84209DE5 		ldr	r2, [sp, #132]
 4795 18a8 74308DE5 		str	r3, [sp, #116]
 4796 18ac 7C309DE5 		ldr	r3, [sp, #124]
 4797 18b0 023083E0 		add	r3, r3, r2
 4798 18b4 80209DE5 		ldr	r2, [sp, #128]
 4799 18b8 7C308DE5 		str	r3, [sp, #124]
 4800 18bc 78309DE5 		ldr	r3, [sp, #120]
 4801 18c0 023083E0 		add	r3, r3, r2
 4802 18c4 78308DE5 		str	r3, [sp, #120]
 4803 18c8 1CFFFFEA 		b	.L1200
 4804              	.L1828:
 4805 18cc 34309DE5 		ldr	r3, [sp, #52]
 4806 18d0 0C3093E5 		ldr	r3, [r3, #12]
 4807 18d4 ECFFFFEA 		b	.L1204
 4808              	.L1404:
 4809 18d8 0360A0E1 		mov	r6, r3
 4810 18dc 9FFDFFEA 		b	.L1103
 4811              	.L1394:
 4812 18e0 03E0A0E1 		mov	lr, r3
 4813 18e4 49FDFFEA 		b	.L1090
 4814              	.L1384:
 4815 18e8 03C0A0E1 		mov	ip, r3
 4816 18ec F3FCFFEA 		b	.L1077
 4817              	.L1794:
 4818 18f0 000053E3 		cmp	r3, #0
 4819 18f4 01E0A003 		moveq	lr, #1
 4820 18f8 0380A001 		moveq	r8, r3
 4821 18fc E8FAFF0A 		beq	.L1269
 4822 1900 C7FAFFEA 		b	.L1268
 4823              	.L1793:
 4824 1904 000053E3 		cmp	r3, #0
 4825 1908 01A0A003 		moveq	r10, #1
 4826 190c 03E0A001 		moveq	lr, r3
 4827 1910 8FFAFF0A 		beq	.L1256
 4828 1914 6EFAFFEA 		b	.L1255
 4829              	.L1792:
 4830 1918 000053E3 		cmp	r3, #0
 4831 191c 0120A003 		moveq	r2, #1
 4832 1920 0370A001 		moveq	r7, r3
 4833 1924 36FAFF0A 		beq	.L1243
 4834 1928 15FAFFEA 		b	.L1242
 4835              	.L1085:
 4836 192c 000052E3 		cmp	r2, #0
 4837 1930 0100A0D3 		movle	r0, #1
 4838 1934 60FDFFDA 		ble	.L1087
 4839 1938 53CF8DE2 		add	ip, sp, #332
 4840 193c 0EFDFFEA 		b	.L1086
 4841              	.L1098:
 4842 1940 00005CE3 		cmp	ip, #0
 4843 1944 0120A0D3 		movle	r2, #1
 4844 1948 B1FDFFDA 		ble	.L1100
 4845 194c 5BEF8DE2 		add	lr, sp, #364
 4846 1950 5DFDFFEA 		b	.L1099
 4847              	.L1816:
 4848 1954 00E093E5 		ldr	lr, [r3]
 4849 1958 00005EE1 		cmp	lr, r0
 4850 195c 0900000A 		beq	.L1151
 4851 1960 01005EE3 		cmp	lr, #1
 4852 1964 00E0A003 		moveq	lr, #0
 4853 1968 48018D05 		streq	r0, [sp, #328]
 4854 196c 58E18D05 		streq	lr, [sp, #344]
 4855 1970 0400000A 		beq	.L1151
 4856 1974 010050E3 		cmp	r0, #1
 4857 1978 5004001A 		bne	.L1143
 4858 197c 0000A0E3 		mov	r0, #0
 4859 1980 68E18DE5 		str	lr, [sp, #360]
 4860 1984 78018DE5 		str	r0, [sp, #376]
 4861              	.L1151:
 4862 1988 040093E5 		ldr	r0, [r3, #4]
 4863 198c 0C0050E1 		cmp	r0, ip
 4864 1990 0900000A 		beq	.L1153
 4865 1994 010050E3 		cmp	r0, #1
 4866 1998 0000A003 		moveq	r0, #0
 4867 199c 4CC18D05 		streq	ip, [sp, #332]
 4868 19a0 5C018D05 		streq	r0, [sp, #348]
 4869 19a4 0400000A 		beq	.L1153
 4870 19a8 01005CE3 		cmp	ip, #1
 4871 19ac 4304001A 		bne	.L1143
 4872 19b0 00C0A0E3 		mov	ip, #0
 4873 19b4 6C018DE5 		str	r0, [sp, #364]
 4874 19b8 7CC18DE5 		str	ip, [sp, #380]
 4875              	.L1153:
 4876 19bc 080093E5 		ldr	r0, [r3, #8]
 4877 19c0 010050E1 		cmp	r0, r1
 4878 19c4 0900000A 		beq	.L1155
 4879 19c8 010050E3 		cmp	r0, #1
 4880 19cc 0000A003 		moveq	r0, #0
 4881 19d0 50118D05 		streq	r1, [sp, #336]
 4882 19d4 60018D05 		streq	r0, [sp, #352]
 4883 19d8 0400000A 		beq	.L1155
 4884 19dc 010051E3 		cmp	r1, #1
 4885 19e0 3604001A 		bne	.L1143
 4886 19e4 0010A0E3 		mov	r1, #0
 4887 19e8 70018DE5 		str	r0, [sp, #368]
 4888 19ec 80118DE5 		str	r1, [sp, #384]
 4889              	.L1155:
 4890 19f0 0C3093E5 		ldr	r3, [r3, #12]
 4891 19f4 030052E1 		cmp	r2, r3
 4892 19f8 33FCFF1A 		bne	.L1718
 4893 19fc 39FCFFEA 		b	.L1338
 4894              	.L1818:
 4895 1a00 18129DE5 		ldr	r1, [sp, #536]
 4896 1a04 B8008DE2 		add	r0, sp, #184
 4897 1a08 FEFFFFEB 		bl	_ZN6tflite5micro14GetTensorShapeEPK16TfLiteEvalTensor
 4898              	.LEHE57:
 4899 1a0c 18329DE5 		ldr	r3, [sp, #536]
 4900 1a10 000053E3 		cmp	r3, #0
 4901 1a14 6C04000A 		beq	.L1848
 4902 1a18 1C129DE5 		ldr	r1, [sp, #540]
 4903 1a1c D0008DE2 		add	r0, sp, #208
 4904 1a20 005093E5 		ldr	r5, [r3]
 4905              	.LEHB58:
 4906 1a24 FEFFFFEB 		bl	_ZN6tflite5micro14GetTensorShapeEPK16TfLiteEvalTensor
 4907              	.LEHE58:
 4908 1a28 1C329DE5 		ldr	r3, [sp, #540]
 4909 1a2c 000053E3 		cmp	r3, #0
 4910 1a30 6304000A 		beq	.L1849
 4911 1a34 0610A0E1 		mov	r1, r6
 4912 1a38 E8008DE2 		add	r0, sp, #232
 4913 1a3c 004093E5 		ldr	r4, [r3]
 4914              	.LEHB59:
 4915 1a40 FEFFFFEB 		bl	_ZN6tflite5micro14GetTensorShapeEPK16TfLiteEvalTensor
 4916              	.LEHE59:
 4917 1a44 B8209DE5 		ldr	r2, [sp, #184]
 4918 1a48 0030A0E3 		mov	r3, #0
 4919 1a4c 007096E5 		ldr	r7, [r6]
 4920 1a50 18318DE5 		str	r3, [sp, #280]
 4921 1a54 040052E3 		cmp	r2, #4
 4922 1a58 350400CA 		bgt	.L1850
 4923 1a5c 040072E2 		rsbs	r0, r2, #4
 4924 1a60 0430A0E3 		mov	r3, #4
 4925 1a64 18318DE5 		str	r3, [sp, #280]
 4926 1a68 0E00000A 		beq	.L953
 4927 1a6c 010050E3 		cmp	r0, #1
 4928 1a70 0130A0E3 		mov	r3, #1
 4929 1a74 1C318DE5 		str	r3, [sp, #284]
 4930 1a78 0A00000A 		beq	.L953
 4931 1a7c 020050E3 		cmp	r0, #2
 4932 1a80 20318DE5 		str	r3, [sp, #288]
 4933 1a84 0700000A 		beq	.L953
 4934 1a88 030050E3 		cmp	r0, #3
 4935 1a8c 24318DE5 		str	r3, [sp, #292]
 4936 1a90 0400000A 		beq	.L953
 4937 1a94 040050E3 		cmp	r0, #4
 4938 1a98 28318DE5 		str	r3, [sp, #296]
 4939 1a9c 0100000A 		beq	.L953
 4940              	.LEHB60:
 4941 1aa0 FEFFFFEB 		bl	abort
 4942              	.LEHE60:
 4943              	.L1456:
 4944 1aa4 FCFDFFEA 		b	.L1186
 4945              	.L953:
 4946 1aa8 473F8DE2 		add	r3, sp, #284
 4947 1aac 0221A0E1 		lsl	r2, r2, #2
 4948 1ab0 000183E0 		add	r0, r3, r0, lsl #2
 4949 1ab4 BC108DE2 		add	r1, sp, #188
 4950 1ab8 FEFFFFEB 		bl	memcpy
 4951 1abc D0209DE5 		ldr	r2, [sp, #208]
 4952 1ac0 0030A0E3 		mov	r3, #0
 4953 1ac4 30318DE5 		str	r3, [sp, #304]
 4954 1ac8 040052E3 		cmp	r2, #4
 4955 1acc 170400CA 		bgt	.L1851
 4956 1ad0 040072E2 		rsbs	r0, r2, #4
 4957 1ad4 0430A0E3 		mov	r3, #4
 4958 1ad8 30318DE5 		str	r3, [sp, #304]
 4959 1adc 0E00000A 		beq	.L960
 4960 1ae0 010050E3 		cmp	r0, #1
 4961 1ae4 0130A0E3 		mov	r3, #1
 4962 1ae8 34318DE5 		str	r3, [sp, #308]
 4963 1aec 0A00000A 		beq	.L960
 4964 1af0 020050E3 		cmp	r0, #2
 4965 1af4 38318DE5 		str	r3, [sp, #312]
 4966 1af8 0700000A 		beq	.L960
 4967 1afc 030050E3 		cmp	r0, #3
 4968 1b00 3C318DE5 		str	r3, [sp, #316]
 4969 1b04 0400000A 		beq	.L960
 4970 1b08 040050E3 		cmp	r0, #4
 4971 1b0c 40318DE5 		str	r3, [sp, #320]
 4972 1b10 0100000A 		beq	.L960
 4973              	.LEHB61:
 4974 1b14 FEFFFFEB 		bl	abort
 4975              	.LEHE61:
 4976              	.L1469:
 4977 1b18 D8FDFFEA 		b	.L1700
 4978              	.L960:
 4979 1b1c 4D3F8DE2 		add	r3, sp, #308
 4980 1b20 0221A0E1 		lsl	r2, r2, #2
 4981 1b24 000183E0 		add	r0, r3, r0, lsl #2
 4982 1b28 D4108DE2 		add	r1, sp, #212
 4983 1b2c FEFFFFEB 		bl	memcpy
 4984 1b30 18619DE5 		ldr	r6, [sp, #280]
 4985 1b34 1C319DE5 		ldr	r3, [sp, #284]
 4986 1b38 050056E3 		cmp	r6, #5
 4987 1b3c D40100CA 		bgt	.L1852
 4988 1b40 030056E3 		cmp	r6, #3
 4989 1b44 DE0300DA 		ble	.L962
 4990 1b48 28119DE5 		ldr	r1, [sp, #296]
 4991 1b4c 01E0A0E3 		mov	lr, #1
 4992 1b50 24C19DE5 		ldr	ip, [sp, #292]
 4993 1b54 20219DE5 		ldr	r2, [sp, #288]
 4994 1b58 48318DE5 		str	r3, [sp, #328]
 4995 1b5c 54118DE5 		str	r1, [sp, #340]
 4996 1b60 9C0100E0 		mul	r0, ip, r1
 4997 1b64 4C218DE5 		str	r2, [sp, #332]
 4998 1b68 60118DE5 		str	r1, [sp, #352]
 4999 1b6c 50C18DE5 		str	ip, [sp, #336]
 5000 1b70 64E18DE5 		str	lr, [sp, #356]
 5001 1b74 920002E0 		mul	r2, r2, r0
 5002 1b78 5C018DE5 		str	r0, [sp, #348]
 5003 1b7c 58218DE5 		str	r2, [sp, #344]
 5004              	.L963:
 5005 1b80 30819DE5 		ldr	r8, [sp, #304]
 5006 1b84 34019DE5 		ldr	r0, [sp, #308]
 5007 1b88 050058E3 		cmp	r8, #5
 5008 1b8c D00100CA 		bgt	.L964
 5009 1b90 030058E3 		cmp	r8, #3
 5010 1b94 C80300DA 		ble	.L965
 5011 1b98 40219DE5 		ldr	r2, [sp, #320]
 5012 1b9c 0190A0E3 		mov	r9, #1
 5013 1ba0 3C119DE5 		ldr	r1, [sp, #316]
 5014 1ba4 050056E3 		cmp	r6, #5
 5015 1ba8 38C19DE5 		ldr	ip, [sp, #312]
 5016 1bac 84918DE5 		str	r9, [sp, #388]
 5017 1bb0 68018DE5 		str	r0, [sp, #360]
 5018 1bb4 91020EE0 		mul	lr, r1, r2
 5019 1bb8 74218DE5 		str	r2, [sp, #372]
 5020 1bbc 80218DE5 		str	r2, [sp, #384]
 5021 1bc0 70118DE5 		str	r1, [sp, #368]
 5022 1bc4 6CC18DE5 		str	ip, [sp, #364]
 5023 1bc8 9C0E09E0 		mul	r9, ip, lr
 5024 1bcc 7CE18DE5 		str	lr, [sp, #380]
 5025 1bd0 78918DE5 		str	r9, [sp, #376]
 5026 1bd4 310200CA 		bgt	.L1853
 5027 1bd8 000056E3 		cmp	r6, #0
 5028 1bdc D20300DA 		ble	.L970
 5029 1be0 000053E1 		cmp	r3, r0
 5030 1be4 0600000A 		beq	.L971
 5031 1be8 010053E3 		cmp	r3, #1
 5032 1bec 1803000A 		beq	.L972
 5033 1bf0 010050E3 		cmp	r0, #1
 5034 1bf4 DC03001A 		bne	.L973
 5035 1bf8 0000A0E3 		mov	r0, #0
 5036 1bfc 68318DE5 		str	r3, [sp, #360]
 5037 1c00 78018DE5 		str	r0, [sp, #376]
 5038              	.L971:
 5039 1c04 010056E3 		cmp	r6, #1
 5040 1c08 C703000A 		beq	.L970
 5041 1c0c 20319DE5 		ldr	r3, [sp, #288]
 5042 1c10 03005CE1 		cmp	ip, r3
 5043 1c14 0600000A 		beq	.L975
 5044 1c18 010053E3 		cmp	r3, #1
 5045 1c1c F802000A 		beq	.L974
 5046 1c20 01005CE3 		cmp	ip, #1
 5047 1c24 D003001A 		bne	.L973
 5048 1c28 0000A0E3 		mov	r0, #0
 5049 1c2c 6C318DE5 		str	r3, [sp, #364]
 5050 1c30 7C018DE5 		str	r0, [sp, #380]
 5051              	.L975:
 5052 1c34 020056E3 		cmp	r6, #2
 5053 1c38 BB03000A 		beq	.L970
 5054 1c3c 24319DE5 		ldr	r3, [sp, #292]
 5055 1c40 030051E1 		cmp	r1, r3
 5056 1c44 0600000A 		beq	.L977
 5057 1c48 010053E3 		cmp	r3, #1
 5058 1c4c F002000A 		beq	.L976
 5059 1c50 010051E3 		cmp	r1, #1
 5060 1c54 C403001A 		bne	.L973
 5061 1c58 0010A0E3 		mov	r1, #0
 5062 1c5c 70318DE5 		str	r3, [sp, #368]
 5063 1c60 80118DE5 		str	r1, [sp, #384]
 5064              	.L977:
 5065 1c64 030056E3 		cmp	r6, #3
 5066 1c68 AF03000A 		beq	.L970
 5067 1c6c 28319DE5 		ldr	r3, [sp, #296]
 5068 1c70 030052E1 		cmp	r2, r3
 5069 1c74 0600000A 		beq	.L1336
 5070              	.L1717:
 5071 1c78 010053E3 		cmp	r3, #1
 5072 1c7c C002000A 		beq	.L988
 5073 1c80 010052E3 		cmp	r2, #1
 5074 1c84 B803001A 		bne	.L973
 5075 1c88 0020A0E3 		mov	r2, #0
 5076 1c8c 74318DE5 		str	r3, [sp, #372]
 5077 1c90 84218DE5 		str	r2, [sp, #388]
 5078              	.L1336:
 5079 1c94 050056E3 		cmp	r6, #5
 5080 1c98 030000DA 		ble	.L1008
 5081 1c9c 1C019DE5 		ldr	r0, [sp, #284]
 5082 1ca0 000050E3 		cmp	r0, #0
 5083 1ca4 0000000A 		beq	.L1008
 5084 1ca8 FEFFFFEB 		bl	_ZdaPv
 5085              	.L1008:
 5086 1cac E8209DE5 		ldr	r2, [sp, #232]
 5087 1cb0 0030A0E3 		mov	r3, #0
 5088 1cb4 00318DE5 		str	r3, [sp, #256]
 5089 1cb8 040052E3 		cmp	r2, #4
 5090 1cbc A70300CA 		bgt	.L1854
 5091 1cc0 040072E2 		rsbs	r0, r2, #4
 5092 1cc4 0430A0E3 		mov	r3, #4
 5093 1cc8 00318DE5 		str	r3, [sp, #256]
 5094 1ccc 0D00000A 		beq	.L1020
 5095 1cd0 010050E3 		cmp	r0, #1
 5096 1cd4 0130A0E3 		mov	r3, #1
 5097 1cd8 04318DE5 		str	r3, [sp, #260]
 5098 1cdc 0900000A 		beq	.L1020
 5099 1ce0 020050E3 		cmp	r0, #2
 5100 1ce4 08318DE5 		str	r3, [sp, #264]
 5101 1ce8 0600000A 		beq	.L1020
 5102 1cec 030050E3 		cmp	r0, #3
 5103 1cf0 0C318DE5 		str	r3, [sp, #268]
 5104 1cf4 0300000A 		beq	.L1020
 5105 1cf8 040050E3 		cmp	r0, #4
 5106 1cfc 10318DE5 		str	r3, [sp, #272]
 5107 1d00 0000000A 		beq	.L1020
 5108              	.LEHB62:
 5109 1d04 FEFFFFEB 		bl	abort
 5110              	.LEHE62:
 5111              	.L1020:
 5112 1d08 413F8DE2 		add	r3, sp, #260
 5113 1d0c 0221A0E1 		lsl	r2, r2, #2
 5114 1d10 000183E0 		add	r0, r3, r0, lsl #2
 5115 1d14 EC108DE2 		add	r1, sp, #236
 5116 1d18 FEFFFFEB 		bl	memcpy
 5117 1d1c 00319DE5 		ldr	r3, [sp, #256]
 5118 1d20 000053E3 		cmp	r3, #0
 5119 1d24 38308DE5 		str	r3, [sp, #56]
 5120 1d28 8E0300DA 		ble	.L1855
 5121 1d2c 08319DE5 		ldr	r3, [sp, #264]
 5122 1d30 00B0A0E3 		mov	fp, #0
 5123 1d34 84219DE5 		ldr	r2, [sp, #388]
 5124 1d38 0BA0A0E1 		mov	r10, fp
 5125 1d3c 90708DE5 		str	r7, [sp, #144]
 5126 1d40 0310A0E1 		mov	r1, r3
 5127 1d44 40308DE5 		str	r3, [sp, #64]
 5128 1d48 0C319DE5 		ldr	r3, [sp, #268]
 5129 1d4c 02E0A0E1 		mov	lr, r2
 5130 1d50 6C208DE5 		str	r2, [sp, #108]
 5131 1d54 64219DE5 		ldr	r2, [sp, #356]
 5132 1d58 0300A0E1 		mov	r0, r3
 5133 1d5c 3C308DE5 		str	r3, [sp, #60]
 5134 1d60 930101E0 		mul	r1, r3, r1
 5135 1d64 04319DE5 		ldr	r3, [sp, #260]
 5136 1d68 0260A0E1 		mov	r6, r2
 5137 1d6c 68208DE5 		str	r2, [sp, #104]
 5138 1d70 10219DE5 		ldr	r2, [sp, #272]
 5139 1d74 34308DE5 		str	r3, [sp, #52]
 5140 1d78 48319DE5 		ldr	r3, [sp, #328]
 5141 1d7c 02C0A0E1 		mov	ip, r2
 5142 1d80 30208DE5 		str	r2, [sp, #48]
 5143 1d84 8E20A0E1 		lsl	r2, lr, #1
 5144 1d88 4CE19DE5 		ldr	lr, [sp, #332]
 5145 1d8c 44308DE5 		str	r3, [sp, #68]
 5146 1d90 8630A0E1 		lsl	r3, r6, #1
 5147 1d94 900C00E0 		mul	r0, r0, ip
 5148 1d98 560BDFED 		vldr.64	d16, .L1883	@ int
 5149 1d9c 48E08DE5 		str	lr, [sp, #72]
 5150 1da0 02E084E0 		add	lr, r4, r2
 5151 1da4 002062E2 		rsb	r2, r2, #0
 5152 1da8 8CE08DE5 		str	lr, [sp, #140]
 5153 1dac 70208DE5 		str	r2, [sp, #112]
 5154 1db0 032085E0 		add	r2, r5, r3
 5155 1db4 003063E2 		rsb	r3, r3, #0
 5156 1db8 88208DE5 		str	r2, [sp, #136]
 5157 1dbc 60308DE5 		str	r3, [sp, #96]
 5158 1dc0 9C0102E0 		mul	r2, ip, r1
 5159 1dc4 50319DE5 		ldr	r3, [sp, #336]
 5160 1dc8 A8008DE5 		str	r0, [sp, #168]
 5161 1dcc 4C308DE5 		str	r3, [sp, #76]
 5162 1dd0 54319DE5 		ldr	r3, [sp, #340]
 5163 1dd4 AC208DE5 		str	r2, [sp, #172]
 5164 1dd8 50308DE5 		str	r3, [sp, #80]
 5165 1ddc 5C319DE5 		ldr	r3, [sp, #348]
 5166 1de0 A0308DE5 		str	r3, [sp, #160]
 5167 1de4 60319DE5 		ldr	r3, [sp, #352]
 5168 1de8 80308DE5 		str	r3, [sp, #128]
 5169 1dec 68319DE5 		ldr	r3, [sp, #360]
 5170 1df0 54308DE5 		str	r3, [sp, #84]
 5171 1df4 6C319DE5 		ldr	r3, [sp, #364]
 5172 1df8 58308DE5 		str	r3, [sp, #88]
 5173 1dfc 70319DE5 		ldr	r3, [sp, #368]
 5174 1e00 5C308DE5 		str	r3, [sp, #92]
 5175 1e04 74319DE5 		ldr	r3, [sp, #372]
 5176 1e08 64308DE5 		str	r3, [sp, #100]
 5177 1e0c 7C319DE5 		ldr	r3, [sp, #380]
 5178 1e10 A4308DE5 		str	r3, [sp, #164]
 5179 1e14 80319DE5 		ldr	r3, [sp, #384]
 5180 1e18 84308DE5 		str	r3, [sp, #132]
 5181 1e1c 78319DE5 		ldr	r3, [sp, #376]
 5182 1e20 B4308DE5 		str	r3, [sp, #180]
 5183 1e24 58319DE5 		ldr	r3, [sp, #344]
 5184 1e28 B0308DE5 		str	r3, [sp, #176]
 5185              	.L1022:
 5186 1e2c 38309DE5 		ldr	r3, [sp, #56]
 5187 1e30 050053E3 		cmp	r3, #5
 5188 1e34 34309DE5 		ldr	r3, [sp, #52]
 5189 1e38 003093C5 		ldrgt	r3, [r3]
 5190 1e3c 03005AE1 		cmp	r10, r3
 5191 1e40 38309DE5 		ldr	r3, [sp, #56]
 5192 1e44 2E0200AA 		bge	.L1194
 5193 1e48 010053E3 		cmp	r3, #1
 5194 1e4c 4403000A 		beq	.L1025
 5195 1e50 88309DE5 		ldr	r3, [sp, #136]
 5196 1e54 00B0A0E3 		mov	fp, #0
 5197 1e58 94308DE5 		str	r3, [sp, #148]
 5198 1e5c 8C309DE5 		ldr	r3, [sp, #140]
 5199 1e60 98308DE5 		str	r3, [sp, #152]
 5200 1e64 90309DE5 		ldr	r3, [sp, #144]
 5201 1e68 9C308DE5 		str	r3, [sp, #156]
 5202              	.L1026:
 5203 1e6c 38309DE5 		ldr	r3, [sp, #56]
 5204 1e70 050053E3 		cmp	r3, #5
 5205 1e74 34309DC5 		ldrgt	r3, [sp, #52]
 5206 1e78 40309DD5 		ldrle	r3, [sp, #64]
 5207 1e7c 043093C5 		ldrgt	r3, [r3, #4]
 5208 1e80 03005BE1 		cmp	fp, r3
 5209 1e84 F60200AA 		bge	.L1028
 5210 1e88 38309DE5 		ldr	r3, [sp, #56]
 5211 1e8c 020053E3 		cmp	r3, #2
 5212 1e90 2A03000A 		beq	.L1029
 5213 1e94 94309DE5 		ldr	r3, [sp, #148]
 5214 1e98 0090A0E3 		mov	r9, #0
 5215 1e9c 74308DE5 		str	r3, [sp, #116]
 5216 1ea0 98309DE5 		ldr	r3, [sp, #152]
 5217 1ea4 78308DE5 		str	r3, [sp, #120]
 5218 1ea8 9C309DE5 		ldr	r3, [sp, #156]
 5219 1eac 7C308DE5 		str	r3, [sp, #124]
 5220              	.L1030:
 5221 1eb0 38309DE5 		ldr	r3, [sp, #56]
 5222 1eb4 050053E3 		cmp	r3, #5
 5223 1eb8 34309DC5 		ldrgt	r3, [sp, #52]
 5224 1ebc 3C309DD5 		ldrle	r3, [sp, #60]
 5225 1ec0 083093C5 		ldrgt	r3, [r3, #8]
 5226 1ec4 090053E1 		cmp	r3, r9
 5227 1ec8 3F0200DA 		ble	.L1032
 5228 1ecc 38309DE5 		ldr	r3, [sp, #56]
 5229 1ed0 030053E3 		cmp	r3, #3
 5230 1ed4 E102000A 		beq	.L1856
 5231 1ed8 050053E3 		cmp	r3, #5
 5232 1edc 74C09DE5 		ldr	ip, [sp, #116]
 5233 1ee0 78709DE5 		ldr	r7, [sp, #120]
 5234 1ee4 0000A0E3 		mov	r0, #0
 5235 1ee8 7C809DE5 		ldr	r8, [sp, #124]
 5236 1eec C10000DA 		ble	.L1368
 5237 1ef0 D10000EA 		b	.L1857
 5238              	.L1884:
 5239 1ef4 00F020E3 		.align	3
 5240              	.L1883:
 5241 1ef8 01000000 		.word	1
 5242 1efc 00000000 		.word	0
 5243              	.L1877:
 5244 1f00 38309DE5 		ldr	r3, [sp, #56]
 5245 1f04 040053E3 		cmp	r3, #4
 5246 1f08 7D02001A 		bne	.L1858
 5247 1f0c 34309DE5 		ldr	r3, [sp, #52]
 5248 1f10 03005AE1 		cmp	r10, r3
 5249 1f14 4D0200AA 		bge	.L1859
 5250 1f18 40309DE5 		ldr	r3, [sp, #64]
 5251 1f1c 03005BE1 		cmp	fp, r3
 5252 1f20 490200AA 		bge	.L1860
 5253 1f24 3C309DE5 		ldr	r3, [sp, #60]
 5254 1f28 090053E1 		cmp	r3, r9
 5255 1f2c 450200DA 		ble	.L1861
 5256 1f30 30309DE5 		ldr	r3, [sp, #48]
 5257 1f34 000053E1 		cmp	r3, r0
 5258 1f38 410200DA 		ble	.L1862
 5259 1f3c 44309DE5 		ldr	r3, [sp, #68]
 5260 1f40 03005AE1 		cmp	r10, r3
 5261 1f44 3D0200AA 		bge	.L1863
 5262 1f48 48309DE5 		ldr	r3, [sp, #72]
 5263 1f4c 03005BE1 		cmp	fp, r3
 5264 1f50 390200AA 		bge	.L1864
 5265 1f54 4C309DE5 		ldr	r3, [sp, #76]
 5266 1f58 090053E1 		cmp	r3, r9
 5267 1f5c 350200DA 		ble	.L1865
 5268 1f60 50309DE5 		ldr	r3, [sp, #80]
 5269 1f64 000053E1 		cmp	r3, r0
 5270 1f68 310200DA 		ble	.L1866
 5271 1f6c 54309DE5 		ldr	r3, [sp, #84]
 5272 1f70 00F0DCF5 		pld	[ip]
 5273 1f74 03005AE1 		cmp	r10, r3
 5274 1f78 60309DE5 		ldr	r3, [sp, #96]
 5275 1f7c D3309CE1 		ldrsb	r3, [ip, r3]
 5276 1f80 2A0200AA 		bge	.L1867
 5277 1f84 58209DE5 		ldr	r2, [sp, #88]
 5278 1f88 02005BE1 		cmp	fp, r2
 5279 1f8c 260200AA 		bge	.L1868
 5280 1f90 5C209DE5 		ldr	r2, [sp, #92]
 5281 1f94 090052E1 		cmp	r2, r9
 5282 1f98 220200DA 		ble	.L1869
 5283 1f9c 64209DE5 		ldr	r2, [sp, #100]
 5284 1fa0 000052E1 		cmp	r2, r0
 5285 1fa4 1E0200DA 		ble	.L1870
 5286 1fa8 A0419DE5 		ldr	r4, [sp, #416]
 5287 1fac 8CE19DE5 		ldr	lr, [sp, #396]
 5288 1fb0 A4519DE5 		ldr	r5, [sp, #420]
 5289 1fb4 00F0D7F5 		pld	[r7]
 5290 1fb8 0EE083E0 		add	lr, r3, lr
 5291 1fbc 70309DE5 		ldr	r3, [sp, #112]
 5292 1fc0 1EE4A0E1 		lsl	lr, lr, r4
 5293 1fc4 A8619DE5 		ldr	r6, [sp, #424]
 5294 1fc8 D31097E1 		ldrsb	r1, [r7, r3]
 5295 1fcc 9E25C3E0 		smull	r2, r3, lr, r5
 5296 1fd0 05005EE1 		cmp	lr, r5
 5297 1fd4 02015E03 		cmpeq	lr, #-2147483648
 5298 1fd8 90519DE5 		ldr	r5, [sp, #400]
 5299 1fdc 01E0A003 		moveq	lr, #1
 5300 1fe0 00E0A013 		movne	lr, #0
 5301 1fe4 051081E0 		add	r1, r1, r5
 5302 1fe8 000052E3 		cmp	r2, #0
 5303 1fec 1114A0E1 		lsl	r1, r1, r4
 5304 1ff0 0040D3E2 		sbcs	r4, r3, #0
 5305 1ff4 0141A0A3 		movge	r4, #1073741824
 5306 1ff8 0050A0A3 		movge	r5, #0
 5307 1ffc 0741A0B3 		movlt	r4, #-1073741823
 5308 2000 0050E0B3 		mvnlt	r5, #0
 5309 2004 00005EE3 		cmp	lr, #0
 5310 2008 0221E013 		mvnne	r2, #-2147483648
 5311 200c 0800001A 		bne	.L1053
 5312 2010 024094E0 		adds	r4, r4, r2
 5313 2014 0350A5E0 		adc	r5, r5, r3
 5314 2018 0030A0E3 		mov	r3, #0
 5315 201c C52FA0E1 		asr	r2, r5, #31
 5316 2020 0221C2E3 		bic	r2, r2, #-2147483648
 5317 2024 042092E0 		adds	r2, r2, r4
 5318 2028 A22FA0E1 		lsr	r2, r2, #31
 5319 202c 0530A3E0 		adc	r3, r3, r5
 5320 2030 832082E1 		orr	r2, r2, r3, lsl #1
 5321              	.L1053:
 5322 2034 000056E3 		cmp	r6, #0
 5323 2038 00E066E2 		rsb	lr, r6, #0
 5324 203c 280200CA 		bgt	.L1871
 5325 2040 1F0076E3 		cmn	r6, #31
 5326 2044 1E0200BA 		blt	.L1872
 5327 2048 90EB01EE 		vmov.32	d17[0], lr
 5328 204c 526EA0E1 		asr	r6, r2, lr
 5329 2050 AC419DE5 		ldr	r4, [sp, #428]
 5330 2054 A07431F3 		vshl.u64	d7, d16, d17
 5331 2058 040051E1 		cmp	r1, r4
 5332 205c 02015103 		cmpeq	r1, #-2147483648
 5333 2060 103A17EE 		vmov	r3, s14	@ int
 5334 2064 015043E2 		sub	r5, r3, #1
 5335 2068 C5E0A0E1 		asr	lr, r5, #1
 5336 206c 025005E0 		and	r5, r5, r2
 5337 2070 A2EF8EE0 		add	lr, lr, r2, lsr #31
 5338 2074 9124C3E0 		smull	r2, r3, r1, r4
 5339 2078 0110A003 		moveq	r1, #1
 5340 207c 0010A013 		movne	r1, #0
 5341 2080 0E0055E1 		cmp	r5, lr
 5342 2084 06E0A0D1 		movle	lr, r6
 5343 2088 01E086C2 		addgt	lr, r6, #1
 5344 208c B0619DE5 		ldr	r6, [sp, #432]
 5345 2090 000052E3 		cmp	r2, #0
 5346 2094 0040D3E2 		sbcs	r4, r3, #0
 5347 2098 0141A0A3 		movge	r4, #1073741824
 5348 209c 0050A0A3 		movge	r5, #0
 5349 20a0 0741A0B3 		movlt	r4, #-1073741823
 5350 20a4 0050E0B3 		mvnlt	r5, #0
 5351 20a8 000051E3 		cmp	r1, #0
 5352 20ac 0221E013 		mvnne	r2, #-2147483648
 5353 20b0 0800001A 		bne	.L1057
 5354 20b4 024094E0 		adds	r4, r4, r2
 5355 20b8 0350A5E0 		adc	r5, r5, r3
 5356 20bc 0030A0E3 		mov	r3, #0
 5357 20c0 C52FA0E1 		asr	r2, r5, #31
 5358 20c4 0221C2E3 		bic	r2, r2, #-2147483648
 5359 20c8 042092E0 		adds	r2, r2, r4
 5360 20cc A22FA0E1 		lsr	r2, r2, #31
 5361 20d0 0530A3E0 		adc	r3, r3, r5
 5362 20d4 832082E1 		orr	r2, r2, r3, lsl #1
 5363              	.L1057:
 5364 20d8 000056E3 		cmp	r6, #0
 5365 20dc 001066E2 		rsb	r1, r6, #0
 5366 20e0 EF0100CA 		bgt	.L1873
 5367 20e4 1F0076E3 		cmn	r6, #31
 5368 20e8 E50100BA 		blt	.L1874
 5369 20ec 901B02EE 		vmov.32	d18[0], r1
 5370 20f0 5231A0E1 		asr	r3, r2, r1
 5371 20f4 98619DE5 		ldr	r6, [sp, #408]
 5372 20f8 A01472F3 		vshl.u64	d17, d16, d18
 5373 20fc 314B55EC 		vmov	r4, r5, d17	@ int
 5374 2100 015044E2 		sub	r5, r4, #1
 5375 2104 C510A0E1 		asr	r1, r5, #1
 5376 2108 025005E0 		and	r5, r5, r2
 5377 210c A22F81E0 		add	r2, r1, r2, lsr #31
 5378 2110 9C119DE5 		ldr	r1, [sp, #412]
 5379 2114 020055E1 		cmp	r5, r2
 5380 2118 0320A0D1 		movle	r2, r3
 5381 211c 012083C2 		addgt	r2, r3, #1
 5382 2120 0EE082E0 		add	lr, r2, lr
 5383 2124 9E46C5E0 		smull	r4, r5, lr, r6
 5384 2128 06005EE1 		cmp	lr, r6
 5385 212c 02015E03 		cmpeq	lr, #-2147483648
 5386 2130 01E0A003 		moveq	lr, #1
 5387 2134 00E0A013 		movne	lr, #0
 5388 2138 000054E3 		cmp	r4, #0
 5389 213c 0030D5E2 		sbcs	r3, r5, #0
 5390 2140 0121A0A3 		movge	r2, #1073741824
 5391 2144 0721A0B3 		movlt	r2, #-1073741823
 5392 2148 0030A0A3 		movge	r3, #0
 5393 214c 0030E0B3 		mvnlt	r3, #0
 5394 2150 00005EE3 		cmp	lr, #0
 5395 2154 0221E013 		mvnne	r2, #-2147483648
 5396 2158 0800001A 		bne	.L1061
 5397 215c 024094E0 		adds	r4, r4, r2
 5398 2160 0350A5E0 		adc	r5, r5, r3
 5399 2164 0030A0E3 		mov	r3, #0
 5400 2168 C52FA0E1 		asr	r2, r5, #31
 5401 216c 0221C2E3 		bic	r2, r2, #-2147483648
 5402 2170 042092E0 		adds	r2, r2, r4
 5403 2174 A22FA0E1 		lsr	r2, r2, #31
 5404 2178 0530A3E0 		adc	r3, r3, r5
 5405 217c 832082E1 		orr	r2, r2, r3, lsl #1
 5406              	.L1061:
 5407 2180 000051E3 		cmp	r1, #0
 5408 2184 00E061E2 		rsb	lr, r1, #0
 5409 2188 B50100CA 		bgt	.L1875
 5410 218c 6C309DE5 		ldr	r3, [sp, #108]
 5411 2190 1F0071E3 		cmn	r1, #31
 5412 2194 037087E0 		add	r7, r7, r3
 5413 2198 68309DE5 		ldr	r3, [sp, #104]
 5414 219c 03C08CE0 		add	ip, ip, r3
 5415 21a0 260200BA 		blt	.L1876
 5416 21a4 90EB02EE 		vmov.32	d18[0], lr
 5417 21a8 523EA0E1 		asr	r3, r2, lr
 5418 21ac 94619DE5 		ldr	r6, [sp, #404]
 5419 21b0 010080E2 		add	r0, r0, #1
 5420 21b4 A01472F3 		vshl.u64	d17, d16, d18
 5421 21b8 314B55EC 		vmov	r4, r5, d17	@ int
 5422 21bc 011044E2 		sub	r1, r4, #1
 5423 21c0 B4419DE5 		ldr	r4, [sp, #436]
 5424 21c4 C1E0A0E1 		asr	lr, r1, #1
 5425 21c8 021001E0 		and	r1, r1, r2
 5426 21cc B8519DE5 		ldr	r5, [sp, #440]
 5427 21d0 A22F8EE0 		add	r2, lr, r2, lsr #31
 5428 21d4 020051E1 		cmp	r1, r2
 5429 21d8 0310A0D1 		movle	r1, r3
 5430 21dc 011083C2 		addgt	r1, r3, #1
 5431 21e0 061081E0 		add	r1, r1, r6
 5432 21e4 040051E1 		cmp	r1, r4
 5433 21e8 0410A0B1 		movlt	r1, r4
 5434 21ec 050051E1 		cmp	r1, r5
 5435 21f0 0510A0A1 		movge	r1, r5
 5436 21f4 0110C8E4 		strb	r1, [r8], #1
 5437              	.L1368:
 5438 21f8 30309DE5 		ldr	r3, [sp, #48]
 5439              	.L1034:
 5440 21fc 000053E1 		cmp	r3, r0
 5441 2200 3EFFFFCA 		bgt	.L1877
 5442 2204 7C309DE5 		ldr	r3, [sp, #124]
 5443 2208 019089E2 		add	r9, r9, #1
 5444 220c 30209DE5 		ldr	r2, [sp, #48]
 5445 2210 023083E0 		add	r3, r3, r2
 5446 2214 84209DE5 		ldr	r2, [sp, #132]
 5447 2218 7C308DE5 		str	r3, [sp, #124]
 5448 221c 78309DE5 		ldr	r3, [sp, #120]
 5449 2220 023083E0 		add	r3, r3, r2
 5450 2224 80209DE5 		ldr	r2, [sp, #128]
 5451 2228 78308DE5 		str	r3, [sp, #120]
 5452 222c 74309DE5 		ldr	r3, [sp, #116]
 5453 2230 023083E0 		add	r3, r3, r2
 5454 2234 74308DE5 		str	r3, [sp, #116]
 5455 2238 1CFFFFEA 		b	.L1030
 5456              	.L1857:
 5457 223c 34309DE5 		ldr	r3, [sp, #52]
 5458 2240 0C3093E5 		ldr	r3, [r3, #12]
 5459 2244 ECFFFFEA 		b	.L1034
 5460              	.L1820:
 5461 2248 000053E3 		cmp	r3, #0
 5462 224c 0110A003 		moveq	r1, #1
 5463 2250 03C0A001 		moveq	ip, r3
 5464 2254 9BFAFF0A 		beq	.L1076
 5465 2258 7AFAFFEA 		b	.L1075
 5466              	.L1821:
 5467 225c 000053E3 		cmp	r3, #0
 5468 2260 0100A003 		moveq	r0, #1
 5469 2264 03E0A001 		moveq	lr, r3
 5470 2268 EAFAFF0A 		beq	.L1089
 5471 226c C9FAFFEA 		b	.L1088
 5472              	.L1822:
 5473 2270 000053E3 		cmp	r3, #0
 5474 2274 0120A003 		moveq	r2, #1
 5475 2278 0360A001 		moveq	r6, r3
 5476 227c 39FBFF0A 		beq	.L1102
 5477 2280 18FBFFEA 		b	.L1101
 5478              	.L1158:
 5479 2284 0030A0E3 		mov	r3, #0
 5480 2288 54218DE5 		str	r2, [sp, #340]
 5481 228c 64318DE5 		str	r3, [sp, #356]
 5482 2290 14FAFFEA 		b	.L1338
 5483              	.L1852:
 5484 2294 080093E5 		ldr	r0, [r3, #8]
 5485 2298 01C0A0E3 		mov	ip, #1
 5486 229c 0C2093E5 		ldr	r2, [r3, #12]
 5487 22a0 041093E5 		ldr	r1, [r3, #4]
 5488 22a4 50018DE5 		str	r0, [sp, #336]
 5489 22a8 54218DE5 		str	r2, [sp, #340]
 5490 22ac 60218DE5 		str	r2, [sp, #352]
 5491 22b0 900202E0 		mul	r2, r0, r2
 5492 22b4 000093E5 		ldr	r0, [r3]
 5493 22b8 4C118DE5 		str	r1, [sp, #332]
 5494 22bc 64C18DE5 		str	ip, [sp, #356]
 5495 22c0 910201E0 		mul	r1, r1, r2
 5496 22c4 5C218DE5 		str	r2, [sp, #348]
 5497 22c8 48018DE5 		str	r0, [sp, #328]
 5498 22cc 58118DE5 		str	r1, [sp, #344]
 5499 22d0 2AFEFFEA 		b	.L963
 5500              	.L964:
 5501 22d4 08C090E5 		ldr	ip, [r0, #8]
 5502 22d8 050056E3 		cmp	r6, #5
 5503 22dc 0C2090E5 		ldr	r2, [r0, #12]
 5504 22e0 01E0A0E3 		mov	lr, #1
 5505 22e4 041090E5 		ldr	r1, [r0, #4]
 5506 22e8 70C18DE5 		str	ip, [sp, #368]
 5507 22ec 74218DE5 		str	r2, [sp, #372]
 5508 22f0 80218DE5 		str	r2, [sp, #384]
 5509 22f4 9C0202E0 		mul	r2, ip, r2
 5510 22f8 00C090E5 		ldr	ip, [r0]
 5511 22fc 6C118DE5 		str	r1, [sp, #364]
 5512 2300 84E18DE5 		str	lr, [sp, #388]
 5513 2304 910201E0 		mul	r1, r1, r2
 5514 2308 7C218DE5 		str	r2, [sp, #380]
 5515 230c 68C18DE5 		str	ip, [sp, #360]
 5516 2310 78118DE5 		str	r1, [sp, #376]
 5517 2314 BB0000CA 		bgt	.L1878
 5518 2318 000056E3 		cmp	r6, #0
 5519 231c 020200DA 		ble	.L970
 5520 2320 002090E5 		ldr	r2, [r0]
 5521 2324 020053E1 		cmp	r3, r2
 5522 2328 0900000A 		beq	.L989
 5523 232c 010053E3 		cmp	r3, #1
 5524 2330 0030A003 		moveq	r3, #0
 5525 2334 48218D05 		streq	r2, [sp, #328]
 5526 2338 58318D05 		streq	r3, [sp, #344]
 5527 233c 0400000A 		beq	.L989
 5528 2340 010052E3 		cmp	r2, #1
 5529 2344 0802001A 		bne	.L973
 5530 2348 0020A0E3 		mov	r2, #0
 5531 234c 68318DE5 		str	r3, [sp, #360]
 5532 2350 78218DE5 		str	r2, [sp, #376]
 5533              	.L989:
 5534 2354 010056E3 		cmp	r6, #1
 5535 2358 F301000A 		beq	.L970
 5536 235c 20319DE5 		ldr	r3, [sp, #288]
 5537 2360 042090E5 		ldr	r2, [r0, #4]
 5538 2364 030052E1 		cmp	r2, r3
 5539 2368 0900000A 		beq	.L992
 5540 236c 010053E3 		cmp	r3, #1
 5541 2370 0030A003 		moveq	r3, #0
 5542 2374 4C218D05 		streq	r2, [sp, #332]
 5543 2378 5C318D05 		streq	r3, [sp, #348]
 5544 237c 0400000A 		beq	.L992
 5545 2380 010052E3 		cmp	r2, #1
 5546 2384 F801001A 		bne	.L973
 5547 2388 0020A0E3 		mov	r2, #0
 5548 238c 6C318DE5 		str	r3, [sp, #364]
 5549 2390 7C218DE5 		str	r2, [sp, #380]
 5550              	.L992:
 5551 2394 020056E3 		cmp	r6, #2
 5552 2398 E301000A 		beq	.L970
 5553 239c 24319DE5 		ldr	r3, [sp, #292]
 5554 23a0 082090E5 		ldr	r2, [r0, #8]
 5555 23a4 030052E1 		cmp	r2, r3
 5556 23a8 0900000A 		beq	.L994
 5557 23ac 010053E3 		cmp	r3, #1
 5558 23b0 0030A003 		moveq	r3, #0
 5559 23b4 50218D05 		streq	r2, [sp, #336]
 5560 23b8 60318D05 		streq	r3, [sp, #352]
 5561 23bc 0400000A 		beq	.L994
 5562 23c0 010052E3 		cmp	r2, #1
 5563 23c4 E801001A 		bne	.L973
 5564 23c8 0020A0E3 		mov	r2, #0
 5565 23cc 70318DE5 		str	r3, [sp, #368]
 5566 23d0 80218DE5 		str	r2, [sp, #384]
 5567              	.L994:
 5568 23d4 030056E3 		cmp	r6, #3
 5569 23d8 D301000A 		beq	.L970
 5570 23dc 28319DE5 		ldr	r3, [sp, #296]
 5571 23e0 0C2090E5 		ldr	r2, [r0, #12]
 5572 23e4 030052E1 		cmp	r2, r3
 5573 23e8 0900000A 		beq	.L997
 5574              	.L1004:
 5575 23ec 010053E3 		cmp	r3, #1
 5576 23f0 0030A003 		moveq	r3, #0
 5577 23f4 54218D05 		streq	r2, [sp, #340]
 5578 23f8 64318D05 		streq	r3, [sp, #356]
 5579 23fc 0400000A 		beq	.L997
 5580 2400 010052E3 		cmp	r2, #1
 5581 2404 0020A003 		moveq	r2, #0
 5582 2408 74318D05 		streq	r3, [sp, #372]
 5583 240c 84218D05 		streq	r2, [sp, #388]
 5584 2410 D501001A 		bne	.L973
 5585              	.L997:
 5586 2414 000050E3 		cmp	r0, #0
 5587 2418 1DFEFF0A 		beq	.L1336
 5588 241c FEFFFFEB 		bl	_ZdaPv
 5589 2420 1BFEFFEA 		b	.L1336
 5590              	.L1142:
 5591 2424 0030A0E3 		mov	r3, #0
 5592 2428 48018DE5 		str	r0, [sp, #328]
 5593 242c 58318DE5 		str	r3, [sp, #344]
 5594 2430 88F9FFEA 		b	.L1141
 5595              	.L1146:
 5596 2434 0030A0E3 		mov	r3, #0
 5597 2438 50118DE5 		str	r1, [sp, #336]
 5598 243c 60318DE5 		str	r3, [sp, #352]
 5599 2440 9CF9FFEA 		b	.L1147
 5600              	.L1144:
 5601 2444 0030A0E3 		mov	r3, #0
 5602 2448 4CC18DE5 		str	ip, [sp, #332]
 5603 244c 5C318DE5 		str	r3, [sp, #348]
 5604 2450 8CF9FFEA 		b	.L1145
 5605              	.L1846:
 5606              	.LEHB63:
 5607 2454 FEFFFFEB 		bl	abort
 5608              	.L1845:
 5609 2458 FEFFFFEB 		bl	abort
 5610              	.L1847:
 5611 245c FEFFFFEB 		bl	abort
 5612              	.L1844:
 5613 2460 FEFFFFEB 		bl	abort
 5614              	.LEHE63:
 5615              	.L1829:
 5616              	.LEHB64:
 5617 2464 FEFFFFEB 		bl	abort
 5618              	.L1475:
 5619              	.L1766:
 5620 2468 38309DE5 		ldr	r3, [sp, #56]
 5621 246c 050053E3 		cmp	r3, #5
 5622 2470 89FBFFDA 		ble	.L1186
 5623 2474 04019DE5 		ldr	r0, [sp, #260]
 5624 2478 000050E3 		cmp	r0, #0
 5625 247c 85FBFF1A 		bne	.L1702
 5626 2480 85FBFFEA 		b	.L1186
 5627              	.L1831:
 5628 2484 FEFFFFEB 		bl	abort
 5629              	.L1830:
 5630 2488 FEFFFFEB 		bl	abort
 5631              	.L1836:
 5632 248c FEFFFFEB 		bl	abort
 5633              	.L1835:
 5634 2490 FEFFFFEB 		bl	abort
 5635              	.L1834:
 5636 2494 FEFFFFEB 		bl	abort
 5637              	.L1833:
 5638 2498 FEFFFFEB 		bl	abort
 5639              	.L1832:
 5640 249c FEFFFFEB 		bl	abort
 5641              	.L1853:
 5642 24a0 00E093E5 		ldr	lr, [r3]
 5643 24a4 0E0050E1 		cmp	r0, lr
 5644 24a8 0900000A 		beq	.L981
 5645 24ac 01005EE3 		cmp	lr, #1
 5646 24b0 00E0A003 		moveq	lr, #0
 5647 24b4 48018D05 		streq	r0, [sp, #328]
 5648 24b8 58E18D05 		streq	lr, [sp, #344]
 5649 24bc 0400000A 		beq	.L981
 5650 24c0 010050E3 		cmp	r0, #1
 5651 24c4 A801001A 		bne	.L973
 5652 24c8 0000A0E3 		mov	r0, #0
 5653 24cc 68E18DE5 		str	lr, [sp, #360]
 5654 24d0 78018DE5 		str	r0, [sp, #376]
 5655              	.L981:
 5656 24d4 040093E5 		ldr	r0, [r3, #4]
 5657 24d8 0C0050E1 		cmp	r0, ip
 5658 24dc 0900000A 		beq	.L983
 5659 24e0 010050E3 		cmp	r0, #1
 5660 24e4 0000A003 		moveq	r0, #0
 5661 24e8 4CC18D05 		streq	ip, [sp, #332]
 5662 24ec 5C018D05 		streq	r0, [sp, #348]
 5663 24f0 0400000A 		beq	.L983
 5664 24f4 01005CE3 		cmp	ip, #1
 5665 24f8 9B01001A 		bne	.L973
 5666 24fc 00C0A0E3 		mov	ip, #0
 5667 2500 6C018DE5 		str	r0, [sp, #364]
 5668 2504 7CC18DE5 		str	ip, [sp, #380]
 5669              	.L983:
 5670 2508 080093E5 		ldr	r0, [r3, #8]
 5671 250c 010050E1 		cmp	r0, r1
 5672 2510 0900000A 		beq	.L985
 5673 2514 010050E3 		cmp	r0, #1
 5674 2518 0000A003 		moveq	r0, #0
 5675 251c 50118D05 		streq	r1, [sp, #336]
 5676 2520 60018D05 		streq	r0, [sp, #352]
 5677 2524 0400000A 		beq	.L985
 5678 2528 010051E3 		cmp	r1, #1
 5679 252c 8E01001A 		bne	.L973
 5680 2530 0010A0E3 		mov	r1, #0
 5681 2534 70018DE5 		str	r0, [sp, #368]
 5682 2538 80118DE5 		str	r1, [sp, #384]
 5683              	.L985:
 5684 253c 0C3093E5 		ldr	r3, [r3, #12]
 5685 2540 030052E1 		cmp	r2, r3
 5686 2544 CBFDFF1A 		bne	.L1717
 5687 2548 D1FDFFEA 		b	.L1336
 5688              	.L1202:
 5689 254c 90309DE5 		ldr	r3, [sp, #144]
 5690 2550 01B08BE2 		add	fp, fp, #1
 5691 2554 B4209DE5 		ldr	r2, [sp, #180]
 5692 2558 023083E0 		add	r3, r3, r2
 5693 255c A8209DE5 		ldr	r2, [sp, #168]
 5694 2560 90308DE5 		str	r3, [sp, #144]
 5695 2564 8C309DE5 		ldr	r3, [sp, #140]
 5696 2568 023083E0 		add	r3, r3, r2
 5697 256c A4209DE5 		ldr	r2, [sp, #164]
 5698 2570 8C308DE5 		str	r3, [sp, #140]
 5699 2574 88309DE5 		ldr	r3, [sp, #136]
 5700 2578 023083E0 		add	r3, r3, r2
 5701 257c 88308DE5 		str	r3, [sp, #136]
 5702 2580 DDFBFFEA 		b	.L1196
 5703              	.L1837:
 5704 2584 003000E3 		movw	r3, #:lower16:.LC1
 5705 2588 002000E3 		movw	r2, #:lower16:.LANCHOR0
 5706 258c 000000E3 		movw	r0, #:lower16:.LC2
 5707 2590 003040E3 		movt	r3, #:upper16:.LC1
 5708 2594 002040E3 		movt	r2, #:upper16:.LANCHOR0
 5709 2598 000040E3 		movt	r0, #:upper16:.LC2
 5710 259c 661100E3 		movw	r1, #358
 5711 25a0 FEFFFFEB 		bl	__assert_func
 5712              	.L1169:
 5713 25a4 0010A0E3 		mov	r1, #0
 5714 25a8 48218DE5 		str	r2, [sp, #328]
 5715 25ac 58118DE5 		str	r1, [sp, #344]
 5716 25b0 5DFBFFEA 		b	.L1168
 5717              	.L1171:
 5718 25b4 0010A0E3 		mov	r1, #0
 5719 25b8 4C218DE5 		str	r2, [sp, #332]
 5720 25bc 5C118DE5 		str	r1, [sp, #348]
 5721 25c0 64FBFFEA 		b	.L1170
 5722              	.L1839:
 5723 25c4 003000E3 		movw	r3, #:lower16:.LC1
 5724 25c8 002000E3 		movw	r2, #:lower16:.LANCHOR0
 5725 25cc 000000E3 		movw	r0, #:lower16:.LC2
 5726 25d0 003040E3 		movt	r3, #:upper16:.LC1
 5727 25d4 002040E3 		movt	r2, #:upper16:.LANCHOR0
 5728 25d8 000040E3 		movt	r0, #:upper16:.LC2
 5729 25dc 661100E3 		movw	r1, #358
 5730 25e0 FEFFFFEB 		bl	__assert_func
 5731              	.L1838:
 5732 25e4 003000E3 		movw	r3, #:lower16:.LC3
 5733 25e8 002000E3 		movw	r2, #:lower16:.LANCHOR0
 5734 25ec 000000E3 		movw	r0, #:lower16:.LC2
 5735 25f0 003040E3 		movt	r3, #:upper16:.LC3
 5736 25f4 002040E3 		movt	r2, #:upper16:.LANCHOR0
 5737 25f8 000040E3 		movt	r0, #:upper16:.LC2
 5738 25fc 671100E3 		movw	r1, #359
 5739 2600 FEFFFFEB 		bl	__assert_func
 5740              	.LEHE64:
 5741              	.L1827:
 5742              	.LEHB65:
 5743 2604 FEFFFFEB 		bl	abort
 5744              	.LEHE65:
 5745              	.L1878:
 5746 2608 001093E5 		ldr	r1, [r3]
 5747 260c 002090E5 		ldr	r2, [r0]
 5748 2610 020051E1 		cmp	r1, r2
 5749 2614 0600000A 		beq	.L998
 5750 2618 010051E3 		cmp	r1, #1
 5751 261c BA00000A 		beq	.L999
 5752 2620 010052E3 		cmp	r2, #1
 5753 2624 5001001A 		bne	.L973
 5754 2628 0020A0E3 		mov	r2, #0
 5755 262c 68118DE5 		str	r1, [sp, #360]
 5756 2630 78218DE5 		str	r2, [sp, #376]
 5757              	.L998:
 5758 2634 041093E5 		ldr	r1, [r3, #4]
 5759 2638 042090E5 		ldr	r2, [r0, #4]
 5760 263c 020051E1 		cmp	r1, r2
 5761 2640 0600000A 		beq	.L1000
 5762 2644 010051E3 		cmp	r1, #1
 5763 2648 B300000A 		beq	.L1001
 5764 264c 010052E3 		cmp	r2, #1
 5765 2650 4501001A 		bne	.L973
 5766 2654 0020A0E3 		mov	r2, #0
 5767 2658 6C118DE5 		str	r1, [sp, #364]
 5768 265c 7C218DE5 		str	r2, [sp, #380]
 5769              	.L1000:
 5770 2660 081093E5 		ldr	r1, [r3, #8]
 5771 2664 082090E5 		ldr	r2, [r0, #8]
 5772 2668 020051E1 		cmp	r1, r2
 5773 266c 0600000A 		beq	.L1002
 5774 2670 010051E3 		cmp	r1, #1
 5775 2674 0801000A 		beq	.L1003
 5776 2678 010052E3 		cmp	r2, #1
 5777 267c 3A01001A 		bne	.L973
 5778 2680 0020A0E3 		mov	r2, #0
 5779 2684 70118DE5 		str	r1, [sp, #368]
 5780 2688 80218DE5 		str	r2, [sp, #384]
 5781              	.L1002:
 5782 268c 0C3093E5 		ldr	r3, [r3, #12]
 5783 2690 0C2090E5 		ldr	r2, [r0, #12]
 5784 2694 020053E1 		cmp	r3, r2
 5785 2698 53FFFF1A 		bne	.L1004
 5786 269c 5CFFFFEA 		b	.L997
 5787              	.L1842:
 5788 26a0 003000E3 		movw	r3, #:lower16:.LC3
 5789 26a4 002000E3 		movw	r2, #:lower16:.LANCHOR0
 5790 26a8 000000E3 		movw	r0, #:lower16:.LC2
 5791 26ac 003040E3 		movt	r3, #:upper16:.LC3
 5792 26b0 002040E3 		movt	r2, #:upper16:.LANCHOR0
 5793 26b4 000040E3 		movt	r0, #:upper16:.LC2
 5794 26b8 671100E3 		movw	r1, #359
 5795              	.LEHB66:
 5796 26bc FEFFFFEB 		bl	__assert_func
 5797              	.L1841:
 5798 26c0 003000E3 		movw	r3, #:lower16:.LC1
 5799 26c4 002000E3 		movw	r2, #:lower16:.LANCHOR0
 5800 26c8 000000E3 		movw	r0, #:lower16:.LC2
 5801 26cc 003040E3 		movt	r3, #:upper16:.LC1
 5802 26d0 002040E3 		movt	r2, #:upper16:.LANCHOR0
 5803 26d4 000040E3 		movt	r0, #:upper16:.LC2
 5804 26d8 661100E3 		movw	r1, #358
 5805 26dc FEFFFFEB 		bl	__assert_func
 5806              	.L1843:
 5807 26e0 FEFFFFEB 		bl	abort
 5808              	.L1840:
 5809 26e4 003000E3 		movw	r3, #:lower16:.LC3
 5810 26e8 002000E3 		movw	r2, #:lower16:.LANCHOR0
 5811 26ec 000000E3 		movw	r0, #:lower16:.LC2
 5812 26f0 003040E3 		movt	r3, #:upper16:.LC3
 5813 26f4 002040E3 		movt	r2, #:upper16:.LANCHOR0
 5814 26f8 000040E3 		movt	r0, #:upper16:.LC2
 5815 26fc 671100E3 		movw	r1, #359
 5816 2700 FEFFFFEB 		bl	__assert_func
 5817              	.LEHE66:
 5818              	.L1194:
 5819 2704 050053E3 		cmp	r3, #5
 5820 2708 040000DA 		ble	.L1229
 5821 270c 34309DE5 		ldr	r3, [sp, #52]
 5822 2710 000053E3 		cmp	r3, #0
 5823 2714 0100000A 		beq	.L1229
 5824 2718 0300A0E1 		mov	r0, r3
 5825 271c FEFFFFEB 		bl	_ZdaPv
 5826              	.L1229:
 5827 2720 E8309DE5 		ldr	r3, [sp, #232]
 5828 2724 050053E3 		cmp	r3, #5
 5829 2728 030000DA 		ble	.L1231
 5830 272c EC009DE5 		ldr	r0, [sp, #236]
 5831 2730 000050E3 		cmp	r0, #0
 5832 2734 0000000A 		beq	.L1231
 5833 2738 FEFFFFEB 		bl	_ZdaPv
 5834              	.L1231:
 5835 273c D0309DE5 		ldr	r3, [sp, #208]
 5836 2740 050053E3 		cmp	r3, #5
 5837 2744 030000DA 		ble	.L1234
 5838 2748 D4009DE5 		ldr	r0, [sp, #212]
 5839 274c 000050E3 		cmp	r0, #0
 5840 2750 0000000A 		beq	.L1234
 5841 2754 FEFFFFEB 		bl	_ZdaPv
 5842              	.L1234:
 5843 2758 B8309DE5 		ldr	r3, [sp, #184]
 5844 275c 050053E3 		cmp	r3, #5
 5845 2760 2DF6FFDA 		ble	.L1604
 5846 2764 BC009DE5 		ldr	r0, [sp, #188]
 5847 2768 000050E3 		cmp	r0, #0
 5848 276c 36F8FF1A 		bne	.L1705
 5849 2770 29F6FFEA 		b	.L1604
 5850              	.L1173:
 5851 2774 0010A0E3 		mov	r1, #0
 5852 2778 50218DE5 		str	r2, [sp, #336]
 5853 277c 60118DE5 		str	r1, [sp, #352]
 5854 2780 FFFAFFEA 		b	.L1172
 5855              	.L988:
 5856 2784 0030A0E3 		mov	r3, #0
 5857 2788 54218DE5 		str	r2, [sp, #340]
 5858 278c 64318DE5 		str	r3, [sp, #356]
 5859 2790 3FFDFFEA 		b	.L1336
 5860              	.L1198:
 5861 2794 9C309DE5 		ldr	r3, [sp, #156]
 5862 2798 01A08AE2 		add	r10, r10, #1
 5863 279c B0209DE5 		ldr	r2, [sp, #176]
 5864 27a0 023083E0 		add	r3, r3, r2
 5865 27a4 A0209DE5 		ldr	r2, [sp, #160]
 5866 27a8 9C308DE5 		str	r3, [sp, #156]
 5867 27ac 98309DE5 		ldr	r3, [sp, #152]
 5868 27b0 023083E0 		add	r3, r3, r2
 5869 27b4 AC209DE5 		ldr	r2, [sp, #172]
 5870 27b8 98308DE5 		str	r3, [sp, #152]
 5871 27bc 94309DE5 		ldr	r3, [sp, #148]
 5872 27c0 023083E0 		add	r3, r3, r2
 5873 27c4 94308DE5 		str	r3, [sp, #148]
 5874 27c8 3BFBFFEA 		b	.L1192
 5875              	.L1032:
 5876 27cc 9C309DE5 		ldr	r3, [sp, #156]
 5877 27d0 01B08BE2 		add	fp, fp, #1
 5878 27d4 A8209DE5 		ldr	r2, [sp, #168]
 5879 27d8 023083E0 		add	r3, r3, r2
 5880 27dc A4209DE5 		ldr	r2, [sp, #164]
 5881 27e0 9C308DE5 		str	r3, [sp, #156]
 5882 27e4 98309DE5 		ldr	r3, [sp, #152]
 5883 27e8 023083E0 		add	r3, r3, r2
 5884 27ec A0209DE5 		ldr	r2, [sp, #160]
 5885 27f0 98308DE5 		str	r3, [sp, #152]
 5886 27f4 94309DE5 		ldr	r3, [sp, #148]
 5887 27f8 023083E0 		add	r3, r3, r2
 5888 27fc 94308DE5 		str	r3, [sp, #148]
 5889 2800 99FDFFEA 		b	.L1026
 5890              	.L974:
 5891 2804 0030A0E3 		mov	r3, #0
 5892 2808 4CC18DE5 		str	ip, [sp, #332]
 5893 280c 5C318DE5 		str	r3, [sp, #348]
 5894 2810 07FDFFEA 		b	.L975
 5895              	.L976:
 5896 2814 0030A0E3 		mov	r3, #0
 5897 2818 50118DE5 		str	r1, [sp, #336]
 5898 281c 60318DE5 		str	r3, [sp, #352]
 5899 2820 0FFDFFEA 		b	.L977
 5900              	.L1870:
 5901              	.LEHB67:
 5902 2824 FEFFFFEB 		bl	abort
 5903              	.L1869:
 5904 2828 FEFFFFEB 		bl	abort
 5905              	.L1868:
 5906 282c FEFFFFEB 		bl	abort
 5907              	.L1867:
 5908 2830 FEFFFFEB 		bl	abort
 5909              	.L1866:
 5910 2834 FEFFFFEB 		bl	abort
 5911              	.L1865:
 5912 2838 FEFFFFEB 		bl	abort
 5913              	.L1864:
 5914 283c FEFFFFEB 		bl	abort
 5915              	.L1863:
 5916 2840 FEFFFFEB 		bl	abort
 5917              	.L1862:
 5918 2844 FEFFFFEB 		bl	abort
 5919              	.L1861:
 5920 2848 FEFFFFEB 		bl	abort
 5921              	.L1860:
 5922 284c FEFFFFEB 		bl	abort
 5923              	.L1859:
 5924 2850 FEFFFFEB 		bl	abort
 5925              	.L972:
 5926 2854 0030A0E3 		mov	r3, #0
 5927 2858 48018DE5 		str	r0, [sp, #328]
 5928 285c 58318DE5 		str	r3, [sp, #344]
 5929 2860 E7FCFFEA 		b	.L971
 5930              	.L1875:
 5931 2864 003000E3 		movw	r3, #:lower16:.LC1
 5932 2868 002000E3 		movw	r2, #:lower16:.LANCHOR0
 5933 286c 000000E3 		movw	r0, #:lower16:.LC2
 5934 2870 003040E3 		movt	r3, #:upper16:.LC1
 5935 2874 002040E3 		movt	r2, #:upper16:.LANCHOR0
 5936 2878 000040E3 		movt	r0, #:upper16:.LC2
 5937 287c 661100E3 		movw	r1, #358
 5938 2880 FEFFFFEB 		bl	__assert_func
 5939              	.L1874:
 5940 2884 003000E3 		movw	r3, #:lower16:.LC3
 5941 2888 002000E3 		movw	r2, #:lower16:.LANCHOR0
 5942 288c 000000E3 		movw	r0, #:lower16:.LC2
 5943 2890 003040E3 		movt	r3, #:upper16:.LC3
 5944 2894 002040E3 		movt	r2, #:upper16:.LANCHOR0
 5945 2898 000040E3 		movt	r0, #:upper16:.LC2
 5946 289c 671100E3 		movw	r1, #359
 5947 28a0 FEFFFFEB 		bl	__assert_func
 5948              	.L1873:
 5949 28a4 003000E3 		movw	r3, #:lower16:.LC1
 5950 28a8 002000E3 		movw	r2, #:lower16:.LANCHOR0
 5951 28ac 000000E3 		movw	r0, #:lower16:.LC2
 5952 28b0 003040E3 		movt	r3, #:upper16:.LC1
 5953 28b4 002040E3 		movt	r2, #:upper16:.LANCHOR0
 5954 28b8 000040E3 		movt	r0, #:upper16:.LC2
 5955 28bc 661100E3 		movw	r1, #358
 5956 28c0 FEFFFFEB 		bl	__assert_func
 5957              	.L1872:
 5958 28c4 003000E3 		movw	r3, #:lower16:.LC3
 5959 28c8 002000E3 		movw	r2, #:lower16:.LANCHOR0
 5960 28cc 000000E3 		movw	r0, #:lower16:.LC2
 5961 28d0 003040E3 		movt	r3, #:upper16:.LC3
 5962 28d4 002040E3 		movt	r2, #:upper16:.LANCHOR0
 5963 28d8 000040E3 		movt	r0, #:upper16:.LC2
 5964 28dc 671100E3 		movw	r1, #359
 5965 28e0 FEFFFFEB 		bl	__assert_func
 5966              	.L1871:
 5967 28e4 003000E3 		movw	r3, #:lower16:.LC1
 5968 28e8 002000E3 		movw	r2, #:lower16:.LANCHOR0
 5969 28ec 000000E3 		movw	r0, #:lower16:.LC2
 5970 28f0 003040E3 		movt	r3, #:upper16:.LC1
 5971 28f4 002040E3 		movt	r2, #:upper16:.LANCHOR0
 5972 28f8 000040E3 		movt	r0, #:upper16:.LC2
 5973 28fc 661100E3 		movw	r1, #358
 5974 2900 FEFFFFEB 		bl	__assert_func
 5975              	.LEHE67:
 5976              	.L1858:
 5977              	.LEHB68:
 5978 2904 FEFFFFEB 		bl	abort
 5979              	.LEHE68:
 5980              	.L1471:
 5981 2908 D6FEFFEA 		b	.L1766
 5982              	.L999:
 5983 290c 0010A0E3 		mov	r1, #0
 5984 2910 48218DE5 		str	r2, [sp, #328]
 5985 2914 58118DE5 		str	r1, [sp, #344]
 5986 2918 45FFFFEA 		b	.L998
 5987              	.L1001:
 5988 291c 0010A0E3 		mov	r1, #0
 5989 2920 4C218DE5 		str	r2, [sp, #332]
 5990 2924 5C118DE5 		str	r1, [sp, #348]
 5991 2928 4CFFFFEA 		b	.L1000
 5992              	.L1809:
 5993 292c 003000E3 		movw	r3, #:lower16:.LC3
 5994 2930 002000E3 		movw	r2, #:lower16:.LANCHOR0
 5995 2934 000000E3 		movw	r0, #:lower16:.LC2
 5996 2938 003040E3 		movt	r3, #:upper16:.LC3
 5997 293c 002040E3 		movt	r2, #:upper16:.LANCHOR0
 5998 2940 000040E3 		movt	r0, #:upper16:.LC2
 5999 2944 671100E3 		movw	r1, #359
 6000              	.LEHB69:
 6001 2948 FEFFFFEB 		bl	__assert_func
 6002              	.L1465:
 6003              	.L1757:
 6004 294c 68319DE5 		ldr	r3, [sp, #360]
 6005 2950 050053E3 		cmp	r3, #5
 6006 2954 030000DA 		ble	.L1328
 6007 2958 6C019DE5 		ldr	r0, [sp, #364]
 6008 295c 000050E3 		cmp	r0, #0
 6009 2960 0000000A 		beq	.L1328
 6010 2964 FEFFFFEB 		bl	_ZdaPv
 6011              	.L1328:
 6012 2968 48319DE5 		ldr	r3, [sp, #328]
 6013 296c 050053E3 		cmp	r3, #5
 6014 2970 030000DA 		ble	.L1330
 6015 2974 4C019DE5 		ldr	r0, [sp, #332]
 6016 2978 000050E3 		cmp	r0, #0
 6017 297c 0000000A 		beq	.L1330
 6018 2980 FEFFFFEB 		bl	_ZdaPv
 6019              	.L1330:
 6020 2984 30319DE5 		ldr	r3, [sp, #304]
 6021 2988 050053E3 		cmp	r3, #5
 6022 298c 57FAFFDA 		ble	.L1331
 6023 2990 34019DE5 		ldr	r0, [sp, #308]
 6024 2994 000050E3 		cmp	r0, #0
 6025 2998 53FAFF1A 		bne	.L1716
 6026 299c 53FAFFEA 		b	.L1331
 6027              	.L1808:
 6028 29a0 003000E3 		movw	r3, #:lower16:.LC1
 6029 29a4 002000E3 		movw	r2, #:lower16:.LANCHOR0
 6030 29a8 000000E3 		movw	r0, #:lower16:.LC2
 6031 29ac 003040E3 		movt	r3, #:upper16:.LC1
 6032 29b0 002040E3 		movt	r2, #:upper16:.LANCHOR0
 6033 29b4 000040E3 		movt	r0, #:upper16:.LC2
 6034 29b8 661100E3 		movw	r1, #358
 6035 29bc FEFFFFEB 		bl	__assert_func
 6036              	.L1807:
 6037 29c0 003000E3 		movw	r3, #:lower16:.LC3
 6038 29c4 002000E3 		movw	r2, #:lower16:.LANCHOR0
 6039 29c8 000000E3 		movw	r0, #:lower16:.LC2
 6040 29cc 003040E3 		movt	r3, #:upper16:.LC3
 6041 29d0 002040E3 		movt	r2, #:upper16:.LANCHOR0
 6042 29d4 000040E3 		movt	r0, #:upper16:.LC2
 6043 29d8 671100E3 		movw	r1, #359
 6044 29dc FEFFFFEB 		bl	__assert_func
 6045              	.L1806:
 6046 29e0 003000E3 		movw	r3, #:lower16:.LC1
 6047 29e4 002000E3 		movw	r2, #:lower16:.LANCHOR0
 6048 29e8 000000E3 		movw	r0, #:lower16:.LC2
 6049 29ec 003040E3 		movt	r3, #:upper16:.LC1
 6050 29f0 002040E3 		movt	r2, #:upper16:.LANCHOR0
 6051 29f4 000040E3 		movt	r0, #:upper16:.LC2
 6052 29f8 661100E3 		movw	r1, #358
 6053 29fc FEFFFFEB 		bl	__assert_func
 6054              	.L1805:
 6055 2a00 003000E3 		movw	r3, #:lower16:.LC3
 6056 2a04 002000E3 		movw	r2, #:lower16:.LANCHOR0
 6057 2a08 000000E3 		movw	r0, #:lower16:.LC2
 6058 2a0c 003040E3 		movt	r3, #:upper16:.LC3
 6059 2a10 002040E3 		movt	r2, #:upper16:.LANCHOR0
 6060 2a14 000040E3 		movt	r0, #:upper16:.LC2
 6061 2a18 671100E3 		movw	r1, #359
 6062 2a1c FEFFFFEB 		bl	__assert_func
 6063              	.L1804:
 6064 2a20 003000E3 		movw	r3, #:lower16:.LC1
 6065 2a24 002000E3 		movw	r2, #:lower16:.LANCHOR0
 6066 2a28 000000E3 		movw	r0, #:lower16:.LC2
 6067 2a2c 003040E3 		movt	r3, #:upper16:.LC1
 6068 2a30 002040E3 		movt	r2, #:upper16:.LANCHOR0
 6069 2a34 000040E3 		movt	r0, #:upper16:.LC2
 6070 2a38 661100E3 		movw	r1, #358
 6071 2a3c FEFFFFEB 		bl	__assert_func
 6072              	.LEHE69:
 6073              	.L1876:
 6074 2a40 003000E3 		movw	r3, #:lower16:.LC3
 6075 2a44 002000E3 		movw	r2, #:lower16:.LANCHOR0
 6076 2a48 000000E3 		movw	r0, #:lower16:.LC2
 6077 2a4c 003040E3 		movt	r3, #:upper16:.LC3
 6078 2a50 002040E3 		movt	r2, #:upper16:.LANCHOR0
 6079 2a54 000040E3 		movt	r0, #:upper16:.LC2
 6080 2a58 671100E3 		movw	r1, #359
 6081              	.LEHB70:
 6082 2a5c FEFFFFEB 		bl	__assert_func
 6083              	.L1856:
 6084 2a60 FEFFFFEB 		bl	abort
 6085              	.LEHE70:
 6086              	.L1028:
 6087 2a64 90309DE5 		ldr	r3, [sp, #144]
 6088 2a68 01A08AE2 		add	r10, r10, #1
 6089 2a6c AC209DE5 		ldr	r2, [sp, #172]
 6090 2a70 023083E0 		add	r3, r3, r2
 6091 2a74 B4209DE5 		ldr	r2, [sp, #180]
 6092 2a78 90308DE5 		str	r3, [sp, #144]
 6093 2a7c 8C309DE5 		ldr	r3, [sp, #140]
 6094 2a80 023083E0 		add	r3, r3, r2
 6095 2a84 B0209DE5 		ldr	r2, [sp, #176]
 6096 2a88 8C308DE5 		str	r3, [sp, #140]
 6097 2a8c 88309DE5 		ldr	r3, [sp, #136]
 6098 2a90 023083E0 		add	r3, r3, r2
 6099 2a94 88308DE5 		str	r3, [sp, #136]
 6100 2a98 E3FCFFEA 		b	.L1022
 6101              	.L1003:
 6102 2a9c 0010A0E3 		mov	r1, #0
 6103 2aa0 50218DE5 		str	r2, [sp, #336]
 6104 2aa4 60118DE5 		str	r1, [sp, #352]
 6105 2aa8 F7FEFFEA 		b	.L1002
 6106              	.L1826:
 6107              	.LEHB71:
 6108 2aac FEFFFFEB 		bl	abort
 6109              	.LEHE71:
 6110              	.L1824:
 6111              	.LEHB72:
 6112 2ab0 FEFFFFEB 		bl	abort
 6113              	.L1823:
 6114 2ab4 FEFFFFEB 		bl	abort
 6115              	.LEHE72:
 6116              	.L1459:
 6117 2ab8 A3FFFFEA 		b	.L1757
 6118              	.L965:
 6119              	.LEHB73:
 6120 2abc FEFFFFEB 		bl	abort
 6121              	.LEHE73:
 6122              	.L1143:
 6123              	.LEHB74:
 6124 2ac0 FEFFFFEB 		bl	abort
 6125              	.LEHE74:
 6126              	.L962:
 6127              	.LEHB75:
 6128 2ac4 FEFFFFEB 		bl	abort
 6129              	.LEHE75:
 6130              	.L1466:
 6131              	.L1182:
 6132 2ac8 050058E3 		cmp	r8, #5
 6133 2acc ECF9FFDA 		ble	.L1129
 6134 2ad0 34019DE5 		ldr	r0, [sp, #308]
 6135 2ad4 000050E3 		cmp	r0, #0
 6136 2ad8 E9F9FF0A 		beq	.L1129
 6137 2adc FEFFFFEB 		bl	_ZdaPv
 6138 2ae0 E7F9FFEA 		b	.L1129
 6139              	.L1467:
 6140 2ae4 F7FFFFEA 		b	.L1182
 6141              	.L1470:
 6142              	.L1771:
 6143 2ae8 30819DE5 		ldr	r8, [sp, #304]
 6144 2aec F5FFFFEA 		b	.L1182
 6145              	.L1814:
 6146              	.LEHB76:
 6147 2af0 FEFFFFEB 		bl	abort
 6148              	.LEHE76:
 6149              	.L1813:
 6150              	.LEHB77:
 6151 2af4 FEFFFFEB 		bl	abort
 6152              	.LEHE77:
 6153              	.L1472:
 6154 2af8 E0F9FFEA 		b	.L1700
 6155              	.L1135:
 6156              	.LEHB78:
 6157 2afc FEFFFFEB 		bl	abort
 6158              	.LEHE78:
 6159              	.L1132:
 6160              	.LEHB79:
 6161 2b00 FEFFFFEB 		bl	abort
 6162              	.LEHE79:
 6163              	.L1802:
 6164              	.LEHB80:
 6165 2b04 FEFFFFEB 		bl	abort
 6166              	.L1798:
 6167 2b08 FEFFFFEB 		bl	abort
 6168              	.L1797:
 6169 2b0c FEFFFFEB 		bl	abort
 6170              	.L1796:
 6171 2b10 FEFFFFEB 		bl	abort
 6172              	.L1795:
 6173 2b14 FEFFFFEB 		bl	abort
 6174              	.L1800:
 6175 2b18 FEFFFFEB 		bl	abort
 6176              	.L1799:
 6177 2b1c FEFFFFEB 		bl	abort
 6178              	.L1801:
 6179 2b20 FEFFFFEB 		bl	abort
 6180              	.LEHE80:
 6181              	.L1474:
 6182 2b24 EFFFFFEA 		b	.L1771
 6183              	.L1199:
 6184              	.LEHB81:
 6185 2b28 FEFFFFEB 		bl	abort
 6186              	.LEHE81:
 6187              	.L970:
 6188              	.LEHB82:
 6189 2b2c FEFFFFEB 		bl	abort
 6190              	.LEHE82:
 6191              	.L1851:
 6192              	.LEHB83:
 6193 2b30 FEFFFFEB 		bl	abort
 6194              	.LEHE83:
 6195              	.L1850:
 6196              	.LEHB84:
 6197 2b34 FEFFFFEB 		bl	abort
 6198              	.LEHE84:
 6199              	.L1468:
 6200 2b38 D0F9FFEA 		b	.L1700
 6201              	.L1195:
 6202              	.LEHB85:
 6203 2b3c FEFFFFEB 		bl	abort
 6204              	.LEHE85:
 6205              	.L1029:
 6206              	.LEHB86:
 6207 2b40 FEFFFFEB 		bl	abort
 6208              	.LEHE86:
 6209              	.L1287:
 6210              	.LEHB87:
 6211 2b44 FEFFFFEB 		bl	abort
 6212              	.L1803:
 6213 2b48 FEFFFFEB 		bl	abort
 6214              	.LEHE87:
 6215              	.L1140:
 6216              	.LEHB88:
 6217 2b4c FEFFFFEB 		bl	abort
 6218              	.LEHE88:
 6219              	.L1071:
 6220              	.LEHB89:
 6221 2b50 FEFFFFEB 		bl	abort
 6222              	.LEHE89:
 6223              	.L1458:
 6224 2b54 83FFFFEA 		b	.L1328
 6225              	.L1457:
 6226 2b58 89FFFFEA 		b	.L1330
 6227              	.L1817:
 6228              	.LEHB90:
 6229 2b5c FEFFFFEB 		bl	abort
 6230              	.LEHE90:
 6231              	.L1854:
 6232              	.LEHB91:
 6233 2b60 FEFFFFEB 		bl	abort
 6234              	.L1025:
 6235 2b64 FEFFFFEB 		bl	abort
 6236              	.L1855:
 6237 2b68 FEFFFFEB 		bl	abort
 6238              	.LEHE91:
 6239              	.L973:
 6240              	.LEHB92:
 6241 2b6c FEFFFFEB 		bl	abort
 6242              	.LEHE92:
 6243              	.L1791:
 6244              	.LEHB93:
 6245 2b70 FEFFFFEB 		bl	abort
 6246              	.LEHE93:
 6247              	.L1464:
 6248 2b74 7BFFFFEA 		b	.L1328
 6249              	.L1790:
 6250              	.LEHB94:
 6251 2b78 FEFFFFEB 		bl	abort
 6252              	.LEHE94:
 6253              	.L1463:
 6254 2b7c 80FFFFEA 		b	.L1330
 6255              	.L1789:
 6256              	.LEHB95:
 6257 2b80 FEFFFFEB 		bl	abort
 6258              	.LEHE95:
 6259              	.L1452:
 6260              	.L1308:
 6261 2b84 48319DE5 		ldr	r3, [sp, #328]
 6262 2b88 050053E3 		cmp	r3, #5
 6263 2b8c D7F9FFDA 		ble	.L1331
 6264 2b90 4C019DE5 		ldr	r0, [sp, #332]
 6265 2b94 000050E3 		cmp	r0, #0
 6266 2b98 D3F9FF1A 		bne	.L1716
 6267 2b9c D3F9FFEA 		b	.L1331
 6268              	.L1453:
 6269 2ba0 68319DE5 		ldr	r3, [sp, #360]
 6270 2ba4 050053E3 		cmp	r3, #5
 6271 2ba8 F5FFFFDA 		ble	.L1308
 6272 2bac 6C019DE5 		ldr	r0, [sp, #364]
 6273 2bb0 000050E3 		cmp	r0, #0
 6274 2bb4 F2FFFF0A 		beq	.L1308
 6275 2bb8 FEFFFFEB 		bl	_ZdaPv
 6276 2bbc F0FFFFEA 		b	.L1308
 6277              	.L1455:
 6278 2bc0 BCF9FFEA 		b	.L1322
 6279              	.L1849:
 6280              	.LEHB96:
 6281 2bc4 FEFFFFEB 		bl	abort
 6282              	.LEHE96:
 6283              	.L1454:
 6284 2bc8 C1F9FFEA 		b	.L1324
 6285              	.L1848:
 6286              	.LEHB97:
 6287 2bcc FEFFFFEB 		bl	abort
 6288              	.LEHE97:
 6289              	.L1461:
 6290 2bd0 B8F9FFEA 		b	.L1322
 6291              	.L1812:
 6292              	.LEHB98:
 6293 2bd4 FEFFFFEB 		bl	abort
 6294              	.LEHE98:
 6295              	.L1460:
 6296 2bd8 BDF9FFEA 		b	.L1324
 6297              	.L1811:
 6298              	.LEHB99:
 6299 2bdc FEFFFFEB 		bl	abort
 6300              	.LEHE99:
 6301              		.personality	__gxx_personality_v0
 6302              		.handlerdata
 6303              	.LLSDA9119:
 6304 0008 FF       		.byte	0xff
 6305 0009 FF       		.byte	0xff
 6306 000a 01       		.byte	0x1
 6307 000b E002     		.uleb128 .LLSDACSE9119-.LLSDACSB9119
 6308              	.LLSDACSB9119:
 6309 000d 9001     		.uleb128 .LEHB41-.LFB9119
 6310 000f 04       		.uleb128 .LEHE41-.LEHB41
 6311 0010 00       		.uleb128 0
 6312 0011 00       		.uleb128 0
 6313 0012 9C01     		.uleb128 .LEHB42-.LFB9119
 6314 0014 04       		.uleb128 .LEHE42-.LEHB42
 6315 0015 8457     		.uleb128 .L1452-.LFB9119
 6316 0017 00       		.uleb128 0
 6317 0018 AC01     		.uleb128 .LEHB43-.LFB9119
 6318 001a 04       		.uleb128 .LEHE43-.LEHB43
 6319 001b A057     		.uleb128 .L1453-.LFB9119
 6320 001d 00       		.uleb128 0
 6321 001e 8802     		.uleb128 .LEHB44-.LFB9119
 6322 0020 04       		.uleb128 .LEHE44-.LEHB44
 6323 0021 00       		.uleb128 0
 6324 0022 00       		.uleb128 0
 6325 0023 A402     		.uleb128 .LEHB45-.LFB9119
 6326 0025 04       		.uleb128 .LEHE45-.LEHB45
 6327 0026 FC56     		.uleb128 .L1463-.LFB9119
 6328 0028 00       		.uleb128 0
 6329 0029 C002     		.uleb128 .LEHB46-.LFB9119
 6330 002b 04       		.uleb128 .LEHE46-.LEHB46
 6331 002c F456     		.uleb128 .L1464-.LFB9119
 6332 002e 00       		.uleb128 0
 6333 002f D810     		.uleb128 .LEHB47-.LFB9119
 6334 0031 04       		.uleb128 .LEHE47-.LEHB47
 6335 0032 00       		.uleb128 0
 6336 0033 00       		.uleb128 0
 6337 0034 F410     		.uleb128 .LEHB48-.LFB9119
 6338 0036 04       		.uleb128 .LEHE48-.LEHB48
 6339 0037 D857     		.uleb128 .L1460-.LFB9119
 6340 0039 00       		.uleb128 0
 6341 003a 9011     		.uleb128 .LEHB49-.LFB9119
 6342 003c 04       		.uleb128 .LEHE49-.LEHB49
 6343 003d D057     		.uleb128 .L1461-.LFB9119
 6344 003f 00       		.uleb128 0
 6345 0040 F011     		.uleb128 .LEHB50-.LFB9119
 6346 0042 04       		.uleb128 .LEHE50-.LEHB50
 6347 0043 F425     		.uleb128 .L1462-.LFB9119
 6348 0045 00       		.uleb128 0
 6349 0046 E012     		.uleb128 .LEHB51-.LFB9119
 6350 0048 04       		.uleb128 .LEHE51-.LEHB51
 6351 0049 8025     		.uleb128 .L1473-.LFB9119
 6352 004b 00       		.uleb128 0
 6353 004c D816     		.uleb128 .LEHB52-.LFB9119
 6354 004e 04       		.uleb128 .LEHE52-.LEHB52
 6355 004f F425     		.uleb128 .L1462-.LFB9119
 6356 0051 00       		.uleb128 0
 6357 0052 F417     		.uleb128 .LEHB53-.LFB9119
 6358 0054 04       		.uleb128 .LEHE53-.LEHB53
 6359 0055 00       		.uleb128 0
 6360 0056 00       		.uleb128 0
 6361 0057 8018     		.uleb128 .LEHB54-.LFB9119
 6362 0059 04       		.uleb128 .LEHE54-.LEHB54
 6363 005a D856     		.uleb128 .L1457-.LFB9119
 6364 005c 00       		.uleb128 0
 6365 005d 8C18     		.uleb128 .LEHB55-.LFB9119
 6366 005f 04       		.uleb128 .LEHE55-.LEHB55
 6367 0060 D456     		.uleb128 .L1458-.LFB9119
 6368 0062 00       		.uleb128 0
 6369 0063 8821     		.uleb128 .LEHB56-.LFB9119
 6370 0065 04       		.uleb128 .LEHE56-.LEHB56
 6371 0066 B855     		.uleb128 .L1459-.LFB9119
 6372 0068 00       		.uleb128 0
 6373 0069 F025     		.uleb128 .LEHB57-.LFB9119
 6374 006b 9C0E     		.uleb128 .LEHE57-.LEHB57
 6375 006d 00       		.uleb128 0
 6376 006e 00       		.uleb128 0
 6377 006f A434     		.uleb128 .LEHB58-.LFB9119
 6378 0071 04       		.uleb128 .LEHE58-.LEHB58
 6379 0072 C857     		.uleb128 .L1454-.LFB9119
 6380 0074 00       		.uleb128 0
 6381 0075 C034     		.uleb128 .LEHB59-.LFB9119
 6382 0077 04       		.uleb128 .LEHE59-.LEHB59
 6383 0078 C057     		.uleb128 .L1455-.LFB9119
 6384 007a 00       		.uleb128 0
 6385 007b A035     		.uleb128 .LEHB60-.LFB9119
 6386 007d 04       		.uleb128 .LEHE60-.LEHB60
 6387 007e A435     		.uleb128 .L1456-.LFB9119
 6388 0080 00       		.uleb128 0
 6389 0081 9436     		.uleb128 .LEHB61-.LFB9119
 6390 0083 04       		.uleb128 .LEHE61-.LEHB61
 6391 0084 9836     		.uleb128 .L1469-.LFB9119
 6392 0086 00       		.uleb128 0
 6393 0087 843A     		.uleb128 .LEHB62-.LFB9119
 6394 0089 04       		.uleb128 .LEHE62-.LEHB62
 6395 008a A435     		.uleb128 .L1456-.LFB9119
 6396 008c 00       		.uleb128 0
 6397 008d D448     		.uleb128 .LEHB63-.LFB9119
 6398 008f 10       		.uleb128 .LEHE63-.LEHB63
 6399 0090 F425     		.uleb128 .L1462-.LFB9119
 6400 0092 00       		.uleb128 0
 6401 0093 E448     		.uleb128 .LEHB64-.LFB9119
 6402 0095 A003     		.uleb128 .LEHE64-.LEHB64
 6403 0097 E848     		.uleb128 .L1475-.LFB9119
 6404 0099 00       		.uleb128 0
 6405 009a 844C     		.uleb128 .LEHB65-.LFB9119
 6406 009c 04       		.uleb128 .LEHE65-.LEHB65
 6407 009d F425     		.uleb128 .L1462-.LFB9119
 6408 009f 00       		.uleb128 0
 6409 00a0 BC4D     		.uleb128 .LEHB66-.LFB9119
 6410 00a2 48       		.uleb128 .LEHE66-.LEHB66
 6411 00a3 E848     		.uleb128 .L1475-.LFB9119
 6412 00a5 00       		.uleb128 0
 6413 00a6 A450     		.uleb128 .LEHB67-.LFB9119
 6414 00a8 E001     		.uleb128 .LEHE67-.LEHB67
 6415 00aa A435     		.uleb128 .L1456-.LFB9119
 6416 00ac 00       		.uleb128 0
 6417 00ad 8452     		.uleb128 .LEHB68-.LFB9119
 6418 00af 04       		.uleb128 .LEHE68-.LEHB68
 6419 00b0 8852     		.uleb128 .L1471-.LFB9119
 6420 00b2 00       		.uleb128 0
 6421 00b3 C852     		.uleb128 .LEHB69-.LFB9119
 6422 00b5 F801     		.uleb128 .LEHE69-.LEHB69
 6423 00b7 CC52     		.uleb128 .L1465-.LFB9119
 6424 00b9 00       		.uleb128 0
 6425 00ba DC54     		.uleb128 .LEHB70-.LFB9119
 6426 00bc 08       		.uleb128 .LEHE70-.LEHB70
 6427 00bd A435     		.uleb128 .L1456-.LFB9119
 6428 00bf 00       		.uleb128 0
 6429 00c0 AC55     		.uleb128 .LEHB71-.LFB9119
 6430 00c2 04       		.uleb128 .LEHE71-.LEHB71
 6431 00c3 F425     		.uleb128 .L1462-.LFB9119
 6432 00c5 00       		.uleb128 0
 6433 00c6 B055     		.uleb128 .LEHB72-.LFB9119
 6434 00c8 08       		.uleb128 .LEHE72-.LEHB72
 6435 00c9 B855     		.uleb128 .L1459-.LFB9119
 6436 00cb 00       		.uleb128 0
 6437 00cc BC55     		.uleb128 .LEHB73-.LFB9119
 6438 00ce 04       		.uleb128 .LEHE73-.LEHB73
 6439 00cf C855     		.uleb128 .L1466-.LFB9119
 6440 00d1 00       		.uleb128 0
 6441 00d2 C055     		.uleb128 .LEHB74-.LFB9119
 6442 00d4 04       		.uleb128 .LEHE74-.LEHB74
 6443 00d5 E455     		.uleb128 .L1467-.LFB9119
 6444 00d7 00       		.uleb128 0
 6445 00d8 C455     		.uleb128 .LEHB75-.LFB9119
 6446 00da 04       		.uleb128 .LEHE75-.LEHB75
 6447 00db E855     		.uleb128 .L1470-.LFB9119
 6448 00dd 00       		.uleb128 0
 6449 00de F055     		.uleb128 .LEHB76-.LFB9119
 6450 00e0 04       		.uleb128 .LEHE76-.LEHB76
 6451 00e1 F855     		.uleb128 .L1472-.LFB9119
 6452 00e3 00       		.uleb128 0
 6453 00e4 F455     		.uleb128 .LEHB77-.LFB9119
 6454 00e6 04       		.uleb128 .LEHE77-.LEHB77
 6455 00e7 F425     		.uleb128 .L1462-.LFB9119
 6456 00e9 00       		.uleb128 0
 6457 00ea FC55     		.uleb128 .LEHB78-.LFB9119
 6458 00ec 04       		.uleb128 .LEHE78-.LEHB78
 6459 00ed E455     		.uleb128 .L1467-.LFB9119
 6460 00ef 00       		.uleb128 0
 6461 00f0 8056     		.uleb128 .LEHB79-.LFB9119
 6462 00f2 04       		.uleb128 .LEHE79-.LEHB79
 6463 00f3 A456     		.uleb128 .L1474-.LFB9119
 6464 00f5 00       		.uleb128 0
 6465 00f6 8456     		.uleb128 .LEHB80-.LFB9119
 6466 00f8 20       		.uleb128 .LEHE80-.LEHB80
 6467 00f9 CC52     		.uleb128 .L1465-.LFB9119
 6468 00fb 00       		.uleb128 0
 6469 00fc A856     		.uleb128 .LEHB81-.LFB9119
 6470 00fe 04       		.uleb128 .LEHE81-.LEHB81
 6471 00ff F425     		.uleb128 .L1462-.LFB9119
 6472 0101 00       		.uleb128 0
 6473 0102 AC56     		.uleb128 .LEHB82-.LFB9119
 6474 0104 04       		.uleb128 .LEHE82-.LEHB82
 6475 0105 C855     		.uleb128 .L1466-.LFB9119
 6476 0107 00       		.uleb128 0
 6477 0108 B056     		.uleb128 .LEHB83-.LFB9119
 6478 010a 04       		.uleb128 .LEHE83-.LEHB83
 6479 010b B856     		.uleb128 .L1468-.LFB9119
 6480 010d 00       		.uleb128 0
 6481 010e B456     		.uleb128 .LEHB84-.LFB9119
 6482 0110 04       		.uleb128 .LEHE84-.LEHB84
 6483 0111 A435     		.uleb128 .L1456-.LFB9119
 6484 0113 00       		.uleb128 0
 6485 0114 BC56     		.uleb128 .LEHB85-.LFB9119
 6486 0116 04       		.uleb128 .LEHE85-.LEHB85
 6487 0117 F425     		.uleb128 .L1462-.LFB9119
 6488 0119 00       		.uleb128 0
 6489 011a C056     		.uleb128 .LEHB86-.LFB9119
 6490 011c 04       		.uleb128 .LEHE86-.LEHB86
 6491 011d A435     		.uleb128 .L1456-.LFB9119
 6492 011f 00       		.uleb128 0
 6493 0120 C456     		.uleb128 .LEHB87-.LFB9119
 6494 0122 08       		.uleb128 .LEHE87-.LEHB87
 6495 0123 CC52     		.uleb128 .L1465-.LFB9119
 6496 0125 00       		.uleb128 0
 6497 0126 CC56     		.uleb128 .LEHB88-.LFB9119
 6498 0128 04       		.uleb128 .LEHE88-.LEHB88
 6499 0129 E455     		.uleb128 .L1467-.LFB9119
 6500 012b 00       		.uleb128 0
 6501 012c D056     		.uleb128 .LEHB89-.LFB9119
 6502 012e 04       		.uleb128 .LEHE89-.LEHB89
 6503 012f 00       		.uleb128 0
 6504 0130 00       		.uleb128 0
 6505 0131 DC56     		.uleb128 .LEHB90-.LFB9119
 6506 0133 04       		.uleb128 .LEHE90-.LEHB90
 6507 0134 F425     		.uleb128 .L1462-.LFB9119
 6508 0136 00       		.uleb128 0
 6509 0137 E056     		.uleb128 .LEHB91-.LFB9119
 6510 0139 0C       		.uleb128 .LEHE91-.LEHB91
 6511 013a A435     		.uleb128 .L1456-.LFB9119
 6512 013c 00       		.uleb128 0
 6513 013d EC56     		.uleb128 .LEHB92-.LFB9119
 6514 013f 04       		.uleb128 .LEHE92-.LEHB92
 6515 0140 C855     		.uleb128 .L1466-.LFB9119
 6516 0142 00       		.uleb128 0
 6517 0143 F056     		.uleb128 .LEHB93-.LFB9119
 6518 0145 04       		.uleb128 .LEHE93-.LEHB93
 6519 0146 CC52     		.uleb128 .L1465-.LFB9119
 6520 0148 00       		.uleb128 0
 6521 0149 F856     		.uleb128 .LEHB94-.LFB9119
 6522 014b 04       		.uleb128 .LEHE94-.LEHB94
 6523 014c F456     		.uleb128 .L1464-.LFB9119
 6524 014e 00       		.uleb128 0
 6525 014f 8057     		.uleb128 .LEHB95-.LFB9119
 6526 0151 04       		.uleb128 .LEHE95-.LEHB95
 6527 0152 FC56     		.uleb128 .L1463-.LFB9119
 6528 0154 00       		.uleb128 0
 6529 0155 C457     		.uleb128 .LEHB96-.LFB9119
 6530 0157 04       		.uleb128 .LEHE96-.LEHB96
 6531 0158 C057     		.uleb128 .L1455-.LFB9119
 6532 015a 00       		.uleb128 0
 6533 015b CC57     		.uleb128 .LEHB97-.LFB9119
 6534 015d 04       		.uleb128 .LEHE97-.LEHB97
 6535 015e C857     		.uleb128 .L1454-.LFB9119
 6536 0160 00       		.uleb128 0
 6537 0161 D457     		.uleb128 .LEHB98-.LFB9119
 6538 0163 04       		.uleb128 .LEHE98-.LEHB98
 6539 0164 D057     		.uleb128 .L1461-.LFB9119
 6540 0166 00       		.uleb128 0
 6541 0167 DC57     		.uleb128 .LEHB99-.LFB9119
 6542 0169 04       		.uleb128 .LEHE99-.LEHB99
 6543 016a D857     		.uleb128 .L1460-.LFB9119
 6544 016c 00       		.uleb128 0
 6545              	.LLSDACSE9119:
 6546              		.section	.text._ZN6tflite3ops5micro3add16EvalAddQuantizedEP13TfLiteContextP10TfLiteNodeP15TfLiteAd
 6547              		.fnend
 6549              		.section	.text._ZN6tflite3ops5micro3add4EvalEP13TfLiteContextP10TfLiteNode,"ax",%progbits
 6550              		.align	2
 6551              		.global	_ZN6tflite3ops5micro3add4EvalEP13TfLiteContextP10TfLiteNode
 6552              		.syntax unified
 6553              		.arm
 6554              		.fpu neon
 6556              	_ZN6tflite3ops5micro3add4EvalEP13TfLiteContextP10TfLiteNode:
 6557              		.fnstart
 6558              	.LFB9122:
 6559              		@ args = 0, pretend = 0, frame = 0
 6560              		@ frame_needed = 0, uses_anonymous_args = 0
 6561 0000 F0412DE9 		push	{r4, r5, r6, r7, r8, lr}
 6562              		.save {r4, r5, r6, r7, r8, lr}
 6563 0004 005050E2 		subs	r5, r0, #0
 6564              		.pad #16
 6565 0008 10D04DE2 		sub	sp, sp, #16
 6566 000c 146091E5 		ldr	r6, [r1, #20]
 6567 0010 2C00000A 		beq	.L1887
 6568 0014 002091E5 		ldr	r2, [r1]
 6569 0018 0140A0E1 		mov	r4, r1
 6570 001c 543095E5 		ldr	r3, [r5, #84]
 6571 0020 041092E5 		ldr	r1, [r2, #4]
 6572 0024 33FF2FE1 		blx	r3
 6573 0028 002094E5 		ldr	r2, [r4]
 6574 002c 0070A0E1 		mov	r7, r0
 6575 0030 543095E5 		ldr	r3, [r5, #84]
 6576 0034 0500A0E1 		mov	r0, r5
 6577 0038 081092E5 		ldr	r1, [r2, #8]
 6578 003c 33FF2FE1 		blx	r3
 6579 0040 042094E5 		ldr	r2, [r4, #4]
 6580 0044 0080A0E1 		mov	r8, r0
 6581 0048 543095E5 		ldr	r3, [r5, #84]
 6582 004c 0500A0E1 		mov	r0, r5
 6583 0050 041092E5 		ldr	r1, [r2, #4]
 6584 0054 33FF2FE1 		blx	r3
 6585 0058 103094E5 		ldr	r3, [r4, #16]
 6586 005c 000053E3 		cmp	r3, #0
 6587 0060 1800000A 		beq	.L1887
 6588 0064 0820D0E5 		ldrb	r2, [r0, #8]	@ zero_extendqisi2
 6589 0068 010052E3 		cmp	r2, #1
 6590 006c 0C00000A 		beq	.L1895
 6591 0070 090052E3 		cmp	r2, #9
 6592 0074 03005213 		cmpne	r2, #3
 6593 0078 0100A013 		movne	r0, #1
 6594 007c 0600001A 		bne	.L1889
 6595 0080 08008DE5 		str	r0, [sp, #8]
 6596 0084 0620A0E1 		mov	r2, r6
 6597 0088 04808DE5 		str	r8, [sp, #4]
 6598 008c 0410A0E1 		mov	r1, r4
 6599 0090 00708DE5 		str	r7, [sp]
 6600 0094 0500A0E1 		mov	r0, r5
 6601 0098 FEFFFFEB 		bl	_ZN6tflite3ops5micro3add16EvalAddQuantizedEP13TfLiteContextP10TfLiteNodeP15TfLiteAddParamsPKNS2
 6602              	.L1889:
 6603 009c 10D08DE2 		add	sp, sp, #16
 6604              		@ sp needed
 6605 00a0 F081BDE8 		pop	{r4, r5, r6, r7, r8, pc}
 6606              	.L1895:
 6607 00a4 08008DE5 		str	r0, [sp, #8]
 6608 00a8 0620A0E1 		mov	r2, r6
 6609 00ac 0500A0E1 		mov	r0, r5
 6610 00b0 04808DE5 		str	r8, [sp, #4]
 6611 00b4 00708DE5 		str	r7, [sp]
 6612 00b8 0410A0E1 		mov	r1, r4
 6613 00bc FEFFFFEB 		bl	_ZN6tflite3ops5micro3add7EvalAddEP13TfLiteContextP10TfLiteNodeP15TfLiteAddParamsPKNS2_6OpDataEP
 6614 00c0 0000A0E3 		mov	r0, #0
 6615 00c4 F4FFFFEA 		b	.L1889
 6616              	.L1887:
 6617 00c8 FEFFFFEB 		bl	abort
 6618              		.fnend
 6620              		.section	.text._ZN6tflite3ops5micro12Register_ADDEv,"ax",%progbits
 6621              		.align	2
 6622              		.global	_ZN6tflite3ops5micro12Register_ADDEv
 6623              		.syntax unified
 6624              		.arm
 6625              		.fpu neon
 6627              	_ZN6tflite3ops5micro12Register_ADDEv:
 6628              		.fnstart
 6629              	.LFB9123:
 6630              		@ args = 0, pretend = 0, frame = 0
 6631              		@ frame_needed = 0, uses_anonymous_args = 0
 6632 0000 00C000E3 		movw	ip, #:lower16:.LANCHOR1
 6633 0004 10402DE9 		push	{r4, lr}
 6634 0008 00C040E3 		movt	ip, #:upper16:.LANCHOR1
 6635 000c 0040A0E1 		mov	r4, r0
 6636 0010 00E0A0E1 		mov	lr, r0
 6637 0014 0F00BCE8 		ldmia	ip!, {r0, r1, r2, r3}
 6638 0018 0F00AEE8 		stmia	lr!, {r0, r1, r2, r3}
 6639 001c 0F009CE8 		ldm	ip, {r0, r1, r2, r3}
 6640 0020 0F008EE8 		stm	lr, {r0, r1, r2, r3}
 6641 0024 0400A0E1 		mov	r0, r4
 6642 0028 1080BDE8 		pop	{r4, pc}
 6643              		.cantunwind
 6644              		.fnend
 6646              		.weak	_ZN11flatbuffers25flatbuffer_version_stringE
 6647              		.section	.rodata
 6648              		.align	2
 6649              		.set	.LANCHOR1,. + 0
 6650              	.LC0:
 6651 0000 00000000 		.word	_ZN6tflite3ops5micro3add4InitEP13TfLiteContextPKcj
 6652 0004 00000000 		.word	0
 6653 0008 00000000 		.word	_ZN6tflite3ops5micro3add7PrepareEP13TfLiteContextP10TfLiteNode
 6654 000c 00000000 		.word	_ZN6tflite3ops5micro3add4EvalEP13TfLiteContextP10TfLiteNode
 6655 0010 00000000 		.word	0
 6656 0014 00000000 		.word	0
 6657 0018 00000000 		.word	0
 6658 001c 00000000 		.word	0
 6659              		.section	.data._ZN11flatbuffers25flatbuffer_version_stringE,"aw",%progbits
 6660              		.align	2
 6663              	_ZN11flatbuffers25flatbuffer_version_stringE:
 6664 0000 00000000 		.word	.LC4
 6665              		.section	.rodata._ZN6tflite3ops5micro3add16EvalAddQuantizedEP13TfLiteContextP10TfLiteNodeP15TfLite
 6666              		.align	2
 6667              	.LC1:
 6668 0000 6578706F 		.ascii	"exponent >= 0\000"
 6668      6E656E74 
 6668      203E3D20 
 6668      3000
 6669 000e 0000     		.space	2
