   1              		.cpu cortex-a9
   2              		.eabi_attribute 28, 1
   3              		.eabi_attribute 20, 1
   4              		.eabi_attribute 21, 1
   5              		.eabi_attribute 23, 3
   6              		.eabi_attribute 24, 1
   7              		.eabi_attribute 25, 1
   8              		.eabi_attribute 26, 1
   9              		.eabi_attribute 30, 2
  10              		.eabi_attribute 34, 0
  11              		.eabi_attribute 18, 4
  12              		.file	"conv.cc"
  13              		.section	.text._ZN6tflite12_GLOBAL__N_14InitEP13TfLiteContextPKcj,"ax",%progbits
  14              		.align	2
  15              		.syntax unified
  16              		.arm
  17              		.fpu neon
  19              	_ZN6tflite12_GLOBAL__N_14InitEP13TfLiteContextPKcj:
  20              		.fnstart
  21              	.LFB4264:
  22              		@ args = 0, pretend = 0, frame = 0
  23              		@ frame_needed = 0, uses_anonymous_args = 0
  24 0000 383090E5 		ldr	r3, [r0, #56]
  25 0004 000053E3 		cmp	r3, #0
  26 0008 0100000A 		beq	.L7
  27 000c 3810A0E3 		mov	r1, #56
  28 0010 13FF2FE1 		bx	r3
  29              	.L7:
  30 0014 10402DE9 		push	{r4, lr}
  31              		.save {r4, lr}
  32 0018 FEFFFFEB 		bl	abort
  33              		.fnend
  35              		.section	.text._ZN6tflite12_GLOBAL__N_17PrepareEP13TfLiteContextP10TfLiteNode,"ax",%progbits
  36              		.align	2
  37              		.syntax unified
  38              		.arm
  39              		.fpu neon
  41              	_ZN6tflite12_GLOBAL__N_17PrepareEP13TfLiteContextP10TfLiteNode:
  42              		.fnstart
  43              	.LFB4265:
  44              		@ args = 0, pretend = 0, frame = 184
  45              		@ frame_needed = 0, uses_anonymous_args = 0
  46 0000 F04F2DE9 		push	{r4, r5, r6, r7, r8, r9, r10, fp, lr}
  47              		.save {r4, r5, r6, r7, r8, r9, r10, fp, lr}
  48              		.pad #220
  49 0004 DCD04DE2 		sub	sp, sp, #220
  50 0008 106091E5 		ldr	r6, [r1, #16]
  51 000c 000056E3 		cmp	r6, #0
  52 0010 E700000A 		beq	.L10
  53 0014 147091E5 		ldr	r7, [r1, #20]
  54 0018 0140A0E1 		mov	r4, r1
  55 001c 000057E3 		cmp	r7, #0
  56 0020 E300000A 		beq	.L10
  57 0024 003000E3 		movw	r3, #:lower16:_ZN6tflite16kConvInputTensorE
  58 0028 0050A0E1 		mov	r5, r0
  59 002c 003040E3 		movt	r3, #:upper16:_ZN6tflite16kConvInputTensorE
  60 0030 002093E5 		ldr	r2, [r3]
  61              	.LEHB0:
  62 0034 FEFFFFEB 		bl	_ZN6tflite8GetInputEPK13TfLiteContextPK10TfLiteNodei
  63 0038 008050E2 		subs	r8, r0, #0
  64 003c 9300000A 		beq	.L13
  65 0040 003000E3 		movw	r3, #:lower16:_ZN6tflite18kConvWeightsTensorE
  66 0044 0410A0E1 		mov	r1, r4
  67 0048 003040E3 		movt	r3, #:upper16:_ZN6tflite18kConvWeightsTensorE
  68 004c 0500A0E1 		mov	r0, r5
  69 0050 002093E5 		ldr	r2, [r3]
  70 0054 FEFFFFEB 		bl	_ZN6tflite8GetInputEPK13TfLiteContextPK10TfLiteNodei
  71 0058 00B050E2 		subs	fp, r0, #0
  72 005c 8B00000A 		beq	.L13
  73 0060 003000E3 		movw	r3, #:lower16:_ZN6tflite17kConvOutputTensorE
  74 0064 0410A0E1 		mov	r1, r4
  75 0068 003040E3 		movt	r3, #:upper16:_ZN6tflite17kConvOutputTensorE
  76 006c 0500A0E1 		mov	r0, r5
  77 0070 002093E5 		ldr	r2, [r3]
  78 0074 FEFFFFEB 		bl	_ZN6tflite9GetOutputEP13TfLiteContextPK10TfLiteNodei
  79 0078 003050E2 		subs	r3, r0, #0
  80 007c 24308DE5 		str	r3, [sp, #36]
  81 0080 8200000A 		beq	.L13
  82 0084 08A098E5 		ldr	r10, [r8, #8]
  83 0088 00209AE5 		ldr	r2, [r10]
  84 008c 050052E3 		cmp	r2, #5
  85 0090 80208DE5 		str	r2, [sp, #128]
  86 0094 810000DA 		ble	.L14
  87 0098 2E0272E3 		cmn	r2, #-536870910
  88 009c 960000CA 		bgt	.L15
  89 00a0 0291A0E1 		lsl	r9, r2, #2
  90 00a4 0900A0E1 		mov	r0, r9
  91 00a8 FEFFFFEB 		bl	_Znaj
  92              	.LEHE0:
  93 00ac 84008DE5 		str	r0, [sp, #132]
  94              	.L16:
  95 00b0 0920A0E1 		mov	r2, r9
  96 00b4 04108AE2 		add	r1, r10, #4
  97 00b8 FEFFFFEB 		bl	memcpy
  98 00bc 24309DE5 		ldr	r3, [sp, #36]
  99 00c0 089093E5 		ldr	r9, [r3, #8]
 100 00c4 00A099E5 		ldr	r10, [r9]
 101 00c8 05005AE3 		cmp	r10, #5
 102 00cc 98A08DE5 		str	r10, [sp, #152]
 103 00d0 750000DA 		ble	.L17
 104 00d4 2E027AE3 		cmn	r10, #-536870910
 105 00d8 CB0000CA 		bgt	.L18
 106 00dc 0AA1A0E1 		lsl	r10, r10, #2
 107 00e0 0A00A0E1 		mov	r0, r10
 108              	.LEHB1:
 109 00e4 FEFFFFEB 		bl	_Znaj
 110              	.LEHE1:
 111 00e8 9C008DE5 		str	r0, [sp, #156]
 112              	.L19:
 113 00ec 041089E2 		add	r1, r9, #4
 114 00f0 0A20A0E1 		mov	r2, r10
 115 00f4 FEFFFFEB 		bl	memcpy
 116 00f8 80909DE5 		ldr	r9, [sp, #128]
 117 00fc 000059E3 		cmp	r9, #0
 118 0100 AC0000DA 		ble	.L67
 119 0104 050059E3 		cmp	r9, #5
 120 0108 98A09DE5 		ldr	r10, [sp, #152]
 121 010c 84309DC5 		ldrgt	r3, [sp, #132]
 122 0110 84209DD5 		ldrle	r2, [sp, #132]
 123 0114 002093C5 		ldrgt	r2, [r3]
 124 0118 00005AE3 		cmp	r10, #0
 125 011c B80000DA 		ble	.L68
 126 0120 9C309DE5 		ldr	r3, [sp, #156]
 127 0124 05005AE3 		cmp	r10, #5
 128 0128 003093C5 		ldrgt	r3, [r3]
 129 012c 030052E1 		cmp	r2, r3
 130 0130 B200001A 		bne	.L69
 131 0134 083098E5 		ldr	r3, [r8, #8]
 132 0138 030059E3 		cmp	r9, #3
 133 013c 50208DE5 		str	r2, [sp, #80]
 134 0140 081093E5 		ldr	r1, [r3, #8]
 135 0144 0C3093E5 		ldr	r3, [r3, #12]
 136 0148 54108DE5 		str	r1, [sp, #84]
 137 014c 58308DE5 		str	r3, [sp, #88]
 138 0150 A90000DA 		ble	.L70
 139 0154 050059E3 		cmp	r9, #5
 140 0158 84309DC5 		ldrgt	r3, [sp, #132]
 141 015c 90109DD5 		ldrle	r1, [sp, #144]
 142 0160 0C1093C5 		ldrgt	r1, [r3, #12]
 143 0164 03005AE3 		cmp	r10, #3
 144 0168 5C108DE5 		str	r1, [sp, #92]
 145 016c A10000DA 		ble	.L71
 146 0170 05005AE3 		cmp	r10, #5
 147 0174 08309BE5 		ldr	r3, [fp, #8]
 148 0178 4E0000CA 		bgt	.L72
 149 017c 24009DE5 		ldr	r0, [sp, #36]
 150 0180 08E093E5 		ldr	lr, [r3, #8]
 151 0184 70208DE5 		str	r2, [sp, #112]
 152 0188 08C090E5 		ldr	ip, [r0, #8]
 153 018c 0C2093E5 		ldr	r2, [r3, #12]
 154 0190 A8009DE5 		ldr	r0, [sp, #168]
 155 0194 64E08DE5 		str	lr, [sp, #100]
 156 0198 68208DE5 		str	r2, [sp, #104]
 157 019c 08E09CE5 		ldr	lr, [ip, #8]
 158 01a0 0C209CE5 		ldr	r2, [ip, #12]
 159 01a4 60008DE5 		str	r0, [sp, #96]
 160 01a8 6C108DE5 		str	r1, [sp, #108]
 161 01ac 74E08DE5 		str	lr, [sp, #116]
 162 01b0 78208DE5 		str	r2, [sp, #120]
 163              	.L32:
 164 01b4 001000E3 		movw	r1, #:lower16:_ZN6tflite23kConvQuantizedDimensionE
 165 01b8 7C008DE5 		str	r0, [sp, #124]
 166 01bc 001040E3 		movt	r1, #:upper16:_ZN6tflite23kConvQuantizedDimensionE
 167 01c0 382095E5 		ldr	r2, [r5, #56]
 168 01c4 001091E5 		ldr	r1, [r1]
 169 01c8 0500A0E1 		mov	r0, r5
 170 01cc 013183E0 		add	r3, r3, r1, lsl #2
 171 01d0 04B093E5 		ldr	fp, [r3, #4]
 172 01d4 0BB1A0E1 		lsl	fp, fp, #2
 173 01d8 0B10A0E1 		mov	r1, fp
 174              	.LEHB2:
 175 01dc 32FF2FE1 		blx	r2
 176 01e0 240086E5 		str	r0, [r6, #36]
 177 01e4 0B10A0E1 		mov	r1, fp
 178 01e8 383095E5 		ldr	r3, [r5, #56]
 179 01ec 0500A0E1 		mov	r0, r5
 180 01f0 33FF2FE1 		blx	r3
 181 01f4 280086E5 		str	r0, [r6, #40]
 182 01f8 0410A0E1 		mov	r1, r4
 183 01fc 74C09DE5 		ldr	ip, [sp, #116]
 184 0200 0720A0E1 		mov	r2, r7
 185 0204 18608DE5 		str	r6, [sp, #24]
 186 0208 0500A0E1 		mov	r0, r5
 187 020c 00E0D8E5 		ldrb	lr, [r8]	@ zero_extendqisi2
 188 0210 10C08DE5 		str	ip, [sp, #16]
 189 0214 64C09DE5 		ldr	ip, [sp, #100]
 190 0218 14E08DE5 		str	lr, [sp, #20]
 191 021c 78E09DE5 		ldr	lr, [sp, #120]
 192 0220 08C08DE5 		str	ip, [sp, #8]
 193 0224 54C09DE5 		ldr	ip, [sp, #84]
 194 0228 0CE08DE5 		str	lr, [sp, #12]
 195 022c 68E09DE5 		ldr	lr, [sp, #104]
 196 0230 58309DE5 		ldr	r3, [sp, #88]
 197 0234 00508DE8 		stm	sp, {ip, lr}
 198 0238 FEFFFFEB 		bl	_ZN6tflite19CalculateOpDataConvEP13TfLiteContextP10TfLiteNodeRK16TfLiteConvParamsiiiiii10TfLite
 199              	.LEHE2:
 200 023c 004050E2 		subs	r4, r0, #0
 201 0240 0500001A 		bne	.L33
 202 0244 0030D8E5 		ldrb	r3, [r8]	@ zero_extendqisi2
 203 0248 090053E3 		cmp	r3, #9
 204 024c 2B00000A 		beq	.L73
 205              	.L34:
 206 0250 0040A0E3 		mov	r4, #0
 207 0254 0030E0E3 		mvn	r3, #0
 208 0258 343086E5 		str	r3, [r6, #52]
 209              	.L33:
 210 025c 05005AE3 		cmp	r10, #5
 211 0260 030000DA 		ble	.L35
 212 0264 9C009DE5 		ldr	r0, [sp, #156]
 213 0268 000050E3 		cmp	r0, #0
 214 026c 0000000A 		beq	.L35
 215 0270 FEFFFFEB 		bl	_ZdaPv
 216              	.L35:
 217 0274 050059E3 		cmp	r9, #5
 218 0278 050000DA 		ble	.L44
 219 027c 84009DE5 		ldr	r0, [sp, #132]
 220 0280 000050E3 		cmp	r0, #0
 221 0284 0200000A 		beq	.L44
 222 0288 FEFFFFEB 		bl	_ZdaPv
 223 028c 000000EA 		b	.L44
 224              	.L13:
 225 0290 0140A0E3 		mov	r4, #1
 226              	.L44:
 227 0294 0400A0E1 		mov	r0, r4
 228 0298 DCD08DE2 		add	sp, sp, #220
 229              		@ sp needed
 230 029c F08FBDE8 		pop	{r4, r5, r6, r7, r8, r9, r10, fp, pc}
 231              	.L14:
 232 02a0 0291A0E1 		lsl	r9, r2, #2
 233 02a4 84008DE2 		add	r0, sp, #132
 234 02a8 80FFFFEA 		b	.L16
 235              	.L17:
 236 02ac 0AA1A0E1 		lsl	r10, r10, #2
 237 02b0 9C008DE2 		add	r0, sp, #156
 238 02b4 8CFFFFEA 		b	.L19
 239              	.L72:
 240 02b8 24C09DE5 		ldr	ip, [sp, #36]
 241 02bc 08E093E5 		ldr	lr, [r3, #8]
 242 02c0 9C009DE5 		ldr	r0, [sp, #156]
 243 02c4 08C09CE5 		ldr	ip, [ip, #8]
 244 02c8 70208DE5 		str	r2, [sp, #112]
 245 02cc 0C2093E5 		ldr	r2, [r3, #12]
 246 02d0 64E08DE5 		str	lr, [sp, #100]
 247 02d4 0CE090E5 		ldr	lr, [r0, #12]
 248 02d8 68208DE5 		str	r2, [sp, #104]
 249 02dc 08209CE5 		ldr	r2, [ip, #8]
 250 02e0 0CC09CE5 		ldr	ip, [ip, #12]
 251 02e4 60E08DE5 		str	lr, [sp, #96]
 252 02e8 6C108DE5 		str	r1, [sp, #108]
 253 02ec 74208DE5 		str	r2, [sp, #116]
 254 02f0 0C0090E5 		ldr	r0, [r0, #12]
 255 02f4 78C08DE5 		str	ip, [sp, #120]
 256 02f8 ADFFFFEA 		b	.L32
 257              	.L15:
 258              	.LEHB3:
 259 02fc FEFFFFEB 		bl	__cxa_throw_bad_array_new_length
 260              	.LEHE3:
 261              	.L73:
 262 0300 2C1096E5 		ldr	r1, [r6, #44]
 263 0304 70308DE2 		add	r3, sp, #112
 264 0308 60208DE2 		add	r2, sp, #96
 265 030c 48108DE5 		str	r1, [sp, #72]
 266 0310 50108DE2 		add	r1, sp, #80
 267 0314 300096E5 		ldr	r0, [r6, #48]
 268 0318 4C008DE5 		str	r0, [sp, #76]
 269 031c 100097E5 		ldr	r0, [r7, #16]
 270 0320 121BDDED 		vldr	d17, [sp, #72]
 271 0324 40008DE5 		str	r0, [sp, #64]
 272 0328 140097E5 		ldr	r0, [r7, #20]
 273 032c 44008DE5 		str	r0, [sp, #68]
 274 0330 000096E5 		ldr	r0, [r6]
 275 0334 102BDDED 		vldr	d18, [sp, #64]
 276 0338 38008DE5 		str	r0, [sp, #56]
 277 033c 040096E5 		ldr	r0, [r6, #4]
 278 0340 3C008DE5 		str	r0, [sp, #60]
 279 0344 040097E5 		ldr	r0, [r7, #4]
 280 0348 0E0BDDED 		vldr	d16, [sp, #56]
 281 034c 30008DE5 		str	r0, [sp, #48]
 282 0350 B0008DE2 		add	r0, sp, #176
 283 0354 08C097E5 		ldr	ip, [r7, #8]
 284 0358 34C08DE5 		str	ip, [sp, #52]
 285 035c 10C098E5 		ldr	ip, [r8, #16]
 286 0360 0C3BDDED 		vldr	d19, [sp, #48]
 287 0364 00C06CE2 		rsb	ip, ip, #0
 288 0368 2E3BCDED 		vstr	d19, [sp, #184]
 289 036c 28C08DE5 		str	ip, [sp, #40]
 290 0370 24C09DE5 		ldr	ip, [sp, #36]
 291 0374 10C09CE5 		ldr	ip, [ip, #16]
 292 0378 300BCDED 		vstr	d16, [sp, #192]
 293 037c 2CC08DE5 		str	ip, [sp, #44]
 294 0380 0A0BDDED 		vldr	d16, [sp, #40]
 295 0384 322BCDED 		vstr	d18, [sp, #200]
 296 0388 341BCDED 		vstr	d17, [sp, #208]
 297 038c 2C0BCDED 		vstr	d16, [sp, #176]
 298              	.LEHB4:
 299 0390 FEFFFFEB 		bl	arm_convolve_wrapper_s8_get_buffer_size
 300 0394 001050E2 		subs	r1, r0, #0
 301 0398 ACFFFFDA 		ble	.L34
 302 039c 342086E2 		add	r2, r6, #52
 303 03a0 403095E5 		ldr	r3, [r5, #64]
 304 03a4 0500A0E1 		mov	r0, r5
 305 03a8 33FF2FE1 		blx	r3
 306              	.LEHE4:
 307 03ac 0040A0E1 		mov	r4, r0
 308 03b0 A9FFFFEA 		b	.L33
 309              	.L10:
 310              	.LEHB5:
 311 03b4 FEFFFFEB 		bl	abort
 312              	.LEHE5:
 313              	.L67:
 314              	.LEHB6:
 315 03b8 FEFFFFEB 		bl	abort
 316              	.LEHE6:
 317              	.L43:
 318 03bc 98309DE5 		ldr	r3, [sp, #152]
 319 03c0 050053E3 		cmp	r3, #5
 320 03c4 030000DA 		ble	.L38
 321 03c8 9C009DE5 		ldr	r0, [sp, #156]
 322 03cc 000050E3 		cmp	r0, #0
 323 03d0 0000000A 		beq	.L38
 324 03d4 FEFFFFEB 		bl	_ZdaPv
 325              	.L38:
 326 03d8 80309DE5 		ldr	r3, [sp, #128]
 327 03dc 050053E3 		cmp	r3, #5
 328 03e0 030000DA 		ble	.L39
 329 03e4 84009DE5 		ldr	r0, [sp, #132]
 330 03e8 000050E3 		cmp	r0, #0
 331 03ec 0000000A 		beq	.L39
 332 03f0 FEFFFFEB 		bl	_ZdaPv
 333              	.L39:
 334              	.LEHB7:
 335 03f4 FEFFFFEB 		bl	__cxa_end_cleanup
 336              	.LEHE7:
 337              	.L71:
 338              	.LEHB8:
 339 03f8 FEFFFFEB 		bl	abort
 340              	.L70:
 341 03fc FEFFFFEB 		bl	abort
 342              	.L69:
 343 0400 FEFFFFEB 		bl	abort
 344              	.L68:
 345 0404 FEFFFFEB 		bl	abort
 346              	.LEHE8:
 347              	.L42:
 348 0408 F2FFFFEA 		b	.L38
 349              	.L18:
 350              	.LEHB9:
 351 040c FEFFFFEB 		bl	__cxa_throw_bad_array_new_length
 352              	.LEHE9:
 353              		.global	__gxx_personality_v0
 354              		.personality	__gxx_personality_v0
 355              		.handlerdata
 356              	.LLSDA4265:
 357 0008 FF       		.byte	0xff
 358 0009 FF       		.byte	0xff
 359 000a 01       		.byte	0x1
 360 000b 37       		.uleb128 .LLSDACSE4265-.LLSDACSB4265
 361              	.LLSDACSB4265:
 362 000c 34       		.uleb128 .LEHB0-.LFB4265
 363 000d 78       		.uleb128 .LEHE0-.LEHB0
 364 000e 00       		.uleb128 0
 365 000f 00       		.uleb128 0
 366 0010 E401     		.uleb128 .LEHB1-.LFB4265
 367 0012 04       		.uleb128 .LEHE1-.LEHB1
 368 0013 8808     		.uleb128 .L42-.LFB4265
 369 0015 00       		.uleb128 0
 370 0016 DC03     		.uleb128 .LEHB2-.LFB4265
 371 0018 60       		.uleb128 .LEHE2-.LEHB2
 372 0019 BC07     		.uleb128 .L43-.LFB4265
 373 001b 00       		.uleb128 0
 374 001c FC05     		.uleb128 .LEHB3-.LFB4265
 375 001e 04       		.uleb128 .LEHE3-.LEHB3
 376 001f 00       		.uleb128 0
 377 0020 00       		.uleb128 0
 378 0021 9007     		.uleb128 .LEHB4-.LFB4265
 379 0023 1C       		.uleb128 .LEHE4-.LEHB4
 380 0024 BC07     		.uleb128 .L43-.LFB4265
 381 0026 00       		.uleb128 0
 382 0027 B407     		.uleb128 .LEHB5-.LFB4265
 383 0029 04       		.uleb128 .LEHE5-.LEHB5
 384 002a 00       		.uleb128 0
 385 002b 00       		.uleb128 0
 386 002c B807     		.uleb128 .LEHB6-.LFB4265
 387 002e 04       		.uleb128 .LEHE6-.LEHB6
 388 002f BC07     		.uleb128 .L43-.LFB4265
 389 0031 00       		.uleb128 0
 390 0032 F407     		.uleb128 .LEHB7-.LFB4265
 391 0034 04       		.uleb128 .LEHE7-.LEHB7
 392 0035 00       		.uleb128 0
 393 0036 00       		.uleb128 0
 394 0037 F807     		.uleb128 .LEHB8-.LFB4265
 395 0039 10       		.uleb128 .LEHE8-.LEHB8
 396 003a BC07     		.uleb128 .L43-.LFB4265
 397 003c 00       		.uleb128 0
 398 003d 8C08     		.uleb128 .LEHB9-.LFB4265
 399 003f 04       		.uleb128 .LEHE9-.LEHB9
 400 0040 8808     		.uleb128 .L42-.LFB4265
 401 0042 00       		.uleb128 0
 402              	.LLSDACSE4265:
 403              		.section	.text._ZN6tflite12_GLOBAL__N_17PrepareEP13TfLiteContextP10TfLiteNode
 404              		.fnend
 406              		.section	.text._ZN6tflite21reference_integer_ops14ConvPerChannelERKNS_10ConvParamsEPKlS5_RKNS_12Ru
 407              		.align	2
 408              		.weak	_ZN6tflite21reference_integer_ops14ConvPerChannelERKNS_10ConvParamsEPKlS5_RKNS_12RuntimeShap
 409              		.syntax unified
 410              		.arm
 411              		.fpu neon
 413              	_ZN6tflite21reference_integer_ops14ConvPerChannelERKNS_10ConvParamsEPKlS5_RKNS_12RuntimeShapeEPKaS8
 414              		.fnstart
 415              	.LFB4236:
 416              		@ args = 28, pretend = 0, frame = 120
 417              		@ frame_needed = 0, uses_anonymous_args = 0
 418 0000 F04F2DE9 		push	{r4, r5, r6, r7, r8, r9, r10, fp, lr}
 419              		.save {r4, r5, r6, r7, r8, r9, r10, fp, lr}
 420              		.pad #124
 421 0004 7CD04DE2 		sub	sp, sp, #124
 422 0008 18308DE5 		str	r3, [sp, #24]
 423 000c FA30D0E1 		ldrsh	r3, [r0, #10]
 424 0010 4C108DE5 		str	r1, [sp, #76]
 425 0014 50208DE5 		str	r2, [sp, #80]
 426 0018 6C308DE5 		str	r3, [sp, #108]
 427 001c FC30D0E1 		ldrsh	r3, [r0, #12]
 428 0020 281090E5 		ldr	r1, [r0, #40]
 429 0024 2C2090E5 		ldr	r2, [r0, #44]
 430 0028 70308DE5 		str	r3, [sp, #112]
 431 002c FE30D0E1 		ldrsh	r3, [r0, #14]
 432 0030 020051E1 		cmp	r1, r2
 433 0034 54108DE5 		str	r1, [sp, #84]
 434 0038 74208DE5 		str	r2, [sp, #116]
 435 003c 0C308DE5 		str	r3, [sp, #12]
 436 0040 F031D0E1 		ldrsh	r3, [r0, #16]
 437 0044 14B090E5 		ldr	fp, [r0, #20]
 438 0048 A4909DE5 		ldr	r9, [sp, #164]
 439 004c 2C308DE5 		str	r3, [sp, #44]
 440 0050 F230D0E1 		ldrsh	r3, [r0, #2]
 441 0054 AC109DE5 		ldr	r1, [sp, #172]
 442 0058 44308DE5 		str	r3, [sp, #68]
 443 005c F430D0E1 		ldrsh	r3, [r0, #4]
 444 0060 48308DE5 		str	r3, [sp, #72]
 445 0064 1C3090E5 		ldr	r3, [r0, #28]
 446 0068 68308DE5 		str	r3, [sp, #104]
 447 006c 7F0100CA 		bgt	.L76
 448 0070 18209DE5 		ldr	r2, [sp, #24]
 449 0074 003092E5 		ldr	r3, [r2]
 450 0078 040053E3 		cmp	r3, #4
 451 007c 7B01001A 		bne	.L76
 452 0080 003099E5 		ldr	r3, [r9]
 453 0084 040053E3 		cmp	r3, #4
 454 0088 7801001A 		bne	.L76
 455 008c B4309DE5 		ldr	r3, [sp, #180]
 456 0090 003093E5 		ldr	r3, [r3]
 457 0094 040053E3 		cmp	r3, #4
 458 0098 7401001A 		bne	.L76
 459 009c B4309DE5 		ldr	r3, [sp, #180]
 460 00a0 043093E5 		ldr	r3, [r3, #4]
 461 00a4 0300A0E1 		mov	r0, r3
 462 00a8 38308DE5 		str	r3, [sp, #56]
 463 00ac 043092E5 		ldr	r3, [r2, #4]
 464 00b0 030050E1 		cmp	r0, r3
 465 00b4 6D01001A 		bne	.L76
 466 00b8 10A099E5 		ldr	r10, [r9, #16]
 467 00bc 103092E5 		ldr	r3, [r2, #16]
 468 00c0 03005AE1 		cmp	r10, r3
 469 00c4 6901001A 		bne	.L76
 470 00c8 B4309DE5 		ldr	r3, [sp, #180]
 471 00cc 103093E5 		ldr	r3, [r3, #16]
 472 00d0 0320A0E1 		mov	r2, r3
 473 00d4 30308DE5 		str	r3, [sp, #48]
 474 00d8 043099E5 		ldr	r3, [r9, #4]
 475 00dc 030052E1 		cmp	r2, r3
 476 00e0 6201001A 		bne	.L76
 477 00e4 B0309DE5 		ldr	r3, [sp, #176]
 478 00e8 000053E3 		cmp	r3, #0
 479 00ec 5900000A 		beq	.L77
 480 00f0 000091E5 		ldr	r0, [r1]
 481 00f4 050050E3 		cmp	r0, #5
 482 00f8 5D0100CA 		bgt	.L152
 483 00fc 000050E3 		cmp	r0, #0
 484 0100 041081E2 		add	r1, r1, #4
 485 0104 0120A0D3 		movle	r2, #1
 486 0108 4F0000DA 		ble	.L80
 487              	.L79:
 488 010c 5131A0E7 		sbfx	r3, r1, #2, #1
 489 0110 033003E2 		and	r3, r3, #3
 490 0114 000053E1 		cmp	r3, r0
 491 0118 0030A021 		movcs	r3, r0
 492 011c 080050E3 		cmp	r0, #8
 493 0120 0030A0D1 		movle	r3, r0
 494 0124 590100CA 		bgt	.L153
 495              	.L81:
 496 0128 010053E3 		cmp	r3, #1
 497 012c 002091E5 		ldr	r2, [r1]
 498 0130 5101000A 		beq	.L126
 499 0134 04C091E5 		ldr	ip, [r1, #4]
 500 0138 020053E3 		cmp	r3, #2
 501 013c 9C0202E0 		mul	r2, ip, r2
 502 0140 4D01000A 		beq	.L126
 503 0144 08C091E5 		ldr	ip, [r1, #8]
 504 0148 030053E3 		cmp	r3, #3
 505 014c 9C0202E0 		mul	r2, ip, r2
 506 0150 4901000A 		beq	.L126
 507 0154 0CC091E5 		ldr	ip, [r1, #12]
 508 0158 040053E3 		cmp	r3, #4
 509 015c 9C0202E0 		mul	r2, ip, r2
 510 0160 4501000A 		beq	.L126
 511 0164 10C091E5 		ldr	ip, [r1, #16]
 512 0168 050053E3 		cmp	r3, #5
 513 016c 9C0202E0 		mul	r2, ip, r2
 514 0170 4101000A 		beq	.L126
 515 0174 14C091E5 		ldr	ip, [r1, #20]
 516 0178 060053E3 		cmp	r3, #6
 517 017c 9C0202E0 		mul	r2, ip, r2
 518 0180 3D01000A 		beq	.L126
 519 0184 18C091E5 		ldr	ip, [r1, #24]
 520 0188 070053E3 		cmp	r3, #7
 521 018c 9C0202E0 		mul	r2, ip, r2
 522 0190 3901000A 		beq	.L126
 523 0194 1CE091E5 		ldr	lr, [r1, #28]
 524 0198 08C0A0E3 		mov	ip, #8
 525 019c 9E0202E0 		mul	r2, lr, r2
 526              	.L83:
 527 01a0 000053E1 		cmp	r3, r0
 528 01a4 2800000A 		beq	.L80
 529              	.L82:
 530 01a8 036040E0 		sub	r6, r0, r3
 531 01ac 014040E2 		sub	r4, r0, #1
 532 01b0 04E046E2 		sub	lr, r6, #4
 533 01b4 034044E0 		sub	r4, r4, r3
 534 01b8 2EE1A0E1 		lsr	lr, lr, #2
 535 01bc 020054E3 		cmp	r4, #2
 536 01c0 01E08EE2 		add	lr, lr, #1
 537 01c4 0E51A0E1 		lsl	r5, lr, #2
 538 01c8 1200009A 		bls	.L85
 539 01cc 033181E0 		add	r3, r1, r3, lsl #2
 540 01d0 5120C0F2 		vmov.i32	q9, #1  @ v4si
 541 01d4 0040A0E3 		mov	r4, #0
 542              	.L87:
 543 01d8 014084E2 		add	r4, r4, #1
 544 01dc DF0A63F4 		vld1.64	{d16-d17}, [r3:64]
 545 01e0 04005EE1 		cmp	lr, r4
 546 01e4 103083E2 		add	r3, r3, #16
 547 01e8 F02962F2 		vmul.i32	q9, q9, q8
 548 01ec F9FFFF8A 		bhi	.L87
 549 01f0 060055E1 		cmp	r5, r6
 550 01f4 05C08CE0 		add	ip, ip, r5
 551 01f8 5000C0F2 		vmov.i32	q8, #0  @ v4si
 552 01fc E048F2F2 		vext.32	q10, q9, q8, #2
 553 0200 F22964F2 		vmul.i32	q9, q10, q9
 554 0204 E004F2F2 		vext.32	q8, q9, q8, #1
 555 0208 F20960F2 		vmul.i32	q8, q8, q9
 556 020c 903B10EE 		vmov.32	r3, d16[0]
 557 0210 930202E0 		mul	r2, r3, r2
 558 0214 0C00000A 		beq	.L80
 559              	.L85:
 560 0218 0CE191E7 		ldr	lr, [r1, ip, lsl #2]
 561 021c 01308CE2 		add	r3, ip, #1
 562 0220 030050E1 		cmp	r0, r3
 563 0224 0C31A0E1 		lsl	r3, ip, #2
 564 0228 9E0202E0 		mul	r2, lr, r2
 565 022c 060000DA 		ble	.L80
 566 0230 031081E0 		add	r1, r1, r3
 567 0234 02C08CE2 		add	ip, ip, #2
 568 0238 043091E5 		ldr	r3, [r1, #4]
 569 023c 0C0050E1 		cmp	r0, ip
 570 0240 930202E0 		mul	r2, r3, r2
 571 0244 083091C5 		ldrgt	r3, [r1, #8]
 572 0248 930202C0 		mulgt	r2, r3, r2
 573              	.L80:
 574 024c 30309DE5 		ldr	r3, [sp, #48]
 575 0250 020053E1 		cmp	r3, r2
 576 0254 0501001A 		bne	.L76
 577              	.L77:
 578 0258 38309DE5 		ldr	r3, [sp, #56]
 579 025c 000053E3 		cmp	r3, #0
 580 0260 18309DE5 		ldr	r3, [sp, #24]
 581 0264 082093E5 		ldr	r2, [r3, #8]
 582 0268 0C3093E5 		ldr	r3, [r3, #12]
 583 026c 28208DE5 		str	r2, [sp, #40]
 584 0270 08308DE5 		str	r3, [sp, #8]
 585 0274 083099E5 		ldr	r3, [r9, #8]
 586 0278 20308DE5 		str	r3, [sp, #32]
 587 027c 0C3099E5 		ldr	r3, [r9, #12]
 588 0280 04308DE5 		str	r3, [sp, #4]
 589 0284 B4309DE5 		ldr	r3, [sp, #180]
 590 0288 083093E5 		ldr	r3, [r3, #8]
 591 028c 40308DE5 		str	r3, [sp, #64]
 592 0290 B4309DE5 		ldr	r3, [sp, #180]
 593 0294 0C3093E5 		ldr	r3, [r3, #12]
 594 0298 3C308DE5 		str	r3, [sp, #60]
 595 029c F10000DA 		ble	.L74
 596 02a0 F80BDFED 		vldr.64	d16, .L157	@ int
 597 02a4 0030A0E3 		mov	r3, #0
 598 02a8 1C308DE5 		str	r3, [sp, #28]
 599              	.L94:
 600 02ac 40309DE5 		ldr	r3, [sp, #64]
 601 02b0 000053E3 		cmp	r3, #0
 602 02b4 E50000DA 		ble	.L96
 603 02b8 48309DE5 		ldr	r3, [sp, #72]
 604 02bc 003063E2 		rsb	r3, r3, #0
 605 02c0 34308DE5 		str	r3, [sp, #52]
 606 02c4 0030A0E3 		mov	r3, #0
 607 02c8 5C308DE5 		str	r3, [sp, #92]
 608              	.L97:
 609 02cc 3C309DE5 		ldr	r3, [sp, #60]
 610 02d0 000053E3 		cmp	r3, #0
 611 02d4 D30000DA 		ble	.L99
 612 02d8 44309DE5 		ldr	r3, [sp, #68]
 613 02dc 003063E2 		rsb	r3, r3, #0
 614 02e0 24308DE5 		str	r3, [sp, #36]
 615 02e4 0030A0E3 		mov	r3, #0
 616 02e8 58308DE5 		str	r3, [sp, #88]
 617              	.L100:
 618 02ec 30309DE5 		ldr	r3, [sp, #48]
 619 02f0 000053E3 		cmp	r3, #0
 620 02f4 C10000DA 		ble	.L112
 621 02f8 4C309DE5 		ldr	r3, [sp, #76]
 622 02fc 0080A0E3 		mov	r8, #0
 623 0300 043043E2 		sub	r3, r3, #4
 624 0304 64308DE5 		str	r3, [sp, #100]
 625 0308 50309DE5 		ldr	r3, [sp, #80]
 626 030c 043043E2 		sub	r3, r3, #4
 627 0310 60308DE5 		str	r3, [sp, #96]
 628              	.L113:
 629 0314 20309DE5 		ldr	r3, [sp, #32]
 630 0318 0050A0E3 		mov	r5, #0
 631 031c 000053E3 		cmp	r3, #0
 632 0320 5F0000DA 		ble	.L101
 633 0324 34309DE5 		ldr	r3, [sp, #52]
 634 0328 0560A0E1 		mov	r6, r5
 635 032c 14308DE5 		str	r3, [sp, #20]
 636              	.L106:
 637 0330 04309DE5 		ldr	r3, [sp, #4]
 638 0334 000053E3 		cmp	r3, #0
 639 0338 510000DA 		ble	.L102
 640 033c 14209DE5 		ldr	r2, [sp, #20]
 641 0340 00E0A0E3 		mov	lr, #0
 642 0344 28109DE5 		ldr	r1, [sp, #40]
 643 0348 0230E0E1 		mvn	r3, r2
 644 034c A33FA0E1 		lsr	r3, r3, #31
 645 0350 010052E1 		cmp	r2, r1
 646 0354 0030A0A3 		movge	r3, #0
 647 0358 10308DE5 		str	r3, [sp, #16]
 648 035c 24309DE5 		ldr	r3, [sp, #36]
 649 0360 00308DE5 		str	r3, [sp]
 650              	.L105:
 651 0364 00209DE5 		ldr	r2, [sp]
 652 0368 08109DE5 		ldr	r1, [sp, #8]
 653 036c 0230E0E1 		mvn	r3, r2
 654 0370 A33FA0E1 		lsr	r3, r3, #31
 655 0374 010052E1 		cmp	r2, r1
 656 0378 0030A0A3 		movge	r3, #0
 657 037c 000053E3 		cmp	r3, #0
 658 0380 3700000A 		beq	.L103
 659 0384 10309DE5 		ldr	r3, [sp, #16]
 660 0388 000053E3 		cmp	r3, #0
 661 038c 3400000A 		beq	.L103
 662 0390 00005AE3 		cmp	r10, #0
 663 0394 320000DA 		ble	.L103
 664 0398 18109DE5 		ldr	r1, [sp, #24]
 665 039c 003091E5 		ldr	r3, [r1]
 666 03a0 040053E3 		cmp	r3, #4
 667 03a4 B100001A 		bne	.L76
 668 03a8 043091E5 		ldr	r3, [r1, #4]
 669 03ac 1C009DE5 		ldr	r0, [sp, #28]
 670 03b0 030050E1 		cmp	r0, r3
 671 03b4 AD0000AA 		bge	.L76
 672 03b8 084091E5 		ldr	r4, [r1, #8]
 673 03bc 0130A0E1 		mov	r3, r1
 674 03c0 14C09DE5 		ldr	ip, [sp, #20]
 675 03c4 04005CE1 		cmp	ip, r4
 676 03c8 A80000AA 		bge	.L76
 677 03cc 0310A0E1 		mov	r1, r3
 678 03d0 0C3093E5 		ldr	r3, [r3, #12]
 679 03d4 030052E1 		cmp	r2, r3
 680 03d8 A40000AA 		bge	.L76
 681 03dc 90C424E0 		mla	r4, r0, r4, ip
 682 03e0 107091E5 		ldr	r7, [r1, #16]
 683 03e4 0000A0E3 		mov	r0, #0
 684 03e8 932424E0 		mla	r4, r3, r4, r2
 685 03ec A0309DE5 		ldr	r3, [sp, #160]
 686 03f0 973424E0 		mla	r4, r7, r4, r3
 687              	.L104:
 688 03f4 070050E1 		cmp	r0, r7
 689 03f8 9C0000AA 		bge	.L76
 690 03fc 003099E5 		ldr	r3, [r9]
 691 0400 D120D4E0 		ldrsb	r2, [r4], #1
 692 0404 040053E3 		cmp	r3, #4
 693 0408 9800001A 		bne	.L76
 694 040c 043099E5 		ldr	r3, [r9, #4]
 695 0410 030058E1 		cmp	r8, r3
 696 0414 950000AA 		bge	.L76
 697 0418 083099E5 		ldr	r3, [r9, #8]
 698 041c 030056E1 		cmp	r6, r3
 699 0420 920000AA 		bge	.L76
 700 0424 0C1099E5 		ldr	r1, [r9, #12]
 701 0428 01005EE1 		cmp	lr, r1
 702 042c 8F0000AA 		bge	.L76
 703 0430 10C099E5 		ldr	ip, [r9, #16]
 704 0434 0C0050E1 		cmp	r0, ip
 705 0438 8C0000AA 		bge	.L76
 706 043c 936823E0 		mla	r3, r3, r8, r6
 707 0440 02208BE0 		add	r2, fp, r2
 708 0444 91E323E0 		mla	r3, r1, r3, lr
 709 0448 A8109DE5 		ldr	r1, [sp, #168]
 710 044c 9C132CE0 		mla	ip, ip, r3, r1
 711 0450 D0309CE1 		ldrsb	r3, [ip, r0]
 712 0454 010080E2 		add	r0, r0, #1
 713 0458 0A0050E1 		cmp	r0, r10
 714 045c 925325E0 		mla	r5, r2, r3, r5
 715 0460 E3FFFF1A 		bne	.L104
 716              	.L103:
 717 0464 00309DE5 		ldr	r3, [sp]
 718 0468 01E08EE2 		add	lr, lr, #1
 719 046c 0C209DE5 		ldr	r2, [sp, #12]
 720 0470 023083E0 		add	r3, r3, r2
 721 0474 00308DE5 		str	r3, [sp]
 722 0478 04309DE5 		ldr	r3, [sp, #4]
 723 047c 03005EE1 		cmp	lr, r3
 724 0480 B7FFFF1A 		bne	.L105
 725              	.L102:
 726 0484 14309DE5 		ldr	r3, [sp, #20]
 727 0488 016086E2 		add	r6, r6, #1
 728 048c 2C209DE5 		ldr	r2, [sp, #44]
 729 0490 023083E0 		add	r3, r3, r2
 730 0494 14308DE5 		str	r3, [sp, #20]
 731 0498 20309DE5 		ldr	r3, [sp, #32]
 732 049c 030056E1 		cmp	r6, r3
 733 04a0 A2FFFF1A 		bne	.L106
 734              	.L101:
 735 04a4 B0309DE5 		ldr	r3, [sp, #176]
 736 04a8 64209DE5 		ldr	r2, [sp, #100]
 737 04ac 000053E3 		cmp	r3, #0
 738 04b0 08319317 		ldrne	r3, [r3, r8, lsl #2]
 739 04b4 03508510 		addne	r5, r5, r3
 740 04b8 60309DE5 		ldr	r3, [sp, #96]
 741 04bc 0410B3E5 		ldr	r1, [r3, #4]!
 742 04c0 60308DE5 		str	r3, [sp, #96]
 743 04c4 000051E3 		cmp	r1, #0
 744 04c8 0430B2E5 		ldr	r3, [r2, #4]!
 745 04cc 64208DE5 		str	r2, [sp, #100]
 746 04d0 C12FC1E1 		bic	r2, r1, r1, asr #31
 747 04d4 001061D2 		rsble	r1, r1, #0
 748 04d8 1552A0E1 		lsl	r5, r5, r2
 749 04dc 0010A0C3 		movgt	r1, #0
 750 04e0 9563C7E0 		smull	r6, r7, r5, r3
 751 04e4 050053E1 		cmp	r3, r5
 752 04e8 02015503 		cmpeq	r5, #-2147483648
 753 04ec 0150A003 		moveq	r5, #1
 754 04f0 0050A013 		movne	r5, #0
 755 04f4 000056E3 		cmp	r6, #0
 756 04f8 0030D7E2 		sbcs	r3, r7, #0
 757 04fc 6F0000BA 		blt	.L129
 758 0500 0121A0E3 		mov	r2, #1073741824
 759 0504 0030A0E3 		mov	r3, #0
 760              	.L109:
 761 0508 000055E3 		cmp	r5, #0
 762 050c 6900001A 		bne	.L154
 763 0510 026096E0 		adds	r6, r6, r2
 764 0514 0370A7E0 		adc	r7, r7, r3
 765 0518 0030A0E3 		mov	r3, #0
 766 051c C72FA0E1 		asr	r2, r7, #31
 767 0520 0221C2E3 		bic	r2, r2, #-2147483648
 768 0524 062092E0 		adds	r2, r2, r6
 769 0528 A22FA0E1 		lsr	r2, r2, #31
 770 052c 0730A3E0 		adc	r3, r3, r7
 771 0530 832082E1 		orr	r2, r2, r3, lsl #1
 772              	.L114:
 773 0534 1F0051E3 		cmp	r1, #31
 774 0538 630000CA 		bgt	.L155
 775 053c 901B02EE 		vmov.32	d18[0], r1
 776 0540 5211A0E1 		asr	r1, r2, r1
 777 0544 A01472F3 		vshl.u64	d17, d16, d18
 778 0548 314B55EC 		vmov	r4, r5, d17	@ int
 779 054c 013044E2 		sub	r3, r4, #1
 780 0550 C300A0E1 		asr	r0, r3, #1
 781 0554 023003E0 		and	r3, r3, r2
 782 0558 A22F80E0 		add	r2, r0, r2, lsr #31
 783 055c 020053E1 		cmp	r3, r2
 784 0560 0130A0D1 		movle	r3, r1
 785 0564 013081C2 		addgt	r3, r1, #1
 786 0568 68209DE5 		ldr	r2, [sp, #104]
 787 056c 023083E0 		add	r3, r3, r2
 788 0570 54209DE5 		ldr	r2, [sp, #84]
 789 0574 030052E1 		cmp	r2, r3
 790 0578 0200A0C1 		movgt	r0, r2
 791 057c 480000DA 		ble	.L156
 792              	.L111:
 793 0580 B4309DE5 		ldr	r3, [sp, #180]
 794 0584 003093E5 		ldr	r3, [r3]
 795 0588 040053E3 		cmp	r3, #4
 796 058c 3700001A 		bne	.L76
 797 0590 B4309DE5 		ldr	r3, [sp, #180]
 798 0594 1CC09DE5 		ldr	ip, [sp, #28]
 799 0598 043093E5 		ldr	r3, [r3, #4]
 800 059c 03005CE1 		cmp	ip, r3
 801 05a0 320000AA 		bge	.L76
 802 05a4 B4309DE5 		ldr	r3, [sp, #180]
 803 05a8 5CE09DE5 		ldr	lr, [sp, #92]
 804 05ac 083093E5 		ldr	r3, [r3, #8]
 805 05b0 03005EE1 		cmp	lr, r3
 806 05b4 2D0000AA 		bge	.L76
 807 05b8 B4209DE5 		ldr	r2, [sp, #180]
 808 05bc 58409DE5 		ldr	r4, [sp, #88]
 809 05c0 0C1092E5 		ldr	r1, [r2, #12]
 810 05c4 010054E1 		cmp	r4, r1
 811 05c8 280000AA 		bge	.L76
 812 05cc B4209DE5 		ldr	r2, [sp, #180]
 813 05d0 102092E5 		ldr	r2, [r2, #16]
 814 05d4 020058E1 		cmp	r8, r2
 815 05d8 240000AA 		bge	.L76
 816 05dc 93EC23E0 		mla	r3, r3, ip, lr
 817 05e0 914323E0 		mla	r3, r1, r3, r4
 818 05e4 B8109DE5 		ldr	r1, [sp, #184]
 819 05e8 921323E0 		mla	r3, r2, r3, r1
 820 05ec 0800C3E7 		strb	r0, [r3, r8]
 821 05f0 018088E2 		add	r8, r8, #1
 822 05f4 30309DE5 		ldr	r3, [sp, #48]
 823 05f8 030058E1 		cmp	r8, r3
 824 05fc 44FFFF1A 		bne	.L113
 825              	.L112:
 826 0600 24209DE5 		ldr	r2, [sp, #36]
 827 0604 6C109DE5 		ldr	r1, [sp, #108]
 828 0608 58309DE5 		ldr	r3, [sp, #88]
 829 060c 012082E0 		add	r2, r2, r1
 830 0610 24208DE5 		str	r2, [sp, #36]
 831 0614 013083E2 		add	r3, r3, #1
 832 0618 3C209DE5 		ldr	r2, [sp, #60]
 833 061c 58308DE5 		str	r3, [sp, #88]
 834 0620 020053E1 		cmp	r3, r2
 835 0624 30FFFF1A 		bne	.L100
 836              	.L99:
 837 0628 34209DE5 		ldr	r2, [sp, #52]
 838 062c 70109DE5 		ldr	r1, [sp, #112]
 839 0630 5C309DE5 		ldr	r3, [sp, #92]
 840 0634 012082E0 		add	r2, r2, r1
 841 0638 34208DE5 		str	r2, [sp, #52]
 842 063c 013083E2 		add	r3, r3, #1
 843 0640 40209DE5 		ldr	r2, [sp, #64]
 844 0644 5C308DE5 		str	r3, [sp, #92]
 845 0648 020053E1 		cmp	r3, r2
 846 064c 1EFFFF1A 		bne	.L97
 847              	.L96:
 848 0650 1C309DE5 		ldr	r3, [sp, #28]
 849 0654 38209DE5 		ldr	r2, [sp, #56]
 850 0658 013083E2 		add	r3, r3, #1
 851 065c 020053E1 		cmp	r3, r2
 852 0660 1C308DE5 		str	r3, [sp, #28]
 853 0664 10FFFF1A 		bne	.L94
 854              	.L74:
 855 0668 7CD08DE2 		add	sp, sp, #124
 856              		@ sp needed
 857 066c F08FBDE8 		pop	{r4, r5, r6, r7, r8, r9, r10, fp, pc}
 858              	.L76:
 859 0670 FEFFFFEB 		bl	abort
 860              	.L152:
 861 0674 041091E5 		ldr	r1, [r1, #4]
 862 0678 A3FEFFEA 		b	.L79
 863              	.L126:
 864 067c 03C0A0E1 		mov	ip, r3
 865 0680 C6FEFFEA 		b	.L83
 866              	.L158:
 867 0684 00F020E3 		.align	3
 868              	.L157:
 869 0688 01000000 		.word	1
 870 068c 00000000 		.word	0
 871              	.L153:
 872 0690 000053E3 		cmp	r3, #0
 873 0694 0120A003 		moveq	r2, #1
 874 0698 03C0A001 		moveq	ip, r3
 875 069c C1FEFF0A 		beq	.L82
 876 06a0 A0FEFFEA 		b	.L81
 877              	.L156:
 878 06a4 74209DE5 		ldr	r2, [sp, #116]
 879 06a8 030052E1 		cmp	r2, r3
 880 06ac 0200A0B1 		movlt	r0, r2
 881 06b0 0300A0A1 		movge	r0, r3
 882 06b4 B1FFFFEA 		b	.L111
 883              	.L154:
 884 06b8 0221E0E3 		mvn	r2, #-2147483648
 885 06bc 9CFFFFEA 		b	.L114
 886              	.L129:
 887 06c0 0721A0E3 		mov	r2, #-1073741823
 888 06c4 0030E0E3 		mvn	r3, #0
 889 06c8 8EFFFFEA 		b	.L109
 890              	.L155:
 891 06cc 003000E3 		movw	r3, #:lower16:.LC1
 892 06d0 002000E3 		movw	r2, #:lower16:.LANCHOR0
 893 06d4 000000E3 		movw	r0, #:lower16:.LC2
 894 06d8 003040E3 		movt	r3, #:upper16:.LC1
 895 06dc 002040E3 		movt	r2, #:upper16:.LANCHOR0
 896 06e0 000040E3 		movt	r0, #:upper16:.LC2
 897 06e4 671100E3 		movw	r1, #359
 898 06e8 FEFFFFEB 		bl	__assert_func
 899              		.fnend
 901              		.section	.text._ZN6tflite12_GLOBAL__N_14EvalEP13TfLiteContextP10TfLiteNode,"ax",%progbits
 902              		.align	2
 903              		.syntax unified
 904              		.arm
 905              		.fpu neon
 907              	_ZN6tflite12_GLOBAL__N_14EvalEP13TfLiteContextP10TfLiteNode:
 908              		.fnstart
 909              	.LFB4267:
 910              		@ args = 0, pretend = 0, frame = 424
 911              		@ frame_needed = 0, uses_anonymous_args = 0
 912 0000 F04F2DE9 		push	{r4, r5, r6, r7, r8, r9, r10, fp, lr}
 913              		.save {r4, r5, r6, r7, r8, r9, r10, fp, lr}
 914 0004 003000E3 		movw	r3, #:lower16:_ZN6tflite16kConvInputTensorE
 915 0008 004050E2 		subs	r4, r0, #0
 916 000c 003040E3 		movt	r3, #:upper16:_ZN6tflite16kConvInputTensorE
 917 0010 0170A0E1 		mov	r7, r1
 918              		.pad #460
 919 0014 73DF4DE2 		sub	sp, sp, #460
 920 0018 001093E5 		ldr	r1, [r3]
 921 001c 6603000A 		beq	.L161
 922 0020 000057E3 		cmp	r7, #0
 923 0024 6403000A 		beq	.L161
 924 0028 003097E5 		ldr	r3, [r7]
 925 002c 542094E5 		ldr	r2, [r4, #84]
 926 0030 013183E0 		add	r3, r3, r1, lsl #2
 927 0034 041093E5 		ldr	r1, [r3, #4]
 928              	.LEHB10:
 929 0038 32FF2FE1 		blx	r2
 930 003c 002000E3 		movw	r2, #:lower16:_ZN6tflite18kConvWeightsTensorE
 931 0040 003097E5 		ldr	r3, [r7]
 932 0044 002040E3 		movt	r2, #:upper16:_ZN6tflite18kConvWeightsTensorE
 933 0048 546094E5 		ldr	r6, [r4, #84]
 934 004c 002092E5 		ldr	r2, [r2]
 935 0050 0050A0E1 		mov	r5, r0
 936 0054 0400A0E1 		mov	r0, r4
 937 0058 023183E0 		add	r3, r3, r2, lsl #2
 938 005c 041093E5 		ldr	r1, [r3, #4]
 939 0060 36FF2FE1 		blx	r6
 940 0064 003097E5 		ldr	r3, [r7]
 941 0068 0060A0E1 		mov	r6, r0
 942 006c 002093E5 		ldr	r2, [r3]
 943 0070 030052E3 		cmp	r2, #3
 944 0074 00A0A013 		movne	r10, #0
 945 0078 6900000A 		beq	.L472
 946              	.L162:
 947 007c 002000E3 		movw	r2, #:lower16:_ZN6tflite17kConvOutputTensorE
 948 0080 043097E5 		ldr	r3, [r7, #4]
 949 0084 002040E3 		movt	r2, #:upper16:_ZN6tflite17kConvOutputTensorE
 950 0088 548094E5 		ldr	r8, [r4, #84]
 951 008c 002092E5 		ldr	r2, [r2]
 952 0090 0400A0E1 		mov	r0, r4
 953 0094 023183E0 		add	r3, r3, r2, lsl #2
 954 0098 041093E5 		ldr	r1, [r3, #4]
 955 009c 38FF2FE1 		blx	r8
 956 00a0 14C097E5 		ldr	ip, [r7, #20]
 957 00a4 00B0A0E1 		mov	fp, r0
 958 00a8 00005CE3 		cmp	ip, #0
 959 00ac 4203000A 		beq	.L161
 960 00b0 107097E5 		ldr	r7, [r7, #16]
 961 00b4 000057E3 		cmp	r7, #0
 962 00b8 3F03000A 		beq	.L161
 963 00bc 0820D5E5 		ldrb	r2, [r5, #8]	@ zero_extendqisi2
 964 00c0 0830D0E5 		ldrb	r3, [r0, #8]	@ zero_extendqisi2
 965 00c4 020053E1 		cmp	r3, r2
 966 00c8 0200000A 		beq	.L473
 967              	.L434:
 968 00cc 0100A0E3 		mov	r0, #1
 969              	.L436:
 970 00d0 73DF8DE2 		add	sp, sp, #460
 971              		@ sp needed
 972 00d4 F08FBDE8 		pop	{r4, r5, r6, r7, r8, r9, r10, fp, pc}
 973              	.L473:
 974 00d8 0820D6E5 		ldrb	r2, [r6, #8]	@ zero_extendqisi2
 975 00dc 030052E1 		cmp	r2, r3
 976 00e0 F9FFFF1A 		bne	.L434
 977 00e4 010052E3 		cmp	r2, #1
 978 00e8 5700000A 		beq	.L164
 979 00ec 090052E3 		cmp	r2, #9
 980 00f0 F5FFFF1A 		bne	.L434
 981 00f4 14209CE5 		ldr	r2, [ip, #20]
 982 00f8 10309CE5 		ldr	r3, [ip, #16]
 983 00fc 84218DE5 		str	r2, [sp, #388]
 984 0100 010052E3 		cmp	r2, #1
 985 0104 01005303 		cmpeq	r3, #1
 986 0108 80318DE5 		str	r3, [sp, #384]
 987 010c 3C02000A 		beq	.L474
 988 0110 0C10A0E1 		mov	r1, ip
 989 0114 0720A0E1 		mov	r2, r7
 990 0118 190E8DE2 		add	r0, sp, #400
 991 011c 124E8DE2 		add	r4, sp, #288
 992 0120 FEFFFFEB 		bl	_ZN6tflite19ConvParamsQuantizedERK16TfLiteConvParamsRKNS_10OpDataConvE
 993 0124 283097E5 		ldr	r3, [r7, #40]
 994 0128 420F8DE2 		add	r0, sp, #264
 995 012c 0510A0E1 		mov	r1, r5
 996 0130 249097E5 		ldr	r9, [r7, #36]
 997 0134 24308DE5 		str	r3, [sp, #36]
 998 0138 FEFFFFEB 		bl	_ZN6tflite5micro14GetTensorShapeEPK16TfLiteEvalTensor
 999              	.LEHE10:
 1000 013c 0400A0E1 		mov	r0, r4
 1001 0140 0610A0E1 		mov	r1, r6
 1002 0144 007095E5 		ldr	r7, [r5]
 1003              	.LEHB11:
 1004 0148 FEFFFFEB 		bl	_ZN6tflite5micro14GetTensorShapeEPK16TfLiteEvalTensor
 1005              	.LEHE11:
 1006 014c 4E5F8DE2 		add	r5, sp, #312
 1007 0150 0A10A0E1 		mov	r1, r10
 1008 0154 0500A0E1 		mov	r0, r5
 1009 0158 008096E5 		ldr	r8, [r6]
 1010              	.LEHB12:
 1011 015c FEFFFFEB 		bl	_ZN6tflite5micro14GetTensorShapeEPK16TfLiteEvalTensor
 1012              	.LEHE12:
 1013 0160 00005AE3 		cmp	r10, #0
 1014 0164 4D03000A 		beq	.L475
 1015 0168 156E8DE2 		add	r6, sp, #336
 1016 016c 0B10A0E1 		mov	r1, fp
 1017 0170 0600A0E1 		mov	r0, r6
 1018 0174 00A09AE5 		ldr	r10, [r10]
 1019              	.LEHB13:
 1020 0178 FEFFFFEB 		bl	_ZN6tflite5micro14GetTensorShapeEPK16TfLiteEvalTensor
 1021              	.LEHE13:
 1022 017c 00009BE5 		ldr	r0, [fp]
 1023 0180 423F8DE2 		add	r3, sp, #264
 1024 0184 14608DE5 		str	r6, [sp, #20]
 1025 0188 0910A0E1 		mov	r1, r9
 1026 018c 24209DE5 		ldr	r2, [sp, #36]
 1027 0190 18008DE5 		str	r0, [sp, #24]
 1028 0194 190E8DE2 		add	r0, sp, #400
 1029 0198 10A08DE5 		str	r10, [sp, #16]
 1030 019c 0C508DE5 		str	r5, [sp, #12]
 1031 01a0 10018DE9 		stmib	sp, {r4, r8}
 1032 01a4 00708DE5 		str	r7, [sp]
 1033              	.LEHB14:
 1034 01a8 FEFFFFEB 		bl	_ZN6tflite21reference_integer_ops14ConvPerChannelERKNS_10ConvParamsEPKlS5_RKNS_12RuntimeShapeEP
 1035              	.LEHE14:
 1036 01ac 50319DE5 		ldr	r3, [sp, #336]
 1037 01b0 050053E3 		cmp	r3, #5
 1038 01b4 030000DA 		ble	.L258
 1039              	.L466:
 1040 01b8 54019DE5 		ldr	r0, [sp, #340]
 1041 01bc 000050E3 		cmp	r0, #0
 1042 01c0 0000000A 		beq	.L258
 1043 01c4 FEFFFFEB 		bl	_ZdaPv
 1044              	.L258:
 1045 01c8 38319DE5 		ldr	r3, [sp, #312]
 1046 01cc 050053E3 		cmp	r3, #5
 1047 01d0 030000DA 		ble	.L259
 1048 01d4 3C019DE5 		ldr	r0, [sp, #316]
 1049 01d8 000050E3 		cmp	r0, #0
 1050 01dc 0000000A 		beq	.L259
 1051 01e0 FEFFFFEB 		bl	_ZdaPv
 1052              	.L259:
 1053 01e4 20319DE5 		ldr	r3, [sp, #288]
 1054 01e8 050053E3 		cmp	r3, #5
 1055 01ec 030000DA 		ble	.L260
 1056 01f0 24019DE5 		ldr	r0, [sp, #292]
 1057 01f4 000050E3 		cmp	r0, #0
 1058 01f8 0000000A 		beq	.L260
 1059 01fc FEFFFFEB 		bl	_ZdaPv
 1060              	.L260:
 1061 0200 08319DE5 		ldr	r3, [sp, #264]
 1062 0204 050053E3 		cmp	r3, #5
 1063 0208 030000DA 		ble	.L256
 1064 020c 0C019DE5 		ldr	r0, [sp, #268]
 1065 0210 000050E3 		cmp	r0, #0
 1066 0214 0000000A 		beq	.L256
 1067              	.L439:
 1068 0218 FEFFFFEB 		bl	_ZdaPv
 1069              	.L256:
 1070 021c 0000A0E3 		mov	r0, #0
 1071 0220 AAFFFFEA 		b	.L436
 1072              	.L472:
 1073 0224 002000E3 		movw	r2, #:lower16:_ZN6tflite15kConvBiasTensorE
 1074 0228 548094E5 		ldr	r8, [r4, #84]
 1075 022c 002040E3 		movt	r2, #:upper16:_ZN6tflite15kConvBiasTensorE
 1076 0230 0400A0E1 		mov	r0, r4
 1077 0234 002092E5 		ldr	r2, [r2]
 1078 0238 023183E0 		add	r3, r3, r2, lsl #2
 1079 023c 041093E5 		ldr	r1, [r3, #4]
 1080              	.LEHB15:
 1081 0240 38FF2FE1 		blx	r8
 1082 0244 00A0A0E1 		mov	r10, r0
 1083 0248 8BFFFFEA 		b	.L162
 1084              	.L164:
 1085 024c 0C10A0E1 		mov	r1, ip
 1086 0250 0720A0E1 		mov	r2, r7
 1087 0254 190E8DE2 		add	r0, sp, #400
 1088 0258 FEFFFFEB 		bl	_ZN6tflite15ConvParamsFloatERK16TfLiteConvParamsRKNS_10OpDataConvE
 1089 025c 0510A0E1 		mov	r1, r5
 1090 0260 420F8DE2 		add	r0, sp, #264
 1091 0264 FEFFFFEB 		bl	_ZN6tflite5micro14GetTensorShapeEPK16TfLiteEvalTensor
 1092              	.LEHE15:
 1093 0268 0610A0E1 		mov	r1, r6
 1094 026c 120E8DE2 		add	r0, sp, #288
 1095 0270 005095E5 		ldr	r5, [r5]
 1096              	.LEHB16:
 1097 0274 FEFFFFEB 		bl	_ZN6tflite5micro14GetTensorShapeEPK16TfLiteEvalTensor
 1098              	.LEHE16:
 1099 0278 003096E5 		ldr	r3, [r6]
 1100 027c 0A10A0E1 		mov	r1, r10
 1101 0280 4E0F8DE2 		add	r0, sp, #312
 1102 0284 94308DE5 		str	r3, [sp, #148]
 1103              	.LEHB17:
 1104 0288 FEFFFFEB 		bl	_ZN6tflite5micro14GetTensorShapeEPK16TfLiteEvalTensor
 1105              	.LEHE17:
 1106 028c 00005AE3 		cmp	r10, #0
 1107 0290 0A03000A 		beq	.L476
 1108 0294 00309AE5 		ldr	r3, [r10]
 1109 0298 0B10A0E1 		mov	r1, fp
 1110 029c 150E8DE2 		add	r0, sp, #336
 1111 02a0 74308DE5 		str	r3, [sp, #116]
 1112              	.LEHB18:
 1113 02a4 FEFFFFEB 		bl	_ZN6tflite5micro14GetTensorShapeEPK16TfLiteEvalTensor
 1114              	.LEHE18:
 1115 02a8 00309BE5 		ldr	r3, [fp]
 1116 02ac 0010A0E3 		mov	r1, #0
 1117 02b0 5A0F8DE2 		add	r0, sp, #360
 1118 02b4 24308DE5 		str	r3, [sp, #36]
 1119              	.LEHB19:
 1120 02b8 FEFFFFEB 		bl	_ZN6tflite5micro14GetTensorShapeEPK16TfLiteEvalTensor
 1121              	.LEHE19:
 1122 02bc 08319DE5 		ldr	r3, [sp, #264]
 1123 02c0 662F8DE2 		add	r2, sp, #408
 1124 02c4 022082E2 		add	r2, r2, #2
 1125 02c8 706A9DED 		vldr.32	s12, [sp, #448]
 1126 02cc F020D2E1 		ldrsh	r2, [r2]
 1127 02d0 040053E3 		cmp	r3, #4
 1128 02d4 673F8DE2 		add	r3, sp, #412
 1129 02d8 023083E2 		add	r3, r3, #2
 1130 02dc F060D3E1 		ldrsh	r6, [r3]
 1131 02e0 1A3E8DE2 		add	r3, sp, #416
 1132 02e4 AC208DE5 		str	r2, [sp, #172]
 1133 02e8 F030D3E1 		ldrsh	r3, [r3]
 1134 02ec 672F8DE2 		add	r2, sp, #412
 1135 02f0 F020D2E1 		ldrsh	r2, [r2]
 1136 02f4 715ADDED 		vldr.32	s11, [sp, #452]
 1137 02f8 50308DE5 		str	r3, [sp, #80]
 1138 02fc 193E8DE2 		add	r3, sp, #400
 1139 0300 023083E2 		add	r3, r3, #2
 1140 0304 80208DE5 		str	r2, [sp, #128]
 1141 0308 F030D3E1 		ldrsh	r3, [r3]
 1142 030c 98308DE5 		str	r3, [sp, #152]
 1143 0310 653F8DE2 		add	r3, sp, #404
 1144 0314 F070D3E1 		ldrsh	r7, [r3]
 1145 0318 E502001A 		bne	.L477
 1146 031c 20319DE5 		ldr	r3, [sp, #288]
 1147 0320 040053E3 		cmp	r3, #4
 1148 0324 E102001A 		bne	.L478
 1149 0328 50319DE5 		ldr	r3, [sp, #336]
 1150 032c 040053E3 		cmp	r3, #4
 1151 0330 DD02001A 		bne	.L479
 1152 0334 0C319DE5 		ldr	r3, [sp, #268]
 1153 0338 54219DE5 		ldr	r2, [sp, #340]
 1154 033c 70308DE5 		str	r3, [sp, #112]
 1155 0340 020053E1 		cmp	r3, r2
 1156 0344 44208DE5 		str	r2, [sp, #68]
 1157 0348 D602001A 		bne	.L480
 1158 034c 18819DE5 		ldr	r8, [sp, #280]
 1159 0350 30B19DE5 		ldr	fp, [sp, #304]
 1160 0354 0B0058E1 		cmp	r8, fp
 1161 0358 E302001A 		bne	.L481
 1162 035c 24319DE5 		ldr	r3, [sp, #292]
 1163 0360 60219DE5 		ldr	r2, [sp, #352]
 1164 0364 58308DE5 		str	r3, [sp, #88]
 1165 0368 020053E1 		cmp	r3, r2
 1166 036c 48208DE5 		str	r2, [sp, #72]
 1167 0370 DC02001A 		bne	.L482
 1168 0374 74309DE5 		ldr	r3, [sp, #116]
 1169 0378 000053E3 		cmp	r3, #0
 1170 037c 5600000A 		beq	.L173
 1171 0380 38119DE5 		ldr	r1, [sp, #312]
 1172 0384 050051E3 		cmp	r1, #5
 1173 0388 6A0100DA 		ble	.L174
 1174 038c 3C019DE5 		ldr	r0, [sp, #316]
 1175              	.L175:
 1176 0390 5031A0E7 		sbfx	r3, r0, #2, #1
 1177 0394 033003E2 		and	r3, r3, #3
 1178 0398 010053E1 		cmp	r3, r1
 1179 039c 0130A021 		movcs	r3, r1
 1180 03a0 080051E3 		cmp	r1, #8
 1181 03a4 0130A0D1 		movle	r3, r1
 1182 03a8 670100CA 		bgt	.L483
 1183              	.L177:
 1184 03ac 010053E3 		cmp	r3, #1
 1185 03b0 002090E5 		ldr	r2, [r0]
 1186 03b4 5D01000A 		beq	.L301
 1187 03b8 04C090E5 		ldr	ip, [r0, #4]
 1188 03bc 020053E3 		cmp	r3, #2
 1189 03c0 9C0202E0 		mul	r2, ip, r2
 1190 03c4 5901000A 		beq	.L301
 1191 03c8 08C090E5 		ldr	ip, [r0, #8]
 1192 03cc 030053E3 		cmp	r3, #3
 1193 03d0 9C0202E0 		mul	r2, ip, r2
 1194 03d4 5501000A 		beq	.L301
 1195 03d8 0CC090E5 		ldr	ip, [r0, #12]
 1196 03dc 040053E3 		cmp	r3, #4
 1197 03e0 9C0202E0 		mul	r2, ip, r2
 1198 03e4 5101000A 		beq	.L301
 1199 03e8 10C090E5 		ldr	ip, [r0, #16]
 1200 03ec 050053E3 		cmp	r3, #5
 1201 03f0 9C0202E0 		mul	r2, ip, r2
 1202 03f4 4D01000A 		beq	.L301
 1203 03f8 14C090E5 		ldr	ip, [r0, #20]
 1204 03fc 060053E3 		cmp	r3, #6
 1205 0400 9C0202E0 		mul	r2, ip, r2
 1206 0404 4901000A 		beq	.L301
 1207 0408 18C090E5 		ldr	ip, [r0, #24]
 1208 040c 070053E3 		cmp	r3, #7
 1209 0410 9C0202E0 		mul	r2, ip, r2
 1210 0414 4501000A 		beq	.L301
 1211 0418 1CE090E5 		ldr	lr, [r0, #28]
 1212 041c 08C0A0E3 		mov	ip, #8
 1213 0420 9E0202E0 		mul	r2, lr, r2
 1214              	.L179:
 1215 0424 030051E1 		cmp	r1, r3
 1216 0428 2800000A 		beq	.L176
 1217              	.L178:
 1218 042c 03A041E0 		sub	r10, r1, r3
 1219 0430 014041E2 		sub	r4, r1, #1
 1220 0434 04E04AE2 		sub	lr, r10, #4
 1221 0438 034044E0 		sub	r4, r4, r3
 1222 043c 2EE1A0E1 		lsr	lr, lr, #2
 1223 0440 020054E3 		cmp	r4, #2
 1224 0444 01E08EE2 		add	lr, lr, #1
 1225 0448 0E91A0E1 		lsl	r9, lr, #2
 1226 044c 1200009A 		bls	.L181
 1227 0450 033180E0 		add	r3, r0, r3, lsl #2
 1228 0454 5100C0F2 		vmov.i32	q8, #1  @ v4si
 1229 0458 0040A0E3 		mov	r4, #0
 1230              	.L183:
 1231 045c 014084E2 		add	r4, r4, #1
 1232 0460 DF2A63F4 		vld1.64	{d18-d19}, [r3:64]
 1233 0464 0E0054E1 		cmp	r4, lr
 1234 0468 103083E2 		add	r3, r3, #16
 1235 046c F20960F2 		vmul.i32	q8, q8, q9
 1236 0470 F9FFFF3A 		bcc	.L183
 1237 0474 09005AE1 		cmp	r10, r9
 1238 0478 09C08CE0 		add	ip, ip, r9
 1239 047c 5020C0F2 		vmov.i32	q9, #0  @ v4si
 1240 0480 E248F0F2 		vext.32	q10, q8, q9, #2
 1241 0484 F40960F2 		vmul.i32	q8, q8, q10
 1242 0488 E224F0F2 		vext.32	q9, q8, q9, #1
 1243 048c F20960F2 		vmul.i32	q8, q8, q9
 1244 0490 903B10EE 		vmov.32	r3, d16[0]
 1245 0494 930202E0 		mul	r2, r3, r2
 1246 0498 0C00000A 		beq	.L176
 1247              	.L181:
 1248 049c 0CE190E7 		ldr	lr, [r0, ip, lsl #2]
 1249 04a0 01308CE2 		add	r3, ip, #1
 1250 04a4 010053E1 		cmp	r3, r1
 1251 04a8 0C31A0E1 		lsl	r3, ip, #2
 1252 04ac 9E0202E0 		mul	r2, lr, r2
 1253 04b0 060000AA 		bge	.L176
 1254 04b4 030080E0 		add	r0, r0, r3
 1255 04b8 02C08CE2 		add	ip, ip, #2
 1256 04bc 043090E5 		ldr	r3, [r0, #4]
 1257 04c0 0C0051E1 		cmp	r1, ip
 1258 04c4 930202E0 		mul	r2, r3, r2
 1259 04c8 083090C5 		ldrgt	r3, [r0, #8]
 1260 04cc 930202C0 		mulgt	r2, r3, r2
 1261              	.L176:
 1262 04d0 58309DE5 		ldr	r3, [sp, #88]
 1263 04d4 020053E1 		cmp	r3, r2
 1264 04d8 6C02001A 		bne	.L484
 1265              	.L173:
 1266 04dc 70309DE5 		ldr	r3, [sp, #112]
 1267 04e0 14919DE5 		ldr	r9, [sp, #276]
 1268 04e4 2CA19DE5 		ldr	r10, [sp, #300]
 1269 04e8 000053E3 		cmp	r3, #0
 1270 04ec 10319DE5 		ldr	r3, [sp, #272]
 1271 04f0 4C308DE5 		str	r3, [sp, #76]
 1272 04f4 28319DE5 		ldr	r3, [sp, #296]
 1273 04f8 30308DE5 		str	r3, [sp, #48]
 1274 04fc 58319DE5 		ldr	r3, [sp, #344]
 1275 0500 64308DE5 		str	r3, [sp, #100]
 1276 0504 5C319DE5 		ldr	r3, [sp, #348]
 1277 0508 68308DE5 		str	r3, [sp, #104]
 1278 050c FC0000DA 		ble	.L191
 1279 0510 64209DE5 		ldr	r2, [sp, #100]
 1280 0514 0300A0E1 		mov	r0, r3
 1281 0518 58C09DE5 		ldr	ip, [sp, #88]
 1282 051c 24109DE5 		ldr	r1, [sp, #36]
 1283 0520 930202E0 		mul	r2, r3, r2
 1284 0524 003067E2 		rsb	r3, r7, #0
 1285 0528 03E0A0E1 		mov	lr, r3
 1286 052c 9C308DE5 		str	r3, [sp, #156]
 1287 0530 0C31A0E1 		lsl	r3, ip, #2
 1288 0534 84108DE5 		str	r1, [sp, #132]
 1289 0538 0010A0E3 		mov	r1, #0
 1290 053c 900C00E0 		mul	r0, r0, ip
 1291 0540 B8308DE5 		str	r3, [sp, #184]
 1292 0544 0221A0E1 		lsl	r2, r2, #2
 1293 0548 30309DE5 		ldr	r3, [sp, #48]
 1294 054c 0871A0E1 		lsl	r7, r8, #2
 1295 0550 40108DE5 		str	r1, [sp, #64]
 1296 0554 980A01E0 		mul	r1, r8, r10
 1297 0558 9C0202E0 		mul	r2, ip, r2
 1298 055c 9A0303E0 		mul	r3, r10, r3
 1299 0560 C0208DE5 		str	r2, [sp, #192]
 1300 0564 0021A0E1 		lsl	r2, r0, #2
 1301 0568 0331A0E1 		lsl	r3, r3, #2
 1302 056c C4208DE5 		str	r2, [sp, #196]
 1303 0570 980303E0 		mul	r3, r8, r3
 1304 0574 B0308DE5 		str	r3, [sp, #176]
 1305 0578 0131A0E1 		lsl	r3, r1, #2
 1306 057c 60308DE5 		str	r3, [sp, #96]
 1307 0580 990E03E0 		mul	r3, r9, lr
 1308 0584 8C308DE5 		str	r3, [sp, #140]
 1309 0588 4C309DE5 		ldr	r3, [sp, #76]
 1310 058c 990303E0 		mul	r3, r9, r3
 1311 0590 B4308DE5 		str	r3, [sp, #180]
 1312 0594 80309DE5 		ldr	r3, [sp, #128]
 1313 0598 930903E0 		mul	r3, r3, r9
 1314 059c BC308DE5 		str	r3, [sp, #188]
 1315 05a0 50309DE5 		ldr	r3, [sp, #80]
 1316 05a4 990303E0 		mul	r3, r9, r3
 1317 05a8 5C308DE5 		str	r3, [sp, #92]
 1318 05ac 0A30A0E1 		mov	r3, r10
 1319 05b0 06A0A0E1 		mov	r10, r6
 1320 05b4 0960A0E1 		mov	r6, r9
 1321 05b8 0890A0E1 		mov	r9, r8
 1322 05bc 0B80A0E1 		mov	r8, fp
 1323 05c0 05B0A0E1 		mov	fp, r5
 1324 05c4 0350A0E1 		mov	r5, r3
 1325              	.L192:
 1326 05c8 64309DE5 		ldr	r3, [sp, #100]
 1327 05cc 000053E3 		cmp	r3, #0
 1328 05d0 BD0000DA 		ble	.L194
 1329 05d4 9C309DE5 		ldr	r3, [sp, #156]
 1330 05d8 7C308DE5 		str	r3, [sp, #124]
 1331 05dc 8C309DE5 		ldr	r3, [sp, #140]
 1332 05e0 78308DE5 		str	r3, [sp, #120]
 1333 05e4 84309DE5 		ldr	r3, [sp, #132]
 1334 05e8 90308DE5 		str	r3, [sp, #144]
 1335 05ec 0030A0E3 		mov	r3, #0
 1336 05f0 A4308DE5 		str	r3, [sp, #164]
 1337              	.L195:
 1338 05f4 68309DE5 		ldr	r3, [sp, #104]
 1339 05f8 000053E3 		cmp	r3, #0
 1340 05fc A00000DA 		ble	.L197
 1341 0600 98309DE5 		ldr	r3, [sp, #152]
 1342 0604 003063E2 		rsb	r3, r3, #0
 1343 0608 54308DE5 		str	r3, [sp, #84]
 1344 060c 90309DE5 		ldr	r3, [sp, #144]
 1345 0610 88308DE5 		str	r3, [sp, #136]
 1346 0614 0030A0E3 		mov	r3, #0
 1347 0618 A0308DE5 		str	r3, [sp, #160]
 1348              	.L198:
 1349 061c 58309DE5 		ldr	r3, [sp, #88]
 1350 0620 000053E3 		cmp	r3, #0
 1351 0624 880000DA 		ble	.L221
 1352 0628 94309DE5 		ldr	r3, [sp, #148]
 1353 062c 6C308DE5 		str	r3, [sp, #108]
 1354 0630 88309DE5 		ldr	r3, [sp, #136]
 1355 0634 A8308DE5 		str	r3, [sp, #168]
 1356 0638 0030A0E3 		mov	r3, #0
 1357 063c 3C308DE5 		str	r3, [sp, #60]
 1358              	.L222:
 1359 0640 30309DE5 		ldr	r3, [sp, #48]
 1360 0644 ED7ADFED 		vldr.32	s15, .L504
 1361 0648 000053E3 		cmp	r3, #0
 1362 064c 550000DA 		ble	.L199
 1363 0650 7C309DE5 		ldr	r3, [sp, #124]
 1364 0654 38308DE5 		str	r3, [sp, #56]
 1365 0658 78309DE5 		ldr	r3, [sp, #120]
 1366 065c 2C308DE5 		str	r3, [sp, #44]
 1367 0660 6C309DE5 		ldr	r3, [sp, #108]
 1368 0664 34308DE5 		str	r3, [sp, #52]
 1369 0668 0030A0E3 		mov	r3, #0
 1370 066c 28308DE5 		str	r3, [sp, #40]
 1371              	.L213:
 1372 0670 000055E3 		cmp	r5, #0
 1373 0674 390000DA 		ble	.L200
 1374 0678 38209DE5 		ldr	r2, [sp, #56]
 1375 067c 00E0A0E3 		mov	lr, #0
 1376 0680 4C109DE5 		ldr	r1, [sp, #76]
 1377 0684 34409DE5 		ldr	r4, [sp, #52]
 1378 0688 54C09DE5 		ldr	ip, [sp, #84]
 1379 068c 0230E0E1 		mvn	r3, r2
 1380 0690 A33FA0E1 		lsr	r3, r3, #31
 1381 0694 010052E1 		cmp	r2, r1
 1382 0698 0030A0A3 		movge	r3, #0
 1383 069c 24308DE5 		str	r3, [sp, #36]
 1384              	.L212:
 1385 06a0 00005CE3 		cmp	ip, #0
 1386 06a4 0C0056A1 		cmpge	r6, ip
 1387 06a8 270000DA 		ble	.L201
 1388 06ac 24309DE5 		ldr	r3, [sp, #36]
 1389 06b0 000053E3 		cmp	r3, #0
 1390 06b4 2400000A 		beq	.L201
 1391 06b8 000059E3 		cmp	r9, #0
 1392 06bc 220000DA 		ble	.L201
 1393 06c0 44309DE5 		ldr	r3, [sp, #68]
 1394 06c4 40209DE5 		ldr	r2, [sp, #64]
 1395 06c8 020053E1 		cmp	r3, r2
 1396 06cc CA0000DA 		ble	.L202
 1397 06d0 000058E3 		cmp	r8, #0
 1398 06d4 C70000DA 		ble	.L204
 1399 06d8 48309DE5 		ldr	r3, [sp, #72]
 1400 06dc 3C209DE5 		ldr	r2, [sp, #60]
 1401 06e0 020053E1 		cmp	r3, r2
 1402 06e4 2C309DE5 		ldr	r3, [sp, #44]
 1403 06e8 03008CE0 		add	r0, ip, r3
 1404 06ec 020200DA 		ble	.L485
 1405 06f0 0E0055E1 		cmp	r5, lr
 1406 06f4 30309DE5 		ldr	r3, [sp, #48]
 1407 06f8 28209DE5 		ldr	r2, [sp, #40]
 1408 06fc FB0100DA 		ble	.L486
 1409 0700 020053E1 		cmp	r3, r2
 1410 0704 BA0000DA 		ble	.L208
 1411 0708 0410A0E1 		mov	r1, r4
 1412 070c 0920A0E1 		mov	r2, r9
 1413 0710 0030A0E3 		mov	r3, #0
 1414 0714 020000EA 		b	.L205
 1415              	.L211:
 1416 0718 080053E1 		cmp	r3, r8
 1417 071c B500000A 		beq	.L204
 1418 0720 0820A0E1 		mov	r2, r8
 1419              	.L205:
 1420 0724 923022E0 		mla	r2, r2, r0, r3
 1421 0728 030059E1 		cmp	r9, r3
 1422 072c 02218BE0 		add	r2, fp, r2, lsl #2
 1423 0730 006AD2ED 		vldr.32	s13, [r2]
 1424 0734 8900000A 		beq	.L487
 1425 0738 017AB1EC 		vldmia.32	r1!, {s14}
 1426 073c 013083E2 		add	r3, r3, #1
 1427 0740 090053E1 		cmp	r3, r9
 1428 0744 877A46EE 		vmla.f32	s15, s13, s14
 1429 0748 F2FFFF1A 		bne	.L211
 1430              	.L201:
 1431 074c 01E08EE2 		add	lr, lr, #1
 1432 0750 0AC08CE0 		add	ip, ip, r10
 1433 0754 05005EE1 		cmp	lr, r5
 1434 0758 074084E0 		add	r4, r4, r7
 1435 075c CFFFFF1A 		bne	.L212
 1436              	.L200:
 1437 0760 34209DE5 		ldr	r2, [sp, #52]
 1438 0764 60109DE5 		ldr	r1, [sp, #96]
 1439 0768 28309DE5 		ldr	r3, [sp, #40]
 1440 076c 012082E0 		add	r2, r2, r1
 1441 0770 34208DE5 		str	r2, [sp, #52]
 1442 0774 013083E2 		add	r3, r3, #1
 1443 0778 30209DE5 		ldr	r2, [sp, #48]
 1444 077c 28308DE5 		str	r3, [sp, #40]
 1445 0780 020053E1 		cmp	r3, r2
 1446 0784 2C309DE5 		ldr	r3, [sp, #44]
 1447 0788 5C209DE5 		ldr	r2, [sp, #92]
 1448 078c 023083E0 		add	r3, r3, r2
 1449 0790 50209DE5 		ldr	r2, [sp, #80]
 1450 0794 2C308DE5 		str	r3, [sp, #44]
 1451 0798 38309DE5 		ldr	r3, [sp, #56]
 1452 079c 023083E0 		add	r3, r3, r2
 1453 07a0 38308DE5 		str	r3, [sp, #56]
 1454 07a4 B1FFFF1A 		bne	.L213
 1455              	.L199:
 1456 07a8 74309DE5 		ldr	r3, [sp, #116]
 1457 07ac 000053E3 		cmp	r3, #0
 1458 07b0 3C209D15 		ldrne	r2, [sp, #60]
 1459 07b4 917A9F0D 		vldreq.32	s14, .L504
 1460 07b8 02318310 		addne	r3, r3, r2, lsl #2
 1461 07bc 40209DE5 		ldr	r2, [sp, #64]
 1462 07c0 007A931D 		vldrne.32	s14, [r3]
 1463 07c4 70309DE5 		ldr	r3, [sp, #112]
 1464 07c8 020053E1 		cmp	r3, r2
 1465 07cc CE0100DA 		ble	.L488
 1466 07d0 64309DE5 		ldr	r3, [sp, #100]
 1467 07d4 A4209DE5 		ldr	r2, [sp, #164]
 1468 07d8 020053E1 		cmp	r3, r2
 1469 07dc C80100DA 		ble	.L489
 1470 07e0 68309DE5 		ldr	r3, [sp, #104]
 1471 07e4 A0209DE5 		ldr	r2, [sp, #160]
 1472 07e8 020053E1 		cmp	r3, r2
 1473 07ec C30100DA 		ble	.L490
 1474 07f0 58309DE5 		ldr	r3, [sp, #88]
 1475 07f4 3C209DE5 		ldr	r2, [sp, #60]
 1476 07f8 020053E1 		cmp	r3, r2
 1477 07fc C101000A 		beq	.L491
 1478 0800 277A77EE 		vadd.f32	s15, s14, s15
 1479 0804 013082E2 		add	r3, r2, #1
 1480 0808 B0109DE5 		ldr	r1, [sp, #176]
 1481 080c 6C209DE5 		ldr	r2, [sp, #108]
 1482 0810 3C308DE5 		str	r3, [sp, #60]
 1483 0814 676AB4EE 		vcmp.f32	s12, s15
 1484 0818 10FAF1EE 		vmrs	APSR_nzcv, FPSCR
 1485 081c 012082E0 		add	r2, r2, r1
 1486 0820 467AF0CE 		vmovgt.f32	s15, s12
 1487 0824 6C208DE5 		str	r2, [sp, #108]
 1488 0828 58209DE5 		ldr	r2, [sp, #88]
 1489 082c 675AF4EE 		vcmp.f32	s11, s15
 1490 0830 10FAF1EE 		vmrs	APSR_nzcv, FPSCR
 1491 0834 657AF04E 		vmovmi.f32	s15, s11
 1492 0838 020053E1 		cmp	r3, r2
 1493 083c A8309DE5 		ldr	r3, [sp, #168]
 1494 0840 017AE3EC 		vstmia.32	r3!, {s15}
 1495 0844 A8308DE5 		str	r3, [sp, #168]
 1496 0848 7CFFFF1A 		bne	.L222
 1497              	.L221:
 1498 084c 88209DE5 		ldr	r2, [sp, #136]
 1499 0850 B8109DE5 		ldr	r1, [sp, #184]
 1500 0854 A0309DE5 		ldr	r3, [sp, #160]
 1501 0858 012082E0 		add	r2, r2, r1
 1502 085c 88208DE5 		str	r2, [sp, #136]
 1503 0860 013083E2 		add	r3, r3, #1
 1504 0864 68209DE5 		ldr	r2, [sp, #104]
 1505 0868 A0308DE5 		str	r3, [sp, #160]
 1506 086c 020053E1 		cmp	r3, r2
 1507 0870 54309DE5 		ldr	r3, [sp, #84]
 1508 0874 AC209DE5 		ldr	r2, [sp, #172]
 1509 0878 023083E0 		add	r3, r3, r2
 1510 087c 54308DE5 		str	r3, [sp, #84]
 1511 0880 65FFFF1A 		bne	.L198
 1512              	.L197:
 1513 0884 90209DE5 		ldr	r2, [sp, #144]
 1514 0888 C4109DE5 		ldr	r1, [sp, #196]
 1515 088c A4309DE5 		ldr	r3, [sp, #164]
 1516 0890 012082E0 		add	r2, r2, r1
 1517 0894 90208DE5 		str	r2, [sp, #144]
 1518 0898 013083E2 		add	r3, r3, #1
 1519 089c 64209DE5 		ldr	r2, [sp, #100]
 1520 08a0 A4308DE5 		str	r3, [sp, #164]
 1521 08a4 020053E1 		cmp	r3, r2
 1522 08a8 78309DE5 		ldr	r3, [sp, #120]
 1523 08ac BC209DE5 		ldr	r2, [sp, #188]
 1524 08b0 023083E0 		add	r3, r3, r2
 1525 08b4 80209DE5 		ldr	r2, [sp, #128]
 1526 08b8 78308DE5 		str	r3, [sp, #120]
 1527 08bc 7C309DE5 		ldr	r3, [sp, #124]
 1528 08c0 023083E0 		add	r3, r3, r2
 1529 08c4 7C308DE5 		str	r3, [sp, #124]
 1530 08c8 49FFFF1A 		bne	.L195
 1531              	.L194:
 1532 08cc 84209DE5 		ldr	r2, [sp, #132]
 1533 08d0 C0109DE5 		ldr	r1, [sp, #192]
 1534 08d4 40309DE5 		ldr	r3, [sp, #64]
 1535 08d8 012082E0 		add	r2, r2, r1
 1536 08dc 84208DE5 		str	r2, [sp, #132]
 1537 08e0 013083E2 		add	r3, r3, #1
 1538 08e4 70209DE5 		ldr	r2, [sp, #112]
 1539 08e8 40308DE5 		str	r3, [sp, #64]
 1540 08ec 020053E1 		cmp	r3, r2
 1541 08f0 8C309DE5 		ldr	r3, [sp, #140]
 1542 08f4 B4209DE5 		ldr	r2, [sp, #180]
 1543 08f8 023083E0 		add	r3, r3, r2
 1544 08fc 8C308DE5 		str	r3, [sp, #140]
 1545 0900 30FFFF1A 		bne	.L192
 1546              	.L191:
 1547 0904 68319DE5 		ldr	r3, [sp, #360]
 1548 0908 050053E3 		cmp	r3, #5
 1549 090c 2DFEFFDA 		ble	.L258
 1550 0910 6C019DE5 		ldr	r0, [sp, #364]
 1551 0914 000050E3 		cmp	r0, #0
 1552 0918 2AFEFF0A 		beq	.L258
 1553 091c FEFFFFEB 		bl	_ZdaPv
 1554 0920 50319DE5 		ldr	r3, [sp, #336]
 1555 0924 050053E3 		cmp	r3, #5
 1556 0928 22FEFFCA 		bgt	.L466
 1557 092c 25FEFFEA 		b	.L258
 1558              	.L301:
 1559 0930 03C0A0E1 		mov	ip, r3
 1560 0934 BAFEFFEA 		b	.L179
 1561              	.L174:
 1562 0938 000051E3 		cmp	r1, #0
 1563 093c 0120A0D3 		movle	r2, #1
 1564 0940 E2FEFFDA 		ble	.L176
 1565 0944 4F0F8DE2 		add	r0, sp, #316
 1566 0948 90FEFFEA 		b	.L175
 1567              	.L483:
 1568 094c 000053E3 		cmp	r3, #0
 1569 0950 0120A003 		moveq	r2, #1
 1570 0954 03C0A001 		moveq	ip, r3
 1571 0958 B3FEFF0A 		beq	.L178
 1572 095c 92FEFFEA 		b	.L177
 1573              	.L487:
 1574              	.LEHB20:
 1575 0960 FEFFFFEB 		bl	abort
 1576              	.LEHE20:
 1577              	.L322:
 1578 0964 68319DE5 		ldr	r3, [sp, #360]
 1579 0968 050053E3 		cmp	r3, #5
 1580 096c 030000DA 		ble	.L280
 1581 0970 6C019DE5 		ldr	r0, [sp, #364]
 1582 0974 000050E3 		cmp	r0, #0
 1583 0978 0000000A 		beq	.L280
 1584 097c FEFFFFEB 		bl	_ZdaPv
 1585              	.L280:
 1586 0980 50319DE5 		ldr	r3, [sp, #336]
 1587 0984 050053E3 		cmp	r3, #5
 1588 0988 030000DA 		ble	.L282
 1589 098c 54019DE5 		ldr	r0, [sp, #340]
 1590 0990 000050E3 		cmp	r0, #0
 1591 0994 0000000A 		beq	.L282
 1592 0998 FEFFFFEB 		bl	_ZdaPv
 1593              	.L282:
 1594 099c 38319DE5 		ldr	r3, [sp, #312]
 1595 09a0 050053E3 		cmp	r3, #5
 1596 09a4 030000DA 		ble	.L284
 1597 09a8 3C019DE5 		ldr	r0, [sp, #316]
 1598 09ac 000050E3 		cmp	r0, #0
 1599 09b0 0000000A 		beq	.L284
 1600 09b4 FEFFFFEB 		bl	_ZdaPv
 1601              	.L284:
 1602 09b8 20319DE5 		ldr	r3, [sp, #288]
 1603 09bc 050053E3 		cmp	r3, #5
 1604 09c0 030000DA 		ble	.L286
 1605 09c4 24019DE5 		ldr	r0, [sp, #292]
 1606 09c8 000050E3 		cmp	r0, #0
 1607 09cc 0000000A 		beq	.L286
 1608 09d0 FEFFFFEB 		bl	_ZdaPv
 1609              	.L286:
 1610 09d4 08319DE5 		ldr	r3, [sp, #264]
 1611 09d8 050053E3 		cmp	r3, #5
 1612 09dc 030000DA 		ble	.L287
 1613 09e0 0C019DE5 		ldr	r0, [sp, #268]
 1614 09e4 000050E3 		cmp	r0, #0
 1615 09e8 0000000A 		beq	.L287
 1616              	.L440:
 1617 09ec FEFFFFEB 		bl	_ZdaPv
 1618              	.L287:
 1619              	.LEHB21:
 1620 09f0 FEFFFFEB 		bl	__cxa_end_cleanup
 1621              	.LEHE21:
 1622              	.L208:
 1623              	.LEHB22:
 1624 09f4 FEFFFFEB 		bl	abort
 1625              	.L204:
 1626 09f8 FEFFFFEB 		bl	abort
 1627              	.L202:
 1628 09fc FEFFFFEB 		bl	abort
 1629              	.LEHE22:
 1630              	.L505:
 1631              		.align	2
 1632              	.L504:
 1633 0a00 00000000 		.word	0
 1634              	.L474:
 1635 0a04 103097E5 		ldr	r3, [r7, #16]
 1636 0a08 0610A0E1 		mov	r1, r6
 1637 0a0c 08209CE5 		ldr	r2, [ip, #8]
 1638 0a10 120E8DE2 		add	r0, sp, #288
 1639 0a14 04C09CE5 		ldr	ip, [ip, #4]
 1640 0a18 003063E2 		rsb	r3, r3, #0
 1641 0a1c 18E097E5 		ldr	lr, [r7, #24]
 1642 0a20 68318DE5 		str	r3, [sp, #360]
 1643 0a24 74218DE5 		str	r2, [sp, #372]
 1644 0a28 003097E5 		ldr	r3, [r7]
 1645 0a2c 042097E5 		ldr	r2, [r7, #4]
 1646 0a30 6CE18DE5 		str	lr, [sp, #364]
 1647 0a34 70C18DE5 		str	ip, [sp, #368]
 1648 0a38 7C218DE5 		str	r2, [sp, #380]
 1649 0a3c 2C2097E5 		ldr	r2, [r7, #44]
 1650 0a40 78318DE5 		str	r3, [sp, #376]
 1651 0a44 303097E5 		ldr	r3, [r7, #48]
 1652 0a48 88218DE5 		str	r2, [sp, #392]
 1653 0a4c 242097E5 		ldr	r2, [r7, #36]
 1654 0a50 8C318DE5 		str	r3, [sp, #396]
 1655 0a54 283097E5 		ldr	r3, [r7, #40]
 1656 0a58 C8208DE5 		str	r2, [sp, #200]
 1657 0a5c CC308DE5 		str	r3, [sp, #204]
 1658              	.LEHB23:
 1659 0a60 FEFFFFEB 		bl	_ZN6tflite5micro14GetTensorShapeEPK16TfLiteEvalTensor
 1660              	.LEHE23:
 1661 0a64 0510A0E1 		mov	r1, r5
 1662 0a68 4E0F8DE2 		add	r0, sp, #312
 1663              	.LEHB24:
 1664 0a6c FEFFFFEB 		bl	_ZN6tflite5micro14GetTensorShapeEPK16TfLiteEvalTensor
 1665              	.LEHE24:
 1666 0a70 0B10A0E1 		mov	r1, fp
 1667 0a74 150E8DE2 		add	r0, sp, #336
 1668              	.LEHB25:
 1669 0a78 FEFFFFEB 		bl	_ZN6tflite5micro14GetTensorShapeEPK16TfLiteEvalTensor
 1670              	.LEHE25:
 1671 0a7c 0A10A0E1 		mov	r1, r10
 1672 0a80 190E8DE2 		add	r0, sp, #400
 1673              	.LEHB26:
 1674 0a84 FEFFFFEB 		bl	_ZN6tflite5micro14GetTensorShapeEPK16TfLiteEvalTensor
 1675              	.LEHE26:
 1676 0a88 88219DE5 		ldr	r2, [sp, #392]
 1677 0a8c 8C319DE5 		ldr	r3, [sp, #396]
 1678 0a90 030052E1 		cmp	r2, r3
 1679 0a94 0F0100CA 		bgt	.L492
 1680 0a98 38319DE5 		ldr	r3, [sp, #312]
 1681 0a9c 040053E3 		cmp	r3, #4
 1682 0aa0 0B01001A 		bne	.L493
 1683 0aa4 20319DE5 		ldr	r3, [sp, #288]
 1684 0aa8 040053E3 		cmp	r3, #4
 1685 0aac 0701001A 		bne	.L494
 1686 0ab0 50319DE5 		ldr	r3, [sp, #336]
 1687 0ab4 040053E3 		cmp	r3, #4
 1688 0ab8 0301001A 		bne	.L495
 1689 0abc 3C319DE5 		ldr	r3, [sp, #316]
 1690 0ac0 0320A0E1 		mov	r2, r3
 1691 0ac4 30308DE5 		str	r3, [sp, #48]
 1692 0ac8 54319DE5 		ldr	r3, [sp, #340]
 1693 0acc 030052E1 		cmp	r2, r3
 1694 0ad0 FC00001A 		bne	.L496
 1695 0ad4 48319DE5 		ldr	r3, [sp, #328]
 1696 0ad8 0320A0E1 		mov	r2, r3
 1697 0adc 34308DE5 		str	r3, [sp, #52]
 1698 0ae0 30319DE5 		ldr	r3, [sp, #304]
 1699 0ae4 030052E1 		cmp	r2, r3
 1700 0ae8 C800001A 		bne	.L497
 1701 0aec 24819DE5 		ldr	r8, [sp, #292]
 1702 0af0 60319DE5 		ldr	r3, [sp, #352]
 1703 0af4 030058E1 		cmp	r8, r3
 1704 0af8 C300001A 		bne	.L498
 1705 0afc 00005AE3 		cmp	r10, #0
 1706 0b00 C300000A 		beq	.L499
 1707 0b04 00309AE5 		ldr	r3, [r10]
 1708 0b08 000053E3 		cmp	r3, #0
 1709 0b0c 2C308DE5 		str	r3, [sp, #44]
 1710 0b10 5900000A 		beq	.L236
 1711 0b14 90C19DE5 		ldr	ip, [sp, #400]
 1712 0b18 05005CE3 		cmp	ip, #5
 1713 0b1c AD0000DA 		ble	.L237
 1714 0b20 94019DE5 		ldr	r0, [sp, #404]
 1715              	.L238:
 1716 0b24 5031A0E7 		sbfx	r3, r0, #2, #1
 1717 0b28 033003E2 		and	r3, r3, #3
 1718 0b2c 0C0053E1 		cmp	r3, ip
 1719 0b30 0C30A021 		movcs	r3, ip
 1720 0b34 08005CE3 		cmp	ip, #8
 1721 0b38 0C30A0D1 		movle	r3, ip
 1722 0b3c AA0000CA 		bgt	.L500
 1723              	.L240:
 1724 0b40 010053E3 		cmp	r3, #1
 1725 0b44 002090E5 		ldr	r2, [r0]
 1726 0b48 AD00000A 		beq	.L316
 1727 0b4c 041090E5 		ldr	r1, [r0, #4]
 1728 0b50 020053E3 		cmp	r3, #2
 1729 0b54 910202E0 		mul	r2, r1, r2
 1730 0b58 A900000A 		beq	.L316
 1731 0b5c 081090E5 		ldr	r1, [r0, #8]
 1732 0b60 030053E3 		cmp	r3, #3
 1733 0b64 910202E0 		mul	r2, r1, r2
 1734 0b68 A500000A 		beq	.L316
 1735 0b6c 0C1090E5 		ldr	r1, [r0, #12]
 1736 0b70 040053E3 		cmp	r3, #4
 1737 0b74 910202E0 		mul	r2, r1, r2
 1738 0b78 A100000A 		beq	.L316
 1739 0b7c 101090E5 		ldr	r1, [r0, #16]
 1740 0b80 050053E3 		cmp	r3, #5
 1741 0b84 910202E0 		mul	r2, r1, r2
 1742 0b88 9D00000A 		beq	.L316
 1743 0b8c 141090E5 		ldr	r1, [r0, #20]
 1744 0b90 060053E3 		cmp	r3, #6
 1745 0b94 910202E0 		mul	r2, r1, r2
 1746 0b98 9900000A 		beq	.L316
 1747 0b9c 181090E5 		ldr	r1, [r0, #24]
 1748 0ba0 070053E3 		cmp	r3, #7
 1749 0ba4 910202E0 		mul	r2, r1, r2
 1750 0ba8 9500000A 		beq	.L316
 1751 0bac 1CE090E5 		ldr	lr, [r0, #28]
 1752 0bb0 0810A0E3 		mov	r1, #8
 1753 0bb4 9E0202E0 		mul	r2, lr, r2
 1754              	.L242:
 1755 0bb8 03005CE1 		cmp	ip, r3
 1756 0bbc 2C00000A 		beq	.L239
 1757              	.L241:
 1758 0bc0 03E04CE0 		sub	lr, ip, r3
 1759 0bc4 01904CE2 		sub	r9, ip, #1
 1760 0bc8 28E08DE5 		str	lr, [sp, #40]
 1761 0bcc 04E04EE2 		sub	lr, lr, #4
 1762 0bd0 2EE1A0E1 		lsr	lr, lr, #2
 1763 0bd4 039049E0 		sub	r9, r9, r3
 1764 0bd8 020059E3 		cmp	r9, #2
 1765 0bdc 01E08EE2 		add	lr, lr, #1
 1766 0be0 0E91A0E1 		lsl	r9, lr, #2
 1767 0be4 24908DE5 		str	r9, [sp, #36]
 1768 0be8 1400009A 		bls	.L244
 1769 0bec 033180E0 		add	r3, r0, r3, lsl #2
 1770 0bf0 5100C0F2 		vmov.i32	q8, #1  @ v4si
 1771 0bf4 0090A0E3 		mov	r9, #0
 1772              	.L246:
 1773 0bf8 019089E2 		add	r9, r9, #1
 1774 0bfc DF2A63F4 		vld1.64	{d18-d19}, [r3:64]
 1775 0c00 09005EE1 		cmp	lr, r9
 1776 0c04 103083E2 		add	r3, r3, #16
 1777 0c08 F20960F2 		vmul.i32	q8, q8, q9
 1778 0c0c F9FFFF8A 		bhi	.L246
 1779 0c10 5020C0F2 		vmov.i32	q9, #0  @ v4si
 1780 0c14 24309DE5 		ldr	r3, [sp, #36]
 1781 0c18 28E09DE5 		ldr	lr, [sp, #40]
 1782 0c1c E248F0F2 		vext.32	q10, q8, q9, #2
 1783 0c20 031081E0 		add	r1, r1, r3
 1784 0c24 0E0053E1 		cmp	r3, lr
 1785 0c28 F40960F2 		vmul.i32	q8, q8, q10
 1786 0c2c E224F0F2 		vext.32	q9, q8, q9, #1
 1787 0c30 F20960F2 		vmul.i32	q8, q8, q9
 1788 0c34 903B10EE 		vmov.32	r3, d16[0]
 1789 0c38 930202E0 		mul	r2, r3, r2
 1790 0c3c 0C00000A 		beq	.L239
 1791              	.L244:
 1792 0c40 01E190E7 		ldr	lr, [r0, r1, lsl #2]
 1793 0c44 013081E2 		add	r3, r1, #1
 1794 0c48 03005CE1 		cmp	ip, r3
 1795 0c4c 0131A0E1 		lsl	r3, r1, #2
 1796 0c50 9E0202E0 		mul	r2, lr, r2
 1797 0c54 060000DA 		ble	.L239
 1798 0c58 030080E0 		add	r0, r0, r3
 1799 0c5c 021081E2 		add	r1, r1, #2
 1800 0c60 043090E5 		ldr	r3, [r0, #4]
 1801 0c64 0C0051E1 		cmp	r1, ip
 1802 0c68 930202E0 		mul	r2, r3, r2
 1803 0c6c 083090B5 		ldrlt	r3, [r0, #8]
 1804 0c70 930202B0 		mullt	r2, r3, r2
 1805              	.L239:
 1806 0c74 020058E1 		cmp	r8, r2
 1807 0c78 6600001A 		bne	.L501
 1808              	.L236:
 1809 0c7c 30009DE5 		ldr	r0, [sp, #48]
 1810 0c80 0030A0E3 		mov	r3, #0
 1811 0c84 34C09DE5 		ldr	ip, [sp, #52]
 1812 0c88 0120A0E3 		mov	r2, #1
 1813 0c8c 341097E5 		ldr	r1, [r7, #52]
 1814 0c90 40E19DE5 		ldr	lr, [sp, #320]
 1815 0c94 E8008DE5 		str	r0, [sp, #232]
 1816 0c98 F4C08DE5 		str	ip, [sp, #244]
 1817 0c9c 030051E1 		cmp	r1, r3
 1818 0ca0 04C18DE5 		str	ip, [sp, #260]
 1819 0ca4 08018DE5 		str	r0, [sp, #264]
 1820 0ca8 44C19DE5 		ldr	ip, [sp, #324]
 1821 0cac 28019DE5 		ldr	r0, [sp, #296]
 1822 0cb0 1100C0F2 		vmov.i32	d16, #0x1  @ v2si
 1823 0cb4 ECE08DE5 		str	lr, [sp, #236]
 1824 0cb8 F0C08DE5 		str	ip, [sp, #240]
 1825 0cbc 2CE19DE5 		ldr	lr, [sp, #300]
 1826 0cc0 58C19DE5 		ldr	ip, [sp, #344]
 1827 0cc4 FC008DE5 		str	r0, [sp, #252]
 1828 0cc8 5C019DE5 		ldr	r0, [sp, #348]
 1829 0ccc F8808DE5 		str	r8, [sp, #248]
 1830 0cd0 E4808DE5 		str	r8, [sp, #228]
 1831 0cd4 14818DE5 		str	r8, [sp, #276]
 1832 0cd8 00E18DE5 		str	lr, [sp, #256]
 1833 0cdc 360BCDED 		vstr	d16, [sp, #216]
 1834 0ce0 0CC18DE5 		str	ip, [sp, #268]
 1835 0ce4 10018DE5 		str	r0, [sp, #272]
 1836 0ce8 E0208DE5 		str	r2, [sp, #224]
 1837 0cec D0308DE5 		str	r3, [sp, #208]
 1838 0cf0 D4308DE5 		str	r3, [sp, #212]
 1839 0cf4 310000AA 		bge	.L502
 1840 0cf8 2C309DE5 		ldr	r3, [sp, #44]
 1841              	.L250:
 1842 0cfc 00109BE5 		ldr	r1, [fp]
 1843 0d00 420F8DE2 		add	r0, sp, #264
 1844 0d04 D8208DE2 		add	r2, sp, #216
 1845 0d08 10308DE5 		str	r3, [sp, #16]
 1846 0d0c 14008DE5 		str	r0, [sp, #20]
 1847 0d10 F8008DE2 		add	r0, sp, #248
 1848 0d14 18108DE5 		str	r1, [sp, #24]
 1849 0d18 E8308DE2 		add	r3, sp, #232
 1850 0d1c 0C208DE5 		str	r2, [sp, #12]
 1851 0d20 5A1F8DE2 		add	r1, sp, #360
 1852 0d24 00C096E5 		ldr	ip, [r6]
 1853 0d28 C8208DE2 		add	r2, sp, #200
 1854 0d2c 04008DE5 		str	r0, [sp, #4]
 1855 0d30 D0008DE2 		add	r0, sp, #208
 1856 0d34 08C08DE5 		str	ip, [sp, #8]
 1857 0d38 00C095E5 		ldr	ip, [r5]
 1858 0d3c 00C08DE5 		str	ip, [sp]
 1859              	.LEHB27:
 1860 0d40 FEFFFFEB 		bl	arm_convolve_wrapper_s8
 1861              	.LEHE27:
 1862 0d44 000050E3 		cmp	r0, #0
 1863 0d48 3300001A 		bne	.L503
 1864 0d4c 90319DE5 		ldr	r3, [sp, #400]
 1865 0d50 050053E3 		cmp	r3, #5
 1866 0d54 030000DA 		ble	.L252
 1867 0d58 94019DE5 		ldr	r0, [sp, #404]
 1868 0d5c 000050E3 		cmp	r0, #0
 1869 0d60 0000000A 		beq	.L252
 1870 0d64 FEFFFFEB 		bl	_ZdaPv
 1871              	.L252:
 1872 0d68 50319DE5 		ldr	r3, [sp, #336]
 1873 0d6c 050053E3 		cmp	r3, #5
 1874 0d70 030000DA 		ble	.L253
 1875 0d74 54019DE5 		ldr	r0, [sp, #340]
 1876 0d78 000050E3 		cmp	r0, #0
 1877 0d7c 0000000A 		beq	.L253
 1878 0d80 FEFFFFEB 		bl	_ZdaPv
 1879              	.L253:
 1880 0d84 38319DE5 		ldr	r3, [sp, #312]
 1881 0d88 050053E3 		cmp	r3, #5
 1882 0d8c 030000DA 		ble	.L254
 1883 0d90 3C019DE5 		ldr	r0, [sp, #316]
 1884 0d94 000050E3 		cmp	r0, #0
 1885 0d98 0000000A 		beq	.L254
 1886 0d9c FEFFFFEB 		bl	_ZdaPv
 1887              	.L254:
 1888 0da0 20319DE5 		ldr	r3, [sp, #288]
 1889 0da4 050053E3 		cmp	r3, #5
 1890 0da8 1BFDFFDA 		ble	.L256
 1891 0dac 24019DE5 		ldr	r0, [sp, #292]
 1892 0db0 000050E3 		cmp	r0, #0
 1893 0db4 17FDFF1A 		bne	.L439
 1894 0db8 17FDFFEA 		b	.L256
 1895              	.L161:
 1896              	.LEHB28:
 1897 0dbc FEFFFFEB 		bl	abort
 1898              	.LEHE28:
 1899              	.L502:
 1900 0dc0 443094E5 		ldr	r3, [r4, #68]
 1901 0dc4 0400A0E1 		mov	r0, r4
 1902              	.LEHB29:
 1903 0dc8 33FF2FE1 		blx	r3
 1904 0dcc D0008DE5 		str	r0, [sp, #208]
 1905 0dd0 00309AE5 		ldr	r3, [r10]
 1906 0dd4 C8FFFFEA 		b	.L250
 1907              	.L237:
 1908 0dd8 00005CE3 		cmp	ip, #0
 1909 0ddc 0120A0D3 		movle	r2, #1
 1910 0de0 A3FFFFDA 		ble	.L239
 1911 0de4 650F8DE2 		add	r0, sp, #404
 1912 0de8 4DFFFFEA 		b	.L238
 1913              	.L500:
 1914 0dec 000053E3 		cmp	r3, #0
 1915 0df0 0120A003 		moveq	r2, #1
 1916 0df4 0310A001 		moveq	r1, r3
 1917 0df8 70FFFF0A 		beq	.L241
 1918 0dfc 4FFFFFEA 		b	.L240
 1919              	.L318:
 1920 0e00 F3FEFFEA 		b	.L286
 1921              	.L316:
 1922 0e04 0310A0E1 		mov	r1, r3
 1923 0e08 6AFFFFEA 		b	.L242
 1924              	.L498:
 1925 0e0c FEFFFFEB 		bl	abort
 1926              	.L497:
 1927 0e10 FEFFFFEB 		bl	abort
 1928              	.L499:
 1929 0e14 FEFFFFEB 		bl	abort
 1930              	.L501:
 1931 0e18 FEFFFFEB 		bl	abort
 1932              	.L503:
 1933 0e1c FEFFFFEB 		bl	abort
 1934              	.LEHE29:
 1935              	.L326:
 1936 0e20 90319DE5 		ldr	r3, [sp, #400]
 1937 0e24 050053E3 		cmp	r3, #5
 1938 0e28 030000DA 		ble	.L264
 1939 0e2c 94019DE5 		ldr	r0, [sp, #404]
 1940 0e30 000050E3 		cmp	r0, #0
 1941 0e34 0000000A 		beq	.L264
 1942 0e38 FEFFFFEB 		bl	_ZdaPv
 1943              	.L264:
 1944 0e3c 50319DE5 		ldr	r3, [sp, #336]
 1945 0e40 050053E3 		cmp	r3, #5
 1946 0e44 030000DA 		ble	.L266
 1947 0e48 54019DE5 		ldr	r0, [sp, #340]
 1948 0e4c 000050E3 		cmp	r0, #0
 1949 0e50 0000000A 		beq	.L266
 1950 0e54 FEFFFFEB 		bl	_ZdaPv
 1951              	.L266:
 1952 0e58 38319DE5 		ldr	r3, [sp, #312]
 1953 0e5c 050053E3 		cmp	r3, #5
 1954 0e60 030000DA 		ble	.L268
 1955 0e64 3C019DE5 		ldr	r0, [sp, #316]
 1956 0e68 000050E3 		cmp	r0, #0
 1957 0e6c 0000000A 		beq	.L268
 1958 0e70 FEFFFFEB 		bl	_ZdaPv
 1959              	.L268:
 1960 0e74 20319DE5 		ldr	r3, [sp, #288]
 1961 0e78 050053E3 		cmp	r3, #5
 1962 0e7c DBFEFFDA 		ble	.L287
 1963 0e80 24019DE5 		ldr	r0, [sp, #292]
 1964 0e84 000050E3 		cmp	r0, #0
 1965 0e88 D7FEFF1A 		bne	.L440
 1966 0e8c D7FEFFEA 		b	.L287
 1967              	.L484:
 1968              	.LEHB30:
 1969 0e90 FEFFFFEB 		bl	abort
 1970              	.LEHE30:
 1971              	.L327:
 1972 0e94 CEFEFFEA 		b	.L286
 1973              	.L330:
 1974 0e98 B8FEFFEA 		b	.L280
 1975              	.L329:
 1976 0e9c BEFEFFEA 		b	.L282
 1977              	.L475:
 1978              	.LEHB31:
 1979 0ea0 FEFFFFEB 		bl	abort
 1980              	.LEHE31:
 1981              	.L328:
 1982 0ea4 C3FEFFEA 		b	.L284
 1983              	.L480:
 1984              	.LEHB32:
 1985 0ea8 FEFFFFEB 		bl	abort
 1986              	.L479:
 1987 0eac FEFFFFEB 		bl	abort
 1988              	.L478:
 1989 0eb0 FEFFFFEB 		bl	abort
 1990              	.L477:
 1991 0eb4 FEFFFFEB 		bl	abort
 1992              	.LEHE32:
 1993              	.L321:
 1994 0eb8 B0FEFFEA 		b	.L280
 1995              	.L320:
 1996 0ebc B6FEFFEA 		b	.L282
 1997              	.L476:
 1998              	.LEHB33:
 1999 0ec0 FEFFFFEB 		bl	abort
 2000              	.LEHE33:
 2001              	.L319:
 2002 0ec4 BBFEFFEA 		b	.L284
 2003              	.L496:
 2004              	.LEHB34:
 2005 0ec8 FEFFFFEB 		bl	abort
 2006              	.L495:
 2007 0ecc FEFFFFEB 		bl	abort
 2008              	.L494:
 2009 0ed0 FEFFFFEB 		bl	abort
 2010              	.L493:
 2011 0ed4 FEFFFFEB 		bl	abort
 2012              	.L492:
 2013 0ed8 FEFFFFEB 		bl	abort
 2014              	.LEHE34:
 2015              	.L325:
 2016 0edc D6FFFFEA 		b	.L264
 2017              	.L324:
 2018 0ee0 DCFFFFEA 		b	.L266
 2019              	.L323:
 2020 0ee4 E2FFFFEA 		b	.L268
 2021              	.L482:
 2022              	.LEHB35:
 2023 0ee8 FEFFFFEB 		bl	abort
 2024              	.L481:
 2025 0eec FEFFFFEB 		bl	abort
 2026              	.L486:
 2027 0ef0 020053E1 		cmp	r3, r2
 2028 0ef4 BEFEFFDA 		ble	.L208
 2029 0ef8 FEFFFFEB 		bl	abort
 2030              	.L485:
 2031 0efc FEFFFFEB 		bl	abort
 2032              	.L490:
 2033 0f00 FEFFFFEB 		bl	abort
 2034              	.L489:
 2035 0f04 FEFFFFEB 		bl	abort
 2036              	.L491:
 2037 0f08 FEFFFFEB 		bl	abort
 2038              	.L488:
 2039 0f0c FEFFFFEB 		bl	abort
 2040              	.LEHE35:
 2041              		.personality	__gxx_personality_v0
 2042              		.handlerdata
 2043              	.LLSDA4267:
 2044 0008 FF       		.byte	0xff
 2045 0009 FF       		.byte	0xff
 2046 000a 01       		.byte	0x1
 2047 000b 9701     		.uleb128 .LLSDACSE4267-.LLSDACSB4267
 2048              	.LLSDACSB4267:
 2049 000d 38       		.uleb128 .LEHB10-.LFB4267
 2050 000e 8402     		.uleb128 .LEHE10-.LEHB10
 2051 0010 00       		.uleb128 0
 2052 0011 00       		.uleb128 0
 2053 0012 C802     		.uleb128 .LEHB11-.LFB4267
 2054 0014 04       		.uleb128 .LEHE11-.LEHB11
 2055 0015 941D     		.uleb128 .L327-.LFB4267
 2056 0017 00       		.uleb128 0
 2057 0018 DC02     		.uleb128 .LEHB12-.LFB4267
 2058 001a 04       		.uleb128 .LEHE12-.LEHB12
 2059 001b A41D     		.uleb128 .L328-.LFB4267
 2060 001d 00       		.uleb128 0
 2061 001e F802     		.uleb128 .LEHB13-.LFB4267
 2062 0020 04       		.uleb128 .LEHE13-.LEHB13
 2063 0021 9C1D     		.uleb128 .L329-.LFB4267
 2064 0023 00       		.uleb128 0
 2065 0024 A803     		.uleb128 .LEHB14-.LFB4267
 2066 0026 04       		.uleb128 .LEHE14-.LEHB14
 2067 0027 981D     		.uleb128 .L330-.LFB4267
 2068 0029 00       		.uleb128 0
 2069 002a C004     		.uleb128 .LEHB15-.LFB4267
 2070 002c 28       		.uleb128 .LEHE15-.LEHB15
 2071 002d 00       		.uleb128 0
 2072 002e 00       		.uleb128 0
 2073 002f F404     		.uleb128 .LEHB16-.LFB4267
 2074 0031 04       		.uleb128 .LEHE16-.LEHB16
 2075 0032 801C     		.uleb128 .L318-.LFB4267
 2076 0034 00       		.uleb128 0
 2077 0035 8805     		.uleb128 .LEHB17-.LFB4267
 2078 0037 04       		.uleb128 .LEHE17-.LEHB17
 2079 0038 C41D     		.uleb128 .L319-.LFB4267
 2080 003a 00       		.uleb128 0
 2081 003b A405     		.uleb128 .LEHB18-.LFB4267
 2082 003d 04       		.uleb128 .LEHE18-.LEHB18
 2083 003e BC1D     		.uleb128 .L320-.LFB4267
 2084 0040 00       		.uleb128 0
 2085 0041 B805     		.uleb128 .LEHB19-.LFB4267
 2086 0043 04       		.uleb128 .LEHE19-.LEHB19
 2087 0044 B81D     		.uleb128 .L321-.LFB4267
 2088 0046 00       		.uleb128 0
 2089 0047 E012     		.uleb128 .LEHB20-.LFB4267
 2090 0049 04       		.uleb128 .LEHE20-.LEHB20
 2091 004a E412     		.uleb128 .L322-.LFB4267
 2092 004c 00       		.uleb128 0
 2093 004d F013     		.uleb128 .LEHB21-.LFB4267
 2094 004f 04       		.uleb128 .LEHE21-.LEHB21
 2095 0050 00       		.uleb128 0
 2096 0051 00       		.uleb128 0
 2097 0052 F413     		.uleb128 .LEHB22-.LFB4267
 2098 0054 0C       		.uleb128 .LEHE22-.LEHB22
 2099 0055 E412     		.uleb128 .L322-.LFB4267
 2100 0057 00       		.uleb128 0
 2101 0058 E014     		.uleb128 .LEHB23-.LFB4267
 2102 005a 04       		.uleb128 .LEHE23-.LEHB23
 2103 005b 00       		.uleb128 0
 2104 005c 00       		.uleb128 0
 2105 005d EC14     		.uleb128 .LEHB24-.LFB4267
 2106 005f 04       		.uleb128 .LEHE24-.LEHB24
 2107 0060 E41D     		.uleb128 .L323-.LFB4267
 2108 0062 00       		.uleb128 0
 2109 0063 F814     		.uleb128 .LEHB25-.LFB4267
 2110 0065 04       		.uleb128 .LEHE25-.LEHB25
 2111 0066 E01D     		.uleb128 .L324-.LFB4267
 2112 0068 00       		.uleb128 0
 2113 0069 8415     		.uleb128 .LEHB26-.LFB4267
 2114 006b 04       		.uleb128 .LEHE26-.LEHB26
 2115 006c DC1D     		.uleb128 .L325-.LFB4267
 2116 006e 00       		.uleb128 0
 2117 006f C01A     		.uleb128 .LEHB27-.LFB4267
 2118 0071 04       		.uleb128 .LEHE27-.LEHB27
 2119 0072 A01C     		.uleb128 .L326-.LFB4267
 2120 0074 00       		.uleb128 0
 2121 0075 BC1B     		.uleb128 .LEHB28-.LFB4267
 2122 0077 04       		.uleb128 .LEHE28-.LEHB28
 2123 0078 00       		.uleb128 0
 2124 0079 00       		.uleb128 0
 2125 007a C81B     		.uleb128 .LEHB29-.LFB4267
 2126 007c 58       		.uleb128 .LEHE29-.LEHB29
 2127 007d A01C     		.uleb128 .L326-.LFB4267
 2128 007f 00       		.uleb128 0
 2129 0080 901D     		.uleb128 .LEHB30-.LFB4267
 2130 0082 04       		.uleb128 .LEHE30-.LEHB30
 2131 0083 E412     		.uleb128 .L322-.LFB4267
 2132 0085 00       		.uleb128 0
 2133 0086 A01D     		.uleb128 .LEHB31-.LFB4267
 2134 0088 04       		.uleb128 .LEHE31-.LEHB31
 2135 0089 9C1D     		.uleb128 .L329-.LFB4267
 2136 008b 00       		.uleb128 0
 2137 008c A81D     		.uleb128 .LEHB32-.LFB4267
 2138 008e 10       		.uleb128 .LEHE32-.LEHB32
 2139 008f E412     		.uleb128 .L322-.LFB4267
 2140 0091 00       		.uleb128 0
 2141 0092 C01D     		.uleb128 .LEHB33-.LFB4267
 2142 0094 04       		.uleb128 .LEHE33-.LEHB33
 2143 0095 BC1D     		.uleb128 .L320-.LFB4267
 2144 0097 00       		.uleb128 0
 2145 0098 C81D     		.uleb128 .LEHB34-.LFB4267
 2146 009a 14       		.uleb128 .LEHE34-.LEHB34
 2147 009b A01C     		.uleb128 .L326-.LFB4267
 2148 009d 00       		.uleb128 0
 2149 009e E81D     		.uleb128 .LEHB35-.LFB4267
 2150 00a0 28       		.uleb128 .LEHE35-.LEHB35
 2151 00a1 E412     		.uleb128 .L322-.LFB4267
 2152 00a3 00       		.uleb128 0
 2153              	.LLSDACSE4267:
 2154              		.section	.text._ZN6tflite12_GLOBAL__N_14EvalEP13TfLiteContextP10TfLiteNode
 2155              		.fnend
 2157              		.section	.text._ZN6tflite16Register_CONV_2DEv,"ax",%progbits
 2158              		.align	2
 2159              		.global	_ZN6tflite16Register_CONV_2DEv
 2160              		.syntax unified
 2161              		.arm
 2162              		.fpu neon
 2164              	_ZN6tflite16Register_CONV_2DEv:
 2165              		.fnstart
 2166              	.LFB4268:
 2167              		@ args = 0, pretend = 0, frame = 0
 2168              		@ frame_needed = 0, uses_anonymous_args = 0
 2169 0000 00C000E3 		movw	ip, #:lower16:.LANCHOR1
 2170 0004 10402DE9 		push	{r4, lr}
 2171 0008 00C040E3 		movt	ip, #:upper16:.LANCHOR1
 2172 000c 0040A0E1 		mov	r4, r0
 2173 0010 00E0A0E1 		mov	lr, r0
 2174 0014 0F00BCE8 		ldmia	ip!, {r0, r1, r2, r3}
 2175 0018 0F00AEE8 		stmia	lr!, {r0, r1, r2, r3}
 2176 001c 0F009CE8 		ldm	ip, {r0, r1, r2, r3}
 2177 0020 0F008EE8 		stm	lr, {r0, r1, r2, r3}
 2178 0024 0400A0E1 		mov	r0, r4
 2179 0028 1080BDE8 		pop	{r4, pc}
 2180              		.cantunwind
 2181              		.fnend
 2183              		.section	.rodata
 2184              		.align	2
 2185              		.set	.LANCHOR1,. + 0
 2186              	.LC0:
 2187 0000 00000000 		.word	_ZN6tflite12_GLOBAL__N_14InitEP13TfLiteContextPKcj
 2188 0004 00000000 		.word	0
 2189 0008 00000000 		.word	_ZN6tflite12_GLOBAL__N_17PrepareEP13TfLiteContextP10TfLiteNode
 2190 000c 00000000 		.word	_ZN6tflite12_GLOBAL__N_14EvalEP13TfLiteContextP10TfLiteNode
 2191 0010 00000000 		.word	0
 2192 0014 00000000 		.word	0
 2193 0018 00000000 		.word	0
 2194 001c 00000000 		.word	0
 2195              		.section	.rodata._ZN6tflite21reference_integer_ops14ConvPerChannelERKNS_10ConvParamsEPKlS5_RKNS_12
 2196              		.align	2
 2197              	.LC1:
 2198 0000 6578706F 		.ascii	"exponent <= 31\000"
 2198      6E656E74 
 2198      203C3D20 
 2198      333100
 2199 000f 00       		.space	1
 2200              	.LC2:
 2201 0010 433A2F52 		.ascii	"C:/Renesas/e2studio_2021_01_workspace_RZA2M_ANPR/AN"
 2201      656E6573 
 2201      61732F65 
 2201      32737475 
 2201      64696F5F 
 2202 0043 50525F52 		.ascii	"PR_RZA2M_EBK/src/tensorflow_lite/third_party/gemmlo"
 2202      5A41324D 
 2202      5F45424B 
 2202      2F737263 
 2202      2F74656E 
 2203 0076 77702F66 		.ascii	"wp/fixedpoint/fixedpoint.h\000"
 2203      69786564 
 2203      706F696E 
 2203      742F6669 
 2203      78656470 
 2204              		.section	.rodata._ZZN8gemmlowp19RoundingDivideByPOTIlEET_S1_iE19__PRETTY_FUNCTION__,"a",%progbits
 2205              		.align	3
 2206              		.set	.LANCHOR0,. + 0
 2209              	_ZZN8gemmlowp19RoundingDivideByPOTIlEET_S1_iE19__PRETTY_FUNCTION__:
 2210 0000 496E7465 		.ascii	"IntegerType gemmlowp::RoundingDivideByPOT(IntegerTy"
 2210      67657254 
 2210      79706520 
 2210      67656D6D 
 2210      6C6F7770 
 2211 0033 70652C20 		.ascii	"pe, int) [with IntegerType = long int]\000"
 2211      696E7429 
 2211      205B7769 
 2211      74682049 
 2211      6E746567 
 2212              		.ident	"GCC: (GNU Tools for ARM Embedded Processors 6-2017-q2-update) 6.3.1 20170620 (release) [AR