   1              		.cpu cortex-a9
   2              		.eabi_attribute 28, 1
   3              		.eabi_attribute 20, 1
   4              		.eabi_attribute 21, 1
   5              		.eabi_attribute 23, 3
   6              		.eabi_attribute 24, 1
   7              		.eabi_attribute 25, 1
   8              		.eabi_attribute 26, 1
   9              		.eabi_attribute 30, 2
  10              		.eabi_attribute 34, 0
  11              		.eabi_attribute 18, 4
  12              		.file	"r_dk2_core.c"
  13              		.section	.text.set_dma,"ax",%progbits
  14              		.align	2
  15              		.syntax unified
  16              		.arm
  17              		.fpu neon
  19              	set_dma:
  20              		@ args = 0, pretend = 0, frame = 8
  21              		@ frame_needed = 0, uses_anonymous_args = 0
  22              		@ link register save eliminated.
  23 0000 912CA0E3 		mov	r2, #37120
  24 0004 A13CA0E3 		mov	r3, #41216
  25 0008 FF2A4EE3 		movt	r2, 60159
  26 000c 08D04DE2 		sub	sp, sp, #8
  27 0010 FF3A4EE3 		movt	r3, 60159
  28 0014 00208DE5 		str	r2, [sp]
  29 0018 04308DE5 		str	r3, [sp, #4]
  30 001c 0114A0E1 		lsl	r1, r1, #8
  31 0020 00309DE5 		ldr	r3, [sp]
  32 0024 100010E3 		tst	r0, #16
  33 0028 033081E0 		add	r3, r1, r3
  34 002c 00308DE5 		str	r3, [sp]
  35 0030 04309DE5 		ldr	r3, [sp, #4]
  36 0034 031081E0 		add	r1, r1, r3
  37 0038 01310013 		movwne	r3, #257
  38 003c 04108DE5 		str	r1, [sp, #4]
  39 0040 04304013 		movtne	r3, 4
  40 0044 04209D15 		ldrne	r2, [sp, #4]
  41 0048 00308215 		strne	r3, [r2]
  42 004c 200010E3 		tst	r0, #32
  43 0050 04209D15 		ldrne	r2, [sp, #4]
  44 0054 01310013 		movwne	r3, #257
  45 0058 04304013 		movtne	r3, 4
  46 005c 00318215 		strne	r3, [r2, #256]
  47 0060 400010E3 		tst	r0, #64
  48 0064 04209D15 		ldrne	r2, [sp, #4]
  49 0068 01310013 		movwne	r3, #257
  50 006c 04304013 		movtne	r3, 4
  51 0070 00328215 		strne	r3, [r2, #512]
  52 0074 800010E3 		tst	r0, #128
  53 0078 04209D15 		ldrne	r2, [sp, #4]
  54 007c 01310013 		movwne	r3, #257
  55 0080 04304013 		movtne	r3, 4
  56 0084 00338215 		strne	r3, [r2, #768]
  57 0088 010010E3 		tst	r0, #1
  58 008c 00209D15 		ldrne	r2, [sp]
  59 0090 01310013 		movwne	r3, #257
  60 0094 04304013 		movtne	r3, 4
  61 0098 00308215 		strne	r3, [r2]
  62 009c 020010E3 		tst	r0, #2
  63 00a0 00209D15 		ldrne	r2, [sp]
  64 00a4 01310013 		movwne	r3, #257
  65 00a8 04304013 		movtne	r3, 4
  66 00ac 00318215 		strne	r3, [r2, #256]
  67 00b0 040010E3 		tst	r0, #4
  68 00b4 00209D15 		ldrne	r2, [sp]
  69 00b8 01310013 		movwne	r3, #257
  70 00bc 04304013 		movtne	r3, 4
  71 00c0 00328215 		strne	r3, [r2, #512]
  72 00c4 080010E3 		tst	r0, #8
  73 00c8 00209D15 		ldrne	r2, [sp]
  74 00cc 01310013 		movwne	r3, #257
  75 00d0 04304013 		movtne	r3, 4
  76 00d4 00338215 		strne	r3, [r2, #768]
  77 00d8 08D08DE2 		add	sp, sp, #8
  78              		@ sp needed
  79 00dc 1EFF2FE1 		bx	lr
  81              		.section	.text.dk2_activate,"ax",%progbits
  82              		.align	2
  83              		.syntax unified
  84              		.arm
  85              		.fpu neon
  87              	dk2_activate:
  88              		@ args = 0, pretend = 0, frame = 40
  89              		@ frame_needed = 0, uses_anonymous_args = 0
  90 0000 F04F2DE9 		push	{r4, r5, r6, r7, r8, r9, r10, fp, lr}
  91 0004 016010E2 		ands	r6, r0, #1
  92 0008 2CD04DE2 		sub	sp, sp, #44
  93 000c 0050A0E1 		mov	r5, r0
  94 0010 02B0A0E1 		mov	fp, r2
  95 0014 7501001A 		bne	.L37
  96 0018 0640A0E1 		mov	r4, r6
  97              	.L38:
  98 001c 014084E2 		add	r4, r4, #1
  99 0020 5534A0E1 		asr	r3, r5, r4
 100 0024 010013E3 		tst	r3, #1
 101 0028 FBFFFF0A 		beq	.L38
 102 002c 0120A0E3 		mov	r2, #1
 103 0030 083084E3 		orr	r3, r4, #8
 104 0034 1224A0E1 		lsl	r2, r2, r4
 105 0038 08208DE5 		str	r2, [sp, #8]
 106              	.L39:
 107 003c 0020A0E3 		mov	r2, #0
 108              	.L41:
 109 0040 012082E2 		add	r2, r2, #1
 110 0044 040082E0 		add	r0, r2, r4
 111 0048 5500B0E1 		asrs	r0, r5, r0
 112 004c FBFFFF1A 		bne	.L41
 113 0050 060052E3 		cmp	r2, #6
 114 0054 5301000A 		beq	.L237
 115 0058 010052E3 		cmp	r2, #1
 116 005c 6001000A 		beq	.L114
 117 0060 0320A0E3 		mov	r2, #3
 118 0064 1224A0E1 		lsl	r2, r2, r4
 119 0068 0C208DE5 		str	r2, [sp, #12]
 120              	.L40:
 121 006c FF0F04E3 		movw	r0, #20479
 122 0070 000051E3 		cmp	r1, #0
 123 0074 0020A0E3 		mov	r2, #0
 124 0078 FD0A4EE3 		movt	r0, 60157
 125 007c 075F00E5 		str	r5, [r0, #-3847]
 126 0080 10208DE5 		str	r2, [sp, #16]
 127 0084 14208DE5 		str	r2, [sp, #20]
 128 0088 18208DE5 		str	r2, [sp, #24]
 129 008c 1C208DE5 		str	r2, [sp, #28]
 130 0090 20208DE5 		str	r2, [sp, #32]
 131 0094 24208DE5 		str	r2, [sp, #36]
 132 0098 F500001A 		bne	.L43
 133 009c 020056E1 		cmp	r6, r2
 134 00a0 021AA013 		movne	r1, #8192
 135 00a4 1120A013 		movne	r2, #17
 136 00a8 1D1A4E13 		movtne	r1, 59933
 137 00ac 00218115 		strne	r2, [r1, #256]
 138 00b0 10208D15 		strne	r2, [sp, #16]
 139 00b4 029015E2 		ands	r9, r5, #2
 140 00b8 FF1F0213 		movwne	r1, #12287
 141 00bc 1120A013 		movne	r2, #17
 142 00c0 3D1A4E13 		movtne	r1, 59965
 143 00c4 FF2E0115 		strne	r2, [r1, #-3839]
 144 00c8 14208D15 		strne	r2, [sp, #20]
 145 00cc 042015E2 		ands	r2, r5, #4
 146 00d0 FF1F0213 		movwne	r1, #12287
 147 00d4 04208DE5 		str	r2, [sp, #4]
 148 00d8 5D1A4E13 		movtne	r1, 59997
 149 00dc 1120A013 		movne	r2, #17
 150 00e0 FF2E0115 		strne	r2, [r1, #-3839]
 151 00e4 18208D15 		strne	r2, [sp, #24]
 152 00e8 08A015E2 		ands	r10, r5, #8
 153 00ec FF1F0213 		movwne	r1, #12287
 154 00f0 1120A013 		movne	r2, #17
 155 00f4 7D1A4E13 		movtne	r1, 60029
 156 00f8 FF2E0115 		strne	r2, [r1, #-3839]
 157 00fc 1C208D15 		strne	r2, [sp, #28]
 158 0100 108015E2 		ands	r8, r5, #16
 159 0104 FF1F0213 		movwne	r1, #12287
 160 0108 1120A013 		movne	r2, #17
 161 010c 9D1A4E13 		movtne	r1, 60061
 162 0110 FF2E0115 		strne	r2, [r1, #-3839]
 163 0114 20208D15 		strne	r2, [sp, #32]
 164 0118 207015E2 		ands	r7, r5, #32
 165 011c AE00001A 		bne	.L228
 166              	.L86:
 167 0120 000056E3 		cmp	r6, #0
 168 0124 0800000A 		beq	.L87
 169 0128 0229A0E3 		mov	r2, #32768
 170 012c 0100A0E3 		mov	r0, #1
 171 0130 112A4EE3 		movt	r2, 59921
 172 0134 0010A0E3 		mov	r1, #0
 173 0138 400082E5 		str	r0, [r2, #64]
 174 013c 401082E5 		str	r1, [r2, #64]
 175 0140 480082E5 		str	r0, [r2, #72]
 176 0144 101082E5 		str	r1, [r2, #16]
 177 0148 783082E5 		str	r3, [r2, #120]
 178              	.L87:
 179 014c 000059E3 		cmp	r9, #0
 180 0150 0800000A 		beq	.L88
 181 0154 0229A0E3 		mov	r2, #32768
 182 0158 0100A0E3 		mov	r0, #1
 183 015c 312A4EE3 		movt	r2, 59953
 184 0160 0010A0E3 		mov	r1, #0
 185 0164 400082E5 		str	r0, [r2, #64]
 186 0168 401082E5 		str	r1, [r2, #64]
 187 016c 480082E5 		str	r0, [r2, #72]
 188 0170 101082E5 		str	r1, [r2, #16]
 189 0174 783082E5 		str	r3, [r2, #120]
 190              	.L88:
 191 0178 04209DE5 		ldr	r2, [sp, #4]
 192 017c 000052E3 		cmp	r2, #0
 193 0180 0800000A 		beq	.L89
 194 0184 0229A0E3 		mov	r2, #32768
 195 0188 0100A0E3 		mov	r0, #1
 196 018c 512A4EE3 		movt	r2, 59985
 197 0190 0010A0E3 		mov	r1, #0
 198 0194 400082E5 		str	r0, [r2, #64]
 199 0198 401082E5 		str	r1, [r2, #64]
 200 019c 480082E5 		str	r0, [r2, #72]
 201 01a0 101082E5 		str	r1, [r2, #16]
 202 01a4 783082E5 		str	r3, [r2, #120]
 203              	.L89:
 204 01a8 00005AE3 		cmp	r10, #0
 205 01ac 0800000A 		beq	.L90
 206 01b0 0229A0E3 		mov	r2, #32768
 207 01b4 0100A0E3 		mov	r0, #1
 208 01b8 712A4EE3 		movt	r2, 60017
 209 01bc 0010A0E3 		mov	r1, #0
 210 01c0 400082E5 		str	r0, [r2, #64]
 211 01c4 401082E5 		str	r1, [r2, #64]
 212 01c8 480082E5 		str	r0, [r2, #72]
 213 01cc 101082E5 		str	r1, [r2, #16]
 214 01d0 783082E5 		str	r3, [r2, #120]
 215              	.L90:
 216 01d4 000058E3 		cmp	r8, #0
 217 01d8 0800000A 		beq	.L91
 218 01dc 0229A0E3 		mov	r2, #32768
 219 01e0 0100A0E3 		mov	r0, #1
 220 01e4 912A4EE3 		movt	r2, 60049
 221 01e8 0010A0E3 		mov	r1, #0
 222 01ec 400082E5 		str	r0, [r2, #64]
 223 01f0 401082E5 		str	r1, [r2, #64]
 224 01f4 480082E5 		str	r0, [r2, #72]
 225 01f8 101082E5 		str	r1, [r2, #16]
 226 01fc 783082E5 		str	r3, [r2, #120]
 227              	.L91:
 228 0200 000057E3 		cmp	r7, #0
 229 0204 0800000A 		beq	.L92
 230 0208 0229A0E3 		mov	r2, #32768
 231 020c 0100A0E3 		mov	r0, #1
 232 0210 B12A4EE3 		movt	r2, 60081
 233 0214 0010A0E3 		mov	r1, #0
 234 0218 400082E5 		str	r0, [r2, #64]
 235 021c 401082E5 		str	r1, [r2, #64]
 236 0220 480082E5 		str	r0, [r2, #72]
 237 0224 101082E5 		str	r1, [r2, #16]
 238 0228 783082E5 		str	r3, [r2, #120]
 239              	.L92:
 240 022c 10009DE5 		ldr	r0, [sp, #16]
 241 0230 0410A0E1 		mov	r1, r4
 242 0234 FEFFFFEB 		bl	set_dma
 243 0238 14009DE5 		ldr	r0, [sp, #20]
 244 023c 0410A0E1 		mov	r1, r4
 245 0240 FEFFFFEB 		bl	set_dma
 246 0244 18009DE5 		ldr	r0, [sp, #24]
 247 0248 0410A0E1 		mov	r1, r4
 248 024c FEFFFFEB 		bl	set_dma
 249 0250 1C009DE5 		ldr	r0, [sp, #28]
 250 0254 0410A0E1 		mov	r1, r4
 251 0258 FEFFFFEB 		bl	set_dma
 252 025c 20009DE5 		ldr	r0, [sp, #32]
 253 0260 0410A0E1 		mov	r1, r4
 254 0264 FEFFFFEB 		bl	set_dma
 255 0268 24009DE5 		ldr	r0, [sp, #36]
 256 026c 0410A0E1 		mov	r1, r4
 257 0270 FEFFFFEB 		bl	set_dma
 258 0274 0C009DE5 		ldr	r0, [sp, #12]
 259 0278 FF1F0AE3 		movw	r1, #45055
 260 027c FF1A4EE3 		movt	r1, 60159
 261 0280 FF3F08E3 		movw	r3, #36863
 262 0284 FF2F04E3 		movw	r2, #20479
 263 0288 FF3A4EE3 		movt	r3, 60159
 264 028c DB0F01E5 		str	r0, [r1, #-4059]
 265 0290 FD2A4EE3 		movt	r2, 60157
 266 0294 08109DE5 		ldr	r1, [sp, #8]
 267 0298 00005BE3 		cmp	fp, #0
 268 029c FF1F03E5 		str	r1, [r3, #-4095]
 269 02a0 0F3F12E5 		ldr	r3, [r2, #-3855]
 270 02a4 C030C3E3 		bic	r3, r3, #192
 271 02a8 053083E1 		orr	r3, r3, r5
 272 02ac 0F3F02E5 		str	r3, [r2, #-3855]
 273 02b0 4F00000A 		beq	.L93
 274 02b4 000056E3 		cmp	r6, #0
 275 02b8 023AA013 		movne	r3, #8192
 276 02bc 0020A013 		movne	r2, #0
 277 02c0 1D3A4E13 		movtne	r3, 59933
 278 02c4 18258315 		strne	r2, [r3, #1304]
 279 02c8 10B58315 		strne	fp, [r3, #1296]
 280 02cc 000059E3 		cmp	r9, #0
 281 02d0 FF3F0213 		movwne	r3, #12287
 282 02d4 0020A013 		movne	r2, #0
 283 02d8 3D3A4E13 		movtne	r3, 59965
 284 02dc E72A0315 		strne	r2, [r3, #-2791]
 285 02e0 EFBA0315 		strne	fp, [r3, #-2799]
 286 02e4 04309DE5 		ldr	r3, [sp, #4]
 287 02e8 000053E3 		cmp	r3, #0
 288 02ec FF3F0213 		movwne	r3, #12287
 289 02f0 0020A013 		movne	r2, #0
 290 02f4 5D3A4E13 		movtne	r3, 59997
 291 02f8 E72A0315 		strne	r2, [r3, #-2791]
 292 02fc EFBA0315 		strne	fp, [r3, #-2799]
 293 0300 00005AE3 		cmp	r10, #0
 294 0304 FF3F0213 		movwne	r3, #12287
 295 0308 0020A013 		movne	r2, #0
 296 030c 7D3A4E13 		movtne	r3, 60029
 297 0310 E72A0315 		strne	r2, [r3, #-2791]
 298 0314 EFBA0315 		strne	fp, [r3, #-2799]
 299 0318 000058E3 		cmp	r8, #0
 300 031c FF3F0213 		movwne	r3, #12287
 301 0320 0020A013 		movne	r2, #0
 302 0324 9D3A4E13 		movtne	r3, 60061
 303 0328 E72A0315 		strne	r2, [r3, #-2791]
 304 032c EFBA0315 		strne	fp, [r3, #-2799]
 305 0330 000057E3 		cmp	r7, #0
 306 0334 6F00001A 		bne	.L238
 307              	.L100:
 308 0338 FF3F04E3 		movw	r3, #20479
 309 033c 000056E3 		cmp	r6, #0
 310 0340 FD3A4EE3 		movt	r3, 60157
 311 0344 075F03E5 		str	r5, [r3, #-3847]
 312 0348 9000001A 		bne	.L239
 313 034c 000059E3 		cmp	r9, #0
 314 0350 6E00001A 		bne	.L240
 315 0354 04309DE5 		ldr	r3, [sp, #4]
 316 0358 000053E3 		cmp	r3, #0
 317 035c 9A00001A 		bne	.L241
 318 0360 00005AE3 		cmp	r10, #0
 319 0364 9300001A 		bne	.L242
 320 0368 000058E3 		cmp	r8, #0
 321 036c C600001A 		bne	.L243
 322 0370 000057E3 		cmp	r7, #0
 323 0374 0239A013 		movne	r3, #32768
 324 0378 0120A013 		movne	r2, #1
 325 037c B13A4E13 		movtne	r3, 60081
 326 0380 08208315 		strne	r2, [r3, #8]
 327 0384 650000EA 		b	.L36
 328              	.L61:
 329 0388 200051E3 		cmp	r1, #32
 330 038c F800001A 		bne	.L65
 331 0390 071005E2 		and	r1, r5, #7
 332 0394 070051E3 		cmp	r1, #7
 333 0398 4201000A 		beq	.L244
 334              	.L66:
 335 039c 00005AE3 		cmp	r10, #0
 336 03a0 0400000A 		beq	.L78
 337 03a4 FF1F02E3 		movw	r1, #12287
 338 03a8 1120A0E3 		mov	r2, #17
 339 03ac 7D1A4EE3 		movt	r1, 60029
 340 03b0 FF2E01E5 		str	r2, [r1, #-3839]
 341 03b4 1C208DE5 		str	r2, [sp, #28]
 342              	.L78:
 343 03b8 000058E3 		cmp	r8, #0
 344 03bc 0400000A 		beq	.L85
 345 03c0 FF1F02E3 		movw	r1, #12287
 346 03c4 1120A0E3 		mov	r2, #17
 347 03c8 9D1A4EE3 		movt	r1, 60061
 348 03cc FF2E01E5 		str	r2, [r1, #-3839]
 349 03d0 20208DE5 		str	r2, [sp, #32]
 350              	.L85:
 351 03d4 000057E3 		cmp	r7, #0
 352 03d8 50FFFF0A 		beq	.L86
 353              	.L228:
 354 03dc FF1F02E3 		movw	r1, #12287
 355 03e0 1120A0E3 		mov	r2, #17
 356 03e4 BD1A4EE3 		movt	r1, 60093
 357 03e8 FF2E01E5 		str	r2, [r1, #-3839]
 358 03ec 24208DE5 		str	r2, [sp, #36]
 359 03f0 4AFFFFEA 		b	.L86
 360              	.L93:
 361 03f4 000056E3 		cmp	r6, #0
 362 03f8 023AA013 		movne	r3, #8192
 363 03fc 0120A013 		movne	r2, #1
 364 0400 1D3A4E13 		movtne	r3, 59933
 365 0404 18258315 		strne	r2, [r3, #1304]
 366 0408 000059E3 		cmp	r9, #0
 367 040c FF3F0213 		movwne	r3, #12287
 368 0410 0120A013 		movne	r2, #1
 369 0414 3D3A4E13 		movtne	r3, 59965
 370 0418 E72A0315 		strne	r2, [r3, #-2791]
 371 041c 04309DE5 		ldr	r3, [sp, #4]
 372 0420 000053E3 		cmp	r3, #0
 373 0424 FF3F0213 		movwne	r3, #12287
 374 0428 0120A013 		movne	r2, #1
 375 042c 5D3A4E13 		movtne	r3, 59997
 376 0430 E72A0315 		strne	r2, [r3, #-2791]
 377 0434 00005AE3 		cmp	r10, #0
 378 0438 FF3F0213 		movwne	r3, #12287
 379 043c 0120A013 		movne	r2, #1
 380 0440 7D3A4E13 		movtne	r3, 60029
 381 0444 E72A0315 		strne	r2, [r3, #-2791]
 382 0448 000058E3 		cmp	r8, #0
 383 044c FF3F0213 		movwne	r3, #12287
 384 0450 0120A013 		movne	r2, #1
 385 0454 9D3A4E13 		movtne	r3, 60061
 386 0458 E72A0315 		strne	r2, [r3, #-2791]
 387 045c 000057E3 		cmp	r7, #0
 388 0460 FF3F0213 		movwne	r3, #12287
 389 0464 0120A013 		movne	r2, #1
 390 0468 BD3A4E13 		movtne	r3, 60093
 391 046c E72A0315 		strne	r2, [r3, #-2791]
 392 0470 B0FFFFEA 		b	.L100
 393              	.L43:
 394 0474 100051E3 		cmp	r1, #16
 395 0478 2A00001A 		bne	.L50
 396 047c 032005E2 		and	r2, r5, #3
 397 0480 030052E3 		cmp	r2, #3
 398 0484 6100000A 		beq	.L245
 399              	.L51:
 400 0488 042015E2 		ands	r2, r5, #4
 401 048c FF1F0213 		movwne	r1, #12287
 402 0490 04208DE5 		str	r2, [sp, #4]
 403 0494 5D1A4E13 		movtne	r1, 59997
 404 0498 1120A013 		movne	r2, #17
 405 049c FF2E0115 		strne	r2, [r1, #-3839]
 406 04a0 18208D15 		strne	r2, [sp, #24]
 407 04a4 08A015E2 		ands	r10, r5, #8
 408 04a8 FF1F0213 		movwne	r1, #12287
 409 04ac 1120A013 		movne	r2, #17
 410 04b0 7D1A4E13 		movtne	r1, 60029
 411 04b4 FF2E0115 		strne	r2, [r1, #-3839]
 412 04b8 1C208D15 		strne	r2, [sp, #28]
 413 04bc 108015E2 		ands	r8, r5, #16
 414 04c0 FF1F0213 		movwne	r1, #12287
 415 04c4 1120A013 		movne	r2, #17
 416 04c8 9D1A4E13 		movtne	r1, 60061
 417 04cc FF2E0115 		strne	r2, [r1, #-3839]
 418 04d0 20208D15 		strne	r2, [sp, #32]
 419 04d4 207015E2 		ands	r7, r5, #32
 420 04d8 0400000A 		beq	.L230
 421 04dc FF1F02E3 		movw	r1, #12287
 422 04e0 1120A0E3 		mov	r2, #17
 423 04e4 BD1A4EE3 		movt	r1, 60093
 424 04e8 FF2E01E5 		str	r2, [r1, #-3839]
 425 04ec 24208DE5 		str	r2, [sp, #36]
 426              	.L230:
 427 04f0 029005E2 		and	r9, r5, #2
 428 04f4 09FFFFEA 		b	.L86
 429              	.L238:
 430 04f8 FF3F02E3 		movw	r3, #12287
 431 04fc 0020A0E3 		mov	r2, #0
 432 0500 BD3A4EE3 		movt	r3, 60093
 433 0504 E72A03E5 		str	r2, [r3, #-2791]
 434 0508 EFBA03E5 		str	fp, [r3, #-2799]
 435 050c 89FFFFEA 		b	.L100
 436              	.L240:
 437 0510 0239A0E3 		mov	r3, #32768
 438 0514 0120A0E3 		mov	r2, #1
 439 0518 313A4EE3 		movt	r3, 59953
 440 051c 082083E5 		str	r2, [r3, #8]
 441              	.L36:
 442 0520 2CD08DE2 		add	sp, sp, #44
 443              		@ sp needed
 444 0524 F08FBDE8 		pop	{r4, r5, r6, r7, r8, r9, r10, fp, pc}
 445              	.L50:
 446 0528 110051E3 		cmp	r1, #17
 447 052c 6000001A 		bne	.L56
 448 0530 032005E2 		and	r2, r5, #3
 449 0534 030052E3 		cmp	r2, #3
 450 0538 4900000A 		beq	.L246
 451              	.L57:
 452 053c 0C2005E2 		and	r2, r5, #12
 453 0540 0C0052E3 		cmp	r2, #12
 454 0544 3B00000A 		beq	.L247
 455              	.L58:
 456 0548 108015E2 		ands	r8, r5, #16
 457 054c FF1F0213 		movwne	r1, #12287
 458 0550 1120A013 		movne	r2, #17
 459 0554 9D1A4E13 		movtne	r1, 60061
 460 0558 FF2E0115 		strne	r2, [r1, #-3839]
 461 055c 20208D15 		strne	r2, [sp, #32]
 462 0560 207015E2 		ands	r7, r5, #32
 463 0564 0400000A 		beq	.L60
 464 0568 FF1F02E3 		movw	r1, #12287
 465 056c 1120A0E3 		mov	r2, #17
 466 0570 BD1A4EE3 		movt	r1, 60093
 467 0574 FF2E01E5 		str	r2, [r1, #-3839]
 468 0578 24208DE5 		str	r2, [sp, #36]
 469              	.L60:
 470 057c 042005E2 		and	r2, r5, #4
 471 0580 08A005E2 		and	r10, r5, #8
 472 0584 04208DE5 		str	r2, [sp, #4]
 473 0588 029005E2 		and	r9, r5, #2
 474 058c E3FEFFEA 		b	.L86
 475              	.L239:
 476 0590 0239A0E3 		mov	r3, #32768
 477 0594 0120A0E3 		mov	r2, #1
 478 0598 113A4EE3 		movt	r3, 59921
 479 059c 082083E5 		str	r2, [r3, #8]
 480 05a0 2CD08DE2 		add	sp, sp, #44
 481              		@ sp needed
 482 05a4 F08FBDE8 		pop	{r4, r5, r6, r7, r8, r9, r10, fp, pc}
 483              	.L237:
 484 05a8 0F20A0E3 		mov	r2, #15
 485 05ac 1224A0E1 		lsl	r2, r2, r4
 486 05b0 0C208DE5 		str	r2, [sp, #12]
 487 05b4 ACFEFFEA 		b	.L40
 488              	.L242:
 489 05b8 0239A0E3 		mov	r3, #32768
 490 05bc 0120A0E3 		mov	r2, #1
 491 05c0 713A4EE3 		movt	r3, 60017
 492 05c4 082083E5 		str	r2, [r3, #8]
 493 05c8 D4FFFFEA 		b	.L36
 494              	.L241:
 495 05cc 0239A0E3 		mov	r3, #32768
 496 05d0 0120A0E3 		mov	r2, #1
 497 05d4 513A4EE3 		movt	r3, 59985
 498 05d8 082083E5 		str	r2, [r3, #8]
 499 05dc 2CD08DE2 		add	sp, sp, #44
 500              		@ sp needed
 501 05e0 F08FBDE8 		pop	{r4, r5, r6, r7, r8, r9, r10, fp, pc}
 502              	.L114:
 503 05e4 08209DE5 		ldr	r2, [sp, #8]
 504 05e8 0C208DE5 		str	r2, [sp, #12]
 505 05ec 9EFEFFEA 		b	.L40
 506              	.L37:
 507 05f0 000050E3 		cmp	r0, #0
 508 05f4 2900001A 		bne	.L248
 509 05f8 0130A0E3 		mov	r3, #1
 510 05fc 0040A0E1 		mov	r4, r0
 511 0600 08308DE5 		str	r3, [sp, #8]
 512 0604 0C308DE5 		str	r3, [sp, #12]
 513 0608 0830A0E3 		mov	r3, #8
 514 060c 96FEFFEA 		b	.L40
 515              	.L245:
 516 0610 02CAA0E3 		mov	ip, #8192
 517 0614 FF0F02E3 		movw	r0, #12287
 518 0618 3010A0E3 		mov	r1, #48
 519 061c 1DCA4EE3 		movt	ip, 59933
 520 0620 3D0A4EE3 		movt	r0, 59965
 521 0624 00218CE5 		str	r2, [ip, #256]
 522 0628 FF1E00E5 		str	r1, [r0, #-3839]
 523 062c 10208DE5 		str	r2, [sp, #16]
 524 0630 14108DE5 		str	r1, [sp, #20]
 525 0634 93FFFFEA 		b	.L51
 526              	.L247:
 527 0638 FFCF02E3 		movw	ip, #12287
 528 063c 0310A0E3 		mov	r1, #3
 529 0640 0C00A0E1 		mov	r0, ip
 530 0644 3020A0E3 		mov	r2, #48
 531 0648 5DCA4EE3 		movt	ip, 59997
 532 064c 7D0A4EE3 		movt	r0, 60029
 533 0650 FF1E0CE5 		str	r1, [ip, #-3839]
 534 0654 FF2E00E5 		str	r2, [r0, #-3839]
 535 0658 18108DE5 		str	r1, [sp, #24]
 536 065c 1C208DE5 		str	r2, [sp, #28]
 537 0660 B8FFFFEA 		b	.L58
 538              	.L246:
 539 0664 02CAA0E3 		mov	ip, #8192
 540 0668 FF0F02E3 		movw	r0, #12287
 541 066c 3010A0E3 		mov	r1, #48
 542 0670 1DCA4EE3 		movt	ip, 59933
 543 0674 3D0A4EE3 		movt	r0, 59965
 544 0678 00218CE5 		str	r2, [ip, #256]
 545 067c FF1E00E5 		str	r1, [r0, #-3839]
 546 0680 10208DE5 		str	r2, [sp, #16]
 547 0684 14108DE5 		str	r1, [sp, #20]
 548 0688 ABFFFFEA 		b	.L57
 549              	.L243:
 550 068c 0239A0E3 		mov	r3, #32768
 551 0690 0120A0E3 		mov	r2, #1
 552 0694 913A4EE3 		movt	r3, 60049
 553 0698 082083E5 		str	r2, [r3, #8]
 554 069c 9FFFFFEA 		b	.L36
 555              	.L248:
 556 06a0 0130A0E3 		mov	r3, #1
 557 06a4 0040A0E3 		mov	r4, #0
 558 06a8 08308DE5 		str	r3, [sp, #8]
 559 06ac 0830A0E3 		mov	r3, #8
 560 06b0 61FEFFEA 		b	.L39
 561              	.L56:
 562 06b4 120051E3 		cmp	r1, #18
 563 06b8 040005E2 		and	r0, r5, #4
 564 06bc 04008DE5 		str	r0, [sp, #4]
 565 06c0 08A005E2 		and	r10, r5, #8
 566 06c4 108005E2 		and	r8, r5, #16
 567 06c8 207005E2 		and	r7, r5, #32
 568 06cc 029005E2 		and	r9, r5, #2
 569 06d0 2CFFFF1A 		bne	.L61
 570 06d4 032005E2 		and	r2, r5, #3
 571 06d8 030052E3 		cmp	r2, #3
 572 06dc 0F00000A 		beq	.L249
 573              	.L62:
 574 06e0 0C2005E2 		and	r2, r5, #12
 575 06e4 0C0052E3 		cmp	r2, #12
 576 06e8 1600000A 		beq	.L250
 577              	.L82:
 578 06ec 302005E2 		and	r2, r5, #48
 579 06f0 300052E3 		cmp	r2, #48
 580 06f4 89FEFF1A 		bne	.L86
 581 06f8 FFCF02E3 		movw	ip, #12287
 582 06fc 0310A0E3 		mov	r1, #3
 583 0700 0C00A0E1 		mov	r0, ip
 584 0704 9DCA4EE3 		movt	ip, 60061
 585 0708 BD0A4EE3 		movt	r0, 60093
 586 070c FF1E0CE5 		str	r1, [ip, #-3839]
 587 0710 FF2E00E5 		str	r2, [r0, #-3839]
 588 0714 20108DE5 		str	r1, [sp, #32]
 589 0718 24208DE5 		str	r2, [sp, #36]
 590 071c 7FFEFFEA 		b	.L86
 591              	.L249:
 592 0720 02CAA0E3 		mov	ip, #8192
 593 0724 FF0F02E3 		movw	r0, #12287
 594 0728 3010A0E3 		mov	r1, #48
 595 072c 1DCA4EE3 		movt	ip, 59933
 596 0730 3D0A4EE3 		movt	r0, 59965
 597 0734 00218CE5 		str	r2, [ip, #256]
 598 0738 FF1E00E5 		str	r1, [r0, #-3839]
 599 073c 10208DE5 		str	r2, [sp, #16]
 600 0740 14108DE5 		str	r1, [sp, #20]
 601 0744 E5FFFFEA 		b	.L62
 602              	.L250:
 603 0748 FFCF02E3 		movw	ip, #12287
 604 074c 0310A0E3 		mov	r1, #3
 605 0750 0C00A0E1 		mov	r0, ip
 606 0754 3020A0E3 		mov	r2, #48
 607 0758 5DCA4EE3 		movt	ip, 59997
 608 075c 7D0A4EE3 		movt	r0, 60029
 609 0760 FF1E0CE5 		str	r1, [ip, #-3839]
 610 0764 FF2E00E5 		str	r2, [r0, #-3839]
 611 0768 18108DE5 		str	r1, [sp, #24]
 612 076c 1C208DE5 		str	r2, [sp, #28]
 613 0770 DDFFFFEA 		b	.L82
 614              	.L65:
 615 0774 210051E3 		cmp	r1, #33
 616 0778 1000001A 		bne	.L70
 617 077c 071005E2 		and	r1, r5, #7
 618 0780 070051E3 		cmp	r1, #7
 619 0784 5500000A 		beq	.L251
 620              	.L71:
 621 0788 182005E2 		and	r2, r5, #24
 622 078c 180052E3 		cmp	r2, #24
 623 0790 0FFFFF1A 		bne	.L85
 624 0794 FFCF02E3 		movw	ip, #12287
 625 0798 0310A0E3 		mov	r1, #3
 626 079c 0C00A0E1 		mov	r0, ip
 627 07a0 3020A0E3 		mov	r2, #48
 628 07a4 7DCA4EE3 		movt	ip, 60029
 629 07a8 9D0A4EE3 		movt	r0, 60061
 630 07ac FF1E0CE5 		str	r1, [ip, #-3839]
 631 07b0 FF2E00E5 		str	r2, [r0, #-3839]
 632 07b4 1C108DE5 		str	r1, [sp, #28]
 633 07b8 20208DE5 		str	r2, [sp, #32]
 634 07bc 04FFFFEA 		b	.L85
 635              	.L70:
 636 07c0 220051E3 		cmp	r1, #34
 637 07c4 1400001A 		bne	.L74
 638 07c8 071005E2 		and	r1, r5, #7
 639 07cc 070051E3 		cmp	r1, #7
 640 07d0 2600000A 		beq	.L252
 641              	.L75:
 642 07d4 382005E2 		and	r2, r5, #56
 643 07d8 380052E3 		cmp	r2, #56
 644 07dc 4FFEFF1A 		bne	.L86
 645 07e0 FF2F02E3 		movw	r2, #12287
 646 07e4 0310A0E3 		mov	r1, #3
 647 07e8 02C0A0E1 		mov	ip, r2
 648 07ec 0200A0E1 		mov	r0, r2
 649 07f0 7D2A4EE3 		movt	r2, 60029
 650 07f4 9DCA4EE3 		movt	ip, 60061
 651 07f8 FF1E02E5 		str	r1, [r2, #-3839]
 652 07fc BD0A4EE3 		movt	r0, 60093
 653 0800 3020A0E3 		mov	r2, #48
 654 0804 00E0A0E3 		mov	lr, #0
 655 0808 FFEE0CE5 		str	lr, [ip, #-3839]
 656 080c FF2E00E5 		str	r2, [r0, #-3839]
 657 0810 1C108DE5 		str	r1, [sp, #28]
 658 0814 24208DE5 		str	r2, [sp, #36]
 659 0818 40FEFFEA 		b	.L86
 660              	.L74:
 661 081c 300051E3 		cmp	r1, #48
 662 0820 3C00001A 		bne	.L77
 663 0824 0F0005E2 		and	r0, r5, #15
 664 0828 0F0050E3 		cmp	r0, #15
 665 082c E1FEFF1A 		bne	.L78
 666 0830 02CAA0E3 		mov	ip, #8192
 667 0834 03E0A0E3 		mov	lr, #3
 668 0838 1DCA4EE3 		movt	ip, 59933
 669 083c FF0F02E3 		movw	r0, #12287
 670 0840 00E18CE5 		str	lr, [ip, #256]
 671 0844 3D0A4EE3 		movt	r0, 59965
 672 0848 FFCF02E3 		movw	ip, #12287
 673 084c FF2E00E5 		str	r2, [r0, #-3839]
 674 0850 0C00A0E1 		mov	r0, ip
 675 0854 5DCA4EE3 		movt	ip, 59997
 676 0858 7D0A4EE3 		movt	r0, 60029
 677 085c FF2E0CE5 		str	r2, [ip, #-3839]
 678 0860 FF1E00E5 		str	r1, [r0, #-3839]
 679 0864 10E08DE5 		str	lr, [sp, #16]
 680 0868 1C108DE5 		str	r1, [sp, #28]
 681 086c D1FEFFEA 		b	.L78
 682              	.L252:
 683 0870 020AA0E3 		mov	r0, #8192
 684 0874 0310A0E3 		mov	r1, #3
 685 0878 1D0A4EE3 		movt	r0, 59933
 686 087c FFCF02E3 		movw	ip, #12287
 687 0880 001180E5 		str	r1, [r0, #256]
 688 0884 3DCA4EE3 		movt	ip, 59965
 689 0888 FF0F02E3 		movw	r0, #12287
 690 088c FF2E0CE5 		str	r2, [ip, #-3839]
 691 0890 5D0A4EE3 		movt	r0, 59997
 692 0894 3020A0E3 		mov	r2, #48
 693 0898 FF2E00E5 		str	r2, [r0, #-3839]
 694 089c 10108DE5 		str	r1, [sp, #16]
 695 08a0 18208DE5 		str	r2, [sp, #24]
 696 08a4 CAFFFFEA 		b	.L75
 697              	.L244:
 698 08a8 020AA0E3 		mov	r0, #8192
 699 08ac 0310A0E3 		mov	r1, #3
 700 08b0 1D0A4EE3 		movt	r0, 59933
 701 08b4 FFCF02E3 		movw	ip, #12287
 702 08b8 001180E5 		str	r1, [r0, #256]
 703 08bc 3DCA4EE3 		movt	ip, 59965
 704 08c0 FF0F02E3 		movw	r0, #12287
 705 08c4 FF2E0CE5 		str	r2, [ip, #-3839]
 706 08c8 5D0A4EE3 		movt	r0, 59997
 707 08cc 3020A0E3 		mov	r2, #48
 708 08d0 FF2E00E5 		str	r2, [r0, #-3839]
 709 08d4 10108DE5 		str	r1, [sp, #16]
 710 08d8 18208DE5 		str	r2, [sp, #24]
 711 08dc AEFEFFEA 		b	.L66
 712              	.L251:
 713 08e0 020AA0E3 		mov	r0, #8192
 714 08e4 0310A0E3 		mov	r1, #3
 715 08e8 1D0A4EE3 		movt	r0, 59933
 716 08ec FFCF02E3 		movw	ip, #12287
 717 08f0 001180E5 		str	r1, [r0, #256]
 718 08f4 3DCA4EE3 		movt	ip, 59965
 719 08f8 FF0F02E3 		movw	r0, #12287
 720 08fc FF2E0CE5 		str	r2, [ip, #-3839]
 721 0900 5D0A4EE3 		movt	r0, 59997
 722 0904 3020A0E3 		mov	r2, #48
 723 0908 FF2E00E5 		str	r2, [r0, #-3839]
 724 090c 10108DE5 		str	r1, [sp, #16]
 725 0910 18208DE5 		str	r2, [sp, #24]
 726 0914 9BFFFFEA 		b	.L71
 727              	.L77:
 728 0918 310051E3 		cmp	r1, #49
 729 091c 1400001A 		bne	.L81
 730 0920 0F2005E2 		and	r2, r5, #15
 731 0924 0F0052E3 		cmp	r2, #15
 732 0928 6FFFFF1A 		bne	.L82
 733 092c FFCF02E3 		movw	ip, #12287
 734 0930 022AA0E3 		mov	r2, #8192
 735 0934 0C10A0E1 		mov	r1, ip
 736 0938 1D2A4EE3 		movt	r2, 59933
 737 093c 03E0A0E3 		mov	lr, #3
 738 0940 5D1A4EE3 		movt	r1, 59997
 739 0944 00E182E5 		str	lr, [r2, #256]
 740 0948 0000A0E3 		mov	r0, #0
 741 094c 3DCA4EE3 		movt	ip, 59965
 742 0950 FF2F02E3 		movw	r2, #12287
 743 0954 FF0E0CE5 		str	r0, [ip, #-3839]
 744 0958 7D2A4EE3 		movt	r2, 60029
 745 095c FF0E01E5 		str	r0, [r1, #-3839]
 746 0960 3010A0E3 		mov	r1, #48
 747 0964 FF1E02E5 		str	r1, [r2, #-3839]
 748 0968 10E08DE5 		str	lr, [sp, #16]
 749 096c 1C108DE5 		str	r1, [sp, #28]
 750 0970 5DFFFFEA 		b	.L82
 751              	.L81:
 752 0974 400051E3 		cmp	r1, #64
 753 0978 1700001A 		bne	.L84
 754 097c 1F2005E2 		and	r2, r5, #31
 755 0980 1F0052E3 		cmp	r2, #31
 756 0984 92FEFF1A 		bne	.L85
 757 0988 FFCF02E3 		movw	ip, #12287
 758 098c 022AA0E3 		mov	r2, #8192
 759 0990 0C00A0E1 		mov	r0, ip
 760 0994 1D2A4EE3 		movt	r2, 59933
 761 0998 03E0A0E3 		mov	lr, #3
 762 099c 5D0A4EE3 		movt	r0, 59997
 763 09a0 00E182E5 		str	lr, [r2, #256]
 764 09a4 3DCA4EE3 		movt	ip, 59965
 765 09a8 0020A0E3 		mov	r2, #0
 766 09ac FF1F02E3 		movw	r1, #12287
 767 09b0 FF2E0CE5 		str	r2, [ip, #-3839]
 768 09b4 7D1A4EE3 		movt	r1, 60029
 769 09b8 FF2E00E5 		str	r2, [r0, #-3839]
 770 09bc FF0F02E3 		movw	r0, #12287
 771 09c0 FF2E01E5 		str	r2, [r1, #-3839]
 772 09c4 9D0A4EE3 		movt	r0, 60061
 773 09c8 3020A0E3 		mov	r2, #48
 774 09cc FF2E00E5 		str	r2, [r0, #-3839]
 775 09d0 10E08DE5 		str	lr, [sp, #16]
 776 09d4 20208DE5 		str	r2, [sp, #32]
 777 09d8 7DFEFFEA 		b	.L85
 778              	.L84:
 779 09dc 500051E3 		cmp	r1, #80
 780 09e0 CEFDFF1A 		bne	.L86
 781 09e4 3F2005E2 		and	r2, r5, #63
 782 09e8 3F0052E3 		cmp	r2, #63
 783 09ec CBFDFF1A 		bne	.L86
 784 09f0 FFCF02E3 		movw	ip, #12287
 785 09f4 022AA0E3 		mov	r2, #8192
 786 09f8 0C00A0E1 		mov	r0, ip
 787 09fc 1D2A4EE3 		movt	r2, 59933
 788 0a00 0FE0A0E3 		mov	lr, #15
 789 0a04 5D0A4EE3 		movt	r0, 59997
 790 0a08 00E182E5 		str	lr, [r2, #256]
 791 0a0c 3DCA4EE3 		movt	ip, 59965
 792 0a10 0020A0E3 		mov	r2, #0
 793 0a14 FF1F02E3 		movw	r1, #12287
 794 0a18 FF2E0CE5 		str	r2, [ip, #-3839]
 795 0a1c 7D1A4EE3 		movt	r1, 60029
 796 0a20 FF2E00E5 		str	r2, [r0, #-3839]
 797 0a24 FF0F02E3 		movw	r0, #12287
 798 0a28 FF2E01E5 		str	r2, [r1, #-3839]
 799 0a2c 9D0A4EE3 		movt	r0, 60061
 800 0a30 FF1F02E3 		movw	r1, #12287
 801 0a34 FF2E00E5 		str	r2, [r0, #-3839]
 802 0a38 BD1A4EE3 		movt	r1, 60093
 803 0a3c F020A0E3 		mov	r2, #240
 804 0a40 FF2E01E5 		str	r2, [r1, #-3839]
 805 0a44 10E08DE5 		str	lr, [sp, #16]
 806 0a48 24208DE5 		str	r2, [sp, #36]
 807 0a4c B3FDFFEA 		b	.L86
 809              		.section	.text.read_evsel.constprop.3,"ax",%progbits
 810              		.align	2
 811              		.syntax unified
 812              		.arm
 813              		.fpu neon
 815              	read_evsel.constprop.3:
 816              		@ args = 0, pretend = 0, frame = 0
 817              		@ frame_needed = 0, uses_anonymous_args = 0
 818 0000 000051E3 		cmp	r1, #0
 819 0004 02C9A0E3 		mov	ip, #32768
 820 0008 04E02DE5 		str	lr, [sp, #-4]!
 821 000c 71CA4EE3 		movt	ip, 60017
 822 0010 01E0A0E3 		mov	lr, #1
 823 0014 161BA003 		moveq	r1, #22528
 824 0018 40E08CE5 		str	lr, [ip, #64]
 825 001c 1000000A 		beq	.L260
 826 0020 010051E3 		cmp	r1, #1
 827 0024 061AA003 		moveq	r1, #24576
 828 0028 0500000A 		beq	.L261
 829 002c 020051E3 		cmp	r1, #2
 830 0030 0A00000A 		beq	.L262
 831 0034 030051E3 		cmp	r1, #3
 832 0038 0010A013 		movne	r1, #0
 833 003c 0E00001A 		bne	.L255
 834 0040 1A1BA0E3 		mov	r1, #26624
 835              	.L261:
 836 0044 691040E3 		movt	r1, 105
 837 0048 801181E1 		orr	r1, r1, r0, lsl #3
 838 004c EA1481E2 		add	r1, r1, #-369098752
 839 0050 0010D1E5 		ldrb	r1, [r1]	@ zero_extendqisi2
 840 0054 0F0001E2 		and	r0, r1, #15
 841 0058 0000C2E5 		strb	r0, [r2]
 842 005c 060000EA 		b	.L255
 843              	.L262:
 844 0060 061AA0E3 		mov	r1, #24576
 845              	.L260:
 846 0064 691040E3 		movt	r1, 105
 847 0068 801181E1 		orr	r1, r1, r0, lsl #3
 848 006c EA1481E2 		add	r1, r1, #-369098752
 849 0070 0010D1E5 		ldrb	r1, [r1]	@ zero_extendqisi2
 850 0074 2102A0E1 		lsr	r0, r1, #4
 851 0078 0000C2E5 		strb	r0, [r2]
 852              	.L255:
 853 007c 0229A0E3 		mov	r2, #32768
 854 0080 0000A0E3 		mov	r0, #0
 855 0084 712A4EE3 		movt	r2, 60017
 856 0088 0010C3E5 		strb	r1, [r3]
 857 008c 400082E5 		str	r0, [r2, #64]
 858 0090 04F09DE4 		ldr	pc, [sp], #4
 860              		.section	.text.R_DK2_CORE_Initialize,"ax",%progbits
 861              		.align	2
 862              		.global	R_DK2_CORE_Initialize
 863              		.syntax unified
 864              		.arm
 865              		.fpu neon
 867              	R_DK2_CORE_Initialize:
 868              		@ args = 0, pretend = 0, frame = 8
 869              		@ frame_needed = 0, uses_anonymous_args = 0
 870 0000 FFCF0DE3 		movw	ip, #57343
 871 0004 FF3F06E3 		movw	r3, #28671
 872 0008 100203E3 		movw	r0, #12816
 873 000c F04F2DE9 		push	{r4, r5, r6, r7, r8, r9, r10, fp, lr}
 874 0010 0110A0E3 		mov	r1, #1
 875 0014 FFCA4EE3 		movt	ip, 60159
 876 0018 FD3A4EE3 		movt	r3, 60157
 877 001c FF90A0E3 		mov	r9, #255
 878 0020 540647E3 		movt	r0, 30292
 879 0024 DF170CE5 		str	r1, [ip, #-2015]
 880 0028 FF9F03E5 		str	r9, [r3, #-4095]
 881 002c FF7F02E3 		movw	r7, #12287
 882 0030 FB0F03E5 		str	r0, [r3, #-4091]
 883 0034 0030A0E3 		mov	r3, #0
 884 0038 0390A0E1 		mov	r9, r3
 885 003c FF2F04E3 		movw	r2, #20479
 886 0040 FD2A4EE3 		movt	r2, 60157
 887 0044 0CD04DE2 		sub	sp, sp, #12
 888 0048 0760A0E1 		mov	r6, r7
 889 004c 0750A0E1 		mov	r5, r7
 890 0050 0740A0E1 		mov	r4, r7
 891 0054 07E0A0E1 		mov	lr, r7
 892 0058 5B9A4EE3 		movt	r9, 59995
 893 005c 028AA0E3 		mov	r8, #8192
 894 0060 9F3F02E5 		str	r3, [r2, #-3999]
 895 0064 0300A0E3 		mov	r0, #3
 896 0068 04908DE5 		str	r9, [sp, #4]
 897 006c 1D8A4EE3 		movt	r8, 59933
 898 0070 3D7A4EE3 		movt	r7, 59965
 899 0074 5D6A4EE3 		movt	r6, 59997
 900 0078 7D5A4EE3 		movt	r5, 60029
 901 007c 9D4A4EE3 		movt	r4, 60061
 902 0080 BDEA4EE3 		movt	lr, 60093
 903 0084 3F90A0E3 		mov	r9, #63
 904 0088 973F02E5 		str	r3, [r2, #-3991]
 905 008c 00B0A0E3 		mov	fp, #0
 906 0090 8F3F02E5 		str	r3, [r2, #-3983]
 907 0094 00A0A0E3 		mov	r10, #0
 908 0098 873F02E5 		str	r3, [r2, #-3975]
 909 009c 1BBA4EE3 		movt	fp, 59931
 910 00a0 7F3F02E5 		str	r3, [r2, #-3967]
 911 00a4 3BAA4EE3 		movt	r10, 59963
 912 00a8 773F02E5 		str	r3, [r2, #-3959]
 913 00ac DF3F02E5 		str	r3, [r2, #-4063]
 914 00b0 D73F02E5 		str	r3, [r2, #-4055]
 915 00b4 CF3F02E5 		str	r3, [r2, #-4047]
 916 00b8 C73F02E5 		str	r3, [r2, #-4039]
 917 00bc BF3F02E5 		str	r3, [r2, #-4031]
 918 00c0 B73F02E5 		str	r3, [r2, #-4023]
 919 00c4 0F9F02E5 		str	r9, [r2, #-3855]
 920 00c8 183588E5 		str	r3, [r8, #1304]
 921 00cc E73A07E5 		str	r3, [r7, #-2791]
 922 00d0 E73A06E5 		str	r3, [r6, #-2791]
 923 00d4 E73A05E5 		str	r3, [r5, #-2791]
 924 00d8 E73A04E5 		str	r3, [r4, #-2791]
 925 00dc E73A0EE5 		str	r3, [lr, #-2791]
 926 00e0 100588E5 		str	r0, [r8, #1296]
 927 00e4 EF0A07E5 		str	r0, [r7, #-2799]
 928 00e8 EF0A06E5 		str	r0, [r6, #-2799]
 929 00ec EF0A05E5 		str	r0, [r5, #-2799]
 930 00f0 EF0A04E5 		str	r0, [r4, #-2799]
 931 00f4 EF0A0EE5 		str	r0, [lr, #-2799]
 932 00f8 FF0F00E3 		movw	r0, #4095
 933 00fc 081588E5 		str	r1, [r8, #1288]
 934 0100 7B0A4EE3 		movt	r0, 60027
 935 0104 F71A07E5 		str	r1, [r7, #-2807]
 936 0108 0370A0E1 		mov	r7, r3
 937 010c F71A06E5 		str	r1, [r6, #-2807]
 938 0110 9B7A4EE3 		movt	r7, 60059
 939 0114 F71A05E5 		str	r1, [r5, #-2807]
 940 0118 FF5F00E3 		movw	r5, #4095
 941 011c F71A04E5 		str	r1, [r4, #-2807]
 942 0120 BB5A4EE3 		movt	r5, 60091
 943 0124 F71A0EE5 		str	r1, [lr, #-2807]
 944 0128 FF4300E3 		movw	r4, #1023
 945 012c 079F02E5 		str	r9, [r2, #-3847]
 946 0130 006000E3 		movw	r6, #:lower16:.LANCHOR0
 947 0134 04909DE5 		ldr	r9, [sp, #4]
 948 0138 00E000E3 		movw	lr, #:lower16:.LANCHOR1
 949 013c 008000E3 		movw	r8, #:lower16:.LANCHOR2
 950 0140 70108BE5 		str	r1, [fp, #112]
 951 0144 FF4140E3 		movt	r4, 511
 952 0148 70108AE5 		str	r1, [r10, #112]
 953 014c 006040E3 		movt	r6, #:upper16:.LANCHOR0
 954 0150 701089E5 		str	r1, [r9, #112]
 955 0154 00E040E3 		movt	lr, #:upper16:.LANCHOR1
 956 0158 8F1F00E5 		str	r1, [r0, #-3983]
 957 015c 008040E3 		movt	r8, #:upper16:.LANCHOR2
 958 0160 701087E5 		str	r1, [r7, #112]
 959 0164 8F1F05E5 		str	r1, [r5, #-3983]
 960 0168 3F10A0E3 		mov	r1, #63
 961 016c FF370CE5 		str	r3, [ip, #-2047]
 962 0170 EF470CE5 		str	r4, [ip, #-2031]
 963 0174 0F1F02E5 		str	r1, [r2, #-3855]
 964 0178 0030C6E5 		strb	r3, [r6]
 965 017c 0030CEE5 		strb	r3, [lr]
 966 0180 003088E5 		str	r3, [r8]
 967 0184 0CD08DE2 		add	sp, sp, #12
 968              		@ sp needed
 969 0188 F08FBDE8 		pop	{r4, r5, r6, r7, r8, r9, r10, fp, pc}
 971              		.section	.text.R_DK2_CORE_PreLoad,"ax",%progbits
 972              		.align	2
 973              		.global	R_DK2_CORE_PreLoad
 974              		.syntax unified
 975              		.arm
 976              		.fpu neon
 978              	R_DK2_CORE_PreLoad:
 979              		@ args = 20, pretend = 0, frame = 40
 980              		@ frame_needed = 0, uses_anonymous_args = 0
 981 0000 11CF6FE1 		clz	ip, r1
 982 0004 F04F2DE9 		push	{r4, r5, r6, r7, r8, r9, r10, fp, lr}
 983 0008 ACC2A0E1 		lsr	ip, ip, #5
 984 000c 01E040E2 		sub	lr, r0, #1
 985 0010 2CD04DE2 		sub	sp, sp, #44
 986 0014 05005EE3 		cmp	lr, #5
 987 0018 01C08C83 		orrhi	ip, ip, #1
 988 001c 5040DDE5 		ldrb	r4, [sp, #80]	@ zero_extendqisi2
 989 0020 00005CE3 		cmp	ip, #0
 990 0024 B4E5DDE1 		ldrh	lr, [sp, #84]
 991 0028 B875DDE1 		ldrh	r7, [sp, #88]
 992 002c 5C609DE5 		ldr	r6, [sp, #92]
 993 0030 6701001A 		bne	.L332
 994 0034 C00011E3 		tst	r1, #192
 995 0038 01C0A013 		movne	ip, #1
 996 003c 00C0A003 		moveq	ip, #0
 997 0040 000052E3 		cmp	r2, #0
 998 0044 01C08C03 		orreq	ip, ip, #1
 999 0048 00005CE3 		cmp	ip, #0
 1000 004c 6001001A 		bne	.L332
 1001 0050 1F0012E3 		tst	r2, #31
 1002 0054 5E01001A 		bne	.L332
 1003 0058 FECF0FE3 		movw	ip, #65534
 1004 005c 015043E2 		sub	r5, r3, #1
 1005 0060 0FC040E3 		movt	ip, 15
 1006 0064 0C0055E1 		cmp	r5, ip
 1007 0068 5901008A 		bhi	.L332
 1008 006c 070013E3 		tst	r3, #7
 1009 0070 5701001A 		bne	.L332
 1010 0074 010C57E3 		cmp	r7, #256
 1011 0078 40005E93 		cmpls	lr, #64
 1012 007c 01C0A083 		movhi	ip, #1
 1013 0080 00C0A093 		movls	ip, #0
 1014 0084 000056E3 		cmp	r6, #0
 1015 0088 01C08C03 		orreq	ip, ip, #1
 1016 008c 00005CE3 		cmp	ip, #0
 1017 0090 4F01001A 		bne	.L332
 1018 0094 0F0016E3 		tst	r6, #15
 1019 0098 4D01001A 		bne	.L332
 1020 009c 010050E3 		cmp	r0, #1
 1021 00a0 DE0100DA 		ble	.L333
 1022 00a4 020050E3 		cmp	r0, #2
 1023 00a8 510100DA 		ble	.L334
 1024 00ac 030050E3 		cmp	r0, #3
 1025 00b0 E20100DA 		ble	.L335
 1026 00b4 040050E3 		cmp	r0, #4
 1027 00b8 DD0100DA 		ble	.L336
 1028 00bc 050050E3 		cmp	r0, #5
 1029 00c0 3F00A0C3 		movgt	r0, #63
 1030 00c4 1F00A0D3 		movle	r0, #31
 1031 00c8 1C008DE5 		str	r0, [sp, #28]
 1032              	.L267:
 1033 00cc 010011E2 		ands	r0, r1, #1
 1034 00d0 0F00000A 		beq	.L458
 1035 00d4 020011E3 		tst	r1, #2
 1036 00d8 4001000A 		beq	.L338
 1037 00dc 1C009DE5 		ldr	r0, [sp, #28]
 1038 00e0 8050A0E1 		lsl	r5, r0, #1
 1039 00e4 050010E1 		tst	r0, r5
 1040 00e8 0700001A 		bne	.L343
 1041              	.L319:
 1042 00ec 050080E1 		orr	r0, r0, r5
 1043 00f0 7050EFE6 		uxtb	r5, r0
 1044              	.L268:
 1045 00f4 040011E3 		tst	r1, #4
 1046 00f8 1000000A 		beq	.L269
 1047 00fc 1C009DE5 		ldr	r0, [sp, #28]
 1048 0100 0001A0E1 		lsl	r0, r0, #2
 1049 0104 000015E1 		tst	r5, r0
 1050 0108 0A00000A 		beq	.L324
 1051              	.L343:
 1052 010c 0600E0E3 		mvn	r0, #6
 1053 0110 300100EA 		b	.L265
 1054              	.L458:
 1055 0114 D1C0E0E7 		ubfx	ip, r1, #1, #1
 1056 0118 00005CE3 		cmp	ip, #0
 1057 011c 3101001A 		bne	.L320
 1058 0120 5151E0E7 		ubfx	r5, r1, #2, #1
 1059 0124 000055E3 		cmp	r5, #0
 1060 0128 0400000A 		beq	.L269
 1061 012c 1C009DE5 		ldr	r0, [sp, #28]
 1062 0130 0C50A0E1 		mov	r5, ip
 1063 0134 0001A0E1 		lsl	r0, r0, #2
 1064              	.L324:
 1065 0138 005085E1 		orr	r5, r5, r0
 1066 013c 7550EFE6 		uxtb	r5, r5
 1067              	.L269:
 1068 0140 080011E3 		tst	r1, #8
 1069 0144 0500000A 		beq	.L270
 1070 0148 1C009DE5 		ldr	r0, [sp, #28]
 1071 014c 8001A0E1 		lsl	r0, r0, #3
 1072 0150 000015E1 		tst	r5, r0
 1073 0154 ECFFFF1A 		bne	.L343
 1074 0158 005085E1 		orr	r5, r5, r0
 1075 015c 7550EFE6 		uxtb	r5, r5
 1076              	.L270:
 1077 0160 100011E3 		tst	r1, #16
 1078 0164 0500000A 		beq	.L271
 1079 0168 1C009DE5 		ldr	r0, [sp, #28]
 1080 016c 0002A0E1 		lsl	r0, r0, #4
 1081 0170 000015E1 		tst	r5, r0
 1082 0174 E4FFFF1A 		bne	.L343
 1083 0178 005085E1 		orr	r5, r5, r0
 1084 017c 7550EFE6 		uxtb	r5, r5
 1085              	.L271:
 1086 0180 A112B0E1 		lsrs	r1, r1, #5
 1087 0184 0500000A 		beq	.L272
 1088 0188 1C109DE5 		ldr	r1, [sp, #28]
 1089 018c 8112A0E1 		lsl	r1, r1, #5
 1090 0190 010015E1 		tst	r5, r1
 1091 0194 DCFFFF1A 		bne	.L343
 1092 0198 015085E1 		orr	r5, r5, r1
 1093 019c 7550EFE6 		uxtb	r5, r5
 1094              	.L272:
 1095 01a0 00005EE3 		cmp	lr, #0
 1096 01a4 40E0A003 		moveq	lr, #64
 1097 01a8 000057E3 		cmp	r7, #0
 1098 01ac 0710A011 		movne	r1, r7
 1099 01b0 011CA003 		moveq	r1, #256
 1100 01b4 000054E3 		cmp	r4, #0
 1101 01b8 24108DE5 		str	r1, [sp, #36]
 1102 01bc 0F01001A 		bne	.L275
 1103 01c0 011005E2 		and	r1, r5, #1
 1104 01c4 18108DE5 		str	r1, [sp, #24]
 1105 01c8 021005E2 		and	r1, r5, #2
 1106 01cc 04108DE5 		str	r1, [sp, #4]
 1107 01d0 041005E2 		and	r1, r5, #4
 1108 01d4 08108DE5 		str	r1, [sp, #8]
 1109 01d8 081005E2 		and	r1, r5, #8
 1110 01dc 10108DE5 		str	r1, [sp, #16]
 1111 01e0 101005E2 		and	r1, r5, #16
 1112 01e4 0C108DE5 		str	r1, [sp, #12]
 1113 01e8 201005E2 		and	r1, r5, #32
 1114 01ec 14108DE5 		str	r1, [sp, #20]
 1115              	.L276:
 1116 01f0 18109DE5 		ldr	r1, [sp, #24]
 1117 01f4 000051E3 		cmp	r1, #0
 1118 01f8 FF1F0413 		movwne	r1, #20479
 1119 01fc 0000A013 		movne	r0, #0
 1120 0200 FD1A4E13 		movtne	r1, 60157
 1121 0204 9F0F0115 		strne	r0, [r1, #-3999]
 1122 0208 04109DE5 		ldr	r1, [sp, #4]
 1123 020c 000051E3 		cmp	r1, #0
 1124 0210 FF1F0413 		movwne	r1, #20479
 1125 0214 0000A013 		movne	r0, #0
 1126 0218 FD1A4E13 		movtne	r1, 60157
 1127 021c 970F0115 		strne	r0, [r1, #-3991]
 1128 0220 08109DE5 		ldr	r1, [sp, #8]
 1129 0224 000051E3 		cmp	r1, #0
 1130 0228 FF1F0413 		movwne	r1, #20479
 1131 022c 0000A013 		movne	r0, #0
 1132 0230 FD1A4E13 		movtne	r1, 60157
 1133 0234 8F0F0115 		strne	r0, [r1, #-3983]
 1134 0238 10109DE5 		ldr	r1, [sp, #16]
 1135 023c 000051E3 		cmp	r1, #0
 1136 0240 FF1F0413 		movwne	r1, #20479
 1137 0244 0000A013 		movne	r0, #0
 1138 0248 FD1A4E13 		movtne	r1, 60157
 1139 024c 870F0115 		strne	r0, [r1, #-3975]
 1140 0250 0C109DE5 		ldr	r1, [sp, #12]
 1141 0254 000051E3 		cmp	r1, #0
 1142 0258 FF1F0413 		movwne	r1, #20479
 1143 025c 0000A013 		movne	r0, #0
 1144 0260 FD1A4E13 		movtne	r1, 60157
 1145 0264 7F0F0115 		strne	r0, [r1, #-3967]
 1146 0268 14109DE5 		ldr	r1, [sp, #20]
 1147 026c 000051E3 		cmp	r1, #0
 1148 0270 FF1F0413 		movwne	r1, #20479
 1149 0274 0000A013 		movne	r0, #0
 1150 0278 FD1A4E13 		movtne	r1, 60157
 1151 027c 770F0115 		strne	r0, [r1, #-3959]
 1152 0280 18109DE5 		ldr	r1, [sp, #24]
 1153 0284 000051E3 		cmp	r1, #0
 1154 0288 FF1F0413 		movwne	r1, #20479
 1155 028c 0000A013 		movne	r0, #0
 1156 0290 FD1A4E13 		movtne	r1, 60157
 1157 0294 DF0F0115 		strne	r0, [r1, #-4063]
 1158 0298 04109DE5 		ldr	r1, [sp, #4]
 1159 029c 000051E3 		cmp	r1, #0
 1160 02a0 FF1F0413 		movwne	r1, #20479
 1161 02a4 0000A013 		movne	r0, #0
 1162 02a8 FD1A4E13 		movtne	r1, 60157
 1163 02ac D70F0115 		strne	r0, [r1, #-4055]
 1164 02b0 08109DE5 		ldr	r1, [sp, #8]
 1165 02b4 000051E3 		cmp	r1, #0
 1166 02b8 FF1F0413 		movwne	r1, #20479
 1167 02bc 0000A013 		movne	r0, #0
 1168 02c0 FD1A4E13 		movtne	r1, 60157
 1169 02c4 CF0F0115 		strne	r0, [r1, #-4047]
 1170 02c8 10109DE5 		ldr	r1, [sp, #16]
 1171 02cc 000051E3 		cmp	r1, #0
 1172 02d0 FF1F0413 		movwne	r1, #20479
 1173 02d4 0000A013 		movne	r0, #0
 1174 02d8 FD1A4E13 		movtne	r1, 60157
 1175 02dc C70F0115 		strne	r0, [r1, #-4039]
 1176 02e0 0C109DE5 		ldr	r1, [sp, #12]
 1177 02e4 000051E3 		cmp	r1, #0
 1178 02e8 FF1F0413 		movwne	r1, #20479
 1179 02ec 0000A013 		movne	r0, #0
 1180 02f0 FD1A4E13 		movtne	r1, 60157
 1181 02f4 BF0F0115 		strne	r0, [r1, #-4031]
 1182 02f8 14109DE5 		ldr	r1, [sp, #20]
 1183 02fc 000051E3 		cmp	r1, #0
 1184 0300 FF1F0413 		movwne	r1, #20479
 1185 0304 0000A013 		movne	r0, #0
 1186 0308 FD1A4E13 		movtne	r1, 60157
 1187 030c B70F0115 		strne	r0, [r1, #-4023]
 1188 0310 FF0F04E3 		movw	r0, #20479
 1189 0314 18109DE5 		ldr	r1, [sp, #24]
 1190 0318 FD0A4EE3 		movt	r0, 60157
 1191 031c 000051E3 		cmp	r1, #0
 1192 0320 0F1F10E5 		ldr	r1, [r0, #-3855]
 1193 0324 C010C1E3 		bic	r1, r1, #192
 1194 0328 051081E1 		orr	r1, r1, r5
 1195 032c 0F1F00E5 		str	r1, [r0, #-3855]
 1196 0330 0500000A 		beq	.L301
 1197 0334 021AA0E3 		mov	r1, #8192
 1198 0338 00C0A0E3 		mov	ip, #0
 1199 033c 1D1A4EE3 		movt	r1, 59933
 1200 0340 0300A0E3 		mov	r0, #3
 1201 0344 18C581E5 		str	ip, [r1, #1304]
 1202 0348 100581E5 		str	r0, [r1, #1296]
 1203              	.L301:
 1204 034c 04109DE5 		ldr	r1, [sp, #4]
 1205 0350 000051E3 		cmp	r1, #0
 1206 0354 0500000A 		beq	.L302
 1207 0358 FF1F02E3 		movw	r1, #12287
 1208 035c 00C0A0E3 		mov	ip, #0
 1209 0360 3D1A4EE3 		movt	r1, 59965
 1210 0364 0300A0E3 		mov	r0, #3
 1211 0368 E7CA01E5 		str	ip, [r1, #-2791]
 1212 036c EF0A01E5 		str	r0, [r1, #-2799]
 1213              	.L302:
 1214 0370 08109DE5 		ldr	r1, [sp, #8]
 1215 0374 000051E3 		cmp	r1, #0
 1216 0378 0500000A 		beq	.L303
 1217 037c FF1F02E3 		movw	r1, #12287
 1218 0380 00C0A0E3 		mov	ip, #0
 1219 0384 5D1A4EE3 		movt	r1, 59997
 1220 0388 0300A0E3 		mov	r0, #3
 1221 038c E7CA01E5 		str	ip, [r1, #-2791]
 1222 0390 EF0A01E5 		str	r0, [r1, #-2799]
 1223              	.L303:
 1224 0394 10109DE5 		ldr	r1, [sp, #16]
 1225 0398 000051E3 		cmp	r1, #0
 1226 039c 0500000A 		beq	.L304
 1227 03a0 FF1F02E3 		movw	r1, #12287
 1228 03a4 00C0A0E3 		mov	ip, #0
 1229 03a8 7D1A4EE3 		movt	r1, 60029
 1230 03ac 0300A0E3 		mov	r0, #3
 1231 03b0 E7CA01E5 		str	ip, [r1, #-2791]
 1232 03b4 EF0A01E5 		str	r0, [r1, #-2799]
 1233              	.L304:
 1234 03b8 0C109DE5 		ldr	r1, [sp, #12]
 1235 03bc 000051E3 		cmp	r1, #0
 1236 03c0 0500000A 		beq	.L305
 1237 03c4 FF1F02E3 		movw	r1, #12287
 1238 03c8 00C0A0E3 		mov	ip, #0
 1239 03cc 9D1A4EE3 		movt	r1, 60061
 1240 03d0 0300A0E3 		mov	r0, #3
 1241 03d4 E7CA01E5 		str	ip, [r1, #-2791]
 1242 03d8 EF0A01E5 		str	r0, [r1, #-2799]
 1243              	.L305:
 1244 03dc 14109DE5 		ldr	r1, [sp, #20]
 1245 03e0 000051E3 		cmp	r1, #0
 1246 03e4 0500000A 		beq	.L306
 1247 03e8 FF1F02E3 		movw	r1, #12287
 1248 03ec 00C0A0E3 		mov	ip, #0
 1249 03f0 BD1A4EE3 		movt	r1, 60093
 1250 03f4 0300A0E3 		mov	r0, #3
 1251 03f8 E7CA01E5 		str	ip, [r1, #-2791]
 1252 03fc EF0A01E5 		str	r0, [r1, #-2799]
 1253              	.L306:
 1254 0400 18109DE5 		ldr	r1, [sp, #24]
 1255 0404 2244A0E1 		lsr	r4, r2, #8
 1256 0408 60C09DE5 		ldr	ip, [sp, #96]
 1257 040c 22E8A0E1 		lsr	lr, r2, #16
 1258 0410 227CA0E1 		lsr	r7, r2, #24
 1259 0414 1F20C2E3 		bic	r2, r2, #31
 1260 0418 000051E3 		cmp	r1, #0
 1261 041c 021AA013 		movne	r1, #8192
 1262 0420 0100A013 		movne	r0, #1
 1263 0424 1D1A4E13 		movtne	r1, 59933
 1264 0428 08058115 		strne	r0, [r1, #1288]
 1265 042c 04109DE5 		ldr	r1, [sp, #4]
 1266 0430 000051E3 		cmp	r1, #0
 1267 0434 FF1F0213 		movwne	r1, #12287
 1268 0438 0100A013 		movne	r0, #1
 1269 043c 3D1A4E13 		movtne	r1, 59965
 1270 0440 F70A0115 		strne	r0, [r1, #-2807]
 1271 0444 08109DE5 		ldr	r1, [sp, #8]
 1272 0448 000051E3 		cmp	r1, #0
 1273 044c FF1F0213 		movwne	r1, #12287
 1274 0450 0100A013 		movne	r0, #1
 1275 0454 5D1A4E13 		movtne	r1, 59997
 1276 0458 F70A0115 		strne	r0, [r1, #-2807]
 1277 045c 10109DE5 		ldr	r1, [sp, #16]
 1278 0460 000051E3 		cmp	r1, #0
 1279 0464 FF1F0213 		movwne	r1, #12287
 1280 0468 0100A013 		movne	r0, #1
 1281 046c 7D1A4E13 		movtne	r1, 60029
 1282 0470 F70A0115 		strne	r0, [r1, #-2807]
 1283 0474 0C109DE5 		ldr	r1, [sp, #12]
 1284 0478 000051E3 		cmp	r1, #0
 1285 047c FF1F0213 		movwne	r1, #12287
 1286 0480 0100A013 		movne	r0, #1
 1287 0484 9D1A4E13 		movtne	r1, 60061
 1288 0488 F70A0115 		strne	r0, [r1, #-2807]
 1289 048c 14109DE5 		ldr	r1, [sp, #20]
 1290 0490 000051E3 		cmp	r1, #0
 1291 0494 FF1F0213 		movwne	r1, #12287
 1292 0498 0100A013 		movne	r0, #1
 1293 049c BD1A4E13 		movtne	r1, 60093
 1294 04a0 F70A0115 		strne	r0, [r1, #-2807]
 1295 04a4 18109DE5 		ldr	r1, [sp, #24]
 1296 04a8 000051E3 		cmp	r1, #0
 1297 04ac FF1F04E3 		movw	r1, #20479
 1298 04b0 FD1A4EE3 		movt	r1, 60157
 1299 04b4 0100A013 		movne	r0, #1
 1300 04b8 075F01E5 		str	r5, [r1, #-3847]
 1301 04bc 0010A013 		movne	r1, #0
 1302 04c0 1B1A4E13 		movtne	r1, 59931
 1303 04c4 055885E1 		orr	r5, r5, r5, lsl #16
 1304 04c8 70008115 		strne	r0, [r1, #112]
 1305 04cc 04109DE5 		ldr	r1, [sp, #4]
 1306 04d0 000051E3 		cmp	r1, #0
 1307 04d4 0010A013 		movne	r1, #0
 1308 04d8 0100A013 		movne	r0, #1
 1309 04dc 3B1A4E13 		movtne	r1, 59963
 1310 04e0 70008115 		strne	r0, [r1, #112]
 1311 04e4 08109DE5 		ldr	r1, [sp, #8]
 1312 04e8 000051E3 		cmp	r1, #0
 1313 04ec 0010A013 		movne	r1, #0
 1314 04f0 0100A013 		movne	r0, #1
 1315 04f4 5B1A4E13 		movtne	r1, 59995
 1316 04f8 70008115 		strne	r0, [r1, #112]
 1317 04fc 10109DE5 		ldr	r1, [sp, #16]
 1318 0500 000051E3 		cmp	r1, #0
 1319 0504 FF1F0013 		movwne	r1, #4095
 1320 0508 0100A013 		movne	r0, #1
 1321 050c 7B1A4E13 		movtne	r1, 60027
 1322 0510 8F0F0115 		strne	r0, [r1, #-3983]
 1323 0514 0C109DE5 		ldr	r1, [sp, #12]
 1324 0518 000051E3 		cmp	r1, #0
 1325 051c 0010A013 		movne	r1, #0
 1326 0520 0100A013 		movne	r0, #1
 1327 0524 9B1A4E13 		movtne	r1, 60059
 1328 0528 70008115 		strne	r0, [r1, #112]
 1329 052c 14109DE5 		ldr	r1, [sp, #20]
 1330 0530 000051E3 		cmp	r1, #0
 1331 0534 FF1F0013 		movwne	r1, #4095
 1332 0538 0100A013 		movne	r0, #1
 1333 053c BB1A4E13 		movtne	r1, 60091
 1334 0540 8F0F0115 		strne	r0, [r1, #-3983]
 1335 0544 FF1F0DE3 		movw	r1, #57343
 1336 0548 FF1A4EE3 		movt	r1, 60159
 1337 054c 00005CE3 		cmp	ip, #0
 1338 0550 FF0711E5 		ldr	r0, [r1, #-2047]
 1339 0554 23C4A0E1 		lsr	ip, r3, #8
 1340 0558 0500C0E1 		bic	r0, r0, r5
 1341 055c FF0701E5 		str	r0, [r1, #-2047]
 1342 0560 EF0711E5 		ldr	r0, [r1, #-2031]
 1343 0564 005085E1 		orr	r5, r5, r0
 1344 0568 0000A0E3 		mov	r0, #0
 1345 056c EF5701E5 		str	r5, [r1, #-2031]
 1346 0570 2358A0E1 		lsr	r5, r3, #16
 1347 0574 1310A0E3 		mov	r1, #19
 1348 0578 0540C6E5 		strb	r4, [r6, #5]
 1349 057c 0730C3E3 		bic	r3, r3, #7
 1350 0580 06E0C6E5 		strb	lr, [r6, #6]
 1351 0584 0770C6E5 		strb	r7, [r6, #7]
 1352 0588 0420C6E5 		strb	r2, [r6, #4]
 1353 058c 09C0C6E5 		strb	ip, [r6, #9]
 1354 0590 0A50C6E5 		strb	r5, [r6, #10]
 1355 0594 0830C6E5 		strb	r3, [r6, #8]
 1356 0598 0000C6E5 		strb	r0, [r6]
 1357 059c 0100C6E5 		strb	r0, [r6, #1]
 1358 05a0 0200C6E5 		strb	r0, [r6, #2]
 1359 05a4 0B00C6E5 		strb	r0, [r6, #11]
 1360 05a8 0C00C6E5 		strb	r0, [r6, #12]
 1361 05ac 0D00C6E5 		strb	r0, [r6, #13]
 1362 05b0 0E00C6E5 		strb	r0, [r6, #14]
 1363 05b4 0F00C6E5 		strb	r0, [r6, #15]
 1364 05b8 0310C6E5 		strb	r1, [r6, #3]
 1365 05bc 9A00000A 		beq	.L347
 1366 05c0 60309DE5 		ldr	r3, [sp, #96]
 1367 05c4 1C20DDE5 		ldrb	r2, [sp, #28]	@ zero_extendqisi2
 1368 05c8 0020C3E5 		strb	r2, [r3]
 1369 05cc 2CD08DE2 		add	sp, sp, #44
 1370              		@ sp needed
 1371 05d0 F08FBDE8 		pop	{r4, r5, r6, r7, r8, r9, r10, fp, pc}
 1372              	.L332:
 1373 05d4 0000E0E3 		mvn	r0, #0
 1374              	.L265:
 1375 05d8 2CD08DE2 		add	sp, sp, #44
 1376              		@ sp needed
 1377 05dc F08FBDE8 		pop	{r4, r5, r6, r7, r8, r9, r10, fp, pc}
 1378              	.L338:
 1379 05e0 1C509DE5 		ldr	r5, [sp, #28]
 1380 05e4 C2FEFFEA 		b	.L268
 1381              	.L320:
 1382 05e8 1CC09DE5 		ldr	ip, [sp, #28]
 1383 05ec 8C50A0E1 		lsl	r5, ip, #1
 1384 05f0 BDFEFFEA 		b	.L319
 1385              	.L334:
 1386 05f4 0300A0E3 		mov	r0, #3
 1387 05f8 1C008DE5 		str	r0, [sp, #28]
 1388 05fc B2FEFFEA 		b	.L267
 1389              	.L275:
 1390 0600 050DE0E1 		mvn	r0, r5, lsl #26
 1391 0604 FF1F06E3 		movw	r1, #28671
 1392 0608 01C015E2 		ands	ip, r5, #1
 1393 060c 200DE0E1 		mvn	r0, r0, lsr #26
 1394 0610 FD1A4EE3 		movt	r1, 60157
 1395 0614 18C08DE5 		str	ip, [sp, #24]
 1396 0618 7000EFE6 		uxtb	r0, r0
 1397 061c FF0F01E5 		str	r0, [r1, #-4095]
 1398 0620 4E00000A 		beq	.L277
 1399 0624 7604A0E3 		mov	r0, #1979711488
 1400 0628 0090A0E3 		mov	r9, #0
 1401 062c FB0F01E5 		str	r0, [r1, #-4091]
 1402 0630 021005E2 		and	r1, r5, #2
 1403 0634 04108DE5 		str	r1, [sp, #4]
 1404 0638 041005E2 		and	r1, r5, #4
 1405 063c 09B0A0E1 		mov	fp, r9
 1406 0640 0980A0E1 		mov	r8, r9
 1407 0644 10A0A0E3 		mov	r10, #16
 1408 0648 08108DE5 		str	r1, [sp, #8]
 1409 064c 081005E2 		and	r1, r5, #8
 1410 0650 08C0A0E3 		mov	ip, #8
 1411 0654 10108DE5 		str	r1, [sp, #16]
 1412 0658 029A4EE3 		movt	r9, 59906
 1413 065c 101005E2 		and	r1, r5, #16
 1414 0660 01BA4EE3 		movt	fp, 59905
 1415 0664 1BAA4EE3 		movt	r10, 59931
 1416 0668 098A4EE3 		movt	r8, 59913
 1417 066c EA74A0E3 		mov	r7, #-369098752
 1418 0670 01CA4EE3 		movt	ip, 59905
 1419 0674 0C108DE5 		str	r1, [sp, #12]
 1420 0678 201005E2 		and	r1, r5, #32
 1421 067c 20C08DE5 		str	ip, [sp, #32]
 1422 0680 14108DE5 		str	r1, [sp, #20]
 1423              	.L278:
 1424 0684 8EE2A0E1 		lsl	lr, lr, #5
 1425 0688 1000C0F2 		vmov.i32	d16, #0  @ di
 1426 068c 0040A0E3 		mov	r4, #0
 1427 0690 0910A0E3 		mov	r1, #9
 1428 0694 00108AE5 		str	r1, [r10]
 1429              	.L283:
 1430 0698 04C087E1 		orr	ip, r7, r4
 1431 069c 0010A0E3 		mov	r1, #0
 1432              	.L284:
 1433 06a0 01008CE1 		orr	r0, ip, r1
 1434 06a4 201081E2 		add	r1, r1, #32
 1435 06a8 01005EE1 		cmp	lr, r1
 1436 06ac 000BC0ED 		vstr.64	d16, [r0]	@ int
 1437 06b0 FAFFFF1A 		bne	.L284
 1438 06b4 024B84E2 		add	r4, r4, #2048
 1439 06b8 010854E3 		cmp	r4, #65536
 1440 06bc F5FFFF1A 		bne	.L283
 1441 06c0 20109DE5 		ldr	r1, [sp, #32]
 1442 06c4 800089E3 		orr	r0, r9, #128
 1443 06c8 000BCBED 		vstr.64	d16, [fp]	@ int
 1444 06cc 01CC89E3 		orr	ip, r9, #256
 1445 06d0 06ED89E3 		orr	lr, r9, #384
 1446 06d4 1010C0F2 		vmov.i32	d17, #0  @ di
 1447 06d8 000BC1ED 		vstr.64	d16, [r1]	@ int
 1448 06dc 24109DE5 		ldr	r1, [sp, #36]
 1449 06e0 000BC9ED 		vstr.64	d16, [r9]	@ int
 1450 06e4 000BC0ED 		vstr.64	d16, [r0]	@ int
 1451 06e8 020C89E3 		orr	r0, r9, #512
 1452 06ec 000BCCED 		vstr.64	d16, [ip]	@ int
 1453 06f0 0ACD89E3 		orr	ip, r9, #640
 1454 06f4 8111A0E1 		lsl	r1, r1, #3
 1455 06f8 000BCEED 		vstr.64	d16, [lr]	@ int
 1456 06fc 00E0A0E3 		mov	lr, #0
 1457 0700 000BC0ED 		vstr.64	d16, [r0]	@ int
 1458 0704 039C89E3 		orr	r9, r9, #768
 1459 0708 000BCCED 		vstr.64	d16, [ip]	@ int
 1460 070c 000BC9ED 		vstr.64	d16, [r9]	@ int
 1461              	.L286:
 1462 0710 0E4088E1 		orr	r4, r8, lr
 1463 0714 0000A0E3 		mov	r0, #0
 1464              	.L287:
 1465 0718 00C084E1 		orr	ip, r4, r0
 1466 071c 080080E2 		add	r0, r0, #8
 1467 0720 010050E1 		cmp	r0, r1
 1468 0724 001BCCED 		vstr.64	d17, [ip]	@ int
 1469 0728 FAFFFF1A 		bne	.L287
 1470 072c 02EB8EE2 		add	lr, lr, #2048
 1471 0730 03095EE3 		cmp	lr, #49152
 1472 0734 F5FFFF1A 		bne	.L286
 1473 0738 00C0A0E3 		mov	ip, #0
 1474 073c FF1F06E3 		movw	r1, #28671
 1475 0740 100203E3 		movw	r0, #12816
 1476 0744 00C08AE5 		str	ip, [r10]
 1477 0748 FD1A4EE3 		movt	r1, 60157
 1478 074c 540647E3 		movt	r0, 30292
 1479 0750 FFC0A0E3 		mov	ip, #255
 1480 0754 FFCF01E5 		str	ip, [r1, #-4095]
 1481 0758 FB0F01E5 		str	r0, [r1, #-4091]
 1482 075c A3FEFFEA 		b	.L276
 1483              	.L277:
 1484 0760 020015E2 		ands	r0, r5, #2
 1485 0764 04008DE5 		str	r0, [sp, #4]
 1486 0768 1800000A 		beq	.L279
 1487 076c 0090A0E3 		mov	r9, #0
 1488 0770 100101E3 		movw	r0, #4368
 1489 0774 0970A0E1 		mov	r7, r9
 1490 0778 09B0A0E1 		mov	fp, r9
 1491 077c 0980A0E1 		mov	r8, r9
 1492 0780 10A0A0E3 		mov	r10, #16
 1493 0784 110647E3 		movt	r0, 30225
 1494 0788 08C0A0E3 		mov	ip, #8
 1495 078c 229A4EE3 		movt	r9, 59938
 1496 0790 207A4EE3 		movt	r7, 59936
 1497 0794 21BA4EE3 		movt	fp, 59937
 1498 0798 3BAA4EE3 		movt	r10, 59963
 1499 079c 298A4EE3 		movt	r8, 59945
 1500 07a0 FB0F01E5 		str	r0, [r1, #-4091]
 1501 07a4 21CA4EE3 		movt	ip, 59937
 1502 07a8 041005E2 		and	r1, r5, #4
 1503 07ac 20C08DE5 		str	ip, [sp, #32]
 1504 07b0 08108DE5 		str	r1, [sp, #8]
 1505              	.L455:
 1506 07b4 081005E2 		and	r1, r5, #8
 1507 07b8 10108DE5 		str	r1, [sp, #16]
 1508 07bc 101005E2 		and	r1, r5, #16
 1509 07c0 0C108DE5 		str	r1, [sp, #12]
 1510 07c4 201005E2 		and	r1, r5, #32
 1511 07c8 14108DE5 		str	r1, [sp, #20]
 1512 07cc ACFFFFEA 		b	.L278
 1513              	.L279:
 1514 07d0 040015E2 		ands	r0, r5, #4
 1515 07d4 08008DE5 		str	r0, [sp, #8]
 1516 07d8 1B00000A 		beq	.L280
 1517 07dc 0090A0E3 		mov	r9, #0
 1518 07e0 100202E3 		movw	r0, #8720
 1519 07e4 08C0A0E3 		mov	ip, #8
 1520 07e8 0970A0E1 		mov	r7, r9
 1521 07ec 09B0A0E1 		mov	fp, r9
 1522 07f0 0980A0E1 		mov	r8, r9
 1523 07f4 220647E3 		movt	r0, 30242
 1524 07f8 10A0A0E3 		mov	r10, #16
 1525 07fc 41CA4EE3 		movt	ip, 59969
 1526 0800 FB0F01E5 		str	r0, [r1, #-4091]
 1527 0804 429A4EE3 		movt	r9, 59970
 1528 0808 407A4EE3 		movt	r7, 59968
 1529 080c 20C08DE5 		str	ip, [sp, #32]
 1530 0810 41BA4EE3 		movt	fp, 59969
 1531 0814 5BAA4EE3 		movt	r10, 59995
 1532 0818 498A4EE3 		movt	r8, 59977
 1533 081c E4FFFFEA 		b	.L455
 1534              	.L333:
 1535 0820 0100A0E3 		mov	r0, #1
 1536 0824 1C008DE5 		str	r0, [sp, #28]
 1537 0828 27FEFFEA 		b	.L267
 1538              	.L347:
 1539              	.L266:
 1540 082c 60009DE5 		ldr	r0, [sp, #96]
 1541 0830 68FFFFEA 		b	.L265
 1542              	.L336:
 1543 0834 0F00A0E3 		mov	r0, #15
 1544 0838 1C008DE5 		str	r0, [sp, #28]
 1545 083c 22FEFFEA 		b	.L267
 1546              	.L335:
 1547 0840 0700A0E3 		mov	r0, #7
 1548 0844 1C008DE5 		str	r0, [sp, #28]
 1549 0848 1FFEFFEA 		b	.L267
 1550              	.L280:
 1551 084c 080015E2 		ands	r0, r5, #8
 1552 0850 10008DE5 		str	r0, [sp, #16]
 1553 0854 1800001A 		bne	.L459
 1554 0858 100015E2 		ands	r0, r5, #16
 1555 085c 0C008DE5 		str	r0, [sp, #12]
 1556 0860 2C00000A 		beq	.L282
 1557 0864 100203E3 		movw	r0, #12816
 1558 0868 0090A0E3 		mov	r9, #0
 1559 086c 440647E3 		movt	r0, 30276
 1560 0870 08C0A0E3 		mov	ip, #8
 1561 0874 FB0F01E5 		str	r0, [r1, #-4091]
 1562 0878 201005E2 		and	r1, r5, #32
 1563 087c 0970A0E1 		mov	r7, r9
 1564 0880 09B0A0E1 		mov	fp, r9
 1565 0884 0980A0E1 		mov	r8, r9
 1566 0888 10A0A0E3 		mov	r10, #16
 1567 088c 81CA4EE3 		movt	ip, 60033
 1568 0890 14108DE5 		str	r1, [sp, #20]
 1569 0894 081015E2 		ands	r1, r5, #8
 1570 0898 829A4EE3 		movt	r9, 60034
 1571 089c 807A4EE3 		movt	r7, 60032
 1572 08a0 20C08DE5 		str	ip, [sp, #32]
 1573 08a4 81BA4EE3 		movt	fp, 60033
 1574 08a8 9BAA4EE3 		movt	r10, 60059
 1575 08ac 898A4EE3 		movt	r8, 60041
 1576 08b0 08108DE5 		str	r1, [sp, #8]
 1577 08b4 04108DE5 		str	r1, [sp, #4]
 1578 08b8 71FFFFEA 		b	.L278
 1579              	.L459:
 1580 08bc 100203E3 		movw	r0, #12816
 1581 08c0 0090A0E3 		mov	r9, #0
 1582 08c4 330647E3 		movt	r0, 30259
 1583 08c8 08C0A0E3 		mov	ip, #8
 1584 08cc FB0F01E5 		str	r0, [r1, #-4091]
 1585 08d0 101005E2 		and	r1, r5, #16
 1586 08d4 0C108DE5 		str	r1, [sp, #12]
 1587 08d8 201005E2 		and	r1, r5, #32
 1588 08dc 0970A0E1 		mov	r7, r9
 1589 08e0 09B0A0E1 		mov	fp, r9
 1590 08e4 0980A0E1 		mov	r8, r9
 1591 08e8 10A0A0E3 		mov	r10, #16
 1592 08ec 61CA4EE3 		movt	ip, 60001
 1593 08f0 14108DE5 		str	r1, [sp, #20]
 1594 08f4 041015E2 		ands	r1, r5, #4
 1595 08f8 629A4EE3 		movt	r9, 60002
 1596 08fc 607A4EE3 		movt	r7, 60000
 1597 0900 20C08DE5 		str	ip, [sp, #32]
 1598 0904 61BA4EE3 		movt	fp, 60001
 1599 0908 7BAA4EE3 		movt	r10, 60027
 1600 090c 698A4EE3 		movt	r8, 60009
 1601 0910 04108DE5 		str	r1, [sp, #4]
 1602 0914 5AFFFFEA 		b	.L278
 1603              	.L282:
 1604 0918 200015E2 		ands	r0, r5, #32
 1605 091c 14008DE5 		str	r0, [sp, #20]
 1606 0920 1400000A 		beq	.L346
 1607 0924 100203E3 		movw	r0, #12816
 1608 0928 0090A0E3 		mov	r9, #0
 1609 092c 540647E3 		movt	r0, 30292
 1610 0930 08C0A0E3 		mov	ip, #8
 1611 0934 FB0F01E5 		str	r0, [r1, #-4091]
 1612 0938 0970A0E1 		mov	r7, r9
 1613 093c 101015E2 		ands	r1, r5, #16
 1614 0940 09B0A0E1 		mov	fp, r9
 1615 0944 0980A0E1 		mov	r8, r9
 1616 0948 10A0A0E3 		mov	r10, #16
 1617 094c A1CA4EE3 		movt	ip, 60065
 1618 0950 A29A4EE3 		movt	r9, 60066
 1619 0954 A07A4EE3 		movt	r7, 60064
 1620 0958 20C08DE5 		str	ip, [sp, #32]
 1621 095c A1BA4EE3 		movt	fp, 60065
 1622 0960 BBAA4EE3 		movt	r10, 60091
 1623 0964 A98A4EE3 		movt	r8, 60073
 1624 0968 10108DE5 		str	r1, [sp, #16]
 1625 096c 08108DE5 		str	r1, [sp, #8]
 1626 0970 04108DE5 		str	r1, [sp, #4]
 1627 0974 42FFFFEA 		b	.L278
 1628              	.L346:
 1629 0978 0810A0E3 		mov	r1, #8
 1630 097c 0090A0E3 		mov	r9, #0
 1631 0980 011A4EE3 		movt	r1, 59905
 1632 0984 09B0A0E1 		mov	fp, r9
 1633 0988 0980A0E1 		mov	r8, r9
 1634 098c 10A0A0E3 		mov	r10, #16
 1635 0990 20108DE5 		str	r1, [sp, #32]
 1636 0994 201015E2 		ands	r1, r5, #32
 1637 0998 029A4EE3 		movt	r9, 59906
 1638 099c 01BA4EE3 		movt	fp, 59905
 1639 09a0 1BAA4EE3 		movt	r10, 59931
 1640 09a4 098A4EE3 		movt	r8, 59913
 1641 09a8 0C108DE5 		str	r1, [sp, #12]
 1642 09ac EA74A0E3 		mov	r7, #-369098752
 1643 09b0 10108DE5 		str	r1, [sp, #16]
 1644 09b4 08108DE5 		str	r1, [sp, #8]
 1645 09b8 04108DE5 		str	r1, [sp, #4]
 1646 09bc 30FFFFEA 		b	.L278
 1648              		.section	.text.R_DK2_CORE_Load,"ax",%progbits
 1649              		.align	2
 1650              		.global	R_DK2_CORE_Load
 1651              		.syntax unified
 1652              		.arm
 1653              		.fpu neon
 1655              	R_DK2_CORE_Load:
 1656              		@ args = 8, pretend = 0, frame = 88
 1657              		@ frame_needed = 0, uses_anonymous_args = 0
 1658 0000 000050E3 		cmp	r0, #0
 1659 0004 F04F2DE9 		push	{r4, r5, r6, r7, r8, r9, r10, fp, lr}
 1660 0008 5CD04DE2 		sub	sp, sp, #92
 1661 000c 80809DE5 		ldr	r8, [sp, #128]
 1662 0010 A102000A 		beq	.L589
 1663 0014 C00010E3 		tst	r0, #192
 1664 0018 01C0A013 		movne	ip, #1
 1665 001c 00C0A003 		moveq	ip, #0
 1666 0020 000051E3 		cmp	r1, #0
 1667 0024 01C08C03 		orreq	ip, ip, #1
 1668 0028 00005CE3 		cmp	ip, #0
 1669 002c 9A02001A 		bne	.L589
 1670 0030 C00011E3 		tst	r1, #192
 1671 0034 9802001A 		bne	.L589
 1672 0038 18CF6FE1 		clz	ip, r8
 1673 003c ACC2A0E1 		lsr	ip, ip, #5
 1674 0040 010C53E3 		cmp	r3, #256
 1675 0044 01C08C83 		orrhi	ip, ip, #1
 1676 0048 00005CE3 		cmp	ip, #0
 1677 004c 9202001A 		bne	.L589
 1678 0050 0F0018E3 		tst	r8, #15
 1679 0054 9002001A 		bne	.L589
 1680 0058 01C011E2 		ands	ip, r1, #1
 1681 005c 44C08DE5 		str	ip, [sp, #68]
 1682 0060 D1C0E0E7 		ubfx	ip, r1, #1, #1
 1683 0064 30C08DE5 		str	ip, [sp, #48]
 1684 0068 F900001A 		bne	.L668
 1685 006c 00005CE3 		cmp	ip, #0
 1686 0070 9002000A 		beq	.L669
 1687 0074 80C0A0E1 		lsl	ip, r0, #1
 1688 0078 01E011E2 		ands	lr, r1, #1
 1689 007c 20E08DE5 		str	lr, [sp, #32]
 1690              	.L566:
 1691 0080 20E09DE5 		ldr	lr, [sp, #32]
 1692 0084 0CC08EE1 		orr	ip, lr, ip
 1693 0088 01E0A0E3 		mov	lr, #1
 1694 008c 7CC0EFE6 		uxtb	ip, ip
 1695 0090 30E08DE5 		str	lr, [sp, #48]
 1696 0094 20C08DE5 		str	ip, [sp, #32]
 1697              	.L463:
 1698 0098 51C1E0E7 		ubfx	ip, r1, #2, #1
 1699 009c 00005CE3 		cmp	ip, #0
 1700 00a0 38C08DE5 		str	ip, [sp, #56]
 1701 00a4 0600000A 		beq	.L464
 1702 00a8 20E09DE5 		ldr	lr, [sp, #32]
 1703 00ac 00C1A0E1 		lsl	ip, r0, #2
 1704 00b0 0C001EE1 		tst	lr, ip
 1705 00b4 EC00001A 		bne	.L586
 1706              	.L569:
 1707 00b8 0CC08EE1 		orr	ip, lr, ip
 1708 00bc 7CC0EFE6 		uxtb	ip, ip
 1709 00c0 20C08DE5 		str	ip, [sp, #32]
 1710              	.L464:
 1711 00c4 D1C1E0E7 		ubfx	ip, r1, #3, #1
 1712 00c8 00005CE3 		cmp	ip, #0
 1713 00cc 3CC08DE5 		str	ip, [sp, #60]
 1714 00d0 0600000A 		beq	.L465
 1715 00d4 20E09DE5 		ldr	lr, [sp, #32]
 1716 00d8 80C1A0E1 		lsl	ip, r0, #3
 1717 00dc 0C001EE1 		tst	lr, ip
 1718 00e0 E100001A 		bne	.L586
 1719 00e4 0CC08EE1 		orr	ip, lr, ip
 1720 00e8 7CC0EFE6 		uxtb	ip, ip
 1721 00ec 20C08DE5 		str	ip, [sp, #32]
 1722              	.L465:
 1723 00f0 51C2E0E7 		ubfx	ip, r1, #4, #1
 1724 00f4 00005CE3 		cmp	ip, #0
 1725 00f8 34C08DE5 		str	ip, [sp, #52]
 1726 00fc 0600000A 		beq	.L466
 1727 0100 20E09DE5 		ldr	lr, [sp, #32]
 1728 0104 00C2A0E1 		lsl	ip, r0, #4
 1729 0108 0C001EE1 		tst	lr, ip
 1730 010c D600001A 		bne	.L586
 1731 0110 0CC08EE1 		orr	ip, lr, ip
 1732 0114 7CC0EFE6 		uxtb	ip, ip
 1733 0118 20C08DE5 		str	ip, [sp, #32]
 1734              	.L466:
 1735 011c C1C2B0E1 		asrs	ip, r1, #5
 1736 0120 40C08DE5 		str	ip, [sp, #64]
 1737 0124 0600000A 		beq	.L467
 1738 0128 20E09DE5 		ldr	lr, [sp, #32]
 1739 012c 80C2A0E1 		lsl	ip, r0, #5
 1740 0130 0C001EE1 		tst	lr, ip
 1741 0134 CC00001A 		bne	.L586
 1742 0138 0CC08EE1 		orr	ip, lr, ip
 1743 013c 7CC0EFE6 		uxtb	ip, ip
 1744 0140 20C08DE5 		str	ip, [sp, #32]
 1745              	.L467:
 1746 0144 20E09DE5 		ldr	lr, [sp, #32]
 1747 0148 00005EE3 		cmp	lr, #0
 1748 014c 5202000A 		beq	.L589
 1749 0150 00C000E3 		movw	ip, #:lower16:.LANCHOR0
 1750 0154 00C040E3 		movt	ip, #:upper16:.LANCHOR0
 1751 0158 4CC08DE5 		str	ip, [sp, #76]
 1752 015c 00C0DCE5 		ldrb	ip, [ip]	@ zero_extendqisi2
 1753 0160 0C40A0E1 		mov	r4, ip
 1754 0164 48C08DE5 		str	ip, [sp, #72]
 1755 0168 0EC0A0E1 		mov	ip, lr
 1756 016c 04E0A0E1 		mov	lr, r4
 1757 0170 04001CE1 		tst	ip, r4
 1758 0174 4802001A 		bne	.L589
 1759 0178 00C000E3 		movw	ip, #:lower16:.LANCHOR2
 1760 017c 00C040E3 		movt	ip, #:upper16:.LANCHOR2
 1761 0180 00E09CE5 		ldr	lr, [ip]
 1762 0184 00005EE3 		cmp	lr, #0
 1763 0188 00208C05 		streq	r2, [ip]
 1764 018c 0100000A 		beq	.L469
 1765 0190 02005EE1 		cmp	lr, r2
 1766 0194 4002001A 		bne	.L589
 1767              	.L469:
 1768 0198 01C011E2 		ands	ip, r1, #1
 1769 019c 00005CE3 		cmp	ip, #0
 1770 01a0 7E01000A 		beq	.L571
 1771 01a4 A0C0B0E1 		lsrs	ip, r0, #1
 1772 01a8 7C01000A 		beq	.L571
 1773 01ac 00E0A0E3 		mov	lr, #0
 1774 01b0 01C0A0E3 		mov	ip, #1
 1775              	.L572:
 1776 01b4 0C51A0E1 		lsl	r5, ip, #2
 1777 01b8 0160A0E3 		mov	r6, #1
 1778 01bc 0240A0E3 		mov	r4, #2
 1779 01c0 16E58EE1 		orr	lr, lr, r6, lsl r5
 1780              	.L480:
 1781 01c4 5054B0E1 		asrs	r5, r0, r4
 1782 01c8 01C08CE2 		add	ip, ip, #1
 1783 01cc 0E50A0E1 		mov	r5, lr
 1784 01d0 6801000A 		beq	.L670
 1785 01d4 06005CE3 		cmp	ip, #6
 1786 01d8 2C00000A 		beq	.L498
 1787 01dc 050054E3 		cmp	r4, #5
 1788 01e0 8201009A 		bls	.L483
 1789              	.L486:
 1790 01e4 516CA0E1 		asr	r6, r1, ip
 1791 01e8 0150A0E3 		mov	r5, #1
 1792 01ec 010016E3 		tst	r6, #1
 1793 01f0 0C61A001 		lsleq	r6, ip, #2
 1794 01f4 05508400 		addeq	r5, r4, r5
 1795 01f8 1CE68E01 		orreq	lr, lr, ip, lsl r6
 1796              	.L484:
 1797 01fc 5045B0E1 		asrs	r4, r0, r5
 1798 0200 01C08CE2 		add	ip, ip, #1
 1799 0204 5701000A 		beq	.L671
 1800 0208 06005CE3 		cmp	ip, #6
 1801 020c 1F00000A 		beq	.L498
 1802 0210 050055E3 		cmp	r5, #5
 1803 0214 7D01009A 		bls	.L487
 1804              	.L490:
 1805 0218 516CA0E1 		asr	r6, r1, ip
 1806 021c 0140A0E3 		mov	r4, #1
 1807 0220 010016E3 		tst	r6, #1
 1808 0224 0C61A001 		lsleq	r6, ip, #2
 1809 0228 04408500 		addeq	r4, r5, r4
 1810 022c 1CE68E01 		orreq	lr, lr, ip, lsl r6
 1811              	.L488:
 1812 0230 5054B0E1 		asrs	r5, r0, r4
 1813 0234 01C08CE2 		add	ip, ip, #1
 1814 0238 4601000A 		beq	.L672
 1815 023c 06005CE3 		cmp	ip, #6
 1816 0240 1200000A 		beq	.L498
 1817 0244 050054E3 		cmp	r4, #5
 1818 0248 6C01009A 		bls	.L491
 1819              	.L494:
 1820 024c 516CA0E1 		asr	r6, r1, ip
 1821 0250 0150A0E3 		mov	r5, #1
 1822 0254 010016E3 		tst	r6, #1
 1823 0258 0C61A001 		lsleq	r6, ip, #2
 1824 025c 05508400 		addeq	r5, r4, r5
 1825 0260 1CE68E01 		orreq	lr, lr, ip, lsl r6
 1826              	.L492:
 1827 0264 5045B0E1 		asrs	r4, r0, r5
 1828 0268 3501000A 		beq	.L673
 1829 026c 05005CE3 		cmp	ip, #5
 1830 0270 0600000A 		beq	.L498
 1831 0274 050055E3 		cmp	r5, #5
 1832 0278 05EA8E91 		orrls	lr, lr, r5, lsl #20
 1833 027c 0300009A 		bls	.L498
 1834 0280 40C09DE5 		ldr	ip, [sp, #64]
 1835 0284 00005CE3 		cmp	ip, #0
 1836 0288 0000001A 		bne	.L498
 1837              	.L663:
 1838 028c 05E68EE3 		orr	lr, lr, #5242880
 1839              	.L498:
 1840 0290 20609DE5 		ldr	r6, [sp, #32]
 1841 0294 FF5F00E3 		movw	r5, #4095
 1842 0298 01C0A0E3 		mov	ip, #1
 1843 029c FF5A4EE3 		movt	r5, 60159
 1844 02a0 FF4F05E3 		movw	r4, #24575
 1845 02a4 FFCF05E5 		str	ip, [r5, #-4095]
 1846 02a8 FD4A4EE3 		movt	r4, 60157
 1847 02ac FF5F0EE3 		movw	r5, #61439
 1848 02b0 FF2E04E5 		str	r2, [r4, #-3839]
 1849 02b4 76E48EE3 		orr	lr, lr, #1979711488
 1850 02b8 FF5A4EE3 		movt	r5, 60159
 1851 02bc C02086E3 		orr	r2, r6, #192
 1852 02c0 FF2F05E5 		str	r2, [r5, #-4095]
 1853 02c4 FF4F09E3 		movw	r4, #40959
 1854 02c8 FBEF05E5 		str	lr, [r5, #-4091]
 1855 02cc 0C20A0E1 		mov	r2, ip
 1856 02d0 0CE016E0 		ands	lr, r6, ip
 1857 02d4 FF4A4EE3 		movt	r4, 60159
 1858 02d8 042040E3 		movt	r2, 4
 1859 02dc FF2604E5 		str	r2, [r4, #-1791]
 1860 02e0 D901000A 		beq	.L499
 1861 02e4 FF2F08E3 		movw	r2, #36863
 1862 02e8 00E0A0E3 		mov	lr, #0
 1863 02ec FF2A4EE3 		movt	r2, 60159
 1864 02f0 FFEE02E5 		str	lr, [r2, #-3839]
 1865 02f4 F78E02E5 		str	r8, [r2, #-3831]
 1866 02f8 FFCE02E5 		str	ip, [r2, #-3839]
 1867              	.L500:
 1868 02fc FFCF00E3 		movw	ip, #4095
 1869 0300 FFCA4EE3 		movt	ip, 60159
 1870              	.L505:
 1871 0304 FF2F1CE5 		ldr	r2, [ip, #-4095]
 1872 0308 000052E3 		cmp	r2, #0
 1873 030c FCFFFF0A 		beq	.L505
 1874 0310 0229A0E3 		mov	r2, #32768
 1875 0314 28108DE5 		str	r1, [sp, #40]
 1876 0318 000053E3 		cmp	r3, #0
 1877 031c 0210A0E1 		mov	r1, r2
 1878 0320 013CA003 		moveq	r3, #256
 1879 0324 912A4EE3 		movt	r2, 60049
 1880 0328 B11A4EE3 		movt	r1, 60081
 1881 032c 00B0A0E3 		mov	fp, #0
 1882 0330 2C008DE5 		str	r0, [sp, #44]
 1883 0334 08308DE5 		str	r3, [sp, #8]
 1884 0338 24208DE5 		str	r2, [sp, #36]
 1885 033c 18108DE5 		str	r1, [sp, #24]
 1886 0340 00B08DE5 		str	fp, [sp]
 1887 0344 040000EA 		b	.L557
 1888              	.L507:
 1889 0348 00309DE5 		ldr	r3, [sp]
 1890 034c 013083E2 		add	r3, r3, #1
 1891 0350 060053E3 		cmp	r3, #6
 1892 0354 00308DE5 		str	r3, [sp]
 1893 0358 3001000A 		beq	.L674
 1894              	.L557:
 1895 035c 28309DE5 		ldr	r3, [sp, #40]
 1896 0360 00209DE5 		ldr	r2, [sp]
 1897 0364 5332A0E1 		asr	r3, r3, r2
 1898 0368 010013E3 		tst	r3, #1
 1899 036c F5FFFF0A 		beq	.L507
 1900 0370 2C309DE5 		ldr	r3, [sp, #44]
 1901 0374 0090A0E3 		mov	r9, #0
 1902 0378 0219A0E3 		mov	r1, #32768
 1903 037c 09B0A0E1 		mov	fp, r9
 1904 0380 511A4EE3 		movt	r1, 59985
 1905 0384 1C108DE5 		str	r1, [sp, #28]
 1906 0388 1332A0E1 		lsl	r3, r3, r2
 1907 038c 1A2BA0E3 		mov	r2, #26624
 1908 0390 692040E3 		movt	r2, 105
 1909 0394 73A0EFE6 		uxtb	r10, r3
 1910 0398 04208DE5 		str	r2, [sp, #4]
 1911              	.L508:
 1912 039c 492889E3 		orr	r2, r9, #4784128
 1913 03a0 04309DE5 		ldr	r3, [sp, #4]
 1914 03a4 691889E3 		orr	r1, r9, #6881280
 1915 03a8 0260A0E1 		mov	r6, r2
 1916 03ac 0170A0E1 		mov	r7, r1
 1917 03b0 0250A0E1 		mov	r5, r2
 1918 03b4 898889E3 		orr	r8, r9, #8978432
 1919 03b8 167B87E3 		orr	r7, r7, #22528
 1920 03bc 066A86E3 		orr	r6, r6, #24576
 1921 03c0 165B85E3 		orr	r5, r5, #22528
 1922 03c4 1A8B88E3 		orr	r8, r8, #26624
 1923 03c8 061A81E3 		orr	r1, r1, #24576
 1924 03cc 1A2B82E3 		orr	r2, r2, #26624
 1925 03d0 033089E1 		orr	r3, r9, r3
 1926 03d4 EA7487E2 		add	r7, r7, #-369098752
 1927 03d8 EA6486E2 		add	r6, r6, #-369098752
 1928 03dc EA5485E2 		add	r5, r5, #-369098752
 1929 03e0 EA8488E2 		add	r8, r8, #-369098752
 1930 03e4 0040A0E3 		mov	r4, #0
 1931 03e8 EA1481E2 		add	r1, r1, #-369098752
 1932 03ec EA2482E2 		add	r2, r2, #-369098752
 1933 03f0 EA3483E2 		add	r3, r3, #-369098752
 1934 03f4 10108DE5 		str	r1, [sp, #16]
 1935 03f8 0C208DE5 		str	r2, [sp, #12]
 1936 03fc 14308DE5 		str	r3, [sp, #20]
 1937              	.L556:
 1938 0400 38005AE3 		cmp	r10, #56
 1939 0404 1A00000A 		beq	.L675
 1940 0408 0C005AE3 		cmp	r10, #12
 1941 040c 3200000A 		beq	.L676
 1942 0410 18005AE3 		cmp	r10, #24
 1943 0414 5200000A 		beq	.L677
 1944              	.L518:
 1945 0418 014084E2 		add	r4, r4, #1
 1946 041c 040054E3 		cmp	r4, #4
 1947 0420 F6FFFF1A 		bne	.L556
 1948 0424 08309DE5 		ldr	r3, [sp, #8]
 1949 0428 01B08BE2 		add	fp, fp, #1
 1950 042c 089089E2 		add	r9, r9, #8
 1951 0430 03005BE1 		cmp	fp, r3
 1952 0434 D8FFFF1A 		bne	.L508
 1953 0438 FF2F04E3 		movw	r2, #20479
 1954 043c FD2A4EE3 		movt	r2, 60157
 1955 0440 0F3F12E5 		ldr	r3, [r2, #-3855]
 1956 0444 C030C3E3 		bic	r3, r3, #192
 1957 0448 0A3083E1 		orr	r3, r3, r10
 1958 044c 0F3F02E5 		str	r3, [r2, #-3855]
 1959 0450 BCFFFFEA 		b	.L507
 1960              	.L668:
 1961 0454 00005CE3 		cmp	ip, #0
 1962 0458 20008DE5 		str	r0, [sp, #32]
 1963 045c 0DFFFF0A 		beq	.L463
 1964 0460 80C0A0E1 		lsl	ip, r0, #1
 1965 0464 0C0010E1 		tst	r0, ip
 1966 0468 04FFFF0A 		beq	.L566
 1967              	.L586:
 1968 046c 0600E0E3 		mvn	r0, #6
 1969 0470 1C0100EA 		b	.L460
 1970              	.L675:
 1971 0474 56308DE2 		add	r3, sp, #86
 1972 0478 57208DE2 		add	r2, sp, #87
 1973 047c 0410A0E1 		mov	r1, r4
 1974 0480 0B00A0E1 		mov	r0, fp
 1975 0484 FEFFFFEB 		bl	read_evsel.constprop.3
 1976 0488 5730DDE5 		ldrb	r3, [sp, #87]	@ zero_extendqisi2
 1977 048c 080053E3 		cmp	r3, #8
 1978 0490 9000000A 		beq	.L678
 1979              	.L510:
 1980 0494 18009DE5 		ldr	r0, [sp, #24]
 1981 0498 000054E3 		cmp	r4, #0
 1982 049c 0130A0E3 		mov	r3, #1
 1983 04a0 403080E5 		str	r3, [r0, #64]
 1984 04a4 A93889E3 		orr	r3, r9, #11075584
 1985 04a8 4900001A 		bne	.L515
 1986 04ac 163B83E3 		orr	r3, r3, #22528
 1987 04b0 EA3483E2 		add	r3, r3, #-369098752
 1988 04b4 0020D3E5 		ldrb	r2, [r3]	@ zero_extendqisi2
 1989 04b8 5620CDE5 		strb	r2, [sp, #86]
 1990 04bc 2212A0E1 		lsr	r1, r2, #4
 1991 04c0 090051E3 		cmp	r1, #9
 1992 04c4 5710CDE5 		strb	r1, [sp, #87]
 1993 04c8 0010A0E1 		mov	r1, r0
 1994 04cc 404080E5 		str	r4, [r0, #64]
 1995 04d0 2B01000A 		beq	.L522
 1996              	.L517:
 1997 04d4 014084E2 		add	r4, r4, #1
 1998 04d8 C8FFFFEA 		b	.L556
 1999              	.L676:
 2000 04dc 1C109DE5 		ldr	r1, [sp, #28]
 2001 04e0 000054E3 		cmp	r4, #0
 2002 04e4 0130A0E3 		mov	r3, #1
 2003 04e8 403081E5 		str	r3, [r1, #64]
 2004 04ec 4A00001A 		bne	.L527
 2005 04f0 0030D5E5 		ldrb	r3, [r5]	@ zero_extendqisi2
 2006 04f4 5630CDE5 		strb	r3, [sp, #86]
 2007 04f8 2322A0E1 		lsr	r2, r3, #4
 2008 04fc 080052E3 		cmp	r2, #8
 2009 0500 5720CDE5 		strb	r2, [sp, #87]
 2010 0504 404081E5 		str	r4, [r1, #64]
 2011 0508 5E01000A 		beq	.L679
 2012              	.L529:
 2013 050c 56308DE2 		add	r3, sp, #86
 2014 0510 57208DE2 		add	r2, sp, #87
 2015 0514 0410A0E1 		mov	r1, r4
 2016 0518 0B00A0E1 		mov	r0, fp
 2017 051c FEFFFFEB 		bl	read_evsel.constprop.3
 2018 0520 5730DDE5 		ldrb	r3, [sp, #87]	@ zero_extendqisi2
 2019 0524 080053E3 		cmp	r3, #8
 2020 0528 BAFFFF1A 		bne	.L518
 2021 052c 000054E3 		cmp	r4, #0
 2022 0530 5630DDE5 		ldrb	r3, [sp, #86]	@ zero_extendqisi2
 2023 0534 4F01000A 		beq	.L680
 2024 0538 010054E3 		cmp	r4, #1
 2025 053c 7101000A 		beq	.L681
 2026 0540 020054E3 		cmp	r4, #2
 2027 0544 10209D05 		ldreq	r2, [sp, #16]
 2028 0548 0F300302 		andeq	r3, r3, #15
 2029 054c 14209D15 		ldrne	r2, [sp, #20]
 2030 0550 0F30C313 		bicne	r3, r3, #15
 2031 0554 A0308303 		orreq	r3, r3, #160
 2032 0558 0A308313 		orrne	r3, r3, #10
 2033              	.L538:
 2034 055c 0030C2E5 		strb	r3, [r2]
 2035 0560 ACFFFFEA 		b	.L518
 2036              	.L677:
 2037 0564 56308DE2 		add	r3, sp, #86
 2038 0568 57208DE2 		add	r2, sp, #87
 2039 056c 0410A0E1 		mov	r1, r4
 2040 0570 0B00A0E1 		mov	r0, fp
 2041 0574 FEFFFFEB 		bl	read_evsel.constprop.3
 2042 0578 5730DDE5 		ldrb	r3, [sp, #87]	@ zero_extendqisi2
 2043 057c 080053E3 		cmp	r3, #8
 2044 0580 E700000A 		beq	.L682
 2045              	.L541:
 2046 0584 24009DE5 		ldr	r0, [sp, #36]
 2047 0588 000054E3 		cmp	r4, #0
 2048 058c 0130A0E3 		mov	r3, #1
 2049 0590 403080E5 		str	r3, [r0, #64]
 2050 0594 3300001A 		bne	.L546
 2051 0598 893889E3 		orr	r3, r9, #8978432
 2052 059c 163B83E3 		orr	r3, r3, #22528
 2053 05a0 EA3483E2 		add	r3, r3, #-369098752
 2054 05a4 0020D3E5 		ldrb	r2, [r3]	@ zero_extendqisi2
 2055 05a8 5620CDE5 		strb	r2, [sp, #86]
 2056 05ac 2212A0E1 		lsr	r1, r2, #4
 2057 05b0 080051E3 		cmp	r1, #8
 2058 05b4 5710CDE5 		strb	r1, [sp, #87]
 2059 05b8 0010A0E1 		mov	r1, r0
 2060 05bc 404080E5 		str	r4, [r0, #64]
 2061 05c0 C3FFFF1A 		bne	.L517
 2062              	.L551:
 2063 05c4 0F2002E2 		and	r2, r2, #15
 2064 05c8 B02082E3 		orr	r2, r2, #176
 2065              	.L553:
 2066 05cc 0020C3E5 		strb	r2, [r3]
 2067 05d0 90FFFFEA 		b	.L518
 2068              	.L515:
 2069 05d4 010054E3 		cmp	r4, #1
 2070 05d8 0000A0E3 		mov	r0, #0
 2071 05dc 3200000A 		beq	.L683
 2072 05e0 020054E3 		cmp	r4, #2
 2073 05e4 DC00000A 		beq	.L684
 2074 05e8 1A3B83E3 		orr	r3, r3, #26624
 2075 05ec EA3483E2 		add	r3, r3, #-369098752
 2076 05f0 0020D3E5 		ldrb	r2, [r3]	@ zero_extendqisi2
 2077 05f4 0F1002E2 		and	r1, r2, #15
 2078 05f8 5620CDE5 		strb	r2, [sp, #86]
 2079 05fc 5710CDE5 		strb	r1, [sp, #87]
 2080 0600 090051E3 		cmp	r1, #9
 2081 0604 18109DE5 		ldr	r1, [sp, #24]
 2082 0608 400081E5 		str	r0, [r1, #64]
 2083 060c 81FFFF1A 		bne	.L518
 2084              	.L523:
 2085 0610 0F20C2E3 		bic	r2, r2, #15
 2086 0614 082082E3 		orr	r2, r2, #8
 2087 0618 EBFFFFEA 		b	.L553
 2088              	.L527:
 2089 061c 010054E3 		cmp	r4, #1
 2090 0620 3A00000A 		beq	.L685
 2091 0624 020054E3 		cmp	r4, #2
 2092 0628 D800000A 		beq	.L686
 2093 062c 0C309DE5 		ldr	r3, [sp, #12]
 2094 0630 0010A0E3 		mov	r1, #0
 2095 0634 0030D3E5 		ldrb	r3, [r3]	@ zero_extendqisi2
 2096 0638 0F2003E2 		and	r2, r3, #15
 2097 063c 5630CDE5 		strb	r3, [sp, #86]
 2098 0640 5720CDE5 		strb	r2, [sp, #87]
 2099 0644 080052E3 		cmp	r2, #8
 2100 0648 1C209DE5 		ldr	r2, [sp, #28]
 2101 064c 401082E5 		str	r1, [r2, #64]
 2102 0650 ADFFFF1A 		bne	.L529
 2103 0654 0C209DE5 		ldr	r2, [sp, #12]
 2104 0658 0F30C3E3 		bic	r3, r3, #15
 2105 065c 0A3083E3 		orr	r3, r3, #10
 2106              	.L536:
 2107 0660 0030C2E5 		strb	r3, [r2]
 2108 0664 A8FFFFEA 		b	.L529
 2109              	.L546:
 2110 0668 010054E3 		cmp	r4, #1
 2111 066c 9F00000A 		beq	.L687
 2112 0670 020054E3 		cmp	r4, #2
 2113 0674 D200000A 		beq	.L688
 2114 0678 0020D8E5 		ldrb	r2, [r8]	@ zero_extendqisi2
 2115 067c 0000A0E3 		mov	r0, #0
 2116 0680 0830A0E1 		mov	r3, r8
 2117 0684 0F1002E2 		and	r1, r2, #15
 2118 0688 5620CDE5 		strb	r2, [sp, #86]
 2119 068c 5710CDE5 		strb	r1, [sp, #87]
 2120 0690 080051E3 		cmp	r1, #8
 2121 0694 24109DE5 		ldr	r1, [sp, #36]
 2122 0698 400081E5 		str	r0, [r1, #64]
 2123 069c 5DFFFF1A 		bne	.L518
 2124              	.L552:
 2125 06a0 0F20C2E3 		bic	r2, r2, #15
 2126 06a4 0B2082E3 		orr	r2, r2, #11
 2127 06a8 C7FFFFEA 		b	.L553
 2128              	.L683:
 2129 06ac 063A83E3 		orr	r3, r3, #24576
 2130 06b0 EA3483E2 		add	r3, r3, #-369098752
 2131 06b4 0020D3E5 		ldrb	r2, [r3]	@ zero_extendqisi2
 2132 06b8 0F1002E2 		and	r1, r2, #15
 2133 06bc 5620CDE5 		strb	r2, [sp, #86]
 2134 06c0 5710CDE5 		strb	r1, [sp, #87]
 2135 06c4 090051E3 		cmp	r1, #9
 2136 06c8 18109DE5 		ldr	r1, [sp, #24]
 2137 06cc 400081E5 		str	r0, [r1, #64]
 2138 06d0 7FFFFF1A 		bne	.L517
 2139 06d4 CDFFFFEA 		b	.L523
 2140              	.L678:
 2141 06d8 000054E3 		cmp	r4, #0
 2142 06dc 5630DDE5 		ldrb	r3, [sp, #86]	@ zero_extendqisi2
 2143 06e0 D500000A 		beq	.L689
 2144 06e4 010054E3 		cmp	r4, #1
 2145 06e8 0201000A 		beq	.L690
 2146 06ec 020054E3 		cmp	r4, #2
 2147 06f0 10209D05 		ldreq	r2, [sp, #16]
 2148 06f4 0F300302 		andeq	r3, r3, #15
 2149 06f8 14209D15 		ldrne	r2, [sp, #20]
 2150 06fc 0F30C313 		bicne	r3, r3, #15
 2151 0700 B0308303 		orreq	r3, r3, #176
 2152 0704 0B308313 		orrne	r3, r3, #11
 2153              	.L512:
 2154 0708 0030C2E5 		strb	r3, [r2]
 2155 070c 60FFFFEA 		b	.L510
 2156              	.L685:
 2157 0710 0030D6E5 		ldrb	r3, [r6]	@ zero_extendqisi2
 2158 0714 0010A0E3 		mov	r1, #0
 2159 0718 0F2003E2 		and	r2, r3, #15
 2160 071c 5630CDE5 		strb	r3, [sp, #86]
 2161 0720 5720CDE5 		strb	r2, [sp, #87]
 2162 0724 080052E3 		cmp	r2, #8
 2163 0728 1C209DE5 		ldr	r2, [sp, #28]
 2164 072c 401082E5 		str	r1, [r2, #64]
 2165 0730 75FFFF1A 		bne	.L529
 2166 0734 0F30C3E3 		bic	r3, r3, #15
 2167 0738 0620A0E1 		mov	r2, r6
 2168 073c 0A3083E3 		orr	r3, r3, #10
 2169 0740 C6FFFFEA 		b	.L536
 2170              	.L673:
 2171 0744 05005CE3 		cmp	ip, #5
 2172 0748 0640A013 		movne	r4, #6
 2173 074c 05C0A013 		movne	ip, #5
 2174 0750 BDFEFF1A 		bne	.L494
 2175 0754 CDFEFFEA 		b	.L498
 2176              	.L672:
 2177 0758 06005CE3 		cmp	ip, #6
 2178 075c 0650A013 		movne	r5, #6
 2179 0760 ACFEFF1A 		bne	.L490
 2180 0764 C9FEFFEA 		b	.L498
 2181              	.L671:
 2182 0768 06005CE3 		cmp	ip, #6
 2183 076c 0640A013 		movne	r4, #6
 2184 0770 9BFEFF1A 		bne	.L486
 2185 0774 C5FEFFEA 		b	.L498
 2186              	.L670:
 2187 0778 06005CE3 		cmp	ip, #6
 2188 077c 0140A0E3 		mov	r4, #1
 2189 0780 516CA0E1 		asr	r6, r1, ip
 2190 0784 0C71A0E1 		lsl	r7, ip, #2
 2191 0788 C0FEFF0A 		beq	.L498
 2192 078c 010016E3 		tst	r6, #1
 2193 0790 1C578501 		orreq	r5, r5, ip, lsl r7
 2194 0794 0740A003 		moveq	r4, #7
 2195              	.L479:
 2196 0798 05E0A0E1 		mov	lr, r5
 2197 079c 88FEFFEA 		b	.L480
 2198              	.L571:
 2199 07a0 30C09DE5 		ldr	ip, [sp, #48]
 2200 07a4 00005CE3 		cmp	ip, #0
 2201 07a8 9E00001A 		bne	.L471
 2202 07ac 10E0A0E3 		mov	lr, #16
 2203              	.L573:
 2204 07b0 38C09DE5 		ldr	ip, [sp, #56]
 2205 07b4 00005CE3 		cmp	ip, #0
 2206 07b8 9600001A 		bne	.L472
 2207 07bc 02EC8EE3 		orr	lr, lr, #512
 2208              	.L574:
 2209 07c0 3CC09DE5 		ldr	ip, [sp, #60]
 2210 07c4 00005CE3 		cmp	ip, #0
 2211 07c8 8E00001A 		bne	.L473
 2212 07cc 03EA8EE3 		orr	lr, lr, #12288
 2213              	.L575:
 2214 07d0 34C09DE5 		ldr	ip, [sp, #52]
 2215 07d4 00005CE3 		cmp	ip, #0
 2216 07d8 8600001A 		bne	.L474
 2217 07dc 01E78EE3 		orr	lr, lr, #262144
 2218              	.L576:
 2219 07e0 C1C2B0E1 		asrs	ip, r1, #5
 2220 07e4 00005CE3 		cmp	ip, #0
 2221 07e8 A8FEFF1A 		bne	.L498
 2222 07ec A6FEFFEA 		b	.L663
 2223              	.L483:
 2224 07f0 0C61A0E1 		lsl	r6, ip, #2
 2225 07f4 015084E2 		add	r5, r4, #1
 2226 07f8 14E68EE1 		orr	lr, lr, r4, lsl r6
 2227 07fc 7EFEFFEA 		b	.L484
 2228              	.L491:
 2229 0800 0C61A0E1 		lsl	r6, ip, #2
 2230 0804 015084E2 		add	r5, r4, #1
 2231 0808 14E68EE1 		orr	lr, lr, r4, lsl r6
 2232 080c 94FEFFEA 		b	.L492
 2233              	.L487:
 2234 0810 0C61A0E1 		lsl	r6, ip, #2
 2235 0814 014085E2 		add	r4, r5, #1
 2236 0818 15E68EE1 		orr	lr, lr, r5, lsl r6
 2237 081c 83FEFFEA 		b	.L488
 2238              	.L674:
 2239 0820 84309DE5 		ldr	r3, [sp, #132]
 2240 0824 000053E3 		cmp	r3, #0
 2241 0828 2800000A 		beq	.L565
 2242 082c 44309DE5 		ldr	r3, [sp, #68]
 2243 0830 000053E3 		cmp	r3, #0
 2244 0834 2C20DD15 		ldrbne	r2, [sp, #44]	@ zero_extendqisi2
 2245 0838 0320A001 		moveq	r2, r3
 2246 083c 84309D15 		ldrne	r3, [sp, #132]
 2247 0840 0020C315 		strbne	r2, [r3]
 2248 0844 0120A013 		movne	r2, #1
 2249 0848 30309DE5 		ldr	r3, [sp, #48]
 2250 084c 000053E3 		cmp	r3, #0
 2251 0850 2C309D15 		ldrne	r3, [sp, #44]
 2252 0854 84109D15 		ldrne	r1, [sp, #132]
 2253 0858 8330A011 		lslne	r3, r3, #1
 2254 085c 0230C117 		strbne	r3, [r1, r2]
 2255 0860 01208212 		addne	r2, r2, #1
 2256 0864 38309DE5 		ldr	r3, [sp, #56]
 2257 0868 000053E3 		cmp	r3, #0
 2258 086c 2C309D15 		ldrne	r3, [sp, #44]
 2259 0870 84109D15 		ldrne	r1, [sp, #132]
 2260 0874 0331A011 		lslne	r3, r3, #2
 2261 0878 0230C117 		strbne	r3, [r1, r2]
 2262 087c 01208212 		addne	r2, r2, #1
 2263 0880 3C309DE5 		ldr	r3, [sp, #60]
 2264 0884 000053E3 		cmp	r3, #0
 2265 0888 2C309D15 		ldrne	r3, [sp, #44]
 2266 088c 84109D15 		ldrne	r1, [sp, #132]
 2267 0890 8331A011 		lslne	r3, r3, #3
 2268 0894 0230C117 		strbne	r3, [r1, r2]
 2269 0898 01208212 		addne	r2, r2, #1
 2270 089c 34309DE5 		ldr	r3, [sp, #52]
 2271 08a0 000053E3 		cmp	r3, #0
 2272 08a4 2C309D15 		ldrne	r3, [sp, #44]
 2273 08a8 84109D15 		ldrne	r1, [sp, #132]
 2274 08ac 0332A011 		lslne	r3, r3, #4
 2275 08b0 0230C117 		strbne	r3, [r1, r2]
 2276 08b4 01208212 		addne	r2, r2, #1
 2277 08b8 40309DE5 		ldr	r3, [sp, #64]
 2278 08bc 000053E3 		cmp	r3, #0
 2279 08c0 2C309D15 		ldrne	r3, [sp, #44]
 2280 08c4 84109D15 		ldrne	r1, [sp, #132]
 2281 08c8 8332A011 		lslne	r3, r3, #5
 2282 08cc 0230C117 		strbne	r3, [r1, r2]
 2283              	.L565:
 2284 08d0 48209DE5 		ldr	r2, [sp, #72]
 2285 08d4 0000A0E3 		mov	r0, #0
 2286 08d8 20309DE5 		ldr	r3, [sp, #32]
 2287 08dc 023083E1 		orr	r3, r3, r2
 2288 08e0 4C209DE5 		ldr	r2, [sp, #76]
 2289 08e4 0030C2E5 		strb	r3, [r2]
 2290              	.L460:
 2291 08e8 5CD08DE2 		add	sp, sp, #92
 2292              		@ sp needed
 2293 08ec F08FBDE8 		pop	{r4, r5, r6, r7, r8, r9, r10, fp, pc}
 2294              	.L687:
 2295 08f0 893889E3 		orr	r3, r9, #8978432
 2296 08f4 0000A0E3 		mov	r0, #0
 2297 08f8 063A83E3 		orr	r3, r3, #24576
 2298 08fc EA3483E2 		add	r3, r3, #-369098752
 2299 0900 0020D3E5 		ldrb	r2, [r3]	@ zero_extendqisi2
 2300 0904 0F1002E2 		and	r1, r2, #15
 2301 0908 5620CDE5 		strb	r2, [sp, #86]
 2302 090c 5710CDE5 		strb	r1, [sp, #87]
 2303 0910 080051E3 		cmp	r1, #8
 2304 0914 24109DE5 		ldr	r1, [sp, #36]
 2305 0918 400081E5 		str	r0, [r1, #64]
 2306 091c ECFEFF1A 		bne	.L517
 2307 0920 5EFFFFEA 		b	.L552
 2308              	.L682:
 2309 0924 000054E3 		cmp	r4, #0
 2310 0928 5630DDE5 		ldrb	r3, [sp, #86]	@ zero_extendqisi2
 2311 092c 5D00000A 		beq	.L691
 2312 0930 010054E3 		cmp	r4, #1
 2313 0934 8300000A 		beq	.L692
 2314 0938 020054E3 		cmp	r4, #2
 2315 093c 10209D05 		ldreq	r2, [sp, #16]
 2316 0940 0F300302 		andeq	r3, r3, #15
 2317 0944 14209D15 		ldrne	r2, [sp, #20]
 2318 0948 0F30C313 		bicne	r3, r3, #15
 2319 094c B0308303 		orreq	r3, r3, #176
 2320 0950 0B308313 		orrne	r3, r3, #11
 2321              	.L543:
 2322 0954 0030C2E5 		strb	r3, [r2]
 2323 0958 09FFFFEA 		b	.L541
 2324              	.L684:
 2325 095c 063A83E3 		orr	r3, r3, #24576
 2326 0960 EA3483E2 		add	r3, r3, #-369098752
 2327 0964 0020D3E5 		ldrb	r2, [r3]	@ zero_extendqisi2
 2328 0968 5620CDE5 		strb	r2, [sp, #86]
 2329 096c 2212A0E1 		lsr	r1, r2, #4
 2330 0970 5710CDE5 		strb	r1, [sp, #87]
 2331 0974 090051E3 		cmp	r1, #9
 2332 0978 18109DE5 		ldr	r1, [sp, #24]
 2333 097c 400081E5 		str	r0, [r1, #64]
 2334 0980 D3FEFF1A 		bne	.L517
 2335              	.L522:
 2336 0984 0F2002E2 		and	r2, r2, #15
 2337 0988 802082E3 		orr	r2, r2, #128
 2338 098c 0EFFFFEA 		b	.L553
 2339              	.L686:
 2340 0990 0030D6E5 		ldrb	r3, [r6]	@ zero_extendqisi2
 2341 0994 0010A0E3 		mov	r1, #0
 2342 0998 5630CDE5 		strb	r3, [sp, #86]
 2343 099c 2322A0E1 		lsr	r2, r3, #4
 2344 09a0 5720CDE5 		strb	r2, [sp, #87]
 2345 09a4 080052E3 		cmp	r2, #8
 2346 09a8 1C209DE5 		ldr	r2, [sp, #28]
 2347 09ac 401082E5 		str	r1, [r2, #64]
 2348 09b0 D5FEFF1A 		bne	.L529
 2349 09b4 0F3003E2 		and	r3, r3, #15
 2350 09b8 0620A0E1 		mov	r2, r6
 2351 09bc A03083E3 		orr	r3, r3, #160
 2352 09c0 26FFFFEA 		b	.L536
 2353              	.L688:
 2354 09c4 893889E3 		orr	r3, r9, #8978432
 2355 09c8 0000A0E3 		mov	r0, #0
 2356 09cc 063A83E3 		orr	r3, r3, #24576
 2357 09d0 EA3483E2 		add	r3, r3, #-369098752
 2358 09d4 0020D3E5 		ldrb	r2, [r3]	@ zero_extendqisi2
 2359 09d8 5620CDE5 		strb	r2, [sp, #86]
 2360 09dc 2212A0E1 		lsr	r1, r2, #4
 2361 09e0 5710CDE5 		strb	r1, [sp, #87]
 2362 09e4 080051E3 		cmp	r1, #8
 2363 09e8 24109DE5 		ldr	r1, [sp, #36]
 2364 09ec 400081E5 		str	r0, [r1, #64]
 2365 09f0 B7FEFF1A 		bne	.L517
 2366 09f4 F2FEFFEA 		b	.L551
 2367              	.L474:
 2368 09f8 A0C0B0E1 		lsrs	ip, r0, #1
 2369 09fc 05C0A013 		movne	ip, #5
 2370 0a00 EBFDFF1A 		bne	.L572
 2371 0a04 75FFFFEA 		b	.L576
 2372              	.L473:
 2373 0a08 A0C0B0E1 		lsrs	ip, r0, #1
 2374 0a0c 04C0A013 		movne	ip, #4
 2375 0a10 E7FDFF1A 		bne	.L572
 2376 0a14 6DFFFFEA 		b	.L575
 2377              	.L472:
 2378 0a18 A0C0B0E1 		lsrs	ip, r0, #1
 2379 0a1c 03C0A013 		movne	ip, #3
 2380 0a20 E3FDFF1A 		bne	.L572
 2381 0a24 65FFFFEA 		b	.L574
 2382              	.L471:
 2383 0a28 C0E0B0E1 		asrs	lr, r0, #1
 2384 0a2c 5FFFFF0A 		beq	.L573
 2385 0a30 00E0A0E3 		mov	lr, #0
 2386 0a34 02C0A0E3 		mov	ip, #2
 2387 0a38 DDFDFFEA 		b	.L572
 2388              	.L689:
 2389 0a3c 0F3003E2 		and	r3, r3, #15
 2390 0a40 0720A0E1 		mov	r2, r7
 2391 0a44 B03083E3 		orr	r3, r3, #176
 2392 0a48 2EFFFFEA 		b	.L512
 2393              	.L499:
 2394 0a4c 022016E2 		ands	r2, r6, #2
 2395 0a50 2200001A 		bne	.L693
 2396 0a54 20E09DE5 		ldr	lr, [sp, #32]
 2397 0a58 04E01EE2 		ands	lr, lr, #4
 2398 0a5c 2D00000A 		beq	.L502
 2399 0a60 FFEF08E3 		movw	lr, #36863
 2400 0a64 FFEA4EE3 		movt	lr, 60159
 2401 0a68 7F2E0EE5 		str	r2, [lr, #-3711]
 2402 0a6c 778E0EE5 		str	r8, [lr, #-3703]
 2403 0a70 7FCE0EE5 		str	ip, [lr, #-3711]
 2404 0a74 20FEFFEA 		b	.L500
 2405              	.L680:
 2406 0a78 0F3003E2 		and	r3, r3, #15
 2407 0a7c 0720A0E1 		mov	r2, r7
 2408 0a80 A03083E3 		orr	r3, r3, #160
 2409 0a84 B4FEFFEA 		b	.L538
 2410              	.L679:
 2411 0a88 0F3003E2 		and	r3, r3, #15
 2412 0a8c 0520A0E1 		mov	r2, r5
 2413 0a90 A03083E3 		orr	r3, r3, #160
 2414 0a94 0030C2E5 		strb	r3, [r2]
 2415 0a98 9BFEFFEA 		b	.L529
 2416              	.L589:
 2417              	.L461:
 2418 0a9c 0000E0E3 		mvn	r0, #0
 2419 0aa0 5CD08DE2 		add	sp, sp, #92
 2420              		@ sp needed
 2421 0aa4 F08FBDE8 		pop	{r4, r5, r6, r7, r8, r9, r10, fp, pc}
 2422              	.L691:
 2423 0aa8 0F3003E2 		and	r3, r3, #15
 2424 0aac 0720A0E1 		mov	r2, r7
 2425 0ab0 B03083E3 		orr	r3, r3, #176
 2426 0ab4 A6FFFFEA 		b	.L543
 2427              	.L669:
 2428 0ab8 51C1E0E7 		ubfx	ip, r1, #2, #1
 2429 0abc 00005CE3 		cmp	ip, #0
 2430 0ac0 38C08DE5 		str	ip, [sp, #56]
 2431 0ac4 30C08D05 		streq	ip, [sp, #48]
 2432 0ac8 20C08D05 		streq	ip, [sp, #32]
 2433 0acc 7CFDFF0A 		beq	.L464
 2434 0ad0 30E09DE5 		ldr	lr, [sp, #48]
 2435 0ad4 00C1A0E1 		lsl	ip, r0, #2
 2436 0ad8 20E08DE5 		str	lr, [sp, #32]
 2437 0adc 75FDFFEA 		b	.L569
 2438              	.L693:
 2439 0ae0 FF2F08E3 		movw	r2, #36863
 2440 0ae4 FF2A4EE3 		movt	r2, 60159
 2441 0ae8 BFEE02E5 		str	lr, [r2, #-3775]
 2442 0aec B78E02E5 		str	r8, [r2, #-3767]
 2443 0af0 BFCE02E5 		str	ip, [r2, #-3775]
 2444 0af4 00FEFFEA 		b	.L500
 2445              	.L690:
 2446 0af8 0F30C3E3 		bic	r3, r3, #15
 2447 0afc 10209DE5 		ldr	r2, [sp, #16]
 2448 0b00 0B3083E3 		orr	r3, r3, #11
 2449 0b04 FFFEFFEA 		b	.L512
 2450              	.L681:
 2451 0b08 0F30C3E3 		bic	r3, r3, #15
 2452 0b0c 10209DE5 		ldr	r2, [sp, #16]
 2453 0b10 0A3083E3 		orr	r3, r3, #10
 2454 0b14 90FEFFEA 		b	.L538
 2455              	.L502:
 2456 0b18 20209DE5 		ldr	r2, [sp, #32]
 2457 0b1c 082012E2 		ands	r2, r2, #8
 2458 0b20 0C00001A 		bne	.L694
 2459 0b24 20E09DE5 		ldr	lr, [sp, #32]
 2460 0b28 10E01EE2 		ands	lr, lr, #16
 2461 0b2c 0F00000A 		beq	.L504
 2462 0b30 FFEF08E3 		movw	lr, #36863
 2463 0b34 FFEA4EE3 		movt	lr, 60159
 2464 0b38 FF2D0EE5 		str	r2, [lr, #-3583]
 2465 0b3c F78D0EE5 		str	r8, [lr, #-3575]
 2466 0b40 FFCD0EE5 		str	ip, [lr, #-3583]
 2467 0b44 ECFDFFEA 		b	.L500
 2468              	.L692:
 2469 0b48 0F30C3E3 		bic	r3, r3, #15
 2470 0b4c 10209DE5 		ldr	r2, [sp, #16]
 2471 0b50 0B3083E3 		orr	r3, r3, #11
 2472 0b54 7EFFFFEA 		b	.L543
 2473              	.L694:
 2474 0b58 FF2F08E3 		movw	r2, #36863
 2475 0b5c FF2A4EE3 		movt	r2, 60159
 2476 0b60 3FEE02E5 		str	lr, [r2, #-3647]
 2477 0b64 378E02E5 		str	r8, [r2, #-3639]
 2478 0b68 3FCE02E5 		str	ip, [r2, #-3647]
 2479 0b6c E2FDFFEA 		b	.L500
 2480              	.L504:
 2481 0b70 20209DE5 		ldr	r2, [sp, #32]
 2482 0b74 200012E3 		tst	r2, #32
 2483 0b78 FF2F0813 		movwne	r2, #36863
 2484 0b7c FF2A4E13 		movtne	r2, 60159
 2485 0b80 BFED0215 		strne	lr, [r2, #-3519]
 2486 0b84 B78D0215 		strne	r8, [r2, #-3511]
 2487 0b88 BFCD0215 		strne	ip, [r2, #-3519]
 2488 0b8c DAFDFFEA 		b	.L500
 2490              		.section	.text.R_DK2_CORE_Activate,"ax",%progbits
 2491              		.align	2
 2492              		.global	R_DK2_CORE_Activate
 2493              		.syntax unified
 2494              		.arm
 2495              		.fpu neon
 2497              	R_DK2_CORE_Activate:
 2498              		@ args = 0, pretend = 0, frame = 0
 2499              		@ frame_needed = 0, uses_anonymous_args = 0
 2500 0000 003050E2 		subs	r3, r0, #0
 2501 0004 1D00000A 		beq	.L699
 2502 0008 70402DE9 		push	{r4, r5, r6, lr}
 2503 000c 005000E3 		movw	r5, #:lower16:.LANCHOR1
 2504 0010 005040E3 		movt	r5, #:upper16:.LANCHOR1
 2505 0014 0060D5E5 		ldrb	r6, [r5]	@ zero_extendqisi2
 2506 0018 060013E1 		tst	r3, r6
 2507 001c 1500001A 		bne	.L701
 2508 0020 000051E3 		cmp	r1, #0
 2509 0024 0340A0E1 		mov	r4, r3
 2510 0028 0C00000A 		beq	.L706
 2511 002c 043041E2 		sub	r3, r1, #4
 2512 0030 7C0053E3 		cmp	r3, #124
 2513 0034 0F00008A 		bhi	.L701
 2514 0038 003000E3 		movw	r3, #:lower16:.LANCHOR2
 2515 003c 012041E2 		sub	r2, r1, #1
 2516 0040 003040E3 		movt	r3, #:upper16:.LANCHOR2
 2517 0044 7220EFE6 		uxtb	r2, r2
 2518 0048 001093E5 		ldr	r1, [r3]
 2519 004c FEFFFFEB 		bl	dk2_activate
 2520              	.L698:
 2521 0050 063084E1 		orr	r3, r4, r6
 2522 0054 0000A0E3 		mov	r0, #0
 2523 0058 0030C5E5 		strb	r3, [r5]
 2524 005c 7080BDE8 		pop	{r4, r5, r6, pc}
 2525              	.L706:
 2526 0060 003000E3 		movw	r3, #:lower16:.LANCHOR2
 2527 0064 0120A0E1 		mov	r2, r1
 2528 0068 003040E3 		movt	r3, #:upper16:.LANCHOR2
 2529 006c 001093E5 		ldr	r1, [r3]
 2530 0070 FEFFFFEB 		bl	dk2_activate
 2531 0074 F5FFFFEA 		b	.L698
 2532              	.L701:
 2533              	.L696:
 2534 0078 0000E0E3 		mvn	r0, #0
 2535 007c 7080BDE8 		pop	{r4, r5, r6, pc}
 2536              	.L699:
 2537 0080 0000E0E3 		mvn	r0, #0
 2538 0084 1EFF2FE1 		bx	lr
 2540              		.section	.text.R_DK2_CORE_PreStart,"ax",%progbits
 2541              		.align	2
 2542              		.global	R_DK2_CORE_PreStart
 2543              		.syntax unified
 2544              		.arm
 2545              		.fpu neon
 2547              	R_DK2_CORE_PreStart:
 2548              		@ args = 0, pretend = 0, frame = 0
 2549              		@ frame_needed = 0, uses_anonymous_args = 0
 2550 0000 000050E3 		cmp	r0, #0
 2551 0004 4000000A 		beq	.L713
 2552 0008 C00010E3 		tst	r0, #192
 2553 000c 3E00001A 		bne	.L713
 2554 0010 000052E3 		cmp	r2, #0
 2555 0014 00005113 		cmpne	r1, #0
 2556 0018 3B00000A 		beq	.L713
 2557 001c FECF0FE3 		movw	ip, #65534
 2558 0020 F0402DE9 		push	{r4, r5, r6, r7, lr}
 2559 0024 FFC040E3 		movt	ip, 255
 2560 0028 01E043E2 		sub	lr, r3, #1
 2561 002c 0C005EE1 		cmp	lr, ip
 2562 0030 3700008A 		bhi	.L714
 2563 0034 01C010E2 		ands	ip, r0, #1
 2564 0038 3700001A 		bne	.L715
 2565              	.L710:
 2566 003c 01C08CE2 		add	ip, ip, #1
 2567 0040 50ECA0E1 		asr	lr, r0, ip
 2568 0044 01001EE3 		tst	lr, #1
 2569 0048 FBFFFF0A 		beq	.L710
 2570 004c 6FC04CE2 		sub	ip, ip, #111
 2571 0050 7CC0EFE6 		uxtb	ip, ip
 2572              	.L709:
 2573 0054 2258A0E1 		lsr	r5, r2, #16
 2574 0058 224CA0E1 		lsr	r4, r2, #24
 2575 005c 23E4A0E1 		lsr	lr, r3, #8
 2576 0060 2274A0E1 		lsr	r7, r2, #8
 2577 0064 2368A0E1 		lsr	r6, r3, #16
 2578 0068 0420C1E5 		strb	r2, [r1, #4]
 2579 006c 0720A0E3 		mov	r2, #7
 2580 0070 0830C1E5 		strb	r3, [r1, #8]
 2581 0074 0000A0E3 		mov	r0, #0
 2582 0078 0130A0E3 		mov	r3, #1
 2583 007c 15C0C1E5 		strb	ip, [r1, #21]
 2584 0080 0FC0E0E3 		mvn	ip, #15
 2585 0084 0650C1E5 		strb	r5, [r1, #6]
 2586 0088 7F50E0E3 		mvn	r5, #127
 2587 008c 0740C1E5 		strb	r4, [r1, #7]
 2588 0090 0340A0E3 		mov	r4, #3
 2589 0094 09E0C1E5 		strb	lr, [r1, #9]
 2590 0098 00E0E0E3 		mvn	lr, #0
 2591 009c 0020C1E5 		strb	r2, [r1]
 2592 00a0 0420A0E3 		mov	r2, #4
 2593 00a4 0570C1E5 		strb	r7, [r1, #5]
 2594 00a8 0A60C1E5 		strb	r6, [r1, #10]
 2595 00ac 0100C1E5 		strb	r0, [r1, #1]
 2596 00b0 0200C1E5 		strb	r0, [r1, #2]
 2597 00b4 0B00C1E5 		strb	r0, [r1, #11]
 2598 00b8 0C00C1E5 		strb	r0, [r1, #12]
 2599 00bc 0D00C1E5 		strb	r0, [r1, #13]
 2600 00c0 0E00C1E5 		strb	r0, [r1, #14]
 2601 00c4 0F00C1E5 		strb	r0, [r1, #15]
 2602 00c8 1000C1E5 		strb	r0, [r1, #16]
 2603 00cc 1200C1E5 		strb	r0, [r1, #18]
 2604 00d0 1400C1E5 		strb	r0, [r1, #20]
 2605 00d4 1B00C1E5 		strb	r0, [r1, #27]
 2606 00d8 1C00C1E5 		strb	r0, [r1, #28]
 2607 00dc 1D00C1E5 		strb	r0, [r1, #29]
 2608 00e0 1E00C1E5 		strb	r0, [r1, #30]
 2609 00e4 1F00C1E5 		strb	r0, [r1, #31]
 2610 00e8 0330C1E5 		strb	r3, [r1, #3]
 2611 00ec 1830C1E5 		strb	r3, [r1, #24]
 2612 00f0 1930C1E5 		strb	r3, [r1, #25]
 2613 00f4 1150C1E5 		strb	r5, [r1, #17]
 2614 00f8 1340C1E5 		strb	r4, [r1, #19]
 2615 00fc 16E0C1E5 		strb	lr, [r1, #22]
 2616 0100 17C0C1E5 		strb	ip, [r1, #23]
 2617 0104 1A20C1E5 		strb	r2, [r1, #26]
 2618 0108 F080BDE8 		pop	{r4, r5, r6, r7, pc}
 2619              	.L713:
 2620 010c 0000E0E3 		mvn	r0, #0
 2621 0110 1EFF2FE1 		bx	lr
 2622              	.L714:
 2623              	.L708:
 2624 0114 0000E0E3 		mvn	r0, #0
 2625 0118 F080BDE8 		pop	{r4, r5, r6, r7, pc}
 2626              	.L715:
 2627 011c 91C0A0E3 		mov	ip, #145
 2628 0120 CBFFFFEA 		b	.L709
 2630              		.section	.text.R_DK2_CORE_Start,"ax",%progbits
 2631              		.align	2
 2632              		.global	R_DK2_CORE_Start
 2633              		.syntax unified
 2634              		.arm
 2635              		.fpu neon
 2637              	R_DK2_CORE_Start:
 2638              		@ args = 0, pretend = 0, frame = 0
 2639              		@ frame_needed = 0, uses_anonymous_args = 0
 2640 0000 000050E3 		cmp	r0, #0
 2641 0004 5200000A 		beq	.L734
 2642 0008 C00010E3 		tst	r0, #192
 2643 000c 0130A013 		movne	r3, #1
 2644 0010 0030A003 		moveq	r3, #0
 2645 0014 000051E3 		cmp	r1, #0
 2646 0018 01308303 		orreq	r3, r3, #1
 2647 001c 000053E3 		cmp	r3, #0
 2648 0020 4B00001A 		bne	.L734
 2649 0024 0FC011E2 		ands	ip, r1, #15
 2650 0028 4900001A 		bne	.L734
 2651 002c 013010E2 		ands	r3, r0, #1
 2652 0030 30402DE9 		push	{r4, r5, lr}
 2653 0034 2C00001A 		bne	.L724
 2654              	.L725:
 2655 0038 013083E2 		add	r3, r3, #1
 2656 003c 5023A0E1 		asr	r2, r0, r3
 2657 0040 010012E3 		tst	r2, #1
 2658 0044 FBFFFF0A 		beq	.L725
 2659 0048 0140A0E3 		mov	r4, #1
 2660 004c FFEF0AE3 		movw	lr, #45055
 2661 0050 14C3A0E1 		lsl	ip, r4, r3
 2662 0054 FF2F08E3 		movw	r2, #36863
 2663 0058 025010E2 		ands	r5, r0, #2
 2664 005c FFEA4EE3 		movt	lr, 60159
 2665 0060 FF2A4EE3 		movt	r2, 60159
 2666 0064 FFCF0EE5 		str	ip, [lr, #-4095]
 2667 0068 FFCF02E5 		str	ip, [r2, #-4095]
 2668 006c 1100000A 		beq	.L726
 2669 0070 FF0F09E3 		movw	r0, #40959
 2670 0074 04C0A0E1 		mov	ip, r4
 2671 0078 FF0A4EE3 		movt	r0, 60159
 2672 007c 04C040E3 		movt	ip, 4
 2673 0080 00E0A0E3 		mov	lr, #0
 2674 0084 FFCD00E5 		str	ip, [r0, #-3583]
 2675 0088 BFEE02E5 		str	lr, [r2, #-3775]
 2676 008c B71E02E5 		str	r1, [r2, #-3767]
 2677 0090 BF4E02E5 		str	r4, [r2, #-3775]
 2678              	.L727:
 2679 0094 0120A0E3 		mov	r2, #1
 2680 0098 FF1F08E3 		movw	r1, #36863
 2681 009c 1233A0E1 		lsl	r3, r2, r3
 2682 00a0 FF1A4EE3 		movt	r1, 60159
 2683              	.L731:
 2684 00a4 FF2F11E5 		ldr	r2, [r1, #-4095]
 2685 00a8 030012E1 		tst	r2, r3
 2686 00ac FCFFFF0A 		beq	.L731
 2687 00b0 0000A0E3 		mov	r0, #0
 2688 00b4 3080BDE8 		pop	{r4, r5, pc}
 2689              	.L726:
 2690 00b8 04C010E2 		ands	ip, r0, #4
 2691 00bc 1B00001A 		bne	.L746
 2692 00c0 08E010E2 		ands	lr, r0, #8
 2693 00c4 2400000A 		beq	.L729
 2694 00c8 FF0F09E3 		movw	r0, #40959
 2695 00cc 01E0A0E3 		mov	lr, #1
 2696 00d0 FF0A4EE3 		movt	r0, 60159
 2697 00d4 04E040E3 		movt	lr, 4
 2698 00d8 FFEB00E5 		str	lr, [r0, #-3071]
 2699 00dc 3FCE02E5 		str	ip, [r2, #-3647]
 2700 00e0 371E02E5 		str	r1, [r2, #-3639]
 2701 00e4 3F4E02E5 		str	r4, [r2, #-3647]
 2702 00e8 E9FFFFEA 		b	.L727
 2703              	.L724:
 2704 00ec 0140A0E3 		mov	r4, #1
 2705 00f0 FF3F0AE3 		movw	r3, #45055
 2706 00f4 FF2F08E3 		movw	r2, #36863
 2707 00f8 FFEF09E3 		movw	lr, #40959
 2708 00fc 0400A0E1 		mov	r0, r4
 2709 0100 FF2A4EE3 		movt	r2, 60159
 2710 0104 FF3A4EE3 		movt	r3, 60159
 2711 0108 FFEA4EE3 		movt	lr, 60159
 2712 010c 044040E3 		movt	r4, 4
 2713 0110 FF0F03E5 		str	r0, [r3, #-4095]
 2714 0114 FF0F02E5 		str	r0, [r2, #-4095]
 2715 0118 0C30A0E1 		mov	r3, ip
 2716 011c FF4E0EE5 		str	r4, [lr, #-3839]
 2717 0120 FFCE02E5 		str	ip, [r2, #-3839]
 2718 0124 F71E02E5 		str	r1, [r2, #-3831]
 2719 0128 FF0E02E5 		str	r0, [r2, #-3839]
 2720 012c D8FFFFEA 		b	.L727
 2721              	.L746:
 2722 0130 FF0F09E3 		movw	r0, #40959
 2723 0134 01C0A0E3 		mov	ip, #1
 2724 0138 FF0A4EE3 		movt	r0, 60159
 2725 013c 04C040E3 		movt	ip, 4
 2726 0140 FFCC00E5 		str	ip, [r0, #-3327]
 2727 0144 7F5E02E5 		str	r5, [r2, #-3711]
 2728 0148 771E02E5 		str	r1, [r2, #-3703]
 2729 014c 7F4E02E5 		str	r4, [r2, #-3711]
 2730 0150 CFFFFFEA 		b	.L727
 2731              	.L734:
 2732              	.L723:
 2733 0154 0000E0E3 		mvn	r0, #0
 2734 0158 1EFF2FE1 		bx	lr
 2735              	.L729:
 2736 015c 10C010E2 		ands	ip, r0, #16
 2737 0160 0A00001A 		bne	.L747
 2738 0164 200010E3 		tst	r0, #32
 2739 0168 C9FFFF0A 		beq	.L727
 2740 016c FF0F09E3 		movw	r0, #40959
 2741 0170 01E0A0E3 		mov	lr, #1
 2742 0174 FF0A4EE3 		movt	r0, 60159
 2743 0178 04E040E3 		movt	lr, 4
 2744 017c FFE900E5 		str	lr, [r0, #-2559]
 2745 0180 BFCD02E5 		str	ip, [r2, #-3519]
 2746 0184 B71D02E5 		str	r1, [r2, #-3511]
 2747 0188 BF4D02E5 		str	r4, [r2, #-3519]
 2748 018c C0FFFFEA 		b	.L727
 2749              	.L747:
 2750 0190 FF0F09E3 		movw	r0, #40959
 2751 0194 01C0A0E3 		mov	ip, #1
 2752 0198 FF0A4EE3 		movt	r0, 60159
 2753 019c 04C040E3 		movt	ip, 4
 2754 01a0 FFCA00E5 		str	ip, [r0, #-2815]
 2755 01a4 FFED02E5 		str	lr, [r2, #-3583]
 2756 01a8 F71D02E5 		str	r1, [r2, #-3575]
 2757 01ac FF4D02E5 		str	r4, [r2, #-3583]
 2758 01b0 B7FFFFEA 		b	.L727
 2760              		.section	.text.R_DK2_CORE_Unload,"ax",%progbits
 2761              		.align	2
 2762              		.global	R_DK2_CORE_Unload
 2763              		.syntax unified
 2764              		.arm
 2765              		.fpu neon
 2767              	R_DK2_CORE_Unload:
 2768              		@ args = 0, pretend = 0, frame = 0
 2769              		@ frame_needed = 0, uses_anonymous_args = 0
 2770 0000 000050E3 		cmp	r0, #0
 2771 0004 3901000A 		beq	.L793
 2772 0008 3F30D0E3 		bics	r3, r0, #63
 2773 000c 3701001A 		bne	.L793
 2774 0010 00C000E3 		movw	ip, #:lower16:.LANCHOR0
 2775 0014 00C040E3 		movt	ip, #:upper16:.LANCHOR0
 2776 0018 0010DCE5 		ldrb	r1, [ip]	@ zero_extendqisi2
 2777 001c 0120D0E1 		bics	r2, r0, r1
 2778 0020 3201001A 		bne	.L793
 2779 0024 F0472DE9 		push	{r4, r5, r6, r7, r8, r9, r10, lr}
 2780 0028 01E010E2 		ands	lr, r0, #1
 2781 002c 0400001A 		bne	.L750
 2782 0030 0E30A0E1 		mov	r3, lr
 2783              	.L751:
 2784 0034 013083E2 		add	r3, r3, #1
 2785 0038 5023A0E1 		asr	r2, r0, r3
 2786 003c 010012E3 		tst	r2, #1
 2787 0040 FBFFFF0A 		beq	.L751
 2788              	.L750:
 2789 0044 0020A0E3 		mov	r2, #0
 2790              	.L752:
 2791 0048 012082E2 		add	r2, r2, #1
 2792 004c 024083E0 		add	r4, r3, r2
 2793 0050 5044B0E1 		asrs	r4, r0, r4
 2794 0054 FBFFFF1A 		bne	.L752
 2795 0058 060052E3 		cmp	r2, #6
 2796 005c 0F20A003 		moveq	r2, #15
 2797 0060 0200000A 		beq	.L753
 2798 0064 010052E3 		cmp	r2, #1
 2799 0068 0120A003 		moveq	r2, #1
 2800 006c 0320A013 		movne	r2, #3
 2801              	.L753:
 2802 0070 1233A0E1 		lsl	r3, r2, r3
 2803 0074 00005EE3 		cmp	lr, #0
 2804 0078 FF2F0AE3 		movw	r2, #45055
 2805 007c FF2A4EE3 		movt	r2, 60159
 2806 0080 DF3F02E5 		str	r3, [r2, #-4063]
 2807 0084 F200001A 		bne	.L754
 2808 0088 026010E2 		ands	r6, r0, #2
 2809 008c 2100000A 		beq	.L756
 2810              	.L755:
 2811 0090 FF3F08E3 		movw	r3, #36863
 2812 0094 0040A0E3 		mov	r4, #0
 2813 0098 FF3A4EE3 		movt	r3, 60159
 2814 009c 0320A0E1 		mov	r2, r3
 2815 00a0 BF4E03E5 		str	r4, [r3, #-3775]
 2816              	.L763:
 2817 00a4 BF3E12E5 		ldr	r3, [r2, #-3775]
 2818 00a8 020013E3 		tst	r3, #2
 2819 00ac FCFFFF1A 		bne	.L763
 2820 00b0 FF3F09E3 		movw	r3, #40959
 2821 00b4 0220A0E3 		mov	r2, #2
 2822 00b8 FF3A4EE3 		movt	r3, 60159
 2823 00bc 015100E3 		movw	r5, #257
 2824 00c0 082040E3 		movt	r2, 8
 2825 00c4 0340A0E1 		mov	r4, r3
 2826 00c8 FF5D03E5 		str	r5, [r3, #-3583]
 2827 00cc 015CA0E3 		mov	r5, #256
 2828 00d0 FF5D03E5 		str	r5, [r3, #-3583]
 2829              	.L764:
 2830 00d4 FF3D14E5 		ldr	r3, [r4, #-3583]
 2831 00d8 023003E0 		and	r3, r3, r2
 2832 00dc 020053E3 		cmp	r3, #2
 2833 00e0 FBFFFF0A 		beq	.L764
 2834 00e4 FF3F0AE3 		movw	r3, #45055
 2835 00e8 0220A0E3 		mov	r2, #2
 2836 00ec FF3A4EE3 		movt	r3, 60159
 2837 00f0 015100E3 		movw	r5, #257
 2838 00f4 082040E3 		movt	r2, 8
 2839 00f8 0340A0E1 		mov	r4, r3
 2840 00fc FF5D03E5 		str	r5, [r3, #-3583]
 2841 0100 015CA0E3 		mov	r5, #256
 2842 0104 FF5D03E5 		str	r5, [r3, #-3583]
 2843              	.L765:
 2844 0108 FF3D14E5 		ldr	r3, [r4, #-3583]
 2845 010c 023003E0 		and	r3, r3, r2
 2846 0110 020053E3 		cmp	r3, #2
 2847 0114 FBFFFF0A 		beq	.L765
 2848              	.L756:
 2849 0118 045010E2 		ands	r5, r0, #4
 2850 011c 2100000A 		beq	.L762
 2851 0120 FF3F08E3 		movw	r3, #36863
 2852 0124 0040A0E3 		mov	r4, #0
 2853 0128 FF3A4EE3 		movt	r3, 60159
 2854 012c 0320A0E1 		mov	r2, r3
 2855 0130 7F4E03E5 		str	r4, [r3, #-3711]
 2856              	.L768:
 2857 0134 7F3E12E5 		ldr	r3, [r2, #-3711]
 2858 0138 020013E3 		tst	r3, #2
 2859 013c FCFFFF1A 		bne	.L768
 2860 0140 FF3F09E3 		movw	r3, #40959
 2861 0144 0220A0E3 		mov	r2, #2
 2862 0148 FF3A4EE3 		movt	r3, 60159
 2863 014c 017100E3 		movw	r7, #257
 2864 0150 082040E3 		movt	r2, 8
 2865 0154 0340A0E1 		mov	r4, r3
 2866 0158 FF7C03E5 		str	r7, [r3, #-3327]
 2867 015c 017CA0E3 		mov	r7, #256
 2868 0160 FF7C03E5 		str	r7, [r3, #-3327]
 2869              	.L769:
 2870 0164 FF3C14E5 		ldr	r3, [r4, #-3327]
 2871 0168 023003E0 		and	r3, r3, r2
 2872 016c 020053E3 		cmp	r3, #2
 2873 0170 FBFFFF0A 		beq	.L769
 2874 0174 FF3F0AE3 		movw	r3, #45055
 2875 0178 0220A0E3 		mov	r2, #2
 2876 017c FF3A4EE3 		movt	r3, 60159
 2877 0180 017100E3 		movw	r7, #257
 2878 0184 082040E3 		movt	r2, 8
 2879 0188 0340A0E1 		mov	r4, r3
 2880 018c FF7C03E5 		str	r7, [r3, #-3327]
 2881 0190 017CA0E3 		mov	r7, #256
 2882 0194 FF7C03E5 		str	r7, [r3, #-3327]
 2883              	.L770:
 2884 0198 FF3C14E5 		ldr	r3, [r4, #-3327]
 2885 019c 023003E0 		and	r3, r3, r2
 2886 01a0 020053E3 		cmp	r3, #2
 2887 01a4 FBFFFF0A 		beq	.L770
 2888              	.L762:
 2889 01a8 084010E2 		ands	r4, r0, #8
 2890 01ac 2100000A 		beq	.L767
 2891 01b0 FF3F08E3 		movw	r3, #36863
 2892 01b4 0070A0E3 		mov	r7, #0
 2893 01b8 FF3A4EE3 		movt	r3, 60159
 2894 01bc 0320A0E1 		mov	r2, r3
 2895 01c0 3F7E03E5 		str	r7, [r3, #-3647]
 2896              	.L773:
 2897 01c4 3F3E12E5 		ldr	r3, [r2, #-3647]
 2898 01c8 020013E3 		tst	r3, #2
 2899 01cc FCFFFF1A 		bne	.L773
 2900 01d0 FF3F09E3 		movw	r3, #40959
 2901 01d4 0220A0E3 		mov	r2, #2
 2902 01d8 FF3A4EE3 		movt	r3, 60159
 2903 01dc 018100E3 		movw	r8, #257
 2904 01e0 082040E3 		movt	r2, 8
 2905 01e4 0370A0E1 		mov	r7, r3
 2906 01e8 FF8B03E5 		str	r8, [r3, #-3071]
 2907 01ec 018CA0E3 		mov	r8, #256
 2908 01f0 FF8B03E5 		str	r8, [r3, #-3071]
 2909              	.L774:
 2910 01f4 FF3B17E5 		ldr	r3, [r7, #-3071]
 2911 01f8 023003E0 		and	r3, r3, r2
 2912 01fc 020053E3 		cmp	r3, #2
 2913 0200 FBFFFF0A 		beq	.L774
 2914 0204 FF3F0AE3 		movw	r3, #45055
 2915 0208 0220A0E3 		mov	r2, #2
 2916 020c FF3A4EE3 		movt	r3, 60159
 2917 0210 018100E3 		movw	r8, #257
 2918 0214 082040E3 		movt	r2, 8
 2919 0218 0370A0E1 		mov	r7, r3
 2920 021c FF8B03E5 		str	r8, [r3, #-3071]
 2921 0220 018CA0E3 		mov	r8, #256
 2922 0224 FF8B03E5 		str	r8, [r3, #-3071]
 2923              	.L775:
 2924 0228 FF3B17E5 		ldr	r3, [r7, #-3071]
 2925 022c 023003E0 		and	r3, r3, r2
 2926 0230 020053E3 		cmp	r3, #2
 2927 0234 FBFFFF0A 		beq	.L775
 2928              	.L767:
 2929 0238 102010E2 		ands	r2, r0, #16
 2930 023c 2100000A 		beq	.L772
 2931 0240 FF3F08E3 		movw	r3, #36863
 2932 0244 0080A0E3 		mov	r8, #0
 2933 0248 FF3A4EE3 		movt	r3, 60159
 2934 024c 0370A0E1 		mov	r7, r3
 2935 0250 FF8D03E5 		str	r8, [r3, #-3583]
 2936              	.L778:
 2937 0254 FF3D17E5 		ldr	r3, [r7, #-3583]
 2938 0258 020013E3 		tst	r3, #2
 2939 025c FCFFFF1A 		bne	.L778
 2940 0260 FF3F09E3 		movw	r3, #40959
 2941 0264 0270A0E3 		mov	r7, #2
 2942 0268 FF3A4EE3 		movt	r3, 60159
 2943 026c 019100E3 		movw	r9, #257
 2944 0270 087040E3 		movt	r7, 8
 2945 0274 0380A0E1 		mov	r8, r3
 2946 0278 FF9A03E5 		str	r9, [r3, #-2815]
 2947 027c 019CA0E3 		mov	r9, #256
 2948 0280 FF9A03E5 		str	r9, [r3, #-2815]
 2949              	.L779:
 2950 0284 FF3A18E5 		ldr	r3, [r8, #-2815]
 2951 0288 073003E0 		and	r3, r3, r7
 2952 028c 020053E3 		cmp	r3, #2
 2953 0290 FBFFFF0A 		beq	.L779
 2954 0294 FF3F0AE3 		movw	r3, #45055
 2955 0298 0270A0E3 		mov	r7, #2
 2956 029c FF3A4EE3 		movt	r3, 60159
 2957 02a0 019100E3 		movw	r9, #257
 2958 02a4 087040E3 		movt	r7, 8
 2959 02a8 0380A0E1 		mov	r8, r3
 2960 02ac FF9A03E5 		str	r9, [r3, #-2815]
 2961 02b0 019CA0E3 		mov	r9, #256
 2962 02b4 FF9A03E5 		str	r9, [r3, #-2815]
 2963              	.L780:
 2964 02b8 FF3A18E5 		ldr	r3, [r8, #-2815]
 2965 02bc 073003E0 		and	r3, r3, r7
 2966 02c0 020053E3 		cmp	r3, #2
 2967 02c4 FBFFFF0A 		beq	.L780
 2968              	.L772:
 2969 02c8 207010E2 		ands	r7, r0, #32
 2970 02cc 2100000A 		beq	.L777
 2971 02d0 FF3F08E3 		movw	r3, #36863
 2972 02d4 0090A0E3 		mov	r9, #0
 2973 02d8 FF3A4EE3 		movt	r3, 60159
 2974 02dc 0380A0E1 		mov	r8, r3
 2975 02e0 BF9D03E5 		str	r9, [r3, #-3519]
 2976              	.L783:
 2977 02e4 BF3D18E5 		ldr	r3, [r8, #-3519]
 2978 02e8 020013E3 		tst	r3, #2
 2979 02ec FCFFFF1A 		bne	.L783
 2980 02f0 FF3F09E3 		movw	r3, #40959
 2981 02f4 0280A0E3 		mov	r8, #2
 2982 02f8 FF3A4EE3 		movt	r3, 60159
 2983 02fc 01A100E3 		movw	r10, #257
 2984 0300 088040E3 		movt	r8, 8
 2985 0304 0390A0E1 		mov	r9, r3
 2986 0308 FFA903E5 		str	r10, [r3, #-2559]
 2987 030c 01ACA0E3 		mov	r10, #256
 2988 0310 FFA903E5 		str	r10, [r3, #-2559]
 2989              	.L784:
 2990 0314 FF3919E5 		ldr	r3, [r9, #-2559]
 2991 0318 083003E0 		and	r3, r3, r8
 2992 031c 020053E3 		cmp	r3, #2
 2993 0320 FBFFFF0A 		beq	.L784
 2994 0324 FF3F0AE3 		movw	r3, #45055
 2995 0328 0280A0E3 		mov	r8, #2
 2996 032c FF3A4EE3 		movt	r3, 60159
 2997 0330 01A100E3 		movw	r10, #257
 2998 0334 088040E3 		movt	r8, 8
 2999 0338 0390A0E1 		mov	r9, r3
 3000 033c FFA903E5 		str	r10, [r3, #-2559]
 3001 0340 01ACA0E3 		mov	r10, #256
 3002 0344 FFA903E5 		str	r10, [r3, #-2559]
 3003              	.L785:
 3004 0348 FF3919E5 		ldr	r3, [r9, #-2559]
 3005 034c 083003E0 		and	r3, r3, r8
 3006 0350 020053E3 		cmp	r3, #2
 3007 0354 FBFFFF0A 		beq	.L785
 3008              	.L777:
 3009 0358 FF3F0DE3 		movw	r3, #57343
 3010 035c 008880E1 		orr	r8, r0, r0, lsl #16
 3011 0360 FF3A4EE3 		movt	r3, 60159
 3012 0364 FF9713E5 		ldr	r9, [r3, #-2047]
 3013 0368 00005EE3 		cmp	lr, #0
 3014 036c 08E089E1 		orr	lr, r9, r8
 3015 0370 FFE703E5 		str	lr, [r3, #-2047]
 3016 0374 FF3F0413 		movwne	r3, #20479
 3017 0378 01E0A013 		movne	lr, #1
 3018 037c FD3A4E13 		movtne	r3, 60157
 3019 0380 9FEF0315 		strne	lr, [r3, #-3999]
 3020              	.L782:
 3021 0384 000056E3 		cmp	r6, #0
 3022 0388 FF3F0413 		movwne	r3, #20479
 3023 038c 01E0A013 		movne	lr, #1
 3024 0390 FD3A4E13 		movtne	r3, 60157
 3025 0394 97EF0315 		strne	lr, [r3, #-3991]
 3026 0398 000055E3 		cmp	r5, #0
 3027 039c FF3F0413 		movwne	r3, #20479
 3028 03a0 01E0A013 		movne	lr, #1
 3029 03a4 FD3A4E13 		movtne	r3, 60157
 3030 03a8 8FEF0315 		strne	lr, [r3, #-3983]
 3031 03ac 000054E3 		cmp	r4, #0
 3032 03b0 FF3F0413 		movwne	r3, #20479
 3033 03b4 01E0A013 		movne	lr, #1
 3034 03b8 FD3A4E13 		movtne	r3, 60157
 3035 03bc FF4F04E3 		movw	r4, #20479
 3036 03c0 87EF0315 		strne	lr, [r3, #-3975]
 3037 03c4 000052E3 		cmp	r2, #0
 3038 03c8 FF3F0413 		movwne	r3, #20479
 3039 03cc 0120A013 		movne	r2, #1
 3040 03d0 FD3A4E13 		movtne	r3, 60157
 3041 03d4 FD4A4EE3 		movt	r4, 60157
 3042 03d8 7F2F0315 		strne	r2, [r3, #-3967]
 3043 03dc 000057E3 		cmp	r7, #0
 3044 03e0 FF3F0413 		movwne	r3, #20479
 3045 03e4 0120A013 		movne	r2, #1
 3046 03e8 FD3A4E13 		movtne	r3, 60157
 3047 03ec 00E000E3 		movw	lr, #:lower16:.LANCHOR1
 3048 03f0 772F0315 		strne	r2, [r3, #-3959]
 3049 03f4 FF2F0DE3 		movw	r2, #57343
 3050 03f8 FF2A4EE3 		movt	r2, 60159
 3051 03fc 0030E0E1 		mvn	r3, r0
 3052 0400 EF5712E5 		ldr	r5, [r2, #-2031]
 3053 0404 7330EFE6 		uxtb	r3, r3
 3054 0408 00E040E3 		movt	lr, #:upper16:.LANCHOR1
 3055 040c 031001E0 		and	r1, r1, r3
 3056 0410 0850C5E1 		bic	r5, r5, r8
 3057 0414 000051E3 		cmp	r1, #0
 3058 0418 EF5702E5 		str	r5, [r2, #-2031]
 3059 041c 0F2F14E5 		ldr	r2, [r4, #-3855]
 3060 0420 C020C2E3 		bic	r2, r2, #192
 3061 0424 000082E1 		orr	r0, r2, r0
 3062 0428 0F0F04E5 		str	r0, [r4, #-3855]
 3063 042c 0020DEE5 		ldrb	r2, [lr]	@ zero_extendqisi2
 3064 0430 0010CCE5 		strb	r1, [ip]
 3065 0434 023003E0 		and	r3, r3, r2
 3066 0438 0030CEE5 		strb	r3, [lr]
 3067 043c 2900001A 		bne	.L797
 3068 0440 003000E3 		movw	r3, #:lower16:.LANCHOR2
 3069 0444 0100A0E1 		mov	r0, r1
 3070 0448 003040E3 		movt	r3, #:upper16:.LANCHOR2
 3071 044c 001083E5 		str	r1, [r3]
 3072 0450 F087BDE8 		pop	{r4, r5, r6, r7, r8, r9, r10, pc}
 3073              	.L754:
 3074 0454 FF3F08E3 		movw	r3, #36863
 3075 0458 0040A0E3 		mov	r4, #0
 3076 045c FF3A4EE3 		movt	r3, 60159
 3077 0460 0320A0E1 		mov	r2, r3
 3078 0464 FF4E03E5 		str	r4, [r3, #-3839]
 3079              	.L757:
 3080 0468 FF3E12E5 		ldr	r3, [r2, #-3839]
 3081 046c 020013E3 		tst	r3, #2
 3082 0470 FCFFFF1A 		bne	.L757
 3083 0474 FF3F09E3 		movw	r3, #40959
 3084 0478 0220A0E3 		mov	r2, #2
 3085 047c FF3A4EE3 		movt	r3, 60159
 3086 0480 015100E3 		movw	r5, #257
 3087 0484 082040E3 		movt	r2, 8
 3088 0488 0340A0E1 		mov	r4, r3
 3089 048c FF5E03E5 		str	r5, [r3, #-3839]
 3090 0490 015CA0E3 		mov	r5, #256
 3091 0494 FF5E03E5 		str	r5, [r3, #-3839]
 3092              	.L758:
 3093 0498 FF3E14E5 		ldr	r3, [r4, #-3839]
 3094 049c 023003E0 		and	r3, r3, r2
 3095 04a0 020053E3 		cmp	r3, #2
 3096 04a4 FBFFFF0A 		beq	.L758
 3097 04a8 FF3F0AE3 		movw	r3, #45055
 3098 04ac 0220A0E3 		mov	r2, #2
 3099 04b0 FF3A4EE3 		movt	r3, 60159
 3100 04b4 015100E3 		movw	r5, #257
 3101 04b8 082040E3 		movt	r2, 8
 3102 04bc 0340A0E1 		mov	r4, r3
 3103 04c0 FF5E03E5 		str	r5, [r3, #-3839]
 3104 04c4 015CA0E3 		mov	r5, #256
 3105 04c8 FF5E03E5 		str	r5, [r3, #-3839]
 3106              	.L759:
 3107 04cc FF3E14E5 		ldr	r3, [r4, #-3839]
 3108 04d0 023003E0 		and	r3, r3, r2
 3109 04d4 020053E3 		cmp	r3, #2
 3110 04d8 FBFFFF0A 		beq	.L759
 3111 04dc 026010E2 		ands	r6, r0, #2
 3112 04e0 EAFEFF1A 		bne	.L755
 3113 04e4 0BFFFFEA 		b	.L756
 3114              	.L797:
 3115              	.L749:
 3116 04e8 0000A0E3 		mov	r0, #0
 3117 04ec F087BDE8 		pop	{r4, r5, r6, r7, r8, r9, r10, pc}
 3118              	.L793:
 3119 04f0 0000E0E3 		mvn	r0, #0
 3120 04f4 1EFF2FE1 		bx	lr
 3122              		.section	.text.R_DK2_CORE_GetInt,"ax",%progbits
 3123              		.align	2
 3124              		.global	R_DK2_CORE_GetInt
 3125              		.syntax unified
 3126              		.arm
 3127              		.fpu neon
 3129              	R_DK2_CORE_GetInt:
 3130              		@ args = 0, pretend = 0, frame = 8
 3131              		@ frame_needed = 0, uses_anonymous_args = 0
 3132              		@ link register save eliminated.
 3133 0000 FF3F0AE3 		movw	r3, #45055
 3134 0004 08D04DE2 		sub	sp, sp, #8
 3135 0008 FF3A4EE3 		movt	r3, 60159
 3136 000c FF0F13E5 		ldr	r0, [r3, #-4095]
 3137 0010 3F0000E2 		and	r0, r0, #63
 3138 0014 FF0F03E5 		str	r0, [r3, #-4095]
 3139 0018 0008A0E1 		lsl	r0, r0, #16
 3140 001c FF3F13E5 		ldr	r3, [r3, #-4095]
 3141 0020 04308DE5 		str	r3, [sp, #4]
 3142 0024 08D08DE2 		add	sp, sp, #8
 3143              		@ sp needed
 3144 0028 1EFF2FE1 		bx	lr
 3146              		.section	.text.R_DK2_CORE_GetVersion,"ax",%progbits
 3147              		.align	2
 3148              		.global	R_DK2_CORE_GetVersion
 3149              		.syntax unified
 3150              		.arm
 3151              		.fpu neon
 3153              	R_DK2_CORE_GetVersion:
 3154              		@ args = 0, pretend = 0, frame = 0
 3155              		@ frame_needed = 0, uses_anonymous_args = 0
 3156              		@ link register save eliminated.
 3157 0000 050900E3 		movw	r0, #2309
 3158 0004 1EFF2FE1 		bx	lr
 3160              		.section	.bss.activated_tiles,"aw",%nobits
 3161              		.set	.LANCHOR1,. + 0
 3164              	activated_tiles:
 3165 0000 00       		.space	1
 3166              		.section	.bss.current_tilepat,"aw",%nobits
 3167              		.align	2
 3168              		.set	.LANCHOR2,. + 0
 3171              	current_tilepat:
 3172 0000 00000000 		.space	4
 3173              		.section	.bss.disc,"aw",%nobits
 3174              		.align	4
 3177              	disc:
 3178 0000 00000000 		.space	192
 3178      00000000 
 3178      00000000 
 3178      00000000 
 3178      00000000 
 3179              		.section	.bss.loaded_tiles,"aw",%nobits
 3180              		.set	.LANCHOR0,. + 0
 3183              	loaded_tiles:
 3184 0000 00       		.space	1
 3185              		.ident	"GCC: (GNU Tools for ARM Embedded Processors 6-2017-q2-update) 6.3.1 20170620 (release) [AR