   1              		.cpu cortex-a9
   2              		.eabi_attribute 28, 1
   3              		.eabi_attribute 20, 1
   4              		.eabi_attribute 21, 1
   5              		.eabi_attribute 23, 3
   6              		.eabi_attribute 24, 1
   7              		.eabi_attribute 25, 1
   8              		.eabi_attribute 26, 1
   9              		.eabi_attribute 30, 2
  10              		.eabi_attribute 34, 0
  11              		.eabi_attribute 18, 4
  12              		.file	"arm_fully_connected_mat_q7_vec_q15.c"
  13              		.section	.text.arm_fully_connected_mat_q7_vec_q15,"ax",%progbits
  14              		.align	2
  15              		.global	arm_fully_connected_mat_q7_vec_q15
  16              		.syntax unified
  17              		.arm
  18              		.fpu neon
  20              	arm_fully_connected_mat_q7_vec_q15:
  21              		@ args = 20, pretend = 0, frame = 88
  22              		@ frame_needed = 0, uses_anonymous_args = 0
  23 0000 F04F2DE9 		push	{r4, r5, r6, r7, r8, r9, r10, fp, lr}
  24 0004 5CD04DE2 		sub	sp, sp, #92
  25 0008 4C308DE5 		str	r3, [sp, #76]
  26 000c A330B0E1 		lsrs	r3, r3, #1
  27 0010 14208DE5 		str	r2, [sp, #20]
  28 0014 03C0A0E1 		mov	ip, r3
  29 0018 48308DE5 		str	r3, [sp, #72]
  30 001c 0230A0E1 		mov	r3, r2
  31 0020 B028DDE1 		ldrh	r2, [sp, #128]
  32 0024 10008DE5 		str	r0, [sp, #16]
  33 0028 08108DE5 		str	r1, [sp, #8]
  34 002c 28208DE5 		str	r2, [sp, #40]
  35 0030 B428DDE1 		ldrh	r2, [sp, #132]
  36 0034 1C208DE5 		str	r2, [sp, #28]
  37 0038 9C00000A 		beq	.L2
  38 003c 0210A0E1 		mov	r1, r2
  39 0040 2321A0E1 		lsr	r2, r3, #2
  40 0044 033003E2 		and	r3, r3, #3
  41 0048 20C08DE5 		str	ip, [sp, #32]
  42 004c 02E0A0E1 		mov	lr, r2
  43 0050 38208DE5 		str	r2, [sp, #56]
  44 0054 0120A0E3 		mov	r2, #1
  45 0058 3C308DE5 		str	r3, [sp, #60]
  46 005c 1221A0E1 		lsl	r2, r2, r1
  47 0060 0310A0E1 		mov	r1, r3
  48 0064 01304EE2 		sub	r3, lr, #1
  49 0068 7330FFE6 		uxth	r3, r3
  50 006c A220A0E1 		lsr	r2, r2, #1
  51 0070 011041E2 		sub	r1, r1, #1
  52 0074 013083E2 		add	r3, r3, #1
  53 0078 34208DE5 		str	r2, [sp, #52]
  54 007c 7120FFE6 		uxth	r2, r1
  55 0080 0311A0E1 		lsl	r1, r3, #2
  56 0084 833180E0 		add	r3, r0, r3, lsl #3
  57 0088 2C208DE5 		str	r2, [sp, #44]
  58 008c 44308DE5 		str	r3, [sp, #68]
  59 0090 0229A0E3 		mov	r2, #32768
  60 0094 88309DE5 		ldr	r3, [sp, #136]
  61 0098 FF2F4FE3 		movt	r2, 65535
  62 009c 30108DE5 		str	r1, [sp, #48]
  63 00a0 40208DE5 		str	r2, [sp, #64]
  64 00a4 023083E2 		add	r3, r3, #2
  65 00a8 18308DE5 		str	r3, [sp, #24]
  66 00ac 8C309DE5 		ldr	r3, [sp, #140]
  67 00b0 043083E2 		add	r3, r3, #4
  68 00b4 24308DE5 		str	r3, [sp, #36]
  69              	.L8:
  70 00b8 38209DE5 		ldr	r2, [sp, #56]
  71 00bc 18309DE5 		ldr	r3, [sp, #24]
  72 00c0 08A09DE5 		ldr	r10, [sp, #8]
  73 00c4 000052E3 		cmp	r2, #0
  74 00c8 14209DE5 		ldr	r2, [sp, #20]
  75 00cc D26053E1 		ldrsb	r6, [r3, #-2]
  76 00d0 D14053E1 		ldrsb	r4, [r3, #-1]
  77 00d4 02808AE0 		add	r8, r10, r2
  78 00d8 34309DE5 		ldr	r3, [sp, #52]
  79 00dc 28209DE5 		ldr	r2, [sp, #40]
  80 00e0 166283E0 		add	r6, r3, r6, lsl r2
  81 00e4 144283E0 		add	r4, r3, r4, lsl r2
  82 00e8 C100000A 		beq	.L14
  83 00ec 30309DE5 		ldr	r3, [sp, #48]
  84 00f0 10909DE5 		ldr	r9, [sp, #16]
  85 00f4 033088E0 		add	r3, r8, r3
  86 00f8 0C308DE5 		str	r3, [sp, #12]
  87              	.L4:
  88 00fc 0420A0E3 		mov	r2, #4
  89 0100 0A10A0E1 		mov	r1, r10
  90 0104 54008DE2 		add	r0, sp, #84
  91 0108 02A08AE0 		add	r10, r10, r2
  92 010c FEFFFFEB 		bl	memcpy
  93 0110 54C09DE5 		ldr	ip, [sp, #84]
  94 0114 0420A0E3 		mov	r2, #4
  95 0118 0810A0E1 		mov	r1, r8
  96 011c 54008DE2 		add	r0, sp, #84
  97              		.syntax divided
  98              	@ 1983 "C:/Renesas/e2studio_2021_01_workspace_RZA2M_ANPR/ANPR_RZA2M_GR_MANGO/src/tensorflow_lite/th
  99 0120 7C708FE6 		sxtb16 r7, ip
 100              	@ 0 "" 2
 101              		.arm
 102              		.syntax unified
 103 0124 028088E0 		add	r8, r8, r2
 104 0128 6CC4A0E1 		ror	ip, ip, #8
 105              		.syntax divided
 106              	@ 1983 "C:/Renesas/e2studio_2021_01_workspace_RZA2M_ANPR/ANPR_RZA2M_GR_MANGO/src/tensorflow_lite/th
 107 012c 7CC08FE6 		sxtb16 ip, ip
 108              	@ 0 "" 2
 109              	@ 578 "C:/Renesas/e2studio_2021_01_workspace_RZA2M_ANPR/ANPR_RZA2M_GR_MANGO/src/tensorflow_lite/thi
 110 0130 57388CE6 		pkhtb r3, ip, r7, asr #16
 111              	@ 0 "" 2
 112              	@ 579 "C:/Renesas/e2studio_2021_01_workspace_RZA2M_ANPR/ANPR_RZA2M_GR_MANGO/src/tensorflow_lite/thi
 113 0134 1C7887E6 		pkhbt r7, r7, ip, lsl #16
 114              	@ 0 "" 2
 115              		.arm
 116              		.syntax unified
 117 0138 04308DE5 		str	r3, [sp, #4]
 118 013c FEFFFFEB 		bl	memcpy
 119 0140 54509DE5 		ldr	r5, [sp, #84]
 120 0144 0420A0E3 		mov	r2, #4
 121 0148 0910A0E1 		mov	r1, r9
 122 014c 54008DE2 		add	r0, sp, #84
 123              		.syntax divided
 124              	@ 1983 "C:/Renesas/e2studio_2021_01_workspace_RZA2M_ANPR/ANPR_RZA2M_GR_MANGO/src/tensorflow_lite/th
 125 0150 75E08FE6 		sxtb16 lr, r5
 126              	@ 0 "" 2
 127              		.arm
 128              		.syntax unified
 129 0154 6554A0E1 		ror	r5, r5, #8
 130              		.syntax divided
 131              	@ 1983 "C:/Renesas/e2studio_2021_01_workspace_RZA2M_ANPR/ANPR_RZA2M_GR_MANGO/src/tensorflow_lite/th
 132 0158 75C08FE6 		sxtb16 ip, r5
 133              	@ 0 "" 2
 134              	@ 578 "C:/Renesas/e2studio_2021_01_workspace_RZA2M_ANPR/ANPR_RZA2M_GR_MANGO/src/tensorflow_lite/thi
 135 015c 5EB88CE6 		pkhtb fp, ip, lr, asr #16
 136              	@ 0 "" 2
 137              	@ 579 "C:/Renesas/e2studio_2021_01_workspace_RZA2M_ANPR/ANPR_RZA2M_GR_MANGO/src/tensorflow_lite/thi
 138 0160 1C588EE6 		pkhbt r5, lr, ip, lsl #16
 139              	@ 0 "" 2
 140              		.arm
 141              		.syntax unified
 142 0164 FEFFFFEB 		bl	memcpy
 143 0168 54209DE5 		ldr	r2, [sp, #84]
 144              		.syntax divided
 145              	@ 2038 "C:/Renesas/e2studio_2021_01_workspace_RZA2M_ANPR/ANPR_RZA2M_GR_MANGO/src/tensorflow_lite/th
 146 016c 126706E7 		smlad r6, r2, r7, r6
 147              	@ 0 "" 2
 148              	@ 2038 "C:/Renesas/e2studio_2021_01_workspace_RZA2M_ANPR/ANPR_RZA2M_GR_MANGO/src/tensorflow_lite/th
 149 0170 124504E7 		smlad r4, r2, r5, r4
 150              	@ 0 "" 2
 151              		.arm
 152              		.syntax unified
 153 0174 0420A0E3 		mov	r2, #4
 154 0178 54008DE2 		add	r0, sp, #84
 155 017c 021089E0 		add	r1, r9, r2
 156 0180 089089E2 		add	r9, r9, #8
 157 0184 FEFFFFEB 		bl	memcpy
 158 0188 54209DE5 		ldr	r2, [sp, #84]
 159 018c 04309DE5 		ldr	r3, [sp, #4]
 160              		.syntax divided
 161              	@ 2038 "C:/Renesas/e2studio_2021_01_workspace_RZA2M_ANPR/ANPR_RZA2M_GR_MANGO/src/tensorflow_lite/th
 162 0190 126306E7 		smlad r6, r2, r3, r6
 163              	@ 0 "" 2
 164              	@ 2038 "C:/Renesas/e2studio_2021_01_workspace_RZA2M_ANPR/ANPR_RZA2M_GR_MANGO/src/tensorflow_lite/th
 165 0194 124B04E7 		smlad r4, r2, fp, r4
 166              	@ 0 "" 2
 167              		.arm
 168              		.syntax unified
 169 0198 0C309DE5 		ldr	r3, [sp, #12]
 170 019c 030058E1 		cmp	r8, r3
 171 01a0 D5FFFF1A 		bne	.L4
 172 01a4 08309DE5 		ldr	r3, [sp, #8]
 173 01a8 30209DE5 		ldr	r2, [sp, #48]
 174 01ac 44109DE5 		ldr	r1, [sp, #68]
 175 01b0 023083E0 		add	r3, r3, r2
 176 01b4 08308DE5 		str	r3, [sp, #8]
 177              	.L3:
 178 01b8 3C309DE5 		ldr	r3, [sp, #60]
 179 01bc 000053E3 		cmp	r3, #0
 180 01c0 0F00000A 		beq	.L5
 181 01c4 08209DE5 		ldr	r2, [sp, #8]
 182 01c8 2C009DE5 		ldr	r0, [sp, #44]
 183 01cc 013042E2 		sub	r3, r2, #1
 184 01d0 00E082E0 		add	lr, r2, r0
 185              	.L6:
 186 01d4 D1C0F3E1 		ldrsb	ip, [r3, #1]!
 187 01d8 F220D1E0 		ldrsh	r2, [r1], #2
 188 01dc D100D8E0 		ldrsb	r0, [r8], #1
 189 01e0 0E0053E1 		cmp	r3, lr
 190 01e4 826C06E1 		smlabb	r6, r2, ip, r6
 191 01e8 824004E1 		smlabb	r4, r2, r0, r4
 192 01ec F8FFFF1A 		bne	.L6
 193 01f0 2C309DE5 		ldr	r3, [sp, #44]
 194 01f4 08209DE5 		ldr	r2, [sp, #8]
 195 01f8 013083E2 		add	r3, r3, #1
 196 01fc 033082E0 		add	r3, r2, r3
 197 0200 08308DE5 		str	r3, [sp, #8]
 198              	.L5:
 199 0204 1C309DE5 		ldr	r3, [sp, #28]
 200 0208 40109DE5 		ldr	r1, [sp, #64]
 201 020c 20209DE5 		ldr	r2, [sp, #32]
 202 0210 14C09DE5 		ldr	ip, [sp, #20]
 203 0214 5663A0E1 		asr	r6, r6, r3
 204 0218 5443A0E1 		asr	r4, r4, r3
 205 021c 010056E1 		cmp	r6, r1
 206 0220 012042E2 		sub	r2, r2, #1
 207 0224 FF3F07E3 		movw	r3, #32767
 208 0228 0160A0B1 		movlt	r6, r1
 209 022c 7220FFE6 		uxth	r2, r2
 210 0230 030056E1 		cmp	r6, r3
 211 0234 0360A0A1 		movge	r6, r3
 212 0238 0200A0E1 		mov	r0, r2
 213 023c 010054E1 		cmp	r4, r1
 214 0240 20208DE5 		str	r2, [sp, #32]
 215 0244 0120A0E1 		mov	r2, r1
 216 0248 0240A0B1 		movlt	r4, r2
 217 024c 18209DE5 		ldr	r2, [sp, #24]
 218 0250 08109DE5 		ldr	r1, [sp, #8]
 219 0254 030054E1 		cmp	r4, r3
 220 0258 0340A0A1 		movge	r4, r3
 221 025c 000050E3 		cmp	r0, #0
 222 0260 022082E2 		add	r2, r2, #2
 223 0264 18208DE5 		str	r2, [sp, #24]
 224 0268 0C1081E0 		add	r1, r1, ip
 225 026c 24209DE5 		ldr	r2, [sp, #36]
 226 0270 08108DE5 		str	r1, [sp, #8]
 227 0274 043082E2 		add	r3, r2, #4
 228 0278 B46042E1 		strh	r6, [r2, #-4]	@ movhi
 229 027c B24042E1 		strh	r4, [r2, #-2]	@ movhi
 230 0280 24308DE5 		str	r3, [sp, #36]
 231 0284 8BFFFF1A 		bne	.L8
 232 0288 48309DE5 		ldr	r3, [sp, #72]
 233 028c 88209DE5 		ldr	r2, [sp, #136]
 234 0290 013043E2 		sub	r3, r3, #1
 235 0294 7330FFE6 		uxth	r3, r3
 236 0298 013083E2 		add	r3, r3, #1
 237 029c 832082E0 		add	r2, r2, r3, lsl #1
 238 02a0 88208DE5 		str	r2, [sp, #136]
 239 02a4 8C209DE5 		ldr	r2, [sp, #140]
 240 02a8 033182E0 		add	r3, r2, r3, lsl #2
 241 02ac 8C308DE5 		str	r3, [sp, #140]
 242              	.L2:
 243 02b0 4C309DE5 		ldr	r3, [sp, #76]
 244 02b4 010013E3 		tst	r3, #1
 245 02b8 4A00000A 		beq	.L9
 246 02bc 1C209DE5 		ldr	r2, [sp, #28]
 247 02c0 0140A0E3 		mov	r4, #1
 248 02c4 88309DE5 		ldr	r3, [sp, #136]
 249 02c8 1442A0E1 		lsl	r4, r4, r2
 250 02cc 14209DE5 		ldr	r2, [sp, #20]
 251 02d0 D030D3E1 		ldrsb	r3, [r3]
 252 02d4 A440A0E1 		lsr	r4, r4, #1
 253 02d8 2291B0E1 		lsrs	r9, r2, #2
 254 02dc 28209DE5 		ldr	r2, [sp, #40]
 255 02e0 134284E0 		add	r4, r4, r3, lsl r2
 256 02e4 2700000A 		beq	.L10
 257 02e8 10709DE5 		ldr	r7, [sp, #16]
 258 02ec 0960A0E1 		mov	r6, r9
 259 02f0 08809DE5 		ldr	r8, [sp, #8]
 260              	.L11:
 261 02f4 0420A0E3 		mov	r2, #4
 262 02f8 0810A0E1 		mov	r1, r8
 263 02fc 54008DE2 		add	r0, sp, #84
 264 0300 028088E0 		add	r8, r8, r2
 265 0304 FEFFFFEB 		bl	memcpy
 266 0308 54C09DE5 		ldr	ip, [sp, #84]
 267 030c 0420A0E3 		mov	r2, #4
 268 0310 0710A0E1 		mov	r1, r7
 269 0314 54008DE2 		add	r0, sp, #84
 270              		.syntax divided
 271              	@ 1983 "C:/Renesas/e2studio_2021_01_workspace_RZA2M_ANPR/ANPR_RZA2M_GR_MANGO/src/tensorflow_lite/th
 272 0318 7CE08FE6 		sxtb16 lr, ip
 273              	@ 0 "" 2
 274              		.arm
 275              		.syntax unified
 276 031c 6CC4A0E1 		ror	ip, ip, #8
 277              		.syntax divided
 278              	@ 1983 "C:/Renesas/e2studio_2021_01_workspace_RZA2M_ANPR/ANPR_RZA2M_GR_MANGO/src/tensorflow_lite/th
 279 0320 7C308FE6 		sxtb16 r3, ip
 280              	@ 0 "" 2
 281              	@ 578 "C:/Renesas/e2studio_2021_01_workspace_RZA2M_ANPR/ANPR_RZA2M_GR_MANGO/src/tensorflow_lite/thi
 282 0324 5EA883E6 		pkhtb r10, r3, lr, asr #16
 283              	@ 0 "" 2
 284              	@ 579 "C:/Renesas/e2studio_2021_01_workspace_RZA2M_ANPR/ANPR_RZA2M_GR_MANGO/src/tensorflow_lite/thi
 285 0328 13588EE6 		pkhbt r5, lr, r3, lsl #16
 286              	@ 0 "" 2
 287              		.arm
 288              		.syntax unified
 289 032c FEFFFFEB 		bl	memcpy
 290 0330 54309DE5 		ldr	r3, [sp, #84]
 291              		.syntax divided
 292              	@ 2038 "C:/Renesas/e2studio_2021_01_workspace_RZA2M_ANPR/ANPR_RZA2M_GR_MANGO/src/tensorflow_lite/th
 293 0334 134504E7 		smlad r4, r3, r5, r4
 294              	@ 0 "" 2
 295              		.arm
 296              		.syntax unified
 297 0338 0420A0E3 		mov	r2, #4
 298 033c 54008DE2 		add	r0, sp, #84
 299 0340 021087E0 		add	r1, r7, r2
 300 0344 087087E2 		add	r7, r7, #8
 301 0348 FEFFFFEB 		bl	memcpy
 302 034c 54309DE5 		ldr	r3, [sp, #84]
 303              		.syntax divided
 304              	@ 2038 "C:/Renesas/e2studio_2021_01_workspace_RZA2M_ANPR/ANPR_RZA2M_GR_MANGO/src/tensorflow_lite/th
 305 0350 134A04E7 		smlad r4, r3, r10, r4
 306              	@ 0 "" 2
 307              		.arm
 308              		.syntax unified
 309 0354 016046E2 		sub	r6, r6, #1
 310 0358 7660FFE6 		uxth	r6, r6
 311 035c 000056E3 		cmp	r6, #0
 312 0360 E3FFFF1A 		bne	.L11
 313 0364 10309DE5 		ldr	r3, [sp, #16]
 314 0368 019049E2 		sub	r9, r9, #1
 315 036c 7990FFE6 		uxth	r9, r9
 316 0370 019089E2 		add	r9, r9, #1
 317 0374 893183E0 		add	r3, r3, r9, lsl #3
 318 0378 10308DE5 		str	r3, [sp, #16]
 319 037c 08309DE5 		ldr	r3, [sp, #8]
 320 0380 093183E0 		add	r3, r3, r9, lsl #2
 321 0384 08308DE5 		str	r3, [sp, #8]
 322              	.L10:
 323 0388 14309DE5 		ldr	r3, [sp, #20]
 324 038c 033013E2 		ands	r3, r3, #3
 325 0390 0F00000A 		beq	.L12
 326 0394 08009DE5 		ldr	r0, [sp, #8]
 327 0398 010053E3 		cmp	r3, #1
 328 039c 10C09DE5 		ldr	ip, [sp, #16]
 329 03a0 D020D0E1 		ldrsb	r2, [r0]
 330 03a4 B010DCE1 		ldrh	r1, [ip]
 331 03a8 814204E1 		smlabb	r4, r1, r2, r4
 332 03ac 0800000A 		beq	.L12
 333 03b0 020053E3 		cmp	r3, #2
 334 03b4 D120D0E1 		ldrsb	r2, [r0, #1]
 335 03b8 B230DCE1 		ldrh	r3, [ip, #2]
 336 03bc 0C10A011 		movne	r1, ip
 337 03c0 834204E1 		smlabb	r4, r3, r2, r4
 338 03c4 0020A011 		movne	r2, r0
 339 03c8 D230D211 		ldrsbne	r3, [r2, #2]
 340 03cc B420D111 		ldrhne	r2, [r1, #4]
 341 03d0 82430411 		smlabbne	r4, r2, r3, r4
 342              	.L12:
 343 03d4 1C309DE5 		ldr	r3, [sp, #28]
 344 03d8 5443A0E1 		asr	r4, r4, r3
 345 03dc 8C309DE5 		ldr	r3, [sp, #140]
 346 03e0 1440AFE6 		ssat	r4, #16, r4
 347 03e4 B040C3E1 		strh	r4, [r3]	@ movhi
 348              	.L9:
 349 03e8 0000A0E3 		mov	r0, #0
 350 03ec 5CD08DE2 		add	sp, sp, #92
 351              		@ sp needed
 352 03f0 F08FBDE8 		pop	{r4, r5, r6, r7, r8, r9, r10, fp, pc}
 353              	.L14:
 354 03f4 10109DE5 		ldr	r1, [sp, #16]
 355 03f8 6EFFFFEA 		b	.L3
 357              		.ident	"GCC: (GNU Tools for ARM Embedded Processors 6-2017-q2-update) 6.3.1 20170620 (release) [AR
DEFINED SYMBOLS
                            *ABS*:00000000 arm_fully_connected_mat_q7_vec_q15.c
C:\Users\a5050395\AppData\Local\Temp\ccvloWB4.s:14     .text.arm_fully_connected_mat_q7_vec_q15:00000000 $a
C:\Users\a5050395\AppData\Local\Temp\ccvloWB4.s:20     .text.arm_fully_connected_mat_q7_vec_q15:00000000 arm_fully_connected_mat_q7_vec_q15

UNDEFINED SYMBOLS
memcpy
