   1              		.cpu cortex-a9
   2              		.eabi_attribute 28, 1
   3              		.eabi_attribute 20, 1
   4              		.eabi_attribute 21, 1
   5              		.eabi_attribute 23, 3
   6              		.eabi_attribute 24, 1
   7              		.eabi_attribute 25, 1
   8              		.eabi_attribute 26, 1
   9              		.eabi_attribute 30, 2
  10              		.eabi_attribute 34, 0
  11              		.eabi_attribute 18, 4
  12              		.file	"arm_fully_connected_mat_q7_vec_q15_opt.c"
  13              		.section	.text.arm_fully_connected_mat_q7_vec_q15_opt,"ax",%progbits
  14              		.align	2
  15              		.global	arm_fully_connected_mat_q7_vec_q15_opt
  16              		.syntax unified
  17              		.arm
  18              		.fpu neon
  20              	arm_fully_connected_mat_q7_vec_q15_opt:
  21              		@ args = 20, pretend = 0, frame = 72
  22              		@ frame_needed = 0, uses_anonymous_args = 0
  23 0000 F04F2DE9 		push	{r4, r5, r6, r7, r8, r9, r10, fp, lr}
  24 0004 4CD04DE2 		sub	sp, sp, #76
  25 0008 0140A0E1 		mov	r4, r1
  26 000c 38208DE5 		str	r2, [sp, #56]
  27 0010 0210A0E1 		mov	r1, r2
  28 0014 B027DDE1 		ldrh	r2, [sp, #112]
  29 0018 3C308DE5 		str	r3, [sp, #60]
  30 001c 2331B0E1 		lsrs	r3, r3, #2
  31 0020 0C008DE5 		str	r0, [sp, #12]
  32 0024 18208DE5 		str	r2, [sp, #24]
  33 0028 B427DDE1 		ldrh	r2, [sp, #116]
  34 002c 34308DE5 		str	r3, [sp, #52]
  35 0030 08208DE5 		str	r2, [sp, #8]
  36 0034 8E00000A 		beq	.L2
  37 0038 02E0A0E1 		mov	lr, r2
  38 003c 03C0A0E1 		mov	ip, r3
  39 0040 0120A0E3 		mov	r2, #1
  40 0044 A130A0E1 		lsr	r3, r1, #1
  41 0048 122EA0E1 		lsl	r2, r2, lr
  42 004c 10C08DE5 		str	ip, [sp, #16]
  43 0050 0350A0E1 		mov	r5, r3
  44 0054 20308DE5 		str	r3, [sp, #32]
  45 0058 0239A0E3 		mov	r3, #32768
  46 005c A220A0E1 		lsr	r2, r2, #1
  47 0060 03E0A0E1 		mov	lr, r3
  48 0064 013045E2 		sub	r3, r5, #1
  49 0068 1C208DE5 		str	r2, [sp, #28]
  50 006c 7330FFE6 		uxth	r3, r3
  51 0070 0E20A0E1 		mov	r2, lr
  52 0074 FF2F4FE3 		movt	r2, 65535
  53 0078 013083E2 		add	r3, r3, #1
  54 007c 28208DE5 		str	r2, [sp, #40]
  55 0080 8321A0E1 		lsl	r2, r3, #3
  56 0084 033180E0 		add	r3, r0, r3, lsl #2
  57 0088 2C308DE5 		str	r3, [sp, #44]
  58 008c 013001E2 		and	r3, r1, #1
  59 0090 24308DE5 		str	r3, [sp, #36]
  60 0094 78309DE5 		ldr	r3, [sp, #120]
  61 0098 30208DE5 		str	r2, [sp, #48]
  62 009c 043083E2 		add	r3, r3, #4
  63 00a0 04308DE5 		str	r3, [sp, #4]
  64 00a4 7C309DE5 		ldr	r3, [sp, #124]
  65 00a8 103083E2 		add	r3, r3, #16
  66 00ac 14308DE5 		str	r3, [sp, #20]
  67              	.L6:
  68 00b0 04309DE5 		ldr	r3, [sp, #4]
  69 00b4 20209DE5 		ldr	r2, [sp, #32]
  70 00b8 D49053E1 		ldrsb	r9, [r3, #-4]
  71 00bc D38053E1 		ldrsb	r8, [r3, #-3]
  72 00c0 000052E3 		cmp	r2, #0
  73 00c4 D27053E1 		ldrsb	r7, [r3, #-2]
  74 00c8 18209DE5 		ldr	r2, [sp, #24]
  75 00cc D16053E1 		ldrsb	r6, [r3, #-1]
  76 00d0 1C309DE5 		ldr	r3, [sp, #28]
  77 00d4 199283E0 		add	r9, r3, r9, lsl r2
  78 00d8 188283E0 		add	r8, r3, r8, lsl r2
  79 00dc 177283E0 		add	r7, r3, r7, lsl r2
  80 00e0 166283E0 		add	r6, r3, r6, lsl r2
  81 00e4 CB00000A 		beq	.L16
  82 00e8 30309DE5 		ldr	r3, [sp, #48]
  83 00ec 0CB09DE5 		ldr	fp, [sp, #12]
  84 00f0 035084E0 		add	r5, r4, r3
  85              	.L4:
  86 00f4 0420A0E3 		mov	r2, #4
  87 00f8 0B10A0E1 		mov	r1, fp
  88 00fc 44008DE2 		add	r0, sp, #68
  89 0100 02B08BE0 		add	fp, fp, r2
  90 0104 FEFFFFEB 		bl	memcpy
  91 0108 0420A0E3 		mov	r2, #4
  92 010c 0410A0E1 		mov	r1, r4
  93 0110 44008DE2 		add	r0, sp, #68
  94 0114 44A09DE5 		ldr	r10, [sp, #68]
  95 0118 FEFFFFEB 		bl	memcpy
  96 011c 44309DE5 		ldr	r3, [sp, #68]
  97              		.syntax divided
  98              	@ 1983 "C:/Renesas/e2studio_2021_01_workspace_RZA2M_ANPR/ANPR_RZA2M_GR_MANGO/src/tensorflow_lite/th
  99 0120 73208FE6 		sxtb16 r2, r3
 100              	@ 0 "" 2
 101              		.arm
 102              		.syntax unified
 103 0124 6334A0E1 		ror	r3, r3, #8
 104              		.syntax divided
 105              	@ 1983 "C:/Renesas/e2studio_2021_01_workspace_RZA2M_ANPR/ANPR_RZA2M_GR_MANGO/src/tensorflow_lite/th
 106 0128 73308FE6 		sxtb16 r3, r3
 107              	@ 0 "" 2
 108              	@ 2038 "C:/Renesas/e2studio_2021_01_workspace_RZA2M_ANPR/ANPR_RZA2M_GR_MANGO/src/tensorflow_lite/th
 109 012c 129A09E7 		smlad r9, r2, r10, r9
 110              	@ 0 "" 2
 111              	@ 2038 "C:/Renesas/e2studio_2021_01_workspace_RZA2M_ANPR/ANPR_RZA2M_GR_MANGO/src/tensorflow_lite/th
 112 0130 138A08E7 		smlad r8, r3, r10, r8
 113              	@ 0 "" 2
 114              		.arm
 115              		.syntax unified
 116 0134 0420A0E3 		mov	r2, #4
 117 0138 44008DE2 		add	r0, sp, #68
 118 013c 021084E0 		add	r1, r4, r2
 119 0140 084084E2 		add	r4, r4, #8
 120 0144 FEFFFFEB 		bl	memcpy
 121 0148 44309DE5 		ldr	r3, [sp, #68]
 122              		.syntax divided
 123              	@ 1983 "C:/Renesas/e2studio_2021_01_workspace_RZA2M_ANPR/ANPR_RZA2M_GR_MANGO/src/tensorflow_lite/th
 124 014c 73208FE6 		sxtb16 r2, r3
 125              	@ 0 "" 2
 126              		.arm
 127              		.syntax unified
 128 0150 6334A0E1 		ror	r3, r3, #8
 129              		.syntax divided
 130              	@ 1983 "C:/Renesas/e2studio_2021_01_workspace_RZA2M_ANPR/ANPR_RZA2M_GR_MANGO/src/tensorflow_lite/th
 131 0154 73308FE6 		sxtb16 r3, r3
 132              	@ 0 "" 2
 133              	@ 2038 "C:/Renesas/e2studio_2021_01_workspace_RZA2M_ANPR/ANPR_RZA2M_GR_MANGO/src/tensorflow_lite/th
 134 0158 127A07E7 		smlad r7, r2, r10, r7
 135              	@ 0 "" 2
 136              	@ 2038 "C:/Renesas/e2studio_2021_01_workspace_RZA2M_ANPR/ANPR_RZA2M_GR_MANGO/src/tensorflow_lite/th
 137 015c 136A06E7 		smlad r6, r3, r10, r6
 138              	@ 0 "" 2
 139              		.arm
 140              		.syntax unified
 141 0160 040055E1 		cmp	r5, r4
 142 0164 E2FFFF1A 		bne	.L4
 143 0168 2C309DE5 		ldr	r3, [sp, #44]
 144              	.L3:
 145 016c 24209DE5 		ldr	r2, [sp, #36]
 146 0170 000052E3 		cmp	r2, #0
 147 0174 A500000A 		beq	.L17
 148 0178 F030D3E1 		ldrsh	r3, [r3]
 149 017c 044085E2 		add	r4, r5, #4
 150 0180 D0C0D5E1 		ldrsb	ip, [r5]
 151 0184 D100D5E1 		ldrsb	r0, [r5, #1]
 152 0188 D210D5E1 		ldrsb	r1, [r5, #2]
 153 018c D320D5E1 		ldrsb	r2, [r5, #3]
 154 0190 839C09E1 		smlabb	r9, r3, ip, r9
 155 0194 838008E1 		smlabb	r8, r3, r0, r8
 156 0198 837107E1 		smlabb	r7, r3, r1, r7
 157 019c 836206E1 		smlabb	r6, r3, r2, r6
 158              	.L5:
 159 01a0 08309DE5 		ldr	r3, [sp, #8]
 160 01a4 28109DE5 		ldr	r1, [sp, #40]
 161 01a8 10209DE5 		ldr	r2, [sp, #16]
 162 01ac 14009DE5 		ldr	r0, [sp, #20]
 163 01b0 5993A0E1 		asr	r9, r9, r3
 164 01b4 5883A0E1 		asr	r8, r8, r3
 165 01b8 5773A0E1 		asr	r7, r7, r3
 166 01bc 5663A0E1 		asr	r6, r6, r3
 167 01c0 00F0D0F5 		pld	[r0]
 168 01c4 010059E1 		cmp	r9, r1
 169 01c8 012042E2 		sub	r2, r2, #1
 170 01cc FF3F07E3 		movw	r3, #32767
 171 01d0 0190A0B1 		movlt	r9, r1
 172 01d4 7220FFE6 		uxth	r2, r2
 173 01d8 030059E1 		cmp	r9, r3
 174 01dc 0390A0A1 		movge	r9, r3
 175 01e0 02F0D0F5 		pld	[r0, #2]
 176 01e4 010058E1 		cmp	r8, r1
 177 01e8 02C0A0E1 		mov	ip, r2
 178 01ec 10208DE5 		str	r2, [sp, #16]
 179 01f0 0120A0E1 		mov	r2, r1
 180 01f4 0280A0B1 		movlt	r8, r2
 181 01f8 04109DE5 		ldr	r1, [sp, #4]
 182 01fc 030058E1 		cmp	r8, r3
 183 0200 B09140E1 		strh	r9, [r0, #-16]	@ movhi
 184 0204 0380A0A1 		movge	r8, r3
 185 0208 020057E1 		cmp	r7, r2
 186 020c 0270A0B1 		movlt	r7, r2
 187 0210 041081E2 		add	r1, r1, #4
 188 0214 030057E1 		cmp	r7, r3
 189 0218 04108DE5 		str	r1, [sp, #4]
 190 021c 0370A0A1 		movge	r7, r3
 191 0220 020056E1 		cmp	r6, r2
 192 0224 0260A0B1 		movlt	r6, r2
 193 0228 BE8040E1 		strh	r8, [r0, #-14]	@ movhi
 194 022c 030056E1 		cmp	r6, r3
 195 0230 BC7040E1 		strh	r7, [r0, #-12]	@ movhi
 196 0234 0360A0A1 		movge	r6, r3
 197 0238 00005CE3 		cmp	ip, #0
 198 023c 083080E2 		add	r3, r0, #8
 199 0240 BA6040E1 		strh	r6, [r0, #-10]	@ movhi
 200 0244 14308DE5 		str	r3, [sp, #20]
 201 0248 98FFFF1A 		bne	.L6
 202 024c 34309DE5 		ldr	r3, [sp, #52]
 203 0250 78209DE5 		ldr	r2, [sp, #120]
 204 0254 013043E2 		sub	r3, r3, #1
 205 0258 7330FFE6 		uxth	r3, r3
 206 025c 013083E2 		add	r3, r3, #1
 207 0260 032182E0 		add	r2, r2, r3, lsl #2
 208 0264 78208DE5 		str	r2, [sp, #120]
 209 0268 7C209DE5 		ldr	r2, [sp, #124]
 210 026c 833182E0 		add	r3, r2, r3, lsl #3
 211 0270 7C308DE5 		str	r3, [sp, #124]
 212              	.L2:
 213 0274 3C309DE5 		ldr	r3, [sp, #60]
 214 0278 032013E2 		ands	r2, r3, #3
 215 027c 5200000A 		beq	.L27
 216 0280 38109DE5 		ldr	r1, [sp, #56]
 217 0284 012042E2 		sub	r2, r2, #1
 218 0288 08C09DE5 		ldr	ip, [sp, #8]
 219 028c 02A9A0E3 		mov	r10, #32768
 220 0290 FFAF4FE3 		movt	r10, 65535
 221 0294 2131A0E1 		lsr	r3, r1, #2
 222 0298 031001E2 		and	r1, r1, #3
 223 029c 0100A0E1 		mov	r0, r1
 224 02a0 14108DE5 		str	r1, [sp, #20]
 225 02a4 0110A0E3 		mov	r1, #1
 226 02a8 10308DE5 		str	r3, [sp, #16]
 227 02ac 111CA0E1 		lsl	r1, r1, ip
 228 02b0 013043E2 		sub	r3, r3, #1
 229 02b4 7330FFE6 		uxth	r3, r3
 230 02b8 010040E2 		sub	r0, r0, #1
 231 02bc A110A0E1 		lsr	r1, r1, #1
 232 02c0 7000FFE6 		uxth	r0, r0
 233 02c4 04108DE5 		str	r1, [sp, #4]
 234 02c8 013083E2 		add	r3, r3, #1
 235 02cc 78109DE5 		ldr	r1, [sp, #120]
 236 02d0 20008DE5 		str	r0, [sp, #32]
 237 02d4 2C008DE5 		str	r0, [sp, #44]
 238 02d8 019041E2 		sub	r9, r1, #1
 239 02dc 7220F1E6 		uxtah	r2, r1, r2
 240 02e0 1C208DE5 		str	r2, [sp, #28]
 241 02e4 0321A0E1 		lsl	r2, r3, #2
 242 02e8 28208DE5 		str	r2, [sp, #40]
 243 02ec 0C209DE5 		ldr	r2, [sp, #12]
 244 02f0 833182E0 		add	r3, r2, r3, lsl #3
 245 02f4 24308DE5 		str	r3, [sp, #36]
 246              	.L13:
 247 02f8 10309DE5 		ldr	r3, [sp, #16]
 248 02fc D150F9E1 		ldrsb	r5, [r9, #1]!
 249 0300 18209DE5 		ldr	r2, [sp, #24]
 250 0304 000053E3 		cmp	r3, #0
 251 0308 04309DE5 		ldr	r3, [sp, #4]
 252 030c 155283E0 		add	r5, r3, r5, lsl r2
 253 0310 3C00000A 		beq	.L18
 254 0314 28309DE5 		ldr	r3, [sp, #40]
 255 0318 0C709DE5 		ldr	r7, [sp, #12]
 256 031c 038084E0 		add	r8, r4, r3
 257              	.L9:
 258 0320 0420A0E3 		mov	r2, #4
 259 0324 0410A0E1 		mov	r1, r4
 260 0328 44008DE2 		add	r0, sp, #68
 261 032c 024084E0 		add	r4, r4, r2
 262 0330 FEFFFFEB 		bl	memcpy
 263 0334 44C09DE5 		ldr	ip, [sp, #68]
 264 0338 0420A0E3 		mov	r2, #4
 265 033c 0710A0E1 		mov	r1, r7
 266 0340 44008DE2 		add	r0, sp, #68
 267              		.syntax divided
 268              	@ 1983 "C:/Renesas/e2studio_2021_01_workspace_RZA2M_ANPR/ANPR_RZA2M_GR_MANGO/src/tensorflow_lite/th
 269 0344 7CE08FE6 		sxtb16 lr, ip
 270              	@ 0 "" 2
 271              		.arm
 272              		.syntax unified
 273 0348 6CC4A0E1 		ror	ip, ip, #8
 274              		.syntax divided
 275              	@ 1983 "C:/Renesas/e2studio_2021_01_workspace_RZA2M_ANPR/ANPR_RZA2M_GR_MANGO/src/tensorflow_lite/th
 276 034c 7C308FE6 		sxtb16 r3, ip
 277              	@ 0 "" 2
 278              	@ 578 "C:/Renesas/e2studio_2021_01_workspace_RZA2M_ANPR/ANPR_RZA2M_GR_MANGO/src/tensorflow_lite/thi
 279 0350 5E6883E6 		pkhtb r6, r3, lr, asr #16
 280              	@ 0 "" 2
 281              	@ 579 "C:/Renesas/e2studio_2021_01_workspace_RZA2M_ANPR/ANPR_RZA2M_GR_MANGO/src/tensorflow_lite/thi
 282 0354 13B88EE6 		pkhbt fp, lr, r3, lsl #16
 283              	@ 0 "" 2
 284              		.arm
 285              		.syntax unified
 286 0358 FEFFFFEB 		bl	memcpy
 287 035c 44E09DE5 		ldr	lr, [sp, #68]
 288              		.syntax divided
 289              	@ 2038 "C:/Renesas/e2studio_2021_01_workspace_RZA2M_ANPR/ANPR_RZA2M_GR_MANGO/src/tensorflow_lite/th
 290 0360 1E5B05E7 		smlad r5, lr, fp, r5
 291              	@ 0 "" 2
 292              		.arm
 293              		.syntax unified
 294 0364 0420A0E3 		mov	r2, #4
 295 0368 44008DE2 		add	r0, sp, #68
 296 036c 021087E0 		add	r1, r7, r2
 297 0370 087087E2 		add	r7, r7, #8
 298 0374 FEFFFFEB 		bl	memcpy
 299 0378 44309DE5 		ldr	r3, [sp, #68]
 300              		.syntax divided
 301              	@ 2038 "C:/Renesas/e2studio_2021_01_workspace_RZA2M_ANPR/ANPR_RZA2M_GR_MANGO/src/tensorflow_lite/th
 302 037c 135605E7 		smlad r5, r3, r6, r5
 303              	@ 0 "" 2
 304              		.arm
 305              		.syntax unified
 306 0380 080054E1 		cmp	r4, r8
 307 0384 E5FFFF1A 		bne	.L9
 308 0388 24209DE5 		ldr	r2, [sp, #36]
 309              	.L8:
 310 038c 14309DE5 		ldr	r3, [sp, #20]
 311 0390 000053E3 		cmp	r3, #0
 312 0394 0F00001A 		bne	.L33
 313              	.L10:
 314 0398 08309DE5 		ldr	r3, [sp, #8]
 315 039c 5553A0E1 		asr	r5, r5, r3
 316 03a0 FF3F07E3 		movw	r3, #32767
 317 03a4 0A0055E1 		cmp	r5, r10
 318 03a8 0A50A0B1 		movlt	r5, r10
 319 03ac 030055E1 		cmp	r5, r3
 320 03b0 0350A0A1 		movge	r5, r3
 321 03b4 1C309DE5 		ldr	r3, [sp, #28]
 322 03b8 030059E1 		cmp	r9, r3
 323 03bc 7C309DE5 		ldr	r3, [sp, #124]
 324 03c0 B250C3E0 		strh	r5, [r3], #2	@ movhi
 325 03c4 7C308DE5 		str	r3, [sp, #124]
 326 03c8 CAFFFF1A 		bne	.L13
 327              	.L27:
 328 03cc 0000A0E3 		mov	r0, #0
 329 03d0 4CD08DE2 		add	sp, sp, #76
 330              		@ sp needed
 331 03d4 F08FBDE8 		pop	{r4, r5, r6, r7, r8, r9, r10, fp, pc}
 332              	.L33:
 333 03d8 2C109DE5 		ldr	r1, [sp, #44]
 334 03dc 013044E2 		sub	r3, r4, #1
 335 03e0 01C084E0 		add	ip, r4, r1
 336              	.L11:
 337 03e4 D110F3E1 		ldrsb	r1, [r3, #1]!
 338 03e8 B200D2E0 		ldrh	r0, [r2], #2
 339 03ec 03005CE1 		cmp	ip, r3
 340 03f0 805105E1 		smlabb	r5, r0, r1, r5
 341 03f4 FAFFFF1A 		bne	.L11
 342 03f8 20309DE5 		ldr	r3, [sp, #32]
 343 03fc 013083E2 		add	r3, r3, #1
 344 0400 034084E0 		add	r4, r4, r3
 345 0404 E3FFFFEA 		b	.L10
 346              	.L18:
 347 0408 0C209DE5 		ldr	r2, [sp, #12]
 348 040c DEFFFFEA 		b	.L8
 349              	.L17:
 350 0410 0540A0E1 		mov	r4, r5
 351 0414 61FFFFEA 		b	.L5
 352              	.L16:
 353 0418 0450A0E1 		mov	r5, r4
 354 041c 0C309DE5 		ldr	r3, [sp, #12]
 355 0420 51FFFFEA 		b	.L3
 357              		.ident	"GCC: (GNU Tools for ARM Embedded Processors 6-2017-q2-update) 6.3.1 20170620 (release) [AR
DEFINED SYMBOLS
                            *ABS*:00000000 arm_fully_connected_mat_q7_vec_q15_opt.c
C:\Users\a5050395\AppData\Local\Temp\ccUhjKHg.s:14     .text.arm_fully_connected_mat_q7_vec_q15_opt:00000000 $a
C:\Users\a5050395\AppData\Local\Temp\ccUhjKHg.s:20     .text.arm_fully_connected_mat_q7_vec_q15_opt:00000000 arm_fully_connected_mat_q7_vec_q15_opt

UNDEFINED SYMBOLS
memcpy
