   1              		.cpu cortex-a9
   2              		.eabi_attribute 28, 1
   3              		.eabi_attribute 20, 1
   4              		.eabi_attribute 21, 1
   5              		.eabi_attribute 23, 3
   6              		.eabi_attribute 24, 1
   7              		.eabi_attribute 25, 1
   8              		.eabi_attribute 26, 1
   9              		.eabi_attribute 30, 4
  10              		.eabi_attribute 34, 0
  11              		.eabi_attribute 18, 4
  12              		.file	"memory_helpers.cpp"
  13              		.global	__aeabi_uidiv
  14              		.section	.text._ZN6tflite14AlignPointerUpEPhj,"ax",%progbits
  15              		.align	2
  16              		.global	_ZN6tflite14AlignPointerUpEPhj
  17              		.syntax unified
  18              		.arm
  19              		.fpu neon
  21              	_ZN6tflite14AlignPointerUpEPhj:
  22              		.fnstart
  23              	.LFB6085:
  24              		@ args = 0, pretend = 0, frame = 0
  25              		@ frame_needed = 0, uses_anonymous_args = 0
  26 0000 013041E2 		sub	r3, r1, #1
  27 0004 10402DE9 		push	{r4, lr}
  28 0008 030080E0 		add	r0, r0, r3
  29 000c 0140A0E1 		mov	r4, r1
  30 0010 FEFFFFEB 		bl	__aeabi_uidiv
  31 0014 940000E0 		mul	r0, r4, r0
  32 0018 1080BDE8 		pop	{r4, pc}
  33              		.cantunwind
  34              		.fnend
  36              		.section	.text._ZN6tflite16AlignPointerDownEPhj,"ax",%progbits
  37              		.align	2
  38              		.global	_ZN6tflite16AlignPointerDownEPhj
  39              		.syntax unified
  40              		.arm
  41              		.fpu neon
  43              	_ZN6tflite16AlignPointerDownEPhj:
  44              		.fnstart
  45              	.LFB6086:
  46              		@ args = 0, pretend = 0, frame = 0
  47              		@ frame_needed = 0, uses_anonymous_args = 0
  48 0000 10402DE9 		push	{r4, lr}
  49 0004 0140A0E1 		mov	r4, r1
  50 0008 FEFFFFEB 		bl	__aeabi_uidiv
  51 000c 940000E0 		mul	r0, r4, r0
  52 0010 1080BDE8 		pop	{r4, pc}
  53              		.cantunwind
  54              		.fnend
  56              		.section	.text._ZN6tflite11AlignSizeUpEjj,"ax",%progbits
  57              		.align	2
  58              		.global	_ZN6tflite11AlignSizeUpEjj
  59              		.syntax unified
  60              		.arm
  61              		.fpu neon
  63              	_ZN6tflite11AlignSizeUpEjj:
  64              		.fnstart
  65              	.LFB6087:
  66              		@ args = 0, pretend = 0, frame = 0
  67              		@ frame_needed = 0, uses_anonymous_args = 0
  68 0000 010040E2 		sub	r0, r0, #1
  69 0004 10402DE9 		push	{r4, lr}
  70 0008 010080E0 		add	r0, r0, r1
  71 000c 0140A0E1 		mov	r4, r1
  72 0010 FEFFFFEB 		bl	__aeabi_uidiv
  73 0014 940000E0 		mul	r0, r4, r0
  74 0018 1080BDE8 		pop	{r4, pc}
  75              		.cantunwind
  76              		.fnend
  78              		.section	.text._ZN6tflite16TfLiteTypeSizeOfE10TfLiteTypePjPNS_13ErrorReporterE,"ax",%progbits
  79              		.align	2
  80              		.global	_ZN6tflite16TfLiteTypeSizeOfE10TfLiteTypePjPNS_13ErrorReporterE
  81              		.syntax unified
  82              		.arm
  83              		.fpu neon
  85              	_ZN6tflite16TfLiteTypeSizeOfE10TfLiteTypePjPNS_13ErrorReporterE:
  86              		.fnstart
  87              	.LFB6088:
  88              		@ args = 0, pretend = 0, frame = 0
  89              		@ frame_needed = 0, uses_anonymous_args = 0
  90 0000 013040E2 		sub	r3, r0, #1
  91 0004 080053E3 		cmp	r3, #8
  92 0008 03F19F97 		ldrls	pc, [pc, r3, asl #2]
  93 000c 120000EA 		b	.L8
  94              	.L10:
  95 0010 44000000 		.word	.L11
  96 0014 44000000 		.word	.L11
  97 0018 4C000000 		.word	.L14
  98 001c 54000000 		.word	.L16
  99 0020 5C000000 		.word	.L8
 100 0024 4C000000 		.word	.L14
 101 0028 34000000 		.word	.L15
 102 002c 54000000 		.word	.L16
 103 0030 4C000000 		.word	.L14
 104              	.L15:
 105 0034 0230A0E3 		mov	r3, #2
 106              	.L22:
 107 0038 003081E5 		str	r3, [r1]
 108 003c 0000A0E3 		mov	r0, #0
 109 0040 1EFF2FE1 		bx	lr
 110              	.L11:
 111 0044 0430A0E3 		mov	r3, #4
 112 0048 FAFFFFEA 		b	.L22
 113              	.L14:
 114 004c 0130A0E3 		mov	r3, #1
 115 0050 F8FFFFEA 		b	.L22
 116              	.L16:
 117 0054 0830A0E3 		mov	r3, #8
 118 0058 F6FFFFEA 		b	.L22
 119              	.L8:
 120 005c 70402DE9 		push	{r4, r5, r6, lr}
 121              		.save {r4, r5, r6, lr}
 122 0060 0250A0E1 		mov	r5, r2
 123 0064 0040A0E1 		mov	r4, r0
 124 0068 FEFFFFEB 		bl	TfLiteTypeGetName
 125 006c 0430A0E1 		mov	r3, r4
 126 0070 0020A0E1 		mov	r2, r0
 127 0074 0C109FE5 		ldr	r1, .L23
 128 0078 0500A0E1 		mov	r0, r5
 129 007c FEFFFFEB 		bl	_ZN6tflite13ErrorReporter6ReportEPKcz
 130 0080 0100A0E3 		mov	r0, #1
 131 0084 7080BDE8 		pop	{r4, r5, r6, pc}
 132              	.L24:
 133              		.align	2
 134              	.L23:
 135 0088 00000000 		.word	.LC0
 136              		.fnend
 138              		.section	.text._ZN6tflite22BytesRequiredForTensorERKNS_6TensorEPjS3_PNS_13ErrorReporterE,"ax",%pro
 139              		.align	2
 140              		.global	_ZN6tflite22BytesRequiredForTensorERKNS_6TensorEPjS3_PNS_13ErrorReporterE
 141              		.syntax unified
 142              		.arm
 143              		.fpu neon
 145              	_ZN6tflite22BytesRequiredForTensorERKNS_6TensorEPjS3_PNS_13ErrorReporterE:
 146              		.fnstart
 147              	.LFB6089:
 148              		@ args = 0, pretend = 0, frame = 8
 149              		@ frame_needed = 0, uses_anonymous_args = 0
 150 0000 F3412DE9 		push	{r0, r1, r4, r5, r6, r7, r8, lr}
 151              		.save {r4, r5, r6, r7, r8, lr}
 152              		.pad #8
 153 0004 0050A0E3 		mov	r5, #0
 154 0008 00E090E5 		ldr	lr, [r0]
 155 000c 0140A0E3 		mov	r4, #1
 156 0010 0EE040E0 		sub	lr, r0, lr
 157 0014 B060DEE1 		ldrh	r6, [lr]
 158              	.L29:
 159 0018 040056E3 		cmp	r6, #4
 160 001c B4C0DEC1 		ldrhgt	ip, [lr, #4]
 161 0020 00C0A0D3 		movle	ip, #0
 162 0024 00005CE3 		cmp	ip, #0
 163 0028 0C8080E0 		add	r8, r0, ip
 164 002c 2400000A 		beq	.L27
 165 0030 0C7090E7 		ldr	r7, [r0, ip]
 166 0034 07C088E0 		add	ip, r8, r7
 167 0038 077098E7 		ldr	r7, [r8, r7]
 168 003c 070055E1 		cmp	r5, r7
 169 0040 05C18C30 		addcc	ip, ip, r5, lsl #2
 170 0044 01508532 		addcc	r5, r5, #1
 171 0048 04C09C35 		ldrcc	ip, [ip, #4]
 172 004c 9C040430 		mulcc	r4, ip, r4
 173 0050 F0FFFF3A 		bcc	.L29
 174              	.L28:
 175 0054 060056E3 		cmp	r6, #6
 176 0058 00C0A0D3 		movle	ip, #0
 177 005c 020000DA 		ble	.L30
 178 0060 B6C0DEE1 		ldrh	ip, [lr, #6]
 179 0064 00005CE3 		cmp	ip, #0
 180 0068 DCC09011 		ldrsbne	ip, [r0, ip]
 181              	.L30:
 182 006c 0250A0E1 		mov	r5, r2
 183 0070 0170A0E1 		mov	r7, r1
 184 0074 0320A0E1 		mov	r2, r3
 185 0078 07108DE2 		add	r1, sp, #7
 186 007c 7C00EFE6 		uxtb	r0, ip
 187 0080 0360A0E1 		mov	r6, r3
 188 0084 FEFFFFEB 		bl	_ZN6tflite17ConvertTensorTypeENS_10TensorTypeEP10TfLiteTypePNS_13ErrorReporterE
 189 0088 000050E3 		cmp	r0, #0
 190 008c 0200000A 		beq	.L31
 191              	.L33:
 192 0090 0100A0E3 		mov	r0, #1
 193              	.L37:
 194 0094 08D08DE2 		add	sp, sp, #8
 195              		@ sp needed
 196 0098 F081BDE8 		pop	{r4, r5, r6, r7, r8, pc}
 197              	.L31:
 198 009c 0620A0E1 		mov	r2, r6
 199 00a0 0510A0E1 		mov	r1, r5
 200 00a4 0700DDE5 		ldrb	r0, [sp, #7]	@ zero_extendqisi2
 201 00a8 FEFFFFEB 		bl	_ZN6tflite16TfLiteTypeSizeOfE10TfLiteTypePjPNS_13ErrorReporterE
 202 00ac 000050E3 		cmp	r0, #0
 203 00b0 00309505 		ldreq	r3, [r5]
 204 00b4 94030400 		muleq	r4, r4, r3
 205 00b8 00408705 		streq	r4, [r7]
 206 00bc F4FFFF0A 		beq	.L37
 207 00c0 F2FFFFEA 		b	.L33
 208              	.L27:
 209 00c4 00309CE5 		ldr	r3, [ip]
 210 00c8 F000F0E7 		.inst	0xe7f000f0
 211              		.fnend
 213              		.weak	_ZN11flatbuffers25flatbuffer_version_stringE
 214              		.section	.data._ZN11flatbuffers25flatbuffer_version_stringE,"aw",%progbits
 215              		.align	2
 218              	_ZN11flatbuffers25flatbuffer_version_stringE:
 219 0000 00000000 		.word	.LC1
 220              		.section	.rodata._ZN6tflite16TfLiteTypeSizeOfE10TfLiteTypePjPNS_13ErrorReporterE.str1.1,"aMS",%pro
 221              	.LC0:
 222 0000 54797065 		.ascii	"Type %s (%d) not is not supported\000"
 222      20257320 
 222      28256429 
 222      206E6F74 
 222      20697320 
 223              		.section	.rodata.str1.1,"aMS",%progbits,1
 224              	.LC1:
 225 0000 466C6174 		.ascii	"FlatBuffers 1.11.0\000"
 225      42756666 
 225      65727320 
 225      312E3131 
 225      2E3000
 226              		.ident	"GCC: (GNU Tools for ARM Embedded Processors 6-2017-q2-update) 6.3.1 20170620 (release) [AR