   1              		.cpu cortex-a9
   2              		.eabi_attribute 28, 1
   3              		.eabi_attribute 20, 1
   4              		.eabi_attribute 21, 1
   5              		.eabi_attribute 23, 3
   6              		.eabi_attribute 24, 1
   7              		.eabi_attribute 25, 1
   8              		.eabi_attribute 26, 1
   9              		.eabi_attribute 30, 4
  10              		.eabi_attribute 34, 0
  11              		.eabi_attribute 18, 4
  12              		.file	"micro_error_reporter.cpp"
  13              		.section	.text._ZN6tflite18MicroErrorReporterD2Ev,"axG",%progbits,_ZN6tflite18MicroErrorReporterD5
  14              		.align	2
  15              		.weak	_ZN6tflite18MicroErrorReporterD2Ev
  16              		.syntax unified
  17              		.arm
  18              		.fpu neon
  20              	_ZN6tflite18MicroErrorReporterD2Ev:
  21              		.fnstart
  22              	.LFB5:
  23              		@ args = 0, pretend = 0, frame = 0
  24              		@ frame_needed = 0, uses_anonymous_args = 0
  25              		@ link register save eliminated.
  26 0000 1EFF2FE1 		bx	lr
  27              		.cantunwind
  28              		.fnend
  30              		.weak	_ZN6tflite18MicroErrorReporterD1Ev
  31              		.set	_ZN6tflite18MicroErrorReporterD1Ev,_ZN6tflite18MicroErrorReporterD2Ev
  32              		.section	.text._ZN6tflite18MicroErrorReporter6ReportEPKcSt9__va_list,"ax",%progbits
  33              		.align	2
  34              		.global	_ZN6tflite18MicroErrorReporter6ReportEPKcSt9__va_list
  35              		.syntax unified
  36              		.arm
  37              		.fpu neon
  39              	_ZN6tflite18MicroErrorReporter6ReportEPKcSt9__va_list:
  40              		.fnstart
  41              	.LFB9:
  42              		@ args = 0, pretend = 0, frame = 72
  43              		@ frame_needed = 0, uses_anonymous_args = 0
  44 0000 0030A0E3 		mov	r3, #0
  45 0004 F0412DE9 		push	{r4, r5, r6, r7, r8, lr}
  46              		.save {r4, r5, r6, r7, r8, lr}
  47 0008 0150A0E1 		mov	r5, r1
  48              		.pad #72
  49 000c 48D04DE2 		sub	sp, sp, #72
  50 0010 0240A0E1 		mov	r4, r2
  51 0014 0360A0E1 		mov	r6, r3
  52              	.L10:
  53 0018 0020D5E5 		ldrb	r2, [r5]	@ zero_extendqisi2
  54 001c 000052E3 		cmp	r2, #0
  55 0020 3500000A 		beq	.L3
  56 0024 250052E3 		cmp	r2, #37
  57 0028 2700001A 		bne	.L4
  58 002c 0170D5E5 		ldrb	r7, [r5, #1]	@ zero_extendqisi2
  59 0030 730057E3 		cmp	r7, #115
  60 0034 64005713 		cmpne	r7, #100
  61 0038 0180A003 		moveq	r8, #1
  62 003c 0080A013 		movne	r8, #0
  63 0040 660057E3 		cmp	r7, #102
  64 0044 0820A011 		movne	r2, r8
  65 0048 01208803 		orreq	r2, r8, #1
  66 004c 000052E3 		cmp	r2, #0
  67 0050 2100000A 		beq	.L5
  68 0054 000053E3 		cmp	r3, #0
  69 0058 015085E2 		add	r5, r5, #1
  70 005c 0400000A 		beq	.L6
  71 0060 48208DE2 		add	r2, sp, #72
  72 0064 04008DE2 		add	r0, sp, #4
  73 0068 033082E0 		add	r3, r2, r3
  74 006c 446043E5 		strb	r6, [r3, #-68]
  75 0070 FEFFFFEB 		bl	DebugLog
  76              	.L6:
  77 0074 640057E3 		cmp	r7, #100
  78 0078 0600001A 		bne	.L7
  79 007c 000094E5 		ldr	r0, [r4]
  80 0080 047084E2 		add	r7, r4, #4
  81 0084 FEFFFFEB 		bl	DebugLogInt32
  82              	.L23:
  83 0088 0740A0E1 		mov	r4, r7
  84              	.L22:
  85 008c 0030A0E3 		mov	r3, #0
  86              	.L8:
  87 0090 015085E2 		add	r5, r5, #1
  88 0094 DFFFFFEA 		b	.L10
  89              	.L7:
  90 0098 000058E3 		cmp	r8, #0
  91 009c 0300000A 		beq	.L9
  92 00a0 000094E5 		ldr	r0, [r4]
  93 00a4 047084E2 		add	r7, r4, #4
  94 00a8 FEFFFFEB 		bl	DebugLog
  95 00ac F5FFFFEA 		b	.L23
  96              	.L9:
  97 00b0 072084E2 		add	r2, r4, #7
  98 00b4 0720C2E3 		bic	r2, r2, #7
  99 00b8 000B92ED 		vldr.64	d0, [r2]
 100 00bc 084082E2 		add	r4, r2, #8
 101 00c0 C00BB7EE 		vcvt.f32.f64	s0, d0
 102 00c4 FEFFFFEB 		bl	DebugLogFloat
 103 00c8 EFFFFFEA 		b	.L22
 104              	.L4:
 105 00cc 48108DE2 		add	r1, sp, #72
 106 00d0 031081E0 		add	r1, r1, r3
 107 00d4 013083E2 		add	r3, r3, #1
 108 00d8 442041E5 		strb	r2, [r1, #-68]
 109              	.L5:
 110 00dc 3F0053E3 		cmp	r3, #63
 111 00e0 EAFFFFDA 		ble	.L8
 112 00e4 48208DE2 		add	r2, sp, #72
 113 00e8 04008DE2 		add	r0, sp, #4
 114 00ec 033082E0 		add	r3, r2, r3
 115 00f0 446043E5 		strb	r6, [r3, #-68]
 116 00f4 FEFFFFEB 		bl	DebugLog
 117 00f8 E3FFFFEA 		b	.L22
 118              	.L3:
 119 00fc 000053E3 		cmp	r3, #0
 120 0100 0400000A 		beq	.L11
 121 0104 48108DE2 		add	r1, sp, #72
 122 0108 04008DE2 		add	r0, sp, #4
 123 010c 033081E0 		add	r3, r1, r3
 124 0110 442043E5 		strb	r2, [r3, #-68]
 125 0114 FEFFFFEB 		bl	DebugLog
 126              	.L11:
 127 0118 0C009FE5 		ldr	r0, .L24
 128 011c FEFFFFEB 		bl	DebugLog
 129 0120 0000A0E3 		mov	r0, #0
 130 0124 48D08DE2 		add	sp, sp, #72
 131              		@ sp needed
 132 0128 F081BDE8 		pop	{r4, r5, r6, r7, r8, pc}
 133              	.L25:
 134              		.align	2
 135              	.L24:
 136 012c 00000000 		.word	.LC0
 137              		.fnend
 139              		.section	.text._ZN6tflite18MicroErrorReporterD0Ev,"axG",%progbits,_ZN6tflite18MicroErrorReporterD5
 140              		.align	2
 141              		.weak	_ZN6tflite18MicroErrorReporterD0Ev
 142              		.syntax unified
 143              		.arm
 144              		.fpu neon
 146              	_ZN6tflite18MicroErrorReporterD0Ev:
 147              		.fnstart
 148              	.LFB7:
 149              		@ args = 0, pretend = 0, frame = 0
 150              		@ frame_needed = 0, uses_anonymous_args = 0
 151 0000 10402DE9 		push	{r4, lr}
 152 0004 0410A0E3 		mov	r1, #4
 153 0008 0040A0E1 		mov	r4, r0
 154 000c FEFFFFEB 		bl	_ZdlPvj
 155 0010 0400A0E1 		mov	r0, r4
 156 0014 1080BDE8 		pop	{r4, pc}
 157              		.cantunwind
 158              		.fnend
 160              		.weak	_ZTSN6tflite13ErrorReporterE
 161              		.section	.rodata._ZTSN6tflite13ErrorReporterE,"aG",%progbits,_ZTSN6tflite13ErrorReporterE,comdat
 164              	_ZTSN6tflite13ErrorReporterE:
 165 0000 4E367466 		.ascii	"N6tflite13ErrorReporterE\000"
 165      6C697465 
 165      31334572 
 165      726F7252 
 165      65706F72 
 166              		.weak	_ZTIN6tflite13ErrorReporterE
 167              		.section	.rodata._ZTIN6tflite13ErrorReporterE,"aG",%progbits,_ZTIN6tflite13ErrorReporterE,comdat
 168              		.align	2
 171              	_ZTIN6tflite13ErrorReporterE:
 172 0000 08000000 		.word	_ZTVN10__cxxabiv117__class_type_infoE+8
 173 0004 00000000 		.word	_ZTSN6tflite13ErrorReporterE
 174              		.global	_ZTSN6tflite18MicroErrorReporterE
 175              		.global	_ZTIN6tflite18MicroErrorReporterE
 176              		.global	_ZTVN6tflite18MicroErrorReporterE
 177              		.section	.rodata._ZN6tflite18MicroErrorReporter6ReportEPKcSt9__va_list.str1.1,"aMS",%progbits,1
 178              	.LC0:
 179 0000 0D0A00   		.ascii	"\015\012\000"
 180              		.section	.rodata._ZTIN6tflite18MicroErrorReporterE,"a",%progbits
 181              		.align	2
 184              	_ZTIN6tflite18MicroErrorReporterE:
 185 0000 08000000 		.word	_ZTVN10__cxxabiv120__si_class_type_infoE+8
 186 0004 00000000 		.word	_ZTSN6tflite18MicroErrorReporterE
 187 0008 00000000 		.word	_ZTIN6tflite13ErrorReporterE
 188              		.section	.rodata._ZTSN6tflite18MicroErrorReporterE,"a",%progbits
 191              	_ZTSN6tflite18MicroErrorReporterE:
 192 0000 4E367466 		.ascii	"N6tflite18MicroErrorReporterE\000"
 192      6C697465 
 192      31384D69 
 192      63726F45 
 192      72726F72 
 193              		.section	.rodata._ZTVN6tflite18MicroErrorReporterE,"a",%progbits
 194              		.align	2
 197              	_ZTVN6tflite18MicroErrorReporterE:
 198 0000 00000000 		.word	0
 199 0004 00000000 		.word	_ZTIN6tflite18MicroErrorReporterE
 200 0008 00000000 		.word	_ZN6tflite18MicroErrorReporterD1Ev
 201 000c 00000000 		.word	_ZN6tflite18MicroErrorReporterD0Ev
 202 0010 00000000 		.word	_ZN6tflite18MicroErrorReporter6ReportEPKcSt9__va_list
 203              		.ident	"GCC: (GNU Tools for ARM Embedded Processors 6-2017-q2-update) 6.3.1 20170620 (release) [AR