   1              		.cpu cortex-a9
   2              		.eabi_attribute 28, 1
   3              		.eabi_attribute 20, 1
   4              		.eabi_attribute 21, 1
   5              		.eabi_attribute 23, 3
   6              		.eabi_attribute 24, 1
   7              		.eabi_attribute 25, 1
   8              		.eabi_attribute 26, 1
   9              		.eabi_attribute 30, 4
  10              		.eabi_attribute 34, 0
  11              		.eabi_attribute 18, 4
  12              		.file	"micro_optional_debug_tools.cpp"
  13              		.section	.text._ZN6tflite12_GLOBAL__N_114PrintIntVectorERKSt6vectorIiSaIiEE,"ax",%progbits
  14              		.align	2
  15              		.syntax unified
  16              		.arm
  17              		.fpu neon
  19              	_ZN6tflite12_GLOBAL__N_114PrintIntVectorERKSt6vectorIiSaIiEE:
  20              		.fnstart
  21              	.LFB6657:
  22              		@ args = 0, pretend = 0, frame = 0
  23              		@ frame_needed = 0, uses_anonymous_args = 0
  24 0000 70402DE9 		push	{r4, r5, r6, lr}
  25              		.save {r4, r5, r6, lr}
  26 0004 500090E8 		ldm	r0, {r4, r6}
  27 0008 20509FE5 		ldr	r5, .L5
  28              	.L3:
  29 000c 040056E1 		cmp	r6, r4
  30 0010 0300000A 		beq	.L2
  31 0014 041094E4 		ldr	r1, [r4], #4
  32 0018 0500A0E1 		mov	r0, r5
  33 001c FEFFFFEB 		bl	printf
  34 0020 F9FFFFEA 		b	.L3
  35              	.L2:
  36 0024 0A00A0E3 		mov	r0, #10
  37 0028 7040BDE8 		pop	{r4, r5, r6, lr}
  38 002c FEFFFFEA 		b	putchar
  39              	.L6:
  40              		.align	2
  41              	.L5:
  42 0030 00000000 		.word	.LC0
  43              		.fnend
  45              		.section	.text._ZN6tflite12_GLOBAL__N_120PrintTfLiteIntVectorEPK14TfLiteIntArray,"ax",%progbits
  46              		.align	2
  47              		.syntax unified
  48              		.arm
  49              		.fpu neon
  51              	_ZN6tflite12_GLOBAL__N_120PrintTfLiteIntVectorEPK14TfLiteIntArray:
  52              		.fnstart
  53              	.LFB6658:
  54              		@ args = 0, pretend = 0, frame = 0
  55              		@ frame_needed = 0, uses_anonymous_args = 0
  56 0000 70402DE9 		push	{r4, r5, r6, lr}
  57              		.save {r4, r5, r6, lr}
  58 0004 004050E2 		subs	r4, r0, #0
  59 0008 0050A013 		movne	r5, #0
  60 000c 38609F15 		ldrne	r6, .L12
  61 0010 0200001A 		bne	.L9
  62 0014 34009FE5 		ldr	r0, .L12+4
  63 0018 7040BDE8 		pop	{r4, r5, r6, lr}
  64 001c FEFFFFEA 		b	puts
  65              	.L9:
  66 0020 002094E5 		ldr	r2, [r4]
  67 0024 020055E1 		cmp	r5, r2
  68 0028 015085E2 		add	r5, r5, #1
  69 002c 030000AA 		bge	.L10
  70 0030 051194E7 		ldr	r1, [r4, r5, lsl #2]
  71 0034 0600A0E1 		mov	r0, r6
  72 0038 FEFFFFEB 		bl	printf
  73 003c F7FFFFEA 		b	.L9
  74              	.L10:
  75 0040 0A00A0E3 		mov	r0, #10
  76 0044 7040BDE8 		pop	{r4, r5, r6, lr}
  77 0048 FEFFFFEA 		b	putchar
  78              	.L13:
  79              		.align	2
  80              	.L12:
  81 004c 00000000 		.word	.LC0
  82 0050 00000000 		.word	.LC1
  83              		.fnend
  85              		.section	.text._ZNSt12_Vector_baseIiSaIiEED2Ev,"axG",%progbits,_ZNSt12_Vector_baseIiSaIiEED5Ev,com
  86              		.align	2
  87              		.weak	_ZNSt12_Vector_baseIiSaIiEED2Ev
  88              		.syntax unified
  89              		.arm
  90              		.fpu neon
  92              	_ZNSt12_Vector_baseIiSaIiEED2Ev:
  93              		.fnstart
  94              	.LFB8806:
  95              		@ args = 0, pretend = 0, frame = 0
  96              		@ frame_needed = 0, uses_anonymous_args = 0
  97 0000 10402DE9 		push	{r4, lr}
  98 0004 0040A0E1 		mov	r4, r0
  99 0008 000090E5 		ldr	r0, [r0]
 100 000c 000050E3 		cmp	r0, #0
 101 0010 0000000A 		beq	.L15
 102 0014 FEFFFFEB 		bl	_ZdlPv
 103              	.L15:
 104 0018 0400A0E1 		mov	r0, r4
 105 001c 1080BDE8 		pop	{r4, pc}
 106              		.cantunwind
 107              		.fnend
 109              		.weak	_ZNSt12_Vector_baseIiSaIiEED1Ev
 110              		.set	_ZNSt12_Vector_baseIiSaIiEED1Ev,_ZNSt12_Vector_baseIiSaIiEED2Ev
 111              		.section	.text._ZNSt6vectorIiSaIiEE19_M_emplace_back_auxIJiEEEvDpOT_,"axG",%progbits,_ZNSt6vectorI
 112              		.align	2
 113              		.weak	_ZNSt6vectorIiSaIiEE19_M_emplace_back_auxIJiEEEvDpOT_
 114              		.syntax unified
 115              		.arm
 116              		.fpu neon
 118              	_ZNSt6vectorIiSaIiEE19_M_emplace_back_auxIJiEEEvDpOT_:
 119              		.fnstart
 120              	.LFB9300:
 121              		@ args = 0, pretend = 0, frame = 0
 122              		@ frame_needed = 0, uses_anonymous_args = 0
 123 0000 F0472DE9 		push	{r4, r5, r6, r7, r8, r9, r10, lr}
 124              		.save {r4, r5, r6, r7, r8, r9, r10, lr}
 125 0004 0060A0E1 		mov	r6, r0
 126 0008 180090E8 		ldmia	r0, {r3, r4}
 127 000c 034044E0 		sub	r4, r4, r3
 128 0010 0190A0E1 		mov	r9, r1
 129 0014 4441B0E1 		asrs	r4, r4, #2
 130 0018 0430A011 		movne	r3, r4
 131 001c 0130A003 		moveq	r3, #1
 132 0020 034094E0 		adds	r4, r4, r3
 133 0024 0120A023 		movcs	r2, #1
 134 0028 0020A033 		movcc	r2, #0
 135 002c 070174E3 		cmn	r4, #-1073741823
 136 0030 0030A093 		movls	r3, #0
 137 0034 0130A083 		movhi	r3, #1
 138 0038 033092E1 		orrs	r3, r2, r3
 139 003c 1A00000A 		beq	.L22
 140 0040 0341E0E3 		mvn	r4, #-1073741824
 141              	.L26:
 142 0044 0401A0E1 		lsl	r0, r4, #2
 143 0048 FEFFFFEB 		bl	_Znwj
 144 004c 0070A0E1 		mov	r7, r0
 145              	.L27:
 146 0050 008096E5 		ldr	r8, [r6]
 147 0054 045096E5 		ldr	r5, [r6, #4]
 148 0058 003099E5 		ldr	r3, [r9]
 149 005c 085045E0 		sub	r5, r5, r8
 150 0060 050077E1 		cmn	r7, r5
 151 0064 05308717 		strne	r3, [r7, r5]
 152 0068 2531B0E1 		lsrs	r3, r5, #2
 153 006c 0300000A 		beq	.L24
 154 0070 0520A0E1 		mov	r2, r5
 155 0074 0810A0E1 		mov	r1, r8
 156 0078 0700A0E1 		mov	r0, r7
 157 007c FEFFFFEB 		bl	memmove
 158              	.L24:
 159 0080 000058E3 		cmp	r8, #0
 160 0084 045085E2 		add	r5, r5, #4
 161 0088 055087E0 		add	r5, r7, r5
 162 008c 0100000A 		beq	.L25
 163 0090 0800A0E1 		mov	r0, r8
 164 0094 FEFFFFEB 		bl	_ZdlPv
 165              	.L25:
 166 0098 044187E0 		add	r4, r7, r4, lsl #2
 167 009c 007086E5 		str	r7, [r6]
 168 00a0 045086E5 		str	r5, [r6, #4]
 169 00a4 084086E5 		str	r4, [r6, #8]
 170 00a8 F087BDE8 		pop	{r4, r5, r6, r7, r8, r9, r10, pc}
 171              	.L22:
 172 00ac 000054E3 		cmp	r4, #0
 173 00b0 0470A001 		moveq	r7, r4
 174 00b4 E5FFFF0A 		beq	.L27
 175 00b8 E1FFFFEA 		b	.L26
 176              		.fnend
 178              		.section	.text._ZN6tflite12_GLOBAL__N_127flatbuffersVector2StdVectorERKN11flatbuffers6VectorIlEE,"
 179              		.align	2
 180              		.syntax unified
 181              		.arm
 182              		.fpu neon
 184              	_ZN6tflite12_GLOBAL__N_127flatbuffersVector2StdVectorERKN11flatbuffers6VectorIlEE:
 185              		.fnstart
 186              	.LFB6656:
 187              		@ args = 0, pretend = 0, frame = 8
 188              		@ frame_needed = 0, uses_anonymous_args = 0
 189 0000 0030A0E3 		mov	r3, #0
 190 0004 F7402DE9 		push	{r0, r1, r2, r4, r5, r6, r7, lr}
 191              		.save {r4, r5, r6, r7, lr}
 192              		.pad #12
 193 0008 0040A0E1 		mov	r4, r0
 194 000c 003080E5 		str	r3, [r0]
 195 0010 043080E5 		str	r3, [r0, #4]
 196 0014 083080E5 		str	r3, [r0, #8]
 197 0018 000091E5 		ldr	r0, [r1]
 198 001c 070170E3 		cmn	r0, #-1073741823
 199 0020 0400009A 		bls	.L42
 200 0024 A8009FE5 		ldr	r0, .L61
 201              	.LEHB0:
 202 0028 FEFFFFEB 		bl	_ZSt20__throw_length_errorPKc
 203              	.LEHE0:
 204              	.L50:
 205 002c 0400A0E1 		mov	r0, r4
 206 0030 FEFFFFEB 		bl	_ZNSt12_Vector_baseIiSaIiEED2Ev
 207              	.LEHB1:
 208 0034 FEFFFFEB 		bl	__cxa_end_cleanup
 209              	.LEHE1:
 210              	.L42:
 211 0038 000050E3 		cmp	r0, #0
 212 003c 2100000A 		beq	.L41
 213 0040 0051A0E1 		lsl	r5, r0, #2
 214 0044 0170A0E1 		mov	r7, r1
 215 0048 0500A0E1 		mov	r0, r5
 216              	.LEHB2:
 217 004c FEFFFFEB 		bl	_Znwj
 218 0050 0060A0E1 		mov	r6, r0
 219 0054 000094E5 		ldr	r0, [r4]
 220 0058 000050E3 		cmp	r0, #0
 221 005c 0000000A 		beq	.L44
 222 0060 FEFFFFEB 		bl	_ZdlPv
 223              	.L44:
 224 0064 050086E0 		add	r0, r6, r5
 225 0068 006084E5 		str	r6, [r4]
 226 006c 046084E5 		str	r6, [r4, #4]
 227 0070 0050A0E3 		mov	r5, #0
 228 0074 0760A0E1 		mov	r6, r7
 229 0078 080084E5 		str	r0, [r4, #8]
 230              	.L48:
 231 007c 003097E5 		ldr	r3, [r7]
 232 0080 030055E1 		cmp	r5, r3
 233 0084 0F00002A 		bcs	.L41
 234 0088 043094E5 		ldr	r3, [r4, #4]
 235 008c 081094E5 		ldr	r1, [r4, #8]
 236 0090 0420B6E5 		ldr	r2, [r6, #4]!
 237 0094 010053E1 		cmp	r3, r1
 238 0098 04208DE5 		str	r2, [sp, #4]
 239 009c 0500000A 		beq	.L45
 240 00a0 000053E3 		cmp	r3, #0
 241 00a4 043083E2 		add	r3, r3, #4
 242 00a8 04200315 		strne	r2, [r3, #-4]
 243 00ac 043084E5 		str	r3, [r4, #4]
 244              	.L47:
 245 00b0 015085E2 		add	r5, r5, #1
 246 00b4 F0FFFFEA 		b	.L48
 247              	.L45:
 248 00b8 04108DE2 		add	r1, sp, #4
 249 00bc 0400A0E1 		mov	r0, r4
 250 00c0 FEFFFFEB 		bl	_ZNSt6vectorIiSaIiEE19_M_emplace_back_auxIJiEEEvDpOT_
 251              	.LEHE2:
 252 00c4 F9FFFFEA 		b	.L47
 253              	.L41:
 254 00c8 0400A0E1 		mov	r0, r4
 255 00cc 0CD08DE2 		add	sp, sp, #12
 256              		@ sp needed
 257 00d0 F080BDE8 		pop	{r4, r5, r6, r7, pc}
 258              	.L62:
 259              		.align	2
 260              	.L61:
 261 00d4 00000000 		.word	.LC2
 262              		.global	__gxx_personality_v0
 263              		.personality	__gxx_personality_v0
 264              		.handlerdata
 265              	.LLSDA6656:
 266 0008 FF       		.byte	0xff
 267 0009 FF       		.byte	0xff
 268 000a 01       		.byte	0x1
 269 000b 0C       		.uleb128 .LLSDACSE6656-.LLSDACSB6656
 270              	.LLSDACSB6656:
 271 000c 28       		.uleb128 .LEHB0-.LFB6656
 272 000d 04       		.uleb128 .LEHE0-.LEHB0
 273 000e 2C       		.uleb128 .L50-.LFB6656
 274 000f 00       		.uleb128 0
 275 0010 34       		.uleb128 .LEHB1-.LFB6656
 276 0011 04       		.uleb128 .LEHE1-.LEHB1
 277 0012 00       		.uleb128 0
 278 0013 00       		.uleb128 0
 279 0014 4C       		.uleb128 .LEHB2-.LFB6656
 280 0015 78       		.uleb128 .LEHE2-.LEHB2
 281 0016 2C       		.uleb128 .L50-.LFB6656
 282 0017 00       		.uleb128 0
 283              	.LLSDACSE6656:
 284              		.section	.text._ZN6tflite12_GLOBAL__N_127flatbuffersVector2StdVectorERKN11flatbuffers6VectorIlEE
 285              		.fnend
 287              		.section	.text._ZN6tflite21PrintInterpreterStateEPNS_16MicroInterpreterE,"ax",%progbits
 288              		.align	2
 289              		.global	_ZN6tflite21PrintInterpreterStateEPNS_16MicroInterpreterE
 290              		.syntax unified
 291              		.arm
 292              		.fpu neon
 294              	_ZN6tflite21PrintInterpreterStateEPNS_16MicroInterpreterE:
 295              		.fnstart
 296              	.LFB6661:
 297              		@ args = 0, pretend = 0, frame = 16
 298              		@ frame_needed = 0, uses_anonymous_args = 0
 299 0000 883090E5 		ldr	r3, [r0, #136]
 300 0004 F0472DE9 		push	{r4, r5, r6, r7, r8, r9, r10, lr}
 301              		.save {r4, r5, r6, r7, r8, r9, r10, lr}
 302 0008 0040A0E1 		mov	r4, r0
 303              		.pad #32
 304 000c 20D04DE2 		sub	sp, sp, #32
 305 0010 101090E5 		ldr	r1, [r0, #16]
 306 0014 002093E5 		ldr	r2, [r3]
 307 0018 D8019FE5 		ldr	r0, .L88
 308              	.LEHB3:
 309 001c FEFFFFEB 		bl	printf
 310 0020 D4019FE5 		ldr	r0, .L88+4
 311 0024 FEFFFFEB 		bl	printf
 312 0028 8C3094E5 		ldr	r3, [r4, #140]
 313 002c 14008DE2 		add	r0, sp, #20
 314 0030 002093E5 		ldr	r2, [r3]
 315 0034 022043E0 		sub	r2, r3, r2
 316 0038 B010D2E1 		ldrh	r1, [r2]
 317 003c 060051E3 		cmp	r1, #6
 318 0040 B610D2C1 		ldrhgt	r1, [r2, #6]
 319 0044 0010A0D3 		movle	r1, #0
 320 0048 000051E3 		cmp	r1, #0
 321 004c 012083E0 		add	r2, r3, r1
 322 0050 01109317 		ldrne	r1, [r3, r1]
 323 0054 01108210 		addne	r1, r2, r1
 324 0058 FEFFFFEB 		bl	_ZN6tflite12_GLOBAL__N_127flatbuffersVector2StdVectorERKN11flatbuffers6VectorIlEE
 325              	.LEHE3:
 326 005c 14008DE2 		add	r0, sp, #20
 327              	.LEHB4:
 328 0060 FEFFFFEB 		bl	_ZN6tflite12_GLOBAL__N_114PrintIntVectorERKSt6vectorIiSaIiEE
 329              	.LEHE4:
 330 0064 14008DE2 		add	r0, sp, #20
 331 0068 FEFFFFEB 		bl	_ZNSt12_Vector_baseIiSaIiEED2Ev
 332 006c 8C019FE5 		ldr	r0, .L88+8
 333              	.LEHB5:
 334 0070 FEFFFFEB 		bl	printf
 335 0074 8C3094E5 		ldr	r3, [r4, #140]
 336 0078 14008DE2 		add	r0, sp, #20
 337 007c 002093E5 		ldr	r2, [r3]
 338 0080 022043E0 		sub	r2, r3, r2
 339 0084 B010D2E1 		ldrh	r1, [r2]
 340 0088 080051E3 		cmp	r1, #8
 341 008c B810D2C1 		ldrhgt	r1, [r2, #8]
 342 0090 0010A0D3 		movle	r1, #0
 343 0094 000051E3 		cmp	r1, #0
 344 0098 012083E0 		add	r2, r3, r1
 345 009c 01109317 		ldrne	r1, [r3, r1]
 346 00a0 01108210 		addne	r1, r2, r1
 347 00a4 FEFFFFEB 		bl	_ZN6tflite12_GLOBAL__N_127flatbuffersVector2StdVectorERKN11flatbuffers6VectorIlEE
 348              	.LEHE5:
 349 00a8 14008DE2 		add	r0, sp, #20
 350              	.LEHB6:
 351 00ac FEFFFFEB 		bl	_ZN6tflite12_GLOBAL__N_114PrintIntVectorERKSt6vectorIiSaIiEE
 352              	.LEHE6:
 353 00b0 4C719FE5 		ldr	r7, .L88+12
 354 00b4 14008DE2 		add	r0, sp, #20
 355 00b8 48819FE5 		ldr	r8, .L88+16
 356 00bc 0050A0E3 		mov	r5, #0
 357 00c0 44919FE5 		ldr	r9, .L88+20
 358 00c4 FEFFFFEB 		bl	_ZNSt12_Vector_baseIiSaIiEED2Ev
 359 00c8 0A00A0E3 		mov	r0, #10
 360              	.LEHB7:
 361 00cc FEFFFFEB 		bl	putchar
 362              	.L71:
 363 00d0 103094E5 		ldr	r3, [r4, #16]
 364 00d4 030055E1 		cmp	r5, r3
 365 00d8 1900002A 		bcs	.L68
 366 00dc 0510A0E1 		mov	r1, r5
 367 00e0 0400A0E1 		mov	r0, r4
 368 00e4 FEFFFFEB 		bl	_ZN6tflite16MicroInterpreter6tensorEj
 369 00e8 0030D0E5 		ldrb	r3, [r0]	@ zero_extendqisi2
 370 00ec 0060A0E1 		mov	r6, r0
 371 00f0 1410D0E5 		ldrb	r1, [r0, #20]	@ zero_extendqisi2
 372 00f4 18C096E5 		ldr	ip, [r6, #24]
 373 00f8 0A0053E3 		cmp	r3, #10
 374 00fc 202090E5 		ldr	r2, [r0, #32]
 375 0100 03319897 		ldrls	r3, [r8, r3, lsl #2]
 376 0104 0730A081 		movhi	r3, r7
 377 0108 040051E3 		cmp	r1, #4
 378 010c 01019997 		ldrls	r0, [r9, r1, lsl #2]
 379 0110 2C1AA0E1 		lsr	r1, ip, #20
 380 0114 0700A081 		movhi	r0, r7
 381 0118 901A07EE 		vmov	s15, r1	@ int
 382 011c 0510A0E1 		mov	r1, r5
 383 0120 E70BF8EE 		vcvt.f64.s32	d16, s15
 384 0124 015085E2 		add	r5, r5, #1
 385 0128 01108DE8 		stm	sp, {r0, ip}
 386 012c DC009FE5 		ldr	r0, .L88+24
 387 0130 020BCDED 		vstr.64	d16, [sp, #8]
 388 0134 FEFFFFEB 		bl	printf
 389 0138 080096E5 		ldr	r0, [r6, #8]
 390 013c FEFFFFEB 		bl	_ZN6tflite12_GLOBAL__N_120PrintTfLiteIntVectorEPK14TfLiteIntArray
 391 0140 E2FFFFEA 		b	.L71
 392              	.L68:
 393 0144 C8609FE5 		ldr	r6, .L88+28
 394 0148 0050A0E3 		mov	r5, #0
 395 014c C4709FE5 		ldr	r7, .L88+32
 396 0150 0A00A0E3 		mov	r0, #10
 397 0154 C0809FE5 		ldr	r8, .L88+36
 398 0158 FEFFFFEB 		bl	putchar
 399              	.L75:
 400 015c 883094E5 		ldr	r3, [r4, #136]
 401 0160 003093E5 		ldr	r3, [r3]
 402 0164 030055E1 		cmp	r5, r3
 403 0168 2000002A 		bcs	.L63
 404 016c 2830A0E3 		mov	r3, #40
 405 0170 001094E5 		ldr	r1, [r4]
 406 0174 930503E0 		mul	r3, r3, r5
 407 0178 032081E0 		add	r2, r1, r3
 408 017c 03A091E7 		ldr	r10, [r1, r3]
 409 0180 243092E5 		ldr	r3, [r2, #36]
 410 0184 049092E5 		ldr	r9, [r2, #4]
 411 0188 182093E5 		ldr	r2, [r3, #24]
 412 018c 000052E3 		cmp	r2, #0
 413 0190 0C00000A 		beq	.L73
 414 0194 0510A0E1 		mov	r1, r5
 415 0198 0800A0E1 		mov	r0, r8
 416 019c FEFFFFEB 		bl	printf
 417              	.L74:
 418 01a0 78009FE5 		ldr	r0, .L88+40
 419 01a4 015085E2 		add	r5, r5, #1
 420 01a8 FEFFFFEB 		bl	printf
 421 01ac 0A00A0E1 		mov	r0, r10
 422 01b0 FEFFFFEB 		bl	_ZN6tflite12_GLOBAL__N_120PrintTfLiteIntVectorEPK14TfLiteIntArray
 423 01b4 68009FE5 		ldr	r0, .L88+44
 424 01b8 FEFFFFEB 		bl	printf
 425 01bc 0900A0E1 		mov	r0, r9
 426 01c0 FEFFFFEB 		bl	_ZN6tflite12_GLOBAL__N_120PrintTfLiteIntVectorEPK14TfLiteIntArray
 427 01c4 E4FFFFEA 		b	.L75
 428              	.L73:
 429 01c8 142093E5 		ldr	r2, [r3, #20]
 430 01cc 0510A0E1 		mov	r1, r5
 431 01d0 0700A0E1 		mov	r0, r7
 432 01d4 023196E7 		ldr	r3, [r6, r2, lsl #2]
 433 01d8 FEFFFFEB 		bl	printf
 434 01dc EFFFFFEA 		b	.L74
 435              	.L84:
 436              	.L87:
 437 01e0 14008DE2 		add	r0, sp, #20
 438 01e4 FEFFFFEB 		bl	_ZNSt12_Vector_baseIiSaIiEED2Ev
 439 01e8 FEFFFFEB 		bl	__cxa_end_cleanup
 440              	.LEHE7:
 441              	.L85:
 442 01ec FBFFFFEA 		b	.L87
 443              	.L63:
 444 01f0 20D08DE2 		add	sp, sp, #32
 445              		@ sp needed
 446 01f4 F087BDE8 		pop	{r4, r5, r6, r7, r8, r9, r10, pc}
 447              	.L89:
 448              		.align	2
 449              	.L88:
 450 01f8 0A000000 		.word	.LC4
 451 01fc 35000000 		.word	.LC5
 452 0200 3D000000 		.word	.LC6
 453 0204 00000000 		.word	.LC3
 454 0208 00000000 		.word	.LANCHOR0
 455 020c 00000000 		.word	.LANCHOR1
 456 0210 46000000 		.word	.LC7
 457 0214 00000000 		.word	_ZZN6tflite24EnumNamesBuiltinOperatorEvE5names
 458 0218 9D000000 		.word	.LC9
 459 021c 7A000000 		.word	.LC8
 460 0220 C6000000 		.word	.LC10
 461 0224 D0000000 		.word	.LC11
 462              		.personality	__gxx_personality_v0
 463              		.handlerdata
 464              	.LLSDA6661:
 465 0008 FF       		.byte	0xff
 466 0009 FF       		.byte	0xff
 467 000a 01       		.byte	0x1
 468 000b 19       		.uleb128 .LLSDACSE6661-.LLSDACSB6661
 469              	.LLSDACSB6661:
 470 000c 1C       		.uleb128 .LEHB3-.LFB6661
 471 000d 40       		.uleb128 .LEHE3-.LEHB3
 472 000e 00       		.uleb128 0
 473 000f 00       		.uleb128 0
 474 0010 60       		.uleb128 .LEHB4-.LFB6661
 475 0011 04       		.uleb128 .LEHE4-.LEHB4
 476 0012 E003     		.uleb128 .L84-.LFB6661
 477 0014 00       		.uleb128 0
 478 0015 70       		.uleb128 .LEHB5-.LFB6661
 479 0016 38       		.uleb128 .LEHE5-.LEHB5
 480 0017 00       		.uleb128 0
 481 0018 00       		.uleb128 0
 482 0019 AC01     		.uleb128 .LEHB6-.LFB6661
 483 001b 04       		.uleb128 .LEHE6-.LEHB6
 484 001c EC03     		.uleb128 .L85-.LFB6661
 485 001e 00       		.uleb128 0
 486 001f CC01     		.uleb128 .LEHB7-.LFB6661
 487 0021 A002     		.uleb128 .LEHE7-.LEHB7
 488 0023 00       		.uleb128 0
 489 0024 00       		.uleb128 0
 490              	.LLSDACSE6661:
 491              		.section	.text._ZN6tflite21PrintInterpreterStateEPNS_16MicroInterpreterE
 492              		.fnend
 494              		.weak	_ZZN6tflite24EnumNamesBuiltinOperatorEvE5names
 495              		.section	.rodata._ZZN6tflite24EnumNamesBuiltinOperatorEvE5names,"aG",%progbits,_ZZN6tflite24EnumNa
 496              		.align	2
 499              	_ZZN6tflite24EnumNamesBuiltinOperatorEvE5names:
 500 0000 EB000000 		.word	.LC28
 501 0004 EF000000 		.word	.LC29
 502 0008 FF000000 		.word	.LC30
 503 000c 0D010000 		.word	.LC31
 504 0010 15010000 		.word	.LC32
 505 0014 27010000 		.word	.LC33
 506 0018 36010000 		.word	.LC34
 507 001c 41010000 		.word	.LC35
 508 0020 52010000 		.word	.LC36
 509 0024 58010000 		.word	.LC37
 510 0028 68010000 		.word	.LC38
 511 002c 79010000 		.word	.LC39
 512 0030 8A010000 		.word	.LC40
 513 0034 95010000 		.word	.LC41
 514 0038 B2010000 		.word	.LC42
 515 003c BB010000 		.word	.LC43
 516 0040 CA010000 		.word	.LC44
 517 0044 CF010000 		.word	.LC45
 518 0048 DB010000 		.word	.LC46
 519 004c DF010000 		.word	.LC47
 520 0050 E4010000 		.word	.LC48
 521 0054 F1010000 		.word	.LC49
 522 0058 F7010000 		.word	.LC50
 523 005c FF010000 		.word	.LC51
 524 0060 0F020000 		.word	.LC52
 525 0064 13020000 		.word	.LC53
 526 0068 1B020000 		.word	.LC54
 527 006c 2A020000 		.word	.LC55
 528 0070 2F020000 		.word	.LC56
 529 0074 34020000 		.word	.LC57
 530 0078 46020000 		.word	.LC58
 531 007c 50020000 		.word	.LC59
 532 0080 55020000 		.word	.LC60
 533 0084 5C020000 		.word	.LC61
 534 0088 74020000 		.word	.LC62
 535 008c 78020000 		.word	.LC63
 536 0090 94020000 		.word	.LC64
 537 0094 9B020000 		.word	.LC65
 538 0098 AD020000 		.word	.LC66
 539 009c BF020000 		.word	.LC67
 540 00a0 C9020000 		.word	.LC68
 541 00a4 CE020000 		.word	.LC69
 542 00a8 D2020000 		.word	.LC70
 543 00ac D6020000 		.word	.LC71
 544 00b0 DE020000 		.word	.LC72
 545 00b4 FB020000 		.word	.LC73
 546 00b8 09030000 		.word	.LC74
 547 00bc 24030000 		.word	.LC75
 548 00c0 28030000 		.word	.LC76
 549 00c4 30030000 		.word	.LC77
 550 00c8 36030000 		.word	.LC78
 551 00cc 42030000 		.word	.LC79
 552 00d0 4B030000 		.word	.LC80
 553 00d4 67030000 		.word	.LC81
 554 00d8 6C030000 		.word	.LC82
 555 00dc 72030000 		.word	.LC83
 556 00e0 7A030000 		.word	.LC84
 557 00e4 82030000 		.word	.LC85
 558 00e8 8A030000 		.word	.LC86
 559 00ec 8F030000 		.word	.LC87
 560 00f0 93030000 		.word	.LC88
 561 00f4 99030000 		.word	.LC89
 562 00f8 A1030000 		.word	.LC90
 563 00fc AF030000 		.word	.LC91
 564 0100 BA030000 		.word	.LC92
 565 0104 C1030000 		.word	.LC93
 566 0108 C7030000 		.word	.LC94
 567 010c CB030000 		.word	.LC95
 568 0110 DA030000 		.word	.LC96
 569 0114 EA030000 		.word	.LC97
 570 0118 EF030000 		.word	.LC98
 571 011c FB030000 		.word	.LC99
 572 0120 01040000 		.word	.LC100
 573 0124 0B040000 		.word	.LC101
 574 0128 0F040000 		.word	.LC102
 575 012c 13040000 		.word	.LC103
 576 0130 18040000 		.word	.LC104
 577 0134 1E040000 		.word	.LC105
 578 0138 24040000 		.word	.LC106
 579 013c 28040000 		.word	.LC107
 580 0140 30040000 		.word	.LC108
 581 0144 3B040000 		.word	.LC109
 582 0148 47040000 		.word	.LC110
 583 014c 52040000 		.word	.LC111
 584 0150 57040000 		.word	.LC112
 585 0154 62040000 		.word	.LC113
 586 0158 6A040000 		.word	.LC114
 587 015c 76040000 		.word	.LC115
 588 0160 82040000 		.word	.LC116
 589 0164 89040000 		.word	.LC117
 590 0168 94040000 		.word	.LC118
 591 016c 9E040000 		.word	.LC119
 592 0170 A9040000 		.word	.LC120
 593 0174 B0040000 		.word	.LC121
 594 0178 BB040000 		.word	.LC122
 595 017c C0040000 		.word	.LC123
 596 0180 CA040000 		.word	.LC124
 597 0184 D0040000 		.word	.LC125
 598 0188 E8040000 		.word	.LC126
 599 018c F3040000 		.word	.LC127
 600 0190 06050000 		.word	.LC128
 601 0194 11050000 		.word	.LC129
 602 0198 15050000 		.word	.LC130
 603 019c 1D050000 		.word	.LC131
 604 01a0 24050000 		.word	.LC132
 605 01a4 29050000 		.word	.LC133
 606 01a8 34050000 		.word	.LC134
 607 01ac 3A050000 		.word	.LC135
 608 01b0 44050000 		.word	.LC136
 609 01b4 48050000 		.word	.LC137
 610 01b8 4E050000 		.word	.LC138
 611 01bc 53050000 		.word	.LC139
 612 01c0 57050000 		.word	.LC140
 613 01c4 68050000 		.word	.LC141
 614 01c8 74050000 		.word	.LC142
 615 01cc 7D050000 		.word	.LC143
 616 01d0 8D050000 		.word	.LC144
 617 01d4 93050000 		.word	.LC145
 618 01d8 9E050000 		.word	.LC146
 619 01dc A1050000 		.word	.LC147
 620 01e0 A7050000 		.word	.LC148
 621 01e4 BE050000 		.word	.LC149
 622 01e8 D5050000 		.word	.LC150
 623 01ec E0050000 		.word	.LC151
 624 01f0 EA050000 		.word	.LC152
 625 01f4 F2050000 		.word	.LC153
 626 01f8 00000000 		.word	0
 627              		.weak	_ZN11flatbuffers25flatbuffer_version_stringE
 628              		.section	.data._ZN11flatbuffers25flatbuffer_version_stringE,"aw",%progbits
 629              		.align	2
 632              	_ZN11flatbuffers25flatbuffer_version_stringE:
 633 0000 FE050000 		.word	.LC154
 634              		.section	.rodata.CSWTCH.21,"a",%progbits
 635              		.align	2
 636              		.set	.LANCHOR0,. + 0
 639              	CSWTCH.21:
 640 0000 54000000 		.word	.LC17
 641 0004 62000000 		.word	.LC18
 642 0008 71000000 		.word	.LC19
 643 000c 7E000000 		.word	.LC20
 644 0010 8B000000 		.word	.LC21
 645 0014 98000000 		.word	.LC22
 646 0018 A6000000 		.word	.LC23
 647 001c B2000000 		.word	.LC24
 648 0020 BF000000 		.word	.LC25
 649 0024 D0000000 		.word	.LC26
 650 0028 DC000000 		.word	.LC27
 651              		.section	.rodata.CSWTCH.23,"a",%progbits
 652              		.align	2
 653              		.set	.LANCHOR1,. + 0
 656              	CSWTCH.23:
 657 0000 00000000 		.word	.LC12
 658 0004 0F000000 		.word	.LC13
 659 0008 1D000000 		.word	.LC14
 660 000c 2C000000 		.word	.LC15
 661 0010 45000000 		.word	.LC16
 662              		.section	.rodata._ZN6tflite12_GLOBAL__N_114PrintIntVectorERKSt6vectorIiSaIiEE.str1.1,"aMS",%progbi
 663              	.LC0:
 664 0000 20256400 		.ascii	" %d\000"
 665              		.section	.rodata._ZN6tflite12_GLOBAL__N_120PrintTfLiteIntVectorEPK14TfLiteIntArray.str1.1,"aMS",%p
 666              	.LC1:
 667 0000 20286E75 		.ascii	" (null)\000"
 667      6C6C2900 
 668              		.section	.rodata._ZN6tflite12_GLOBAL__N_127flatbuffersVector2StdVectorERKN11flatbuffers6VectorIlEE
 669              	.LC2:
 670 0000 76656374 		.ascii	"vector::reserve\000"
 670      6F723A3A 
 670      72657365 
 670      72766500 
 671              		.section	.rodata._ZN6tflite21PrintInterpreterStateEPNS_16MicroInterpreterE.str1.1,"aMS",%progbits,
 672              	.LC3:
 673 0000 28696E76 		.ascii	"(invalid)\000"
 673      616C6964 
 673      2900
 674              	.LC4:
 675 000a 496E7465 		.ascii	"Interpreter has %zu tensors and %zu nodes\012\000"
 675      72707265 
 675      74657220 
 675      68617320 
 675      257A7520 
 676              	.LC5:
 677 0035 496E7075 		.ascii	"Inputs:\000"
 677      74733A00 
 678              	.LC6:
 679 003d 4F757470 		.ascii	"Outputs:\000"
 679      7574733A 
 679      00
 680              	.LC7:
 681 0046 54656E73 		.ascii	"Tensor %3zu %-20s %10s %15s %10zu bytes (%4.1f MB) "
 681      6F722025 
 681      337A7520 
 681      252D3230 
 681      73202531 
 682 0079 00       		.ascii	"\000"
 683              	.LC8:
 684 007a 4E6F6465 		.ascii	"Node %3zu Operator Custom Name %s\012\000"
 684      2025337A 
 684      75204F70 
 684      65726174 
 684      6F722043 
 685              	.LC9:
 686 009d 4E6F6465 		.ascii	"Node %3zu Operator Builtin Code %3ld %s\012\000"
 686      2025337A 
 686      75204F70 
 686      65726174 
 686      6F722042 
 687              	.LC10:
 688 00c6 2020496E 		.ascii	"  Inputs:\000"
 688      70757473 
 688      3A00
 689              	.LC11:
 690 00d0 20204F75 		.ascii	"  Outputs:\000"
 690      74707574 
 690      733A00
 691              		.section	.rodata.str1.1,"aMS",%progbits,1
 692              	.LC12:
 693 0000 6B54664C 		.ascii	"kTfLiteMemNone\000"
 693      6974654D 
 693      656D4E6F 
 693      6E6500
 694              	.LC13:
 695 000f 6B54664C 		.ascii	"kTfLiteMmapRo\000"
 695      6974654D 
 695      6D617052 
 695      6F00
 696              	.LC14:
 697 001d 6B54664C 		.ascii	"kTfLiteArenaRw\000"
 697      69746541 
 697      72656E61 
 697      527700
 698              	.LC15:
 699 002c 6B54664C 		.ascii	"kTfLiteArenaRwPersistent\000"
 699      69746541 
 699      72656E61 
 699      52775065 
 699      72736973 
 700              	.LC16:
 701 0045 6B54664C 		.ascii	"kTfLiteDynamic\000"
 701      69746544 
 701      796E616D 
 701      696300
 702              	.LC17:
 703 0054 6B54664C 		.ascii	"kTfLiteNoType\000"
 703      6974654E 
 703      6F547970 
 703      6500
 704              	.LC18:
 705 0062 6B54664C 		.ascii	"kTfLiteFloat32\000"
 705      69746546 
 705      6C6F6174 
 705      333200
 706              	.LC19:
 707 0071 6B54664C 		.ascii	"kTfLiteInt32\000"
 707      69746549 
 707      6E743332 
 707      00
 708              	.LC20:
 709 007e 6B54664C 		.ascii	"kTfLiteUInt8\000"
 709      69746555 
 709      496E7438 
 709      00
 710              	.LC21:
 711 008b 6B54664C 		.ascii	"kTfLiteInt64\000"
 711      69746549 
 711      6E743634 
 711      00
 712              	.LC22:
 713 0098 6B54664C 		.ascii	"kTfLiteString\000"
 713      69746553 
 713      7472696E 
 713      6700
 714              	.LC23:
 715 00a6 6B54664C 		.ascii	"kTfLiteBool\000"
 715      69746542 
 715      6F6F6C00 
 716              	.LC24:
 717 00b2 6B54664C 		.ascii	"kTfLiteInt16\000"
 717      69746549 
 717      6E743136 
 717      00
 718              	.LC25:
 719 00bf 6B54664C 		.ascii	"kTfLiteComplex64\000"
 719      69746543 
 719      6F6D706C 
 719      65783634 
 719      00
 720              	.LC26:
 721 00d0 6B54664C 		.ascii	"kTfLiteInt8\000"
 721      69746549 
 721      6E743800 
 722              	.LC27:
 723 00dc 6B54664C 		.ascii	"kTfLiteFloat16\000"
 723      69746546 
 723      6C6F6174 
 723      313600
 724              	.LC28:
 725 00eb 41444400 		.ascii	"ADD\000"
 726              	.LC29:
 727 00ef 41564552 		.ascii	"AVERAGE_POOL_2D\000"
 727      4147455F 
 727      504F4F4C 
 727      5F324400 
 728              	.LC30:
 729 00ff 434F4E43 		.ascii	"CONCATENATION\000"
 729      4154454E 
 729      4154494F 
 729      4E00
 730              	.LC31:
 731 010d 434F4E56 		.ascii	"CONV_2D\000"
 731      5F324400 
 732              	.LC32:
 733 0115 44455054 		.ascii	"DEPTHWISE_CONV_2D\000"
 733      48574953 
 733      455F434F 
 733      4E565F32 
 733      4400
 734              	.LC33:
 735 0127 44455054 		.ascii	"DEPTH_TO_SPACE\000"
 735      485F544F 
 735      5F535041 
 735      434500
 736              	.LC34:
 737 0136 44455155 		.ascii	"DEQUANTIZE\000"
 737      414E5449 
 737      5A4500
 738              	.LC35:
 739 0141 454D4245 		.ascii	"EMBEDDING_LOOKUP\000"
 739      4444494E 
 739      475F4C4F 
 739      4F4B5550 
 739      00
 740              	.LC36:
 741 0152 464C4F4F 		.ascii	"FLOOR\000"
 741      5200
 742              	.LC37:
 743 0158 46554C4C 		.ascii	"FULLY_CONNECTED\000"
 743      595F434F 
 743      4E4E4543 
 743      54454400 
 744              	.LC38:
 745 0168 48415348 		.ascii	"HASHTABLE_LOOKUP\000"
 745      5441424C 
 745      455F4C4F 
 745      4F4B5550 
 745      00
 746              	.LC39:
 747 0179 4C325F4E 		.ascii	"L2_NORMALIZATION\000"
 747      4F524D41 
 747      4C495A41 
 747      54494F4E 
 747      00
 748              	.LC40:
 749 018a 4C325F50 		.ascii	"L2_POOL_2D\000"
 749      4F4F4C5F 
 749      324400
 750              	.LC41:
 751 0195 4C4F4341 		.ascii	"LOCAL_RESPONSE_NORMALIZATION\000"
 751      4C5F5245 
 751      53504F4E 
 751      53455F4E 
 751      4F524D41 
 752              	.LC42:
 753 01b2 4C4F4749 		.ascii	"LOGISTIC\000"
 753      53544943 
 753      00
 754              	.LC43:
 755 01bb 4C53485F 		.ascii	"LSH_PROJECTION\000"
 755      50524F4A 
 755      45435449 
 755      4F4E00
 756              	.LC44:
 757 01ca 4C53544D 		.ascii	"LSTM\000"
 757      00
 758              	.LC45:
 759 01cf 4D41585F 		.ascii	"MAX_POOL_2D\000"
 759      504F4F4C 
 759      5F324400 
 760              	.LC46:
 761 01db 4D554C00 		.ascii	"MUL\000"
 762              	.LC47:
 763 01df 52454C55 		.ascii	"RELU\000"
 763      00
 764              	.LC48:
 765 01e4 52454C55 		.ascii	"RELU_N1_TO_1\000"
 765      5F4E315F 
 765      544F5F31 
 765      00
 766              	.LC49:
 767 01f1 52454C55 		.ascii	"RELU6\000"
 767      3600
 768              	.LC50:
 769 01f7 52455348 		.ascii	"RESHAPE\000"
 769      41504500 
 770              	.LC51:
 771 01ff 52455349 		.ascii	"RESIZE_BILINEAR\000"
 771      5A455F42 
 771      494C494E 
 771      45415200 
 772              	.LC52:
 773 020f 524E4E00 		.ascii	"RNN\000"
 774              	.LC53:
 775 0213 534F4654 		.ascii	"SOFTMAX\000"
 775      4D415800 
 776              	.LC54:
 777 021b 53504143 		.ascii	"SPACE_TO_DEPTH\000"
 777      455F544F 
 777      5F444550 
 777      544800
 778              	.LC55:
 779 022a 53564446 		.ascii	"SVDF\000"
 779      00
 780              	.LC56:
 781 022f 54414E48 		.ascii	"TANH\000"
 781      00
 782              	.LC57:
 783 0234 434F4E43 		.ascii	"CONCAT_EMBEDDINGS\000"
 783      41545F45 
 783      4D424544 
 783      44494E47 
 783      5300
 784              	.LC58:
 785 0246 534B4950 		.ascii	"SKIP_GRAM\000"
 785      5F475241 
 785      4D00
 786              	.LC59:
 787 0250 43414C4C 		.ascii	"CALL\000"
 787      00
 788              	.LC60:
 789 0255 43555354 		.ascii	"CUSTOM\000"
 789      4F4D00
 790              	.LC61:
 791 025c 454D4245 		.ascii	"EMBEDDING_LOOKUP_SPARSE\000"
 791      4444494E 
 791      475F4C4F 
 791      4F4B5550 
 791      5F535041 
 792              	.LC62:
 793 0274 50414400 		.ascii	"PAD\000"
 794              	.LC63:
 795 0278 554E4944 		.ascii	"UNIDIRECTIONAL_SEQUENCE_RNN\000"
 795      49524543 
 795      54494F4E 
 795      414C5F53 
 795      45515545 
 796              	.LC64:
 797 0294 47415448 		.ascii	"GATHER\000"
 797      455200
 798              	.LC65:
 799 029b 42415443 		.ascii	"BATCH_TO_SPACE_ND\000"
 799      485F544F 
 799      5F535041 
 799      43455F4E 
 799      4400
 800              	.LC66:
 801 02ad 53504143 		.ascii	"SPACE_TO_BATCH_ND\000"
 801      455F544F 
 801      5F424154 
 801      43485F4E 
 801      4400
 802              	.LC67:
 803 02bf 5452414E 		.ascii	"TRANSPOSE\000"
 803      53504F53 
 803      4500
 804              	.LC68:
 805 02c9 4D45414E 		.ascii	"MEAN\000"
 805      00
 806              	.LC69:
 807 02ce 53554200 		.ascii	"SUB\000"
 808              	.LC70:
 809 02d2 44495600 		.ascii	"DIV\000"
 810              	.LC71:
 811 02d6 53515545 		.ascii	"SQUEEZE\000"
 811      455A4500 
 812              	.LC72:
 813 02de 554E4944 		.ascii	"UNIDIRECTIONAL_SEQUENCE_LSTM\000"
 813      49524543 
 813      54494F4E 
 813      414C5F53 
 813      45515545 
 814              	.LC73:
 815 02fb 53545249 		.ascii	"STRIDED_SLICE\000"
 815      4445445F 
 815      534C4943 
 815      4500
 816              	.LC74:
 817 0309 42494449 		.ascii	"BIDIRECTIONAL_SEQUENCE_RNN\000"
 817      52454354 
 817      494F4E41 
 817      4C5F5345 
 817      5155454E 
 818              	.LC75:
 819 0324 45585000 		.ascii	"EXP\000"
 820              	.LC76:
 821 0328 544F504B 		.ascii	"TOPK_V2\000"
 821      5F563200 
 822              	.LC77:
 823 0330 53504C49 		.ascii	"SPLIT\000"
 823      5400
 824              	.LC78:
 825 0336 4C4F475F 		.ascii	"LOG_SOFTMAX\000"
 825      534F4654 
 825      4D415800 
 826              	.LC79:
 827 0342 44454C45 		.ascii	"DELEGATE\000"
 827      47415445 
 827      00
 828              	.LC80:
 829 034b 42494449 		.ascii	"BIDIRECTIONAL_SEQUENCE_LSTM\000"
 829      52454354 
 829      494F4E41 
 829      4C5F5345 
 829      5155454E 
 830              	.LC81:
 831 0367 43415354 		.ascii	"CAST\000"
 831      00
 832              	.LC82:
 833 036c 5052454C 		.ascii	"PRELU\000"
 833      5500
 834              	.LC83:
 835 0372 4D415849 		.ascii	"MAXIMUM\000"
 835      4D554D00 
 836              	.LC84:
 837 037a 4152475F 		.ascii	"ARG_MAX\000"
 837      4D415800 
 838              	.LC85:
 839 0382 4D494E49 		.ascii	"MINIMUM\000"
 839      4D554D00 
 840              	.LC86:
 841 038a 4C455353 		.ascii	"LESS\000"
 841      00
 842              	.LC87:
 843 038f 4E454700 		.ascii	"NEG\000"
 844              	.LC88:
 845 0393 50414456 		.ascii	"PADV2\000"
 845      3200
 846              	.LC89:
 847 0399 47524541 		.ascii	"GREATER\000"
 847      54455200 
 848              	.LC90:
 849 03a1 47524541 		.ascii	"GREATER_EQUAL\000"
 849      5445525F 
 849      45515541 
 849      4C00
 850              	.LC91:
 851 03af 4C455353 		.ascii	"LESS_EQUAL\000"
 851      5F455155 
 851      414C00
 852              	.LC92:
 853 03ba 53454C45 		.ascii	"SELECT\000"
 853      435400
 854              	.LC93:
 855 03c1 534C4943 		.ascii	"SLICE\000"
 855      4500
 856              	.LC94:
 857 03c7 53494E00 		.ascii	"SIN\000"
 858              	.LC95:
 859 03cb 5452414E 		.ascii	"TRANSPOSE_CONV\000"
 859      53504F53 
 859      455F434F 
 859      4E5600
 860              	.LC96:
 861 03da 53504152 		.ascii	"SPARSE_TO_DENSE\000"
 861      53455F54 
 861      4F5F4445 
 861      4E534500 
 862              	.LC97:
 863 03ea 54494C45 		.ascii	"TILE\000"
 863      00
 864              	.LC98:
 865 03ef 45585041 		.ascii	"EXPAND_DIMS\000"
 865      4E445F44 
 865      494D5300 
 866              	.LC99:
 867 03fb 45515541 		.ascii	"EQUAL\000"
 867      4C00
 868              	.LC100:
 869 0401 4E4F545F 		.ascii	"NOT_EQUAL\000"
 869      45515541 
 869      4C00
 870              	.LC101:
 871 040b 4C4F4700 		.ascii	"LOG\000"
 872              	.LC102:
 873 040f 53554D00 		.ascii	"SUM\000"
 874              	.LC103:
 875 0413 53515254 		.ascii	"SQRT\000"
 875      00
 876              	.LC104:
 877 0418 52535152 		.ascii	"RSQRT\000"
 877      5400
 878              	.LC105:
 879 041e 53484150 		.ascii	"SHAPE\000"
 879      4500
 880              	.LC106:
 881 0424 504F5700 		.ascii	"POW\000"
 882              	.LC107:
 883 0428 4152475F 		.ascii	"ARG_MIN\000"
 883      4D494E00 
 884              	.LC108:
 885 0430 46414B45 		.ascii	"FAKE_QUANT\000"
 885      5F515541 
 885      4E5400
 886              	.LC109:
 887 043b 52454455 		.ascii	"REDUCE_PROD\000"
 887      43455F50 
 887      524F4400 
 888              	.LC110:
 889 0447 52454455 		.ascii	"REDUCE_MAX\000"
 889      43455F4D 
 889      415800
 890              	.LC111:
 891 0452 5041434B 		.ascii	"PACK\000"
 891      00
 892              	.LC112:
 893 0457 4C4F4749 		.ascii	"LOGICAL_OR\000"
 893      43414C5F 
 893      4F5200
 894              	.LC113:
 895 0462 4F4E455F 		.ascii	"ONE_HOT\000"
 895      484F5400 
 896              	.LC114:
 897 046a 4C4F4749 		.ascii	"LOGICAL_AND\000"
 897      43414C5F 
 897      414E4400 
 898              	.LC115:
 899 0476 4C4F4749 		.ascii	"LOGICAL_NOT\000"
 899      43414C5F 
 899      4E4F5400 
 900              	.LC116:
 901 0482 554E5041 		.ascii	"UNPACK\000"
 901      434B00
 902              	.LC117:
 903 0489 52454455 		.ascii	"REDUCE_MIN\000"
 903      43455F4D 
 903      494E00
 904              	.LC118:
 905 0494 464C4F4F 		.ascii	"FLOOR_DIV\000"
 905      525F4449 
 905      5600
 906              	.LC119:
 907 049e 52454455 		.ascii	"REDUCE_ANY\000"
 907      43455F41 
 907      4E5900
 908              	.LC120:
 909 04a9 53515541 		.ascii	"SQUARE\000"
 909      524500
 910              	.LC121:
 911 04b0 5A45524F 		.ascii	"ZEROS_LIKE\000"
 911      535F4C49 
 911      4B4500
 912              	.LC122:
 913 04bb 46494C4C 		.ascii	"FILL\000"
 913      00
 914              	.LC123:
 915 04c0 464C4F4F 		.ascii	"FLOOR_MOD\000"
 915      525F4D4F 
 915      4400
 916              	.LC124:
 917 04ca 52414E47 		.ascii	"RANGE\000"
 917      4500
 918              	.LC125:
 919 04d0 52455349 		.ascii	"RESIZE_NEAREST_NEIGHBOR\000"
 919      5A455F4E 
 919      45415245 
 919      53545F4E 
 919      45494748 
 920              	.LC126:
 921 04e8 4C45414B 		.ascii	"LEAKY_RELU\000"
 921      595F5245 
 921      4C5500
 922              	.LC127:
 923 04f3 53515541 		.ascii	"SQUARED_DIFFERENCE\000"
 923      5245445F 
 923      44494646 
 923      4552454E 
 923      434500
 924              	.LC128:
 925 0506 4D495252 		.ascii	"MIRROR_PAD\000"
 925      4F525F50 
 925      414400
 926              	.LC129:
 927 0511 41425300 		.ascii	"ABS\000"
 928              	.LC130:
 929 0515 53504C49 		.ascii	"SPLIT_V\000"
 929      545F5600 
 930              	.LC131:
 931 051d 554E4951 		.ascii	"UNIQUE\000"
 931      554500
 932              	.LC132:
 933 0524 4345494C 		.ascii	"CEIL\000"
 933      00
 934              	.LC133:
 935 0529 52455645 		.ascii	"REVERSE_V2\000"
 935      5253455F 
 935      563200
 936              	.LC134:
 937 0534 4144445F 		.ascii	"ADD_N\000"
 937      4E00
 938              	.LC135:
 939 053a 47415448 		.ascii	"GATHER_ND\000"
 939      45525F4E 
 939      4400
 940              	.LC136:
 941 0544 434F5300 		.ascii	"COS\000"
 942              	.LC137:
 943 0548 57484552 		.ascii	"WHERE\000"
 943      4500
 944              	.LC138:
 945 054e 52414E4B 		.ascii	"RANK\000"
 945      00
 946              	.LC139:
 947 0553 454C5500 		.ascii	"ELU\000"
 948              	.LC140:
 949 0557 52455645 		.ascii	"REVERSE_SEQUENCE\000"
 949      5253455F 
 949      53455155 
 949      454E4345 
 949      00
 950              	.LC141:
 951 0568 4D415452 		.ascii	"MATRIX_DIAG\000"
 951      49585F44 
 951      49414700 
 952              	.LC142:
 953 0574 5155414E 		.ascii	"QUANTIZE\000"
 953      54495A45 
 953      00
 954              	.LC143:
 955 057d 4D415452 		.ascii	"MATRIX_SET_DIAG\000"
 955      49585F53 
 955      45545F44 
 955      49414700 
 956              	.LC144:
 957 058d 524F554E 		.ascii	"ROUND\000"
 957      4400
 958              	.LC145:
 959 0593 48415244 		.ascii	"HARD_SWISH\000"
 959      5F535749 
 959      534800
 960              	.LC146:
 961 059e 494600   		.ascii	"IF\000"
 962              	.LC147:
 963 05a1 5748494C 		.ascii	"WHILE\000"
 963      4500
 964              	.LC148:
 965 05a7 4E4F4E5F 		.ascii	"NON_MAX_SUPPRESSION_V4\000"
 965      4D41585F 
 965      53555050 
 965      52455353 
 965      494F4E5F 
 966              	.LC149:
 967 05be 4E4F4E5F 		.ascii	"NON_MAX_SUPPRESSION_V5\000"
 967      4D41585F 
 967      53555050 
 967      52455353 
 967      494F4E5F 
 968              	.LC150:
 969 05d5 53434154 		.ascii	"SCATTER_ND\000"
 969      5445525F 
 969      4E4400
 970              	.LC151:
 971 05e0 53454C45 		.ascii	"SELECT_V2\000"
 971      43545F56 
 971      3200
 972              	.LC152:
 973 05ea 44454E53 		.ascii	"DENSIFY\000"
 973      49465900 
 974              	.LC153:
 975 05f2 5345474D 		.ascii	"SEGMENT_SUM\000"
 975      454E545F 
 975      53554D00 
 976              	.LC154:
 977 05fe 466C6174 		.ascii	"FlatBuffers 1.11.0\000"
 977      42756666 
 977      65727320 
 977      312E3131 
 977      2E3000
 978              		.ident	"GCC: (GNU Tools for ARM Embedded Processors 6-2017-q2-update) 6.3.1 20170620 (release) [AR