   1              		.cpu cortex-a9
   2              		.eabi_attribute 28, 1
   3              		.eabi_attribute 20, 1
   4              		.eabi_attribute 21, 1
   5              		.eabi_attribute 23, 3
   6              		.eabi_attribute 24, 1
   7              		.eabi_attribute 25, 1
   8              		.eabi_attribute 26, 1
   9              		.eabi_attribute 30, 4
  10              		.eabi_attribute 34, 0
  11              		.eabi_attribute 18, 4
  12              		.file	"micro_allocator.cpp"
  13              		.section	.text._ZN6tflite12_GLOBAL__N_125MicroBuiltinDataAllocator10DeallocateEPv,"ax",%progbits
  14              		.align	2
  15              		.syntax unified
  16              		.arm
  17              		.fpu neon
  19              	_ZN6tflite12_GLOBAL__N_125MicroBuiltinDataAllocator10DeallocateEPv:
  20              		.fnstart
  21              	.LFB6106:
  22              		@ args = 0, pretend = 0, frame = 0
  23              		@ frame_needed = 0, uses_anonymous_args = 0
  24              		@ link register save eliminated.
  25 0000 1EFF2FE1 		bx	lr
  26              		.cantunwind
  27              		.fnend
  29              		.section	.text._ZN6tflite12_GLOBAL__N_125MicroBuiltinDataAllocatorD2Ev,"ax",%progbits
  30              		.align	2
  31              		.syntax unified
  32              		.arm
  33              		.fpu neon
  35              	_ZN6tflite12_GLOBAL__N_125MicroBuiltinDataAllocatorD2Ev:
  36              		.fnstart
  37              	.LFB9772:
  38              		@ args = 0, pretend = 0, frame = 0
  39              		@ frame_needed = 0, uses_anonymous_args = 0
  40              		@ link register save eliminated.
  41 0000 1EFF2FE1 		bx	lr
  42              		.cantunwind
  43              		.fnend
  45              		.set	_ZN6tflite12_GLOBAL__N_125MicroBuiltinDataAllocatorD1Ev,_ZN6tflite12_GLOBAL__N_125MicroBuilti
  46              		.section	.text._ZN6tflite12_GLOBAL__N_125MicroBuiltinDataAllocator8AllocateEj,"ax",%progbits
  47              		.align	2
  48              		.syntax unified
  49              		.arm
  50              		.fpu neon
  52              	_ZN6tflite12_GLOBAL__N_125MicroBuiltinDataAllocator8AllocateEj:
  53              		.fnstart
  54              	.LFB6104:
  55              		@ args = 0, pretend = 0, frame = 0
  56              		@ frame_needed = 0, uses_anonymous_args = 0
  57              		@ link register save eliminated.
  58 0000 080051E3 		cmp	r1, #8
  59 0004 040090E5 		ldr	r0, [r0, #4]
  60 0008 0120A031 		movcc	r2, r1
  61 000c 0820A023 		movcs	r2, #8
  62 0010 FEFFFFEA 		b	_ZN6tflite21SimpleMemoryAllocator16AllocateFromTailEjj
  63              		.cantunwind
  64              		.fnend
  66              		.section	.text._ZN6tflite12_GLOBAL__N_125MicroBuiltinDataAllocatorD0Ev,"ax",%progbits
  67              		.align	2
  68              		.syntax unified
  69              		.arm
  70              		.fpu neon
  72              	_ZN6tflite12_GLOBAL__N_125MicroBuiltinDataAllocatorD0Ev:
  73              		.fnstart
  74              	.LFB9774:
  75              		@ args = 0, pretend = 0, frame = 0
  76              		@ frame_needed = 0, uses_anonymous_args = 0
  77 0000 10402DE9 		push	{r4, lr}
  78 0004 0810A0E3 		mov	r1, #8
  79 0008 0040A0E1 		mov	r4, r0
  80 000c FEFFFFEB 		bl	_ZdlPvj
  81 0010 0400A0E1 		mov	r0, r4
  82 0014 1080BDE8 		pop	{r4, pc}
  83              		.cantunwind
  84              		.fnend
  86              		.section	.text._ZNK11flatbuffers5Table22GetOptionalFieldOffsetEt,"axG",%progbits,_ZNK11flatbuffers
  87              		.align	2
  88              		.weak	_ZNK11flatbuffers5Table22GetOptionalFieldOffsetEt
  89              		.syntax unified
  90              		.arm
  91              		.fpu neon
  93              	_ZNK11flatbuffers5Table22GetOptionalFieldOffsetEt:
  94              		.fnstart
  95              	.LFB3697:
  96              		@ args = 0, pretend = 0, frame = 0
  97              		@ frame_needed = 0, uses_anonymous_args = 0
  98              		@ link register save eliminated.
  99 0000 003090E5 		ldr	r3, [r0]
 100 0004 030040E0 		sub	r0, r0, r3
 101 0008 B030D0E1 		ldrh	r3, [r0]
 102 000c 030051E1 		cmp	r1, r3
 103 0010 B10090B1 		ldrhlt	r0, [r0, r1]
 104 0014 0000A0A3 		movge	r0, #0
 105 0018 1EFF2FE1 		bx	lr
 106              		.cantunwind
 107              		.fnend
 109              		.section	.text._ZNK6tflite22QuantizationParameters5scaleEv,"axG",%progbits,_ZNK6tflite22Quantizati
 110              		.align	2
 111              		.weak	_ZNK6tflite22QuantizationParameters5scaleEv
 112              		.syntax unified
 113              		.arm
 114              		.fpu neon
 116              	_ZNK6tflite22QuantizationParameters5scaleEv:
 117              		.fnstart
 118              	.LFB4004:
 119              		@ args = 0, pretend = 0, frame = 0
 120              		@ frame_needed = 0, uses_anonymous_args = 0
 121 0000 10402DE9 		push	{r4, lr}
 122 0004 0810A0E3 		mov	r1, #8
 123 0008 0040A0E1 		mov	r4, r0
 124 000c FEFFFFEB 		bl	_ZNK11flatbuffers5Table22GetOptionalFieldOffsetEt
 125 0010 000050E3 		cmp	r0, #0
 126 0014 003084E0 		add	r3, r4, r0
 127 0018 00009417 		ldrne	r0, [r4, r0]
 128 001c 00008310 		addne	r0, r3, r0
 129 0020 1080BDE8 		pop	{r4, pc}
 130              		.cantunwind
 131              		.fnend
 133              		.section	.text._ZNK6tflite22QuantizationParameters10zero_pointEv,"axG",%progbits,_ZNK6tflite22Quan
 134              		.align	2
 135              		.weak	_ZNK6tflite22QuantizationParameters10zero_pointEv
 136              		.syntax unified
 137              		.arm
 138              		.fpu neon
 140              	_ZNK6tflite22QuantizationParameters10zero_pointEv:
 141              		.fnstart
 142              	.LFB4005:
 143              		@ args = 0, pretend = 0, frame = 0
 144              		@ frame_needed = 0, uses_anonymous_args = 0
 145 0000 10402DE9 		push	{r4, lr}
 146 0004 0A10A0E3 		mov	r1, #10
 147 0008 0040A0E1 		mov	r4, r0
 148 000c FEFFFFEB 		bl	_ZNK11flatbuffers5Table22GetOptionalFieldOffsetEt
 149 0010 000050E3 		cmp	r0, #0
 150 0014 003084E0 		add	r3, r4, r0
 151 0018 00009417 		ldrne	r0, [r4, r0]
 152 001c 00008310 		addne	r0, r3, r0
 153 0020 1080BDE8 		pop	{r4, pc}
 154              		.cantunwind
 155              		.fnend
 157              		.section	.text._ZNK6tflite6Tensor11is_variableEv,"axG",%progbits,_ZNK6tflite6Tensor11is_variableEv
 158              		.align	2
 159              		.weak	_ZNK6tflite6Tensor11is_variableEv
 160              		.syntax unified
 161              		.arm
 162              		.fpu neon
 164              	_ZNK6tflite6Tensor11is_variableEv:
 165              		.fnstart
 166              	.LFB4109:
 167              		@ args = 0, pretend = 0, frame = 0
 168              		@ frame_needed = 0, uses_anonymous_args = 0
 169 0000 10402DE9 		push	{r4, lr}
 170 0004 0E10A0E3 		mov	r1, #14
 171 0008 0040A0E1 		mov	r4, r0
 172 000c FEFFFFEB 		bl	_ZNK11flatbuffers5Table22GetOptionalFieldOffsetEt
 173 0010 000050E3 		cmp	r0, #0
 174 0014 0000D417 		ldrbne	r0, [r4, r0]	@ zero_extendqisi2
 175 0018 000090E2 		adds	r0, r0, #0
 176 001c 0100A013 		movne	r0, #1
 177 0020 1080BDE8 		pop	{r4, pc}
 178              		.cantunwind
 179              		.fnend
 181              		.section	.text._ZNK6tflite12OperatorCode12builtin_codeEv,"axG",%progbits,_ZNK6tflite12OperatorCode
 182              		.align	2
 183              		.weak	_ZNK6tflite12OperatorCode12builtin_codeEv
 184              		.syntax unified
 185              		.arm
 186              		.fpu neon
 188              	_ZNK6tflite12OperatorCode12builtin_codeEv:
 189              		.fnstart
 190              	.LFB5247:
 191              		@ args = 0, pretend = 0, frame = 0
 192              		@ frame_needed = 0, uses_anonymous_args = 0
 193 0000 10402DE9 		push	{r4, lr}
 194 0004 0410A0E3 		mov	r1, #4
 195 0008 0040A0E1 		mov	r4, r0
 196 000c FEFFFFEB 		bl	_ZNK11flatbuffers5Table22GetOptionalFieldOffsetEt
 197 0010 000050E3 		cmp	r0, #0
 198 0014 D0009411 		ldrsbne	r0, [r4, r0]
 199 0018 7000EFE6 		uxtb	r0, r0
 200 001c 1080BDE8 		pop	{r4, pc}
 201              		.cantunwind
 202              		.fnend
 204              		.section	.text._ZNK6tflite8SubGraph7tensorsEv,"axG",%progbits,_ZNK6tflite8SubGraph7tensorsEv,comda
 205              		.align	2
 206              		.weak	_ZNK6tflite8SubGraph7tensorsEv
 207              		.syntax unified
 208              		.arm
 209              		.fpu neon
 211              	_ZNK6tflite8SubGraph7tensorsEv:
 212              		.fnstart
 213              	.LFB5491:
 214              		@ args = 0, pretend = 0, frame = 0
 215              		@ frame_needed = 0, uses_anonymous_args = 0
 216 0000 10402DE9 		push	{r4, lr}
 217 0004 0410A0E3 		mov	r1, #4
 218 0008 0040A0E1 		mov	r4, r0
 219 000c FEFFFFEB 		bl	_ZNK11flatbuffers5Table22GetOptionalFieldOffsetEt
 220 0010 000050E3 		cmp	r0, #0
 221 0014 003084E0 		add	r3, r4, r0
 222 0018 00009417 		ldrne	r0, [r4, r0]
 223 001c 00008310 		addne	r0, r3, r0
 224 0020 1080BDE8 		pop	{r4, pc}
 225              		.cantunwind
 226              		.fnend
 228              		.section	.text._ZNK11flatbuffers6VectorIfE3GetEm,"axG",%progbits,_ZNK11flatbuffers6VectorIfE3GetEm
 229              		.align	2
 230              		.weak	_ZNK11flatbuffers6VectorIfE3GetEm
 231              		.syntax unified
 232              		.arm
 233              		.fpu neon
 235              	_ZNK11flatbuffers6VectorIfE3GetEm:
 236              		.fnstart
 237              	.LFB6972:
 238              		@ args = 0, pretend = 0, frame = 0
 239              		@ frame_needed = 0, uses_anonymous_args = 0
 240 0000 003090E5 		ldr	r3, [r0]
 241 0004 030051E1 		cmp	r1, r3
 242 0008 0500003A 		bcc	.L30
 243 000c 10402DE9 		push	{r4, lr}
 244              		.save {r4, lr}
 245 0010 ED10A0E3 		mov	r1, #237
 246 0014 14309FE5 		ldr	r3, .L34
 247 0018 14209FE5 		ldr	r2, .L34+4
 248 001c 14009FE5 		ldr	r0, .L34+8
 249 0020 FEFFFFEB 		bl	__assert_func
 250              	.L30:
 251 0024 010180E0 		add	r0, r0, r1, lsl #2
 252 0028 010A90ED 		vldr.32	s0, [r0, #4]
 253 002c 1EFF2FE1 		bx	lr
 254              	.L35:
 255              		.align	2
 256              	.L34:
 257 0030 00000000 		.word	.LC0
 258 0034 00000000 		.word	.LANCHOR0
 259 0038 0B000000 		.word	.LC1
 260              		.fnend
 262              		.section	.text._ZNK11flatbuffers6VectorIxE3GetEm,"axG",%progbits,_ZNK11flatbuffers6VectorIxE3GetEm
 263              		.align	2
 264              		.weak	_ZNK11flatbuffers6VectorIxE3GetEm
 265              		.syntax unified
 266              		.arm
 267              		.fpu neon
 269              	_ZNK11flatbuffers6VectorIxE3GetEm:
 270              		.fnstart
 271              	.LFB6976:
 272              		@ args = 0, pretend = 0, frame = 0
 273              		@ frame_needed = 0, uses_anonymous_args = 0
 274 0000 003090E5 		ldr	r3, [r0]
 275 0004 030051E1 		cmp	r1, r3
 276 0008 0500003A 		bcc	.L37
 277 000c 10402DE9 		push	{r4, lr}
 278              		.save {r4, lr}
 279 0010 ED10A0E3 		mov	r1, #237
 280 0014 14309FE5 		ldr	r3, .L41
 281 0018 14209FE5 		ldr	r2, .L41+4
 282 001c 14009FE5 		ldr	r0, .L41+8
 283 0020 FEFFFFEB 		bl	__assert_func
 284              	.L37:
 285 0024 810180E0 		add	r0, r0, r1, lsl #3
 286 0028 D400C0E1 		ldrd	r0, [r0, #4]
 287 002c 1EFF2FE1 		bx	lr
 288              	.L42:
 289              		.align	2
 290              	.L41:
 291 0030 00000000 		.word	.LC0
 292 0034 00000000 		.word	.LANCHOR1
 293 0038 0B000000 		.word	.LC1
 294              		.fnend
 296              		.section	.text._ZNK11flatbuffers6VectorIlE3GetEm,"axG",%progbits,_ZNK11flatbuffers6VectorIlE3GetEm
 297              		.align	2
 298              		.weak	_ZNK11flatbuffers6VectorIlE3GetEm
 299              		.syntax unified
 300              		.arm
 301              		.fpu neon
 303              	_ZNK11flatbuffers6VectorIlE3GetEm:
 304              		.fnstart
 305              	.LFB6982:
 306              		@ args = 0, pretend = 0, frame = 0
 307              		@ frame_needed = 0, uses_anonymous_args = 0
 308 0000 003090E5 		ldr	r3, [r0]
 309 0004 030051E1 		cmp	r1, r3
 310 0008 0500003A 		bcc	.L44
 311 000c 10402DE9 		push	{r4, lr}
 312              		.save {r4, lr}
 313 0010 ED10A0E3 		mov	r1, #237
 314 0014 14309FE5 		ldr	r3, .L48
 315 0018 14209FE5 		ldr	r2, .L48+4
 316 001c 14009FE5 		ldr	r0, .L48+8
 317 0020 FEFFFFEB 		bl	__assert_func
 318              	.L44:
 319 0024 010180E0 		add	r0, r0, r1, lsl #2
 320 0028 040090E5 		ldr	r0, [r0, #4]
 321 002c 1EFF2FE1 		bx	lr
 322              	.L49:
 323              		.align	2
 324              	.L48:
 325 0030 00000000 		.word	.LC0
 326 0034 00000000 		.word	.LANCHOR2
 327 0038 0B000000 		.word	.LC1
 328              		.fnend
 330              		.section	.text._ZNK11flatbuffers6VectorINS_6OffsetIN6tflite6TensorEEEE3GetEm,"axG",%progbits,_ZNK1
 331              		.align	2
 332              		.weak	_ZNK11flatbuffers6VectorINS_6OffsetIN6tflite6TensorEEEE3GetEm
 333              		.syntax unified
 334              		.arm
 335              		.fpu neon
 337              	_ZNK11flatbuffers6VectorINS_6OffsetIN6tflite6TensorEEEE3GetEm:
 338              		.fnstart
 339              	.LFB7055:
 340              		@ args = 0, pretend = 0, frame = 0
 341              		@ frame_needed = 0, uses_anonymous_args = 0
 342 0000 003090E5 		ldr	r3, [r0]
 343 0004 030051E1 		cmp	r1, r3
 344 0008 0500003A 		bcc	.L51
 345 000c 10402DE9 		push	{r4, lr}
 346              		.save {r4, lr}
 347 0010 ED10A0E3 		mov	r1, #237
 348 0014 1C309FE5 		ldr	r3, .L55
 349 0018 1C209FE5 		ldr	r2, .L55+4
 350 001c 1C009FE5 		ldr	r0, .L55+8
 351 0020 FEFFFFEB 		bl	__assert_func
 352              	.L51:
 353 0024 040080E2 		add	r0, r0, #4
 354 0028 012180E0 		add	r2, r0, r1, lsl #2
 355 002c 010190E7 		ldr	r0, [r0, r1, lsl #2]
 356 0030 000082E0 		add	r0, r2, r0
 357 0034 1EFF2FE1 		bx	lr
 358              	.L56:
 359              		.align	2
 360              	.L55:
 361 0038 00000000 		.word	.LC0
 362 003c 00000000 		.word	.LANCHOR3
 363 0040 0B000000 		.word	.LC1
 364              		.fnend
 366              		.section	.text._ZNK11flatbuffers6VectorINS_6OffsetIN6tflite8OperatorEEEE3GetEm,"axG",%progbits,_ZN
 367              		.align	2
 368              		.weak	_ZNK11flatbuffers6VectorINS_6OffsetIN6tflite8OperatorEEEE3GetEm
 369              		.syntax unified
 370              		.arm
 371              		.fpu neon
 373              	_ZNK11flatbuffers6VectorINS_6OffsetIN6tflite8OperatorEEEE3GetEm:
 374              		.fnstart
 375              	.LFB7089:
 376              		@ args = 0, pretend = 0, frame = 0
 377              		@ frame_needed = 0, uses_anonymous_args = 0
 378 0000 003090E5 		ldr	r3, [r0]
 379 0004 030051E1 		cmp	r1, r3
 380 0008 0500003A 		bcc	.L58
 381 000c 10402DE9 		push	{r4, lr}
 382              		.save {r4, lr}
 383 0010 ED10A0E3 		mov	r1, #237
 384 0014 1C309FE5 		ldr	r3, .L62
 385 0018 1C209FE5 		ldr	r2, .L62+4
 386 001c 1C009FE5 		ldr	r0, .L62+8
 387 0020 FEFFFFEB 		bl	__assert_func
 388              	.L58:
 389 0024 040080E2 		add	r0, r0, #4
 390 0028 012180E0 		add	r2, r0, r1, lsl #2
 391 002c 010190E7 		ldr	r0, [r0, r1, lsl #2]
 392 0030 000082E0 		add	r0, r2, r0
 393 0034 1EFF2FE1 		bx	lr
 394              	.L63:
 395              		.align	2
 396              	.L62:
 397 0038 00000000 		.word	.LC0
 398 003c 00000000 		.word	.LANCHOR4
 399 0040 0B000000 		.word	.LC1
 400              		.fnend
 402              		.section	.text._ZN11flatbuffers5Table10GetPointerIPKNS_6VectorIhEEEET_t,"axG",%progbits,_ZN11flatb
 403              		.align	2
 404              		.weak	_ZN11flatbuffers5Table10GetPointerIPKNS_6VectorIhEEEET_t
 405              		.syntax unified
 406              		.arm
 407              		.fpu neon
 409              	_ZN11flatbuffers5Table10GetPointerIPKNS_6VectorIhEEEET_t:
 410              		.fnstart
 411              	.LFB7762:
 412              		@ args = 0, pretend = 0, frame = 0
 413              		@ frame_needed = 0, uses_anonymous_args = 0
 414 0000 10402DE9 		push	{r4, lr}
 415 0004 0040A0E1 		mov	r4, r0
 416 0008 FEFFFFEB 		bl	_ZNK11flatbuffers5Table22GetOptionalFieldOffsetEt
 417 000c 000050E3 		cmp	r0, #0
 418 0010 003084E0 		add	r3, r4, r0
 419 0014 00009417 		ldrne	r0, [r4, r0]
 420 0018 00008310 		addne	r0, r3, r0
 421 001c 1080BDE8 		pop	{r4, pc}
 422              		.cantunwind
 423              		.fnend
 425              		.section	.text._ZN11flatbuffers5Table10GetPointerIPKNS_6VectorIlEEEET_t,"axG",%progbits,_ZN11flatb
 426              		.align	2
 427              		.weak	_ZN11flatbuffers5Table10GetPointerIPKNS_6VectorIlEEEET_t
 428              		.syntax unified
 429              		.arm
 430              		.fpu neon
 432              	_ZN11flatbuffers5Table10GetPointerIPKNS_6VectorIlEEEET_t:
 433              		.fnstart
 434              	.LFB7815:
 435              		@ args = 0, pretend = 0, frame = 0
 436              		@ frame_needed = 0, uses_anonymous_args = 0
 437 0000 10402DE9 		push	{r4, lr}
 438 0004 0040A0E1 		mov	r4, r0
 439 0008 FEFFFFEB 		bl	_ZNK11flatbuffers5Table22GetOptionalFieldOffsetEt
 440 000c 000050E3 		cmp	r0, #0
 441 0010 003084E0 		add	r3, r4, r0
 442 0014 00009417 		ldrne	r0, [r4, r0]
 443 0018 00008310 		addne	r0, r3, r0
 444 001c 1080BDE8 		pop	{r4, pc}
 445              		.cantunwind
 446              		.fnend
 448              		.section	.text._ZN6tflite8internal23InitializeRuntimeTensorEPNS_21SimpleMemoryAllocatorERKNS_6Tens
 449              		.align	2
 450              		.global	_ZN6tflite8internal23InitializeRuntimeTensorEPNS_21SimpleMemoryAllocatorERKNS_6TensorEPKN1
 451              		.syntax unified
 452              		.arm
 453              		.fpu neon
 455              	_ZN6tflite8internal23InitializeRuntimeTensorEPNS_21SimpleMemoryAllocatorERKNS_6TensorEPKN11flatbuff
 456              		.fnstart
 457              	.LFB6111:
 458              		@ args = 4, pretend = 0, frame = 8
 459              		@ frame_needed = 0, uses_anonymous_args = 0
 460 0000 F74F2DE9 		push	{r0, r1, r2, r4, r5, r6, r7, r8, r9, r10, fp, lr}
 461              		.save {r4, r5, r6, r7, r8, r9, r10, fp, lr}
 462              		.pad #12
 463 0004 0150A0E1 		mov	r5, r1
 464 0008 30409DE5 		ldr	r4, [sp, #48]
 465 000c 0010A0E3 		mov	r1, #0
 466 0010 0080A0E1 		mov	r8, r0
 467 0014 0260A0E1 		mov	r6, r2
 468 0018 4020A0E3 		mov	r2, #64
 469 001c 0370A0E1 		mov	r7, r3
 470 0020 0400A0E1 		mov	r0, r4
 471 0024 FEFFFFEB 		bl	memset
 472 0028 0610A0E3 		mov	r1, #6
 473 002c 0500A0E1 		mov	r0, r5
 474 0030 FEFFFFEB 		bl	_ZNK11flatbuffers5Table22GetOptionalFieldOffsetEt
 475 0034 000050E3 		cmp	r0, #0
 476 0038 0720A0E1 		mov	r2, r7
 477 003c D0009511 		ldrsbne	r0, [r5, r0]
 478 0040 0410A0E1 		mov	r1, r4
 479 0044 7000EFE6 		uxtb	r0, r0
 480 0048 FEFFFFEB 		bl	_ZN6tflite17ConvertTensorTypeENS_10TensorTypeEP10TfLiteTypePNS_13ErrorReporterE
 481 004c 000050E3 		cmp	r0, #0
 482 0050 5C00001A 		bne	.L88
 483 0054 0500A0E1 		mov	r0, r5
 484 0058 FEFFFFEB 		bl	_ZNK6tflite6Tensor11is_variableEv
 485 005c 0810A0E3 		mov	r1, #8
 486 0060 2D00C4E5 		strb	r0, [r4, #45]
 487 0064 0500A0E1 		mov	r0, r5
 488 0068 FEFFFFEB 		bl	_ZNK11flatbuffers5Table22GetOptionalFieldOffsetEt
 489 006c 000050E3 		cmp	r0, #0
 490 0070 003096E5 		ldr	r3, [r6]
 491 0074 00009517 		ldrne	r0, [r5, r0]
 492 0078 000053E1 		cmp	r3, r0
 493 007c 0400008A 		bhi	.L76
 494 0080 0C329FE5 		ldr	r3, .L119
 495 0084 ED10A0E3 		mov	r1, #237
 496 0088 08229FE5 		ldr	r2, .L119+4
 497 008c 08029FE5 		ldr	r0, .L119+8
 498 0090 FEFFFFEB 		bl	__assert_func
 499              	.L76:
 500 0094 046086E2 		add	r6, r6, #4
 501 0098 003186E0 		add	r3, r6, r0, lsl #2
 502 009c 000196E7 		ldr	r0, [r6, r0, lsl #2]
 503 00a0 000093E0 		adds	r0, r3, r0
 504 00a4 0900000A 		beq	.L77
 505 00a8 0410A0E3 		mov	r1, #4
 506 00ac FEFFFFEB 		bl	_ZN11flatbuffers5Table10GetPointerIPKNS_6VectorIhEEEET_t
 507 00b0 000050E3 		cmp	r0, #0
 508 00b4 0500000A 		beq	.L77
 509 00b8 003090E5 		ldr	r3, [r0]
 510 00bc 000053E3 		cmp	r3, #0
 511 00c0 04008012 		addne	r0, r0, #4
 512 00c4 0130A013 		movne	r3, #1
 513 00c8 04008415 		strne	r0, [r4, #4]
 514 00cc 1430C415 		strbne	r3, [r4, #20]
 515              	.L77:
 516 00d0 043094E5 		ldr	r3, [r4, #4]
 517 00d4 04208DE2 		add	r2, sp, #4
 518 00d8 181084E2 		add	r1, r4, #24
 519 00dc 0500A0E1 		mov	r0, r5
 520 00e0 000053E3 		cmp	r3, #0
 521 00e4 0230A003 		moveq	r3, #2
 522 00e8 1430C405 		strbeq	r3, [r4, #20]
 523 00ec 0730A0E1 		mov	r3, r7
 524 00f0 FEFFFFEB 		bl	_ZN6tflite22BytesRequiredForTensorERKNS_6TensorEPjS3_PNS_13ErrorReporterE
 525 00f4 007050E2 		subs	r7, r0, #0
 526 00f8 3200001A 		bne	.L88
 527 00fc 0410A0E3 		mov	r1, #4
 528 0100 0500A0E1 		mov	r0, r5
 529 0104 FEFFFFEB 		bl	_ZN11flatbuffers5Table10GetPointerIPKNS_6VectorIlEEEET_t
 530 0108 0C10A0E3 		mov	r1, #12
 531 010c 080084E5 		str	r0, [r4, #8]
 532 0110 0500A0E1 		mov	r0, r5
 533 0114 FEFFFFEB 		bl	_ZNK11flatbuffers5Table22GetOptionalFieldOffsetEt
 534 0118 000050E3 		cmp	r0, #0
 535 011c 006085E0 		add	r6, r5, r0
 536 0120 1000000A 		beq	.L80
 537 0124 003095E7 		ldr	r3, [r5, r0]
 538 0128 036096E0 		adds	r6, r6, r3
 539 012c 0D00000A 		beq	.L80
 540 0130 0600A0E1 		mov	r0, r6
 541 0134 FEFFFFEB 		bl	_ZNK6tflite22QuantizationParameters5scaleEv
 542 0138 009050E2 		subs	r9, r0, #0
 543 013c 0900000A 		beq	.L80
 544 0140 003099E5 		ldr	r3, [r9]
 545 0144 000053E3 		cmp	r3, #0
 546 0148 0600000A 		beq	.L80
 547 014c 0600A0E1 		mov	r0, r6
 548 0150 FEFFFFEB 		bl	_ZNK6tflite22QuantizationParameters10zero_pointEv
 549 0154 000050E3 		cmp	r0, #0
 550 0158 0200000A 		beq	.L80
 551 015c 003090E5 		ldr	r3, [r0]
 552 0160 000053E3 		cmp	r3, #0
 553 0164 1900001A 		bne	.L81
 554              	.L80:
 555 0168 0A10A0E3 		mov	r1, #10
 556 016c 0500A0E1 		mov	r0, r5
 557 0170 FEFFFFEB 		bl	_ZNK11flatbuffers5Table22GetOptionalFieldOffsetEt
 558 0174 000050E3 		cmp	r0, #0
 559 0178 003085E0 		add	r3, r5, r0
 560 017c 00009517 		ldrne	r0, [r5, r0]
 561 0180 00008310 		addne	r0, r3, r0
 562 0184 040090E2 		adds	r0, r0, #4
 563 0188 10319F05 		ldreq	r3, .L119+12
 564 018c 20008415 		strne	r0, [r4, #32]
 565 0190 0000A013 		movne	r0, #0
 566 0194 20308405 		streq	r3, [r4, #32]
 567              	.L117:
 568 0198 0CD08DE2 		add	sp, sp, #12
 569              		@ sp needed
 570 019c F08FBDE8 		pop	{r4, r5, r6, r7, r8, r9, r10, fp, pc}
 571              	.L82:
 572 01a0 1010A0E3 		mov	r1, #16
 573 01a4 0600A0E1 		mov	r0, r6
 574 01a8 FEFFFFEB 		bl	_ZNK11flatbuffers5Table22GetOptionalFieldOffsetEt
 575 01ac 000050E3 		cmp	r0, #0
 576 01b0 0130A0E3 		mov	r3, #1
 577 01b4 00009617 		ldrne	r0, [r6, r0]
 578 01b8 08008AE5 		str	r0, [r10, #8]
 579 01bc 3030C4E5 		strb	r3, [r4, #48]
 580 01c0 34A084E5 		str	r10, [r4, #52]
 581 01c4 E7FFFFEA 		b	.L80
 582              	.L88:
 583 01c8 0100A0E3 		mov	r0, #1
 584 01cc F1FFFFEA 		b	.L117
 585              	.L81:
 586 01d0 0710A0E1 		mov	r1, r7
 587 01d4 0900A0E1 		mov	r0, r9
 588 01d8 FEFFFFEB 		bl	_ZNK11flatbuffers6VectorIfE3GetEm
 589 01dc 0600A0E1 		mov	r0, r6
 590 01e0 030A84ED 		vstr.32	s0, [r4, #12]
 591 01e4 FEFFFFEB 		bl	_ZNK6tflite22QuantizationParameters10zero_pointEv
 592 01e8 0710A0E1 		mov	r1, r7
 593 01ec FEFFFFEB 		bl	_ZNK11flatbuffers6VectorIxE3GetEm
 594 01f0 100084E5 		str	r0, [r4, #16]
 595 01f4 0600A0E1 		mov	r0, r6
 596 01f8 FEFFFFEB 		bl	_ZNK6tflite22QuantizationParameters5scaleEv
 597 01fc 009090E5 		ldr	r9, [r0]
 598 0200 0420A0E3 		mov	r2, #4
 599 0204 0C10A0E3 		mov	r1, #12
 600 0208 0800A0E1 		mov	r0, r8
 601 020c FEFFFFEB 		bl	_ZN6tflite21SimpleMemoryAllocator16AllocateFromTailEjj
 602 0210 00A0A0E1 		mov	r10, r0
 603 0214 0900A0E1 		mov	r0, r9
 604 0218 FEFFFFEB 		bl	TfLiteIntArrayGetSizeInBytes
 605 021c 0420A0E3 		mov	r2, #4
 606 0220 0010A0E1 		mov	r1, r0
 607 0224 0800A0E1 		mov	r0, r8
 608 0228 FEFFFFEB 		bl	_ZN6tflite21SimpleMemoryAllocator16AllocateFromTailEjj
 609 022c 04008AE5 		str	r0, [r10, #4]
 610 0230 0900A0E1 		mov	r0, r9
 611 0234 FEFFFFEB 		bl	TfLiteFloatArrayGetSizeInBytes
 612 0238 0420A0E3 		mov	r2, #4
 613 023c 0010A0E1 		mov	r1, r0
 614 0240 0800A0E1 		mov	r0, r8
 615 0244 FEFFFFEB 		bl	_ZN6tflite21SimpleMemoryAllocator16AllocateFromTailEjj
 616 0248 04B09AE5 		ldr	fp, [r10, #4]
 617 024c 0080A0E1 		mov	r8, r0
 618 0250 00008AE5 		str	r0, [r10]
 619 0254 04908BE4 		str	r9, [fp], #4
 620 0258 049088E4 		str	r9, [r8], #4
 621              	.L83:
 622 025c 070059E1 		cmp	r9, r7
 623 0260 CEFFFFDA 		ble	.L82
 624 0264 0600A0E1 		mov	r0, r6
 625 0268 FEFFFFEB 		bl	_ZNK6tflite22QuantizationParameters10zero_pointEv
 626 026c 0710A0E1 		mov	r1, r7
 627 0270 FEFFFFEB 		bl	_ZNK11flatbuffers6VectorIxE3GetEm
 628 0274 07018BE7 		str	r0, [fp, r7, lsl #2]
 629 0278 0600A0E1 		mov	r0, r6
 630 027c FEFFFFEB 		bl	_ZNK6tflite22QuantizationParameters5scaleEv
 631 0280 0710A0E1 		mov	r1, r7
 632 0284 017087E2 		add	r7, r7, #1
 633 0288 FEFFFFEB 		bl	_ZNK11flatbuffers6VectorIfE3GetEm
 634 028c 010AA8EC 		vstmia.32	r8!, {s0}
 635 0290 F1FFFFEA 		b	.L83
 636              	.L120:
 637              		.align	2
 638              	.L119:
 639 0294 00000000 		.word	.LC0
 640 0298 00000000 		.word	.LANCHOR5
 641 029c 0B000000 		.word	.LC1
 642 02a0 00000000 		.word	.LC2
 643              		.fnend
 645              		.section	.text._ZN6tflite14MicroAllocator28AllocateNodeAndRegistrationsERKNS_10OpResolverEPPNS_19N
 646              		.align	2
 647              		.global	_ZN6tflite14MicroAllocator28AllocateNodeAndRegistrationsERKNS_10OpResolverEPPNS_19NodeAndR
 648              		.syntax unified
 649              		.arm
 650              		.fpu neon
 652              	_ZN6tflite14MicroAllocator28AllocateNodeAndRegistrationsERKNS_10OpResolverEPPNS_19NodeAndRegistrati
 653              		.fnstart
 654              	.LFB6116:
 655              		@ args = 0, pretend = 0, frame = 32
 656              		@ frame_needed = 0, uses_anonymous_args = 0
 657 0000 1030D0E5 		ldrb	r3, [r0, #16]	@ zero_extendqisi2
 658 0004 000053E3 		cmp	r3, #0
 659 0008 0130A003 		moveq	r3, #1
 660 000c A000000A 		beq	.L155
 661 0010 183090E5 		ldr	r3, [r0, #24]
 662 0014 F04F2DE9 		push	{r4, r5, r6, r7, r8, r9, r10, fp, lr}
 663              		.save {r4, r5, r6, r7, r8, r9, r10, fp, lr}
 664              		.pad #44
 665 0018 2CD04DE2 		sub	sp, sp, #44
 666 001c 0C108DE5 		str	r1, [sp, #12]
 667 0020 2810A0E3 		mov	r1, #40
 668 0024 0040A0E1 		mov	r4, r0
 669 0028 003093E5 		ldr	r3, [r3]
 670 002c 10208DE5 		str	r2, [sp, #16]
 671 0030 0420A0E3 		mov	r2, #4
 672 0034 040090E5 		ldr	r0, [r0, #4]
 673 0038 910301E0 		mul	r1, r1, r3
 674 003c FEFFFFEB 		bl	_ZN6tflite21SimpleMemoryAllocator16AllocateFromTailEjj
 675 0040 003050E2 		subs	r3, r0, #0
 676 0044 08308DE5 		str	r3, [sp, #8]
 677 0048 0400001A 		bne	.L123
 678 004c 48129FE5 		ldr	r1, .L159
 679 0050 080094E5 		ldr	r0, [r4, #8]
 680 0054 FEFFFFEB 		bl	_ZN6tflite13ErrorReporter6ReportEPKcz
 681              	.L128:
 682 0058 0130A0E3 		mov	r3, #1
 683 005c 480000EA 		b	.L151
 684              	.L123:
 685 0060 006094E5 		ldr	r6, [r4]
 686 0064 0610A0E3 		mov	r1, #6
 687 0068 00A0A0E3 		mov	r10, #0
 688 006c 0600A0E1 		mov	r0, r6
 689 0070 FEFFFFEB 		bl	_ZNK11flatbuffers5Table22GetOptionalFieldOffsetEt
 690 0074 000050E3 		cmp	r0, #0
 691 0078 003086E0 		add	r3, r6, r0
 692 007c 00509617 		ldrne	r5, [r6, r0]
 693 0080 0050A001 		moveq	r5, r0
 694 0084 14229FE5 		ldr	r2, .L159+4
 695 0088 05508310 		addne	r5, r3, r5
 696 008c 043094E5 		ldr	r3, [r4, #4]
 697 0090 20208DE5 		str	r2, [sp, #32]
 698 0094 24308DE5 		str	r3, [sp, #36]
 699 0098 08309DE5 		ldr	r3, [sp, #8]
 700 009c 246083E2 		add	r6, r3, #36
 701              	.L137:
 702 00a0 180094E5 		ldr	r0, [r4, #24]
 703 00a4 003090E5 		ldr	r3, [r0]
 704 00a8 03005AE1 		cmp	r10, r3
 705 00ac 4A00002A 		bcs	.L125
 706 00b0 0A10A0E1 		mov	r1, r10
 707 00b4 FEFFFFEB 		bl	_ZNK11flatbuffers6VectorINS_6OffsetIN6tflite8OperatorEEEE3GetEm
 708 00b8 0410A0E3 		mov	r1, #4
 709 00bc 0090A0E1 		mov	r9, r0
 710 00c0 FEFFFFEB 		bl	_ZNK11flatbuffers5Table22GetOptionalFieldOffsetEt
 711 00c4 007050E2 		subs	r7, r0, #0
 712 00c8 003095E5 		ldr	r3, [r5]
 713 00cc 07709917 		ldrne	r7, [r9, r7]
 714 00d0 070053E1 		cmp	r3, r7
 715 00d4 0400008A 		bhi	.L127
 716 00d8 C4119FE5 		ldr	r1, .L159+8
 717 00dc 0720A0E1 		mov	r2, r7
 718              	.L158:
 719 00e0 080094E5 		ldr	r0, [r4, #8]
 720 00e4 FEFFFFEB 		bl	_ZN6tflite13ErrorReporter6ReportEPKcz
 721 00e8 DAFFFFEA 		b	.L128
 722              	.L127:
 723 00ec 043085E2 		add	r3, r5, #4
 724 00f0 08B094E5 		ldr	fp, [r4, #8]
 725 00f4 078183E0 		add	r8, r3, r7, lsl #2
 726 00f8 073193E7 		ldr	r3, [r3, r7, lsl #2]
 727 00fc 038088E0 		add	r8, r8, r3
 728 0100 0800A0E1 		mov	r0, r8
 729 0104 FEFFFFEB 		bl	_ZNK6tflite12OperatorCode12builtin_codeEv
 730 0108 7D0050E3 		cmp	r0, #125
 731 010c 0810A0E3 		mov	r1, #8
 732 0110 90319FD5 		ldrle	r3, .L159+12
 733 0114 90219FC5 		ldrgt	r2, .L159+16
 734 0118 002193D7 		ldrle	r2, [r3, r0, lsl #2]
 735 011c 0800A0E1 		mov	r0, r8
 736 0120 14208DE5 		str	r2, [sp, #20]
 737 0124 FEFFFFEB 		bl	_ZNK11flatbuffers5Table22GetOptionalFieldOffsetEt
 738 0128 000050E3 		cmp	r0, #0
 739 012c 14209DE5 		ldr	r2, [sp, #20]
 740 0130 00309817 		ldrne	r3, [r8, r0]
 741 0134 0130A003 		moveq	r3, #1
 742 0138 70119FE5 		ldr	r1, .L159+20
 743 013c 0B00A0E1 		mov	r0, fp
 744 0140 FEFFFFEB 		bl	_ZN6tflite13ErrorReporter6ReportEPKcz
 745 0144 0630A0E1 		mov	r3, r6
 746 0148 082094E5 		ldr	r2, [r4, #8]
 747 014c 0C109DE5 		ldr	r1, [sp, #12]
 748 0150 0800A0E1 		mov	r0, r8
 749 0154 FEFFFFEB 		bl	_ZN6tflite25GetRegistrationFromOpCodeEPKNS_12OperatorCodeERKNS_10OpResolverEPNS_13ErrorReporter
 750 0158 003050E2 		subs	r3, r0, #0
 751 015c 24B046E2 		sub	fp, r6, #36
 752 0160 0A00000A 		beq	.L131
 753 0164 0800A0E1 		mov	r0, r8
 754 0168 08308DE5 		str	r3, [sp, #8]
 755 016c FEFFFFEB 		bl	_ZNK6tflite12OperatorCode12builtin_codeEv
 756 0170 3C119FE5 		ldr	r1, .L159+24
 757 0174 0020A0E1 		mov	r2, r0
 758 0178 080094E5 		ldr	r0, [r4, #8]
 759 017c FEFFFFEB 		bl	_ZN6tflite13ErrorReporter6ReportEPKcz
 760 0180 08309DE5 		ldr	r3, [sp, #8]
 761              	.L151:
 762 0184 0300A0E1 		mov	r0, r3
 763 0188 2CD08DE2 		add	sp, sp, #44
 764              		@ sp needed
 765 018c F08FBDE8 		pop	{r4, r5, r6, r7, r8, r9, r10, fp, pc}
 766              	.L131:
 767 0190 003096E5 		ldr	r3, [r6]
 768 0194 000053E3 		cmp	r3, #0
 769 0198 0720A001 		moveq	r2, r7
 770 019c 14119F05 		ldreq	r1, .L159+28
 771 01a0 CEFFFF0A 		beq	.L158
 772              	.L133:
 773 01a4 1480D3E5 		ldrb	r8, [r3, #20]	@ zero_extendqisi2
 774 01a8 200058E3 		cmp	r8, #32
 775 01ac 0F00000A 		beq	.L134
 776 01b0 0E10A0E3 		mov	r1, #14
 777 01b4 0900A0E1 		mov	r0, r9
 778 01b8 FEFFFFEB 		bl	_ZN11flatbuffers5Table10GetPointerIPKNS_6VectorIhEEEET_t
 779 01bc 000050E3 		cmp	r0, #0
 780 01c0 0A00000A 		beq	.L134
 781 01c4 7D0058E3 		cmp	r8, #125
 782 01c8 D8309FD5 		ldrle	r3, .L159+12
 783 01cc 082193D7 		ldrle	r2, [r3, r8, lsl #2]
 784 01d0 D4209FC5 		ldrgt	r2, .L159+16
 785              	.L138:
 786 01d4 E0109FE5 		ldr	r1, .L159+32
 787 01d8 C0FFFFEA 		b	.L158
 788              	.L125:
 789 01dc 10309DE5 		ldr	r3, [sp, #16]
 790 01e0 08209DE5 		ldr	r2, [sp, #8]
 791 01e4 002083E5 		str	r2, [r3]
 792 01e8 0030A0E3 		mov	r3, #0
 793 01ec E4FFFFEA 		b	.L151
 794              	.L134:
 795 01f0 0030A0E3 		mov	r3, #0
 796 01f4 0E10A0E3 		mov	r1, #14
 797 01f8 0900A0E1 		mov	r0, r9
 798 01fc 1C308DE5 		str	r3, [sp, #28]
 799 0200 FEFFFFEB 		bl	_ZN11flatbuffers5Table10GetPointerIPKNS_6VectorIhEEEET_t
 800 0204 000050E3 		cmp	r0, #0
 801 0208 00809015 		ldrne	r8, [r0]
 802 020c 04708012 		addne	r7, r0, #4
 803 0210 0900001A 		bne	.L136
 804 0214 1C308DE2 		add	r3, sp, #28
 805 0218 0810A0E1 		mov	r1, r8
 806 021c 00308DE5 		str	r3, [sp]
 807 0220 0900A0E1 		mov	r0, r9
 808 0224 20308DE2 		add	r3, sp, #32
 809 0228 082094E5 		ldr	r2, [r4, #8]
 810 022c FEFFFFEB 		bl	_ZN6tflite11ParseOpDataEPKNS_8OperatorENS_15BuiltinOperatorEPNS_13ErrorReporterEPNS_20BuiltinDa
 811 0230 008050E2 		subs	r8, r0, #0
 812 0234 87FFFF1A 		bne	.L128
 813 0238 0870A0E1 		mov	r7, r8
 814              	.L136:
 815 023c 0610A0E3 		mov	r1, #6
 816 0240 0900A0E1 		mov	r0, r9
 817 0244 FEFFFFEB 		bl	_ZN11flatbuffers5Table10GetPointerIPKNS_6VectorIlEEEET_t
 818 0248 0810A0E3 		mov	r1, #8
 819 024c 14008DE5 		str	r0, [sp, #20]
 820 0250 0900A0E1 		mov	r0, r9
 821 0254 01A08AE2 		add	r10, r10, #1
 822 0258 FEFFFFEB 		bl	_ZN11flatbuffers5Table10GetPointerIPKNS_6VectorIlEEEET_t
 823 025c 2420A0E3 		mov	r2, #36
 824 0260 0090A0E1 		mov	r9, r0
 825 0264 0010A0E3 		mov	r1, #0
 826 0268 0B00A0E1 		mov	r0, fp
 827 026c FEFFFFEB 		bl	memset
 828 0270 14309DE5 		ldr	r3, [sp, #20]
 829 0274 286086E2 		add	r6, r6, #40
 830 0278 489006E5 		str	r9, [r6, #-72]
 831 027c 4C3006E5 		str	r3, [r6, #-76]
 832 0280 1C309DE5 		ldr	r3, [sp, #28]
 833 0284 347006E5 		str	r7, [r6, #-52]
 834 0288 308006E5 		str	r8, [r6, #-48]
 835 028c 383006E5 		str	r3, [r6, #-56]
 836 0290 82FFFFEA 		b	.L137
 837              	.L155:
 838 0294 0300A0E1 		mov	r0, r3
 839 0298 1EFF2FE1 		bx	lr
 840              	.L160:
 841              		.align	2
 842              	.L159:
 843 029c 01000000 		.word	.LC4
 844 02a0 08000000 		.word	.LANCHOR6+8
 845 02a4 37000000 		.word	.LC5
 846 02a8 00000000 		.word	_ZZN6tflite24EnumNamesBuiltinOperatorEvE5names
 847 02ac 00000000 		.word	.LC3
 848 02b0 61000000 		.word	.LC6
 849 02b4 87000000 		.word	.LC7
 850 02b8 B4000000 		.word	.LC8
 851 02bc D5000000 		.word	.LC9
 852              		.fnend
 854              		.section	.text._ZN11flatbuffers5Table10GetPointerIPKNS_6VectorINS_6OffsetIN6tflite8OperatorEEEEEEE
 855              		.align	2
 856              		.weak	_ZN11flatbuffers5Table10GetPointerIPKNS_6VectorINS_6OffsetIN6tflite8OperatorEEEEEEET_t
 857              		.syntax unified
 858              		.arm
 859              		.fpu neon
 861              	_ZN11flatbuffers5Table10GetPointerIPKNS_6VectorINS_6OffsetIN6tflite8OperatorEEEEEEET_t:
 862              		.fnstart
 863              	.LFB7900:
 864              		@ args = 0, pretend = 0, frame = 0
 865              		@ frame_needed = 0, uses_anonymous_args = 0
 866 0000 10402DE9 		push	{r4, lr}
 867 0004 0040A0E1 		mov	r4, r0
 868 0008 FEFFFFEB 		bl	_ZNK11flatbuffers5Table22GetOptionalFieldOffsetEt
 869 000c 000050E3 		cmp	r0, #0
 870 0010 003084E0 		add	r3, r4, r0
 871 0014 00009417 		ldrne	r0, [r4, r0]
 872 0018 00008310 		addne	r0, r3, r0
 873 001c 1080BDE8 		pop	{r4, pc}
 874              		.cantunwind
 875              		.fnend
 877              		.section	.text._ZN6tflite14MicroAllocator4InitEv,"ax",%progbits
 878              		.align	2
 879              		.global	_ZN6tflite14MicroAllocator4InitEv
 880              		.syntax unified
 881              		.arm
 882              		.fpu neon
 884              	_ZN6tflite14MicroAllocator4InitEv:
 885              		.fnstart
 886              	.LFB6112:
 887              		@ args = 0, pretend = 0, frame = 0
 888              		@ frame_needed = 0, uses_anonymous_args = 0
 889 0000 F3412DE9 		push	{r0, r1, r4, r5, r6, r7, r8, lr}
 890              		.save {r4, r5, r6, r7, r8, lr}
 891              		.pad #8
 892 0004 0810A0E3 		mov	r1, #8
 893 0008 005090E5 		ldr	r5, [r0]
 894 000c 0040A0E1 		mov	r4, r0
 895 0010 0500A0E1 		mov	r0, r5
 896 0014 FEFFFFEB 		bl	_ZNK11flatbuffers5Table22GetOptionalFieldOffsetEt
 897 0018 000050E3 		cmp	r0, #0
 898 001c 001085E0 		add	r1, r5, r0
 899 0020 4C00000A 		beq	.L166
 900 0024 002095E7 		ldr	r2, [r5, r0]
 901 0028 023081E0 		add	r3, r1, r2
 902 002c 022091E7 		ldr	r2, [r1, r2]
 903 0030 010052E3 		cmp	r2, #1
 904 0034 0500000A 		beq	.L167
 905 0038 20119FE5 		ldr	r1, .L178
 906 003c 080094E5 		ldr	r0, [r4, #8]
 907 0040 FEFFFFEB 		bl	_ZN6tflite13ErrorReporter6ReportEPKcz
 908              	.L177:
 909 0044 0100A0E3 		mov	r0, #1
 910              	.L175:
 911 0048 08D08DE2 		add	sp, sp, #8
 912              		@ sp needed
 913 004c F081BDE8 		pop	{r4, r5, r6, r7, r8, pc}
 914              	.L167:
 915 0050 045083E2 		add	r5, r3, #4
 916 0054 043093E5 		ldr	r3, [r3, #4]
 917 0058 035085E0 		add	r5, r5, r3
 918 005c 145084E5 		str	r5, [r4, #20]
 919 0060 0500A0E1 		mov	r0, r5
 920 0064 FEFFFFEB 		bl	_ZNK6tflite8SubGraph7tensorsEv
 921 0068 0A10A0E3 		mov	r1, #10
 922 006c 0060A0E1 		mov	r6, r0
 923 0070 1C0084E5 		str	r0, [r4, #28]
 924 0074 0500A0E1 		mov	r0, r5
 925 0078 FEFFFFEB 		bl	_ZN11flatbuffers5Table10GetPointerIPKNS_6VectorINS_6OffsetIN6tflite8OperatorEEEEEEET_t
 926 007c 001096E5 		ldr	r1, [r6]
 927 0080 0420A0E3 		mov	r2, #4
 928 0084 0C5094E5 		ldr	r5, [r4, #12]
 929 0088 180084E5 		str	r0, [r4, #24]
 930 008c 040094E5 		ldr	r0, [r4, #4]
 931 0090 001085E5 		str	r1, [r5]
 932 0094 0113A0E1 		lsl	r1, r1, #6
 933 0098 FEFFFFEB 		bl	_ZN6tflite21SimpleMemoryAllocator16AllocateFromTailEjj
 934 009c 0C3094E5 		ldr	r3, [r4, #12]
 935 00a0 080085E5 		str	r0, [r5, #8]
 936 00a4 082093E5 		ldr	r2, [r3, #8]
 937 00a8 000052E3 		cmp	r2, #0
 938 00ac 0400001A 		bne	.L169
 939 00b0 002093E5 		ldr	r2, [r3]
 940 00b4 A8109FE5 		ldr	r1, .L178+4
 941 00b8 080094E5 		ldr	r0, [r4, #8]
 942 00bc 0223A0E1 		lsl	r2, r2, #6
 943 00c0 FEFFFFEB 		bl	_ZN6tflite13ErrorReporter6ReportEPKcz
 944              	.L169:
 945 00c4 0060A0E3 		mov	r6, #0
 946              	.L172:
 947 00c8 1C0094E5 		ldr	r0, [r4, #28]
 948 00cc 003090E5 		ldr	r3, [r0]
 949 00d0 030056E1 		cmp	r6, r3
 950 00d4 1D00002A 		bcs	.L173
 951 00d8 0610A0E1 		mov	r1, r6
 952 00dc 045094E5 		ldr	r5, [r4, #4]
 953 00e0 FEFFFFEB 		bl	_ZNK11flatbuffers6VectorINS_6OffsetIN6tflite6TensorEEEE3GetEm
 954 00e4 008094E5 		ldr	r8, [r4]
 955 00e8 0070A0E1 		mov	r7, r0
 956 00ec 0C10A0E3 		mov	r1, #12
 957 00f0 0800A0E1 		mov	r0, r8
 958 00f4 FEFFFFEB 		bl	_ZNK11flatbuffers5Table22GetOptionalFieldOffsetEt
 959 00f8 0C3094E5 		ldr	r3, [r4, #12]
 960 00fc 000050E3 		cmp	r0, #0
 961 0100 002088E0 		add	r2, r8, r0
 962 0104 00009817 		ldrne	r0, [r8, r0]
 963 0108 0020A001 		moveq	r2, r0
 964 010c 0710A0E1 		mov	r1, r7
 965 0110 083093E5 		ldr	r3, [r3, #8]
 966 0114 00208210 		addne	r2, r2, r0
 967 0118 0500A0E1 		mov	r0, r5
 968 011c 063383E0 		add	r3, r3, r6, lsl #6
 969 0120 00308DE5 		str	r3, [sp]
 970 0124 083094E5 		ldr	r3, [r4, #8]
 971 0128 FEFFFFEB 		bl	_ZN6tflite8internal23InitializeRuntimeTensorEPNS_21SimpleMemoryAllocatorERKNS_6TensorEPKN11flat
 972 012c 010050E3 		cmp	r0, #1
 973 0130 0400001A 		bne	.L171
 974 0134 0620A0E1 		mov	r2, r6
 975 0138 28109FE5 		ldr	r1, .L178+8
 976 013c 080094E5 		ldr	r0, [r4, #8]
 977 0140 FEFFFFEB 		bl	_ZN6tflite13ErrorReporter6ReportEPKcz
 978 0144 BEFFFFEA 		b	.L177
 979              	.L171:
 980 0148 016086E2 		add	r6, r6, #1
 981 014c DDFFFFEA 		b	.L172
 982              	.L173:
 983 0150 0000A0E3 		mov	r0, #0
 984 0154 BBFFFFEA 		b	.L175
 985              	.L166:
 986 0158 003090E5 		ldr	r3, [r0]
 987 015c F000F0E7 		.inst	0xe7f000f0
 988              	.L179:
 989              		.align	2
 990              	.L178:
 991 0160 00000000 		.word	.LC10
 992 0164 29000000 		.word	.LC11
 993 0168 6B000000 		.word	.LC12
 994              		.fnend
 996              		.section	.text._ZN6tflite14MicroAllocatorC2EP13TfLiteContextPKNS_5ModelEPhjPNS_13ErrorReporterE,"a
 997              		.align	2
 998              		.global	_ZN6tflite14MicroAllocatorC2EP13TfLiteContextPKNS_5ModelEPhjPNS_13ErrorReporterE
 999              		.syntax unified
 1000              		.arm
 1001              		.fpu neon
 1003              	_ZN6tflite14MicroAllocatorC2EP13TfLiteContextPKNS_5ModelEPhjPNS_13ErrorReporterE:
 1004              		.fnstart
 1005              	.LFB6114:
 1006              		@ args = 8, pretend = 0, frame = 0
 1007              		@ frame_needed = 0, uses_anonymous_args = 0
 1008 0000 70402DE9 		push	{r4, r5, r6, lr}
 1009              		.save {r4, r5, r6, lr}
 1010 0004 0350A0E1 		mov	r5, r3
 1011 0008 14309DE5 		ldr	r3, [sp, #20]
 1012 000c 0060A0E3 		mov	r6, #0
 1013 0010 0040A0E1 		mov	r4, r0
 1014 0014 002080E5 		str	r2, [r0]
 1015 0018 083080E5 		str	r3, [r0, #8]
 1016 001c 0C1080E5 		str	r1, [r0, #12]
 1017 0020 1010A0E3 		mov	r1, #16
 1018 0024 1060C0E5 		strb	r6, [r0, #16]
 1019 0028 0500A0E1 		mov	r0, r5
 1020 002c FEFFFFEB 		bl	_ZN6tflite14AlignPointerUpEPhj
 1021 0030 10109DE5 		ldr	r1, [sp, #16]
 1022 0034 011085E0 		add	r1, r5, r1
 1023 0038 001041E0 		sub	r1, r1, r0
 1024 003c FEFFFFEB 		bl	_ZN6tflite34CreateInPlaceSimpleMemoryAllocatorEPhj
 1025 0040 040084E5 		str	r0, [r4, #4]
 1026 0044 0400A0E1 		mov	r0, r4
 1027 0048 FEFFFFEB 		bl	_ZN6tflite14MicroAllocator4InitEv
 1028 004c 060050E1 		cmp	r0, r6
 1029 0050 0130A003 		moveq	r3, #1
 1030 0054 1030C405 		strbeq	r3, [r4, #16]
 1031 0058 0300000A 		beq	.L182
 1032 005c 10109FE5 		ldr	r1, .L184
 1033 0060 080094E5 		ldr	r0, [r4, #8]
 1034 0064 FEFFFFEB 		bl	_ZN6tflite13ErrorReporter6ReportEPKcz
 1035 0068 1060C4E5 		strb	r6, [r4, #16]
 1036              	.L182:
 1037 006c 0400A0E1 		mov	r0, r4
 1038 0070 7080BDE8 		pop	{r4, r5, r6, pc}
 1039              	.L185:
 1040              		.align	2
 1041              	.L184:
 1042 0074 00000000 		.word	.LC13
 1043              		.fnend
 1045              		.global	_ZN6tflite14MicroAllocatorC1EP13TfLiteContextPKNS_5ModelEPhjPNS_13ErrorReporterE
 1046              		.set	_ZN6tflite14MicroAllocatorC1EP13TfLiteContextPKNS_5ModelEPhjPNS_13ErrorReporterE,_ZN6tflite14
 1047              		.section	.text._ZN6tflite14MicroAllocator22FinishTensorAllocationEv,"ax",%progbits
 1048              		.align	2
 1049              		.global	_ZN6tflite14MicroAllocator22FinishTensorAllocationEv
 1050              		.syntax unified
 1051              		.arm
 1052              		.fpu neon
 1054              	_ZN6tflite14MicroAllocator22FinishTensorAllocationEv:
 1055              		.fnstart
 1056              	.LFB6117:
 1057              		@ args = 0, pretend = 0, frame = 80
 1058              		@ frame_needed = 0, uses_anonymous_args = 0
 1059 0000 1030D0E5 		ldrb	r3, [r0, #16]	@ zero_extendqisi2
 1060 0004 000053E3 		cmp	r3, #0
 1061 0008 F400000A 		beq	.L231
 1062 000c F04F2DE9 		push	{r4, r5, r6, r7, r8, r9, r10, fp, lr}
 1063              		.save {r4, r5, r6, r7, r8, r9, r10, fp, lr}
 1064              		.pad #92
 1065 0010 5CD04DE2 		sub	sp, sp, #92
 1066 0014 0050A0E1 		mov	r5, r0
 1067 0018 041090E5 		ldr	r1, [r0, #4]
 1068 001c 1C008DE2 		add	r0, sp, #28
 1069              	.LEHB0:
 1070 0020 FEFFFFEB 		bl	_ZN6tflite21SimpleMemoryAllocator20CreateChildAllocatorEv
 1071              	.LEHE0:
 1072 0024 1C3095E5 		ldr	r3, [r5, #28]
 1073 0028 0420A0E3 		mov	r2, #4
 1074 002c 1C008DE2 		add	r0, sp, #28
 1075 0030 148095E5 		ldr	r8, [r5, #20]
 1076 0034 00A093E5 		ldr	r10, [r3]
 1077 0038 083095E5 		ldr	r3, [r5, #8]
 1078 003c 10308DE5 		str	r3, [sp, #16]
 1079 0040 0C3095E5 		ldr	r3, [r5, #12]
 1080 0044 086093E5 		ldr	r6, [r3, #8]
 1081 0048 1430A0E3 		mov	r3, #20
 1082 004c 930A03E0 		mul	r3, r3, r10
 1083 0050 0310A0E1 		mov	r1, r3
 1084 0054 14308DE5 		str	r3, [sp, #20]
 1085              	.LEHB1:
 1086 0058 FEFFFFEB 		bl	_ZN6tflite21SimpleMemoryAllocator16AllocateFromTailEjj
 1087 005c 004050E2 		subs	r4, r0, #0
 1088 0060 0400001A 		bne	.L188
 1089 0064 0A23A0E1 		lsl	r2, r10, #6
 1090 0068 48149FE5 		ldr	r1, .L261
 1091 006c 10009DE5 		ldr	r0, [sp, #16]
 1092 0070 FEFFFFEB 		bl	_ZN6tflite13ErrorReporter6ReportEPKcz
 1093 0074 AD0000EA 		b	.L189
 1094              	.L188:
 1095 0078 0490A0E1 		mov	r9, r4
 1096 007c 046086E2 		add	r6, r6, #4
 1097 0080 0470A0E1 		mov	r7, r4
 1098 0084 00B0E0E3 		mvn	fp, #0
 1099 0088 0030A0E3 		mov	r3, #0
 1100 008c 0C308DE5 		str	r3, [sp, #12]
 1101              	.L193:
 1102 0090 0C309DE5 		ldr	r3, [sp, #12]
 1103 0094 03005AE1 		cmp	r10, r3
 1104 0098 1300001A 		bne	.L190
 1105 009c 0060A0E3 		mov	r6, #0
 1106 00a0 14A0A0E3 		mov	r10, #20
 1107 00a4 0670A0E1 		mov	r7, r6
 1108              	.L191:
 1109 00a8 0610A0E3 		mov	r1, #6
 1110 00ac 0800A0E1 		mov	r0, r8
 1111 00b0 FEFFFFEB 		bl	_ZN11flatbuffers5Table10GetPointerIPKNS_6VectorIlEEEET_t
 1112 00b4 003090E5 		ldr	r3, [r0]
 1113 00b8 060053E1 		cmp	r3, r6
 1114 00bc 2000008A 		bhi	.L194
 1115 00c0 0060A0E3 		mov	r6, #0
 1116 00c4 1470A0E3 		mov	r7, #20
 1117              	.L195:
 1118 00c8 0810A0E3 		mov	r1, #8
 1119 00cc 0800A0E1 		mov	r0, r8
 1120 00d0 FEFFFFEB 		bl	_ZN11flatbuffers5Table10GetPointerIPKNS_6VectorIlEEEET_t
 1121 00d4 003090E5 		ldr	r3, [r0]
 1122 00d8 060053E1 		cmp	r3, r6
 1123 00dc 2700009A 		bls	.L196
 1124 00e0 0610A0E1 		mov	r1, r6
 1125 00e4 FEFFFFEB 		bl	_ZNK11flatbuffers6VectorIlE3GetEm
 1126 00e8 1B0000EA 		b	.L257
 1127              	.L190:
 1128 00ec 143096E5 		ldr	r3, [r6, #20]
 1129 00f0 106087E5 		str	r6, [r7, #16]
 1130 00f4 08B087E5 		str	fp, [r7, #8]
 1131 00f8 080887E8 		stm	r7, {r3, fp}
 1132 00fc 003096E5 		ldr	r3, [r6]
 1133 0100 000053E3 		cmp	r3, #0
 1134 0104 0000A013 		movne	r0, #0
 1135 0108 0600001A 		bne	.L192
 1136 010c 0800A0E1 		mov	r0, r8
 1137 0110 FEFFFFEB 		bl	_ZNK6tflite8SubGraph7tensorsEv
 1138 0114 0C109DE5 		ldr	r1, [sp, #12]
 1139 0118 FEFFFFEB 		bl	_ZNK11flatbuffers6VectorINS_6OffsetIN6tflite6TensorEEEE3GetEm
 1140 011c FEFFFFEB 		bl	_ZNK6tflite6Tensor11is_variableEv
 1141 0120 010020E2 		eor	r0, r0, #1
 1142 0124 7000EFE6 		uxtb	r0, r0
 1143              	.L192:
 1144 0128 0C309DE5 		ldr	r3, [sp, #12]
 1145 012c 147087E2 		add	r7, r7, #20
 1146 0130 080047E5 		strb	r0, [r7, #-8]
 1147 0134 406086E2 		add	r6, r6, #64
 1148 0138 013083E2 		add	r3, r3, #1
 1149 013c 0C308DE5 		str	r3, [sp, #12]
 1150 0140 D2FFFFEA 		b	.L193
 1151              	.L194:
 1152 0144 0610A0E1 		mov	r1, r6
 1153 0148 FEFFFFEB 		bl	_ZNK11flatbuffers6VectorIlE3GetEm
 1154 014c 9A4020E0 		mla	r0, r10, r0, r4
 1155 0150 016086E2 		add	r6, r6, #1
 1156 0154 047080E5 		str	r7, [r0, #4]
 1157 0158 D2FFFFEA 		b	.L191
 1158              	.L257:
 1159 015c 97402AE0 		mla	r10, r7, r0, r4
 1160 0160 0A10A0E3 		mov	r1, #10
 1161 0164 0800A0E1 		mov	r0, r8
 1162 0168 016086E2 		add	r6, r6, #1
 1163 016c FEFFFFEB 		bl	_ZN11flatbuffers5Table10GetPointerIPKNS_6VectorINS_6OffsetIN6tflite8OperatorEEEEEEET_t
 1164 0170 003090E5 		ldr	r3, [r0]
 1165 0174 013043E2 		sub	r3, r3, #1
 1166 0178 08308AE5 		str	r3, [r10, #8]
 1167 017c D1FFFFEA 		b	.L195
 1168              	.L196:
 1169 0180 0A10A0E3 		mov	r1, #10
 1170 0184 0800A0E1 		mov	r0, r8
 1171 0188 FEFFFFEB 		bl	_ZN11flatbuffers5Table10GetPointerIPKNS_6VectorINS_6OffsetIN6tflite8OperatorEEEEEEET_t
 1172 018c 006090E5 		ldr	r6, [r0]
 1173 0190 14B0A0E3 		mov	fp, #20
 1174 0194 016046E2 		sub	r6, r6, #1
 1175              	.L204:
 1176 0198 000056E3 		cmp	r6, #0
 1177 019c 300000BA 		blt	.L233
 1178 01a0 0A10A0E3 		mov	r1, #10
 1179 01a4 0800A0E1 		mov	r0, r8
 1180 01a8 FEFFFFEB 		bl	_ZN11flatbuffers5Table10GetPointerIPKNS_6VectorINS_6OffsetIN6tflite8OperatorEEEEEEET_t
 1181 01ac 0610A0E1 		mov	r1, r6
 1182 01b0 FEFFFFEB 		bl	_ZNK11flatbuffers6VectorINS_6OffsetIN6tflite8OperatorEEEE3GetEm
 1183 01b4 00A0A0E1 		mov	r10, r0
 1184 01b8 0070A0E3 		mov	r7, #0
 1185              	.L201:
 1186 01bc 0610A0E3 		mov	r1, #6
 1187 01c0 0A00A0E1 		mov	r0, r10
 1188 01c4 FEFFFFEB 		bl	_ZN11flatbuffers5Table10GetPointerIPKNS_6VectorIlEEEET_t
 1189 01c8 003090E5 		ldr	r3, [r0]
 1190 01cc 070053E1 		cmp	r3, r7
 1191 01d0 0900008A 		bhi	.L198
 1192 01d4 0070A0E3 		mov	r7, #0
 1193              	.L199:
 1194 01d8 0810A0E3 		mov	r1, #8
 1195 01dc 0A00A0E1 		mov	r0, r10
 1196 01e0 FEFFFFEB 		bl	_ZN11flatbuffers5Table10GetPointerIPKNS_6VectorIlEEEET_t
 1197 01e4 003090E5 		ldr	r3, [r0]
 1198 01e8 070053E1 		cmp	r3, r7
 1199 01ec 1A00009A 		bls	.L202
 1200 01f0 0710A0E1 		mov	r1, r7
 1201 01f4 FEFFFFEB 		bl	_ZNK11flatbuffers6VectorIlE3GetEm
 1202 01f8 0C0000EA 		b	.L258
 1203              	.L198:
 1204 01fc 0710A0E1 		mov	r1, r7
 1205 0200 FEFFFFEB 		bl	_ZNK11flatbuffers6VectorIlE3GetEm
 1206 0204 9B4020E0 		mla	r0, fp, r0, r4
 1207 0208 017087E2 		add	r7, r7, #1
 1208 020c 082090E5 		ldr	r2, [r0, #8]
 1209 0210 010072E3 		cmn	r2, #1
 1210 0214 0030A013 		movne	r3, #0
 1211 0218 0130A003 		moveq	r3, #1
 1212 021c 020056E1 		cmp	r6, r2
 1213 0220 013083C3 		orrgt	r3, r3, #1
 1214 0224 000053E3 		cmp	r3, #0
 1215 0228 08608015 		strne	r6, [r0, #8]
 1216 022c E2FFFFEA 		b	.L201
 1217              	.L258:
 1218 0230 9B4020E0 		mla	r0, fp, r0, r4
 1219 0234 017087E2 		add	r7, r7, #1
 1220 0238 042090E5 		ldr	r2, [r0, #4]
 1221 023c 010072E3 		cmn	r2, #1
 1222 0240 0030A013 		movne	r3, #0
 1223 0244 0130A003 		moveq	r3, #1
 1224 0248 020056E1 		cmp	r6, r2
 1225 024c 013083B3 		orrlt	r3, r3, #1
 1226 0250 000053E3 		cmp	r3, #0
 1227 0254 04608015 		strne	r6, [r0, #4]
 1228 0258 DEFFFFEA 		b	.L199
 1229              	.L202:
 1230 025c 016046E2 		sub	r6, r6, #1
 1231 0260 CCFFFFEA 		b	.L204
 1232              	.L233:
 1233 0264 0020A0E3 		mov	r2, #0
 1234 0268 0410A0E1 		mov	r1, r4
 1235 026c 02C0A0E1 		mov	ip, r2
 1236              	.L197:
 1237 0270 0C309DE5 		ldr	r3, [sp, #12]
 1238 0274 020053E1 		cmp	r3, r2
 1239 0278 6000000A 		beq	.L205
 1240 027c 043091E5 		ldr	r3, [r1, #4]
 1241 0280 080091E5 		ldr	r0, [r1, #8]
 1242 0284 010073E3 		cmn	r3, #1
 1243 0288 0B00001A 		bne	.L206
 1244 028c 010070E3 		cmn	r0, #1
 1245 0290 0CC0C115 		strbne	ip, [r1, #12]
 1246 0294 0A00001A 		bne	.L209
 1247              	.L208:
 1248 0298 0C00D1E5 		ldrb	r0, [r1, #12]	@ zero_extendqisi2
 1249 029c 000050E3 		cmp	r0, #0
 1250 02a0 0700000A 		beq	.L209
 1251 02a4 081091E5 		ldr	r1, [r1, #8]
 1252 02a8 10009DE5 		ldr	r0, [sp, #16]
 1253 02ac 00108DE5 		str	r1, [sp]
 1254 02b0 04129FE5 		ldr	r1, .L261+4
 1255 02b4 FEFFFFEB 		bl	_ZN6tflite13ErrorReporter6ReportEPKcz
 1256              	.LEHE1:
 1257 02b8 1C0000EA 		b	.L189
 1258              	.L206:
 1259 02bc 010070E3 		cmn	r0, #1
 1260 02c0 F4FFFF0A 		beq	.L208
 1261              	.L209:
 1262 02c4 012082E2 		add	r2, r2, #1
 1263 02c8 141081E2 		add	r1, r1, #20
 1264 02cc E7FFFFEA 		b	.L197
 1265              	.L259:
 1266 02d0 14309DE5 		ldr	r3, [sp, #20]
 1267 02d4 08A095E5 		ldr	r10, [r5, #8]
 1268 02d8 03B084E0 		add	fp, r4, r3
 1269              	.L213:
 1270 02dc 04005BE1 		cmp	fp, r4
 1271 02e0 4F00000A 		beq	.L211
 1272 02e4 0C30D4E5 		ldrb	r3, [r4, #12]	@ zero_extendqisi2
 1273 02e8 000053E3 		cmp	r3, #0
 1274 02ec 0100001A 		bne	.L212
 1275              	.L215:
 1276 02f0 144084E2 		add	r4, r4, #20
 1277 02f4 F8FFFFEA 		b	.L213
 1278              	.L212:
 1279 02f8 1010A0E3 		mov	r1, #16
 1280 02fc 000094E5 		ldr	r0, [r4]
 1281              	.LEHB2:
 1282 0300 FEFFFFEB 		bl	_ZN6tflite11AlignSizeUpEjj
 1283 0304 083094E5 		ldr	r3, [r4, #8]
 1284 0308 0020A0E1 		mov	r2, r0
 1285 030c 0A10A0E1 		mov	r1, r10
 1286 0310 30008DE2 		add	r0, sp, #48
 1287 0314 00308DE5 		str	r3, [sp]
 1288 0318 043094E5 		ldr	r3, [r4, #4]
 1289 031c FEFFFFEB 		bl	_ZN6tflite19GreedyMemoryPlanner9AddBufferEPNS_13ErrorReporterEiii
 1290 0320 000050E3 		cmp	r0, #0
 1291 0324 F1FFFF0A 		beq	.L215
 1292              	.L220:
 1293 0328 30008DE2 		add	r0, sp, #48
 1294 032c FEFFFFEB 		bl	_ZN6tflite19GreedyMemoryPlannerD1Ev
 1295              	.L189:
 1296 0330 1C008DE2 		add	r0, sp, #28
 1297 0334 FEFFFFEB 		bl	_ZN6tflite21SimpleMemoryAllocatorD1Ev
 1298              	.L256:
 1299 0338 0100A0E3 		mov	r0, #1
 1300              	.L249:
 1301 033c 5CD08DE2 		add	sp, sp, #92
 1302              		@ sp needed
 1303 0340 F08FBDE8 		pop	{r4, r5, r6, r7, r8, r9, r10, fp, pc}
 1304              	.L260:
 1305 0344 0020A0E1 		mov	r2, r0
 1306 0348 0630A0E1 		mov	r3, r6
 1307 034c 6C119FE5 		ldr	r1, .L261+8
 1308 0350 0700A0E1 		mov	r0, r7
 1309 0354 FEFFFFEB 		bl	_ZN6tflite13ErrorReporter6ReportEPKcz
 1310 0358 F2FFFFEA 		b	.L220
 1311              	.L216:
 1312 035c 0060A0E3 		mov	r6, #0
 1313 0360 00A0E0E3 		mvn	r10, #0
 1314              	.L221:
 1315 0364 090054E1 		cmp	r4, r9
 1316 0368 3800000A 		beq	.L217
 1317 036c 0C30D9E5 		ldrb	r3, [r9, #12]	@ zero_extendqisi2
 1318 0370 000053E3 		cmp	r3, #0
 1319 0374 0C00000A 		beq	.L218
 1320 0378 18308DE2 		add	r3, sp, #24
 1321 037c 0620A0E1 		mov	r2, r6
 1322 0380 0710A0E1 		mov	r1, r7
 1323 0384 30008DE2 		add	r0, sp, #48
 1324 0388 18A08DE5 		str	r10, [sp, #24]
 1325 038c FEFFFFEB 		bl	_ZN6tflite19GreedyMemoryPlanner18GetOffsetForBufferEPNS_13ErrorReporterEiPi
 1326              	.LEHE2:
 1327 0390 000050E3 		cmp	r0, #0
 1328 0394 E3FFFF1A 		bne	.L220
 1329 0398 18309DE5 		ldr	r3, [sp, #24]
 1330 039c 016086E2 		add	r6, r6, #1
 1331 03a0 102099E5 		ldr	r2, [r9, #16]
 1332 03a4 033088E0 		add	r3, r8, r3
 1333 03a8 003082E5 		str	r3, [r2]
 1334              	.L218:
 1335 03ac 149089E2 		add	r9, r9, #20
 1336 03b0 EBFFFFEA 		b	.L221
 1337              	.L223:
 1338 03b4 1020A0E3 		mov	r2, #16
 1339 03b8 181094E5 		ldr	r1, [r4, #24]
 1340 03bc 0800A0E1 		mov	r0, r8
 1341              	.LEHB3:
 1342 03c0 FEFFFFEB 		bl	_ZN6tflite21SimpleMemoryAllocator16AllocateFromTailEjj
 1343 03c4 000050E3 		cmp	r0, #0
 1344 03c8 040084E5 		str	r0, [r4, #4]
 1345 03cc 3100001A 		bne	.L226
 1346 03d0 EC109FE5 		ldr	r1, .L261+12
 1347 03d4 080095E5 		ldr	r0, [r5, #8]
 1348 03d8 FEFFFFEB 		bl	_ZN6tflite13ErrorReporter6ReportEPKcz
 1349 03dc D5FFFFEA 		b	.L256
 1350              	.L231:
 1351 03e0 0100A0E3 		mov	r0, #1
 1352 03e4 1EFF2FE1 		bx	lr
 1353              	.L235:
 1354 03e8 30008DE2 		add	r0, sp, #48
 1355 03ec FEFFFFEB 		bl	_ZN6tflite19GreedyMemoryPlannerD1Ev
 1356              	.L228:
 1357 03f0 1C008DE2 		add	r0, sp, #28
 1358 03f4 FEFFFFEB 		bl	_ZN6tflite21SimpleMemoryAllocatorD1Ev
 1359 03f8 FEFFFFEB 		bl	__cxa_end_cleanup
 1360              	.LEHE3:
 1361              	.L234:
 1362 03fc FBFFFFEA 		b	.L228
 1363              	.L205:
 1364 0400 043095E5 		ldr	r3, [r5, #4]
 1365 0404 30008DE2 		add	r0, sp, #48
 1366 0408 1C609DE5 		ldr	r6, [sp, #28]
 1367 040c 800193E9 		ldmib	r3, {r7, r8}
 1368 0410 066047E0 		sub	r6, r7, r6
 1369 0414 0810A0E1 		mov	r1, r8
 1370 0418 0620A0E1 		mov	r2, r6
 1371              	.LEHB4:
 1372 041c FEFFFFEB 		bl	_ZN6tflite19GreedyMemoryPlannerC1EPhi
 1373              	.LEHE4:
 1374 0420 AAFFFFEA 		b	.L259
 1375              	.L211:
 1376 0424 043095E5 		ldr	r3, [r5, #4]
 1377 0428 30008DE2 		add	r0, sp, #48
 1378 042c 00A093E5 		ldr	r10, [r3]
 1379              	.LEHB5:
 1380 0430 FEFFFFEB 		bl	_ZN6tflite19GreedyMemoryPlanner20GetMaximumMemorySizeEv
 1381 0434 0A7047E0 		sub	r7, r7, r10
 1382 0438 000057E1 		cmp	r7, r0
 1383 043c 087095E5 		ldr	r7, [r5, #8]
 1384 0440 C5FFFF2A 		bcs	.L216
 1385 0444 30008DE2 		add	r0, sp, #48
 1386 0448 FEFFFFEB 		bl	_ZN6tflite19GreedyMemoryPlanner20GetMaximumMemorySizeEv
 1387              	.LEHE5:
 1388 044c BCFFFFEA 		b	.L260
 1389              	.L217:
 1390 0450 30008DE2 		add	r0, sp, #48
 1391 0454 0060A0E3 		mov	r6, #0
 1392 0458 FEFFFFEB 		bl	_ZN6tflite19GreedyMemoryPlannerD1Ev
 1393 045c 1C008DE2 		add	r0, sp, #28
 1394 0460 FEFFFFEB 		bl	_ZN6tflite21SimpleMemoryAllocatorD1Ev
 1395 0464 0C3095E5 		ldr	r3, [r5, #12]
 1396 0468 1C7095E5 		ldr	r7, [r5, #28]
 1397 046c 048095E5 		ldr	r8, [r5, #4]
 1398 0470 084093E5 		ldr	r4, [r3, #8]
 1399              	.L224:
 1400 0474 003097E5 		ldr	r3, [r7]
 1401 0478 060053E1 		cmp	r3, r6
 1402 047c 0A00009A 		bls	.L222
 1403 0480 0610A0E1 		mov	r1, r6
 1404 0484 0700A0E1 		mov	r0, r7
 1405              	.LEHB6:
 1406 0488 FEFFFFEB 		bl	_ZNK11flatbuffers6VectorINS_6OffsetIN6tflite6TensorEEEE3GetEm
 1407 048c FEFFFFEB 		bl	_ZNK6tflite6Tensor11is_variableEv
 1408 0490 000050E3 		cmp	r0, #0
 1409 0494 C6FFFF1A 		bne	.L223
 1410              	.L226:
 1411 0498 0400A0E1 		mov	r0, r4
 1412 049c 016086E2 		add	r6, r6, #1
 1413 04a0 FEFFFFEB 		bl	_ZN6tflite19ResetVariableTensorEP12TfLiteTensor
 1414              	.LEHE6:
 1415 04a4 404084E2 		add	r4, r4, #64
 1416 04a8 F1FFFFEA 		b	.L224
 1417              	.L222:
 1418 04ac 0000A0E3 		mov	r0, #0
 1419 04b0 1000C5E5 		strb	r0, [r5, #16]
 1420 04b4 A0FFFFEA 		b	.L249
 1421              	.L262:
 1422              		.align	2
 1423              	.L261:
 1424 04b8 00000000 		.word	.LC14
 1425 04bc 41000000 		.word	.LC15
 1426 04c0 A4000000 		.word	.LC16
 1427 04c4 F9000000 		.word	.LC17
 1428              		.global	__gxx_personality_v0
 1429              		.personality	__gxx_personality_v0
 1430              		.handlerdata
 1431              	.LLSDA6117:
 1432 0008 FF       		.byte	0xff
 1433 0009 FF       		.byte	0xff
 1434 000a 01       		.byte	0x1
 1435 000b 27       		.uleb128 .LLSDACSE6117-.LLSDACSB6117
 1436              	.LLSDACSB6117:
 1437 000c 20       		.uleb128 .LEHB0-.LFB6117
 1438 000d 04       		.uleb128 .LEHE0-.LEHB0
 1439 000e 00       		.uleb128 0
 1440 000f 00       		.uleb128 0
 1441 0010 58       		.uleb128 .LEHB1-.LFB6117
 1442 0011 E004     		.uleb128 .LEHE1-.LEHB1
 1443 0013 FC07     		.uleb128 .L234-.LFB6117
 1444 0015 00       		.uleb128 0
 1445 0016 8006     		.uleb128 .LEHB2-.LFB6117
 1446 0018 9001     		.uleb128 .LEHE2-.LEHB2
 1447 001a E807     		.uleb128 .L235-.LFB6117
 1448 001c 00       		.uleb128 0
 1449 001d C007     		.uleb128 .LEHB3-.LFB6117
 1450 001f 3C       		.uleb128 .LEHE3-.LEHB3
 1451 0020 00       		.uleb128 0
 1452 0021 00       		.uleb128 0
 1453 0022 9C08     		.uleb128 .LEHB4-.LFB6117
 1454 0024 04       		.uleb128 .LEHE4-.LEHB4
 1455 0025 FC07     		.uleb128 .L234-.LFB6117
 1456 0027 00       		.uleb128 0
 1457 0028 B008     		.uleb128 .LEHB5-.LFB6117
 1458 002a 1C       		.uleb128 .LEHE5-.LEHB5
 1459 002b E807     		.uleb128 .L235-.LFB6117
 1460 002d 00       		.uleb128 0
 1461 002e 8809     		.uleb128 .LEHB6-.LFB6117
 1462 0030 1C       		.uleb128 .LEHE6-.LEHB6
 1463 0031 00       		.uleb128 0
 1464 0032 00       		.uleb128 0
 1465              	.LLSDACSE6117:
 1466              		.section	.text._ZN6tflite14MicroAllocator22FinishTensorAllocationEv
 1467              		.fnend
 1469              		.weak	_ZTSN6tflite20BuiltinDataAllocatorE
 1470              		.section	.rodata._ZTSN6tflite20BuiltinDataAllocatorE,"aG",%progbits,_ZTSN6tflite20BuiltinDataAlloc
 1473              	_ZTSN6tflite20BuiltinDataAllocatorE:
 1474 0000 4E367466 		.ascii	"N6tflite20BuiltinDataAllocatorE\000"
 1474      6C697465 
 1474      32304275 
 1474      696C7469 
 1474      6E446174 
 1475              		.weak	_ZTIN6tflite20BuiltinDataAllocatorE
 1476              		.section	.rodata._ZTIN6tflite20BuiltinDataAllocatorE,"aG",%progbits,_ZTIN6tflite20BuiltinDataAlloc
 1477              		.align	2
 1480              	_ZTIN6tflite20BuiltinDataAllocatorE:
 1481 0000 08000000 		.word	_ZTVN10__cxxabiv117__class_type_infoE+8
 1482 0004 00000000 		.word	_ZTSN6tflite20BuiltinDataAllocatorE
 1483              		.weak	_ZZN6tflite24EnumNamesBuiltinOperatorEvE5names
 1484              		.section	.rodata._ZZN6tflite24EnumNamesBuiltinOperatorEvE5names,"aG",%progbits,_ZZN6tflite24EnumNa
 1485              		.align	2
 1488              	_ZZN6tflite24EnumNamesBuiltinOperatorEvE5names:
 1489 0000 00000000 		.word	.LC18
 1490 0004 04000000 		.word	.LC19
 1491 0008 14000000 		.word	.LC20
 1492 000c 22000000 		.word	.LC21
 1493 0010 2A000000 		.word	.LC22
 1494 0014 3C000000 		.word	.LC23
 1495 0018 4B000000 		.word	.LC24
 1496 001c 56000000 		.word	.LC25
 1497 0020 67000000 		.word	.LC26
 1498 0024 6D000000 		.word	.LC27
 1499 0028 7D000000 		.word	.LC28
 1500 002c 8E000000 		.word	.LC29
 1501 0030 9F000000 		.word	.LC30
 1502 0034 AA000000 		.word	.LC31
 1503 0038 C7000000 		.word	.LC32
 1504 003c D0000000 		.word	.LC33
 1505 0040 DF000000 		.word	.LC34
 1506 0044 E4000000 		.word	.LC35
 1507 0048 F0000000 		.word	.LC36
 1508 004c F4000000 		.word	.LC37
 1509 0050 F9000000 		.word	.LC38
 1510 0054 06010000 		.word	.LC39
 1511 0058 0C010000 		.word	.LC40
 1512 005c 14010000 		.word	.LC41
 1513 0060 24010000 		.word	.LC42
 1514 0064 28010000 		.word	.LC43
 1515 0068 30010000 		.word	.LC44
 1516 006c 3F010000 		.word	.LC45
 1517 0070 44010000 		.word	.LC46
 1518 0074 49010000 		.word	.LC47
 1519 0078 5B010000 		.word	.LC48
 1520 007c 65010000 		.word	.LC49
 1521 0080 6A010000 		.word	.LC50
 1522 0084 71010000 		.word	.LC51
 1523 0088 89010000 		.word	.LC52
 1524 008c 8D010000 		.word	.LC53
 1525 0090 A9010000 		.word	.LC54
 1526 0094 B0010000 		.word	.LC55
 1527 0098 C2010000 		.word	.LC56
 1528 009c D4010000 		.word	.LC57
 1529 00a0 DE010000 		.word	.LC58
 1530 00a4 E3010000 		.word	.LC59
 1531 00a8 E7010000 		.word	.LC60
 1532 00ac EB010000 		.word	.LC61
 1533 00b0 F3010000 		.word	.LC62
 1534 00b4 10020000 		.word	.LC63
 1535 00b8 1E020000 		.word	.LC64
 1536 00bc 39020000 		.word	.LC65
 1537 00c0 3D020000 		.word	.LC66
 1538 00c4 45020000 		.word	.LC67
 1539 00c8 4B020000 		.word	.LC68
 1540 00cc 57020000 		.word	.LC69
 1541 00d0 60020000 		.word	.LC70
 1542 00d4 7C020000 		.word	.LC71
 1543 00d8 81020000 		.word	.LC72
 1544 00dc 87020000 		.word	.LC73
 1545 00e0 8F020000 		.word	.LC74
 1546 00e4 97020000 		.word	.LC75
 1547 00e8 9F020000 		.word	.LC76
 1548 00ec A4020000 		.word	.LC77
 1549 00f0 A8020000 		.word	.LC78
 1550 00f4 AE020000 		.word	.LC79
 1551 00f8 B6020000 		.word	.LC80
 1552 00fc C4020000 		.word	.LC81
 1553 0100 CF020000 		.word	.LC82
 1554 0104 D6020000 		.word	.LC83
 1555 0108 DC020000 		.word	.LC84
 1556 010c E0020000 		.word	.LC85
 1557 0110 EF020000 		.word	.LC86
 1558 0114 FF020000 		.word	.LC87
 1559 0118 04030000 		.word	.LC88
 1560 011c 10030000 		.word	.LC89
 1561 0120 16030000 		.word	.LC90
 1562 0124 20030000 		.word	.LC91
 1563 0128 24030000 		.word	.LC92
 1564 012c 28030000 		.word	.LC93
 1565 0130 2D030000 		.word	.LC94
 1566 0134 33030000 		.word	.LC95
 1567 0138 39030000 		.word	.LC96
 1568 013c 3D030000 		.word	.LC97
 1569 0140 45030000 		.word	.LC98
 1570 0144 50030000 		.word	.LC99
 1571 0148 5C030000 		.word	.LC100
 1572 014c 67030000 		.word	.LC101
 1573 0150 6C030000 		.word	.LC102
 1574 0154 77030000 		.word	.LC103
 1575 0158 7F030000 		.word	.LC104
 1576 015c 8B030000 		.word	.LC105
 1577 0160 97030000 		.word	.LC106
 1578 0164 9E030000 		.word	.LC107
 1579 0168 A9030000 		.word	.LC108
 1580 016c B3030000 		.word	.LC109
 1581 0170 BE030000 		.word	.LC110
 1582 0174 C5030000 		.word	.LC111
 1583 0178 D0030000 		.word	.LC112
 1584 017c D5030000 		.word	.LC113
 1585 0180 DF030000 		.word	.LC114
 1586 0184 E5030000 		.word	.LC115
 1587 0188 FD030000 		.word	.LC116
 1588 018c 08040000 		.word	.LC117
 1589 0190 1B040000 		.word	.LC118
 1590 0194 26040000 		.word	.LC119
 1591 0198 2A040000 		.word	.LC120
 1592 019c 32040000 		.word	.LC121
 1593 01a0 39040000 		.word	.LC122
 1594 01a4 3E040000 		.word	.LC123
 1595 01a8 49040000 		.word	.LC124
 1596 01ac 4F040000 		.word	.LC125
 1597 01b0 59040000 		.word	.LC126
 1598 01b4 5D040000 		.word	.LC127
 1599 01b8 63040000 		.word	.LC128
 1600 01bc 68040000 		.word	.LC129
 1601 01c0 6C040000 		.word	.LC130
 1602 01c4 7D040000 		.word	.LC131
 1603 01c8 89040000 		.word	.LC132
 1604 01cc 92040000 		.word	.LC133
 1605 01d0 A2040000 		.word	.LC134
 1606 01d4 A8040000 		.word	.LC135
 1607 01d8 B3040000 		.word	.LC136
 1608 01dc B6040000 		.word	.LC137
 1609 01e0 BC040000 		.word	.LC138
 1610 01e4 D3040000 		.word	.LC139
 1611 01e8 EA040000 		.word	.LC140
 1612 01ec F5040000 		.word	.LC141
 1613 01f0 FF040000 		.word	.LC142
 1614 01f4 07050000 		.word	.LC143
 1615 01f8 00000000 		.word	0
 1616              		.weak	_ZN11flatbuffers25flatbuffer_version_stringE
 1617              		.section	.data._ZN11flatbuffers25flatbuffer_version_stringE,"aw",%progbits
 1618              		.align	2
 1621              	_ZN11flatbuffers25flatbuffer_version_stringE:
 1622 0000 13050000 		.word	.LC144
 1623              		.section	.rodata._ZN6tflite14MicroAllocator22FinishTensorAllocationEv.str1.1,"aMS",%progbits,1
 1624              	.LC14:
 1625 0000 4661696C 		.ascii	"Failed to allocate memory for allocation_info, %d b"
 1625      65642074 
 1625      6F20616C 
 1625      6C6F6361 
 1625      7465206D 
 1626 0033 79746573 		.ascii	"ytes required\000"
 1626      20726571 
 1626      75697265 
 1626      6400
 1627              	.LC15:
 1628 0041 4C6F6769 		.ascii	"Logic error in memory planner, tensor %d has an inv"
 1628      63206572 
 1628      726F7220 
 1628      696E206D 
 1628      656D6F72 
 1629 0074 616C6964 		.ascii	"alid lifetime: first_created: %d, last_used: %d\000"
 1629      206C6966 
 1629      6574696D 
 1629      653A2066 
 1629      69727374 
 1630              	.LC16:
 1631 00a4 4172656E 		.ascii	"Arena size is too small for activation buffers. Nee"
 1631      61207369 
 1631      7A652069 
 1631      7320746F 
 1631      6F20736D 
 1632 00d7 64656420 		.ascii	"ded %d but only %d was available.\000"
 1632      25642062 
 1632      7574206F 
 1632      6E6C7920 
 1632      25642077 
 1633              	.LC17:
 1634 00f9 4661696C 		.ascii	"Failed to allocate variables. Please increase arena"
 1634      65642074 
 1634      6F20616C 
 1634      6C6F6361 
 1634      74652076 
 1635 012c 2073697A 		.ascii	" size.\000"
 1635      652E00
 1636              		.section	.rodata._ZN6tflite14MicroAllocator28AllocateNodeAndRegistrationsERKNS_10OpResolverEPPNS_1
 1637              	.LC3:
 1638 0000 00       		.ascii	"\000"
 1639              	.LC4:
 1640 0001 4661696C 		.ascii	"Failed to allocate memory for node_and_registration"
 1640      65642074 
 1640      6F20616C 
 1640      6C6F6361 
 1640      7465206D 
 1641 0034 732E00   		.ascii	"s.\000"
 1642              	.LC5:
 1643 0037 4D697373 		.ascii	"Missing registration for opcode_index %d\012\000"
 1643      696E6720 
 1643      72656769 
 1643      73747261 
 1643      74696F6E 
 1644              	.LC6:
 1645 0061 20202020 		.ascii	"        required op : %s (version %d)\000"
 1645      20202020 
 1645      72657175 
 1645      69726564 
 1645      206F7020 
 1646              	.LC7:
 1647 0087 4661696C 		.ascii	"Failed to get registration from op code %d\012 \000"
 1647      65642074 
 1647      6F206765 
 1647      74207265 
 1647      67697374 
 1648              	.LC8:
 1649 00b4 536B6970 		.ascii	"Skipping op for opcode_index %d\012\000"
 1649      70696E67 
 1649      206F7020 
 1649      666F7220 
 1649      6F70636F 
 1650              	.LC9:
 1651 00d5 556E7375 		.ascii	"Unsupported behavior: found builtin operator %s wit"
 1651      70706F72 
 1651      74656420 
 1651      62656861 
 1651      76696F72 
 1652 0108 68206375 		.ascii	"h custom options.\012\000"
 1652      73746F6D 
 1652      206F7074 
 1652      696F6E73 
 1652      2E0A00
 1653              		.section	.rodata._ZN6tflite14MicroAllocator4InitEv.str1.1,"aMS",%progbits,1
 1654              	.LC10:
 1655 0000 4F6E6C79 		.ascii	"Only 1 subgraph is currently supported.\012\000"
 1655      20312073 
 1655      75626772 
 1655      61706820 
 1655      69732063 
 1656              	.LC11:
 1657 0029 4661696C 		.ascii	"Failed to allocate memory for context->tensors, %d "
 1657      65642074 
 1657      6F20616C 
 1657      6C6F6361 
 1657      7465206D 
 1658 005c 62797465 		.ascii	"bytes required\000"
 1658      73207265 
 1658      71756972 
 1658      656400
 1659              	.LC12:
 1660 006b 4661696C 		.ascii	"Failed to initialize tensor %d\000"
 1660      65642074 
 1660      6F20696E 
 1660      69746961 
 1660      6C697A65 
 1661              		.section	.rodata._ZN6tflite14MicroAllocatorC2EP13TfLiteContextPKNS_5ModelEPhjPNS_13ErrorReporterE.
 1662              	.LC13:
 1663 0000 4D696372 		.ascii	"MicroAllocator: Failed to initialize.\000"
 1663      6F416C6C 
 1663      6F636174 
 1663      6F723A20 
 1663      4661696C 
 1664              		.section	.rodata._ZN6tflite8internal23InitializeRuntimeTensorEPNS_21SimpleMemoryAllocatorERKNS_6Te
 1665              	.LC2:
 1666 0000 3C4E6F20 		.ascii	"<No name>\000"
 1666      6E616D65 
 1666      3E00
 1667              		.section	.rodata._ZNK11flatbuffers6VectorIfE3GetEm.str1.1,"aMS",%progbits,1
 1668              	.LC0:
 1669 0000 69203C20 		.ascii	"i < size()\000"
 1669      73697A65 
 1669      282900
 1670              	.LC1:
 1671 000b 433A2F52 		.ascii	"C:/Renesas/e2studio_2021_01_workspace_RZA2M_ANPR/AN"
 1671      656E6573 
 1671      61732F65 
 1671      32737475 
 1671      64696F5F 
 1672 003e 50525F52 		.ascii	"PR_RZA2M_GR_MANGO/src/tensorflow_lite/src/third_par"
 1672      5A41324D 
 1672      5F47525F 
 1672      4D414E47 
 1672      4F2F7372 
 1673 0071 74792F66 		.ascii	"ty/flatbuffers/include/flatbuffers/flatbuffers.h\000"
 1673      6C617462 
 1673      75666665 
 1673      72732F69 
 1673      6E636C75 
 1674              		.section	.rodata._ZTIN6tflite12_GLOBAL__N_125MicroBuiltinDataAllocatorE,"a",%progbits
 1675              		.align	2
 1678              	_ZTIN6tflite12_GLOBAL__N_125MicroBuiltinDataAllocatorE:
 1679 0000 08000000 		.word	_ZTVN10__cxxabiv120__si_class_type_infoE+8
 1680 0004 00000000 		.word	_ZTSN6tflite12_GLOBAL__N_125MicroBuiltinDataAllocatorE
 1681 0008 00000000 		.word	_ZTIN6tflite20BuiltinDataAllocatorE
 1682              		.section	.rodata._ZTSN6tflite12_GLOBAL__N_125MicroBuiltinDataAllocatorE,"a",%progbits
 1685              	_ZTSN6tflite12_GLOBAL__N_125MicroBuiltinDataAllocatorE:
 1686 0000 2A4E3674 		.ascii	"*N6tflite12_GLOBAL__N_125MicroBuiltinDataAllocatorE"
 1686      666C6974 
 1686      6531325F 
 1686      474C4F42 
 1686      414C5F5F 
 1687 0033 00       		.ascii	"\000"
 1688              		.section	.rodata._ZTVN6tflite12_GLOBAL__N_125MicroBuiltinDataAllocatorE,"a",%progbits
 1689              		.align	2
 1690              		.set	.LANCHOR6,. + 0
 1693              	_ZTVN6tflite12_GLOBAL__N_125MicroBuiltinDataAllocatorE:
 1694 0000 00000000 		.word	0
 1695 0004 00000000 		.word	_ZTIN6tflite12_GLOBAL__N_125MicroBuiltinDataAllocatorE
 1696 0008 00000000 		.word	_ZN6tflite12_GLOBAL__N_125MicroBuiltinDataAllocator8AllocateEj
 1697 000c 00000000 		.word	_ZN6tflite12_GLOBAL__N_125MicroBuiltinDataAllocator10DeallocateEPv
 1698 0010 00000000 		.word	_ZN6tflite12_GLOBAL__N_125MicroBuiltinDataAllocatorD1Ev
 1699 0014 00000000 		.word	_ZN6tflite12_GLOBAL__N_125MicroBuiltinDataAllocatorD0Ev
 1700              		.section	.rodata._ZZNK11flatbuffers6VectorINS_6OffsetIN6tflite6BufferEEEE3GetEmE19__PRETTY_FUNCTIO
 1701              		.set	.LANCHOR5,. + 0
 1704              	_ZZNK11flatbuffers6VectorINS_6OffsetIN6tflite6BufferEEEE3GetEmE19__PRETTY_FUNCTION__:
 1705 0000 666C6174 		.ascii	"flatbuffers::Vector<T>::return_type flatbuffers::Ve"
 1705      62756666 
 1705      6572733A 
 1705      3A566563 
 1705      746F723C 
 1706 0033 63746F72 		.ascii	"ctor<T>::Get(flatbuffers::uoffset_t) const [with T "
 1706      3C543E3A 
 1706      3A476574 
 1706      28666C61 
 1706      74627566 
 1707 0066 3D20666C 		.ascii	"= flatbuffers::Offset<tflite::Buffer>; flatbuffers:"
 1707      61746275 
 1707      66666572 
 1707      733A3A4F 
 1707      66667365 
 1708 0099 3A566563 		.ascii	":Vector<T>::return_type = const tflite::Buffer*; fl"
 1708      746F723C 
 1708      543E3A3A 
 1708      72657475 
 1708      726E5F74 
 1709 00cc 61746275 		.ascii	"atbuffers::uoffset_t = long unsigned int]\000"
 1709      66666572 
 1709      733A3A75 
 1709      6F666673 
 1709      65745F74 
 1710              		.section	.rodata._ZZNK11flatbuffers6VectorINS_6OffsetIN6tflite6TensorEEEE3GetEmE19__PRETTY_FUNCTIO
 1711              		.set	.LANCHOR3,. + 0
 1714              	_ZZNK11flatbuffers6VectorINS_6OffsetIN6tflite6TensorEEEE3GetEmE19__PRETTY_FUNCTION__:
 1715 0000 666C6174 		.ascii	"flatbuffers::Vector<T>::return_type flatbuffers::Ve"
 1715      62756666 
 1715      6572733A 
 1715      3A566563 
 1715      746F723C 
 1716 0033 63746F72 		.ascii	"ctor<T>::Get(flatbuffers::uoffset_t) const [with T "
 1716      3C543E3A 
 1716      3A476574 
 1716      28666C61 
 1716      74627566 
 1717 0066 3D20666C 		.ascii	"= flatbuffers::Offset<tflite::Tensor>; flatbuffers:"
 1717      61746275 
 1717      66666572 
 1717      733A3A4F 
 1717      66667365 
 1718 0099 3A566563 		.ascii	":Vector<T>::return_type = const tflite::Tensor*; fl"
 1718      746F723C 
 1718      543E3A3A 
 1718      72657475 
 1718      726E5F74 
 1719 00cc 61746275 		.ascii	"atbuffers::uoffset_t = long unsigned int]\000"
 1719      66666572 
 1719      733A3A75 
 1719      6F666673 
 1719      65745F74 
 1720              		.section	.rodata._ZZNK11flatbuffers6VectorINS_6OffsetIN6tflite8OperatorEEEE3GetEmE19__PRETTY_FUNCT
 1721              		.set	.LANCHOR4,. + 0
 1724              	_ZZNK11flatbuffers6VectorINS_6OffsetIN6tflite8OperatorEEEE3GetEmE19__PRETTY_FUNCTION__:
 1725 0000 666C6174 		.ascii	"flatbuffers::Vector<T>::return_type flatbuffers::Ve"
 1725      62756666 
 1725      6572733A 
 1725      3A566563 
 1725      746F723C 
 1726 0033 63746F72 		.ascii	"ctor<T>::Get(flatbuffers::uoffset_t) const [with T "
 1726      3C543E3A 
 1726      3A476574 
 1726      28666C61 
 1726      74627566 
 1727 0066 3D20666C 		.ascii	"= flatbuffers::Offset<tflite::Operator>; flatbuffer"
 1727      61746275 
 1727      66666572 
 1727      733A3A4F 
 1727      66667365 
 1728 0099 733A3A56 		.ascii	"s::Vector<T>::return_type = const tflite::Operator*"
 1728      6563746F 
 1728      723C543E 
 1728      3A3A7265 
 1728      7475726E 
 1729 00cc 3B20666C 		.ascii	"; flatbuffers::uoffset_t = long unsigned int]\000"
 1729      61746275 
 1729      66666572 
 1729      733A3A75 
 1729      6F666673 
 1730              		.section	.rodata._ZZNK11flatbuffers6VectorIfE3GetEmE19__PRETTY_FUNCTION__,"a",%progbits
 1731              		.set	.LANCHOR0,. + 0
 1734              	_ZZNK11flatbuffers6VectorIfE3GetEmE19__PRETTY_FUNCTION__:
 1735 0000 666C6174 		.ascii	"flatbuffers::Vector<T>::return_type flatbuffers::Ve"
 1735      62756666 
 1735      6572733A 
 1735      3A566563 
 1735      746F723C 
 1736 0033 63746F72 		.ascii	"ctor<T>::Get(flatbuffers::uoffset_t) const [with T "
 1736      3C543E3A 
 1736      3A476574 
 1736      28666C61 
 1736      74627566 
 1737 0066 3D20666C 		.ascii	"= float; flatbuffers::Vector<T>::return_type = floa"
 1737      6F61743B 
 1737      20666C61 
 1737      74627566 
 1737      66657273 
 1738 0099 743B2066 		.ascii	"t; flatbuffers::uoffset_t = long unsigned int]\000"
 1738      6C617462 
 1738      75666665 
 1738      72733A3A 
 1738      756F6666 
 1739              		.section	.rodata._ZZNK11flatbuffers6VectorIlE3GetEmE19__PRETTY_FUNCTION__,"a",%progbits
 1740              		.set	.LANCHOR2,. + 0
 1743              	_ZZNK11flatbuffers6VectorIlE3GetEmE19__PRETTY_FUNCTION__:
 1744 0000 666C6174 		.ascii	"flatbuffers::Vector<T>::return_type flatbuffers::Ve"
 1744      62756666 
 1744      6572733A 
 1744      3A566563 
 1744      746F723C 
 1745 0033 63746F72 		.ascii	"ctor<T>::Get(flatbuffers::uoffset_t) const [with T "
 1745      3C543E3A 
 1745      3A476574 
 1745      28666C61 
 1745      74627566 
 1746 0066 3D206C6F 		.ascii	"= long int; flatbuffers::Vector<T>::return_type = l"
 1746      6E672069 
 1746      6E743B20 
 1746      666C6174 
 1746      62756666 
 1747 0099 6F6E6720 		.ascii	"ong int; flatbuffers::uoffset_t = long unsigned int"
 1747      696E743B 
 1747      20666C61 
 1747      74627566 
 1747      66657273 
 1748 00cc 5D00     		.ascii	"]\000"
 1749              		.section	.rodata._ZZNK11flatbuffers6VectorIxE3GetEmE19__PRETTY_FUNCTION__,"a",%progbits
 1750              		.set	.LANCHOR1,. + 0
 1753              	_ZZNK11flatbuffers6VectorIxE3GetEmE19__PRETTY_FUNCTION__:
 1754 0000 666C6174 		.ascii	"flatbuffers::Vector<T>::return_type flatbuffers::Ve"
 1754      62756666 
 1754      6572733A 
 1754      3A566563 
 1754      746F723C 
 1755 0033 63746F72 		.ascii	"ctor<T>::Get(flatbuffers::uoffset_t) const [with T "
 1755      3C543E3A 
 1755      3A476574 
 1755      28666C61 
 1755      74627566 
 1756 0066 3D206C6F 		.ascii	"= long long int; flatbuffers::Vector<T>::return_typ"
 1756      6E67206C 
 1756      6F6E6720 
 1756      696E743B 
 1756      20666C61 
 1757 0099 65203D20 		.ascii	"e = long long int; flatbuffers::uoffset_t = long un"
 1757      6C6F6E67 
 1757      206C6F6E 
 1757      6720696E 
 1757      743B2066 
 1758 00cc 7369676E 		.ascii	"signed int]\000"
 1758      65642069 
 1758      6E745D00 
 1759              		.section	.rodata.str1.1,"aMS",%progbits,1
 1760              	.LC18:
 1761 0000 41444400 		.ascii	"ADD\000"
 1762              	.LC19:
 1763 0004 41564552 		.ascii	"AVERAGE_POOL_2D\000"
 1763      4147455F 
 1763      504F4F4C 
 1763      5F324400 
 1764              	.LC20:
 1765 0014 434F4E43 		.ascii	"CONCATENATION\000"
 1765      4154454E 
 1765      4154494F 
 1765      4E00
 1766              	.LC21:
 1767 0022 434F4E56 		.ascii	"CONV_2D\000"
 1767      5F324400 
 1768              	.LC22:
 1769 002a 44455054 		.ascii	"DEPTHWISE_CONV_2D\000"
 1769      48574953 
 1769      455F434F 
 1769      4E565F32 
 1769      4400
 1770              	.LC23:
 1771 003c 44455054 		.ascii	"DEPTH_TO_SPACE\000"
 1771      485F544F 
 1771      5F535041 
 1771      434500
 1772              	.LC24:
 1773 004b 44455155 		.ascii	"DEQUANTIZE\000"
 1773      414E5449 
 1773      5A4500
 1774              	.LC25:
 1775 0056 454D4245 		.ascii	"EMBEDDING_LOOKUP\000"
 1775      4444494E 
 1775      475F4C4F 
 1775      4F4B5550 
 1775      00
 1776              	.LC26:
 1777 0067 464C4F4F 		.ascii	"FLOOR\000"
 1777      5200
 1778              	.LC27:
 1779 006d 46554C4C 		.ascii	"FULLY_CONNECTED\000"
 1779      595F434F 
 1779      4E4E4543 
 1779      54454400 
 1780              	.LC28:
 1781 007d 48415348 		.ascii	"HASHTABLE_LOOKUP\000"
 1781      5441424C 
 1781      455F4C4F 
 1781      4F4B5550 
 1781      00
 1782              	.LC29:
 1783 008e 4C325F4E 		.ascii	"L2_NORMALIZATION\000"
 1783      4F524D41 
 1783      4C495A41 
 1783      54494F4E 
 1783      00
 1784              	.LC30:
 1785 009f 4C325F50 		.ascii	"L2_POOL_2D\000"
 1785      4F4F4C5F 
 1785      324400
 1786              	.LC31:
 1787 00aa 4C4F4341 		.ascii	"LOCAL_RESPONSE_NORMALIZATION\000"
 1787      4C5F5245 
 1787      53504F4E 
 1787      53455F4E 
 1787      4F524D41 
 1788              	.LC32:
 1789 00c7 4C4F4749 		.ascii	"LOGISTIC\000"
 1789      53544943 
 1789      00
 1790              	.LC33:
 1791 00d0 4C53485F 		.ascii	"LSH_PROJECTION\000"
 1791      50524F4A 
 1791      45435449 
 1791      4F4E00
 1792              	.LC34:
 1793 00df 4C53544D 		.ascii	"LSTM\000"
 1793      00
 1794              	.LC35:
 1795 00e4 4D41585F 		.ascii	"MAX_POOL_2D\000"
 1795      504F4F4C 
 1795      5F324400 
 1796              	.LC36:
 1797 00f0 4D554C00 		.ascii	"MUL\000"
 1798              	.LC37:
 1799 00f4 52454C55 		.ascii	"RELU\000"
 1799      00
 1800              	.LC38:
 1801 00f9 52454C55 		.ascii	"RELU_N1_TO_1\000"
 1801      5F4E315F 
 1801      544F5F31 
 1801      00
 1802              	.LC39:
 1803 0106 52454C55 		.ascii	"RELU6\000"
 1803      3600
 1804              	.LC40:
 1805 010c 52455348 		.ascii	"RESHAPE\000"
 1805      41504500 
 1806              	.LC41:
 1807 0114 52455349 		.ascii	"RESIZE_BILINEAR\000"
 1807      5A455F42 
 1807      494C494E 
 1807      45415200 
 1808              	.LC42:
 1809 0124 524E4E00 		.ascii	"RNN\000"
 1810              	.LC43:
 1811 0128 534F4654 		.ascii	"SOFTMAX\000"
 1811      4D415800 
 1812              	.LC44:
 1813 0130 53504143 		.ascii	"SPACE_TO_DEPTH\000"
 1813      455F544F 
 1813      5F444550 
 1813      544800
 1814              	.LC45:
 1815 013f 53564446 		.ascii	"SVDF\000"
 1815      00
 1816              	.LC46:
 1817 0144 54414E48 		.ascii	"TANH\000"
 1817      00
 1818              	.LC47:
 1819 0149 434F4E43 		.ascii	"CONCAT_EMBEDDINGS\000"
 1819      41545F45 
 1819      4D424544 
 1819      44494E47 
 1819      5300
 1820              	.LC48:
 1821 015b 534B4950 		.ascii	"SKIP_GRAM\000"
 1821      5F475241 
 1821      4D00
 1822              	.LC49:
 1823 0165 43414C4C 		.ascii	"CALL\000"
 1823      00
 1824              	.LC50:
 1825 016a 43555354 		.ascii	"CUSTOM\000"
 1825      4F4D00
 1826              	.LC51:
 1827 0171 454D4245 		.ascii	"EMBEDDING_LOOKUP_SPARSE\000"
 1827      4444494E 
 1827      475F4C4F 
 1827      4F4B5550 
 1827      5F535041 
 1828              	.LC52:
 1829 0189 50414400 		.ascii	"PAD\000"
 1830              	.LC53:
 1831 018d 554E4944 		.ascii	"UNIDIRECTIONAL_SEQUENCE_RNN\000"
 1831      49524543 
 1831      54494F4E 
 1831      414C5F53 
 1831      45515545 
 1832              	.LC54:
 1833 01a9 47415448 		.ascii	"GATHER\000"
 1833      455200
 1834              	.LC55:
 1835 01b0 42415443 		.ascii	"BATCH_TO_SPACE_ND\000"
 1835      485F544F 
 1835      5F535041 
 1835      43455F4E 
 1835      4400
 1836              	.LC56:
 1837 01c2 53504143 		.ascii	"SPACE_TO_BATCH_ND\000"
 1837      455F544F 
 1837      5F424154 
 1837      43485F4E 
 1837      4400
 1838              	.LC57:
 1839 01d4 5452414E 		.ascii	"TRANSPOSE\000"
 1839      53504F53 
 1839      4500
 1840              	.LC58:
 1841 01de 4D45414E 		.ascii	"MEAN\000"
 1841      00
 1842              	.LC59:
 1843 01e3 53554200 		.ascii	"SUB\000"
 1844              	.LC60:
 1845 01e7 44495600 		.ascii	"DIV\000"
 1846              	.LC61:
 1847 01eb 53515545 		.ascii	"SQUEEZE\000"
 1847      455A4500 
 1848              	.LC62:
 1849 01f3 554E4944 		.ascii	"UNIDIRECTIONAL_SEQUENCE_LSTM\000"
 1849      49524543 
 1849      54494F4E 
 1849      414C5F53 
 1849      45515545 
 1850              	.LC63:
 1851 0210 53545249 		.ascii	"STRIDED_SLICE\000"
 1851      4445445F 
 1851      534C4943 
 1851      4500
 1852              	.LC64:
 1853 021e 42494449 		.ascii	"BIDIRECTIONAL_SEQUENCE_RNN\000"
 1853      52454354 
 1853      494F4E41 
 1853      4C5F5345 
 1853      5155454E 
 1854              	.LC65:
 1855 0239 45585000 		.ascii	"EXP\000"
 1856              	.LC66:
 1857 023d 544F504B 		.ascii	"TOPK_V2\000"
 1857      5F563200 
 1858              	.LC67:
 1859 0245 53504C49 		.ascii	"SPLIT\000"
 1859      5400
 1860              	.LC68:
 1861 024b 4C4F475F 		.ascii	"LOG_SOFTMAX\000"
 1861      534F4654 
 1861      4D415800 
 1862              	.LC69:
 1863 0257 44454C45 		.ascii	"DELEGATE\000"
 1863      47415445 
 1863      00
 1864              	.LC70:
 1865 0260 42494449 		.ascii	"BIDIRECTIONAL_SEQUENCE_LSTM\000"
 1865      52454354 
 1865      494F4E41 
 1865      4C5F5345 
 1865      5155454E 
 1866              	.LC71:
 1867 027c 43415354 		.ascii	"CAST\000"
 1867      00
 1868              	.LC72:
 1869 0281 5052454C 		.ascii	"PRELU\000"
 1869      5500
 1870              	.LC73:
 1871 0287 4D415849 		.ascii	"MAXIMUM\000"
 1871      4D554D00 
 1872              	.LC74:
 1873 028f 4152475F 		.ascii	"ARG_MAX\000"
 1873      4D415800 
 1874              	.LC75:
 1875 0297 4D494E49 		.ascii	"MINIMUM\000"
 1875      4D554D00 
 1876              	.LC76:
 1877 029f 4C455353 		.ascii	"LESS\000"
 1877      00
 1878              	.LC77:
 1879 02a4 4E454700 		.ascii	"NEG\000"
 1880              	.LC78:
 1881 02a8 50414456 		.ascii	"PADV2\000"
 1881      3200
 1882              	.LC79:
 1883 02ae 47524541 		.ascii	"GREATER\000"
 1883      54455200 
 1884              	.LC80:
 1885 02b6 47524541 		.ascii	"GREATER_EQUAL\000"
 1885      5445525F 
 1885      45515541 
 1885      4C00
 1886              	.LC81:
 1887 02c4 4C455353 		.ascii	"LESS_EQUAL\000"
 1887      5F455155 
 1887      414C00
 1888              	.LC82:
 1889 02cf 53454C45 		.ascii	"SELECT\000"
 1889      435400
 1890              	.LC83:
 1891 02d6 534C4943 		.ascii	"SLICE\000"
 1891      4500
 1892              	.LC84:
 1893 02dc 53494E00 		.ascii	"SIN\000"
 1894              	.LC85:
 1895 02e0 5452414E 		.ascii	"TRANSPOSE_CONV\000"
 1895      53504F53 
 1895      455F434F 
 1895      4E5600
 1896              	.LC86:
 1897 02ef 53504152 		.ascii	"SPARSE_TO_DENSE\000"
 1897      53455F54 
 1897      4F5F4445 
 1897      4E534500 
 1898              	.LC87:
 1899 02ff 54494C45 		.ascii	"TILE\000"
 1899      00
 1900              	.LC88:
 1901 0304 45585041 		.ascii	"EXPAND_DIMS\000"
 1901      4E445F44 
 1901      494D5300 
 1902              	.LC89:
 1903 0310 45515541 		.ascii	"EQUAL\000"
 1903      4C00
 1904              	.LC90:
 1905 0316 4E4F545F 		.ascii	"NOT_EQUAL\000"
 1905      45515541 
 1905      4C00
 1906              	.LC91:
 1907 0320 4C4F4700 		.ascii	"LOG\000"
 1908              	.LC92:
 1909 0324 53554D00 		.ascii	"SUM\000"
 1910              	.LC93:
 1911 0328 53515254 		.ascii	"SQRT\000"
 1911      00
 1912              	.LC94:
 1913 032d 52535152 		.ascii	"RSQRT\000"
 1913      5400
 1914              	.LC95:
 1915 0333 53484150 		.ascii	"SHAPE\000"
 1915      4500
 1916              	.LC96:
 1917 0339 504F5700 		.ascii	"POW\000"
 1918              	.LC97:
 1919 033d 4152475F 		.ascii	"ARG_MIN\000"
 1919      4D494E00 
 1920              	.LC98:
 1921 0345 46414B45 		.ascii	"FAKE_QUANT\000"
 1921      5F515541 
 1921      4E5400
 1922              	.LC99:
 1923 0350 52454455 		.ascii	"REDUCE_PROD\000"
 1923      43455F50 
 1923      524F4400 
 1924              	.LC100:
 1925 035c 52454455 		.ascii	"REDUCE_MAX\000"
 1925      43455F4D 
 1925      415800
 1926              	.LC101:
 1927 0367 5041434B 		.ascii	"PACK\000"
 1927      00
 1928              	.LC102:
 1929 036c 4C4F4749 		.ascii	"LOGICAL_OR\000"
 1929      43414C5F 
 1929      4F5200
 1930              	.LC103:
 1931 0377 4F4E455F 		.ascii	"ONE_HOT\000"
 1931      484F5400 
 1932              	.LC104:
 1933 037f 4C4F4749 		.ascii	"LOGICAL_AND\000"
 1933      43414C5F 
 1933      414E4400 
 1934              	.LC105:
 1935 038b 4C4F4749 		.ascii	"LOGICAL_NOT\000"
 1935      43414C5F 
 1935      4E4F5400 
 1936              	.LC106:
 1937 0397 554E5041 		.ascii	"UNPACK\000"
 1937      434B00
 1938              	.LC107:
 1939 039e 52454455 		.ascii	"REDUCE_MIN\000"
 1939      43455F4D 
 1939      494E00
 1940              	.LC108:
 1941 03a9 464C4F4F 		.ascii	"FLOOR_DIV\000"
 1941      525F4449 
 1941      5600
 1942              	.LC109:
 1943 03b3 52454455 		.ascii	"REDUCE_ANY\000"
 1943      43455F41 
 1943      4E5900
 1944              	.LC110:
 1945 03be 53515541 		.ascii	"SQUARE\000"
 1945      524500
 1946              	.LC111:
 1947 03c5 5A45524F 		.ascii	"ZEROS_LIKE\000"
 1947      535F4C49 
 1947      4B4500
 1948              	.LC112:
 1949 03d0 46494C4C 		.ascii	"FILL\000"
 1949      00
 1950              	.LC113:
 1951 03d5 464C4F4F 		.ascii	"FLOOR_MOD\000"
 1951      525F4D4F 
 1951      4400
 1952              	.LC114:
 1953 03df 52414E47 		.ascii	"RANGE\000"
 1953      4500
 1954              	.LC115:
 1955 03e5 52455349 		.ascii	"RESIZE_NEAREST_NEIGHBOR\000"
 1955      5A455F4E 
 1955      45415245 
 1955      53545F4E 
 1955      45494748 
 1956              	.LC116:
 1957 03fd 4C45414B 		.ascii	"LEAKY_RELU\000"
 1957      595F5245 
 1957      4C5500
 1958              	.LC117:
 1959 0408 53515541 		.ascii	"SQUARED_DIFFERENCE\000"
 1959      5245445F 
 1959      44494646 
 1959      4552454E 
 1959      434500
 1960              	.LC118:
 1961 041b 4D495252 		.ascii	"MIRROR_PAD\000"
 1961      4F525F50 
 1961      414400
 1962              	.LC119:
 1963 0426 41425300 		.ascii	"ABS\000"
 1964              	.LC120:
 1965 042a 53504C49 		.ascii	"SPLIT_V\000"
 1965      545F5600 
 1966              	.LC121:
 1967 0432 554E4951 		.ascii	"UNIQUE\000"
 1967      554500
 1968              	.LC122:
 1969 0439 4345494C 		.ascii	"CEIL\000"
 1969      00
 1970              	.LC123:
 1971 043e 52455645 		.ascii	"REVERSE_V2\000"
 1971      5253455F 
 1971      563200
 1972              	.LC124:
 1973 0449 4144445F 		.ascii	"ADD_N\000"
 1973      4E00
 1974              	.LC125:
 1975 044f 47415448 		.ascii	"GATHER_ND\000"
 1975      45525F4E 
 1975      4400
 1976              	.LC126:
 1977 0459 434F5300 		.ascii	"COS\000"
 1978              	.LC127:
 1979 045d 57484552 		.ascii	"WHERE\000"
 1979      4500
 1980              	.LC128:
 1981 0463 52414E4B 		.ascii	"RANK\000"
 1981      00
 1982              	.LC129:
 1983 0468 454C5500 		.ascii	"ELU\000"
 1984              	.LC130:
 1985 046c 52455645 		.ascii	"REVERSE_SEQUENCE\000"
 1985      5253455F 
 1985      53455155 
 1985      454E4345 
 1985      00
 1986              	.LC131:
 1987 047d 4D415452 		.ascii	"MATRIX_DIAG\000"
 1987      49585F44 
 1987      49414700 
 1988              	.LC132:
 1989 0489 5155414E 		.ascii	"QUANTIZE\000"
 1989      54495A45 
 1989      00
 1990              	.LC133:
 1991 0492 4D415452 		.ascii	"MATRIX_SET_DIAG\000"
 1991      49585F53 
 1991      45545F44 
 1991      49414700 
 1992              	.LC134:
 1993 04a2 524F554E 		.ascii	"ROUND\000"
 1993      4400
 1994              	.LC135:
 1995 04a8 48415244 		.ascii	"HARD_SWISH\000"
 1995      5F535749 
 1995      534800
 1996              	.LC136:
 1997 04b3 494600   		.ascii	"IF\000"
 1998              	.LC137:
 1999 04b6 5748494C 		.ascii	"WHILE\000"
 1999      4500
 2000              	.LC138:
 2001 04bc 4E4F4E5F 		.ascii	"NON_MAX_SUPPRESSION_V4\000"
 2001      4D41585F 
 2001      53555050 
 2001      52455353 
 2001      494F4E5F 
 2002              	.LC139:
 2003 04d3 4E4F4E5F 		.ascii	"NON_MAX_SUPPRESSION_V5\000"
 2003      4D41585F 
 2003      53555050 
 2003      52455353 
 2003      494F4E5F 
 2004              	.LC140:
 2005 04ea 53434154 		.ascii	"SCATTER_ND\000"
 2005      5445525F 
 2005      4E4400
 2006              	.LC141:
 2007 04f5 53454C45 		.ascii	"SELECT_V2\000"
 2007      43545F56 
 2007      3200
 2008              	.LC142:
 2009 04ff 44454E53 		.ascii	"DENSIFY\000"
 2009      49465900 
 2010              	.LC143:
 2011 0507 5345474D 		.ascii	"SEGMENT_SUM\000"
 2011      454E545F 
 2011      53554D00 
 2012              	.LC144:
 2013 0513 466C6174 		.ascii	"FlatBuffers 1.11.0\000"
 2013      42756666 
 2013      65727320 
 2013      312E3131 
 2013      2E3000
 2014              		.ident	"GCC: (GNU Tools for ARM Embedded Processors 6-2017-q2-update) 6.3.1 20170620 (release) [AR