   1              		.cpu cortex-a9
   2              		.eabi_attribute 28, 1
   3              		.eabi_attribute 20, 1
   4              		.eabi_attribute 21, 1
   5              		.eabi_attribute 23, 3
   6              		.eabi_attribute 24, 1
   7              		.eabi_attribute 25, 1
   8              		.eabi_attribute 26, 1
   9              		.eabi_attribute 30, 4
  10              		.eabi_attribute 34, 0
  11              		.eabi_attribute 18, 4
  12              		.file	"simple_memory_allocator.cpp"
  13              		.section	.text._ZN6tflite21SimpleMemoryAllocator16AllocateFromTailEjj,"ax",%progbits
  14              		.align	2
  15              		.global	_ZN6tflite21SimpleMemoryAllocator16AllocateFromTailEjj
  16              		.syntax unified
  17              		.arm
  18              		.fpu neon
  20              	_ZN6tflite21SimpleMemoryAllocator16AllocateFromTailEjj:
  21              		.fnstart
  22              	.LFB6096:
  23              		@ args = 0, pretend = 0, frame = 0
  24              		@ frame_needed = 0, uses_anonymous_args = 0
  25 0000 F3412DE9 		push	{r0, r1, r4, r5, r6, r7, r8, lr}
  26              		.save {r4, r5, r6, r7, r8, lr}
  27              		.pad #8
  28 0004 1080D0E5 		ldrb	r8, [r0, #16]	@ zero_extendqisi2
  29 0008 000058E3 		cmp	r8, #0
  30 000c 2300001A 		bne	.L4
  31 0010 0040A0E1 		mov	r4, r0
  32 0014 0130A0E1 		mov	r3, r1
  33 0018 085094E5 		ldr	r5, [r4, #8]
  34 001c 0210A0E1 		mov	r1, r2
  35 0020 050094E8 		ldmia	r4, {r0, r2}
  36 0024 002042E0 		sub	r2, r2, r0
  37 0028 AC609FE5 		ldr	r6, .L6
  38 002c 025085E0 		add	r5, r5, r2
  39 0030 030045E0 		sub	r0, r5, r3
  40 0034 FEFFFFEB 		bl	_ZN6tflite16AlignPointerDownEPhj
  41 0038 002094E5 		ldr	r2, [r4]
  42 003c 005045E0 		sub	r5, r5, r0
  43 0040 041094E5 		ldr	r1, [r4, #4]
  44 0044 0070A0E1 		mov	r7, r0
  45 0048 053082E0 		add	r3, r2, r5
  46 004c 010053E1 		cmp	r3, r1
  47 0050 1400009A 		bls	.L3
  48 0054 003096E5 		ldr	r3, [r6]
  49 0058 80009FE5 		ldr	r0, .L6+4
  50 005c 081093E5 		ldr	r1, [r3, #8]
  51 0060 FEFFFFEB 		bl	fputs
  52 0064 003096E5 		ldr	r3, [r6]
  53 0068 74009FE5 		ldr	r0, .L6+8
  54 006c 081093E5 		ldr	r1, [r3, #8]
  55 0070 FEFFFFEB 		bl	fputs
  56 0074 043094E5 		ldr	r3, [r4, #4]
  57 0078 000096E5 		ldr	r0, [r6]
  58 007c 64109FE5 		ldr	r1, .L6+12
  59 0080 00308DE5 		str	r3, [sp]
  60 0084 0530A0E1 		mov	r3, r5
  61 0088 002094E5 		ldr	r2, [r4]
  62 008c 080090E5 		ldr	r0, [r0, #8]
  63 0090 FEFFFFEB 		bl	fprintf
  64 0094 003096E5 		ldr	r3, [r6]
  65 0098 080093E5 		ldr	r0, [r3, #8]
  66 009c FEFFFFEB 		bl	fflush
  67              	.L4:
  68 00a0 0070A0E3 		mov	r7, #0
  69 00a4 090000EA 		b	.L1
  70              	.L3:
  71 00a8 000096E5 		ldr	r0, [r6]
  72 00ac 04108DE5 		str	r1, [sp, #4]
  73 00b0 00308DE5 		str	r3, [sp]
  74 00b4 0530A0E1 		mov	r3, r5
  75 00b8 2C109FE5 		ldr	r1, .L6+16
  76 00bc 080090E5 		ldr	r0, [r0, #8]
  77 00c0 FEFFFFEB 		bl	fprintf
  78 00c4 003094E5 		ldr	r3, [r4]
  79 00c8 055083E0 		add	r5, r3, r5
  80 00cc 005084E5 		str	r5, [r4]
  81              	.L1:
  82 00d0 0700A0E1 		mov	r0, r7
  83 00d4 08D08DE2 		add	sp, sp, #8
  84              		@ sp needed
  85 00d8 F081BDE8 		pop	{r4, r5, r6, r7, r8, pc}
  86              	.L7:
  87              		.align	2
  88              	.L6:
  89 00dc 00000000 		.word	_impure_ptr
  90 00e0 00000000 		.word	.LC0
  91 00e4 2F000000 		.word	.LC1
  92 00e8 5D000000 		.word	.LC2
  93 00ec 6E000000 		.word	.LC3
  94              		.fnend
  96              		.section	.text._ZN6tflite21SimpleMemoryAllocator20CreateChildAllocatorEv,"ax",%progbits
  97              		.align	2
  98              		.global	_ZN6tflite21SimpleMemoryAllocator20CreateChildAllocatorEv
  99              		.syntax unified
 100              		.arm
 101              		.fpu neon
 103              	_ZN6tflite21SimpleMemoryAllocator20CreateChildAllocatorEv:
 104              		.fnstart
 105              	.LFB6097:
 106              		@ args = 0, pretend = 0, frame = 0
 107              		@ frame_needed = 0, uses_anonymous_args = 0
 108 0000 30402DE9 		push	{r4, r5, lr}
 109 0004 01E0A0E1 		mov	lr, r1
 110 0008 0040A0E1 		mov	r4, r0
 111 000c 0150A0E1 		mov	r5, r1
 112 0010 00C0A0E1 		mov	ip, r0
 113 0014 0F00BEE8 		ldmia	lr!, {r0, r1, r2, r3}
 114 0018 0F00ACE8 		stmia	ip!, {r0, r1, r2, r3}
 115 001c 0400A0E1 		mov	r0, r4
 116 0020 00309EE5 		ldr	r3, [lr]
 117 0024 00308CE5 		str	r3, [ip]
 118 0028 0130A0E3 		mov	r3, #1
 119 002c 0C5084E5 		str	r5, [r4, #12]
 120 0030 1030C5E5 		strb	r3, [r5, #16]
 121 0034 3080BDE8 		pop	{r4, r5, pc}
 122              		.cantunwind
 123              		.fnend
 125              		.section	.text._ZN6tflite21SimpleMemoryAllocatorD2Ev,"ax",%progbits
 126              		.align	2
 127              		.global	_ZN6tflite21SimpleMemoryAllocatorD2Ev
 128              		.syntax unified
 129              		.arm
 130              		.fpu neon
 132              	_ZN6tflite21SimpleMemoryAllocatorD2Ev:
 133              		.fnstart
 134              	.LFB6099:
 135              		@ args = 0, pretend = 0, frame = 0
 136              		@ frame_needed = 0, uses_anonymous_args = 0
 137              		@ link register save eliminated.
 138 0000 0C3090E5 		ldr	r3, [r0, #12]
 139 0004 000053E3 		cmp	r3, #0
 140 0008 0020A013 		movne	r2, #0
 141 000c 1020C315 		strbne	r2, [r3, #16]
 142 0010 1EFF2FE1 		bx	lr
 143              		.cantunwind
 144              		.fnend
 146              		.global	_ZN6tflite21SimpleMemoryAllocatorD1Ev
 147              		.set	_ZN6tflite21SimpleMemoryAllocatorD1Ev,_ZN6tflite21SimpleMemoryAllocatorD2Ev
 148              		.section	.text._ZN6tflite34CreateInPlaceSimpleMemoryAllocatorEPhj,"ax",%progbits
 149              		.align	2
 150              		.global	_ZN6tflite34CreateInPlaceSimpleMemoryAllocatorEPhj
 151              		.syntax unified
 152              		.arm
 153              		.fpu neon
 155              	_ZN6tflite34CreateInPlaceSimpleMemoryAllocatorEPhj:
 156              		.fnstart
 157              	.LFB6095:
 158              		@ args = 0, pretend = 0, frame = 24
 159              		@ frame_needed = 0, uses_anonymous_args = 0
 160 0000 10402DE9 		push	{r4, lr}
 161              		.save {r4, lr}
 162 0004 0420A0E3 		mov	r2, #4
 163              		.pad #24
 164 0008 18D04DE2 		sub	sp, sp, #24
 165 000c 0030A0E3 		mov	r3, #0
 166 0010 08108DE5 		str	r1, [sp, #8]
 167 0014 1410A0E3 		mov	r1, #20
 168 0018 0C008DE5 		str	r0, [sp, #12]
 169 001c 02008DE0 		add	r0, sp, r2
 170 0020 04308DE5 		str	r3, [sp, #4]
 171 0024 10308DE5 		str	r3, [sp, #16]
 172 0028 1430CDE5 		strb	r3, [sp, #20]
 173              	.LEHB0:
 174 002c FEFFFFEB 		bl	_ZN6tflite21SimpleMemoryAllocator16AllocateFromTailEjj
 175              	.LEHE0:
 176 0030 020000EA 		b	.L21
 177              	.L17:
 178 0034 04008DE2 		add	r0, sp, #4
 179 0038 FEFFFFEB 		bl	_ZN6tflite21SimpleMemoryAllocatorD1Ev
 180              	.LEHB1:
 181 003c FEFFFFEB 		bl	__cxa_end_cleanup
 182              	.LEHE1:
 183              	.L21:
 184 0040 1120A0E3 		mov	r2, #17
 185 0044 04108DE2 		add	r1, sp, #4
 186 0048 0040A0E1 		mov	r4, r0
 187 004c FEFFFFEB 		bl	memcpy
 188 0050 04008DE2 		add	r0, sp, #4
 189 0054 FEFFFFEB 		bl	_ZN6tflite21SimpleMemoryAllocatorD1Ev
 190 0058 0400A0E1 		mov	r0, r4
 191 005c 18D08DE2 		add	sp, sp, #24
 192              		@ sp needed
 193 0060 1080BDE8 		pop	{r4, pc}
 194              		.global	__gxx_personality_v0
 195              		.personality	__gxx_personality_v0
 196              		.handlerdata
 197              	.LLSDA6095:
 198 0008 FF       		.byte	0xff
 199 0009 FF       		.byte	0xff
 200 000a 01       		.byte	0x1
 201 000b 08       		.uleb128 .LLSDACSE6095-.LLSDACSB6095
 202              	.LLSDACSB6095:
 203 000c 2C       		.uleb128 .LEHB0-.LFB6095
 204 000d 04       		.uleb128 .LEHE0-.LEHB0
 205 000e 34       		.uleb128 .L17-.LFB6095
 206 000f 00       		.uleb128 0
 207 0010 3C       		.uleb128 .LEHB1-.LFB6095
 208 0011 04       		.uleb128 .LEHE1-.LEHB1
 209 0012 00       		.uleb128 0
 210 0013 00       		.uleb128 0
 211              	.LLSDACSE6095:
 212              		.section	.text._ZN6tflite34CreateInPlaceSimpleMemoryAllocatorEPhj
 213              		.fnend
 215              		.weak	_ZN11flatbuffers25flatbuffer_version_stringE
 216              		.section	.data._ZN11flatbuffers25flatbuffer_version_stringE,"aw",%progbits
 217              		.align	2
 220              	_ZN11flatbuffers25flatbuffer_version_stringE:
 221 0000 00000000 		.word	.LC4
 222              		.section	.rodata._ZN6tflite21SimpleMemoryAllocator16AllocateFromTailEjj.str1.1,"aMS",%progbits,1
 223              	.LC0:
 224 0000 0D53696D 		.ascii	"\015SimpleMemoryAllocator::AllocateFromTail() :  \000"
 224      706C654D 
 224      656D6F72 
 224      79416C6C 
 224      6F636174 
 225              	.LC1:
 226 002f 28646174 		.ascii	"(data_size_ + aligned_size) > data_size_max_ \000"
 226      615F7369 
 226      7A655F20 
 226      2B20616C 
 226      69676E65 
 227              	.LC2:
 228 005d 28256420 		.ascii	"(%d + %d) > %d\015\012\000"
 228      2B202564 
 228      29203E20 
 228      25640D0A 
 228      00
 229              	.LC3:
 230 006e 20202020 		.ascii	"        data_size_: %7d   aligned_size: %4d   ->  n"
 230      20202020 
 230      64617461 
 230      5F73697A 
 230      655F3A20 
 231 00a1 65772064 		.ascii	"ew data size:%7d   (data_size_max_:%7d)\015\012\000"
 231      61746120 
 231      73697A65 
 231      3A253764 
 231      20202028 
 232              		.section	.rodata.str1.1,"aMS",%progbits,1
 233              	.LC4:
 234 0000 466C6174 		.ascii	"FlatBuffers 1.11.0\000"
 234      42756666 
 234      65727320 
 234      312E3131 
 234      2E3000
 235              		.ident	"GCC: (GNU Tools for ARM Embedded Processors 6-2017-q2-update) 6.3.1 20170620 (release) [AR