   1              		.cpu cortex-a9
   2              		.eabi_attribute 28, 1
   3              		.eabi_attribute 20, 1
   4              		.eabi_attribute 21, 1
   5              		.eabi_attribute 23, 3
   6              		.eabi_attribute 24, 1
   7              		.eabi_attribute 25, 1
   8              		.eabi_attribute 26, 1
   9              		.eabi_attribute 30, 4
  10              		.eabi_attribute 34, 0
  11              		.eabi_attribute 18, 4
  12              		.file	"test_helpers.cpp"
  13              		.section	.text._ZN6tflite7testing12_GLOBAL__N_114StackAllocator8allocateEj,"ax",%progbits
  14              		.align	2
  15              		.syntax unified
  16              		.arm
  17              		.fpu neon
  19              	_ZN6tflite7testing12_GLOBAL__N_114StackAllocator8allocateEj:
  20              		.fnstart
  21              	.LFB6079:
  22              		@ args = 0, pretend = 0, frame = 0
  23              		@ frame_needed = 0, uses_anonymous_args = 0
  24              		@ link register save eliminated.
  25 0000 013A80E2 		add	r3, r0, #4096
  26 0004 082093E5 		ldr	r2, [r3, #8]
  27 0008 022081E0 		add	r2, r1, r2
  28 000c 010A52E3 		cmp	r2, #4096
  29 0010 04009395 		ldrls	r0, [r3, #4]
  30 0014 0000A083 		movhi	r0, #0
  31 0018 01108090 		addls	r1, r0, r1
  32 001c 06008399 		stmibls	r3, {r1, r2}
  33 0020 1EFF2FE1 		bx	lr
  34              		.cantunwind
  35              		.fnend
  37              		.section	.text._ZN6tflite7testing12_GLOBAL__N_114StackAllocator10deallocateEPhj,"ax",%progbits
  38              		.align	2
  39              		.syntax unified
  40              		.arm
  41              		.fpu neon
  43              	_ZN6tflite7testing12_GLOBAL__N_114StackAllocator10deallocateEPhj:
  44              		.fnstart
  45              	.LFB6080:
  46              		@ args = 0, pretend = 0, frame = 0
  47              		@ frame_needed = 0, uses_anonymous_args = 0
  48              		@ link register save eliminated.
  49 0000 1EFF2FE1 		bx	lr
  50              		.cantunwind
  51              		.fnend
  53              		.section	.text._ZN6tflite7testing12_GLOBAL__N_114StackAllocatorD2Ev,"ax",%progbits
  54              		.align	2
  55              		.syntax unified
  56              		.arm
  57              		.fpu neon
  59              	_ZN6tflite7testing12_GLOBAL__N_114StackAllocatorD2Ev:
  60              		.fnstart
  61              	.LFB9827:
  62              		@ args = 0, pretend = 0, frame = 0
  63              		@ frame_needed = 0, uses_anonymous_args = 0
  64              		@ link register save eliminated.
  65 0000 1EFF2FE1 		bx	lr
  66              		.cantunwind
  67              		.fnend
  69              		.set	_ZN6tflite7testing12_GLOBAL__N_114StackAllocatorD1Ev,_ZN6tflite7testing12_GLOBAL__N_114StackA
  70              		.section	.text._ZN11flatbuffers16DefaultAllocatorD2Ev,"axG",%progbits,_ZN11flatbuffers16DefaultAll
  71              		.align	2
  72              		.weak	_ZN11flatbuffers16DefaultAllocatorD2Ev
  73              		.syntax unified
  74              		.arm
  75              		.fpu neon
  77              	_ZN11flatbuffers16DefaultAllocatorD2Ev:
  78              		.fnstart
  79              	.LFB9831:
  80              		@ args = 0, pretend = 0, frame = 0
  81              		@ frame_needed = 0, uses_anonymous_args = 0
  82              		@ link register save eliminated.
  83 0000 1EFF2FE1 		bx	lr
  84              		.cantunwind
  85              		.fnend
  87              		.weak	_ZN11flatbuffers16DefaultAllocatorD1Ev
  88              		.set	_ZN11flatbuffers16DefaultAllocatorD1Ev,_ZN11flatbuffers16DefaultAllocatorD2Ev
  89              		.section	.text._ZN6tflite7testing12_GLOBAL__N_115BuilderInstanceEv,"ax",%progbits
  90              		.align	2
  91              		.syntax unified
  92              		.arm
  93              		.fpu neon
  95              	_ZN6tflite7testing12_GLOBAL__N_115BuilderInstanceEv:
  96              		.fnstart
  97              	.LFB6082:
  98              		@ args = 0, pretend = 0, frame = 0
  99              		@ frame_needed = 0, uses_anonymous_args = 0
 100 0000 A0019FE5 		ldr	r0, .L21
 101 0004 F0412DE9 		push	{r4, r5, r6, r7, r8, lr}
 102 0008 9C519FE5 		ldr	r5, .L21+4
 103 000c 0030D0E5 		ldrb	r3, [r0]	@ zero_extendqisi2
 104 0010 5BF07FF5 		dmb	ish
 105 0014 010013E3 		tst	r3, #1
 106 0018 6000001A 		bne	.L9
 107 001c FEFFFFEB 		bl	__cxa_guard_acquire
 108 0020 000050E3 		cmp	r0, #0
 109 0024 5D00000A 		beq	.L9
 110 0028 80719FE5 		ldr	r7, .L21+8
 111 002c 80619FE5 		ldr	r6, .L21+12
 112 0030 0040D7E5 		ldrb	r4, [r7]	@ zero_extendqisi2
 113 0034 5BF07FF5 		dmb	ish
 114 0038 014014E2 		ands	r4, r4, #1
 115 003c 1C00001A 		bne	.L12
 116 0040 0700A0E1 		mov	r0, r7
 117 0044 FEFFFFEB 		bl	__cxa_guard_acquire
 118 0048 000050E3 		cmp	r0, #0
 119 004c 1800000A 		beq	.L12
 120 0050 60319FE5 		ldr	r3, .L21+16
 121 0054 60219FE5 		ldr	r2, .L21+20
 122 0058 5314E7E7 		ubfx	r1, r3, #8, #8
 123 005c 0030C2E5 		strb	r3, [r2]
 124 0060 0110C2E5 		strb	r1, [r2, #1]
 125 0064 5318E7E7 		ubfx	r1, r3, #16, #8
 126 0068 233CA0E1 		lsr	r3, r3, #24
 127 006c 0210C2E5 		strb	r1, [r2, #2]
 128 0070 041082E2 		add	r1, r2, #4
 129 0074 002086E5 		str	r2, [r6]
 130 0078 5104E7E7 		ubfx	r0, r1, #8, #8
 131 007c 0330C2E5 		strb	r3, [r2, #3]
 132 0080 013A82E2 		add	r3, r2, #4096
 133 0084 0410C3E5 		strb	r1, [r3, #4]
 134 0088 0500C3E5 		strb	r0, [r3, #5]
 135 008c 5108E7E7 		ubfx	r0, r1, #16, #8
 136 0090 211CA0E1 		lsr	r1, r1, #24
 137 0094 0600C3E5 		strb	r0, [r3, #6]
 138 0098 0840C3E5 		strb	r4, [r3, #8]
 139 009c 0700A0E1 		mov	r0, r7
 140 00a0 0710C3E5 		strb	r1, [r3, #7]
 141 00a4 0940C3E5 		strb	r4, [r3, #9]
 142 00a8 0A40C3E5 		strb	r4, [r3, #10]
 143 00ac 0B40C3E5 		strb	r4, [r3, #11]
 144 00b0 FEFFFFEB 		bl	__cxa_guard_release
 145              	.L12:
 146 00b4 001096E5 		ldr	r1, [r6]
 147 00b8 0020A0E3 		mov	r2, #0
 148 00bc FC309FE5 		ldr	r3, .L21+24
 149 00c0 5104E7E7 		ubfx	r0, r1, #8, #8
 150 00c4 0010C3E5 		strb	r1, [r3]
 151 00c8 0100C3E5 		strb	r0, [r3, #1]
 152 00cc 5108E7E7 		ubfx	r0, r1, #16, #8
 153 00d0 211CA0E1 		lsr	r1, r1, #24
 154 00d4 0200C3E5 		strb	r0, [r3, #2]
 155 00d8 0420C3E5 		strb	r2, [r3, #4]
 156 00dc 0310C3E5 		strb	r1, [r3, #3]
 157 00e0 1010A0E3 		mov	r1, #16
 158 00e4 0910C3E5 		strb	r1, [r3, #9]
 159 00e8 0810A0E3 		mov	r1, #8
 160 00ec 0C10C3E5 		strb	r1, [r3, #12]
 161 00f0 0110A0E3 		mov	r1, #1
 162 00f4 0820C3E5 		strb	r2, [r3, #8]
 163 00f8 0A20C3E5 		strb	r2, [r3, #10]
 164 00fc 0B20C3E5 		strb	r2, [r3, #11]
 165 0100 0D20C3E5 		strb	r2, [r3, #13]
 166 0104 0E20C3E5 		strb	r2, [r3, #14]
 167 0108 0F20C3E5 		strb	r2, [r3, #15]
 168 010c 1020C3E5 		strb	r2, [r3, #16]
 169 0110 1120C3E5 		strb	r2, [r3, #17]
 170 0114 1220C3E5 		strb	r2, [r3, #18]
 171 0118 1320C3E5 		strb	r2, [r3, #19]
 172 011c 1420C3E5 		strb	r2, [r3, #20]
 173 0120 1520C3E5 		strb	r2, [r3, #21]
 174 0124 1620C3E5 		strb	r2, [r3, #22]
 175 0128 1720C3E5 		strb	r2, [r3, #23]
 176 012c 1820C3E5 		strb	r2, [r3, #24]
 177 0130 1920C3E5 		strb	r2, [r3, #25]
 178 0134 1A20C3E5 		strb	r2, [r3, #26]
 179 0138 1B20C3E5 		strb	r2, [r3, #27]
 180 013c 1C20C3E5 		strb	r2, [r3, #28]
 181 0140 1D20C3E5 		strb	r2, [r3, #29]
 182 0144 1E20C3E5 		strb	r2, [r3, #30]
 183 0148 1F20C3E5 		strb	r2, [r3, #31]
 184 014c 2020C3E5 		strb	r2, [r3, #32]
 185 0150 2120C3E5 		strb	r2, [r3, #33]
 186 0154 4C009FE5 		ldr	r0, .L21
 187 0158 2220C3E5 		strb	r2, [r3, #34]
 188 015c 2320C3E5 		strb	r2, [r3, #35]
 189 0160 2420C3E5 		strb	r2, [r3, #36]
 190 0164 2520C3E5 		strb	r2, [r3, #37]
 191 0168 2620C3E5 		strb	r2, [r3, #38]
 192 016c 2720C3E5 		strb	r2, [r3, #39]
 193 0170 2810C3E5 		strb	r1, [r3, #40]
 194 0174 2920C3E5 		strb	r2, [r3, #41]
 195 0178 2A20C3E5 		strb	r2, [r3, #42]
 196 017c 2B20C3E5 		strb	r2, [r3, #43]
 197 0180 2C20C3E5 		strb	r2, [r3, #44]
 198 0184 2D10C3E5 		strb	r1, [r3, #45]
 199 0188 3020C3E5 		strb	r2, [r3, #48]
 200 018c 3120C3E5 		strb	r2, [r3, #49]
 201 0190 3220C3E5 		strb	r2, [r3, #50]
 202 0194 3320C3E5 		strb	r2, [r3, #51]
 203 0198 003085E5 		str	r3, [r5]
 204 019c FEFFFFEB 		bl	__cxa_guard_release
 205              	.L9:
 206 01a0 000095E5 		ldr	r0, [r5]
 207 01a4 F081BDE8 		pop	{r4, r5, r6, r7, r8, pc}
 208              	.L22:
 209              		.align	2
 210              	.L21:
 211 01a8 00000000 		.word	.LANCHOR0
 212 01ac 00000000 		.word	.LANCHOR6
 213 01b0 00000000 		.word	.LANCHOR1
 214 01b4 00000000 		.word	.LANCHOR4
 215 01b8 08000000 		.word	.LANCHOR3+8
 216 01bc 00000000 		.word	.LANCHOR2
 217 01c0 00000000 		.word	.LANCHOR5
 218              		.cantunwind
 219              		.fnend
 221              		.section	.text._ZN11flatbuffers16DefaultAllocator8allocateEj,"axG",%progbits,_ZN11flatbuffers16Def
 222              		.align	2
 223              		.weak	_ZN11flatbuffers16DefaultAllocator8allocateEj
 224              		.syntax unified
 225              		.arm
 226              		.fpu neon
 228              	_ZN11flatbuffers16DefaultAllocator8allocateEj:
 229              		.fnstart
 230              	.LFB3478:
 231              		@ args = 0, pretend = 0, frame = 0
 232              		@ frame_needed = 0, uses_anonymous_args = 0
 233              		@ link register save eliminated.
 234 0000 0100A0E1 		mov	r0, r1
 235 0004 FEFFFFEA 		b	_Znaj
 236              		.cantunwind
 237              		.fnend
 239              		.section	.text._ZN11flatbuffers16DefaultAllocator10deallocateEPhj,"axG",%progbits,_ZN11flatbuffers
 240              		.align	2
 241              		.weak	_ZN11flatbuffers16DefaultAllocator10deallocateEPhj
 242              		.syntax unified
 243              		.arm
 244              		.fpu neon
 246              	_ZN11flatbuffers16DefaultAllocator10deallocateEPhj:
 247              		.fnstart
 248              	.LFB3479:
 249              		@ args = 0, pretend = 0, frame = 0
 250              		@ frame_needed = 0, uses_anonymous_args = 0
 251              		@ link register save eliminated.
 252 0000 000051E2 		subs	r0, r1, #0
 253 0004 1EFF2F01 		bxeq	lr
 254 0008 FEFFFFEA 		b	_ZdaPv
 255              		.cantunwind
 256              		.fnend
 258              		.section	.text._ZN6tflite7testing12_GLOBAL__N_114StackAllocatorD0Ev,"ax",%progbits
 259              		.align	2
 260              		.syntax unified
 261              		.arm
 262              		.fpu neon
 264              	_ZN6tflite7testing12_GLOBAL__N_114StackAllocatorD0Ev:
 265              		.fnstart
 266              	.LFB9829:
 267              		@ args = 0, pretend = 0, frame = 0
 268              		@ frame_needed = 0, uses_anonymous_args = 0
 269 0000 10402DE9 		push	{r4, lr}
 270 0004 0C1001E3 		movw	r1, #4108
 271 0008 0040A0E1 		mov	r4, r0
 272 000c FEFFFFEB 		bl	_ZdlPvj
 273 0010 0400A0E1 		mov	r0, r4
 274 0014 1080BDE8 		pop	{r4, pc}
 275              		.cantunwind
 276              		.fnend
 278              		.section	.text._ZN11flatbuffers16DefaultAllocatorD0Ev,"axG",%progbits,_ZN11flatbuffers16DefaultAll
 279              		.align	2
 280              		.weak	_ZN11flatbuffers16DefaultAllocatorD0Ev
 281              		.syntax unified
 282              		.arm
 283              		.fpu neon
 285              	_ZN11flatbuffers16DefaultAllocatorD0Ev:
 286              		.fnstart
 287              	.LFB9833:
 288              		@ args = 0, pretend = 0, frame = 0
 289              		@ frame_needed = 0, uses_anonymous_args = 0
 290 0000 10402DE9 		push	{r4, lr}
 291 0004 0410A0E3 		mov	r1, #4
 292 0008 0040A0E1 		mov	r4, r0
 293 000c FEFFFFEB 		bl	_ZdlPvj
 294 0010 0400A0E1 		mov	r0, r4
 295 0014 1080BDE8 		pop	{r4, pc}
 296              		.cantunwind
 297              		.fnend
 299              		.section	.text._ZN11flatbuffers9Allocator19reallocate_downwardEPhjjjj,"axG",%progbits,_ZN11flatbuf
 300              		.align	2
 301              		.weak	_ZN11flatbuffers9Allocator19reallocate_downwardEPhjjjj
 302              		.syntax unified
 303              		.arm
 304              		.fpu neon
 306              	_ZN11flatbuffers9Allocator19reallocate_downwardEPhjjjj:
 307              		.fnstart
 308              	.LFB3476:
 309              		@ args = 8, pretend = 0, frame = 0
 310              		@ frame_needed = 0, uses_anonymous_args = 0
 311 0000 020053E1 		cmp	r3, r2
 312 0004 F0472DE9 		push	{r4, r5, r6, r7, r8, r9, r10, lr}
 313              		.save {r4, r5, r6, r7, r8, r9, r10, lr}
 314 0008 20909DE5 		ldr	r9, [sp, #32]
 315 000c 0400008A 		bhi	.L31
 316 0010 78309FE5 		ldr	r3, .L33
 317 0014 C51100E3 		movw	r1, #453
 318 0018 74209FE5 		ldr	r2, .L33+4
 319 001c 74009FE5 		ldr	r0, .L33+8
 320 0020 FEFFFFEB 		bl	__assert_func
 321              	.L31:
 322 0024 0340A0E1 		mov	r4, r3
 323 0028 003090E5 		ldr	r3, [r0]
 324 002c 0170A0E1 		mov	r7, r1
 325 0030 0280A0E1 		mov	r8, r2
 326 0034 0410A0E1 		mov	r1, r4
 327 0038 0060A0E1 		mov	r6, r0
 328 003c 083093E5 		ldr	r3, [r3, #8]
 329 0040 33FF2FE1 		blx	r3
 330 0044 091048E0 		sub	r1, r8, r9
 331 0048 0050A0E1 		mov	r5, r0
 332 004c 090044E0 		sub	r0, r4, r9
 333 0050 0920A0E1 		mov	r2, r9
 334 0054 011087E0 		add	r1, r7, r1
 335 0058 000085E0 		add	r0, r5, r0
 336 005c FEFFFFEB 		bl	memcpy
 337 0060 24209DE5 		ldr	r2, [sp, #36]
 338 0064 0710A0E1 		mov	r1, r7
 339 0068 0500A0E1 		mov	r0, r5
 340 006c FEFFFFEB 		bl	memcpy
 341 0070 003096E5 		ldr	r3, [r6]
 342 0074 0600A0E1 		mov	r0, r6
 343 0078 0820A0E1 		mov	r2, r8
 344 007c 0710A0E1 		mov	r1, r7
 345 0080 0C3093E5 		ldr	r3, [r3, #12]
 346 0084 33FF2FE1 		blx	r3
 347 0088 0500A0E1 		mov	r0, r5
 348 008c F087BDE8 		pop	{r4, r5, r6, r7, r8, r9, r10, pc}
 349              	.L34:
 350              		.align	2
 351              	.L33:
 352 0090 00000000 		.word	.LC8
 353 0094 00000000 		.word	.LANCHOR7
 354 0098 14000000 		.word	.LC9
 355              		.fnend
 357              		.section	.text.unlikely._ZNK11flatbuffers15vector_downward4dataEv.isra.5.part.6,"ax",%progbits
 358              		.align	2
 359              		.syntax unified
 360              		.arm
 361              		.fpu neon
 363              	_ZNK11flatbuffers15vector_downward4dataEv.isra.5.part.6:
 364              		.fnstart
 365              	.LFB9848:
 366              		@ args = 0, pretend = 0, frame = 0
 367              		@ frame_needed = 0, uses_anonymous_args = 0
 368 0000 10402DE9 		push	{r4, lr}
 369              		.save {r4, lr}
 370 0004 131300E3 		movw	r1, #787
 371 0008 08309FE5 		ldr	r3, .L37
 372 000c 08209FE5 		ldr	r2, .L37+4
 373 0010 08009FE5 		ldr	r0, .L37+8
 374 0014 FEFFFFEB 		bl	__assert_func
 375              	.L38:
 376              		.align	2
 377              	.L37:
 378 0018 00000000 		.word	.LC10
 379 001c 00000000 		.word	.LANCHOR8
 380 0020 14000000 		.word	.LC9
 381              		.fnend
 383              		.section	.text._ZNK11flatbuffers15vector_downward11scratch_endEv.isra.8.part.9,"ax",%progbits
 384              		.align	2
 385              		.syntax unified
 386              		.arm
 387              		.fpu neon
 389              	_ZNK11flatbuffers15vector_downward11scratch_endEv.isra.8.part.9:
 390              		.fnstart
 391              	.LFB9851:
 392              		@ args = 0, pretend = 0, frame = 0
 393              		@ frame_needed = 0, uses_anonymous_args = 0
 394 0000 10402DE9 		push	{r4, lr}
 395              		.save {r4, lr}
 396 0004 1D1300E3 		movw	r1, #797
 397 0008 08309FE5 		ldr	r3, .L41
 398 000c 08209FE5 		ldr	r2, .L41+4
 399 0010 08009FE5 		ldr	r0, .L41+8
 400 0014 FEFFFFEB 		bl	__assert_func
 401              	.L42:
 402              		.align	2
 403              	.L41:
 404 0018 00000000 		.word	.LC11
 405 001c 00000000 		.word	.LANCHOR9
 406 0020 14000000 		.word	.LC9
 407              		.fnend
 409              		.section	.text._ZNK11flatbuffers15vector_downward4sizeEv,"axG",%progbits,_ZNK11flatbuffers15vector
 410              		.align	2
 411              		.weak	_ZNK11flatbuffers15vector_downward4sizeEv
 412              		.syntax unified
 413              		.arm
 414              		.fpu neon
 416              	_ZNK11flatbuffers15vector_downward4sizeEv:
 417              		.fnstart
 418              	.LFB3529:
 419              		@ args = 0, pretend = 0, frame = 0
 420              		@ frame_needed = 0, uses_anonymous_args = 0
 421              		@ link register save eliminated.
 422 0000 183090E5 		ldr	r3, [r0, #24]
 423 0004 142090E5 		ldr	r2, [r0, #20]
 424 0008 100090E5 		ldr	r0, [r0, #16]
 425 000c 023043E0 		sub	r3, r3, r2
 426 0010 030040E0 		sub	r0, r0, r3
 427 0014 1EFF2FE1 		bx	lr
 428              		.cantunwind
 429              		.fnend
 431              		.section	.text._ZN11flatbuffers15vector_downward10reallocateEj,"axG",%progbits,_ZN11flatbuffers15v
 432              		.align	2
 433              		.weak	_ZN11flatbuffers15vector_downward10reallocateEj
 434              		.syntax unified
 435              		.arm
 436              		.fpu neon
 438              	_ZN11flatbuffers15vector_downward10reallocateEj:
 439              		.fnstart
 440              	.LFB3545:
 441              		@ args = 0, pretend = 0, frame = 8
 442              		@ frame_needed = 0, uses_anonymous_args = 0
 443 0000 FF412DE9 		push	{r0, r1, r2, r3, r4, r5, r6, r7, r8, lr}
 444              		.save {r4, r5, r6, r7, r8, lr}
 445              		.pad #16
 446 0004 0040A0E1 		mov	r4, r0
 447 0008 107090E5 		ldr	r7, [r0, #16]
 448 000c 0180A0E1 		mov	r8, r1
 449 0010 FEFFFFEB 		bl	_ZNK11flatbuffers15vector_downward4sizeEv
 450 0014 0C2094E5 		ldr	r2, [r4, #12]
 451 0018 000057E3 		cmp	r7, #0
 452 001c 0060A0E1 		mov	r6, r0
 453 0020 141094E5 		ldr	r1, [r4, #20]
 454 0024 08009405 		ldreq	r0, [r4, #8]
 455 0028 A700A011 		lsrne	r0, r7, #1
 456 002c 023087E0 		add	r3, r7, r2
 457 0030 1C5094E5 		ldr	r5, [r4, #28]
 458 0034 013043E2 		sub	r3, r3, #1
 459 0038 002062E2 		rsb	r2, r2, #0
 460 003c 080050E1 		cmp	r0, r8
 461 0040 00308320 		addcs	r3, r3, r0
 462 0044 08308330 		addcc	r3, r3, r8
 463 0048 000051E3 		cmp	r1, #0
 464 004c 023003E0 		and	r3, r3, r2
 465 0050 015045E0 		sub	r5, r5, r1
 466 0054 103084E5 		str	r3, [r4, #16]
 467 0058 000094E5 		ldr	r0, [r4]
 468 005c 1900000A 		beq	.L47
 469 0060 000050E3 		cmp	r0, #0
 470 0064 0F00000A 		beq	.L48
 471 0068 002090E5 		ldr	r2, [r0]
 472 006c 04508DE5 		str	r5, [sp, #4]
 473 0070 00608DE5 		str	r6, [sp]
 474 0074 108092E5 		ldr	r8, [r2, #16]
 475 0078 0720A0E1 		mov	r2, r7
 476 007c 38FF2FE1 		blx	r8
 477              	.L52:
 478 0080 140084E5 		str	r0, [r4, #20]
 479 0084 100094E5 		ldr	r0, [r4, #16]
 480 0088 143094E5 		ldr	r3, [r4, #20]
 481 008c 060040E0 		sub	r0, r0, r6
 482 0090 000083E0 		add	r0, r3, r0
 483 0094 055083E0 		add	r5, r3, r5
 484 0098 180084E5 		str	r0, [r4, #24]
 485 009c 1C5084E5 		str	r5, [r4, #28]
 486 00a0 10D08DE2 		add	sp, sp, #16
 487              		@ sp needed
 488 00a4 F081BDE8 		pop	{r4, r5, r6, r7, r8, pc}
 489              	.L48:
 490 00a8 40209FE5 		ldr	r2, .L54
 491 00ac 10008DE2 		add	r0, sp, #16
 492 00b0 042020E5 		str	r2, [r0, #-4]!
 493 00b4 0720A0E1 		mov	r2, r7
 494 00b8 04508DE5 		str	r5, [sp, #4]
 495 00bc 00608DE5 		str	r6, [sp]
 496 00c0 FEFFFFEB 		bl	_ZN11flatbuffers9Allocator19reallocate_downwardEPhjjjj
 497 00c4 EDFFFFEA 		b	.L52
 498              	.L47:
 499 00c8 000050E3 		cmp	r0, #0
 500 00cc 0400000A 		beq	.L51
 501 00d0 002090E5 		ldr	r2, [r0]
 502 00d4 0310A0E1 		mov	r1, r3
 503 00d8 082092E5 		ldr	r2, [r2, #8]
 504 00dc 32FF2FE1 		blx	r2
 505 00e0 E6FFFFEA 		b	.L52
 506              	.L51:
 507 00e4 0300A0E1 		mov	r0, r3
 508 00e8 FEFFFFEB 		bl	_Znaj
 509 00ec E3FFFFEA 		b	.L52
 510              	.L55:
 511              		.align	2
 512              	.L54:
 513 00f0 08000000 		.word	_ZTVN11flatbuffers16DefaultAllocatorE+8
 514              		.fnend
 516              		.section	.text._ZN11flatbuffers15vector_downward12ensure_spaceEj,"axG",%progbits,_ZN11flatbuffers1
 517              		.align	2
 518              		.weak	_ZN11flatbuffers15vector_downward12ensure_spaceEj
 519              		.syntax unified
 520              		.arm
 521              		.fpu neon
 523              	_ZN11flatbuffers15vector_downward12ensure_spaceEj:
 524              		.fnstart
 525              	.LFB3526:
 526              		@ args = 0, pretend = 0, frame = 0
 527              		@ frame_needed = 0, uses_anonymous_args = 0
 528 0000 183090E5 		ldr	r3, [r0, #24]
 529 0004 1C2090E5 		ldr	r2, [r0, #28]
 530 0008 70402DE9 		push	{r4, r5, r6, lr}
 531              		.save {r4, r5, r6, lr}
 532 000c 020053E1 		cmp	r3, r2
 533 0010 0300003A 		bcc	.L57
 534 0014 14C090E5 		ldr	ip, [r0, #20]
 535 0018 0040A0E1 		mov	r4, r0
 536 001c 0C0052E1 		cmp	r2, ip
 537 0020 0400002A 		bcs	.L58
 538              	.L57:
 539 0024 44309FE5 		ldr	r3, .L63
 540 0028 F71200E3 		movw	r1, #759
 541 002c 40209FE5 		ldr	r2, .L63+4
 542              	.L62:
 543 0030 40009FE5 		ldr	r0, .L63+8
 544 0034 FEFFFFEB 		bl	__assert_func
 545              	.L58:
 546 0038 023043E0 		sub	r3, r3, r2
 547 003c 0150A0E1 		mov	r5, r1
 548 0040 010053E1 		cmp	r3, r1
 549 0044 0000002A 		bcs	.L59
 550 0048 FEFFFFEB 		bl	_ZN11flatbuffers15vector_downward10reallocateEj
 551              	.L59:
 552 004c 0400A0E1 		mov	r0, r4
 553 0050 FEFFFFEB 		bl	_ZNK11flatbuffers15vector_downward4sizeEv
 554 0054 0A0170E3 		cmn	r0, #-2147483646
 555 0058 1C309F85 		ldrhi	r3, .L63+12
 556 005c FB120083 		movwhi	r1, #763
 557 0060 0C209F85 		ldrhi	r2, .L63+4
 558 0064 F1FFFF8A 		bhi	.L62
 559              	.L60:
 560 0068 0500A0E1 		mov	r0, r5
 561 006c 7080BDE8 		pop	{r4, r5, r6, pc}
 562              	.L64:
 563              		.align	2
 564              	.L63:
 565 0070 00000000 		.word	.LC12
 566 0074 00000000 		.word	.LANCHOR10
 567 0078 14000000 		.word	.LC9
 568 007c 25000000 		.word	.LC13
 569              		.fnend
 571              		.section	.text._ZN11flatbuffers15vector_downward10make_spaceEj,"axG",%progbits,_ZN11flatbuffers15v
 572              		.align	2
 573              		.weak	_ZN11flatbuffers15vector_downward10make_spaceEj
 574              		.syntax unified
 575              		.arm
 576              		.fpu neon
 578              	_ZN11flatbuffers15vector_downward10make_spaceEj:
 579              		.fnstart
 580              	.LFB3527:
 581              		@ args = 0, pretend = 0, frame = 0
 582              		@ frame_needed = 0, uses_anonymous_args = 0
 583 0000 10402DE9 		push	{r4, lr}
 584              		.save {r4, lr}
 585 0004 0040A0E1 		mov	r4, r0
 586 0008 FEFFFFEB 		bl	_ZN11flatbuffers15vector_downward12ensure_spaceEj
 587 000c 183094E5 		ldr	r3, [r4, #24]
 588 0010 000043E0 		sub	r0, r3, r0
 589 0014 180084E5 		str	r0, [r4, #24]
 590 0018 1080BDE8 		pop	{r4, pc}
 591              		.fnend
 593              		.section	.text._ZN11flatbuffers15vector_downward4fillEj,"axG",%progbits,_ZN11flatbuffers15vector_d
 594              		.align	2
 595              		.weak	_ZN11flatbuffers15vector_downward4fillEj
 596              		.syntax unified
 597              		.arm
 598              		.fpu neon
 600              	_ZN11flatbuffers15vector_downward4fillEj:
 601              		.fnstart
 602              	.LFB3539:
 603              		@ args = 0, pretend = 0, frame = 0
 604              		@ frame_needed = 0, uses_anonymous_args = 0
 605 0000 70402DE9 		push	{r4, r5, r6, lr}
 606              		.save {r4, r5, r6, lr}
 607 0004 0150A0E1 		mov	r5, r1
 608 0008 0040A0E1 		mov	r4, r0
 609 000c FEFFFFEB 		bl	_ZN11flatbuffers15vector_downward10make_spaceEj
 610 0010 0030A0E3 		mov	r3, #0
 611 0014 0310A0E1 		mov	r1, r3
 612              	.L69:
 613 0018 050053E1 		cmp	r3, r5
 614 001c 7080BD08 		popeq	{r4, r5, r6, pc}
 615 0020 182094E5 		ldr	r2, [r4, #24]
 616 0024 0310C2E7 		strb	r1, [r2, r3]
 617 0028 013083E2 		add	r3, r3, #1
 618 002c F9FFFFEA 		b	.L69
 619              		.fnend
 621              		.section	.text._ZN11flatbuffers15vector_downward4pushEPKhj,"axG",%progbits,_ZN11flatbuffers15vecto
 622              		.align	2
 623              		.weak	_ZN11flatbuffers15vector_downward4pushEPKhj
 624              		.syntax unified
 625              		.arm
 626              		.fpu neon
 628              	_ZN11flatbuffers15vector_downward4pushEPKhj:
 629              		.fnstart
 630              	.LFB3536:
 631              		@ args = 0, pretend = 0, frame = 0
 632              		@ frame_needed = 0, uses_anonymous_args = 0
 633 0000 70402DE9 		push	{r4, r5, r6, lr}
 634              		.save {r4, r5, r6, lr}
 635 0004 0150A0E1 		mov	r5, r1
 636 0008 0240A0E1 		mov	r4, r2
 637 000c 0210A0E1 		mov	r1, r2
 638 0010 FEFFFFEB 		bl	_ZN11flatbuffers15vector_downward10make_spaceEj
 639 0014 0420A0E1 		mov	r2, r4
 640 0018 0510A0E1 		mov	r1, r5
 641 001c 7040BDE8 		pop	{r4, r5, r6, lr}
 642 0020 FEFFFFEA 		b	memcpy
 643              		.fnend
 645              		.section	.text._ZNK11flatbuffers17FlatBufferBuilder16GetBufferPointerEv,"axG",%progbits,_ZNK11flat
 646              		.align	2
 647              		.weak	_ZNK11flatbuffers17FlatBufferBuilder16GetBufferPointerEv
 648              		.syntax unified
 649              		.arm
 650              		.fpu neon
 652              	_ZNK11flatbuffers17FlatBufferBuilder16GetBufferPointerEv:
 653              		.fnstart
 654              	.LFB3569:
 655              		@ args = 0, pretend = 0, frame = 0
 656              		@ frame_needed = 0, uses_anonymous_args = 0
 657 0000 2730D0E5 		ldrb	r3, [r0, #39]	@ zero_extendqisi2
 658 0004 10402DE9 		push	{r4, lr}
 659              		.save {r4, lr}
 660 0008 000053E3 		cmp	r3, #0
 661 000c 0400001A 		bne	.L75
 662 0010 1C309FE5 		ldr	r3, .L78
 663 0014 311400E3 		movw	r1, #1073
 664 0018 18209FE5 		ldr	r2, .L78+4
 665 001c 18009FE5 		ldr	r0, .L78+8
 666 0020 FEFFFFEB 		bl	__assert_func
 667              	.L75:
 668 0024 180090E5 		ldr	r0, [r0, #24]
 669 0028 000050E3 		cmp	r0, #0
 670 002c 1080BD18 		popne	{r4, pc}
 671 0030 FEFFFFEB 		bl	_ZNK11flatbuffers15vector_downward4dataEv.isra.5.part.6
 672              	.L79:
 673              		.align	2
 674              	.L78:
 675 0034 00000000 		.word	.LC14
 676 0038 00000000 		.word	.LANCHOR11
 677 003c 14000000 		.word	.LC9
 678              		.fnend
 680              		.section	.text._ZN11flatbuffers17FlatBufferBuilder5AlignEj,"axG",%progbits,_ZN11flatbuffers17FlatB
 681              		.align	2
 682              		.weak	_ZN11flatbuffers17FlatBufferBuilder5AlignEj
 683              		.syntax unified
 684              		.arm
 685              		.fpu neon
 687              	_ZN11flatbuffers17FlatBufferBuilder5AlignEj:
 688              		.fnstart
 689              	.LFB3580:
 690              		@ args = 0, pretend = 0, frame = 0
 691              		@ frame_needed = 0, uses_anonymous_args = 0
 692 0000 283090E5 		ldr	r3, [r0, #40]
 693 0004 70402DE9 		push	{r4, r5, r6, lr}
 694              		.save {r4, r5, r6, lr}
 695 0008 0140A0E1 		mov	r4, r1
 696 000c 0050A0E1 		mov	r5, r0
 697 0010 014044E2 		sub	r4, r4, #1
 698 0014 030051E1 		cmp	r1, r3
 699 0018 28108085 		strhi	r1, [r0, #40]
 700 001c FEFFFFEB 		bl	_ZNK11flatbuffers15vector_downward4sizeEv
 701 0020 001060E2 		rsb	r1, r0, #0
 702 0024 0500A0E1 		mov	r0, r5
 703 0028 041001E0 		and	r1, r1, r4
 704 002c FEFFFFEB 		bl	_ZN11flatbuffers15vector_downward4fillEj
 705 0030 7080BDE8 		pop	{r4, r5, r6, pc}
 706              		.fnend
 708              		.section	.text._ZN11flatbuffers17FlatBufferBuilder10TrackFieldEtm,"axG",%progbits,_ZN11flatbuffers
 709              		.align	2
 710              		.weak	_ZN11flatbuffers17FlatBufferBuilder10TrackFieldEtm
 711              		.syntax unified
 712              		.arm
 713              		.fpu neon
 715              	_ZN11flatbuffers17FlatBufferBuilder10TrackFieldEtm:
 716              		.fnstart
 717              	.LFB3587:
 718              		@ args = 0, pretend = 0, frame = 0
 719              		@ frame_needed = 0, uses_anonymous_args = 0
 720 0000 70402DE9 		push	{r4, r5, r6, lr}
 721              		.save {r4, r5, r6, lr}
 722 0004 0040A0E1 		mov	r4, r0
 723 0008 0150A0E1 		mov	r5, r1
 724 000c 0810A0E3 		mov	r1, #8
 725 0010 0260A0E1 		mov	r6, r2
 726 0014 FEFFFFEB 		bl	_ZN11flatbuffers15vector_downward12ensure_spaceEj
 727 0018 1C3094E5 		ldr	r3, [r4, #28]
 728 001c 006083E5 		str	r6, [r3]
 729 0020 083083E2 		add	r3, r3, #8
 730 0024 B45043E1 		strh	r5, [r3, #-4]	@ movhi
 731 0028 1C3084E5 		str	r3, [r4, #28]
 732 002c 203094E5 		ldr	r3, [r4, #32]
 733 0030 013083E2 		add	r3, r3, #1
 734 0034 203084E5 		str	r3, [r4, #32]
 735 0038 B432D4E1 		ldrh	r3, [r4, #36]
 736 003c 050053E1 		cmp	r3, r5
 737 0040 0530A0B1 		movlt	r3, r5
 738 0044 B432C4E1 		strh	r3, [r4, #36]	@ movhi
 739 0048 7080BDE8 		pop	{r4, r5, r6, pc}
 740              		.fnend
 742              		.section	.text._ZN11flatbuffers17FlatBufferBuilder7ReferToEm,"axG",%progbits,_ZN11flatbuffers17Fla
 743              		.align	2
 744              		.weak	_ZN11flatbuffers17FlatBufferBuilder7ReferToEm
 745              		.syntax unified
 746              		.arm
 747              		.fpu neon
 749              	_ZN11flatbuffers17FlatBufferBuilder7ReferToEm:
 750              		.fnstart
 751              	.LFB3593:
 752              		@ args = 0, pretend = 0, frame = 0
 753              		@ frame_needed = 0, uses_anonymous_args = 0
 754 0000 70402DE9 		push	{r4, r5, r6, lr}
 755              		.save {r4, r5, r6, lr}
 756 0004 0140A0E1 		mov	r4, r1
 757 0008 0410A0E3 		mov	r1, #4
 758 000c 0050A0E1 		mov	r5, r0
 759 0010 FEFFFFEB 		bl	_ZN11flatbuffers17FlatBufferBuilder5AlignEj
 760 0014 000054E3 		cmp	r4, #0
 761 0018 0300000A 		beq	.L87
 762 001c 0500A0E1 		mov	r0, r5
 763 0020 FEFFFFEB 		bl	_ZNK11flatbuffers15vector_downward4sizeEv
 764 0024 000054E1 		cmp	r4, r0
 765 0028 0400009A 		bls	.L88
 766              	.L87:
 767 002c 18309FE5 		ldr	r3, .L93
 768 0030 8F1400E3 		movw	r1, #1167
 769 0034 14209FE5 		ldr	r2, .L93+4
 770 0038 14009FE5 		ldr	r0, .L93+8
 771 003c FEFFFFEB 		bl	__assert_func
 772              	.L88:
 773 0040 044064E2 		rsb	r4, r4, #4
 774 0044 000084E0 		add	r0, r4, r0
 775 0048 7080BDE8 		pop	{r4, r5, r6, pc}
 776              	.L94:
 777              		.align	2
 778              	.L93:
 779 004c 00000000 		.word	.LC15
 780 0050 00000000 		.word	.LANCHOR12
 781 0054 14000000 		.word	.LC9
 782              		.fnend
 784              		.section	.text._ZN11flatbuffers17FlatBufferBuilder9NotNestedEv,"axG",%progbits,_ZN11flatbuffers17F
 785              		.align	2
 786              		.weak	_ZN11flatbuffers17FlatBufferBuilder9NotNestedEv
 787              		.syntax unified
 788              		.arm
 789              		.fpu neon
 791              	_ZN11flatbuffers17FlatBufferBuilder9NotNestedEv:
 792              		.fnstart
 793              	.LFB3594:
 794              		@ args = 0, pretend = 0, frame = 0
 795              		@ frame_needed = 0, uses_anonymous_args = 0
 796 0000 2630D0E5 		ldrb	r3, [r0, #38]	@ zero_extendqisi2
 797 0004 10402DE9 		push	{r4, lr}
 798              		.save {r4, lr}
 799 0008 000053E3 		cmp	r3, #0
 800 000c 0400000A 		beq	.L96
 801 0010 28309FE5 		ldr	r3, .L100
 802 0014 9C1400E3 		movw	r1, #1180
 803 0018 24209FE5 		ldr	r2, .L100+4
 804              	.L99:
 805 001c 24009FE5 		ldr	r0, .L100+8
 806 0020 FEFFFFEB 		bl	__assert_func
 807              	.L96:
 808 0024 203090E5 		ldr	r3, [r0, #32]
 809 0028 000053E3 		cmp	r3, #0
 810 002c 1080BD08 		popeq	{r4, pc}
 811 0030 14309FE5 		ldr	r3, .L100+12
 812 0034 9E1400E3 		movw	r1, #1182
 813 0038 04209FE5 		ldr	r2, .L100+4
 814 003c F6FFFFEA 		b	.L99
 815              	.L101:
 816              		.align	2
 817              	.L100:
 818 0040 00000000 		.word	.LC16
 819 0044 00000000 		.word	.LANCHOR13
 820 0048 14000000 		.word	.LC9
 821 004c 08000000 		.word	.LC17
 822              		.fnend
 824              		.section	.text._ZN11flatbuffers17FlatBufferBuilder10StartTableEv,"axG",%progbits,_ZN11flatbuffers1
 825              		.align	2
 826              		.weak	_ZN11flatbuffers17FlatBufferBuilder10StartTableEv
 827              		.syntax unified
 828              		.arm
 829              		.fpu neon
 831              	_ZN11flatbuffers17FlatBufferBuilder10StartTableEv:
 832              		.fnstart
 833              	.LFB3595:
 834              		@ args = 0, pretend = 0, frame = 0
 835              		@ frame_needed = 0, uses_anonymous_args = 0
 836 0000 10402DE9 		push	{r4, lr}
 837              		.save {r4, lr}
 838 0004 0040A0E1 		mov	r4, r0
 839 0008 FEFFFFEB 		bl	_ZN11flatbuffers17FlatBufferBuilder9NotNestedEv
 840 000c 0130A0E3 		mov	r3, #1
 841 0010 0400A0E1 		mov	r0, r4
 842 0014 2630C4E5 		strb	r3, [r4, #38]
 843 0018 FEFFFFEB 		bl	_ZNK11flatbuffers15vector_downward4sizeEv
 844 001c 1080BDE8 		pop	{r4, pc}
 845              		.fnend
 847              		.section	.text._ZN11flatbuffers17FlatBufferBuilder8PreAlignEjj,"axG",%progbits,_ZN11flatbuffers17F
 848              		.align	2
 849              		.weak	_ZN11flatbuffers17FlatBufferBuilder8PreAlignEjj
 850              		.syntax unified
 851              		.arm
 852              		.fpu neon
 854              	_ZN11flatbuffers17FlatBufferBuilder8PreAlignEjj:
 855              		.fnstart
 856              	.LFB3601:
 857              		@ args = 0, pretend = 0, frame = 0
 858              		@ frame_needed = 0, uses_anonymous_args = 0
 859 0000 283090E5 		ldr	r3, [r0, #40]
 860 0004 70402DE9 		push	{r4, r5, r6, lr}
 861              		.save {r4, r5, r6, lr}
 862 0008 0150A0E1 		mov	r5, r1
 863 000c 0060A0E1 		mov	r6, r0
 864 0010 0240A0E1 		mov	r4, r2
 865 0014 030052E1 		cmp	r2, r3
 866 0018 014044E2 		sub	r4, r4, #1
 867 001c 28208085 		strhi	r2, [r0, #40]
 868 0020 FEFFFFEB 		bl	_ZNK11flatbuffers15vector_downward4sizeEv
 869 0024 001085E0 		add	r1, r5, r0
 870 0028 0600A0E1 		mov	r0, r6
 871 002c 001061E2 		rsb	r1, r1, #0
 872 0030 041001E0 		and	r1, r1, r4
 873 0034 FEFFFFEB 		bl	_ZN11flatbuffers15vector_downward4fillEj
 874 0038 7080BDE8 		pop	{r4, r5, r6, pc}
 875              		.fnend
 877              		.section	.text._ZN11flatbuffers17FlatBufferBuilder11StartVectorEjj,"axG",%progbits,_ZN11flatbuffer
 878              		.align	2
 879              		.weak	_ZN11flatbuffers17FlatBufferBuilder11StartVectorEjj
 880              		.syntax unified
 881              		.arm
 882              		.fpu neon
 884              	_ZN11flatbuffers17FlatBufferBuilder11StartVectorEjj:
 885              		.fnstart
 886              	.LFB3614:
 887              		@ args = 0, pretend = 0, frame = 0
 888              		@ frame_needed = 0, uses_anonymous_args = 0
 889 0000 70402DE9 		push	{r4, r5, r6, lr}
 890              		.save {r4, r5, r6, lr}
 891 0004 0260A0E1 		mov	r6, r2
 892 0008 0140A0E1 		mov	r4, r1
 893 000c 0050A0E1 		mov	r5, r0
 894 0010 960404E0 		mul	r4, r6, r4
 895 0014 FEFFFFEB 		bl	_ZN11flatbuffers17FlatBufferBuilder9NotNestedEv
 896 0018 0130A0E3 		mov	r3, #1
 897 001c 0410A0E1 		mov	r1, r4
 898 0020 0500A0E1 		mov	r0, r5
 899 0024 2630C5E5 		strb	r3, [r5, #38]
 900 0028 0420A0E3 		mov	r2, #4
 901 002c FEFFFFEB 		bl	_ZN11flatbuffers17FlatBufferBuilder8PreAlignEjj
 902 0030 0620A0E1 		mov	r2, r6
 903 0034 0410A0E1 		mov	r1, r4
 904 0038 0500A0E1 		mov	r0, r5
 905 003c FEFFFFEB 		bl	_ZN11flatbuffers17FlatBufferBuilder8PreAlignEjj
 906 0040 7080BDE8 		pop	{r4, r5, r6, pc}
 907              		.fnend
 909              		.section	.text._ZN6tflite7testing10TestStrcmpEPKcS2_,"ax",%progbits
 910              		.align	2
 911              		.global	_ZN6tflite7testing10TestStrcmpEPKcS2_
 912              		.syntax unified
 913              		.arm
 914              		.fpu neon
 916              	_ZN6tflite7testing10TestStrcmpEPKcS2_:
 917              		.fnstart
 918              	.LFB6091:
 919              		@ args = 0, pretend = 0, frame = 0
 920              		@ frame_needed = 0, uses_anonymous_args = 0
 921              		@ link register save eliminated.
 922 0000 000051E3 		cmp	r1, #0
 923 0004 00005013 		cmpne	r0, #0
 924 0008 0B00000A 		beq	.L113
 925 000c 010040E2 		sub	r0, r0, #1
 926              	.L112:
 927 0010 0130F0E5 		ldrb	r3, [r0, #1]!	@ zero_extendqisi2
 928 0014 0120A0E1 		mov	r2, r1
 929 0018 000053E3 		cmp	r3, #0
 930 001c 0300000A 		beq	.L111
 931 0020 00C0D2E5 		ldrb	ip, [r2]	@ zero_extendqisi2
 932 0024 011081E2 		add	r1, r1, #1
 933 0028 03005CE1 		cmp	ip, r3
 934 002c F7FFFF0A 		beq	.L112
 935              	.L111:
 936 0030 0000D2E5 		ldrb	r0, [r2]	@ zero_extendqisi2
 937 0034 000043E0 		sub	r0, r3, r0
 938 0038 1EFF2FE1 		bx	lr
 939              	.L113:
 940 003c 0000E0E3 		mvn	r0, #0
 941 0040 1EFF2FE1 		bx	lr
 942              		.cantunwind
 943              		.fnend
 945              		.section	.text._ZN6tflite7testing13ReportOpErrorEP13TfLiteContextPKcz,"ax",%progbits
 946              		.align	2
 947              		.global	_ZN6tflite7testing13ReportOpErrorEP13TfLiteContextPKcz
 948              		.syntax unified
 949              		.arm
 950              		.fpu neon
 952              	_ZN6tflite7testing13ReportOpErrorEP13TfLiteContextPKcz:
 953              		.fnstart
 954              	.LFB6092:
 955              		@ args = 4, pretend = 12, frame = 8
 956              		@ frame_needed = 0, uses_anonymous_args = 1
 957 0000 0E002DE9 		push	{r1, r2, r3}
 958              		.save {r1, r2, r3}
 959 0004 03402DE9 		push	{r0, r1, lr}
 960              		.save {lr}
 961              		.pad #8
 962 0008 10208DE2 		add	r2, sp, #16
 963 000c 0C0090E5 		ldr	r0, [r0, #12]
 964 0010 04208DE5 		str	r2, [sp, #4]
 965 0014 0C109DE5 		ldr	r1, [sp, #12]
 966 0018 003090E5 		ldr	r3, [r0]
 967 001c 083093E5 		ldr	r3, [r3, #8]
 968 0020 33FF2FE1 		blx	r3
 969 0024 08D08DE2 		add	sp, sp, #8
 970              		@ sp needed
 971 0028 04E09DE4 		ldr	lr, [sp], #4
 972 002c 0CD08DE2 		add	sp, sp, #12
 973 0030 1EFF2FE1 		bx	lr
 974              		.fnend
 976              		.section	.text._ZN6tflite7testing16IntArrayFromIntsEPKi,"ax",%progbits
 977              		.align	2
 978              		.global	_ZN6tflite7testing16IntArrayFromIntsEPKi
 979              		.syntax unified
 980              		.arm
 981              		.fpu neon
 983              	_ZN6tflite7testing16IntArrayFromIntsEPKi:
 984              		.fnstart
 985              	.LFB6093:
 986              		@ args = 0, pretend = 0, frame = 0
 987              		@ frame_needed = 0, uses_anonymous_args = 0
 988              		@ link register save eliminated.
 989 0000 1EFF2FE1 		bx	lr
 990              		.cantunwind
 991              		.fnend
 993              		.section	.text._ZN6tflite7testing20FloatArrayFromFloatsEPKf,"ax",%progbits
 994              		.align	2
 995              		.global	_ZN6tflite7testing20FloatArrayFromFloatsEPKf
 996              		.syntax unified
 997              		.arm
 998              		.fpu neon
 1000              	_ZN6tflite7testing20FloatArrayFromFloatsEPKf:
 1001              		.fnstart
 1002              	.LFB6094:
 1003              		@ args = 0, pretend = 0, frame = 0
 1004              		@ frame_needed = 0, uses_anonymous_args = 0
 1005              		@ link register save eliminated.
 1006 0000 007AD0ED 		vldr.32	s15, [r0]
 1007 0004 E77AFDEE 		vcvt.s32.f32	s15, s15
 1008 0008 007AC0ED 		vstr.32	s15, [r0]	@ int
 1009 000c 1EFF2FE1 		bx	lr
 1010              		.cantunwind
 1011              		.fnend
 1013              		.section	.text._ZN6tflite7testing12CreateTensorEP14TfLiteIntArrayPKcb,"ax",%progbits
 1014              		.align	2
 1015              		.global	_ZN6tflite7testing12CreateTensorEP14TfLiteIntArrayPKcb
 1016              		.syntax unified
 1017              		.arm
 1018              		.fpu neon
 1020              	_ZN6tflite7testing12CreateTensorEP14TfLiteIntArrayPKcb:
 1021              		.fnstart
 1022              	.LFB6095:
 1023              		@ args = 0, pretend = 0, frame = 0
 1024              		@ frame_needed = 0, uses_anonymous_args = 0
 1025              		@ link register save eliminated.
 1026 0000 202080E5 		str	r2, [r0, #32]
 1027 0004 0020A0E3 		mov	r2, #0
 1028 0008 081080E5 		str	r1, [r0, #8]
 1029 000c 0C2080E5 		str	r2, [r0, #12]
 1030 0010 102080E5 		str	r2, [r0, #16]
 1031 0014 3020C0E5 		strb	r2, [r0, #48]
 1032 0018 342080E5 		str	r2, [r0, #52]
 1033 001c 2D30C0E5 		strb	r3, [r0, #45]
 1034 0020 1420C0E5 		strb	r2, [r0, #20]
 1035 0024 1C2080E5 		str	r2, [r0, #28]
 1036 0028 1EFF2FE1 		bx	lr
 1037              		.cantunwind
 1038              		.fnend
 1040              		.section	.text._ZN6tflite7testing17CreateFloatTensorEPKfP14TfLiteIntArrayPKcb,"ax",%progbits
 1041              		.align	2
 1042              		.global	_ZN6tflite7testing17CreateFloatTensorEPKfP14TfLiteIntArrayPKcb
 1043              		.syntax unified
 1044              		.arm
 1045              		.fpu neon
 1047              	_ZN6tflite7testing17CreateFloatTensorEPKfP14TfLiteIntArrayPKcb:
 1048              		.fnstart
 1049              	.LFB6096:
 1050              		@ args = 4, pretend = 0, frame = 0
 1051              		@ frame_needed = 0, uses_anonymous_args = 0
 1052 0000 10402DE9 		push	{r4, lr}
 1053              		.save {r4, lr}
 1054 0004 0040A0E1 		mov	r4, r0
 1055 0008 082080E5 		str	r2, [r0, #8]
 1056 000c 203080E5 		str	r3, [r0, #32]
 1057 0010 0030A0E3 		mov	r3, #0
 1058 0014 0800DDE5 		ldrb	r0, [sp, #8]	@ zero_extendqisi2
 1059 0018 0C3084E5 		str	r3, [r4, #12]
 1060 001c 103084E5 		str	r3, [r4, #16]
 1061 0020 3030C4E5 		strb	r3, [r4, #48]
 1062 0024 343084E5 		str	r3, [r4, #52]
 1063 0028 1430C4E5 		strb	r3, [r4, #20]
 1064 002c 1C3084E5 		str	r3, [r4, #28]
 1065 0030 0130A0E3 		mov	r3, #1
 1066 0034 2D00C4E5 		strb	r0, [r4, #45]
 1067 0038 0200A0E1 		mov	r0, r2
 1068 003c 0030C4E5 		strb	r3, [r4]
 1069 0040 041084E5 		str	r1, [r4, #4]
 1070 0044 FEFFFFEB 		bl	_ZN6tflite12ElementCountERK14TfLiteIntArray
 1071 0048 0001A0E1 		lsl	r0, r0, #2
 1072 004c 180084E5 		str	r0, [r4, #24]
 1073 0050 0400A0E1 		mov	r0, r4
 1074 0054 1080BDE8 		pop	{r4, pc}
 1075              		.fnend
 1077              		.section	.text._ZN6tflite7testing19PopulateFloatTensorEP12TfLiteTensorPfS3_,"ax",%progbits
 1078              		.align	2
 1079              		.global	_ZN6tflite7testing19PopulateFloatTensorEP12TfLiteTensorPfS3_
 1080              		.syntax unified
 1081              		.arm
 1082              		.fpu neon
 1084              	_ZN6tflite7testing19PopulateFloatTensorEP12TfLiteTensorPfS3_:
 1085              		.fnstart
 1086              	.LFB6097:
 1087              		@ args = 0, pretend = 0, frame = 0
 1088              		@ frame_needed = 0, uses_anonymous_args = 0
 1089              		@ link register save eliminated.
 1090 0000 043090E5 		ldr	r3, [r0, #4]
 1091              	.L127:
 1092 0004 020051E1 		cmp	r1, r2
 1093 0008 1EFF2F01 		bxeq	lr
 1094 000c 040091E4 		ldr	r0, [r1], #4	@ float
 1095 0010 040083E4 		str	r0, [r3], #4	@ float
 1096 0014 FAFFFFEA 		b	.L127
 1097              		.cantunwind
 1098              		.fnend
 1100              		.section	.text._ZN6tflite7testing16CreateBoolTensorEPKbP14TfLiteIntArrayPKcb,"ax",%progbits
 1101              		.align	2
 1102              		.global	_ZN6tflite7testing16CreateBoolTensorEPKbP14TfLiteIntArrayPKcb
 1103              		.syntax unified
 1104              		.arm
 1105              		.fpu neon
 1107              	_ZN6tflite7testing16CreateBoolTensorEPKbP14TfLiteIntArrayPKcb:
 1108              		.fnstart
 1109              	.LFB6098:
 1110              		@ args = 4, pretend = 0, frame = 0
 1111              		@ frame_needed = 0, uses_anonymous_args = 0
 1112 0000 10402DE9 		push	{r4, lr}
 1113              		.save {r4, lr}
 1114 0004 0040A0E1 		mov	r4, r0
 1115 0008 082080E5 		str	r2, [r0, #8]
 1116 000c 203080E5 		str	r3, [r0, #32]
 1117 0010 0030A0E3 		mov	r3, #0
 1118 0014 0800DDE5 		ldrb	r0, [sp, #8]	@ zero_extendqisi2
 1119 0018 0C3084E5 		str	r3, [r4, #12]
 1120 001c 103084E5 		str	r3, [r4, #16]
 1121 0020 3030C4E5 		strb	r3, [r4, #48]
 1122 0024 343084E5 		str	r3, [r4, #52]
 1123 0028 1430C4E5 		strb	r3, [r4, #20]
 1124 002c 1C3084E5 		str	r3, [r4, #28]
 1125 0030 0630A0E3 		mov	r3, #6
 1126 0034 2D00C4E5 		strb	r0, [r4, #45]
 1127 0038 0200A0E1 		mov	r0, r2
 1128 003c 0030C4E5 		strb	r3, [r4]
 1129 0040 041084E5 		str	r1, [r4, #4]
 1130 0044 FEFFFFEB 		bl	_ZN6tflite12ElementCountERK14TfLiteIntArray
 1131 0048 180084E5 		str	r0, [r4, #24]
 1132 004c 0400A0E1 		mov	r0, r4
 1133 0050 1080BDE8 		pop	{r4, pc}
 1134              		.fnend
 1136              		.section	.text._ZN6tflite7testing17CreateInt32TensorEPKlP14TfLiteIntArrayPKcb,"ax",%progbits
 1137              		.align	2
 1138              		.global	_ZN6tflite7testing17CreateInt32TensorEPKlP14TfLiteIntArrayPKcb
 1139              		.syntax unified
 1140              		.arm
 1141              		.fpu neon
 1143              	_ZN6tflite7testing17CreateInt32TensorEPKlP14TfLiteIntArrayPKcb:
 1144              		.fnstart
 1145              	.LFB6099:
 1146              		@ args = 4, pretend = 0, frame = 0
 1147              		@ frame_needed = 0, uses_anonymous_args = 0
 1148 0000 10402DE9 		push	{r4, lr}
 1149              		.save {r4, lr}
 1150 0004 0040A0E1 		mov	r4, r0
 1151 0008 082080E5 		str	r2, [r0, #8]
 1152 000c 203080E5 		str	r3, [r0, #32]
 1153 0010 0030A0E3 		mov	r3, #0
 1154 0014 0800DDE5 		ldrb	r0, [sp, #8]	@ zero_extendqisi2
 1155 0018 0C3084E5 		str	r3, [r4, #12]
 1156 001c 103084E5 		str	r3, [r4, #16]
 1157 0020 3030C4E5 		strb	r3, [r4, #48]
 1158 0024 343084E5 		str	r3, [r4, #52]
 1159 0028 1430C4E5 		strb	r3, [r4, #20]
 1160 002c 1C3084E5 		str	r3, [r4, #28]
 1161 0030 0230A0E3 		mov	r3, #2
 1162 0034 2D00C4E5 		strb	r0, [r4, #45]
 1163 0038 0200A0E1 		mov	r0, r2
 1164 003c 0030C4E5 		strb	r3, [r4]
 1165 0040 041084E5 		str	r1, [r4, #4]
 1166 0044 FEFFFFEB 		bl	_ZN6tflite12ElementCountERK14TfLiteIntArray
 1167 0048 0001A0E1 		lsl	r0, r0, #2
 1168 004c 180084E5 		str	r0, [r4, #24]
 1169 0050 0400A0E1 		mov	r0, r4
 1170 0054 1080BDE8 		pop	{r4, pc}
 1171              		.fnend
 1173              		.section	.text._ZN6tflite7testing21CreateQuantizedTensorEPKhP14TfLiteIntArrayfiPKcb,"ax",%progbits
 1174              		.align	2
 1175              		.global	_ZN6tflite7testing21CreateQuantizedTensorEPKhP14TfLiteIntArrayfiPKcb
 1176              		.syntax unified
 1177              		.arm
 1178              		.fpu neon
 1180              	_ZN6tflite7testing21CreateQuantizedTensorEPKhP14TfLiteIntArrayfiPKcb:
 1181              		.fnstart
 1182              	.LFB6100:
 1183              		@ args = 8, pretend = 0, frame = 0
 1184              		@ frame_needed = 0, uses_anonymous_args = 0
 1185 0000 10402DE9 		push	{r4, lr}
 1186              		.save {r4, lr}
 1187 0004 0040A0E1 		mov	r4, r0
 1188 0008 082080E5 		str	r2, [r0, #8]
 1189 000c 00C0A0E3 		mov	ip, #0
 1190 0010 08009DE5 		ldr	r0, [sp, #8]
 1191 0014 103084E5 		str	r3, [r4, #16]
 1192 0018 0130A0E3 		mov	r3, #1
 1193 001c 34C084E5 		str	ip, [r4, #52]
 1194 0020 200084E5 		str	r0, [r4, #32]
 1195 0024 0C00DDE5 		ldrb	r0, [sp, #12]	@ zero_extendqisi2
 1196 0028 14C0C4E5 		strb	ip, [r4, #20]
 1197 002c 1CC084E5 		str	ip, [r4, #28]
 1198 0030 2D00C4E5 		strb	r0, [r4, #45]
 1199 0034 0300A0E3 		mov	r0, #3
 1200 0038 0000C4E5 		strb	r0, [r4]
 1201 003c 0200A0E1 		mov	r0, r2
 1202 0040 041084E5 		str	r1, [r4, #4]
 1203 0044 030A84ED 		vstr.32	s0, [r4, #12]
 1204 0048 3030C4E5 		strb	r3, [r4, #48]
 1205 004c FEFFFFEB 		bl	_ZN6tflite12ElementCountERK14TfLiteIntArray
 1206 0050 180084E5 		str	r0, [r4, #24]
 1207 0054 0400A0E1 		mov	r0, r4
 1208 0058 1080BDE8 		pop	{r4, pc}
 1209              		.fnend
 1211              		.section	.text._ZN6tflite7testing21CreateQuantizedTensorEPKfPhP14TfLiteIntArrayfiPKcb,"ax",%progbi
 1212              		.align	2
 1213              		.global	_ZN6tflite7testing21CreateQuantizedTensorEPKfPhP14TfLiteIntArrayfiPKcb
 1214              		.syntax unified
 1215              		.arm
 1216              		.fpu neon
 1218              	_ZN6tflite7testing21CreateQuantizedTensorEPKfPhP14TfLiteIntArrayfiPKcb:
 1219              		.fnstart
 1220              	.LFB6101:
 1221              		@ args = 12, pretend = 0, frame = 0
 1222              		@ frame_needed = 0, uses_anonymous_args = 0
 1223 0000 F0412DE9 		push	{r4, r5, r6, r7, r8, lr}
 1224              		.save {r4, r5, r6, r7, r8, lr}
 1225 0004 0040A0E1 		mov	r4, r0
 1226 0008 028B2DED 		vpush.64	{d8}
 1227              		.vsave {d8}
 1228 000c 0300A0E1 		mov	r0, r3
 1229 0010 0270A0E1 		mov	r7, r2
 1230 0014 0350A0E1 		mov	r5, r3
 1231 0018 20609DE5 		ldr	r6, [sp, #32]
 1232 001c 0180A0E1 		mov	r8, r1
 1233 0020 408AB0EE 		vmov.f32	s16, s0
 1234 0024 FEFFFFEB 		bl	_ZN6tflite12ElementCountERK14TfLiteIntArray
 1235 0028 480AB0EE 		vmov.f32	s0, s16
 1236 002c 0020A0E1 		mov	r2, r0
 1237 0030 0630A0E1 		mov	r3, r6
 1238 0034 0710A0E1 		mov	r1, r7
 1239 0038 0800A0E1 		mov	r0, r8
 1240 003c FEFFFFEB 		bl	_ZN6tflite18AsymmetricQuantizeEPKfPhifi
 1241 0040 24309DE5 		ldr	r3, [sp, #36]
 1242 0044 0500A0E1 		mov	r0, r5
 1243 0048 038A84ED 		vstr.32	s16, [r4, #12]
 1244 004c 085084E5 		str	r5, [r4, #8]
 1245 0050 203084E5 		str	r3, [r4, #32]
 1246 0054 0030A0E3 		mov	r3, #0
 1247 0058 343084E5 		str	r3, [r4, #52]
 1248 005c 2D30C4E5 		strb	r3, [r4, #45]
 1249 0060 1430C4E5 		strb	r3, [r4, #20]
 1250 0064 1C3084E5 		str	r3, [r4, #28]
 1251 0068 0330A0E3 		mov	r3, #3
 1252 006c 0030C4E5 		strb	r3, [r4]
 1253 0070 0130A0E3 		mov	r3, #1
 1254 0074 047084E5 		str	r7, [r4, #4]
 1255 0078 106084E5 		str	r6, [r4, #16]
 1256 007c 3030C4E5 		strb	r3, [r4, #48]
 1257 0080 FEFFFFEB 		bl	_ZN6tflite12ElementCountERK14TfLiteIntArray
 1258 0084 028BBDEC 		vldm	sp!, {d8}
 1259 0088 180084E5 		str	r0, [r4, #24]
 1260 008c 0400A0E1 		mov	r0, r4
 1261 0090 F081BDE8 		pop	{r4, r5, r6, r7, r8, pc}
 1262              		.fnend
 1264              		.section	.text._ZN6tflite7testing21CreateQuantizedTensorEPKaP14TfLiteIntArrayfiPKcb,"ax",%progbits
 1265              		.align	2
 1266              		.global	_ZN6tflite7testing21CreateQuantizedTensorEPKaP14TfLiteIntArrayfiPKcb
 1267              		.syntax unified
 1268              		.arm
 1269              		.fpu neon
 1271              	_ZN6tflite7testing21CreateQuantizedTensorEPKaP14TfLiteIntArrayfiPKcb:
 1272              		.fnstart
 1273              	.LFB6102:
 1274              		@ args = 8, pretend = 0, frame = 0
 1275              		@ frame_needed = 0, uses_anonymous_args = 0
 1276 0000 10402DE9 		push	{r4, lr}
 1277              		.save {r4, lr}
 1278 0004 0040A0E1 		mov	r4, r0
 1279 0008 082080E5 		str	r2, [r0, #8]
 1280 000c 00C0A0E3 		mov	ip, #0
 1281 0010 08009DE5 		ldr	r0, [sp, #8]
 1282 0014 103084E5 		str	r3, [r4, #16]
 1283 0018 0130A0E3 		mov	r3, #1
 1284 001c 34C084E5 		str	ip, [r4, #52]
 1285 0020 200084E5 		str	r0, [r4, #32]
 1286 0024 0C00DDE5 		ldrb	r0, [sp, #12]	@ zero_extendqisi2
 1287 0028 14C0C4E5 		strb	ip, [r4, #20]
 1288 002c 1CC084E5 		str	ip, [r4, #28]
 1289 0030 2D00C4E5 		strb	r0, [r4, #45]
 1290 0034 0900A0E3 		mov	r0, #9
 1291 0038 0000C4E5 		strb	r0, [r4]
 1292 003c 0200A0E1 		mov	r0, r2
 1293 0040 041084E5 		str	r1, [r4, #4]
 1294 0044 030A84ED 		vstr.32	s0, [r4, #12]
 1295 0048 3030C4E5 		strb	r3, [r4, #48]
 1296 004c FEFFFFEB 		bl	_ZN6tflite12ElementCountERK14TfLiteIntArray
 1297 0050 180084E5 		str	r0, [r4, #24]
 1298 0054 0400A0E1 		mov	r0, r4
 1299 0058 1080BDE8 		pop	{r4, pc}
 1300              		.fnend
 1302              		.section	.text._ZN6tflite7testing21CreateQuantizedTensorEPKsP14TfLiteIntArrayfiPKcb,"ax",%progbits
 1303              		.align	2
 1304              		.global	_ZN6tflite7testing21CreateQuantizedTensorEPKsP14TfLiteIntArrayfiPKcb
 1305              		.syntax unified
 1306              		.arm
 1307              		.fpu neon
 1309              	_ZN6tflite7testing21CreateQuantizedTensorEPKsP14TfLiteIntArrayfiPKcb:
 1310              		.fnstart
 1311              	.LFB6103:
 1312              		@ args = 8, pretend = 0, frame = 0
 1313              		@ frame_needed = 0, uses_anonymous_args = 0
 1314 0000 10402DE9 		push	{r4, lr}
 1315              		.save {r4, lr}
 1316 0004 0040A0E1 		mov	r4, r0
 1317 0008 082080E5 		str	r2, [r0, #8]
 1318 000c 00C0A0E3 		mov	ip, #0
 1319 0010 08009DE5 		ldr	r0, [sp, #8]
 1320 0014 103084E5 		str	r3, [r4, #16]
 1321 0018 0130A0E3 		mov	r3, #1
 1322 001c 34C084E5 		str	ip, [r4, #52]
 1323 0020 200084E5 		str	r0, [r4, #32]
 1324 0024 0C00DDE5 		ldrb	r0, [sp, #12]	@ zero_extendqisi2
 1325 0028 14C0C4E5 		strb	ip, [r4, #20]
 1326 002c 1CC084E5 		str	ip, [r4, #28]
 1327 0030 2D00C4E5 		strb	r0, [r4, #45]
 1328 0034 0700A0E3 		mov	r0, #7
 1329 0038 0000C4E5 		strb	r0, [r4]
 1330 003c 0200A0E1 		mov	r0, r2
 1331 0040 041084E5 		str	r1, [r4, #4]
 1332 0044 030A84ED 		vstr.32	s0, [r4, #12]
 1333 0048 3030C4E5 		strb	r3, [r4, #48]
 1334 004c FEFFFFEB 		bl	_ZN6tflite12ElementCountERK14TfLiteIntArray
 1335 0050 8000A0E1 		lsl	r0, r0, #1
 1336 0054 180084E5 		str	r0, [r4, #24]
 1337 0058 0400A0E1 		mov	r0, r4
 1338 005c 1080BDE8 		pop	{r4, pc}
 1339              		.fnend
 1341              		.section	.text._ZN6tflite7testing21CreateQuantizedTensorEPKfPaP14TfLiteIntArrayfiPKcb,"ax",%progbi
 1342              		.align	2
 1343              		.global	_ZN6tflite7testing21CreateQuantizedTensorEPKfPaP14TfLiteIntArrayfiPKcb
 1344              		.syntax unified
 1345              		.arm
 1346              		.fpu neon
 1348              	_ZN6tflite7testing21CreateQuantizedTensorEPKfPaP14TfLiteIntArrayfiPKcb:
 1349              		.fnstart
 1350              	.LFB6104:
 1351              		@ args = 12, pretend = 0, frame = 0
 1352              		@ frame_needed = 0, uses_anonymous_args = 0
 1353 0000 F0412DE9 		push	{r4, r5, r6, r7, r8, lr}
 1354              		.save {r4, r5, r6, r7, r8, lr}
 1355 0004 0040A0E1 		mov	r4, r0
 1356 0008 028B2DED 		vpush.64	{d8}
 1357              		.vsave {d8}
 1358 000c 0300A0E1 		mov	r0, r3
 1359 0010 0270A0E1 		mov	r7, r2
 1360 0014 0350A0E1 		mov	r5, r3
 1361 0018 20609DE5 		ldr	r6, [sp, #32]
 1362 001c 0180A0E1 		mov	r8, r1
 1363 0020 408AB0EE 		vmov.f32	s16, s0
 1364 0024 FEFFFFEB 		bl	_ZN6tflite12ElementCountERK14TfLiteIntArray
 1365 0028 480AB0EE 		vmov.f32	s0, s16
 1366 002c 0020A0E1 		mov	r2, r0
 1367 0030 0630A0E1 		mov	r3, r6
 1368 0034 0710A0E1 		mov	r1, r7
 1369 0038 0800A0E1 		mov	r0, r8
 1370 003c FEFFFFEB 		bl	_ZN6tflite18AsymmetricQuantizeEPKfPaifi
 1371 0040 24309DE5 		ldr	r3, [sp, #36]
 1372 0044 0500A0E1 		mov	r0, r5
 1373 0048 038A84ED 		vstr.32	s16, [r4, #12]
 1374 004c 085084E5 		str	r5, [r4, #8]
 1375 0050 203084E5 		str	r3, [r4, #32]
 1376 0054 0030A0E3 		mov	r3, #0
 1377 0058 343084E5 		str	r3, [r4, #52]
 1378 005c 2D30C4E5 		strb	r3, [r4, #45]
 1379 0060 1430C4E5 		strb	r3, [r4, #20]
 1380 0064 1C3084E5 		str	r3, [r4, #28]
 1381 0068 0930A0E3 		mov	r3, #9
 1382 006c 0030C4E5 		strb	r3, [r4]
 1383 0070 0130A0E3 		mov	r3, #1
 1384 0074 047084E5 		str	r7, [r4, #4]
 1385 0078 106084E5 		str	r6, [r4, #16]
 1386 007c 3030C4E5 		strb	r3, [r4, #48]
 1387 0080 FEFFFFEB 		bl	_ZN6tflite12ElementCountERK14TfLiteIntArray
 1388 0084 028BBDEC 		vldm	sp!, {d8}
 1389 0088 180084E5 		str	r0, [r4, #24]
 1390 008c 0400A0E1 		mov	r0, r4
 1391 0090 F081BDE8 		pop	{r4, r5, r6, r7, r8, pc}
 1392              		.fnend
 1394              		.section	.text._ZN6tflite7testing23CreateQuantized32TensorEPKlP14TfLiteIntArrayfPKcb,"ax",%progbit
 1395              		.align	2
 1396              		.global	_ZN6tflite7testing23CreateQuantized32TensorEPKlP14TfLiteIntArrayfPKcb
 1397              		.syntax unified
 1398              		.arm
 1399              		.fpu neon
 1401              	_ZN6tflite7testing23CreateQuantized32TensorEPKlP14TfLiteIntArrayfPKcb:
 1402              		.fnstart
 1403              	.LFB6105:
 1404              		@ args = 4, pretend = 0, frame = 0
 1405              		@ frame_needed = 0, uses_anonymous_args = 0
 1406 0000 10402DE9 		push	{r4, lr}
 1407              		.save {r4, lr}
 1408 0004 0040A0E1 		mov	r4, r0
 1409 0008 082080E5 		str	r2, [r0, #8]
 1410 000c 203080E5 		str	r3, [r0, #32]
 1411 0010 0030A0E3 		mov	r3, #0
 1412 0014 0800DDE5 		ldrb	r0, [sp, #8]	@ zero_extendqisi2
 1413 0018 103084E5 		str	r3, [r4, #16]
 1414 001c 343084E5 		str	r3, [r4, #52]
 1415 0020 1430C4E5 		strb	r3, [r4, #20]
 1416 0024 1C3084E5 		str	r3, [r4, #28]
 1417 0028 0230A0E3 		mov	r3, #2
 1418 002c 0030C4E5 		strb	r3, [r4]
 1419 0030 0130A0E3 		mov	r3, #1
 1420 0034 2D00C4E5 		strb	r0, [r4, #45]
 1421 0038 0200A0E1 		mov	r0, r2
 1422 003c 041084E5 		str	r1, [r4, #4]
 1423 0040 030A84ED 		vstr.32	s0, [r4, #12]
 1424 0044 3030C4E5 		strb	r3, [r4, #48]
 1425 0048 FEFFFFEB 		bl	_ZN6tflite12ElementCountERK14TfLiteIntArray
 1426 004c 0001A0E1 		lsl	r0, r0, #2
 1427 0050 180084E5 		str	r0, [r4, #24]
 1428 0054 0400A0E1 		mov	r0, r4
 1429 0058 1080BDE8 		pop	{r4, pc}
 1430              		.fnend
 1432              		.section	.text._ZN6tflite7testing25CreateQuantizedBiasTensorEPKfPlP14TfLiteIntArrayffPKcb,"ax",%pr
 1433              		.align	2
 1434              		.global	_ZN6tflite7testing25CreateQuantizedBiasTensorEPKfPlP14TfLiteIntArrayffPKcb
 1435              		.syntax unified
 1436              		.arm
 1437              		.fpu neon
 1439              	_ZN6tflite7testing25CreateQuantizedBiasTensorEPKfPlP14TfLiteIntArrayffPKcb:
 1440              		.fnstart
 1441              	.LFB6106:
 1442              		@ args = 8, pretend = 0, frame = 0
 1443              		@ frame_needed = 0, uses_anonymous_args = 0
 1444 0000 F0402DE9 		push	{r4, r5, r6, r7, lr}
 1445              		.save {r4, r5, r6, r7, lr}
 1446 0004 0040A0E1 		mov	r4, r0
 1447 0008 028B2DED 		vpush.64	{d8}
 1448              		.vsave {d8}
 1449 000c 0300A0E1 		mov	r0, r3
 1450              		.pad #12
 1451 0010 0CD04DE2 		sub	sp, sp, #12
 1452 0014 0250A0E1 		mov	r5, r2
 1453 0018 208A20EE 		vmul.f32	s16, s0, s1
 1454 001c 0360A0E1 		mov	r6, r3
 1455 0020 0170A0E1 		mov	r7, r1
 1456 0024 FEFFFFEB 		bl	_ZN6tflite12ElementCountERK14TfLiteIntArray
 1457 0028 0510A0E1 		mov	r1, r5
 1458 002c 0020A0E1 		mov	r2, r0
 1459 0030 480AB0EE 		vmov.f32	s0, s16
 1460 0034 0700A0E1 		mov	r0, r7
 1461 0038 FEFFFFEB 		bl	_ZN6tflite17SymmetricQuantizeEPKfPlif
 1462 003c 2C30DDE5 		ldrb	r3, [sp, #44]	@ zero_extendqisi2
 1463 0040 0400A0E1 		mov	r0, r4
 1464 0044 480AB0EE 		vmov.f32	s0, s16
 1465 0048 0620A0E1 		mov	r2, r6
 1466 004c 0510A0E1 		mov	r1, r5
 1467 0050 00308DE5 		str	r3, [sp]
 1468 0054 28309DE5 		ldr	r3, [sp, #40]
 1469 0058 FEFFFFEB 		bl	_ZN6tflite7testing23CreateQuantized32TensorEPKlP14TfLiteIntArrayfPKcb
 1470 005c 0400A0E1 		mov	r0, r4
 1471 0060 0CD08DE2 		add	sp, sp, #12
 1472              		@ sp needed
 1473 0064 028BBDEC 		vldm	sp!, {d8}
 1474 0068 F080BDE8 		pop	{r4, r5, r6, r7, pc}
 1475              		.fnend
 1477              		.section	.text._ZN6tflite7testing35CreatePerChannelQuantizedBiasTensorEPKfPlP14TfLiteIntArrayfPfS6
 1478              		.align	2
 1479              		.global	_ZN6tflite7testing35CreatePerChannelQuantizedBiasTensorEPKfPlP14TfLiteIntArrayfPfS6_PiP24T
 1480              		.syntax unified
 1481              		.arm
 1482              		.fpu neon
 1484              	_ZN6tflite7testing35CreatePerChannelQuantizedBiasTensorEPKfPlP14TfLiteIntArrayfPfS6_PiP24TfLiteAffi
 1485              		.fnstart
 1486              	.LFB6107:
 1487              		@ args = 28, pretend = 0, frame = 0
 1488              		@ frame_needed = 0, uses_anonymous_args = 0
 1489 0000 F04F2DE9 		push	{r4, r5, r6, r7, r8, r9, r10, fp, lr}
 1490              		.save {r4, r5, r6, r7, r8, r9, r10, fp, lr}
 1491 0004 0040A0E1 		mov	r4, r0
 1492 0008 028B2DED 		vpush.64	{d8}
 1493              		.vsave {d8}
 1494 000c 0300A0E1 		mov	r0, r3
 1495              		.pad #12
 1496 0010 0CD04DE2 		sub	sp, sp, #12
 1497 0014 0350A0E1 		mov	r5, r3
 1498 0018 0190A0E1 		mov	r9, r1
 1499 001c 0280A0E1 		mov	r8, r2
 1500 0020 3C709DE5 		ldr	r7, [sp, #60]
 1501 0024 408AB0EE 		vmov.f32	s16, s0
 1502 0028 44609DE5 		ldr	r6, [sp, #68]
 1503 002c FEFFFFEB 		bl	_ZN6tflite12ElementCountERK14TfLiteIntArray
 1504 0030 48309DE5 		ldr	r3, [sp, #72]
 1505 0034 00C0A0E3 		mov	ip, #0
 1506 0038 40109DE5 		ldr	r1, [sp, #64]
 1507 003c 0020A0E1 		mov	r2, r0
 1508 0040 38B09DE5 		ldr	fp, [sp, #56]
 1509 0044 0C00A0E1 		mov	r0, ip
 1510 0048 40E09DE5 		ldr	lr, [sp, #64]
 1511 004c 033185E0 		add	r3, r5, r3, lsl #2
 1512 0050 043093E5 		ldr	r3, [r3, #4]
 1513 0054 003081E5 		str	r3, [r1]
 1514 0058 0710A0E1 		mov	r1, r7
 1515 005c 903A07EE 		vmov	s15, r3	@ int
 1516 0060 E77AF8EE 		vcvt.f32.s32	s15, s15
 1517 0064 017AE1EC 		vstmia.32	r1!, {s15}
 1518 0068 01A0A0E1 		mov	r10, r1
 1519              	.L148:
 1520 006c 03005CE1 		cmp	ip, r3
 1521 0070 050000AA 		bge	.L147
 1522 0074 017AFBEC 		vldmia.32	fp!, {s15}
 1523 0078 01C08CE2 		add	ip, ip, #1
 1524 007c 887A67EE 		vmul.f32	s15, s15, s16
 1525 0080 017AEAEC 		vstmia.32	r10!, {s15}
 1526 0084 0400AEE5 		str	r0, [lr, #4]!
 1527 0088 F7FFFFEA 		b	.L148
 1528              	.L147:
 1529 008c 00108DE5 		str	r1, [sp]
 1530 0090 0900A0E1 		mov	r0, r9
 1531 0094 0810A0E1 		mov	r1, r8
 1532 0098 FEFFFFEB 		bl	_ZN6tflite27SymmetricPerChannelQuantizeEPKfPliiPf
 1533 009c 007AD7ED 		vldr.32	s15, [r7]
 1534 00a0 0500A0E1 		mov	r0, r5
 1535 00a4 40309DE5 		ldr	r3, [sp, #64]
 1536 00a8 5020DDE5 		ldrb	r2, [sp, #80]	@ zero_extendqisi2
 1537 00ac 085084E5 		str	r5, [r4, #8]
 1538 00b0 E77AFDEE 		vcvt.s32.f32	s15, s15
 1539 00b4 2D20C4E5 		strb	r2, [r4, #45]
 1540 00b8 048084E5 		str	r8, [r4, #4]
 1541 00bc 346084E5 		str	r6, [r4, #52]
 1542 00c0 007AC7ED 		vstr.32	s15, [r7]	@ int
 1543 00c4 043086E5 		str	r3, [r6, #4]
 1544 00c8 48309DE5 		ldr	r3, [sp, #72]
 1545 00cc 007086E5 		str	r7, [r6]
 1546 00d0 083086E5 		str	r3, [r6, #8]
 1547 00d4 4C309DE5 		ldr	r3, [sp, #76]
 1548 00d8 203084E5 		str	r3, [r4, #32]
 1549 00dc 0030A0E3 		mov	r3, #0
 1550 00e0 0C3084E5 		str	r3, [r4, #12]
 1551 00e4 103084E5 		str	r3, [r4, #16]
 1552 00e8 1430C4E5 		strb	r3, [r4, #20]
 1553 00ec 1C3084E5 		str	r3, [r4, #28]
 1554 00f0 0230A0E3 		mov	r3, #2
 1555 00f4 0030C4E5 		strb	r3, [r4]
 1556 00f8 0130A0E3 		mov	r3, #1
 1557 00fc 3030C4E5 		strb	r3, [r4, #48]
 1558 0100 FEFFFFEB 		bl	_ZN6tflite12ElementCountERK14TfLiteIntArray
 1559 0104 0001A0E1 		lsl	r0, r0, #2
 1560 0108 180084E5 		str	r0, [r4, #24]
 1561 010c 0400A0E1 		mov	r0, r4
 1562 0110 0CD08DE2 		add	sp, sp, #12
 1563              		@ sp needed
 1564 0114 028BBDEC 		vldm	sp!, {d8}
 1565 0118 F08FBDE8 		pop	{r4, r5, r6, r7, r8, r9, r10, fp, pc}
 1566              		.fnend
 1568              		.section	.text._ZN6tflite7testing40CreateSymmetricPerChannelQuantizedTensorEPKfPaP14TfLiteIntArray
 1569              		.align	2
 1570              		.global	_ZN6tflite7testing40CreateSymmetricPerChannelQuantizedTensorEPKfPaP14TfLiteIntArrayPfPiP24
 1571              		.syntax unified
 1572              		.arm
 1573              		.fpu neon
 1575              	_ZN6tflite7testing40CreateSymmetricPerChannelQuantizedTensorEPKfPaP14TfLiteIntArrayPfPiP24TfLiteAff
 1576              		.fnstart
 1577              	.LFB6108:
 1578              		@ args = 24, pretend = 0, frame = 0
 1579              		@ frame_needed = 0, uses_anonymous_args = 0
 1580 0000 F74F2DE9 		push	{r0, r1, r2, r4, r5, r6, r7, r8, r9, r10, fp, lr}
 1581              		.save {r4, r5, r6, r7, r8, r9, r10, fp, lr}
 1582              		.pad #12
 1583 0004 0350A0E1 		mov	r5, r3
 1584 0008 3C809DE5 		ldr	r8, [sp, #60]
 1585 000c 0040A0E1 		mov	r4, r0
 1586 0010 02A0A0E1 		mov	r10, r2
 1587 0014 0100A0E1 		mov	r0, r1
 1588 0018 30709DE5 		ldr	r7, [sp, #48]
 1589 001c 0510A0E1 		mov	r1, r5
 1590 0020 34909DE5 		ldr	r9, [sp, #52]
 1591 0024 083183E0 		add	r3, r3, r8, lsl #2
 1592 0028 38609DE5 		ldr	r6, [sp, #56]
 1593 002c 04B093E5 		ldr	fp, [r3, #4]
 1594 0030 0730A0E1 		mov	r3, r7
 1595 0034 90BA07EE 		vmov	s15, fp	@ int
 1596 0038 E77AF8EE 		vcvt.f32.s32	s15, s15
 1597 003c 017AE3EC 		vstmia.32	r3!, {s15}
 1598 0040 00B089E5 		str	fp, [r9]
 1599 0044 00308DE5 		str	r3, [sp]
 1600 0048 0230A0E1 		mov	r3, r2
 1601 004c 0820A0E1 		mov	r2, r8
 1602 0050 FEFFFFEB 		bl	_ZN6tflite33SignedSymmetricPerChannelQuantizeEPKfP14TfLiteIntArrayiPaPf
 1603 0054 0030A0E3 		mov	r3, #0
 1604 0058 0920A0E1 		mov	r2, r9
 1605 005c 0310A0E1 		mov	r1, r3
 1606              	.L153:
 1607 0060 0B0053E1 		cmp	r3, fp
 1608 0064 0410A2B5 		strlt	r1, [r2, #4]!
 1609 0068 013083B2 		addlt	r3, r3, #1
 1610 006c FBFFFFBA 		blt	.L153
 1611              	.L152:
 1612 0070 007AD7ED 		vldr.32	s15, [r7]
 1613 0074 0500A0E1 		mov	r0, r5
 1614 0078 40309DE5 		ldr	r3, [sp, #64]
 1615 007c 4420DDE5 		ldrb	r2, [sp, #68]	@ zero_extendqisi2
 1616 0080 085084E5 		str	r5, [r4, #8]
 1617 0084 E77AFDEE 		vcvt.s32.f32	s15, s15
 1618 0088 203084E5 		str	r3, [r4, #32]
 1619 008c 0030A0E3 		mov	r3, #0
 1620 0090 0C3084E5 		str	r3, [r4, #12]
 1621 0094 103084E5 		str	r3, [r4, #16]
 1622 0098 1430C4E5 		strb	r3, [r4, #20]
 1623 009c 1C3084E5 		str	r3, [r4, #28]
 1624 00a0 0930A0E3 		mov	r3, #9
 1625 00a4 0030C4E5 		strb	r3, [r4]
 1626 00a8 0130A0E3 		mov	r3, #1
 1627 00ac 007AC7ED 		vstr.32	s15, [r7]	@ int
 1628 00b0 2D20C4E5 		strb	r2, [r4, #45]
 1629 00b4 800286E8 		stm	r6, {r7, r9}
 1630 00b8 088086E5 		str	r8, [r6, #8]
 1631 00bc 04A084E5 		str	r10, [r4, #4]
 1632 00c0 3030C4E5 		strb	r3, [r4, #48]
 1633 00c4 346084E5 		str	r6, [r4, #52]
 1634 00c8 FEFFFFEB 		bl	_ZN6tflite12ElementCountERK14TfLiteIntArray
 1635 00cc 180084E5 		str	r0, [r4, #24]
 1636 00d0 0400A0E1 		mov	r0, r4
 1637 00d4 0CD08DE2 		add	sp, sp, #12
 1638              		@ sp needed
 1639 00d8 F08FBDE8 		pop	{r4, r5, r6, r7, r8, r9, r10, fp, pc}
 1640              		.fnend
 1642              		.section	.text._ZN11flatbuffers17FlatBufferBuilder11PushElementIlEEmT_,"axG",%progbits,_ZN11flatbu
 1643              		.align	2
 1644              		.weak	_ZN11flatbuffers17FlatBufferBuilder11PushElementIlEEmT_
 1645              		.syntax unified
 1646              		.arm
 1647              		.fpu neon
 1649              	_ZN11flatbuffers17FlatBufferBuilder11PushElementIlEEmT_:
 1650              		.fnstart
 1651              	.LFB6351:
 1652              		@ args = 0, pretend = 0, frame = 0
 1653              		@ frame_needed = 0, uses_anonymous_args = 0
 1654 0000 70402DE9 		push	{r4, r5, r6, lr}
 1655              		.save {r4, r5, r6, lr}
 1656 0004 0040A0E1 		mov	r4, r0
 1657 0008 0150A0E1 		mov	r5, r1
 1658 000c 0410A0E3 		mov	r1, #4
 1659 0010 FEFFFFEB 		bl	_ZN11flatbuffers17FlatBufferBuilder5AlignEj
 1660 0014 0410A0E3 		mov	r1, #4
 1661 0018 0400A0E1 		mov	r0, r4
 1662 001c FEFFFFEB 		bl	_ZN11flatbuffers15vector_downward10make_spaceEj
 1663 0020 183094E5 		ldr	r3, [r4, #24]
 1664 0024 0400A0E1 		mov	r0, r4
 1665 0028 005083E5 		str	r5, [r3]
 1666 002c FEFFFFEB 		bl	_ZNK11flatbuffers15vector_downward4sizeEv
 1667 0030 7080BDE8 		pop	{r4, r5, r6, pc}
 1668              		.fnend
 1670              		.section	.text._ZN11flatbuffers17FlatBufferBuilder8EndTableEm,"axG",%progbits,_ZN11flatbuffers17Fl
 1671              		.align	2
 1672              		.weak	_ZN11flatbuffers17FlatBufferBuilder8EndTableEm
 1673              		.syntax unified
 1674              		.arm
 1675              		.fpu neon
 1677              	_ZN11flatbuffers17FlatBufferBuilder8EndTableEm:
 1678              		.fnstart
 1679              	.LFB3596:
 1680              		@ args = 0, pretend = 0, frame = 8
 1681              		@ frame_needed = 0, uses_anonymous_args = 0
 1682 0000 2630D0E5 		ldrb	r3, [r0, #38]	@ zero_extendqisi2
 1683 0004 F74F2DE9 		push	{r0, r1, r2, r4, r5, r6, r7, r8, r9, r10, fp, lr}
 1684              		.save {r4, r5, r6, r7, r8, r9, r10, fp, lr}
 1685              		.pad #12
 1686 0008 000053E3 		cmp	r3, #0
 1687 000c 0400001A 		bne	.L159
 1688 0010 CC319FE5 		ldr	r3, .L180
 1689 0014 AE1400E3 		movw	r1, #1198
 1690 0018 C8219FE5 		ldr	r2, .L180+4
 1691              	.L179:
 1692 001c C8019FE5 		ldr	r0, .L180+8
 1693 0020 FEFFFFEB 		bl	__assert_func
 1694              	.L159:
 1695 0024 0040A0E1 		mov	r4, r0
 1696 0028 0170A0E1 		mov	r7, r1
 1697 002c 0010A0E3 		mov	r1, #0
 1698 0030 FEFFFFEB 		bl	_ZN11flatbuffers17FlatBufferBuilder11PushElementIlEEmT_
 1699 0034 B452D4E1 		ldrh	r5, [r4, #36]
 1700 0038 0060A0E1 		mov	r6, r0
 1701 003c 0400A0E1 		mov	r0, r4
 1702 0040 025085E2 		add	r5, r5, #2
 1703 0044 7550FFE6 		uxth	r5, r5
 1704 0048 040055E3 		cmp	r5, #4
 1705 004c 0450A033 		movcc	r5, #4
 1706 0050 0510A0E1 		mov	r1, r5
 1707 0054 B452C4E1 		strh	r5, [r4, #36]	@ movhi
 1708 0058 FEFFFFEB 		bl	_ZN11flatbuffers15vector_downward10make_spaceEj
 1709 005c 0010A0E3 		mov	r1, #0
 1710 0060 0520A0E1 		mov	r2, r5
 1711 0064 FEFFFFEB 		bl	memset
 1712 0068 071046E0 		sub	r1, r6, r7
 1713 006c 010851E3 		cmp	r1, #65536
 1714 0070 78319F25 		ldrcs	r3, .L180+12
 1715 0074 BD140023 		movwcs	r1, #1213
 1716 0078 68219F25 		ldrcs	r2, .L180+4
 1717 007c E6FFFF2A 		bcs	.L179
 1718              	.L160:
 1719 0080 185094E5 		ldr	r5, [r4, #24]
 1720 0084 000055E3 		cmp	r5, #0
 1721 0088 0000001A 		bne	.L161
 1722 008c FEFFFFEB 		bl	_ZNK11flatbuffers15vector_downward4dataEv.isra.5.part.6
 1723              	.L161:
 1724 0090 B210C5E1 		strh	r1, [r5, #2]	@ movhi
 1725 0094 1C1094E5 		ldr	r1, [r4, #28]
 1726 0098 B432D4E1 		ldrh	r3, [r4, #36]
 1727 009c 000051E3 		cmp	r1, #0
 1728 00a0 20809415 		ldrne	r8, [r4, #32]
 1729 00a4 B030C5E1 		strh	r3, [r5]	@ movhi
 1730 00a8 88814110 		subne	r8, r1, r8, lsl #3
 1731 00ac 0830A011 		movne	r3, r8
 1732 00b0 0200001A 		bne	.L165
 1733              	.L169:
 1734 00b4 FEFFFFEB 		bl	_ZNK11flatbuffers15vector_downward11scratch_endEv.isra.8.part.9
 1735              	.L164:
 1736 00b8 083083E2 		add	r3, r3, #8
 1737 00bc B02085E1 		strh	r2, [r5, r0]	@ movhi
 1738              	.L165:
 1739 00c0 010053E1 		cmp	r3, r1
 1740 00c4 0A00002A 		bcs	.L163
 1741 00c8 B400D3E1 		ldrh	r0, [r3, #4]
 1742 00cc 002093E5 		ldr	r2, [r3]
 1743 00d0 B0C095E1 		ldrh	ip, [r5, r0]
 1744 00d4 022046E0 		sub	r2, r6, r2
 1745 00d8 7220FFE6 		uxth	r2, r2
 1746 00dc 00005CE3 		cmp	ip, #0
 1747 00e0 F4FFFF0A 		beq	.L164
 1748 00e4 08319FE5 		ldr	r3, .L180+16
 1749 00e8 C71400E3 		movw	r1, #1223
 1750 00ec F4209FE5 		ldr	r2, .L180+4
 1751 00f0 C9FFFFEA 		b	.L179
 1752              	.L163:
 1753 00f4 0030A0E3 		mov	r3, #0
 1754 00f8 1C8084E5 		str	r8, [r4, #28]
 1755 00fc 203084E5 		str	r3, [r4, #32]
 1756 0100 0400A0E1 		mov	r0, r4
 1757 0104 B432C4E1 		strh	r3, [r4, #36]	@ movhi
 1758 0108 FEFFFFEB 		bl	_ZNK11flatbuffers15vector_downward4sizeEv
 1759 010c 2D30D4E5 		ldrb	r3, [r4, #45]	@ zero_extendqisi2
 1760 0110 0070A0E1 		mov	r7, r0
 1761 0114 000053E3 		cmp	r3, #0
 1762 0118 1D00000A 		beq	.L166
 1763 011c 149094E5 		ldr	r9, [r4, #20]
 1764 0120 000059E3 		cmp	r9, #0
 1765 0124 B030D511 		ldrhne	r3, [r5]
 1766 0128 09A0A011 		movne	r10, r9
 1767 012c C4309F05 		ldreq	r3, .L180+20
 1768 0130 C61FA003 		moveq	r1, #792
 1769 0134 C0209F05 		ldreq	r2, .L180+24
 1770 0138 B7FFFF0A 		beq	.L179
 1771              	.L168:
 1772 013c 000058E3 		cmp	r8, #0
 1773 0140 DBFFFF0A 		beq	.L169
 1774 0144 08005AE1 		cmp	r10, r8
 1775 0148 1100002A 		bcs	.L166
 1776 014c 04B09AE4 		ldr	fp, [r10], #4
 1777 0150 102094E5 		ldr	r2, [r4, #16]
 1778 0154 0B2042E0 		sub	r2, r2, fp
 1779 0158 020089E0 		add	r0, r9, r2
 1780 015c B22099E1 		ldrh	r2, [r9, r2]
 1781 0160 030052E1 		cmp	r2, r3
 1782 0164 F4FFFF1A 		bne	.L168
 1783 0168 0320A0E1 		mov	r2, r3
 1784 016c 0510A0E1 		mov	r1, r5
 1785 0170 04308DE5 		str	r3, [sp, #4]
 1786 0174 FEFFFFEB 		bl	memcmp
 1787 0178 000050E3 		cmp	r0, #0
 1788 017c 04309DE5 		ldr	r3, [sp, #4]
 1789 0180 EDFFFF1A 		bne	.L168
 1790 0184 067047E0 		sub	r7, r7, r6
 1791 0188 075085E0 		add	r5, r5, r7
 1792 018c 0B70A0E1 		mov	r7, fp
 1793 0190 185084E5 		str	r5, [r4, #24]
 1794              	.L166:
 1795 0194 0400A0E1 		mov	r0, r4
 1796 0198 FEFFFFEB 		bl	_ZNK11flatbuffers15vector_downward4sizeEv
 1797 019c 070050E1 		cmp	r0, r7
 1798 01a0 0500001A 		bne	.L171
 1799 01a4 0410A0E3 		mov	r1, #4
 1800 01a8 0400A0E1 		mov	r0, r4
 1801 01ac FEFFFFEB 		bl	_ZN11flatbuffers15vector_downward12ensure_spaceEj
 1802 01b0 1C3094E5 		ldr	r3, [r4, #28]
 1803 01b4 047083E4 		str	r7, [r3], #4
 1804 01b8 1C3084E5 		str	r3, [r4, #28]
 1805              	.L171:
 1806 01bc 103094E5 		ldr	r3, [r4, #16]
 1807 01c0 067047E0 		sub	r7, r7, r6
 1808 01c4 142094E5 		ldr	r2, [r4, #20]
 1809 01c8 0600A0E1 		mov	r0, r6
 1810 01cc 063043E0 		sub	r3, r3, r6
 1811 01d0 037082E7 		str	r7, [r2, r3]
 1812 01d4 0030A0E3 		mov	r3, #0
 1813 01d8 2630C4E5 		strb	r3, [r4, #38]
 1814 01dc 0CD08DE2 		add	sp, sp, #12
 1815              		@ sp needed
 1816 01e0 F08FBDE8 		pop	{r4, r5, r6, r7, r8, r9, r10, fp, pc}
 1817              	.L181:
 1818              		.align	2
 1819              	.L180:
 1820 01e4 00000000 		.word	.LC18
 1821 01e8 00000000 		.word	.LANCHOR14
 1822 01ec 14000000 		.word	.LC9
 1823 01f0 07000000 		.word	.LC19
 1824 01f4 23000000 		.word	.LC20
 1825 01f8 5C000000 		.word	.LC21
 1826 01fc 00000000 		.word	.LANCHOR15
 1827              		.fnend
 1829              		.section	.text._ZN11flatbuffers17FlatBufferBuilder11PushElementImEEmT_,"axG",%progbits,_ZN11flatbu
 1830              		.align	2
 1831              		.weak	_ZN11flatbuffers17FlatBufferBuilder11PushElementImEEmT_
 1832              		.syntax unified
 1833              		.arm
 1834              		.fpu neon
 1836              	_ZN11flatbuffers17FlatBufferBuilder11PushElementImEEmT_:
 1837              		.fnstart
 1838              	.LFB6357:
 1839              		@ args = 0, pretend = 0, frame = 0
 1840              		@ frame_needed = 0, uses_anonymous_args = 0
 1841 0000 70402DE9 		push	{r4, r5, r6, lr}
 1842              		.save {r4, r5, r6, lr}
 1843 0004 0040A0E1 		mov	r4, r0
 1844 0008 0150A0E1 		mov	r5, r1
 1845 000c 0410A0E3 		mov	r1, #4
 1846 0010 FEFFFFEB 		bl	_ZN11flatbuffers17FlatBufferBuilder5AlignEj
 1847 0014 0410A0E3 		mov	r1, #4
 1848 0018 0400A0E1 		mov	r0, r4
 1849 001c FEFFFFEB 		bl	_ZN11flatbuffers15vector_downward10make_spaceEj
 1850 0020 183094E5 		ldr	r3, [r4, #24]
 1851 0024 0400A0E1 		mov	r0, r4
 1852 0028 005083E5 		str	r5, [r3]
 1853 002c FEFFFFEB 		bl	_ZNK11flatbuffers15vector_downward4sizeEv
 1854 0030 7080BDE8 		pop	{r4, r5, r6, pc}
 1855              		.fnend
 1857              		.section	.text._ZN11flatbuffers17FlatBufferBuilder9EndVectorEj,"axG",%progbits,_ZN11flatbuffers17F
 1858              		.align	2
 1859              		.weak	_ZN11flatbuffers17FlatBufferBuilder9EndVectorEj
 1860              		.syntax unified
 1861              		.arm
 1862              		.fpu neon
 1864              	_ZN11flatbuffers17FlatBufferBuilder9EndVectorEj:
 1865              		.fnstart
 1866              	.LFB3613:
 1867              		@ args = 0, pretend = 0, frame = 0
 1868              		@ frame_needed = 0, uses_anonymous_args = 0
 1869 0000 2620D0E5 		ldrb	r2, [r0, #38]	@ zero_extendqisi2
 1870 0004 10402DE9 		push	{r4, lr}
 1871              		.save {r4, lr}
 1872 0008 000052E3 		cmp	r2, #0
 1873 000c 0400001A 		bne	.L185
 1874 0010 1C309FE5 		ldr	r3, .L187
 1875 0014 161DA0E3 		mov	r1, #1408
 1876 0018 18209FE5 		ldr	r2, .L187+4
 1877 001c 18009FE5 		ldr	r0, .L187+8
 1878 0020 FEFFFFEB 		bl	__assert_func
 1879              	.L185:
 1880 0024 0020A0E3 		mov	r2, #0
 1881 0028 2620C0E5 		strb	r2, [r0, #38]
 1882 002c FEFFFFEB 		bl	_ZN11flatbuffers17FlatBufferBuilder11PushElementImEEmT_
 1883 0030 1080BDE8 		pop	{r4, pc}
 1884              	.L188:
 1885              		.align	2
 1886              	.L187:
 1887 0034 00000000 		.word	.LC18
 1888 0038 00000000 		.word	.LANCHOR16
 1889 003c 14000000 		.word	.LC9
 1890              		.fnend
 1892              		.section	.text._ZN11flatbuffers17FlatBufferBuilder12CreateStringEPKc,"axG",%progbits,_ZN11flatbuff
 1893              		.align	2
 1894              		.weak	_ZN11flatbuffers17FlatBufferBuilder12CreateStringEPKc
 1895              		.syntax unified
 1896              		.arm
 1897              		.fpu neon
 1899              	_ZN11flatbuffers17FlatBufferBuilder12CreateStringEPKc:
 1900              		.fnstart
 1901              	.LFB3604:
 1902              		@ args = 0, pretend = 0, frame = 0
 1903              		@ frame_needed = 0, uses_anonymous_args = 0
 1904 0000 70402DE9 		push	{r4, r5, r6, lr}
 1905              		.save {r4, r5, r6, lr}
 1906 0004 0040A0E1 		mov	r4, r0
 1907 0008 0100A0E1 		mov	r0, r1
 1908 000c 0160A0E1 		mov	r6, r1
 1909 0010 FEFFFFEB 		bl	strlen
 1910 0014 0050A0E1 		mov	r5, r0
 1911 0018 0400A0E1 		mov	r0, r4
 1912 001c FEFFFFEB 		bl	_ZN11flatbuffers17FlatBufferBuilder9NotNestedEv
 1913 0020 0420A0E3 		mov	r2, #4
 1914 0024 011085E2 		add	r1, r5, #1
 1915 0028 0400A0E1 		mov	r0, r4
 1916 002c FEFFFFEB 		bl	_ZN11flatbuffers17FlatBufferBuilder8PreAlignEjj
 1917 0030 0400A0E1 		mov	r0, r4
 1918 0034 0110A0E3 		mov	r1, #1
 1919 0038 FEFFFFEB 		bl	_ZN11flatbuffers15vector_downward4fillEj
 1920 003c 0520A0E1 		mov	r2, r5
 1921 0040 0610A0E1 		mov	r1, r6
 1922 0044 0400A0E1 		mov	r0, r4
 1923 0048 FEFFFFEB 		bl	_ZN11flatbuffers15vector_downward4pushEPKhj
 1924 004c 0510A0E1 		mov	r1, r5
 1925 0050 0400A0E1 		mov	r0, r4
 1926 0054 FEFFFFEB 		bl	_ZN11flatbuffers17FlatBufferBuilder11PushElementImEEmT_
 1927 0058 0400A0E1 		mov	r0, r4
 1928 005c FEFFFFEB 		bl	_ZNK11flatbuffers15vector_downward4sizeEv
 1929 0060 7080BDE8 		pop	{r4, r5, r6, pc}
 1930              		.fnend
 1932              		.section	.text._ZN11flatbuffers17FlatBufferBuilder6FinishEmPKcb,"axG",%progbits,_ZN11flatbuffers17
 1933              		.align	2
 1934              		.weak	_ZN11flatbuffers17FlatBufferBuilder6FinishEmPKcb
 1935              		.syntax unified
 1936              		.arm
 1937              		.fpu neon
 1939              	_ZN11flatbuffers17FlatBufferBuilder6FinishEmPKcb:
 1940              		.fnstart
 1941              	.LFB3647:
 1942              		@ args = 0, pretend = 0, frame = 0
 1943              		@ frame_needed = 0, uses_anonymous_args = 0
 1944 0000 F0412DE9 		push	{r4, r5, r6, r7, r8, lr}
 1945              		.save {r4, r5, r6, r7, r8, lr}
 1946 0004 0040A0E1 		mov	r4, r0
 1947 0008 0170A0E1 		mov	r7, r1
 1948 000c 0250A0E1 		mov	r5, r2
 1949 0010 0360A0E1 		mov	r6, r3
 1950 0014 FEFFFFEB 		bl	_ZN11flatbuffers17FlatBufferBuilder9NotNestedEv
 1951 0018 143094E5 		ldr	r3, [r4, #20]
 1952 001c 000056E3 		cmp	r6, #0
 1953 0020 0810A013 		movne	r1, #8
 1954 0024 0410A003 		moveq	r1, #4
 1955 0028 000055E3 		cmp	r5, #0
 1956 002c 282094E5 		ldr	r2, [r4, #40]
 1957 0030 1C3084E5 		str	r3, [r4, #28]
 1958 0034 0430A013 		movne	r3, #4
 1959 0038 0030A003 		moveq	r3, #0
 1960 003c 0400A0E1 		mov	r0, r4
 1961 0040 031081E0 		add	r1, r1, r3
 1962 0044 FEFFFFEB 		bl	_ZN11flatbuffers17FlatBufferBuilder8PreAlignEjj
 1963 0048 000055E3 		cmp	r5, #0
 1964 004c 0C00000A 		beq	.L194
 1965 0050 0500A0E1 		mov	r0, r5
 1966 0054 FEFFFFEB 		bl	strlen
 1967 0058 040050E3 		cmp	r0, #4
 1968 005c 0020A0E1 		mov	r2, r0
 1969 0060 0400000A 		beq	.L195
 1970 0064 58309FE5 		ldr	r3, .L206
 1971 0068 3E1700E3 		movw	r1, #1854
 1972 006c 54209FE5 		ldr	r2, .L206+4
 1973 0070 54009FE5 		ldr	r0, .L206+8
 1974 0074 FEFFFFEB 		bl	__assert_func
 1975              	.L195:
 1976 0078 0510A0E1 		mov	r1, r5
 1977 007c 0400A0E1 		mov	r0, r4
 1978 0080 FEFFFFEB 		bl	_ZN11flatbuffers15vector_downward4pushEPKhj
 1979              	.L194:
 1980 0084 0710A0E1 		mov	r1, r7
 1981 0088 0400A0E1 		mov	r0, r4
 1982 008c FEFFFFEB 		bl	_ZN11flatbuffers17FlatBufferBuilder7ReferToEm
 1983 0090 0010A0E1 		mov	r1, r0
 1984 0094 0400A0E1 		mov	r0, r4
 1985 0098 FEFFFFEB 		bl	_ZN11flatbuffers17FlatBufferBuilder11PushElementImEEmT_
 1986 009c 000056E3 		cmp	r6, #0
 1987 00a0 0400000A 		beq	.L196
 1988 00a4 0400A0E1 		mov	r0, r4
 1989 00a8 FEFFFFEB 		bl	_ZNK11flatbuffers15vector_downward4sizeEv
 1990 00ac 0010A0E1 		mov	r1, r0
 1991 00b0 0400A0E1 		mov	r0, r4
 1992 00b4 FEFFFFEB 		bl	_ZN11flatbuffers17FlatBufferBuilder11PushElementImEEmT_
 1993              	.L196:
 1994 00b8 0130A0E3 		mov	r3, #1
 1995 00bc 2730C4E5 		strb	r3, [r4, #39]
 1996 00c0 F081BDE8 		pop	{r4, r5, r6, r7, r8, pc}
 1997              	.L207:
 1998              		.align	2
 1999              	.L206:
 2000 00c4 00000000 		.word	.LC22
 2001 00c8 00000000 		.word	.LANCHOR17
 2002 00cc 14000000 		.word	.LC9
 2003              		.fnend
 2005              		.section	.text._ZN11flatbuffers17FlatBufferBuilder10AddElementIhEEvtT_S2_,"axG",%progbits,_ZN11fla
 2006              		.align	2
 2007              		.weak	_ZN11flatbuffers17FlatBufferBuilder10AddElementIhEEvtT_S2_
 2008              		.syntax unified
 2009              		.arm
 2010              		.fpu neon
 2012              	_ZN11flatbuffers17FlatBufferBuilder10AddElementIhEEvtT_S2_:
 2013              		.fnstart
 2014              	.LFB6463:
 2015              		@ args = 0, pretend = 0, frame = 0
 2016              		@ frame_needed = 0, uses_anonymous_args = 0
 2017 0000 030052E1 		cmp	r2, r3
 2018 0004 0200001A 		bne	.L209
 2019 0008 2C30D0E5 		ldrb	r3, [r0, #44]	@ zero_extendqisi2
 2020 000c 000053E3 		cmp	r3, #0
 2021 0010 1EFF2F01 		bxeq	lr
 2022              	.L209:
 2023 0014 70402DE9 		push	{r4, r5, r6, lr}
 2024              		.save {r4, r5, r6, lr}
 2025 0018 0040A0E1 		mov	r4, r0
 2026 001c 0160A0E1 		mov	r6, r1
 2027 0020 0110A0E3 		mov	r1, #1
 2028 0024 0250A0E1 		mov	r5, r2
 2029 0028 FEFFFFEB 		bl	_ZN11flatbuffers17FlatBufferBuilder5AlignEj
 2030 002c 0110A0E3 		mov	r1, #1
 2031 0030 0400A0E1 		mov	r0, r4
 2032 0034 FEFFFFEB 		bl	_ZN11flatbuffers15vector_downward10make_spaceEj
 2033 0038 183094E5 		ldr	r3, [r4, #24]
 2034 003c 0400A0E1 		mov	r0, r4
 2035 0040 0050C3E5 		strb	r5, [r3]
 2036 0044 FEFFFFEB 		bl	_ZNK11flatbuffers15vector_downward4sizeEv
 2037 0048 0610A0E1 		mov	r1, r6
 2038 004c 0020A0E1 		mov	r2, r0
 2039 0050 0400A0E1 		mov	r0, r4
 2040 0054 FEFFFFEB 		bl	_ZN11flatbuffers17FlatBufferBuilder10TrackFieldEtm
 2041 0058 7080BDE8 		pop	{r4, r5, r6, pc}
 2042              		.fnend
 2044              		.section	.text._ZN11flatbuffers17FlatBufferBuilder10AddElementIlEEvtT_S2_,"axG",%progbits,_ZN11fla
 2045              		.align	2
 2046              		.weak	_ZN11flatbuffers17FlatBufferBuilder10AddElementIlEEvtT_S2_
 2047              		.syntax unified
 2048              		.arm
 2049              		.fpu neon
 2051              	_ZN11flatbuffers17FlatBufferBuilder10AddElementIlEEvtT_S2_:
 2052              		.fnstart
 2053              	.LFB6465:
 2054              		@ args = 0, pretend = 0, frame = 0
 2055              		@ frame_needed = 0, uses_anonymous_args = 0
 2056 0000 030052E1 		cmp	r2, r3
 2057 0004 0200001A 		bne	.L215
 2058 0008 2C30D0E5 		ldrb	r3, [r0, #44]	@ zero_extendqisi2
 2059 000c 000053E3 		cmp	r3, #0
 2060 0010 1EFF2F01 		bxeq	lr
 2061              	.L215:
 2062 0014 70402DE9 		push	{r4, r5, r6, lr}
 2063              		.save {r4, r5, r6, lr}
 2064 0018 0150A0E1 		mov	r5, r1
 2065 001c 0040A0E1 		mov	r4, r0
 2066 0020 0210A0E1 		mov	r1, r2
 2067 0024 FEFFFFEB 		bl	_ZN11flatbuffers17FlatBufferBuilder11PushElementIlEEmT_
 2068 0028 0510A0E1 		mov	r1, r5
 2069 002c 0020A0E1 		mov	r2, r0
 2070 0030 0400A0E1 		mov	r0, r4
 2071 0034 FEFFFFEB 		bl	_ZN11flatbuffers17FlatBufferBuilder10TrackFieldEtm
 2072 0038 7080BDE8 		pop	{r4, r5, r6, pc}
 2073              		.fnend
 2075              		.section	.text._ZN11flatbuffers17FlatBufferBuilder12CreateVectorIfEENS_6OffsetINS_6VectorIT_EEEERK
 2076              		.align	2
 2077              		.weak	_ZN11flatbuffers17FlatBufferBuilder12CreateVectorIfEENS_6OffsetINS_6VectorIT_EEEERKSt6vector
 2078              		.syntax unified
 2079              		.arm
 2080              		.fpu neon
 2082              	_ZN11flatbuffers17FlatBufferBuilder12CreateVectorIfEENS_6OffsetINS_6VectorIT_EEEERKSt6vectorIS4_SaI
 2083              		.fnstart
 2084              	.LFB6469:
 2085              		@ args = 0, pretend = 0, frame = 0
 2086              		@ frame_needed = 0, uses_anonymous_args = 0
 2087 0000 F0412DE9 		push	{r4, r5, r6, r7, r8, lr}
 2088              		.save {r4, r5, r6, r7, r8, lr}
 2089 0004 0420A0E3 		mov	r2, #4
 2090 0008 180091E8 		ldm	r1, {r3, r4}
 2091 000c 0050A0E1 		mov	r5, r0
 2092 0010 040053E1 		cmp	r3, r4
 2093 0014 034044E0 		sub	r4, r4, r3
 2094 0018 4461A0E1 		asr	r6, r4, #2
 2095 001c 0370A011 		movne	r7, r3
 2096 0020 0070A003 		moveq	r7, #0
 2097 0024 0610A0E1 		mov	r1, r6
 2098 0028 FEFFFFEB 		bl	_ZN11flatbuffers17FlatBufferBuilder11StartVectorEjj
 2099 002c 0710A0E1 		mov	r1, r7
 2100 0030 0500A0E1 		mov	r0, r5
 2101 0034 0420A0E1 		mov	r2, r4
 2102 0038 FEFFFFEB 		bl	_ZN11flatbuffers15vector_downward4pushEPKhj
 2103 003c 0610A0E1 		mov	r1, r6
 2104 0040 0500A0E1 		mov	r0, r5
 2105 0044 FEFFFFEB 		bl	_ZN11flatbuffers17FlatBufferBuilder9EndVectorEj
 2106 0048 F081BDE8 		pop	{r4, r5, r6, r7, r8, pc}
 2107              		.fnend
 2109              		.section	.text._ZN11flatbuffers17FlatBufferBuilder10AddElementIaEEvtT_S2_,"axG",%progbits,_ZN11fla
 2110              		.align	2
 2111              		.weak	_ZN11flatbuffers17FlatBufferBuilder10AddElementIaEEvtT_S2_
 2112              		.syntax unified
 2113              		.arm
 2114              		.fpu neon
 2116              	_ZN11flatbuffers17FlatBufferBuilder10AddElementIaEEvtT_S2_:
 2117              		.fnstart
 2118              	.LFB6487:
 2119              		@ args = 0, pretend = 0, frame = 0
 2120              		@ frame_needed = 0, uses_anonymous_args = 0
 2121 0000 030052E1 		cmp	r2, r3
 2122 0004 0200001A 		bne	.L225
 2123 0008 2C30D0E5 		ldrb	r3, [r0, #44]	@ zero_extendqisi2
 2124 000c 000053E3 		cmp	r3, #0
 2125 0010 1EFF2F01 		bxeq	lr
 2126              	.L225:
 2127 0014 70402DE9 		push	{r4, r5, r6, lr}
 2128              		.save {r4, r5, r6, lr}
 2129 0018 0040A0E1 		mov	r4, r0
 2130 001c 0160A0E1 		mov	r6, r1
 2131 0020 0110A0E3 		mov	r1, #1
 2132 0024 0250A0E1 		mov	r5, r2
 2133 0028 FEFFFFEB 		bl	_ZN11flatbuffers17FlatBufferBuilder5AlignEj
 2134 002c 0110A0E3 		mov	r1, #1
 2135 0030 0400A0E1 		mov	r0, r4
 2136 0034 FEFFFFEB 		bl	_ZN11flatbuffers15vector_downward10make_spaceEj
 2137 0038 183094E5 		ldr	r3, [r4, #24]
 2138 003c 0400A0E1 		mov	r0, r4
 2139 0040 0050C3E5 		strb	r5, [r3]
 2140 0044 FEFFFFEB 		bl	_ZNK11flatbuffers15vector_downward4sizeEv
 2141 0048 0610A0E1 		mov	r1, r6
 2142 004c 0020A0E1 		mov	r2, r0
 2143 0050 0400A0E1 		mov	r0, r4
 2144 0054 FEFFFFEB 		bl	_ZN11flatbuffers17FlatBufferBuilder10TrackFieldEtm
 2145 0058 7080BDE8 		pop	{r4, r5, r6, pc}
 2146              		.fnend
 2148              		.section	.text._ZN11flatbuffers17FlatBufferBuilder10AddElementImEEvtT_S2_,"axG",%progbits,_ZN11fla
 2149              		.align	2
 2150              		.weak	_ZN11flatbuffers17FlatBufferBuilder10AddElementImEEvtT_S2_
 2151              		.syntax unified
 2152              		.arm
 2153              		.fpu neon
 2155              	_ZN11flatbuffers17FlatBufferBuilder10AddElementImEEvtT_S2_:
 2156              		.fnstart
 2157              	.LFB6537:
 2158              		@ args = 0, pretend = 0, frame = 0
 2159              		@ frame_needed = 0, uses_anonymous_args = 0
 2160 0000 030052E1 		cmp	r2, r3
 2161 0004 0200001A 		bne	.L231
 2162 0008 2C30D0E5 		ldrb	r3, [r0, #44]	@ zero_extendqisi2
 2163 000c 000053E3 		cmp	r3, #0
 2164 0010 1EFF2F01 		bxeq	lr
 2165              	.L231:
 2166 0014 70402DE9 		push	{r4, r5, r6, lr}
 2167              		.save {r4, r5, r6, lr}
 2168 0018 0150A0E1 		mov	r5, r1
 2169 001c 0040A0E1 		mov	r4, r0
 2170 0020 0210A0E1 		mov	r1, r2
 2171 0024 FEFFFFEB 		bl	_ZN11flatbuffers17FlatBufferBuilder11PushElementImEEmT_
 2172 0028 0510A0E1 		mov	r1, r5
 2173 002c 0020A0E1 		mov	r2, r0
 2174 0030 0400A0E1 		mov	r0, r4
 2175 0034 FEFFFFEB 		bl	_ZN11flatbuffers17FlatBufferBuilder10TrackFieldEtm
 2176 0038 7080BDE8 		pop	{r4, r5, r6, pc}
 2177              		.fnend
 2179              		.section	.text._ZN11flatbuffers17FlatBufferBuilder9AddOffsetINS_6VectorIhEEEEvtNS_6OffsetIT_EE,"ax
 2180              		.align	2
 2181              		.weak	_ZN11flatbuffers17FlatBufferBuilder9AddOffsetINS_6VectorIhEEEEvtNS_6OffsetIT_EE
 2182              		.syntax unified
 2183              		.arm
 2184              		.fpu neon
 2186              	_ZN11flatbuffers17FlatBufferBuilder9AddOffsetINS_6VectorIhEEEEvtNS_6OffsetIT_EE:
 2187              		.fnstart
 2188              	.LFB6435:
 2189              		@ args = 0, pretend = 0, frame = 0
 2190              		@ frame_needed = 0, uses_anonymous_args = 0
 2191 0000 70402DE9 		push	{r4, r5, r6, lr}
 2192              		.save {r4, r5, r6, lr}
 2193 0004 0150A0E1 		mov	r5, r1
 2194 0008 001052E2 		subs	r1, r2, #0
 2195 000c 7080BD08 		popeq	{r4, r5, r6, pc}
 2196 0010 0040A0E1 		mov	r4, r0
 2197 0014 FEFFFFEB 		bl	_ZN11flatbuffers17FlatBufferBuilder7ReferToEm
 2198 0018 0030A0E3 		mov	r3, #0
 2199 001c 0020A0E1 		mov	r2, r0
 2200 0020 0510A0E1 		mov	r1, r5
 2201 0024 0400A0E1 		mov	r0, r4
 2202 0028 FEFFFFEB 		bl	_ZN11flatbuffers17FlatBufferBuilder10AddElementImEEvtT_S2_
 2203 002c 7080BDE8 		pop	{r4, r5, r6, pc}
 2204              		.fnend
 2206              		.section	.text._ZN6tflite12CreateBufferERN11flatbuffers17FlatBufferBuilderENS0_6OffsetINS0_6Vector
 2207              		.align	2
 2208              		.weak	_ZN6tflite12CreateBufferERN11flatbuffers17FlatBufferBuilderENS0_6OffsetINS0_6VectorIhEEEE
 2209              		.syntax unified
 2210              		.arm
 2211              		.fpu neon
 2213              	_ZN6tflite12CreateBufferERN11flatbuffers17FlatBufferBuilderENS0_6OffsetINS0_6VectorIhEEEE:
 2214              		.fnstart
 2215              	.LFB5518:
 2216              		@ args = 0, pretend = 0, frame = 0
 2217              		@ frame_needed = 0, uses_anonymous_args = 0
 2218 0000 70402DE9 		push	{r4, r5, r6, lr}
 2219              		.save {r4, r5, r6, lr}
 2220 0004 0040A0E1 		mov	r4, r0
 2221 0008 0160A0E1 		mov	r6, r1
 2222 000c FEFFFFEB 		bl	_ZN11flatbuffers17FlatBufferBuilder10StartTableEv
 2223 0010 0620A0E1 		mov	r2, r6
 2224 0014 0050A0E1 		mov	r5, r0
 2225 0018 0410A0E3 		mov	r1, #4
 2226 001c 0400A0E1 		mov	r0, r4
 2227 0020 FEFFFFEB 		bl	_ZN11flatbuffers17FlatBufferBuilder9AddOffsetINS_6VectorIhEEEEvtNS_6OffsetIT_EE
 2228 0024 0510A0E1 		mov	r1, r5
 2229 0028 0400A0E1 		mov	r0, r4
 2230 002c FEFFFFEB 		bl	_ZN11flatbuffers17FlatBufferBuilder8EndTableEm
 2231 0030 7080BDE8 		pop	{r4, r5, r6, pc}
 2232              		.fnend
 2234              		.section	.text._ZN11flatbuffers17FlatBufferBuilder9AddOffsetINS_6VectorIlEEEEvtNS_6OffsetIT_EE,"ax
 2235              		.align	2
 2236              		.weak	_ZN11flatbuffers17FlatBufferBuilder9AddOffsetINS_6VectorIlEEEEvtNS_6OffsetIT_EE
 2237              		.syntax unified
 2238              		.arm
 2239              		.fpu neon
 2241              	_ZN11flatbuffers17FlatBufferBuilder9AddOffsetINS_6VectorIlEEEEvtNS_6OffsetIT_EE:
 2242              		.fnstart
 2243              	.LFB6488:
 2244              		@ args = 0, pretend = 0, frame = 0
 2245              		@ frame_needed = 0, uses_anonymous_args = 0
 2246 0000 70402DE9 		push	{r4, r5, r6, lr}
 2247              		.save {r4, r5, r6, lr}
 2248 0004 0150A0E1 		mov	r5, r1
 2249 0008 001052E2 		subs	r1, r2, #0
 2250 000c 7080BD08 		popeq	{r4, r5, r6, pc}
 2251 0010 0040A0E1 		mov	r4, r0
 2252 0014 FEFFFFEB 		bl	_ZN11flatbuffers17FlatBufferBuilder7ReferToEm
 2253 0018 0030A0E3 		mov	r3, #0
 2254 001c 0020A0E1 		mov	r2, r0
 2255 0020 0510A0E1 		mov	r1, r5
 2256 0024 0400A0E1 		mov	r0, r4
 2257 0028 FEFFFFEB 		bl	_ZN11flatbuffers17FlatBufferBuilder10AddElementImEEvtT_S2_
 2258 002c 7080BDE8 		pop	{r4, r5, r6, pc}
 2259              		.fnend
 2261              		.section	.text._ZN11flatbuffers17FlatBufferBuilder9AddOffsetIvEEvtNS_6OffsetIT_EE,"axG",%progbits,
 2262              		.align	2
 2263              		.weak	_ZN11flatbuffers17FlatBufferBuilder9AddOffsetIvEEvtNS_6OffsetIT_EE
 2264              		.syntax unified
 2265              		.arm
 2266              		.fpu neon
 2268              	_ZN11flatbuffers17FlatBufferBuilder9AddOffsetIvEEvtNS_6OffsetIT_EE:
 2269              		.fnstart
 2270              	.LFB6464:
 2271              		@ args = 0, pretend = 0, frame = 0
 2272              		@ frame_needed = 0, uses_anonymous_args = 0
 2273 0000 70402DE9 		push	{r4, r5, r6, lr}
 2274              		.save {r4, r5, r6, lr}
 2275 0004 0150A0E1 		mov	r5, r1
 2276 0008 001052E2 		subs	r1, r2, #0
 2277 000c 7080BD08 		popeq	{r4, r5, r6, pc}
 2278 0010 0040A0E1 		mov	r4, r0
 2279 0014 FEFFFFEB 		bl	_ZN11flatbuffers17FlatBufferBuilder7ReferToEm
 2280 0018 0030A0E3 		mov	r3, #0
 2281 001c 0020A0E1 		mov	r2, r0
 2282 0020 0510A0E1 		mov	r1, r5
 2283 0024 0400A0E1 		mov	r0, r4
 2284 0028 FEFFFFEB 		bl	_ZN11flatbuffers17FlatBufferBuilder10AddElementImEEvtT_S2_
 2285 002c 7080BDE8 		pop	{r4, r5, r6, pc}
 2286              		.fnend
 2288              		.section	.text._ZN6tflite14CreateOperatorERN11flatbuffers17FlatBufferBuilderEmNS0_6OffsetINS0_6Vec
 2289              		.align	2
 2290              		.weak	_ZN6tflite14CreateOperatorERN11flatbuffers17FlatBufferBuilderEmNS0_6OffsetINS0_6VectorIlEEEE
 2291              		.syntax unified
 2292              		.arm
 2293              		.fpu neon
 2295              	_ZN6tflite14CreateOperatorERN11flatbuffers17FlatBufferBuilderEmNS0_6OffsetINS0_6VectorIlEEEES6_NS_1
 2296              		.fnstart
 2297              	.LFB5486:
 2298              		@ args = 24, pretend = 0, frame = 0
 2299              		@ frame_needed = 0, uses_anonymous_args = 0
 2300 0000 F0412DE9 		push	{r4, r5, r6, r7, r8, lr}
 2301              		.save {r4, r5, r6, r7, r8, lr}
 2302 0004 0040A0E1 		mov	r4, r0
 2303 0008 0380A0E1 		mov	r8, r3
 2304 000c 0160A0E1 		mov	r6, r1
 2305 0010 0270A0E1 		mov	r7, r2
 2306 0014 FEFFFFEB 		bl	_ZN11flatbuffers17FlatBufferBuilder10StartTableEv
 2307 0018 2C209DE5 		ldr	r2, [sp, #44]
 2308 001c 0050A0E1 		mov	r5, r0
 2309 0020 1410A0E3 		mov	r1, #20
 2310 0024 0400A0E1 		mov	r0, r4
 2311 0028 FEFFFFEB 		bl	_ZN11flatbuffers17FlatBufferBuilder9AddOffsetINS_6VectorIlEEEEvtNS_6OffsetIT_EE
 2312 002c 28209DE5 		ldr	r2, [sp, #40]
 2313 0030 0400A0E1 		mov	r0, r4
 2314 0034 1210A0E3 		mov	r1, #18
 2315 0038 FEFFFFEB 		bl	_ZN11flatbuffers17FlatBufferBuilder9AddOffsetINS_6VectorIhEEEEvtNS_6OffsetIT_EE
 2316 003c 20209DE5 		ldr	r2, [sp, #32]
 2317 0040 0400A0E1 		mov	r0, r4
 2318 0044 0E10A0E3 		mov	r1, #14
 2319 0048 FEFFFFEB 		bl	_ZN11flatbuffers17FlatBufferBuilder9AddOffsetINS_6VectorIhEEEEvtNS_6OffsetIT_EE
 2320 004c 1C209DE5 		ldr	r2, [sp, #28]
 2321 0050 0400A0E1 		mov	r0, r4
 2322 0054 0C10A0E3 		mov	r1, #12
 2323 0058 FEFFFFEB 		bl	_ZN11flatbuffers17FlatBufferBuilder9AddOffsetIvEEvtNS_6OffsetIT_EE
 2324 005c 0820A0E1 		mov	r2, r8
 2325 0060 0400A0E1 		mov	r0, r4
 2326 0064 0810A0E3 		mov	r1, #8
 2327 0068 FEFFFFEB 		bl	_ZN11flatbuffers17FlatBufferBuilder9AddOffsetINS_6VectorIlEEEEvtNS_6OffsetIT_EE
 2328 006c 0720A0E1 		mov	r2, r7
 2329 0070 0400A0E1 		mov	r0, r4
 2330 0074 0610A0E3 		mov	r1, #6
 2331 0078 FEFFFFEB 		bl	_ZN11flatbuffers17FlatBufferBuilder9AddOffsetINS_6VectorIlEEEEvtNS_6OffsetIT_EE
 2332 007c 0620A0E1 		mov	r2, r6
 2333 0080 0400A0E1 		mov	r0, r4
 2334 0084 0030A0E3 		mov	r3, #0
 2335 0088 0410A0E3 		mov	r1, #4
 2336 008c FEFFFFEB 		bl	_ZN11flatbuffers17FlatBufferBuilder10AddElementImEEvtT_S2_
 2337 0090 D422DDE1 		ldrsb	r2, [sp, #36]
 2338 0094 0400A0E1 		mov	r0, r4
 2339 0098 0030A0E3 		mov	r3, #0
 2340 009c 1010A0E3 		mov	r1, #16
 2341 00a0 FEFFFFEB 		bl	_ZN11flatbuffers17FlatBufferBuilder10AddElementIaEEvtT_S2_
 2342 00a4 0400A0E1 		mov	r0, r4
 2343 00a8 0030A0E3 		mov	r3, #0
 2344 00ac 1820DDE5 		ldrb	r2, [sp, #24]	@ zero_extendqisi2
 2345 00b0 0A10A0E3 		mov	r1, #10
 2346 00b4 FEFFFFEB 		bl	_ZN11flatbuffers17FlatBufferBuilder10AddElementIhEEvtT_S2_
 2347 00b8 0510A0E1 		mov	r1, r5
 2348 00bc 0400A0E1 		mov	r0, r4
 2349 00c0 FEFFFFEB 		bl	_ZN11flatbuffers17FlatBufferBuilder8EndTableEm
 2350 00c4 F081BDE8 		pop	{r4, r5, r6, r7, r8, pc}
 2351              		.fnend
 2353              		.section	.text._ZN11flatbuffers17FlatBufferBuilder9AddOffsetINS_6VectorIfEEEEvtNS_6OffsetIT_EE,"ax
 2354              		.align	2
 2355              		.weak	_ZN11flatbuffers17FlatBufferBuilder9AddOffsetINS_6VectorIfEEEEvtNS_6OffsetIT_EE
 2356              		.syntax unified
 2357              		.arm
 2358              		.fpu neon
 2360              	_ZN11flatbuffers17FlatBufferBuilder9AddOffsetINS_6VectorIfEEEEvtNS_6OffsetIT_EE:
 2361              		.fnstart
 2362              	.LFB6461:
 2363              		@ args = 0, pretend = 0, frame = 0
 2364              		@ frame_needed = 0, uses_anonymous_args = 0
 2365 0000 70402DE9 		push	{r4, r5, r6, lr}
 2366              		.save {r4, r5, r6, lr}
 2367 0004 0150A0E1 		mov	r5, r1
 2368 0008 001052E2 		subs	r1, r2, #0
 2369 000c 7080BD08 		popeq	{r4, r5, r6, pc}
 2370 0010 0040A0E1 		mov	r4, r0
 2371 0014 FEFFFFEB 		bl	_ZN11flatbuffers17FlatBufferBuilder7ReferToEm
 2372 0018 0030A0E3 		mov	r3, #0
 2373 001c 0020A0E1 		mov	r2, r0
 2374 0020 0510A0E1 		mov	r1, r5
 2375 0024 0400A0E1 		mov	r0, r4
 2376 0028 FEFFFFEB 		bl	_ZN11flatbuffers17FlatBufferBuilder10AddElementImEEvtT_S2_
 2377 002c 7080BDE8 		pop	{r4, r5, r6, pc}
 2378              		.fnend
 2380              		.section	.text._ZN6tflite28CreateQuantizationParametersERN11flatbuffers17FlatBufferBuilderENS0_6Of
 2381              		.align	2
 2382              		.weak	_ZN6tflite28CreateQuantizationParametersERN11flatbuffers17FlatBufferBuilderENS0_6OffsetINS0_
 2383              		.syntax unified
 2384              		.arm
 2385              		.fpu neon
 2387              	_ZN6tflite28CreateQuantizationParametersERN11flatbuffers17FlatBufferBuilderENS0_6OffsetINS0_6Vector
 2388              		.fnstart
 2389              	.LFB4023:
 2390              		@ args = 16, pretend = 0, frame = 0
 2391              		@ frame_needed = 0, uses_anonymous_args = 0
 2392 0000 F0472DE9 		push	{r4, r5, r6, r7, r8, r9, r10, lr}
 2393              		.save {r4, r5, r6, r7, r8, r9, r10, lr}
 2394 0004 0040A0E1 		mov	r4, r0
 2395 0008 20509DE5 		ldr	r5, [sp, #32]
 2396 000c 0170A0E1 		mov	r7, r1
 2397 0010 0280A0E1 		mov	r8, r2
 2398 0014 0390A0E1 		mov	r9, r3
 2399 0018 FEFFFFEB 		bl	_ZN11flatbuffers17FlatBufferBuilder10StartTableEv
 2400 001c 0030A0E3 		mov	r3, #0
 2401 0020 2C209DE5 		ldr	r2, [sp, #44]
 2402 0024 1010A0E3 		mov	r1, #16
 2403 0028 0060A0E1 		mov	r6, r0
 2404 002c 0400A0E1 		mov	r0, r4
 2405 0030 FEFFFFEB 		bl	_ZN11flatbuffers17FlatBufferBuilder10AddElementIlEEvtT_S2_
 2406 0034 28209DE5 		ldr	r2, [sp, #40]
 2407 0038 0E10A0E3 		mov	r1, #14
 2408 003c 0400A0E1 		mov	r0, r4
 2409 0040 FEFFFFEB 		bl	_ZN11flatbuffers17FlatBufferBuilder9AddOffsetIvEEvtNS_6OffsetIT_EE
 2410 0044 000055E3 		cmp	r5, #0
 2411 0048 0700000A 		beq	.L265
 2412 004c 0510A0E1 		mov	r1, r5
 2413 0050 0400A0E1 		mov	r0, r4
 2414 0054 FEFFFFEB 		bl	_ZN11flatbuffers17FlatBufferBuilder7ReferToEm
 2415 0058 0030A0E3 		mov	r3, #0
 2416 005c 0020A0E1 		mov	r2, r0
 2417 0060 0A10A0E3 		mov	r1, #10
 2418 0064 0400A0E1 		mov	r0, r4
 2419 0068 FEFFFFEB 		bl	_ZN11flatbuffers17FlatBufferBuilder10AddElementImEEvtT_S2_
 2420              	.L265:
 2421 006c 0920A0E1 		mov	r2, r9
 2422 0070 0400A0E1 		mov	r0, r4
 2423 0074 0810A0E3 		mov	r1, #8
 2424 0078 FEFFFFEB 		bl	_ZN11flatbuffers17FlatBufferBuilder9AddOffsetINS_6VectorIfEEEEvtNS_6OffsetIT_EE
 2425 007c 0820A0E1 		mov	r2, r8
 2426 0080 0400A0E1 		mov	r0, r4
 2427 0084 0610A0E3 		mov	r1, #6
 2428 0088 FEFFFFEB 		bl	_ZN11flatbuffers17FlatBufferBuilder9AddOffsetINS_6VectorIfEEEEvtNS_6OffsetIT_EE
 2429 008c 0720A0E1 		mov	r2, r7
 2430 0090 0400A0E1 		mov	r0, r4
 2431 0094 0410A0E3 		mov	r1, #4
 2432 0098 FEFFFFEB 		bl	_ZN11flatbuffers17FlatBufferBuilder9AddOffsetINS_6VectorIfEEEEvtNS_6OffsetIT_EE
 2433 009c 0400A0E1 		mov	r0, r4
 2434 00a0 0030A0E3 		mov	r3, #0
 2435 00a4 2420DDE5 		ldrb	r2, [sp, #36]	@ zero_extendqisi2
 2436 00a8 0C10A0E3 		mov	r1, #12
 2437 00ac FEFFFFEB 		bl	_ZN11flatbuffers17FlatBufferBuilder10AddElementIhEEvtT_S2_
 2438 00b0 0610A0E1 		mov	r1, r6
 2439 00b4 0400A0E1 		mov	r0, r4
 2440 00b8 FEFFFFEB 		bl	_ZN11flatbuffers17FlatBufferBuilder8EndTableEm
 2441 00bc F087BDE8 		pop	{r4, r5, r6, r7, r8, r9, r10, pc}
 2442              		.fnend
 2444              		.section	.text._ZN11flatbuffers17FlatBufferBuilder9AddOffsetINS_6StringEEEvtNS_6OffsetIT_EE,"axG",
 2445              		.align	2
 2446              		.weak	_ZN11flatbuffers17FlatBufferBuilder9AddOffsetINS_6StringEEEvtNS_6OffsetIT_EE
 2447              		.syntax unified
 2448              		.arm
 2449              		.fpu neon
 2451              	_ZN11flatbuffers17FlatBufferBuilder9AddOffsetINS_6StringEEEvtNS_6OffsetIT_EE:
 2452              		.fnstart
 2453              	.LFB6538:
 2454              		@ args = 0, pretend = 0, frame = 0
 2455              		@ frame_needed = 0, uses_anonymous_args = 0
 2456 0000 70402DE9 		push	{r4, r5, r6, lr}
 2457              		.save {r4, r5, r6, lr}
 2458 0004 0150A0E1 		mov	r5, r1
 2459 0008 001052E2 		subs	r1, r2, #0
 2460 000c 7080BD08 		popeq	{r4, r5, r6, pc}
 2461 0010 0040A0E1 		mov	r4, r0
 2462 0014 FEFFFFEB 		bl	_ZN11flatbuffers17FlatBufferBuilder7ReferToEm
 2463 0018 0030A0E3 		mov	r3, #0
 2464 001c 0020A0E1 		mov	r2, r0
 2465 0020 0510A0E1 		mov	r1, r5
 2466 0024 0400A0E1 		mov	r0, r4
 2467 0028 FEFFFFEB 		bl	_ZN11flatbuffers17FlatBufferBuilder10AddElementImEEvtT_S2_
 2468 002c 7080BDE8 		pop	{r4, r5, r6, pc}
 2469              		.fnend
 2471              		.section	.text._ZN6tflite14CreateSubGraphERN11flatbuffers17FlatBufferBuilderENS0_6OffsetINS0_6Vect
 2472              		.align	2
 2473              		.weak	_ZN6tflite14CreateSubGraphERN11flatbuffers17FlatBufferBuilderENS0_6OffsetINS0_6VectorINS3_IN
 2474              		.syntax unified
 2475              		.arm
 2476              		.fpu neon
 2478              	_ZN6tflite14CreateSubGraphERN11flatbuffers17FlatBufferBuilderENS0_6OffsetINS0_6VectorINS3_INS_6Tens
 2479              		.fnstart
 2480              	.LFB5506:
 2481              		@ args = 8, pretend = 0, frame = 0
 2482              		@ frame_needed = 0, uses_anonymous_args = 0
 2483 0000 F0472DE9 		push	{r4, r5, r6, r7, r8, r9, r10, lr}
 2484              		.save {r4, r5, r6, r7, r8, r9, r10, lr}
 2485 0004 0040A0E1 		mov	r4, r0
 2486 0008 20609DE5 		ldr	r6, [sp, #32]
 2487 000c 0150A0E1 		mov	r5, r1
 2488 0010 0280A0E1 		mov	r8, r2
 2489 0014 0390A0E1 		mov	r9, r3
 2490 0018 FEFFFFEB 		bl	_ZN11flatbuffers17FlatBufferBuilder10StartTableEv
 2491 001c 24209DE5 		ldr	r2, [sp, #36]
 2492 0020 0070A0E1 		mov	r7, r0
 2493 0024 0C10A0E3 		mov	r1, #12
 2494 0028 0400A0E1 		mov	r0, r4
 2495 002c FEFFFFEB 		bl	_ZN11flatbuffers17FlatBufferBuilder9AddOffsetINS_6StringEEEvtNS_6OffsetIT_EE
 2496 0030 000056E3 		cmp	r6, #0
 2497 0034 0700000A 		beq	.L277
 2498 0038 0610A0E1 		mov	r1, r6
 2499 003c 0400A0E1 		mov	r0, r4
 2500 0040 FEFFFFEB 		bl	_ZN11flatbuffers17FlatBufferBuilder7ReferToEm
 2501 0044 0030A0E3 		mov	r3, #0
 2502 0048 0020A0E1 		mov	r2, r0
 2503 004c 0A10A0E3 		mov	r1, #10
 2504 0050 0400A0E1 		mov	r0, r4
 2505 0054 FEFFFFEB 		bl	_ZN11flatbuffers17FlatBufferBuilder10AddElementImEEvtT_S2_
 2506              	.L277:
 2507 0058 0920A0E1 		mov	r2, r9
 2508 005c 0810A0E3 		mov	r1, #8
 2509 0060 0400A0E1 		mov	r0, r4
 2510 0064 FEFFFFEB 		bl	_ZN11flatbuffers17FlatBufferBuilder9AddOffsetINS_6VectorIlEEEEvtNS_6OffsetIT_EE
 2511 0068 0820A0E1 		mov	r2, r8
 2512 006c 0610A0E3 		mov	r1, #6
 2513 0070 0400A0E1 		mov	r0, r4
 2514 0074 FEFFFFEB 		bl	_ZN11flatbuffers17FlatBufferBuilder9AddOffsetINS_6VectorIlEEEEvtNS_6OffsetIT_EE
 2515 0078 000055E3 		cmp	r5, #0
 2516 007c 0700000A 		beq	.L278
 2517 0080 0510A0E1 		mov	r1, r5
 2518 0084 0400A0E1 		mov	r0, r4
 2519 0088 FEFFFFEB 		bl	_ZN11flatbuffers17FlatBufferBuilder7ReferToEm
 2520 008c 0030A0E3 		mov	r3, #0
 2521 0090 0020A0E1 		mov	r2, r0
 2522 0094 0410A0E3 		mov	r1, #4
 2523 0098 0400A0E1 		mov	r0, r4
 2524 009c FEFFFFEB 		bl	_ZN11flatbuffers17FlatBufferBuilder10AddElementImEEvtT_S2_
 2525              	.L278:
 2526 00a0 0710A0E1 		mov	r1, r7
 2527 00a4 0400A0E1 		mov	r0, r4
 2528 00a8 FEFFFFEB 		bl	_ZN11flatbuffers17FlatBufferBuilder8EndTableEm
 2529 00ac F087BDE8 		pop	{r4, r5, r6, r7, r8, r9, r10, pc}
 2530              		.fnend
 2532              		.section	.text._ZN6tflite24CreateOperatorCodeDirectERN11flatbuffers17FlatBufferBuilderENS_15Builti
 2533              		.align	2
 2534              		.weak	_ZN6tflite24CreateOperatorCodeDirectERN11flatbuffers17FlatBufferBuilderENS_15BuiltinOperator
 2535              		.syntax unified
 2536              		.arm
 2537              		.fpu neon
 2539              	_ZN6tflite24CreateOperatorCodeDirectERN11flatbuffers17FlatBufferBuilderENS_15BuiltinOperatorEPKcl:
 2540              		.fnstart
 2541              	.LFB5259:
 2542              		@ args = 0, pretend = 0, frame = 0
 2543              		@ frame_needed = 0, uses_anonymous_args = 0
 2544 0000 F0412DE9 		push	{r4, r5, r6, r7, r8, lr}
 2545              		.save {r4, r5, r6, r7, r8, lr}
 2546 0004 0170A0E1 		mov	r7, r1
 2547 0008 001052E2 		subs	r1, r2, #0
 2548 000c 0040A0E1 		mov	r4, r0
 2549 0010 0380A0E1 		mov	r8, r3
 2550 0014 0150A001 		moveq	r5, r1
 2551 0018 0100000A 		beq	.L287
 2552 001c FEFFFFEB 		bl	_ZN11flatbuffers17FlatBufferBuilder12CreateStringEPKc
 2553 0020 0050A0E1 		mov	r5, r0
 2554              	.L287:
 2555 0024 0400A0E1 		mov	r0, r4
 2556 0028 FEFFFFEB 		bl	_ZN11flatbuffers17FlatBufferBuilder10StartTableEv
 2557 002c 0130A0E3 		mov	r3, #1
 2558 0030 0060A0E1 		mov	r6, r0
 2559 0034 0820A0E1 		mov	r2, r8
 2560 0038 0400A0E1 		mov	r0, r4
 2561 003c 0810A0E3 		mov	r1, #8
 2562 0040 FEFFFFEB 		bl	_ZN11flatbuffers17FlatBufferBuilder10AddElementIlEEvtT_S2_
 2563 0044 0520A0E1 		mov	r2, r5
 2564 0048 0400A0E1 		mov	r0, r4
 2565 004c 0610A0E3 		mov	r1, #6
 2566 0050 FEFFFFEB 		bl	_ZN11flatbuffers17FlatBufferBuilder9AddOffsetINS_6StringEEEvtNS_6OffsetIT_EE
 2567 0054 0400A0E1 		mov	r0, r4
 2568 0058 0030A0E3 		mov	r3, #0
 2569 005c 7720AFE6 		sxtb	r2, r7
 2570 0060 0410A0E3 		mov	r1, #4
 2571 0064 FEFFFFEB 		bl	_ZN11flatbuffers17FlatBufferBuilder10AddElementIaEEvtT_S2_
 2572 0068 0610A0E1 		mov	r1, r6
 2573 006c 0400A0E1 		mov	r0, r4
 2574 0070 FEFFFFEB 		bl	_ZN11flatbuffers17FlatBufferBuilder8EndTableEm
 2575 0074 F081BDE8 		pop	{r4, r5, r6, r7, r8, pc}
 2576              		.fnend
 2578              		.section	.text._ZN6tflite12CreateTensorERN11flatbuffers17FlatBufferBuilderENS0_6OffsetINS0_6Vector
 2579              		.align	2
 2580              		.weak	_ZN6tflite12CreateTensorERN11flatbuffers17FlatBufferBuilderENS0_6OffsetINS0_6VectorIlEEEENS_
 2581              		.syntax unified
 2582              		.arm
 2583              		.fpu neon
 2585              	_ZN6tflite12CreateTensorERN11flatbuffers17FlatBufferBuilderENS0_6OffsetINS0_6VectorIlEEEENS_10Tenso
 2586              		.fnstart
 2587              	.LFB4125:
 2588              		@ args = 20, pretend = 0, frame = 0
 2589              		@ frame_needed = 0, uses_anonymous_args = 0
 2590 0000 F0472DE9 		push	{r4, r5, r6, r7, r8, r9, r10, lr}
 2591              		.save {r4, r5, r6, r7, r8, r9, r10, lr}
 2592 0004 0040A0E1 		mov	r4, r0
 2593 0008 2C609DE5 		ldr	r6, [sp, #44]
 2594 000c 0190A0E1 		mov	r9, r1
 2595 0010 0280A0E1 		mov	r8, r2
 2596 0014 03A0A0E1 		mov	r10, r3
 2597 0018 24509DE5 		ldr	r5, [sp, #36]
 2598 001c FEFFFFEB 		bl	_ZN11flatbuffers17FlatBufferBuilder10StartTableEv
 2599 0020 30209DE5 		ldr	r2, [sp, #48]
 2600 0024 0070A0E1 		mov	r7, r0
 2601 0028 1210A0E3 		mov	r1, #18
 2602 002c 0400A0E1 		mov	r0, r4
 2603 0030 FEFFFFEB 		bl	_ZN11flatbuffers17FlatBufferBuilder9AddOffsetINS_6VectorIlEEEEvtNS_6OffsetIT_EE
 2604 0034 000056E3 		cmp	r6, #0
 2605 0038 0700000A 		beq	.L291
 2606 003c 0610A0E1 		mov	r1, r6
 2607 0040 0400A0E1 		mov	r0, r4
 2608 0044 FEFFFFEB 		bl	_ZN11flatbuffers17FlatBufferBuilder7ReferToEm
 2609 0048 0030A0E3 		mov	r3, #0
 2610 004c 0020A0E1 		mov	r2, r0
 2611 0050 1010A0E3 		mov	r1, #16
 2612 0054 0400A0E1 		mov	r0, r4
 2613 0058 FEFFFFEB 		bl	_ZN11flatbuffers17FlatBufferBuilder10AddElementImEEvtT_S2_
 2614              	.L291:
 2615 005c 000055E3 		cmp	r5, #0
 2616 0060 0700000A 		beq	.L292
 2617 0064 0510A0E1 		mov	r1, r5
 2618 0068 0400A0E1 		mov	r0, r4
 2619 006c FEFFFFEB 		bl	_ZN11flatbuffers17FlatBufferBuilder7ReferToEm
 2620 0070 0030A0E3 		mov	r3, #0
 2621 0074 0020A0E1 		mov	r2, r0
 2622 0078 0C10A0E3 		mov	r1, #12
 2623 007c 0400A0E1 		mov	r0, r4
 2624 0080 FEFFFFEB 		bl	_ZN11flatbuffers17FlatBufferBuilder10AddElementImEEvtT_S2_
 2625              	.L292:
 2626 0084 20209DE5 		ldr	r2, [sp, #32]
 2627 0088 0400A0E1 		mov	r0, r4
 2628 008c 0A10A0E3 		mov	r1, #10
 2629 0090 FEFFFFEB 		bl	_ZN11flatbuffers17FlatBufferBuilder9AddOffsetINS_6StringEEEvtNS_6OffsetIT_EE
 2630 0094 0030A0E3 		mov	r3, #0
 2631 0098 0A20A0E1 		mov	r2, r10
 2632 009c 0400A0E1 		mov	r0, r4
 2633 00a0 0810A0E3 		mov	r1, #8
 2634 00a4 FEFFFFEB 		bl	_ZN11flatbuffers17FlatBufferBuilder10AddElementImEEvtT_S2_
 2635 00a8 0920A0E1 		mov	r2, r9
 2636 00ac 0400A0E1 		mov	r0, r4
 2637 00b0 0410A0E3 		mov	r1, #4
 2638 00b4 FEFFFFEB 		bl	_ZN11flatbuffers17FlatBufferBuilder9AddOffsetINS_6VectorIlEEEEvtNS_6OffsetIT_EE
 2639 00b8 2820DDE5 		ldrb	r2, [sp, #40]	@ zero_extendqisi2
 2640 00bc 0400A0E1 		mov	r0, r4
 2641 00c0 0030A0E3 		mov	r3, #0
 2642 00c4 0E10A0E3 		mov	r1, #14
 2643 00c8 FEFFFFEB 		bl	_ZN11flatbuffers17FlatBufferBuilder10AddElementIhEEvtT_S2_
 2644 00cc 0400A0E1 		mov	r0, r4
 2645 00d0 0030A0E3 		mov	r3, #0
 2646 00d4 7820AFE6 		sxtb	r2, r8
 2647 00d8 0610A0E3 		mov	r1, #6
 2648 00dc FEFFFFEB 		bl	_ZN11flatbuffers17FlatBufferBuilder10AddElementIaEEvtT_S2_
 2649 00e0 0710A0E1 		mov	r1, r7
 2650 00e4 0400A0E1 		mov	r0, r4
 2651 00e8 FEFFFFEB 		bl	_ZN11flatbuffers17FlatBufferBuilder8EndTableEm
 2652 00ec F087BDE8 		pop	{r4, r5, r6, r7, r8, r9, r10, pc}
 2653              		.fnend
 2655              		.section	.text._ZN6tflite11CreateModelERN11flatbuffers17FlatBufferBuilderEmNS0_6OffsetINS0_6Vector
 2656              		.align	2
 2657              		.weak	_ZN6tflite11CreateModelERN11flatbuffers17FlatBufferBuilderEmNS0_6OffsetINS0_6VectorINS3_INS_
 2658              		.syntax unified
 2659              		.arm
 2660              		.fpu neon
 2662              	_ZN6tflite11CreateModelERN11flatbuffers17FlatBufferBuilderEmNS0_6OffsetINS0_6VectorINS3_INS_12Opera
 2663              		.fnstart
 2664              	.LFB5556:
 2665              		@ args = 16, pretend = 0, frame = 0
 2666              		@ frame_needed = 0, uses_anonymous_args = 0
 2667 0000 F0472DE9 		push	{r4, r5, r6, r7, r8, r9, r10, lr}
 2668              		.save {r4, r5, r6, r7, r8, r9, r10, lr}
 2669 0004 0040A0E1 		mov	r4, r0
 2670 0008 2C809DE5 		ldr	r8, [sp, #44]
 2671 000c 01A0A0E1 		mov	r10, r1
 2672 0010 0250A0E1 		mov	r5, r2
 2673 0014 0360A0E1 		mov	r6, r3
 2674 0018 24709DE5 		ldr	r7, [sp, #36]
 2675 001c FEFFFFEB 		bl	_ZN11flatbuffers17FlatBufferBuilder10StartTableEv
 2676 0020 000058E3 		cmp	r8, #0
 2677 0024 0090A0E1 		mov	r9, r0
 2678 0028 0700000A 		beq	.L301
 2679 002c 0810A0E1 		mov	r1, r8
 2680 0030 0400A0E1 		mov	r0, r4
 2681 0034 FEFFFFEB 		bl	_ZN11flatbuffers17FlatBufferBuilder7ReferToEm
 2682 0038 0030A0E3 		mov	r3, #0
 2683 003c 0020A0E1 		mov	r2, r0
 2684 0040 1010A0E3 		mov	r1, #16
 2685 0044 0400A0E1 		mov	r0, r4
 2686 0048 FEFFFFEB 		bl	_ZN11flatbuffers17FlatBufferBuilder10AddElementImEEvtT_S2_
 2687              	.L301:
 2688 004c 28209DE5 		ldr	r2, [sp, #40]
 2689 0050 0E10A0E3 		mov	r1, #14
 2690 0054 0400A0E1 		mov	r0, r4
 2691 0058 FEFFFFEB 		bl	_ZN11flatbuffers17FlatBufferBuilder9AddOffsetINS_6VectorIlEEEEvtNS_6OffsetIT_EE
 2692 005c 000057E3 		cmp	r7, #0
 2693 0060 0700000A 		beq	.L302
 2694 0064 0710A0E1 		mov	r1, r7
 2695 0068 0400A0E1 		mov	r0, r4
 2696 006c FEFFFFEB 		bl	_ZN11flatbuffers17FlatBufferBuilder7ReferToEm
 2697 0070 0030A0E3 		mov	r3, #0
 2698 0074 0020A0E1 		mov	r2, r0
 2699 0078 0C10A0E3 		mov	r1, #12
 2700 007c 0400A0E1 		mov	r0, r4
 2701 0080 FEFFFFEB 		bl	_ZN11flatbuffers17FlatBufferBuilder10AddElementImEEvtT_S2_
 2702              	.L302:
 2703 0084 20209DE5 		ldr	r2, [sp, #32]
 2704 0088 0A10A0E3 		mov	r1, #10
 2705 008c 0400A0E1 		mov	r0, r4
 2706 0090 FEFFFFEB 		bl	_ZN11flatbuffers17FlatBufferBuilder9AddOffsetINS_6StringEEEvtNS_6OffsetIT_EE
 2707 0094 000056E3 		cmp	r6, #0
 2708 0098 0700000A 		beq	.L303
 2709 009c 0610A0E1 		mov	r1, r6
 2710 00a0 0400A0E1 		mov	r0, r4
 2711 00a4 FEFFFFEB 		bl	_ZN11flatbuffers17FlatBufferBuilder7ReferToEm
 2712 00a8 0030A0E3 		mov	r3, #0
 2713 00ac 0020A0E1 		mov	r2, r0
 2714 00b0 0810A0E3 		mov	r1, #8
 2715 00b4 0400A0E1 		mov	r0, r4
 2716 00b8 FEFFFFEB 		bl	_ZN11flatbuffers17FlatBufferBuilder10AddElementImEEvtT_S2_
 2717              	.L303:
 2718 00bc 000055E3 		cmp	r5, #0
 2719 00c0 0700000A 		beq	.L304
 2720 00c4 0510A0E1 		mov	r1, r5
 2721 00c8 0400A0E1 		mov	r0, r4
 2722 00cc FEFFFFEB 		bl	_ZN11flatbuffers17FlatBufferBuilder7ReferToEm
 2723 00d0 0030A0E3 		mov	r3, #0
 2724 00d4 0020A0E1 		mov	r2, r0
 2725 00d8 0610A0E3 		mov	r1, #6
 2726 00dc 0400A0E1 		mov	r0, r4
 2727 00e0 FEFFFFEB 		bl	_ZN11flatbuffers17FlatBufferBuilder10AddElementImEEvtT_S2_
 2728              	.L304:
 2729 00e4 0400A0E1 		mov	r0, r4
 2730 00e8 0030A0E3 		mov	r3, #0
 2731 00ec 0A20A0E1 		mov	r2, r10
 2732 00f0 0410A0E3 		mov	r1, #4
 2733 00f4 FEFFFFEB 		bl	_ZN11flatbuffers17FlatBufferBuilder10AddElementImEEvtT_S2_
 2734 00f8 0910A0E1 		mov	r1, r9
 2735 00fc 0400A0E1 		mov	r0, r4
 2736 0100 FEFFFFEB 		bl	_ZN11flatbuffers17FlatBufferBuilder8EndTableEm
 2737 0104 F087BDE8 		pop	{r4, r5, r6, r7, r8, r9, r10, pc}
 2738              		.fnend
 2740              		.section	.text._ZN11flatbuffers17FlatBufferBuilder12CreateVectorIhEENS_6OffsetINS_6VectorIT_EEEEPK
 2741              		.align	2
 2742              		.weak	_ZN11flatbuffers17FlatBufferBuilder12CreateVectorIhEENS_6OffsetINS_6VectorIT_EEEEPKS4_j
 2743              		.syntax unified
 2744              		.arm
 2745              		.fpu neon
 2747              	_ZN11flatbuffers17FlatBufferBuilder12CreateVectorIhEENS_6OffsetINS_6VectorIT_EEEEPKS4_j:
 2748              		.fnstart
 2749              	.LFB7568:
 2750              		@ args = 0, pretend = 0, frame = 0
 2751              		@ frame_needed = 0, uses_anonymous_args = 0
 2752 0000 70402DE9 		push	{r4, r5, r6, lr}
 2753              		.save {r4, r5, r6, lr}
 2754 0004 0240A0E1 		mov	r4, r2
 2755 0008 0050A0E1 		mov	r5, r0
 2756 000c 0160A0E1 		mov	r6, r1
 2757 0010 0120A0E3 		mov	r2, #1
 2758 0014 0410A0E1 		mov	r1, r4
 2759 0018 FEFFFFEB 		bl	_ZN11flatbuffers17FlatBufferBuilder11StartVectorEjj
 2760 001c 0610A0E1 		mov	r1, r6
 2761 0020 0500A0E1 		mov	r0, r5
 2762 0024 0420A0E1 		mov	r2, r4
 2763 0028 FEFFFFEB 		bl	_ZN11flatbuffers15vector_downward4pushEPKhj
 2764 002c 0410A0E1 		mov	r1, r4
 2765 0030 0500A0E1 		mov	r0, r5
 2766 0034 FEFFFFEB 		bl	_ZN11flatbuffers17FlatBufferBuilder9EndVectorEj
 2767 0038 7080BDE8 		pop	{r4, r5, r6, pc}
 2768              		.fnend
 2770              		.section	.text._ZN11flatbuffers17FlatBufferBuilder12CreateVectorIlEENS_6OffsetINS_6VectorIT_EEEEPK
 2771              		.align	2
 2772              		.weak	_ZN11flatbuffers17FlatBufferBuilder12CreateVectorIlEENS_6OffsetINS_6VectorIT_EEEEPKS4_j
 2773              		.syntax unified
 2774              		.arm
 2775              		.fpu neon
 2777              	_ZN11flatbuffers17FlatBufferBuilder12CreateVectorIlEENS_6OffsetINS_6VectorIT_EEEEPKS4_j:
 2778              		.fnstart
 2779              	.LFB7569:
 2780              		@ args = 0, pretend = 0, frame = 0
 2781              		@ frame_needed = 0, uses_anonymous_args = 0
 2782 0000 70402DE9 		push	{r4, r5, r6, lr}
 2783              		.save {r4, r5, r6, lr}
 2784 0004 0240A0E1 		mov	r4, r2
 2785 0008 0050A0E1 		mov	r5, r0
 2786 000c 0160A0E1 		mov	r6, r1
 2787 0010 0420A0E3 		mov	r2, #4
 2788 0014 0410A0E1 		mov	r1, r4
 2789 0018 FEFFFFEB 		bl	_ZN11flatbuffers17FlatBufferBuilder11StartVectorEjj
 2790 001c 0610A0E1 		mov	r1, r6
 2791 0020 0500A0E1 		mov	r0, r5
 2792 0024 0421A0E1 		lsl	r2, r4, #2
 2793 0028 FEFFFFEB 		bl	_ZN11flatbuffers15vector_downward4pushEPKhj
 2794 002c 0410A0E1 		mov	r1, r4
 2795 0030 0500A0E1 		mov	r0, r5
 2796 0034 FEFFFFEB 		bl	_ZN11flatbuffers17FlatBufferBuilder9EndVectorEj
 2797 0038 7080BDE8 		pop	{r4, r5, r6, pc}
 2798              		.fnend
 2800              		.section	.text._ZN6tflite7testing24Create1dFlatbufferTensorEib,"ax",%progbits
 2801              		.align	2
 2802              		.global	_ZN6tflite7testing24Create1dFlatbufferTensorEib
 2803              		.syntax unified
 2804              		.arm
 2805              		.fpu neon
 2807              	_ZN6tflite7testing24Create1dFlatbufferTensorEib:
 2808              		.fnstart
 2809              	.LFB6087:
 2810              		@ args = 0, pretend = 0, frame = 8
 2811              		@ frame_needed = 0, uses_anonymous_args = 0
 2812 0000 F0402DE9 		push	{r4, r5, r6, r7, lr}
 2813              		.save {r4, r5, r6, r7, lr}
 2814              		.pad #36
 2815 0004 24D04DE2 		sub	sp, sp, #36
 2816 0008 0170A0E1 		mov	r7, r1
 2817 000c 0040A0E1 		mov	r4, r0
 2818 0010 FEFFFFEB 		bl	_ZN6tflite7testing12_GLOBAL__N_115BuilderInstanceEv
 2819 0014 20108DE2 		add	r1, sp, #32
 2820 0018 0050A0E1 		mov	r5, r0
 2821 001c 044021E5 		str	r4, [r1, #-4]!
 2822 0020 0120A0E3 		mov	r2, #1
 2823 0024 FEFFFFEB 		bl	_ZN11flatbuffers17FlatBufferBuilder12CreateVectorIlEENS_6OffsetINS_6VectorIT_EEEEPKS4_j
 2824 0028 0040A0E3 		mov	r4, #0
 2825 002c 0060A0E1 		mov	r6, r0
 2826 0030 50109FE5 		ldr	r1, .L324
 2827 0034 0500A0E1 		mov	r0, r5
 2828 0038 FEFFFFEB 		bl	_ZN11flatbuffers17FlatBufferBuilder12CreateStringEPKc
 2829 003c 0430A0E1 		mov	r3, r4
 2830 0040 91008DE8 		stm	sp, {r0, r4, r7}
 2831 0044 0610A0E1 		mov	r1, r6
 2832 0048 10408DE5 		str	r4, [sp, #16]
 2833 004c 0220A0E3 		mov	r2, #2
 2834 0050 0500A0E1 		mov	r0, r5
 2835 0054 0C408DE5 		str	r4, [sp, #12]
 2836 0058 FEFFFFEB 		bl	_ZN6tflite12CreateTensorERN11flatbuffers17FlatBufferBuilderENS0_6OffsetINS0_6VectorIlEEEENS_10T
 2837 005c 0430A0E1 		mov	r3, r4
 2838 0060 0010A0E1 		mov	r1, r0
 2839 0064 0420A0E1 		mov	r2, r4
 2840 0068 0500A0E1 		mov	r0, r5
 2841 006c FEFFFFEB 		bl	_ZN11flatbuffers17FlatBufferBuilder6FinishEmPKcb
 2842 0070 0500A0E1 		mov	r0, r5
 2843 0074 FEFFFFEB 		bl	_ZNK11flatbuffers17FlatBufferBuilder16GetBufferPointerEv
 2844 0078 003090E5 		ldr	r3, [r0]
 2845 007c 030080E0 		add	r0, r0, r3
 2846 0080 24D08DE2 		add	sp, sp, #36
 2847              		@ sp needed
 2848 0084 F080BDE8 		pop	{r4, r5, r6, r7, pc}
 2849              	.L325:
 2850              		.align	2
 2851              	.L324:
 2852 0088 00000000 		.word	.LC23
 2853              		.fnend
 2855              		.section	.text._ZN6tflite7testing41CreateMissingQuantizationFlatbufferTensorEi,"ax",%progbits
 2856              		.align	2
 2857              		.global	_ZN6tflite7testing41CreateMissingQuantizationFlatbufferTensorEi
 2858              		.syntax unified
 2859              		.arm
 2860              		.fpu neon
 2862              	_ZN6tflite7testing41CreateMissingQuantizationFlatbufferTensorEi:
 2863              		.fnstart
 2864              	.LFB6089:
 2865              		@ args = 0, pretend = 0, frame = 8
 2866              		@ frame_needed = 0, uses_anonymous_args = 0
 2867 0000 F0402DE9 		push	{r4, r5, r6, r7, lr}
 2868              		.save {r4, r5, r6, r7, lr}
 2869 0004 0040A0E3 		mov	r4, #0
 2870              		.pad #36
 2871 0008 24D04DE2 		sub	sp, sp, #36
 2872 000c 0060A0E1 		mov	r6, r0
 2873 0010 FEFFFFEB 		bl	_ZN6tflite7testing12_GLOBAL__N_115BuilderInstanceEv
 2874 0014 0430A0E1 		mov	r3, r4
 2875 0018 0420A0E1 		mov	r2, r4
 2876 001c 0410A0E1 		mov	r1, r4
 2877 0020 0C408DE5 		str	r4, [sp, #12]
 2878 0024 08408DE5 		str	r4, [sp, #8]
 2879 0028 0050A0E1 		mov	r5, r0
 2880 002c 04408DE5 		str	r4, [sp, #4]
 2881 0030 00408DE5 		str	r4, [sp]
 2882 0034 FEFFFFEB 		bl	_ZN6tflite28CreateQuantizationParametersERN11flatbuffers17FlatBufferBuilderENS0_6OffsetINS0_6Ve
 2883 0038 20108DE2 		add	r1, sp, #32
 2884 003c 0070A0E1 		mov	r7, r0
 2885 0040 046021E5 		str	r6, [r1, #-4]!
 2886 0044 0120A0E3 		mov	r2, #1
 2887 0048 0500A0E1 		mov	r0, r5
 2888 004c FEFFFFEB 		bl	_ZN11flatbuffers17FlatBufferBuilder12CreateVectorIlEENS_6OffsetINS_6VectorIT_EEEEPKS4_j
 2889 0050 58109FE5 		ldr	r1, .L328
 2890 0054 0060A0E1 		mov	r6, r0
 2891 0058 0500A0E1 		mov	r0, r5
 2892 005c FEFFFFEB 		bl	_ZN11flatbuffers17FlatBufferBuilder12CreateStringEPKc
 2893 0060 0430A0E1 		mov	r3, r4
 2894 0064 81008DE8 		stm	sp, {r0, r7}
 2895 0068 0610A0E1 		mov	r1, r6
 2896 006c 10408DE5 		str	r4, [sp, #16]
 2897 0070 0C408DE5 		str	r4, [sp, #12]
 2898 0074 0220A0E3 		mov	r2, #2
 2899 0078 08408DE5 		str	r4, [sp, #8]
 2900 007c 0500A0E1 		mov	r0, r5
 2901 0080 FEFFFFEB 		bl	_ZN6tflite12CreateTensorERN11flatbuffers17FlatBufferBuilderENS0_6OffsetINS0_6VectorIlEEEENS_10T
 2902 0084 0430A0E1 		mov	r3, r4
 2903 0088 0010A0E1 		mov	r1, r0
 2904 008c 0420A0E1 		mov	r2, r4
 2905 0090 0500A0E1 		mov	r0, r5
 2906 0094 FEFFFFEB 		bl	_ZN11flatbuffers17FlatBufferBuilder6FinishEmPKcb
 2907 0098 0500A0E1 		mov	r0, r5
 2908 009c FEFFFFEB 		bl	_ZNK11flatbuffers17FlatBufferBuilder16GetBufferPointerEv
 2909 00a0 003090E5 		ldr	r3, [r0]
 2910 00a4 030080E0 		add	r0, r0, r3
 2911 00a8 24D08DE2 		add	sp, sp, #36
 2912              		@ sp needed
 2913 00ac F080BDE8 		pop	{r4, r5, r6, r7, pc}
 2914              	.L329:
 2915              		.align	2
 2916              	.L328:
 2917 00b0 00000000 		.word	.LC23
 2918              		.fnend
 2920              		.section	.text._ZN11flatbuffers17FlatBufferBuilder12CreateVectorIN6tflite6TensorEEENS_6OffsetINS_6
 2921              		.align	2
 2922              		.weak	_ZN11flatbuffers17FlatBufferBuilder12CreateVectorIN6tflite6TensorEEENS_6OffsetINS_6VectorINS
 2923              		.syntax unified
 2924              		.arm
 2925              		.fpu neon
 2927              	_ZN11flatbuffers17FlatBufferBuilder12CreateVectorIN6tflite6TensorEEENS_6OffsetINS_6VectorINS4_IT_EE
 2928              		.fnstart
 2929              	.LFB7570:
 2930              		@ args = 0, pretend = 0, frame = 0
 2931              		@ frame_needed = 0, uses_anonymous_args = 0
 2932 0000 F0412DE9 		push	{r4, r5, r6, r7, r8, lr}
 2933              		.save {r4, r5, r6, r7, r8, lr}
 2934 0004 0260A0E1 		mov	r6, r2
 2935 0008 0640A0E1 		mov	r4, r6
 2936 000c 0170A0E1 		mov	r7, r1
 2937 0010 0420A0E3 		mov	r2, #4
 2938 0014 0610A0E1 		mov	r1, r6
 2939 0018 0050A0E1 		mov	r5, r0
 2940 001c FEFFFFEB 		bl	_ZN11flatbuffers17FlatBufferBuilder11StartVectorEjj
 2941              	.L332:
 2942 0020 000054E3 		cmp	r4, #0
 2943 0024 0700000A 		beq	.L331
 2944 0028 014044E2 		sub	r4, r4, #1
 2945 002c 0500A0E1 		mov	r0, r5
 2946 0030 041197E7 		ldr	r1, [r7, r4, lsl #2]
 2947 0034 FEFFFFEB 		bl	_ZN11flatbuffers17FlatBufferBuilder7ReferToEm
 2948 0038 0010A0E1 		mov	r1, r0
 2949 003c 0500A0E1 		mov	r0, r5
 2950 0040 FEFFFFEB 		bl	_ZN11flatbuffers17FlatBufferBuilder11PushElementImEEmT_
 2951 0044 F5FFFFEA 		b	.L332
 2952              	.L331:
 2953 0048 0610A0E1 		mov	r1, r6
 2954 004c 0500A0E1 		mov	r0, r5
 2955 0050 FEFFFFEB 		bl	_ZN11flatbuffers17FlatBufferBuilder9EndVectorEj
 2956 0054 F081BDE8 		pop	{r4, r5, r6, r7, r8, pc}
 2957              		.fnend
 2959              		.section	.text._ZN11flatbuffers17FlatBufferBuilder12CreateVectorIN6tflite8OperatorEEENS_6OffsetINS
 2960              		.align	2
 2961              		.weak	_ZN11flatbuffers17FlatBufferBuilder12CreateVectorIN6tflite8OperatorEEENS_6OffsetINS_6VectorI
 2962              		.syntax unified
 2963              		.arm
 2964              		.fpu neon
 2966              	_ZN11flatbuffers17FlatBufferBuilder12CreateVectorIN6tflite8OperatorEEENS_6OffsetINS_6VectorINS4_IT_
 2967              		.fnstart
 2968              	.LFB7571:
 2969              		@ args = 0, pretend = 0, frame = 0
 2970              		@ frame_needed = 0, uses_anonymous_args = 0
 2971 0000 F0412DE9 		push	{r4, r5, r6, r7, r8, lr}
 2972              		.save {r4, r5, r6, r7, r8, lr}
 2973 0004 0260A0E1 		mov	r6, r2
 2974 0008 0640A0E1 		mov	r4, r6
 2975 000c 0170A0E1 		mov	r7, r1
 2976 0010 0420A0E3 		mov	r2, #4
 2977 0014 0610A0E1 		mov	r1, r6
 2978 0018 0050A0E1 		mov	r5, r0
 2979 001c FEFFFFEB 		bl	_ZN11flatbuffers17FlatBufferBuilder11StartVectorEjj
 2980              	.L336:
 2981 0020 000054E3 		cmp	r4, #0
 2982 0024 0700000A 		beq	.L335
 2983 0028 014044E2 		sub	r4, r4, #1
 2984 002c 0500A0E1 		mov	r0, r5
 2985 0030 041197E7 		ldr	r1, [r7, r4, lsl #2]
 2986 0034 FEFFFFEB 		bl	_ZN11flatbuffers17FlatBufferBuilder7ReferToEm
 2987 0038 0010A0E1 		mov	r1, r0
 2988 003c 0500A0E1 		mov	r0, r5
 2989 0040 FEFFFFEB 		bl	_ZN11flatbuffers17FlatBufferBuilder11PushElementImEEmT_
 2990 0044 F5FFFFEA 		b	.L336
 2991              	.L335:
 2992 0048 0610A0E1 		mov	r1, r6
 2993 004c 0500A0E1 		mov	r0, r5
 2994 0050 FEFFFFEB 		bl	_ZN11flatbuffers17FlatBufferBuilder9EndVectorEj
 2995 0054 F081BDE8 		pop	{r4, r5, r6, r7, r8, pc}
 2996              		.fnend
 2998              		.section	.text._ZN11flatbuffers17FlatBufferBuilder12CreateVectorIN6tflite12OperatorCodeEEENS_6Offs
 2999              		.align	2
 3000              		.weak	_ZN11flatbuffers17FlatBufferBuilder12CreateVectorIN6tflite12OperatorCodeEEENS_6OffsetINS_6Ve
 3001              		.syntax unified
 3002              		.arm
 3003              		.fpu neon
 3005              	_ZN11flatbuffers17FlatBufferBuilder12CreateVectorIN6tflite12OperatorCodeEEENS_6OffsetINS_6VectorINS
 3006              		.fnstart
 3007              	.LFB7572:
 3008              		@ args = 0, pretend = 0, frame = 0
 3009              		@ frame_needed = 0, uses_anonymous_args = 0
 3010 0000 F0412DE9 		push	{r4, r5, r6, r7, r8, lr}
 3011              		.save {r4, r5, r6, r7, r8, lr}
 3012 0004 0260A0E1 		mov	r6, r2
 3013 0008 0640A0E1 		mov	r4, r6
 3014 000c 0170A0E1 		mov	r7, r1
 3015 0010 0420A0E3 		mov	r2, #4
 3016 0014 0610A0E1 		mov	r1, r6
 3017 0018 0050A0E1 		mov	r5, r0
 3018 001c FEFFFFEB 		bl	_ZN11flatbuffers17FlatBufferBuilder11StartVectorEjj
 3019              	.L340:
 3020 0020 000054E3 		cmp	r4, #0
 3021 0024 0700000A 		beq	.L339
 3022 0028 014044E2 		sub	r4, r4, #1
 3023 002c 0500A0E1 		mov	r0, r5
 3024 0030 041197E7 		ldr	r1, [r7, r4, lsl #2]
 3025 0034 FEFFFFEB 		bl	_ZN11flatbuffers17FlatBufferBuilder7ReferToEm
 3026 0038 0010A0E1 		mov	r1, r0
 3027 003c 0500A0E1 		mov	r0, r5
 3028 0040 FEFFFFEB 		bl	_ZN11flatbuffers17FlatBufferBuilder11PushElementImEEmT_
 3029 0044 F5FFFFEA 		b	.L340
 3030              	.L339:
 3031 0048 0610A0E1 		mov	r1, r6
 3032 004c 0500A0E1 		mov	r0, r5
 3033 0050 FEFFFFEB 		bl	_ZN11flatbuffers17FlatBufferBuilder9EndVectorEj
 3034 0054 F081BDE8 		pop	{r4, r5, r6, r7, r8, pc}
 3035              		.fnend
 3037              		.section	.text._ZN11flatbuffers17FlatBufferBuilder12CreateVectorIN6tflite8SubGraphEEENS_6OffsetINS
 3038              		.align	2
 3039              		.weak	_ZN11flatbuffers17FlatBufferBuilder12CreateVectorIN6tflite8SubGraphEEENS_6OffsetINS_6VectorI
 3040              		.syntax unified
 3041              		.arm
 3042              		.fpu neon
 3044              	_ZN11flatbuffers17FlatBufferBuilder12CreateVectorIN6tflite8SubGraphEEENS_6OffsetINS_6VectorINS4_IT_
 3045              		.fnstart
 3046              	.LFB7573:
 3047              		@ args = 0, pretend = 0, frame = 0
 3048              		@ frame_needed = 0, uses_anonymous_args = 0
 3049 0000 F0412DE9 		push	{r4, r5, r6, r7, r8, lr}
 3050              		.save {r4, r5, r6, r7, r8, lr}
 3051 0004 0260A0E1 		mov	r6, r2
 3052 0008 0640A0E1 		mov	r4, r6
 3053 000c 0170A0E1 		mov	r7, r1
 3054 0010 0420A0E3 		mov	r2, #4
 3055 0014 0610A0E1 		mov	r1, r6
 3056 0018 0050A0E1 		mov	r5, r0
 3057 001c FEFFFFEB 		bl	_ZN11flatbuffers17FlatBufferBuilder11StartVectorEjj
 3058              	.L344:
 3059 0020 000054E3 		cmp	r4, #0
 3060 0024 0700000A 		beq	.L343
 3061 0028 014044E2 		sub	r4, r4, #1
 3062 002c 0500A0E1 		mov	r0, r5
 3063 0030 041197E7 		ldr	r1, [r7, r4, lsl #2]
 3064 0034 FEFFFFEB 		bl	_ZN11flatbuffers17FlatBufferBuilder7ReferToEm
 3065 0038 0010A0E1 		mov	r1, r0
 3066 003c 0500A0E1 		mov	r0, r5
 3067 0040 FEFFFFEB 		bl	_ZN11flatbuffers17FlatBufferBuilder11PushElementImEEmT_
 3068 0044 F5FFFFEA 		b	.L344
 3069              	.L343:
 3070 0048 0610A0E1 		mov	r1, r6
 3071 004c 0500A0E1 		mov	r0, r5
 3072 0050 FEFFFFEB 		bl	_ZN11flatbuffers17FlatBufferBuilder9EndVectorEj
 3073 0054 F081BDE8 		pop	{r4, r5, r6, r7, r8, pc}
 3074              		.fnend
 3076              		.section	.text._ZN11flatbuffers17FlatBufferBuilder12CreateVectorIN6tflite6BufferEEENS_6OffsetINS_6
 3077              		.align	2
 3078              		.weak	_ZN11flatbuffers17FlatBufferBuilder12CreateVectorIN6tflite6BufferEEENS_6OffsetINS_6VectorINS
 3079              		.syntax unified
 3080              		.arm
 3081              		.fpu neon
 3083              	_ZN11flatbuffers17FlatBufferBuilder12CreateVectorIN6tflite6BufferEEENS_6OffsetINS_6VectorINS4_IT_EE
 3084              		.fnstart
 3085              	.LFB7574:
 3086              		@ args = 0, pretend = 0, frame = 0
 3087              		@ frame_needed = 0, uses_anonymous_args = 0
 3088 0000 F0412DE9 		push	{r4, r5, r6, r7, r8, lr}
 3089              		.save {r4, r5, r6, r7, r8, lr}
 3090 0004 0260A0E1 		mov	r6, r2
 3091 0008 0640A0E1 		mov	r4, r6
 3092 000c 0170A0E1 		mov	r7, r1
 3093 0010 0420A0E3 		mov	r2, #4
 3094 0014 0610A0E1 		mov	r1, r6
 3095 0018 0050A0E1 		mov	r5, r0
 3096 001c FEFFFFEB 		bl	_ZN11flatbuffers17FlatBufferBuilder11StartVectorEjj
 3097              	.L348:
 3098 0020 000054E3 		cmp	r4, #0
 3099 0024 0700000A 		beq	.L347
 3100 0028 014044E2 		sub	r4, r4, #1
 3101 002c 0500A0E1 		mov	r0, r5
 3102 0030 041197E7 		ldr	r1, [r7, r4, lsl #2]
 3103 0034 FEFFFFEB 		bl	_ZN11flatbuffers17FlatBufferBuilder7ReferToEm
 3104 0038 0010A0E1 		mov	r1, r0
 3105 003c 0500A0E1 		mov	r0, r5
 3106 0040 FEFFFFEB 		bl	_ZN11flatbuffers17FlatBufferBuilder11PushElementImEEmT_
 3107 0044 F5FFFFEA 		b	.L348
 3108              	.L347:
 3109 0048 0610A0E1 		mov	r1, r6
 3110 004c 0500A0E1 		mov	r0, r5
 3111 0050 FEFFFFEB 		bl	_ZN11flatbuffers17FlatBufferBuilder9EndVectorEj
 3112 0054 F081BDE8 		pop	{r4, r5, r6, r7, r8, pc}
 3113              		.fnend
 3115              		.section	.text._ZN6tflite7testing23CreateFlatbufferBuffersEv,"ax",%progbits
 3116              		.align	2
 3117              		.global	_ZN6tflite7testing23CreateFlatbufferBuffersEv
 3118              		.syntax unified
 3119              		.arm
 3120              		.fpu neon
 3122              	_ZN6tflite7testing23CreateFlatbufferBuffersEv:
 3123              		.fnstart
 3124              	.LFB6090:
 3125              		@ args = 0, pretend = 0, frame = 8
 3126              		@ frame_needed = 0, uses_anonymous_args = 0
 3127 0000 37402DE9 		push	{r0, r1, r2, r4, r5, lr}
 3128              		.save {r4, r5, lr}
 3129              		.pad #12
 3130 0004 0050A0E3 		mov	r5, #0
 3131 0008 FEFFFFEB 		bl	_ZN6tflite7testing12_GLOBAL__N_115BuilderInstanceEv
 3132 000c 0510A0E1 		mov	r1, r5
 3133 0010 0040A0E1 		mov	r4, r0
 3134 0014 FEFFFFEB 		bl	_ZN6tflite12CreateBufferERN11flatbuffers17FlatBufferBuilderENS0_6OffsetINS0_6VectorIhEEEE
 3135 0018 08108DE2 		add	r1, sp, #8
 3136 001c 0120A0E3 		mov	r2, #1
 3137 0020 040021E5 		str	r0, [r1, #-4]!
 3138 0024 0400A0E1 		mov	r0, r4
 3139 0028 FEFFFFEB 		bl	_ZN11flatbuffers17FlatBufferBuilder12CreateVectorIN6tflite6BufferEEENS_6OffsetINS_6VectorINS4_I
 3140 002c 0530A0E1 		mov	r3, r5
 3141 0030 0010A0E1 		mov	r1, r0
 3142 0034 0520A0E1 		mov	r2, r5
 3143 0038 0400A0E1 		mov	r0, r4
 3144 003c FEFFFFEB 		bl	_ZN11flatbuffers17FlatBufferBuilder6FinishEmPKcb
 3145 0040 0400A0E1 		mov	r0, r4
 3146 0044 FEFFFFEB 		bl	_ZNK11flatbuffers17FlatBufferBuilder16GetBufferPointerEv
 3147 0048 003090E5 		ldr	r3, [r0]
 3148 004c 030080E0 		add	r0, r0, r3
 3149 0050 0CD08DE2 		add	sp, sp, #12
 3150              		@ sp needed
 3151 0054 3080BDE8 		pop	{r4, r5, pc}
 3152              		.fnend
 3154              		.section	.text._ZN6tflite7testing18GetSimpleMockModelEv,"ax",%progbits
 3155              		.align	2
 3156              		.global	_ZN6tflite7testing18GetSimpleMockModelEv
 3157              		.syntax unified
 3158              		.arm
 3159              		.fpu neon
 3161              	_ZN6tflite7testing18GetSimpleMockModelEv:
 3162              		.fnstart
 3163              	.LFB6085:
 3164              		@ args = 0, pretend = 0, frame = 88
 3165              		@ frame_needed = 0, uses_anonymous_args = 0
 3166 0000 F04F2DE9 		push	{r4, r5, r6, r7, r8, r9, r10, fp, lr}
 3167              		.save {r4, r5, r6, r7, r8, r9, r10, fp, lr}
 3168              		.pad #116
 3169 0004 74D04DE2 		sub	sp, sp, #116
 3170 0008 70839FE5 		ldr	r8, .L355
 3171 000c 004098E5 		ldr	r4, [r8]
 3172 0010 000054E3 		cmp	r4, #0
 3173 0014 D600001A 		bne	.L353
 3174 0018 FEFFFFEB 		bl	_ZN6tflite7testing12_GLOBAL__N_115BuilderInstanceEv
 3175 001c 1530A0E3 		mov	r3, #21
 3176 0020 0050A0E1 		mov	r5, r0
 3177 0024 0410A0E1 		mov	r1, r4
 3178 0028 2430CDE5 		strb	r3, [sp, #36]
 3179 002c FEFFFFEB 		bl	_ZN6tflite12CreateBufferERN11flatbuffers17FlatBufferBuilderENS0_6OffsetINS0_6VectorIhEEEE
 3180 0030 0120A0E3 		mov	r2, #1
 3181 0034 40008DE5 		str	r0, [sp, #64]
 3182 0038 24108DE2 		add	r1, sp, #36
 3183 003c 0500A0E1 		mov	r0, r5
 3184 0040 0160A0E3 		mov	r6, #1
 3185 0044 70708DE2 		add	r7, sp, #112
 3186 0048 FEFFFFEB 		bl	_ZN11flatbuffers17FlatBufferBuilder12CreateVectorIhEENS_6OffsetINS_6VectorIT_EEEEPKS4_j
 3187 004c 0010A0E1 		mov	r1, r0
 3188 0050 0500A0E1 		mov	r0, r5
 3189 0054 FEFFFFEB 		bl	_ZN6tflite12CreateBufferERN11flatbuffers17FlatBufferBuilderENS0_6OffsetINS0_6VectorIhEEEE
 3190 0058 486027E5 		str	r6, [r7, #-72]!
 3191 005c 0620A0E1 		mov	r2, r6
 3192 0060 0710A0E1 		mov	r1, r7
 3193 0064 44008DE5 		str	r0, [sp, #68]
 3194 0068 0500A0E1 		mov	r0, r5
 3195 006c FEFFFFEB 		bl	_ZN11flatbuffers17FlatBufferBuilder12CreateVectorIlEENS_6OffsetINS_6VectorIT_EEEEPKS4_j
 3196 0070 0C139FE5 		ldr	r1, .L355+4
 3197 0074 0090A0E1 		mov	r9, r0
 3198 0078 0500A0E1 		mov	r0, r5
 3199 007c FEFFFFEB 		bl	_ZN11flatbuffers17FlatBufferBuilder12CreateStringEPKc
 3200 0080 0430A0E1 		mov	r3, r4
 3201 0084 0910A0E1 		mov	r1, r9
 3202 0088 11008DE8 		stm	sp, {r0, r4}
 3203 008c 0220A0E3 		mov	r2, #2
 3204 0090 10408DE5 		str	r4, [sp, #16]
 3205 0094 0500A0E1 		mov	r0, r5
 3206 0098 0C408DE5 		str	r4, [sp, #12]
 3207 009c 08408DE5 		str	r4, [sp, #8]
 3208 00a0 FEFFFFEB 		bl	_ZN6tflite12CreateTensorERN11flatbuffers17FlatBufferBuilderENS0_6OffsetINS0_6VectorIlEEEENS_10T
 3209 00a4 0620A0E1 		mov	r2, r6
 3210 00a8 0710A0E1 		mov	r1, r7
 3211 00ac 60008DE5 		str	r0, [sp, #96]
 3212 00b0 0500A0E1 		mov	r0, r5
 3213 00b4 FEFFFFEB 		bl	_ZN11flatbuffers17FlatBufferBuilder12CreateVectorIlEENS_6OffsetINS_6VectorIT_EEEEPKS4_j
 3214 00b8 C8129FE5 		ldr	r1, .L355+8
 3215 00bc 0090A0E1 		mov	r9, r0
 3216 00c0 0500A0E1 		mov	r0, r5
 3217 00c4 FEFFFFEB 		bl	_ZN11flatbuffers17FlatBufferBuilder12CreateStringEPKc
 3218 00c8 0630A0E1 		mov	r3, r6
 3219 00cc 0910A0E1 		mov	r1, r9
 3220 00d0 11008DE8 		stm	sp, {r0, r4}
 3221 00d4 0320A0E3 		mov	r2, #3
 3222 00d8 10408DE5 		str	r4, [sp, #16]
 3223 00dc 0500A0E1 		mov	r0, r5
 3224 00e0 0C408DE5 		str	r4, [sp, #12]
 3225 00e4 08408DE5 		str	r4, [sp, #8]
 3226 00e8 FEFFFFEB 		bl	_ZN6tflite12CreateTensorERN11flatbuffers17FlatBufferBuilderENS0_6OffsetINS0_6VectorIlEEEENS_10T
 3227 00ec 0620A0E1 		mov	r2, r6
 3228 00f0 0710A0E1 		mov	r1, r7
 3229 00f4 64008DE5 		str	r0, [sp, #100]
 3230 00f8 0500A0E1 		mov	r0, r5
 3231 00fc FEFFFFEB 		bl	_ZN11flatbuffers17FlatBufferBuilder12CreateVectorIlEENS_6OffsetINS_6VectorIT_EEEEPKS4_j
 3232 0100 84129FE5 		ldr	r1, .L355+12
 3233 0104 0090A0E1 		mov	r9, r0
 3234 0108 0500A0E1 		mov	r0, r5
 3235 010c FEFFFFEB 		bl	_ZN11flatbuffers17FlatBufferBuilder12CreateStringEPKc
 3236 0110 0430A0E1 		mov	r3, r4
 3237 0114 0910A0E1 		mov	r1, r9
 3238 0118 11008DE8 		stm	sp, {r0, r4}
 3239 011c 0220A0E3 		mov	r2, #2
 3240 0120 10408DE5 		str	r4, [sp, #16]
 3241 0124 0500A0E1 		mov	r0, r5
 3242 0128 0C408DE5 		str	r4, [sp, #12]
 3243 012c 08408DE5 		str	r4, [sp, #8]
 3244 0130 FEFFFFEB 		bl	_ZN6tflite12CreateTensorERN11flatbuffers17FlatBufferBuilderENS0_6OffsetINS0_6VectorIlEEEENS_10T
 3245 0134 0620A0E1 		mov	r2, r6
 3246 0138 0710A0E1 		mov	r1, r7
 3247 013c 68008DE5 		str	r0, [sp, #104]
 3248 0140 0500A0E1 		mov	r0, r5
 3249 0144 FEFFFFEB 		bl	_ZN11flatbuffers17FlatBufferBuilder12CreateVectorIlEENS_6OffsetINS_6VectorIT_EEEEPKS4_j
 3250 0148 40129FE5 		ldr	r1, .L355+16
 3251 014c 0070A0E1 		mov	r7, r0
 3252 0150 0500A0E1 		mov	r0, r5
 3253 0154 FEFFFFEB 		bl	_ZN11flatbuffers17FlatBufferBuilder12CreateStringEPKc
 3254 0158 0710A0E1 		mov	r1, r7
 3255 015c 11008DE8 		stm	sp, {r0, r4}
 3256 0160 0270A0E3 		mov	r7, #2
 3257 0164 0430A0E1 		mov	r3, r4
 3258 0168 0220A0E3 		mov	r2, #2
 3259 016c 10408DE5 		str	r4, [sp, #16]
 3260 0170 0C408DE5 		str	r4, [sp, #12]
 3261 0174 0500A0E1 		mov	r0, r5
 3262 0178 08408DE5 		str	r4, [sp, #8]
 3263 017c FEFFFFEB 		bl	_ZN6tflite12CreateTensorERN11flatbuffers17FlatBufferBuilderENS0_6OffsetINS0_6VectorIlEEEENS_10T
 3264 0180 0330A0E3 		mov	r3, #3
 3265 0184 6C008DE5 		str	r0, [sp, #108]
 3266 0188 0720A0E1 		mov	r2, r7
 3267 018c 50108DE2 		add	r1, sp, #80
 3268 0190 0500A0E1 		mov	r0, r5
 3269 0194 4C308DE5 		str	r3, [sp, #76]
 3270 0198 34308DE5 		str	r3, [sp, #52]
 3271 019c 54608DE5 		str	r6, [sp, #84]
 3272 01a0 2C408DE5 		str	r4, [sp, #44]
 3273 01a4 48708DE5 		str	r7, [sp, #72]
 3274 01a8 50408DE5 		str	r4, [sp, #80]
 3275 01ac 30708DE5 		str	r7, [sp, #48]
 3276 01b0 FEFFFFEB 		bl	_ZN11flatbuffers17FlatBufferBuilder12CreateVectorIlEENS_6OffsetINS_6VectorIT_EEEEPKS4_j
 3277 01b4 0620A0E1 		mov	r2, r6
 3278 01b8 0090A0E1 		mov	r9, r0
 3279 01bc 30108DE2 		add	r1, sp, #48
 3280 01c0 0500A0E1 		mov	r0, r5
 3281 01c4 FEFFFFEB 		bl	_ZN11flatbuffers17FlatBufferBuilder12CreateVectorIlEENS_6OffsetINS_6VectorIT_EEEEPKS4_j
 3282 01c8 0920A0E1 		mov	r2, r9
 3283 01cc 0030A0E1 		mov	r3, r0
 3284 01d0 0410A0E1 		mov	r1, r4
 3285 01d4 14408DE5 		str	r4, [sp, #20]
 3286 01d8 10408DE5 		str	r4, [sp, #16]
 3287 01dc 0500A0E1 		mov	r0, r5
 3288 01e0 0C408DE5 		str	r4, [sp, #12]
 3289 01e4 08408DE5 		str	r4, [sp, #8]
 3290 01e8 04408DE5 		str	r4, [sp, #4]
 3291 01ec 00408DE5 		str	r4, [sp]
 3292 01f0 FEFFFFEB 		bl	_ZN6tflite14CreateOperatorERN11flatbuffers17FlatBufferBuilderEmNS0_6OffsetINS0_6VectorIlEEEES6_
 3293 01f4 0720A0E1 		mov	r2, r7
 3294 01f8 58008DE5 		str	r0, [sp, #88]
 3295 01fc 50108DE2 		add	r1, sp, #80
 3296 0200 0500A0E1 		mov	r0, r5
 3297 0204 FEFFFFEB 		bl	_ZN11flatbuffers17FlatBufferBuilder12CreateVectorIlEENS_6OffsetINS_6VectorIT_EEEEPKS4_j
 3298 0208 0620A0E1 		mov	r2, r6
 3299 020c 0090A0E1 		mov	r9, r0
 3300 0210 34108DE2 		add	r1, sp, #52
 3301 0214 0500A0E1 		mov	r0, r5
 3302 0218 FEFFFFEB 		bl	_ZN11flatbuffers17FlatBufferBuilder12CreateVectorIlEENS_6OffsetINS_6VectorIT_EEEEPKS4_j
 3303 021c 0920A0E1 		mov	r2, r9
 3304 0220 0030A0E1 		mov	r3, r0
 3305 0224 0410A0E1 		mov	r1, r4
 3306 0228 14408DE5 		str	r4, [sp, #20]
 3307 022c 10408DE5 		str	r4, [sp, #16]
 3308 0230 0500A0E1 		mov	r0, r5
 3309 0234 0C408DE5 		str	r4, [sp, #12]
 3310 0238 08408DE5 		str	r4, [sp, #8]
 3311 023c 04408DE5 		str	r4, [sp, #4]
 3312 0240 00408DE5 		str	r4, [sp]
 3313 0244 FEFFFFEB 		bl	_ZN6tflite14CreateOperatorERN11flatbuffers17FlatBufferBuilderEmNS0_6OffsetINS0_6VectorIlEEEES6_
 3314 0248 0420A0E3 		mov	r2, #4
 3315 024c 5C008DE5 		str	r0, [sp, #92]
 3316 0250 60108DE2 		add	r1, sp, #96
 3317 0254 0500A0E1 		mov	r0, r5
 3318 0258 FEFFFFEB 		bl	_ZN11flatbuffers17FlatBufferBuilder12CreateVectorIN6tflite6TensorEEENS_6OffsetINS_6VectorINS4_I
 3319 025c 0620A0E1 		mov	r2, r6
 3320 0260 0090A0E1 		mov	r9, r0
 3321 0264 2C108DE2 		add	r1, sp, #44
 3322 0268 0500A0E1 		mov	r0, r5
 3323 026c FEFFFFEB 		bl	_ZN11flatbuffers17FlatBufferBuilder12CreateVectorIlEENS_6OffsetINS_6VectorIT_EEEEPKS4_j
 3324 0270 0720A0E1 		mov	r2, r7
 3325 0274 00A0A0E1 		mov	r10, r0
 3326 0278 48108DE2 		add	r1, sp, #72
 3327 027c 0500A0E1 		mov	r0, r5
 3328 0280 FEFFFFEB 		bl	_ZN11flatbuffers17FlatBufferBuilder12CreateVectorIlEENS_6OffsetINS_6VectorIT_EEEEPKS4_j
 3329 0284 0720A0E1 		mov	r2, r7
 3330 0288 00B0A0E1 		mov	fp, r0
 3331 028c 58108DE2 		add	r1, sp, #88
 3332 0290 0500A0E1 		mov	r0, r5
 3333 0294 FEFFFFEB 		bl	_ZN11flatbuffers17FlatBufferBuilder12CreateVectorIN6tflite8OperatorEEENS_6OffsetINS_6VectorINS4
 3334 0298 F4109FE5 		ldr	r1, .L355+20
 3335 029c 1C008DE5 		str	r0, [sp, #28]
 3336 02a0 0500A0E1 		mov	r0, r5
 3337 02a4 FEFFFFEB 		bl	_ZN11flatbuffers17FlatBufferBuilder12CreateStringEPKc
 3338 02a8 1C309DE5 		ldr	r3, [sp, #28]
 3339 02ac 0A20A0E1 		mov	r2, r10
 3340 02b0 0910A0E1 		mov	r1, r9
 3341 02b4 04008DE5 		str	r0, [sp, #4]
 3342 02b8 0500A0E1 		mov	r0, r5
 3343 02bc 00308DE5 		str	r3, [sp]
 3344 02c0 0B30A0E1 		mov	r3, fp
 3345 02c4 FEFFFFEB 		bl	_ZN6tflite14CreateSubGraphERN11flatbuffers17FlatBufferBuilderENS0_6OffsetINS0_6VectorINS3_INS_6
 3346 02c8 0430A0E1 		mov	r3, r4
 3347 02cc 38008DE5 		str	r0, [sp, #56]
 3348 02d0 C0209FE5 		ldr	r2, .L355+24
 3349 02d4 2010A0E3 		mov	r1, #32
 3350 02d8 0500A0E1 		mov	r0, r5
 3351 02dc FEFFFFEB 		bl	_ZN6tflite24CreateOperatorCodeDirectERN11flatbuffers17FlatBufferBuilderENS_15BuiltinOperatorEPK
 3352 02e0 70108DE2 		add	r1, sp, #112
 3353 02e4 0620A0E1 		mov	r2, r6
 3354 02e8 340021E5 		str	r0, [r1, #-52]!
 3355 02ec 0500A0E1 		mov	r0, r5
 3356 02f0 FEFFFFEB 		bl	_ZN11flatbuffers17FlatBufferBuilder12CreateVectorIN6tflite12OperatorCodeEEENS_6OffsetINS_6Vecto
 3357 02f4 0620A0E1 		mov	r2, r6
 3358 02f8 0090A0E1 		mov	r9, r0
 3359 02fc 38108DE2 		add	r1, sp, #56
 3360 0300 0500A0E1 		mov	r0, r5
 3361 0304 FEFFFFEB 		bl	_ZN11flatbuffers17FlatBufferBuilder12CreateVectorIN6tflite8SubGraphEEENS_6OffsetINS_6VectorINS4
 3362 0308 8C109FE5 		ldr	r1, .L355+28
 3363 030c 0060A0E1 		mov	r6, r0
 3364 0310 0500A0E1 		mov	r0, r5
 3365 0314 FEFFFFEB 		bl	_ZN11flatbuffers17FlatBufferBuilder12CreateStringEPKc
 3366 0318 0720A0E1 		mov	r2, r7
 3367 031c 00A0A0E1 		mov	r10, r0
 3368 0320 40108DE2 		add	r1, sp, #64
 3369 0324 0500A0E1 		mov	r0, r5
 3370 0328 FEFFFFEB 		bl	_ZN11flatbuffers17FlatBufferBuilder12CreateVectorIN6tflite6BufferEEENS_6OffsetINS_6VectorINS4_I
 3371 032c 0630A0E1 		mov	r3, r6
 3372 0330 11008DE9 		stmib	sp, {r0, r4}
 3373 0334 0920A0E1 		mov	r2, r9
 3374 0338 0410A0E1 		mov	r1, r4
 3375 033c 0C408DE5 		str	r4, [sp, #12]
 3376 0340 0500A0E1 		mov	r0, r5
 3377 0344 00A08DE5 		str	r10, [sp]
 3378 0348 FEFFFFEB 		bl	_ZN6tflite11CreateModelERN11flatbuffers17FlatBufferBuilderEmNS0_6OffsetINS0_6VectorINS3_INS_12O
 3379 034c 0430A0E1 		mov	r3, r4
 3380 0350 0010A0E1 		mov	r1, r0
 3381 0354 44209FE5 		ldr	r2, .L355+32
 3382 0358 0500A0E1 		mov	r0, r5
 3383 035c FEFFFFEB 		bl	_ZN11flatbuffers17FlatBufferBuilder6FinishEmPKcb
 3384 0360 0500A0E1 		mov	r0, r5
 3385 0364 FEFFFFEB 		bl	_ZNK11flatbuffers17FlatBufferBuilder16GetBufferPointerEv
 3386 0368 003090E5 		ldr	r3, [r0]
 3387 036c 030080E0 		add	r0, r0, r3
 3388 0370 000088E5 		str	r0, [r8]
 3389              	.L353:
 3390 0374 000098E5 		ldr	r0, [r8]
 3391 0378 74D08DE2 		add	sp, sp, #116
 3392              		@ sp needed
 3393 037c F08FBDE8 		pop	{r4, r5, r6, r7, r8, r9, r10, fp, pc}
 3394              	.L356:
 3395              		.align	2
 3396              	.L355:
 3397 0380 00000000 		.word	.LANCHOR18
 3398 0384 00000000 		.word	.LC24
 3399 0388 12000000 		.word	.LC25
 3400 038c 25000000 		.word	.LC26
 3401 0390 38000000 		.word	.LC27
 3402 0394 4C000000 		.word	.LC28
 3403 0398 5A000000 		.word	.LC29
 3404 039c 66000000 		.word	.LC30
 3405 03a0 71000000 		.word	.LC31
 3406              		.fnend
 3408              		.section	.text._ZN6tflite7testing19GetComplexMockModelEv,"ax",%progbits
 3409              		.align	2
 3410              		.global	_ZN6tflite7testing19GetComplexMockModelEv
 3411              		.syntax unified
 3412              		.arm
 3413              		.fpu neon
 3415              	_ZN6tflite7testing19GetComplexMockModelEv:
 3416              		.fnstart
 3417              	.LFB6086:
 3418              		@ args = 0, pretend = 0, frame = 128
 3419              		@ frame_needed = 0, uses_anonymous_args = 0
 3420 0000 F04F2DE9 		push	{r4, r5, r6, r7, r8, r9, r10, fp, lr}
 3421              		.save {r4, r5, r6, r7, r8, r9, r10, fp, lr}
 3422              		.pad #156
 3423 0004 9CD04DE2 		sub	sp, sp, #156
 3424 0008 10A69FE5 		ldr	r10, .L360
 3425 000c 00409AE5 		ldr	r4, [r10]
 3426 0010 000054E3 		cmp	r4, #0
 3427 0014 7E01001A 		bne	.L358
 3428 0018 FEFFFFEB 		bl	_ZN6tflite7testing12_GLOBAL__N_115BuilderInstanceEv
 3429 001c 1530A0E3 		mov	r3, #21
 3430 0020 0050A0E1 		mov	r5, r0
 3431 0024 0410A0E1 		mov	r1, r4
 3432 0028 2030CDE5 		strb	r3, [sp, #32]
 3433 002c 2430CDE5 		strb	r3, [sp, #36]
 3434 0030 0160A0E3 		mov	r6, #1
 3435 0034 2830CDE5 		strb	r3, [sp, #40]
 3436 0038 98708DE2 		add	r7, sp, #152
 3437 003c FEFFFFEB 		bl	_ZN6tflite12CreateBufferERN11flatbuffers17FlatBufferBuilderENS0_6OffsetINS0_6VectorIhEEEE
 3438 0040 0410A0E1 		mov	r1, r4
 3439 0044 54008DE5 		str	r0, [sp, #84]
 3440 0048 0500A0E1 		mov	r0, r5
 3441 004c 03B0A0E3 		mov	fp, #3
 3442 0050 FEFFFFEB 		bl	_ZN6tflite12CreateBufferERN11flatbuffers17FlatBufferBuilderENS0_6OffsetINS0_6VectorIhEEEE
 3443 0054 0120A0E3 		mov	r2, #1
 3444 0058 58008DE5 		str	r0, [sp, #88]
 3445 005c 20108DE2 		add	r1, sp, #32
 3446 0060 0500A0E1 		mov	r0, r5
 3447 0064 FEFFFFEB 		bl	_ZN11flatbuffers17FlatBufferBuilder12CreateVectorIhEENS_6OffsetINS_6VectorIT_EEEEPKS4_j
 3448 0068 0010A0E1 		mov	r1, r0
 3449 006c 0500A0E1 		mov	r0, r5
 3450 0070 FEFFFFEB 		bl	_ZN6tflite12CreateBufferERN11flatbuffers17FlatBufferBuilderENS0_6OffsetINS0_6VectorIhEEEE
 3451 0074 0410A0E1 		mov	r1, r4
 3452 0078 5C008DE5 		str	r0, [sp, #92]
 3453 007c 0500A0E1 		mov	r0, r5
 3454 0080 98908DE2 		add	r9, sp, #152
 3455 0084 FEFFFFEB 		bl	_ZN6tflite12CreateBufferERN11flatbuffers17FlatBufferBuilderENS0_6OffsetINS0_6VectorIhEEEE
 3456 0088 0120A0E3 		mov	r2, #1
 3457 008c 60008DE5 		str	r0, [sp, #96]
 3458 0090 24108DE2 		add	r1, sp, #36
 3459 0094 0500A0E1 		mov	r0, r5
 3460 0098 FEFFFFEB 		bl	_ZN11flatbuffers17FlatBufferBuilder12CreateVectorIhEENS_6OffsetINS_6VectorIT_EEEEPKS4_j
 3461 009c 0010A0E1 		mov	r1, r0
 3462 00a0 0500A0E1 		mov	r0, r5
 3463 00a4 FEFFFFEB 		bl	_ZN6tflite12CreateBufferERN11flatbuffers17FlatBufferBuilderENS0_6OffsetINS0_6VectorIhEEEE
 3464 00a8 0410A0E1 		mov	r1, r4
 3465 00ac 64008DE5 		str	r0, [sp, #100]
 3466 00b0 0500A0E1 		mov	r0, r5
 3467 00b4 FEFFFFEB 		bl	_ZN6tflite12CreateBufferERN11flatbuffers17FlatBufferBuilderENS0_6OffsetINS0_6VectorIhEEEE
 3468 00b8 0120A0E3 		mov	r2, #1
 3469 00bc 68008DE5 		str	r0, [sp, #104]
 3470 00c0 28108DE2 		add	r1, sp, #40
 3471 00c4 0500A0E1 		mov	r0, r5
 3472 00c8 FEFFFFEB 		bl	_ZN11flatbuffers17FlatBufferBuilder12CreateVectorIhEENS_6OffsetINS_6VectorIT_EEEEPKS4_j
 3473 00cc 0010A0E1 		mov	r1, r0
 3474 00d0 0500A0E1 		mov	r0, r5
 3475 00d4 FEFFFFEB 		bl	_ZN6tflite12CreateBufferERN11flatbuffers17FlatBufferBuilderENS0_6OffsetINS0_6VectorIhEEEE
 3476 00d8 6C6027E5 		str	r6, [r7, #-108]!
 3477 00dc 0620A0E1 		mov	r2, r6
 3478 00e0 0710A0E1 		mov	r1, r7
 3479 00e4 6C008DE5 		str	r0, [sp, #108]
 3480 00e8 0500A0E1 		mov	r0, r5
 3481 00ec FEFFFFEB 		bl	_ZN11flatbuffers17FlatBufferBuilder12CreateVectorIlEENS_6OffsetINS_6VectorIT_EEEEPKS4_j
 3482 00f0 2C159FE5 		ldr	r1, .L360+4
 3483 00f4 0080A0E1 		mov	r8, r0
 3484 00f8 0500A0E1 		mov	r0, r5
 3485 00fc FEFFFFEB 		bl	_ZN11flatbuffers17FlatBufferBuilder12CreateStringEPKc
 3486 0100 0430A0E1 		mov	r3, r4
 3487 0104 0810A0E1 		mov	r1, r8
 3488 0108 11008DE8 		stm	sp, {r0, r4}
 3489 010c 0220A0E3 		mov	r2, #2
 3490 0110 10408DE5 		str	r4, [sp, #16]
 3491 0114 0500A0E1 		mov	r0, r5
 3492 0118 0C408DE5 		str	r4, [sp, #12]
 3493 011c 08408DE5 		str	r4, [sp, #8]
 3494 0120 FEFFFFEB 		bl	_ZN6tflite12CreateTensorERN11flatbuffers17FlatBufferBuilderENS0_6OffsetINS0_6VectorIlEEEENS_10T
 3495 0124 0620A0E1 		mov	r2, r6
 3496 0128 0710A0E1 		mov	r1, r7
 3497 012c 70008DE5 		str	r0, [sp, #112]
 3498 0130 0500A0E1 		mov	r0, r5
 3499 0134 FEFFFFEB 		bl	_ZN11flatbuffers17FlatBufferBuilder12CreateVectorIlEENS_6OffsetINS_6VectorIT_EEEEPKS4_j
 3500 0138 E8149FE5 		ldr	r1, .L360+8
 3501 013c 0080A0E1 		mov	r8, r0
 3502 0140 0500A0E1 		mov	r0, r5
 3503 0144 FEFFFFEB 		bl	_ZN11flatbuffers17FlatBufferBuilder12CreateStringEPKc
 3504 0148 0630A0E1 		mov	r3, r6
 3505 014c 51008DE8 		stm	sp, {r0, r4, r6}
 3506 0150 0810A0E1 		mov	r1, r8
 3507 0154 0220A0E3 		mov	r2, #2
 3508 0158 0500A0E1 		mov	r0, r5
 3509 015c 10408DE5 		str	r4, [sp, #16]
 3510 0160 0C408DE5 		str	r4, [sp, #12]
 3511 0164 FEFFFFEB 		bl	_ZN6tflite12CreateTensorERN11flatbuffers17FlatBufferBuilderENS0_6OffsetINS0_6VectorIlEEEENS_10T
 3512 0168 0620A0E1 		mov	r2, r6
 3513 016c 0710A0E1 		mov	r1, r7
 3514 0170 74008DE5 		str	r0, [sp, #116]
 3515 0174 0500A0E1 		mov	r0, r5
 3516 0178 FEFFFFEB 		bl	_ZN11flatbuffers17FlatBufferBuilder12CreateVectorIlEENS_6OffsetINS_6VectorIT_EEEEPKS4_j
 3517 017c A8149FE5 		ldr	r1, .L360+12
 3518 0180 0080A0E1 		mov	r8, r0
 3519 0184 0500A0E1 		mov	r0, r5
 3520 0188 FEFFFFEB 		bl	_ZN11flatbuffers17FlatBufferBuilder12CreateStringEPKc
 3521 018c 0230A0E3 		mov	r3, #2
 3522 0190 0810A0E1 		mov	r1, r8
 3523 0194 11008DE8 		stm	sp, {r0, r4}
 3524 0198 0320A0E3 		mov	r2, #3
 3525 019c 10408DE5 		str	r4, [sp, #16]
 3526 01a0 0500A0E1 		mov	r0, r5
 3527 01a4 0C408DE5 		str	r4, [sp, #12]
 3528 01a8 08408DE5 		str	r4, [sp, #8]
 3529 01ac FEFFFFEB 		bl	_ZN6tflite12CreateTensorERN11flatbuffers17FlatBufferBuilderENS0_6OffsetINS0_6VectorIlEEEENS_10T
 3530 01b0 0620A0E1 		mov	r2, r6
 3531 01b4 0710A0E1 		mov	r1, r7
 3532 01b8 78008DE5 		str	r0, [sp, #120]
 3533 01bc 0500A0E1 		mov	r0, r5
 3534 01c0 FEFFFFEB 		bl	_ZN11flatbuffers17FlatBufferBuilder12CreateVectorIlEENS_6OffsetINS_6VectorIT_EEEEPKS4_j
 3535 01c4 64149FE5 		ldr	r1, .L360+16
 3536 01c8 0080A0E1 		mov	r8, r0
 3537 01cc 0500A0E1 		mov	r0, r5
 3538 01d0 FEFFFFEB 		bl	_ZN11flatbuffers17FlatBufferBuilder12CreateStringEPKc
 3539 01d4 0430A0E1 		mov	r3, r4
 3540 01d8 0810A0E1 		mov	r1, r8
 3541 01dc 11008DE8 		stm	sp, {r0, r4}
 3542 01e0 0220A0E3 		mov	r2, #2
 3543 01e4 10408DE5 		str	r4, [sp, #16]
 3544 01e8 0500A0E1 		mov	r0, r5
 3545 01ec 0C408DE5 		str	r4, [sp, #12]
 3546 01f0 08408DE5 		str	r4, [sp, #8]
 3547 01f4 FEFFFFEB 		bl	_ZN6tflite12CreateTensorERN11flatbuffers17FlatBufferBuilderENS0_6OffsetINS0_6VectorIlEEEENS_10T
 3548 01f8 0620A0E1 		mov	r2, r6
 3549 01fc 0710A0E1 		mov	r1, r7
 3550 0200 7C008DE5 		str	r0, [sp, #124]
 3551 0204 0500A0E1 		mov	r0, r5
 3552 0208 FEFFFFEB 		bl	_ZN11flatbuffers17FlatBufferBuilder12CreateVectorIlEENS_6OffsetINS_6VectorIT_EEEEPKS4_j
 3553 020c 20149FE5 		ldr	r1, .L360+20
 3554 0210 0080A0E1 		mov	r8, r0
 3555 0214 0500A0E1 		mov	r0, r5
 3556 0218 FEFFFFEB 		bl	_ZN11flatbuffers17FlatBufferBuilder12CreateStringEPKc
 3557 021c 0630A0E1 		mov	r3, r6
 3558 0220 51008DE8 		stm	sp, {r0, r4, r6}
 3559 0224 0810A0E1 		mov	r1, r8
 3560 0228 0220A0E3 		mov	r2, #2
 3561 022c 0500A0E1 		mov	r0, r5
 3562 0230 10408DE5 		str	r4, [sp, #16]
 3563 0234 0C408DE5 		str	r4, [sp, #12]
 3564 0238 FEFFFFEB 		bl	_ZN6tflite12CreateTensorERN11flatbuffers17FlatBufferBuilderENS0_6OffsetINS0_6VectorIlEEEENS_10T
 3565 023c 0620A0E1 		mov	r2, r6
 3566 0240 0710A0E1 		mov	r1, r7
 3567 0244 80008DE5 		str	r0, [sp, #128]
 3568 0248 0500A0E1 		mov	r0, r5
 3569 024c FEFFFFEB 		bl	_ZN11flatbuffers17FlatBufferBuilder12CreateVectorIlEENS_6OffsetINS_6VectorIT_EEEEPKS4_j
 3570 0250 E0139FE5 		ldr	r1, .L360+24
 3571 0254 0080A0E1 		mov	r8, r0
 3572 0258 0500A0E1 		mov	r0, r5
 3573 025c FEFFFFEB 		bl	_ZN11flatbuffers17FlatBufferBuilder12CreateStringEPKc
 3574 0260 0230A0E3 		mov	r3, #2
 3575 0264 0810A0E1 		mov	r1, r8
 3576 0268 11008DE8 		stm	sp, {r0, r4}
 3577 026c 0320A0E3 		mov	r2, #3
 3578 0270 10408DE5 		str	r4, [sp, #16]
 3579 0274 0500A0E1 		mov	r0, r5
 3580 0278 0C408DE5 		str	r4, [sp, #12]
 3581 027c 08408DE5 		str	r4, [sp, #8]
 3582 0280 FEFFFFEB 		bl	_ZN6tflite12CreateTensorERN11flatbuffers17FlatBufferBuilderENS0_6OffsetINS0_6VectorIlEEEENS_10T
 3583 0284 0620A0E1 		mov	r2, r6
 3584 0288 0710A0E1 		mov	r1, r7
 3585 028c 84008DE5 		str	r0, [sp, #132]
 3586 0290 0500A0E1 		mov	r0, r5
 3587 0294 FEFFFFEB 		bl	_ZN11flatbuffers17FlatBufferBuilder12CreateVectorIlEENS_6OffsetINS_6VectorIT_EEEEPKS4_j
 3588 0298 9C139FE5 		ldr	r1, .L360+28
 3589 029c 0080A0E1 		mov	r8, r0
 3590 02a0 0500A0E1 		mov	r0, r5
 3591 02a4 FEFFFFEB 		bl	_ZN11flatbuffers17FlatBufferBuilder12CreateStringEPKc
 3592 02a8 0430A0E1 		mov	r3, r4
 3593 02ac 0810A0E1 		mov	r1, r8
 3594 02b0 11008DE8 		stm	sp, {r0, r4}
 3595 02b4 0220A0E3 		mov	r2, #2
 3596 02b8 10408DE5 		str	r4, [sp, #16]
 3597 02bc 0500A0E1 		mov	r0, r5
 3598 02c0 0C408DE5 		str	r4, [sp, #12]
 3599 02c4 08408DE5 		str	r4, [sp, #8]
 3600 02c8 FEFFFFEB 		bl	_ZN6tflite12CreateTensorERN11flatbuffers17FlatBufferBuilderENS0_6OffsetINS0_6VectorIlEEEENS_10T
 3601 02cc 0620A0E1 		mov	r2, r6
 3602 02d0 0710A0E1 		mov	r1, r7
 3603 02d4 88008DE5 		str	r0, [sp, #136]
 3604 02d8 0500A0E1 		mov	r0, r5
 3605 02dc FEFFFFEB 		bl	_ZN11flatbuffers17FlatBufferBuilder12CreateVectorIlEENS_6OffsetINS_6VectorIT_EEEEPKS4_j
 3606 02e0 58139FE5 		ldr	r1, .L360+32
 3607 02e4 0080A0E1 		mov	r8, r0
 3608 02e8 0500A0E1 		mov	r0, r5
 3609 02ec FEFFFFEB 		bl	_ZN11flatbuffers17FlatBufferBuilder12CreateStringEPKc
 3610 02f0 0630A0E1 		mov	r3, r6
 3611 02f4 51008DE8 		stm	sp, {r0, r4, r6}
 3612 02f8 0810A0E1 		mov	r1, r8
 3613 02fc 0220A0E3 		mov	r2, #2
 3614 0300 0500A0E1 		mov	r0, r5
 3615 0304 10408DE5 		str	r4, [sp, #16]
 3616 0308 0C408DE5 		str	r4, [sp, #12]
 3617 030c FEFFFFEB 		bl	_ZN6tflite12CreateTensorERN11flatbuffers17FlatBufferBuilderENS0_6OffsetINS0_6VectorIlEEEENS_10T
 3618 0310 0620A0E1 		mov	r2, r6
 3619 0314 0710A0E1 		mov	r1, r7
 3620 0318 8C008DE5 		str	r0, [sp, #140]
 3621 031c 0500A0E1 		mov	r0, r5
 3622 0320 FEFFFFEB 		bl	_ZN11flatbuffers17FlatBufferBuilder12CreateVectorIlEENS_6OffsetINS_6VectorIT_EEEEPKS4_j
 3623 0324 18139FE5 		ldr	r1, .L360+36
 3624 0328 0080A0E1 		mov	r8, r0
 3625 032c 0500A0E1 		mov	r0, r5
 3626 0330 FEFFFFEB 		bl	_ZN11flatbuffers17FlatBufferBuilder12CreateStringEPKc
 3627 0334 0230A0E3 		mov	r3, #2
 3628 0338 0810A0E1 		mov	r1, r8
 3629 033c 11008DE8 		stm	sp, {r0, r4}
 3630 0340 0320A0E3 		mov	r2, #3
 3631 0344 FC829FE5 		ldr	r8, .L360+40
 3632 0348 0500A0E1 		mov	r0, r5
 3633 034c 10408DE5 		str	r4, [sp, #16]
 3634 0350 0C408DE5 		str	r4, [sp, #12]
 3635 0354 08408DE5 		str	r4, [sp, #8]
 3636 0358 FEFFFFEB 		bl	_ZN6tflite12CreateTensorERN11flatbuffers17FlatBufferBuilderENS0_6OffsetINS0_6VectorIlEEEENS_10T
 3637 035c 0620A0E1 		mov	r2, r6
 3638 0360 0710A0E1 		mov	r1, r7
 3639 0364 90008DE5 		str	r0, [sp, #144]
 3640 0368 0500A0E1 		mov	r0, r5
 3641 036c FEFFFFEB 		bl	_ZN11flatbuffers17FlatBufferBuilder12CreateVectorIlEENS_6OffsetINS_6VectorIT_EEEEPKS4_j
 3642 0370 D4129FE5 		ldr	r1, .L360+44
 3643 0374 0070A0E1 		mov	r7, r0
 3644 0378 0500A0E1 		mov	r0, r5
 3645 037c FEFFFFEB 		bl	_ZN11flatbuffers17FlatBufferBuilder12CreateStringEPKc
 3646 0380 0430A0E1 		mov	r3, r4
 3647 0384 0710A0E1 		mov	r1, r7
 3648 0388 11008DE8 		stm	sp, {r0, r4}
 3649 038c 0220A0E3 		mov	r2, #2
 3650 0390 10408DE5 		str	r4, [sp, #16]
 3651 0394 0500A0E1 		mov	r0, r5
 3652 0398 0C408DE5 		str	r4, [sp, #12]
 3653 039c 48708DE2 		add	r7, sp, #72
 3654 03a0 08408DE5 		str	r4, [sp, #8]
 3655 03a4 FEFFFFEB 		bl	_ZN6tflite12CreateTensorERN11flatbuffers17FlatBufferBuilderENS0_6OffsetINS0_6VectorIlEEEENS_10T
 3656 03a8 94008DE5 		str	r0, [sp, #148]
 3657 03ac 070098E8 		ldm	r8, {r0, r1, r2}
 3658 03b0 60B029E5 		str	fp, [r9, #-96]!
 3659 03b4 3C408DE5 		str	r4, [sp, #60]
 3660 03b8 070087E8 		stm	r7, {r0, r1, r2}
 3661 03bc 0B20A0E1 		mov	r2, fp
 3662 03c0 0710A0E1 		mov	r1, r7
 3663 03c4 0500A0E1 		mov	r0, r5
 3664 03c8 40408DE5 		str	r4, [sp, #64]
 3665 03cc 44408DE5 		str	r4, [sp, #68]
 3666 03d0 FEFFFFEB 		bl	_ZN11flatbuffers17FlatBufferBuilder12CreateVectorIlEENS_6OffsetINS_6VectorIT_EEEEPKS4_j
 3667 03d4 0620A0E1 		mov	r2, r6
 3668 03d8 18008DE5 		str	r0, [sp, #24]
 3669 03dc 0910A0E1 		mov	r1, r9
 3670 03e0 0500A0E1 		mov	r0, r5
 3671 03e4 FEFFFFEB 		bl	_ZN11flatbuffers17FlatBufferBuilder12CreateVectorIlEENS_6OffsetINS_6VectorIT_EEEEPKS4_j
 3672 03e8 18209DE5 		ldr	r2, [sp, #24]
 3673 03ec 0030A0E1 		mov	r3, r0
 3674 03f0 0410A0E1 		mov	r1, r4
 3675 03f4 14408DE5 		str	r4, [sp, #20]
 3676 03f8 10408DE5 		str	r4, [sp, #16]
 3677 03fc 0500A0E1 		mov	r0, r5
 3678 0400 0C408DE5 		str	r4, [sp, #12]
 3679 0404 08408DE5 		str	r4, [sp, #8]
 3680 0408 04408DE5 		str	r4, [sp, #4]
 3681 040c 00408DE5 		str	r4, [sp]
 3682 0410 FEFFFFEB 		bl	_ZN6tflite14CreateOperatorERN11flatbuffers17FlatBufferBuilderEmNS0_6OffsetINS0_6VectorIlEEEES6_
 3683 0414 0C3088E2 		add	r3, r8, #12
 3684 0418 3C008DE5 		str	r0, [sp, #60]
 3685 041c 070093E8 		ldm	r3, {r0, r1, r2}
 3686 0420 0630A0E3 		mov	r3, #6
 3687 0424 188088E2 		add	r8, r8, #24
 3688 0428 38308DE5 		str	r3, [sp, #56]
 3689 042c 070087E8 		stm	r7, {r0, r1, r2}
 3690 0430 0B20A0E1 		mov	r2, fp
 3691 0434 0710A0E1 		mov	r1, r7
 3692 0438 0500A0E1 		mov	r0, r5
 3693 043c FEFFFFEB 		bl	_ZN11flatbuffers17FlatBufferBuilder12CreateVectorIlEENS_6OffsetINS_6VectorIT_EEEEPKS4_j
 3694 0440 0620A0E1 		mov	r2, r6
 3695 0444 18008DE5 		str	r0, [sp, #24]
 3696 0448 0910A0E1 		mov	r1, r9
 3697 044c 0500A0E1 		mov	r0, r5
 3698 0450 FEFFFFEB 		bl	_ZN11flatbuffers17FlatBufferBuilder12CreateVectorIlEENS_6OffsetINS_6VectorIT_EEEEPKS4_j
 3699 0454 18209DE5 		ldr	r2, [sp, #24]
 3700 0458 0030A0E1 		mov	r3, r0
 3701 045c 0410A0E1 		mov	r1, r4
 3702 0460 14408DE5 		str	r4, [sp, #20]
 3703 0464 10408DE5 		str	r4, [sp, #16]
 3704 0468 0500A0E1 		mov	r0, r5
 3705 046c 0C408DE5 		str	r4, [sp, #12]
 3706 0470 08408DE5 		str	r4, [sp, #8]
 3707 0474 04408DE5 		str	r4, [sp, #4]
 3708 0478 00408DE5 		str	r4, [sp]
 3709 047c FEFFFFEB 		bl	_ZN6tflite14CreateOperatorERN11flatbuffers17FlatBufferBuilderEmNS0_6OffsetINS0_6VectorIlEEEES6_
 3710 0480 40008DE5 		str	r0, [sp, #64]
 3711 0484 070098E8 		ldm	r8, {r0, r1, r2}
 3712 0488 0980A0E3 		mov	r8, #9
 3713 048c 38808DE5 		str	r8, [sp, #56]
 3714 0490 070087E8 		stm	r7, {r0, r1, r2}
 3715 0494 0B20A0E1 		mov	r2, fp
 3716 0498 0710A0E1 		mov	r1, r7
 3717 049c 0500A0E1 		mov	r0, r5
 3718 04a0 FEFFFFEB 		bl	_ZN11flatbuffers17FlatBufferBuilder12CreateVectorIlEENS_6OffsetINS_6VectorIT_EEEEPKS4_j
 3719 04a4 0620A0E1 		mov	r2, r6
 3720 04a8 18008DE5 		str	r0, [sp, #24]
 3721 04ac 0910A0E1 		mov	r1, r9
 3722 04b0 0500A0E1 		mov	r0, r5
 3723 04b4 FEFFFFEB 		bl	_ZN11flatbuffers17FlatBufferBuilder12CreateVectorIlEENS_6OffsetINS_6VectorIT_EEEEPKS4_j
 3724 04b8 18209DE5 		ldr	r2, [sp, #24]
 3725 04bc 0030A0E1 		mov	r3, r0
 3726 04c0 0410A0E1 		mov	r1, r4
 3727 04c4 14408DE5 		str	r4, [sp, #20]
 3728 04c8 10408DE5 		str	r4, [sp, #16]
 3729 04cc 0500A0E1 		mov	r0, r5
 3730 04d0 0C408DE5 		str	r4, [sp, #12]
 3731 04d4 08408DE5 		str	r4, [sp, #8]
 3732 04d8 04408DE5 		str	r4, [sp, #4]
 3733 04dc 00408DE5 		str	r4, [sp]
 3734 04e0 FEFFFFEB 		bl	_ZN6tflite14CreateOperatorERN11flatbuffers17FlatBufferBuilderEmNS0_6OffsetINS0_6VectorIlEEEES6_
 3735 04e4 0A20A0E3 		mov	r2, #10
 3736 04e8 44008DE5 		str	r0, [sp, #68]
 3737 04ec 70108DE2 		add	r1, sp, #112
 3738 04f0 0500A0E1 		mov	r0, r5
 3739 04f4 34808DE5 		str	r8, [sp, #52]
 3740 04f8 30408DE5 		str	r4, [sp, #48]
 3741 04fc FEFFFFEB 		bl	_ZN11flatbuffers17FlatBufferBuilder12CreateVectorIN6tflite6TensorEEENS_6OffsetINS_6VectorINS4_I
 3742 0500 0620A0E1 		mov	r2, r6
 3743 0504 18008DE5 		str	r0, [sp, #24]
 3744 0508 30108DE2 		add	r1, sp, #48
 3745 050c 0500A0E1 		mov	r0, r5
 3746 0510 FEFFFFEB 		bl	_ZN11flatbuffers17FlatBufferBuilder12CreateVectorIlEENS_6OffsetINS_6VectorIT_EEEEPKS4_j
 3747 0514 0620A0E1 		mov	r2, r6
 3748 0518 0080A0E1 		mov	r8, r0
 3749 051c 34108DE2 		add	r1, sp, #52
 3750 0520 0500A0E1 		mov	r0, r5
 3751 0524 FEFFFFEB 		bl	_ZN11flatbuffers17FlatBufferBuilder12CreateVectorIlEENS_6OffsetINS_6VectorIT_EEEEPKS4_j
 3752 0528 0B20A0E1 		mov	r2, fp
 3753 052c 1C008DE5 		str	r0, [sp, #28]
 3754 0530 3C108DE2 		add	r1, sp, #60
 3755 0534 0500A0E1 		mov	r0, r5
 3756 0538 FEFFFFEB 		bl	_ZN11flatbuffers17FlatBufferBuilder12CreateVectorIN6tflite8OperatorEEENS_6OffsetINS_6VectorINS4
 3757 053c 0C119FE5 		ldr	r1, .L360+48
 3758 0540 00B0A0E1 		mov	fp, r0
 3759 0544 0500A0E1 		mov	r0, r5
 3760 0548 FEFFFFEB 		bl	_ZN11flatbuffers17FlatBufferBuilder12CreateStringEPKc
 3761 054c 0820A0E1 		mov	r2, r8
 3762 0550 04008DE5 		str	r0, [sp, #4]
 3763 0554 1C309DE5 		ldr	r3, [sp, #28]
 3764 0558 0500A0E1 		mov	r0, r5
 3765 055c 18109DE5 		ldr	r1, [sp, #24]
 3766 0560 00B08DE5 		str	fp, [sp]
 3767 0564 FEFFFFEB 		bl	_ZN6tflite14CreateSubGraphERN11flatbuffers17FlatBufferBuilderENS0_6OffsetINS0_6VectorINS3_INS_6
 3768 0568 0430A0E1 		mov	r3, r4
 3769 056c 38008DE5 		str	r0, [sp, #56]
 3770 0570 DC209FE5 		ldr	r2, .L360+52
 3771 0574 2010A0E3 		mov	r1, #32
 3772 0578 0500A0E1 		mov	r0, r5
 3773 057c FEFFFFEB 		bl	_ZN6tflite24CreateOperatorCodeDirectERN11flatbuffers17FlatBufferBuilderENS_15BuiltinOperatorEPK
 3774 0580 0620A0E1 		mov	r2, r6
 3775 0584 0710A0E1 		mov	r1, r7
 3776 0588 48008DE5 		str	r0, [sp, #72]
 3777 058c 0500A0E1 		mov	r0, r5
 3778 0590 FEFFFFEB 		bl	_ZN11flatbuffers17FlatBufferBuilder12CreateVectorIN6tflite12OperatorCodeEEENS_6OffsetINS_6Vecto
 3779 0594 0620A0E1 		mov	r2, r6
 3780 0598 0070A0E1 		mov	r7, r0
 3781 059c 0910A0E1 		mov	r1, r9
 3782 05a0 0500A0E1 		mov	r0, r5
 3783 05a4 FEFFFFEB 		bl	_ZN11flatbuffers17FlatBufferBuilder12CreateVectorIN6tflite8SubGraphEEENS_6OffsetINS_6VectorINS4
 3784 05a8 A8109FE5 		ldr	r1, .L360+56
 3785 05ac 0060A0E1 		mov	r6, r0
 3786 05b0 0500A0E1 		mov	r0, r5
 3787 05b4 FEFFFFEB 		bl	_ZN11flatbuffers17FlatBufferBuilder12CreateStringEPKc
 3788 05b8 0720A0E3 		mov	r2, #7
 3789 05bc 0080A0E1 		mov	r8, r0
 3790 05c0 54108DE2 		add	r1, sp, #84
 3791 05c4 0500A0E1 		mov	r0, r5
 3792 05c8 FEFFFFEB 		bl	_ZN11flatbuffers17FlatBufferBuilder12CreateVectorIN6tflite6BufferEEENS_6OffsetINS_6VectorINS4_I
 3793 05cc 0630A0E1 		mov	r3, r6
 3794 05d0 11008DE9 		stmib	sp, {r0, r4}
 3795 05d4 0720A0E1 		mov	r2, r7
 3796 05d8 0410A0E1 		mov	r1, r4
 3797 05dc 0C408DE5 		str	r4, [sp, #12]
 3798 05e0 0500A0E1 		mov	r0, r5
 3799 05e4 00808DE5 		str	r8, [sp]
 3800 05e8 FEFFFFEB 		bl	_ZN6tflite11CreateModelERN11flatbuffers17FlatBufferBuilderEmNS0_6OffsetINS0_6VectorINS3_INS_12O
 3801 05ec 0430A0E1 		mov	r3, r4
 3802 05f0 0010A0E1 		mov	r1, r0
 3803 05f4 60209FE5 		ldr	r2, .L360+60
 3804 05f8 0500A0E1 		mov	r0, r5
 3805 05fc FEFFFFEB 		bl	_ZN11flatbuffers17FlatBufferBuilder6FinishEmPKcb
 3806 0600 0500A0E1 		mov	r0, r5
 3807 0604 FEFFFFEB 		bl	_ZNK11flatbuffers17FlatBufferBuilder16GetBufferPointerEv
 3808 0608 003090E5 		ldr	r3, [r0]
 3809 060c 030080E0 		add	r0, r0, r3
 3810 0610 00008AE5 		str	r0, [r10]
 3811              	.L358:
 3812 0614 00009AE5 		ldr	r0, [r10]
 3813 0618 9CD08DE2 		add	sp, sp, #156
 3814              		@ sp needed
 3815 061c F08FBDE8 		pop	{r4, r5, r6, r7, r8, r9, r10, fp, pc}
 3816              	.L361:
 3817              		.align	2
 3818              	.L360:
 3819 0620 00000000 		.word	.LANCHOR19
 3820 0624 00000000 		.word	.LC32
 3821 0628 14000000 		.word	.LC33
 3822 062c 2B000000 		.word	.LC34
 3823 0630 40000000 		.word	.LC35
 3824 0634 55000000 		.word	.LC36
 3825 0638 6C000000 		.word	.LC37
 3826 063c 81000000 		.word	.LC38
 3827 0640 96000000 		.word	.LC39
 3828 0644 AD000000 		.word	.LC40
 3829 0648 00000000 		.word	.LANCHOR20
 3830 064c C2000000 		.word	.LC41
 3831 0650 4C000000 		.word	.LC28
 3832 0654 5A000000 		.word	.LC29
 3833 0658 66000000 		.word	.LC30
 3834 065c 71000000 		.word	.LC31
 3835              		.fnend
 3837              		.section	.text._ZNSt12_Vector_baseIfSaIfEED2Ev,"axG",%progbits,_ZNSt12_Vector_baseIfSaIfEED5Ev,com
 3838              		.align	2
 3839              		.weak	_ZNSt12_Vector_baseIfSaIfEED2Ev
 3840              		.syntax unified
 3841              		.arm
 3842              		.fpu neon
 3844              	_ZNSt12_Vector_baseIfSaIfEED2Ev:
 3845              		.fnstart
 3846              	.LFB7797:
 3847              		@ args = 0, pretend = 0, frame = 0
 3848              		@ frame_needed = 0, uses_anonymous_args = 0
 3849 0000 10402DE9 		push	{r4, lr}
 3850 0004 0040A0E1 		mov	r4, r0
 3851 0008 000090E5 		ldr	r0, [r0]
 3852 000c 000050E3 		cmp	r0, #0
 3853 0010 0000000A 		beq	.L363
 3854 0014 FEFFFFEB 		bl	_ZdlPv
 3855              	.L363:
 3856 0018 0400A0E1 		mov	r0, r4
 3857 001c 1080BDE8 		pop	{r4, pc}
 3858              		.cantunwind
 3859              		.fnend
 3861              		.weak	_ZNSt12_Vector_baseIfSaIfEED1Ev
 3862              		.set	_ZNSt12_Vector_baseIfSaIfEED1Ev,_ZNSt12_Vector_baseIfSaIfEED2Ev
 3863              		.section	.text._ZNSt6vectorIfSaIfEEC2ESt16initializer_listIfERKS0_,"axG",%progbits,_ZNSt6vectorIfS
 3864              		.align	2
 3865              		.weak	_ZNSt6vectorIfSaIfEEC2ESt16initializer_listIfERKS0_
 3866              		.syntax unified
 3867              		.arm
 3868              		.fpu neon
 3870              	_ZNSt6vectorIfSaIfEEC2ESt16initializer_listIfERKS0_:
 3871              		.fnstart
 3872              	.LFB7590:
 3873              		@ args = 0, pretend = 0, frame = 8
 3874              		@ frame_needed = 0, uses_anonymous_args = 0
 3875 0000 F3412DE9 		push	{r0, r1, r4, r5, r6, r7, r8, lr}
 3876              		.save {r4, r5, r6, r7, r8, lr}
 3877              		.pad #8
 3878 0004 08308DE2 		add	r3, sp, #8
 3879 0008 060003E9 		stmdb	r3, {r1, r2}
 3880 000c 0030A0E3 		mov	r3, #0
 3881 0010 0040A0E1 		mov	r4, r0
 3882 0014 04509DE5 		ldr	r5, [sp, #4]
 3883 0018 00809DE5 		ldr	r8, [sp]
 3884 001c 003080E5 		str	r3, [r0]
 3885 0020 043080E5 		str	r3, [r0, #4]
 3886 0024 0551A0E1 		lsl	r5, r5, #2
 3887 0028 083080E5 		str	r3, [r0, #8]
 3888 002c 4561B0E1 		asrs	r6, r5, #2
 3889 0030 0800000A 		beq	.L373
 3890 0034 070176E3 		cmn	r6, #-1073741823
 3891 0038 0300009A 		bls	.L370
 3892              	.LEHB0:
 3893 003c FEFFFFEB 		bl	_ZSt17__throw_bad_allocv
 3894              	.LEHE0:
 3895              	.L374:
 3896 0040 0400A0E1 		mov	r0, r4
 3897 0044 FEFFFFEB 		bl	_ZNSt12_Vector_baseIfSaIfEED2Ev
 3898              	.LEHB1:
 3899 0048 FEFFFFEB 		bl	__cxa_end_cleanup
 3900              	.LEHE1:
 3901              	.L370:
 3902 004c 0500A0E1 		mov	r0, r5
 3903              	.LEHB2:
 3904 0050 FEFFFFEB 		bl	_Znwj
 3905              	.LEHE2:
 3906 0054 000000EA 		b	.L369
 3907              	.L373:
 3908 0058 0600A0E1 		mov	r0, r6
 3909              	.L369:
 3910 005c 000056E3 		cmp	r6, #0
 3911 0060 057080E0 		add	r7, r0, r5
 3912 0064 000084E5 		str	r0, [r4]
 3913 0068 087084E5 		str	r7, [r4, #8]
 3914 006c 0200000A 		beq	.L371
 3915 0070 0520A0E1 		mov	r2, r5
 3916 0074 0810A0E1 		mov	r1, r8
 3917 0078 FEFFFFEB 		bl	memcpy
 3918              	.L371:
 3919 007c 0400A0E1 		mov	r0, r4
 3920 0080 047084E5 		str	r7, [r4, #4]
 3921 0084 08D08DE2 		add	sp, sp, #8
 3922              		@ sp needed
 3923 0088 F081BDE8 		pop	{r4, r5, r6, r7, r8, pc}
 3924              		.global	__gxx_personality_v0
 3925              		.personality	__gxx_personality_v0
 3926              		.handlerdata
 3927              	.LLSDA7590:
 3928 0008 FF       		.byte	0xff
 3929 0009 FF       		.byte	0xff
 3930 000a 01       		.byte	0x1
 3931 000b 0C       		.uleb128 .LLSDACSE7590-.LLSDACSB7590
 3932              	.LLSDACSB7590:
 3933 000c 3C       		.uleb128 .LEHB0-.LFB7590
 3934 000d 04       		.uleb128 .LEHE0-.LEHB0
 3935 000e 40       		.uleb128 .L374-.LFB7590
 3936 000f 00       		.uleb128 0
 3937 0010 48       		.uleb128 .LEHB1-.LFB7590
 3938 0011 04       		.uleb128 .LEHE1-.LEHB1
 3939 0012 00       		.uleb128 0
 3940 0013 00       		.uleb128 0
 3941 0014 50       		.uleb128 .LEHB2-.LFB7590
 3942 0015 04       		.uleb128 .LEHE2-.LEHB2
 3943 0016 40       		.uleb128 .L374-.LFB7590
 3944 0017 00       		.uleb128 0
 3945              	.LLSDACSE7590:
 3946              		.section	.text._ZNSt6vectorIfSaIfEEC2ESt16initializer_listIfERKS0_,"axG",%progbits,_ZNSt6vectorIfS
 3947              		.fnend
 3949              		.weak	_ZNSt6vectorIfSaIfEEC1ESt16initializer_listIfERKS0_
 3950              		.set	_ZNSt6vectorIfSaIfEEC1ESt16initializer_listIfERKS0_,_ZNSt6vectorIfSaIfEEC2ESt16initializer_li
 3951              		.section	.text._ZNSt12_Vector_baseIxSaIxEED2Ev,"axG",%progbits,_ZNSt12_Vector_baseIxSaIxEED5Ev,com
 3952              		.align	2
 3953              		.weak	_ZNSt12_Vector_baseIxSaIxEED2Ev
 3954              		.syntax unified
 3955              		.arm
 3956              		.fpu neon
 3958              	_ZNSt12_Vector_baseIxSaIxEED2Ev:
 3959              		.fnstart
 3960              	.LFB7808:
 3961              		@ args = 0, pretend = 0, frame = 0
 3962              		@ frame_needed = 0, uses_anonymous_args = 0
 3963 0000 10402DE9 		push	{r4, lr}
 3964 0004 0040A0E1 		mov	r4, r0
 3965 0008 000090E5 		ldr	r0, [r0]
 3966 000c 000050E3 		cmp	r0, #0
 3967 0010 0000000A 		beq	.L381
 3968 0014 FEFFFFEB 		bl	_ZdlPv
 3969              	.L381:
 3970 0018 0400A0E1 		mov	r0, r4
 3971 001c 1080BDE8 		pop	{r4, pc}
 3972              		.cantunwind
 3973              		.fnend
 3975              		.weak	_ZNSt12_Vector_baseIxSaIxEED1Ev
 3976              		.set	_ZNSt12_Vector_baseIxSaIxEED1Ev,_ZNSt12_Vector_baseIxSaIxEED2Ev
 3977              		.section	.text._ZN6tflite7testing31CreateQuantizedFlatbufferTensorEi,"ax",%progbits
 3978              		.align	2
 3979              		.global	_ZN6tflite7testing31CreateQuantizedFlatbufferTensorEi
 3980              		.syntax unified
 3981              		.arm
 3982              		.fpu neon
 3984              	_ZN6tflite7testing31CreateQuantizedFlatbufferTensorEi:
 3985              		.fnstart
 3986              	.LFB6088:
 3987              		@ args = 0, pretend = 0, frame = 88
 3988              		@ frame_needed = 0, uses_anonymous_args = 0
 3989 0000 F0472DE9 		push	{r4, r5, r6, r7, r8, r9, r10, lr}
 3990              		.save {r4, r5, r6, r7, r8, r9, r10, lr}
 3991              		.pad #112
 3992 0004 70D04DE2 		sub	sp, sp, #112
 3993 0008 0060A0E1 		mov	r6, r0
 3994 000c 0150A0E3 		mov	r5, #1
 3995 0010 FEFFFFEB 		bl	_ZN6tflite7testing12_GLOBAL__N_115BuilderInstanceEv
 3996 0014 EC319FE5 		ldr	r3, .L405
 3997 0018 28208DE2 		add	r2, sp, #40
 3998 001c 0040A0E1 		mov	r4, r0
 3999 0020 2C508DE5 		str	r5, [sp, #44]
 4000 0024 40008DE2 		add	r0, sp, #64
 4001 0028 28308DE5 		str	r3, [sp, #40]
 4002 002c 1C308DE2 		add	r3, sp, #28
 4003 0030 060092E8 		ldm	r2, {r1, r2}
 4004              	.LEHB3:
 4005 0034 FEFFFFEB 		bl	_ZNSt6vectorIfSaIfEEC1ESt16initializer_listIfERKS0_
 4006              	.LEHE3:
 4007 0038 40108DE2 		add	r1, sp, #64
 4008 003c 0400A0E1 		mov	r0, r4
 4009              	.LEHB4:
 4010 0040 FEFFFFEB 		bl	_ZN11flatbuffers17FlatBufferBuilder12CreateVectorIfEENS_6OffsetINS_6VectorIT_EEEERKSt6vectorIS4
 4011 0044 C0319FE5 		ldr	r3, .L405+4
 4012 0048 30208DE2 		add	r2, sp, #48
 4013 004c 0070A0E1 		mov	r7, r0
 4014 0050 34508DE5 		str	r5, [sp, #52]
 4015 0054 4C008DE2 		add	r0, sp, #76
 4016 0058 30308DE5 		str	r3, [sp, #48]
 4017 005c 20308DE2 		add	r3, sp, #32
 4018 0060 060092E8 		ldm	r2, {r1, r2}
 4019 0064 FEFFFFEB 		bl	_ZNSt6vectorIfSaIfEEC1ESt16initializer_listIfERKS0_
 4020              	.LEHE4:
 4021 0068 4C108DE2 		add	r1, sp, #76
 4022 006c 0400A0E1 		mov	r0, r4
 4023              	.LEHB5:
 4024 0070 FEFFFFEB 		bl	_ZN11flatbuffers17FlatBufferBuilder12CreateVectorIfEENS_6OffsetINS_6VectorIT_EEEERKSt6vectorIS4
 4025 0074 94319FE5 		ldr	r3, .L405+8
 4026 0078 38208DE2 		add	r2, sp, #56
 4027 007c 0080A0E1 		mov	r8, r0
 4028 0080 3C508DE5 		str	r5, [sp, #60]
 4029 0084 58008DE2 		add	r0, sp, #88
 4030 0088 38308DE5 		str	r3, [sp, #56]
 4031 008c 24308DE2 		add	r3, sp, #36
 4032 0090 060092E8 		ldm	r2, {r1, r2}
 4033 0094 FEFFFFEB 		bl	_ZNSt6vectorIfSaIfEEC1ESt16initializer_listIfERKS0_
 4034              	.LEHE5:
 4035 0098 58108DE2 		add	r1, sp, #88
 4036 009c 0400A0E1 		mov	r0, r4
 4037              	.LEHB6:
 4038 00a0 FEFFFFEB 		bl	_ZN11flatbuffers17FlatBufferBuilder12CreateVectorIfEENS_6OffsetINS_6VectorIT_EEEERKSt6vectorIS4
 4039              	.LEHE6:
 4040 00a4 0030A0E3 		mov	r3, #0
 4041 00a8 0090A0E1 		mov	r9, r0
 4042 00ac 0800A0E3 		mov	r0, #8
 4043 00b0 64308DE5 		str	r3, [sp, #100]
 4044 00b4 68308DE5 		str	r3, [sp, #104]
 4045 00b8 6C308DE5 		str	r3, [sp, #108]
 4046              	.LEHB7:
 4047 00bc FEFFFFEB 		bl	_Znwj
 4048              	.LEHE7:
 4049 00c0 08A080E2 		add	r10, r0, #8
 4050 00c4 0820A0E3 		mov	r2, #8
 4051 00c8 44119FE5 		ldr	r1, .L405+12
 4052 00cc 0050A0E1 		mov	r5, r0
 4053 00d0 64008DE5 		str	r0, [sp, #100]
 4054 00d4 6CA08DE5 		str	r10, [sp, #108]
 4055 00d8 FEFFFFEB 		bl	memcpy
 4056 00dc 0820A0E3 		mov	r2, #8
 4057 00e0 0110A0E3 		mov	r1, #1
 4058 00e4 0400A0E1 		mov	r0, r4
 4059 00e8 68A08DE5 		str	r10, [sp, #104]
 4060              	.LEHB8:
 4061 00ec FEFFFFEB 		bl	_ZN11flatbuffers17FlatBufferBuilder11StartVectorEjj
 4062              	.LEHE8:
 4063 00f0 080000EA 		b	.L403
 4064              	.L397:
 4065              	.L402:
 4066 00f4 64008DE2 		add	r0, sp, #100
 4067 00f8 FEFFFFEB 		bl	_ZNSt12_Vector_baseIxSaIxEED2Ev
 4068              	.L389:
 4069 00fc 58008DE2 		add	r0, sp, #88
 4070 0100 FEFFFFEB 		bl	_ZNSt12_Vector_baseIfSaIfEED2Ev
 4071              	.L391:
 4072 0104 4C008DE2 		add	r0, sp, #76
 4073 0108 FEFFFFEB 		bl	_ZNSt12_Vector_baseIfSaIfEED2Ev
 4074              	.L392:
 4075 010c 40008DE2 		add	r0, sp, #64
 4076 0110 FEFFFFEB 		bl	_ZNSt12_Vector_baseIfSaIfEED2Ev
 4077              	.LEHB9:
 4078 0114 FEFFFFEB 		bl	__cxa_end_cleanup
 4079              	.LEHE9:
 4080              	.L403:
 4081 0118 0820A0E3 		mov	r2, #8
 4082 011c 0510A0E1 		mov	r1, r5
 4083 0120 0400A0E1 		mov	r0, r4
 4084              	.LEHB10:
 4085 0124 FEFFFFEB 		bl	_ZN11flatbuffers15vector_downward4pushEPKhj
 4086 0128 0110A0E3 		mov	r1, #1
 4087 012c 0400A0E1 		mov	r0, r4
 4088 0130 FEFFFFEB 		bl	_ZN11flatbuffers17FlatBufferBuilder9EndVectorEj
 4089 0134 0030A0E3 		mov	r3, #0
 4090 0138 0820A0E1 		mov	r2, r8
 4091 013c 09008DE8 		stm	sp, {r0, r3}
 4092 0140 0710A0E1 		mov	r1, r7
 4093 0144 0C308DE5 		str	r3, [sp, #12]
 4094 0148 0400A0E1 		mov	r0, r4
 4095 014c 08308DE5 		str	r3, [sp, #8]
 4096 0150 0930A0E1 		mov	r3, r9
 4097 0154 FEFFFFEB 		bl	_ZN6tflite28CreateQuantizationParametersERN11flatbuffers17FlatBufferBuilderENS0_6OffsetINS0_6Ve
 4098              	.LEHE10:
 4099 0158 030000EA 		b	.L404
 4100              	.L396:
 4101 015c E4FFFFEA 		b	.L402
 4102              	.L395:
 4103 0160 E5FFFFEA 		b	.L389
 4104              	.L394:
 4105 0164 E6FFFFEA 		b	.L391
 4106              	.L393:
 4107 0168 E7FFFFEA 		b	.L392
 4108              	.L404:
 4109 016c 0070A0E1 		mov	r7, r0
 4110 0170 64008DE2 		add	r0, sp, #100
 4111 0174 FEFFFFEB 		bl	_ZNSt12_Vector_baseIxSaIxEED2Ev
 4112 0178 58008DE2 		add	r0, sp, #88
 4113 017c 0050A0E3 		mov	r5, #0
 4114 0180 FEFFFFEB 		bl	_ZNSt12_Vector_baseIfSaIfEED2Ev
 4115 0184 4C008DE2 		add	r0, sp, #76
 4116 0188 FEFFFFEB 		bl	_ZNSt12_Vector_baseIfSaIfEED2Ev
 4117 018c 40008DE2 		add	r0, sp, #64
 4118 0190 FEFFFFEB 		bl	_ZNSt12_Vector_baseIfSaIfEED2Ev
 4119 0194 0120A0E3 		mov	r2, #1
 4120 0198 64108DE2 		add	r1, sp, #100
 4121 019c 0400A0E1 		mov	r0, r4
 4122 01a0 64608DE5 		str	r6, [sp, #100]
 4123              	.LEHB11:
 4124 01a4 FEFFFFEB 		bl	_ZN11flatbuffers17FlatBufferBuilder12CreateVectorIlEENS_6OffsetINS_6VectorIT_EEEEPKS4_j
 4125 01a8 68109FE5 		ldr	r1, .L405+16
 4126 01ac 0060A0E1 		mov	r6, r0
 4127 01b0 0400A0E1 		mov	r0, r4
 4128 01b4 FEFFFFEB 		bl	_ZN11flatbuffers17FlatBufferBuilder12CreateStringEPKc
 4129 01b8 0530A0E1 		mov	r3, r5
 4130 01bc 81008DE8 		stm	sp, {r0, r7}
 4131 01c0 0610A0E1 		mov	r1, r6
 4132 01c4 10508DE5 		str	r5, [sp, #16]
 4133 01c8 0C508DE5 		str	r5, [sp, #12]
 4134 01cc 0220A0E3 		mov	r2, #2
 4135 01d0 08508DE5 		str	r5, [sp, #8]
 4136 01d4 0400A0E1 		mov	r0, r4
 4137 01d8 FEFFFFEB 		bl	_ZN6tflite12CreateTensorERN11flatbuffers17FlatBufferBuilderENS0_6OffsetINS0_6VectorIlEEEENS_10T
 4138 01dc 0530A0E1 		mov	r3, r5
 4139 01e0 0010A0E1 		mov	r1, r0
 4140 01e4 0520A0E1 		mov	r2, r5
 4141 01e8 0400A0E1 		mov	r0, r4
 4142 01ec FEFFFFEB 		bl	_ZN11flatbuffers17FlatBufferBuilder6FinishEmPKcb
 4143 01f0 0400A0E1 		mov	r0, r4
 4144 01f4 FEFFFFEB 		bl	_ZNK11flatbuffers17FlatBufferBuilder16GetBufferPointerEv
 4145              	.LEHE11:
 4146 01f8 003090E5 		ldr	r3, [r0]
 4147 01fc 030080E0 		add	r0, r0, r3
 4148 0200 70D08DE2 		add	sp, sp, #112
 4149              		@ sp needed
 4150 0204 F087BDE8 		pop	{r4, r5, r6, r7, r8, r9, r10, pc}
 4151              	.L406:
 4152              		.align	2
 4153              	.L405:
 4154 0208 00000000 		.word	.LANCHOR21
 4155 020c 00000000 		.word	.LANCHOR22
 4156 0210 00000000 		.word	.LANCHOR23
 4157 0214 00000000 		.word	.LANCHOR24
 4158 0218 00000000 		.word	.LC23
 4159              		.personality	__gxx_personality_v0
 4160              		.handlerdata
 4161              	.LLSDA6088:
 4162 0008 FF       		.byte	0xff
 4163 0009 FF       		.byte	0xff
 4164 000a 01       		.byte	0x1
 4165 000b 30       		.uleb128 .LLSDACSE6088-.LLSDACSB6088
 4166              	.LLSDACSB6088:
 4167 000c 34       		.uleb128 .LEHB3-.LFB6088
 4168 000d 04       		.uleb128 .LEHE3-.LEHB3
 4169 000e 00       		.uleb128 0
 4170 000f 00       		.uleb128 0
 4171 0010 40       		.uleb128 .LEHB4-.LFB6088
 4172 0011 28       		.uleb128 .LEHE4-.LEHB4
 4173 0012 E802     		.uleb128 .L393-.LFB6088
 4174 0014 00       		.uleb128 0
 4175 0015 70       		.uleb128 .LEHB5-.LFB6088
 4176 0016 28       		.uleb128 .LEHE5-.LEHB5
 4177 0017 E402     		.uleb128 .L394-.LFB6088
 4178 0019 00       		.uleb128 0
 4179 001a A001     		.uleb128 .LEHB6-.LFB6088
 4180 001c 04       		.uleb128 .LEHE6-.LEHB6
 4181 001d E002     		.uleb128 .L395-.LFB6088
 4182 001f 00       		.uleb128 0
 4183 0020 BC01     		.uleb128 .LEHB7-.LFB6088
 4184 0022 04       		.uleb128 .LEHE7-.LEHB7
 4185 0023 F401     		.uleb128 .L397-.LFB6088
 4186 0025 00       		.uleb128 0
 4187 0026 EC01     		.uleb128 .LEHB8-.LFB6088
 4188 0028 04       		.uleb128 .LEHE8-.LEHB8
 4189 0029 DC02     		.uleb128 .L396-.LFB6088
 4190 002b 00       		.uleb128 0
 4191 002c 9402     		.uleb128 .LEHB9-.LFB6088
 4192 002e 04       		.uleb128 .LEHE9-.LEHB9
 4193 002f 00       		.uleb128 0
 4194 0030 00       		.uleb128 0
 4195 0031 A402     		.uleb128 .LEHB10-.LFB6088
 4196 0033 34       		.uleb128 .LEHE10-.LEHB10
 4197 0034 DC02     		.uleb128 .L396-.LFB6088
 4198 0036 00       		.uleb128 0
 4199 0037 A403     		.uleb128 .LEHB11-.LFB6088
 4200 0039 54       		.uleb128 .LEHE11-.LEHB11
 4201 003a 00       		.uleb128 0
 4202 003b 00       		.uleb128 0
 4203              	.LLSDACSE6088:
 4204              		.section	.text._ZN6tflite7testing31CreateQuantizedFlatbufferTensorEi
 4205              		.fnend
 4207              		.weak	_ZTSN11flatbuffers9AllocatorE
 4208              		.section	.rodata._ZTSN11flatbuffers9AllocatorE,"aG",%progbits,_ZTSN11flatbuffers9AllocatorE,comdat
 4211              	_ZTSN11flatbuffers9AllocatorE:
 4212 0000 4E313166 		.ascii	"N11flatbuffers9AllocatorE\000"
 4212      6C617462 
 4212      75666665 
 4212      72733941 
 4212      6C6C6F63 
 4213              		.weak	_ZTIN11flatbuffers9AllocatorE
 4214              		.section	.rodata._ZTIN11flatbuffers9AllocatorE,"aG",%progbits,_ZTIN11flatbuffers9AllocatorE,comdat
 4215              		.align	2
 4218              	_ZTIN11flatbuffers9AllocatorE:
 4219 0000 08000000 		.word	_ZTVN10__cxxabiv117__class_type_infoE+8
 4220 0004 00000000 		.word	_ZTSN11flatbuffers9AllocatorE
 4221              		.weak	_ZTSN11flatbuffers16DefaultAllocatorE
 4222              		.section	.rodata._ZTSN11flatbuffers16DefaultAllocatorE,"aG",%progbits,_ZTSN11flatbuffers16DefaultA
 4225              	_ZTSN11flatbuffers16DefaultAllocatorE:
 4226 0000 4E313166 		.ascii	"N11flatbuffers16DefaultAllocatorE\000"
 4226      6C617462 
 4226      75666665 
 4226      72733136 
 4226      44656661 
 4227              		.weak	_ZTIN11flatbuffers16DefaultAllocatorE
 4228              		.section	.rodata._ZTIN11flatbuffers16DefaultAllocatorE,"aG",%progbits,_ZTIN11flatbuffers16DefaultA
 4229              		.align	2
 4232              	_ZTIN11flatbuffers16DefaultAllocatorE:
 4233 0000 08000000 		.word	_ZTVN10__cxxabiv120__si_class_type_infoE+8
 4234 0004 00000000 		.word	_ZTSN11flatbuffers16DefaultAllocatorE
 4235 0008 00000000 		.word	_ZTIN11flatbuffers9AllocatorE
 4236              		.weak	_ZTVN11flatbuffers16DefaultAllocatorE
 4237              		.section	.rodata._ZTVN11flatbuffers16DefaultAllocatorE,"aG",%progbits,_ZTVN11flatbuffers16DefaultA
 4238              		.align	2
 4241              	_ZTVN11flatbuffers16DefaultAllocatorE:
 4242 0000 00000000 		.word	0
 4243 0004 00000000 		.word	_ZTIN11flatbuffers16DefaultAllocatorE
 4244 0008 00000000 		.word	_ZN11flatbuffers16DefaultAllocatorD1Ev
 4245 000c 00000000 		.word	_ZN11flatbuffers16DefaultAllocatorD0Ev
 4246 0010 00000000 		.word	_ZN11flatbuffers16DefaultAllocator8allocateEj
 4247 0014 00000000 		.word	_ZN11flatbuffers16DefaultAllocator10deallocateEPhj
 4248 0018 00000000 		.word	_ZN11flatbuffers9Allocator19reallocate_downwardEPhjjjj
 4249              		.weak	_ZN11flatbuffers25flatbuffer_version_stringE
 4250              		.section	.rodata
 4251              		.align	2
 4252              		.set	.LANCHOR20,. + 0
 4253              	.LC1:
 4254 0000 00000000 		.word	0
 4255 0004 01000000 		.word	1
 4256 0008 02000000 		.word	2
 4257              	.LC2:
 4258 000c 03000000 		.word	3
 4259 0010 04000000 		.word	4
 4260 0014 05000000 		.word	5
 4261              	.LC3:
 4262 0018 06000000 		.word	6
 4263 001c 07000000 		.word	7
 4264 0020 08000000 		.word	8
 4265              		.section	.bss._ZGVZN6tflite7testing12_GLOBAL__N_114StackAllocator8instanceEvE4inst,"aw",%nobits
 4266              		.align	2
 4267              		.set	.LANCHOR1,. + 0
 4270              	_ZGVZN6tflite7testing12_GLOBAL__N_114StackAllocator8instanceEvE4inst:
 4271 0000 00000000 		.space	4
 4272              		.section	.bss._ZGVZN6tflite7testing12_GLOBAL__N_115BuilderInstanceEvE4inst,"aw",%nobits
 4273              		.align	2
 4274              		.set	.LANCHOR0,. + 0
 4277              	_ZGVZN6tflite7testing12_GLOBAL__N_115BuilderInstanceEvE4inst:
 4278 0000 00000000 		.space	4
 4279              		.section	.bss._ZZN6tflite7testing12_GLOBAL__N_114StackAllocator8instanceEvE11inst_memory,"aw",%nob
 4280              		.set	.LANCHOR2,. + 0
 4283              	_ZZN6tflite7testing12_GLOBAL__N_114StackAllocator8instanceEvE11inst_memory:
 4284 0000 00000000 		.space	4108
 4284      00000000 
 4284      00000000 
 4284      00000000 
 4284      00000000 
 4285              		.section	.bss._ZZN6tflite7testing12_GLOBAL__N_114StackAllocator8instanceEvE4inst,"aw",%nobits
 4286              		.align	2
 4287              		.set	.LANCHOR4,. + 0
 4290              	_ZZN6tflite7testing12_GLOBAL__N_114StackAllocator8instanceEvE4inst:
 4291 0000 00000000 		.space	4
 4292              		.section	.bss._ZZN6tflite7testing12_GLOBAL__N_115BuilderInstanceEvE11inst_memory,"aw",%nobits
 4293              		.set	.LANCHOR5,. + 0
 4296              	_ZZN6tflite7testing12_GLOBAL__N_115BuilderInstanceEvE11inst_memory:
 4297 0000 00000000 		.space	52
 4297      00000000 
 4297      00000000 
 4297      00000000 
 4297      00000000 
 4298              		.section	.bss._ZZN6tflite7testing12_GLOBAL__N_115BuilderInstanceEvE4inst,"aw",%nobits
 4299              		.align	2
 4300              		.set	.LANCHOR6,. + 0
 4303              	_ZZN6tflite7testing12_GLOBAL__N_115BuilderInstanceEvE4inst:
 4304 0000 00000000 		.space	4
 4305              		.section	.bss._ZZN6tflite7testing18GetSimpleMockModelEvE5model,"aw",%nobits
 4306              		.align	2
 4307              		.set	.LANCHOR18,. + 0
 4310              	_ZZN6tflite7testing18GetSimpleMockModelEvE5model:
 4311 0000 00000000 		.space	4
 4312              		.section	.bss._ZZN6tflite7testing19GetComplexMockModelEvE5model,"aw",%nobits
 4313              		.align	2
 4314              		.set	.LANCHOR19,. + 0
 4317              	_ZZN6tflite7testing19GetComplexMockModelEvE5model:
 4318 0000 00000000 		.space	4
 4319              		.section	.data._ZN11flatbuffers25flatbuffer_version_stringE,"aw",%progbits
 4320              		.align	2
 4323              	_ZN11flatbuffers25flatbuffer_version_stringE:
 4324 0000 00000000 		.word	.LC42
 4325              		.section	.rodata.._64,"a",%progbits
 4326              		.align	2
 4327              		.set	.LANCHOR21,. + 0
 4330              	._64:
 4331 0000 CDCCCC3D 		.word	1036831949
 4332              		.section	.rodata.._65,"a",%progbits
 4333              		.align	2
 4334              		.set	.LANCHOR22,. + 0
 4337              	._65:
 4338 0000 CDCC4C3E 		.word	1045220557
 4339              		.section	.rodata.._66,"a",%progbits
 4340              		.align	2
 4341              		.set	.LANCHOR23,. + 0
 4344              	._66:
 4345 0000 9A99993E 		.word	1050253722
 4346              		.section	.rodata.._67,"a",%progbits
 4347              		.align	3
 4348              		.set	.LANCHOR24,. + 0
 4351              	._67:
 4352 0000 64000000 		.word	100
 4353 0004 00000000 		.word	0
 4354              		.section	.rodata._ZN11flatbuffers15vector_downward12ensure_spaceEj.str1.1,"aMS",%progbits,1
 4355              	.LC12:
 4356 0000 6375725F 		.ascii	"cur_ >= scratch_ && scratch_ >= buf_\000"
 4356      203E3D20 
 4356      73637261 
 4356      7463685F 
 4356      20262620 
 4357              	.LC13:
 4358 0025 73697A65 		.ascii	"size() < FLATBUFFERS_MAX_BUFFER_SIZE\000"
 4358      2829203C 
 4358      20464C41 
 4358      54425546 
 4358      46455253 
 4359              		.section	.rodata._ZN11flatbuffers17FlatBufferBuilder6FinishEmPKcb.str1.1,"aMS",%progbits,1
 4360              	.LC22:
 4361 0000 7374726C 		.ascii	"strlen(file_identifier) == kFileIdentifierLength\000"
 4361      656E2866 
 4361      696C655F 
 4361      6964656E 
 4361      74696669 
 4362              		.section	.rodata._ZN11flatbuffers17FlatBufferBuilder7ReferToEm.str1.1,"aMS",%progbits,1
 4363              	.LC15:
 4364 0000 6F666620 		.ascii	"off && off <= GetSize()\000"
 4364      2626206F 
 4364      6666203C 
 4364      3D204765 
 4364      7453697A 
 4365              		.section	.rodata._ZN11flatbuffers17FlatBufferBuilder8EndTableEm.str1.1,"aMS",%progbits,1
 4366              	.LC18:
 4367 0000 6E657374 		.ascii	"nested\000"
 4367      656400
 4368              	.LC19:
 4369 0007 7461626C 		.ascii	"table_object_size < 0x10000\000"
 4369      655F6F62 
 4369      6A656374 
 4369      5F73697A 
 4369      65203C20 
 4370              	.LC20:
 4371 0023 21526561 		.ascii	"!ReadScalar<voffset_t>(buf_.data() + field_location"
 4371      64536361 
 4371      6C61723C 
 4371      766F6666 
 4371      7365745F 
 4372 0056 2D3E6964 		.ascii	"->id)\000"
 4372      2900
 4373              	.LC21:
 4374 005c 6275665F 		.ascii	"buf_\000"
 4374      00
 4375              		.section	.rodata._ZN11flatbuffers17FlatBufferBuilder9NotNestedEv.str1.1,"aMS",%progbits,1
 4376              	.LC16:
 4377 0000 216E6573 		.ascii	"!nested\000"
 4377      74656400 
 4378              	.LC17:
 4379 0008 216E756D 		.ascii	"!num_field_loc\000"
 4379      5F666965 
 4379      6C645F6C 
 4379      6F6300
 4380              		.section	.rodata._ZN11flatbuffers9Allocator19reallocate_downwardEPhjjjj.str1.1,"aMS",%progbits,1
 4381              	.LC8:
 4382 0000 6E65775F 		.ascii	"new_size > old_size\000"
 4382      73697A65 
 4382      203E206F 
 4382      6C645F73 
 4382      697A6500 
 4383              	.LC9:
 4384 0014 433A2F52 		.ascii	"C:/Renesas/e2studio_2021_01_workspace_RZA2M_ANPR/AN"
 4384      656E6573 
 4384      61732F65 
 4384      32737475 
 4384      64696F5F 
 4385 0047 50525F52 		.ascii	"PR_RZA2M_GR_MANGO/src/tensorflow_lite/src/third_par"
 4385      5A41324D 
 4385      5F47525F 
 4385      4D414E47 
 4385      4F2F7372 
 4386 007a 74792F66 		.ascii	"ty/flatbuffers/include/flatbuffers/flatbuffers.h\000"
 4386      6C617462 
 4386      75666665 
 4386      72732F69 
 4386      6E636C75 
 4387              		.section	.rodata._ZN6tflite7testing18GetSimpleMockModelEv.str1.1,"aMS",%progbits,1
 4388              	.LC24:
 4389 0000 74657374 		.ascii	"test_input_tensor\000"
 4389      5F696E70 
 4389      75745F74 
 4389      656E736F 
 4389      7200
 4390              	.LC25:
 4391 0012 74657374 		.ascii	"test_weight_tensor\000"
 4391      5F776569 
 4391      6768745F 
 4391      74656E73 
 4391      6F7200
 4392              	.LC26:
 4393 0025 74657374 		.ascii	"test_output_tensor\000"
 4393      5F6F7574 
 4393      7075745F 
 4393      74656E73 
 4393      6F7200
 4394              	.LC27:
 4395 0038 74657374 		.ascii	"test_output2_tensor\000"
 4395      5F6F7574 
 4395      70757432 
 4395      5F74656E 
 4395      736F7200 
 4396              	.LC28:
 4397 004c 74657374 		.ascii	"test_subgraph\000"
 4397      5F737562 
 4397      67726170 
 4397      6800
 4398              	.LC29:
 4399 005a 6D6F636B 		.ascii	"mock_custom\000"
 4399      5F637573 
 4399      746F6D00 
 4400              	.LC30:
 4401 0066 74657374 		.ascii	"test_model\000"
 4401      5F6D6F64 
 4401      656C00
 4402              	.LC31:
 4403 0071 54464C33 		.ascii	"TFL3\000"
 4403      00
 4404              		.section	.rodata._ZN6tflite7testing19GetComplexMockModelEv.str1.1,"aMS",%progbits,1
 4405              	.LC32:
 4406 0000 74657374 		.ascii	"test_input_tensor_1\000"
 4406      5F696E70 
 4406      75745F74 
 4406      656E736F 
 4406      725F3100 
 4407              	.LC33:
 4408 0014 74657374 		.ascii	"test_variable_tensor_1\000"
 4408      5F766172 
 4408      6961626C 
 4408      655F7465 
 4408      6E736F72 
 4409              	.LC34:
 4410 002b 74657374 		.ascii	"test_weight_tensor_1\000"
 4410      5F776569 
 4410      6768745F 
 4410      74656E73 
 4410      6F725F31 
 4411              	.LC35:
 4412 0040 74657374 		.ascii	"test_output_tensor_1\000"
 4412      5F6F7574 
 4412      7075745F 
 4412      74656E73 
 4412      6F725F31 
 4413              	.LC36:
 4414 0055 74657374 		.ascii	"test_variable_tensor_2\000"
 4414      5F766172 
 4414      6961626C 
 4414      655F7465 
 4414      6E736F72 
 4415              	.LC37:
 4416 006c 74657374 		.ascii	"test_weight_tensor_2\000"
 4416      5F776569 
 4416      6768745F 
 4416      74656E73 
 4416      6F725F32 
 4417              	.LC38:
 4418 0081 74657374 		.ascii	"test_output_tensor_2\000"
 4418      5F6F7574 
 4418      7075745F 
 4418      74656E73 
 4418      6F725F32 
 4419              	.LC39:
 4420 0096 74657374 		.ascii	"test_variable_tensor_3\000"
 4420      5F766172 
 4420      6961626C 
 4420      655F7465 
 4420      6E736F72 
 4421              	.LC40:
 4422 00ad 74657374 		.ascii	"test_weight_tensor_3\000"
 4422      5F776569 
 4422      6768745F 
 4422      74656E73 
 4422      6F725F33 
 4423              	.LC41:
 4424 00c2 74657374 		.ascii	"test_output_tensor_3\000"
 4424      5F6F7574 
 4424      7075745F 
 4424      74656E73 
 4424      6F725F33 
 4425              		.section	.rodata._ZN6tflite7testing24Create1dFlatbufferTensorEib.str1.1,"aMS",%progbits,1
 4426              	.LC23:
 4427 0000 74657374 		.ascii	"test_tensor\000"
 4427      5F74656E 
 4427      736F7200 
 4428              		.section	.rodata._ZNK11flatbuffers15vector_downward11scratch_endEv.isra.8.part.9.str1.1,"aMS",%pro
 4429              	.LC11:
 4430 0000 73637261 		.ascii	"scratch_\000"
 4430      7463685F 
 4430      00
 4431              		.section	.rodata._ZNK11flatbuffers15vector_downward4dataEv.isra.5.part.6.str1.1,"aMS",%progbits,1
 4432              	.LC10:
 4433 0000 6375725F 		.ascii	"cur_\000"
 4433      00
 4434              		.section	.rodata._ZNK11flatbuffers17FlatBufferBuilder16GetBufferPointerEv.str1.1,"aMS",%progbits,1
 4435              	.LC14:
 4436 0000 66696E69 		.ascii	"finished\000"
 4436      73686564 
 4436      00
 4437              		.section	.rodata._ZTIN6tflite7testing12_GLOBAL__N_114StackAllocatorE,"a",%progbits
 4438              		.align	2
 4441              	_ZTIN6tflite7testing12_GLOBAL__N_114StackAllocatorE:
 4442 0000 08000000 		.word	_ZTVN10__cxxabiv120__si_class_type_infoE+8
 4443 0004 00000000 		.word	_ZTSN6tflite7testing12_GLOBAL__N_114StackAllocatorE
 4444 0008 00000000 		.word	_ZTIN11flatbuffers9AllocatorE
 4445              		.section	.rodata._ZTSN6tflite7testing12_GLOBAL__N_114StackAllocatorE,"a",%progbits
 4448              	_ZTSN6tflite7testing12_GLOBAL__N_114StackAllocatorE:
 4449 0000 2A4E3674 		.ascii	"*N6tflite7testing12_GLOBAL__N_114StackAllocatorE\000"
 4449      666C6974 
 4449      65377465 
 4449      7374696E 
 4449      6731325F 
 4450              		.section	.rodata._ZTVN6tflite7testing12_GLOBAL__N_114StackAllocatorE,"a",%progbits
 4451              		.align	2
 4452              		.set	.LANCHOR3,. + 0
 4455              	_ZTVN6tflite7testing12_GLOBAL__N_114StackAllocatorE:
 4456 0000 00000000 		.word	0
 4457 0004 00000000 		.word	_ZTIN6tflite7testing12_GLOBAL__N_114StackAllocatorE
 4458 0008 00000000 		.word	_ZN6tflite7testing12_GLOBAL__N_114StackAllocatorD1Ev
 4459 000c 00000000 		.word	_ZN6tflite7testing12_GLOBAL__N_114StackAllocatorD0Ev
 4460 0010 00000000 		.word	_ZN6tflite7testing12_GLOBAL__N_114StackAllocator8allocateEj
 4461 0014 00000000 		.word	_ZN6tflite7testing12_GLOBAL__N_114StackAllocator10deallocateEPhj
 4462 0018 00000000 		.word	_ZN11flatbuffers9Allocator19reallocate_downwardEPhjjjj
 4463              		.section	.rodata._ZZN11flatbuffers15vector_downward12ensure_spaceEjE19__PRETTY_FUNCTION__,"a",%pro
 4464              		.set	.LANCHOR10,. + 0
 4467              	_ZZN11flatbuffers15vector_downward12ensure_spaceEjE19__PRETTY_FUNCTION__:
 4468 0000 73697A65 		.ascii	"size_t flatbuffers::vector_downward::ensure_space(s"
 4468      5F742066 
 4468      6C617462 
 4468      75666665 
 4468      72733A3A 
 4469 0033 697A655F 		.ascii	"ize_t)\000"
 4469      742900
 4470              		.section	.rodata._ZZN11flatbuffers17FlatBufferBuilder6FinishEmPKcbE19__PRETTY_FUNCTION__,"a",%prog
 4471              		.set	.LANCHOR17,. + 0
 4474              	_ZZN11flatbuffers17FlatBufferBuilder6FinishEmPKcbE19__PRETTY_FUNCTION__:
 4475 0000 766F6964 		.ascii	"void flatbuffers::FlatBufferBuilder::Finish(flatbuf"
 4475      20666C61 
 4475      74627566 
 4475      66657273 
 4475      3A3A466C 
 4476 0033 66657273 		.ascii	"fers::uoffset_t, const char*, bool)\000"
 4476      3A3A756F 
 4476      66667365 
 4476      745F742C 
 4476      20636F6E 
 4477              		.section	.rodata._ZZN11flatbuffers17FlatBufferBuilder7ReferToEmE19__PRETTY_FUNCTION__,"a",%progbit
 4478              		.set	.LANCHOR12,. + 0
 4481              	_ZZN11flatbuffers17FlatBufferBuilder7ReferToEmE19__PRETTY_FUNCTION__:
 4482 0000 666C6174 		.ascii	"flatbuffers::uoffset_t flatbuffers::FlatBufferBuild"
 4482      62756666 
 4482      6572733A 
 4482      3A756F66 
 4482      66736574 
 4483 0033 65723A3A 		.ascii	"er::ReferTo(flatbuffers::uoffset_t)\000"
 4483      52656665 
 4483      72546F28 
 4483      666C6174 
 4483      62756666 
 4484              		.section	.rodata._ZZN11flatbuffers17FlatBufferBuilder8EndTableEmE19__PRETTY_FUNCTION__,"a",%progbi
 4485              		.set	.LANCHOR14,. + 0
 4488              	_ZZN11flatbuffers17FlatBufferBuilder8EndTableEmE19__PRETTY_FUNCTION__:
 4489 0000 666C6174 		.ascii	"flatbuffers::uoffset_t flatbuffers::FlatBufferBuild"
 4489      62756666 
 4489      6572733A 
 4489      3A756F66 
 4489      66736574 
 4490 0033 65723A3A 		.ascii	"er::EndTable(flatbuffers::uoffset_t)\000"
 4490      456E6454 
 4490      61626C65 
 4490      28666C61 
 4490      74627566 
 4491              		.section	.rodata._ZZN11flatbuffers17FlatBufferBuilder9EndVectorEjE19__PRETTY_FUNCTION__,"a",%progb
 4492              		.set	.LANCHOR16,. + 0
 4495              	_ZZN11flatbuffers17FlatBufferBuilder9EndVectorEjE19__PRETTY_FUNCTION__:
 4496 0000 666C6174 		.ascii	"flatbuffers::uoffset_t flatbuffers::FlatBufferBuild"
 4496      62756666 
 4496      6572733A 
 4496      3A756F66 
 4496      66736574 
 4497 0033 65723A3A 		.ascii	"er::EndVector(size_t)\000"
 4497      456E6456 
 4497      6563746F 
 4497      72287369 
 4497      7A655F74 
 4498              		.section	.rodata._ZZN11flatbuffers17FlatBufferBuilder9NotNestedEvE19__PRETTY_FUNCTION__,"a",%progb
 4499              		.set	.LANCHOR13,. + 0
 4502              	_ZZN11flatbuffers17FlatBufferBuilder9NotNestedEvE19__PRETTY_FUNCTION__:
 4503 0000 766F6964 		.ascii	"void flatbuffers::FlatBufferBuilder::NotNested()\000"
 4503      20666C61 
 4503      74627566 
 4503      66657273 
 4503      3A3A466C 
 4504              		.section	.rodata._ZZN11flatbuffers9Allocator19reallocate_downwardEPhjjjjE19__PRETTY_FUNCTION__,"a"
 4505              		.set	.LANCHOR7,. + 0
 4508              	_ZZN11flatbuffers9Allocator19reallocate_downwardEPhjjjjE19__PRETTY_FUNCTION__:
 4509 0000 76697274 		.ascii	"virtual uint8_t* flatbuffers::Allocator::reallocate"
 4509      75616C20 
 4509      75696E74 
 4509      385F742A 
 4509      20666C61 
 4510 0033 5F646F77 		.ascii	"_downward(uint8_t*, size_t, size_t, size_t, size_t)"
 4510      6E776172 
 4510      64287569 
 4510      6E74385F 
 4510      742A2C20 
 4511 0066 00       		.ascii	"\000"
 4512              		.section	.rodata._ZZNK11flatbuffers15vector_downward11scratch_endEvE19__PRETTY_FUNCTION__,"a",%pro
 4513              		.set	.LANCHOR9,. + 0
 4516              	_ZZNK11flatbuffers15vector_downward11scratch_endEvE19__PRETTY_FUNCTION__:
 4517 0000 75696E74 		.ascii	"uint8_t* flatbuffers::vector_downward::scratch_end("
 4517      385F742A 
 4517      20666C61 
 4517      74627566 
 4517      66657273 
 4518 0033 2920636F 		.ascii	") const\000"
 4518      6E737400 
 4519              		.section	.rodata._ZZNK11flatbuffers15vector_downward12scratch_dataEvE19__PRETTY_FUNCTION__,"a",%pr
 4520              		.set	.LANCHOR15,. + 0
 4523              	_ZZNK11flatbuffers15vector_downward12scratch_dataEvE19__PRETTY_FUNCTION__:
 4524 0000 75696E74 		.ascii	"uint8_t* flatbuffers::vector_downward::scratch_data"
 4524      385F742A 
 4524      20666C61 
 4524      74627566 
 4524      66657273 
 4525 0033 28292063 		.ascii	"() const\000"
 4525      6F6E7374 
 4525      00
 4526              		.section	.rodata._ZZNK11flatbuffers15vector_downward4dataEvE19__PRETTY_FUNCTION__,"a",%progbits
 4527              		.set	.LANCHOR8,. + 0
 4530              	_ZZNK11flatbuffers15vector_downward4dataEvE19__PRETTY_FUNCTION__:
 4531 0000 75696E74 		.ascii	"uint8_t* flatbuffers::vector_downward::data() const"
 4531      385F742A 
 4531      20666C61 
 4531      74627566 
 4531      66657273 
 4532 0033 00       		.ascii	"\000"
 4533              		.section	.rodata._ZZNK11flatbuffers17FlatBufferBuilder8FinishedEvE19__PRETTY_FUNCTION__,"a",%progb
 4534              		.set	.LANCHOR11,. + 0
 4537              	_ZZNK11flatbuffers17FlatBufferBuilder8FinishedEvE19__PRETTY_FUNCTION__:
 4538 0000 766F6964 		.ascii	"void flatbuffers::FlatBufferBuilder::Finished() con"
 4538      20666C61 
 4538      74627566 
 4538      66657273 
 4538      3A3A466C 
 4539 0033 737400   		.ascii	"st\000"
 4540              		.section	.rodata.str1.1,"aMS",%progbits,1
 4541              	.LC42:
 4542 0000 466C6174 		.ascii	"FlatBuffers 1.11.0\000"
 4542      42756666 
 4542      65727320 
 4542      312E3131 
 4542      2E3000
 4543              		.ident	"GCC: (GNU Tools for ARM Embedded Processors 6-2017-q2-update) 6.3.1 20170620 (release) [AR