   1              		.cpu cortex-a9
   2              		.eabi_attribute 28, 1
   3              		.eabi_attribute 20, 1
   4              		.eabi_attribute 21, 1
   5              		.eabi_attribute 23, 3
   6              		.eabi_attribute 24, 1
   7              		.eabi_attribute 25, 1
   8              		.eabi_attribute 26, 1
   9              		.eabi_attribute 30, 1
  10              		.eabi_attribute 34, 0
  11              		.eabi_attribute 18, 4
  12              		.file	"r_bcd_lcd.c"
  13              		.text
  14              	.Ltext0:
  15              		.cfi_sections	.debug_frame
  16              		.section	.text.R_BCD_LcdGetVramAddress,"ax",%progbits
  17              		.align	2
  18              		.global	R_BCD_LcdGetVramAddress
  19              		.syntax unified
  20              		.arm
  21              		.fpu neon
  23              	R_BCD_LcdGetVramAddress:
  24              	.LFB1:
  25              		.file 1 "../src/renesas/application/r_bcd_lcd.c"
   1:../src/renesas/application/r_bcd_lcd.c **** /*******************************************************************************
   2:../src/renesas/application/r_bcd_lcd.c **** * DISCLAIMER
   3:../src/renesas/application/r_bcd_lcd.c **** * This software is supplied by Renesas Electronics Corporation and is only
   4:../src/renesas/application/r_bcd_lcd.c **** * intended for use with Renesas products. No other uses are authorized. This
   5:../src/renesas/application/r_bcd_lcd.c **** * software is owned by Renesas Electronics Corporation and is protected under
   6:../src/renesas/application/r_bcd_lcd.c **** * all applicable laws, including copyright laws.
   7:../src/renesas/application/r_bcd_lcd.c **** * THIS SOFTWARE IS PROVIDED "AS IS" AND RENESAS MAKES NO WARRANTIES REGARDING
   8:../src/renesas/application/r_bcd_lcd.c **** * THIS SOFTWARE, WHETHER EXPRESS, IMPLIED OR STATUTORY, INCLUDING BUT NOT
   9:../src/renesas/application/r_bcd_lcd.c **** * LIMITED TO WARRANTIES OF MERCHANTABILITY, FITNESS FOR A PARTICULAR PURPOSE
  10:../src/renesas/application/r_bcd_lcd.c **** * AND NON-INFRINGEMENT. ALL SUCH WARRANTIES ARE EXPRESSLY DISCLAIMED.
  11:../src/renesas/application/r_bcd_lcd.c **** * TO THE MAXIMUM EXTENT PERMITTED NOT PROHIBITED BY LAW, NEITHER RENESAS
  12:../src/renesas/application/r_bcd_lcd.c **** * ELECTRONICS CORPORATION NOR ANY OF ITS AFFILIATED COMPANIES SHALL BE LIABLE
  13:../src/renesas/application/r_bcd_lcd.c **** * FOR ANY DIRECT, INDIRECT, SPECIAL, INCIDENTAL OR CONSEQUENTIAL DAMAGES FOR
  14:../src/renesas/application/r_bcd_lcd.c **** * ANY REASON RELATED TO THIS SOFTWARE, EVEN IF RENESAS OR ITS AFFILIATES HAVE
  15:../src/renesas/application/r_bcd_lcd.c **** * BEEN ADVISED OF THE POSSIBILITY OF SUCH DAMAGES.
  16:../src/renesas/application/r_bcd_lcd.c **** * Renesas reserves the right, without notice, to make changes to this software
  17:../src/renesas/application/r_bcd_lcd.c **** * and to discontinue the availability of this software. By using this software,
  18:../src/renesas/application/r_bcd_lcd.c **** * you agree to the additional terms and conditions found by accessing the
  19:../src/renesas/application/r_bcd_lcd.c **** * following link:
  20:../src/renesas/application/r_bcd_lcd.c **** * http://www.renesas.com/disclaimer
  21:../src/renesas/application/r_bcd_lcd.c **** * Copyright (C) 2018 Renesas Electronics Corporation. All rights reserved.
  22:../src/renesas/application/r_bcd_lcd.c **** *******************************************************************************/
  23:../src/renesas/application/r_bcd_lcd.c **** 
  24:../src/renesas/application/r_bcd_lcd.c **** /******************************************************************************
  25:../src/renesas/application/r_bcd_lcd.c **** Includes   <System Includes> , "Project Includes"
  26:../src/renesas/application/r_bcd_lcd.c **** ******************************************************************************/
  27:../src/renesas/application/r_bcd_lcd.c **** #include <string.h>
  28:../src/renesas/application/r_bcd_lcd.c **** #include "r_typedefs.h"
  29:../src/renesas/application/r_bcd_lcd.c **** 
  30:../src/renesas/application/r_bcd_lcd.c **** #include "r_rvapi_vdc.h"
  31:../src/renesas/application/r_bcd_lcd.c **** #include "lcd_panel.h"
  32:../src/renesas/application/r_bcd_lcd.c **** #include "r_image_config.h"
  33:../src/renesas/application/r_bcd_lcd.c **** 
  34:../src/renesas/application/r_bcd_lcd.c **** #include "r_bcd_lcd.h"
  35:../src/renesas/application/r_bcd_lcd.c **** #include "draw.h"
  36:../src/renesas/application/r_bcd_lcd.c **** #include "fontdata.h"
  37:../src/renesas/application/r_bcd_lcd.c **** 
  38:../src/renesas/application/r_bcd_lcd.c **** /******************************************************************************
  39:../src/renesas/application/r_bcd_lcd.c **** Typedef definitions
  40:../src/renesas/application/r_bcd_lcd.c **** ******************************************************************************/
  41:../src/renesas/application/r_bcd_lcd.c **** 
  42:../src/renesas/application/r_bcd_lcd.c **** /******************************************************************************
  43:../src/renesas/application/r_bcd_lcd.c **** Macro definitions
  44:../src/renesas/application/r_bcd_lcd.c **** ******************************************************************************/
  45:../src/renesas/application/r_bcd_lcd.c **** //#define     LAYER0_DISP_AREA_HS         (0u)
  46:../src/renesas/application/r_bcd_lcd.c **** #define     LAYER0_DISP_AREA_HS         ((LCD_CH0_DISP_HW - R_BCD_LY2_WIDTH) / 2)
  47:../src/renesas/application/r_bcd_lcd.c **** //#define     LAYER0_DISP_AREA_VS         (0u)
  48:../src/renesas/application/r_bcd_lcd.c **** #define     LAYER0_DISP_AREA_VS         ((LCD_CH0_DISP_VW - R_BCD_LCD_HEIGHT) / 2)
  49:../src/renesas/application/r_bcd_lcd.c **** #define     LAYER0_DISP_AREA_HW         (R_BCD_LCD_WIDTH)
  50:../src/renesas/application/r_bcd_lcd.c **** #define     LAYER0_DISP_AREA_VW         (R_BCD_LCD_HEIGHT)
  51:../src/renesas/application/r_bcd_lcd.c **** 
  52:../src/renesas/application/r_bcd_lcd.c **** #define     VIDEO_BUFFER_STRIDE         ((LAYER0_DISP_AREA_HW + (R_BCD_LCD_STRIDE - 1)) & ~(R_BCD_L
  53:../src/renesas/application/r_bcd_lcd.c **** #define     VIDEO_BUFFER_HEIGHT         (LAYER0_DISP_AREA_VW)
  54:../src/renesas/application/r_bcd_lcd.c **** #define     VIDEO_BUFFER_NUM            (2u)
  55:../src/renesas/application/r_bcd_lcd.c **** 
  56:../src/renesas/application/r_bcd_lcd.c **** //#define     LAYER2_DISP_AREA_HS         (0u)
  57:../src/renesas/application/r_bcd_lcd.c **** #define     LAYER2_DISP_AREA_HS         ((LCD_CH0_DISP_HW - R_BCD_LY2_WIDTH) / 2)
  58:../src/renesas/application/r_bcd_lcd.c **** // #define     LAYER2_DISP_AREA_VS         (0u)
  59:../src/renesas/application/r_bcd_lcd.c **** #define     LAYER2_DISP_AREA_VS         ((LCD_CH0_DISP_VW - R_BCD_LCD_HEIGHT) / 2)
  60:../src/renesas/application/r_bcd_lcd.c **** #define     LAYER2_DISP_AREA_HW         (R_BCD_LY2_WIDTH)
  61:../src/renesas/application/r_bcd_lcd.c **** #define     LAYER2_DISP_AREA_VW         (R_BCD_LY2_HEIGHT)
  62:../src/renesas/application/r_bcd_lcd.c **** 
  63:../src/renesas/application/r_bcd_lcd.c **** #define     GRAPHICS2_BUFFER_STRIDE     (((LAYER2_DISP_AREA_HW / 2) + (R_BCD_LCD_STRIDE - 1)) & ~(R
  64:../src/renesas/application/r_bcd_lcd.c **** #define     GRAPHICS2_BUFFER_HEIGHT     (LAYER2_DISP_AREA_VW)
  65:../src/renesas/application/r_bcd_lcd.c **** #define     GRAPHICS2_BUFFER_NUM        (2u)
  66:../src/renesas/application/r_bcd_lcd.c **** 
  67:../src/renesas/application/r_bcd_lcd.c **** /******************************************************************************
  68:../src/renesas/application/r_bcd_lcd.c **** Imported global variables and functions (from other files)
  69:../src/renesas/application/r_bcd_lcd.c **** ******************************************************************************/
  70:../src/renesas/application/r_bcd_lcd.c **** extern void VDC_LcdPortSetting(uint32_t param);
  71:../src/renesas/application/r_bcd_lcd.c **** extern void DrawLine( vdc_layer_id_t layer_id, int32_t x1, int32_t y1, int32_t x2, int32_t y2, uint
  72:../src/renesas/application/r_bcd_lcd.c **** 
  73:../src/renesas/application/r_bcd_lcd.c **** /******************************************************************************
  74:../src/renesas/application/r_bcd_lcd.c **** Exported global variables and functions (to be accessed by other files)
  75:../src/renesas/application/r_bcd_lcd.c **** ******************************************************************************/
  76:../src/renesas/application/r_bcd_lcd.c **** 
  77:../src/renesas/application/r_bcd_lcd.c **** /******************************************************************************
  78:../src/renesas/application/r_bcd_lcd.c **** Private global variables and functions
  79:../src/renesas/application/r_bcd_lcd.c **** ******************************************************************************/
  80:../src/renesas/application/r_bcd_lcd.c **** static uint32_t video_buffer[VIDEO_BUFFER_NUM][(VIDEO_BUFFER_STRIDE * VIDEO_BUFFER_HEIGHT)] __attri
  81:../src/renesas/application/r_bcd_lcd.c **** //static uint8_t graphics2_buffer[GRAPHICS2_BUFFER_NUM][(GRAPHICS2_BUFFER_STRIDE * GRAPHICS2_BUFFER
  82:../src/renesas/application/r_bcd_lcd.c **** static uint8_t graphics2_buffer[GRAPHICS2_BUFFER_NUM][(GRAPHICS2_BUFFER_STRIDE * GRAPHICS2_BUFFER_H
  83:../src/renesas/application/r_bcd_lcd.c **** static volatile int32_t vsync_count = 0;
  84:../src/renesas/application/r_bcd_lcd.c **** 
  85:../src/renesas/application/r_bcd_lcd.c **** static uint32_t Req_Layer1_Swap = 0;
  86:../src/renesas/application/r_bcd_lcd.c **** static uint32_t Req_Layer2_Swap = 0;
  87:../src/renesas/application/r_bcd_lcd.c **** static uint32_t Layer1_buffer_id = 0;
  88:../src/renesas/application/r_bcd_lcd.c **** static uint32_t layer2_buffer_id = 0;
  89:../src/renesas/application/r_bcd_lcd.c **** 
  90:../src/renesas/application/r_bcd_lcd.c **** static void IntCallbackFunc (vdc_int_type_t int_type);
  91:../src/renesas/application/r_bcd_lcd.c **** vdc_error_t r_display_init(const vdc_channel_t vdc_ch);
  92:../src/renesas/application/r_bcd_lcd.c **** vdc_error_t r_image_quality_adjustment(vdc_channel_t vdc_ch);
  93:../src/renesas/application/r_bcd_lcd.c **** vdc_error_t r_video_quality_adjustment(vdc_channel_t vdc_ch);
  94:../src/renesas/application/r_bcd_lcd.c **** 
  95:../src/renesas/application/r_bcd_lcd.c **** /******************************************************************************
  96:../src/renesas/application/r_bcd_lcd.c **** * Function Name: R_BCD_LcdGetVramAddress
  97:../src/renesas/application/r_bcd_lcd.c **** * Description  : Acquire the address of the video buffer which is not currently being displayed
  98:../src/renesas/application/r_bcd_lcd.c **** * Arguments    : -
  99:../src/renesas/application/r_bcd_lcd.c **** * Return Value : Video buffer address
 100:../src/renesas/application/r_bcd_lcd.c **** ******************************************************************************/
 101:../src/renesas/application/r_bcd_lcd.c **** uint8_t *R_BCD_LcdGetVramAddress(void)
 102:../src/renesas/application/r_bcd_lcd.c **** {
  26              		.loc 1 102 0
  27              		.cfi_startproc
  28              		@ args = 0, pretend = 0, frame = 0
  29              		@ frame_needed = 0, uses_anonymous_args = 0
  30              		@ link register save eliminated.
 103:../src/renesas/application/r_bcd_lcd.c ****     uint8_t *paddr;
 104:../src/renesas/application/r_bcd_lcd.c **** 
 105:../src/renesas/application/r_bcd_lcd.c ****     if (Req_Layer1_Swap != 0)
  31              		.loc 1 105 0
  32 0000 003000E3 		movw	r3, #:lower16:.LANCHOR0
  33 0004 003040E3 		movt	r3, #:upper16:.LANCHOR0
  34 0008 003093E5 		ldr	r3, [r3]
  35 000c 000053E3 		cmp	r3, #0
  36 0010 0700001A 		bne	.L4
 106:../src/renesas/application/r_bcd_lcd.c ****     {
 107:../src/renesas/application/r_bcd_lcd.c ****         paddr = &video_buffer[1-Layer1_buffer_id][0];
 108:../src/renesas/application/r_bcd_lcd.c ****     }
 109:../src/renesas/application/r_bcd_lcd.c ****     else
 110:../src/renesas/application/r_bcd_lcd.c ****     {
 111:../src/renesas/application/r_bcd_lcd.c ****         paddr = &video_buffer[Layer1_buffer_id][0];
  37              		.loc 1 111 0
  38 0014 003000E3 		movw	r3, #:lower16:.LANCHOR1
  39 0018 003040E3 		movt	r3, #:upper16:.LANCHOR1
  40 001c 000093E5 		ldr	r0, [r3]
  41 0020 003000E3 		movw	r3, #:lower16:.LANCHOR2
  42 0024 003040E3 		movt	r3, #:upper16:.LANCHOR2
  43 0028 4B29A0E3 		mov	r2, #1228800
  44 002c 923020E0 		mla	r0, r2, r0, r3
  45              	.LVL0:
 112:../src/renesas/application/r_bcd_lcd.c ****     }
 113:../src/renesas/application/r_bcd_lcd.c **** 
 114:../src/renesas/application/r_bcd_lcd.c ****     return paddr;
 115:../src/renesas/application/r_bcd_lcd.c **** }
  46              		.loc 1 115 0
  47 0030 1EFF2FE1 		bx	lr
  48              	.LVL1:
  49              	.L4:
 107:../src/renesas/application/r_bcd_lcd.c ****     }
  50              		.loc 1 107 0
  51 0034 003000E3 		movw	r3, #:lower16:.LANCHOR1
  52 0038 003040E3 		movt	r3, #:upper16:.LANCHOR1
  53 003c 000093E5 		ldr	r0, [r3]
  54 0040 010060E2 		rsb	r0, r0, #1
  55 0044 003000E3 		movw	r3, #:lower16:.LANCHOR2
  56 0048 003040E3 		movt	r3, #:upper16:.LANCHOR2
  57 004c 4B29A0E3 		mov	r2, #1228800
  58 0050 923020E0 		mla	r0, r2, r0, r3
  59              	.LVL2:
  60 0054 1EFF2FE1 		bx	lr
  61              		.cfi_endproc
  62              	.LFE1:
  64              		.section	.text.R_BCD_LcdGetvisableVramAddress,"ax",%progbits
  65              		.align	2
  66              		.global	R_BCD_LcdGetvisableVramAddress
  67              		.syntax unified
  68              		.arm
  69              		.fpu neon
  71              	R_BCD_LcdGetvisableVramAddress:
  72              	.LFB2:
 116:../src/renesas/application/r_bcd_lcd.c **** 
 117:../src/renesas/application/r_bcd_lcd.c **** /******************************************************************************
 118:../src/renesas/application/r_bcd_lcd.c **** * Function Name: R_BCD_LcdGetvisableVramAddress
 119:../src/renesas/application/r_bcd_lcd.c **** * Description  : Acquire the address of the video buffer which is currently being displayed
 120:../src/renesas/application/r_bcd_lcd.c **** * Arguments    : -
 121:../src/renesas/application/r_bcd_lcd.c **** * Return Value : Video buffer 0 address
 122:../src/renesas/application/r_bcd_lcd.c **** ******************************************************************************/
 123:../src/renesas/application/r_bcd_lcd.c **** uint8_t *R_BCD_LcdGetvisableVramAddress(void)
 124:../src/renesas/application/r_bcd_lcd.c **** {
  73              		.loc 1 124 0
  74              		.cfi_startproc
  75              		@ args = 0, pretend = 0, frame = 0
  76              		@ frame_needed = 0, uses_anonymous_args = 0
  77              		@ link register save eliminated.
 125:../src/renesas/application/r_bcd_lcd.c ****     uint8_t *paddr;
 126:../src/renesas/application/r_bcd_lcd.c **** 
 127:../src/renesas/application/r_bcd_lcd.c ****     if (Req_Layer1_Swap == 0)
  78              		.loc 1 127 0
  79 0000 003000E3 		movw	r3, #:lower16:.LANCHOR0
  80 0004 003040E3 		movt	r3, #:upper16:.LANCHOR0
  81 0008 003093E5 		ldr	r3, [r3]
  82 000c 000053E3 		cmp	r3, #0
  83 0010 0700000A 		beq	.L8
 128:../src/renesas/application/r_bcd_lcd.c ****     {
 129:../src/renesas/application/r_bcd_lcd.c ****         paddr = &video_buffer[1-Layer1_buffer_id][0];
 130:../src/renesas/application/r_bcd_lcd.c ****     }
 131:../src/renesas/application/r_bcd_lcd.c ****     else
 132:../src/renesas/application/r_bcd_lcd.c ****     {
 133:../src/renesas/application/r_bcd_lcd.c ****         paddr = &video_buffer[Layer1_buffer_id][0];
  84              		.loc 1 133 0
  85 0014 003000E3 		movw	r3, #:lower16:.LANCHOR1
  86 0018 003040E3 		movt	r3, #:upper16:.LANCHOR1
  87 001c 000093E5 		ldr	r0, [r3]
  88 0020 003000E3 		movw	r3, #:lower16:.LANCHOR2
  89 0024 003040E3 		movt	r3, #:upper16:.LANCHOR2
  90 0028 4B29A0E3 		mov	r2, #1228800
  91 002c 923020E0 		mla	r0, r2, r0, r3
  92              	.LVL3:
 134:../src/renesas/application/r_bcd_lcd.c ****     }
 135:../src/renesas/application/r_bcd_lcd.c **** 
 136:../src/renesas/application/r_bcd_lcd.c ****     return paddr;
 137:../src/renesas/application/r_bcd_lcd.c **** }
  93              		.loc 1 137 0
  94 0030 1EFF2FE1 		bx	lr
  95              	.LVL4:
  96              	.L8:
 129:../src/renesas/application/r_bcd_lcd.c ****     }
  97              		.loc 1 129 0
  98 0034 003000E3 		movw	r3, #:lower16:.LANCHOR1
  99 0038 003040E3 		movt	r3, #:upper16:.LANCHOR1
 100 003c 000093E5 		ldr	r0, [r3]
 101 0040 010060E2 		rsb	r0, r0, #1
 102 0044 003000E3 		movw	r3, #:lower16:.LANCHOR2
 103 0048 003040E3 		movt	r3, #:upper16:.LANCHOR2
 104 004c 4B29A0E3 		mov	r2, #1228800
 105 0050 923020E0 		mla	r0, r2, r0, r3
 106              	.LVL5:
 107 0054 1EFF2FE1 		bx	lr
 108              		.cfi_endproc
 109              	.LFE2:
 111              		.section	.text.R_BCD_LcdGetOLVramAddress,"ax",%progbits
 112              		.align	2
 113              		.global	R_BCD_LcdGetOLVramAddress
 114              		.syntax unified
 115              		.arm
 116              		.fpu neon
 118              	R_BCD_LcdGetOLVramAddress:
 119              	.LFB3:
 138:../src/renesas/application/r_bcd_lcd.c **** 
 139:../src/renesas/application/r_bcd_lcd.c **** 
 140:../src/renesas/application/r_bcd_lcd.c **** /******************************************************************************
 141:../src/renesas/application/r_bcd_lcd.c **** * Function Name: R_BCD_LcdGetOLVramAddress
 142:../src/renesas/application/r_bcd_lcd.c **** * Description  : Acquire the address of the Overlap buffer which is not currently being displayed
 143:../src/renesas/application/r_bcd_lcd.c **** * Arguments    : -
 144:../src/renesas/application/r_bcd_lcd.c **** * Return Value : Overlap buffer address
 145:../src/renesas/application/r_bcd_lcd.c **** ******************************************************************************/
 146:../src/renesas/application/r_bcd_lcd.c **** uint8_t *R_BCD_LcdGetOLVramAddress(void)
 147:../src/renesas/application/r_bcd_lcd.c **** {
 120              		.loc 1 147 0
 121              		.cfi_startproc
 122              		@ args = 0, pretend = 0, frame = 0
 123              		@ frame_needed = 0, uses_anonymous_args = 0
 124              		@ link register save eliminated.
 148:../src/renesas/application/r_bcd_lcd.c ****     uint8_t *paddr;
 149:../src/renesas/application/r_bcd_lcd.c **** 
 150:../src/renesas/application/r_bcd_lcd.c ****     if (Req_Layer2_Swap != 0)
 125              		.loc 1 150 0
 126 0000 003000E3 		movw	r3, #:lower16:.LANCHOR3
 127 0004 003040E3 		movt	r3, #:upper16:.LANCHOR3
 128 0008 003093E5 		ldr	r3, [r3]
 129 000c 000053E3 		cmp	r3, #0
 130 0010 0700001A 		bne	.L12
 151:../src/renesas/application/r_bcd_lcd.c ****     {
 152:../src/renesas/application/r_bcd_lcd.c ****         paddr = &graphics2_buffer[1-layer2_buffer_id][0];
 153:../src/renesas/application/r_bcd_lcd.c ****     }
 154:../src/renesas/application/r_bcd_lcd.c ****     else
 155:../src/renesas/application/r_bcd_lcd.c ****     {
 156:../src/renesas/application/r_bcd_lcd.c ****         paddr =  &graphics2_buffer[layer2_buffer_id][0];
 131              		.loc 1 156 0
 132 0014 003000E3 		movw	r3, #:lower16:.LANCHOR4
 133 0018 003040E3 		movt	r3, #:upper16:.LANCHOR4
 134 001c 000093E5 		ldr	r0, [r3]
 135 0020 003000E3 		movw	r3, #:lower16:.LANCHOR5
 136 0024 003040E3 		movt	r3, #:upper16:.LANCHOR5
 137 0028 C32BA0E3 		mov	r2, #199680
 138 002c 923020E0 		mla	r0, r2, r0, r3
 139              	.LVL6:
 157:../src/renesas/application/r_bcd_lcd.c ****     }
 158:../src/renesas/application/r_bcd_lcd.c **** 
 159:../src/renesas/application/r_bcd_lcd.c ****     return paddr;
 160:../src/renesas/application/r_bcd_lcd.c **** }
 140              		.loc 1 160 0
 141 0030 1EFF2FE1 		bx	lr
 142              	.LVL7:
 143              	.L12:
 152:../src/renesas/application/r_bcd_lcd.c ****     }
 144              		.loc 1 152 0
 145 0034 003000E3 		movw	r3, #:lower16:.LANCHOR4
 146 0038 003040E3 		movt	r3, #:upper16:.LANCHOR4
 147 003c 000093E5 		ldr	r0, [r3]
 148 0040 010060E2 		rsb	r0, r0, #1
 149 0044 003000E3 		movw	r3, #:lower16:.LANCHOR5
 150 0048 003040E3 		movt	r3, #:upper16:.LANCHOR5
 151 004c C32BA0E3 		mov	r2, #199680
 152 0050 923020E0 		mla	r0, r2, r0, r3
 153              	.LVL8:
 154 0054 1EFF2FE1 		bx	lr
 155              		.cfi_endproc
 156              	.LFE3:
 158              		.section	.text.r_display_init,"ax",%progbits
 159              		.align	2
 160              		.global	r_display_init
 161              		.syntax unified
 162              		.arm
 163              		.fpu neon
 165              	r_display_init:
 166              	.LFB6:
 161:../src/renesas/application/r_bcd_lcd.c **** 
 162:../src/renesas/application/r_bcd_lcd.c **** /******************************************************************************
 163:../src/renesas/application/r_bcd_lcd.c **** * Function Name: IntCallbackFunc
 164:../src/renesas/application/r_bcd_lcd.c **** * Description  : VDC6 Interrupt callback function
 165:../src/renesas/application/r_bcd_lcd.c **** * Arguments    : int_type
 166:../src/renesas/application/r_bcd_lcd.c **** *              :   VDC6 interrupt type
 167:../src/renesas/application/r_bcd_lcd.c **** * Return Value : -
 168:../src/renesas/application/r_bcd_lcd.c **** ******************************************************************************/
 169:../src/renesas/application/r_bcd_lcd.c **** static void IntCallbackFunc(vdc_int_type_t int_type)
 170:../src/renesas/application/r_bcd_lcd.c **** {
 171:../src/renesas/application/r_bcd_lcd.c ****     if( int_type == VDC_INT_TYPE_VLINE )
 172:../src/renesas/application/r_bcd_lcd.c ****     {
 173:../src/renesas/application/r_bcd_lcd.c ****         /* Update the LCD output.*/
 174:../src/renesas/application/r_bcd_lcd.c ****         R_BCD_LcdVSync();
 175:../src/renesas/application/r_bcd_lcd.c ****     }
 176:../src/renesas/application/r_bcd_lcd.c **** 
 177:../src/renesas/application/r_bcd_lcd.c ****     if( int_type == VDC_INT_TYPE_S0_LO_VSYNC )
 178:../src/renesas/application/r_bcd_lcd.c ****     {
 179:../src/renesas/application/r_bcd_lcd.c ****         if (vsync_count > 0)
 180:../src/renesas/application/r_bcd_lcd.c ****         {
 181:../src/renesas/application/r_bcd_lcd.c ****             vsync_count--;
 182:../src/renesas/application/r_bcd_lcd.c ****         }
 183:../src/renesas/application/r_bcd_lcd.c ****     }
 184:../src/renesas/application/r_bcd_lcd.c **** 
 185:../src/renesas/application/r_bcd_lcd.c ****     return;
 186:../src/renesas/application/r_bcd_lcd.c **** }
 187:../src/renesas/application/r_bcd_lcd.c **** 
 188:../src/renesas/application/r_bcd_lcd.c **** /******************************************************************************
 189:../src/renesas/application/r_bcd_lcd.c **** * Function Name: R_BCD_LcdInit
 190:../src/renesas/application/r_bcd_lcd.c **** * Description  : LCD initialization processing
 191:../src/renesas/application/r_bcd_lcd.c **** * Arguments    : -
 192:../src/renesas/application/r_bcd_lcd.c **** * Return Value : Always returns 0
 193:../src/renesas/application/r_bcd_lcd.c **** ******************************************************************************/
 194:../src/renesas/application/r_bcd_lcd.c **** int32_t R_BCD_LcdInit(void)
 195:../src/renesas/application/r_bcd_lcd.c **** {
 196:../src/renesas/application/r_bcd_lcd.c ****     vdc_error_t error;
 197:../src/renesas/application/r_bcd_lcd.c ****     vdc_channel_t vdc_ch = VDC_CHANNEL_0;
 198:../src/renesas/application/r_bcd_lcd.c ****     uint32_t table_no;
 199:../src/renesas/application/r_bcd_lcd.c ****     uint32_t clut[256];
 200:../src/renesas/application/r_bcd_lcd.c **** 
 201:../src/renesas/application/r_bcd_lcd.c ****     /***********************************************************************/
 202:../src/renesas/application/r_bcd_lcd.c ****     /* display init (VDC6 output setting) */
 203:../src/renesas/application/r_bcd_lcd.c ****     /***********************************************************************/
 204:../src/renesas/application/r_bcd_lcd.c ****     error = r_display_init (vdc_ch);
 205:../src/renesas/application/r_bcd_lcd.c **** 
 206:../src/renesas/application/r_bcd_lcd.c ****     /***********************************************************************/
 207:../src/renesas/application/r_bcd_lcd.c ****     /* Interrupt init */
 208:../src/renesas/application/r_bcd_lcd.c ****     /***********************************************************************/
 209:../src/renesas/application/r_bcd_lcd.c ****     if (error == VDC_OK)
 210:../src/renesas/application/r_bcd_lcd.c ****     {
 211:../src/renesas/application/r_bcd_lcd.c ****         uint16_t line_num;
 212:../src/renesas/application/r_bcd_lcd.c **** 
 213:../src/renesas/application/r_bcd_lcd.c ****         line_num = LCD_CH0_DISP_VS + R_BCD_LCD_HEIGHT;
 214:../src/renesas/application/r_bcd_lcd.c ****         error = R_RVAPI_InterruptEnableVDC(vdc_ch, VDC_INT_TYPE_VLINE, line_num, IntCallbackFunc);
 215:../src/renesas/application/r_bcd_lcd.c ****     }
 216:../src/renesas/application/r_bcd_lcd.c **** 
 217:../src/renesas/application/r_bcd_lcd.c ****     if (error == VDC_OK)
 218:../src/renesas/application/r_bcd_lcd.c ****     {
 219:../src/renesas/application/r_bcd_lcd.c ****         error = R_RVAPI_InterruptEnableVDC(vdc_ch, VDC_INT_TYPE_S0_LO_VSYNC, 0, IntCallbackFunc);
 220:../src/renesas/application/r_bcd_lcd.c ****     }
 221:../src/renesas/application/r_bcd_lcd.c **** 
 222:../src/renesas/application/r_bcd_lcd.c ****     /***********************************************************************/
 223:../src/renesas/application/r_bcd_lcd.c ****     /* Graphic Layer 0 VDC6_GR_FORMAT_CLUT8 */
 224:../src/renesas/application/r_bcd_lcd.c ****     /***********************************************************************/
 225:../src/renesas/application/r_bcd_lcd.c ****     if (error == VDC_OK)
 226:../src/renesas/application/r_bcd_lcd.c ****     {
 227:../src/renesas/application/r_bcd_lcd.c ****         gr_surface_disp_config_t gr_disp_cnf;
 228:../src/renesas/application/r_bcd_lcd.c **** 
 229:../src/renesas/application/r_bcd_lcd.c ****         for(table_no = 0; table_no < 256 ; table_no ++ )
 230:../src/renesas/application/r_bcd_lcd.c ****         {
 231:../src/renesas/application/r_bcd_lcd.c ****             clut[table_no] = 0xFF000000 | (table_no << 16 ) | (table_no << 8) | table_no;
 232:../src/renesas/application/r_bcd_lcd.c ****         }
 233:../src/renesas/application/r_bcd_lcd.c **** 
 234:../src/renesas/application/r_bcd_lcd.c ****         gr_disp_cnf.layer_id  = VDC_LAYER_ID_0_RD;         /* Layer ID                        */
 235:../src/renesas/application/r_bcd_lcd.c ****         gr_disp_cnf.fb_buff   = (void *)&video_buffer[0];   /* Frame buffer address            */
 236:../src/renesas/application/r_bcd_lcd.c ****         gr_disp_cnf.fb_stride = VIDEO_BUFFER_STRIDE*4;        /* Frame buffer stride             */
 237:../src/renesas/application/r_bcd_lcd.c **** //        gr_disp_cnf.fb_stride = VIDEO_BUFFER_STRIDE;        /* Frame buffer stride             */
 238:../src/renesas/application/r_bcd_lcd.c **** 
 239:../src/renesas/application/r_bcd_lcd.c ****         /* Display Area               */
 240:../src/renesas/application/r_bcd_lcd.c ****         gr_disp_cnf.disp_area.hs_rel = LAYER0_DISP_AREA_HS;
 241:../src/renesas/application/r_bcd_lcd.c ****         gr_disp_cnf.disp_area.hw_rel = LAYER0_DISP_AREA_HW;
 242:../src/renesas/application/r_bcd_lcd.c ****         gr_disp_cnf.disp_area.vs_rel = LAYER0_DISP_AREA_VS;
 243:../src/renesas/application/r_bcd_lcd.c ****         gr_disp_cnf.disp_area.vw_rel = LAYER0_DISP_AREA_VW;
 244:../src/renesas/application/r_bcd_lcd.c **** 
 245:../src/renesas/application/r_bcd_lcd.c ****         gr_disp_cnf.read_format   = VDC_GR_FORMAT_RGB888;           /* Read Format                *
 246:../src/renesas/application/r_bcd_lcd.c **** //        gr_disp_cnf.read_format   = VDC_GR_FORMAT_CLUT8;           /* Read Format                
 247:../src/renesas/application/r_bcd_lcd.c ****         gr_disp_cnf.read_ycc_swap = VDC_GR_YCCSWAP_CBY0CRY1;       /* Read Swap for YCbCr422     */
 248:../src/renesas/application/r_bcd_lcd.c ****         gr_disp_cnf.read_swap     = VDC_WR_RD_WRSWA_32_16_8BIT;    /* Read Swap 8bit/16bit/32bit */
 249:../src/renesas/application/r_bcd_lcd.c **** 
 250:../src/renesas/application/r_bcd_lcd.c ****         gr_disp_cnf.clut_table = clut;  /* Setting if Read Format is CLUT. */
 251:../src/renesas/application/r_bcd_lcd.c **** 
 252:../src/renesas/application/r_bcd_lcd.c ****         gr_disp_cnf.disp_mode = VDC_DISPSEL_CURRENT;   /* Display mode select        */
 253:../src/renesas/application/r_bcd_lcd.c **** 
 254:../src/renesas/application/r_bcd_lcd.c ****         error = R_RVAPI_GraphCreateSurfaceVDC(vdc_ch, &gr_disp_cnf);
 255:../src/renesas/application/r_bcd_lcd.c ****    }
 256:../src/renesas/application/r_bcd_lcd.c **** 
 257:../src/renesas/application/r_bcd_lcd.c ****     /***********************************************************************/
 258:../src/renesas/application/r_bcd_lcd.c ****     /* Graphic Layer 2 VDC6_GR_FORMAT_CLUT4 */
 259:../src/renesas/application/r_bcd_lcd.c ****     /***********************************************************************/
 260:../src/renesas/application/r_bcd_lcd.c ****     if (error == VDC_OK)
 261:../src/renesas/application/r_bcd_lcd.c ****     {
 262:../src/renesas/application/r_bcd_lcd.c ****         gr_surface_disp_config_t gr_disp_cnf;
 263:../src/renesas/application/r_bcd_lcd.c **** 
 264:../src/renesas/application/r_bcd_lcd.c ****         clut[BLACK]       = BLACK_DATA;
 265:../src/renesas/application/r_bcd_lcd.c ****         clut[BLUE]        = BLUE_DATA;
 266:../src/renesas/application/r_bcd_lcd.c ****         clut[GREEN]       = GREEN_DATA;
 267:../src/renesas/application/r_bcd_lcd.c ****         clut[RED]         = RED_DATA;
 268:../src/renesas/application/r_bcd_lcd.c ****         clut[WHITE]       = WHITE_DATA;
 269:../src/renesas/application/r_bcd_lcd.c ****         clut[CYAN]        = CYAN_DATA;
 270:../src/renesas/application/r_bcd_lcd.c ****         clut[YELLOW]      = YELLOW_DATA;
 271:../src/renesas/application/r_bcd_lcd.c ****         clut[MAGENTA]     = MAGENTA_DATA;
 272:../src/renesas/application/r_bcd_lcd.c ****         clut[NAVY]        = NAVY_DATA;
 273:../src/renesas/application/r_bcd_lcd.c ****         clut[DARKGREEN]   = DARKGREEN_DATA;
 274:../src/renesas/application/r_bcd_lcd.c ****         clut[DEEPSKYBLUE] = DEEPSKYBLUE_DATA;
 275:../src/renesas/application/r_bcd_lcd.c ****         clut[PURPLE]      = PURPLE_DATA;
 276:../src/renesas/application/r_bcd_lcd.c ****         clut[GRAY]        = GRAY_DATA;
 277:../src/renesas/application/r_bcd_lcd.c ****         clut[BROWN]       = BROWN_DATA;
 278:../src/renesas/application/r_bcd_lcd.c ****         clut[GOLD]        = GOLD_DATA;
 279:../src/renesas/application/r_bcd_lcd.c ****         clut[TRANSPARENT] = TRANSPARENT_DATA;
 280:../src/renesas/application/r_bcd_lcd.c **** 
 281:../src/renesas/application/r_bcd_lcd.c ****         gr_disp_cnf.layer_id  = VDC_LAYER_ID_2_RD;             /* Layer ID                        *
 282:../src/renesas/application/r_bcd_lcd.c ****         gr_disp_cnf.fb_buff   = (void *)&graphics2_buffer[0];   /* Frame buffer address            
 283:../src/renesas/application/r_bcd_lcd.c ****         gr_disp_cnf.fb_stride = GRAPHICS2_BUFFER_STRIDE;        /* Frame buffer stride             
 284:../src/renesas/application/r_bcd_lcd.c **** 
 285:../src/renesas/application/r_bcd_lcd.c ****         /* Display Area               */
 286:../src/renesas/application/r_bcd_lcd.c ****         gr_disp_cnf.disp_area.hs_rel = LAYER2_DISP_AREA_HS;
 287:../src/renesas/application/r_bcd_lcd.c ****         gr_disp_cnf.disp_area.hw_rel = LAYER2_DISP_AREA_HW;
 288:../src/renesas/application/r_bcd_lcd.c ****         gr_disp_cnf.disp_area.vs_rel = LAYER2_DISP_AREA_VS;
 289:../src/renesas/application/r_bcd_lcd.c ****         gr_disp_cnf.disp_area.vw_rel = LAYER2_DISP_AREA_VW;
 290:../src/renesas/application/r_bcd_lcd.c **** 
 291:../src/renesas/application/r_bcd_lcd.c ****         gr_disp_cnf.read_format   = VDC_GR_FORMAT_CLUT4;           /* Read Format                */
 292:../src/renesas/application/r_bcd_lcd.c ****         gr_disp_cnf.read_ycc_swap = VDC_GR_YCCSWAP_CBY0CRY1;       /* Read Swap for YCbCr422     */
 293:../src/renesas/application/r_bcd_lcd.c ****         gr_disp_cnf.read_swap     = VDC_WR_RD_WRSWA_32_16_8BIT;    /* Read Swap 8bit/16bit/32bit */
 294:../src/renesas/application/r_bcd_lcd.c **** 
 295:../src/renesas/application/r_bcd_lcd.c ****         gr_disp_cnf.clut_table = clut;  /* Setting if Read Format is CLUT. */
 296:../src/renesas/application/r_bcd_lcd.c **** 
 297:../src/renesas/application/r_bcd_lcd.c ****         gr_disp_cnf.disp_mode = VDC_DISPSEL_BLEND;   /* Display mode select */
 298:../src/renesas/application/r_bcd_lcd.c **** 
 299:../src/renesas/application/r_bcd_lcd.c ****         error = R_RVAPI_GraphCreateSurfaceVDC(vdc_ch, &gr_disp_cnf);
 300:../src/renesas/application/r_bcd_lcd.c ****     }
 301:../src/renesas/application/r_bcd_lcd.c **** 
 302:../src/renesas/application/r_bcd_lcd.c ****     {
 303:../src/renesas/application/r_bcd_lcd.c ****         draw_buffer_info            info;
 304:../src/renesas/application/r_bcd_lcd.c **** 
 305:../src/renesas/application/r_bcd_lcd.c ****         /* gra draw init */
 306:../src/renesas/application/r_bcd_lcd.c ****         info.p_buff_addr1      = graphics2_buffer[0];
 307:../src/renesas/application/r_bcd_lcd.c ****         info.p_buff_addr2      = graphics2_buffer[1];
 308:../src/renesas/application/r_bcd_lcd.c ****         info.buff_stride       = GRAPHICS2_BUFFER_STRIDE;
 309:../src/renesas/application/r_bcd_lcd.c ****         info.window_width      = LAYER2_DISP_AREA_HW;
 310:../src/renesas/application/r_bcd_lcd.c ****         info.window_height     = LAYER2_DISP_AREA_VW;
 311:../src/renesas/application/r_bcd_lcd.c ****         DrawInit( VDC_LAYER_ID_2_RD, &info );
 312:../src/renesas/application/r_bcd_lcd.c **** 
 313:../src/renesas/application/r_bcd_lcd.c ****         /* buffer claer */
 314:../src/renesas/application/r_bcd_lcd.c ****         DrawRectFill( VDC_LAYER_ID_2_RD, 0 ,0, R_BCD_LCD_WIDTH, R_BCD_LCD_HEIGHT, TRANSPARENT );
 315:../src/renesas/application/r_bcd_lcd.c ****     }
 316:../src/renesas/application/r_bcd_lcd.c **** 
 317:../src/renesas/application/r_bcd_lcd.c ****     /* image and video quality adjustment */
 318:../src/renesas/application/r_bcd_lcd.c ****     if (VDC_OK == error)
 319:../src/renesas/application/r_bcd_lcd.c ****     {
 320:../src/renesas/application/r_bcd_lcd.c ****         r_image_quality_adjustment(vdc_ch);
 321:../src/renesas/application/r_bcd_lcd.c **** #if 0
 322:../src/renesas/application/r_bcd_lcd.c ****         r_video_quality_adjustment(vdc_ch);  /* It is possible to use it when inputting video with 
 323:../src/renesas/application/r_bcd_lcd.c ****                                               In this sample, it can not be used because it is vide
 324:../src/renesas/application/r_bcd_lcd.c **** #endif
 325:../src/renesas/application/r_bcd_lcd.c ****     }
 326:../src/renesas/application/r_bcd_lcd.c **** 
 327:../src/renesas/application/r_bcd_lcd.c ****     /* Display On */
 328:../src/renesas/application/r_bcd_lcd.c ****     if (VDC_OK == error)
 329:../src/renesas/application/r_bcd_lcd.c ****     {
 330:../src/renesas/application/r_bcd_lcd.c ****         R_RVAPI_DispPortSettingVDC(vdc_ch, &VDC_LcdPortSetting);
 331:../src/renesas/application/r_bcd_lcd.c ****     }
 332:../src/renesas/application/r_bcd_lcd.c **** 
 333:../src/renesas/application/r_bcd_lcd.c ****     return 0;
 334:../src/renesas/application/r_bcd_lcd.c **** }
 335:../src/renesas/application/r_bcd_lcd.c **** 
 336:../src/renesas/application/r_bcd_lcd.c **** /******************************************************************************
 337:../src/renesas/application/r_bcd_lcd.c **** * Function Name: r_display_init
 338:../src/renesas/application/r_bcd_lcd.c **** * Description  : VDC6 output setting
 339:../src/renesas/application/r_bcd_lcd.c **** * Arguments    : vdc_ch
 340:../src/renesas/application/r_bcd_lcd.c **** *              :   Channel
 341:../src/renesas/application/r_bcd_lcd.c **** * Return Value : 0
 342:../src/renesas/application/r_bcd_lcd.c **** *              :   success
 343:../src/renesas/application/r_bcd_lcd.c **** *              : other
 344:../src/renesas/application/r_bcd_lcd.c **** *              :   fail (vdc_error_t)
 345:../src/renesas/application/r_bcd_lcd.c **** ******************************************************************************/
 346:../src/renesas/application/r_bcd_lcd.c **** vdc_error_t r_display_init(const vdc_channel_t vdc_ch)
 347:../src/renesas/application/r_bcd_lcd.c **** {
 167              		.loc 1 347 0
 168              		.cfi_startproc
 169              		@ args = 0, pretend = 0, frame = 48
 170              		@ frame_needed = 0, uses_anonymous_args = 0
 171              	.LVL9:
 172 0000 10402DE9 		push	{r4, lr}
 173              		.cfi_def_cfa_offset 8
 174              		.cfi_offset 4, -8
 175              		.cfi_offset 14, -4
 176 0004 30D04DE2 		sub	sp, sp, #48
 177              		.cfi_def_cfa_offset 56
 178 0008 0040A0E1 		mov	r4, r0
 179              	.LBB2:
 348:../src/renesas/application/r_bcd_lcd.c ****     vdc_error_t error;
 349:../src/renesas/application/r_bcd_lcd.c **** 
 350:../src/renesas/application/r_bcd_lcd.c ****     /* Display clock setting */
 351:../src/renesas/application/r_bcd_lcd.c ****     {
 352:../src/renesas/application/r_bcd_lcd.c ****         clock_config_t clock_config;
 353:../src/renesas/application/r_bcd_lcd.c ****         vdc_lvds_t lvds;
 354:../src/renesas/application/r_bcd_lcd.c **** 
 355:../src/renesas/application/r_bcd_lcd.c ****         clock_config.panel_clk = LCD_CH0_PANEL_CLK;
 180              		.loc 1 355 0
 181 000c 0330A0E3 		mov	r3, #3
 182 0010 0430CDE5 		strb	r3, [sp, #4]
 356:../src/renesas/application/r_bcd_lcd.c ****         clock_config.panel_clk_div = LCD_CH0_PANEL_CLK_DIV;
 183              		.loc 1 356 0
 184 0014 0030A0E3 		mov	r3, #0
 185 0018 0530CDE5 		strb	r3, [sp, #5]
 357:../src/renesas/application/r_bcd_lcd.c **** 
 358:../src/renesas/application/r_bcd_lcd.c ****         lvds.lvds_vdc_sel = vdc_ch;                 /* A channel in VDC6 whose data is to be output
 186              		.loc 1 358 0
 187 001c 1100CDE5 		strb	r0, [sp, #17]
 359:../src/renesas/application/r_bcd_lcd.c ****         lvds.lvds_in_clk_sel = LVDS_PLL_INPUT_CLK;  /* The clock input to frequency divider 1 */
 188              		.loc 1 359 0
 189 0020 0230A0E3 		mov	r3, #2
 190 0024 0C30CDE5 		strb	r3, [sp, #12]
 360:../src/renesas/application/r_bcd_lcd.c ****         lvds.lvds_idiv_set = LVDS_PLL_NIDV;         /* Not use */
 191              		.loc 1 360 0
 192 0028 0D30CDE5 		strb	r3, [sp, #13]
 361:../src/renesas/application/r_bcd_lcd.c ****         lvds.lvds_odiv_set = LVDS_PLL_NODIV;        /* The frequency dividing value (NODIV) for fre
 193              		.loc 1 361 0
 194 002c 1030CDE5 		strb	r3, [sp, #16]
 362:../src/renesas/application/r_bcd_lcd.c ****         lvds.lvdspll_fd = LVDS_PLL_NFD;             /* The frequency dividing value (NFD) for the f
 195              		.loc 1 362 0
 196 0030 2720A0E3 		mov	r2, #39
 197 0034 B221CDE1 		strh	r2, [sp, #18]	@ movhi
 363:../src/renesas/application/r_bcd_lcd.c ****         lvds.lvdspll_rd = LVDS_PLL_NRD;             /* The frequency dividing value (NRD) for the i
 198              		.loc 1 363 0
 199 0038 0720A0E3 		mov	r2, #7
 200 003c B421CDE1 		strh	r2, [sp, #20]	@ movhi
 364:../src/renesas/application/r_bcd_lcd.c ****         lvds.lvdspll_od = LVDS_PLL_NOD;             /* Not use */
 201              		.loc 1 364 0
 202 0040 1630CDE5 		strb	r3, [sp, #22]
 365:../src/renesas/application/r_bcd_lcd.c ****         clock_config.lvds = &lvds;
 203              		.loc 1 365 0
 204 0044 0C308DE2 		add	r3, sp, #12
 205 0048 08308DE5 		str	r3, [sp, #8]
 366:../src/renesas/application/r_bcd_lcd.c **** 
 367:../src/renesas/application/r_bcd_lcd.c ****         error = R_RVAPI_InitializeVDC (vdc_ch, &clock_config);
 206              		.loc 1 367 0
 207 004c 04108DE2 		add	r1, sp, #4
 208 0050 FEFFFFEB 		bl	R_RVAPI_InitializeVDC
 209              	.LVL10:
 210              	.LBE2:
 368:../src/renesas/application/r_bcd_lcd.c ****     }
 369:../src/renesas/application/r_bcd_lcd.c **** 
 370:../src/renesas/application/r_bcd_lcd.c ****     /* Display setting */
 371:../src/renesas/application/r_bcd_lcd.c ****     if (VDC_OK == error)
 211              		.loc 1 371 0
 212 0054 000050E3 		cmp	r0, #0
 213              	.LVL11:
 214 0058 0100000A 		beq	.L16
 215              	.L14:
 216              	.LVL12:
 372:../src/renesas/application/r_bcd_lcd.c ****     {
 373:../src/renesas/application/r_bcd_lcd.c ****         qe_config_t q_cnf;
 374:../src/renesas/application/r_bcd_lcd.c **** 
 375:../src/renesas/application/r_bcd_lcd.c ****         q_cnf.vps = LCD_CH0_S_VSYNC;                    /* Vertical Pulse start position */
 376:../src/renesas/application/r_bcd_lcd.c ****         q_cnf.vpw = LCD_CH0_W_VSYNC;                    /* Vertical Pulse Width(VPW) */
 377:../src/renesas/application/r_bcd_lcd.c ****         q_cnf.vs = LCD_CH0_DISP_VS;                     /* LCD display area vertical start position
 378:../src/renesas/application/r_bcd_lcd.c ****         q_cnf.vdp = LCD_CH0_DISP_VW;                    /* Vertical Display Period(VDP) */
 379:../src/renesas/application/r_bcd_lcd.c ****         q_cnf.hps = LCD_CH0_S_HSYNC;                    /* Horizontal Pulse start position */
 380:../src/renesas/application/r_bcd_lcd.c ****         q_cnf.hpw = LCD_CH0_W_HSYNC;                    /* Horizontal Pulse Width(HPW) */
 381:../src/renesas/application/r_bcd_lcd.c ****         q_cnf.hs = LCD_CH0_DISP_HS;                     /* LCD display area horizontal start positi
 382:../src/renesas/application/r_bcd_lcd.c ****         q_cnf.hdp = LCD_CH0_DISP_HW;                    /* Horizontal Display Period(HDP */
 383:../src/renesas/application/r_bcd_lcd.c ****         q_cnf.vtp = LCD_CH0_SIG_FV;                     /* Vertical Total Period(VTP) */
 384:../src/renesas/application/r_bcd_lcd.c ****         q_cnf.htp = LCD_CH0_SIG_FH;                     /* Horizontal Total Period(HTP) */
 385:../src/renesas/application/r_bcd_lcd.c ****         q_cnf.tcon_vsync = LCD_CH0_TCON_PIN_VSYNC;      /* Vsync_TCON_select */
 386:../src/renesas/application/r_bcd_lcd.c ****         q_cnf.tcon_hsync = LCD_CH0_TCON_PIN_HSYNC;      /* Hsync_TCON_select */
 387:../src/renesas/application/r_bcd_lcd.c ****         q_cnf.tcon_de = LCD_CH0_TCON_PIN_DE;            /* DE_TCON_select */
 388:../src/renesas/application/r_bcd_lcd.c ****         q_cnf.tcon_vsync_inv = LCD_CH0_TOCN_POL_VSYNC;  /* Vsync_POL */
 389:../src/renesas/application/r_bcd_lcd.c ****         q_cnf.tcon_hsync_inv = LCD_CH0_TOCN_POL_HSYNC;  /* Hsync_POL */
 390:../src/renesas/application/r_bcd_lcd.c ****         q_cnf.tcon_de_inv = LCD_CH0_TOCN_POL_DE;        /* DE_POL */
 391:../src/renesas/application/r_bcd_lcd.c ****         q_cnf.tcon_half = LCD_CH0_TCON_HALF;            /* TCON reference timing, 1/2fH timing(HTP)
 392:../src/renesas/application/r_bcd_lcd.c ****         q_cnf.tcon_ofset = LCD_CH0_TCON_OFFSET;         /* TCON reference timing, offset Hsync sign
 393:../src/renesas/application/r_bcd_lcd.c ****         q_cnf.lcd_data_out_edge = LCD_CH0_OUT_EDGE;     /* LCD_DATA_OUT_EDGE */
 394:../src/renesas/application/r_bcd_lcd.c ****         q_cnf.lcd_outformat = LCD_CH0_OUT_FORMAT;       /* LCD output format select */
 395:../src/renesas/application/r_bcd_lcd.c ****         error = R_RVAPI_DispControlVDC (vdc_ch, VDC_ON, &q_cnf);
 396:../src/renesas/application/r_bcd_lcd.c ****     }
 397:../src/renesas/application/r_bcd_lcd.c **** 
 398:../src/renesas/application/r_bcd_lcd.c ****     return error;
 399:../src/renesas/application/r_bcd_lcd.c **** }
 217              		.loc 1 399 0
 218 005c 30D08DE2 		add	sp, sp, #48
 219              		.cfi_remember_state
 220              		.cfi_def_cfa_offset 8
 221              		@ sp needed
 222 0060 1080BDE8 		pop	{r4, pc}
 223              	.LVL13:
 224              	.L16:
 225              		.cfi_restore_state
 226              	.LBB3:
 375:../src/renesas/application/r_bcd_lcd.c ****         q_cnf.vpw = LCD_CH0_W_VSYNC;                    /* Vertical Pulse Width(VPW) */
 227              		.loc 1 375 0
 228 0064 0030A0E3 		mov	r3, #0
 229 0068 BC30CDE1 		strh	r3, [sp, #12]	@ movhi
 376:../src/renesas/application/r_bcd_lcd.c ****         q_cnf.vs = LCD_CH0_DISP_VS;                     /* LCD display area vertical start position
 230              		.loc 1 376 0
 231 006c 0320A0E3 		mov	r2, #3
 232 0070 BE20CDE1 		strh	r2, [sp, #14]	@ movhi
 377:../src/renesas/application/r_bcd_lcd.c ****         q_cnf.vdp = LCD_CH0_DISP_VW;                    /* Vertical Display Period(VDP) */
 233              		.loc 1 377 0
 234 0074 1810A0E3 		mov	r1, #24
 235 0078 B011CDE1 		strh	r1, [sp, #16]	@ movhi
 378:../src/renesas/application/r_bcd_lcd.c ****         q_cnf.hps = LCD_CH0_S_HSYNC;                    /* Horizontal Pulse start position */
 236              		.loc 1 378 0
 237 007c 321EA0E3 		mov	r1, #800
 238 0080 B211CDE1 		strh	r1, [sp, #18]	@ movhi
 379:../src/renesas/application/r_bcd_lcd.c ****         q_cnf.hpw = LCD_CH0_W_HSYNC;                    /* Horizontal Pulse Width(HPW) */
 239              		.loc 1 379 0
 240 0084 B431CDE1 		strh	r3, [sp, #20]	@ movhi
 380:../src/renesas/application/r_bcd_lcd.c ****         q_cnf.hs = LCD_CH0_DISP_HS;                     /* LCD display area horizontal start positi
 241              		.loc 1 380 0
 242 0088 8810A0E3 		mov	r1, #136
 243 008c B611CDE1 		strh	r1, [sp, #22]	@ movhi
 381:../src/renesas/application/r_bcd_lcd.c ****         q_cnf.hdp = LCD_CH0_DISP_HW;                    /* Horizontal Display Period(HDP */
 244              		.loc 1 381 0
 245 0090 151EA0E3 		mov	r1, #336
 246 0094 B811CDE1 		strh	r1, [sp, #24]	@ movhi
 382:../src/renesas/application/r_bcd_lcd.c ****         q_cnf.vtp = LCD_CH0_SIG_FV;                     /* Vertical Total Period(VTP) */
 247              		.loc 1 382 0
 248 0098 051CA0E3 		mov	r1, #1280
 249 009c BA11CDE1 		strh	r1, [sp, #26]	@ movhi
 383:../src/renesas/application/r_bcd_lcd.c ****         q_cnf.htp = LCD_CH0_SIG_FH;                     /* Horizontal Total Period(HTP) */
 250              		.loc 1 383 0
 251 00a0 3B1300E3 		movw	r1, #827
 252 00a4 BC11CDE1 		strh	r1, [sp, #28]	@ movhi
 384:../src/renesas/application/r_bcd_lcd.c ****         q_cnf.tcon_vsync = LCD_CH0_TCON_PIN_VSYNC;      /* Vsync_TCON_select */
 253              		.loc 1 384 0
 254 00a8 8F1600E3 		movw	r1, #1679
 255 00ac BE11CDE1 		strh	r1, [sp, #30]	@ movhi
 385:../src/renesas/application/r_bcd_lcd.c ****         q_cnf.tcon_hsync = LCD_CH0_TCON_PIN_HSYNC;      /* Hsync_TCON_select */
 256              		.loc 1 385 0
 257 00b0 2030CDE5 		strb	r3, [sp, #32]
 386:../src/renesas/application/r_bcd_lcd.c ****         q_cnf.tcon_de = LCD_CH0_TCON_PIN_DE;            /* DE_TCON_select */
 258              		.loc 1 386 0
 259 00b4 2120CDE5 		strb	r2, [sp, #33]
 387:../src/renesas/application/r_bcd_lcd.c ****         q_cnf.tcon_vsync_inv = LCD_CH0_TOCN_POL_VSYNC;  /* Vsync_POL */
 260              		.loc 1 387 0
 261 00b8 0420A0E3 		mov	r2, #4
 262 00bc 2220CDE5 		strb	r2, [sp, #34]
 388:../src/renesas/application/r_bcd_lcd.c ****         q_cnf.tcon_hsync_inv = LCD_CH0_TOCN_POL_HSYNC;  /* Hsync_POL */
 263              		.loc 1 388 0
 264 00c0 2330CDE5 		strb	r3, [sp, #35]
 389:../src/renesas/application/r_bcd_lcd.c ****         q_cnf.tcon_de_inv = LCD_CH0_TOCN_POL_DE;        /* DE_POL */
 265              		.loc 1 389 0
 266 00c4 0110A0E3 		mov	r1, #1
 267 00c8 2410CDE5 		strb	r1, [sp, #36]
 390:../src/renesas/application/r_bcd_lcd.c ****         q_cnf.tcon_half = LCD_CH0_TCON_HALF;            /* TCON reference timing, 1/2fH timing(HTP)
 268              		.loc 1 390 0
 269 00cc 2530CDE5 		strb	r3, [sp, #37]
 391:../src/renesas/application/r_bcd_lcd.c ****         q_cnf.tcon_ofset = LCD_CH0_TCON_OFFSET;         /* TCON reference timing, offset Hsync sign
 270              		.loc 1 391 0
 271 00d0 692EA0E3 		mov	r2, #1680
 272 00d4 B622CDE1 		strh	r2, [sp, #38]	@ movhi
 392:../src/renesas/application/r_bcd_lcd.c ****         q_cnf.lcd_data_out_edge = LCD_CH0_OUT_EDGE;     /* LCD_DATA_OUT_EDGE */
 273              		.loc 1 392 0
 274 00d8 B832CDE1 		strh	r3, [sp, #40]	@ movhi
 393:../src/renesas/application/r_bcd_lcd.c ****         q_cnf.lcd_outformat = LCD_CH0_OUT_FORMAT;       /* LCD output format select */
 275              		.loc 1 393 0
 276 00dc 2A10CDE5 		strb	r1, [sp, #42]
 394:../src/renesas/application/r_bcd_lcd.c ****         error = R_RVAPI_DispControlVDC (vdc_ch, VDC_ON, &q_cnf);
 277              		.loc 1 394 0
 278 00e0 2D30CDE5 		strb	r3, [sp, #45]
 395:../src/renesas/application/r_bcd_lcd.c ****     }
 279              		.loc 1 395 0
 280 00e4 0C208DE2 		add	r2, sp, #12
 281 00e8 0400A0E1 		mov	r0, r4
 282 00ec FEFFFFEB 		bl	R_RVAPI_DispControlVDC
 283              	.LVL14:
 284 00f0 D9FFFFEA 		b	.L14
 285              	.LBE3:
 286              		.cfi_endproc
 287              	.LFE6:
 289              		.section	.text.r_image_quality_adjustment,"ax",%progbits
 290              		.align	2
 291              		.global	r_image_quality_adjustment
 292              		.syntax unified
 293              		.arm
 294              		.fpu neon
 296              	r_image_quality_adjustment:
 297              	.LFB7:
 400:../src/renesas/application/r_bcd_lcd.c **** 
 401:../src/renesas/application/r_bcd_lcd.c **** /******************************************************************************
 402:../src/renesas/application/r_bcd_lcd.c **** * Function Name: r_image_quality_adjustment
 403:../src/renesas/application/r_bcd_lcd.c **** * Description  : Image Quality Adjustment
 404:../src/renesas/application/r_bcd_lcd.c **** * Arguments    : vdc_ch
 405:../src/renesas/application/r_bcd_lcd.c **** *              :   Channel
 406:../src/renesas/application/r_bcd_lcd.c **** * Return Value : 0
 407:../src/renesas/application/r_bcd_lcd.c **** *              :   success
 408:../src/renesas/application/r_bcd_lcd.c **** *              : other
 409:../src/renesas/application/r_bcd_lcd.c **** *              :   fail (vdc_error_t)
 410:../src/renesas/application/r_bcd_lcd.c **** ******************************************************************************/
 411:../src/renesas/application/r_bcd_lcd.c **** vdc_error_t r_image_quality_adjustment(vdc_channel_t vdc_ch)
 412:../src/renesas/application/r_bcd_lcd.c **** {
 298              		.loc 1 412 0
 299              		.cfi_startproc
 300              		@ args = 0, pretend = 0, frame = 24
 301              		@ frame_needed = 0, uses_anonymous_args = 0
 302              	.LVL15:
 303 0000 10402DE9 		push	{r4, lr}
 304              		.cfi_def_cfa_offset 8
 305              		.cfi_offset 4, -8
 306              		.cfi_offset 14, -4
 307 0004 28D04DE2 		sub	sp, sp, #40
 308              		.cfi_def_cfa_offset 48
 309 0008 0040A0E1 		mov	r4, r0
 310              	.LBB4:
 413:../src/renesas/application/r_bcd_lcd.c ****     vdc_error_t error;
 414:../src/renesas/application/r_bcd_lcd.c **** 
 415:../src/renesas/application/r_bcd_lcd.c ****     /***********************************************************************/
 416:../src/renesas/application/r_bcd_lcd.c ****     /* Display out cakibration */
 417:../src/renesas/application/r_bcd_lcd.c ****     /***********************************************************************/
 418:../src/renesas/application/r_bcd_lcd.c ****     {
 419:../src/renesas/application/r_bcd_lcd.c ****         vdc_calibr_bright_t bright;
 420:../src/renesas/application/r_bcd_lcd.c ****         vdc_calibr_contrast_t contrast;
 421:../src/renesas/application/r_bcd_lcd.c ****         vdc_calibr_dither_t dither;
 422:../src/renesas/application/r_bcd_lcd.c **** 
 423:../src/renesas/application/r_bcd_lcd.c ****         /* Bright */
 424:../src/renesas/application/r_bcd_lcd.c ****         bright.pbrt_g = IMGC_BRIGHT_OUTCTL_OFFSET_G;
 311              		.loc 1 424 0
 312 000c 023CA0E3 		mov	r3, #512
 313 0010 B032CDE1 		strh	r3, [sp, #32]	@ movhi
 425:../src/renesas/application/r_bcd_lcd.c ****         bright.pbrt_b = IMGC_BRIGHT_OUTCTL_OFFSET_B;
 314              		.loc 1 425 0
 315 0014 B232CDE1 		strh	r3, [sp, #34]	@ movhi
 426:../src/renesas/application/r_bcd_lcd.c ****         bright.pbrt_r = IMGC_BRIGHT_OUTCTL_OFFSET_R;
 316              		.loc 1 426 0
 317 0018 B432CDE1 		strh	r3, [sp, #36]	@ movhi
 427:../src/renesas/application/r_bcd_lcd.c **** 
 428:../src/renesas/application/r_bcd_lcd.c ****         /* Contrast */
 429:../src/renesas/application/r_bcd_lcd.c ****         contrast.cont_g = IMGC_CONTRAST_OUTCTL_GAIN_G;
 318              		.loc 1 429 0
 319 001c 7F30E0E3 		mvn	r3, #127
 320 0020 1430CDE5 		strb	r3, [sp, #20]
 430:../src/renesas/application/r_bcd_lcd.c ****         contrast.cont_b = IMGC_CONTRAST_OUTCTL_GAIN_B;
 321              		.loc 1 430 0
 322 0024 1530CDE5 		strb	r3, [sp, #21]
 431:../src/renesas/application/r_bcd_lcd.c ****         contrast.cont_r = IMGC_CONTRAST_OUTCTL_GAIN_R;
 323              		.loc 1 431 0
 324 0028 1630CDE5 		strb	r3, [sp, #22]
 432:../src/renesas/application/r_bcd_lcd.c **** 
 433:../src/renesas/application/r_bcd_lcd.c ****         /* Dither settings */
 434:../src/renesas/application/r_bcd_lcd.c ****         dither.pdth_sel = IMGC_DITHER_MODE;
 325              		.loc 1 434 0
 326 002c 0010A0E3 		mov	r1, #0
 327 0030 1810CDE5 		strb	r1, [sp, #24]
 435:../src/renesas/application/r_bcd_lcd.c ****         dither.pdth_pa = IMGC_DITHER_2X2_PA;
 328              		.loc 1 435 0
 329 0034 0330A0E3 		mov	r3, #3
 330 0038 1930CDE5 		strb	r3, [sp, #25]
 436:../src/renesas/application/r_bcd_lcd.c ****         dither.pdth_pb = IMGC_DITHER_2X2_PB;
 331              		.loc 1 436 0
 332 003c 1A10CDE5 		strb	r1, [sp, #26]
 437:../src/renesas/application/r_bcd_lcd.c ****         dither.pdth_pc = IMGC_DITHER_2X2_PC;
 333              		.loc 1 437 0
 334 0040 0230A0E3 		mov	r3, #2
 335 0044 1B30CDE5 		strb	r3, [sp, #27]
 438:../src/renesas/application/r_bcd_lcd.c ****         dither.pdth_pd = IMGC_DITHER_2X2_PD;
 336              		.loc 1 438 0
 337 0048 0130A0E3 		mov	r3, #1
 338 004c 1C30CDE5 		strb	r3, [sp, #28]
 439:../src/renesas/application/r_bcd_lcd.c ****         error = R_RVAPI_DispCalibrationVDC (vdc_ch, IMGC_OUTCTL_CALIB_ROUTE, &bright, &contrast, &d
 339              		.loc 1 439 0
 340 0050 18308DE2 		add	r3, sp, #24
 341 0054 00308DE5 		str	r3, [sp]
 342 0058 14308DE2 		add	r3, sp, #20
 343 005c 20208DE2 		add	r2, sp, #32
 344 0060 FEFFFFEB 		bl	R_RVAPI_DispCalibrationVDC
 345              	.LVL16:
 346              	.LBE4:
 440:../src/renesas/application/r_bcd_lcd.c ****     }
 441:../src/renesas/application/r_bcd_lcd.c **** 
 442:../src/renesas/application/r_bcd_lcd.c ****     /***********************************************************************/
 443:../src/renesas/application/r_bcd_lcd.c ****     /*  Display Gamma */
 444:../src/renesas/application/r_bcd_lcd.c ****     /***********************************************************************/
 445:../src/renesas/application/r_bcd_lcd.c ****     if (VDC_OK == error)
 347              		.loc 1 445 0
 348 0064 000050E3 		cmp	r0, #0
 349              	.LVL17:
 350 0068 0100000A 		beq	.L20
 351              	.L18:
 352              	.LVL18:
 446:../src/renesas/application/r_bcd_lcd.c ****     {
 447:../src/renesas/application/r_bcd_lcd.c ****         static const uint16_t gam_g_gain[VDC_GAM_GAIN_ADJ_NUM] =
 448:../src/renesas/application/r_bcd_lcd.c ****         { IMGC_GAMMA_G_GAIN_00, IMGC_GAMMA_G_GAIN_01, IMGC_GAMMA_G_GAIN_02, IMGC_GAMMA_G_GAIN_03, I
 449:../src/renesas/application/r_bcd_lcd.c ****           IMGC_GAMMA_G_GAIN_05, IMGC_GAMMA_G_GAIN_06, IMGC_GAMMA_G_GAIN_07, IMGC_GAMMA_G_GAIN_08, I
 450:../src/renesas/application/r_bcd_lcd.c ****           IMGC_GAMMA_G_GAIN_10, IMGC_GAMMA_G_GAIN_11, IMGC_GAMMA_G_GAIN_12, IMGC_GAMMA_G_GAIN_13, I
 451:../src/renesas/application/r_bcd_lcd.c ****           IMGC_GAMMA_G_GAIN_15, IMGC_GAMMA_G_GAIN_16, IMGC_GAMMA_G_GAIN_17, IMGC_GAMMA_G_GAIN_18, I
 452:../src/renesas/application/r_bcd_lcd.c ****           IMGC_GAMMA_G_GAIN_20, IMGC_GAMMA_G_GAIN_21, IMGC_GAMMA_G_GAIN_22, IMGC_GAMMA_G_GAIN_23, I
 453:../src/renesas/application/r_bcd_lcd.c ****           IMGC_GAMMA_G_GAIN_25, IMGC_GAMMA_G_GAIN_26, IMGC_GAMMA_G_GAIN_27, IMGC_GAMMA_G_GAIN_28, I
 454:../src/renesas/application/r_bcd_lcd.c ****           IMGC_GAMMA_G_GAIN_30, IMGC_GAMMA_G_GAIN_31 };
 455:../src/renesas/application/r_bcd_lcd.c ****         static const uint8_t gam_g_th[VDC_GAM_START_TH_NUM] =
 456:../src/renesas/application/r_bcd_lcd.c ****         { IMGC_GAMMA_G_TH_01, IMGC_GAMMA_G_TH_02, IMGC_GAMMA_G_TH_03, IMGC_GAMMA_G_TH_04, IMGC_GAMM
 457:../src/renesas/application/r_bcd_lcd.c ****           IMGC_GAMMA_G_TH_06, IMGC_GAMMA_G_TH_07, IMGC_GAMMA_G_TH_08, IMGC_GAMMA_G_TH_09, IMGC_GAMM
 458:../src/renesas/application/r_bcd_lcd.c ****           IMGC_GAMMA_G_TH_11, IMGC_GAMMA_G_TH_12, IMGC_GAMMA_G_TH_13, IMGC_GAMMA_G_TH_14, IMGC_GAMM
 459:../src/renesas/application/r_bcd_lcd.c ****           IMGC_GAMMA_G_TH_16, IMGC_GAMMA_G_TH_17, IMGC_GAMMA_G_TH_18, IMGC_GAMMA_G_TH_19, IMGC_GAMM
 460:../src/renesas/application/r_bcd_lcd.c ****           IMGC_GAMMA_G_TH_21, IMGC_GAMMA_G_TH_22, IMGC_GAMMA_G_TH_23, IMGC_GAMMA_G_TH_24, IMGC_GAMM
 461:../src/renesas/application/r_bcd_lcd.c ****           IMGC_GAMMA_G_TH_26, IMGC_GAMMA_G_TH_27, IMGC_GAMMA_G_TH_28, IMGC_GAMMA_G_TH_29, IMGC_GAMM
 462:../src/renesas/application/r_bcd_lcd.c ****           IMGC_GAMMA_G_TH_31 };
 463:../src/renesas/application/r_bcd_lcd.c **** 
 464:../src/renesas/application/r_bcd_lcd.c ****         static const uint16_t gam_b_gain[VDC_GAM_GAIN_ADJ_NUM] =
 465:../src/renesas/application/r_bcd_lcd.c ****         { IMGC_GAMMA_B_GAIN_00, IMGC_GAMMA_B_GAIN_01, IMGC_GAMMA_B_GAIN_02, IMGC_GAMMA_B_GAIN_03, I
 466:../src/renesas/application/r_bcd_lcd.c ****           IMGC_GAMMA_B_GAIN_05, IMGC_GAMMA_B_GAIN_06, IMGC_GAMMA_B_GAIN_07, IMGC_GAMMA_B_GAIN_08, I
 467:../src/renesas/application/r_bcd_lcd.c ****           IMGC_GAMMA_B_GAIN_10, IMGC_GAMMA_B_GAIN_11, IMGC_GAMMA_B_GAIN_12, IMGC_GAMMA_B_GAIN_13, I
 468:../src/renesas/application/r_bcd_lcd.c ****           IMGC_GAMMA_B_GAIN_15, IMGC_GAMMA_B_GAIN_16, IMGC_GAMMA_B_GAIN_17, IMGC_GAMMA_B_GAIN_18, I
 469:../src/renesas/application/r_bcd_lcd.c ****           IMGC_GAMMA_B_GAIN_20, IMGC_GAMMA_B_GAIN_21, IMGC_GAMMA_B_GAIN_22, IMGC_GAMMA_B_GAIN_23, I
 470:../src/renesas/application/r_bcd_lcd.c ****           IMGC_GAMMA_B_GAIN_25, IMGC_GAMMA_B_GAIN_26, IMGC_GAMMA_B_GAIN_27, IMGC_GAMMA_B_GAIN_28, I
 471:../src/renesas/application/r_bcd_lcd.c ****           IMGC_GAMMA_B_GAIN_30, IMGC_GAMMA_B_GAIN_31 };
 472:../src/renesas/application/r_bcd_lcd.c ****         static const uint8_t gam_b_th[VDC_GAM_START_TH_NUM] =
 473:../src/renesas/application/r_bcd_lcd.c ****         { IMGC_GAMMA_B_TH_01, IMGC_GAMMA_B_TH_02, IMGC_GAMMA_B_TH_03, IMGC_GAMMA_B_TH_04, IMGC_GAMM
 474:../src/renesas/application/r_bcd_lcd.c ****           IMGC_GAMMA_B_TH_06, IMGC_GAMMA_B_TH_07, IMGC_GAMMA_B_TH_08, IMGC_GAMMA_B_TH_09, IMGC_GAMM
 475:../src/renesas/application/r_bcd_lcd.c ****           IMGC_GAMMA_B_TH_11, IMGC_GAMMA_B_TH_12, IMGC_GAMMA_B_TH_13, IMGC_GAMMA_B_TH_14, IMGC_GAMM
 476:../src/renesas/application/r_bcd_lcd.c ****           IMGC_GAMMA_B_TH_16, IMGC_GAMMA_B_TH_17, IMGC_GAMMA_B_TH_18, IMGC_GAMMA_B_TH_19, IMGC_GAMM
 477:../src/renesas/application/r_bcd_lcd.c ****           IMGC_GAMMA_B_TH_21, IMGC_GAMMA_B_TH_22, IMGC_GAMMA_B_TH_23, IMGC_GAMMA_B_TH_24, IMGC_GAMM
 478:../src/renesas/application/r_bcd_lcd.c ****           IMGC_GAMMA_B_TH_26, IMGC_GAMMA_B_TH_27, IMGC_GAMMA_B_TH_28, IMGC_GAMMA_B_TH_29, IMGC_GAMM
 479:../src/renesas/application/r_bcd_lcd.c ****           IMGC_GAMMA_B_TH_31 };
 480:../src/renesas/application/r_bcd_lcd.c **** 
 481:../src/renesas/application/r_bcd_lcd.c ****         static const uint16_t gam_r_gain[VDC_GAM_GAIN_ADJ_NUM] =
 482:../src/renesas/application/r_bcd_lcd.c ****         { IMGC_GAMMA_R_GAIN_00, IMGC_GAMMA_R_GAIN_01, IMGC_GAMMA_R_GAIN_02, IMGC_GAMMA_R_GAIN_03, I
 483:../src/renesas/application/r_bcd_lcd.c ****           IMGC_GAMMA_R_GAIN_05, IMGC_GAMMA_R_GAIN_06, IMGC_GAMMA_R_GAIN_07, IMGC_GAMMA_R_GAIN_08, I
 484:../src/renesas/application/r_bcd_lcd.c ****           IMGC_GAMMA_R_GAIN_10, IMGC_GAMMA_R_GAIN_11, IMGC_GAMMA_R_GAIN_12, IMGC_GAMMA_R_GAIN_13, I
 485:../src/renesas/application/r_bcd_lcd.c ****           IMGC_GAMMA_R_GAIN_15, IMGC_GAMMA_R_GAIN_16, IMGC_GAMMA_R_GAIN_17, IMGC_GAMMA_R_GAIN_18, I
 486:../src/renesas/application/r_bcd_lcd.c ****           IMGC_GAMMA_R_GAIN_20, IMGC_GAMMA_R_GAIN_21, IMGC_GAMMA_R_GAIN_22, IMGC_GAMMA_R_GAIN_23, I
 487:../src/renesas/application/r_bcd_lcd.c ****           IMGC_GAMMA_R_GAIN_25, IMGC_GAMMA_R_GAIN_26, IMGC_GAMMA_R_GAIN_27, IMGC_GAMMA_R_GAIN_28, I
 488:../src/renesas/application/r_bcd_lcd.c ****           IMGC_GAMMA_R_GAIN_30, IMGC_GAMMA_R_GAIN_31 };
 489:../src/renesas/application/r_bcd_lcd.c **** 
 490:../src/renesas/application/r_bcd_lcd.c ****         static const uint8_t gam_r_th[VDC_GAM_START_TH_NUM] =
 491:../src/renesas/application/r_bcd_lcd.c ****         { IMGC_GAMMA_R_TH_01, IMGC_GAMMA_R_TH_02, IMGC_GAMMA_R_TH_03, IMGC_GAMMA_R_TH_04, IMGC_GAMM
 492:../src/renesas/application/r_bcd_lcd.c ****           IMGC_GAMMA_R_TH_06, IMGC_GAMMA_R_TH_07, IMGC_GAMMA_R_TH_08, IMGC_GAMMA_R_TH_09, IMGC_GAMM
 493:../src/renesas/application/r_bcd_lcd.c ****           IMGC_GAMMA_R_TH_11, IMGC_GAMMA_R_TH_12, IMGC_GAMMA_R_TH_13, IMGC_GAMMA_R_TH_14, IMGC_GAMM
 494:../src/renesas/application/r_bcd_lcd.c ****           IMGC_GAMMA_R_TH_16, IMGC_GAMMA_R_TH_17, IMGC_GAMMA_R_TH_18, IMGC_GAMMA_R_TH_19, IMGC_GAMM
 495:../src/renesas/application/r_bcd_lcd.c ****           IMGC_GAMMA_R_TH_21, IMGC_GAMMA_R_TH_22, IMGC_GAMMA_R_TH_23, IMGC_GAMMA_R_TH_24, IMGC_GAMM
 496:../src/renesas/application/r_bcd_lcd.c ****           IMGC_GAMMA_R_TH_26, IMGC_GAMMA_R_TH_27, IMGC_GAMMA_R_TH_28, IMGC_GAMMA_R_TH_29, IMGC_GAMM
 497:../src/renesas/application/r_bcd_lcd.c ****           IMGC_GAMMA_R_TH_31 };
 498:../src/renesas/application/r_bcd_lcd.c **** 
 499:../src/renesas/application/r_bcd_lcd.c ****         error = R_RVAPI_DispGammaVDC (vdc_ch, IMGC_GAMMA_ACTIVE, &gam_r_gain[0], &gam_r_th[0], &gam
 500:../src/renesas/application/r_bcd_lcd.c ****                                        &gam_g_th[0], &gam_b_gain[0], &gam_b_th[0]);
 501:../src/renesas/application/r_bcd_lcd.c ****     }
 502:../src/renesas/application/r_bcd_lcd.c **** 
 503:../src/renesas/application/r_bcd_lcd.c ****     return error;
 504:../src/renesas/application/r_bcd_lcd.c **** } /* End of function r_image_quality_adjustment() */
 353              		.loc 1 504 0
 354 006c 28D08DE2 		add	sp, sp, #40
 355              		.cfi_remember_state
 356              		.cfi_def_cfa_offset 8
 357              		@ sp needed
 358 0070 1080BDE8 		pop	{r4, pc}
 359              	.LVL19:
 360              	.L20:
 361              		.cfi_restore_state
 362              	.LBB5:
 499:../src/renesas/application/r_bcd_lcd.c ****                                        &gam_g_th[0], &gam_b_gain[0], &gam_b_th[0]);
 363              		.loc 1 499 0
 364 0074 003000E3 		movw	r3, #:lower16:.LANCHOR8
 365 0078 003040E3 		movt	r3, #:upper16:.LANCHOR8
 366 007c 0C308DE5 		str	r3, [sp, #12]
 367 0080 003000E3 		movw	r3, #:lower16:.LANCHOR9
 368 0084 003040E3 		movt	r3, #:upper16:.LANCHOR9
 369 0088 08308DE5 		str	r3, [sp, #8]
 370 008c 003000E3 		movw	r3, #:lower16:.LANCHOR10
 371 0090 003040E3 		movt	r3, #:upper16:.LANCHOR10
 372 0094 04308DE5 		str	r3, [sp, #4]
 373 0098 003000E3 		movw	r3, #:lower16:.LANCHOR11
 374 009c 003040E3 		movt	r3, #:upper16:.LANCHOR11
 375 00a0 00308DE5 		str	r3, [sp]
 376 00a4 003000E3 		movw	r3, #:lower16:.LANCHOR6
 377 00a8 003040E3 		movt	r3, #:upper16:.LANCHOR6
 378 00ac 002000E3 		movw	r2, #:lower16:.LANCHOR7
 379 00b0 002040E3 		movt	r2, #:upper16:.LANCHOR7
 380 00b4 0110A0E3 		mov	r1, #1
 381 00b8 0400A0E1 		mov	r0, r4
 382 00bc FEFFFFEB 		bl	R_RVAPI_DispGammaVDC
 383              	.LVL20:
 384 00c0 E9FFFFEA 		b	.L18
 385              	.LBE5:
 386              		.cfi_endproc
 387              	.LFE7:
 389              		.section	.text.R_BCD_LcdInit,"ax",%progbits
 390              		.align	2
 391              		.global	R_BCD_LcdInit
 392              		.syntax unified
 393              		.arm
 394              		.fpu neon
 396              	R_BCD_LcdInit:
 397              	.LFB5:
 195:../src/renesas/application/r_bcd_lcd.c ****     vdc_error_t error;
 398              		.loc 1 195 0
 399              		.cfi_startproc
 400              		@ args = 0, pretend = 0, frame = 1056
 401              		@ frame_needed = 0, uses_anonymous_args = 0
 402 0000 30402DE9 		push	{r4, r5, lr}
 403              		.cfi_def_cfa_offset 12
 404              		.cfi_offset 4, -12
 405              		.cfi_offset 5, -8
 406              		.cfi_offset 14, -4
 407 0004 42DE4DE2 		sub	sp, sp, #1056
 408              		.cfi_def_cfa_offset 1068
 409 0008 0CD04DE2 		sub	sp, sp, #12
 410              		.cfi_def_cfa_offset 1080
 411              	.LVL21:
 204:../src/renesas/application/r_bcd_lcd.c **** 
 412              		.loc 1 204 0
 413 000c 0000A0E3 		mov	r0, #0
 414 0010 FEFFFFEB 		bl	r_display_init
 415              	.LVL22:
 209:../src/renesas/application/r_bcd_lcd.c ****     {
 416              		.loc 1 209 0
 417 0014 004050E2 		subs	r4, r0, #0
 418 0018 2300000A 		beq	.L32
 419              	.LVL23:
 420              	.L22:
 217:../src/renesas/application/r_bcd_lcd.c ****     {
 421              		.loc 1 217 0
 422 001c 000054E3 		cmp	r4, #0
 423 0020 2800000A 		beq	.L33
 424              	.L23:
 225:../src/renesas/application/r_bcd_lcd.c ****     {
 425              		.loc 1 225 0
 426 0024 000054E3 		cmp	r4, #0
 427 0028 5500000A 		beq	.L30
 428              	.L25:
 260:../src/renesas/application/r_bcd_lcd.c ****     {
 429              		.loc 1 260 0
 430 002c 000054E3 		cmp	r4, #0
 431 0030 5500000A 		beq	.L34
 432              	.L27:
 433              	.LBB6:
 306:../src/renesas/application/r_bcd_lcd.c ****         info.p_buff_addr2      = graphics2_buffer[1];
 434              		.loc 1 306 0
 435 0034 003000E3 		movw	r3, #:lower16:.LANCHOR5
 436 0038 003040E3 		movt	r3, #:upper16:.LANCHOR5
 437 003c 08308DE5 		str	r3, [sp, #8]
 307:../src/renesas/application/r_bcd_lcd.c ****         info.buff_stride       = GRAPHICS2_BUFFER_STRIDE;
 438              		.loc 1 307 0
 439 0040 C33B83E2 		add	r3, r3, #199680
 440 0044 0C308DE5 		str	r3, [sp, #12]
 308:../src/renesas/application/r_bcd_lcd.c ****         info.window_width      = LAYER2_DISP_AREA_HW;
 441              		.loc 1 308 0
 442 0048 1A3EA0E3 		mov	r3, #416
 443 004c 14308DE5 		str	r3, [sp, #20]
 309:../src/renesas/application/r_bcd_lcd.c ****         info.window_height     = LAYER2_DISP_AREA_VW;
 444              		.loc 1 309 0
 445 0050 323EA0E3 		mov	r3, #800
 446 0054 1C308DE5 		str	r3, [sp, #28]
 310:../src/renesas/application/r_bcd_lcd.c ****         DrawInit( VDC_LAYER_ID_2_RD, &info );
 447              		.loc 1 310 0
 448 0058 1E5EA0E3 		mov	r5, #480
 449 005c 20508DE5 		str	r5, [sp, #32]
 311:../src/renesas/application/r_bcd_lcd.c **** 
 450              		.loc 1 311 0
 451 0060 08108DE2 		add	r1, sp, #8
 452 0064 0200A0E3 		mov	r0, #2
 453 0068 FEFFFFEB 		bl	DrawInit
 454              	.LVL24:
 314:../src/renesas/application/r_bcd_lcd.c ****     }
 455              		.loc 1 314 0
 456 006c 0F30A0E3 		mov	r3, #15
 457 0070 04308DE5 		str	r3, [sp, #4]
 458 0074 00508DE5 		str	r5, [sp]
 459 0078 0A3DA0E3 		mov	r3, #640
 460 007c 0020A0E3 		mov	r2, #0
 461 0080 0210A0E1 		mov	r1, r2
 462 0084 0200A0E3 		mov	r0, #2
 463 0088 FEFFFFEB 		bl	DrawRectFill
 464              	.LVL25:
 465              	.LBE6:
 318:../src/renesas/application/r_bcd_lcd.c ****     {
 466              		.loc 1 318 0
 467 008c 000054E3 		cmp	r4, #0
 468 0090 8400000A 		beq	.L35
 469              	.L28:
 328:../src/renesas/application/r_bcd_lcd.c ****     {
 470              		.loc 1 328 0
 471 0094 000054E3 		cmp	r4, #0
 472 0098 8500000A 		beq	.L36
 473              	.L29:
 334:../src/renesas/application/r_bcd_lcd.c **** 
 474              		.loc 1 334 0
 475 009c 0000A0E3 		mov	r0, #0
 476 00a0 42DE8DE2 		add	sp, sp, #1056
 477 00a4 0CD08DE2 		add	sp, sp, #12
 478              		.cfi_remember_state
 479              		.cfi_def_cfa_offset 12
 480              		@ sp needed
 481 00a8 3080BDE8 		pop	{r4, r5, pc}
 482              	.LVL26:
 483              	.L32:
 484              		.cfi_restore_state
 485              	.LBB7:
 214:../src/renesas/application/r_bcd_lcd.c ****     }
 486              		.loc 1 214 0
 487 00ac 003000E3 		movw	r3, #:lower16:IntCallbackFunc
 488 00b0 003040E3 		movt	r3, #:upper16:IntCallbackFunc
 489 00b4 7E2FA0E3 		mov	r2, #504
 490 00b8 0310A0E3 		mov	r1, #3
 491 00bc FEFFFFEB 		bl	R_RVAPI_InterruptEnableVDC
 492              	.LVL27:
 493 00c0 0040A0E1 		mov	r4, r0
 494              	.LVL28:
 495 00c4 D4FFFFEA 		b	.L22
 496              	.LVL29:
 497              	.L33:
 498              	.LBE7:
 219:../src/renesas/application/r_bcd_lcd.c ****     }
 499              		.loc 1 219 0
 500 00c8 003000E3 		movw	r3, #:lower16:IntCallbackFunc
 501 00cc 003040E3 		movt	r3, #:upper16:IntCallbackFunc
 502 00d0 0020A0E3 		mov	r2, #0
 503 00d4 0110A0E3 		mov	r1, #1
 504 00d8 0200A0E1 		mov	r0, r2
 505 00dc FEFFFFEB 		bl	R_RVAPI_InterruptEnableVDC
 506              	.LVL30:
 507 00e0 0040A0E1 		mov	r4, r0
 508              	.LVL31:
 509 00e4 CEFFFFEA 		b	.L23
 510              	.LVL32:
 511              	.L26:
 512              	.LBB8:
 231:../src/renesas/application/r_bcd_lcd.c ****         }
 513              		.loc 1 231 0 discriminator 3
 514 00e8 0234A0E1 		lsl	r3, r2, #8
 515 00ec 023883E1 		orr	r3, r3, r2, lsl #16
 516 00f0 033082E1 		orr	r3, r2, r3
 517 00f4 FF3483E3 		orr	r3, r3, #-16777216
 518 00f8 421E8DE2 		add	r1, sp, #1056
 519 00fc 081081E2 		add	r1, r1, #8
 520 0100 021181E0 		add	r1, r1, r2, lsl #2
 521 0104 003401E5 		str	r3, [r1, #-1024]
 229:../src/renesas/application/r_bcd_lcd.c ****         {
 522              		.loc 1 229 0 discriminator 3
 523 0108 012082E2 		add	r2, r2, #1
 524              	.LVL33:
 525              	.L24:
 229:../src/renesas/application/r_bcd_lcd.c ****         {
 526              		.loc 1 229 0 is_stmt 0 discriminator 1
 527 010c FF0052E3 		cmp	r2, #255
 528 0110 F4FFFF9A 		bls	.L26
 234:../src/renesas/application/r_bcd_lcd.c ****         gr_disp_cnf.fb_buff   = (void *)&video_buffer[0];   /* Frame buffer address            */
 529              		.loc 1 234 0 is_stmt 1
 530 0114 0120A0E3 		mov	r2, #1
 531              	.LVL34:
 532 0118 0820CDE5 		strb	r2, [sp, #8]
 235:../src/renesas/application/r_bcd_lcd.c ****         gr_disp_cnf.fb_stride = VIDEO_BUFFER_STRIDE*4;        /* Frame buffer stride             */
 533              		.loc 1 235 0
 534 011c 003000E3 		movw	r3, #:lower16:.LANCHOR2
 535 0120 003040E3 		movt	r3, #:upper16:.LANCHOR2
 536 0124 14308DE5 		str	r3, [sp, #20]
 236:../src/renesas/application/r_bcd_lcd.c **** //        gr_disp_cnf.fb_stride = VIDEO_BUFFER_STRIDE;        /* Frame buffer stride             */
 537              		.loc 1 236 0
 538 0128 0A3CA0E3 		mov	r3, #2560
 539 012c 18308DE5 		str	r3, [sp, #24]
 240:../src/renesas/application/r_bcd_lcd.c ****         gr_disp_cnf.disp_area.hw_rel = LAYER0_DISP_AREA_HW;
 540              		.loc 1 240 0
 541 0130 F030A0E3 		mov	r3, #240
 542 0134 BE30CDE1 		strh	r3, [sp, #14]	@ movhi
 241:../src/renesas/application/r_bcd_lcd.c ****         gr_disp_cnf.disp_area.vs_rel = LAYER0_DISP_AREA_VS;
 543              		.loc 1 241 0
 544 0138 0A3DA0E3 		mov	r3, #640
 545 013c B031CDE1 		strh	r3, [sp, #16]	@ movhi
 242:../src/renesas/application/r_bcd_lcd.c ****         gr_disp_cnf.disp_area.vw_rel = LAYER0_DISP_AREA_VW;
 546              		.loc 1 242 0
 547 0140 A030A0E3 		mov	r3, #160
 548 0144 BA30CDE1 		strh	r3, [sp, #10]	@ movhi
 243:../src/renesas/application/r_bcd_lcd.c **** 
 549              		.loc 1 243 0
 550 0148 1E3EA0E3 		mov	r3, #480
 551 014c BC30CDE1 		strh	r3, [sp, #12]	@ movhi
 245:../src/renesas/application/r_bcd_lcd.c **** //        gr_disp_cnf.read_format   = VDC_GR_FORMAT_CLUT8;           /* Read Format                
 552              		.loc 1 245 0
 553 0150 1C20CDE5 		strb	r2, [sp, #28]
 247:../src/renesas/application/r_bcd_lcd.c ****         gr_disp_cnf.read_swap     = VDC_WR_RD_WRSWA_32_16_8BIT;    /* Read Swap 8bit/16bit/32bit */
 554              		.loc 1 247 0
 555 0154 0000A0E3 		mov	r0, #0
 556 0158 2400CDE5 		strb	r0, [sp, #36]
 248:../src/renesas/application/r_bcd_lcd.c **** 
 557              		.loc 1 248 0
 558 015c 0730A0E3 		mov	r3, #7
 559 0160 2530CDE5 		strb	r3, [sp, #37]
 250:../src/renesas/application/r_bcd_lcd.c **** 
 560              		.loc 1 250 0
 561 0164 28308DE2 		add	r3, sp, #40
 562 0168 20308DE5 		str	r3, [sp, #32]
 252:../src/renesas/application/r_bcd_lcd.c **** 
 563              		.loc 1 252 0
 564 016c 0230A0E3 		mov	r3, #2
 565 0170 2630CDE5 		strb	r3, [sp, #38]
 254:../src/renesas/application/r_bcd_lcd.c ****    }
 566              		.loc 1 254 0
 567 0174 08108DE2 		add	r1, sp, #8
 568 0178 FEFFFFEB 		bl	R_RVAPI_GraphCreateSurfaceVDC
 569              	.LVL35:
 570 017c 0040A0E1 		mov	r4, r0
 571              	.LVL36:
 572 0180 A9FFFFEA 		b	.L25
 573              	.L30:
 574              	.LBE8:
 575 0184 0020A0E3 		mov	r2, #0
 576 0188 DFFFFFEA 		b	.L24
 577              	.L34:
 578              	.LBB9:
 264:../src/renesas/application/r_bcd_lcd.c ****         clut[BLUE]        = BLUE_DATA;
 579              		.loc 1 264 0
 580 018c FF34A0E3 		mov	r3, #-16777216
 581 0190 28308DE5 		str	r3, [sp, #40]
 265:../src/renesas/application/r_bcd_lcd.c ****         clut[GREEN]       = GREEN_DATA;
 582              		.loc 1 265 0
 583 0194 FF30A0E3 		mov	r3, #255
 584 0198 003F4FE3 		movt	r3, 65280
 585 019c 2C308DE5 		str	r3, [sp, #44]
 266:../src/renesas/application/r_bcd_lcd.c ****         clut[RED]         = RED_DATA;
 586              		.loc 1 266 0
 587 01a0 FF3CA0E3 		mov	r3, #65280
 588 01a4 1338DFE7 		bfi	r3, r3, #16, #16
 589 01a8 30308DE5 		str	r3, [sp, #48]
 267:../src/renesas/application/r_bcd_lcd.c ****         clut[WHITE]       = WHITE_DATA;
 590              		.loc 1 267 0
 591 01ac 0030A0E3 		mov	r3, #0
 592 01b0 FF3F4FE3 		movt	r3, 65535
 593 01b4 34308DE5 		str	r3, [sp, #52]
 268:../src/renesas/application/r_bcd_lcd.c ****         clut[CYAN]        = CYAN_DATA;
 594              		.loc 1 268 0
 595 01b8 0030E0E3 		mvn	r3, #0
 596 01bc 38308DE5 		str	r3, [sp, #56]
 269:../src/renesas/application/r_bcd_lcd.c ****         clut[YELLOW]      = YELLOW_DATA;
 597              		.loc 1 269 0
 598 01c0 FF38E0E3 		mvn	r3, #16711680
 599 01c4 3C308DE5 		str	r3, [sp, #60]
 270:../src/renesas/application/r_bcd_lcd.c ****         clut[MAGENTA]     = MAGENTA_DATA;
 600              		.loc 1 270 0
 601 01c8 FF30E0E3 		mvn	r3, #255
 602 01cc 40308DE5 		str	r3, [sp, #64]
 271:../src/renesas/application/r_bcd_lcd.c ****         clut[NAVY]        = NAVY_DATA;
 603              		.loc 1 271 0
 604 01d0 FF3CE0E3 		mvn	r3, #65280
 605 01d4 44308DE5 		str	r3, [sp, #68]
 272:../src/renesas/application/r_bcd_lcd.c ****         clut[DARKGREEN]   = DARKGREEN_DATA;
 606              		.loc 1 272 0
 607 01d8 8030A0E3 		mov	r3, #128
 608 01dc 003F4FE3 		movt	r3, 65280
 609 01e0 48308DE5 		str	r3, [sp, #72]
 273:../src/renesas/application/r_bcd_lcd.c ****         clut[DEEPSKYBLUE] = DEEPSKYBLUE_DATA;
 610              		.loc 1 273 0
 611 01e4 193BA0E3 		mov	r3, #25600
 612 01e8 003F4FE3 		movt	r3, 65280
 613 01ec 4C308DE5 		str	r3, [sp, #76]
 274:../src/renesas/application/r_bcd_lcd.c ****         clut[PURPLE]      = PURPLE_DATA;
 614              		.loc 1 274 0
 615 01f0 FF3F0BE3 		movw	r3, #49151
 616 01f4 003F4FE3 		movt	r3, 65280
 617 01f8 50308DE5 		str	r3, [sp, #80]
 275:../src/renesas/application/r_bcd_lcd.c ****         clut[GRAY]        = GRAY_DATA;
 618              		.loc 1 275 0
 619 01fc 8030A0E3 		mov	r3, #128
 620 0200 803F4FE3 		movt	r3, 65408
 621 0204 54308DE5 		str	r3, [sp, #84]
 276:../src/renesas/application/r_bcd_lcd.c ****         clut[BROWN]       = BROWN_DATA;
 622              		.loc 1 276 0
 623 0208 803008E3 		movw	r3, #32896
 624 020c 803F4FE3 		movt	r3, 65408
 625 0210 58308DE5 		str	r3, [sp, #88]
 277:../src/renesas/application/r_bcd_lcd.c ****         clut[GOLD]        = GOLD_DATA;
 626              		.loc 1 277 0
 627 0214 2A3A02E3 		movw	r3, #10794
 628 0218 A53F4FE3 		movt	r3, 65445
 629 021c 5C308DE5 		str	r3, [sp, #92]
 278:../src/renesas/application/r_bcd_lcd.c ****         clut[TRANSPARENT] = TRANSPARENT_DATA;
 630              		.loc 1 278 0
 631 0220 80370DE3 		movw	r3, #55168
 632 0224 FF3F4FE3 		movt	r3, 65535
 633 0228 60308DE5 		str	r3, [sp, #96]
 279:../src/renesas/application/r_bcd_lcd.c **** 
 634              		.loc 1 279 0
 635 022c FF34E0E3 		mvn	r3, #-16777216
 636 0230 64308DE5 		str	r3, [sp, #100]
 281:../src/renesas/application/r_bcd_lcd.c ****         gr_disp_cnf.fb_buff   = (void *)&graphics2_buffer[0];   /* Frame buffer address            
 637              		.loc 1 281 0
 638 0234 0230A0E3 		mov	r3, #2
 639 0238 0830CDE5 		strb	r3, [sp, #8]
 282:../src/renesas/application/r_bcd_lcd.c ****         gr_disp_cnf.fb_stride = GRAPHICS2_BUFFER_STRIDE;        /* Frame buffer stride             
 640              		.loc 1 282 0
 641 023c 003000E3 		movw	r3, #:lower16:.LANCHOR5
 642 0240 003040E3 		movt	r3, #:upper16:.LANCHOR5
 643 0244 14308DE5 		str	r3, [sp, #20]
 283:../src/renesas/application/r_bcd_lcd.c **** 
 644              		.loc 1 283 0
 645 0248 1A3EA0E3 		mov	r3, #416
 646 024c 18308DE5 		str	r3, [sp, #24]
 286:../src/renesas/application/r_bcd_lcd.c ****         gr_disp_cnf.disp_area.hw_rel = LAYER2_DISP_AREA_HW;
 647              		.loc 1 286 0
 648 0250 F030A0E3 		mov	r3, #240
 649 0254 BE30CDE1 		strh	r3, [sp, #14]	@ movhi
 287:../src/renesas/application/r_bcd_lcd.c ****         gr_disp_cnf.disp_area.vs_rel = LAYER2_DISP_AREA_VS;
 650              		.loc 1 287 0
 651 0258 323EA0E3 		mov	r3, #800
 652 025c B031CDE1 		strh	r3, [sp, #16]	@ movhi
 288:../src/renesas/application/r_bcd_lcd.c ****         gr_disp_cnf.disp_area.vw_rel = LAYER2_DISP_AREA_VW;
 653              		.loc 1 288 0
 654 0260 A030A0E3 		mov	r3, #160
 655 0264 BA30CDE1 		strh	r3, [sp, #10]	@ movhi
 289:../src/renesas/application/r_bcd_lcd.c **** 
 656              		.loc 1 289 0
 657 0268 1E3EA0E3 		mov	r3, #480
 658 026c BC30CDE1 		strh	r3, [sp, #12]	@ movhi
 291:../src/renesas/application/r_bcd_lcd.c ****         gr_disp_cnf.read_ycc_swap = VDC_GR_YCCSWAP_CBY0CRY1;       /* Read Swap for YCbCr422     */
 659              		.loc 1 291 0
 660 0270 0630A0E3 		mov	r3, #6
 661 0274 1C30CDE5 		strb	r3, [sp, #28]
 292:../src/renesas/application/r_bcd_lcd.c ****         gr_disp_cnf.read_swap     = VDC_WR_RD_WRSWA_32_16_8BIT;    /* Read Swap 8bit/16bit/32bit */
 662              		.loc 1 292 0
 663 0278 0000A0E3 		mov	r0, #0
 664 027c 2400CDE5 		strb	r0, [sp, #36]
 293:../src/renesas/application/r_bcd_lcd.c **** 
 665              		.loc 1 293 0
 666 0280 0730A0E3 		mov	r3, #7
 667 0284 2530CDE5 		strb	r3, [sp, #37]
 295:../src/renesas/application/r_bcd_lcd.c **** 
 668              		.loc 1 295 0
 669 0288 28308DE2 		add	r3, sp, #40
 670 028c 20308DE5 		str	r3, [sp, #32]
 297:../src/renesas/application/r_bcd_lcd.c **** 
 671              		.loc 1 297 0
 672 0290 0330A0E3 		mov	r3, #3
 673 0294 2630CDE5 		strb	r3, [sp, #38]
 299:../src/renesas/application/r_bcd_lcd.c ****     }
 674              		.loc 1 299 0
 675 0298 08108DE2 		add	r1, sp, #8
 676 029c FEFFFFEB 		bl	R_RVAPI_GraphCreateSurfaceVDC
 677              	.LVL37:
 678 02a0 0040A0E1 		mov	r4, r0
 679              	.LVL38:
 680 02a4 62FFFFEA 		b	.L27
 681              	.L35:
 682              	.LBE9:
 320:../src/renesas/application/r_bcd_lcd.c **** #if 0
 683              		.loc 1 320 0
 684 02a8 0000A0E3 		mov	r0, #0
 685 02ac FEFFFFEB 		bl	r_image_quality_adjustment
 686              	.LVL39:
 687 02b0 77FFFFEA 		b	.L28
 688              	.L36:
 330:../src/renesas/application/r_bcd_lcd.c ****     }
 689              		.loc 1 330 0
 690 02b4 001000E3 		movw	r1, #:lower16:VDC_LcdPortSetting
 691 02b8 001040E3 		movt	r1, #:upper16:VDC_LcdPortSetting
 692 02bc 0000A0E3 		mov	r0, #0
 693 02c0 FEFFFFEB 		bl	R_RVAPI_DispPortSettingVDC
 694              	.LVL40:
 695 02c4 74FFFFEA 		b	.L29
 696              		.cfi_endproc
 697              	.LFE5:
 699              		.section	.text.r_video_quality_adjustment,"ax",%progbits
 700              		.align	2
 701              		.global	r_video_quality_adjustment
 702              		.syntax unified
 703              		.arm
 704              		.fpu neon
 706              	r_video_quality_adjustment:
 707              	.LFB8:
 505:../src/renesas/application/r_bcd_lcd.c **** 
 506:../src/renesas/application/r_bcd_lcd.c **** /******************************************************************************
 507:../src/renesas/application/r_bcd_lcd.c **** * Function Name: r_video_quality_adjustment
 508:../src/renesas/application/r_bcd_lcd.c **** * Description  : Video Quality Adjustment
 509:../src/renesas/application/r_bcd_lcd.c **** * Arguments    : vdc_ch
 510:../src/renesas/application/r_bcd_lcd.c **** *              :   Channel
 511:../src/renesas/application/r_bcd_lcd.c **** * Return Value : 0
 512:../src/renesas/application/r_bcd_lcd.c **** *              :   success
 513:../src/renesas/application/r_bcd_lcd.c **** *              : other
 514:../src/renesas/application/r_bcd_lcd.c **** *              :   fail (vdc_error_t)
 515:../src/renesas/application/r_bcd_lcd.c **** ******************************************************************************/
 516:../src/renesas/application/r_bcd_lcd.c **** vdc_error_t r_video_quality_adjustment(vdc_channel_t vdc_ch)
 517:../src/renesas/application/r_bcd_lcd.c **** {
 708              		.loc 1 517 0
 709              		.cfi_startproc
 710              		@ args = 0, pretend = 0, frame = 48
 711              		@ frame_needed = 0, uses_anonymous_args = 0
 712              	.LVL41:
 713 0000 10402DE9 		push	{r4, lr}
 714              		.cfi_def_cfa_offset 8
 715              		.cfi_offset 4, -8
 716              		.cfi_offset 14, -4
 717 0004 40D04DE2 		sub	sp, sp, #64
 718              		.cfi_def_cfa_offset 72
 719 0008 0040A0E1 		mov	r4, r0
 720              	.LBB10:
 518:../src/renesas/application/r_bcd_lcd.c ****     vdc_error_t error;
 519:../src/renesas/application/r_bcd_lcd.c **** 
 520:../src/renesas/application/r_bcd_lcd.c ****     {
 521:../src/renesas/application/r_bcd_lcd.c ****         vdc_color_matrix_t color_matrix;
 522:../src/renesas/application/r_bcd_lcd.c **** 
 523:../src/renesas/application/r_bcd_lcd.c ****         /* Operating mode */
 524:../src/renesas/application/r_bcd_lcd.c ****         color_matrix.module = IMGC_BRIGHT_INPUTCTL_MODULE;
 721              		.loc 1 524 0
 722 000c 0030A0E3 		mov	r3, #0
 723 0010 2430CDE5 		strb	r3, [sp, #36]
 525:../src/renesas/application/r_bcd_lcd.c **** 
 526:../src/renesas/application/r_bcd_lcd.c ****         /* Mode Select */
 527:../src/renesas/application/r_bcd_lcd.c ****         color_matrix.mtx_mode = IMGC_BRIGHT_INPUTCTL_MODE;
 724              		.loc 1 527 0
 725 0014 0320A0E3 		mov	r2, #3
 726 0018 2520CDE5 		strb	r2, [sp, #37]
 528:../src/renesas/application/r_bcd_lcd.c **** 
 529:../src/renesas/application/r_bcd_lcd.c ****         /* Bright */
 530:../src/renesas/application/r_bcd_lcd.c ****         color_matrix.offset[VDC_COLORMTX_OFFST_YG] = IMGC_BRIGHT_INPUTCTL_OFFSET_YG;
 727              		.loc 1 530 0
 728 001c 8020A0E3 		mov	r2, #128
 729 0020 B622CDE1 		strh	r2, [sp, #38]	@ movhi
 531:../src/renesas/application/r_bcd_lcd.c ****         color_matrix.offset[VDC_COLORMTX_OFFST_B]  = IMGC_BRIGHT_INPUTCTL_OFFSET_B;
 730              		.loc 1 531 0
 731 0024 B822CDE1 		strh	r2, [sp, #40]	@ movhi
 532:../src/renesas/application/r_bcd_lcd.c ****         color_matrix.offset[VDC_COLORMTX_OFFST_R]  = IMGC_BRIGHT_INPUTCTL_OFFSET_R;
 732              		.loc 1 532 0
 733 0028 BA22CDE1 		strh	r2, [sp, #42]	@ movhi
 533:../src/renesas/application/r_bcd_lcd.c **** 
 534:../src/renesas/application/r_bcd_lcd.c ****         /* Contrast */
 535:../src/renesas/application/r_bcd_lcd.c ****         color_matrix.gain[VDC_COLORMTX_GAIN_GG] = IMGC_CONTRAST_INPUTCTL_GAIN_GG;
 734              		.loc 1 535 0
 735 002c 012CA0E3 		mov	r2, #256
 736 0030 BC22CDE1 		strh	r2, [sp, #44]	@ movhi
 536:../src/renesas/application/r_bcd_lcd.c ****         color_matrix.gain[VDC_COLORMTX_GAIN_GB] = IMGC_CONTRAST_INPUTCTL_GAIN_GB;
 737              		.loc 1 536 0
 738 0034 BE32CDE1 		strh	r3, [sp, #46]	@ movhi
 537:../src/renesas/application/r_bcd_lcd.c ****         color_matrix.gain[VDC_COLORMTX_GAIN_GR] = IMGC_CONTRAST_INPUTCTL_GAIN_GR;
 739              		.loc 1 537 0
 740 0038 B033CDE1 		strh	r3, [sp, #48]	@ movhi
 538:../src/renesas/application/r_bcd_lcd.c ****         color_matrix.gain[VDC_COLORMTX_GAIN_BG] = IMGC_CONTRAST_INPUTCTL_GAIN_BG;
 741              		.loc 1 538 0
 742 003c B233CDE1 		strh	r3, [sp, #50]	@ movhi
 539:../src/renesas/application/r_bcd_lcd.c ****         color_matrix.gain[VDC_COLORMTX_GAIN_BB] = IMGC_CONTRAST_INPUTCTL_GAIN_BB;
 743              		.loc 1 539 0
 744 0040 B423CDE1 		strh	r2, [sp, #52]	@ movhi
 540:../src/renesas/application/r_bcd_lcd.c ****         color_matrix.gain[VDC_COLORMTX_GAIN_BR] = IMGC_CONTRAST_INPUTCTL_GAIN_BR;
 745              		.loc 1 540 0
 746 0044 B633CDE1 		strh	r3, [sp, #54]	@ movhi
 541:../src/renesas/application/r_bcd_lcd.c ****         color_matrix.gain[VDC_COLORMTX_GAIN_RG] = IMGC_CONTRAST_INPUTCTL_GAIN_RG;
 747              		.loc 1 541 0
 748 0048 B833CDE1 		strh	r3, [sp, #56]	@ movhi
 542:../src/renesas/application/r_bcd_lcd.c ****         color_matrix.gain[VDC_COLORMTX_GAIN_RB] = IMGC_CONTRAST_INPUTCTL_GAIN_RB;
 749              		.loc 1 542 0
 750 004c BA33CDE1 		strh	r3, [sp, #58]	@ movhi
 543:../src/renesas/application/r_bcd_lcd.c ****         color_matrix.gain[VDC_COLORMTX_GAIN_RR] = IMGC_CONTRAST_INPUTCTL_GAIN_RR;
 751              		.loc 1 543 0
 752 0050 BC23CDE1 		strh	r2, [sp, #60]	@ movhi
 544:../src/renesas/application/r_bcd_lcd.c ****         error = R_RVAPI_VideoCalibrationVDC (vdc_ch, &color_matrix);
 753              		.loc 1 544 0
 754 0054 24108DE2 		add	r1, sp, #36
 755 0058 FEFFFFEB 		bl	R_RVAPI_VideoCalibrationVDC
 756              	.LVL42:
 757              	.LBE10:
 545:../src/renesas/application/r_bcd_lcd.c ****     }
 546:../src/renesas/application/r_bcd_lcd.c **** 
 547:../src/renesas/application/r_bcd_lcd.c ****     if (VDC_OK == error)
 758              		.loc 1 547 0
 759 005c 000050E3 		cmp	r0, #0
 760              	.LVL43:
 761 0060 0100000A 		beq	.L40
 762              	.L38:
 763              	.LVL44:
 548:../src/renesas/application/r_bcd_lcd.c ****     {
 549:../src/renesas/application/r_bcd_lcd.c ****         vdc_enhance_sharp_t sharp_param;
 550:../src/renesas/application/r_bcd_lcd.c ****         vdc_enhance_lti_t lti_param;
 551:../src/renesas/application/r_bcd_lcd.c ****         vdc_period_rect_t enh_area;
 552:../src/renesas/application/r_bcd_lcd.c **** 
 553:../src/renesas/application/r_bcd_lcd.c ****         /* Sharpness of H1 */
 554:../src/renesas/application/r_bcd_lcd.c ****         sharp_param.hrz_sharp[VDC_IMGENH_SHARP_H1].shp_clip_o = IMGC_SHARPNESS_H1_CLIP_O;
 555:../src/renesas/application/r_bcd_lcd.c ****         sharp_param.hrz_sharp[VDC_IMGENH_SHARP_H1].shp_clip_u = IMGC_SHARPNESS_H1_CLIP_U;
 556:../src/renesas/application/r_bcd_lcd.c ****         sharp_param.hrz_sharp[VDC_IMGENH_SHARP_H1].shp_gain_o = IMGC_SHARPNESS_H1_GAIN_O;
 557:../src/renesas/application/r_bcd_lcd.c ****         sharp_param.hrz_sharp[VDC_IMGENH_SHARP_H1].shp_gain_u = IMGC_SHARPNESS_H1_GAIN_U;
 558:../src/renesas/application/r_bcd_lcd.c ****         sharp_param.hrz_sharp[VDC_IMGENH_SHARP_H1].shp_core   = IMGC_SHARPNESS_H1_CORE;
 559:../src/renesas/application/r_bcd_lcd.c **** 
 560:../src/renesas/application/r_bcd_lcd.c ****         /* Sharpness of H2 */
 561:../src/renesas/application/r_bcd_lcd.c ****         sharp_param.hrz_sharp[VDC_IMGENH_SHARP_H2].shp_clip_o = IMGC_SHARPNESS_H2_CLIP_O;
 562:../src/renesas/application/r_bcd_lcd.c ****         sharp_param.hrz_sharp[VDC_IMGENH_SHARP_H2].shp_clip_u = IMGC_SHARPNESS_H2_CLIP_U;
 563:../src/renesas/application/r_bcd_lcd.c ****         sharp_param.hrz_sharp[VDC_IMGENH_SHARP_H2].shp_gain_o = IMGC_SHARPNESS_H2_GAIN_O;
 564:../src/renesas/application/r_bcd_lcd.c ****         sharp_param.hrz_sharp[VDC_IMGENH_SHARP_H2].shp_gain_u = IMGC_SHARPNESS_H2_GAIN_U;
 565:../src/renesas/application/r_bcd_lcd.c ****         sharp_param.hrz_sharp[VDC_IMGENH_SHARP_H2].shp_core   = IMGC_SHARPNESS_H2_CORE;
 566:../src/renesas/application/r_bcd_lcd.c **** 
 567:../src/renesas/application/r_bcd_lcd.c ****         if (IMGC_SHARPNESS_H2_LPF == 0)
 568:../src/renesas/application/r_bcd_lcd.c ****         {
 569:../src/renesas/application/r_bcd_lcd.c ****             sharp_param.shp_h2_lpf_sel = VDC_OFF;
 570:../src/renesas/application/r_bcd_lcd.c ****         }
 571:../src/renesas/application/r_bcd_lcd.c ****         else
 572:../src/renesas/application/r_bcd_lcd.c ****         {
 573:../src/renesas/application/r_bcd_lcd.c ****             sharp_param.shp_h2_lpf_sel = VDC_ON;
 574:../src/renesas/application/r_bcd_lcd.c ****         }
 575:../src/renesas/application/r_bcd_lcd.c **** 
 576:../src/renesas/application/r_bcd_lcd.c ****         /* Sharpness of H3 */
 577:../src/renesas/application/r_bcd_lcd.c ****         sharp_param.hrz_sharp[VDC_IMGENH_SHARP_H3].shp_clip_o = IMGC_SHARPNESS_H3_CLIP_O;
 578:../src/renesas/application/r_bcd_lcd.c ****         sharp_param.hrz_sharp[VDC_IMGENH_SHARP_H3].shp_clip_u = IMGC_SHARPNESS_H3_CLIP_U;
 579:../src/renesas/application/r_bcd_lcd.c ****         sharp_param.hrz_sharp[VDC_IMGENH_SHARP_H3].shp_gain_o = IMGC_SHARPNESS_H3_GAIN_O;
 580:../src/renesas/application/r_bcd_lcd.c ****         sharp_param.hrz_sharp[VDC_IMGENH_SHARP_H3].shp_gain_u = IMGC_SHARPNESS_H3_GAIN_U;
 581:../src/renesas/application/r_bcd_lcd.c ****         sharp_param.hrz_sharp[VDC_IMGENH_SHARP_H3].shp_core   = IMGC_SHARPNESS_H3_CORE;
 582:../src/renesas/application/r_bcd_lcd.c **** 
 583:../src/renesas/application/r_bcd_lcd.c ****         /* LTI H2 */
 584:../src/renesas/application/r_bcd_lcd.c ****         if (IMGC_SHARPNESS_LTI_H2_LPF == 0)
 585:../src/renesas/application/r_bcd_lcd.c ****         {
 586:../src/renesas/application/r_bcd_lcd.c ****             lti_param.lti_h2_lpf_sel = VDC_OFF;
 587:../src/renesas/application/r_bcd_lcd.c ****         }
 588:../src/renesas/application/r_bcd_lcd.c ****         else
 589:../src/renesas/application/r_bcd_lcd.c ****         {
 590:../src/renesas/application/r_bcd_lcd.c ****             lti_param.lti_h2_lpf_sel = VDC_ON;
 591:../src/renesas/application/r_bcd_lcd.c ****         }
 592:../src/renesas/application/r_bcd_lcd.c ****         lti_param.lti[VDC_IMGENH_LTI1].lti_inc_zero = IMGC_SHARPNESS_LTI_H2_ZERO;
 593:../src/renesas/application/r_bcd_lcd.c ****         lti_param.lti[VDC_IMGENH_LTI1].lti_gain     = IMGC_SHARPNESS_LTI_H2_GAIN;
 594:../src/renesas/application/r_bcd_lcd.c ****         lti_param.lti[VDC_IMGENH_LTI1].lti_core     = IMGC_SHARPNESS_LTI_H2_CORE;
 595:../src/renesas/application/r_bcd_lcd.c **** 
 596:../src/renesas/application/r_bcd_lcd.c ****         /* LTI H4 */
 597:../src/renesas/application/r_bcd_lcd.c ****         if (IMGC_SHARPNESS_LTI_H4_MEDTAP_SEL == VDC_LTI_MDFIL_SEL_ADJ2)
 598:../src/renesas/application/r_bcd_lcd.c ****         {
 599:../src/renesas/application/r_bcd_lcd.c ****             lti_param.lti_h4_median_tap_sel = VDC_LTI_MDFIL_SEL_ADJ2;
 600:../src/renesas/application/r_bcd_lcd.c ****         }
 601:../src/renesas/application/r_bcd_lcd.c ****         else
 602:../src/renesas/application/r_bcd_lcd.c ****         {
 603:../src/renesas/application/r_bcd_lcd.c ****             lti_param.lti_h4_median_tap_sel = VDC_LTI_MDFIL_SEL_ADJ1;
 604:../src/renesas/application/r_bcd_lcd.c ****         }
 605:../src/renesas/application/r_bcd_lcd.c **** 
 606:../src/renesas/application/r_bcd_lcd.c ****         lti_param.lti[VDC_IMGENH_LTI2].lti_inc_zero = IMGC_SHARPNESS_LTI_H4_ZERO;
 607:../src/renesas/application/r_bcd_lcd.c ****         lti_param.lti[VDC_IMGENH_LTI2].lti_gain     = IMGC_SHARPNESS_LTI_H4_GAIN;
 608:../src/renesas/application/r_bcd_lcd.c ****         lti_param.lti[VDC_IMGENH_LTI2].lti_core     = IMGC_SHARPNESS_LTI_H4_CORE;
 609:../src/renesas/application/r_bcd_lcd.c **** 
 610:../src/renesas/application/r_bcd_lcd.c ****         /* Sharpness Effective area */
 611:../src/renesas/application/r_bcd_lcd.c ****         enh_area.hs = IMGC_SHARPNESS_HS;
 612:../src/renesas/application/r_bcd_lcd.c ****         enh_area.hw = IMGC_SHARPNESS_HW;
 613:../src/renesas/application/r_bcd_lcd.c ****         enh_area.vs = IMGC_SHARPNESS_VS;
 614:../src/renesas/application/r_bcd_lcd.c ****         enh_area.vw = IMGC_SHARPNESS_VW;
 615:../src/renesas/application/r_bcd_lcd.c ****         error = R_RVAPI_VideoSharpnessLtiVDC (vdc_ch, IMGC_IMG_IMPRV_ID, IMGC_SHARPNESS_ACTIVE, &sh
 616:../src/renesas/application/r_bcd_lcd.c ****                                                IMGC_SHARPNESS_LTI_ACTIVE, &lti_param, &enh_area);
 617:../src/renesas/application/r_bcd_lcd.c **** 
 618:../src/renesas/application/r_bcd_lcd.c ****     }
 619:../src/renesas/application/r_bcd_lcd.c **** 
 620:../src/renesas/application/r_bcd_lcd.c ****     return error;
 621:../src/renesas/application/r_bcd_lcd.c **** } /* End of function r_video_quality_adjustment() */
 764              		.loc 1 621 0
 765 0064 40D08DE2 		add	sp, sp, #64
 766              		.cfi_remember_state
 767              		.cfi_def_cfa_offset 8
 768              		@ sp needed
 769 0068 1080BDE8 		pop	{r4, pc}
 770              	.LVL45:
 771              	.L40:
 772              		.cfi_restore_state
 773              	.LBB11:
 554:../src/renesas/application/r_bcd_lcd.c ****         sharp_param.hrz_sharp[VDC_IMGENH_SHARP_H1].shp_clip_u = IMGC_SHARPNESS_H1_CLIP_U;
 774              		.loc 1 554 0
 775 006c 0010A0E3 		mov	r1, #0
 776 0070 2510CDE5 		strb	r1, [sp, #37]
 555:../src/renesas/application/r_bcd_lcd.c ****         sharp_param.hrz_sharp[VDC_IMGENH_SHARP_H1].shp_gain_o = IMGC_SHARPNESS_H1_GAIN_O;
 777              		.loc 1 555 0
 778 0074 2610CDE5 		strb	r1, [sp, #38]
 556:../src/renesas/application/r_bcd_lcd.c ****         sharp_param.hrz_sharp[VDC_IMGENH_SHARP_H1].shp_gain_u = IMGC_SHARPNESS_H1_GAIN_U;
 779              		.loc 1 556 0
 780 0078 2710CDE5 		strb	r1, [sp, #39]
 557:../src/renesas/application/r_bcd_lcd.c ****         sharp_param.hrz_sharp[VDC_IMGENH_SHARP_H1].shp_core   = IMGC_SHARPNESS_H1_CORE;
 781              		.loc 1 557 0
 782 007c 2810CDE5 		strb	r1, [sp, #40]
 558:../src/renesas/application/r_bcd_lcd.c **** 
 783              		.loc 1 558 0
 784 0080 2910CDE5 		strb	r1, [sp, #41]
 561:../src/renesas/application/r_bcd_lcd.c ****         sharp_param.hrz_sharp[VDC_IMGENH_SHARP_H2].shp_clip_u = IMGC_SHARPNESS_H2_CLIP_U;
 785              		.loc 1 561 0
 786 0084 2A10CDE5 		strb	r1, [sp, #42]
 562:../src/renesas/application/r_bcd_lcd.c ****         sharp_param.hrz_sharp[VDC_IMGENH_SHARP_H2].shp_gain_o = IMGC_SHARPNESS_H2_GAIN_O;
 787              		.loc 1 562 0
 788 0088 2B10CDE5 		strb	r1, [sp, #43]
 563:../src/renesas/application/r_bcd_lcd.c ****         sharp_param.hrz_sharp[VDC_IMGENH_SHARP_H2].shp_gain_u = IMGC_SHARPNESS_H2_GAIN_U;
 789              		.loc 1 563 0
 790 008c 2C10CDE5 		strb	r1, [sp, #44]
 564:../src/renesas/application/r_bcd_lcd.c ****         sharp_param.hrz_sharp[VDC_IMGENH_SHARP_H2].shp_core   = IMGC_SHARPNESS_H2_CORE;
 791              		.loc 1 564 0
 792 0090 2D10CDE5 		strb	r1, [sp, #45]
 565:../src/renesas/application/r_bcd_lcd.c **** 
 793              		.loc 1 565 0
 794 0094 2E10CDE5 		strb	r1, [sp, #46]
 569:../src/renesas/application/r_bcd_lcd.c ****         }
 795              		.loc 1 569 0
 796 0098 2410CDE5 		strb	r1, [sp, #36]
 577:../src/renesas/application/r_bcd_lcd.c ****         sharp_param.hrz_sharp[VDC_IMGENH_SHARP_H3].shp_clip_u = IMGC_SHARPNESS_H3_CLIP_U;
 797              		.loc 1 577 0
 798 009c 2F10CDE5 		strb	r1, [sp, #47]
 578:../src/renesas/application/r_bcd_lcd.c ****         sharp_param.hrz_sharp[VDC_IMGENH_SHARP_H3].shp_gain_o = IMGC_SHARPNESS_H3_GAIN_O;
 799              		.loc 1 578 0
 800 00a0 3010CDE5 		strb	r1, [sp, #48]
 579:../src/renesas/application/r_bcd_lcd.c ****         sharp_param.hrz_sharp[VDC_IMGENH_SHARP_H3].shp_gain_u = IMGC_SHARPNESS_H3_GAIN_U;
 801              		.loc 1 579 0
 802 00a4 3110CDE5 		strb	r1, [sp, #49]
 580:../src/renesas/application/r_bcd_lcd.c ****         sharp_param.hrz_sharp[VDC_IMGENH_SHARP_H3].shp_core   = IMGC_SHARPNESS_H3_CORE;
 803              		.loc 1 580 0
 804 00a8 3210CDE5 		strb	r1, [sp, #50]
 581:../src/renesas/application/r_bcd_lcd.c **** 
 805              		.loc 1 581 0
 806 00ac 3310CDE5 		strb	r1, [sp, #51]
 586:../src/renesas/application/r_bcd_lcd.c ****         }
 807              		.loc 1 586 0
 808 00b0 1410CDE5 		strb	r1, [sp, #20]
 592:../src/renesas/application/r_bcd_lcd.c ****         lti_param.lti[VDC_IMGENH_LTI1].lti_gain     = IMGC_SHARPNESS_LTI_H2_GAIN;
 809              		.loc 1 592 0
 810 00b4 0A30A0E3 		mov	r3, #10
 811 00b8 1630CDE5 		strb	r3, [sp, #22]
 593:../src/renesas/application/r_bcd_lcd.c ****         lti_param.lti[VDC_IMGENH_LTI1].lti_core     = IMGC_SHARPNESS_LTI_H2_CORE;
 812              		.loc 1 593 0
 813 00bc 1710CDE5 		strb	r1, [sp, #23]
 594:../src/renesas/application/r_bcd_lcd.c **** 
 814              		.loc 1 594 0
 815 00c0 1810CDE5 		strb	r1, [sp, #24]
 599:../src/renesas/application/r_bcd_lcd.c ****         }
 816              		.loc 1 599 0
 817 00c4 1510CDE5 		strb	r1, [sp, #21]
 606:../src/renesas/application/r_bcd_lcd.c ****         lti_param.lti[VDC_IMGENH_LTI2].lti_gain     = IMGC_SHARPNESS_LTI_H4_GAIN;
 818              		.loc 1 606 0
 819 00c8 1930CDE5 		strb	r3, [sp, #25]
 607:../src/renesas/application/r_bcd_lcd.c ****         lti_param.lti[VDC_IMGENH_LTI2].lti_core     = IMGC_SHARPNESS_LTI_H4_CORE;
 820              		.loc 1 607 0
 821 00cc 1A10CDE5 		strb	r1, [sp, #26]
 608:../src/renesas/application/r_bcd_lcd.c **** 
 822              		.loc 1 608 0
 823 00d0 1B10CDE5 		strb	r1, [sp, #27]
 611:../src/renesas/application/r_bcd_lcd.c ****         enh_area.hw = IMGC_SHARPNESS_HW;
 824              		.loc 1 611 0
 825 00d4 153EA0E3 		mov	r3, #336
 826 00d8 B032CDE1 		strh	r3, [sp, #32]	@ movhi
 612:../src/renesas/application/r_bcd_lcd.c ****         enh_area.vs = IMGC_SHARPNESS_VS;
 827              		.loc 1 612 0
 828 00dc 053CA0E3 		mov	r3, #1280
 829 00e0 B232CDE1 		strh	r3, [sp, #34]	@ movhi
 613:../src/renesas/application/r_bcd_lcd.c ****         enh_area.vw = IMGC_SHARPNESS_VW;
 830              		.loc 1 613 0
 831 00e4 1830A0E3 		mov	r3, #24
 832 00e8 BC31CDE1 		strh	r3, [sp, #28]	@ movhi
 614:../src/renesas/application/r_bcd_lcd.c ****         error = R_RVAPI_VideoSharpnessLtiVDC (vdc_ch, IMGC_IMG_IMPRV_ID, IMGC_SHARPNESS_ACTIVE, &sh
 833              		.loc 1 614 0
 834 00ec 323EA0E3 		mov	r3, #800
 835 00f0 BE31CDE1 		strh	r3, [sp, #30]	@ movhi
 615:../src/renesas/application/r_bcd_lcd.c ****                                                IMGC_SHARPNESS_LTI_ACTIVE, &lti_param, &enh_area);
 836              		.loc 1 615 0
 837 00f4 1C308DE2 		add	r3, sp, #28
 838 00f8 08308DE5 		str	r3, [sp, #8]
 839 00fc 14308DE2 		add	r3, sp, #20
 840 0100 04308DE5 		str	r3, [sp, #4]
 841 0104 00108DE5 		str	r1, [sp]
 842 0108 24308DE2 		add	r3, sp, #36
 843 010c 0120A0E1 		mov	r2, r1
 844 0110 0400A0E1 		mov	r0, r4
 845 0114 FEFFFFEB 		bl	R_RVAPI_VideoSharpnessLtiVDC
 846              	.LVL46:
 847 0118 D1FFFFEA 		b	.L38
 848              	.LBE11:
 849              		.cfi_endproc
 850              	.LFE8:
 852              		.section	.text.R_BCD_LcdSwapVideoBuffer,"ax",%progbits
 853              		.align	2
 854              		.global	R_BCD_LcdSwapVideoBuffer
 855              		.syntax unified
 856              		.arm
 857              		.fpu neon
 859              	R_BCD_LcdSwapVideoBuffer:
 860              	.LFB9:
 622:../src/renesas/application/r_bcd_lcd.c **** 
 623:../src/renesas/application/r_bcd_lcd.c **** /******************************************************************************
 624:../src/renesas/application/r_bcd_lcd.c **** * Function Name: R_BCD_LcdSwapVideoBuffer
 625:../src/renesas/application/r_bcd_lcd.c **** * Description  : Record video buffer swap request
 626:../src/renesas/application/r_bcd_lcd.c **** * Arguments    : -
 627:../src/renesas/application/r_bcd_lcd.c **** * Return Value : -
 628:../src/renesas/application/r_bcd_lcd.c **** ******************************************************************************/
 629:../src/renesas/application/r_bcd_lcd.c **** void R_BCD_LcdSwapVideoBuffer( void )
 630:../src/renesas/application/r_bcd_lcd.c **** {
 861              		.loc 1 630 0
 862              		.cfi_startproc
 863              		@ args = 0, pretend = 0, frame = 0
 864              		@ frame_needed = 0, uses_anonymous_args = 0
 865              		@ link register save eliminated.
 631:../src/renesas/application/r_bcd_lcd.c ****     Req_Layer1_Swap = 1;
 866              		.loc 1 631 0
 867 0000 003000E3 		movw	r3, #:lower16:.LANCHOR0
 868 0004 003040E3 		movt	r3, #:upper16:.LANCHOR0
 869 0008 0120A0E3 		mov	r2, #1
 870 000c 002083E5 		str	r2, [r3]
 871 0010 1EFF2FE1 		bx	lr
 872              		.cfi_endproc
 873              	.LFE9:
 875              		.section	.text.R_BCD_LcdSwapGraphicsBuffer,"ax",%progbits
 876              		.align	2
 877              		.global	R_BCD_LcdSwapGraphicsBuffer
 878              		.syntax unified
 879              		.arm
 880              		.fpu neon
 882              	R_BCD_LcdSwapGraphicsBuffer:
 883              	.LFB10:
 632:../src/renesas/application/r_bcd_lcd.c **** 
 633:../src/renesas/application/r_bcd_lcd.c ****     return;
 634:../src/renesas/application/r_bcd_lcd.c **** }
 635:../src/renesas/application/r_bcd_lcd.c **** 
 636:../src/renesas/application/r_bcd_lcd.c **** /******************************************************************************
 637:../src/renesas/application/r_bcd_lcd.c **** * Function Name: R_BCD_LcdSwapGraphicsBuffer
 638:../src/renesas/application/r_bcd_lcd.c **** * Description  : Record graphics buffer swap request
 639:../src/renesas/application/r_bcd_lcd.c **** * Arguments    : -
 640:../src/renesas/application/r_bcd_lcd.c **** * Return Value : -
 641:../src/renesas/application/r_bcd_lcd.c **** ******************************************************************************/
 642:../src/renesas/application/r_bcd_lcd.c **** void R_BCD_LcdSwapGraphicsBuffer(void)
 643:../src/renesas/application/r_bcd_lcd.c **** {
 884              		.loc 1 643 0
 885              		.cfi_startproc
 886              		@ args = 0, pretend = 0, frame = 0
 887              		@ frame_needed = 0, uses_anonymous_args = 0
 888              		@ link register save eliminated.
 644:../src/renesas/application/r_bcd_lcd.c ****     Req_Layer2_Swap = 1;
 889              		.loc 1 644 0
 890 0000 003000E3 		movw	r3, #:lower16:.LANCHOR3
 891 0004 003040E3 		movt	r3, #:upper16:.LANCHOR3
 892 0008 0120A0E3 		mov	r2, #1
 893 000c 002083E5 		str	r2, [r3]
 894 0010 1EFF2FE1 		bx	lr
 895              		.cfi_endproc
 896              	.LFE10:
 898              		.section	.text.R_BCD_LcdVSync,"ax",%progbits
 899              		.align	2
 900              		.global	R_BCD_LcdVSync
 901              		.syntax unified
 902              		.arm
 903              		.fpu neon
 905              	R_BCD_LcdVSync:
 906              	.LFB11:
 645:../src/renesas/application/r_bcd_lcd.c **** 
 646:../src/renesas/application/r_bcd_lcd.c ****     return;
 647:../src/renesas/application/r_bcd_lcd.c **** }
 648:../src/renesas/application/r_bcd_lcd.c **** 
 649:../src/renesas/application/r_bcd_lcd.c **** /******************************************************************************
 650:../src/renesas/application/r_bcd_lcd.c **** * Function Name: R_BCD_LcdVSync
 651:../src/renesas/application/r_bcd_lcd.c **** * Description  : Interrupt process for VDC6
 652:../src/renesas/application/r_bcd_lcd.c **** *              : Check the swap request of the video buffer and the overlap buffer,
 653:../src/renesas/application/r_bcd_lcd.c **** *              : and swap the buffer if there is a request.
 654:../src/renesas/application/r_bcd_lcd.c **** * Arguments    : -
 655:../src/renesas/application/r_bcd_lcd.c **** * Return Value : -
 656:../src/renesas/application/r_bcd_lcd.c **** ******************************************************************************/
 657:../src/renesas/application/r_bcd_lcd.c **** void R_BCD_LcdVSync(void)
 658:../src/renesas/application/r_bcd_lcd.c **** {
 907              		.loc 1 658 0
 908              		.cfi_startproc
 909              		@ args = 0, pretend = 0, frame = 0
 910              		@ frame_needed = 0, uses_anonymous_args = 0
 911 0000 10402DE9 		push	{r4, lr}
 912              		.cfi_def_cfa_offset 8
 913              		.cfi_offset 4, -8
 914              		.cfi_offset 14, -4
 659:../src/renesas/application/r_bcd_lcd.c ****     /* Check whether the video buffer swap request is pending */
 660:../src/renesas/application/r_bcd_lcd.c ****     if (Req_Layer1_Swap != 0)
 915              		.loc 1 660 0
 916 0004 003000E3 		movw	r3, #:lower16:.LANCHOR0
 917 0008 003040E3 		movt	r3, #:upper16:.LANCHOR0
 918 000c 003093E5 		ldr	r3, [r3]
 919 0010 000053E3 		cmp	r3, #0
 920 0014 0D00000A 		beq	.L44
 661:../src/renesas/application/r_bcd_lcd.c ****     {
 662:../src/renesas/application/r_bcd_lcd.c ****         if( Layer1_buffer_id == 0 )
 921              		.loc 1 662 0
 922 0018 003000E3 		movw	r3, #:lower16:.LANCHOR1
 923 001c 003040E3 		movt	r3, #:upper16:.LANCHOR1
 924 0020 003093E5 		ldr	r3, [r3]
 925 0024 000053E3 		cmp	r3, #0
 926 0028 2500001A 		bne	.L45
 663:../src/renesas/application/r_bcd_lcd.c ****         {
 664:../src/renesas/application/r_bcd_lcd.c ****             R_RVAPI_GraphChangeSurfaceVDC(VDC_CHANNEL_0, VDC_LAYER_ID_0_RD, video_buffer[0]);
 927              		.loc 1 664 0
 928 002c 002000E3 		movw	r2, #:lower16:.LANCHOR2
 929 0030 002040E3 		movt	r2, #:upper16:.LANCHOR2
 930 0034 0110A0E3 		mov	r1, #1
 931 0038 0000A0E3 		mov	r0, #0
 932 003c FEFFFFEB 		bl	R_RVAPI_GraphChangeSurfaceVDC
 933              	.LVL47:
 665:../src/renesas/application/r_bcd_lcd.c ****             Layer1_buffer_id = 1;
 934              		.loc 1 665 0
 935 0040 003000E3 		movw	r3, #:lower16:.LANCHOR1
 936 0044 003040E3 		movt	r3, #:upper16:.LANCHOR1
 937 0048 0120A0E3 		mov	r2, #1
 938 004c 002083E5 		str	r2, [r3]
 939              	.L44:
 666:../src/renesas/application/r_bcd_lcd.c ****         }
 667:../src/renesas/application/r_bcd_lcd.c ****         else
 668:../src/renesas/application/r_bcd_lcd.c ****         {
 669:../src/renesas/application/r_bcd_lcd.c ****             R_RVAPI_GraphChangeSurfaceVDC(VDC_CHANNEL_0, VDC_LAYER_ID_0_RD, video_buffer[1]);
 670:../src/renesas/application/r_bcd_lcd.c ****             Layer1_buffer_id = 0;
 671:../src/renesas/application/r_bcd_lcd.c ****         }
 672:../src/renesas/application/r_bcd_lcd.c ****     }
 673:../src/renesas/application/r_bcd_lcd.c **** 
 674:../src/renesas/application/r_bcd_lcd.c ****     /* Check whether the overlap buffer swap request is pending */
 675:../src/renesas/application/r_bcd_lcd.c ****     if (Req_Layer2_Swap != 0)
 940              		.loc 1 675 0
 941 0050 003000E3 		movw	r3, #:lower16:.LANCHOR3
 942 0054 003040E3 		movt	r3, #:upper16:.LANCHOR3
 943 0058 003093E5 		ldr	r3, [r3]
 944 005c 000053E3 		cmp	r3, #0
 945 0060 0F00000A 		beq	.L46
 676:../src/renesas/application/r_bcd_lcd.c ****     {
 677:../src/renesas/application/r_bcd_lcd.c ****         if (layer2_buffer_id == 0)
 946              		.loc 1 677 0
 947 0064 003000E3 		movw	r3, #:lower16:.LANCHOR4
 948 0068 003040E3 		movt	r3, #:upper16:.LANCHOR4
 949 006c 003093E5 		ldr	r3, [r3]
 950 0070 000053E3 		cmp	r3, #0
 951 0074 1B00001A 		bne	.L47
 678:../src/renesas/application/r_bcd_lcd.c ****         {
 679:../src/renesas/application/r_bcd_lcd.c ****             R_RVAPI_GraphChangeSurfaceVDC(VDC_CHANNEL_0, VDC_LAYER_ID_2_RD, graphics2_buffer[0]);
 952              		.loc 1 679 0
 953 0078 002000E3 		movw	r2, #:lower16:.LANCHOR5
 954 007c 002040E3 		movt	r2, #:upper16:.LANCHOR5
 955 0080 0210A0E3 		mov	r1, #2
 956 0084 0000A0E3 		mov	r0, #0
 957 0088 FEFFFFEB 		bl	R_RVAPI_GraphChangeSurfaceVDC
 958              	.LVL48:
 680:../src/renesas/application/r_bcd_lcd.c ****             layer2_buffer_id = 1;
 959              		.loc 1 680 0
 960 008c 003000E3 		movw	r3, #:lower16:.LANCHOR4
 961 0090 003040E3 		movt	r3, #:upper16:.LANCHOR4
 962 0094 0120A0E3 		mov	r2, #1
 963 0098 002083E5 		str	r2, [r3]
 964              	.L48:
 681:../src/renesas/application/r_bcd_lcd.c ****         }
 682:../src/renesas/application/r_bcd_lcd.c ****         else
 683:../src/renesas/application/r_bcd_lcd.c ****         {
 684:../src/renesas/application/r_bcd_lcd.c ****             R_RVAPI_GraphChangeSurfaceVDC(VDC_CHANNEL_0, VDC_LAYER_ID_2_RD, graphics2_buffer[1]);
 685:../src/renesas/application/r_bcd_lcd.c ****             layer2_buffer_id = 0;
 686:../src/renesas/application/r_bcd_lcd.c ****         }
 687:../src/renesas/application/r_bcd_lcd.c ****         DrawSwapBuffer(VDC_LAYER_ID_2_RD);
 965              		.loc 1 687 0
 966 009c 0200A0E3 		mov	r0, #2
 967 00a0 FEFFFFEB 		bl	DrawSwapBuffer
 968              	.LVL49:
 969              	.L46:
 688:../src/renesas/application/r_bcd_lcd.c ****     }
 689:../src/renesas/application/r_bcd_lcd.c ****     Req_Layer1_Swap = 0;
 970              		.loc 1 689 0
 971 00a4 003000E3 		movw	r3, #:lower16:.LANCHOR0
 972 00a8 003040E3 		movt	r3, #:upper16:.LANCHOR0
 973 00ac 0020A0E3 		mov	r2, #0
 974 00b0 002083E5 		str	r2, [r3]
 690:../src/renesas/application/r_bcd_lcd.c ****     Req_Layer2_Swap = 0;
 975              		.loc 1 690 0
 976 00b4 003000E3 		movw	r3, #:lower16:.LANCHOR3
 977 00b8 003040E3 		movt	r3, #:upper16:.LANCHOR3
 978 00bc 002083E5 		str	r2, [r3]
 979 00c0 1080BDE8 		pop	{r4, pc}
 980              	.L45:
 669:../src/renesas/application/r_bcd_lcd.c ****             Layer1_buffer_id = 0;
 981              		.loc 1 669 0
 982 00c4 40209FE5 		ldr	r2, .L50
 983 00c8 0110A0E3 		mov	r1, #1
 984 00cc 0000A0E3 		mov	r0, #0
 985 00d0 FEFFFFEB 		bl	R_RVAPI_GraphChangeSurfaceVDC
 986              	.LVL50:
 670:../src/renesas/application/r_bcd_lcd.c ****         }
 987              		.loc 1 670 0
 988 00d4 003000E3 		movw	r3, #:lower16:.LANCHOR1
 989 00d8 003040E3 		movt	r3, #:upper16:.LANCHOR1
 990 00dc 0020A0E3 		mov	r2, #0
 991 00e0 002083E5 		str	r2, [r3]
 992 00e4 D9FFFFEA 		b	.L44
 993              	.L47:
 684:../src/renesas/application/r_bcd_lcd.c ****             layer2_buffer_id = 0;
 994              		.loc 1 684 0
 995 00e8 20209FE5 		ldr	r2, .L50+4
 996 00ec 0210A0E3 		mov	r1, #2
 997 00f0 0000A0E3 		mov	r0, #0
 998 00f4 FEFFFFEB 		bl	R_RVAPI_GraphChangeSurfaceVDC
 999              	.LVL51:
 685:../src/renesas/application/r_bcd_lcd.c ****         }
 1000              		.loc 1 685 0
 1001 00f8 003000E3 		movw	r3, #:lower16:.LANCHOR4
 1002 00fc 003040E3 		movt	r3, #:upper16:.LANCHOR4
 1003 0100 0020A0E3 		mov	r2, #0
 1004 0104 002083E5 		str	r2, [r3]
 1005 0108 E3FFFFEA 		b	.L48
 1006              	.L51:
 1007              		.align	2
 1008              	.L50:
 1009 010c 00C01200 		.word	.LANCHOR2+1228800
 1010 0110 000C0300 		.word	.LANCHOR5+199680
 1011              		.cfi_endproc
 1012              	.LFE11:
 1014              		.section	.text.IntCallbackFunc,"ax",%progbits
 1015              		.align	2
 1016              		.syntax unified
 1017              		.arm
 1018              		.fpu neon
 1020              	IntCallbackFunc:
 1021              	.LFB4:
 170:../src/renesas/application/r_bcd_lcd.c ****     if( int_type == VDC_INT_TYPE_VLINE )
 1022              		.loc 1 170 0
 1023              		.cfi_startproc
 1024              		@ args = 0, pretend = 0, frame = 0
 1025              		@ frame_needed = 0, uses_anonymous_args = 0
 1026              	.LVL52:
 1027 0000 10402DE9 		push	{r4, lr}
 1028              		.cfi_def_cfa_offset 8
 1029              		.cfi_offset 4, -8
 1030              		.cfi_offset 14, -4
 1031 0004 0040A0E1 		mov	r4, r0
 171:../src/renesas/application/r_bcd_lcd.c ****     {
 1032              		.loc 1 171 0
 1033 0008 030050E3 		cmp	r0, #3
 1034 000c 0C00000A 		beq	.L56
 1035              	.LVL53:
 1036              	.L53:
 177:../src/renesas/application/r_bcd_lcd.c ****     {
 1037              		.loc 1 177 0
 1038 0010 010054E3 		cmp	r4, #1
 1039 0014 1080BD18 		popne	{r4, pc}
 179:../src/renesas/application/r_bcd_lcd.c ****         {
 1040              		.loc 1 179 0
 1041 0018 003000E3 		movw	r3, #:lower16:.LANCHOR12
 1042 001c 003040E3 		movt	r3, #:upper16:.LANCHOR12
 1043 0020 003093E5 		ldr	r3, [r3]
 1044 0024 000053E3 		cmp	r3, #0
 1045 0028 1080BDD8 		pople	{r4, pc}
 181:../src/renesas/application/r_bcd_lcd.c ****         }
 1046              		.loc 1 181 0
 1047 002c 003000E3 		movw	r3, #:lower16:.LANCHOR12
 1048 0030 003040E3 		movt	r3, #:upper16:.LANCHOR12
 1049 0034 002093E5 		ldr	r2, [r3]
 1050 0038 012042E2 		sub	r2, r2, #1
 1051 003c 002083E5 		str	r2, [r3]
 1052 0040 1080BDE8 		pop	{r4, pc}
 1053              	.LVL54:
 1054              	.L56:
 174:../src/renesas/application/r_bcd_lcd.c ****     }
 1055              		.loc 1 174 0
 1056 0044 FEFFFFEB 		bl	R_BCD_LcdVSync
 1057              	.LVL55:
 1058 0048 F0FFFFEA 		b	.L53
 1059              		.cfi_endproc
 1060              	.LFE4:
 1062              		.section	.text.R_BCD_LcdWriteLine,"ax",%progbits
 1063              		.align	2
 1064              		.global	R_BCD_LcdWriteLine
 1065              		.syntax unified
 1066              		.arm
 1067              		.fpu neon
 1069              	R_BCD_LcdWriteLine:
 1070              	.LFB12:
 691:../src/renesas/application/r_bcd_lcd.c **** }
 692:../src/renesas/application/r_bcd_lcd.c **** 
 693:../src/renesas/application/r_bcd_lcd.c **** /******************************************************************************
 694:../src/renesas/application/r_bcd_lcd.c **** * Function Name: R_BCD_LcdWriteLine
 695:../src/renesas/application/r_bcd_lcd.c **** * Description  : Draw a line in the overlap buffer
 696:../src/renesas/application/r_bcd_lcd.c **** * Arguments    : x1
 697:../src/renesas/application/r_bcd_lcd.c **** *              :   X coordinate of the start point of the line
 698:../src/renesas/application/r_bcd_lcd.c **** *              : y1
 699:../src/renesas/application/r_bcd_lcd.c **** *              :   Y coordinate of the start point of the line
 700:../src/renesas/application/r_bcd_lcd.c **** *              : x2
 701:../src/renesas/application/r_bcd_lcd.c **** *              :   X coordinate of the end point of the line
 702:../src/renesas/application/r_bcd_lcd.c **** *              : y2
 703:../src/renesas/application/r_bcd_lcd.c **** *              :   Y coordinate of the end point of the line
 704:../src/renesas/application/r_bcd_lcd.c **** *              : color
 705:../src/renesas/application/r_bcd_lcd.c **** *              :   Line color
 706:../src/renesas/application/r_bcd_lcd.c **** * Return Value : -
 707:../src/renesas/application/r_bcd_lcd.c **** ******************************************************************************/
 708:../src/renesas/application/r_bcd_lcd.c **** void R_BCD_LcdWriteLine(int32_t x1, int32_t y1, int32_t x2, int32_t y2, uint8_t color)
 709:../src/renesas/application/r_bcd_lcd.c **** {
 1071              		.loc 1 709 0
 1072              		.cfi_startproc
 1073              		@ args = 4, pretend = 0, frame = 0
 1074              		@ frame_needed = 0, uses_anonymous_args = 0
 1075              	.LVL56:
 1076 0000 04E02DE5 		str	lr, [sp, #-4]!
 1077              		.cfi_def_cfa_offset 4
 1078              		.cfi_offset 14, -4
 1079 0004 0CD04DE2 		sub	sp, sp, #12
 1080              		.cfi_def_cfa_offset 16
 710:../src/renesas/application/r_bcd_lcd.c ****     DrawLine( VDC_LAYER_ID_2_RD, x1, y1, x2, y2, color );
 1081              		.loc 1 710 0
 1082 0008 10C0DDE5 		ldrb	ip, [sp, #16]	@ zero_extendqisi2
 1083 000c 04C08DE5 		str	ip, [sp, #4]
 1084 0010 00308DE5 		str	r3, [sp]
 1085 0014 0230A0E1 		mov	r3, r2
 1086              	.LVL57:
 1087 0018 0120A0E1 		mov	r2, r1
 1088              	.LVL58:
 1089 001c 0010A0E1 		mov	r1, r0
 1090              	.LVL59:
 1091 0020 0200A0E3 		mov	r0, #2
 1092              	.LVL60:
 1093 0024 FEFFFFEB 		bl	DrawLine
 1094              	.LVL61:
 711:../src/renesas/application/r_bcd_lcd.c **** 
 712:../src/renesas/application/r_bcd_lcd.c ****     return;
 713:../src/renesas/application/r_bcd_lcd.c **** }
 1095              		.loc 1 713 0
 1096 0028 0CD08DE2 		add	sp, sp, #12
 1097              		.cfi_def_cfa_offset 4
 1098              		@ sp needed
 1099 002c 04F09DE4 		ldr	pc, [sp], #4
 1100              		.cfi_endproc
 1101              	.LFE12:
 1103              		.section	.text.R_BCD_LcdWriteChar,"ax",%progbits
 1104              		.align	2
 1105              		.global	R_BCD_LcdWriteChar
 1106              		.syntax unified
 1107              		.arm
 1108              		.fpu neon
 1110              	R_BCD_LcdWriteChar:
 1111              	.LFB13:
 714:../src/renesas/application/r_bcd_lcd.c **** 
 715:../src/renesas/application/r_bcd_lcd.c **** /******************************************************************************
 716:../src/renesas/application/r_bcd_lcd.c **** * Function Name: R_BCD_LcdWriteChar
 717:../src/renesas/application/r_bcd_lcd.c **** * Description  : Display character in overlap buffer
 718:../src/renesas/application/r_bcd_lcd.c **** * Arguments    : code
 719:../src/renesas/application/r_bcd_lcd.c **** *              :   Code to be displayed
 720:../src/renesas/application/r_bcd_lcd.c **** *              : x
 721:../src/renesas/application/r_bcd_lcd.c **** *              :   X coordinate to display character
 722:../src/renesas/application/r_bcd_lcd.c **** *              : y
 723:../src/renesas/application/r_bcd_lcd.c **** *              :   Y coordinate to display character
 724:../src/renesas/application/r_bcd_lcd.c **** *              : color
 725:../src/renesas/application/r_bcd_lcd.c **** *              :   character color
 726:../src/renesas/application/r_bcd_lcd.c **** * Return Value : -
 727:../src/renesas/application/r_bcd_lcd.c **** ******************************************************************************/
 728:../src/renesas/application/r_bcd_lcd.c **** void R_BCD_LcdWriteChar(uint8_t code, uint32_t x, uint32_t y, uint8_t color)
 729:../src/renesas/application/r_bcd_lcd.c **** {
 1112              		.loc 1 729 0
 1113              		.cfi_startproc
 1114              		@ args = 0, pretend = 0, frame = 8
 1115              		@ frame_needed = 0, uses_anonymous_args = 0
 1116              	.LVL62:
 1117 0000 F04F2DE9 		push	{r4, r5, r6, r7, r8, r9, r10, fp, lr}
 1118              		.cfi_def_cfa_offset 36
 1119              		.cfi_offset 4, -36
 1120              		.cfi_offset 5, -32
 1121              		.cfi_offset 6, -28
 1122              		.cfi_offset 7, -24
 1123              		.cfi_offset 8, -20
 1124              		.cfi_offset 9, -16
 1125              		.cfi_offset 10, -12
 1126              		.cfi_offset 11, -8
 1127              		.cfi_offset 14, -4
 1128 0004 0CD04DE2 		sub	sp, sp, #12
 1129              		.cfi_def_cfa_offset 48
 1130 0008 04008DE5 		str	r0, [sp, #4]
 1131 000c 01B0A0E1 		mov	fp, r1
 1132 0010 02A0A0E1 		mov	r10, r2
 1133 0014 00308DE5 		str	r3, [sp]
 1134              	.LVL63:
 730:../src/renesas/application/r_bcd_lcd.c ****     int32_t height;
 731:../src/renesas/application/r_bcd_lcd.c ****     int32_t width;
 732:../src/renesas/application/r_bcd_lcd.c ****     uint8_t font;
 733:../src/renesas/application/r_bcd_lcd.c **** 
 734:../src/renesas/application/r_bcd_lcd.c ****     int32_t width_offset;
 735:../src/renesas/application/r_bcd_lcd.c ****     int32_t check_bit;
 736:../src/renesas/application/r_bcd_lcd.c ****     for (height = 0; height < R_BCD_FONTDATA_HEIGHT; height++)
 1135              		.loc 1 736 0
 1136 0018 0070A0E3 		mov	r7, #0
 1137 001c 1A0000EA 		b	.L60
 1138              	.LVL64:
 1139              	.L62:
 737:../src/renesas/application/r_bcd_lcd.c ****     {
 738:../src/renesas/application/r_bcd_lcd.c ****         check_bit = 7;
 739:../src/renesas/application/r_bcd_lcd.c ****         width_offset = 0;
 740:../src/renesas/application/r_bcd_lcd.c ****         font = g_font_array[code-0x20][height][width_offset++];
 741:../src/renesas/application/r_bcd_lcd.c ****         for (width = 0; width < R_BCD_FONTDATA_WIDTH; width++)
 742:../src/renesas/application/r_bcd_lcd.c ****         {
 743:../src/renesas/application/r_bcd_lcd.c ****             if ((font & (0x1 << (check_bit--))) != 0)
 744:../src/renesas/application/r_bcd_lcd.c ****             {
 745:../src/renesas/application/r_bcd_lcd.c ****                 DrawPoint( VDC_LAYER_ID_2_RD, width + x, height + y , color );
 746:../src/renesas/application/r_bcd_lcd.c ****             }
 747:../src/renesas/application/r_bcd_lcd.c ****             if (check_bit < 0)
 1140              		.loc 1 747 0
 1141 0020 000055E3 		cmp	r5, #0
 1142 0024 0D0000BA 		blt	.L67
 1143              	.LVL65:
 1144              	.L63:
 741:../src/renesas/application/r_bcd_lcd.c ****         {
 1145              		.loc 1 741 0 discriminator 2
 1146 0028 014084E2 		add	r4, r4, #1
 1147              	.LVL66:
 1148 002c 0530A0E1 		mov	r3, r5
 1149              	.LVL67:
 1150              	.L61:
 741:../src/renesas/application/r_bcd_lcd.c ****         {
 1151              		.loc 1 741 0 is_stmt 0 discriminator 1
 1152 0030 0B0054E3 		cmp	r4, #11
 1153 0034 130000CA 		bgt	.L68
 743:../src/renesas/application/r_bcd_lcd.c ****             {
 1154              		.loc 1 743 0 is_stmt 1
 1155 0038 015043E2 		sub	r5, r3, #1
 1156              	.LVL68:
 1157 003c 5633A0E1 		asr	r3, r6, r3
 1158 0040 010013E3 		tst	r3, #1
 1159 0044 F5FFFF0A 		beq	.L62
 745:../src/renesas/application/r_bcd_lcd.c ****             }
 1160              		.loc 1 745 0
 1161 0048 00309DE5 		ldr	r3, [sp]
 1162 004c 0A2087E0 		add	r2, r7, r10
 1163 0050 0B1084E0 		add	r1, r4, fp
 1164 0054 0200A0E3 		mov	r0, #2
 1165 0058 FEFFFFEB 		bl	DrawPoint
 1166              	.LVL69:
 1167 005c EFFFFFEA 		b	.L62
 1168              	.L67:
 1169              	.LVL70:
 748:../src/renesas/application/r_bcd_lcd.c ****             {
 749:../src/renesas/application/r_bcd_lcd.c ****                 check_bit = 7;
 750:../src/renesas/application/r_bcd_lcd.c ****                 font = g_font_array[code-0x20][height][width_offset++];
 1170              		.loc 1 750 0
 1171 0060 003000E3 		movw	r3, #:lower16:g_font_array
 1172 0064 003040E3 		movt	r3, #:upper16:g_font_array
 1173 0068 891089E0 		add	r1, r9, r9, lsl #1
 1174 006c 8121A0E1 		lsl	r2, r1, #3
 1175 0070 072082E0 		add	r2, r2, r7
 1176 0074 823083E0 		add	r3, r3, r2, lsl #1
 1177 0078 0860D3E7 		ldrb	r6, [r3, r8]	@ zero_extendqisi2
 1178              	.LVL71:
 1179 007c 018088E2 		add	r8, r8, #1
 1180              	.LVL72:
 749:../src/renesas/application/r_bcd_lcd.c ****                 font = g_font_array[code-0x20][height][width_offset++];
 1181              		.loc 1 749 0
 1182 0080 0750A0E3 		mov	r5, #7
 1183 0084 E7FFFFEA 		b	.L63
 1184              	.LVL73:
 1185              	.L68:
 736:../src/renesas/application/r_bcd_lcd.c ****     {
 1186              		.loc 1 736 0 discriminator 2
 1187 0088 017087E2 		add	r7, r7, #1
 1188              	.LVL74:
 1189              	.L60:
 736:../src/renesas/application/r_bcd_lcd.c ****     {
 1190              		.loc 1 736 0 is_stmt 0 discriminator 1
 1191 008c 170057E3 		cmp	r7, #23
 1192 0090 0B0000CA 		bgt	.L69
 1193              	.LVL75:
 740:../src/renesas/application/r_bcd_lcd.c ****         for (width = 0; width < R_BCD_FONTDATA_WIDTH; width++)
 1194              		.loc 1 740 0 is_stmt 1
 1195 0094 04309DE5 		ldr	r3, [sp, #4]
 1196 0098 209043E2 		sub	r9, r3, #32
 1197              	.LVL76:
 1198 009c 002000E3 		movw	r2, #:lower16:g_font_array
 1199 00a0 002040E3 		movt	r2, #:upper16:g_font_array
 1200 00a4 891089E0 		add	r1, r9, r9, lsl #1
 1201 00a8 8131A0E1 		lsl	r3, r1, #3
 1202 00ac 073083E0 		add	r3, r3, r7
 1203 00b0 8360D2E7 		ldrb	r6, [r2, r3, lsl #1]	@ zero_extendqisi2
 1204              	.LVL77:
 738:../src/renesas/application/r_bcd_lcd.c ****         width_offset = 0;
 1205              		.loc 1 738 0
 1206 00b4 0730A0E3 		mov	r3, #7
 740:../src/renesas/application/r_bcd_lcd.c ****         for (width = 0; width < R_BCD_FONTDATA_WIDTH; width++)
 1207              		.loc 1 740 0
 1208 00b8 0180A0E3 		mov	r8, #1
 741:../src/renesas/application/r_bcd_lcd.c ****         {
 1209              		.loc 1 741 0
 1210 00bc 0040A0E3 		mov	r4, #0
 1211 00c0 DAFFFFEA 		b	.L61
 1212              	.LVL78:
 1213              	.L69:
 751:../src/renesas/application/r_bcd_lcd.c ****             }
 752:../src/renesas/application/r_bcd_lcd.c ****         }
 753:../src/renesas/application/r_bcd_lcd.c ****     }
 754:../src/renesas/application/r_bcd_lcd.c **** 
 755:../src/renesas/application/r_bcd_lcd.c ****     return;
 756:../src/renesas/application/r_bcd_lcd.c **** }
 1214              		.loc 1 756 0
 1215 00c4 0CD08DE2 		add	sp, sp, #12
 1216              		.cfi_def_cfa_offset 36
 1217              		@ sp needed
 1218 00c8 F08FBDE8 		pop	{r4, r5, r6, r7, r8, r9, r10, fp, pc}
 1219              		.cfi_endproc
 1220              	.LFE13:
 1222              		.section	.text.R_BCD_LcdWriteString,"ax",%progbits
 1223              		.align	2
 1224              		.global	R_BCD_LcdWriteString
 1225              		.syntax unified
 1226              		.arm
 1227              		.fpu neon
 1229              	R_BCD_LcdWriteString:
 1230              	.LFB14:
 757:../src/renesas/application/r_bcd_lcd.c **** 
 758:../src/renesas/application/r_bcd_lcd.c **** /******************************************************************************
 759:../src/renesas/application/r_bcd_lcd.c **** * Function Name: R_BCD_LcdWriteString
 760:../src/renesas/application/r_bcd_lcd.c **** * Description  : Display character string in overlap buffer
 761:../src/renesas/application/r_bcd_lcd.c **** * Arguments    : pcode
 762:../src/renesas/application/r_bcd_lcd.c **** *              :   A pointer to the character string to be displayed
 763:../src/renesas/application/r_bcd_lcd.c **** *              : x
 764:../src/renesas/application/r_bcd_lcd.c **** *              :   X coordinate to display character string
 765:../src/renesas/application/r_bcd_lcd.c **** *              : y
 766:../src/renesas/application/r_bcd_lcd.c **** *              :   Y coordinate to display character string
 767:../src/renesas/application/r_bcd_lcd.c **** *              : color
 768:../src/renesas/application/r_bcd_lcd.c **** *              :   character string color
 769:../src/renesas/application/r_bcd_lcd.c **** * Return Value : -
 770:../src/renesas/application/r_bcd_lcd.c **** ******************************************************************************/
 771:../src/renesas/application/r_bcd_lcd.c **** void R_BCD_LcdWriteString(uint8_t *pcode, uint32_t x, uint32_t y, uint8_t color)
 772:../src/renesas/application/r_bcd_lcd.c **** {
 1231              		.loc 1 772 0
 1232              		.cfi_startproc
 1233              		@ args = 0, pretend = 0, frame = 0
 1234              		@ frame_needed = 0, uses_anonymous_args = 0
 1235              	.LVL79:
 1236 0000 F0472DE9 		push	{r4, r5, r6, r7, r8, r9, r10, lr}
 1237              		.cfi_def_cfa_offset 32
 1238              		.cfi_offset 4, -32
 1239              		.cfi_offset 5, -28
 1240              		.cfi_offset 6, -24
 1241              		.cfi_offset 7, -20
 1242              		.cfi_offset 8, -16
 1243              		.cfi_offset 9, -12
 1244              		.cfi_offset 10, -8
 1245              		.cfi_offset 14, -4
 1246 0004 0050A0E1 		mov	r5, r0
 1247 0008 01A0A0E1 		mov	r10, r1
 1248 000c 0290A0E1 		mov	r9, r2
 1249 0010 0380A0E1 		mov	r8, r3
 773:../src/renesas/application/r_bcd_lcd.c ****     int i;
 774:../src/renesas/application/r_bcd_lcd.c ****     int len;
 775:../src/renesas/application/r_bcd_lcd.c **** 
 776:../src/renesas/application/r_bcd_lcd.c ****     len = strlen(pcode);
 1250              		.loc 1 776 0
 1251 0014 FEFFFFEB 		bl	strlen
 1252              	.LVL80:
 1253 0018 0070A0E1 		mov	r7, r0
 1254              	.LVL81:
 777:../src/renesas/application/r_bcd_lcd.c **** 
 778:../src/renesas/application/r_bcd_lcd.c ****     for (i = 0; i < len; i++)
 1255              		.loc 1 778 0
 1256 001c 0040A0E3 		mov	r4, #0
 1257 0020 090000EA 		b	.L71
 1258              	.LVL82:
 1259              	.L72:
 779:../src/renesas/application/r_bcd_lcd.c ****     {
 780:../src/renesas/application/r_bcd_lcd.c ****         R_BCD_LcdWriteChar(*pcode++, (x + (i * R_BCD_FONTDATA_WIDTH)), y, color);
 1260              		.loc 1 780 0 discriminator 3
 1261 0024 016085E2 		add	r6, r5, #1
 1262              	.LVL83:
 1263 0028 843084E0 		add	r3, r4, r4, lsl #1
 1264 002c 0311A0E1 		lsl	r1, r3, #2
 1265 0030 0830A0E1 		mov	r3, r8
 1266 0034 0920A0E1 		mov	r2, r9
 1267 0038 0A1081E0 		add	r1, r1, r10
 1268 003c 0000D5E5 		ldrb	r0, [r5]	@ zero_extendqisi2
 1269 0040 FEFFFFEB 		bl	R_BCD_LcdWriteChar
 1270              	.LVL84:
 778:../src/renesas/application/r_bcd_lcd.c ****     {
 1271              		.loc 1 778 0 discriminator 3
 1272 0044 014084E2 		add	r4, r4, #1
 1273              	.LVL85:
 1274              		.loc 1 780 0 discriminator 3
 1275 0048 0650A0E1 		mov	r5, r6
 1276              	.LVL86:
 1277              	.L71:
 778:../src/renesas/application/r_bcd_lcd.c ****     {
 1278              		.loc 1 778 0 discriminator 1
 1279 004c 070054E1 		cmp	r4, r7
 1280 0050 F3FFFFBA 		blt	.L72
 781:../src/renesas/application/r_bcd_lcd.c ****     }
 782:../src/renesas/application/r_bcd_lcd.c **** 
 783:../src/renesas/application/r_bcd_lcd.c ****     return;
 784:../src/renesas/application/r_bcd_lcd.c **** }
 1281              		.loc 1 784 0
 1282 0054 F087BDE8 		pop	{r4, r5, r6, r7, r8, r9, r10, pc}
 1283              		.cfi_endproc
 1284              	.LFE14:
 1286              		.section	.text.R_BCD_LcdClearGraphicsBuffer,"ax",%progbits
 1287              		.align	2
 1288              		.global	R_BCD_LcdClearGraphicsBuffer
 1289              		.syntax unified
 1290              		.arm
 1291              		.fpu neon
 1293              	R_BCD_LcdClearGraphicsBuffer:
 1294              	.LFB15:
 785:../src/renesas/application/r_bcd_lcd.c **** 
 786:../src/renesas/application/r_bcd_lcd.c **** /******************************************************************************
 787:../src/renesas/application/r_bcd_lcd.c **** * Function Name: R_BCD_LcdClearGraphicsBuffer
 788:../src/renesas/application/r_bcd_lcd.c **** * Description  : Clear overlap buffer
 789:../src/renesas/application/r_bcd_lcd.c **** * Arguments    : -
 790:../src/renesas/application/r_bcd_lcd.c **** * Return Value : -
 791:../src/renesas/application/r_bcd_lcd.c **** ******************************************************************************/
 792:../src/renesas/application/r_bcd_lcd.c **** void R_BCD_LcdClearGraphicsBuffer(void)
 793:../src/renesas/application/r_bcd_lcd.c **** {
 1295              		.loc 1 793 0
 1296              		.cfi_startproc
 1297              		@ args = 0, pretend = 0, frame = 0
 1298              		@ frame_needed = 0, uses_anonymous_args = 0
 1299 0000 10402DE9 		push	{r4, lr}
 1300              		.cfi_def_cfa_offset 8
 1301              		.cfi_offset 4, -8
 1302              		.cfi_offset 14, -4
 794:../src/renesas/application/r_bcd_lcd.c ****     memset(R_BCD_LcdGetOLVramAddress(), (int)0xffffffff, (GRAPHICS2_BUFFER_STRIDE * LAYER2_DISP_ARE
 1303              		.loc 1 794 0
 1304 0004 FEFFFFEB 		bl	R_BCD_LcdGetOLVramAddress
 1305              	.LVL87:
 1306 0008 C32BA0E3 		mov	r2, #199680
 1307 000c 0010E0E3 		mvn	r1, #0
 1308 0010 FEFFFFEB 		bl	memset
 1309              	.LVL88:
 1310 0014 1080BDE8 		pop	{r4, pc}
 1311              		.cfi_endproc
 1312              	.LFE15:
 1314              		.section	.bss.Layer1_buffer_id,"aw",%nobits
 1315              		.align	2
 1316              		.set	.LANCHOR1,. + 0
 1319              	Layer1_buffer_id:
 1320 0000 00000000 		.space	4
 1321              		.section	.bss.Req_Layer1_Swap,"aw",%nobits
 1322              		.align	2
 1323              		.set	.LANCHOR0,. + 0
 1326              	Req_Layer1_Swap:
 1327 0000 00000000 		.space	4
 1328              		.section	.bss.Req_Layer2_Swap,"aw",%nobits
 1329              		.align	2
 1330              		.set	.LANCHOR3,. + 0
 1333              	Req_Layer2_Swap:
 1334 0000 00000000 		.space	4
 1335              		.section	.bss.layer2_buffer_id,"aw",%nobits
 1336              		.align	2
 1337              		.set	.LANCHOR4,. + 0
 1340              	layer2_buffer_id:
 1341 0000 00000000 		.space	4
 1342              		.section	.bss.vsync_count,"aw",%nobits
 1343              		.align	2
 1344              		.set	.LANCHOR12,. + 0
 1347              	vsync_count:
 1348 0000 00000000 		.space	4
 1349              		.section	.rodata.gam_b_gain.71111,"a",%progbits
 1350              		.align	2
 1351              		.set	.LANCHOR9,. + 0
 1354              	gam_b_gain.71111:
 1355 0000 0004     		.short	1024
 1356 0002 0004     		.short	1024
 1357 0004 0004     		.short	1024
 1358 0006 0004     		.short	1024
 1359 0008 0004     		.short	1024
 1360 000a 0004     		.short	1024
 1361 000c 0004     		.short	1024
 1362 000e 0004     		.short	1024
 1363 0010 0004     		.short	1024
 1364 0012 0004     		.short	1024
 1365 0014 0004     		.short	1024
 1366 0016 0004     		.short	1024
 1367 0018 0004     		.short	1024
 1368 001a 0004     		.short	1024
 1369 001c 0004     		.short	1024
 1370 001e 0004     		.short	1024
 1371 0020 0004     		.short	1024
 1372 0022 0004     		.short	1024
 1373 0024 0004     		.short	1024
 1374 0026 0004     		.short	1024
 1375 0028 0004     		.short	1024
 1376 002a 0004     		.short	1024
 1377 002c 0004     		.short	1024
 1378 002e 0004     		.short	1024
 1379 0030 0004     		.short	1024
 1380 0032 0004     		.short	1024
 1381 0034 0004     		.short	1024
 1382 0036 0004     		.short	1024
 1383 0038 0004     		.short	1024
 1384 003a 0004     		.short	1024
 1385 003c 0004     		.short	1024
 1386 003e 0004     		.short	1024
 1387              		.section	.rodata.gam_b_th.71112,"a",%progbits
 1388              		.align	2
 1389              		.set	.LANCHOR8,. + 0
 1392              	gam_b_th.71112:
 1393 0000 08       		.byte	8
 1394 0001 10       		.byte	16
 1395 0002 18       		.byte	24
 1396 0003 20       		.byte	32
 1397 0004 28       		.byte	40
 1398 0005 30       		.byte	48
 1399 0006 38       		.byte	56
 1400 0007 40       		.byte	64
 1401 0008 48       		.byte	72
 1402 0009 50       		.byte	80
 1403 000a 58       		.byte	88
 1404 000b 60       		.byte	96
 1405 000c 68       		.byte	104
 1406 000d 70       		.byte	112
 1407 000e 78       		.byte	120
 1408 000f 80       		.byte	-128
 1409 0010 88       		.byte	-120
 1410 0011 90       		.byte	-112
 1411 0012 98       		.byte	-104
 1412 0013 A0       		.byte	-96
 1413 0014 A8       		.byte	-88
 1414 0015 B0       		.byte	-80
 1415 0016 B8       		.byte	-72
 1416 0017 C0       		.byte	-64
 1417 0018 C8       		.byte	-56
 1418 0019 D0       		.byte	-48
 1419 001a D8       		.byte	-40
 1420 001b E0       		.byte	-32
 1421 001c E8       		.byte	-24
 1422 001d F0       		.byte	-16
 1423 001e F8       		.byte	-8
 1424              		.section	.rodata.gam_g_gain.71109,"a",%progbits
 1425              		.align	2
 1426              		.set	.LANCHOR11,. + 0
 1429              	gam_g_gain.71109:
 1430 0000 0004     		.short	1024
 1431 0002 0004     		.short	1024
 1432 0004 0004     		.short	1024
 1433 0006 0004     		.short	1024
 1434 0008 0004     		.short	1024
 1435 000a 0004     		.short	1024
 1436 000c 0004     		.short	1024
 1437 000e 0004     		.short	1024
 1438 0010 0004     		.short	1024
 1439 0012 0004     		.short	1024
 1440 0014 0004     		.short	1024
 1441 0016 0004     		.short	1024
 1442 0018 0004     		.short	1024
 1443 001a 0004     		.short	1024
 1444 001c 0004     		.short	1024
 1445 001e 0004     		.short	1024
 1446 0020 0004     		.short	1024
 1447 0022 0004     		.short	1024
 1448 0024 0004     		.short	1024
 1449 0026 0004     		.short	1024
 1450 0028 0004     		.short	1024
 1451 002a 0004     		.short	1024
 1452 002c 0004     		.short	1024
 1453 002e 0004     		.short	1024
 1454 0030 0004     		.short	1024
 1455 0032 0004     		.short	1024
 1456 0034 0004     		.short	1024
 1457 0036 0004     		.short	1024
 1458 0038 0004     		.short	1024
 1459 003a 0004     		.short	1024
 1460 003c 0004     		.short	1024
 1461 003e 0004     		.short	1024
 1462              		.section	.rodata.gam_g_th.71110,"a",%progbits
 1463              		.align	2
 1464              		.set	.LANCHOR10,. + 0
 1467              	gam_g_th.71110:
 1468 0000 08       		.byte	8
 1469 0001 10       		.byte	16
 1470 0002 18       		.byte	24
 1471 0003 20       		.byte	32
 1472 0004 28       		.byte	40
 1473 0005 30       		.byte	48
 1474 0006 38       		.byte	56
 1475 0007 40       		.byte	64
 1476 0008 48       		.byte	72
 1477 0009 50       		.byte	80
 1478 000a 58       		.byte	88
 1479 000b 60       		.byte	96
 1480 000c 68       		.byte	104
 1481 000d 70       		.byte	112
 1482 000e 78       		.byte	120
 1483 000f 80       		.byte	-128
 1484 0010 88       		.byte	-120
 1485 0011 90       		.byte	-112
 1486 0012 98       		.byte	-104
 1487 0013 A0       		.byte	-96
 1488 0014 A8       		.byte	-88
 1489 0015 B0       		.byte	-80
 1490 0016 B8       		.byte	-72
 1491 0017 C0       		.byte	-64
 1492 0018 C8       		.byte	-56
 1493 0019 D0       		.byte	-48
 1494 001a D8       		.byte	-40
 1495 001b E0       		.byte	-32
 1496 001c E8       		.byte	-24
 1497 001d F0       		.byte	-16
 1498 001e F8       		.byte	-8
 1499              		.section	.rodata.gam_r_gain.71113,"a",%progbits
 1500              		.align	2
 1501              		.set	.LANCHOR7,. + 0
 1504              	gam_r_gain.71113:
 1505 0000 0004     		.short	1024
 1506 0002 0004     		.short	1024
 1507 0004 0004     		.short	1024
 1508 0006 0004     		.short	1024
 1509 0008 0004     		.short	1024
 1510 000a 0004     		.short	1024
 1511 000c 0004     		.short	1024
 1512 000e 0004     		.short	1024
 1513 0010 0004     		.short	1024
 1514 0012 0004     		.short	1024
 1515 0014 0004     		.short	1024
 1516 0016 0004     		.short	1024
 1517 0018 0004     		.short	1024
 1518 001a 0004     		.short	1024
 1519 001c 0004     		.short	1024
 1520 001e 0004     		.short	1024
 1521 0020 0004     		.short	1024
 1522 0022 0004     		.short	1024
 1523 0024 0004     		.short	1024
 1524 0026 0004     		.short	1024
 1525 0028 0004     		.short	1024
 1526 002a 0004     		.short	1024
 1527 002c 0004     		.short	1024
 1528 002e 0004     		.short	1024
 1529 0030 0004     		.short	1024
 1530 0032 0004     		.short	1024
 1531 0034 0004     		.short	1024
 1532 0036 0004     		.short	1024
 1533 0038 0004     		.short	1024
 1534 003a 0004     		.short	1024
 1535 003c 0004     		.short	1024
 1536 003e 0004     		.short	1024
 1537              		.section	.rodata.gam_r_th.71114,"a",%progbits
 1538              		.align	2
 1539              		.set	.LANCHOR6,. + 0
 1542              	gam_r_th.71114:
 1543 0000 08       		.byte	8
 1544 0001 10       		.byte	16
 1545 0002 18       		.byte	24
 1546 0003 20       		.byte	32
 1547 0004 28       		.byte	40
 1548 0005 30       		.byte	48
 1549 0006 38       		.byte	56
 1550 0007 40       		.byte	64
 1551 0008 48       		.byte	72
 1552 0009 50       		.byte	80
 1553 000a 58       		.byte	88
 1554 000b 60       		.byte	96
 1555 000c 68       		.byte	104
 1556 000d 70       		.byte	112
 1557 000e 78       		.byte	120
 1558 000f 80       		.byte	-128
 1559 0010 88       		.byte	-120
 1560 0011 90       		.byte	-112
 1561 0012 98       		.byte	-104
 1562 0013 A0       		.byte	-96
 1563 0014 A8       		.byte	-88
 1564 0015 B0       		.byte	-80
 1565 0016 B8       		.byte	-72
 1566 0017 C0       		.byte	-64
 1567 0018 C8       		.byte	-56
 1568 0019 D0       		.byte	-48
 1569 001a D8       		.byte	-40
 1570 001b E0       		.byte	-32
 1571 001c E8       		.byte	-24
 1572 001d F0       		.byte	-16
 1573 001e F8       		.byte	-8
 1574              		.section	Uncache_IRAM,"aw",%progbits
 1575              		.align	2
 1576              		.set	.LANCHOR5,. + 0
 1579              	graphics2_buffer:
 1580 0000 00000000 		.space	399360
 1580      00000000 
 1580      00000000 
 1580      00000000 
 1580      00000000 
 1581              		.section	Video_RAM,"aw",%progbits
 1582              		.align	2
 1583              		.set	.LANCHOR2,. + 0
 1586              	video_buffer:
 1587 0000 00000000 		.space	2457600
 1587      00000000 
 1587      00000000 
 1587      00000000 
 1587      00000000 
 1588              		.text
 1589              	.Letext0:
 1590              		.file 2 "c:\\program files (x86)\\gnu tools arm embedded\\6 2017-q2-update\\arm-none-eabi\\include
 1591              		.file 3 "c:\\program files (x86)\\gnu tools arm embedded\\6 2017-q2-update\\arm-none-eabi\\include
 1592              		.file 4 "c:\\program files (x86)\\gnu tools arm embedded\\6 2017-q2-update\\arm-none-eabi\\include
 1593              		.file 5 "c:\\program files (x86)\\gnu tools arm embedded\\6 2017-q2-update\\lib\\gcc\\arm-none-eab
 1594              		.file 6 "c:\\program files (x86)\\gnu tools arm embedded\\6 2017-q2-update\\arm-none-eabi\\include
 1595              		.file 7 "c:\\program files (x86)\\gnu tools arm embedded\\6 2017-q2-update\\arm-none-eabi\\include
 1596              		.file 8 "c:\\program files (x86)\\gnu tools arm embedded\\6 2017-q2-update\\arm-none-eabi\\include
 1597              		.file 9 "C:/Renesas/e2studio_2021_01_workspace_RZA2M_ANPR/ANPR_RZA2M_EBK/generate/sc_drivers/r_vdc
 1598              		.file 10 "C:/Renesas/e2studio_2021_01_workspace_RZA2M_ANPR/ANPR_RZA2M_EBK/generate/sc_drivers/r_rv
 1599              		.file 11 "c:\\program files (x86)\\gnu tools arm embedded\\6 2017-q2-update\\arm-none-eabi\\includ
 1600              		.file 12 "C:/Renesas/e2studio_2021_01_workspace_RZA2M_ANPR/ANPR_RZA2M_EBK/src/renesas/application/
 1601              		.file 13 "C:/Renesas/e2studio_2021_01_workspace_RZA2M_ANPR/ANPR_RZA2M_EBK/src/renesas/application/
 1602              		.file 14 "c:\\program files (x86)\\gnu tools arm embedded\\6 2017-q2-update\\arm-none-eabi\\includ