   1              		.cpu cortex-a9
   2              		.eabi_attribute 28, 1
   3              		.eabi_attribute 20, 1
   4              		.eabi_attribute 21, 1
   5              		.eabi_attribute 23, 3
   6              		.eabi_attribute 24, 1
   7              		.eabi_attribute 25, 1
   8              		.eabi_attribute 26, 1
   9              		.eabi_attribute 30, 2
  10              		.eabi_attribute 34, 0
  11              		.eabi_attribute 18, 4
  12              		.file	"greedy_memory_planner.cc"
  13              		.section	.text._ZN6tflite19GreedyMemoryPlannerD2Ev,"ax",%progbits
  14              		.align	2
  15              		.global	_ZN6tflite19GreedyMemoryPlannerD2Ev
  16              		.syntax unified
  17              		.arm
  18              		.fpu neon
  20              	_ZN6tflite19GreedyMemoryPlannerD2Ev:
  21              		.fnstart
  22              	.LFB22:
  23              		@ args = 0, pretend = 0, frame = 0
  24              		@ frame_needed = 0, uses_anonymous_args = 0
  25              		@ link register save eliminated.
  26 0000 1EFF2FE1 		bx	lr
  27              		.cantunwind
  28              		.fnend
  30              		.global	_ZN6tflite19GreedyMemoryPlannerD1Ev
  31              		.set	_ZN6tflite19GreedyMemoryPlannerD1Ev,_ZN6tflite19GreedyMemoryPlannerD2Ev
  32              		.section	.text._ZN6tflite19GreedyMemoryPlanner9AddBufferEPNS_13ErrorReporterEiii,"ax",%progbits
  33              		.align	2
  34              		.global	_ZN6tflite19GreedyMemoryPlanner9AddBufferEPNS_13ErrorReporterEiii
  35              		.syntax unified
  36              		.arm
  37              		.fpu neon
  39              	_ZN6tflite19GreedyMemoryPlanner9AddBufferEPNS_13ErrorReporterEiii:
  40              		.fnstart
  41              	.LFB25:
  42              		@ args = 4, pretend = 0, frame = 0
  43              		@ frame_needed = 0, uses_anonymous_args = 0
  44 0000 70402DE9 		push	{r4, r5, r6, lr}
  45 0004 0010A0E1 		mov	r1, r0
  46 0008 014090E9 		ldmib	r0, {r0, lr}
  47 000c 00005EE1 		cmp	lr, r0
  48 0010 0D0000AA 		bge	.L4
  49 0014 0CC091E5 		ldr	ip, [r1, #12]
  50 0018 01508EE2 		add	r5, lr, #1
  51 001c 0060E0E3 		mvn	r6, #0
  52 0020 0140A0E3 		mov	r4, #1
  53 0024 0000A0E3 		mov	r0, #0
  54 0028 0E228CE7 		str	r2, [ip, lr, lsl #4]
  55 002c 0E228CE0 		add	r2, ip, lr, lsl #4
  56 0030 083082E5 		str	r3, [r2, #8]
  57 0034 10309DE5 		ldr	r3, [sp, #16]
  58 0038 046082E5 		str	r6, [r2, #4]
  59 003c 0C3082E5 		str	r3, [r2, #12]
  60 0040 085081E5 		str	r5, [r1, #8]
  61 0044 2840C1E5 		strb	r4, [r1, #40]
  62 0048 7080BDE8 		pop	{r4, r5, r6, pc}
  63              	.L4:
  64 004c 0100A0E3 		mov	r0, #1
  65 0050 7080BDE8 		pop	{r4, r5, r6, pc}
  66              		.cantunwind
  67              		.fnend
  69              		.section	.text._ZN6tflite19GreedyMemoryPlanner14GetBufferCountEv,"ax",%progbits
  70              		.align	2
  71              		.global	_ZN6tflite19GreedyMemoryPlanner14GetBufferCountEv
  72              		.syntax unified
  73              		.arm
  74              		.fpu neon
  76              	_ZN6tflite19GreedyMemoryPlanner14GetBufferCountEv:
  77              		.fnstart
  78              	.LFB32:
  79              		@ args = 0, pretend = 0, frame = 0
  80              		@ frame_needed = 0, uses_anonymous_args = 0
  81              		@ link register save eliminated.
  82 0000 080090E5 		ldr	r0, [r0, #8]
  83 0004 1EFF2FE1 		bx	lr
  84              		.cantunwind
  85              		.fnend
  87              		.section	.text._ZN6tflite19GreedyMemoryPlannerD0Ev,"ax",%progbits
  88              		.align	2
  89              		.global	_ZN6tflite19GreedyMemoryPlannerD0Ev
  90              		.syntax unified
  91              		.arm
  92              		.fpu neon
  94              	_ZN6tflite19GreedyMemoryPlannerD0Ev:
  95              		.fnstart
  96              	.LFB24:
  97              		@ args = 0, pretend = 0, frame = 0
  98              		@ frame_needed = 0, uses_anonymous_args = 0
  99 0000 10402DE9 		push	{r4, lr}
 100 0004 0040A0E1 		mov	r4, r0
 101 0008 FEFFFFEB 		bl	_ZdlPv
 102 000c 0400A0E1 		mov	r0, r4
 103 0010 1080BDE8 		pop	{r4, pc}
 104              		.cantunwind
 105              		.fnend
 107              		.section	.text._ZN6tflite19GreedyMemoryPlanner24CalculateOffsetsIfNeededEv.part.0,"ax",%progbits
 108              		.align	2
 109              		.syntax unified
 110              		.arm
 111              		.fpu neon
 113              	_ZN6tflite19GreedyMemoryPlanner24CalculateOffsetsIfNeededEv.part.0:
 114              		.fnstart
 115              	.LFB35:
 116              		@ args = 0, pretend = 0, frame = 8
 117              		@ frame_needed = 0, uses_anonymous_args = 0
 118 0000 F04F2DE9 		push	{r4, r5, r6, r7, r8, r9, r10, fp, lr}
 119 0004 0CD04DE2 		sub	sp, sp, #12
 120 0008 086090E5 		ldr	r6, [r0, #8]
 121 000c 000056E3 		cmp	r6, #0
 122 0010 7300000A 		beq	.L10
 123 0014 0010A0E3 		mov	r1, #0
 124 0018 2810C0E5 		strb	r1, [r0, #40]
 125 001c B50000DA 		ble	.L60
 126 0020 243090E5 		ldr	r3, [r0, #36]
 127 0024 0CE090E5 		ldr	lr, [r0, #12]
 128 0028 107090E5 		ldr	r7, [r0, #16]
 129 002c 149090E5 		ldr	r9, [r0, #20]
 130 0030 0340A0E1 		mov	r4, r3
 131 0034 04308DE5 		str	r3, [sp, #4]
 132 0038 0E20A0E1 		mov	r2, lr
 133 003c 0130A0E1 		mov	r3, r1
 134              	.L14:
 135 0040 04C092E5 		ldr	ip, [r2, #4]
 136 0044 01007CE3 		cmn	ip, #1
 137 0048 6700000A 		beq	.L61
 138 004c 03C29EE7 		ldr	ip, [lr, r3, lsl #4]
 139 0050 102082E2 		add	r2, r2, #16
 140 0054 01C187E7 		str	ip, [r7, r1, lsl #2]
 141 0058 013189E7 		str	r3, [r9, r1, lsl #2]
 142 005c 013083E2 		add	r3, r3, #1
 143 0060 0CC012E5 		ldr	ip, [r2, #-12]
 144 0064 011081E2 		add	r1, r1, #1
 145 0068 04C084E4 		str	ip, [r4], #4
 146 006c 085090E5 		ldr	r5, [r0, #8]
 147 0070 030055E1 		cmp	r5, r3
 148 0074 F1FFFFCA 		bgt	.L14
 149              	.L16:
 150 0078 0181A0E1 		lsl	r8, r1, #2
 151              	.L13:
 152 007c 015045E0 		sub	r5, r5, r1
 153 0080 087087E0 		add	r7, r7, r8
 154 0084 074145E2 		sub	r4, r5, #-1073741823
 155 0088 044187E0 		add	r4, r7, r4, lsl #2
 156 008c 088089E0 		add	r8, r9, r8
 157              	.L23:
 158 0090 010055E3 		cmp	r5, #1
 159 0094 110000DA 		ble	.L24
 160 0098 0730A0E1 		mov	r3, r7
 161 009c 0820A0E1 		mov	r2, r8
 162 00a0 0060A0E3 		mov	r6, #0
 163              	.L22:
 164 00a4 021093E8 		ldm	r3, {r1, ip}
 165 00a8 0C0051E1 		cmp	r1, ip
 166 00ac 050000AA 		bge	.L21
 167 00b0 00C083E5 		str	ip, [r3]
 168 00b4 0160A0E3 		mov	r6, #1
 169 00b8 041083E5 		str	r1, [r3, #4]
 170 00bc 00C092E5 		ldr	ip, [r2]
 171 00c0 041092E5 		ldr	r1, [r2, #4]
 172 00c4 021082E8 		stm	r2, {r1, ip}
 173              	.L21:
 174 00c8 043083E2 		add	r3, r3, #4
 175 00cc 042082E2 		add	r2, r2, #4
 176 00d0 030054E1 		cmp	r4, r3
 177 00d4 F2FFFF1A 		bne	.L22
 178 00d8 000056E3 		cmp	r6, #0
 179 00dc EBFFFF1A 		bne	.L23
 180              	.L24:
 181 00e0 18C090E5 		ldr	ip, [r0, #24]
 182 00e4 0110A0E3 		mov	r1, #1
 183 00e8 0030E0E3 		mvn	r3, #0
 184 00ec 0020A0E3 		mov	r2, #0
 185 00f0 1C1080E5 		str	r1, [r0, #28]
 186 00f4 202080E5 		str	r2, [r0, #32]
 187 00f8 08308CE5 		str	r3, [ip, #8]
 188 00fc 003099E5 		ldr	r3, [r9]
 189 0100 04308CE5 		str	r3, [ip, #4]
 190 0104 03128EE0 		add	r1, lr, r3, lsl #4
 191 0108 041091E5 		ldr	r1, [r1, #4]
 192 010c 010071E3 		cmn	r1, #1
 193 0110 7400000A 		beq	.L62
 194 0114 04209DE5 		ldr	r2, [sp, #4]
 195 0118 031192E7 		ldr	r1, [r2, r3, lsl #2]
 196              	.L25:
 197 011c 083090E5 		ldr	r3, [r0, #8]
 198 0120 00108CE5 		str	r1, [ip]
 199 0124 010053E3 		cmp	r3, #1
 200 0128 2D0000DA 		ble	.L10
 201 012c 00C08DE5 		str	ip, [sp]
 202 0130 01B0A0E3 		mov	fp, #1
 203 0134 070000EA 		b	.L41
 204              	.L64:
 205 0138 203090E5 		ldr	r3, [r0, #32]
 206 013c 00408DE5 		str	r4, [sp]
 207 0140 083084E5 		str	r3, [r4, #8]
 208 0144 206080E5 		str	r6, [r0, #32]
 209              	.L38:
 210 0148 083090E5 		ldr	r3, [r0, #8]
 211 014c 01B08BE2 		add	fp, fp, #1
 212 0150 0B0053E1 		cmp	r3, fp
 213 0154 220000DA 		ble	.L10
 214              	.L41:
 215 0158 0470B9E5 		ldr	r7, [r9, #4]!
 216 015c 07328EE0 		add	r3, lr, r7, lsl #4
 217 0160 045093E5 		ldr	r5, [r3, #4]
 218 0164 010075E3 		cmn	r5, #1
 219 0168 2A00000A 		beq	.L63
 220              	.L27:
 221 016c 04309DE5 		ldr	r3, [sp, #4]
 222 0170 075183E7 		str	r5, [r3, r7, lsl #2]
 223 0174 1C6090E5 		ldr	r6, [r0, #28]
 224 0178 00309DE5 		ldr	r3, [sp]
 225 017c 012086E2 		add	r2, r6, #1
 226 0180 864086E0 		add	r4, r6, r6, lsl #1
 227 0184 04518CE7 		str	r5, [ip, r4, lsl #2]
 228 0188 04418CE0 		add	r4, ip, r4, lsl #2
 229 018c 003093E5 		ldr	r3, [r3]
 230 0190 047084E5 		str	r7, [r4, #4]
 231 0194 1C2080E5 		str	r2, [r0, #28]
 232 0198 030055E1 		cmp	r5, r3
 233 019c E5FFFFBA 		blt	.L64
 234 01a0 00109DE5 		ldr	r1, [sp]
 235 01a4 040000EA 		b	.L40
 236              	.L39:
 237 01a8 03719CE7 		ldr	r7, [ip, r3, lsl #2]
 238 01ac 03318CE0 		add	r3, ip, r3, lsl #2
 239 01b0 070055E1 		cmp	r5, r7
 240 01b4 480000BA 		blt	.L65
 241 01b8 0310A0E1 		mov	r1, r3
 242              	.L40:
 243 01bc 082091E5 		ldr	r2, [r1, #8]
 244 01c0 010072E3 		cmn	r2, #1
 245 01c4 823082E0 		add	r3, r2, r2, lsl #1
 246 01c8 F6FFFF1A 		bne	.L39
 247 01cc 083090E5 		ldr	r3, [r0, #8]
 248 01d0 01B08BE2 		add	fp, fp, #1
 249 01d4 086081E5 		str	r6, [r1, #8]
 250 01d8 082084E5 		str	r2, [r4, #8]
 251 01dc 0B0053E1 		cmp	r3, fp
 252 01e0 DCFFFFCA 		bgt	.L41
 253              	.L10:
 254 01e4 0CD08DE2 		add	sp, sp, #12
 255              		@ sp needed
 256 01e8 F08FBDE8 		pop	{r4, r5, r6, r7, r8, r9, r10, fp, pc}
 257              	.L61:
 258 01ec 03529EE7 		ldr	r5, [lr, r3, lsl #4]
 259 01f0 016046E2 		sub	r6, r6, #1
 260 01f4 102082E2 		add	r2, r2, #16
 261 01f8 065187E7 		str	r5, [r7, r6, lsl #2]
 262 01fc 063189E7 		str	r3, [r9, r6, lsl #2]
 263 0200 013083E2 		add	r3, r3, #1
 264 0204 04C084E4 		str	ip, [r4], #4
 265 0208 085090E5 		ldr	r5, [r0, #8]
 266 020c 030055E1 		cmp	r5, r3
 267 0210 8AFFFFCA 		bgt	.L14
 268 0214 97FFFFEA 		b	.L16
 269              	.L63:
 270 0218 0060A0E3 		mov	r6, #0
 271 021c 07A29EE7 		ldr	r10, [lr, r7, lsl #4]
 272 0220 000056E3 		cmp	r6, #0
 273 0224 088093E5 		ldr	r8, [r3, #8]
 274 0228 0650A0E1 		mov	r5, r6
 275 022c 0C4093E5 		ldr	r4, [r3, #12]
 276 0230 2100000A 		beq	.L66
 277              	.L28:
 278 0234 083096E5 		ldr	r3, [r6, #8]
 279 0238 010073E3 		cmn	r3, #1
 280 023c 2400000A 		beq	.L44
 281 0240 833083E0 		add	r3, r3, r3, lsl #1
 282 0244 030000EA 		b	.L57
 283              	.L31:
 284 0248 083093E5 		ldr	r3, [r3, #8]
 285 024c 010073E3 		cmn	r3, #1
 286 0250 833083E0 		add	r3, r3, r3, lsl #1
 287 0254 1C00000A 		beq	.L67
 288              	.L57:
 289 0258 03318CE0 		add	r3, ip, r3, lsl #2
 290              	.L34:
 291 025c 042093E5 		ldr	r2, [r3, #4]
 292 0260 02228EE0 		add	r2, lr, r2, lsl #4
 293 0264 081092E5 		ldr	r1, [r2, #8]
 294 0268 010054E1 		cmp	r4, r1
 295 026c F5FFFFBA 		blt	.L31
 296 0270 0C2092E5 		ldr	r2, [r2, #12]
 297 0274 020058E1 		cmp	r8, r2
 298 0278 F2FFFFCA 		bgt	.L31
 299 027c 000056E3 		cmp	r6, #0
 300 0280 0600000A 		beq	.L35
 301              	.L30:
 302 0284 060096E8 		ldm	r6, {r1, r2}
 303 0288 02229EE7 		ldr	r2, [lr, r2, lsl #4]
 304 028c 012082E0 		add	r2, r2, r1
 305 0290 020055E1 		cmp	r5, r2
 306 0294 0250A0B1 		movlt	r5, r2
 307 0298 000053E3 		cmp	r3, #0
 308 029c B2FFFF0A 		beq	.L27
 309              	.L35:
 310 02a0 002093E5 		ldr	r2, [r3]
 311 02a4 0360A0E1 		mov	r6, r3
 312 02a8 053042E0 		sub	r3, r2, r5
 313 02ac 03005AE1 		cmp	r10, r3
 314 02b0 ADFFFFDA 		ble	.L27
 315 02b4 000056E3 		cmp	r6, #0
 316 02b8 DDFFFF1A 		bne	.L28
 317              	.L66:
 318 02bc 203090E5 		ldr	r3, [r0, #32]
 319 02c0 833083E0 		add	r3, r3, r3, lsl #1
 320 02c4 03318CE0 		add	r3, ip, r3, lsl #2
 321 02c8 E3FFFFEA 		b	.L34
 322              	.L67:
 323 02cc 000056E3 		cmp	r6, #0
 324 02d0 A5FFFF0A 		beq	.L27
 325              	.L44:
 326 02d4 0030A0E3 		mov	r3, #0
 327 02d8 E9FFFFEA 		b	.L30
 328              	.L65:
 329 02dc 082084E5 		str	r2, [r4, #8]
 330 02e0 086081E5 		str	r6, [r1, #8]
 331 02e4 97FFFFEA 		b	.L38
 332              	.L62:
 333 02e8 04409DE5 		ldr	r4, [sp, #4]
 334 02ec 0210A0E1 		mov	r1, r2
 335 02f0 032184E7 		str	r2, [r4, r3, lsl #2]
 336 02f4 88FFFFEA 		b	.L25
 337              	.L60:
 338 02f8 243090E5 		ldr	r3, [r0, #36]
 339 02fc 0180A0E1 		mov	r8, r1
 340 0300 0650A0E1 		mov	r5, r6
 341 0304 107090E5 		ldr	r7, [r0, #16]
 342 0308 149090E5 		ldr	r9, [r0, #20]
 343 030c 0CE090E5 		ldr	lr, [r0, #12]
 344 0310 04308DE5 		str	r3, [sp, #4]
 345 0314 58FFFFEA 		b	.L13
 346              		.cantunwind
 347              		.fnend
 349              		.section	.text._ZN6tflite19GreedyMemoryPlanner20GetMaximumMemorySizeEv,"ax",%progbits
 350              		.align	2
 351              		.global	_ZN6tflite19GreedyMemoryPlanner20GetMaximumMemorySizeEv
 352              		.syntax unified
 353              		.arm
 354              		.fpu neon
 356              	_ZN6tflite19GreedyMemoryPlanner20GetMaximumMemorySizeEv:
 357              		.fnstart
 358              	.LFB30:
 359              		@ args = 0, pretend = 0, frame = 0
 360              		@ frame_needed = 0, uses_anonymous_args = 0
 361 0000 2830D0E5 		ldrb	r3, [r0, #40]	@ zero_extendqisi2
 362 0004 10402DE9 		push	{r4, lr}
 363 0008 0040A0E1 		mov	r4, r0
 364 000c 000053E3 		cmp	r3, #0
 365 0010 1E00001A 		bne	.L86
 366              	.L69:
 367 0014 080094E5 		ldr	r0, [r4, #8]
 368 0018 000050E3 		cmp	r0, #0
 369 001c 1080BD08 		popeq	{r4, pc}
 370 0020 202094E5 		ldr	r2, [r4, #32]
 371 0024 181094E5 		ldr	r1, [r4, #24]
 372 0028 822082E0 		add	r2, r2, r2, lsl #1
 373 002c 0221A0E1 		lsl	r2, r2, #2
 374 0030 020091E0 		adds	r0, r1, r2
 375 0034 1080BD08 		popeq	{r4, pc}
 376 0038 0C4094E5 		ldr	r4, [r4, #12]
 377 003c 04C090E5 		ldr	ip, [r0, #4]
 378 0040 083090E5 		ldr	r3, [r0, #8]
 379 0044 022091E7 		ldr	r2, [r1, r2]
 380 0048 0C0294E7 		ldr	r0, [r4, ip, lsl #4]
 381 004c 010073E3 		cmn	r3, #1
 382 0050 020080E0 		add	r0, r0, r2
 383 0054 0900001A 		bne	.L72
 384 0058 0E0000EA 		b	.L87
 385              	.L73:
 386 005c 04209CE5 		ldr	r2, [ip, #4]
 387 0060 03E191E7 		ldr	lr, [r1, r3, lsl #2]
 388 0064 08309CE5 		ldr	r3, [ip, #8]
 389 0068 022294E7 		ldr	r2, [r4, r2, lsl #4]
 390 006c 0E2082E0 		add	r2, r2, lr
 391 0070 020050E1 		cmp	r0, r2
 392 0074 0200A031 		movcc	r0, r2
 393 0078 010073E3 		cmn	r3, #1
 394 007c 1080BD08 		popeq	{r4, pc}
 395              	.L72:
 396 0080 833083E0 		add	r3, r3, r3, lsl #1
 397 0084 03C191E0 		adds	ip, r1, r3, lsl #2
 398 0088 F3FFFF1A 		bne	.L73
 399 008c 1080BDE8 		pop	{r4, pc}
 400              	.L86:
 401 0090 FEFFFFEB 		bl	_ZN6tflite19GreedyMemoryPlanner24CalculateOffsetsIfNeededEv.part.0
 402 0094 DEFFFFEA 		b	.L69
 403              	.L87:
 404 0098 1080BDE8 		pop	{r4, pc}
 405              		.cantunwind
 406              		.fnend
 408              		.section	.text._ZN6tflite19GreedyMemoryPlanner18GetOffsetForBufferEPNS_13ErrorReporterEiPi,"ax",%p
 409              		.align	2
 410              		.global	_ZN6tflite19GreedyMemoryPlanner18GetOffsetForBufferEPNS_13ErrorReporterEiPi
 411              		.syntax unified
 412              		.arm
 413              		.fpu neon
 415              	_ZN6tflite19GreedyMemoryPlanner18GetOffsetForBufferEPNS_13ErrorReporterEiPi:
 416              		.fnstart
 417              	.LFB33:
 418              		@ args = 0, pretend = 0, frame = 0
 419              		@ frame_needed = 0, uses_anonymous_args = 0
 420 0000 70402DE9 		push	{r4, r5, r6, lr}
 421 0004 0240A0E1 		mov	r4, r2
 422 0008 2820D0E5 		ldrb	r2, [r0, #40]	@ zero_extendqisi2
 423 000c 0050A0E1 		mov	r5, r0
 424 0010 0360A0E1 		mov	r6, r3
 425 0014 000052E3 		cmp	r2, #0
 426 0018 0B00001A 		bne	.L97
 427              	.L89:
 428 001c 000054E3 		cmp	r4, #0
 429 0020 070000BA 		blt	.L92
 430 0024 082095E5 		ldr	r2, [r5, #8]
 431 0028 020054E1 		cmp	r4, r2
 432 002c 040000AA 		bge	.L92
 433 0030 243095E5 		ldr	r3, [r5, #36]
 434 0034 0000A0E3 		mov	r0, #0
 435 0038 043193E7 		ldr	r3, [r3, r4, lsl #2]
 436 003c 003086E5 		str	r3, [r6]
 437 0040 7080BDE8 		pop	{r4, r5, r6, pc}
 438              	.L92:
 439 0044 0100A0E3 		mov	r0, #1
 440 0048 7080BDE8 		pop	{r4, r5, r6, pc}
 441              	.L97:
 442 004c FEFFFFEB 		bl	_ZN6tflite19GreedyMemoryPlanner24CalculateOffsetsIfNeededEv.part.0
 443 0050 F1FFFFEA 		b	.L89
 444              		.cantunwind
 445              		.fnend
 447              		.section	.text._ZN6tflite18ReverseSortInPlaceEPiS0_i,"ax",%progbits
 448              		.align	2
 449              		.global	_ZN6tflite18ReverseSortInPlaceEPiS0_i
 450              		.syntax unified
 451              		.arm
 452              		.fpu neon
 454              	_ZN6tflite18ReverseSortInPlaceEPiS0_i:
 455              		.fnstart
 456              	.LFB17:
 457              		@ args = 0, pretend = 0, frame = 0
 458              		@ frame_needed = 0, uses_anonymous_args = 0
 459 0000 70402DE9 		push	{r4, r5, r6, lr}
 460 0004 075142E2 		sub	r5, r2, #-1073741823
 461 0008 055180E0 		add	r5, r0, r5, lsl #2
 462              	.L102:
 463 000c 010052E3 		cmp	r2, #1
 464 0010 7080BDD8 		pople	{r4, r5, r6, pc}
 465 0014 0030A0E1 		mov	r3, r0
 466 0018 01C0A0E1 		mov	ip, r1
 467 001c 0060A0E3 		mov	r6, #0
 468              	.L101:
 469 0020 00E093E5 		ldr	lr, [r3]
 470 0024 044093E5 		ldr	r4, [r3, #4]
 471 0028 04005EE1 		cmp	lr, r4
 472 002c 050000AA 		bge	.L100
 473 0030 004083E5 		str	r4, [r3]
 474 0034 0160A0E3 		mov	r6, #1
 475 0038 04E083E5 		str	lr, [r3, #4]
 476 003c 10409CE8 		ldm	ip, {r4, lr}
 477 0040 04408CE5 		str	r4, [ip, #4]
 478 0044 00E08CE5 		str	lr, [ip]
 479              	.L100:
 480 0048 043083E2 		add	r3, r3, #4
 481 004c 04C08CE2 		add	ip, ip, #4
 482 0050 050053E1 		cmp	r3, r5
 483 0054 F1FFFF1A 		bne	.L101
 484 0058 000056E3 		cmp	r6, #0
 485 005c EAFFFF1A 		bne	.L102
 486 0060 7080BDE8 		pop	{r4, r5, r6, pc}
 487              		.cantunwind
 488              		.fnend
 490              		.section	.text._ZN6tflite19GreedyMemoryPlannerC2EPhi,"ax",%progbits
 491              		.align	2
 492              		.global	_ZN6tflite19GreedyMemoryPlannerC2EPhi
 493              		.syntax unified
 494              		.arm
 495              		.fpu neon
 497              	_ZN6tflite19GreedyMemoryPlannerC2EPhi:
 498              		.fnstart
 499              	.LFB19:
 500              		@ args = 0, pretend = 0, frame = 0
 501              		@ frame_needed = 0, uses_anonymous_args = 0
 502 0000 30402DE9 		push	{r4, r5, lr}
 503 0004 CD4C0CE3 		movw	r4, #52429
 504 0008 CC4C4CE3 		movt	r4, 52428
 505 000c 00C0A0E3 		mov	ip, #0
 506 0010 924485E0 		umull	r4, r5, r2, r4
 507 0014 0120A0E3 		mov	r2, #1
 508 0018 08C080E5 		str	ip, [r0, #8]
 509 001c 3CE09FE5 		ldr	lr, .L109
 510 0020 0C1080E5 		str	r1, [r0, #12]
 511 0024 2820C0E5 		strb	r2, [r0, #40]
 512 0028 A5C2A0E1 		lsr	ip, r5, #5
 513 002c 00E080E5 		str	lr, [r0]
 514 0030 0C1281E0 		add	r1, r1, ip, lsl #4
 515 0034 0C21A0E1 		lsl	r2, ip, #2
 516 0038 8CE08CE0 		add	lr, ip, ip, lsl #1
 517 003c 04C080E5 		str	ip, [r0, #4]
 518 0040 02C081E0 		add	ip, r1, r2
 519 0044 101080E5 		str	r1, [r0, #16]
 520 0048 02208CE0 		add	r2, ip, r2
 521 004c 14C080E5 		str	ip, [r0, #20]
 522 0050 0E1182E0 		add	r1, r2, lr, lsl #2
 523 0054 182080E5 		str	r2, [r0, #24]
 524 0058 241080E5 		str	r1, [r0, #36]
 525 005c 3080BDE8 		pop	{r4, r5, pc}
 526              	.L110:
 527              		.align	2
 528              	.L109:
 529 0060 08000000 		.word	.LANCHOR0+8
 530              		.cantunwind
 531              		.fnend
 533              		.global	_ZN6tflite19GreedyMemoryPlannerC1EPhi
 534              		.set	_ZN6tflite19GreedyMemoryPlannerC1EPhi,_ZN6tflite19GreedyMemoryPlannerC2EPhi
 535              		.section	.text._ZN6tflite19GreedyMemoryPlanner9AddBufferEPNS_13ErrorReporterEiiii,"ax",%progbits
 536              		.align	2
 537              		.global	_ZN6tflite19GreedyMemoryPlanner9AddBufferEPNS_13ErrorReporterEiiii
 538              		.syntax unified
 539              		.arm
 540              		.fpu neon
 542              	_ZN6tflite19GreedyMemoryPlanner9AddBufferEPNS_13ErrorReporterEiiii:
 543              		.fnstart
 544              	.LFB26:
 545              		@ args = 8, pretend = 0, frame = 0
 546              		@ frame_needed = 0, uses_anonymous_args = 0
 547 0000 F0432DE9 		push	{r4, r5, r6, r7, r8, r9, lr}
 548              		.save {r4, r5, r6, r7, r8, r9, lr}
 549 0004 00E000E3 		movw	lr, #:lower16:_ZN6tflite19GreedyMemoryPlanner9AddBufferEPNS_13ErrorReporterEiii
 550 0008 005090E5 		ldr	r5, [r0]
 551 000c 00E040E3 		movt	lr, #:upper16:_ZN6tflite19GreedyMemoryPlanner9AddBufferEPNS_13ErrorReporterEiii
 552              		.pad #12
 553 0010 0CD04DE2 		sub	sp, sp, #12
 554 0014 084090E5 		ldr	r4, [r0, #8]
 555 0018 087095E5 		ldr	r7, [r5, #8]
 556 001c 0C6090E5 		ldr	r6, [r0, #12]
 557 0020 0E0057E1 		cmp	r7, lr
 558 0024 045286E0 		add	r5, r6, r4, lsl #4
 559 0028 1100001A 		bne	.L112
 560 002c 0380A0E1 		mov	r8, r3
 561 0030 043090E5 		ldr	r3, [r0, #4]
 562 0034 030054E1 		cmp	r4, r3
 563 0038 120000AA 		bge	.L116
 564 003c 28109DE5 		ldr	r1, [sp, #40]
 565 0040 0290A0E1 		mov	r9, r2
 566 0044 0130A0E3 		mov	r3, #1
 567 0048 012084E2 		add	r2, r4, #1
 568 004c 049286E7 		str	r9, [r6, r4, lsl #4]
 569 0050 088085E5 		str	r8, [r5, #8]
 570 0054 0C1085E5 		str	r1, [r5, #12]
 571 0058 082080E5 		str	r2, [r0, #8]
 572 005c 2830C0E5 		strb	r3, [r0, #40]
 573              	.L115:
 574 0060 2C309DE5 		ldr	r3, [sp, #44]
 575 0064 0000A0E3 		mov	r0, #0
 576 0068 043085E5 		str	r3, [r5, #4]
 577 006c 0CD08DE2 		add	sp, sp, #12
 578              		@ sp needed
 579 0070 F083BDE8 		pop	{r4, r5, r6, r7, r8, r9, pc}
 580              	.L112:
 581 0074 28C09DE5 		ldr	ip, [sp, #40]
 582 0078 00C08DE5 		str	ip, [sp]
 583 007c 37FF2FE1 		blx	r7
 584 0080 000050E3 		cmp	r0, #0
 585 0084 F5FFFF0A 		beq	.L115
 586              	.L116:
 587 0088 0100A0E3 		mov	r0, #1
 588 008c 0CD08DE2 		add	sp, sp, #12
 589              		@ sp needed
 590 0090 F083BDE8 		pop	{r4, r5, r6, r7, r8, r9, pc}
 591              		.fnend
 593              		.section	.text._ZNK6tflite19GreedyMemoryPlanner22DoesEntryOverlapInTimeEPKNS0_9ListEntryEii,"ax",%
 594              		.align	2
 595              		.global	_ZNK6tflite19GreedyMemoryPlanner22DoesEntryOverlapInTimeEPKNS0_9ListEntryEii
 596              		.syntax unified
 597              		.arm
 598              		.fpu neon
 600              	_ZNK6tflite19GreedyMemoryPlanner22DoesEntryOverlapInTimeEPKNS0_9ListEntryEii:
 601              		.fnstart
 602              	.LFB27:
 603              		@ args = 0, pretend = 0, frame = 0
 604              		@ frame_needed = 0, uses_anonymous_args = 0
 605              		@ link register save eliminated.
 606 0000 04C091E5 		ldr	ip, [r1, #4]
 607 0004 0C1090E5 		ldr	r1, [r0, #12]
 608 0008 0C1281E0 		add	r1, r1, ip, lsl #4
 609 000c 080091E5 		ldr	r0, [r1, #8]
 610 0010 030050E1 		cmp	r0, r3
 611 0014 040000CA 		bgt	.L120
 612 0018 0C0091E5 		ldr	r0, [r1, #12]
 613 001c 020050E1 		cmp	r0, r2
 614 0020 0000A0B3 		movlt	r0, #0
 615 0024 0100A0A3 		movge	r0, #1
 616 0028 1EFF2FE1 		bx	lr
 617              	.L120:
 618 002c 0000A0E3 		mov	r0, #0
 619 0030 1EFF2FE1 		bx	lr
 620              		.cantunwind
 621              		.fnend
 623              		.section	.text._ZN6tflite19GreedyMemoryPlanner30NextSimultaneouslyActiveBufferEPKNS0_9ListEntryEii
 624              		.align	2
 625              		.global	_ZN6tflite19GreedyMemoryPlanner30NextSimultaneouslyActiveBufferEPKNS0_9ListEntryEii
 626              		.syntax unified
 627              		.arm
 628              		.fpu neon
 630              	_ZN6tflite19GreedyMemoryPlanner30NextSimultaneouslyActiveBufferEPKNS0_9ListEntryEii:
 631              		.fnstart
 632              	.LFB28:
 633              		@ args = 0, pretend = 0, frame = 0
 634              		@ frame_needed = 0, uses_anonymous_args = 0
 635 0000 000051E3 		cmp	r1, #0
 636 0004 10402DE9 		push	{r4, lr}
 637 0008 00C0A0E1 		mov	ip, r0
 638 000c 1A00000A 		beq	.L130
 639 0010 081091E5 		ldr	r1, [r1, #8]
 640 0014 010071E3 		cmn	r1, #1
 641 0018 1500000A 		beq	.L128
 642 001c 184090E5 		ldr	r4, [r0, #24]
 643 0020 811081E0 		add	r1, r1, r1, lsl #1
 644 0024 010184E0 		add	r0, r4, r1, lsl #2
 645              	.L123:
 646 0028 0CE09CE5 		ldr	lr, [ip, #12]
 647 002c 040000EA 		b	.L126
 648              	.L125:
 649 0030 080090E5 		ldr	r0, [r0, #8]
 650 0034 010070E3 		cmn	r0, #1
 651 0038 800080E0 		add	r0, r0, r0, lsl #1
 652 003c 0C00000A 		beq	.L128
 653              	.L131:
 654 0040 000184E0 		add	r0, r4, r0, lsl #2
 655              	.L126:
 656 0044 041090E5 		ldr	r1, [r0, #4]
 657 0048 01128EE0 		add	r1, lr, r1, lsl #4
 658 004c 08C091E5 		ldr	ip, [r1, #8]
 659 0050 0C0053E1 		cmp	r3, ip
 660 0054 F5FFFFBA 		blt	.L125
 661 0058 0C1091E5 		ldr	r1, [r1, #12]
 662 005c 010052E1 		cmp	r2, r1
 663 0060 1080BDD8 		pople	{r4, pc}
 664 0064 080090E5 		ldr	r0, [r0, #8]
 665 0068 010070E3 		cmn	r0, #1
 666 006c 800080E0 		add	r0, r0, r0, lsl #1
 667 0070 F2FFFF1A 		bne	.L131
 668              	.L128:
 669 0074 0000A0E3 		mov	r0, #0
 670 0078 1080BDE8 		pop	{r4, pc}
 671              	.L130:
 672 007c 201090E5 		ldr	r1, [r0, #32]
 673 0080 184090E5 		ldr	r4, [r0, #24]
 674 0084 811081E0 		add	r1, r1, r1, lsl #1
 675 0088 010184E0 		add	r0, r4, r1, lsl #2
 676 008c E5FFFFEA 		b	.L123
 677              		.cantunwind
 678              		.fnend
 680              		.section	.text._ZN6tflite19GreedyMemoryPlanner24CalculateOffsetsIfNeededEv,"ax",%progbits
 681              		.align	2
 682              		.global	_ZN6tflite19GreedyMemoryPlanner24CalculateOffsetsIfNeededEv
 683              		.syntax unified
 684              		.arm
 685              		.fpu neon
 687              	_ZN6tflite19GreedyMemoryPlanner24CalculateOffsetsIfNeededEv:
 688              		.fnstart
 689              	.LFB29:
 690              		@ args = 0, pretend = 0, frame = 0
 691              		@ frame_needed = 0, uses_anonymous_args = 0
 692              		@ link register save eliminated.
 693 0000 2830D0E5 		ldrb	r3, [r0, #40]	@ zero_extendqisi2
 694 0004 000053E3 		cmp	r3, #0
 695 0008 1EFF2F01 		bxeq	lr
 696 000c FEFFFFEA 		b	_ZN6tflite19GreedyMemoryPlanner24CalculateOffsetsIfNeededEv.part.0
 697              		.cantunwind
 698              		.fnend
 700              		.section	.text._ZN6tflite19GreedyMemoryPlanner15PrintMemoryPlanEv,"ax",%progbits
 701              		.align	2
 702              		.global	_ZN6tflite19GreedyMemoryPlanner15PrintMemoryPlanEv
 703              		.syntax unified
 704              		.arm
 705              		.fpu neon
 707              	_ZN6tflite19GreedyMemoryPlanner15PrintMemoryPlanEv:
 708              		.fnstart
 709              	.LFB31:
 710              		@ args = 0, pretend = 0, frame = 0
 711              		@ frame_needed = 0, uses_anonymous_args = 0
 712              		@ link register save eliminated.
 713 0000 2830D0E5 		ldrb	r3, [r0, #40]	@ zero_extendqisi2
 714 0004 000053E3 		cmp	r3, #0
 715 0008 1EFF2F01 		bxeq	lr
 716 000c FEFFFFEA 		b	_ZN6tflite19GreedyMemoryPlanner24CalculateOffsetsIfNeededEv.part.0
 717              		.cantunwind
 718              		.fnend
 720              		.section	.text._ZN6tflite19GreedyMemoryPlanner19DoAnyBuffersOverlapEPNS_13ErrorReporterE,"ax",%pro
 721              		.align	2
 722              		.global	_ZN6tflite19GreedyMemoryPlanner19DoAnyBuffersOverlapEPNS_13ErrorReporterE
 723              		.syntax unified
 724              		.arm
 725              		.fpu neon
 727              	_ZN6tflite19GreedyMemoryPlanner19DoAnyBuffersOverlapEPNS_13ErrorReporterE:
 728              		.fnstart
 729              	.LFB34:
 730              		@ args = 0, pretend = 0, frame = 8
 731              		@ frame_needed = 0, uses_anonymous_args = 0
 732 0000 2830D0E5 		ldrb	r3, [r0, #40]	@ zero_extendqisi2
 733 0004 F04F2DE9 		push	{r4, r5, r6, r7, r8, r9, r10, fp, lr}
 734 0008 0060A0E1 		mov	r6, r0
 735 000c 0CD04DE2 		sub	sp, sp, #12
 736 0010 000053E3 		cmp	r3, #0
 737 0014 3300001A 		bne	.L150
 738 0018 085096E5 		ldr	r5, [r6, #8]
 739 001c 000055E3 		cmp	r5, #0
 740 0020 340000DA 		ble	.L142
 741              	.L151:
 742 0024 0C3096E5 		ldr	r3, [r6, #12]
 743 0028 0040A0E3 		mov	r4, #0
 744 002c 248096E5 		ldr	r8, [r6, #36]
 745 0030 0400A0E1 		mov	r0, r4
 746 0034 04308DE5 		str	r3, [sp, #4]
 747 0038 6CB083E2 		add	fp, r3, #108
 748 003c 043048E2 		sub	r3, r8, #4
 749 0040 00308DE5 		str	r3, [sp]
 750              	.L141:
 751 0044 00309DE5 		ldr	r3, [sp]
 752 0048 00C0A0E3 		mov	ip, #0
 753 004c 6C901BE5 		ldr	r9, [fp, #-108]
 754 0050 04E09DE5 		ldr	lr, [sp, #4]
 755 0054 04A0B3E5 		ldr	r10, [r3, #4]!
 756 0058 00F0DBF5 		pld	[fp]
 757 005c 64701BE5 		ldr	r7, [fp, #-100]
 758 0060 60601BE5 		ldr	r6, [fp, #-96]
 759 0064 09908AE0 		add	r9, r10, r9
 760 0068 00308DE5 		str	r3, [sp]
 761              	.L140:
 762 006c 0C0054E1 		cmp	r4, ip
 763 0070 1200000A 		beq	.L139
 764 0074 08309EE5 		ldr	r3, [lr, #8]
 765 0078 0C109EE5 		ldr	r1, [lr, #12]
 766 007c 0C2198E7 		ldr	r2, [r8, ip, lsl #2]
 767 0080 030056E1 		cmp	r6, r3
 768 0084 0030A0A3 		movge	r3, #0
 769 0088 0130A0B3 		movlt	r3, #1
 770 008c 010057E1 		cmp	r7, r1
 771 0090 013083C3 		orrgt	r3, r3, #1
 772 0094 00109EE5 		ldr	r1, [lr]
 773 0098 000053E3 		cmp	r3, #0
 774 009c 011082E0 		add	r1, r2, r1
 775 00a0 0600001A 		bne	.L139
 776 00a4 020059E1 		cmp	r9, r2
 777 00a8 0020A0C3 		movgt	r2, #0
 778 00ac 0120A0D3 		movle	r2, #1
 779 00b0 01005AE1 		cmp	r10, r1
 780 00b4 012082A3 		orrge	r2, r2, #1
 781 00b8 000052E3 		cmp	r2, #0
 782 00bc 0100A003 		moveq	r0, #1
 783              	.L139:
 784 00c0 01C08CE2 		add	ip, ip, #1
 785 00c4 10E08EE2 		add	lr, lr, #16
 786 00c8 05005CE1 		cmp	ip, r5
 787 00cc E6FFFF1A 		bne	.L140
 788 00d0 014084E2 		add	r4, r4, #1
 789 00d4 10B08BE2 		add	fp, fp, #16
 790 00d8 040055E1 		cmp	r5, r4
 791 00dc D8FFFF1A 		bne	.L141
 792 00e0 0CD08DE2 		add	sp, sp, #12
 793              		@ sp needed
 794 00e4 F08FBDE8 		pop	{r4, r5, r6, r7, r8, r9, r10, fp, pc}
 795              	.L150:
 796 00e8 FEFFFFEB 		bl	_ZN6tflite19GreedyMemoryPlanner24CalculateOffsetsIfNeededEv.part.0
 797 00ec 085096E5 		ldr	r5, [r6, #8]
 798 00f0 000055E3 		cmp	r5, #0
 799 00f4 CAFFFFCA 		bgt	.L151
 800              	.L142:
 801 00f8 0000A0E3 		mov	r0, #0
 802 00fc 0CD08DE2 		add	sp, sp, #12
 803              		@ sp needed
 804 0100 F08FBDE8 		pop	{r4, r5, r6, r7, r8, r9, r10, fp, pc}
 805              		.cantunwind
 806              		.fnend
 808              		.weak	_ZTSN6tflite13MemoryPlannerE
 809              		.section	.rodata._ZTSN6tflite13MemoryPlannerE,"aG",%progbits,_ZTSN6tflite13MemoryPlannerE,comdat
 810              		.align	2
 813              	_ZTSN6tflite13MemoryPlannerE:
 814 0000 4E367466 		.ascii	"N6tflite13MemoryPlannerE\000"
 814      6C697465 
 814      31334D65 
 814      6D6F7279 
 814      506C616E 
 815              		.weak	_ZTIN6tflite13MemoryPlannerE
 816              		.section	.rodata._ZTIN6tflite13MemoryPlannerE,"aG",%progbits,_ZTIN6tflite13MemoryPlannerE,comdat
 817              		.align	2
 820              	_ZTIN6tflite13MemoryPlannerE:
 821 0000 08000000 		.word	_ZTVN10__cxxabiv117__class_type_infoE+8
 822 0004 00000000 		.word	_ZTSN6tflite13MemoryPlannerE
 823              		.global	_ZTSN6tflite19GreedyMemoryPlannerE
 824              		.global	_ZTIN6tflite19GreedyMemoryPlannerE
 825              		.global	_ZTVN6tflite19GreedyMemoryPlannerE
 826              		.section	.rodata._ZTIN6tflite19GreedyMemoryPlannerE,"a",%progbits
 827              		.align	2
 830              	_ZTIN6tflite19GreedyMemoryPlannerE:
 831 0000 08000000 		.word	_ZTVN10__cxxabiv120__si_class_type_infoE+8
 832 0004 00000000 		.word	_ZTSN6tflite19GreedyMemoryPlannerE
 833 0008 00000000 		.word	_ZTIN6tflite13MemoryPlannerE
 834              		.section	.rodata._ZTSN6tflite19GreedyMemoryPlannerE,"a",%progbits
 835              		.align	3
 838              	_ZTSN6tflite19GreedyMemoryPlannerE:
 839 0000 4E367466 		.ascii	"N6tflite19GreedyMemoryPlannerE\000"
 839      6C697465 
 839      31394772 
 839      65656479 
 839      4D656D6F 
 840              		.section	.rodata._ZTVN6tflite19GreedyMemoryPlannerE,"a",%progbits
 841              		.align	3
 842              		.set	.LANCHOR0,. + 0
 845              	_ZTVN6tflite19GreedyMemoryPlannerE:
 846 0000 00000000 		.word	0
 847 0004 00000000 		.word	_ZTIN6tflite19GreedyMemoryPlannerE
 848 0008 00000000 		.word	_ZN6tflite19GreedyMemoryPlannerD1Ev
 849 000c 00000000 		.word	_ZN6tflite19GreedyMemoryPlannerD0Ev
 850 0010 00000000 		.word	_ZN6tflite19GreedyMemoryPlanner9AddBufferEPNS_13ErrorReporterEiii
 851 0014 00000000 		.word	_ZN6tflite19GreedyMemoryPlanner20GetMaximumMemorySizeEv
 852 0018 00000000 		.word	_ZN6tflite19GreedyMemoryPlanner14GetBufferCountEv
 853 001c 00000000 		.word	_ZN6tflite19GreedyMemoryPlanner18GetOffsetForBufferEPNS_13ErrorReporterEiPi
 854              		.ident	"GCC: (GNU Tools for ARM Embedded Processors 6-2017-q2-update) 6.3.1 20170620 (release) [AR