   1              		.cpu cortex-a9
   2              		.eabi_attribute 28, 1
   3              		.eabi_attribute 20, 1
   4              		.eabi_attribute 21, 1
   5              		.eabi_attribute 23, 3
   6              		.eabi_attribute 24, 1
   7              		.eabi_attribute 25, 1
   8              		.eabi_attribute 26, 1
   9              		.eabi_attribute 30, 2
  10              		.eabi_attribute 34, 0
  11              		.eabi_attribute 18, 4
  12              		.file	"linear_memory_planner.cc"
  13              		.section	.text._ZN6tflite19LinearMemoryPlannerD2Ev,"ax",%progbits
  14              		.align	2
  15              		.global	_ZN6tflite19LinearMemoryPlannerD2Ev
  16              		.syntax unified
  17              		.arm
  18              		.fpu neon
  20              	_ZN6tflite19LinearMemoryPlannerD2Ev:
  21              		.fnstart
  22              	.LFB15:
  23              		@ args = 0, pretend = 0, frame = 0
  24              		@ frame_needed = 0, uses_anonymous_args = 0
  25              		@ link register save eliminated.
  26 0000 1EFF2FE1 		bx	lr
  27              		.cantunwind
  28              		.fnend
  30              		.global	_ZN6tflite19LinearMemoryPlannerD1Ev
  31              		.set	_ZN6tflite19LinearMemoryPlannerD1Ev,_ZN6tflite19LinearMemoryPlannerD2Ev
  32              		.section	.text._ZN6tflite19LinearMemoryPlanner9AddBufferEPNS_13ErrorReporterEiii,"ax",%progbits
  33              		.align	2
  34              		.global	_ZN6tflite19LinearMemoryPlanner9AddBufferEPNS_13ErrorReporterEiii
  35              		.syntax unified
  36              		.arm
  37              		.fpu neon
  39              	_ZN6tflite19LinearMemoryPlanner9AddBufferEPNS_13ErrorReporterEiii:
  40              		.fnstart
  41              	.LFB18:
  42              		@ args = 4, pretend = 0, frame = 0
  43              		@ frame_needed = 0, uses_anonymous_args = 0
  44 0000 011A80E2 		add	r1, r0, #4096
  45 0004 043091E5 		ldr	r3, [r1, #4]
  46 0008 010B53E3 		cmp	r3, #1024
  47 000c 090000AA 		bge	.L4
  48 0010 04E02DE5 		str	lr, [sp, #-4]!
  49 0014 03C180E0 		add	ip, r0, r3, lsl #2
  50 0018 08E091E5 		ldr	lr, [r1, #8]
  51 001c 013083E2 		add	r3, r3, #1
  52 0020 0000A0E3 		mov	r0, #0
  53 0024 0E2082E0 		add	r2, r2, lr
  54 0028 04E08CE5 		str	lr, [ip, #4]
  55 002c 082081E5 		str	r2, [r1, #8]
  56 0030 043081E5 		str	r3, [r1, #4]
  57 0034 04F09DE4 		ldr	pc, [sp], #4
  58              	.L4:
  59 0038 0100A0E3 		mov	r0, #1
  60 003c 1EFF2FE1 		bx	lr
  61              		.cantunwind
  62              		.fnend
  64              		.section	.text._ZN6tflite19LinearMemoryPlanner20GetMaximumMemorySizeEv,"ax",%progbits
  65              		.align	2
  66              		.global	_ZN6tflite19LinearMemoryPlanner20GetMaximumMemorySizeEv
  67              		.syntax unified
  68              		.arm
  69              		.fpu neon
  71              	_ZN6tflite19LinearMemoryPlanner20GetMaximumMemorySizeEv:
  72              		.fnstart
  73              	.LFB19:
  74              		@ args = 0, pretend = 0, frame = 0
  75              		@ frame_needed = 0, uses_anonymous_args = 0
  76              		@ link register save eliminated.
  77 0000 010A80E2 		add	r0, r0, #4096
  78 0004 080090E5 		ldr	r0, [r0, #8]
  79 0008 1EFF2FE1 		bx	lr
  80              		.cantunwind
  81              		.fnend
  83              		.section	.text._ZN6tflite19LinearMemoryPlanner14GetBufferCountEv,"ax",%progbits
  84              		.align	2
  85              		.global	_ZN6tflite19LinearMemoryPlanner14GetBufferCountEv
  86              		.syntax unified
  87              		.arm
  88              		.fpu neon
  90              	_ZN6tflite19LinearMemoryPlanner14GetBufferCountEv:
  91              		.fnstart
  92              	.LFB20:
  93              		@ args = 0, pretend = 0, frame = 0
  94              		@ frame_needed = 0, uses_anonymous_args = 0
  95              		@ link register save eliminated.
  96 0000 010A80E2 		add	r0, r0, #4096
  97 0004 040090E5 		ldr	r0, [r0, #4]
  98 0008 1EFF2FE1 		bx	lr
  99              		.cantunwind
 100              		.fnend
 102              		.section	.text._ZN6tflite19LinearMemoryPlanner18GetOffsetForBufferEPNS_13ErrorReporterEiPi,"ax",%p
 103              		.align	2
 104              		.global	_ZN6tflite19LinearMemoryPlanner18GetOffsetForBufferEPNS_13ErrorReporterEiPi
 105              		.syntax unified
 106              		.arm
 107              		.fpu neon
 109              	_ZN6tflite19LinearMemoryPlanner18GetOffsetForBufferEPNS_13ErrorReporterEiPi:
 110              		.fnstart
 111              	.LFB21:
 112              		@ args = 0, pretend = 0, frame = 0
 113              		@ frame_needed = 0, uses_anonymous_args = 0
 114              		@ link register save eliminated.
 115 0000 000052E3 		cmp	r2, #0
 116 0004 080000BA 		blt	.L15
 117 0008 011A80E2 		add	r1, r0, #4096
 118 000c 041091E5 		ldr	r1, [r1, #4]
 119 0010 010052E1 		cmp	r2, r1
 120 0014 040000AA 		bge	.L15
 121 0018 022180E0 		add	r2, r0, r2, lsl #2
 122 001c 0000A0E3 		mov	r0, #0
 123 0020 042092E5 		ldr	r2, [r2, #4]
 124 0024 002083E5 		str	r2, [r3]
 125 0028 1EFF2FE1 		bx	lr
 126              	.L15:
 127 002c 0100A0E3 		mov	r0, #1
 128 0030 1EFF2FE1 		bx	lr
 129              		.cantunwind
 130              		.fnend
 132              		.section	.text._ZN6tflite19LinearMemoryPlannerD0Ev,"ax",%progbits
 133              		.align	2
 134              		.global	_ZN6tflite19LinearMemoryPlannerD0Ev
 135              		.syntax unified
 136              		.arm
 137              		.fpu neon
 139              	_ZN6tflite19LinearMemoryPlannerD0Ev:
 140              		.fnstart
 141              	.LFB17:
 142              		@ args = 0, pretend = 0, frame = 0
 143              		@ frame_needed = 0, uses_anonymous_args = 0
 144 0000 10402DE9 		push	{r4, lr}
 145 0004 0040A0E1 		mov	r4, r0
 146 0008 FEFFFFEB 		bl	_ZdlPv
 147 000c 0400A0E1 		mov	r0, r4
 148 0010 1080BDE8 		pop	{r4, pc}
 149              		.cantunwind
 150              		.fnend
 152              		.section	.text._ZN6tflite19LinearMemoryPlannerC2Ev,"ax",%progbits
 153              		.align	2
 154              		.global	_ZN6tflite19LinearMemoryPlannerC2Ev
 155              		.syntax unified
 156              		.arm
 157              		.fpu neon
 159              	_ZN6tflite19LinearMemoryPlannerC2Ev:
 160              		.fnstart
 161              	.LFB12:
 162              		@ args = 0, pretend = 0, frame = 0
 163              		@ frame_needed = 0, uses_anonymous_args = 0
 164              		@ link register save eliminated.
 165 0000 14C09FE5 		ldr	ip, .L19
 166 0004 013A80E2 		add	r3, r0, #4096
 167 0008 0020A0E3 		mov	r2, #0
 168 000c 00C080E5 		str	ip, [r0]
 169 0010 042083E5 		str	r2, [r3, #4]
 170 0014 082083E5 		str	r2, [r3, #8]
 171 0018 1EFF2FE1 		bx	lr
 172              	.L20:
 173              		.align	2
 174              	.L19:
 175 001c 08000000 		.word	.LANCHOR0+8
 176              		.cantunwind
 177              		.fnend
 179              		.global	_ZN6tflite19LinearMemoryPlannerC1Ev
 180              		.set	_ZN6tflite19LinearMemoryPlannerC1Ev,_ZN6tflite19LinearMemoryPlannerC2Ev
 181              		.weak	_ZTSN6tflite13MemoryPlannerE
 182              		.section	.rodata._ZTSN6tflite13MemoryPlannerE,"aG",%progbits,_ZTSN6tflite13MemoryPlannerE,comdat
 183              		.align	2
 186              	_ZTSN6tflite13MemoryPlannerE:
 187 0000 4E367466 		.ascii	"N6tflite13MemoryPlannerE\000"
 187      6C697465 
 187      31334D65 
 187      6D6F7279 
 187      506C616E 
 188              		.weak	_ZTIN6tflite13MemoryPlannerE
 189              		.section	.rodata._ZTIN6tflite13MemoryPlannerE,"aG",%progbits,_ZTIN6tflite13MemoryPlannerE,comdat
 190              		.align	2
 193              	_ZTIN6tflite13MemoryPlannerE:
 194 0000 08000000 		.word	_ZTVN10__cxxabiv117__class_type_infoE+8
 195 0004 00000000 		.word	_ZTSN6tflite13MemoryPlannerE
 196              		.global	_ZTSN6tflite19LinearMemoryPlannerE
 197              		.global	_ZTIN6tflite19LinearMemoryPlannerE
 198              		.global	_ZTVN6tflite19LinearMemoryPlannerE
 199              		.section	.rodata._ZTIN6tflite19LinearMemoryPlannerE,"a",%progbits
 200              		.align	2
 203              	_ZTIN6tflite19LinearMemoryPlannerE:
 204 0000 08000000 		.word	_ZTVN10__cxxabiv120__si_class_type_infoE+8
 205 0004 00000000 		.word	_ZTSN6tflite19LinearMemoryPlannerE
 206 0008 00000000 		.word	_ZTIN6tflite13MemoryPlannerE
 207              		.section	.rodata._ZTSN6tflite19LinearMemoryPlannerE,"a",%progbits
 208              		.align	3
 211              	_ZTSN6tflite19LinearMemoryPlannerE:
 212 0000 4E367466 		.ascii	"N6tflite19LinearMemoryPlannerE\000"
 212      6C697465 
 212      31394C69 
 212      6E656172 
 212      4D656D6F 
 213              		.section	.rodata._ZTVN6tflite19LinearMemoryPlannerE,"a",%progbits
 214              		.align	3
 215              		.set	.LANCHOR0,. + 0
 218              	_ZTVN6tflite19LinearMemoryPlannerE:
 219 0000 00000000 		.word	0
 220 0004 00000000 		.word	_ZTIN6tflite19LinearMemoryPlannerE
 221 0008 00000000 		.word	_ZN6tflite19LinearMemoryPlannerD1Ev
 222 000c 00000000 		.word	_ZN6tflite19LinearMemoryPlannerD0Ev
 223 0010 00000000 		.word	_ZN6tflite19LinearMemoryPlanner9AddBufferEPNS_13ErrorReporterEiii
 224 0014 00000000 		.word	_ZN6tflite19LinearMemoryPlanner20GetMaximumMemorySizeEv
 225 0018 00000000 		.word	_ZN6tflite19LinearMemoryPlanner14GetBufferCountEv
 226 001c 00000000 		.word	_ZN6tflite19LinearMemoryPlanner18GetOffsetForBufferEPNS_13ErrorReporterEiPi
 227              		.ident	"GCC: (GNU Tools for ARM Embedded Processors 6-2017-q2-update) 6.3.1 20170620 (release) [AR