   1              		.cpu cortex-a9
   2              		.eabi_attribute 28, 1
   3              		.eabi_attribute 20, 1
   4              		.eabi_attribute 21, 1
   5              		.eabi_attribute 23, 3
   6              		.eabi_attribute 24, 1
   7              		.eabi_attribute 25, 1
   8              		.eabi_attribute 26, 1
   9              		.eabi_attribute 30, 2
  10              		.eabi_attribute 34, 0
  11              		.eabi_attribute 18, 4
  12              		.file	"r_intc_lld_rza2m.c"
  13              		.section	.text.R_INTC_Init,"ax",%progbits
  14              		.align	2
  15              		.global	R_INTC_Init
  16              		.syntax unified
  17              		.arm
  18              		.fpu neon
  20              	R_INTC_Init:
  21              		@ args = 0, pretend = 0, frame = 0
  22              		@ frame_needed = 0, uses_anonymous_args = 0
  23 0000 70402DE9 		push	{r4, r5, r6, lr}
  24 0004 424DA0E3 		mov	r4, #4224
  25 0008 435DA0E3 		mov	r5, #4288
  26 000c 22484EE3 		movt	r4, 59426
  27 0010 22584EE3 		movt	r5, 59426
  28              	.L2:
  29 0014 0020A0E3 		mov	r2, #0
  30 0018 0400A0E1 		mov	r0, r4
  31 001c 0030E0E3 		mvn	r3, #0
  32 0020 0210A0E1 		mov	r1, r2
  33 0024 044084E2 		add	r4, r4, #4
  34 0028 FEFFFFEB 		bl	RZA_IO_RegWrite_32
  35 002c 050054E1 		cmp	r4, r5
  36 0030 F7FFFF1A 		bne	.L2
  37 0034 0C419FE5 		ldr	r4, .L12
  38 0038 075BA0E3 		mov	r5, #7168
  39 003c 22584EE3 		movt	r5, 59426
  40 0040 045045E0 		sub	r5, r5, r4
  41 0044 806084E2 		add	r6, r4, #128
  42              	.L3:
  43 0048 040085E0 		add	r0, r5, r4
  44 004c 0410B4E5 		ldr	r1, [r4, #4]!
  45 0050 0030E0E3 		mvn	r3, #0
  46 0054 0020A0E3 		mov	r2, #0
  47 0058 FEFFFFEB 		bl	RZA_IO_RegWrite_32
  48 005c 060054E1 		cmp	r4, r6
  49 0060 F8FFFF1A 		bne	.L3
  50 0064 054BA0E3 		mov	r4, #5120
  51 0068 F8680FE3 		movw	r6, #63736
  52 006c 165CA0E3 		mov	r5, #5632
  53 0070 22484EE3 		movt	r4, 59426
  54 0074 F8684FE3 		movt	r6, 63736
  55 0078 22584EE3 		movt	r5, 59426
  56              	.L4:
  57 007c 0400A0E1 		mov	r0, r4
  58 0080 0030E0E3 		mvn	r3, #0
  59 0084 0020A0E3 		mov	r2, #0
  60 0088 0610A0E1 		mov	r1, r6
  61 008c 044084E2 		add	r4, r4, #4
  62 0090 FEFFFFEB 		bl	RZA_IO_RegWrite_32
  63 0094 050054E1 		cmp	r4, r5
  64 0098 F7FFFF1A 		bne	.L4
  65 009c 464DA0E3 		mov	r4, #4480
  66 00a0 475DA0E3 		mov	r5, #4544
  67 00a4 22484EE3 		movt	r4, 59426
  68 00a8 22584EE3 		movt	r5, 59426
  69              	.L5:
  70 00ac 0030E0E3 		mvn	r3, #0
  71 00b0 0400A0E1 		mov	r0, r4
  72 00b4 0020A0E3 		mov	r2, #0
  73 00b8 0310A0E1 		mov	r1, r3
  74 00bc 044084E2 		add	r4, r4, #4
  75 00c0 FEFFFFEB 		bl	RZA_IO_RegWrite_32
  76 00c4 050054E1 		cmp	r4, r5
  77 00c8 F7FFFF1A 		bne	.L5
  78 00cc 040002E3 		movw	r0, #8196
  79 00d0 0030E0E3 		mvn	r3, #0
  80 00d4 22084EE3 		movt	r0, 59426
  81 00d8 0020A0E3 		mov	r2, #0
  82 00dc F810A0E3 		mov	r1, #248
  83 00e0 FEFFFFEB 		bl	RZA_IO_RegWrite_32
  84 00e4 040002E3 		movw	r0, #8196
  85 00e8 0020E0E3 		mvn	r2, #0
  86 00ec 0010A0E3 		mov	r1, #0
  87 00f0 22084EE3 		movt	r0, 59426
  88 00f4 FEFFFFEB 		bl	RZA_IO_RegRead_32
  89 00f8 080002E3 		movw	r0, #8200
  90 00fc 0030E0E3 		mvn	r3, #0
  91 0100 22084EE3 		movt	r0, 59426
  92 0104 0020A0E3 		mov	r2, #0
  93 0108 0210A0E3 		mov	r1, #2
  94 010c FEFFFFEB 		bl	RZA_IO_RegWrite_32
  95 0110 020AA0E3 		mov	r0, #8192
  96 0114 0030E0E3 		mvn	r3, #0
  97 0118 22084EE3 		movt	r0, 59426
  98 011c 0020A0E3 		mov	r2, #0
  99 0120 0110A0E3 		mov	r1, #1
 100 0124 FEFFFFEB 		bl	RZA_IO_RegWrite_32
 101 0128 010AA0E3 		mov	r0, #4096
 102 012c 0030E0E3 		mvn	r3, #0
 103 0130 22084EE3 		movt	r0, 59426
 104 0134 0020A0E3 		mov	r2, #0
 105 0138 0110A0E3 		mov	r1, #1
 106 013c FEFFFFEB 		bl	RZA_IO_RegWrite_32
 107 0140 0000A0E3 		mov	r0, #0
 108 0144 7080BDE8 		pop	{r4, r5, r6, pc}
 109              	.L13:
 110              		.align	2
 111              	.L12:
 112 0148 FCFFFFFF 		.word	.LANCHOR0-4
 114              		.section	.text.R_INTC_SetNMIConfig,"ax",%progbits
 115              		.align	2
 116              		.global	R_INTC_SetNMIConfig
 117              		.syntax unified
 118              		.arm
 119              		.fpu neon
 121              	R_INTC_SetNMIConfig:
 122              		@ args = 0, pretend = 0, frame = 0
 123              		@ frame_needed = 0, uses_anonymous_args = 0
 124 0000 10402DE9 		push	{r4, lr}
 125 0004 3E4BA0E3 		mov	r4, #63488
 126 0008 FE4C4FE3 		movt	r4, 64766
 127 000c 0010D0E5 		ldrb	r1, [r0]	@ zero_extendqisi2
 128 0010 013CA0E3 		mov	r3, #256
 129 0014 0400A0E1 		mov	r0, r4
 130 0018 0820A0E3 		mov	r2, #8
 131 001c FEFFFFEB 		bl	RZA_IO_RegWrite_16
 132 0020 0400A0E1 		mov	r0, r4
 133 0024 0020E0E3 		mvn	r2, #0
 134 0028 0010A0E3 		mov	r1, #0
 135 002c FEFFFFEB 		bl	RZA_IO_RegRead_16
 136 0030 0000A0E3 		mov	r0, #0
 137 0034 1080BDE8 		pop	{r4, pc}
 139              		.section	.text.R_INTC_GetNMIConfig,"ax",%progbits
 140              		.align	2
 141              		.global	R_INTC_GetNMIConfig
 142              		.syntax unified
 143              		.arm
 144              		.fpu neon
 146              	R_INTC_GetNMIConfig:
 147              		@ args = 0, pretend = 0, frame = 0
 148              		@ frame_needed = 0, uses_anonymous_args = 0
 149 0000 10402DE9 		push	{r4, lr}
 150 0004 0040A0E1 		mov	r4, r0
 151 0008 3E0BA0E3 		mov	r0, #63488
 152 000c 012CA0E3 		mov	r2, #256
 153 0010 0810A0E3 		mov	r1, #8
 154 0014 FE0C4FE3 		movt	r0, 64766
 155 0018 FEFFFFEB 		bl	RZA_IO_RegRead_16
 156 001c 0000C4E5 		strb	r0, [r4]
 157 0020 0000A0E3 		mov	r0, #0
 158 0024 1080BDE8 		pop	{r4, pc}
 160              		.section	.text.R_IRQ_Init,"ax",%progbits
 161              		.align	2
 162              		.global	R_IRQ_Init
 163              		.syntax unified
 164              		.arm
 165              		.fpu neon
 167              	R_IRQ_Init:
 168              		@ args = 0, pretend = 0, frame = 0
 169              		@ frame_needed = 0, uses_anonymous_args = 0
 170 0000 70402DE9 		push	{r4, r5, r6, lr}
 171 0004 02480FE3 		movw	r4, #63490
 172 0008 01E0D0E5 		ldrb	lr, [r0, #1]	@ zero_extendqisi2
 173 000c FE4C4FE3 		movt	r4, 64766
 174 0010 0030E0E3 		mvn	r3, #0
 175 0014 0020A0E3 		mov	r2, #0
 176 0018 00C0D0E5 		ldrb	ip, [r0]	@ zero_extendqisi2
 177 001c 0400A0E1 		mov	r0, r4
 178 0020 03100EE2 		and	r1, lr, #3
 179 0024 5E51E1E7 		ubfx	r5, lr, #2, #2
 180 0028 01C48CE1 		orr	ip, ip, r1, lsl #8
 181 002c 5E12E1E7 		ubfx	r1, lr, #4, #2
 182 0030 2EE3A0E1 		lsr	lr, lr, #6
 183 0034 05C58CE1 		orr	ip, ip, r5, lsl #10
 184 0038 01168CE1 		orr	r1, ip, r1, lsl #12
 185 003c 0E1781E1 		orr	r1, r1, lr, lsl #14
 186 0040 FEFFFFEB 		bl	RZA_IO_RegWrite_16
 187 0044 0400A0E1 		mov	r0, r4
 188 0048 0020E0E3 		mvn	r2, #0
 189 004c 0010A0E3 		mov	r1, #0
 190 0050 FEFFFFEB 		bl	RZA_IO_RegRead_16
 191 0054 0000A0E3 		mov	r0, #0
 192 0058 7080BDE8 		pop	{r4, r5, r6, pc}
 194              		.section	.text.R_TINT_Init,"ax",%progbits
 195              		.align	2
 196              		.global	R_TINT_Init
 197              		.syntax unified
 198              		.arm
 199              		.fpu neon
 201              	R_TINT_Init:
 202              		@ args = 0, pretend = 0, frame = 0
 203              		@ frame_needed = 0, uses_anonymous_args = 0
 204 0000 0010D0E5 		ldrb	r1, [r0]	@ zero_extendqisi2
 205 0004 0030E0E3 		mvn	r3, #0
 206 0008 F0412DE9 		push	{r4, r5, r6, r7, r8, lr}
 207 000c 555505E3 		movw	r5, #21845
 208 0010 555545E3 		movt	r5, 21845
 209 0014 0120D0E5 		ldrb	r2, [r0, #1]	@ zero_extendqisi2
 210 0018 D1C0E0E7 		ubfx	ip, r1, #1, #1
 211 001c 01E001E2 		and	lr, r1, #1
 212 0020 8CC1A0E1 		lsl	ip, ip, #3
 213 0024 0060A0E1 		mov	r6, r0
 214 0028 5101E0E7 		ubfx	r0, r1, #2, #1
 215 002c 8EC08CE1 		orr	ip, ip, lr, lsl #1
 216 0030 D1E1E0E7 		ubfx	lr, r1, #3, #1
 217 0034 014002E2 		and	r4, r2, #1
 218 0038 05C08CE1 		orr	ip, ip, r5
 219 003c 787C01E3 		movw	r7, #7288
 220 0040 80C28CE1 		orr	ip, ip, r0, lsl #5
 221 0044 5102E0E7 		ubfx	r0, r1, #4, #1
 222 0048 22784EE3 		movt	r7, 59426
 223 004c 8EC38CE1 		orr	ip, ip, lr, lsl #7
 224 0050 D1E2E0E7 		ubfx	lr, r1, #5, #1
 225 0054 80C48CE1 		orr	ip, ip, r0, lsl #9
 226 0058 5103E0E7 		ubfx	r0, r1, #6, #1
 227 005c A113A0E1 		lsr	r1, r1, #7
 228 0060 8EC58CE1 		orr	ip, ip, lr, lsl #11
 229 0064 52E1E0E7 		ubfx	lr, r2, #2, #1
 230 0068 80C68CE1 		orr	ip, ip, r0, lsl #13
 231 006c D200E0E7 		ubfx	r0, r2, #1, #1
 232 0070 81C78CE1 		orr	ip, ip, r1, lsl #15
 233 0074 D211E0E7 		ubfx	r1, r2, #3, #1
 234 0078 84C88CE1 		orr	ip, ip, r4, lsl #17
 235 007c D242E0E7 		ubfx	r4, r2, #5, #1
 236 0080 80C98CE1 		orr	ip, ip, r0, lsl #19
 237 0084 5202E0E7 		ubfx	r0, r2, #4, #1
 238 0088 8ECA8CE1 		orr	ip, ip, lr, lsl #21
 239 008c A2E3A0E1 		lsr	lr, r2, #7
 240 0090 81CB8CE1 		orr	ip, ip, r1, lsl #23
 241 0094 5213E0E7 		ubfx	r1, r2, #6, #1
 242 0098 0020A0E3 		mov	r2, #0
 243 009c 80CC8CE1 		orr	ip, ip, r0, lsl #25
 244 00a0 0700A0E1 		mov	r0, r7
 245 00a4 84CD8CE1 		orr	ip, ip, r4, lsl #27
 246 00a8 7C4C01E3 		movw	r4, #7292
 247 00ac 22484EE3 		movt	r4, 59426
 248 00b0 811E8CE1 		orr	r1, ip, r1, lsl #29
 249 00b4 8E1F81E1 		orr	r1, r1, lr, lsl #31
 250 00b8 FEFFFFEB 		bl	RZA_IO_RegWrite_32
 251 00bc 0700A0E1 		mov	r0, r7
 252 00c0 0020E0E3 		mvn	r2, #0
 253 00c4 0010A0E3 		mov	r1, #0
 254 00c8 FEFFFFEB 		bl	RZA_IO_RegRead_32
 255 00cc 0210D6E5 		ldrb	r1, [r6, #2]	@ zero_extendqisi2
 256 00d0 0400A0E1 		mov	r0, r4
 257 00d4 0320D6E5 		ldrb	r2, [r6, #3]	@ zero_extendqisi2
 258 00d8 0030E0E3 		mvn	r3, #0
 259 00dc D1C0E0E7 		ubfx	ip, r1, #1, #1
 260 00e0 016001E2 		and	r6, r1, #1
 261 00e4 8CC1A0E1 		lsl	ip, ip, #3
 262 00e8 51E1E0E7 		ubfx	lr, r1, #2, #1
 263 00ec 86C08CE1 		orr	ip, ip, r6, lsl #1
 264 00f0 D161E0E7 		ubfx	r6, r1, #3, #1
 265 00f4 05C08CE1 		orr	ip, ip, r5
 266 00f8 D152E0E7 		ubfx	r5, r1, #5, #1
 267 00fc 8EC28CE1 		orr	ip, ip, lr, lsl #5
 268 0100 51E2E0E7 		ubfx	lr, r1, #4, #1
 269 0104 86C38CE1 		orr	ip, ip, r6, lsl #7
 270 0108 016002E2 		and	r6, r2, #1
 271 010c 8EC48CE1 		orr	ip, ip, lr, lsl #9
 272 0110 51E3E0E7 		ubfx	lr, r1, #6, #1
 273 0114 A113A0E1 		lsr	r1, r1, #7
 274 0118 85C58CE1 		orr	ip, ip, r5, lsl #11
 275 011c D250E0E7 		ubfx	r5, r2, #1, #1
 276 0120 8EC68CE1 		orr	ip, ip, lr, lsl #13
 277 0124 52E1E0E7 		ubfx	lr, r2, #2, #1
 278 0128 81C78CE1 		orr	ip, ip, r1, lsl #15
 279 012c D211E0E7 		ubfx	r1, r2, #3, #1
 280 0130 86C88CE1 		orr	ip, ip, r6, lsl #17
 281 0134 5262E0E7 		ubfx	r6, r2, #4, #1
 282 0138 85C98CE1 		orr	ip, ip, r5, lsl #19
 283 013c D252E0E7 		ubfx	r5, r2, #5, #1
 284 0140 8ECA8CE1 		orr	ip, ip, lr, lsl #21
 285 0144 A2E3A0E1 		lsr	lr, r2, #7
 286 0148 81CB8CE1 		orr	ip, ip, r1, lsl #23
 287 014c 5213E0E7 		ubfx	r1, r2, #6, #1
 288 0150 0020A0E3 		mov	r2, #0
 289 0154 86CC8CE1 		orr	ip, ip, r6, lsl #25
 290 0158 85CD8CE1 		orr	ip, ip, r5, lsl #27
 291 015c 811E8CE1 		orr	r1, ip, r1, lsl #29
 292 0160 8E1F81E1 		orr	r1, r1, lr, lsl #31
 293 0164 FEFFFFEB 		bl	RZA_IO_RegWrite_32
 294 0168 0400A0E1 		mov	r0, r4
 295 016c 0020E0E3 		mvn	r2, #0
 296 0170 0010A0E3 		mov	r1, #0
 297 0174 FEFFFFEB 		bl	RZA_IO_RegRead_32
 298 0178 0000A0E3 		mov	r0, #0
 299 017c F081BDE8 		pop	{r4, r5, r6, r7, r8, pc}
 301              		.section	.text.R_INTC_RegistIntFunc,"ax",%progbits
 302              		.align	2
 303              		.global	R_INTC_RegistIntFunc
 304              		.syntax unified
 305              		.arm
 306              		.fpu neon
 308              	R_INTC_RegistIntFunc:
 309              		@ args = 0, pretend = 0, frame = 0
 310              		@ frame_needed = 0, uses_anonymous_args = 0
 311              		@ link register save eliminated.
 312 0000 020C50E3 		cmp	r0, #512
 313 0004 0020A0E1 		mov	r2, r0
 314 0008 00300093 		movwls	r3, #:lower16:.LANCHOR1
 315 000c 0000A093 		movls	r0, #0
 316 0010 00304093 		movtls	r3, #:upper16:.LANCHOR1
 317 0014 0000E083 		mvnhi	r0, #0
 318 0018 02118397 		strls	r1, [r3, r2, lsl #2]
 319 001c 1EFF2FE1 		bx	lr
 321              		.section	.text.R_INTC_GetIntFunc,"ax",%progbits
 322              		.align	2
 323              		.global	R_INTC_GetIntFunc
 324              		.syntax unified
 325              		.arm
 326              		.fpu neon
 328              	R_INTC_GetIntFunc:
 329              		@ args = 0, pretend = 0, frame = 0
 330              		@ frame_needed = 0, uses_anonymous_args = 0
 331              		@ link register save eliminated.
 332 0000 020C50E3 		cmp	r0, #512
 333 0004 0700008A 		bhi	.L27
 334 0008 003000E3 		movw	r3, #:lower16:.LANCHOR1
 335 000c 003040E3 		movt	r3, #:upper16:.LANCHOR1
 336 0010 003193E7 		ldr	r3, [r3, r0, lsl #2]
 337 0014 000053E3 		cmp	r3, #0
 338 0018 0400000A 		beq	.L28
 339 001c 003081E5 		str	r3, [r1]
 340 0020 0000A0E3 		mov	r0, #0
 341 0024 1EFF2FE1 		bx	lr
 342              	.L27:
 343 0028 0000E0E3 		mvn	r0, #0
 344 002c 1EFF2FE1 		bx	lr
 345              	.L28:
 346 0030 0500E0E3 		mvn	r0, #5
 347 0034 1EFF2FE1 		bx	lr
 349              		.section	.text.R_INTC_Enable,"ax",%progbits
 350              		.align	2
 351              		.global	R_INTC_Enable
 352              		.syntax unified
 353              		.arm
 354              		.fpu neon
 356              	R_INTC_Enable:
 357              		@ args = 0, pretend = 0, frame = 0
 358              		@ frame_needed = 0, uses_anonymous_args = 0
 359              		@ link register save eliminated.
 360 0000 020C50E3 		cmp	r0, #512
 361 0004 1F100032 		andcc	r1, r0, #31
 362 0008 0120A033 		movcc	r2, #1
 363 000c 1221A031 		lslcc	r2, r2, r1
 364 0010 A032A031 		lsrcc	r3, r0, #5
 365 0014 111CA033 		movcc	r1, #4352
 366 0018 0200E023 		mvncs	r0, #2
 367 001c 22184E33 		movtcc	r1, 59426
 368 0020 0000A033 		movcc	r0, #0
 369 0024 03218137 		strcc	r2, [r1, r3, lsl #2]
 370 0028 1EFF2FE1 		bx	lr
 372              		.section	.text.R_INTC_Disable,"ax",%progbits
 373              		.align	2
 374              		.global	R_INTC_Disable
 375              		.syntax unified
 376              		.arm
 377              		.fpu neon
 379              	R_INTC_Disable:
 380              		@ args = 0, pretend = 0, frame = 0
 381              		@ frame_needed = 0, uses_anonymous_args = 0
 382              		@ link register save eliminated.
 383 0000 020C50E3 		cmp	r0, #512
 384 0004 1F100032 		andcc	r1, r0, #31
 385 0008 0120A033 		movcc	r2, #1
 386 000c 1221A031 		lslcc	r2, r2, r1
 387 0010 A032A031 		lsrcc	r3, r0, #5
 388 0014 461DA033 		movcc	r1, #4480
 389 0018 0200E023 		mvncs	r0, #2
 390 001c 22184E33 		movtcc	r1, 59426
 391 0020 0000A033 		movcc	r0, #0
 392 0024 03218137 		strcc	r2, [r1, r3, lsl #2]
 393 0028 1EFF2FE1 		bx	lr
 395              		.section	.text.R_INTC_SetPriority,"ax",%progbits
 396              		.align	2
 397              		.global	R_INTC_SetPriority
 398              		.syntax unified
 399              		.arm
 400              		.fpu neon
 402              	R_INTC_SetPriority:
 403              		@ args = 0, pretend = 0, frame = 0
 404              		@ frame_needed = 0, uses_anonymous_args = 0
 405 0000 020C50E3 		cmp	r0, #512
 406 0004 0100003A 		bcc	.L38
 407 0008 0200E0E3 		mvn	r0, #2
 408 000c 1EFF2FE1 		bx	lr
 409              	.L38:
 410 0010 1F0051E3 		cmp	r1, #31
 411 0014 0100009A 		bls	.L46
 412 0018 0100E0E3 		mvn	r0, #1
 413 001c 1EFF2FE1 		bx	lr
 414              	.L46:
 415 0020 032000E2 		and	r2, r0, #3
 416 0024 00C0A0E1 		mov	ip, r0
 417 0028 10402DE9 		push	{r4, lr}
 418 002c 8221A0E1 		lsl	r2, r2, #3
 419 0030 8111A0E1 		lsl	r1, r1, #3
 420 0034 FCEF0FE3 		movw	lr, #65532
 421 0038 050BA0E3 		mov	r0, #5120
 422 003c 0CE00EE0 		and	lr, lr, ip
 423 0040 FF30A0E3 		mov	r3, #255
 424 0044 22084EE3 		movt	r0, 59426
 425 0048 F81001E2 		and	r1, r1, #248
 426 004c 00008EE0 		add	r0, lr, r0
 427 0050 1332A0E1 		lsl	r3, r3, r2
 428 0054 FEFFFFEB 		bl	RZA_IO_RegWrite_32
 429 0058 0000A0E3 		mov	r0, #0
 430 005c 1080BDE8 		pop	{r4, pc}
 432              		.section	.text.R_INTC_GetPriority,"ax",%progbits
 433              		.align	2
 434              		.global	R_INTC_GetPriority
 435              		.syntax unified
 436              		.arm
 437              		.fpu neon
 439              	R_INTC_GetPriority:
 440              		@ args = 0, pretend = 0, frame = 8
 441              		@ frame_needed = 0, uses_anonymous_args = 0
 442 0000 020C50E3 		cmp	r0, #512
 443 0004 0100003A 		bcc	.L61
 444 0008 0200E0E3 		mvn	r0, #2
 445 000c 1EFF2FE1 		bx	lr
 446              	.L61:
 447 0010 000051E3 		cmp	r1, #0
 448 0014 1400000A 		beq	.L62
 449 0018 10402DE9 		push	{r4, lr}
 450 001c 0140A0E1 		mov	r4, r1
 451 0020 031000E2 		and	r1, r0, #3
 452 0024 0030A0E1 		mov	r3, r0
 453 0028 8111A0E1 		lsl	r1, r1, #3
 454 002c FCCF0FE3 		movw	ip, #65532
 455 0030 050BA0E3 		mov	r0, #5120
 456 0034 03C00CE0 		and	ip, ip, r3
 457 0038 FF20A0E3 		mov	r2, #255
 458 003c 22084EE3 		movt	r0, 59426
 459 0040 08D04DE2 		sub	sp, sp, #8
 460 0044 1221A0E1 		lsl	r2, r2, r1
 461 0048 00008CE0 		add	r0, ip, r0
 462 004c FEFFFFEB 		bl	RZA_IO_RegRead_32
 463 0050 04008DE5 		str	r0, [sp, #4]
 464 0054 0000A0E3 		mov	r0, #0
 465 0058 04309DE5 		ldr	r3, [sp, #4]
 466 005c D331E4E7 		ubfx	r3, r3, #3, #5
 467 0060 0030C4E5 		strb	r3, [r4]
 468 0064 08D08DE2 		add	sp, sp, #8
 469              		@ sp needed
 470 0068 1080BDE8 		pop	{r4, pc}
 471              	.L62:
 472 006c 0000E0E3 		mvn	r0, #0
 473 0070 1EFF2FE1 		bx	lr
 475              		.section	.text.R_INTC_SetMaskLevel,"ax",%progbits
 476              		.align	2
 477              		.global	R_INTC_SetMaskLevel
 478              		.syntax unified
 479              		.arm
 480              		.fpu neon
 482              	R_INTC_SetMaskLevel:
 483              		@ args = 0, pretend = 0, frame = 0
 484              		@ frame_needed = 0, uses_anonymous_args = 0
 485 0000 1F0050E3 		cmp	r0, #31
 486 0004 0100009A 		bls	.L64
 487 0008 0100E0E3 		mvn	r0, #1
 488 000c 1EFF2FE1 		bx	lr
 489              	.L64:
 490 0010 8011A0E1 		lsl	r1, r0, #3
 491 0014 040002E3 		movw	r0, #8196
 492 0018 10402DE9 		push	{r4, lr}
 493 001c 0030E0E3 		mvn	r3, #0
 494 0020 22084EE3 		movt	r0, 59426
 495 0024 F81001E2 		and	r1, r1, #248
 496 0028 0020A0E3 		mov	r2, #0
 497 002c FEFFFFEB 		bl	RZA_IO_RegWrite_32
 498 0030 040002E3 		movw	r0, #8196
 499 0034 0020E0E3 		mvn	r2, #0
 500 0038 0010A0E3 		mov	r1, #0
 501 003c 22084EE3 		movt	r0, 59426
 502 0040 FEFFFFEB 		bl	RZA_IO_RegRead_32
 503 0044 0000A0E3 		mov	r0, #0
 504 0048 1080BDE8 		pop	{r4, pc}
 506              		.section	.text.R_INTC_GetMaskLevel,"ax",%progbits
 507              		.align	2
 508              		.global	R_INTC_GetMaskLevel
 509              		.syntax unified
 510              		.arm
 511              		.fpu neon
 513              	R_INTC_GetMaskLevel:
 514              		@ args = 0, pretend = 0, frame = 8
 515              		@ frame_needed = 0, uses_anonymous_args = 0
 516 0000 10402DE9 		push	{r4, lr}
 517 0004 0040A0E1 		mov	r4, r0
 518 0008 040002E3 		movw	r0, #8196
 519 000c 08D04DE2 		sub	sp, sp, #8
 520 0010 0020E0E3 		mvn	r2, #0
 521 0014 0010A0E3 		mov	r1, #0
 522 0018 22084EE3 		movt	r0, 59426
 523 001c FEFFFFEB 		bl	RZA_IO_RegRead_32
 524 0020 0030A0E1 		mov	r3, r0
 525 0024 0000A0E3 		mov	r0, #0
 526 0028 04308DE5 		str	r3, [sp, #4]
 527 002c 04309DE5 		ldr	r3, [sp, #4]
 528 0030 D331E4E7 		ubfx	r3, r3, #3, #5
 529 0034 0030C4E5 		strb	r3, [r4]
 530 0038 08D08DE2 		add	sp, sp, #8
 531              		@ sp needed
 532 003c 1080BDE8 		pop	{r4, pc}
 534              		.section	.text.R_IRQ_SetSense,"ax",%progbits
 535              		.align	2
 536              		.global	R_IRQ_SetSense
 537              		.syntax unified
 538              		.arm
 539              		.fpu neon
 541              	R_IRQ_SetSense:
 542              		@ args = 0, pretend = 0, frame = 0
 543              		@ frame_needed = 0, uses_anonymous_args = 0
 544 0000 070050E3 		cmp	r0, #7
 545 0004 1D00008A 		bhi	.L74
 546 0008 030051E3 		cmp	r1, #3
 547 000c 1900008A 		bhi	.L75
 548 0010 70402DE9 		push	{r4, r5, r6, lr}
 549 0014 0040A0E1 		mov	r4, r0
 550 0018 02080FE3 		movw	r0, #63490
 551 001c 0150A0E1 		mov	r5, r1
 552 0020 8440A0E1 		lsl	r4, r4, #1
 553 0024 0020E0E3 		mvn	r2, #0
 554 0028 0010A0E3 		mov	r1, #0
 555 002c FE0C4FE3 		movt	r0, 64766
 556 0030 FEFFFFEB 		bl	RZA_IO_RegRead_16
 557 0034 03C0A0E3 		mov	ip, #3
 558 0038 0030E0E3 		mvn	r3, #0
 559 003c 1CC4C0E1 		bic	ip, r0, ip, lsl r4
 560 0040 02080FE3 		movw	r0, #63490
 561 0044 FE0C4FE3 		movt	r0, 64766
 562 0048 7CC0FFE6 		uxth	ip, ip
 563 004c 0020A0E3 		mov	r2, #0
 564 0050 15148CE1 		orr	r1, ip, r5, lsl r4
 565 0054 7110FFE6 		uxth	r1, r1
 566 0058 FEFFFFEB 		bl	RZA_IO_RegWrite_16
 567 005c 02080FE3 		movw	r0, #63490
 568 0060 0020E0E3 		mvn	r2, #0
 569 0064 0010A0E3 		mov	r1, #0
 570 0068 FE0C4FE3 		movt	r0, 64766
 571 006c FEFFFFEB 		bl	RZA_IO_RegRead_16
 572 0070 0000A0E3 		mov	r0, #0
 573 0074 7080BDE8 		pop	{r4, r5, r6, pc}
 574              	.L75:
 575 0078 0400E0E3 		mvn	r0, #4
 576 007c 1EFF2FE1 		bx	lr
 577              	.L74:
 578 0080 0300E0E3 		mvn	r0, #3
 579 0084 1EFF2FE1 		bx	lr
 581              		.section	.text.R_IRQ_GetSense,"ax",%progbits
 582              		.align	2
 583              		.global	R_IRQ_GetSense
 584              		.syntax unified
 585              		.arm
 586              		.fpu neon
 588              	R_IRQ_GetSense:
 589              		@ args = 0, pretend = 0, frame = 0
 590              		@ frame_needed = 0, uses_anonymous_args = 0
 591 0000 070050E3 		cmp	r0, #7
 592 0004 0B00008A 		bhi	.L82
 593 0008 10402DE9 		push	{r4, lr}
 594 000c 0140A0E1 		mov	r4, r1
 595 0010 8010A0E1 		lsl	r1, r0, #1
 596 0014 0320A0E3 		mov	r2, #3
 597 0018 02080FE3 		movw	r0, #63490
 598 001c 1221A0E1 		lsl	r2, r2, r1
 599 0020 FE0C4FE3 		movt	r0, 64766
 600 0024 FEFFFFEB 		bl	RZA_IO_RegRead_16
 601 0028 0030A0E3 		mov	r3, #0
 602 002c 0000C4E5 		strb	r0, [r4]
 603 0030 0300A0E1 		mov	r0, r3
 604 0034 1080BDE8 		pop	{r4, pc}
 605              	.L82:
 606 0038 0330E0E3 		mvn	r3, #3
 607 003c 0300A0E1 		mov	r0, r3
 608 0040 1EFF2FE1 		bx	lr
 610              		.section	.text.R_TINT_GetSense,"ax",%progbits
 611              		.align	2
 612              		.global	R_TINT_GetSense
 613              		.syntax unified
 614              		.arm
 615              		.fpu neon
 617              	R_TINT_GetSense:
 618              		@ args = 0, pretend = 0, frame = 0
 619              		@ frame_needed = 0, uses_anonymous_args = 0
 620 0000 1F0050E3 		cmp	r0, #31
 621 0004 1100008A 		bhi	.L90
 622 0008 0F3000E2 		and	r3, r0, #15
 623 000c 0120A0E3 		mov	r2, #1
 624 0010 10402DE9 		push	{r4, lr}
 625 0014 7CCC01E3 		movw	ip, #7292
 626 0018 0140A0E1 		mov	r4, r1
 627 001c 131282E0 		add	r1, r2, r3, lsl r2
 628 0020 783C01E3 		movw	r3, #7288
 629 0024 0F0050E3 		cmp	r0, #15
 630 0028 22C84EE3 		movt	ip, 59426
 631 002c 22384EE3 		movt	r3, 59426
 632 0030 1221A0E1 		lsl	r2, r2, r1
 633 0034 0300A091 		movls	r0, r3
 634 0038 0C00A081 		movhi	r0, ip
 635 003c FEFFFFEB 		bl	RZA_IO_RegRead_32
 636 0040 0030A0E3 		mov	r3, #0
 637 0044 0000C4E5 		strb	r0, [r4]
 638 0048 0300A0E1 		mov	r0, r3
 639 004c 1080BDE8 		pop	{r4, pc}
 640              	.L90:
 641 0050 0330E0E3 		mvn	r3, #3
 642 0054 0300A0E1 		mov	r0, r3
 643 0058 1EFF2FE1 		bx	lr
 645              		.section	.text.R_INTC_GetPendingStatus,"ax",%progbits
 646              		.align	2
 647              		.global	R_INTC_GetPendingStatus
 648              		.syntax unified
 649              		.arm
 650              		.fpu neon
 652              	R_INTC_GetPendingStatus:
 653              		@ args = 0, pretend = 0, frame = 0
 654              		@ frame_needed = 0, uses_anonymous_args = 0
 655 0000 020C50E3 		cmp	r0, #512
 656 0004 0200003A 		bcc	.L97
 657 0008 0230E0E3 		mvn	r3, #2
 658 000c 0300A0E1 		mov	r0, r3
 659 0010 1EFF2FE1 		bx	lr
 660              	.L97:
 661 0014 A0C2A0E1 		lsr	ip, r0, #5
 662 0018 4A3DA0E3 		mov	r3, #4736
 663 001c 10402DE9 		push	{r4, lr}
 664 0020 22384EE3 		movt	r3, 59426
 665 0024 0140A0E1 		mov	r4, r1
 666 0028 0120A0E3 		mov	r2, #1
 667 002c 1F1000E2 		and	r1, r0, #31
 668 0030 1221A0E1 		lsl	r2, r2, r1
 669 0034 0C0183E0 		add	r0, r3, ip, lsl #2
 670 0038 FEFFFFEB 		bl	RZA_IO_RegRead_32
 671 003c 0030A0E3 		mov	r3, #0
 672 0040 0000C4E5 		strb	r0, [r4]
 673 0044 0300A0E1 		mov	r0, r3
 674 0048 1080BDE8 		pop	{r4, pc}
 676              		.section	.text.R_TINT_SetSense,"ax",%progbits
 677              		.align	2
 678              		.global	R_TINT_SetSense
 679              		.syntax unified
 680              		.arm
 681              		.fpu neon
 683              	R_TINT_SetSense:
 684              		@ args = 0, pretend = 0, frame = 0
 685              		@ frame_needed = 0, uses_anonymous_args = 0
 686 0000 1F0050E3 		cmp	r0, #31
 687 0004 2000008A 		bhi	.L108
 688 0008 010051E3 		cmp	r1, #1
 689 000c 1C00008A 		bhi	.L109
 690 0010 70402DE9 		push	{r4, r5, r6, lr}
 691 0014 0130A0E3 		mov	r3, #1
 692 0018 0F5000E2 		and	r5, r0, #15
 693 001c 782C01E3 		movw	r2, #7288
 694 0020 0F0050E3 		cmp	r0, #15
 695 0024 155383E0 		add	r5, r3, r5, lsl r3
 696 0028 22284EE3 		movt	r2, 59426
 697 002c 7C4C01E3 		movw	r4, #7292
 698 0030 1355A0E1 		lsl	r5, r3, r5
 699 0034 22484EE3 		movt	r4, 59426
 700 0038 0240A091 		movls	r4, r2
 701 003c 0160A0E1 		mov	r6, r1
 702 0040 0400A0E1 		mov	r0, r4
 703 0044 0010A0E3 		mov	r1, #0
 704 0048 0020E0E3 		mvn	r2, #0
 705 004c FEFFFFEB 		bl	RZA_IO_RegRead_32
 706 0050 010056E3 		cmp	r6, #1
 707 0054 0030E0E3 		mvn	r3, #0
 708 0058 0510C011 		bicne	r1, r0, r5
 709 005c 00108501 		orreq	r1, r5, r0
 710 0060 0020A0E3 		mov	r2, #0
 711 0064 0400A0E1 		mov	r0, r4
 712 0068 FEFFFFEB 		bl	RZA_IO_RegWrite_32
 713 006c 0400A0E1 		mov	r0, r4
 714 0070 0020E0E3 		mvn	r2, #0
 715 0074 0010A0E3 		mov	r1, #0
 716 0078 FEFFFFEB 		bl	RZA_IO_RegRead_32
 717 007c 0000A0E3 		mov	r0, #0
 718 0080 7080BDE8 		pop	{r4, r5, r6, pc}
 719              	.L109:
 720 0084 0400E0E3 		mvn	r0, #4
 721 0088 1EFF2FE1 		bx	lr
 722              	.L108:
 723 008c 0300E0E3 		mvn	r0, #3
 724 0090 1EFF2FE1 		bx	lr
 726              		.section	.text.R_INTC_GetVersion,"ax",%progbits
 727              		.align	2
 728              		.global	R_INTC_GetVersion
 729              		.syntax unified
 730              		.arm
 731              		.fpu neon
 733              	R_INTC_GetVersion:
 734              		@ args = 0, pretend = 0, frame = 0
 735              		@ frame_needed = 0, uses_anonymous_args = 0
 736 0000 002000E3 		movw	r2, #:lower16:.LC0
 737 0004 04E02DE5 		str	lr, [sp, #-4]!
 738 0008 0030A0E1 		mov	r3, r0
 739 000c 0010A0E3 		mov	r1, #0
 740 0010 002040E3 		movt	r2, #:upper16:.LC0
 741 0014 01E0A0E3 		mov	lr, #1
 742 0018 05C0A0E3 		mov	ip, #5
 743 001c 142080E5 		str	r2, [r0, #20]
 744 0020 0100A0E1 		mov	r0, r1
 745 0024 BEE0C3E1 		strh	lr, [r3, #14]	@ movhi
 746 0028 BCC0C3E1 		strh	ip, [r3, #12]	@ movhi
 747 002c 101083E5 		str	r1, [r3, #16]
 748 0030 04F09DE4 		ldr	pc, [sp], #4
 750              		.section	.text.R_INTC_SetIrqMask,"ax",%progbits
 751              		.align	2
 752              		.global	R_INTC_SetIrqMask
 753              		.syntax unified
 754              		.arm
 755              		.fpu neon
 757              	R_INTC_SetIrqMask:
 758              		@ args = 0, pretend = 0, frame = 0
 759              		@ frame_needed = 0, uses_anonymous_args = 0
 760 0000 10402DE9 		push	{r4, lr}
 761 0004 004050E2 		subs	r4, r0, #0
 762 0008 1000000A 		beq	.L119
 763 000c 010054E3 		cmp	r4, #1
 764 0010 0C00001A 		bne	.L126
 765 0014 04080FE3 		movw	r0, #63492
 766 0018 0410A0E1 		mov	r1, r4
 767 001c FE0C4FE3 		movt	r0, 64766
 768 0020 0239A0E3 		mov	r3, #32768
 769 0024 0F20A0E3 		mov	r2, #15
 770              	.L124:
 771 0028 FEFFFFEB 		bl	RZA_IO_RegWrite_16
 772 002c 04080FE3 		movw	r0, #63492
 773 0030 0020E0E3 		mvn	r2, #0
 774 0034 0010A0E3 		mov	r1, #0
 775 0038 FE0C4FE3 		movt	r0, 64766
 776 003c FEFFFFEB 		bl	RZA_IO_RegRead_16
 777 0040 0000A0E3 		mov	r0, #0
 778 0044 1080BDE8 		pop	{r4, pc}
 779              	.L126:
 780 0048 0000E0E3 		mvn	r0, #0
 781 004c 1080BDE8 		pop	{r4, pc}
 782              	.L119:
 783 0050 04080FE3 		movw	r0, #63492
 784 0054 0239A0E3 		mov	r3, #32768
 785 0058 FE0C4FE3 		movt	r0, 64766
 786 005c 0F20A0E3 		mov	r2, #15
 787 0060 0410A0E1 		mov	r1, r4
 788 0064 EFFFFFEA 		b	.L124
 790              		.section	.text.R_INTC_GetIrqMask,"ax",%progbits
 791              		.align	2
 792              		.global	R_INTC_GetIrqMask
 793              		.syntax unified
 794              		.arm
 795              		.fpu neon
 797              	R_INTC_GetIrqMask:
 798              		@ args = 0, pretend = 0, frame = 0
 799              		@ frame_needed = 0, uses_anonymous_args = 0
 800 0000 10402DE9 		push	{r4, lr}
 801 0004 0040A0E1 		mov	r4, r0
 802 0008 04080FE3 		movw	r0, #63492
 803 000c 0229A0E3 		mov	r2, #32768
 804 0010 0F10A0E3 		mov	r1, #15
 805 0014 FE0C4FE3 		movt	r0, 64766
 806 0018 FEFFFFEB 		bl	RZA_IO_RegRead_16
 807 001c 0000C4E5 		strb	r0, [r4]
 808 0020 0000A0E3 		mov	r0, #0
 809 0024 1080BDE8 		pop	{r4, pc}
 811              		.global	g_intc_func_table
 812              		.section	.bss.g_intc_func_table,"aw",%nobits
 813              		.align	3
 814              		.set	.LANCHOR1,. + 0
 817              	g_intc_func_table:
 818 0000 00000000 		.space	2052
 818      00000000 
 818      00000000 
 818      00000000 
 818      00000000 
 819              		.section	.rodata.R_INTC_GetVersion.str1.4,"aMS",%progbits,1
 820              		.align	2
 821              	.LC0:
 822 0000 4C4C4420 		.ascii	"LLD EBK_RZA2M INTC\000"
 822      45424B5F 
 822      525A4132 
 822      4D20494E 
 822      544300
 823              		.section	.rodata.gs_gicd_icfgrn_table,"a",%progbits
 824              		.align	3
 825              		.set	.LANCHOR0,. + 0
 828              	gs_gicd_icfgrn_table:
 829 0000 AAAAAAAA 		.word	-1431655766
 830 0004 00005455 		.word	1431568384
 831 0008 555555FD 		.word	-44739243
 832 000c FFFFFF7F 		.word	2147483647
 833 0010 55555555 		.word	1431655765
 834 0014 55557FD5 		.word	-713075371
 835 0018 FFFFFFFF 		.word	-1
 836 001c FFFFFFFF 		.word	-1
 837 0020 FFFFFFFF 		.word	-1
 838 0024 FFFFFFFF 		.word	-1
 839 0028 FFFFFFFF 		.word	-1
 840 002c FFFFFFFF 		.word	-1
 841 0030 FFFFFFFF 		.word	-1
 842 0034 FFFFFFFF 		.word	-1
 843 0038 FFFFFFFF 		.word	-1
 844 003c 7FD55F7D 		.word	2103432575
 845 0040 DF7D7D55 		.word	1434287583
 846 0044 7D557D55 		.word	1434277245
 847 0048 7D555555 		.word	1431655805
 848 004c 55555555 		.word	1431655765
 849 0050 555555F5 		.word	-178956971
 850 0054 FFFF5555 		.word	1431699455
 851 0058 555555F5 		.word	-178956971
 852 005c F555DDFF 		.word	-2271755
 853 0060 FFFFFFFF 		.word	-1
 854 0064 FFFFFFFF 		.word	-1
 855 0068 FFFFFFFF 		.word	-1
 856 006c DFFFFF5F 		.word	1610612703
 857 0070 55555555 		.word	1431655765
 858 0074 55555555 		.word	1431655765
 859 0078 55555555 		.word	1431655765
 860 007c 55555555 		.word	1431655765
 861              		.ident	"GCC: (GNU Tools for ARM Embedded Processors 6-2017-q2-update) 6.3.1 20170620 (release) [AR