   1              		.cpu cortex-a9
   2              		.eabi_attribute 28, 1
   3              		.eabi_attribute 20, 1
   4              		.eabi_attribute 21, 1
   5              		.eabi_attribute 23, 3
   6              		.eabi_attribute 24, 1
   7              		.eabi_attribute 25, 1
   8              		.eabi_attribute 26, 1
   9              		.eabi_attribute 30, 2
  10              		.eabi_attribute 34, 0
  11              		.eabi_attribute 18, 4
  12              		.file	"depthwise_conv.cc"
  13              		.text
  14              	.Ltext0:
  15              		.cfi_sections	.debug_frame
  16              		.section	.text._ZN6tflite12_GLOBAL__N_14InitEP13TfLiteContextPKcj,"ax",%progbits
  17              		.align	2
  18              		.syntax unified
  19              		.arm
  20              		.fpu neon
  22              	_ZN6tflite12_GLOBAL__N_14InitEP13TfLiteContextPKcj:
  23              		.fnstart
  24              	.LFB4269:
  25              		.file 1 "../src/tensorflow_lite/tensorflow/lite/micro/kernels/cmsis_nn/depthwise_conv.cc"
   1:../src/tensorflow_lite/tensorflow/lite/micro/kernels/cmsis_nn/depthwise_conv.cc **** /* Copyright 2020 The TensorFlow Authors. All Rights Reserved.
   2:../src/tensorflow_lite/tensorflow/lite/micro/kernels/cmsis_nn/depthwise_conv.cc **** 
   3:../src/tensorflow_lite/tensorflow/lite/micro/kernels/cmsis_nn/depthwise_conv.cc **** Licensed under the Apache License, Version 2.0 (the "License");
   4:../src/tensorflow_lite/tensorflow/lite/micro/kernels/cmsis_nn/depthwise_conv.cc **** you may not use this file except in compliance with the License.
   5:../src/tensorflow_lite/tensorflow/lite/micro/kernels/cmsis_nn/depthwise_conv.cc **** You may obtain a copy of the License at
   6:../src/tensorflow_lite/tensorflow/lite/micro/kernels/cmsis_nn/depthwise_conv.cc **** 
   7:../src/tensorflow_lite/tensorflow/lite/micro/kernels/cmsis_nn/depthwise_conv.cc ****     http://www.apache.org/licenses/LICENSE-2.0
   8:../src/tensorflow_lite/tensorflow/lite/micro/kernels/cmsis_nn/depthwise_conv.cc **** 
   9:../src/tensorflow_lite/tensorflow/lite/micro/kernels/cmsis_nn/depthwise_conv.cc **** Unless required by applicable law or agreed to in writing, software
  10:../src/tensorflow_lite/tensorflow/lite/micro/kernels/cmsis_nn/depthwise_conv.cc **** distributed under the License is distributed on an "AS IS" BASIS,
  11:../src/tensorflow_lite/tensorflow/lite/micro/kernels/cmsis_nn/depthwise_conv.cc **** WITHOUT WARRANTIES OR CONDITIONS OF ANY KIND, either express or implied.
  12:../src/tensorflow_lite/tensorflow/lite/micro/kernels/cmsis_nn/depthwise_conv.cc **** See the License for the specific language governing permissions and
  13:../src/tensorflow_lite/tensorflow/lite/micro/kernels/cmsis_nn/depthwise_conv.cc **** limitations under the License.
  14:../src/tensorflow_lite/tensorflow/lite/micro/kernels/cmsis_nn/depthwise_conv.cc **** ==============================================================================*/
  15:../src/tensorflow_lite/tensorflow/lite/micro/kernels/cmsis_nn/depthwise_conv.cc **** 
  16:../src/tensorflow_lite/tensorflow/lite/micro/kernels/cmsis_nn/depthwise_conv.cc **** #include "tensorflow/lite/micro/kernels/depthwise_conv.h"
  17:../src/tensorflow_lite/tensorflow/lite/micro/kernels/cmsis_nn/depthwise_conv.cc **** 
  18:../src/tensorflow_lite/tensorflow/lite/micro/kernels/cmsis_nn/depthwise_conv.cc **** #include "CMSIS/NN/Include/arm_nnfunctions.h"
  19:../src/tensorflow_lite/tensorflow/lite/micro/kernels/cmsis_nn/depthwise_conv.cc **** #include "tensorflow/lite/c/builtin_op_data.h"
  20:../src/tensorflow_lite/tensorflow/lite/micro/kernels/cmsis_nn/depthwise_conv.cc **** #include "tensorflow/lite/c/common.h"
  21:../src/tensorflow_lite/tensorflow/lite/micro/kernels/cmsis_nn/depthwise_conv.cc **** #include "tensorflow/lite/kernels/internal/common.h"
  22:../src/tensorflow_lite/tensorflow/lite/micro/kernels/cmsis_nn/depthwise_conv.cc **** #include "tensorflow/lite/kernels/internal/quantization_util.h"
  23:../src/tensorflow_lite/tensorflow/lite/micro/kernels/cmsis_nn/depthwise_conv.cc **** #include "tensorflow/lite/kernels/internal/reference/depthwiseconv_float.h"
  24:../src/tensorflow_lite/tensorflow/lite/micro/kernels/cmsis_nn/depthwise_conv.cc **** #include "tensorflow/lite/kernels/internal/reference/depthwiseconv_uint8.h"
  25:../src/tensorflow_lite/tensorflow/lite/micro/kernels/cmsis_nn/depthwise_conv.cc **** #include "tensorflow/lite/kernels/internal/reference/integer_ops/depthwise_conv.h"
  26:../src/tensorflow_lite/tensorflow/lite/micro/kernels/cmsis_nn/depthwise_conv.cc **** #include "tensorflow/lite/kernels/internal/tensor_ctypes.h"
  27:../src/tensorflow_lite/tensorflow/lite/micro/kernels/cmsis_nn/depthwise_conv.cc **** #include "tensorflow/lite/kernels/kernel_util.h"
  28:../src/tensorflow_lite/tensorflow/lite/micro/kernels/cmsis_nn/depthwise_conv.cc **** #include "tensorflow/lite/kernels/padding.h"
  29:../src/tensorflow_lite/tensorflow/lite/micro/kernels/cmsis_nn/depthwise_conv.cc **** #include "tensorflow/lite/micro/kernels/conv.h"
  30:../src/tensorflow_lite/tensorflow/lite/micro/kernels/cmsis_nn/depthwise_conv.cc **** #include "tensorflow/lite/micro/kernels/kernel_util.h"
  31:../src/tensorflow_lite/tensorflow/lite/micro/kernels/cmsis_nn/depthwise_conv.cc **** 
  32:../src/tensorflow_lite/tensorflow/lite/micro/kernels/cmsis_nn/depthwise_conv.cc **** namespace tflite {
  33:../src/tensorflow_lite/tensorflow/lite/micro/kernels/cmsis_nn/depthwise_conv.cc **** namespace {
  34:../src/tensorflow_lite/tensorflow/lite/micro/kernels/cmsis_nn/depthwise_conv.cc **** 
  35:../src/tensorflow_lite/tensorflow/lite/micro/kernels/cmsis_nn/depthwise_conv.cc **** struct OpData {
  36:../src/tensorflow_lite/tensorflow/lite/micro/kernels/cmsis_nn/depthwise_conv.cc ****   OpDataConv reference_op_data;
  37:../src/tensorflow_lite/tensorflow/lite/micro/kernels/cmsis_nn/depthwise_conv.cc **** 
  38:../src/tensorflow_lite/tensorflow/lite/micro/kernels/cmsis_nn/depthwise_conv.cc ****   // Index to buffer for optimizations if applicable.
  39:../src/tensorflow_lite/tensorflow/lite/micro/kernels/cmsis_nn/depthwise_conv.cc ****   int buffer_idx;
  40:../src/tensorflow_lite/tensorflow/lite/micro/kernels/cmsis_nn/depthwise_conv.cc **** };
  41:../src/tensorflow_lite/tensorflow/lite/micro/kernels/cmsis_nn/depthwise_conv.cc **** 
  42:../src/tensorflow_lite/tensorflow/lite/micro/kernels/cmsis_nn/depthwise_conv.cc **** void* Init(TfLiteContext* context, const char* buffer, size_t length) {
  26              		.loc 1 42 0
  27              		.cfi_startproc
  28              		@ args = 0, pretend = 0, frame = 0
  29              		@ frame_needed = 0, uses_anonymous_args = 0
  30              	.LVL0:
  43:../src/tensorflow_lite/tensorflow/lite/micro/kernels/cmsis_nn/depthwise_conv.cc ****   TFLITE_DCHECK(context->AllocatePersistentBuffer != nullptr);
  31              		.loc 1 43 0
  32 0000 383090E5 		ldr	r3, [r0, #56]
  33 0004 000053E3 		cmp	r3, #0
  34 0008 0100000A 		beq	.L7
  44:../src/tensorflow_lite/tensorflow/lite/micro/kernels/cmsis_nn/depthwise_conv.cc ****   return context->AllocatePersistentBuffer(context, sizeof(OpData));
  35              		.loc 1 44 0
  36 000c 3810A0E3 		mov	r1, #56
  37              	.LVL1:
  38 0010 13FF2FE1 		bx	r3
  39              	.LVL2:
  40              	.L7:
  42:../src/tensorflow_lite/tensorflow/lite/micro/kernels/cmsis_nn/depthwise_conv.cc ****   TFLITE_DCHECK(context->AllocatePersistentBuffer != nullptr);
  41              		.loc 1 42 0 discriminator 1
  42 0014 10402DE9 		push	{r4, lr}
  43              		.save {r4, lr}
  44              		.cfi_def_cfa_offset 8
  45              		.cfi_offset 4, -8
  46              		.cfi_offset 14, -4
  43:../src/tensorflow_lite/tensorflow/lite/micro/kernels/cmsis_nn/depthwise_conv.cc ****   TFLITE_DCHECK(context->AllocatePersistentBuffer != nullptr);
  47              		.loc 1 43 0 discriminator 1
  48 0018 FEFFFFEB 		bl	abort
  49              	.LVL3:
  50              		.cfi_endproc
  51              	.LFE4269:
  52              		.fnend
  54              		.section	.text._ZN6tflite12_GLOBAL__N_17PrepareEP13TfLiteContextP10TfLiteNode,"ax",%progbits
  55              		.align	2
  56              		.syntax unified
  57              		.arm
  58              		.fpu neon
  60              	_ZN6tflite12_GLOBAL__N_17PrepareEP13TfLiteContextP10TfLiteNode:
  61              		.fnstart
  62              	.LFB4270:
  45:../src/tensorflow_lite/tensorflow/lite/micro/kernels/cmsis_nn/depthwise_conv.cc **** }
  46:../src/tensorflow_lite/tensorflow/lite/micro/kernels/cmsis_nn/depthwise_conv.cc **** 
  47:../src/tensorflow_lite/tensorflow/lite/micro/kernels/cmsis_nn/depthwise_conv.cc **** TfLiteStatus Prepare(TfLiteContext* context, TfLiteNode* node) {
  63              		.loc 1 47 0
  64              		.cfi_startproc
  65              		.cfi_personality 0,__gxx_personality_v0
  66              		.cfi_lsda 0,.LLSDA4270
  67              		@ args = 0, pretend = 0, frame = 200
  68              		@ frame_needed = 0, uses_anonymous_args = 0
  69              	.LVL4:
  70 0000 F04F2DE9 		push	{r4, r5, r6, r7, r8, r9, r10, fp, lr}
  71              		.save {r4, r5, r6, r7, r8, r9, r10, fp, lr}
  72              		.cfi_def_cfa_offset 36
  73              		.cfi_offset 4, -36
  74              		.cfi_offset 5, -32
  75              		.cfi_offset 6, -28
  76              		.cfi_offset 7, -24
  77              		.cfi_offset 8, -20
  78              		.cfi_offset 9, -16
  79              		.cfi_offset 10, -12
  80              		.cfi_offset 11, -8
  81              		.cfi_offset 14, -4
  82              		.pad #236
  83 0004 ECD04DE2 		sub	sp, sp, #236
  84              		.cfi_def_cfa_offset 272
  48:../src/tensorflow_lite/tensorflow/lite/micro/kernels/cmsis_nn/depthwise_conv.cc ****   TFLITE_DCHECK(node->user_data != nullptr);
  85              		.loc 1 48 0
  86 0008 106091E5 		ldr	r6, [r1, #16]
  87 000c 000056E3 		cmp	r6, #0
  88 0010 5F01000A 		beq	.L10
  49:../src/tensorflow_lite/tensorflow/lite/micro/kernels/cmsis_nn/depthwise_conv.cc ****   TFLITE_DCHECK(node->builtin_data != nullptr);
  89              		.loc 1 49 0
  90 0014 148091E5 		ldr	r8, [r1, #20]
  91 0018 0150A0E1 		mov	r5, r1
  92 001c 000058E3 		cmp	r8, #0
  93 0020 5B01000A 		beq	.L10
  94              	.LVL5:
  50:../src/tensorflow_lite/tensorflow/lite/micro/kernels/cmsis_nn/depthwise_conv.cc **** 
  51:../src/tensorflow_lite/tensorflow/lite/micro/kernels/cmsis_nn/depthwise_conv.cc ****   OpData* data = static_cast<OpData*>(node->user_data);
  52:../src/tensorflow_lite/tensorflow/lite/micro/kernels/cmsis_nn/depthwise_conv.cc ****   const auto& params =
  53:../src/tensorflow_lite/tensorflow/lite/micro/kernels/cmsis_nn/depthwise_conv.cc ****       *(reinterpret_cast<TfLiteDepthwiseConvParams*>(node->builtin_data));
  54:../src/tensorflow_lite/tensorflow/lite/micro/kernels/cmsis_nn/depthwise_conv.cc **** 
  55:../src/tensorflow_lite/tensorflow/lite/micro/kernels/cmsis_nn/depthwise_conv.cc ****   const TfLiteTensor* input =
  56:../src/tensorflow_lite/tensorflow/lite/micro/kernels/cmsis_nn/depthwise_conv.cc ****       GetInput(context, node, kDepthwiseConvInputTensor);
  95              		.loc 1 56 0
  96 0024 003000E3 		movw	r3, #:lower16:_ZN6tflite25kDepthwiseConvInputTensorE
  97 0028 0040A0E1 		mov	r4, r0
  98 002c 003040E3 		movt	r3, #:upper16:_ZN6tflite25kDepthwiseConvInputTensorE
  99 0030 002093E5 		ldr	r2, [r3]
 100              	.LEHB0:
 101 0034 FEFFFFEB 		bl	_ZN6tflite8GetInputEPK13TfLiteContextPK10TfLiteNodei
 102              	.LVL6:
  57:../src/tensorflow_lite/tensorflow/lite/micro/kernels/cmsis_nn/depthwise_conv.cc ****   TF_LITE_ENSURE(context, input != nullptr);
 103              		.loc 1 57 0
 104 0038 007050E2 		subs	r7, r0, #0
 105 003c 8900000A 		beq	.L72
  58:../src/tensorflow_lite/tensorflow/lite/micro/kernels/cmsis_nn/depthwise_conv.cc ****   const TfLiteTensor* filter =
  59:../src/tensorflow_lite/tensorflow/lite/micro/kernels/cmsis_nn/depthwise_conv.cc ****       GetInput(context, node, kDepthwiseConvWeightsTensor);
 106              		.loc 1 59 0
 107 0040 003000E3 		movw	r3, #:lower16:_ZN6tflite27kDepthwiseConvWeightsTensorE
 108 0044 0510A0E1 		mov	r1, r5
 109 0048 003040E3 		movt	r3, #:upper16:_ZN6tflite27kDepthwiseConvWeightsTensorE
 110 004c 0400A0E1 		mov	r0, r4
 111              	.LVL7:
 112 0050 002093E5 		ldr	r2, [r3]
 113 0054 FEFFFFEB 		bl	_ZN6tflite8GetInputEPK13TfLiteContextPK10TfLiteNodei
 114              	.LVL8:
  60:../src/tensorflow_lite/tensorflow/lite/micro/kernels/cmsis_nn/depthwise_conv.cc ****   TF_LITE_ENSURE(context, filter != nullptr);
 115              		.loc 1 60 0
 116 0058 009050E2 		subs	r9, r0, #0
 117 005c 8F00000A 		beq	.L73
  61:../src/tensorflow_lite/tensorflow/lite/micro/kernels/cmsis_nn/depthwise_conv.cc ****   TfLiteTensor* output = GetOutput(context, node, kDepthwiseConvOutputTensor);
 118              		.loc 1 61 0
 119 0060 003000E3 		movw	r3, #:lower16:_ZN6tflite26kDepthwiseConvOutputTensorE
 120 0064 0510A0E1 		mov	r1, r5
 121 0068 003040E3 		movt	r3, #:upper16:_ZN6tflite26kDepthwiseConvOutputTensorE
 122 006c 0400A0E1 		mov	r0, r4
 123              	.LVL9:
 124 0070 002093E5 		ldr	r2, [r3]
 125 0074 FEFFFFEB 		bl	_ZN6tflite9GetOutputEP13TfLiteContextPK10TfLiteNodei
 126              	.LVL10:
  62:../src/tensorflow_lite/tensorflow/lite/micro/kernels/cmsis_nn/depthwise_conv.cc ****   TF_LITE_ENSURE(context, output != nullptr);
 127              		.loc 1 62 0
 128 0078 003050E2 		subs	r3, r0, #0
 129 007c 24308DE5 		str	r3, [sp, #36]
 130 0080 1301000A 		beq	.L74
  63:../src/tensorflow_lite/tensorflow/lite/micro/kernels/cmsis_nn/depthwise_conv.cc **** 
  64:../src/tensorflow_lite/tensorflow/lite/micro/kernels/cmsis_nn/depthwise_conv.cc ****   const TfLiteType data_type = input->type;
 131              		.loc 1 64 0
 132 0084 00A0D7E5 		ldrb	r10, [r7]	@ zero_extendqisi2
 133              	.LVL11:
 134 0088 082099E5 		ldr	r2, [r9, #8]
 135              	.LVL12:
 136              	.LBB449:
  65:../src/tensorflow_lite/tensorflow/lite/micro/kernels/cmsis_nn/depthwise_conv.cc ****   int input_width = SizeOfDimension(input, 2);
  66:../src/tensorflow_lite/tensorflow/lite/micro/kernels/cmsis_nn/depthwise_conv.cc ****   int input_height = SizeOfDimension(input, 1);
  67:../src/tensorflow_lite/tensorflow/lite/micro/kernels/cmsis_nn/depthwise_conv.cc ****   int filter_width = SizeOfDimension(filter, 2);
  68:../src/tensorflow_lite/tensorflow/lite/micro/kernels/cmsis_nn/depthwise_conv.cc ****   int filter_height = SizeOfDimension(filter, 1);
  69:../src/tensorflow_lite/tensorflow/lite/micro/kernels/cmsis_nn/depthwise_conv.cc ****   int output_width = SizeOfDimension(output, 2);
  70:../src/tensorflow_lite/tensorflow/lite/micro/kernels/cmsis_nn/depthwise_conv.cc ****   int output_height = SizeOfDimension(output, 1);
  71:../src/tensorflow_lite/tensorflow/lite/micro/kernels/cmsis_nn/depthwise_conv.cc **** 
  72:../src/tensorflow_lite/tensorflow/lite/micro/kernels/cmsis_nn/depthwise_conv.cc ****   if (input->type == kTfLiteInt8) {
 137              		.loc 1 72 0
 138 008c 09005AE3 		cmp	r10, #9
 139 0090 3600000A 		beq	.L75
 140              	.LVL13:
 141              	.L15:
 142              	.LBE449:
  73:../src/tensorflow_lite/tensorflow/lite/micro/kernels/cmsis_nn/depthwise_conv.cc ****     TF_LITE_ENSURE_EQ(context, filter->quantization.type,
  74:../src/tensorflow_lite/tensorflow/lite/micro/kernels/cmsis_nn/depthwise_conv.cc ****                       kTfLiteAffineQuantization);
  75:../src/tensorflow_lite/tensorflow/lite/micro/kernels/cmsis_nn/depthwise_conv.cc **** 
  76:../src/tensorflow_lite/tensorflow/lite/micro/kernels/cmsis_nn/depthwise_conv.cc ****     // All per-channel quantized tensors need valid zero point and scale arrays.
  77:../src/tensorflow_lite/tensorflow/lite/micro/kernels/cmsis_nn/depthwise_conv.cc ****     const auto* affine_quantization =
  78:../src/tensorflow_lite/tensorflow/lite/micro/kernels/cmsis_nn/depthwise_conv.cc ****         reinterpret_cast<TfLiteAffineQuantization*>(
  79:../src/tensorflow_lite/tensorflow/lite/micro/kernels/cmsis_nn/depthwise_conv.cc ****             filter->quantization.params);
  80:../src/tensorflow_lite/tensorflow/lite/micro/kernels/cmsis_nn/depthwise_conv.cc ****     TF_LITE_ENSURE(context, affine_quantization);
  81:../src/tensorflow_lite/tensorflow/lite/micro/kernels/cmsis_nn/depthwise_conv.cc ****     TF_LITE_ENSURE(context, affine_quantization->scale);
  82:../src/tensorflow_lite/tensorflow/lite/micro/kernels/cmsis_nn/depthwise_conv.cc ****     TF_LITE_ENSURE(context, affine_quantization->zero_point);
  83:../src/tensorflow_lite/tensorflow/lite/micro/kernels/cmsis_nn/depthwise_conv.cc ****     TF_LITE_ENSURE(
  84:../src/tensorflow_lite/tensorflow/lite/micro/kernels/cmsis_nn/depthwise_conv.cc ****         context, affine_quantization->scale->size == 1 ||
  85:../src/tensorflow_lite/tensorflow/lite/micro/kernels/cmsis_nn/depthwise_conv.cc ****                      affine_quantization->scale->size ==
  86:../src/tensorflow_lite/tensorflow/lite/micro/kernels/cmsis_nn/depthwise_conv.cc ****                          filter->dims->data[kDepthwiseConvQuantizedDimension]);
  87:../src/tensorflow_lite/tensorflow/lite/micro/kernels/cmsis_nn/depthwise_conv.cc ****     TF_LITE_ENSURE_EQ(context, affine_quantization->scale->size,
  88:../src/tensorflow_lite/tensorflow/lite/micro/kernels/cmsis_nn/depthwise_conv.cc ****                       affine_quantization->zero_point->size);
  89:../src/tensorflow_lite/tensorflow/lite/micro/kernels/cmsis_nn/depthwise_conv.cc ****   }
  90:../src/tensorflow_lite/tensorflow/lite/micro/kernels/cmsis_nn/depthwise_conv.cc **** 
  91:../src/tensorflow_lite/tensorflow/lite/micro/kernels/cmsis_nn/depthwise_conv.cc ****   // Allocate memory for per-channel quantization parameters
  92:../src/tensorflow_lite/tensorflow/lite/micro/kernels/cmsis_nn/depthwise_conv.cc ****   const int num_channels = filter->dims->data[kDepthwiseConvQuantizedDimension];
 143              		.loc 1 92 0
 144 0094 003000E3 		movw	r3, #:lower16:_ZN6tflite32kDepthwiseConvQuantizedDimensionE
 145 0098 24109DE5 		ldr	r1, [sp, #36]
 146 009c 003040E3 		movt	r3, #:upper16:_ZN6tflite32kDepthwiseConvQuantizedDimensionE
 147 00a0 08C097E5 		ldr	ip, [r7, #8]
 148 00a4 003093E5 		ldr	r3, [r3]
  93:../src/tensorflow_lite/tensorflow/lite/micro/kernels/cmsis_nn/depthwise_conv.cc **** 
  94:../src/tensorflow_lite/tensorflow/lite/micro/kernels/cmsis_nn/depthwise_conv.cc ****   data->reference_op_data.per_channel_output_multiplier =
  95:../src/tensorflow_lite/tensorflow/lite/micro/kernels/cmsis_nn/depthwise_conv.cc ****       reinterpret_cast<int32_t*>(context->AllocatePersistentBuffer(
 149              		.loc 1 95 0
 150 00a8 0400A0E1 		mov	r0, r4
 151 00ac 081091E5 		ldr	r1, [r1, #8]
 152              	.LBB455:
 153              	.LBB456:
 154              		.file 2 "C:/Renesas/e2studio_2021_01_workspace_RZA2M_ANPR/ANPR_RZA2M_GR_MANGO/src/tensorflow_lite/
   1:C:/Renesas/e2studio_2021_01_workspace_RZA2M_ANPR/ANPR_RZA2M_GR_MANGO/src/tensorflow_lite/tensorflow/lite/kernels\kernel_util.h **** /* Copyright 2017 The TensorFlow Authors. All Rights Reserved.
   2:C:/Renesas/e2studio_2021_01_workspace_RZA2M_ANPR/ANPR_RZA2M_GR_MANGO/src/tensorflow_lite/tensorflow/lite/kernels\kernel_util.h **** 
   3:C:/Renesas/e2studio_2021_01_workspace_RZA2M_ANPR/ANPR_RZA2M_GR_MANGO/src/tensorflow_lite/tensorflow/lite/kernels\kernel_util.h **** Licensed under the Apache License, Version 2.0 (the "License");
   4:C:/Renesas/e2studio_2021_01_workspace_RZA2M_ANPR/ANPR_RZA2M_GR_MANGO/src/tensorflow_lite/tensorflow/lite/kernels\kernel_util.h **** you may not use this file except in compliance with the License.
   5:C:/Renesas/e2studio_2021_01_workspace_RZA2M_ANPR/ANPR_RZA2M_GR_MANGO/src/tensorflow_lite/tensorflow/lite/kernels\kernel_util.h **** You may obtain a copy of the License at
   6:C:/Renesas/e2studio_2021_01_workspace_RZA2M_ANPR/ANPR_RZA2M_GR_MANGO/src/tensorflow_lite/tensorflow/lite/kernels\kernel_util.h **** 
   7:C:/Renesas/e2studio_2021_01_workspace_RZA2M_ANPR/ANPR_RZA2M_GR_MANGO/src/tensorflow_lite/tensorflow/lite/kernels\kernel_util.h ****     http://www.apache.org/licenses/LICENSE-2.0
   8:C:/Renesas/e2studio_2021_01_workspace_RZA2M_ANPR/ANPR_RZA2M_GR_MANGO/src/tensorflow_lite/tensorflow/lite/kernels\kernel_util.h **** 
   9:C:/Renesas/e2studio_2021_01_workspace_RZA2M_ANPR/ANPR_RZA2M_GR_MANGO/src/tensorflow_lite/tensorflow/lite/kernels\kernel_util.h **** Unless required by applicable law or agreed to in writing, software
  10:C:/Renesas/e2studio_2021_01_workspace_RZA2M_ANPR/ANPR_RZA2M_GR_MANGO/src/tensorflow_lite/tensorflow/lite/kernels\kernel_util.h **** distributed under the License is distributed on an "AS IS" BASIS,
  11:C:/Renesas/e2studio_2021_01_workspace_RZA2M_ANPR/ANPR_RZA2M_GR_MANGO/src/tensorflow_lite/tensorflow/lite/kernels\kernel_util.h **** WITHOUT WARRANTIES OR CONDITIONS OF ANY KIND, either express or implied.
  12:C:/Renesas/e2studio_2021_01_workspace_RZA2M_ANPR/ANPR_RZA2M_GR_MANGO/src/tensorflow_lite/tensorflow/lite/kernels\kernel_util.h **** See the License for the specific language governing permissions and
  13:C:/Renesas/e2studio_2021_01_workspace_RZA2M_ANPR/ANPR_RZA2M_GR_MANGO/src/tensorflow_lite/tensorflow/lite/kernels\kernel_util.h **** limitations under the License.
  14:C:/Renesas/e2studio_2021_01_workspace_RZA2M_ANPR/ANPR_RZA2M_GR_MANGO/src/tensorflow_lite/tensorflow/lite/kernels\kernel_util.h **** ==============================================================================*/
  15:C:/Renesas/e2studio_2021_01_workspace_RZA2M_ANPR/ANPR_RZA2M_GR_MANGO/src/tensorflow_lite/tensorflow/lite/kernels\kernel_util.h **** #ifndef TENSORFLOW_LITE_KERNELS_KERNEL_UTIL_H_
  16:C:/Renesas/e2studio_2021_01_workspace_RZA2M_ANPR/ANPR_RZA2M_GR_MANGO/src/tensorflow_lite/tensorflow/lite/kernels\kernel_util.h **** #define TENSORFLOW_LITE_KERNELS_KERNEL_UTIL_H_
  17:C:/Renesas/e2studio_2021_01_workspace_RZA2M_ANPR/ANPR_RZA2M_GR_MANGO/src/tensorflow_lite/tensorflow/lite/kernels\kernel_util.h **** 
  18:C:/Renesas/e2studio_2021_01_workspace_RZA2M_ANPR/ANPR_RZA2M_GR_MANGO/src/tensorflow_lite/tensorflow/lite/kernels\kernel_util.h **** #include <stdint.h>
  19:C:/Renesas/e2studio_2021_01_workspace_RZA2M_ANPR/ANPR_RZA2M_GR_MANGO/src/tensorflow_lite/tensorflow/lite/kernels\kernel_util.h **** 
  20:C:/Renesas/e2studio_2021_01_workspace_RZA2M_ANPR/ANPR_RZA2M_GR_MANGO/src/tensorflow_lite/tensorflow/lite/kernels\kernel_util.h **** #include <limits>
  21:C:/Renesas/e2studio_2021_01_workspace_RZA2M_ANPR/ANPR_RZA2M_GR_MANGO/src/tensorflow_lite/tensorflow/lite/kernels\kernel_util.h **** 
  22:C:/Renesas/e2studio_2021_01_workspace_RZA2M_ANPR/ANPR_RZA2M_GR_MANGO/src/tensorflow_lite/tensorflow/lite/kernels\kernel_util.h **** #include "tensorflow/lite/c/builtin_op_data.h"
  23:C:/Renesas/e2studio_2021_01_workspace_RZA2M_ANPR/ANPR_RZA2M_GR_MANGO/src/tensorflow_lite/tensorflow/lite/kernels\kernel_util.h **** #include "tensorflow/lite/c/common.h"
  24:C:/Renesas/e2studio_2021_01_workspace_RZA2M_ANPR/ANPR_RZA2M_GR_MANGO/src/tensorflow_lite/tensorflow/lite/kernels\kernel_util.h **** 
  25:C:/Renesas/e2studio_2021_01_workspace_RZA2M_ANPR/ANPR_RZA2M_GR_MANGO/src/tensorflow_lite/tensorflow/lite/kernels\kernel_util.h **** namespace tflite {
  26:C:/Renesas/e2studio_2021_01_workspace_RZA2M_ANPR/ANPR_RZA2M_GR_MANGO/src/tensorflow_lite/tensorflow/lite/kernels\kernel_util.h **** 
  27:C:/Renesas/e2studio_2021_01_workspace_RZA2M_ANPR/ANPR_RZA2M_GR_MANGO/src/tensorflow_lite/tensorflow/lite/kernels\kernel_util.h **** // A fair number of functions in this header have historically been inline.
  28:C:/Renesas/e2studio_2021_01_workspace_RZA2M_ANPR/ANPR_RZA2M_GR_MANGO/src/tensorflow_lite/tensorflow/lite/kernels\kernel_util.h **** // It is ok to change functions to not be inline if the latency with
  29:C:/Renesas/e2studio_2021_01_workspace_RZA2M_ANPR/ANPR_RZA2M_GR_MANGO/src/tensorflow_lite/tensorflow/lite/kernels\kernel_util.h **** // benchmark_model for MobileNet + MobileBERT is unaffected. If such a change is
  30:C:/Renesas/e2studio_2021_01_workspace_RZA2M_ANPR/ANPR_RZA2M_GR_MANGO/src/tensorflow_lite/tensorflow/lite/kernels\kernel_util.h **** // made, move the newly non-inlined function declarations to the top of this
  31:C:/Renesas/e2studio_2021_01_workspace_RZA2M_ANPR/ANPR_RZA2M_GR_MANGO/src/tensorflow_lite/tensorflow/lite/kernels\kernel_util.h **** // header file.
  32:C:/Renesas/e2studio_2021_01_workspace_RZA2M_ANPR/ANPR_RZA2M_GR_MANGO/src/tensorflow_lite/tensorflow/lite/kernels\kernel_util.h **** 
  33:C:/Renesas/e2studio_2021_01_workspace_RZA2M_ANPR/ANPR_RZA2M_GR_MANGO/src/tensorflow_lite/tensorflow/lite/kernels\kernel_util.h **** // Note: You must check if result is not null:
  34:C:/Renesas/e2studio_2021_01_workspace_RZA2M_ANPR/ANPR_RZA2M_GR_MANGO/src/tensorflow_lite/tensorflow/lite/kernels\kernel_util.h **** //
  35:C:/Renesas/e2studio_2021_01_workspace_RZA2M_ANPR/ANPR_RZA2M_GR_MANGO/src/tensorflow_lite/tensorflow/lite/kernels\kernel_util.h **** //   TfLiteTensor* my_tensor = GetInput(context, node, kMyTensorIdx);
  36:C:/Renesas/e2studio_2021_01_workspace_RZA2M_ANPR/ANPR_RZA2M_GR_MANGO/src/tensorflow_lite/tensorflow/lite/kernels\kernel_util.h **** //   TF_LITE_ENSURE(context, my_tensor != nullptr);
  37:C:/Renesas/e2studio_2021_01_workspace_RZA2M_ANPR/ANPR_RZA2M_GR_MANGO/src/tensorflow_lite/tensorflow/lite/kernels\kernel_util.h **** //
  38:C:/Renesas/e2studio_2021_01_workspace_RZA2M_ANPR/ANPR_RZA2M_GR_MANGO/src/tensorflow_lite/tensorflow/lite/kernels\kernel_util.h **** // This is because the index might point to the optional tensor constant
  39:C:/Renesas/e2studio_2021_01_workspace_RZA2M_ANPR/ANPR_RZA2M_GR_MANGO/src/tensorflow_lite/tensorflow/lite/kernels\kernel_util.h **** // (kTfLiteOptionalTensor) in which case there is no tensor to return.
  40:C:/Renesas/e2studio_2021_01_workspace_RZA2M_ANPR/ANPR_RZA2M_GR_MANGO/src/tensorflow_lite/tensorflow/lite/kernels\kernel_util.h **** const TfLiteTensor* GetInput(const TfLiteContext* context,
  41:C:/Renesas/e2studio_2021_01_workspace_RZA2M_ANPR/ANPR_RZA2M_GR_MANGO/src/tensorflow_lite/tensorflow/lite/kernels\kernel_util.h ****                              const TfLiteNode* node, int index);
  42:C:/Renesas/e2studio_2021_01_workspace_RZA2M_ANPR/ANPR_RZA2M_GR_MANGO/src/tensorflow_lite/tensorflow/lite/kernels\kernel_util.h **** 
  43:C:/Renesas/e2studio_2021_01_workspace_RZA2M_ANPR/ANPR_RZA2M_GR_MANGO/src/tensorflow_lite/tensorflow/lite/kernels\kernel_util.h **** // Same as `GetInput` but returns boolean and uses output argument for tensor.
  44:C:/Renesas/e2studio_2021_01_workspace_RZA2M_ANPR/ANPR_RZA2M_GR_MANGO/src/tensorflow_lite/tensorflow/lite/kernels\kernel_util.h **** //
  45:C:/Renesas/e2studio_2021_01_workspace_RZA2M_ANPR/ANPR_RZA2M_GR_MANGO/src/tensorflow_lite/tensorflow/lite/kernels\kernel_util.h **** //   TfLiteTensor* my_tensor;
  46:C:/Renesas/e2studio_2021_01_workspace_RZA2M_ANPR/ANPR_RZA2M_GR_MANGO/src/tensorflow_lite/tensorflow/lite/kernels\kernel_util.h **** //   TF_LITE_ENSURE_OK(context,
  47:C:/Renesas/e2studio_2021_01_workspace_RZA2M_ANPR/ANPR_RZA2M_GR_MANGO/src/tensorflow_lite/tensorflow/lite/kernels\kernel_util.h **** //                     GetInputSafe(context, node, kMyTensorIdx, &my_tensor));
  48:C:/Renesas/e2studio_2021_01_workspace_RZA2M_ANPR/ANPR_RZA2M_GR_MANGO/src/tensorflow_lite/tensorflow/lite/kernels\kernel_util.h **** //   // can use my_tensor directly from here onwards, it is not nullptr
  49:C:/Renesas/e2studio_2021_01_workspace_RZA2M_ANPR/ANPR_RZA2M_GR_MANGO/src/tensorflow_lite/tensorflow/lite/kernels\kernel_util.h **** //
  50:C:/Renesas/e2studio_2021_01_workspace_RZA2M_ANPR/ANPR_RZA2M_GR_MANGO/src/tensorflow_lite/tensorflow/lite/kernels\kernel_util.h **** // Should be used in cases where the binary size is too large.
  51:C:/Renesas/e2studio_2021_01_workspace_RZA2M_ANPR/ANPR_RZA2M_GR_MANGO/src/tensorflow_lite/tensorflow/lite/kernels\kernel_util.h **** TfLiteStatus GetInputSafe(const TfLiteContext* context, const TfLiteNode* node,
  52:C:/Renesas/e2studio_2021_01_workspace_RZA2M_ANPR/ANPR_RZA2M_GR_MANGO/src/tensorflow_lite/tensorflow/lite/kernels\kernel_util.h ****                           int index, const TfLiteTensor** tensor);
  53:C:/Renesas/e2studio_2021_01_workspace_RZA2M_ANPR/ANPR_RZA2M_GR_MANGO/src/tensorflow_lite/tensorflow/lite/kernels\kernel_util.h **** 
  54:C:/Renesas/e2studio_2021_01_workspace_RZA2M_ANPR/ANPR_RZA2M_GR_MANGO/src/tensorflow_lite/tensorflow/lite/kernels\kernel_util.h **** // Note: You must check if result is not null:
  55:C:/Renesas/e2studio_2021_01_workspace_RZA2M_ANPR/ANPR_RZA2M_GR_MANGO/src/tensorflow_lite/tensorflow/lite/kernels\kernel_util.h **** //
  56:C:/Renesas/e2studio_2021_01_workspace_RZA2M_ANPR/ANPR_RZA2M_GR_MANGO/src/tensorflow_lite/tensorflow/lite/kernels\kernel_util.h **** //   TfLiteTensor* my_tensor = GetVariableInput(context, node, kMyTensorIdx);
  57:C:/Renesas/e2studio_2021_01_workspace_RZA2M_ANPR/ANPR_RZA2M_GR_MANGO/src/tensorflow_lite/tensorflow/lite/kernels\kernel_util.h **** //   TF_LITE_ENSURE(context, my_tensor != nullptr);
  58:C:/Renesas/e2studio_2021_01_workspace_RZA2M_ANPR/ANPR_RZA2M_GR_MANGO/src/tensorflow_lite/tensorflow/lite/kernels\kernel_util.h **** //
  59:C:/Renesas/e2studio_2021_01_workspace_RZA2M_ANPR/ANPR_RZA2M_GR_MANGO/src/tensorflow_lite/tensorflow/lite/kernels\kernel_util.h **** // This is because the index might point to the optional tensor constant
  60:C:/Renesas/e2studio_2021_01_workspace_RZA2M_ANPR/ANPR_RZA2M_GR_MANGO/src/tensorflow_lite/tensorflow/lite/kernels\kernel_util.h **** // (kTfLiteOptionalTensor) in which case there is no tensor to return.
  61:C:/Renesas/e2studio_2021_01_workspace_RZA2M_ANPR/ANPR_RZA2M_GR_MANGO/src/tensorflow_lite/tensorflow/lite/kernels\kernel_util.h **** TfLiteTensor* GetVariableInput(TfLiteContext* context, const TfLiteNode* node,
  62:C:/Renesas/e2studio_2021_01_workspace_RZA2M_ANPR/ANPR_RZA2M_GR_MANGO/src/tensorflow_lite/tensorflow/lite/kernels\kernel_util.h ****                                int index);
  63:C:/Renesas/e2studio_2021_01_workspace_RZA2M_ANPR/ANPR_RZA2M_GR_MANGO/src/tensorflow_lite/tensorflow/lite/kernels\kernel_util.h **** 
  64:C:/Renesas/e2studio_2021_01_workspace_RZA2M_ANPR/ANPR_RZA2M_GR_MANGO/src/tensorflow_lite/tensorflow/lite/kernels\kernel_util.h **** // Note: You must check if result is not null:
  65:C:/Renesas/e2studio_2021_01_workspace_RZA2M_ANPR/ANPR_RZA2M_GR_MANGO/src/tensorflow_lite/tensorflow/lite/kernels\kernel_util.h **** //
  66:C:/Renesas/e2studio_2021_01_workspace_RZA2M_ANPR/ANPR_RZA2M_GR_MANGO/src/tensorflow_lite/tensorflow/lite/kernels\kernel_util.h **** //   TfLiteTensor* my_tensor = GetOutput(context, node, kMyTensorIdx);
  67:C:/Renesas/e2studio_2021_01_workspace_RZA2M_ANPR/ANPR_RZA2M_GR_MANGO/src/tensorflow_lite/tensorflow/lite/kernels\kernel_util.h **** //   TF_LITE_ENSURE(context, my_tensor != nullptr);
  68:C:/Renesas/e2studio_2021_01_workspace_RZA2M_ANPR/ANPR_RZA2M_GR_MANGO/src/tensorflow_lite/tensorflow/lite/kernels\kernel_util.h **** //
  69:C:/Renesas/e2studio_2021_01_workspace_RZA2M_ANPR/ANPR_RZA2M_GR_MANGO/src/tensorflow_lite/tensorflow/lite/kernels\kernel_util.h **** // This is because the index might point to the optional tensor constant
  70:C:/Renesas/e2studio_2021_01_workspace_RZA2M_ANPR/ANPR_RZA2M_GR_MANGO/src/tensorflow_lite/tensorflow/lite/kernels\kernel_util.h **** // (kTfLiteOptionalTensor) in which case there is no tensor to return.
  71:C:/Renesas/e2studio_2021_01_workspace_RZA2M_ANPR/ANPR_RZA2M_GR_MANGO/src/tensorflow_lite/tensorflow/lite/kernels\kernel_util.h **** TfLiteTensor* GetOutput(TfLiteContext* context, const TfLiteNode* node,
  72:C:/Renesas/e2studio_2021_01_workspace_RZA2M_ANPR/ANPR_RZA2M_GR_MANGO/src/tensorflow_lite/tensorflow/lite/kernels\kernel_util.h ****                         int index);
  73:C:/Renesas/e2studio_2021_01_workspace_RZA2M_ANPR/ANPR_RZA2M_GR_MANGO/src/tensorflow_lite/tensorflow/lite/kernels\kernel_util.h **** 
  74:C:/Renesas/e2studio_2021_01_workspace_RZA2M_ANPR/ANPR_RZA2M_GR_MANGO/src/tensorflow_lite/tensorflow/lite/kernels\kernel_util.h **** // Same as `GetOutput` but returns boolean and uses output argument for tensor.
  75:C:/Renesas/e2studio_2021_01_workspace_RZA2M_ANPR/ANPR_RZA2M_GR_MANGO/src/tensorflow_lite/tensorflow/lite/kernels\kernel_util.h **** //
  76:C:/Renesas/e2studio_2021_01_workspace_RZA2M_ANPR/ANPR_RZA2M_GR_MANGO/src/tensorflow_lite/tensorflow/lite/kernels\kernel_util.h **** //   TfLiteTensor* my_tensor;
  77:C:/Renesas/e2studio_2021_01_workspace_RZA2M_ANPR/ANPR_RZA2M_GR_MANGO/src/tensorflow_lite/tensorflow/lite/kernels\kernel_util.h **** //   TF_LITE_ENSURE_OK(context,
  78:C:/Renesas/e2studio_2021_01_workspace_RZA2M_ANPR/ANPR_RZA2M_GR_MANGO/src/tensorflow_lite/tensorflow/lite/kernels\kernel_util.h **** //                     GetOutputSafe(context, node, kMyTensorIdx, &my_tensor));
  79:C:/Renesas/e2studio_2021_01_workspace_RZA2M_ANPR/ANPR_RZA2M_GR_MANGO/src/tensorflow_lite/tensorflow/lite/kernels\kernel_util.h **** //   // can use my_tensor directly from here onwards, it is not nullptr
  80:C:/Renesas/e2studio_2021_01_workspace_RZA2M_ANPR/ANPR_RZA2M_GR_MANGO/src/tensorflow_lite/tensorflow/lite/kernels\kernel_util.h **** //
  81:C:/Renesas/e2studio_2021_01_workspace_RZA2M_ANPR/ANPR_RZA2M_GR_MANGO/src/tensorflow_lite/tensorflow/lite/kernels\kernel_util.h **** // Should be used in cases where the binary size is too large.
  82:C:/Renesas/e2studio_2021_01_workspace_RZA2M_ANPR/ANPR_RZA2M_GR_MANGO/src/tensorflow_lite/tensorflow/lite/kernels\kernel_util.h **** TfLiteStatus GetOutputSafe(const TfLiteContext* context, const TfLiteNode* node,
  83:C:/Renesas/e2studio_2021_01_workspace_RZA2M_ANPR/ANPR_RZA2M_GR_MANGO/src/tensorflow_lite/tensorflow/lite/kernels\kernel_util.h ****                            int index, TfLiteTensor** tensor);
  84:C:/Renesas/e2studio_2021_01_workspace_RZA2M_ANPR/ANPR_RZA2M_GR_MANGO/src/tensorflow_lite/tensorflow/lite/kernels\kernel_util.h **** 
  85:C:/Renesas/e2studio_2021_01_workspace_RZA2M_ANPR/ANPR_RZA2M_GR_MANGO/src/tensorflow_lite/tensorflow/lite/kernels\kernel_util.h **** // Note: You must check if result is not null:
  86:C:/Renesas/e2studio_2021_01_workspace_RZA2M_ANPR/ANPR_RZA2M_GR_MANGO/src/tensorflow_lite/tensorflow/lite/kernels\kernel_util.h **** //
  87:C:/Renesas/e2studio_2021_01_workspace_RZA2M_ANPR/ANPR_RZA2M_GR_MANGO/src/tensorflow_lite/tensorflow/lite/kernels\kernel_util.h **** //   TfLiteTensor* my_tensor = GetOptionalInputTensor(context, node, kIdx);
  88:C:/Renesas/e2studio_2021_01_workspace_RZA2M_ANPR/ANPR_RZA2M_GR_MANGO/src/tensorflow_lite/tensorflow/lite/kernels\kernel_util.h **** //   TF_LITE_ENSURE(context, my_tensor != nullptr);
  89:C:/Renesas/e2studio_2021_01_workspace_RZA2M_ANPR/ANPR_RZA2M_GR_MANGO/src/tensorflow_lite/tensorflow/lite/kernels\kernel_util.h **** //
  90:C:/Renesas/e2studio_2021_01_workspace_RZA2M_ANPR/ANPR_RZA2M_GR_MANGO/src/tensorflow_lite/tensorflow/lite/kernels\kernel_util.h **** // This is because the index might point to the optional tensor constant
  91:C:/Renesas/e2studio_2021_01_workspace_RZA2M_ANPR/ANPR_RZA2M_GR_MANGO/src/tensorflow_lite/tensorflow/lite/kernels\kernel_util.h **** // (kTfLiteOptionalTensor) in which case there is no tensor to return.
  92:C:/Renesas/e2studio_2021_01_workspace_RZA2M_ANPR/ANPR_RZA2M_GR_MANGO/src/tensorflow_lite/tensorflow/lite/kernels\kernel_util.h **** //
  93:C:/Renesas/e2studio_2021_01_workspace_RZA2M_ANPR/ANPR_RZA2M_GR_MANGO/src/tensorflow_lite/tensorflow/lite/kernels\kernel_util.h **** // Deprecated. GetInput has the same functionality.
  94:C:/Renesas/e2studio_2021_01_workspace_RZA2M_ANPR/ANPR_RZA2M_GR_MANGO/src/tensorflow_lite/tensorflow/lite/kernels\kernel_util.h **** const TfLiteTensor* GetOptionalInputTensor(const TfLiteContext* context,
  95:C:/Renesas/e2studio_2021_01_workspace_RZA2M_ANPR/ANPR_RZA2M_GR_MANGO/src/tensorflow_lite/tensorflow/lite/kernels\kernel_util.h ****                                            const TfLiteNode* node, int index);
  96:C:/Renesas/e2studio_2021_01_workspace_RZA2M_ANPR/ANPR_RZA2M_GR_MANGO/src/tensorflow_lite/tensorflow/lite/kernels\kernel_util.h **** 
  97:C:/Renesas/e2studio_2021_01_workspace_RZA2M_ANPR/ANPR_RZA2M_GR_MANGO/src/tensorflow_lite/tensorflow/lite/kernels\kernel_util.h **** #ifndef TF_LITE_STATIC_MEMORY
  98:C:/Renesas/e2studio_2021_01_workspace_RZA2M_ANPR/ANPR_RZA2M_GR_MANGO/src/tensorflow_lite/tensorflow/lite/kernels\kernel_util.h **** // Note: You must check if result is not null:
  99:C:/Renesas/e2studio_2021_01_workspace_RZA2M_ANPR/ANPR_RZA2M_GR_MANGO/src/tensorflow_lite/tensorflow/lite/kernels\kernel_util.h **** //
 100:C:/Renesas/e2studio_2021_01_workspace_RZA2M_ANPR/ANPR_RZA2M_GR_MANGO/src/tensorflow_lite/tensorflow/lite/kernels\kernel_util.h **** //   TfLiteTensor* my_tensor = GetTemporary(context, node, kMyTensorIdx);
 101:C:/Renesas/e2studio_2021_01_workspace_RZA2M_ANPR/ANPR_RZA2M_GR_MANGO/src/tensorflow_lite/tensorflow/lite/kernels\kernel_util.h **** //   TF_LITE_ENSURE(context, my_tensor != nullptr);
 102:C:/Renesas/e2studio_2021_01_workspace_RZA2M_ANPR/ANPR_RZA2M_GR_MANGO/src/tensorflow_lite/tensorflow/lite/kernels\kernel_util.h **** //
 103:C:/Renesas/e2studio_2021_01_workspace_RZA2M_ANPR/ANPR_RZA2M_GR_MANGO/src/tensorflow_lite/tensorflow/lite/kernels\kernel_util.h **** // This is because the index might point to the optional tensor constant
 104:C:/Renesas/e2studio_2021_01_workspace_RZA2M_ANPR/ANPR_RZA2M_GR_MANGO/src/tensorflow_lite/tensorflow/lite/kernels\kernel_util.h **** // (kTfLiteOptionalTensor) in which case there is no tensor to return.
 105:C:/Renesas/e2studio_2021_01_workspace_RZA2M_ANPR/ANPR_RZA2M_GR_MANGO/src/tensorflow_lite/tensorflow/lite/kernels\kernel_util.h **** TfLiteTensor* GetTemporary(TfLiteContext* context, const TfLiteNode* node,
 106:C:/Renesas/e2studio_2021_01_workspace_RZA2M_ANPR/ANPR_RZA2M_GR_MANGO/src/tensorflow_lite/tensorflow/lite/kernels\kernel_util.h ****                            int index);
 107:C:/Renesas/e2studio_2021_01_workspace_RZA2M_ANPR/ANPR_RZA2M_GR_MANGO/src/tensorflow_lite/tensorflow/lite/kernels\kernel_util.h **** 
 108:C:/Renesas/e2studio_2021_01_workspace_RZA2M_ANPR/ANPR_RZA2M_GR_MANGO/src/tensorflow_lite/tensorflow/lite/kernels\kernel_util.h **** // Same as `GetTemporary` but returns boolean and uses output argument for
 109:C:/Renesas/e2studio_2021_01_workspace_RZA2M_ANPR/ANPR_RZA2M_GR_MANGO/src/tensorflow_lite/tensorflow/lite/kernels\kernel_util.h **** // tensor.
 110:C:/Renesas/e2studio_2021_01_workspace_RZA2M_ANPR/ANPR_RZA2M_GR_MANGO/src/tensorflow_lite/tensorflow/lite/kernels\kernel_util.h **** //
 111:C:/Renesas/e2studio_2021_01_workspace_RZA2M_ANPR/ANPR_RZA2M_GR_MANGO/src/tensorflow_lite/tensorflow/lite/kernels\kernel_util.h **** //   TfLiteTensor* my_tensor;
 112:C:/Renesas/e2studio_2021_01_workspace_RZA2M_ANPR/ANPR_RZA2M_GR_MANGO/src/tensorflow_lite/tensorflow/lite/kernels\kernel_util.h **** //   TF_LITE_ENSURE_OK(context,
 113:C:/Renesas/e2studio_2021_01_workspace_RZA2M_ANPR/ANPR_RZA2M_GR_MANGO/src/tensorflow_lite/tensorflow/lite/kernels\kernel_util.h **** //                     GetTemporarySafe(context, node, kMyTensorIdx,
 114:C:/Renesas/e2studio_2021_01_workspace_RZA2M_ANPR/ANPR_RZA2M_GR_MANGO/src/tensorflow_lite/tensorflow/lite/kernels\kernel_util.h **** //                     &my_tensor));
 115:C:/Renesas/e2studio_2021_01_workspace_RZA2M_ANPR/ANPR_RZA2M_GR_MANGO/src/tensorflow_lite/tensorflow/lite/kernels\kernel_util.h **** //   // can use my_tensor directly from here onwards, it is not nullptr
 116:C:/Renesas/e2studio_2021_01_workspace_RZA2M_ANPR/ANPR_RZA2M_GR_MANGO/src/tensorflow_lite/tensorflow/lite/kernels\kernel_util.h **** //
 117:C:/Renesas/e2studio_2021_01_workspace_RZA2M_ANPR/ANPR_RZA2M_GR_MANGO/src/tensorflow_lite/tensorflow/lite/kernels\kernel_util.h **** // Should be used in cases where the binary size is too large.
 118:C:/Renesas/e2studio_2021_01_workspace_RZA2M_ANPR/ANPR_RZA2M_GR_MANGO/src/tensorflow_lite/tensorflow/lite/kernels\kernel_util.h **** TfLiteStatus GetTemporarySafe(const TfLiteContext* context,
 119:C:/Renesas/e2studio_2021_01_workspace_RZA2M_ANPR/ANPR_RZA2M_GR_MANGO/src/tensorflow_lite/tensorflow/lite/kernels\kernel_util.h ****                               const TfLiteNode* node, int index,
 120:C:/Renesas/e2studio_2021_01_workspace_RZA2M_ANPR/ANPR_RZA2M_GR_MANGO/src/tensorflow_lite/tensorflow/lite/kernels\kernel_util.h ****                               TfLiteTensor** tensor);
 121:C:/Renesas/e2studio_2021_01_workspace_RZA2M_ANPR/ANPR_RZA2M_GR_MANGO/src/tensorflow_lite/tensorflow/lite/kernels\kernel_util.h **** 
 122:C:/Renesas/e2studio_2021_01_workspace_RZA2M_ANPR/ANPR_RZA2M_GR_MANGO/src/tensorflow_lite/tensorflow/lite/kernels\kernel_util.h **** // Note: You must check if result is not null:
 123:C:/Renesas/e2studio_2021_01_workspace_RZA2M_ANPR/ANPR_RZA2M_GR_MANGO/src/tensorflow_lite/tensorflow/lite/kernels\kernel_util.h **** //
 124:C:/Renesas/e2studio_2021_01_workspace_RZA2M_ANPR/ANPR_RZA2M_GR_MANGO/src/tensorflow_lite/tensorflow/lite/kernels\kernel_util.h **** //   TfLiteTensor* my_tensor = GetIntermediates(context, node, kMyTensorIdx);
 125:C:/Renesas/e2studio_2021_01_workspace_RZA2M_ANPR/ANPR_RZA2M_GR_MANGO/src/tensorflow_lite/tensorflow/lite/kernels\kernel_util.h **** //   TF_LITE_ENSURE(context, my_tensor != nullptr);
 126:C:/Renesas/e2studio_2021_01_workspace_RZA2M_ANPR/ANPR_RZA2M_GR_MANGO/src/tensorflow_lite/tensorflow/lite/kernels\kernel_util.h **** //
 127:C:/Renesas/e2studio_2021_01_workspace_RZA2M_ANPR/ANPR_RZA2M_GR_MANGO/src/tensorflow_lite/tensorflow/lite/kernels\kernel_util.h **** // This is because the index might point to the optional tensor constant
 128:C:/Renesas/e2studio_2021_01_workspace_RZA2M_ANPR/ANPR_RZA2M_GR_MANGO/src/tensorflow_lite/tensorflow/lite/kernels\kernel_util.h **** // (kTfLiteOptionalTensor) in which case there is no tensor to return.
 129:C:/Renesas/e2studio_2021_01_workspace_RZA2M_ANPR/ANPR_RZA2M_GR_MANGO/src/tensorflow_lite/tensorflow/lite/kernels\kernel_util.h **** const TfLiteTensor* GetIntermediates(TfLiteContext* context,
 130:C:/Renesas/e2studio_2021_01_workspace_RZA2M_ANPR/ANPR_RZA2M_GR_MANGO/src/tensorflow_lite/tensorflow/lite/kernels\kernel_util.h ****                                      const TfLiteNode* node, int index);
 131:C:/Renesas/e2studio_2021_01_workspace_RZA2M_ANPR/ANPR_RZA2M_GR_MANGO/src/tensorflow_lite/tensorflow/lite/kernels\kernel_util.h **** 
 132:C:/Renesas/e2studio_2021_01_workspace_RZA2M_ANPR/ANPR_RZA2M_GR_MANGO/src/tensorflow_lite/tensorflow/lite/kernels\kernel_util.h **** // Same as `GetIntermediates` but returns boolean and uses output argument for
 133:C:/Renesas/e2studio_2021_01_workspace_RZA2M_ANPR/ANPR_RZA2M_GR_MANGO/src/tensorflow_lite/tensorflow/lite/kernels\kernel_util.h **** // tensor.
 134:C:/Renesas/e2studio_2021_01_workspace_RZA2M_ANPR/ANPR_RZA2M_GR_MANGO/src/tensorflow_lite/tensorflow/lite/kernels\kernel_util.h **** //
 135:C:/Renesas/e2studio_2021_01_workspace_RZA2M_ANPR/ANPR_RZA2M_GR_MANGO/src/tensorflow_lite/tensorflow/lite/kernels\kernel_util.h **** //   TfLiteTensor* my_tensor;
 136:C:/Renesas/e2studio_2021_01_workspace_RZA2M_ANPR/ANPR_RZA2M_GR_MANGO/src/tensorflow_lite/tensorflow/lite/kernels\kernel_util.h **** //   TF_LITE_ENSURE_OK(context,
 137:C:/Renesas/e2studio_2021_01_workspace_RZA2M_ANPR/ANPR_RZA2M_GR_MANGO/src/tensorflow_lite/tensorflow/lite/kernels\kernel_util.h **** //                     GetIntermediatesSafe(context, node, kMyTensorIdx,
 138:C:/Renesas/e2studio_2021_01_workspace_RZA2M_ANPR/ANPR_RZA2M_GR_MANGO/src/tensorflow_lite/tensorflow/lite/kernels\kernel_util.h **** //                     &my_tensor));
 139:C:/Renesas/e2studio_2021_01_workspace_RZA2M_ANPR/ANPR_RZA2M_GR_MANGO/src/tensorflow_lite/tensorflow/lite/kernels\kernel_util.h **** //   // can use my_tensor directly from here onwards, it is not nullptr
 140:C:/Renesas/e2studio_2021_01_workspace_RZA2M_ANPR/ANPR_RZA2M_GR_MANGO/src/tensorflow_lite/tensorflow/lite/kernels\kernel_util.h **** //
 141:C:/Renesas/e2studio_2021_01_workspace_RZA2M_ANPR/ANPR_RZA2M_GR_MANGO/src/tensorflow_lite/tensorflow/lite/kernels\kernel_util.h **** // Should be used in cases where the binary size is too large.
 142:C:/Renesas/e2studio_2021_01_workspace_RZA2M_ANPR/ANPR_RZA2M_GR_MANGO/src/tensorflow_lite/tensorflow/lite/kernels\kernel_util.h **** TfLiteStatus GetIntermediatesSafe(const TfLiteContext* context,
 143:C:/Renesas/e2studio_2021_01_workspace_RZA2M_ANPR/ANPR_RZA2M_GR_MANGO/src/tensorflow_lite/tensorflow/lite/kernels\kernel_util.h ****                                   const TfLiteNode* node, int index,
 144:C:/Renesas/e2studio_2021_01_workspace_RZA2M_ANPR/ANPR_RZA2M_GR_MANGO/src/tensorflow_lite/tensorflow/lite/kernels\kernel_util.h ****                                   TfLiteTensor** tensor);
 145:C:/Renesas/e2studio_2021_01_workspace_RZA2M_ANPR/ANPR_RZA2M_GR_MANGO/src/tensorflow_lite/tensorflow/lite/kernels\kernel_util.h **** #endif  // TF_LITE_STATIC_MEMORY
 146:C:/Renesas/e2studio_2021_01_workspace_RZA2M_ANPR/ANPR_RZA2M_GR_MANGO/src/tensorflow_lite/tensorflow/lite/kernels\kernel_util.h **** 
 147:C:/Renesas/e2studio_2021_01_workspace_RZA2M_ANPR/ANPR_RZA2M_GR_MANGO/src/tensorflow_lite/tensorflow/lite/kernels\kernel_util.h **** inline int NumDimensions(const TfLiteTensor* t) { return t->dims->size; }
 148:C:/Renesas/e2studio_2021_01_workspace_RZA2M_ANPR/ANPR_RZA2M_GR_MANGO/src/tensorflow_lite/tensorflow/lite/kernels\kernel_util.h **** inline int SizeOfDimension(const TfLiteTensor* t, int dim) {
 149:C:/Renesas/e2studio_2021_01_workspace_RZA2M_ANPR/ANPR_RZA2M_GR_MANGO/src/tensorflow_lite/tensorflow/lite/kernels\kernel_util.h ****   return t->dims->data[dim];
 155              		.loc 2 149 0
 156 00b0 0CE09CE5 		ldr	lr, [ip, #12]
 157              	.LBE456:
 158              	.LBE455:
 159              	.LBB458:
 160              	.LBB459:
 161 00b4 08C09CE5 		ldr	ip, [ip, #8]
 162              	.LBE459:
 163              	.LBE458:
  92:../src/tensorflow_lite/tensorflow/lite/micro/kernels/cmsis_nn/depthwise_conv.cc **** 
 164              		.loc 1 92 0
 165 00b8 033182E0 		add	r3, r2, r3, lsl #2
 166              	.LBB461:
 167              	.LBB462:
 168              		.loc 2 149 0
 169 00bc 0CB091E5 		ldr	fp, [r1, #12]
 170              	.LBE462:
 171              	.LBE461:
 172              	.LBB464:
 173              	.LBB465:
 174 00c0 081091E5 		ldr	r1, [r1, #8]
 175              	.LBE465:
 176              	.LBE464:
 177              		.loc 1 95 0
 178 00c4 043093E5 		ldr	r3, [r3, #4]
 179              	.LBB467:
 180              	.LBB463:
 181              		.loc 2 149 0
 182 00c8 2CB08DE5 		str	fp, [sp, #44]
 183              	.LBE463:
 184              	.LBE467:
 185              	.LBB468:
 186              	.LBB466:
 187 00cc 30108DE5 		str	r1, [sp, #48]
 188              	.LBE466:
 189              	.LBE468:
 190              	.LBB469:
 191              	.LBB470:
 192 00d0 0C1092E5 		ldr	r1, [r2, #12]
 193              	.LBE470:
 194              	.LBE469:
 195              		.loc 1 95 0
 196 00d4 0331A0E1 		lsl	r3, r3, #2
 197              	.LBB472:
 198              	.LBB473:
 199              		.loc 2 149 0
 200 00d8 08B092E5 		ldr	fp, [r2, #8]
 201              	.LBE473:
 202              	.LBE472:
 203              		.loc 1 95 0
 204 00dc 382094E5 		ldr	r2, [r4, #56]
 205              	.LVL14:
 206              	.LBB474:
 207              	.LBB471:
 208              		.loc 2 149 0
 209 00e0 28108DE5 		str	r1, [sp, #40]
 210              	.LBE471:
 211              	.LBE474:
 212              		.loc 1 95 0
 213 00e4 0310A0E1 		mov	r1, r3
 214              	.LBB475:
 215              	.LBB457:
 216              		.loc 2 149 0
 217 00e8 38E08DE5 		str	lr, [sp, #56]
 218              	.LBE457:
 219              	.LBE475:
 220              	.LBB476:
 221              	.LBB460:
 222 00ec 34C08DE5 		str	ip, [sp, #52]
 223              	.LBE460:
 224              	.LBE476:
 225              		.loc 1 95 0
 226 00f0 3C308DE5 		str	r3, [sp, #60]
 227 00f4 32FF2FE1 		blx	r2
 228              	.LVL15:
  96:../src/tensorflow_lite/tensorflow/lite/micro/kernels/cmsis_nn/depthwise_conv.cc ****           context, num_channels * sizeof(int32_t)));
  97:../src/tensorflow_lite/tensorflow/lite/micro/kernels/cmsis_nn/depthwise_conv.cc ****   data->reference_op_data.per_channel_output_shift =
  98:../src/tensorflow_lite/tensorflow/lite/micro/kernels/cmsis_nn/depthwise_conv.cc ****       reinterpret_cast<int32_t*>(context->AllocatePersistentBuffer(
 229              		.loc 1 98 0
 230 00f8 3C309DE5 		ldr	r3, [sp, #60]
  94:../src/tensorflow_lite/tensorflow/lite/micro/kernels/cmsis_nn/depthwise_conv.cc ****       reinterpret_cast<int32_t*>(context->AllocatePersistentBuffer(
 231              		.loc 1 94 0
 232 00fc 240086E5 		str	r0, [r6, #36]
 233              		.loc 1 98 0
 234 0100 0400A0E1 		mov	r0, r4
 235 0104 0310A0E1 		mov	r1, r3
 236 0108 383094E5 		ldr	r3, [r4, #56]
 237 010c 33FF2FE1 		blx	r3
 238              	.LVL16:
 239              	.LBB477:
  99:../src/tensorflow_lite/tensorflow/lite/micro/kernels/cmsis_nn/depthwise_conv.cc ****           context, num_channels * sizeof(int32_t)));
 100:../src/tensorflow_lite/tensorflow/lite/micro/kernels/cmsis_nn/depthwise_conv.cc **** 
 101:../src/tensorflow_lite/tensorflow/lite/micro/kernels/cmsis_nn/depthwise_conv.cc ****   TF_LITE_ENSURE_STATUS(CalculateOpDataDepthwiseConv(
 240              		.loc 1 101 0
 241 0110 34C09DE5 		ldr	ip, [sp, #52]
 242 0114 0510A0E1 		mov	r1, r5
 243              	.LBE477:
  97:../src/tensorflow_lite/tensorflow/lite/micro/kernels/cmsis_nn/depthwise_conv.cc ****       reinterpret_cast<int32_t*>(context->AllocatePersistentBuffer(
 244              		.loc 1 97 0
 245 0118 280086E5 		str	r0, [r6, #40]
 246              	.LBB478:
 247              		.loc 1 101 0
 248 011c 0820A0E1 		mov	r2, r8
 249 0120 2C009DE5 		ldr	r0, [sp, #44]
 250 0124 30509DE5 		ldr	r5, [sp, #48]
 251              	.LVL17:
 252 0128 00C08DE5 		str	ip, [sp]
 253 012c 28C09DE5 		ldr	ip, [sp, #40]
 254 0130 0C008DE5 		str	r0, [sp, #12]
 255 0134 0400A0E1 		mov	r0, r4
 256 0138 10508DE5 		str	r5, [sp, #16]
 257 013c 38309DE5 		ldr	r3, [sp, #56]
 258 0140 08B08DE5 		str	fp, [sp, #8]
 259 0144 04C08DE5 		str	ip, [sp, #4]
 260 0148 18608DE5 		str	r6, [sp, #24]
 261 014c 14A08DE5 		str	r10, [sp, #20]
 262 0150 FEFFFFEB 		bl	_ZN6tflite28CalculateOpDataDepthwiseConvEP13TfLiteContextP10TfLiteNodeRK25TfLiteDepthwiseConvPa
 263              	.LVL18:
 264 0154 000050E3 		cmp	r0, #0
 265              	.LVL19:
 266 0158 0200001A 		bne	.L68
 267              	.LBE478:
 268              	.LBB479:
 102:../src/tensorflow_lite/tensorflow/lite/micro/kernels/cmsis_nn/depthwise_conv.cc ****       context, node, params, input_width, input_height, filter_width,
 103:../src/tensorflow_lite/tensorflow/lite/micro/kernels/cmsis_nn/depthwise_conv.cc ****       filter_height, output_width, output_height, data_type,
 104:../src/tensorflow_lite/tensorflow/lite/micro/kernels/cmsis_nn/depthwise_conv.cc ****       &data->reference_op_data));
 105:../src/tensorflow_lite/tensorflow/lite/micro/kernels/cmsis_nn/depthwise_conv.cc **** 
 106:../src/tensorflow_lite/tensorflow/lite/micro/kernels/cmsis_nn/depthwise_conv.cc ****   if (input->type == kTfLiteInt8) {
 269              		.loc 1 106 0
 270 015c 0030D7E5 		ldrb	r3, [r7]	@ zero_extendqisi2
 271 0160 090053E3 		cmp	r3, #9
 272 0164 5A00000A 		beq	.L76
 273              	.LVL20:
 274              	.L68:
 275              	.LBE479:
 107:../src/tensorflow_lite/tensorflow/lite/micro/kernels/cmsis_nn/depthwise_conv.cc ****     RuntimeShape input_shape = GetTensorShape(input);
 108:../src/tensorflow_lite/tensorflow/lite/micro/kernels/cmsis_nn/depthwise_conv.cc ****     RuntimeShape output_shape = GetTensorShape(output);
 109:../src/tensorflow_lite/tensorflow/lite/micro/kernels/cmsis_nn/depthwise_conv.cc ****     RuntimeShape filter_shape = GetTensorShape(filter);
 110:../src/tensorflow_lite/tensorflow/lite/micro/kernels/cmsis_nn/depthwise_conv.cc ****     TFLITE_DCHECK_EQ(input_shape.DimensionsCount(), 4);
 111:../src/tensorflow_lite/tensorflow/lite/micro/kernels/cmsis_nn/depthwise_conv.cc ****     TFLITE_DCHECK_EQ(filter_shape.DimensionsCount(), 4);
 112:../src/tensorflow_lite/tensorflow/lite/micro/kernels/cmsis_nn/depthwise_conv.cc ****     TFLITE_DCHECK_EQ(output_shape.DimensionsCount(), 4);
 113:../src/tensorflow_lite/tensorflow/lite/micro/kernels/cmsis_nn/depthwise_conv.cc **** 
 114:../src/tensorflow_lite/tensorflow/lite/micro/kernels/cmsis_nn/depthwise_conv.cc ****     const int batch_size = MatchingDim(input_shape, 0, output_shape, 0);
 115:../src/tensorflow_lite/tensorflow/lite/micro/kernels/cmsis_nn/depthwise_conv.cc ****     const int output_depth = MatchingDim(output_shape, 3, filter_shape, 3);
 116:../src/tensorflow_lite/tensorflow/lite/micro/kernels/cmsis_nn/depthwise_conv.cc ****     TFLITE_DCHECK_EQ(batch_size, 1); /* Only batch = 1 is supported */
 117:../src/tensorflow_lite/tensorflow/lite/micro/kernels/cmsis_nn/depthwise_conv.cc **** 
 118:../src/tensorflow_lite/tensorflow/lite/micro/kernels/cmsis_nn/depthwise_conv.cc ****     cmsis_nn_dims input_dims;
 119:../src/tensorflow_lite/tensorflow/lite/micro/kernels/cmsis_nn/depthwise_conv.cc ****     input_dims.n = batch_size;
 120:../src/tensorflow_lite/tensorflow/lite/micro/kernels/cmsis_nn/depthwise_conv.cc ****     input_dims.h = input_height;
 121:../src/tensorflow_lite/tensorflow/lite/micro/kernels/cmsis_nn/depthwise_conv.cc ****     input_dims.w = input_width;
 122:../src/tensorflow_lite/tensorflow/lite/micro/kernels/cmsis_nn/depthwise_conv.cc ****     input_dims.c = input_shape.Dims(3);
 123:../src/tensorflow_lite/tensorflow/lite/micro/kernels/cmsis_nn/depthwise_conv.cc **** 
 124:../src/tensorflow_lite/tensorflow/lite/micro/kernels/cmsis_nn/depthwise_conv.cc ****     cmsis_nn_dims filter_dims;
 125:../src/tensorflow_lite/tensorflow/lite/micro/kernels/cmsis_nn/depthwise_conv.cc ****     filter_dims.n = 1;
 126:../src/tensorflow_lite/tensorflow/lite/micro/kernels/cmsis_nn/depthwise_conv.cc ****     filter_dims.h = filter_height;
 127:../src/tensorflow_lite/tensorflow/lite/micro/kernels/cmsis_nn/depthwise_conv.cc ****     filter_dims.w = filter_width;
 128:../src/tensorflow_lite/tensorflow/lite/micro/kernels/cmsis_nn/depthwise_conv.cc ****     filter_dims.c = output_depth;
 129:../src/tensorflow_lite/tensorflow/lite/micro/kernels/cmsis_nn/depthwise_conv.cc **** 
 130:../src/tensorflow_lite/tensorflow/lite/micro/kernels/cmsis_nn/depthwise_conv.cc ****     cmsis_nn_dims output_dims;
 131:../src/tensorflow_lite/tensorflow/lite/micro/kernels/cmsis_nn/depthwise_conv.cc ****     output_dims.n = batch_size;
 132:../src/tensorflow_lite/tensorflow/lite/micro/kernels/cmsis_nn/depthwise_conv.cc ****     output_dims.h = output_height;
 133:../src/tensorflow_lite/tensorflow/lite/micro/kernels/cmsis_nn/depthwise_conv.cc ****     output_dims.w = output_width;
 134:../src/tensorflow_lite/tensorflow/lite/micro/kernels/cmsis_nn/depthwise_conv.cc ****     output_dims.c = output_depth;
 135:../src/tensorflow_lite/tensorflow/lite/micro/kernels/cmsis_nn/depthwise_conv.cc **** 
 136:../src/tensorflow_lite/tensorflow/lite/micro/kernels/cmsis_nn/depthwise_conv.cc ****     cmsis_nn_dw_conv_params dw_conv_params;
 137:../src/tensorflow_lite/tensorflow/lite/micro/kernels/cmsis_nn/depthwise_conv.cc ****     dw_conv_params.padding.h = data->reference_op_data.padding.height;
 138:../src/tensorflow_lite/tensorflow/lite/micro/kernels/cmsis_nn/depthwise_conv.cc ****     dw_conv_params.padding.w = data->reference_op_data.padding.width;
 139:../src/tensorflow_lite/tensorflow/lite/micro/kernels/cmsis_nn/depthwise_conv.cc **** 
 140:../src/tensorflow_lite/tensorflow/lite/micro/kernels/cmsis_nn/depthwise_conv.cc ****     const int32_t buf_size = arm_depthwise_conv_wrapper_s8_get_buffer_size(
 141:../src/tensorflow_lite/tensorflow/lite/micro/kernels/cmsis_nn/depthwise_conv.cc ****         &dw_conv_params, &input_dims, &filter_dims, &output_dims);
 142:../src/tensorflow_lite/tensorflow/lite/micro/kernels/cmsis_nn/depthwise_conv.cc **** 
 143:../src/tensorflow_lite/tensorflow/lite/micro/kernels/cmsis_nn/depthwise_conv.cc ****     if (buf_size > 0) {
 144:../src/tensorflow_lite/tensorflow/lite/micro/kernels/cmsis_nn/depthwise_conv.cc ****       TF_LITE_ENSURE_STATUS(context->RequestScratchBufferInArena(
 145:../src/tensorflow_lite/tensorflow/lite/micro/kernels/cmsis_nn/depthwise_conv.cc ****           context, buf_size, &data->buffer_idx));
 146:../src/tensorflow_lite/tensorflow/lite/micro/kernels/cmsis_nn/depthwise_conv.cc ****     } else {
 147:../src/tensorflow_lite/tensorflow/lite/micro/kernels/cmsis_nn/depthwise_conv.cc ****       data->buffer_idx = -1;
 148:../src/tensorflow_lite/tensorflow/lite/micro/kernels/cmsis_nn/depthwise_conv.cc ****     }
 149:../src/tensorflow_lite/tensorflow/lite/micro/kernels/cmsis_nn/depthwise_conv.cc ****   }
 150:../src/tensorflow_lite/tensorflow/lite/micro/kernels/cmsis_nn/depthwise_conv.cc ****   return kTfLiteOk;
 151:../src/tensorflow_lite/tensorflow/lite/micro/kernels/cmsis_nn/depthwise_conv.cc **** }
 276              		.loc 1 151 0
 277 0168 ECD08DE2 		add	sp, sp, #236
 278              		.cfi_remember_state
 279              		.cfi_def_cfa_offset 36
 280              		@ sp needed
 281 016c F08FBDE8 		pop	{r4, r5, r6, r7, r8, r9, r10, fp, pc}
 282              	.LVL21:
 283              	.L75:
 284              		.cfi_restore_state
 285              	.LBB571:
 286              	.LBB450:
  73:../src/tensorflow_lite/tensorflow/lite/micro/kernels/cmsis_nn/depthwise_conv.cc ****                       kTfLiteAffineQuantization);
 287              		.loc 1 73 0
 288 0170 30B0D9E5 		ldrb	fp, [r9, #48]	@ zero_extendqisi2
 289 0174 01005BE3 		cmp	fp, #1
 290 0178 2700001A 		bne	.L77
  79:../src/tensorflow_lite/tensorflow/lite/micro/kernels/cmsis_nn/depthwise_conv.cc ****     TF_LITE_ENSURE(context, affine_quantization);
 291              		.loc 1 79 0
 292 017c 343099E5 		ldr	r3, [r9, #52]
 293              	.LVL22:
  80:../src/tensorflow_lite/tensorflow/lite/micro/kernels/cmsis_nn/depthwise_conv.cc ****     TF_LITE_ENSURE(context, affine_quantization->scale);
 294              		.loc 1 80 0
 295 0180 000053E3 		cmp	r3, #0
 296 0184 E200000A 		beq	.L78
  81:../src/tensorflow_lite/tensorflow/lite/micro/kernels/cmsis_nn/depthwise_conv.cc ****     TF_LITE_ENSURE(context, affine_quantization->zero_point);
 297              		.loc 1 81 0
 298 0188 001093E5 		ldr	r1, [r3]
 299 018c 000051E3 		cmp	r1, #0
 300 0190 EF00000A 		beq	.L79
  82:../src/tensorflow_lite/tensorflow/lite/micro/kernels/cmsis_nn/depthwise_conv.cc ****     TF_LITE_ENSURE(
 301              		.loc 1 82 0
 302 0194 040093E5 		ldr	r0, [r3, #4]
 303              	.LVL23:
 304 0198 000050E3 		cmp	r0, #0
 305 019c BF00000A 		beq	.L80
  83:../src/tensorflow_lite/tensorflow/lite/micro/kernels/cmsis_nn/depthwise_conv.cc ****         context, affine_quantization->scale->size == 1 ||
 306              		.loc 1 83 0
 307 01a0 003091E5 		ldr	r3, [r1]
 308              	.LVL24:
 309 01a4 010053E3 		cmp	r3, #1
 310 01a8 0600000A 		beq	.L20
  83:../src/tensorflow_lite/tensorflow/lite/micro/kernels/cmsis_nn/depthwise_conv.cc ****         context, affine_quantization->scale->size == 1 ||
 311              		.loc 1 83 0 is_stmt 0 discriminator 1
 312 01ac 001000E3 		movw	r1, #:lower16:_ZN6tflite32kDepthwiseConvQuantizedDimensionE
 313 01b0 001040E3 		movt	r1, #:upper16:_ZN6tflite32kDepthwiseConvQuantizedDimensionE
 314 01b4 001091E5 		ldr	r1, [r1]
 315 01b8 011182E0 		add	r1, r2, r1, lsl #2
 316 01bc 041091E5 		ldr	r1, [r1, #4]
 317 01c0 010053E1 		cmp	r3, r1
 318 01c4 A500001A 		bne	.L81
 319              	.L20:
  87:../src/tensorflow_lite/tensorflow/lite/micro/kernels/cmsis_nn/depthwise_conv.cc ****                       affine_quantization->zero_point->size);
 320              		.loc 1 87 0 is_stmt 1
 321 01c8 000090E5 		ldr	r0, [r0]
 322 01cc 000053E1 		cmp	r3, r0
 323 01d0 AFFFFF0A 		beq	.L15
  87:../src/tensorflow_lite/tensorflow/lite/micro/kernels/cmsis_nn/depthwise_conv.cc ****                       affine_quantization->zero_point->size);
 324              		.loc 1 87 0 is_stmt 0 discriminator 1
 325 01d4 00E000E3 		movw	lr, #:lower16:.LC13
 326 01d8 00C000E3 		movw	ip, #:lower16:.LC14
 327 01dc 00E040E3 		movt	lr, #:upper16:.LC13
 328 01e0 00C040E3 		movt	ip, #:upper16:.LC14
 329 01e4 002000E3 		movw	r2, #:lower16:.LC1
 330 01e8 001000E3 		movw	r1, #:lower16:.LC6
 331 01ec 0C008DE5 		str	r0, [sp, #12]
 332              	.LVL25:
 333 01f0 002040E3 		movt	r2, #:upper16:.LC1
 334 01f4 08308DE5 		str	r3, [sp, #8]
 335 01f8 0400A0E1 		mov	r0, r4
 336 01fc 04E08DE5 		str	lr, [sp, #4]
 337 0200 001040E3 		movt	r1, #:upper16:.LC6
 338 0204 00C08DE5 		str	ip, [sp]
 339 0208 5830A0E3 		mov	r3, #88
 340 020c 144094E5 		ldr	r4, [r4, #20]
 341              	.LVL26:
 342 0210 34FF2FE1 		blx	r4
 343              	.LVL27:
 344 0214 0100A0E3 		mov	r0, #1
 345 0218 D2FFFFEA 		b	.L68
 346              	.LVL28:
 347              	.L77:
  73:../src/tensorflow_lite/tensorflow/lite/micro/kernels/cmsis_nn/depthwise_conv.cc ****                       kTfLiteAffineQuantization);
 348              		.loc 1 73 0 is_stmt 1 discriminator 1
 349 021c 000000E3 		movw	r0, #:lower16:.LC7
 350              	.LVL29:
 351 0220 003000E3 		movw	r3, #:lower16:.LC8
 352              	.LVL30:
 353 0224 0150A0E3 		mov	r5, #1
 354              	.LVL31:
 355 0228 000040E3 		movt	r0, #:upper16:.LC7
 356 022c 003040E3 		movt	r3, #:upper16:.LC8
 357 0230 002000E3 		movw	r2, #:lower16:.LC1
 358 0234 001000E3 		movw	r1, #:lower16:.LC6
 359 0238 01088DE9 		stmib	sp, {r0, fp}
 360 023c 00308DE5 		str	r3, [sp]
 361 0240 0400A0E1 		mov	r0, r4
 362 0244 0C508DE5 		str	r5, [sp, #12]
 363 0248 002040E3 		movt	r2, #:upper16:.LC1
 364 024c 001040E3 		movt	r1, #:upper16:.LC6
 365 0250 144094E5 		ldr	r4, [r4, #20]
 366              	.LVL32:
 367 0254 4A30A0E3 		mov	r3, #74
 368 0258 34FF2FE1 		blx	r4
 369              	.LVL33:
 370 025c 0500A0E1 		mov	r0, r5
 371              	.LBE450:
 372              	.LBE571:
 373              		.loc 1 151 0 discriminator 1
 374 0260 ECD08DE2 		add	sp, sp, #236
 375              		.cfi_remember_state
 376              		.cfi_def_cfa_offset 36
 377              		@ sp needed
 378 0264 F08FBDE8 		pop	{r4, r5, r6, r7, r8, r9, r10, fp, pc}
 379              	.LVL34:
 380              	.L72:
 381              		.cfi_restore_state
  57:../src/tensorflow_lite/tensorflow/lite/micro/kernels/cmsis_nn/depthwise_conv.cc ****   const TfLiteTensor* filter =
 382              		.loc 1 57 0 discriminator 1
 383 0268 003000E3 		movw	r3, #:lower16:.LC3
 384 026c 002000E3 		movw	r2, #:lower16:.LC1
 385 0270 003040E3 		movt	r3, #:upper16:.LC3
 386 0274 001000E3 		movw	r1, #:lower16:.LC2
 387 0278 00308DE5 		str	r3, [sp]
 388 027c 0400A0E1 		mov	r0, r4
 389              	.LVL35:
 390 0280 002040E3 		movt	r2, #:upper16:.LC1
 391 0284 001040E3 		movt	r1, #:upper16:.LC2
 392 0288 145094E5 		ldr	r5, [r4, #20]
 393              	.LVL36:
 394 028c 3930A0E3 		mov	r3, #57
 395 0290 35FF2FE1 		blx	r5
 396              	.LVL37:
 397 0294 0100A0E3 		mov	r0, #1
 398              		.loc 1 151 0 discriminator 1
 399 0298 ECD08DE2 		add	sp, sp, #236
 400              		.cfi_remember_state
 401              		.cfi_def_cfa_offset 36
 402              		@ sp needed
 403 029c F08FBDE8 		pop	{r4, r5, r6, r7, r8, r9, r10, fp, pc}
 404              	.LVL38:
 405              	.L73:
 406              		.cfi_restore_state
  60:../src/tensorflow_lite/tensorflow/lite/micro/kernels/cmsis_nn/depthwise_conv.cc ****   TfLiteTensor* output = GetOutput(context, node, kDepthwiseConvOutputTensor);
 407              		.loc 1 60 0 discriminator 1
 408 02a0 003000E3 		movw	r3, #:lower16:.LC4
 409 02a4 002000E3 		movw	r2, #:lower16:.LC1
 410 02a8 003040E3 		movt	r3, #:upper16:.LC4
 411 02ac 001000E3 		movw	r1, #:lower16:.LC2
 412 02b0 00308DE5 		str	r3, [sp]
 413 02b4 0400A0E1 		mov	r0, r4
 414              	.LVL39:
 415 02b8 002040E3 		movt	r2, #:upper16:.LC1
 416 02bc 001040E3 		movt	r1, #:upper16:.LC2
 417 02c0 145094E5 		ldr	r5, [r4, #20]
 418              	.LVL40:
 419 02c4 3C30A0E3 		mov	r3, #60
 420 02c8 35FF2FE1 		blx	r5
 421              	.LVL41:
 422 02cc 0100A0E3 		mov	r0, #1
 423 02d0 A4FFFFEA 		b	.L68
 424              	.LVL42:
 425              	.L76:
 426              	.LBB572:
 427              	.LBB480:
 428              	.LBB481:
 429              	.LBB482:
 430              		.file 3 "C:/Renesas/e2studio_2021_01_workspace_RZA2M_ANPR/ANPR_RZA2M_GR_MANGO/src/tensorflow_lite/
   1:C:/Renesas/e2studio_2021_01_workspace_RZA2M_ANPR/ANPR_RZA2M_GR_MANGO/src/tensorflow_lite/tensorflow/lite/kernels/internal\tensor_ctypes.h **** /* Copyright 2017 The TensorFlow Authors. All Rights Reserved.
   2:C:/Renesas/e2studio_2021_01_workspace_RZA2M_ANPR/ANPR_RZA2M_GR_MANGO/src/tensorflow_lite/tensorflow/lite/kernels/internal\tensor_ctypes.h **** 
   3:C:/Renesas/e2studio_2021_01_workspace_RZA2M_ANPR/ANPR_RZA2M_GR_MANGO/src/tensorflow_lite/tensorflow/lite/kernels/internal\tensor_ctypes.h **** Licensed under the Apache License, Version 2.0 (the "License");
   4:C:/Renesas/e2studio_2021_01_workspace_RZA2M_ANPR/ANPR_RZA2M_GR_MANGO/src/tensorflow_lite/tensorflow/lite/kernels/internal\tensor_ctypes.h **** you may not use this file except in compliance with the License.
   5:C:/Renesas/e2studio_2021_01_workspace_RZA2M_ANPR/ANPR_RZA2M_GR_MANGO/src/tensorflow_lite/tensorflow/lite/kernels/internal\tensor_ctypes.h **** You may obtain a copy of the License at
   6:C:/Renesas/e2studio_2021_01_workspace_RZA2M_ANPR/ANPR_RZA2M_GR_MANGO/src/tensorflow_lite/tensorflow/lite/kernels/internal\tensor_ctypes.h **** 
   7:C:/Renesas/e2studio_2021_01_workspace_RZA2M_ANPR/ANPR_RZA2M_GR_MANGO/src/tensorflow_lite/tensorflow/lite/kernels/internal\tensor_ctypes.h ****     http://www.apache.org/licenses/LICENSE-2.0
   8:C:/Renesas/e2studio_2021_01_workspace_RZA2M_ANPR/ANPR_RZA2M_GR_MANGO/src/tensorflow_lite/tensorflow/lite/kernels/internal\tensor_ctypes.h **** 
   9:C:/Renesas/e2studio_2021_01_workspace_RZA2M_ANPR/ANPR_RZA2M_GR_MANGO/src/tensorflow_lite/tensorflow/lite/kernels/internal\tensor_ctypes.h **** Unless required by applicable law or agreed to in writing, software
  10:C:/Renesas/e2studio_2021_01_workspace_RZA2M_ANPR/ANPR_RZA2M_GR_MANGO/src/tensorflow_lite/tensorflow/lite/kernels/internal\tensor_ctypes.h **** distributed under the License is distributed on an "AS IS" BASIS,
  11:C:/Renesas/e2studio_2021_01_workspace_RZA2M_ANPR/ANPR_RZA2M_GR_MANGO/src/tensorflow_lite/tensorflow/lite/kernels/internal\tensor_ctypes.h **** WITHOUT WARRANTIES OR CONDITIONS OF ANY KIND, either express or implied.
  12:C:/Renesas/e2studio_2021_01_workspace_RZA2M_ANPR/ANPR_RZA2M_GR_MANGO/src/tensorflow_lite/tensorflow/lite/kernels/internal\tensor_ctypes.h **** See the License for the specific language governing permissions and
  13:C:/Renesas/e2studio_2021_01_workspace_RZA2M_ANPR/ANPR_RZA2M_GR_MANGO/src/tensorflow_lite/tensorflow/lite/kernels/internal\tensor_ctypes.h **** limitations under the License.
  14:C:/Renesas/e2studio_2021_01_workspace_RZA2M_ANPR/ANPR_RZA2M_GR_MANGO/src/tensorflow_lite/tensorflow/lite/kernels/internal\tensor_ctypes.h **** ==============================================================================*/
  15:C:/Renesas/e2studio_2021_01_workspace_RZA2M_ANPR/ANPR_RZA2M_GR_MANGO/src/tensorflow_lite/tensorflow/lite/kernels/internal\tensor_ctypes.h **** #ifndef TENSORFLOW_LITE_KERNELS_INTERNAL_TENSOR_CTYPES_H_
  16:C:/Renesas/e2studio_2021_01_workspace_RZA2M_ANPR/ANPR_RZA2M_GR_MANGO/src/tensorflow_lite/tensorflow/lite/kernels/internal\tensor_ctypes.h **** #define TENSORFLOW_LITE_KERNELS_INTERNAL_TENSOR_CTYPES_H_
  17:C:/Renesas/e2studio_2021_01_workspace_RZA2M_ANPR/ANPR_RZA2M_GR_MANGO/src/tensorflow_lite/tensorflow/lite/kernels/internal\tensor_ctypes.h **** 
  18:C:/Renesas/e2studio_2021_01_workspace_RZA2M_ANPR/ANPR_RZA2M_GR_MANGO/src/tensorflow_lite/tensorflow/lite/kernels/internal\tensor_ctypes.h **** #include "tensorflow/lite/c/common.h"
  19:C:/Renesas/e2studio_2021_01_workspace_RZA2M_ANPR/ANPR_RZA2M_GR_MANGO/src/tensorflow_lite/tensorflow/lite/kernels/internal\tensor_ctypes.h **** #include "tensorflow/lite/kernels/internal/types.h"
  20:C:/Renesas/e2studio_2021_01_workspace_RZA2M_ANPR/ANPR_RZA2M_GR_MANGO/src/tensorflow_lite/tensorflow/lite/kernels/internal\tensor_ctypes.h **** 
  21:C:/Renesas/e2studio_2021_01_workspace_RZA2M_ANPR/ANPR_RZA2M_GR_MANGO/src/tensorflow_lite/tensorflow/lite/kernels/internal\tensor_ctypes.h **** namespace tflite {
  22:C:/Renesas/e2studio_2021_01_workspace_RZA2M_ANPR/ANPR_RZA2M_GR_MANGO/src/tensorflow_lite/tensorflow/lite/kernels/internal\tensor_ctypes.h **** 
  23:C:/Renesas/e2studio_2021_01_workspace_RZA2M_ANPR/ANPR_RZA2M_GR_MANGO/src/tensorflow_lite/tensorflow/lite/kernels/internal\tensor_ctypes.h **** template <typename T>
  24:C:/Renesas/e2studio_2021_01_workspace_RZA2M_ANPR/ANPR_RZA2M_GR_MANGO/src/tensorflow_lite/tensorflow/lite/kernels/internal\tensor_ctypes.h **** inline T* GetTensorData(TfLiteTensor* tensor) {
  25:C:/Renesas/e2studio_2021_01_workspace_RZA2M_ANPR/ANPR_RZA2M_GR_MANGO/src/tensorflow_lite/tensorflow/lite/kernels/internal\tensor_ctypes.h ****   return tensor != nullptr ? reinterpret_cast<T*>(tensor->data.raw) : nullptr;
  26:C:/Renesas/e2studio_2021_01_workspace_RZA2M_ANPR/ANPR_RZA2M_GR_MANGO/src/tensorflow_lite/tensorflow/lite/kernels/internal\tensor_ctypes.h **** }
  27:C:/Renesas/e2studio_2021_01_workspace_RZA2M_ANPR/ANPR_RZA2M_GR_MANGO/src/tensorflow_lite/tensorflow/lite/kernels/internal\tensor_ctypes.h **** 
  28:C:/Renesas/e2studio_2021_01_workspace_RZA2M_ANPR/ANPR_RZA2M_GR_MANGO/src/tensorflow_lite/tensorflow/lite/kernels/internal\tensor_ctypes.h **** template <typename T>
  29:C:/Renesas/e2studio_2021_01_workspace_RZA2M_ANPR/ANPR_RZA2M_GR_MANGO/src/tensorflow_lite/tensorflow/lite/kernels/internal\tensor_ctypes.h **** inline const T* GetTensorData(const TfLiteTensor* tensor) {
  30:C:/Renesas/e2studio_2021_01_workspace_RZA2M_ANPR/ANPR_RZA2M_GR_MANGO/src/tensorflow_lite/tensorflow/lite/kernels/internal\tensor_ctypes.h ****   return tensor != nullptr ? reinterpret_cast<const T*>(tensor->data.raw)
  31:C:/Renesas/e2studio_2021_01_workspace_RZA2M_ANPR/ANPR_RZA2M_GR_MANGO/src/tensorflow_lite/tensorflow/lite/kernels/internal\tensor_ctypes.h ****                            : nullptr;
  32:C:/Renesas/e2studio_2021_01_workspace_RZA2M_ANPR/ANPR_RZA2M_GR_MANGO/src/tensorflow_lite/tensorflow/lite/kernels/internal\tensor_ctypes.h **** }
  33:C:/Renesas/e2studio_2021_01_workspace_RZA2M_ANPR/ANPR_RZA2M_GR_MANGO/src/tensorflow_lite/tensorflow/lite/kernels/internal\tensor_ctypes.h **** 
  34:C:/Renesas/e2studio_2021_01_workspace_RZA2M_ANPR/ANPR_RZA2M_GR_MANGO/src/tensorflow_lite/tensorflow/lite/kernels/internal\tensor_ctypes.h **** inline RuntimeShape GetTensorShape(const TfLiteTensor* tensor) {
  35:C:/Renesas/e2studio_2021_01_workspace_RZA2M_ANPR/ANPR_RZA2M_GR_MANGO/src/tensorflow_lite/tensorflow/lite/kernels/internal\tensor_ctypes.h ****   if (tensor == nullptr) {
  36:C:/Renesas/e2studio_2021_01_workspace_RZA2M_ANPR/ANPR_RZA2M_GR_MANGO/src/tensorflow_lite/tensorflow/lite/kernels/internal\tensor_ctypes.h ****     return RuntimeShape();
  37:C:/Renesas/e2studio_2021_01_workspace_RZA2M_ANPR/ANPR_RZA2M_GR_MANGO/src/tensorflow_lite/tensorflow/lite/kernels/internal\tensor_ctypes.h ****   }
  38:C:/Renesas/e2studio_2021_01_workspace_RZA2M_ANPR/ANPR_RZA2M_GR_MANGO/src/tensorflow_lite/tensorflow/lite/kernels/internal\tensor_ctypes.h **** 
  39:C:/Renesas/e2studio_2021_01_workspace_RZA2M_ANPR/ANPR_RZA2M_GR_MANGO/src/tensorflow_lite/tensorflow/lite/kernels/internal\tensor_ctypes.h ****   TfLiteIntArray* dims = tensor->dims;
 431              		.loc 3 39 0
 432 02d4 085097E5 		ldr	r5, [r7, #8]
 433              	.LVL43:
  40:C:/Renesas/e2studio_2021_01_workspace_RZA2M_ANPR/ANPR_RZA2M_GR_MANGO/src/tensorflow_lite/tensorflow/lite/kernels/internal\tensor_ctypes.h ****   const int dims_size = dims->size;
 434              		.loc 3 40 0
 435 02d8 002095E5 		ldr	r2, [r5]
 436              	.LVL44:
 437              	.LBB483:
 438              	.LBB484:
 439              	.LBB485:
 440              	.LBB486:
 441              	.LBB487:
 442              		.file 4 "C:/Renesas/e2studio_2021_01_workspace_RZA2M_ANPR/ANPR_RZA2M_GR_MANGO/src/tensorflow_lite/
   1:C:/Renesas/e2studio_2021_01_workspace_RZA2M_ANPR/ANPR_RZA2M_GR_MANGO/src/tensorflow_lite/tensorflow/lite/kernels/internal\types.h **** /* Copyright 2018 The TensorFlow Authors. All Rights Reserved.
   2:C:/Renesas/e2studio_2021_01_workspace_RZA2M_ANPR/ANPR_RZA2M_GR_MANGO/src/tensorflow_lite/tensorflow/lite/kernels/internal\types.h **** 
   3:C:/Renesas/e2studio_2021_01_workspace_RZA2M_ANPR/ANPR_RZA2M_GR_MANGO/src/tensorflow_lite/tensorflow/lite/kernels/internal\types.h **** Licensed under the Apache License, Version 2.0 (the "License");
   4:C:/Renesas/e2studio_2021_01_workspace_RZA2M_ANPR/ANPR_RZA2M_GR_MANGO/src/tensorflow_lite/tensorflow/lite/kernels/internal\types.h **** you may not use this file except in compliance with the License.
   5:C:/Renesas/e2studio_2021_01_workspace_RZA2M_ANPR/ANPR_RZA2M_GR_MANGO/src/tensorflow_lite/tensorflow/lite/kernels/internal\types.h **** You may obtain a copy of the License at
   6:C:/Renesas/e2studio_2021_01_workspace_RZA2M_ANPR/ANPR_RZA2M_GR_MANGO/src/tensorflow_lite/tensorflow/lite/kernels/internal\types.h **** 
   7:C:/Renesas/e2studio_2021_01_workspace_RZA2M_ANPR/ANPR_RZA2M_GR_MANGO/src/tensorflow_lite/tensorflow/lite/kernels/internal\types.h ****     http://www.apache.org/licenses/LICENSE-2.0
   8:C:/Renesas/e2studio_2021_01_workspace_RZA2M_ANPR/ANPR_RZA2M_GR_MANGO/src/tensorflow_lite/tensorflow/lite/kernels/internal\types.h **** 
   9:C:/Renesas/e2studio_2021_01_workspace_RZA2M_ANPR/ANPR_RZA2M_GR_MANGO/src/tensorflow_lite/tensorflow/lite/kernels/internal\types.h **** Unless required by applicable law or agreed to in writing, software
  10:C:/Renesas/e2studio_2021_01_workspace_RZA2M_ANPR/ANPR_RZA2M_GR_MANGO/src/tensorflow_lite/tensorflow/lite/kernels/internal\types.h **** distributed under the License is distributed on an "AS IS" BASIS,
  11:C:/Renesas/e2studio_2021_01_workspace_RZA2M_ANPR/ANPR_RZA2M_GR_MANGO/src/tensorflow_lite/tensorflow/lite/kernels/internal\types.h **** WITHOUT WARRANTIES OR CONDITIONS OF ANY KIND, either express or implied.
  12:C:/Renesas/e2studio_2021_01_workspace_RZA2M_ANPR/ANPR_RZA2M_GR_MANGO/src/tensorflow_lite/tensorflow/lite/kernels/internal\types.h **** See the License for the specific language governing permissions and
  13:C:/Renesas/e2studio_2021_01_workspace_RZA2M_ANPR/ANPR_RZA2M_GR_MANGO/src/tensorflow_lite/tensorflow/lite/kernels/internal\types.h **** limitations under the License.
  14:C:/Renesas/e2studio_2021_01_workspace_RZA2M_ANPR/ANPR_RZA2M_GR_MANGO/src/tensorflow_lite/tensorflow/lite/kernels/internal\types.h **** ==============================================================================*/
  15:C:/Renesas/e2studio_2021_01_workspace_RZA2M_ANPR/ANPR_RZA2M_GR_MANGO/src/tensorflow_lite/tensorflow/lite/kernels/internal\types.h **** #ifndef TENSORFLOW_LITE_KERNELS_INTERNAL_TYPES_H_
  16:C:/Renesas/e2studio_2021_01_workspace_RZA2M_ANPR/ANPR_RZA2M_GR_MANGO/src/tensorflow_lite/tensorflow/lite/kernels/internal\types.h **** #define TENSORFLOW_LITE_KERNELS_INTERNAL_TYPES_H_
  17:C:/Renesas/e2studio_2021_01_workspace_RZA2M_ANPR/ANPR_RZA2M_GR_MANGO/src/tensorflow_lite/tensorflow/lite/kernels/internal\types.h **** 
  18:C:/Renesas/e2studio_2021_01_workspace_RZA2M_ANPR/ANPR_RZA2M_GR_MANGO/src/tensorflow_lite/tensorflow/lite/kernels/internal\types.h **** #include <algorithm>
  19:C:/Renesas/e2studio_2021_01_workspace_RZA2M_ANPR/ANPR_RZA2M_GR_MANGO/src/tensorflow_lite/tensorflow/lite/kernels/internal\types.h **** #include <cstdint>
  20:C:/Renesas/e2studio_2021_01_workspace_RZA2M_ANPR/ANPR_RZA2M_GR_MANGO/src/tensorflow_lite/tensorflow/lite/kernels/internal\types.h **** #include <cstring>
  21:C:/Renesas/e2studio_2021_01_workspace_RZA2M_ANPR/ANPR_RZA2M_GR_MANGO/src/tensorflow_lite/tensorflow/lite/kernels/internal\types.h **** #include <initializer_list>
  22:C:/Renesas/e2studio_2021_01_workspace_RZA2M_ANPR/ANPR_RZA2M_GR_MANGO/src/tensorflow_lite/tensorflow/lite/kernels/internal\types.h **** 
  23:C:/Renesas/e2studio_2021_01_workspace_RZA2M_ANPR/ANPR_RZA2M_GR_MANGO/src/tensorflow_lite/tensorflow/lite/kernels/internal\types.h **** #include "tensorflow/lite/kernels/internal/compatibility.h"
  24:C:/Renesas/e2studio_2021_01_workspace_RZA2M_ANPR/ANPR_RZA2M_GR_MANGO/src/tensorflow_lite/tensorflow/lite/kernels/internal\types.h **** 
  25:C:/Renesas/e2studio_2021_01_workspace_RZA2M_ANPR/ANPR_RZA2M_GR_MANGO/src/tensorflow_lite/tensorflow/lite/kernels/internal\types.h **** namespace tflite {
  26:C:/Renesas/e2studio_2021_01_workspace_RZA2M_ANPR/ANPR_RZA2M_GR_MANGO/src/tensorflow_lite/tensorflow/lite/kernels/internal\types.h **** 
  27:C:/Renesas/e2studio_2021_01_workspace_RZA2M_ANPR/ANPR_RZA2M_GR_MANGO/src/tensorflow_lite/tensorflow/lite/kernels/internal\types.h **** enum class FusedActivationFunctionType : uint8_t {
  28:C:/Renesas/e2studio_2021_01_workspace_RZA2M_ANPR/ANPR_RZA2M_GR_MANGO/src/tensorflow_lite/tensorflow/lite/kernels/internal\types.h ****   kNone,
  29:C:/Renesas/e2studio_2021_01_workspace_RZA2M_ANPR/ANPR_RZA2M_GR_MANGO/src/tensorflow_lite/tensorflow/lite/kernels/internal\types.h ****   kRelu6,
  30:C:/Renesas/e2studio_2021_01_workspace_RZA2M_ANPR/ANPR_RZA2M_GR_MANGO/src/tensorflow_lite/tensorflow/lite/kernels/internal\types.h ****   kRelu1,
  31:C:/Renesas/e2studio_2021_01_workspace_RZA2M_ANPR/ANPR_RZA2M_GR_MANGO/src/tensorflow_lite/tensorflow/lite/kernels/internal\types.h ****   kRelu
  32:C:/Renesas/e2studio_2021_01_workspace_RZA2M_ANPR/ANPR_RZA2M_GR_MANGO/src/tensorflow_lite/tensorflow/lite/kernels/internal\types.h **** };
  33:C:/Renesas/e2studio_2021_01_workspace_RZA2M_ANPR/ANPR_RZA2M_GR_MANGO/src/tensorflow_lite/tensorflow/lite/kernels/internal\types.h **** enum class PaddingType : uint8_t { kNone, kSame, kValid };
  34:C:/Renesas/e2studio_2021_01_workspace_RZA2M_ANPR/ANPR_RZA2M_GR_MANGO/src/tensorflow_lite/tensorflow/lite/kernels/internal\types.h **** 
  35:C:/Renesas/e2studio_2021_01_workspace_RZA2M_ANPR/ANPR_RZA2M_GR_MANGO/src/tensorflow_lite/tensorflow/lite/kernels/internal\types.h **** struct PaddingValues {
  36:C:/Renesas/e2studio_2021_01_workspace_RZA2M_ANPR/ANPR_RZA2M_GR_MANGO/src/tensorflow_lite/tensorflow/lite/kernels/internal\types.h ****   int16_t width;
  37:C:/Renesas/e2studio_2021_01_workspace_RZA2M_ANPR/ANPR_RZA2M_GR_MANGO/src/tensorflow_lite/tensorflow/lite/kernels/internal\types.h ****   int16_t height;
  38:C:/Renesas/e2studio_2021_01_workspace_RZA2M_ANPR/ANPR_RZA2M_GR_MANGO/src/tensorflow_lite/tensorflow/lite/kernels/internal\types.h ****   // offset is used for calculating "remaining" padding, for example, `width`
  39:C:/Renesas/e2studio_2021_01_workspace_RZA2M_ANPR/ANPR_RZA2M_GR_MANGO/src/tensorflow_lite/tensorflow/lite/kernels/internal\types.h ****   // is 1 and `width_offset` is 1, so padding_left is 1 while padding_right is
  40:C:/Renesas/e2studio_2021_01_workspace_RZA2M_ANPR/ANPR_RZA2M_GR_MANGO/src/tensorflow_lite/tensorflow/lite/kernels/internal\types.h ****   // 1 + 1 = 2.
  41:C:/Renesas/e2studio_2021_01_workspace_RZA2M_ANPR/ANPR_RZA2M_GR_MANGO/src/tensorflow_lite/tensorflow/lite/kernels/internal\types.h ****   int16_t width_offset;
  42:C:/Renesas/e2studio_2021_01_workspace_RZA2M_ANPR/ANPR_RZA2M_GR_MANGO/src/tensorflow_lite/tensorflow/lite/kernels/internal\types.h ****   // Same as width_offset except it's over the height dimension.
  43:C:/Renesas/e2studio_2021_01_workspace_RZA2M_ANPR/ANPR_RZA2M_GR_MANGO/src/tensorflow_lite/tensorflow/lite/kernels/internal\types.h ****   int16_t height_offset;
  44:C:/Renesas/e2studio_2021_01_workspace_RZA2M_ANPR/ANPR_RZA2M_GR_MANGO/src/tensorflow_lite/tensorflow/lite/kernels/internal\types.h **** };
  45:C:/Renesas/e2studio_2021_01_workspace_RZA2M_ANPR/ANPR_RZA2M_GR_MANGO/src/tensorflow_lite/tensorflow/lite/kernels/internal\types.h **** 
  46:C:/Renesas/e2studio_2021_01_workspace_RZA2M_ANPR/ANPR_RZA2M_GR_MANGO/src/tensorflow_lite/tensorflow/lite/kernels/internal\types.h **** struct Padding3DValues {
  47:C:/Renesas/e2studio_2021_01_workspace_RZA2M_ANPR/ANPR_RZA2M_GR_MANGO/src/tensorflow_lite/tensorflow/lite/kernels/internal\types.h ****   int16_t width;
  48:C:/Renesas/e2studio_2021_01_workspace_RZA2M_ANPR/ANPR_RZA2M_GR_MANGO/src/tensorflow_lite/tensorflow/lite/kernels/internal\types.h ****   int16_t height;
  49:C:/Renesas/e2studio_2021_01_workspace_RZA2M_ANPR/ANPR_RZA2M_GR_MANGO/src/tensorflow_lite/tensorflow/lite/kernels/internal\types.h ****   int16_t depth;
  50:C:/Renesas/e2studio_2021_01_workspace_RZA2M_ANPR/ANPR_RZA2M_GR_MANGO/src/tensorflow_lite/tensorflow/lite/kernels/internal\types.h ****   // offset is used for calculating "remaining" padding, for example, `width`
  51:C:/Renesas/e2studio_2021_01_workspace_RZA2M_ANPR/ANPR_RZA2M_GR_MANGO/src/tensorflow_lite/tensorflow/lite/kernels/internal\types.h ****   // is 1 and `width_offset` is 1, so padding_left is 1 while padding_right is
  52:C:/Renesas/e2studio_2021_01_workspace_RZA2M_ANPR/ANPR_RZA2M_GR_MANGO/src/tensorflow_lite/tensorflow/lite/kernels/internal\types.h ****   // 1 + 1 = 2.
  53:C:/Renesas/e2studio_2021_01_workspace_RZA2M_ANPR/ANPR_RZA2M_GR_MANGO/src/tensorflow_lite/tensorflow/lite/kernels/internal\types.h ****   int16_t width_offset;
  54:C:/Renesas/e2studio_2021_01_workspace_RZA2M_ANPR/ANPR_RZA2M_GR_MANGO/src/tensorflow_lite/tensorflow/lite/kernels/internal\types.h ****   // Same as width_offset except it's over the height dimension.
  55:C:/Renesas/e2studio_2021_01_workspace_RZA2M_ANPR/ANPR_RZA2M_GR_MANGO/src/tensorflow_lite/tensorflow/lite/kernels/internal\types.h ****   int16_t height_offset;
  56:C:/Renesas/e2studio_2021_01_workspace_RZA2M_ANPR/ANPR_RZA2M_GR_MANGO/src/tensorflow_lite/tensorflow/lite/kernels/internal\types.h ****   // Same as width_offset except it's over the depth dimension.
  57:C:/Renesas/e2studio_2021_01_workspace_RZA2M_ANPR/ANPR_RZA2M_GR_MANGO/src/tensorflow_lite/tensorflow/lite/kernels/internal\types.h ****   int16_t depth_offset;
  58:C:/Renesas/e2studio_2021_01_workspace_RZA2M_ANPR/ANPR_RZA2M_GR_MANGO/src/tensorflow_lite/tensorflow/lite/kernels/internal\types.h **** };
  59:C:/Renesas/e2studio_2021_01_workspace_RZA2M_ANPR/ANPR_RZA2M_GR_MANGO/src/tensorflow_lite/tensorflow/lite/kernels/internal\types.h **** 
  60:C:/Renesas/e2studio_2021_01_workspace_RZA2M_ANPR/ANPR_RZA2M_GR_MANGO/src/tensorflow_lite/tensorflow/lite/kernels/internal\types.h **** // This enumeration allows for non-default formats for the weights array
  61:C:/Renesas/e2studio_2021_01_workspace_RZA2M_ANPR/ANPR_RZA2M_GR_MANGO/src/tensorflow_lite/tensorflow/lite/kernels/internal\types.h **** // of a fully-connected operator, allowing the use of special optimized
  62:C:/Renesas/e2studio_2021_01_workspace_RZA2M_ANPR/ANPR_RZA2M_GR_MANGO/src/tensorflow_lite/tensorflow/lite/kernels/internal\types.h **** // runtime paths.
  63:C:/Renesas/e2studio_2021_01_workspace_RZA2M_ANPR/ANPR_RZA2M_GR_MANGO/src/tensorflow_lite/tensorflow/lite/kernels/internal\types.h **** enum class FullyConnectedWeightsFormat : uint8_t {
  64:C:/Renesas/e2studio_2021_01_workspace_RZA2M_ANPR/ANPR_RZA2M_GR_MANGO/src/tensorflow_lite/tensorflow/lite/kernels/internal\types.h ****   // Default format (flat 2D layout, the inner contiguous dimension
  65:C:/Renesas/e2studio_2021_01_workspace_RZA2M_ANPR/ANPR_RZA2M_GR_MANGO/src/tensorflow_lite/tensorflow/lite/kernels/internal\types.h ****   // is input_depth, the outer non-contiguous dimension is output_depth)
  66:C:/Renesas/e2studio_2021_01_workspace_RZA2M_ANPR/ANPR_RZA2M_GR_MANGO/src/tensorflow_lite/tensorflow/lite/kernels/internal\types.h ****   kDefault,
  67:C:/Renesas/e2studio_2021_01_workspace_RZA2M_ANPR/ANPR_RZA2M_GR_MANGO/src/tensorflow_lite/tensorflow/lite/kernels/internal\types.h ****   // Summary: optimized layout for fast CPU runtime implementation,
  68:C:/Renesas/e2studio_2021_01_workspace_RZA2M_ANPR/ANPR_RZA2M_GR_MANGO/src/tensorflow_lite/tensorflow/lite/kernels/internal\types.h ****   // aimed specifically at ARM CPUs at the moment, and specialized for
  69:C:/Renesas/e2studio_2021_01_workspace_RZA2M_ANPR/ANPR_RZA2M_GR_MANGO/src/tensorflow_lite/tensorflow/lite/kernels/internal\types.h ****   // 8-bit quantized layers.
  70:C:/Renesas/e2studio_2021_01_workspace_RZA2M_ANPR/ANPR_RZA2M_GR_MANGO/src/tensorflow_lite/tensorflow/lite/kernels/internal\types.h ****   //
  71:C:/Renesas/e2studio_2021_01_workspace_RZA2M_ANPR/ANPR_RZA2M_GR_MANGO/src/tensorflow_lite/tensorflow/lite/kernels/internal\types.h ****   // The use case we're concerned with here is: 8-bit quantization,
  72:C:/Renesas/e2studio_2021_01_workspace_RZA2M_ANPR/ANPR_RZA2M_GR_MANGO/src/tensorflow_lite/tensorflow/lite/kernels/internal\types.h ****   // large weights matrix that doesn't fit in cache (e.g. 4096x2048 in
  73:C:/Renesas/e2studio_2021_01_workspace_RZA2M_ANPR/ANPR_RZA2M_GR_MANGO/src/tensorflow_lite/tensorflow/lite/kernels/internal\types.h ****   // a key application that drove this), very small batch size (e.g. 1 -- 4).
  74:C:/Renesas/e2studio_2021_01_workspace_RZA2M_ANPR/ANPR_RZA2M_GR_MANGO/src/tensorflow_lite/tensorflow/lite/kernels/internal\types.h ****   //
  75:C:/Renesas/e2studio_2021_01_workspace_RZA2M_ANPR/ANPR_RZA2M_GR_MANGO/src/tensorflow_lite/tensorflow/lite/kernels/internal\types.h ****   // Even with 8-bit quantization of weights, the performance of memory
  76:C:/Renesas/e2studio_2021_01_workspace_RZA2M_ANPR/ANPR_RZA2M_GR_MANGO/src/tensorflow_lite/tensorflow/lite/kernels/internal\types.h ****   // accesses to the weights can become the dominant issue when
  77:C:/Renesas/e2studio_2021_01_workspace_RZA2M_ANPR/ANPR_RZA2M_GR_MANGO/src/tensorflow_lite/tensorflow/lite/kernels/internal\types.h ****   // the batch size is small, so each weight value is used in only a few
  78:C:/Renesas/e2studio_2021_01_workspace_RZA2M_ANPR/ANPR_RZA2M_GR_MANGO/src/tensorflow_lite/tensorflow/lite/kernels/internal\types.h ****   // arithmetic ops, i.e. the fully-connected node has a low arithmetic
  79:C:/Renesas/e2studio_2021_01_workspace_RZA2M_ANPR/ANPR_RZA2M_GR_MANGO/src/tensorflow_lite/tensorflow/lite/kernels/internal\types.h ****   // intensity. The specific issues that arise are of three kinds:
  80:C:/Renesas/e2studio_2021_01_workspace_RZA2M_ANPR/ANPR_RZA2M_GR_MANGO/src/tensorflow_lite/tensorflow/lite/kernels/internal\types.h ****   // (1) One may, ideally, max out DRAM bandwidth, i.e. be truly memory
  81:C:/Renesas/e2studio_2021_01_workspace_RZA2M_ANPR/ANPR_RZA2M_GR_MANGO/src/tensorflow_lite/tensorflow/lite/kernels/internal\types.h ****   //     bound. That's the "good" issue to run into.
  82:C:/Renesas/e2studio_2021_01_workspace_RZA2M_ANPR/ANPR_RZA2M_GR_MANGO/src/tensorflow_lite/tensorflow/lite/kernels/internal\types.h ****   // (2) One may run into sub-optimal pre-fetching: the data hasn't been
  83:C:/Renesas/e2studio_2021_01_workspace_RZA2M_ANPR/ANPR_RZA2M_GR_MANGO/src/tensorflow_lite/tensorflow/lite/kernels/internal\types.h ****   //     prefetched into the cache by the time we need it.
  84:C:/Renesas/e2studio_2021_01_workspace_RZA2M_ANPR/ANPR_RZA2M_GR_MANGO/src/tensorflow_lite/tensorflow/lite/kernels/internal\types.h ****   // (3) One may run into cache aliasing: multiple values that are
  85:C:/Renesas/e2studio_2021_01_workspace_RZA2M_ANPR/ANPR_RZA2M_GR_MANGO/src/tensorflow_lite/tensorflow/lite/kernels/internal\types.h ****   //     pre-fetched, alias each other in the L1 cache (which typically
  86:C:/Renesas/e2studio_2021_01_workspace_RZA2M_ANPR/ANPR_RZA2M_GR_MANGO/src/tensorflow_lite/tensorflow/lite/kernels/internal\types.h ****   //     has only 4-way set associativity in ARM CPUs) and thus evict
  87:C:/Renesas/e2studio_2021_01_workspace_RZA2M_ANPR/ANPR_RZA2M_GR_MANGO/src/tensorflow_lite/tensorflow/lite/kernels/internal\types.h ****   //     each other before we get to using them.
  88:C:/Renesas/e2studio_2021_01_workspace_RZA2M_ANPR/ANPR_RZA2M_GR_MANGO/src/tensorflow_lite/tensorflow/lite/kernels/internal\types.h ****   //
  89:C:/Renesas/e2studio_2021_01_workspace_RZA2M_ANPR/ANPR_RZA2M_GR_MANGO/src/tensorflow_lite/tensorflow/lite/kernels/internal\types.h ****   // The point of this shuffling is to avoid issues (2) and (3) so that
  90:C:/Renesas/e2studio_2021_01_workspace_RZA2M_ANPR/ANPR_RZA2M_GR_MANGO/src/tensorflow_lite/tensorflow/lite/kernels/internal\types.h ****   // we get as fast as possible given only the hard constraint (1).
  91:C:/Renesas/e2studio_2021_01_workspace_RZA2M_ANPR/ANPR_RZA2M_GR_MANGO/src/tensorflow_lite/tensorflow/lite/kernels/internal\types.h ****   // This is achieved by turning the difficulty into a solution: the
  92:C:/Renesas/e2studio_2021_01_workspace_RZA2M_ANPR/ANPR_RZA2M_GR_MANGO/src/tensorflow_lite/tensorflow/lite/kernels/internal\types.h ****   // difficulty, that each value loaded from memory is used only in
  93:C:/Renesas/e2studio_2021_01_workspace_RZA2M_ANPR/ANPR_RZA2M_GR_MANGO/src/tensorflow_lite/tensorflow/lite/kernels/internal\types.h ****   // one kernel iteration, making this operation memory-intensive, hints at
  94:C:/Renesas/e2studio_2021_01_workspace_RZA2M_ANPR/ANPR_RZA2M_GR_MANGO/src/tensorflow_lite/tensorflow/lite/kernels/internal\types.h ****   // the solution, of shuffling the weights so that they are stored in the
  95:C:/Renesas/e2studio_2021_01_workspace_RZA2M_ANPR/ANPR_RZA2M_GR_MANGO/src/tensorflow_lite/tensorflow/lite/kernels/internal\types.h ****   // exact order as the kernel needs to load them, so that the memory
  96:C:/Renesas/e2studio_2021_01_workspace_RZA2M_ANPR/ANPR_RZA2M_GR_MANGO/src/tensorflow_lite/tensorflow/lite/kernels/internal\types.h ****   // accesses made by the kernel are trivial. This solves (2) because the
  97:C:/Renesas/e2studio_2021_01_workspace_RZA2M_ANPR/ANPR_RZA2M_GR_MANGO/src/tensorflow_lite/tensorflow/lite/kernels/internal\types.h ****   // trivial memory access pattern allows the CPU's automatic prefetching
  98:C:/Renesas/e2studio_2021_01_workspace_RZA2M_ANPR/ANPR_RZA2M_GR_MANGO/src/tensorflow_lite/tensorflow/lite/kernels/internal\types.h ****   // to perform very well (no need even for preload instructions), and this
  99:C:/Renesas/e2studio_2021_01_workspace_RZA2M_ANPR/ANPR_RZA2M_GR_MANGO/src/tensorflow_lite/tensorflow/lite/kernels/internal\types.h ****   // solves (3) because the values being loaded concurrently are now
 100:C:/Renesas/e2studio_2021_01_workspace_RZA2M_ANPR/ANPR_RZA2M_GR_MANGO/src/tensorflow_lite/tensorflow/lite/kernels/internal\types.h ****   // contiguous in the address space, thus don't alias each other in the cache.
 101:C:/Renesas/e2studio_2021_01_workspace_RZA2M_ANPR/ANPR_RZA2M_GR_MANGO/src/tensorflow_lite/tensorflow/lite/kernels/internal\types.h ****   //
 102:C:/Renesas/e2studio_2021_01_workspace_RZA2M_ANPR/ANPR_RZA2M_GR_MANGO/src/tensorflow_lite/tensorflow/lite/kernels/internal\types.h ****   // On ARM, we typically want our kernel to process a 4x16 block of weights
 103:C:/Renesas/e2studio_2021_01_workspace_RZA2M_ANPR/ANPR_RZA2M_GR_MANGO/src/tensorflow_lite/tensorflow/lite/kernels/internal\types.h ****   // at a time, because:
 104:C:/Renesas/e2studio_2021_01_workspace_RZA2M_ANPR/ANPR_RZA2M_GR_MANGO/src/tensorflow_lite/tensorflow/lite/kernels/internal\types.h ****   //   - 16 is the number of bytes in a NEON register.
 105:C:/Renesas/e2studio_2021_01_workspace_RZA2M_ANPR/ANPR_RZA2M_GR_MANGO/src/tensorflow_lite/tensorflow/lite/kernels/internal\types.h ****   //   - 4 is how many rows we need to handle concurrently in the kernel in
 106:C:/Renesas/e2studio_2021_01_workspace_RZA2M_ANPR/ANPR_RZA2M_GR_MANGO/src/tensorflow_lite/tensorflow/lite/kernels/internal\types.h ****   //     order to have sufficient mutual independence of instructions to
 107:C:/Renesas/e2studio_2021_01_workspace_RZA2M_ANPR/ANPR_RZA2M_GR_MANGO/src/tensorflow_lite/tensorflow/lite/kernels/internal\types.h ****   //     maximize arithmetic throughput.
 108:C:/Renesas/e2studio_2021_01_workspace_RZA2M_ANPR/ANPR_RZA2M_GR_MANGO/src/tensorflow_lite/tensorflow/lite/kernels/internal\types.h ****   //
 109:C:/Renesas/e2studio_2021_01_workspace_RZA2M_ANPR/ANPR_RZA2M_GR_MANGO/src/tensorflow_lite/tensorflow/lite/kernels/internal\types.h ****   // Finally, the 'Int8' part in the name refers to the fact that this
 110:C:/Renesas/e2studio_2021_01_workspace_RZA2M_ANPR/ANPR_RZA2M_GR_MANGO/src/tensorflow_lite/tensorflow/lite/kernels/internal\types.h ****   // weights format has each weights value encoded as a signed int8_t value,
 111:C:/Renesas/e2studio_2021_01_workspace_RZA2M_ANPR/ANPR_RZA2M_GR_MANGO/src/tensorflow_lite/tensorflow/lite/kernels/internal\types.h ****   // even if the data type of the weights buffer is uint8_t.  This is intended
 112:C:/Renesas/e2studio_2021_01_workspace_RZA2M_ANPR/ANPR_RZA2M_GR_MANGO/src/tensorflow_lite/tensorflow/lite/kernels/internal\types.h ****   // to save runtime kernels the effort to have to XOR the top bit of these
 113:C:/Renesas/e2studio_2021_01_workspace_RZA2M_ANPR/ANPR_RZA2M_GR_MANGO/src/tensorflow_lite/tensorflow/lite/kernels/internal\types.h ****   // bytes before using them in signed arithmetic, see this file for more
 114:C:/Renesas/e2studio_2021_01_workspace_RZA2M_ANPR/ANPR_RZA2M_GR_MANGO/src/tensorflow_lite/tensorflow/lite/kernels/internal\types.h ****   // explanations on the 'signed int8_t trick' in matrix multiplication kernels:
 115:C:/Renesas/e2studio_2021_01_workspace_RZA2M_ANPR/ANPR_RZA2M_GR_MANGO/src/tensorflow_lite/tensorflow/lite/kernels/internal\types.h ****   //
 116:C:/Renesas/e2studio_2021_01_workspace_RZA2M_ANPR/ANPR_RZA2M_GR_MANGO/src/tensorflow_lite/tensorflow/lite/kernels/internal\types.h ****   //   tensorflow/lite/toco/graph_transformations/ensure_uint8_weights_safe_for_fast_int8_kernels.c
 117:C:/Renesas/e2studio_2021_01_workspace_RZA2M_ANPR/ANPR_RZA2M_GR_MANGO/src/tensorflow_lite/tensorflow/lite/kernels/internal\types.h ****   //
 118:C:/Renesas/e2studio_2021_01_workspace_RZA2M_ANPR/ANPR_RZA2M_GR_MANGO/src/tensorflow_lite/tensorflow/lite/kernels/internal\types.h ****   kShuffled4x16Int8,
 119:C:/Renesas/e2studio_2021_01_workspace_RZA2M_ANPR/ANPR_RZA2M_GR_MANGO/src/tensorflow_lite/tensorflow/lite/kernels/internal\types.h **** };
 120:C:/Renesas/e2studio_2021_01_workspace_RZA2M_ANPR/ANPR_RZA2M_GR_MANGO/src/tensorflow_lite/tensorflow/lite/kernels/internal\types.h **** 
 121:C:/Renesas/e2studio_2021_01_workspace_RZA2M_ANPR/ANPR_RZA2M_GR_MANGO/src/tensorflow_lite/tensorflow/lite/kernels/internal\types.h **** // Quantization parameters, determining the mapping of quantized values
 122:C:/Renesas/e2studio_2021_01_workspace_RZA2M_ANPR/ANPR_RZA2M_GR_MANGO/src/tensorflow_lite/tensorflow/lite/kernels/internal\types.h **** // to real values (i.e. determining how quantized values are mathematically
 123:C:/Renesas/e2studio_2021_01_workspace_RZA2M_ANPR/ANPR_RZA2M_GR_MANGO/src/tensorflow_lite/tensorflow/lite/kernels/internal\types.h **** // interpreted).
 124:C:/Renesas/e2studio_2021_01_workspace_RZA2M_ANPR/ANPR_RZA2M_GR_MANGO/src/tensorflow_lite/tensorflow/lite/kernels/internal\types.h **** //
 125:C:/Renesas/e2studio_2021_01_workspace_RZA2M_ANPR/ANPR_RZA2M_GR_MANGO/src/tensorflow_lite/tensorflow/lite/kernels/internal\types.h **** // The correspondence is as follows:
 126:C:/Renesas/e2studio_2021_01_workspace_RZA2M_ANPR/ANPR_RZA2M_GR_MANGO/src/tensorflow_lite/tensorflow/lite/kernels/internal\types.h **** //
 127:C:/Renesas/e2studio_2021_01_workspace_RZA2M_ANPR/ANPR_RZA2M_GR_MANGO/src/tensorflow_lite/tensorflow/lite/kernels/internal\types.h **** //   real_value = scale * (quantized_value - zero_point);
 128:C:/Renesas/e2studio_2021_01_workspace_RZA2M_ANPR/ANPR_RZA2M_GR_MANGO/src/tensorflow_lite/tensorflow/lite/kernels/internal\types.h **** //
 129:C:/Renesas/e2studio_2021_01_workspace_RZA2M_ANPR/ANPR_RZA2M_GR_MANGO/src/tensorflow_lite/tensorflow/lite/kernels/internal\types.h **** // In other words, zero_point designates which quantized value corresponds to
 130:C:/Renesas/e2studio_2021_01_workspace_RZA2M_ANPR/ANPR_RZA2M_GR_MANGO/src/tensorflow_lite/tensorflow/lite/kernels/internal\types.h **** // the real 0 value, and scale designates the difference between the real values
 131:C:/Renesas/e2studio_2021_01_workspace_RZA2M_ANPR/ANPR_RZA2M_GR_MANGO/src/tensorflow_lite/tensorflow/lite/kernels/internal\types.h **** // corresponding to consecutive quantized values differing by 1.
 132:C:/Renesas/e2studio_2021_01_workspace_RZA2M_ANPR/ANPR_RZA2M_GR_MANGO/src/tensorflow_lite/tensorflow/lite/kernels/internal\types.h **** struct QuantizationParams {
 133:C:/Renesas/e2studio_2021_01_workspace_RZA2M_ANPR/ANPR_RZA2M_GR_MANGO/src/tensorflow_lite/tensorflow/lite/kernels/internal\types.h ****   int32_t zero_point = 0;
 134:C:/Renesas/e2studio_2021_01_workspace_RZA2M_ANPR/ANPR_RZA2M_GR_MANGO/src/tensorflow_lite/tensorflow/lite/kernels/internal\types.h ****   double scale = 0.0;
 135:C:/Renesas/e2studio_2021_01_workspace_RZA2M_ANPR/ANPR_RZA2M_GR_MANGO/src/tensorflow_lite/tensorflow/lite/kernels/internal\types.h **** };
 136:C:/Renesas/e2studio_2021_01_workspace_RZA2M_ANPR/ANPR_RZA2M_GR_MANGO/src/tensorflow_lite/tensorflow/lite/kernels/internal\types.h **** 
 137:C:/Renesas/e2studio_2021_01_workspace_RZA2M_ANPR/ANPR_RZA2M_GR_MANGO/src/tensorflow_lite/tensorflow/lite/kernels/internal\types.h **** inline bool operator==(const QuantizationParams& qp1,
 138:C:/Renesas/e2studio_2021_01_workspace_RZA2M_ANPR/ANPR_RZA2M_GR_MANGO/src/tensorflow_lite/tensorflow/lite/kernels/internal\types.h ****                        const QuantizationParams& qp2) {
 139:C:/Renesas/e2studio_2021_01_workspace_RZA2M_ANPR/ANPR_RZA2M_GR_MANGO/src/tensorflow_lite/tensorflow/lite/kernels/internal\types.h ****   return qp1.zero_point == qp2.zero_point && qp1.scale == qp2.scale;
 140:C:/Renesas/e2studio_2021_01_workspace_RZA2M_ANPR/ANPR_RZA2M_GR_MANGO/src/tensorflow_lite/tensorflow/lite/kernels/internal\types.h **** }
 141:C:/Renesas/e2studio_2021_01_workspace_RZA2M_ANPR/ANPR_RZA2M_GR_MANGO/src/tensorflow_lite/tensorflow/lite/kernels/internal\types.h **** 
 142:C:/Renesas/e2studio_2021_01_workspace_RZA2M_ANPR/ANPR_RZA2M_GR_MANGO/src/tensorflow_lite/tensorflow/lite/kernels/internal\types.h **** template <int N>
 143:C:/Renesas/e2studio_2021_01_workspace_RZA2M_ANPR/ANPR_RZA2M_GR_MANGO/src/tensorflow_lite/tensorflow/lite/kernels/internal\types.h **** struct Dims {
 144:C:/Renesas/e2studio_2021_01_workspace_RZA2M_ANPR/ANPR_RZA2M_GR_MANGO/src/tensorflow_lite/tensorflow/lite/kernels/internal\types.h ****   int sizes[N];
 145:C:/Renesas/e2studio_2021_01_workspace_RZA2M_ANPR/ANPR_RZA2M_GR_MANGO/src/tensorflow_lite/tensorflow/lite/kernels/internal\types.h ****   int strides[N];
 146:C:/Renesas/e2studio_2021_01_workspace_RZA2M_ANPR/ANPR_RZA2M_GR_MANGO/src/tensorflow_lite/tensorflow/lite/kernels/internal\types.h **** };
 147:C:/Renesas/e2studio_2021_01_workspace_RZA2M_ANPR/ANPR_RZA2M_GR_MANGO/src/tensorflow_lite/tensorflow/lite/kernels/internal\types.h **** 
 148:C:/Renesas/e2studio_2021_01_workspace_RZA2M_ANPR/ANPR_RZA2M_GR_MANGO/src/tensorflow_lite/tensorflow/lite/kernels/internal\types.h **** class RuntimeShape {
 149:C:/Renesas/e2studio_2021_01_workspace_RZA2M_ANPR/ANPR_RZA2M_GR_MANGO/src/tensorflow_lite/tensorflow/lite/kernels/internal\types.h ****  public:
 150:C:/Renesas/e2studio_2021_01_workspace_RZA2M_ANPR/ANPR_RZA2M_GR_MANGO/src/tensorflow_lite/tensorflow/lite/kernels/internal\types.h ****   // Shapes with dimensions up to 5 are stored directly in the structure, while
 151:C:/Renesas/e2studio_2021_01_workspace_RZA2M_ANPR/ANPR_RZA2M_GR_MANGO/src/tensorflow_lite/tensorflow/lite/kernels/internal\types.h ****   // larger shapes are separately allocated.
 152:C:/Renesas/e2studio_2021_01_workspace_RZA2M_ANPR/ANPR_RZA2M_GR_MANGO/src/tensorflow_lite/tensorflow/lite/kernels/internal\types.h ****   static constexpr int kMaxSmallSize = 5;
 153:C:/Renesas/e2studio_2021_01_workspace_RZA2M_ANPR/ANPR_RZA2M_GR_MANGO/src/tensorflow_lite/tensorflow/lite/kernels/internal\types.h **** 
 154:C:/Renesas/e2studio_2021_01_workspace_RZA2M_ANPR/ANPR_RZA2M_GR_MANGO/src/tensorflow_lite/tensorflow/lite/kernels/internal\types.h ****   RuntimeShape& operator=(RuntimeShape const&) = delete;
 155:C:/Renesas/e2studio_2021_01_workspace_RZA2M_ANPR/ANPR_RZA2M_GR_MANGO/src/tensorflow_lite/tensorflow/lite/kernels/internal\types.h **** 
 156:C:/Renesas/e2studio_2021_01_workspace_RZA2M_ANPR/ANPR_RZA2M_GR_MANGO/src/tensorflow_lite/tensorflow/lite/kernels/internal\types.h ****   RuntimeShape() : size_(0) {}
 157:C:/Renesas/e2studio_2021_01_workspace_RZA2M_ANPR/ANPR_RZA2M_GR_MANGO/src/tensorflow_lite/tensorflow/lite/kernels/internal\types.h **** 
 158:C:/Renesas/e2studio_2021_01_workspace_RZA2M_ANPR/ANPR_RZA2M_GR_MANGO/src/tensorflow_lite/tensorflow/lite/kernels/internal\types.h ****   explicit RuntimeShape(int dimensions_count) : size_(dimensions_count) {
 159:C:/Renesas/e2studio_2021_01_workspace_RZA2M_ANPR/ANPR_RZA2M_GR_MANGO/src/tensorflow_lite/tensorflow/lite/kernels/internal\types.h ****     if (dimensions_count > kMaxSmallSize) {
 160:C:/Renesas/e2studio_2021_01_workspace_RZA2M_ANPR/ANPR_RZA2M_GR_MANGO/src/tensorflow_lite/tensorflow/lite/kernels/internal\types.h **** #ifdef TF_LITE_STATIC_MEMORY
 161:C:/Renesas/e2studio_2021_01_workspace_RZA2M_ANPR/ANPR_RZA2M_GR_MANGO/src/tensorflow_lite/tensorflow/lite/kernels/internal\types.h ****       TFLITE_CHECK(false && "No shape resizing supported on this platform");
 162:C:/Renesas/e2studio_2021_01_workspace_RZA2M_ANPR/ANPR_RZA2M_GR_MANGO/src/tensorflow_lite/tensorflow/lite/kernels/internal\types.h **** #else  // TF_LITE_STATIC_MEMORY
 163:C:/Renesas/e2studio_2021_01_workspace_RZA2M_ANPR/ANPR_RZA2M_GR_MANGO/src/tensorflow_lite/tensorflow/lite/kernels/internal\types.h ****       dims_pointer_ = new int32_t[dimensions_count];
 164:C:/Renesas/e2studio_2021_01_workspace_RZA2M_ANPR/ANPR_RZA2M_GR_MANGO/src/tensorflow_lite/tensorflow/lite/kernels/internal\types.h **** #endif  // TF_LITE_STATIC_MEMORY
 165:C:/Renesas/e2studio_2021_01_workspace_RZA2M_ANPR/ANPR_RZA2M_GR_MANGO/src/tensorflow_lite/tensorflow/lite/kernels/internal\types.h ****     }
 166:C:/Renesas/e2studio_2021_01_workspace_RZA2M_ANPR/ANPR_RZA2M_GR_MANGO/src/tensorflow_lite/tensorflow/lite/kernels/internal\types.h ****   }
 167:C:/Renesas/e2studio_2021_01_workspace_RZA2M_ANPR/ANPR_RZA2M_GR_MANGO/src/tensorflow_lite/tensorflow/lite/kernels/internal\types.h **** 
 168:C:/Renesas/e2studio_2021_01_workspace_RZA2M_ANPR/ANPR_RZA2M_GR_MANGO/src/tensorflow_lite/tensorflow/lite/kernels/internal\types.h ****   RuntimeShape(int shape_size, int32_t value) : size_(0) {
 169:C:/Renesas/e2studio_2021_01_workspace_RZA2M_ANPR/ANPR_RZA2M_GR_MANGO/src/tensorflow_lite/tensorflow/lite/kernels/internal\types.h ****     Resize(shape_size);
 170:C:/Renesas/e2studio_2021_01_workspace_RZA2M_ANPR/ANPR_RZA2M_GR_MANGO/src/tensorflow_lite/tensorflow/lite/kernels/internal\types.h ****     for (int i = 0; i < shape_size; ++i) {
 171:C:/Renesas/e2studio_2021_01_workspace_RZA2M_ANPR/ANPR_RZA2M_GR_MANGO/src/tensorflow_lite/tensorflow/lite/kernels/internal\types.h ****       SetDim(i, value);
 172:C:/Renesas/e2studio_2021_01_workspace_RZA2M_ANPR/ANPR_RZA2M_GR_MANGO/src/tensorflow_lite/tensorflow/lite/kernels/internal\types.h ****     }
 173:C:/Renesas/e2studio_2021_01_workspace_RZA2M_ANPR/ANPR_RZA2M_GR_MANGO/src/tensorflow_lite/tensorflow/lite/kernels/internal\types.h ****   }
 174:C:/Renesas/e2studio_2021_01_workspace_RZA2M_ANPR/ANPR_RZA2M_GR_MANGO/src/tensorflow_lite/tensorflow/lite/kernels/internal\types.h **** 
 175:C:/Renesas/e2studio_2021_01_workspace_RZA2M_ANPR/ANPR_RZA2M_GR_MANGO/src/tensorflow_lite/tensorflow/lite/kernels/internal\types.h ****   RuntimeShape(int dimensions_count, const int32_t* dims_data) : size_(0) {
 176:C:/Renesas/e2studio_2021_01_workspace_RZA2M_ANPR/ANPR_RZA2M_GR_MANGO/src/tensorflow_lite/tensorflow/lite/kernels/internal\types.h ****     ReplaceWith(dimensions_count, dims_data);
 177:C:/Renesas/e2studio_2021_01_workspace_RZA2M_ANPR/ANPR_RZA2M_GR_MANGO/src/tensorflow_lite/tensorflow/lite/kernels/internal\types.h ****   }
 178:C:/Renesas/e2studio_2021_01_workspace_RZA2M_ANPR/ANPR_RZA2M_GR_MANGO/src/tensorflow_lite/tensorflow/lite/kernels/internal\types.h **** 
 179:C:/Renesas/e2studio_2021_01_workspace_RZA2M_ANPR/ANPR_RZA2M_GR_MANGO/src/tensorflow_lite/tensorflow/lite/kernels/internal\types.h ****   RuntimeShape(const std::initializer_list<int> init_list) : size_(0) {
 180:C:/Renesas/e2studio_2021_01_workspace_RZA2M_ANPR/ANPR_RZA2M_GR_MANGO/src/tensorflow_lite/tensorflow/lite/kernels/internal\types.h ****     BuildFrom(init_list);
 181:C:/Renesas/e2studio_2021_01_workspace_RZA2M_ANPR/ANPR_RZA2M_GR_MANGO/src/tensorflow_lite/tensorflow/lite/kernels/internal\types.h ****   }
 182:C:/Renesas/e2studio_2021_01_workspace_RZA2M_ANPR/ANPR_RZA2M_GR_MANGO/src/tensorflow_lite/tensorflow/lite/kernels/internal\types.h **** 
 183:C:/Renesas/e2studio_2021_01_workspace_RZA2M_ANPR/ANPR_RZA2M_GR_MANGO/src/tensorflow_lite/tensorflow/lite/kernels/internal\types.h ****   // Avoid using this constructor.  We should be able to delete it when C++17
 184:C:/Renesas/e2studio_2021_01_workspace_RZA2M_ANPR/ANPR_RZA2M_GR_MANGO/src/tensorflow_lite/tensorflow/lite/kernels/internal\types.h ****   // rolls out.
 185:C:/Renesas/e2studio_2021_01_workspace_RZA2M_ANPR/ANPR_RZA2M_GR_MANGO/src/tensorflow_lite/tensorflow/lite/kernels/internal\types.h ****   RuntimeShape(RuntimeShape const& other) : size_(other.DimensionsCount()) {
 186:C:/Renesas/e2studio_2021_01_workspace_RZA2M_ANPR/ANPR_RZA2M_GR_MANGO/src/tensorflow_lite/tensorflow/lite/kernels/internal\types.h ****     if (size_ > kMaxSmallSize) {
 187:C:/Renesas/e2studio_2021_01_workspace_RZA2M_ANPR/ANPR_RZA2M_GR_MANGO/src/tensorflow_lite/tensorflow/lite/kernels/internal\types.h **** #ifdef TF_LITE_STATIC_MEMORY
 188:C:/Renesas/e2studio_2021_01_workspace_RZA2M_ANPR/ANPR_RZA2M_GR_MANGO/src/tensorflow_lite/tensorflow/lite/kernels/internal\types.h ****       TFLITE_CHECK(false && "No shape resizing supported on this platform");
 189:C:/Renesas/e2studio_2021_01_workspace_RZA2M_ANPR/ANPR_RZA2M_GR_MANGO/src/tensorflow_lite/tensorflow/lite/kernels/internal\types.h **** #else
 190:C:/Renesas/e2studio_2021_01_workspace_RZA2M_ANPR/ANPR_RZA2M_GR_MANGO/src/tensorflow_lite/tensorflow/lite/kernels/internal\types.h ****       dims_pointer_ = new int32_t[size_];
 191:C:/Renesas/e2studio_2021_01_workspace_RZA2M_ANPR/ANPR_RZA2M_GR_MANGO/src/tensorflow_lite/tensorflow/lite/kernels/internal\types.h **** #endif
 192:C:/Renesas/e2studio_2021_01_workspace_RZA2M_ANPR/ANPR_RZA2M_GR_MANGO/src/tensorflow_lite/tensorflow/lite/kernels/internal\types.h ****     }
 193:C:/Renesas/e2studio_2021_01_workspace_RZA2M_ANPR/ANPR_RZA2M_GR_MANGO/src/tensorflow_lite/tensorflow/lite/kernels/internal\types.h ****     std::memcpy(DimsData(), other.DimsData(), sizeof(int32_t) * size_);
 194:C:/Renesas/e2studio_2021_01_workspace_RZA2M_ANPR/ANPR_RZA2M_GR_MANGO/src/tensorflow_lite/tensorflow/lite/kernels/internal\types.h ****   }
 195:C:/Renesas/e2studio_2021_01_workspace_RZA2M_ANPR/ANPR_RZA2M_GR_MANGO/src/tensorflow_lite/tensorflow/lite/kernels/internal\types.h **** 
 196:C:/Renesas/e2studio_2021_01_workspace_RZA2M_ANPR/ANPR_RZA2M_GR_MANGO/src/tensorflow_lite/tensorflow/lite/kernels/internal\types.h ****   bool operator==(const RuntimeShape& comp) const {
 197:C:/Renesas/e2studio_2021_01_workspace_RZA2M_ANPR/ANPR_RZA2M_GR_MANGO/src/tensorflow_lite/tensorflow/lite/kernels/internal\types.h ****     return this->size_ == comp.size_ &&
 198:C:/Renesas/e2studio_2021_01_workspace_RZA2M_ANPR/ANPR_RZA2M_GR_MANGO/src/tensorflow_lite/tensorflow/lite/kernels/internal\types.h ****            std::memcmp(DimsData(), comp.DimsData(), size_ * sizeof(int32_t)) ==
 199:C:/Renesas/e2studio_2021_01_workspace_RZA2M_ANPR/ANPR_RZA2M_GR_MANGO/src/tensorflow_lite/tensorflow/lite/kernels/internal\types.h ****                0;
 200:C:/Renesas/e2studio_2021_01_workspace_RZA2M_ANPR/ANPR_RZA2M_GR_MANGO/src/tensorflow_lite/tensorflow/lite/kernels/internal\types.h ****   }
 201:C:/Renesas/e2studio_2021_01_workspace_RZA2M_ANPR/ANPR_RZA2M_GR_MANGO/src/tensorflow_lite/tensorflow/lite/kernels/internal\types.h **** 
 202:C:/Renesas/e2studio_2021_01_workspace_RZA2M_ANPR/ANPR_RZA2M_GR_MANGO/src/tensorflow_lite/tensorflow/lite/kernels/internal\types.h ****   ~RuntimeShape() {
 203:C:/Renesas/e2studio_2021_01_workspace_RZA2M_ANPR/ANPR_RZA2M_GR_MANGO/src/tensorflow_lite/tensorflow/lite/kernels/internal\types.h ****     if (size_ > kMaxSmallSize) {
 204:C:/Renesas/e2studio_2021_01_workspace_RZA2M_ANPR/ANPR_RZA2M_GR_MANGO/src/tensorflow_lite/tensorflow/lite/kernels/internal\types.h **** #ifdef TF_LITE_STATIC_MEMORY
 205:C:/Renesas/e2studio_2021_01_workspace_RZA2M_ANPR/ANPR_RZA2M_GR_MANGO/src/tensorflow_lite/tensorflow/lite/kernels/internal\types.h ****       TFLITE_CHECK(false && "No shape resizing supported on this platform");
 206:C:/Renesas/e2studio_2021_01_workspace_RZA2M_ANPR/ANPR_RZA2M_GR_MANGO/src/tensorflow_lite/tensorflow/lite/kernels/internal\types.h **** #else  // TF_LITE_STATIC_MEMORY
 207:C:/Renesas/e2studio_2021_01_workspace_RZA2M_ANPR/ANPR_RZA2M_GR_MANGO/src/tensorflow_lite/tensorflow/lite/kernels/internal\types.h ****       delete[] dims_pointer_;
 208:C:/Renesas/e2studio_2021_01_workspace_RZA2M_ANPR/ANPR_RZA2M_GR_MANGO/src/tensorflow_lite/tensorflow/lite/kernels/internal\types.h **** #endif  // TF_LITE_STATIC_MEMORY
 209:C:/Renesas/e2studio_2021_01_workspace_RZA2M_ANPR/ANPR_RZA2M_GR_MANGO/src/tensorflow_lite/tensorflow/lite/kernels/internal\types.h ****     }
 210:C:/Renesas/e2studio_2021_01_workspace_RZA2M_ANPR/ANPR_RZA2M_GR_MANGO/src/tensorflow_lite/tensorflow/lite/kernels/internal\types.h ****   }
 211:C:/Renesas/e2studio_2021_01_workspace_RZA2M_ANPR/ANPR_RZA2M_GR_MANGO/src/tensorflow_lite/tensorflow/lite/kernels/internal\types.h **** 
 212:C:/Renesas/e2studio_2021_01_workspace_RZA2M_ANPR/ANPR_RZA2M_GR_MANGO/src/tensorflow_lite/tensorflow/lite/kernels/internal\types.h ****   inline int32_t DimensionsCount() const { return size_; }
 213:C:/Renesas/e2studio_2021_01_workspace_RZA2M_ANPR/ANPR_RZA2M_GR_MANGO/src/tensorflow_lite/tensorflow/lite/kernels/internal\types.h ****   inline int32_t Dims(int i) const {
 214:C:/Renesas/e2studio_2021_01_workspace_RZA2M_ANPR/ANPR_RZA2M_GR_MANGO/src/tensorflow_lite/tensorflow/lite/kernels/internal\types.h ****     TFLITE_DCHECK_GE(i, 0);
 215:C:/Renesas/e2studio_2021_01_workspace_RZA2M_ANPR/ANPR_RZA2M_GR_MANGO/src/tensorflow_lite/tensorflow/lite/kernels/internal\types.h ****     TFLITE_DCHECK_LT(i, size_);
 216:C:/Renesas/e2studio_2021_01_workspace_RZA2M_ANPR/ANPR_RZA2M_GR_MANGO/src/tensorflow_lite/tensorflow/lite/kernels/internal\types.h ****     return size_ > kMaxSmallSize ? dims_pointer_[i] : dims_[i];
 217:C:/Renesas/e2studio_2021_01_workspace_RZA2M_ANPR/ANPR_RZA2M_GR_MANGO/src/tensorflow_lite/tensorflow/lite/kernels/internal\types.h ****   }
 218:C:/Renesas/e2studio_2021_01_workspace_RZA2M_ANPR/ANPR_RZA2M_GR_MANGO/src/tensorflow_lite/tensorflow/lite/kernels/internal\types.h ****   inline void SetDim(int i, int32_t val) {
 219:C:/Renesas/e2studio_2021_01_workspace_RZA2M_ANPR/ANPR_RZA2M_GR_MANGO/src/tensorflow_lite/tensorflow/lite/kernels/internal\types.h ****     TFLITE_DCHECK_GE(i, 0);
 220:C:/Renesas/e2studio_2021_01_workspace_RZA2M_ANPR/ANPR_RZA2M_GR_MANGO/src/tensorflow_lite/tensorflow/lite/kernels/internal\types.h ****     TFLITE_DCHECK_LT(i, size_);
 221:C:/Renesas/e2studio_2021_01_workspace_RZA2M_ANPR/ANPR_RZA2M_GR_MANGO/src/tensorflow_lite/tensorflow/lite/kernels/internal\types.h ****     if (size_ > kMaxSmallSize) {
 222:C:/Renesas/e2studio_2021_01_workspace_RZA2M_ANPR/ANPR_RZA2M_GR_MANGO/src/tensorflow_lite/tensorflow/lite/kernels/internal\types.h ****       dims_pointer_[i] = val;
 223:C:/Renesas/e2studio_2021_01_workspace_RZA2M_ANPR/ANPR_RZA2M_GR_MANGO/src/tensorflow_lite/tensorflow/lite/kernels/internal\types.h ****     } else {
 224:C:/Renesas/e2studio_2021_01_workspace_RZA2M_ANPR/ANPR_RZA2M_GR_MANGO/src/tensorflow_lite/tensorflow/lite/kernels/internal\types.h ****       dims_[i] = val;
 225:C:/Renesas/e2studio_2021_01_workspace_RZA2M_ANPR/ANPR_RZA2M_GR_MANGO/src/tensorflow_lite/tensorflow/lite/kernels/internal\types.h ****     }
 226:C:/Renesas/e2studio_2021_01_workspace_RZA2M_ANPR/ANPR_RZA2M_GR_MANGO/src/tensorflow_lite/tensorflow/lite/kernels/internal\types.h ****   }
 227:C:/Renesas/e2studio_2021_01_workspace_RZA2M_ANPR/ANPR_RZA2M_GR_MANGO/src/tensorflow_lite/tensorflow/lite/kernels/internal\types.h **** 
 228:C:/Renesas/e2studio_2021_01_workspace_RZA2M_ANPR/ANPR_RZA2M_GR_MANGO/src/tensorflow_lite/tensorflow/lite/kernels/internal\types.h ****   inline int32_t* DimsData() {
 229:C:/Renesas/e2studio_2021_01_workspace_RZA2M_ANPR/ANPR_RZA2M_GR_MANGO/src/tensorflow_lite/tensorflow/lite/kernels/internal\types.h ****     return size_ > kMaxSmallSize ? dims_pointer_ : dims_;
 230:C:/Renesas/e2studio_2021_01_workspace_RZA2M_ANPR/ANPR_RZA2M_GR_MANGO/src/tensorflow_lite/tensorflow/lite/kernels/internal\types.h ****   }
 231:C:/Renesas/e2studio_2021_01_workspace_RZA2M_ANPR/ANPR_RZA2M_GR_MANGO/src/tensorflow_lite/tensorflow/lite/kernels/internal\types.h ****   inline const int32_t* DimsData() const {
 232:C:/Renesas/e2studio_2021_01_workspace_RZA2M_ANPR/ANPR_RZA2M_GR_MANGO/src/tensorflow_lite/tensorflow/lite/kernels/internal\types.h ****     return size_ > kMaxSmallSize ? dims_pointer_ : dims_;
 233:C:/Renesas/e2studio_2021_01_workspace_RZA2M_ANPR/ANPR_RZA2M_GR_MANGO/src/tensorflow_lite/tensorflow/lite/kernels/internal\types.h ****   }
 234:C:/Renesas/e2studio_2021_01_workspace_RZA2M_ANPR/ANPR_RZA2M_GR_MANGO/src/tensorflow_lite/tensorflow/lite/kernels/internal\types.h ****   // The caller must ensure that the shape is no bigger than 5-D.
 235:C:/Renesas/e2studio_2021_01_workspace_RZA2M_ANPR/ANPR_RZA2M_GR_MANGO/src/tensorflow_lite/tensorflow/lite/kernels/internal\types.h ****   inline const int32_t* DimsDataUpTo5D() const { return dims_; }
 236:C:/Renesas/e2studio_2021_01_workspace_RZA2M_ANPR/ANPR_RZA2M_GR_MANGO/src/tensorflow_lite/tensorflow/lite/kernels/internal\types.h **** 
 237:C:/Renesas/e2studio_2021_01_workspace_RZA2M_ANPR/ANPR_RZA2M_GR_MANGO/src/tensorflow_lite/tensorflow/lite/kernels/internal\types.h ****   inline void Resize(int dimensions_count) {
 238:C:/Renesas/e2studio_2021_01_workspace_RZA2M_ANPR/ANPR_RZA2M_GR_MANGO/src/tensorflow_lite/tensorflow/lite/kernels/internal\types.h ****     if (size_ > kMaxSmallSize) {
 239:C:/Renesas/e2studio_2021_01_workspace_RZA2M_ANPR/ANPR_RZA2M_GR_MANGO/src/tensorflow_lite/tensorflow/lite/kernels/internal\types.h **** #ifdef TF_LITE_STATIC_MEMORY
 240:C:/Renesas/e2studio_2021_01_workspace_RZA2M_ANPR/ANPR_RZA2M_GR_MANGO/src/tensorflow_lite/tensorflow/lite/kernels/internal\types.h ****       TFLITE_CHECK(false && "No shape resizing supported on this platform");
 241:C:/Renesas/e2studio_2021_01_workspace_RZA2M_ANPR/ANPR_RZA2M_GR_MANGO/src/tensorflow_lite/tensorflow/lite/kernels/internal\types.h **** #else  // TF_LITE_STATIC_MEMORY
 242:C:/Renesas/e2studio_2021_01_workspace_RZA2M_ANPR/ANPR_RZA2M_GR_MANGO/src/tensorflow_lite/tensorflow/lite/kernels/internal\types.h ****       delete[] dims_pointer_;
 243:C:/Renesas/e2studio_2021_01_workspace_RZA2M_ANPR/ANPR_RZA2M_GR_MANGO/src/tensorflow_lite/tensorflow/lite/kernels/internal\types.h **** #endif  // TF_LITE_STATIC_MEMORY
 244:C:/Renesas/e2studio_2021_01_workspace_RZA2M_ANPR/ANPR_RZA2M_GR_MANGO/src/tensorflow_lite/tensorflow/lite/kernels/internal\types.h ****     }
 245:C:/Renesas/e2studio_2021_01_workspace_RZA2M_ANPR/ANPR_RZA2M_GR_MANGO/src/tensorflow_lite/tensorflow/lite/kernels/internal\types.h ****     size_ = dimensions_count;
 246:C:/Renesas/e2studio_2021_01_workspace_RZA2M_ANPR/ANPR_RZA2M_GR_MANGO/src/tensorflow_lite/tensorflow/lite/kernels/internal\types.h ****     if (dimensions_count > kMaxSmallSize) {
 443              		.loc 4 246 0
 444 02dc 050052E3 		cmp	r2, #5
 245:C:/Renesas/e2studio_2021_01_workspace_RZA2M_ANPR/ANPR_RZA2M_GR_MANGO/src/tensorflow_lite/tensorflow/lite/kernels/internal\types.h ****     if (dimensions_count > kMaxSmallSize) {
 445              		.loc 4 245 0
 446 02e0 74208DE5 		str	r2, [sp, #116]
 447              		.loc 4 246 0
 448 02e4 6A0000DA 		ble	.L21
 247:C:/Renesas/e2studio_2021_01_workspace_RZA2M_ANPR/ANPR_RZA2M_GR_MANGO/src/tensorflow_lite/tensorflow/lite/kernels/internal\types.h **** #ifdef TF_LITE_STATIC_MEMORY
 248:C:/Renesas/e2studio_2021_01_workspace_RZA2M_ANPR/ANPR_RZA2M_GR_MANGO/src/tensorflow_lite/tensorflow/lite/kernels/internal\types.h ****       TFLITE_CHECK(false && "No shape resizing supported on this platform");
 249:C:/Renesas/e2studio_2021_01_workspace_RZA2M_ANPR/ANPR_RZA2M_GR_MANGO/src/tensorflow_lite/tensorflow/lite/kernels/internal\types.h **** #else  // TF_LITE_STATIC_MEMORY
 250:C:/Renesas/e2studio_2021_01_workspace_RZA2M_ANPR/ANPR_RZA2M_GR_MANGO/src/tensorflow_lite/tensorflow/lite/kernels/internal\types.h ****       dims_pointer_ = new int32_t[dimensions_count];
 449              		.loc 4 250 0
 450 02e8 2E0272E3 		cmn	r2, #-536870910
 451 02ec AA0000CA 		bgt	.L22
 452 02f0 0271A0E1 		lsl	r7, r2, #2
 453              	.LVL45:
 454 02f4 0700A0E1 		mov	r0, r7
 455 02f8 FEFFFFEB 		bl	_Znaj
 456              	.LVL46:
 457              	.LEHE0:
 458 02fc 78008DE5 		str	r0, [sp, #120]
 459              	.LVL47:
 460              	.L23:
 461              	.LBE487:
 462              	.LBE486:
 251:C:/Renesas/e2studio_2021_01_workspace_RZA2M_ANPR/ANPR_RZA2M_GR_MANGO/src/tensorflow_lite/tensorflow/lite/kernels/internal\types.h **** #endif  // TF_LITE_STATIC_MEMORY
 252:C:/Renesas/e2studio_2021_01_workspace_RZA2M_ANPR/ANPR_RZA2M_GR_MANGO/src/tensorflow_lite/tensorflow/lite/kernels/internal\types.h ****     }
 253:C:/Renesas/e2studio_2021_01_workspace_RZA2M_ANPR/ANPR_RZA2M_GR_MANGO/src/tensorflow_lite/tensorflow/lite/kernels/internal\types.h ****   }
 254:C:/Renesas/e2studio_2021_01_workspace_RZA2M_ANPR/ANPR_RZA2M_GR_MANGO/src/tensorflow_lite/tensorflow/lite/kernels/internal\types.h **** 
 255:C:/Renesas/e2studio_2021_01_workspace_RZA2M_ANPR/ANPR_RZA2M_GR_MANGO/src/tensorflow_lite/tensorflow/lite/kernels/internal\types.h ****   inline void ReplaceWith(int dimensions_count, const int32_t* dims_data) {
 256:C:/Renesas/e2studio_2021_01_workspace_RZA2M_ANPR/ANPR_RZA2M_GR_MANGO/src/tensorflow_lite/tensorflow/lite/kernels/internal\types.h ****     Resize(dimensions_count);
 257:C:/Renesas/e2studio_2021_01_workspace_RZA2M_ANPR/ANPR_RZA2M_GR_MANGO/src/tensorflow_lite/tensorflow/lite/kernels/internal\types.h ****     int32_t* dst_dims = DimsData();
 258:C:/Renesas/e2studio_2021_01_workspace_RZA2M_ANPR/ANPR_RZA2M_GR_MANGO/src/tensorflow_lite/tensorflow/lite/kernels/internal\types.h ****     std::memcpy(dst_dims, dims_data, dimensions_count * sizeof(int32_t));
 463              		.loc 4 258 0
 464 0300 0720A0E1 		mov	r2, r7
 465 0304 041085E2 		add	r1, r5, #4
 466 0308 FEFFFFEB 		bl	memcpy
 467              	.LVL48:
 468              	.LBE485:
 469              	.LBE484:
 470              	.LBE483:
 471              	.LBE482:
 472              	.LBE481:
 473              	.LBB500:
 474              	.LBB501:
  39:C:/Renesas/e2studio_2021_01_workspace_RZA2M_ANPR/ANPR_RZA2M_GR_MANGO/src/tensorflow_lite/tensorflow/lite/kernels/internal\tensor_ctypes.h ****   const int dims_size = dims->size;
 475              		.loc 3 39 0
 476 030c 24309DE5 		ldr	r3, [sp, #36]
 477 0310 087093E5 		ldr	r7, [r3, #8]
 478              	.LVL49:
 479              		.loc 3 40 0
 480 0314 005097E5 		ldr	r5, [r7]
 481              	.LVL50:
 482              	.LBB502:
 483              	.LBB503:
 484              	.LBB504:
 485              	.LBB505:
 486              	.LBB506:
 246:C:/Renesas/e2studio_2021_01_workspace_RZA2M_ANPR/ANPR_RZA2M_GR_MANGO/src/tensorflow_lite/tensorflow/lite/kernels/internal\types.h **** #ifdef TF_LITE_STATIC_MEMORY
 487              		.loc 4 246 0
 488 0318 050055E3 		cmp	r5, #5
 245:C:/Renesas/e2studio_2021_01_workspace_RZA2M_ANPR/ANPR_RZA2M_GR_MANGO/src/tensorflow_lite/tensorflow/lite/kernels/internal\types.h ****     if (dimensions_count > kMaxSmallSize) {
 489              		.loc 4 245 0
 490 031c 8C508DE5 		str	r5, [sp, #140]
 246:C:/Renesas/e2studio_2021_01_workspace_RZA2M_ANPR/ANPR_RZA2M_GR_MANGO/src/tensorflow_lite/tensorflow/lite/kernels/internal\types.h **** #ifdef TF_LITE_STATIC_MEMORY
 491              		.loc 4 246 0
 492 0320 780000DA 		ble	.L24
 250:C:/Renesas/e2studio_2021_01_workspace_RZA2M_ANPR/ANPR_RZA2M_GR_MANGO/src/tensorflow_lite/tensorflow/lite/kernels/internal\types.h **** #endif  // TF_LITE_STATIC_MEMORY
 493              		.loc 4 250 0
 494 0324 2E0275E3 		cmn	r5, #-536870910
 495 0328 A40000CA 		bgt	.L25
 496 032c 0551A0E1 		lsl	r5, r5, #2
 497              	.LVL51:
 498 0330 0500A0E1 		mov	r0, r5
 499              	.LEHB1:
 500 0334 FEFFFFEB 		bl	_Znaj
 501              	.LVL52:
 502              	.LEHE1:
 503 0338 90008DE5 		str	r0, [sp, #144]
 504              	.LVL53:
 505              	.L26:
 506              	.LBE506:
 507              	.LBE505:
 508              		.loc 4 258 0
 509 033c 0520A0E1 		mov	r2, r5
 510 0340 041087E2 		add	r1, r7, #4
 511 0344 FEFFFFEB 		bl	memcpy
 512              	.LVL54:
 513              	.LBE504:
 514              	.LBE503:
 515              	.LBE502:
 516              	.LBE501:
 517              	.LBE500:
 518              	.LBB519:
 519              	.LBB520:
  39:C:/Renesas/e2studio_2021_01_workspace_RZA2M_ANPR/ANPR_RZA2M_GR_MANGO/src/tensorflow_lite/tensorflow/lite/kernels/internal\tensor_ctypes.h ****   const int dims_size = dims->size;
 520              		.loc 3 39 0
 521 0348 087099E5 		ldr	r7, [r9, #8]
 522              	.LVL55:
 523              		.loc 3 40 0
 524 034c 005097E5 		ldr	r5, [r7]
 525              	.LVL56:
 526              	.LBB521:
 527              	.LBB522:
 528              	.LBB523:
 529              	.LBB524:
 530              	.LBB525:
 246:C:/Renesas/e2studio_2021_01_workspace_RZA2M_ANPR/ANPR_RZA2M_GR_MANGO/src/tensorflow_lite/tensorflow/lite/kernels/internal\types.h **** #ifdef TF_LITE_STATIC_MEMORY
 531              		.loc 4 246 0
 532 0350 050055E3 		cmp	r5, #5
 245:C:/Renesas/e2studio_2021_01_workspace_RZA2M_ANPR/ANPR_RZA2M_GR_MANGO/src/tensorflow_lite/tensorflow/lite/kernels/internal\types.h ****     if (dimensions_count > kMaxSmallSize) {
 533              		.loc 4 245 0
 534 0354 A4508DE5 		str	r5, [sp, #164]
 246:C:/Renesas/e2studio_2021_01_workspace_RZA2M_ANPR/ANPR_RZA2M_GR_MANGO/src/tensorflow_lite/tensorflow/lite/kernels/internal\types.h **** #ifdef TF_LITE_STATIC_MEMORY
 535              		.loc 4 246 0
 536 0358 7A0000DA 		ble	.L27
 250:C:/Renesas/e2studio_2021_01_workspace_RZA2M_ANPR/ANPR_RZA2M_GR_MANGO/src/tensorflow_lite/tensorflow/lite/kernels/internal\types.h **** #endif  // TF_LITE_STATIC_MEMORY
 537              		.loc 4 250 0
 538 035c 2E0275E3 		cmn	r5, #-536870910
 539 0360 8C0000CA 		bgt	.L28
 540 0364 0551A0E1 		lsl	r5, r5, #2
 541              	.LVL57:
 542 0368 0500A0E1 		mov	r0, r5
 543              	.LEHB2:
 544 036c FEFFFFEB 		bl	_Znaj
 545              	.LVL58:
 546              	.LEHE2:
 547 0370 A8008DE5 		str	r0, [sp, #168]
 548              	.LVL59:
 549              	.L29:
 550              	.LBE525:
 551              	.LBE524:
 552              		.loc 4 258 0
 553 0374 0520A0E1 		mov	r2, r5
 554 0378 041087E2 		add	r1, r7, #4
 555 037c FEFFFFEB 		bl	memcpy
 556              	.LVL60:
 557              	.LBE523:
 558              	.LBE522:
 559              	.LBE521:
 560              	.LBE520:
 561              	.LBE519:
 110:../src/tensorflow_lite/tensorflow/lite/micro/kernels/cmsis_nn/depthwise_conv.cc ****     TFLITE_DCHECK_EQ(filter_shape.DimensionsCount(), 4);
 562              		.loc 1 110 0
 563 0380 74309DE5 		ldr	r3, [sp, #116]
 564 0384 040053E3 		cmp	r3, #4
 565 0388 8D00001A 		bne	.L82
 566              	.LVL61:
 111:../src/tensorflow_lite/tensorflow/lite/micro/kernels/cmsis_nn/depthwise_conv.cc ****     TFLITE_DCHECK_EQ(output_shape.DimensionsCount(), 4);
 567              		.loc 1 111 0
 568 038c A4309DE5 		ldr	r3, [sp, #164]
 569 0390 040053E3 		cmp	r3, #4
 570 0394 A000001A 		bne	.L83
 571              	.LVL62:
 112:../src/tensorflow_lite/tensorflow/lite/micro/kernels/cmsis_nn/depthwise_conv.cc **** 
 572              		.loc 1 112 0
 573 0398 8C309DE5 		ldr	r3, [sp, #140]
 574 039c 040053E3 		cmp	r3, #4
 575 03a0 9C00001A 		bne	.L84
 576              	.LVL63:
 577              	.LBB538:
 578              	.LBB539:
 579              	.LBB540:
 580              	.LBB541:
 216:C:/Renesas/e2studio_2021_01_workspace_RZA2M_ANPR/ANPR_RZA2M_GR_MANGO/src/tensorflow_lite/tensorflow/lite/kernels/internal\types.h ****   }
 581              		.loc 4 216 0
 582 03a4 78C09DE5 		ldr	ip, [sp, #120]
 583              	.LVL64:
 584              	.LBE541:
 585              	.LBE540:
 259:C:/Renesas/e2studio_2021_01_workspace_RZA2M_ANPR/ANPR_RZA2M_GR_MANGO/src/tensorflow_lite/tensorflow/lite/kernels/internal\types.h ****   }
 260:C:/Renesas/e2studio_2021_01_workspace_RZA2M_ANPR/ANPR_RZA2M_GR_MANGO/src/tensorflow_lite/tensorflow/lite/kernels/internal\types.h **** 
 261:C:/Renesas/e2studio_2021_01_workspace_RZA2M_ANPR/ANPR_RZA2M_GR_MANGO/src/tensorflow_lite/tensorflow/lite/kernels/internal\types.h ****   template <typename T>
 262:C:/Renesas/e2studio_2021_01_workspace_RZA2M_ANPR/ANPR_RZA2M_GR_MANGO/src/tensorflow_lite/tensorflow/lite/kernels/internal\types.h ****   inline void BuildFrom(const T& src_iterable) {
 263:C:/Renesas/e2studio_2021_01_workspace_RZA2M_ANPR/ANPR_RZA2M_GR_MANGO/src/tensorflow_lite/tensorflow/lite/kernels/internal\types.h ****     const int dimensions_count =
 264:C:/Renesas/e2studio_2021_01_workspace_RZA2M_ANPR/ANPR_RZA2M_GR_MANGO/src/tensorflow_lite/tensorflow/lite/kernels/internal\types.h ****         std::distance(src_iterable.begin(), src_iterable.end());
 265:C:/Renesas/e2studio_2021_01_workspace_RZA2M_ANPR/ANPR_RZA2M_GR_MANGO/src/tensorflow_lite/tensorflow/lite/kernels/internal\types.h ****     Resize(dimensions_count);
 266:C:/Renesas/e2studio_2021_01_workspace_RZA2M_ANPR/ANPR_RZA2M_GR_MANGO/src/tensorflow_lite/tensorflow/lite/kernels/internal\types.h ****     int32_t* data = DimsData();
 267:C:/Renesas/e2studio_2021_01_workspace_RZA2M_ANPR/ANPR_RZA2M_GR_MANGO/src/tensorflow_lite/tensorflow/lite/kernels/internal\types.h ****     for (auto it : src_iterable) {
 268:C:/Renesas/e2studio_2021_01_workspace_RZA2M_ANPR/ANPR_RZA2M_GR_MANGO/src/tensorflow_lite/tensorflow/lite/kernels/internal\types.h ****       *data = it;
 269:C:/Renesas/e2studio_2021_01_workspace_RZA2M_ANPR/ANPR_RZA2M_GR_MANGO/src/tensorflow_lite/tensorflow/lite/kernels/internal\types.h ****       ++data;
 270:C:/Renesas/e2studio_2021_01_workspace_RZA2M_ANPR/ANPR_RZA2M_GR_MANGO/src/tensorflow_lite/tensorflow/lite/kernels/internal\types.h ****     }
 271:C:/Renesas/e2studio_2021_01_workspace_RZA2M_ANPR/ANPR_RZA2M_GR_MANGO/src/tensorflow_lite/tensorflow/lite/kernels/internal\types.h ****   }
 272:C:/Renesas/e2studio_2021_01_workspace_RZA2M_ANPR/ANPR_RZA2M_GR_MANGO/src/tensorflow_lite/tensorflow/lite/kernels/internal\types.h **** 
 273:C:/Renesas/e2studio_2021_01_workspace_RZA2M_ANPR/ANPR_RZA2M_GR_MANGO/src/tensorflow_lite/tensorflow/lite/kernels/internal\types.h ****   // This will probably be factored out. Old code made substantial use of 4-D
 274:C:/Renesas/e2studio_2021_01_workspace_RZA2M_ANPR/ANPR_RZA2M_GR_MANGO/src/tensorflow_lite/tensorflow/lite/kernels/internal\types.h ****   // shapes, and so this function is used to extend smaller shapes. Note that
 275:C:/Renesas/e2studio_2021_01_workspace_RZA2M_ANPR/ANPR_RZA2M_GR_MANGO/src/tensorflow_lite/tensorflow/lite/kernels/internal\types.h ****   // (a) as Dims<4>-dependent code is eliminated, the reliance on this should be
 276:C:/Renesas/e2studio_2021_01_workspace_RZA2M_ANPR/ANPR_RZA2M_GR_MANGO/src/tensorflow_lite/tensorflow/lite/kernels/internal\types.h ****   // reduced, and (b) some kernels are stricly 4-D, but then the shapes of their
 277:C:/Renesas/e2studio_2021_01_workspace_RZA2M_ANPR/ANPR_RZA2M_GR_MANGO/src/tensorflow_lite/tensorflow/lite/kernels/internal\types.h ****   // inputs should already be 4-D, so this function should not be needed.
 278:C:/Renesas/e2studio_2021_01_workspace_RZA2M_ANPR/ANPR_RZA2M_GR_MANGO/src/tensorflow_lite/tensorflow/lite/kernels/internal\types.h ****   inline static RuntimeShape ExtendedShape(int new_shape_size,
 279:C:/Renesas/e2studio_2021_01_workspace_RZA2M_ANPR/ANPR_RZA2M_GR_MANGO/src/tensorflow_lite/tensorflow/lite/kernels/internal\types.h ****                                            const RuntimeShape& shape) {
 280:C:/Renesas/e2studio_2021_01_workspace_RZA2M_ANPR/ANPR_RZA2M_GR_MANGO/src/tensorflow_lite/tensorflow/lite/kernels/internal\types.h ****     return RuntimeShape(new_shape_size, shape, 1);
 281:C:/Renesas/e2studio_2021_01_workspace_RZA2M_ANPR/ANPR_RZA2M_GR_MANGO/src/tensorflow_lite/tensorflow/lite/kernels/internal\types.h ****   }
 282:C:/Renesas/e2studio_2021_01_workspace_RZA2M_ANPR/ANPR_RZA2M_GR_MANGO/src/tensorflow_lite/tensorflow/lite/kernels/internal\types.h **** 
 283:C:/Renesas/e2studio_2021_01_workspace_RZA2M_ANPR/ANPR_RZA2M_GR_MANGO/src/tensorflow_lite/tensorflow/lite/kernels/internal\types.h ****   inline void BuildFrom(const std::initializer_list<int> init_list) {
 284:C:/Renesas/e2studio_2021_01_workspace_RZA2M_ANPR/ANPR_RZA2M_GR_MANGO/src/tensorflow_lite/tensorflow/lite/kernels/internal\types.h ****     BuildFrom<const std::initializer_list<int>>(init_list);
 285:C:/Renesas/e2studio_2021_01_workspace_RZA2M_ANPR/ANPR_RZA2M_GR_MANGO/src/tensorflow_lite/tensorflow/lite/kernels/internal\types.h ****   }
 286:C:/Renesas/e2studio_2021_01_workspace_RZA2M_ANPR/ANPR_RZA2M_GR_MANGO/src/tensorflow_lite/tensorflow/lite/kernels/internal\types.h **** 
 287:C:/Renesas/e2studio_2021_01_workspace_RZA2M_ANPR/ANPR_RZA2M_GR_MANGO/src/tensorflow_lite/tensorflow/lite/kernels/internal\types.h ****   // Returns the total count of elements, that is the size when flattened into a
 288:C:/Renesas/e2studio_2021_01_workspace_RZA2M_ANPR/ANPR_RZA2M_GR_MANGO/src/tensorflow_lite/tensorflow/lite/kernels/internal\types.h ****   // vector.
 289:C:/Renesas/e2studio_2021_01_workspace_RZA2M_ANPR/ANPR_RZA2M_GR_MANGO/src/tensorflow_lite/tensorflow/lite/kernels/internal\types.h ****   inline int FlatSize() const {
 290:C:/Renesas/e2studio_2021_01_workspace_RZA2M_ANPR/ANPR_RZA2M_GR_MANGO/src/tensorflow_lite/tensorflow/lite/kernels/internal\types.h ****     int buffer_size = 1;
 291:C:/Renesas/e2studio_2021_01_workspace_RZA2M_ANPR/ANPR_RZA2M_GR_MANGO/src/tensorflow_lite/tensorflow/lite/kernels/internal\types.h ****     const int* dims_data = reinterpret_cast<const int*>(DimsData());
 292:C:/Renesas/e2studio_2021_01_workspace_RZA2M_ANPR/ANPR_RZA2M_GR_MANGO/src/tensorflow_lite/tensorflow/lite/kernels/internal\types.h ****     for (int i = 0; i < size_; i++) {
 293:C:/Renesas/e2studio_2021_01_workspace_RZA2M_ANPR/ANPR_RZA2M_GR_MANGO/src/tensorflow_lite/tensorflow/lite/kernels/internal\types.h ****       buffer_size *= dims_data[i];
 294:C:/Renesas/e2studio_2021_01_workspace_RZA2M_ANPR/ANPR_RZA2M_GR_MANGO/src/tensorflow_lite/tensorflow/lite/kernels/internal\types.h ****     }
 295:C:/Renesas/e2studio_2021_01_workspace_RZA2M_ANPR/ANPR_RZA2M_GR_MANGO/src/tensorflow_lite/tensorflow/lite/kernels/internal\types.h ****     return buffer_size;
 296:C:/Renesas/e2studio_2021_01_workspace_RZA2M_ANPR/ANPR_RZA2M_GR_MANGO/src/tensorflow_lite/tensorflow/lite/kernels/internal\types.h ****   }
 297:C:/Renesas/e2studio_2021_01_workspace_RZA2M_ANPR/ANPR_RZA2M_GR_MANGO/src/tensorflow_lite/tensorflow/lite/kernels/internal\types.h **** 
 298:C:/Renesas/e2studio_2021_01_workspace_RZA2M_ANPR/ANPR_RZA2M_GR_MANGO/src/tensorflow_lite/tensorflow/lite/kernels/internal\types.h ****   bool operator!=(const RuntimeShape& comp) const { return !((*this) == comp); }
 299:C:/Renesas/e2studio_2021_01_workspace_RZA2M_ANPR/ANPR_RZA2M_GR_MANGO/src/tensorflow_lite/tensorflow/lite/kernels/internal\types.h **** 
 300:C:/Renesas/e2studio_2021_01_workspace_RZA2M_ANPR/ANPR_RZA2M_GR_MANGO/src/tensorflow_lite/tensorflow/lite/kernels/internal\types.h ****  private:
 301:C:/Renesas/e2studio_2021_01_workspace_RZA2M_ANPR/ANPR_RZA2M_GR_MANGO/src/tensorflow_lite/tensorflow/lite/kernels/internal\types.h ****   // For use only by ExtendedShape(), written to guarantee (return-value) copy
 302:C:/Renesas/e2studio_2021_01_workspace_RZA2M_ANPR/ANPR_RZA2M_GR_MANGO/src/tensorflow_lite/tensorflow/lite/kernels/internal\types.h ****   // elision in C++17.
 303:C:/Renesas/e2studio_2021_01_workspace_RZA2M_ANPR/ANPR_RZA2M_GR_MANGO/src/tensorflow_lite/tensorflow/lite/kernels/internal\types.h ****   // This creates a shape padded to the desired size with the specified value.
 304:C:/Renesas/e2studio_2021_01_workspace_RZA2M_ANPR/ANPR_RZA2M_GR_MANGO/src/tensorflow_lite/tensorflow/lite/kernels/internal\types.h ****   RuntimeShape(int new_shape_size, const RuntimeShape& shape, int pad_value)
 305:C:/Renesas/e2studio_2021_01_workspace_RZA2M_ANPR/ANPR_RZA2M_GR_MANGO/src/tensorflow_lite/tensorflow/lite/kernels/internal\types.h ****       : size_(0) {
 306:C:/Renesas/e2studio_2021_01_workspace_RZA2M_ANPR/ANPR_RZA2M_GR_MANGO/src/tensorflow_lite/tensorflow/lite/kernels/internal\types.h ****     // If the following check fails, it is likely because a 4D-only kernel is
 307:C:/Renesas/e2studio_2021_01_workspace_RZA2M_ANPR/ANPR_RZA2M_GR_MANGO/src/tensorflow_lite/tensorflow/lite/kernels/internal\types.h ****     // being used with an array of larger dimension count.
 308:C:/Renesas/e2studio_2021_01_workspace_RZA2M_ANPR/ANPR_RZA2M_GR_MANGO/src/tensorflow_lite/tensorflow/lite/kernels/internal\types.h ****     TFLITE_CHECK_GE(new_shape_size, shape.DimensionsCount());
 309:C:/Renesas/e2studio_2021_01_workspace_RZA2M_ANPR/ANPR_RZA2M_GR_MANGO/src/tensorflow_lite/tensorflow/lite/kernels/internal\types.h ****     Resize(new_shape_size);
 310:C:/Renesas/e2studio_2021_01_workspace_RZA2M_ANPR/ANPR_RZA2M_GR_MANGO/src/tensorflow_lite/tensorflow/lite/kernels/internal\types.h ****     const int size_increase = new_shape_size - shape.DimensionsCount();
 311:C:/Renesas/e2studio_2021_01_workspace_RZA2M_ANPR/ANPR_RZA2M_GR_MANGO/src/tensorflow_lite/tensorflow/lite/kernels/internal\types.h ****     for (int i = 0; i < size_increase; ++i) {
 312:C:/Renesas/e2studio_2021_01_workspace_RZA2M_ANPR/ANPR_RZA2M_GR_MANGO/src/tensorflow_lite/tensorflow/lite/kernels/internal\types.h ****       SetDim(i, pad_value);
 313:C:/Renesas/e2studio_2021_01_workspace_RZA2M_ANPR/ANPR_RZA2M_GR_MANGO/src/tensorflow_lite/tensorflow/lite/kernels/internal\types.h ****     }
 314:C:/Renesas/e2studio_2021_01_workspace_RZA2M_ANPR/ANPR_RZA2M_GR_MANGO/src/tensorflow_lite/tensorflow/lite/kernels/internal\types.h ****     std::memcpy(DimsData() + size_increase, shape.DimsData(),
 315:C:/Renesas/e2studio_2021_01_workspace_RZA2M_ANPR/ANPR_RZA2M_GR_MANGO/src/tensorflow_lite/tensorflow/lite/kernels/internal\types.h ****                 sizeof(int32_t) * shape.DimensionsCount());
 316:C:/Renesas/e2studio_2021_01_workspace_RZA2M_ANPR/ANPR_RZA2M_GR_MANGO/src/tensorflow_lite/tensorflow/lite/kernels/internal\types.h ****   }
 317:C:/Renesas/e2studio_2021_01_workspace_RZA2M_ANPR/ANPR_RZA2M_GR_MANGO/src/tensorflow_lite/tensorflow/lite/kernels/internal\types.h **** 
 318:C:/Renesas/e2studio_2021_01_workspace_RZA2M_ANPR/ANPR_RZA2M_GR_MANGO/src/tensorflow_lite/tensorflow/lite/kernels/internal\types.h ****   int32_t size_;
 319:C:/Renesas/e2studio_2021_01_workspace_RZA2M_ANPR/ANPR_RZA2M_GR_MANGO/src/tensorflow_lite/tensorflow/lite/kernels/internal\types.h ****   union {
 320:C:/Renesas/e2studio_2021_01_workspace_RZA2M_ANPR/ANPR_RZA2M_GR_MANGO/src/tensorflow_lite/tensorflow/lite/kernels/internal\types.h ****     int32_t dims_[kMaxSmallSize];
 321:C:/Renesas/e2studio_2021_01_workspace_RZA2M_ANPR/ANPR_RZA2M_GR_MANGO/src/tensorflow_lite/tensorflow/lite/kernels/internal\types.h ****     int32_t* dims_pointer_;
 322:C:/Renesas/e2studio_2021_01_workspace_RZA2M_ANPR/ANPR_RZA2M_GR_MANGO/src/tensorflow_lite/tensorflow/lite/kernels/internal\types.h ****   };
 323:C:/Renesas/e2studio_2021_01_workspace_RZA2M_ANPR/ANPR_RZA2M_GR_MANGO/src/tensorflow_lite/tensorflow/lite/kernels/internal\types.h **** };
 324:C:/Renesas/e2studio_2021_01_workspace_RZA2M_ANPR/ANPR_RZA2M_GR_MANGO/src/tensorflow_lite/tensorflow/lite/kernels/internal\types.h **** 
 325:C:/Renesas/e2studio_2021_01_workspace_RZA2M_ANPR/ANPR_RZA2M_GR_MANGO/src/tensorflow_lite/tensorflow/lite/kernels/internal\types.h **** // Converts inference-style shape to legacy tflite::Dims<4>.
 326:C:/Renesas/e2studio_2021_01_workspace_RZA2M_ANPR/ANPR_RZA2M_GR_MANGO/src/tensorflow_lite/tensorflow/lite/kernels/internal\types.h **** inline tflite::Dims<4> ToRuntimeDims(const tflite::RuntimeShape& array_shape) {
 327:C:/Renesas/e2studio_2021_01_workspace_RZA2M_ANPR/ANPR_RZA2M_GR_MANGO/src/tensorflow_lite/tensorflow/lite/kernels/internal\types.h ****   tflite::Dims<4> result;
 328:C:/Renesas/e2studio_2021_01_workspace_RZA2M_ANPR/ANPR_RZA2M_GR_MANGO/src/tensorflow_lite/tensorflow/lite/kernels/internal\types.h ****   const int dimensions_count = array_shape.DimensionsCount();
 329:C:/Renesas/e2studio_2021_01_workspace_RZA2M_ANPR/ANPR_RZA2M_GR_MANGO/src/tensorflow_lite/tensorflow/lite/kernels/internal\types.h ****   TFLITE_CHECK_LE(dimensions_count, 4);
 330:C:/Renesas/e2studio_2021_01_workspace_RZA2M_ANPR/ANPR_RZA2M_GR_MANGO/src/tensorflow_lite/tensorflow/lite/kernels/internal\types.h ****   int cum_prod = 1;
 331:C:/Renesas/e2studio_2021_01_workspace_RZA2M_ANPR/ANPR_RZA2M_GR_MANGO/src/tensorflow_lite/tensorflow/lite/kernels/internal\types.h ****   for (int i = 0; i < 4; i++) {
 332:C:/Renesas/e2studio_2021_01_workspace_RZA2M_ANPR/ANPR_RZA2M_GR_MANGO/src/tensorflow_lite/tensorflow/lite/kernels/internal\types.h ****     const int new_dim =
 333:C:/Renesas/e2studio_2021_01_workspace_RZA2M_ANPR/ANPR_RZA2M_GR_MANGO/src/tensorflow_lite/tensorflow/lite/kernels/internal\types.h ****         (i < dimensions_count) ? array_shape.Dims(dimensions_count - 1 - i) : 1;
 334:C:/Renesas/e2studio_2021_01_workspace_RZA2M_ANPR/ANPR_RZA2M_GR_MANGO/src/tensorflow_lite/tensorflow/lite/kernels/internal\types.h ****     result.sizes[i] = new_dim;
 335:C:/Renesas/e2studio_2021_01_workspace_RZA2M_ANPR/ANPR_RZA2M_GR_MANGO/src/tensorflow_lite/tensorflow/lite/kernels/internal\types.h ****     result.strides[i] = cum_prod;
 336:C:/Renesas/e2studio_2021_01_workspace_RZA2M_ANPR/ANPR_RZA2M_GR_MANGO/src/tensorflow_lite/tensorflow/lite/kernels/internal\types.h ****     cum_prod *= new_dim;
 337:C:/Renesas/e2studio_2021_01_workspace_RZA2M_ANPR/ANPR_RZA2M_GR_MANGO/src/tensorflow_lite/tensorflow/lite/kernels/internal\types.h ****   }
 338:C:/Renesas/e2studio_2021_01_workspace_RZA2M_ANPR/ANPR_RZA2M_GR_MANGO/src/tensorflow_lite/tensorflow/lite/kernels/internal\types.h ****   return result;
 339:C:/Renesas/e2studio_2021_01_workspace_RZA2M_ANPR/ANPR_RZA2M_GR_MANGO/src/tensorflow_lite/tensorflow/lite/kernels/internal\types.h **** }
 340:C:/Renesas/e2studio_2021_01_workspace_RZA2M_ANPR/ANPR_RZA2M_GR_MANGO/src/tensorflow_lite/tensorflow/lite/kernels/internal\types.h **** 
 341:C:/Renesas/e2studio_2021_01_workspace_RZA2M_ANPR/ANPR_RZA2M_GR_MANGO/src/tensorflow_lite/tensorflow/lite/kernels/internal\types.h **** // TODO(b/80418076): Move to legacy ops file, update invocations.
 342:C:/Renesas/e2studio_2021_01_workspace_RZA2M_ANPR/ANPR_RZA2M_GR_MANGO/src/tensorflow_lite/tensorflow/lite/kernels/internal\types.h **** inline RuntimeShape DimsToShape(const tflite::Dims<4>& dims) {
 343:C:/Renesas/e2studio_2021_01_workspace_RZA2M_ANPR/ANPR_RZA2M_GR_MANGO/src/tensorflow_lite/tensorflow/lite/kernels/internal\types.h ****   return RuntimeShape(
 344:C:/Renesas/e2studio_2021_01_workspace_RZA2M_ANPR/ANPR_RZA2M_GR_MANGO/src/tensorflow_lite/tensorflow/lite/kernels/internal\types.h ****       {dims.sizes[3], dims.sizes[2], dims.sizes[1], dims.sizes[0]});
 345:C:/Renesas/e2studio_2021_01_workspace_RZA2M_ANPR/ANPR_RZA2M_GR_MANGO/src/tensorflow_lite/tensorflow/lite/kernels/internal\types.h **** }
 346:C:/Renesas/e2studio_2021_01_workspace_RZA2M_ANPR/ANPR_RZA2M_GR_MANGO/src/tensorflow_lite/tensorflow/lite/kernels/internal\types.h **** 
 347:C:/Renesas/e2studio_2021_01_workspace_RZA2M_ANPR/ANPR_RZA2M_GR_MANGO/src/tensorflow_lite/tensorflow/lite/kernels/internal\types.h **** // Gets next index to iterate through a multidimensional array.
 348:C:/Renesas/e2studio_2021_01_workspace_RZA2M_ANPR/ANPR_RZA2M_GR_MANGO/src/tensorflow_lite/tensorflow/lite/kernels/internal\types.h **** inline bool NextIndex(const int num_dims, const int* dims, int* current) {
 349:C:/Renesas/e2studio_2021_01_workspace_RZA2M_ANPR/ANPR_RZA2M_GR_MANGO/src/tensorflow_lite/tensorflow/lite/kernels/internal\types.h ****   if (num_dims == 0) {
 350:C:/Renesas/e2studio_2021_01_workspace_RZA2M_ANPR/ANPR_RZA2M_GR_MANGO/src/tensorflow_lite/tensorflow/lite/kernels/internal\types.h ****     return false;
 351:C:/Renesas/e2studio_2021_01_workspace_RZA2M_ANPR/ANPR_RZA2M_GR_MANGO/src/tensorflow_lite/tensorflow/lite/kernels/internal\types.h ****   }
 352:C:/Renesas/e2studio_2021_01_workspace_RZA2M_ANPR/ANPR_RZA2M_GR_MANGO/src/tensorflow_lite/tensorflow/lite/kernels/internal\types.h ****   TFLITE_DCHECK(dims != nullptr);
 353:C:/Renesas/e2studio_2021_01_workspace_RZA2M_ANPR/ANPR_RZA2M_GR_MANGO/src/tensorflow_lite/tensorflow/lite/kernels/internal\types.h ****   TFLITE_DCHECK(current != nullptr);
 354:C:/Renesas/e2studio_2021_01_workspace_RZA2M_ANPR/ANPR_RZA2M_GR_MANGO/src/tensorflow_lite/tensorflow/lite/kernels/internal\types.h ****   int carry = 1;
 355:C:/Renesas/e2studio_2021_01_workspace_RZA2M_ANPR/ANPR_RZA2M_GR_MANGO/src/tensorflow_lite/tensorflow/lite/kernels/internal\types.h ****   for (int idx = num_dims - 1; idx >= 0; --idx) {
 356:C:/Renesas/e2studio_2021_01_workspace_RZA2M_ANPR/ANPR_RZA2M_GR_MANGO/src/tensorflow_lite/tensorflow/lite/kernels/internal\types.h ****     int current_val = current[idx] + carry;
 357:C:/Renesas/e2studio_2021_01_workspace_RZA2M_ANPR/ANPR_RZA2M_GR_MANGO/src/tensorflow_lite/tensorflow/lite/kernels/internal\types.h ****     TFLITE_DCHECK_GE(dims[idx], current_val);
 358:C:/Renesas/e2studio_2021_01_workspace_RZA2M_ANPR/ANPR_RZA2M_GR_MANGO/src/tensorflow_lite/tensorflow/lite/kernels/internal\types.h ****     if (dims[idx] == current_val) {
 359:C:/Renesas/e2studio_2021_01_workspace_RZA2M_ANPR/ANPR_RZA2M_GR_MANGO/src/tensorflow_lite/tensorflow/lite/kernels/internal\types.h ****       current[idx] = 0;
 360:C:/Renesas/e2studio_2021_01_workspace_RZA2M_ANPR/ANPR_RZA2M_GR_MANGO/src/tensorflow_lite/tensorflow/lite/kernels/internal\types.h ****     } else {
 361:C:/Renesas/e2studio_2021_01_workspace_RZA2M_ANPR/ANPR_RZA2M_GR_MANGO/src/tensorflow_lite/tensorflow/lite/kernels/internal\types.h ****       current[idx] = current_val;
 362:C:/Renesas/e2studio_2021_01_workspace_RZA2M_ANPR/ANPR_RZA2M_GR_MANGO/src/tensorflow_lite/tensorflow/lite/kernels/internal\types.h ****       carry = 0;
 363:C:/Renesas/e2studio_2021_01_workspace_RZA2M_ANPR/ANPR_RZA2M_GR_MANGO/src/tensorflow_lite/tensorflow/lite/kernels/internal\types.h ****       break;
 364:C:/Renesas/e2studio_2021_01_workspace_RZA2M_ANPR/ANPR_RZA2M_GR_MANGO/src/tensorflow_lite/tensorflow/lite/kernels/internal\types.h ****     }
 365:C:/Renesas/e2studio_2021_01_workspace_RZA2M_ANPR/ANPR_RZA2M_GR_MANGO/src/tensorflow_lite/tensorflow/lite/kernels/internal\types.h ****   }
 366:C:/Renesas/e2studio_2021_01_workspace_RZA2M_ANPR/ANPR_RZA2M_GR_MANGO/src/tensorflow_lite/tensorflow/lite/kernels/internal\types.h ****   return (carry == 0);
 367:C:/Renesas/e2studio_2021_01_workspace_RZA2M_ANPR/ANPR_RZA2M_GR_MANGO/src/tensorflow_lite/tensorflow/lite/kernels/internal\types.h **** }
 368:C:/Renesas/e2studio_2021_01_workspace_RZA2M_ANPR/ANPR_RZA2M_GR_MANGO/src/tensorflow_lite/tensorflow/lite/kernels/internal\types.h **** 
 369:C:/Renesas/e2studio_2021_01_workspace_RZA2M_ANPR/ANPR_RZA2M_GR_MANGO/src/tensorflow_lite/tensorflow/lite/kernels/internal\types.h **** // Gets offset of index if reducing on axis. When reducing, the flattened offset
 370:C:/Renesas/e2studio_2021_01_workspace_RZA2M_ANPR/ANPR_RZA2M_GR_MANGO/src/tensorflow_lite/tensorflow/lite/kernels/internal\types.h **** // will not change, if the input index changes on the given axis. For example,
 371:C:/Renesas/e2studio_2021_01_workspace_RZA2M_ANPR/ANPR_RZA2M_GR_MANGO/src/tensorflow_lite/tensorflow/lite/kernels/internal\types.h **** // if you have a 3D tensor and you are reducing to 2D by eliminating axis 0,
 372:C:/Renesas/e2studio_2021_01_workspace_RZA2M_ANPR/ANPR_RZA2M_GR_MANGO/src/tensorflow_lite/tensorflow/lite/kernels/internal\types.h **** // then index (0, 1, 2) and index (1, 1, 2) will map to the same flattened
 373:C:/Renesas/e2studio_2021_01_workspace_RZA2M_ANPR/ANPR_RZA2M_GR_MANGO/src/tensorflow_lite/tensorflow/lite/kernels/internal\types.h **** // offset.
 374:C:/Renesas/e2studio_2021_01_workspace_RZA2M_ANPR/ANPR_RZA2M_GR_MANGO/src/tensorflow_lite/tensorflow/lite/kernels/internal\types.h **** // TODO(kanlig): uses Dims to represent dimensions.
 375:C:/Renesas/e2studio_2021_01_workspace_RZA2M_ANPR/ANPR_RZA2M_GR_MANGO/src/tensorflow_lite/tensorflow/lite/kernels/internal\types.h **** inline size_t ReducedOutputOffset(const int num_dims, const int* dims,
 376:C:/Renesas/e2studio_2021_01_workspace_RZA2M_ANPR/ANPR_RZA2M_GR_MANGO/src/tensorflow_lite/tensorflow/lite/kernels/internal\types.h ****                                   const int* index, const int num_axis,
 377:C:/Renesas/e2studio_2021_01_workspace_RZA2M_ANPR/ANPR_RZA2M_GR_MANGO/src/tensorflow_lite/tensorflow/lite/kernels/internal\types.h ****                                   const int* axis) {
 378:C:/Renesas/e2studio_2021_01_workspace_RZA2M_ANPR/ANPR_RZA2M_GR_MANGO/src/tensorflow_lite/tensorflow/lite/kernels/internal\types.h ****   if (num_dims == 0) {
 379:C:/Renesas/e2studio_2021_01_workspace_RZA2M_ANPR/ANPR_RZA2M_GR_MANGO/src/tensorflow_lite/tensorflow/lite/kernels/internal\types.h ****     return 0;
 380:C:/Renesas/e2studio_2021_01_workspace_RZA2M_ANPR/ANPR_RZA2M_GR_MANGO/src/tensorflow_lite/tensorflow/lite/kernels/internal\types.h ****   }
 381:C:/Renesas/e2studio_2021_01_workspace_RZA2M_ANPR/ANPR_RZA2M_GR_MANGO/src/tensorflow_lite/tensorflow/lite/kernels/internal\types.h ****   TFLITE_DCHECK(dims != nullptr);
 382:C:/Renesas/e2studio_2021_01_workspace_RZA2M_ANPR/ANPR_RZA2M_GR_MANGO/src/tensorflow_lite/tensorflow/lite/kernels/internal\types.h ****   TFLITE_DCHECK(index != nullptr);
 383:C:/Renesas/e2studio_2021_01_workspace_RZA2M_ANPR/ANPR_RZA2M_GR_MANGO/src/tensorflow_lite/tensorflow/lite/kernels/internal\types.h ****   size_t offset = 0;
 384:C:/Renesas/e2studio_2021_01_workspace_RZA2M_ANPR/ANPR_RZA2M_GR_MANGO/src/tensorflow_lite/tensorflow/lite/kernels/internal\types.h ****   for (int idx = 0; idx < num_dims; ++idx) {
 385:C:/Renesas/e2studio_2021_01_workspace_RZA2M_ANPR/ANPR_RZA2M_GR_MANGO/src/tensorflow_lite/tensorflow/lite/kernels/internal\types.h ****     // if we need to skip this axis
 386:C:/Renesas/e2studio_2021_01_workspace_RZA2M_ANPR/ANPR_RZA2M_GR_MANGO/src/tensorflow_lite/tensorflow/lite/kernels/internal\types.h ****     bool is_axis = false;
 387:C:/Renesas/e2studio_2021_01_workspace_RZA2M_ANPR/ANPR_RZA2M_GR_MANGO/src/tensorflow_lite/tensorflow/lite/kernels/internal\types.h ****     if (axis != nullptr) {
 388:C:/Renesas/e2studio_2021_01_workspace_RZA2M_ANPR/ANPR_RZA2M_GR_MANGO/src/tensorflow_lite/tensorflow/lite/kernels/internal\types.h ****       for (int axis_idx = 0; axis_idx < num_axis; ++axis_idx) {
 389:C:/Renesas/e2studio_2021_01_workspace_RZA2M_ANPR/ANPR_RZA2M_GR_MANGO/src/tensorflow_lite/tensorflow/lite/kernels/internal\types.h ****         if (idx == axis[axis_idx]) {
 390:C:/Renesas/e2studio_2021_01_workspace_RZA2M_ANPR/ANPR_RZA2M_GR_MANGO/src/tensorflow_lite/tensorflow/lite/kernels/internal\types.h ****           is_axis = true;
 391:C:/Renesas/e2studio_2021_01_workspace_RZA2M_ANPR/ANPR_RZA2M_GR_MANGO/src/tensorflow_lite/tensorflow/lite/kernels/internal\types.h ****           break;
 392:C:/Renesas/e2studio_2021_01_workspace_RZA2M_ANPR/ANPR_RZA2M_GR_MANGO/src/tensorflow_lite/tensorflow/lite/kernels/internal\types.h ****         }
 393:C:/Renesas/e2studio_2021_01_workspace_RZA2M_ANPR/ANPR_RZA2M_GR_MANGO/src/tensorflow_lite/tensorflow/lite/kernels/internal\types.h ****       }
 394:C:/Renesas/e2studio_2021_01_workspace_RZA2M_ANPR/ANPR_RZA2M_GR_MANGO/src/tensorflow_lite/tensorflow/lite/kernels/internal\types.h ****     }
 395:C:/Renesas/e2studio_2021_01_workspace_RZA2M_ANPR/ANPR_RZA2M_GR_MANGO/src/tensorflow_lite/tensorflow/lite/kernels/internal\types.h ****     if (!is_axis) {
 396:C:/Renesas/e2studio_2021_01_workspace_RZA2M_ANPR/ANPR_RZA2M_GR_MANGO/src/tensorflow_lite/tensorflow/lite/kernels/internal\types.h ****       offset = offset * static_cast<size_t>(dims[idx]) +
 397:C:/Renesas/e2studio_2021_01_workspace_RZA2M_ANPR/ANPR_RZA2M_GR_MANGO/src/tensorflow_lite/tensorflow/lite/kernels/internal\types.h ****                static_cast<size_t>(index[idx]);
 398:C:/Renesas/e2studio_2021_01_workspace_RZA2M_ANPR/ANPR_RZA2M_GR_MANGO/src/tensorflow_lite/tensorflow/lite/kernels/internal\types.h ****     }
 399:C:/Renesas/e2studio_2021_01_workspace_RZA2M_ANPR/ANPR_RZA2M_GR_MANGO/src/tensorflow_lite/tensorflow/lite/kernels/internal\types.h ****   }
 400:C:/Renesas/e2studio_2021_01_workspace_RZA2M_ANPR/ANPR_RZA2M_GR_MANGO/src/tensorflow_lite/tensorflow/lite/kernels/internal\types.h ****   return offset;
 401:C:/Renesas/e2studio_2021_01_workspace_RZA2M_ANPR/ANPR_RZA2M_GR_MANGO/src/tensorflow_lite/tensorflow/lite/kernels/internal\types.h **** }
 402:C:/Renesas/e2studio_2021_01_workspace_RZA2M_ANPR/ANPR_RZA2M_GR_MANGO/src/tensorflow_lite/tensorflow/lite/kernels/internal\types.h **** 
 403:C:/Renesas/e2studio_2021_01_workspace_RZA2M_ANPR/ANPR_RZA2M_GR_MANGO/src/tensorflow_lite/tensorflow/lite/kernels/internal\types.h **** inline int Offset(const RuntimeShape& shape, int i0, int i1, int i2, int i3) {
 404:C:/Renesas/e2studio_2021_01_workspace_RZA2M_ANPR/ANPR_RZA2M_GR_MANGO/src/tensorflow_lite/tensorflow/lite/kernels/internal\types.h ****   TFLITE_DCHECK_EQ(shape.DimensionsCount(), 4);
 405:C:/Renesas/e2studio_2021_01_workspace_RZA2M_ANPR/ANPR_RZA2M_GR_MANGO/src/tensorflow_lite/tensorflow/lite/kernels/internal\types.h ****   const int* dims_data = reinterpret_cast<const int*>(shape.DimsDataUpTo5D());
 406:C:/Renesas/e2studio_2021_01_workspace_RZA2M_ANPR/ANPR_RZA2M_GR_MANGO/src/tensorflow_lite/tensorflow/lite/kernels/internal\types.h ****   TFLITE_DCHECK(i0 >= 0 && i0 < dims_data[0]);
 407:C:/Renesas/e2studio_2021_01_workspace_RZA2M_ANPR/ANPR_RZA2M_GR_MANGO/src/tensorflow_lite/tensorflow/lite/kernels/internal\types.h ****   TFLITE_DCHECK(i1 >= 0 && i1 < dims_data[1]);
 408:C:/Renesas/e2studio_2021_01_workspace_RZA2M_ANPR/ANPR_RZA2M_GR_MANGO/src/tensorflow_lite/tensorflow/lite/kernels/internal\types.h ****   TFLITE_DCHECK(i2 >= 0 && i2 < dims_data[2]);
 409:C:/Renesas/e2studio_2021_01_workspace_RZA2M_ANPR/ANPR_RZA2M_GR_MANGO/src/tensorflow_lite/tensorflow/lite/kernels/internal\types.h ****   TFLITE_DCHECK(i3 >= 0 && i3 < dims_data[3]);
 410:C:/Renesas/e2studio_2021_01_workspace_RZA2M_ANPR/ANPR_RZA2M_GR_MANGO/src/tensorflow_lite/tensorflow/lite/kernels/internal\types.h ****   return ((i0 * dims_data[1] + i1) * dims_data[2] + i2) * dims_data[3] + i3;
 411:C:/Renesas/e2studio_2021_01_workspace_RZA2M_ANPR/ANPR_RZA2M_GR_MANGO/src/tensorflow_lite/tensorflow/lite/kernels/internal\types.h **** }
 412:C:/Renesas/e2studio_2021_01_workspace_RZA2M_ANPR/ANPR_RZA2M_GR_MANGO/src/tensorflow_lite/tensorflow/lite/kernels/internal\types.h **** 
 413:C:/Renesas/e2studio_2021_01_workspace_RZA2M_ANPR/ANPR_RZA2M_GR_MANGO/src/tensorflow_lite/tensorflow/lite/kernels/internal\types.h **** inline int Offset(const RuntimeShape& shape, int i0, int i1, int i2, int i3,
 414:C:/Renesas/e2studio_2021_01_workspace_RZA2M_ANPR/ANPR_RZA2M_GR_MANGO/src/tensorflow_lite/tensorflow/lite/kernels/internal\types.h ****                   int i4) {
 415:C:/Renesas/e2studio_2021_01_workspace_RZA2M_ANPR/ANPR_RZA2M_GR_MANGO/src/tensorflow_lite/tensorflow/lite/kernels/internal\types.h ****   TFLITE_DCHECK_EQ(shape.DimensionsCount(), 5);
 416:C:/Renesas/e2studio_2021_01_workspace_RZA2M_ANPR/ANPR_RZA2M_GR_MANGO/src/tensorflow_lite/tensorflow/lite/kernels/internal\types.h ****   const int* dims_data = reinterpret_cast<const int*>(shape.DimsDataUpTo5D());
 417:C:/Renesas/e2studio_2021_01_workspace_RZA2M_ANPR/ANPR_RZA2M_GR_MANGO/src/tensorflow_lite/tensorflow/lite/kernels/internal\types.h ****   TFLITE_DCHECK(i0 >= 0 && i0 < dims_data[0]);
 418:C:/Renesas/e2studio_2021_01_workspace_RZA2M_ANPR/ANPR_RZA2M_GR_MANGO/src/tensorflow_lite/tensorflow/lite/kernels/internal\types.h ****   TFLITE_DCHECK(i1 >= 0 && i1 < dims_data[1]);
 419:C:/Renesas/e2studio_2021_01_workspace_RZA2M_ANPR/ANPR_RZA2M_GR_MANGO/src/tensorflow_lite/tensorflow/lite/kernels/internal\types.h ****   TFLITE_DCHECK(i2 >= 0 && i2 < dims_data[2]);
 420:C:/Renesas/e2studio_2021_01_workspace_RZA2M_ANPR/ANPR_RZA2M_GR_MANGO/src/tensorflow_lite/tensorflow/lite/kernels/internal\types.h ****   TFLITE_DCHECK(i3 >= 0 && i3 < dims_data[3]);
 421:C:/Renesas/e2studio_2021_01_workspace_RZA2M_ANPR/ANPR_RZA2M_GR_MANGO/src/tensorflow_lite/tensorflow/lite/kernels/internal\types.h ****   TFLITE_DCHECK(i4 >= 0 && i4 < dims_data[4]);
 422:C:/Renesas/e2studio_2021_01_workspace_RZA2M_ANPR/ANPR_RZA2M_GR_MANGO/src/tensorflow_lite/tensorflow/lite/kernels/internal\types.h ****   return (((i0 * dims_data[1] + i1) * dims_data[2] + i2) * dims_data[3] + i3) *
 423:C:/Renesas/e2studio_2021_01_workspace_RZA2M_ANPR/ANPR_RZA2M_GR_MANGO/src/tensorflow_lite/tensorflow/lite/kernels/internal\types.h ****              dims_data[4] +
 424:C:/Renesas/e2studio_2021_01_workspace_RZA2M_ANPR/ANPR_RZA2M_GR_MANGO/src/tensorflow_lite/tensorflow/lite/kernels/internal\types.h ****          i4;
 425:C:/Renesas/e2studio_2021_01_workspace_RZA2M_ANPR/ANPR_RZA2M_GR_MANGO/src/tensorflow_lite/tensorflow/lite/kernels/internal\types.h **** }
 426:C:/Renesas/e2studio_2021_01_workspace_RZA2M_ANPR/ANPR_RZA2M_GR_MANGO/src/tensorflow_lite/tensorflow/lite/kernels/internal\types.h **** 
 427:C:/Renesas/e2studio_2021_01_workspace_RZA2M_ANPR/ANPR_RZA2M_GR_MANGO/src/tensorflow_lite/tensorflow/lite/kernels/internal\types.h **** inline int Offset(const Dims<4>& dims, int i0, int i1, int i2, int i3) {
 428:C:/Renesas/e2studio_2021_01_workspace_RZA2M_ANPR/ANPR_RZA2M_GR_MANGO/src/tensorflow_lite/tensorflow/lite/kernels/internal\types.h ****   TFLITE_DCHECK(i0 >= 0 && i0 < dims.sizes[0]);
 429:C:/Renesas/e2studio_2021_01_workspace_RZA2M_ANPR/ANPR_RZA2M_GR_MANGO/src/tensorflow_lite/tensorflow/lite/kernels/internal\types.h ****   TFLITE_DCHECK(i1 >= 0 && i1 < dims.sizes[1]);
 430:C:/Renesas/e2studio_2021_01_workspace_RZA2M_ANPR/ANPR_RZA2M_GR_MANGO/src/tensorflow_lite/tensorflow/lite/kernels/internal\types.h ****   TFLITE_DCHECK(i2 >= 0 && i2 < dims.sizes[2]);
 431:C:/Renesas/e2studio_2021_01_workspace_RZA2M_ANPR/ANPR_RZA2M_GR_MANGO/src/tensorflow_lite/tensorflow/lite/kernels/internal\types.h ****   TFLITE_DCHECK(i3 >= 0 && i3 < dims.sizes[3]);
 432:C:/Renesas/e2studio_2021_01_workspace_RZA2M_ANPR/ANPR_RZA2M_GR_MANGO/src/tensorflow_lite/tensorflow/lite/kernels/internal\types.h ****   return i0 * dims.strides[0] + i1 * dims.strides[1] + i2 * dims.strides[2] +
 433:C:/Renesas/e2studio_2021_01_workspace_RZA2M_ANPR/ANPR_RZA2M_GR_MANGO/src/tensorflow_lite/tensorflow/lite/kernels/internal\types.h ****          i3 * dims.strides[3];
 434:C:/Renesas/e2studio_2021_01_workspace_RZA2M_ANPR/ANPR_RZA2M_GR_MANGO/src/tensorflow_lite/tensorflow/lite/kernels/internal\types.h **** }
 435:C:/Renesas/e2studio_2021_01_workspace_RZA2M_ANPR/ANPR_RZA2M_GR_MANGO/src/tensorflow_lite/tensorflow/lite/kernels/internal\types.h **** 
 436:C:/Renesas/e2studio_2021_01_workspace_RZA2M_ANPR/ANPR_RZA2M_GR_MANGO/src/tensorflow_lite/tensorflow/lite/kernels/internal\types.h **** inline int Offset(const Dims<4>& dims, int* index) {
 437:C:/Renesas/e2studio_2021_01_workspace_RZA2M_ANPR/ANPR_RZA2M_GR_MANGO/src/tensorflow_lite/tensorflow/lite/kernels/internal\types.h ****   return Offset(dims, index[0], index[1], index[2], index[3]);
 438:C:/Renesas/e2studio_2021_01_workspace_RZA2M_ANPR/ANPR_RZA2M_GR_MANGO/src/tensorflow_lite/tensorflow/lite/kernels/internal\types.h **** }
 439:C:/Renesas/e2studio_2021_01_workspace_RZA2M_ANPR/ANPR_RZA2M_GR_MANGO/src/tensorflow_lite/tensorflow/lite/kernels/internal\types.h **** 
 440:C:/Renesas/e2studio_2021_01_workspace_RZA2M_ANPR/ANPR_RZA2M_GR_MANGO/src/tensorflow_lite/tensorflow/lite/kernels/internal\types.h **** inline int Offset(const RuntimeShape& shape, int* index) {
 441:C:/Renesas/e2studio_2021_01_workspace_RZA2M_ANPR/ANPR_RZA2M_GR_MANGO/src/tensorflow_lite/tensorflow/lite/kernels/internal\types.h ****   return Offset(shape, index[0], index[1], index[2], index[3]);
 442:C:/Renesas/e2studio_2021_01_workspace_RZA2M_ANPR/ANPR_RZA2M_GR_MANGO/src/tensorflow_lite/tensorflow/lite/kernels/internal\types.h **** }
 443:C:/Renesas/e2studio_2021_01_workspace_RZA2M_ANPR/ANPR_RZA2M_GR_MANGO/src/tensorflow_lite/tensorflow/lite/kernels/internal\types.h **** 
 444:C:/Renesas/e2studio_2021_01_workspace_RZA2M_ANPR/ANPR_RZA2M_GR_MANGO/src/tensorflow_lite/tensorflow/lite/kernels/internal\types.h **** // Get array size, DCHECKing that the dim index is in range.
 445:C:/Renesas/e2studio_2021_01_workspace_RZA2M_ANPR/ANPR_RZA2M_GR_MANGO/src/tensorflow_lite/tensorflow/lite/kernels/internal\types.h **** //
 446:C:/Renesas/e2studio_2021_01_workspace_RZA2M_ANPR/ANPR_RZA2M_GR_MANGO/src/tensorflow_lite/tensorflow/lite/kernels/internal\types.h **** // Note that this will be phased out with Dims<4>, since RuntimeShape::Dims()
 447:C:/Renesas/e2studio_2021_01_workspace_RZA2M_ANPR/ANPR_RZA2M_GR_MANGO/src/tensorflow_lite/tensorflow/lite/kernels/internal\types.h **** // already performs this check.
 448:C:/Renesas/e2studio_2021_01_workspace_RZA2M_ANPR/ANPR_RZA2M_GR_MANGO/src/tensorflow_lite/tensorflow/lite/kernels/internal\types.h **** template <int N>
 449:C:/Renesas/e2studio_2021_01_workspace_RZA2M_ANPR/ANPR_RZA2M_GR_MANGO/src/tensorflow_lite/tensorflow/lite/kernels/internal\types.h **** int ArraySize(const Dims<N>& array, int index) {
 450:C:/Renesas/e2studio_2021_01_workspace_RZA2M_ANPR/ANPR_RZA2M_GR_MANGO/src/tensorflow_lite/tensorflow/lite/kernels/internal\types.h ****   TFLITE_DCHECK(index >= 0 && index < N);
 451:C:/Renesas/e2studio_2021_01_workspace_RZA2M_ANPR/ANPR_RZA2M_GR_MANGO/src/tensorflow_lite/tensorflow/lite/kernels/internal\types.h ****   return array.sizes[index];
 452:C:/Renesas/e2studio_2021_01_workspace_RZA2M_ANPR/ANPR_RZA2M_GR_MANGO/src/tensorflow_lite/tensorflow/lite/kernels/internal\types.h **** }
 453:C:/Renesas/e2studio_2021_01_workspace_RZA2M_ANPR/ANPR_RZA2M_GR_MANGO/src/tensorflow_lite/tensorflow/lite/kernels/internal\types.h **** 
 454:C:/Renesas/e2studio_2021_01_workspace_RZA2M_ANPR/ANPR_RZA2M_GR_MANGO/src/tensorflow_lite/tensorflow/lite/kernels/internal\types.h **** // Get common array size, DCHECKing that they all agree.
 455:C:/Renesas/e2studio_2021_01_workspace_RZA2M_ANPR/ANPR_RZA2M_GR_MANGO/src/tensorflow_lite/tensorflow/lite/kernels/internal\types.h **** template <typename ArrayType1, typename ArrayType2>
 456:C:/Renesas/e2studio_2021_01_workspace_RZA2M_ANPR/ANPR_RZA2M_GR_MANGO/src/tensorflow_lite/tensorflow/lite/kernels/internal\types.h **** int MatchingArraySize(const ArrayType1& array1, int index1,
 457:C:/Renesas/e2studio_2021_01_workspace_RZA2M_ANPR/ANPR_RZA2M_GR_MANGO/src/tensorflow_lite/tensorflow/lite/kernels/internal\types.h ****                       const ArrayType2& array2, int index2) {
 458:C:/Renesas/e2studio_2021_01_workspace_RZA2M_ANPR/ANPR_RZA2M_GR_MANGO/src/tensorflow_lite/tensorflow/lite/kernels/internal\types.h ****   TFLITE_DCHECK_EQ(ArraySize(array1, index1), ArraySize(array2, index2));
 459:C:/Renesas/e2studio_2021_01_workspace_RZA2M_ANPR/ANPR_RZA2M_GR_MANGO/src/tensorflow_lite/tensorflow/lite/kernels/internal\types.h ****   return ArraySize(array1, index1);
 460:C:/Renesas/e2studio_2021_01_workspace_RZA2M_ANPR/ANPR_RZA2M_GR_MANGO/src/tensorflow_lite/tensorflow/lite/kernels/internal\types.h **** }
 461:C:/Renesas/e2studio_2021_01_workspace_RZA2M_ANPR/ANPR_RZA2M_GR_MANGO/src/tensorflow_lite/tensorflow/lite/kernels/internal\types.h **** 
 462:C:/Renesas/e2studio_2021_01_workspace_RZA2M_ANPR/ANPR_RZA2M_GR_MANGO/src/tensorflow_lite/tensorflow/lite/kernels/internal\types.h **** template <typename ArrayType1, typename ArrayType2, typename... Args>
 463:C:/Renesas/e2studio_2021_01_workspace_RZA2M_ANPR/ANPR_RZA2M_GR_MANGO/src/tensorflow_lite/tensorflow/lite/kernels/internal\types.h **** int MatchingArraySize(const ArrayType1& array1, int index1,
 464:C:/Renesas/e2studio_2021_01_workspace_RZA2M_ANPR/ANPR_RZA2M_GR_MANGO/src/tensorflow_lite/tensorflow/lite/kernels/internal\types.h ****                       const ArrayType2& array2, int index2, Args... args) {
 465:C:/Renesas/e2studio_2021_01_workspace_RZA2M_ANPR/ANPR_RZA2M_GR_MANGO/src/tensorflow_lite/tensorflow/lite/kernels/internal\types.h ****   TFLITE_DCHECK_EQ(ArraySize(array1, index1), ArraySize(array2, index2));
 466:C:/Renesas/e2studio_2021_01_workspace_RZA2M_ANPR/ANPR_RZA2M_GR_MANGO/src/tensorflow_lite/tensorflow/lite/kernels/internal\types.h ****   return MatchingArraySize(array1, index1, args...);
 467:C:/Renesas/e2studio_2021_01_workspace_RZA2M_ANPR/ANPR_RZA2M_GR_MANGO/src/tensorflow_lite/tensorflow/lite/kernels/internal\types.h **** }
 468:C:/Renesas/e2studio_2021_01_workspace_RZA2M_ANPR/ANPR_RZA2M_GR_MANGO/src/tensorflow_lite/tensorflow/lite/kernels/internal\types.h **** 
 469:C:/Renesas/e2studio_2021_01_workspace_RZA2M_ANPR/ANPR_RZA2M_GR_MANGO/src/tensorflow_lite/tensorflow/lite/kernels/internal\types.h **** // Get common shape dim, DCHECKing that they all agree.
 470:C:/Renesas/e2studio_2021_01_workspace_RZA2M_ANPR/ANPR_RZA2M_GR_MANGO/src/tensorflow_lite/tensorflow/lite/kernels/internal\types.h **** inline int MatchingDim(const RuntimeShape& shape1, int index1,
 471:C:/Renesas/e2studio_2021_01_workspace_RZA2M_ANPR/ANPR_RZA2M_GR_MANGO/src/tensorflow_lite/tensorflow/lite/kernels/internal\types.h ****                        const RuntimeShape& shape2, int index2) {
 472:C:/Renesas/e2studio_2021_01_workspace_RZA2M_ANPR/ANPR_RZA2M_GR_MANGO/src/tensorflow_lite/tensorflow/lite/kernels/internal\types.h ****   TFLITE_DCHECK_EQ(shape1.Dims(index1), shape2.Dims(index2));
 586              		.loc 4 472 0
 587 03a8 90309DE5 		ldr	r3, [sp, #144]
 588 03ac 03005CE1 		cmp	ip, r3
 589 03b0 9700001A 		bne	.L85
 590              	.LVL65:
 591              	.LBE539:
 592              	.LBE538:
 593              	.LBB543:
 594              	.LBB544:
 595              	.LBB545:
 596              	.LBB546:
 216:C:/Renesas/e2studio_2021_01_workspace_RZA2M_ANPR/ANPR_RZA2M_GR_MANGO/src/tensorflow_lite/tensorflow/lite/kernels/internal\types.h ****   }
 597              		.loc 4 216 0
 598 03b4 9CE09DE5 		ldr	lr, [sp, #156]
 599              	.LVL66:
 600              	.LBE546:
 601              	.LBE545:
 602              		.loc 4 472 0
 603 03b8 B4309DE5 		ldr	r3, [sp, #180]
 604 03bc 03005EE1 		cmp	lr, r3
 605 03c0 9200001A 		bne	.L86
 606              	.LVL67:
 607              	.LBE544:
 608              	.LBE543:
 116:../src/tensorflow_lite/tensorflow/lite/micro/kernels/cmsis_nn/depthwise_conv.cc **** 
 609              		.loc 1 116 0
 610 03c4 01005CE3 		cmp	ip, #1
 611 03c8 8F00001A 		bne	.L87
 127:../src/tensorflow_lite/tensorflow/lite/micro/kernels/cmsis_nn/depthwise_conv.cc ****     filter_dims.c = output_depth;
 612              		.loc 1 127 0
 613 03cc 28709DE5 		ldr	r7, [sp, #40]
 141:../src/tensorflow_lite/tensorflow/lite/micro/kernels/cmsis_nn/depthwise_conv.cc **** 
 614              		.loc 1 141 0
 615 03d0 64308DE2 		add	r3, sp, #100
 132:../src/tensorflow_lite/tensorflow/lite/micro/kernels/cmsis_nn/depthwise_conv.cc ****     output_dims.w = output_width;
 616              		.loc 1 132 0
 617 03d4 30809DE5 		ldr	r8, [sp, #48]
 618              	.LVL68:
 141:../src/tensorflow_lite/tensorflow/lite/micro/kernels/cmsis_nn/depthwise_conv.cc **** 
 619              		.loc 1 141 0
 620 03d8 BC008DE2 		add	r0, sp, #188
 120:../src/tensorflow_lite/tensorflow/lite/micro/kernels/cmsis_nn/depthwise_conv.cc ****     input_dims.w = input_width;
 621              		.loc 1 120 0
 622 03dc 34209DE5 		ldr	r2, [sp, #52]
 121:../src/tensorflow_lite/tensorflow/lite/micro/kernels/cmsis_nn/depthwise_conv.cc ****     input_dims.c = input_shape.Dims(3);
 623              		.loc 1 121 0
 624 03e0 38109DE5 		ldr	r1, [sp, #56]
 122:../src/tensorflow_lite/tensorflow/lite/micro/kernels/cmsis_nn/depthwise_conv.cc **** 
 625              		.loc 1 122 0
 626 03e4 84509DE5 		ldr	r5, [sp, #132]
 119:../src/tensorflow_lite/tensorflow/lite/micro/kernels/cmsis_nn/depthwise_conv.cc ****     input_dims.h = input_height;
 627              		.loc 1 119 0
 628 03e8 44C08DE5 		str	ip, [sp, #68]
 125:../src/tensorflow_lite/tensorflow/lite/micro/kernels/cmsis_nn/depthwise_conv.cc ****     filter_dims.h = filter_height;
 629              		.loc 1 125 0
 630 03ec 54C08DE5 		str	ip, [sp, #84]
 127:../src/tensorflow_lite/tensorflow/lite/micro/kernels/cmsis_nn/depthwise_conv.cc ****     filter_dims.c = output_depth;
 631              		.loc 1 127 0
 632 03f0 5C708DE5 		str	r7, [sp, #92]
 131:../src/tensorflow_lite/tensorflow/lite/micro/kernels/cmsis_nn/depthwise_conv.cc ****     output_dims.h = output_height;
 633              		.loc 1 131 0
 634 03f4 64C08DE5 		str	ip, [sp, #100]
 137:../src/tensorflow_lite/tensorflow/lite/micro/kernels/cmsis_nn/depthwise_conv.cc ****     dw_conv_params.padding.w = data->reference_op_data.padding.width;
 635              		.loc 1 137 0
 636 03f8 047096E5 		ldr	r7, [r6, #4]
 138:../src/tensorflow_lite/tensorflow/lite/micro/kernels/cmsis_nn/depthwise_conv.cc **** 
 637              		.loc 1 138 0
 638 03fc 00C096E5 		ldr	ip, [r6]
 132:../src/tensorflow_lite/tensorflow/lite/micro/kernels/cmsis_nn/depthwise_conv.cc ****     output_dims.w = output_width;
 639              		.loc 1 132 0
 640 0400 68808DE5 		str	r8, [sp, #104]
 133:../src/tensorflow_lite/tensorflow/lite/micro/kernels/cmsis_nn/depthwise_conv.cc ****     output_dims.c = output_depth;
 641              		.loc 1 133 0
 642 0404 2C809DE5 		ldr	r8, [sp, #44]
 120:../src/tensorflow_lite/tensorflow/lite/micro/kernels/cmsis_nn/depthwise_conv.cc ****     input_dims.w = input_width;
 643              		.loc 1 120 0
 644 0408 48208DE5 		str	r2, [sp, #72]
 141:../src/tensorflow_lite/tensorflow/lite/micro/kernels/cmsis_nn/depthwise_conv.cc **** 
 645              		.loc 1 141 0
 646 040c 54208DE2 		add	r2, sp, #84
 121:../src/tensorflow_lite/tensorflow/lite/micro/kernels/cmsis_nn/depthwise_conv.cc ****     input_dims.c = input_shape.Dims(3);
 647              		.loc 1 121 0
 648 0410 4C108DE5 		str	r1, [sp, #76]
 141:../src/tensorflow_lite/tensorflow/lite/micro/kernels/cmsis_nn/depthwise_conv.cc **** 
 649              		.loc 1 141 0
 650 0414 44108DE2 		add	r1, sp, #68
 126:../src/tensorflow_lite/tensorflow/lite/micro/kernels/cmsis_nn/depthwise_conv.cc ****     filter_dims.w = filter_width;
 651              		.loc 1 126 0
 652 0418 58B08DE5 		str	fp, [sp, #88]
 128:../src/tensorflow_lite/tensorflow/lite/micro/kernels/cmsis_nn/depthwise_conv.cc **** 
 653              		.loc 1 128 0
 654 041c 60E08DE5 		str	lr, [sp, #96]
 133:../src/tensorflow_lite/tensorflow/lite/micro/kernels/cmsis_nn/depthwise_conv.cc ****     output_dims.c = output_depth;
 655              		.loc 1 133 0
 656 0420 6C808DE5 		str	r8, [sp, #108]
 134:../src/tensorflow_lite/tensorflow/lite/micro/kernels/cmsis_nn/depthwise_conv.cc **** 
 657              		.loc 1 134 0
 658 0424 70E08DE5 		str	lr, [sp, #112]
 122:../src/tensorflow_lite/tensorflow/lite/micro/kernels/cmsis_nn/depthwise_conv.cc **** 
 659              		.loc 1 122 0
 660 0428 50508DE5 		str	r5, [sp, #80]
 137:../src/tensorflow_lite/tensorflow/lite/micro/kernels/cmsis_nn/depthwise_conv.cc ****     dw_conv_params.padding.w = data->reference_op_data.padding.width;
 661              		.loc 1 137 0
 662 042c D4708DE5 		str	r7, [sp, #212]
 138:../src/tensorflow_lite/tensorflow/lite/micro/kernels/cmsis_nn/depthwise_conv.cc **** 
 663              		.loc 1 138 0
 664 0430 D0C08DE5 		str	ip, [sp, #208]
 665              	.LEHB3:
 141:../src/tensorflow_lite/tensorflow/lite/micro/kernels/cmsis_nn/depthwise_conv.cc **** 
 666              		.loc 1 141 0
 667 0434 FEFFFFEB 		bl	arm_depthwise_conv_wrapper_s8_get_buffer_size
 668              	.LVL69:
 669              	.LBB548:
 143:../src/tensorflow_lite/tensorflow/lite/micro/kernels/cmsis_nn/depthwise_conv.cc ****       TF_LITE_ENSURE_STATUS(context->RequestScratchBufferInArena(
 670              		.loc 1 143 0
 671 0438 001050E2 		subs	r1, r0, #0
 672 043c 510000DA 		ble	.L88
 673              	.LBB549:
 144:../src/tensorflow_lite/tensorflow/lite/micro/kernels/cmsis_nn/depthwise_conv.cc ****           context, buf_size, &data->buffer_idx));
 674              		.loc 1 144 0
 675 0440 342086E2 		add	r2, r6, #52
 676 0444 403094E5 		ldr	r3, [r4, #64]
 677 0448 0400A0E1 		mov	r0, r4
 678              	.LVL70:
 679 044c 33FF2FE1 		blx	r3
 680              	.LVL71:
 681              	.LEHE3:
 682 0450 000050E3 		cmp	r0, #0
 683              	.LVL72:
 684 0454 43FFFF1A 		bne	.L68
 685              	.L37:
 686              	.LBE549:
 687              	.LBE548:
 688              	.LBE480:
 689              	.LBE572:
 150:../src/tensorflow_lite/tensorflow/lite/micro/kernels/cmsis_nn/depthwise_conv.cc **** }
 690              		.loc 1 150 0
 691 0458 0000A0E3 		mov	r0, #0
 692              	.LBB573:
 693              	.LBB565:
 694 045c 41FFFFEA 		b	.L68
 695              	.LVL73:
 696              	.L81:
 697              	.LBE565:
 698              	.LBE573:
 699              	.LBB574:
 700              	.LBB451:
  83:../src/tensorflow_lite/tensorflow/lite/micro/kernels/cmsis_nn/depthwise_conv.cc ****         context, affine_quantization->scale->size == 1 ||
 701              		.loc 1 83 0 discriminator 2
 702 0460 003000E3 		movw	r3, #:lower16:.LC12
 703 0464 002000E3 		movw	r2, #:lower16:.LC1
 704 0468 003040E3 		movt	r3, #:upper16:.LC12
 705 046c 001000E3 		movw	r1, #:lower16:.LC2
 706 0470 00308DE5 		str	r3, [sp]
 707              	.LVL74:
 708 0474 0400A0E1 		mov	r0, r4
 709 0478 002040E3 		movt	r2, #:upper16:.LC1
 710 047c 001040E3 		movt	r1, #:upper16:.LC2
 711 0480 145094E5 		ldr	r5, [r4, #20]
 712              	.LVL75:
 713 0484 5630A0E3 		mov	r3, #86
 714              	.LEHB4:
 715 0488 35FF2FE1 		blx	r5
 716              	.LVL76:
 717 048c 0100A0E3 		mov	r0, #1
 718 0490 34FFFFEA 		b	.L68
 719              	.LVL77:
 720              	.L21:
 721 0494 0271A0E1 		lsl	r7, r2, #2
 722              	.LVL78:
 723              	.LBE451:
 724              	.LBE574:
 725              	.LBB575:
 726              	.LBB566:
 727              	.LBB550:
 728              	.LBB498:
 729              	.LBB496:
 730              	.LBB494:
 731              	.LBB492:
 732              	.LBB489:
 733              	.LBB490:
 229:C:/Renesas/e2studio_2021_01_workspace_RZA2M_ANPR/ANPR_RZA2M_GR_MANGO/src/tensorflow_lite/tensorflow/lite/kernels/internal\types.h ****   }
 734              		.loc 4 229 0
 735 0498 78008DE2 		add	r0, sp, #120
 736 049c 97FFFFEA 		b	.L23
 737              	.LVL79:
 738              	.L80:
 739              	.LBE490:
 740              	.LBE489:
 741              	.LBE492:
 742              	.LBE494:
 743              	.LBE496:
 744              	.LBE498:
 745              	.LBE550:
 746              	.LBE566:
 747              	.LBE575:
 748              	.LBB576:
 749              	.LBB452:
  82:../src/tensorflow_lite/tensorflow/lite/micro/kernels/cmsis_nn/depthwise_conv.cc ****     TF_LITE_ENSURE(
 750              		.loc 1 82 0 discriminator 1
 751 04a0 003000E3 		movw	r3, #:lower16:.LC11
 752              	.LVL80:
 753 04a4 002000E3 		movw	r2, #:lower16:.LC1
 754 04a8 003040E3 		movt	r3, #:upper16:.LC11
 755 04ac 001000E3 		movw	r1, #:lower16:.LC2
 756 04b0 00308DE5 		str	r3, [sp]
 757              	.LVL81:
 758 04b4 0400A0E1 		mov	r0, r4
 759 04b8 002040E3 		movt	r2, #:upper16:.LC1
 760 04bc 001040E3 		movt	r1, #:upper16:.LC2
 761 04c0 145094E5 		ldr	r5, [r4, #20]
 762              	.LVL82:
 763 04c4 5230A0E3 		mov	r3, #82
 764 04c8 35FF2FE1 		blx	r5
 765              	.LVL83:
 766 04cc 0100A0E3 		mov	r0, #1
 767 04d0 24FFFFEA 		b	.L68
 768              	.LVL84:
 769              	.L74:
 770              	.LBE452:
 771              	.LBE576:
  62:../src/tensorflow_lite/tensorflow/lite/micro/kernels/cmsis_nn/depthwise_conv.cc **** 
 772              		.loc 1 62 0 discriminator 1
 773 04d4 003000E3 		movw	r3, #:lower16:.LC5
 774 04d8 002000E3 		movw	r2, #:lower16:.LC1
 775 04dc 003040E3 		movt	r3, #:upper16:.LC5
 776 04e0 001000E3 		movw	r1, #:lower16:.LC2
 777 04e4 00308DE5 		str	r3, [sp]
 778 04e8 0400A0E1 		mov	r0, r4
 779              	.LVL85:
 780 04ec 002040E3 		movt	r2, #:upper16:.LC1
 781 04f0 001040E3 		movt	r1, #:upper16:.LC2
 782 04f4 145094E5 		ldr	r5, [r4, #20]
 783              	.LVL86:
 784 04f8 3E30A0E3 		mov	r3, #62
 785 04fc 35FF2FE1 		blx	r5
 786              	.LVL87:
 787 0500 0100A0E3 		mov	r0, #1
 788 0504 17FFFFEA 		b	.L68
 789              	.LVL88:
 790              	.L24:
 791 0508 0551A0E1 		lsl	r5, r5, #2
 792              	.LVL89:
 793              	.LBB577:
 794              	.LBB567:
 795              	.LBB551:
 796              	.LBB517:
 797              	.LBB515:
 798              	.LBB513:
 799              	.LBB511:
 800              	.LBB508:
 801              	.LBB509:
 229:C:/Renesas/e2studio_2021_01_workspace_RZA2M_ANPR/ANPR_RZA2M_GR_MANGO/src/tensorflow_lite/tensorflow/lite/kernels/internal\types.h ****   }
 802              		.loc 4 229 0
 803 050c 90008DE2 		add	r0, sp, #144
 804 0510 89FFFFEA 		b	.L26
 805              	.LVL90:
 806              	.L78:
 807              	.LBE509:
 808              	.LBE508:
 809              	.LBE511:
 810              	.LBE513:
 811              	.LBE515:
 812              	.LBE517:
 813              	.LBE551:
 814              	.LBE567:
 815              	.LBE577:
 816              	.LBB578:
 817              	.LBB453:
  80:../src/tensorflow_lite/tensorflow/lite/micro/kernels/cmsis_nn/depthwise_conv.cc ****     TF_LITE_ENSURE(context, affine_quantization->scale);
 818              		.loc 1 80 0 discriminator 1
 819 0514 003000E3 		movw	r3, #:lower16:.LC9
 820              	.LVL91:
 821 0518 002000E3 		movw	r2, #:lower16:.LC1
 822 051c 003040E3 		movt	r3, #:upper16:.LC9
 823 0520 001000E3 		movw	r1, #:lower16:.LC2
 824 0524 00308DE5 		str	r3, [sp]
 825              	.LVL92:
 826 0528 0400A0E1 		mov	r0, r4
 827              	.LVL93:
 828 052c 002040E3 		movt	r2, #:upper16:.LC1
 829 0530 001040E3 		movt	r1, #:upper16:.LC2
 830 0534 145094E5 		ldr	r5, [r4, #20]
 831              	.LVL94:
 832 0538 5030A0E3 		mov	r3, #80
 833 053c 35FF2FE1 		blx	r5
 834              	.LVL95:
 835 0540 0B00A0E1 		mov	r0, fp
 836 0544 07FFFFEA 		b	.L68
 837              	.LVL96:
 838              	.L27:
 839 0548 0551A0E1 		lsl	r5, r5, #2
 840              	.LVL97:
 841              	.LBE453:
 842              	.LBE578:
 843              	.LBB579:
 844              	.LBB568:
 845              	.LBB552:
 846              	.LBB536:
 847              	.LBB534:
 848              	.LBB532:
 849              	.LBB530:
 850              	.LBB527:
 851              	.LBB528:
 229:C:/Renesas/e2studio_2021_01_workspace_RZA2M_ANPR/ANPR_RZA2M_GR_MANGO/src/tensorflow_lite/tensorflow/lite/kernels/internal\types.h ****   }
 852              		.loc 4 229 0
 853 054c A8008DE2 		add	r0, sp, #168
 854 0550 87FFFFEA 		b	.L29
 855              	.LVL98:
 856              	.L79:
 857              	.LBE528:
 858              	.LBE527:
 859              	.LBE530:
 860              	.LBE532:
 861              	.LBE534:
 862              	.LBE536:
 863              	.LBE552:
 864              	.LBE568:
 865              	.LBE579:
 866              	.LBB580:
 867              	.LBB454:
  81:../src/tensorflow_lite/tensorflow/lite/micro/kernels/cmsis_nn/depthwise_conv.cc ****     TF_LITE_ENSURE(context, affine_quantization->zero_point);
 868              		.loc 1 81 0 discriminator 1
 869 0554 003000E3 		movw	r3, #:lower16:.LC10
 870              	.LVL99:
 871 0558 002000E3 		movw	r2, #:lower16:.LC1
 872 055c 003040E3 		movt	r3, #:upper16:.LC10
 873 0560 001000E3 		movw	r1, #:lower16:.LC2
 874 0564 00308DE5 		str	r3, [sp]
 875              	.LVL100:
 876 0568 0400A0E1 		mov	r0, r4
 877              	.LVL101:
 878 056c 002040E3 		movt	r2, #:upper16:.LC1
 879 0570 001040E3 		movt	r1, #:upper16:.LC2
 880 0574 145094E5 		ldr	r5, [r4, #20]
 881              	.LVL102:
 882 0578 5130A0E3 		mov	r3, #81
 883 057c 35FF2FE1 		blx	r5
 884              	.LVL103:
 885 0580 0B00A0E1 		mov	r0, fp
 886 0584 F7FEFFEA 		b	.L68
 887              	.LVL104:
 888              	.L88:
 889              	.LBE454:
 890              	.LBE580:
 891              	.LBB581:
 892              	.LBB569:
 893              	.LBB553:
 147:../src/tensorflow_lite/tensorflow/lite/micro/kernels/cmsis_nn/depthwise_conv.cc ****     }
 894              		.loc 1 147 0
 895 0588 0030E0E3 		mvn	r3, #0
 896 058c 343086E5 		str	r3, [r6, #52]
 897 0590 B0FFFFEA 		b	.L37
 898              	.LVL105:
 899              	.L10:
 900              	.LBE553:
 901              	.LBE569:
 902              	.LBE581:
  48:../src/tensorflow_lite/tensorflow/lite/micro/kernels/cmsis_nn/depthwise_conv.cc ****   TFLITE_DCHECK(node->builtin_data != nullptr);
 903              		.loc 1 48 0 discriminator 1
 904 0594 FEFFFFEB 		bl	abort
 905              	.LVL106:
 906              	.LEHE4:
 907              	.L28:
 908              	.LEHB5:
 909              	.LBB582:
 910              	.LBB570:
 911              	.LBB554:
 912              	.LBB537:
 913              	.LBB535:
 914              	.LBB533:
 915              	.LBB531:
 916              	.LBB529:
 917              	.LBB526:
 250:C:/Renesas/e2studio_2021_01_workspace_RZA2M_ANPR/ANPR_RZA2M_GR_MANGO/src/tensorflow_lite/tensorflow/lite/kernels/internal\types.h **** #endif  // TF_LITE_STATIC_MEMORY
 918              		.loc 4 250 0
 919 0598 FEFFFFEB 		bl	__cxa_throw_bad_array_new_length
 920              	.LVL107:
 921              	.LEHE5:
 922              	.L22:
 923              	.LEHB6:
 924              	.LBE526:
 925              	.LBE529:
 926              	.LBE531:
 927              	.LBE533:
 928              	.LBE535:
 929              	.LBE537:
 930              	.LBE554:
 931              	.LBB555:
 932              	.LBB499:
 933              	.LBB497:
 934              	.LBB495:
 935              	.LBB493:
 936              	.LBB491:
 937              	.LBB488:
 938 059c FEFFFFEB 		bl	__cxa_throw_bad_array_new_length
 939              	.LVL108:
 940              	.L49:
 941              	.L44:
 942              	.LBE488:
 943              	.LBE491:
 944              	.LBE493:
 945              	.LBE495:
 946              	.LBE497:
 947              	.LBE499:
 948              	.LBE555:
 949              	.LBB556:
 950              	.LBB557:
 203:C:/Renesas/e2studio_2021_01_workspace_RZA2M_ANPR/ANPR_RZA2M_GR_MANGO/src/tensorflow_lite/tensorflow/lite/kernels/internal\types.h **** #ifdef TF_LITE_STATIC_MEMORY
 951              		.loc 4 203 0
 952 05a0 74309DE5 		ldr	r3, [sp, #116]
 953 05a4 050053E3 		cmp	r3, #5
 954 05a8 030000DA 		ble	.L45
 207:C:/Renesas/e2studio_2021_01_workspace_RZA2M_ANPR/ANPR_RZA2M_GR_MANGO/src/tensorflow_lite/tensorflow/lite/kernels/internal\types.h **** #endif  // TF_LITE_STATIC_MEMORY
 955              		.loc 4 207 0
 956 05ac 78009DE5 		ldr	r0, [sp, #120]
 957 05b0 000050E3 		cmp	r0, #0
 958 05b4 0000000A 		beq	.L45
 959 05b8 FEFFFFEB 		bl	_ZdaPv
 960              	.LVL109:
 961              	.L45:
 962 05bc FEFFFFEB 		bl	__cxa_end_cleanup
 963              	.LVL110:
 964              	.LEHE6:
 965              	.L25:
 966              	.LEHB7:
 967              	.LBE557:
 968              	.LBE556:
 969              	.LBB558:
 970              	.LBB518:
 971              	.LBB516:
 972              	.LBB514:
 973              	.LBB512:
 974              	.LBB510:
 975              	.LBB507:
 250:C:/Renesas/e2studio_2021_01_workspace_RZA2M_ANPR/ANPR_RZA2M_GR_MANGO/src/tensorflow_lite/tensorflow/lite/kernels/internal\types.h **** #endif  // TF_LITE_STATIC_MEMORY
 976              		.loc 4 250 0
 977 05c0 FEFFFFEB 		bl	__cxa_throw_bad_array_new_length
 978              	.LVL111:
 979              	.LEHE7:
 980              	.L82:
 981              	.LEHB8:
 982              	.LBE507:
 983              	.LBE510:
 984              	.LBE512:
 985              	.LBE514:
 986              	.LBE516:
 987              	.LBE518:
 988              	.LBE558:
 110:../src/tensorflow_lite/tensorflow/lite/micro/kernels/cmsis_nn/depthwise_conv.cc ****     TFLITE_DCHECK_EQ(filter_shape.DimensionsCount(), 4);
 989              		.loc 1 110 0 discriminator 1
 990 05c4 FEFFFFEB 		bl	abort
 991              	.LVL112:
 992              	.LEHE8:
 993              	.L50:
 994              	.L42:
 995              	.LBB559:
 996              	.LBB560:
 203:C:/Renesas/e2studio_2021_01_workspace_RZA2M_ANPR/ANPR_RZA2M_GR_MANGO/src/tensorflow_lite/tensorflow/lite/kernels/internal\types.h **** #ifdef TF_LITE_STATIC_MEMORY
 997              		.loc 4 203 0
 998 05c8 8C309DE5 		ldr	r3, [sp, #140]
 999 05cc 050053E3 		cmp	r3, #5
 1000 05d0 F2FFFFDA 		ble	.L44
 207:C:/Renesas/e2studio_2021_01_workspace_RZA2M_ANPR/ANPR_RZA2M_GR_MANGO/src/tensorflow_lite/tensorflow/lite/kernels/internal\types.h **** #endif  // TF_LITE_STATIC_MEMORY
 1001              		.loc 4 207 0
 1002 05d4 90009DE5 		ldr	r0, [sp, #144]
 1003 05d8 000050E3 		cmp	r0, #0
 1004 05dc EFFFFF0A 		beq	.L44
 1005 05e0 FEFFFFEB 		bl	_ZdaPv
 1006              	.LVL113:
 1007 05e4 EDFFFFEA 		b	.L44
 1008              	.LVL114:
 1009              	.L51:
 1010              	.LBE560:
 1011              	.LBE559:
 1012              	.LBB561:
 1013              	.LBB562:
 203:C:/Renesas/e2studio_2021_01_workspace_RZA2M_ANPR/ANPR_RZA2M_GR_MANGO/src/tensorflow_lite/tensorflow/lite/kernels/internal\types.h **** #ifdef TF_LITE_STATIC_MEMORY
 1014              		.loc 4 203 0
 1015 05e8 A4309DE5 		ldr	r3, [sp, #164]
 1016 05ec 050053E3 		cmp	r3, #5
 1017 05f0 F4FFFFDA 		ble	.L42
 207:C:/Renesas/e2studio_2021_01_workspace_RZA2M_ANPR/ANPR_RZA2M_GR_MANGO/src/tensorflow_lite/tensorflow/lite/kernels/internal\types.h **** #endif  // TF_LITE_STATIC_MEMORY
 1018              		.loc 4 207 0
 1019 05f4 A8009DE5 		ldr	r0, [sp, #168]
 1020 05f8 000050E3 		cmp	r0, #0
 1021 05fc F1FFFF0A 		beq	.L42
 1022 0600 FEFFFFEB 		bl	_ZdaPv
 1023              	.LVL115:
 1024 0604 EFFFFFEA 		b	.L42
 1025              	.LVL116:
 1026              	.L52:
 1027 0608 EEFFFFEA 		b	.L42
 1028              	.LVL117:
 1029              	.L87:
 1030              	.LEHB9:
 1031              	.LBE562:
 1032              	.LBE561:
 116:../src/tensorflow_lite/tensorflow/lite/micro/kernels/cmsis_nn/depthwise_conv.cc **** 
 1033              		.loc 1 116 0 discriminator 1
 1034 060c FEFFFFEB 		bl	abort
 1035              	.LVL118:
 1036              	.L86:
 1037              	.LBB563:
 1038              	.LBB547:
 1039              		.loc 4 472 0
 1040 0610 FEFFFFEB 		bl	abort
 1041              	.LVL119:
 1042              	.L85:
 1043              	.LBE547:
 1044              	.LBE563:
 1045              	.LBB564:
 1046              	.LBB542:
 1047 0614 FEFFFFEB 		bl	abort
 1048              	.LVL120:
 1049              	.L84:
 1050              	.LBE542:
 1051              	.LBE564:
 112:../src/tensorflow_lite/tensorflow/lite/micro/kernels/cmsis_nn/depthwise_conv.cc **** 
 1052              		.loc 1 112 0 discriminator 1
 1053 0618 FEFFFFEB 		bl	abort
 1054              	.LVL121:
 1055              	.LEHE9:
 1056              	.L83:
 1057              	.LEHB10:
 111:../src/tensorflow_lite/tensorflow/lite/micro/kernels/cmsis_nn/depthwise_conv.cc ****     TFLITE_DCHECK_EQ(output_shape.DimensionsCount(), 4);
 1058              		.loc 1 111 0 discriminator 1
 1059 061c FEFFFFEB 		bl	abort
 1060              	.LVL122:
 1061              	.LEHE10:
 1062              	.LBE570:
 1063              	.LBE582:
 1064              		.cfi_endproc
 1065              	.LFE4270:
 1066              		.global	__gxx_personality_v0
 1067              		.personality	__gxx_personality_v0
 1068              		.handlerdata
 1069              	.LLSDA4270:
 1070 0008 FF       		.byte	0xff
 1071 0009 FF       		.byte	0xff
 1072 000a 01       		.byte	0x1
 1073 000b 40       		.uleb128 .LLSDACSE4270-.LLSDACSB4270
 1074              	.LLSDACSB4270:
 1075 000c 34       		.uleb128 .LEHB0-.LFB4270
 1076 000d C805     		.uleb128 .LEHE0-.LEHB0
 1077 000f 00       		.uleb128 0
 1078 0010 00       		.uleb128 0
 1079 0011 B406     		.uleb128 .LEHB1-.LFB4270
 1080 0013 04       		.uleb128 .LEHE1-.LEHB1
 1081 0014 A00B     		.uleb128 .L49-.LFB4270
 1082 0016 00       		.uleb128 0
 1083 0017 EC06     		.uleb128 .LEHB2-.LFB4270
 1084 0019 04       		.uleb128 .LEHE2-.LEHB2
 1085 001a C80B     		.uleb128 .L50-.LFB4270
 1086 001c 00       		.uleb128 0
 1087 001d B408     		.uleb128 .LEHB3-.LFB4270
 1088 001f 1C       		.uleb128 .LEHE3-.LEHB3
 1089 0020 880C     		.uleb128 .L52-.LFB4270
 1090 0022 00       		.uleb128 0
 1091 0023 8809     		.uleb128 .LEHB4-.LFB4270
 1092 0025 9002     		.uleb128 .LEHE4-.LEHB4
 1093 0027 00       		.uleb128 0
 1094 0028 00       		.uleb128 0
 1095 0029 980B     		.uleb128 .LEHB5-.LFB4270
 1096 002b 04       		.uleb128 .LEHE5-.LEHB5
 1097 002c C80B     		.uleb128 .L50-.LFB4270
 1098 002e 00       		.uleb128 0
 1099 002f 9C0B     		.uleb128 .LEHB6-.LFB4270
 1100 0031 24       		.uleb128 .LEHE6-.LEHB6
 1101 0032 00       		.uleb128 0
 1102 0033 00       		.uleb128 0
 1103 0034 C00B     		.uleb128 .LEHB7-.LFB4270
 1104 0036 04       		.uleb128 .LEHE7-.LEHB7
 1105 0037 A00B     		.uleb128 .L49-.LFB4270
 1106 0039 00       		.uleb128 0
 1107 003a C40B     		.uleb128 .LEHB8-.LFB4270
 1108 003c 04       		.uleb128 .LEHE8-.LEHB8
 1109 003d E80B     		.uleb128 .L51-.LFB4270
 1110 003f 00       		.uleb128 0
 1111 0040 8C0C     		.uleb128 .LEHB9-.LFB4270
 1112 0042 10       		.uleb128 .LEHE9-.LEHB9
 1113 0043 880C     		.uleb128 .L52-.LFB4270
 1114 0045 00       		.uleb128 0
 1115 0046 9C0C     		.uleb128 .LEHB10-.LFB4270
 1116 0048 04       		.uleb128 .LEHE10-.LEHB10
 1117 0049 E80B     		.uleb128 .L51-.LFB4270
 1118 004b 00       		.uleb128 0
 1119              	.LLSDACSE4270:
 1120              		.section	.text._ZN6tflite12_GLOBAL__N_17PrepareEP13TfLiteContextP10TfLiteNode
 1121              		.fnend
 1123              		.section	.text._ZN6tflite12_GLOBAL__N_14EvalEP13TfLiteContextP10TfLiteNode,"ax",%progbits
 1124              		.align	2
 1125              		.syntax unified
 1126              		.arm
 1127              		.fpu neon
 1129              	_ZN6tflite12_GLOBAL__N_14EvalEP13TfLiteContextP10TfLiteNode:
 1130              		.fnstart
 1131              	.LFB4272:
 152:../src/tensorflow_lite/tensorflow/lite/micro/kernels/cmsis_nn/depthwise_conv.cc **** 
 153:../src/tensorflow_lite/tensorflow/lite/micro/kernels/cmsis_nn/depthwise_conv.cc **** void EvalQuantizedPerChannel(TfLiteContext* context, TfLiteNode* node,
 154:../src/tensorflow_lite/tensorflow/lite/micro/kernels/cmsis_nn/depthwise_conv.cc ****                              const TfLiteDepthwiseConvParams& params,
 155:../src/tensorflow_lite/tensorflow/lite/micro/kernels/cmsis_nn/depthwise_conv.cc ****                              const OpData& data, const TfLiteEvalTensor* input,
 156:../src/tensorflow_lite/tensorflow/lite/micro/kernels/cmsis_nn/depthwise_conv.cc ****                              const TfLiteEvalTensor* filter,
 157:../src/tensorflow_lite/tensorflow/lite/micro/kernels/cmsis_nn/depthwise_conv.cc ****                              const TfLiteEvalTensor* bias,
 158:../src/tensorflow_lite/tensorflow/lite/micro/kernels/cmsis_nn/depthwise_conv.cc ****                              TfLiteEvalTensor* output) {
 159:../src/tensorflow_lite/tensorflow/lite/micro/kernels/cmsis_nn/depthwise_conv.cc ****   cmsis_nn_dw_conv_params dw_conv_params;
 160:../src/tensorflow_lite/tensorflow/lite/micro/kernels/cmsis_nn/depthwise_conv.cc ****   dw_conv_params.dilation.h = params.dilation_height_factor;
 161:../src/tensorflow_lite/tensorflow/lite/micro/kernels/cmsis_nn/depthwise_conv.cc ****   dw_conv_params.dilation.w = params.dilation_width_factor;
 162:../src/tensorflow_lite/tensorflow/lite/micro/kernels/cmsis_nn/depthwise_conv.cc ****   // Call to reference implementation can be removed when dilation is supported
 163:../src/tensorflow_lite/tensorflow/lite/micro/kernels/cmsis_nn/depthwise_conv.cc ****   // in the optimized implementations.
 164:../src/tensorflow_lite/tensorflow/lite/micro/kernels/cmsis_nn/depthwise_conv.cc ****   if (1 == dw_conv_params.dilation.h && 1 == dw_conv_params.dilation.w) {
 165:../src/tensorflow_lite/tensorflow/lite/micro/kernels/cmsis_nn/depthwise_conv.cc ****     dw_conv_params.input_offset = -data.reference_op_data.input_zero_point;
 166:../src/tensorflow_lite/tensorflow/lite/micro/kernels/cmsis_nn/depthwise_conv.cc ****     dw_conv_params.output_offset = data.reference_op_data.output_zero_point;
 167:../src/tensorflow_lite/tensorflow/lite/micro/kernels/cmsis_nn/depthwise_conv.cc ****     dw_conv_params.stride.h = params.stride_height;
 168:../src/tensorflow_lite/tensorflow/lite/micro/kernels/cmsis_nn/depthwise_conv.cc ****     dw_conv_params.stride.w = params.stride_width;
 169:../src/tensorflow_lite/tensorflow/lite/micro/kernels/cmsis_nn/depthwise_conv.cc ****     dw_conv_params.padding.h = data.reference_op_data.padding.height;
 170:../src/tensorflow_lite/tensorflow/lite/micro/kernels/cmsis_nn/depthwise_conv.cc ****     dw_conv_params.padding.w = data.reference_op_data.padding.width;
 171:../src/tensorflow_lite/tensorflow/lite/micro/kernels/cmsis_nn/depthwise_conv.cc ****     // TODO(b/130439627): Use calculated value for clamping.
 172:../src/tensorflow_lite/tensorflow/lite/micro/kernels/cmsis_nn/depthwise_conv.cc ****     dw_conv_params.activation.min = std::numeric_limits<int8_t>::min();
 173:../src/tensorflow_lite/tensorflow/lite/micro/kernels/cmsis_nn/depthwise_conv.cc ****     dw_conv_params.activation.max = std::numeric_limits<int8_t>::max();
 174:../src/tensorflow_lite/tensorflow/lite/micro/kernels/cmsis_nn/depthwise_conv.cc ****     dw_conv_params.ch_mult = params.depth_multiplier;
 175:../src/tensorflow_lite/tensorflow/lite/micro/kernels/cmsis_nn/depthwise_conv.cc **** 
 176:../src/tensorflow_lite/tensorflow/lite/micro/kernels/cmsis_nn/depthwise_conv.cc ****     cmsis_nn_per_channel_quant_params quant_params;
 177:../src/tensorflow_lite/tensorflow/lite/micro/kernels/cmsis_nn/depthwise_conv.cc ****     quant_params.multiplier =
 178:../src/tensorflow_lite/tensorflow/lite/micro/kernels/cmsis_nn/depthwise_conv.cc ****         data.reference_op_data.per_channel_output_multiplier;
 179:../src/tensorflow_lite/tensorflow/lite/micro/kernels/cmsis_nn/depthwise_conv.cc ****     quant_params.shift = data.reference_op_data.per_channel_output_shift;
 180:../src/tensorflow_lite/tensorflow/lite/micro/kernels/cmsis_nn/depthwise_conv.cc **** 
 181:../src/tensorflow_lite/tensorflow/lite/micro/kernels/cmsis_nn/depthwise_conv.cc ****     RuntimeShape filter_shape = tflite::micro::GetTensorShape(filter);
 182:../src/tensorflow_lite/tensorflow/lite/micro/kernels/cmsis_nn/depthwise_conv.cc ****     RuntimeShape input_shape = tflite::micro::GetTensorShape(input);
 183:../src/tensorflow_lite/tensorflow/lite/micro/kernels/cmsis_nn/depthwise_conv.cc ****     RuntimeShape output_shape = tflite::micro::GetTensorShape(output);
 184:../src/tensorflow_lite/tensorflow/lite/micro/kernels/cmsis_nn/depthwise_conv.cc ****     RuntimeShape bias_shape = tflite::micro::GetTensorShape(bias);
 185:../src/tensorflow_lite/tensorflow/lite/micro/kernels/cmsis_nn/depthwise_conv.cc **** 
 186:../src/tensorflow_lite/tensorflow/lite/micro/kernels/cmsis_nn/depthwise_conv.cc ****     TFLITE_DCHECK_LE(dw_conv_params.activation.min,
 187:../src/tensorflow_lite/tensorflow/lite/micro/kernels/cmsis_nn/depthwise_conv.cc ****                      dw_conv_params.activation.max);
 188:../src/tensorflow_lite/tensorflow/lite/micro/kernels/cmsis_nn/depthwise_conv.cc **** 
 189:../src/tensorflow_lite/tensorflow/lite/micro/kernels/cmsis_nn/depthwise_conv.cc ****     const int batch_size = MatchingDim(input_shape, 0, output_shape, 0);
 190:../src/tensorflow_lite/tensorflow/lite/micro/kernels/cmsis_nn/depthwise_conv.cc ****     const int output_depth = MatchingDim(filter_shape, 3, output_shape, 3);
 191:../src/tensorflow_lite/tensorflow/lite/micro/kernels/cmsis_nn/depthwise_conv.cc **** 
 192:../src/tensorflow_lite/tensorflow/lite/micro/kernels/cmsis_nn/depthwise_conv.cc ****     if (tflite::micro::GetTensorData<int8_t>(bias)) {
 193:../src/tensorflow_lite/tensorflow/lite/micro/kernels/cmsis_nn/depthwise_conv.cc ****       TFLITE_DCHECK_EQ(bias_shape.FlatSize(), output_depth);
 194:../src/tensorflow_lite/tensorflow/lite/micro/kernels/cmsis_nn/depthwise_conv.cc ****     }
 195:../src/tensorflow_lite/tensorflow/lite/micro/kernels/cmsis_nn/depthwise_conv.cc **** 
 196:../src/tensorflow_lite/tensorflow/lite/micro/kernels/cmsis_nn/depthwise_conv.cc ****     cmsis_nn_dims input_dims;
 197:../src/tensorflow_lite/tensorflow/lite/micro/kernels/cmsis_nn/depthwise_conv.cc ****     input_dims.n = batch_size;
 198:../src/tensorflow_lite/tensorflow/lite/micro/kernels/cmsis_nn/depthwise_conv.cc ****     input_dims.h = input_shape.Dims(1);
 199:../src/tensorflow_lite/tensorflow/lite/micro/kernels/cmsis_nn/depthwise_conv.cc ****     input_dims.w = input_shape.Dims(2);
 200:../src/tensorflow_lite/tensorflow/lite/micro/kernels/cmsis_nn/depthwise_conv.cc ****     input_dims.c = input_shape.Dims(3);
 201:../src/tensorflow_lite/tensorflow/lite/micro/kernels/cmsis_nn/depthwise_conv.cc **** 
 202:../src/tensorflow_lite/tensorflow/lite/micro/kernels/cmsis_nn/depthwise_conv.cc ****     cmsis_nn_dims filter_dims;
 203:../src/tensorflow_lite/tensorflow/lite/micro/kernels/cmsis_nn/depthwise_conv.cc ****     filter_dims.n = filter_shape.Dims(0);
 204:../src/tensorflow_lite/tensorflow/lite/micro/kernels/cmsis_nn/depthwise_conv.cc ****     filter_dims.h = filter_shape.Dims(1);
 205:../src/tensorflow_lite/tensorflow/lite/micro/kernels/cmsis_nn/depthwise_conv.cc ****     filter_dims.w = filter_shape.Dims(2);
 206:../src/tensorflow_lite/tensorflow/lite/micro/kernels/cmsis_nn/depthwise_conv.cc ****     filter_dims.c = output_depth;
 207:../src/tensorflow_lite/tensorflow/lite/micro/kernels/cmsis_nn/depthwise_conv.cc **** 
 208:../src/tensorflow_lite/tensorflow/lite/micro/kernels/cmsis_nn/depthwise_conv.cc ****     cmsis_nn_dims bias_dims;
 209:../src/tensorflow_lite/tensorflow/lite/micro/kernels/cmsis_nn/depthwise_conv.cc ****     bias_dims.n = 1;
 210:../src/tensorflow_lite/tensorflow/lite/micro/kernels/cmsis_nn/depthwise_conv.cc ****     bias_dims.h = 1;
 211:../src/tensorflow_lite/tensorflow/lite/micro/kernels/cmsis_nn/depthwise_conv.cc ****     bias_dims.w = 1;
 212:../src/tensorflow_lite/tensorflow/lite/micro/kernels/cmsis_nn/depthwise_conv.cc ****     bias_dims.c = output_depth;
 213:../src/tensorflow_lite/tensorflow/lite/micro/kernels/cmsis_nn/depthwise_conv.cc **** 
 214:../src/tensorflow_lite/tensorflow/lite/micro/kernels/cmsis_nn/depthwise_conv.cc ****     cmsis_nn_dims output_dims;
 215:../src/tensorflow_lite/tensorflow/lite/micro/kernels/cmsis_nn/depthwise_conv.cc ****     output_dims.n = batch_size;
 216:../src/tensorflow_lite/tensorflow/lite/micro/kernels/cmsis_nn/depthwise_conv.cc ****     output_dims.h = output_shape.Dims(1);
 217:../src/tensorflow_lite/tensorflow/lite/micro/kernels/cmsis_nn/depthwise_conv.cc ****     output_dims.w = output_shape.Dims(2);
 218:../src/tensorflow_lite/tensorflow/lite/micro/kernels/cmsis_nn/depthwise_conv.cc ****     output_dims.c = output_depth;
 219:../src/tensorflow_lite/tensorflow/lite/micro/kernels/cmsis_nn/depthwise_conv.cc **** 
 220:../src/tensorflow_lite/tensorflow/lite/micro/kernels/cmsis_nn/depthwise_conv.cc ****     cmsis_nn_context ctx;
 221:../src/tensorflow_lite/tensorflow/lite/micro/kernels/cmsis_nn/depthwise_conv.cc ****     ctx.buf = nullptr;
 222:../src/tensorflow_lite/tensorflow/lite/micro/kernels/cmsis_nn/depthwise_conv.cc ****     /* 'size' is unused */
 223:../src/tensorflow_lite/tensorflow/lite/micro/kernels/cmsis_nn/depthwise_conv.cc ****     ctx.size = 0;
 224:../src/tensorflow_lite/tensorflow/lite/micro/kernels/cmsis_nn/depthwise_conv.cc **** 
 225:../src/tensorflow_lite/tensorflow/lite/micro/kernels/cmsis_nn/depthwise_conv.cc ****     if (data.buffer_idx > -1) {
 226:../src/tensorflow_lite/tensorflow/lite/micro/kernels/cmsis_nn/depthwise_conv.cc ****       ctx.buf = context->GetScratchBuffer(context, data.buffer_idx);
 227:../src/tensorflow_lite/tensorflow/lite/micro/kernels/cmsis_nn/depthwise_conv.cc ****     }
 228:../src/tensorflow_lite/tensorflow/lite/micro/kernels/cmsis_nn/depthwise_conv.cc **** 
 229:../src/tensorflow_lite/tensorflow/lite/micro/kernels/cmsis_nn/depthwise_conv.cc ****     TFLITE_DCHECK_EQ(
 230:../src/tensorflow_lite/tensorflow/lite/micro/kernels/cmsis_nn/depthwise_conv.cc ****         arm_depthwise_conv_wrapper_s8(
 231:../src/tensorflow_lite/tensorflow/lite/micro/kernels/cmsis_nn/depthwise_conv.cc ****             &ctx, &dw_conv_params, &quant_params, &input_dims,
 232:../src/tensorflow_lite/tensorflow/lite/micro/kernels/cmsis_nn/depthwise_conv.cc ****             tflite::micro::GetTensorData<int8_t>(input), &filter_dims,
 233:../src/tensorflow_lite/tensorflow/lite/micro/kernels/cmsis_nn/depthwise_conv.cc ****             tflite::micro::GetTensorData<int8_t>(filter), &bias_dims,
 234:../src/tensorflow_lite/tensorflow/lite/micro/kernels/cmsis_nn/depthwise_conv.cc ****             tflite::micro::GetTensorData<int32_t>(bias), &output_dims,
 235:../src/tensorflow_lite/tensorflow/lite/micro/kernels/cmsis_nn/depthwise_conv.cc ****             tflite::micro::GetTensorData<int8_t>(output)),
 236:../src/tensorflow_lite/tensorflow/lite/micro/kernels/cmsis_nn/depthwise_conv.cc ****         ARM_MATH_SUCCESS);
 237:../src/tensorflow_lite/tensorflow/lite/micro/kernels/cmsis_nn/depthwise_conv.cc ****   } else {
 238:../src/tensorflow_lite/tensorflow/lite/micro/kernels/cmsis_nn/depthwise_conv.cc ****     reference_integer_ops::DepthwiseConvPerChannel(
 239:../src/tensorflow_lite/tensorflow/lite/micro/kernels/cmsis_nn/depthwise_conv.cc ****         DepthwiseConvParamsQuantized(params, data.reference_op_data),
 240:../src/tensorflow_lite/tensorflow/lite/micro/kernels/cmsis_nn/depthwise_conv.cc ****         data.reference_op_data.per_channel_output_multiplier,
 241:../src/tensorflow_lite/tensorflow/lite/micro/kernels/cmsis_nn/depthwise_conv.cc ****         data.reference_op_data.per_channel_output_shift,
 242:../src/tensorflow_lite/tensorflow/lite/micro/kernels/cmsis_nn/depthwise_conv.cc ****         tflite::micro::GetTensorShape(input),
 243:../src/tensorflow_lite/tensorflow/lite/micro/kernels/cmsis_nn/depthwise_conv.cc ****         tflite::micro::GetTensorData<int8_t>(input),
 244:../src/tensorflow_lite/tensorflow/lite/micro/kernels/cmsis_nn/depthwise_conv.cc ****         tflite::micro::GetTensorShape(filter),
 245:../src/tensorflow_lite/tensorflow/lite/micro/kernels/cmsis_nn/depthwise_conv.cc ****         tflite::micro::GetTensorData<int8_t>(filter),
 246:../src/tensorflow_lite/tensorflow/lite/micro/kernels/cmsis_nn/depthwise_conv.cc ****         tflite::micro::GetTensorShape(bias),
 247:../src/tensorflow_lite/tensorflow/lite/micro/kernels/cmsis_nn/depthwise_conv.cc ****         tflite::micro::GetTensorData<int32_t>(bias),
 248:../src/tensorflow_lite/tensorflow/lite/micro/kernels/cmsis_nn/depthwise_conv.cc ****         tflite::micro::GetTensorShape(output),
 249:../src/tensorflow_lite/tensorflow/lite/micro/kernels/cmsis_nn/depthwise_conv.cc ****         tflite::micro::GetTensorData<int8_t>(output));
 250:../src/tensorflow_lite/tensorflow/lite/micro/kernels/cmsis_nn/depthwise_conv.cc ****   }
 251:../src/tensorflow_lite/tensorflow/lite/micro/kernels/cmsis_nn/depthwise_conv.cc **** }
 252:../src/tensorflow_lite/tensorflow/lite/micro/kernels/cmsis_nn/depthwise_conv.cc **** 
 253:../src/tensorflow_lite/tensorflow/lite/micro/kernels/cmsis_nn/depthwise_conv.cc **** TfLiteStatus Eval(TfLiteContext* context, TfLiteNode* node) {
 1132              		.loc 1 253 0
 1133              		.cfi_startproc
 1134              		.cfi_personality 0,__gxx_personality_v0
 1135              		.cfi_lsda 0,.LLSDA4272
 1136              		@ args = 0, pretend = 0, frame = 472
 1137              		@ frame_needed = 0, uses_anonymous_args = 0
 1138              	.LVL123:
 1139 0000 F04F2DE9 		push	{r4, r5, r6, r7, r8, r9, r10, fp, lr}
 1140              		.save {r4, r5, r6, r7, r8, r9, r10, fp, lr}
 1141              		.cfi_def_cfa_offset 36
 1142              		.cfi_offset 4, -36
 1143              		.cfi_offset 5, -32
 1144              		.cfi_offset 6, -28
 1145              		.cfi_offset 7, -24
 1146              		.cfi_offset 8, -20
 1147              		.cfi_offset 9, -16
 1148              		.cfi_offset 10, -12
 1149              		.cfi_offset 11, -8
 1150              		.cfi_offset 14, -4
 1151              		.pad #508
 1152 0004 7FDF4DE2 		sub	sp, sp, #508
 1153              		.cfi_def_cfa_offset 544
 254:../src/tensorflow_lite/tensorflow/lite/micro/kernels/cmsis_nn/depthwise_conv.cc ****   TFLITE_DCHECK(node->user_data != nullptr);
 1154              		.loc 1 254 0
 1155 0008 106091E5 		ldr	r6, [r1, #16]
 1156 000c 000056E3 		cmp	r6, #0
 1157 0010 8206000A 		beq	.L91
 255:../src/tensorflow_lite/tensorflow/lite/micro/kernels/cmsis_nn/depthwise_conv.cc ****   TFLITE_DCHECK(node->builtin_data != nullptr);
 1158              		.loc 1 255 0
 1159 0014 14A091E5 		ldr	r10, [r1, #20]
 1160 0018 0180A0E1 		mov	r8, r1
 1161 001c 00005AE3 		cmp	r10, #0
 1162 0020 7E06000A 		beq	.L91
 256:../src/tensorflow_lite/tensorflow/lite/micro/kernels/cmsis_nn/depthwise_conv.cc **** 
 257:../src/tensorflow_lite/tensorflow/lite/micro/kernels/cmsis_nn/depthwise_conv.cc ****   const auto& params =
 258:../src/tensorflow_lite/tensorflow/lite/micro/kernels/cmsis_nn/depthwise_conv.cc ****       *(reinterpret_cast<TfLiteDepthwiseConvParams*>(node->builtin_data));
 259:../src/tensorflow_lite/tensorflow/lite/micro/kernels/cmsis_nn/depthwise_conv.cc ****   const OpData& data = *(static_cast<OpData*>(node->user_data));
 260:../src/tensorflow_lite/tensorflow/lite/micro/kernels/cmsis_nn/depthwise_conv.cc **** 
 261:../src/tensorflow_lite/tensorflow/lite/micro/kernels/cmsis_nn/depthwise_conv.cc ****   TfLiteEvalTensor* output =
 262:../src/tensorflow_lite/tensorflow/lite/micro/kernels/cmsis_nn/depthwise_conv.cc ****       tflite::micro::GetEvalOutput(context, node, kDepthwiseConvOutputTensor);
 1163              		.loc 1 262 0
 1164 0024 003000E3 		movw	r3, #:lower16:_ZN6tflite26kDepthwiseConvOutputTensorE
 1165              	.LBB882:
 1166              	.LBB883:
 1167              		.file 5 "C:/Renesas/e2studio_2021_01_workspace_RZA2M_ANPR/ANPR_RZA2M_GR_MANGO/src/tensorflow_lite/
   1:C:/Renesas/e2studio_2021_01_workspace_RZA2M_ANPR/ANPR_RZA2M_GR_MANGO/src/tensorflow_lite/tensorflow/lite/micro/kernels\kernel_util.h **** /* Copyright 2020 The TensorFlow Authors. All Rights Reserved.
   2:C:/Renesas/e2studio_2021_01_workspace_RZA2M_ANPR/ANPR_RZA2M_GR_MANGO/src/tensorflow_lite/tensorflow/lite/micro/kernels\kernel_util.h **** 
   3:C:/Renesas/e2studio_2021_01_workspace_RZA2M_ANPR/ANPR_RZA2M_GR_MANGO/src/tensorflow_lite/tensorflow/lite/micro/kernels\kernel_util.h **** Licensed under the Apache License, Version 2.0 (the "License");
   4:C:/Renesas/e2studio_2021_01_workspace_RZA2M_ANPR/ANPR_RZA2M_GR_MANGO/src/tensorflow_lite/tensorflow/lite/micro/kernels\kernel_util.h **** you may not use this file except in compliance with the License.
   5:C:/Renesas/e2studio_2021_01_workspace_RZA2M_ANPR/ANPR_RZA2M_GR_MANGO/src/tensorflow_lite/tensorflow/lite/micro/kernels\kernel_util.h **** You may obtain a copy of the License at
   6:C:/Renesas/e2studio_2021_01_workspace_RZA2M_ANPR/ANPR_RZA2M_GR_MANGO/src/tensorflow_lite/tensorflow/lite/micro/kernels\kernel_util.h **** 
   7:C:/Renesas/e2studio_2021_01_workspace_RZA2M_ANPR/ANPR_RZA2M_GR_MANGO/src/tensorflow_lite/tensorflow/lite/micro/kernels\kernel_util.h ****     http://www.apache.org/licenses/LICENSE-2.0
   8:C:/Renesas/e2studio_2021_01_workspace_RZA2M_ANPR/ANPR_RZA2M_GR_MANGO/src/tensorflow_lite/tensorflow/lite/micro/kernels\kernel_util.h **** 
   9:C:/Renesas/e2studio_2021_01_workspace_RZA2M_ANPR/ANPR_RZA2M_GR_MANGO/src/tensorflow_lite/tensorflow/lite/micro/kernels\kernel_util.h **** Unless required by applicable law or agreed to in writing, software
  10:C:/Renesas/e2studio_2021_01_workspace_RZA2M_ANPR/ANPR_RZA2M_GR_MANGO/src/tensorflow_lite/tensorflow/lite/micro/kernels\kernel_util.h **** distributed under the License is distributed on an "AS IS" BASIS,
  11:C:/Renesas/e2studio_2021_01_workspace_RZA2M_ANPR/ANPR_RZA2M_GR_MANGO/src/tensorflow_lite/tensorflow/lite/micro/kernels\kernel_util.h **** WITHOUT WARRANTIES OR CONDITIONS OF ANY KIND, either express or implied.
  12:C:/Renesas/e2studio_2021_01_workspace_RZA2M_ANPR/ANPR_RZA2M_GR_MANGO/src/tensorflow_lite/tensorflow/lite/micro/kernels\kernel_util.h **** See the License for the specific language governing permissions and
  13:C:/Renesas/e2studio_2021_01_workspace_RZA2M_ANPR/ANPR_RZA2M_GR_MANGO/src/tensorflow_lite/tensorflow/lite/micro/kernels\kernel_util.h **** limitations under the License.
  14:C:/Renesas/e2studio_2021_01_workspace_RZA2M_ANPR/ANPR_RZA2M_GR_MANGO/src/tensorflow_lite/tensorflow/lite/micro/kernels\kernel_util.h **** ==============================================================================*/
  15:C:/Renesas/e2studio_2021_01_workspace_RZA2M_ANPR/ANPR_RZA2M_GR_MANGO/src/tensorflow_lite/tensorflow/lite/micro/kernels\kernel_util.h **** 
  16:C:/Renesas/e2studio_2021_01_workspace_RZA2M_ANPR/ANPR_RZA2M_GR_MANGO/src/tensorflow_lite/tensorflow/lite/micro/kernels\kernel_util.h **** #ifndef TENSORFLOW_LITE_MICRO_KERNELS_KERNEL_UTIL_H_
  17:C:/Renesas/e2studio_2021_01_workspace_RZA2M_ANPR/ANPR_RZA2M_GR_MANGO/src/tensorflow_lite/tensorflow/lite/micro/kernels\kernel_util.h **** #define TENSORFLOW_LITE_MICRO_KERNELS_KERNEL_UTIL_H_
  18:C:/Renesas/e2studio_2021_01_workspace_RZA2M_ANPR/ANPR_RZA2M_GR_MANGO/src/tensorflow_lite/tensorflow/lite/micro/kernels\kernel_util.h **** 
  19:C:/Renesas/e2studio_2021_01_workspace_RZA2M_ANPR/ANPR_RZA2M_GR_MANGO/src/tensorflow_lite/tensorflow/lite/micro/kernels\kernel_util.h **** #include <cstdint>
  20:C:/Renesas/e2studio_2021_01_workspace_RZA2M_ANPR/ANPR_RZA2M_GR_MANGO/src/tensorflow_lite/tensorflow/lite/micro/kernels\kernel_util.h **** 
  21:C:/Renesas/e2studio_2021_01_workspace_RZA2M_ANPR/ANPR_RZA2M_GR_MANGO/src/tensorflow_lite/tensorflow/lite/micro/kernels\kernel_util.h **** #include "tensorflow/lite/c/builtin_op_data.h"
  22:C:/Renesas/e2studio_2021_01_workspace_RZA2M_ANPR/ANPR_RZA2M_GR_MANGO/src/tensorflow_lite/tensorflow/lite/micro/kernels\kernel_util.h **** #include "tensorflow/lite/c/common.h"
  23:C:/Renesas/e2studio_2021_01_workspace_RZA2M_ANPR/ANPR_RZA2M_GR_MANGO/src/tensorflow_lite/tensorflow/lite/micro/kernels\kernel_util.h **** #include "tensorflow/lite/kernels/internal/compatibility.h"
  24:C:/Renesas/e2studio_2021_01_workspace_RZA2M_ANPR/ANPR_RZA2M_GR_MANGO/src/tensorflow_lite/tensorflow/lite/micro/kernels\kernel_util.h **** #include "tensorflow/lite/kernels/internal/types.h"
  25:C:/Renesas/e2studio_2021_01_workspace_RZA2M_ANPR/ANPR_RZA2M_GR_MANGO/src/tensorflow_lite/tensorflow/lite/micro/kernels\kernel_util.h **** 
  26:C:/Renesas/e2studio_2021_01_workspace_RZA2M_ANPR/ANPR_RZA2M_GR_MANGO/src/tensorflow_lite/tensorflow/lite/micro/kernels\kernel_util.h **** namespace tflite {
  27:C:/Renesas/e2studio_2021_01_workspace_RZA2M_ANPR/ANPR_RZA2M_GR_MANGO/src/tensorflow_lite/tensorflow/lite/micro/kernels\kernel_util.h **** namespace micro {
  28:C:/Renesas/e2studio_2021_01_workspace_RZA2M_ANPR/ANPR_RZA2M_GR_MANGO/src/tensorflow_lite/tensorflow/lite/micro/kernels\kernel_util.h **** 
  29:C:/Renesas/e2studio_2021_01_workspace_RZA2M_ANPR/ANPR_RZA2M_GR_MANGO/src/tensorflow_lite/tensorflow/lite/micro/kernels\kernel_util.h **** // Returns a mutable tensor for a given input index. is_variable must be checked
  30:C:/Renesas/e2studio_2021_01_workspace_RZA2M_ANPR/ANPR_RZA2M_GR_MANGO/src/tensorflow_lite/tensorflow/lite/micro/kernels\kernel_util.h **** // during prepare when the full TfLiteTensor is available.
  31:C:/Renesas/e2studio_2021_01_workspace_RZA2M_ANPR/ANPR_RZA2M_GR_MANGO/src/tensorflow_lite/tensorflow/lite/micro/kernels\kernel_util.h **** inline TfLiteEvalTensor* GetMutableEvalInput(const TfLiteContext* context,
  32:C:/Renesas/e2studio_2021_01_workspace_RZA2M_ANPR/ANPR_RZA2M_GR_MANGO/src/tensorflow_lite/tensorflow/lite/micro/kernels\kernel_util.h ****                                              const TfLiteNode* node,
  33:C:/Renesas/e2studio_2021_01_workspace_RZA2M_ANPR/ANPR_RZA2M_GR_MANGO/src/tensorflow_lite/tensorflow/lite/micro/kernels\kernel_util.h ****                                              int index) {
  34:C:/Renesas/e2studio_2021_01_workspace_RZA2M_ANPR/ANPR_RZA2M_GR_MANGO/src/tensorflow_lite/tensorflow/lite/micro/kernels\kernel_util.h ****   TFLITE_DCHECK(context != nullptr);
  35:C:/Renesas/e2studio_2021_01_workspace_RZA2M_ANPR/ANPR_RZA2M_GR_MANGO/src/tensorflow_lite/tensorflow/lite/micro/kernels\kernel_util.h ****   TFLITE_DCHECK(node != nullptr);
  36:C:/Renesas/e2studio_2021_01_workspace_RZA2M_ANPR/ANPR_RZA2M_GR_MANGO/src/tensorflow_lite/tensorflow/lite/micro/kernels\kernel_util.h ****   return context->GetEvalTensor(context, node->inputs->data[index]);
  37:C:/Renesas/e2studio_2021_01_workspace_RZA2M_ANPR/ANPR_RZA2M_GR_MANGO/src/tensorflow_lite/tensorflow/lite/micro/kernels\kernel_util.h **** }
  38:C:/Renesas/e2studio_2021_01_workspace_RZA2M_ANPR/ANPR_RZA2M_GR_MANGO/src/tensorflow_lite/tensorflow/lite/micro/kernels\kernel_util.h **** 
  39:C:/Renesas/e2studio_2021_01_workspace_RZA2M_ANPR/ANPR_RZA2M_GR_MANGO/src/tensorflow_lite/tensorflow/lite/micro/kernels\kernel_util.h **** // Returns the TfLiteEvalTensor struct for a given input index in a node.
  40:C:/Renesas/e2studio_2021_01_workspace_RZA2M_ANPR/ANPR_RZA2M_GR_MANGO/src/tensorflow_lite/tensorflow/lite/micro/kernels\kernel_util.h **** inline const TfLiteEvalTensor* GetEvalInput(const TfLiteContext* context,
  41:C:/Renesas/e2studio_2021_01_workspace_RZA2M_ANPR/ANPR_RZA2M_GR_MANGO/src/tensorflow_lite/tensorflow/lite/micro/kernels\kernel_util.h ****                                             const TfLiteNode* node, int index) {
  42:C:/Renesas/e2studio_2021_01_workspace_RZA2M_ANPR/ANPR_RZA2M_GR_MANGO/src/tensorflow_lite/tensorflow/lite/micro/kernels\kernel_util.h ****   return GetMutableEvalInput(context, node, index);
  43:C:/Renesas/e2studio_2021_01_workspace_RZA2M_ANPR/ANPR_RZA2M_GR_MANGO/src/tensorflow_lite/tensorflow/lite/micro/kernels\kernel_util.h **** }
  44:C:/Renesas/e2studio_2021_01_workspace_RZA2M_ANPR/ANPR_RZA2M_GR_MANGO/src/tensorflow_lite/tensorflow/lite/micro/kernels\kernel_util.h **** 
  45:C:/Renesas/e2studio_2021_01_workspace_RZA2M_ANPR/ANPR_RZA2M_GR_MANGO/src/tensorflow_lite/tensorflow/lite/micro/kernels\kernel_util.h **** // Returns the TfLiteEvalTensor struct for a given output index in a node.
  46:C:/Renesas/e2studio_2021_01_workspace_RZA2M_ANPR/ANPR_RZA2M_GR_MANGO/src/tensorflow_lite/tensorflow/lite/micro/kernels\kernel_util.h **** inline TfLiteEvalTensor* GetEvalOutput(const TfLiteContext* context,
  47:C:/Renesas/e2studio_2021_01_workspace_RZA2M_ANPR/ANPR_RZA2M_GR_MANGO/src/tensorflow_lite/tensorflow/lite/micro/kernels\kernel_util.h ****                                        const TfLiteNode* node, int index) {
  48:C:/Renesas/e2studio_2021_01_workspace_RZA2M_ANPR/ANPR_RZA2M_GR_MANGO/src/tensorflow_lite/tensorflow/lite/micro/kernels\kernel_util.h ****   TFLITE_DCHECK(context != nullptr);
 1168              		.loc 5 48 0
 1169 0028 000050E3 		cmp	r0, #0
 1170              	.LBE883:
 1171              	.LBE882:
 1172              		.loc 1 262 0
 1173 002c 003040E3 		movt	r3, #:upper16:_ZN6tflite26kDepthwiseConvOutputTensorE
 1174 0030 0040A0E1 		mov	r4, r0
 1175              	.LVL124:
 1176 0034 001093E5 		ldr	r1, [r3]
 1177              	.LVL125:
 1178              	.LBB886:
 1179              	.LBB884:
 1180              		.loc 5 48 0
 1181 0038 7806000A 		beq	.L91
  49:C:/Renesas/e2studio_2021_01_workspace_RZA2M_ANPR/ANPR_RZA2M_GR_MANGO/src/tensorflow_lite/tensorflow/lite/micro/kernels\kernel_util.h ****   TFLITE_DCHECK(node != nullptr);
  50:C:/Renesas/e2studio_2021_01_workspace_RZA2M_ANPR/ANPR_RZA2M_GR_MANGO/src/tensorflow_lite/tensorflow/lite/micro/kernels\kernel_util.h ****   return context->GetEvalTensor(context, node->outputs->data[index]);
 1182              		.loc 5 50 0
 1183 003c 043098E5 		ldr	r3, [r8, #4]
 1184 0040 542090E5 		ldr	r2, [r0, #84]
 1185 0044 013183E0 		add	r3, r3, r1, lsl #2
 1186 0048 041093E5 		ldr	r1, [r3, #4]
 1187              	.LVL126:
 1188              	.LEHB11:
 1189 004c 32FF2FE1 		blx	r2
 1190              	.LVL127:
 1191              	.LBE884:
 1192              	.LBE886:
 1193              	.LBB887:
 1194              	.LBB888:
 1195              	.LBB889:
  36:C:/Renesas/e2studio_2021_01_workspace_RZA2M_ANPR/ANPR_RZA2M_GR_MANGO/src/tensorflow_lite/tensorflow/lite/micro/kernels\kernel_util.h **** }
 1196              		.loc 5 36 0
 1197 0050 002000E3 		movw	r2, #:lower16:_ZN6tflite25kDepthwiseConvInputTensorE
 1198 0054 003098E5 		ldr	r3, [r8]
 1199 0058 002040E3 		movt	r2, #:upper16:_ZN6tflite25kDepthwiseConvInputTensorE
 1200 005c 547094E5 		ldr	r7, [r4, #84]
 1201 0060 002092E5 		ldr	r2, [r2]
 1202              	.LBE889:
 1203              	.LBE888:
 1204              	.LBE887:
 1205              	.LBB894:
 1206              	.LBB885:
 1207              		.loc 5 50 0
 1208 0064 0050A0E1 		mov	r5, r0
 1209              	.LVL128:
 1210              	.LBE885:
 1211              	.LBE894:
 1212              	.LBB895:
 1213              	.LBB892:
 1214              	.LBB890:
  36:C:/Renesas/e2studio_2021_01_workspace_RZA2M_ANPR/ANPR_RZA2M_GR_MANGO/src/tensorflow_lite/tensorflow/lite/micro/kernels\kernel_util.h **** }
 1215              		.loc 5 36 0
 1216 0068 0400A0E1 		mov	r0, r4
 1217 006c 023183E0 		add	r3, r3, r2, lsl #2
 1218 0070 041093E5 		ldr	r1, [r3, #4]
 1219 0074 37FF2FE1 		blx	r7
 1220              	.LVL129:
 1221              	.LBE890:
 1222              	.LBE892:
 1223              	.LBE895:
 1224              	.LBB896:
 1225              	.LBB897:
 1226              	.LBB898:
 1227 0078 002000E3 		movw	r2, #:lower16:_ZN6tflite27kDepthwiseConvWeightsTensorE
 1228 007c 003098E5 		ldr	r3, [r8]
 1229 0080 002040E3 		movt	r2, #:upper16:_ZN6tflite27kDepthwiseConvWeightsTensorE
 1230 0084 549094E5 		ldr	r9, [r4, #84]
 1231 0088 002092E5 		ldr	r2, [r2]
 1232              	.LBE898:
 1233              	.LBE897:
 1234              	.LBE896:
 1235              	.LBB901:
 1236              	.LBB893:
 1237              	.LBB891:
 1238 008c 0070A0E1 		mov	r7, r0
 1239              	.LVL130:
 1240              	.LBE891:
 1241              	.LBE893:
 1242              	.LBE901:
 1243              	.LBB902:
 1244              	.LBB900:
 1245              	.LBB899:
 1246 0090 0400A0E1 		mov	r0, r4
 1247 0094 023183E0 		add	r3, r3, r2, lsl #2
 1248 0098 041093E5 		ldr	r1, [r3, #4]
 1249 009c 39FF2FE1 		blx	r9
 1250              	.LVL131:
 1251 00a0 003098E5 		ldr	r3, [r8]
 1252 00a4 0090A0E1 		mov	r9, r0
 1253              	.LVL132:
 1254              	.LBE899:
 1255              	.LBE900:
 1256              	.LBE902:
 263:../src/tensorflow_lite/tensorflow/lite/micro/kernels/cmsis_nn/depthwise_conv.cc ****   const TfLiteEvalTensor* input =
 264:../src/tensorflow_lite/tensorflow/lite/micro/kernels/cmsis_nn/depthwise_conv.cc ****       tflite::micro::GetEvalInput(context, node, kDepthwiseConvInputTensor);
 265:../src/tensorflow_lite/tensorflow/lite/micro/kernels/cmsis_nn/depthwise_conv.cc ****   const TfLiteEvalTensor* filter =
 266:../src/tensorflow_lite/tensorflow/lite/micro/kernels/cmsis_nn/depthwise_conv.cc ****       tflite::micro::GetEvalInput(context, node, kDepthwiseConvWeightsTensor);
 267:../src/tensorflow_lite/tensorflow/lite/micro/kernels/cmsis_nn/depthwise_conv.cc ****   const TfLiteEvalTensor* bias =
 268:../src/tensorflow_lite/tensorflow/lite/micro/kernels/cmsis_nn/depthwise_conv.cc ****       (NumInputs(node) == 3)
 269:../src/tensorflow_lite/tensorflow/lite/micro/kernels/cmsis_nn/depthwise_conv.cc ****           ? tflite::micro::GetEvalInput(context, node, kDepthwiseConvBiasTensor)
 1257              		.loc 1 269 0
 1258 00a8 002093E5 		ldr	r2, [r3]
 1259 00ac 030052E3 		cmp	r2, #3
 1260 00b0 0080A013 		movne	r8, #0
 1261              	.LVL133:
 1262 00b4 4F04000A 		beq	.L563
 1263              	.L92:
 1264              	.LVL134:
 270:../src/tensorflow_lite/tensorflow/lite/micro/kernels/cmsis_nn/depthwise_conv.cc ****           : nullptr;
 271:../src/tensorflow_lite/tensorflow/lite/micro/kernels/cmsis_nn/depthwise_conv.cc **** 
 272:../src/tensorflow_lite/tensorflow/lite/micro/kernels/cmsis_nn/depthwise_conv.cc ****   switch (input->type) {  // Already know in/out types are same.
 1265              		.loc 1 272 0
 1266 00b8 0800D7E5 		ldrb	r0, [r7, #8]	@ zero_extendqisi2
 1267 00bc 010050E3 		cmp	r0, #1
 1268 00c0 2C02000A 		beq	.L319
 1269 00c4 090050E3 		cmp	r0, #9
 1270 00c8 1F02001A 		bne	.L564
 1271              	.LVL135:
 1272              	.LBB903:
 1273              	.LBB904:
 160:../src/tensorflow_lite/tensorflow/lite/micro/kernels/cmsis_nn/depthwise_conv.cc ****   dw_conv_params.dilation.w = params.dilation_width_factor;
 1274              		.loc 1 160 0
 1275 00cc 18209AE5 		ldr	r2, [r10, #24]
 161:../src/tensorflow_lite/tensorflow/lite/micro/kernels/cmsis_nn/depthwise_conv.cc ****   // Call to reference implementation can be removed when dilation is supported
 1276              		.loc 1 161 0
 1277 00d0 14309AE5 		ldr	r3, [r10, #20]
 160:../src/tensorflow_lite/tensorflow/lite/micro/kernels/cmsis_nn/depthwise_conv.cc ****   dw_conv_params.dilation.w = params.dilation_width_factor;
 1278              		.loc 1 160 0
 1279 00d4 AC218DE5 		str	r2, [sp, #428]
 1280              	.LBB905:
 164:../src/tensorflow_lite/tensorflow/lite/micro/kernels/cmsis_nn/depthwise_conv.cc ****     dw_conv_params.input_offset = -data.reference_op_data.input_zero_point;
 1281              		.loc 1 164 0
 1282 00d8 010053E3 		cmp	r3, #1
 1283 00dc 01005203 		cmpeq	r2, #1
 1284              	.LBE905:
 161:../src/tensorflow_lite/tensorflow/lite/micro/kernels/cmsis_nn/depthwise_conv.cc ****   // Call to reference implementation can be removed when dilation is supported
 1285              		.loc 1 161 0
 1286 00e0 A8318DE5 		str	r3, [sp, #424]
 1287              	.LBB1266:
 164:../src/tensorflow_lite/tensorflow/lite/micro/kernels/cmsis_nn/depthwise_conv.cc ****     dw_conv_params.input_offset = -data.reference_op_data.input_zero_point;
 1288              		.loc 1 164 0
 1289 00e4 5C04000A 		beq	.L565
 239:../src/tensorflow_lite/tensorflow/lite/micro/kernels/cmsis_nn/depthwise_conv.cc ****         data.reference_op_data.per_channel_output_multiplier,
 1290              		.loc 1 239 0
 1291 00e8 0A10A0E1 		mov	r1, r10
 1292 00ec 0620A0E1 		mov	r2, r6
 1293 00f0 6E0F8DE2 		add	r0, sp, #440
 1294 00f4 FEFFFFEB 		bl	_ZN6tflite28DepthwiseConvParamsQuantizedERK25TfLiteDepthwiseConvParamsRKNS_10OpDataConvE
 1295              	.LVL136:
 240:../src/tensorflow_lite/tensorflow/lite/micro/kernels/cmsis_nn/depthwise_conv.cc ****         data.reference_op_data.per_channel_output_shift,
 1296              		.loc 1 240 0
 1297 00f8 243096E5 		ldr	r3, [r6, #36]
 242:../src/tensorflow_lite/tensorflow/lite/micro/kernels/cmsis_nn/depthwise_conv.cc ****         tflite::micro::GetTensorData<int8_t>(input),
 1298              		.loc 1 242 0
 1299 00fc 0710A0E1 		mov	r1, r7
 1300 0100 4B0F8DE2 		add	r0, sp, #300
 240:../src/tensorflow_lite/tensorflow/lite/micro/kernels/cmsis_nn/depthwise_conv.cc ****         data.reference_op_data.per_channel_output_shift,
 1301              		.loc 1 240 0
 1302 0104 CC308DE5 		str	r3, [sp, #204]
 241:../src/tensorflow_lite/tensorflow/lite/micro/kernels/cmsis_nn/depthwise_conv.cc ****         tflite::micro::GetTensorShape(input),
 1303              		.loc 1 241 0
 1304 0108 283096E5 		ldr	r3, [r6, #40]
 1305 010c D0308DE5 		str	r3, [sp, #208]
 242:../src/tensorflow_lite/tensorflow/lite/micro/kernels/cmsis_nn/depthwise_conv.cc ****         tflite::micro::GetTensorData<int8_t>(input),
 1306              		.loc 1 242 0
 1307 0110 FEFFFFEB 		bl	_ZN6tflite5micro14GetTensorShapeEPK16TfLiteEvalTensor
 1308              	.LVL137:
 1309              	.LEHE11:
 1310              	.LBB906:
 1311              	.LBB907:
  51:C:/Renesas/e2studio_2021_01_workspace_RZA2M_ANPR/ANPR_RZA2M_GR_MANGO/src/tensorflow_lite/tensorflow/lite/micro/kernels\kernel_util.h **** }
  52:C:/Renesas/e2studio_2021_01_workspace_RZA2M_ANPR/ANPR_RZA2M_GR_MANGO/src/tensorflow_lite/tensorflow/lite/micro/kernels\kernel_util.h **** 
  53:C:/Renesas/e2studio_2021_01_workspace_RZA2M_ANPR/ANPR_RZA2M_GR_MANGO/src/tensorflow_lite/tensorflow/lite/micro/kernels\kernel_util.h **** // Returns data for a TfLiteEvalTensor struct.
  54:C:/Renesas/e2studio_2021_01_workspace_RZA2M_ANPR/ANPR_RZA2M_GR_MANGO/src/tensorflow_lite/tensorflow/lite/micro/kernels\kernel_util.h **** template <typename T>
  55:C:/Renesas/e2studio_2021_01_workspace_RZA2M_ANPR/ANPR_RZA2M_GR_MANGO/src/tensorflow_lite/tensorflow/lite/micro/kernels\kernel_util.h **** T* GetTensorData(TfLiteEvalTensor* tensor) {
  56:C:/Renesas/e2studio_2021_01_workspace_RZA2M_ANPR/ANPR_RZA2M_GR_MANGO/src/tensorflow_lite/tensorflow/lite/micro/kernels\kernel_util.h ****   return tensor != nullptr ? reinterpret_cast<T*>(tensor->data.raw) : nullptr;
  57:C:/Renesas/e2studio_2021_01_workspace_RZA2M_ANPR/ANPR_RZA2M_GR_MANGO/src/tensorflow_lite/tensorflow/lite/micro/kernels\kernel_util.h **** }
  58:C:/Renesas/e2studio_2021_01_workspace_RZA2M_ANPR/ANPR_RZA2M_GR_MANGO/src/tensorflow_lite/tensorflow/lite/micro/kernels\kernel_util.h **** 
  59:C:/Renesas/e2studio_2021_01_workspace_RZA2M_ANPR/ANPR_RZA2M_GR_MANGO/src/tensorflow_lite/tensorflow/lite/micro/kernels\kernel_util.h **** // Returns const data for a TfLiteEvalTensor struct.
  60:C:/Renesas/e2studio_2021_01_workspace_RZA2M_ANPR/ANPR_RZA2M_GR_MANGO/src/tensorflow_lite/tensorflow/lite/micro/kernels\kernel_util.h **** template <typename T>
  61:C:/Renesas/e2studio_2021_01_workspace_RZA2M_ANPR/ANPR_RZA2M_GR_MANGO/src/tensorflow_lite/tensorflow/lite/micro/kernels\kernel_util.h **** const T* GetTensorData(const TfLiteEvalTensor* tensor) {
  62:C:/Renesas/e2studio_2021_01_workspace_RZA2M_ANPR/ANPR_RZA2M_GR_MANGO/src/tensorflow_lite/tensorflow/lite/micro/kernels\kernel_util.h ****   TFLITE_DCHECK(tensor != nullptr);
  63:C:/Renesas/e2studio_2021_01_workspace_RZA2M_ANPR/ANPR_RZA2M_GR_MANGO/src/tensorflow_lite/tensorflow/lite/micro/kernels\kernel_util.h ****   return reinterpret_cast<const T*>(tensor->data.raw);
 1312              		.loc 5 63 0
 1313 0114 003097E5 		ldr	r3, [r7]
 1314              	.LBE907:
 1315              	.LBE906:
 244:../src/tensorflow_lite/tensorflow/lite/micro/kernels/cmsis_nn/depthwise_conv.cc ****         tflite::micro::GetTensorData<int8_t>(filter),
 1316              		.loc 1 244 0
 1317 0118 0910A0E1 		mov	r1, r9
 1318 011c 510F8DE2 		add	r0, sp, #324
 1319              	.LBB909:
 1320              	.LBB908:
 1321              		.loc 5 63 0
 1322 0120 A0308DE5 		str	r3, [sp, #160]
 1323              	.LVL138:
 1324              	.LEHB12:
 1325              	.LBE908:
 1326              	.LBE909:
 244:../src/tensorflow_lite/tensorflow/lite/micro/kernels/cmsis_nn/depthwise_conv.cc ****         tflite::micro::GetTensorData<int8_t>(filter),
 1327              		.loc 1 244 0
 1328 0124 FEFFFFEB 		bl	_ZN6tflite5micro14GetTensorShapeEPK16TfLiteEvalTensor
 1329              	.LVL139:
 1330              	.LEHE12:
 1331              	.LBB910:
 1332              	.LBB911:
  62:C:/Renesas/e2studio_2021_01_workspace_RZA2M_ANPR/ANPR_RZA2M_GR_MANGO/src/tensorflow_lite/tensorflow/lite/micro/kernels\kernel_util.h ****   return reinterpret_cast<const T*>(tensor->data.raw);
 1333              		.loc 5 62 0
 1334 0128 000059E3 		cmp	r9, #0
 1335 012c 3406000A 		beq	.L566
 1336              		.loc 5 63 0
 1337 0130 003099E5 		ldr	r3, [r9]
 1338              	.LBE911:
 1339              	.LBE910:
 246:../src/tensorflow_lite/tensorflow/lite/micro/kernels/cmsis_nn/depthwise_conv.cc ****         tflite::micro::GetTensorData<int32_t>(bias),
 1340              		.loc 1 246 0
 1341 0134 0810A0E1 		mov	r1, r8
 1342 0138 570F8DE2 		add	r0, sp, #348
 1343              	.LBB914:
 1344              	.LBB912:
 1345              		.loc 5 63 0
 1346 013c A4308DE5 		str	r3, [sp, #164]
 1347              	.LVL140:
 1348              	.LEHB13:
 1349              	.LBE912:
 1350              	.LBE914:
 246:../src/tensorflow_lite/tensorflow/lite/micro/kernels/cmsis_nn/depthwise_conv.cc ****         tflite::micro::GetTensorData<int32_t>(bias),
 1351              		.loc 1 246 0
 1352 0140 FEFFFFEB 		bl	_ZN6tflite5micro14GetTensorShapeEPK16TfLiteEvalTensor
 1353              	.LVL141:
 1354              	.LEHE13:
 1355              	.LBB915:
 1356              	.LBB916:
  62:C:/Renesas/e2studio_2021_01_workspace_RZA2M_ANPR/ANPR_RZA2M_GR_MANGO/src/tensorflow_lite/tensorflow/lite/micro/kernels\kernel_util.h ****   return reinterpret_cast<const T*>(tensor->data.raw);
 1357              		.loc 5 62 0
 1358 0144 000058E3 		cmp	r8, #0
 1359 0148 2F06000A 		beq	.L567
 1360              		.loc 5 63 0
 1361 014c 003098E5 		ldr	r3, [r8]
 1362              	.LBE916:
 1363              	.LBE915:
 248:../src/tensorflow_lite/tensorflow/lite/micro/kernels/cmsis_nn/depthwise_conv.cc ****         tflite::micro::GetTensorData<int8_t>(output));
 1364              		.loc 1 248 0
 1365 0150 0510A0E1 		mov	r1, r5
 1366 0154 5D0F8DE2 		add	r0, sp, #372
 1367              	.LBB919:
 1368              	.LBB917:
 1369              		.loc 5 63 0
 1370 0158 A8308DE5 		str	r3, [sp, #168]
 1371              	.LVL142:
 1372              	.LEHB14:
 1373              	.LBE917:
 1374              	.LBE919:
 248:../src/tensorflow_lite/tensorflow/lite/micro/kernels/cmsis_nn/depthwise_conv.cc ****         tflite::micro::GetTensorData<int8_t>(output));
 1375              		.loc 1 248 0
 1376 015c FEFFFFEB 		bl	_ZN6tflite5micro14GetTensorShapeEPK16TfLiteEvalTensor
 1377              	.LVL143:
 1378              	.LEHE14:
 1379              	.LBB920:
 1380              	.LBB921:
  56:C:/Renesas/e2studio_2021_01_workspace_RZA2M_ANPR/ANPR_RZA2M_GR_MANGO/src/tensorflow_lite/tensorflow/lite/micro/kernels\kernel_util.h **** }
 1381              		.loc 5 56 0
 1382 0160 000055E3 		cmp	r5, #0
 1383              	.LBE921:
 1384              	.LBE920:
 1385              	.LBB925:
 1386              	.LBB926:
 1387              		.file 6 "C:/Renesas/e2studio_2021_01_workspace_RZA2M_ANPR/ANPR_RZA2M_GR_MANGO/src/tensorflow_lite/
   1:C:/Renesas/e2studio_2021_01_workspace_RZA2M_ANPR/ANPR_RZA2M_GR_MANGO/src/tensorflow_lite/tensorflow/lite/kernels/internal/reference/integer_ops\depthwise_conv.h **** /* Copyright 2019 The TensorFlow Authors. All Rights Reserved.
   2:C:/Renesas/e2studio_2021_01_workspace_RZA2M_ANPR/ANPR_RZA2M_GR_MANGO/src/tensorflow_lite/tensorflow/lite/kernels/internal/reference/integer_ops\depthwise_conv.h **** 
   3:C:/Renesas/e2studio_2021_01_workspace_RZA2M_ANPR/ANPR_RZA2M_GR_MANGO/src/tensorflow_lite/tensorflow/lite/kernels/internal/reference/integer_ops\depthwise_conv.h **** Licensed under the Apache License, Version 2.0 (the "License");
   4:C:/Renesas/e2studio_2021_01_workspace_RZA2M_ANPR/ANPR_RZA2M_GR_MANGO/src/tensorflow_lite/tensorflow/lite/kernels/internal/reference/integer_ops\depthwise_conv.h **** you may not use this file except in compliance with the License.
   5:C:/Renesas/e2studio_2021_01_workspace_RZA2M_ANPR/ANPR_RZA2M_GR_MANGO/src/tensorflow_lite/tensorflow/lite/kernels/internal/reference/integer_ops\depthwise_conv.h **** You may obtain a copy of the License at
   6:C:/Renesas/e2studio_2021_01_workspace_RZA2M_ANPR/ANPR_RZA2M_GR_MANGO/src/tensorflow_lite/tensorflow/lite/kernels/internal/reference/integer_ops\depthwise_conv.h **** 
   7:C:/Renesas/e2studio_2021_01_workspace_RZA2M_ANPR/ANPR_RZA2M_GR_MANGO/src/tensorflow_lite/tensorflow/lite/kernels/internal/reference/integer_ops\depthwise_conv.h ****     http://www.apache.org/licenses/LICENSE-2.0
   8:C:/Renesas/e2studio_2021_01_workspace_RZA2M_ANPR/ANPR_RZA2M_GR_MANGO/src/tensorflow_lite/tensorflow/lite/kernels/internal/reference/integer_ops\depthwise_conv.h **** 
   9:C:/Renesas/e2studio_2021_01_workspace_RZA2M_ANPR/ANPR_RZA2M_GR_MANGO/src/tensorflow_lite/tensorflow/lite/kernels/internal/reference/integer_ops\depthwise_conv.h **** Unless required by applicable law or agreed to in writing, software
  10:C:/Renesas/e2studio_2021_01_workspace_RZA2M_ANPR/ANPR_RZA2M_GR_MANGO/src/tensorflow_lite/tensorflow/lite/kernels/internal/reference/integer_ops\depthwise_conv.h **** distributed under the License is distributed on an "AS IS" BASIS,
  11:C:/Renesas/e2studio_2021_01_workspace_RZA2M_ANPR/ANPR_RZA2M_GR_MANGO/src/tensorflow_lite/tensorflow/lite/kernels/internal/reference/integer_ops\depthwise_conv.h **** WITHOUT WARRANTIES OR CONDITIONS OF ANY KIND, either express or implied.
  12:C:/Renesas/e2studio_2021_01_workspace_RZA2M_ANPR/ANPR_RZA2M_GR_MANGO/src/tensorflow_lite/tensorflow/lite/kernels/internal/reference/integer_ops\depthwise_conv.h **** See the License for the specific language governing permissions and
  13:C:/Renesas/e2studio_2021_01_workspace_RZA2M_ANPR/ANPR_RZA2M_GR_MANGO/src/tensorflow_lite/tensorflow/lite/kernels/internal/reference/integer_ops\depthwise_conv.h **** limitations under the License.
  14:C:/Renesas/e2studio_2021_01_workspace_RZA2M_ANPR/ANPR_RZA2M_GR_MANGO/src/tensorflow_lite/tensorflow/lite/kernels/internal/reference/integer_ops\depthwise_conv.h **** ==============================================================================*/
  15:C:/Renesas/e2studio_2021_01_workspace_RZA2M_ANPR/ANPR_RZA2M_GR_MANGO/src/tensorflow_lite/tensorflow/lite/kernels/internal/reference/integer_ops\depthwise_conv.h **** #ifndef TENSORFLOW_LITE_KERNELS_INTERNAL_REFERENCE_INTEGER_OPS_DEPTHWISE_CONV_H_
  16:C:/Renesas/e2studio_2021_01_workspace_RZA2M_ANPR/ANPR_RZA2M_GR_MANGO/src/tensorflow_lite/tensorflow/lite/kernels/internal/reference/integer_ops\depthwise_conv.h **** #define TENSORFLOW_LITE_KERNELS_INTERNAL_REFERENCE_INTEGER_OPS_DEPTHWISE_CONV_H_
  17:C:/Renesas/e2studio_2021_01_workspace_RZA2M_ANPR/ANPR_RZA2M_GR_MANGO/src/tensorflow_lite/tensorflow/lite/kernels/internal/reference/integer_ops\depthwise_conv.h **** 
  18:C:/Renesas/e2studio_2021_01_workspace_RZA2M_ANPR/ANPR_RZA2M_GR_MANGO/src/tensorflow_lite/tensorflow/lite/kernels/internal/reference/integer_ops\depthwise_conv.h **** #include "tensorflow/lite/kernels/internal/common.h"
  19:C:/Renesas/e2studio_2021_01_workspace_RZA2M_ANPR/ANPR_RZA2M_GR_MANGO/src/tensorflow_lite/tensorflow/lite/kernels/internal/reference/integer_ops\depthwise_conv.h **** 
  20:C:/Renesas/e2studio_2021_01_workspace_RZA2M_ANPR/ANPR_RZA2M_GR_MANGO/src/tensorflow_lite/tensorflow/lite/kernels/internal/reference/integer_ops\depthwise_conv.h **** namespace tflite {
  21:C:/Renesas/e2studio_2021_01_workspace_RZA2M_ANPR/ANPR_RZA2M_GR_MANGO/src/tensorflow_lite/tensorflow/lite/kernels/internal/reference/integer_ops\depthwise_conv.h **** namespace reference_integer_ops {
  22:C:/Renesas/e2studio_2021_01_workspace_RZA2M_ANPR/ANPR_RZA2M_GR_MANGO/src/tensorflow_lite/tensorflow/lite/kernels/internal/reference/integer_ops\depthwise_conv.h **** inline void DepthwiseConvPerChannel(
  23:C:/Renesas/e2studio_2021_01_workspace_RZA2M_ANPR/ANPR_RZA2M_GR_MANGO/src/tensorflow_lite/tensorflow/lite/kernels/internal/reference/integer_ops\depthwise_conv.h ****     const DepthwiseParams& params, const int32_t* output_multiplier,
  24:C:/Renesas/e2studio_2021_01_workspace_RZA2M_ANPR/ANPR_RZA2M_GR_MANGO/src/tensorflow_lite/tensorflow/lite/kernels/internal/reference/integer_ops\depthwise_conv.h ****     const int32_t* output_shift, const RuntimeShape& input_shape,
  25:C:/Renesas/e2studio_2021_01_workspace_RZA2M_ANPR/ANPR_RZA2M_GR_MANGO/src/tensorflow_lite/tensorflow/lite/kernels/internal/reference/integer_ops\depthwise_conv.h ****     const int8_t* input_data, const RuntimeShape& filter_shape,
  26:C:/Renesas/e2studio_2021_01_workspace_RZA2M_ANPR/ANPR_RZA2M_GR_MANGO/src/tensorflow_lite/tensorflow/lite/kernels/internal/reference/integer_ops\depthwise_conv.h ****     const int8_t* filter_data, const RuntimeShape& bias_shape,
  27:C:/Renesas/e2studio_2021_01_workspace_RZA2M_ANPR/ANPR_RZA2M_GR_MANGO/src/tensorflow_lite/tensorflow/lite/kernels/internal/reference/integer_ops\depthwise_conv.h ****     const int32_t* bias_data, const RuntimeShape& output_shape,
  28:C:/Renesas/e2studio_2021_01_workspace_RZA2M_ANPR/ANPR_RZA2M_GR_MANGO/src/tensorflow_lite/tensorflow/lite/kernels/internal/reference/integer_ops\depthwise_conv.h ****     int8_t* output_data) {
  29:C:/Renesas/e2studio_2021_01_workspace_RZA2M_ANPR/ANPR_RZA2M_GR_MANGO/src/tensorflow_lite/tensorflow/lite/kernels/internal/reference/integer_ops\depthwise_conv.h ****   // Get parameters.
  30:C:/Renesas/e2studio_2021_01_workspace_RZA2M_ANPR/ANPR_RZA2M_GR_MANGO/src/tensorflow_lite/tensorflow/lite/kernels/internal/reference/integer_ops\depthwise_conv.h ****   // TODO(b/141565753): Re-introduce ScopedProfilingLabel on Micro.
  31:C:/Renesas/e2studio_2021_01_workspace_RZA2M_ANPR/ANPR_RZA2M_GR_MANGO/src/tensorflow_lite/tensorflow/lite/kernels/internal/reference/integer_ops\depthwise_conv.h ****   const int stride_width = params.stride_width;
 1388              		.loc 6 31 0
 1389 0164 072D8DE2 		add	r2, sp, #448
 1390              	.LBE926:
 1391              	.LBE925:
 1392              	.LBB1110:
 1393              	.LBB922:
  56:C:/Renesas/e2studio_2021_01_workspace_RZA2M_ANPR/ANPR_RZA2M_GR_MANGO/src/tensorflow_lite/tensorflow/lite/micro/kernels\kernel_util.h **** }
 1394              		.loc 5 56 0
 1395 0168 00309515 		ldrne	r3, [r5]
 1396              	.LBE922:
 1397              	.LBE1110:
 1398              	.LBB1111:
 1399              	.LBB1097:
 1400              		.loc 6 31 0
 1401 016c 022082E2 		add	r2, r2, #2
 1402              	.LBE1097:
 1403              	.LBE1111:
 1404              	.LBB1112:
 1405              	.LBB923:
  56:C:/Renesas/e2studio_2021_01_workspace_RZA2M_ANPR/ANPR_RZA2M_GR_MANGO/src/tensorflow_lite/tensorflow/lite/micro/kernels\kernel_util.h **** }
 1406              		.loc 5 56 0
 1407 0170 98508D05 		streq	r5, [sp, #152]
 1408              	.LVL144:
 1409              	.LBE923:
 1410              	.LBE1112:
 1411              	.LBB1113:
 1412              	.LBB1098:
 1413              		.loc 6 31 0
 1414 0174 F020D2E1 		ldrsh	r2, [r2]
 1415              	.LBE1098:
 1416              	.LBE1113:
 1417              	.LBB1114:
 1418              	.LBB924:
  56:C:/Renesas/e2studio_2021_01_workspace_RZA2M_ANPR/ANPR_RZA2M_GR_MANGO/src/tensorflow_lite/tensorflow/lite/micro/kernels\kernel_util.h **** }
 1419              		.loc 5 56 0
 1420 0178 98308D15 		strne	r3, [sp, #152]
 1421              	.LVL145:
 1422              	.LBE924:
 1423              	.LBE1114:
 1424              	.LBB1115:
 1425              	.LBB1099:
  32:C:/Renesas/e2studio_2021_01_workspace_RZA2M_ANPR/ANPR_RZA2M_GR_MANGO/src/tensorflow_lite/tensorflow/lite/kernels/internal/reference/integer_ops\depthwise_conv.h ****   const int stride_height = params.stride_height;
  33:C:/Renesas/e2studio_2021_01_workspace_RZA2M_ANPR/ANPR_RZA2M_GR_MANGO/src/tensorflow_lite/tensorflow/lite/kernels/internal/reference/integer_ops\depthwise_conv.h ****   const int dilation_width_factor = params.dilation_width_factor;
  34:C:/Renesas/e2studio_2021_01_workspace_RZA2M_ANPR/ANPR_RZA2M_GR_MANGO/src/tensorflow_lite/tensorflow/lite/kernels/internal/reference/integer_ops\depthwise_conv.h ****   const int dilation_height_factor = params.dilation_height_factor;
  35:C:/Renesas/e2studio_2021_01_workspace_RZA2M_ANPR/ANPR_RZA2M_GR_MANGO/src/tensorflow_lite/tensorflow/lite/kernels/internal/reference/integer_ops\depthwise_conv.h ****   const int pad_width = params.padding_values.width;
  36:C:/Renesas/e2studio_2021_01_workspace_RZA2M_ANPR/ANPR_RZA2M_GR_MANGO/src/tensorflow_lite/tensorflow/lite/kernels/internal/reference/integer_ops\depthwise_conv.h ****   const int pad_height = params.padding_values.height;
  37:C:/Renesas/e2studio_2021_01_workspace_RZA2M_ANPR/ANPR_RZA2M_GR_MANGO/src/tensorflow_lite/tensorflow/lite/kernels/internal/reference/integer_ops\depthwise_conv.h ****   const int depth_multiplier = params.depth_multiplier;
  38:C:/Renesas/e2studio_2021_01_workspace_RZA2M_ANPR/ANPR_RZA2M_GR_MANGO/src/tensorflow_lite/tensorflow/lite/kernels/internal/reference/integer_ops\depthwise_conv.h ****   const int32_t input_offset = params.input_offset;
  39:C:/Renesas/e2studio_2021_01_workspace_RZA2M_ANPR/ANPR_RZA2M_GR_MANGO/src/tensorflow_lite/tensorflow/lite/kernels/internal/reference/integer_ops\depthwise_conv.h ****   const int32_t output_offset = params.output_offset;
  40:C:/Renesas/e2studio_2021_01_workspace_RZA2M_ANPR/ANPR_RZA2M_GR_MANGO/src/tensorflow_lite/tensorflow/lite/kernels/internal/reference/integer_ops\depthwise_conv.h ****   const int32_t output_activation_min = params.quantized_activation_min;
  41:C:/Renesas/e2studio_2021_01_workspace_RZA2M_ANPR/ANPR_RZA2M_GR_MANGO/src/tensorflow_lite/tensorflow/lite/kernels/internal/reference/integer_ops\depthwise_conv.h ****   const int32_t output_activation_max = params.quantized_activation_max;
  42:C:/Renesas/e2studio_2021_01_workspace_RZA2M_ANPR/ANPR_RZA2M_GR_MANGO/src/tensorflow_lite/tensorflow/lite/kernels/internal/reference/integer_ops\depthwise_conv.h **** 
  43:C:/Renesas/e2studio_2021_01_workspace_RZA2M_ANPR/ANPR_RZA2M_GR_MANGO/src/tensorflow_lite/tensorflow/lite/kernels/internal/reference/integer_ops\depthwise_conv.h ****   // Check dimensions of the tensors.
  44:C:/Renesas/e2studio_2021_01_workspace_RZA2M_ANPR/ANPR_RZA2M_GR_MANGO/src/tensorflow_lite/tensorflow/lite/kernels/internal/reference/integer_ops\depthwise_conv.h ****   TFLITE_DCHECK_EQ(input_shape.DimensionsCount(), 4);
 1426              		.loc 6 44 0
 1427 017c 2C319DE5 		ldr	r3, [sp, #300]
  31:C:/Renesas/e2studio_2021_01_workspace_RZA2M_ANPR/ANPR_RZA2M_GR_MANGO/src/tensorflow_lite/tensorflow/lite/kernels/internal/reference/integer_ops\depthwise_conv.h ****   const int stride_height = params.stride_height;
 1428              		.loc 6 31 0
 1429 0180 D4208DE5 		str	r2, [sp, #212]
 1430              	.LVL146:
  32:C:/Renesas/e2studio_2021_01_workspace_RZA2M_ANPR/ANPR_RZA2M_GR_MANGO/src/tensorflow_lite/tensorflow/lite/kernels/internal/reference/integer_ops\depthwise_conv.h ****   const int stride_height = params.stride_height;
 1431              		.loc 6 32 0
 1432 0184 712F8DE2 		add	r2, sp, #452
 1433 0188 F020D2E1 		ldrsh	r2, [r2]
 1434              		.loc 6 44 0
 1435 018c 040053E3 		cmp	r3, #4
  33:C:/Renesas/e2studio_2021_01_workspace_RZA2M_ANPR/ANPR_RZA2M_GR_MANGO/src/tensorflow_lite/tensorflow/lite/kernels/internal/reference/integer_ops\depthwise_conv.h ****   const int dilation_height_factor = params.dilation_height_factor;
 1436              		.loc 6 33 0
 1437 0190 713F8DE2 		add	r3, sp, #452
 1438 0194 023083E2 		add	r3, r3, #2
 1439 0198 F0B0D3E1 		ldrsh	fp, [r3]
  34:C:/Renesas/e2studio_2021_01_workspace_RZA2M_ANPR/ANPR_RZA2M_GR_MANGO/src/tensorflow_lite/tensorflow/lite/kernels/internal/reference/integer_ops\depthwise_conv.h ****   const int pad_width = params.padding_values.width;
 1440              		.loc 6 34 0
 1441 019c 723F8DE2 		add	r3, sp, #456
  32:C:/Renesas/e2studio_2021_01_workspace_RZA2M_ANPR/ANPR_RZA2M_GR_MANGO/src/tensorflow_lite/tensorflow/lite/kernels/internal/reference/integer_ops\depthwise_conv.h ****   const int dilation_width_factor = params.dilation_width_factor;
 1442              		.loc 6 32 0
 1443 01a0 D8208DE5 		str	r2, [sp, #216]
 1444              	.LVL147:
  34:C:/Renesas/e2studio_2021_01_workspace_RZA2M_ANPR/ANPR_RZA2M_GR_MANGO/src/tensorflow_lite/tensorflow/lite/kernels/internal/reference/integer_ops\depthwise_conv.h ****   const int pad_width = params.padding_values.width;
 1445              		.loc 6 34 0
 1446 01a4 F030D3E1 		ldrsh	r3, [r3]
 1447 01a8 68308DE5 		str	r3, [sp, #104]
 1448              	.LVL148:
  35:C:/Renesas/e2studio_2021_01_workspace_RZA2M_ANPR/ANPR_RZA2M_GR_MANGO/src/tensorflow_lite/tensorflow/lite/kernels/internal/reference/integer_ops\depthwise_conv.h ****   const int pad_height = params.padding_values.height;
 1449              		.loc 6 35 0
 1450 01ac 6E3F8DE2 		add	r3, sp, #440
 1451              	.LVL149:
 1452 01b0 023083E2 		add	r3, r3, #2
 1453              	.LVL150:
 1454 01b4 F030D3E1 		ldrsh	r3, [r3]
 1455              	.LVL151:
 1456 01b8 DC308DE5 		str	r3, [sp, #220]
 1457              	.LVL152:
  36:C:/Renesas/e2studio_2021_01_workspace_RZA2M_ANPR/ANPR_RZA2M_GR_MANGO/src/tensorflow_lite/tensorflow/lite/kernels/internal/reference/integer_ops\depthwise_conv.h ****   const int depth_multiplier = params.depth_multiplier;
 1458              		.loc 6 36 0
 1459 01bc 6F3F8DE2 		add	r3, sp, #444
 1460 01c0 F030D3E1 		ldrsh	r3, [r3]
 1461 01c4 E0308DE5 		str	r3, [sp, #224]
 1462              	.LVL153:
  37:C:/Renesas/e2studio_2021_01_workspace_RZA2M_ANPR/ANPR_RZA2M_GR_MANGO/src/tensorflow_lite/tensorflow/lite/kernels/internal/reference/integer_ops\depthwise_conv.h ****   const int32_t input_offset = params.input_offset;
 1463              		.loc 6 37 0
 1464 01c8 723F8DE2 		add	r3, sp, #456
 1465 01cc 023083E2 		add	r3, r3, #2
 1466 01d0 F030D3E1 		ldrsh	r3, [r3]
 1467 01d4 9C308DE5 		str	r3, [sp, #156]
 1468              	.LVL154:
  38:C:/Renesas/e2studio_2021_01_workspace_RZA2M_ANPR/ANPR_RZA2M_GR_MANGO/src/tensorflow_lite/tensorflow/lite/kernels/internal/reference/integer_ops\depthwise_conv.h ****   const int32_t output_offset = params.output_offset;
 1469              		.loc 6 38 0
 1470 01d8 CC319DE5 		ldr	r3, [sp, #460]
 1471              	.LVL155:
 1472 01dc 60308DE5 		str	r3, [sp, #96]
 1473              	.LVL156:
  39:C:/Renesas/e2studio_2021_01_workspace_RZA2M_ANPR/ANPR_RZA2M_GR_MANGO/src/tensorflow_lite/tensorflow/lite/kernels/internal/reference/integer_ops\depthwise_conv.h ****   const int32_t output_activation_min = params.quantized_activation_min;
 1474              		.loc 6 39 0
 1475 01e0 D4319DE5 		ldr	r3, [sp, #468]
 1476              	.LVL157:
 1477 01e4 AC308DE5 		str	r3, [sp, #172]
 1478              	.LVL158:
  40:C:/Renesas/e2studio_2021_01_workspace_RZA2M_ANPR/ANPR_RZA2M_GR_MANGO/src/tensorflow_lite/tensorflow/lite/kernels/internal/reference/integer_ops\depthwise_conv.h ****   const int32_t output_activation_max = params.quantized_activation_max;
 1479              		.loc 6 40 0
 1480 01e8 E0319DE5 		ldr	r3, [sp, #480]
 1481              	.LVL159:
 1482 01ec 8C308DE5 		str	r3, [sp, #140]
 1483              	.LVL160:
  41:C:/Renesas/e2studio_2021_01_workspace_RZA2M_ANPR/ANPR_RZA2M_GR_MANGO/src/tensorflow_lite/tensorflow/lite/kernels/internal/reference/integer_ops\depthwise_conv.h **** 
 1484              		.loc 6 41 0
 1485 01f0 E4319DE5 		ldr	r3, [sp, #484]
 1486              	.LVL161:
 1487 01f4 B0308DE5 		str	r3, [sp, #176]
 1488              	.LVL162:
 1489              		.loc 6 44 0
 1490 01f8 B405001A 		bne	.L568
 1491              	.LVL163:
  45:C:/Renesas/e2studio_2021_01_workspace_RZA2M_ANPR/ANPR_RZA2M_GR_MANGO/src/tensorflow_lite/tensorflow/lite/kernels/internal/reference/integer_ops\depthwise_conv.h ****   TFLITE_DCHECK_EQ(filter_shape.DimensionsCount(), 4);
 1492              		.loc 6 45 0
 1493 01fc 44319DE5 		ldr	r3, [sp, #324]
 1494              	.LVL164:
 1495 0200 040053E3 		cmp	r3, #4
 1496 0204 AE05001A 		bne	.L569
 1497              	.LVL165:
  46:C:/Renesas/e2studio_2021_01_workspace_RZA2M_ANPR/ANPR_RZA2M_GR_MANGO/src/tensorflow_lite/tensorflow/lite/kernels/internal/reference/integer_ops\depthwise_conv.h ****   TFLITE_DCHECK_EQ(output_shape.DimensionsCount(), 4);
 1498              		.loc 6 46 0
 1499 0208 74319DE5 		ldr	r3, [sp, #372]
 1500 020c 040053E3 		cmp	r3, #4
 1501 0210 AC05001A 		bne	.L570
  47:C:/Renesas/e2studio_2021_01_workspace_RZA2M_ANPR/ANPR_RZA2M_GR_MANGO/src/tensorflow_lite/tensorflow/lite/kernels/internal/reference/integer_ops\depthwise_conv.h **** 
  48:C:/Renesas/e2studio_2021_01_workspace_RZA2M_ANPR/ANPR_RZA2M_GR_MANGO/src/tensorflow_lite/tensorflow/lite/kernels/internal/reference/integer_ops\depthwise_conv.h ****   TFLITE_DCHECK_LE(output_activation_min, output_activation_max);
 1502              		.loc 6 48 0
 1503 0214 8C309DE5 		ldr	r3, [sp, #140]
 1504 0218 B0209DE5 		ldr	r2, [sp, #176]
 1505 021c 020053E1 		cmp	r3, r2
 1506 0220 D80500CA 		bgt	.L571
 1507              	.LVL166:
 1508              	.LBB927:
 1509              	.LBB928:
 1510              	.LBB929:
 1511              	.LBB930:
 216:C:/Renesas/e2studio_2021_01_workspace_RZA2M_ANPR/ANPR_RZA2M_GR_MANGO/src/tensorflow_lite/tensorflow/lite/kernels/internal\types.h ****   }
 1512              		.loc 4 216 0
 1513 0224 30319DE5 		ldr	r3, [sp, #304]
 1514 0228 0320A0E1 		mov	r2, r3
 1515 022c BC308DE5 		str	r3, [sp, #188]
 1516              	.LVL167:
 1517              	.LBE930:
 1518              	.LBE929:
 1519              		.loc 4 472 0
 1520 0230 78319DE5 		ldr	r3, [sp, #376]
 1521 0234 030052E1 		cmp	r2, r3
 1522 0238 FD05001A 		bne	.L572
 1523              	.LVL168:
 1524              	.LBE928:
 1525              	.LBE927:
 1526              	.LBB932:
 1527              	.LBB933:
 1528              	.LBB934:
 1529              	.LBB935:
 216:C:/Renesas/e2studio_2021_01_workspace_RZA2M_ANPR/ANPR_RZA2M_GR_MANGO/src/tensorflow_lite/tensorflow/lite/kernels/internal\types.h ****   }
 1530              		.loc 4 216 0
