   1              		.cpu cortex-a9
   2              		.eabi_attribute 28, 1
   3              		.eabi_attribute 20, 1
   4              		.eabi_attribute 21, 1
   5              		.eabi_attribute 23, 3
   6              		.eabi_attribute 24, 1
   7              		.eabi_attribute 25, 1
   8              		.eabi_attribute 26, 1
   9              		.eabi_attribute 30, 2
  10              		.eabi_attribute 34, 0
  11              		.eabi_attribute 18, 4
  12              		.file	"depthwise_conv.cc"
  13              		.text
  14              	.Ltext0:
  15              		.cfi_sections	.debug_frame
  16              		.section	.text._ZN6tflite12_GLOBAL__N_14InitEP13TfLiteContextPKcj,"ax",%progbits
  17              		.align	2
  18              		.syntax unified
  19              		.arm
  20              		.fpu neon
  22              	_ZN6tflite12_GLOBAL__N_14InitEP13TfLiteContextPKcj:
  23              		.fnstart
  24              	.LFB4269:
  25              		.file 1 "../src/tensorflow_lite/tensorflow/lite/micro/kernels/cmsis_nn/depthwise_conv.cc"
   1:../src/tensorflow_lite/tensorflow/lite/micro/kernels/cmsis_nn/depthwise_conv.cc **** /* Copyright 2020 The TensorFlow Authors. All Rights Reserved.
   2:../src/tensorflow_lite/tensorflow/lite/micro/kernels/cmsis_nn/depthwise_conv.cc **** 
   3:../src/tensorflow_lite/tensorflow/lite/micro/kernels/cmsis_nn/depthwise_conv.cc **** Licensed under the Apache License, Version 2.0 (the "License");
   4:../src/tensorflow_lite/tensorflow/lite/micro/kernels/cmsis_nn/depthwise_conv.cc **** you may not use this file except in compliance with the License.
   5:../src/tensorflow_lite/tensorflow/lite/micro/kernels/cmsis_nn/depthwise_conv.cc **** You may obtain a copy of the License at
   6:../src/tensorflow_lite/tensorflow/lite/micro/kernels/cmsis_nn/depthwise_conv.cc **** 
   7:../src/tensorflow_lite/tensorflow/lite/micro/kernels/cmsis_nn/depthwise_conv.cc ****     http://www.apache.org/licenses/LICENSE-2.0
   8:../src/tensorflow_lite/tensorflow/lite/micro/kernels/cmsis_nn/depthwise_conv.cc **** 
   9:../src/tensorflow_lite/tensorflow/lite/micro/kernels/cmsis_nn/depthwise_conv.cc **** Unless required by applicable law or agreed to in writing, software
  10:../src/tensorflow_lite/tensorflow/lite/micro/kernels/cmsis_nn/depthwise_conv.cc **** distributed under the License is distributed on an "AS IS" BASIS,
  11:../src/tensorflow_lite/tensorflow/lite/micro/kernels/cmsis_nn/depthwise_conv.cc **** WITHOUT WARRANTIES OR CONDITIONS OF ANY KIND, either express or implied.
  12:../src/tensorflow_lite/tensorflow/lite/micro/kernels/cmsis_nn/depthwise_conv.cc **** See the License for the specific language governing permissions and
  13:../src/tensorflow_lite/tensorflow/lite/micro/kernels/cmsis_nn/depthwise_conv.cc **** limitations under the License.
  14:../src/tensorflow_lite/tensorflow/lite/micro/kernels/cmsis_nn/depthwise_conv.cc **** ==============================================================================*/
  15:../src/tensorflow_lite/tensorflow/lite/micro/kernels/cmsis_nn/depthwise_conv.cc **** 
  16:../src/tensorflow_lite/tensorflow/lite/micro/kernels/cmsis_nn/depthwise_conv.cc **** #include "tensorflow/lite/micro/kernels/depthwise_conv.h"
  17:../src/tensorflow_lite/tensorflow/lite/micro/kernels/cmsis_nn/depthwise_conv.cc **** 
  18:../src/tensorflow_lite/tensorflow/lite/micro/kernels/cmsis_nn/depthwise_conv.cc **** #include "CMSIS/NN/Include/arm_nnfunctions.h"
  19:../src/tensorflow_lite/tensorflow/lite/micro/kernels/cmsis_nn/depthwise_conv.cc **** #include "tensorflow/lite/c/builtin_op_data.h"
  20:../src/tensorflow_lite/tensorflow/lite/micro/kernels/cmsis_nn/depthwise_conv.cc **** #include "tensorflow/lite/c/common.h"
  21:../src/tensorflow_lite/tensorflow/lite/micro/kernels/cmsis_nn/depthwise_conv.cc **** #include "tensorflow/lite/kernels/internal/common.h"
  22:../src/tensorflow_lite/tensorflow/lite/micro/kernels/cmsis_nn/depthwise_conv.cc **** #include "tensorflow/lite/kernels/internal/quantization_util.h"
  23:../src/tensorflow_lite/tensorflow/lite/micro/kernels/cmsis_nn/depthwise_conv.cc **** #include "tensorflow/lite/kernels/internal/reference/depthwiseconv_float.h"
  24:../src/tensorflow_lite/tensorflow/lite/micro/kernels/cmsis_nn/depthwise_conv.cc **** #include "tensorflow/lite/kernels/internal/reference/depthwiseconv_uint8.h"
  25:../src/tensorflow_lite/tensorflow/lite/micro/kernels/cmsis_nn/depthwise_conv.cc **** #include "tensorflow/lite/kernels/internal/reference/integer_ops/depthwise_conv.h"
  26:../src/tensorflow_lite/tensorflow/lite/micro/kernels/cmsis_nn/depthwise_conv.cc **** #include "tensorflow/lite/kernels/internal/tensor_ctypes.h"
  27:../src/tensorflow_lite/tensorflow/lite/micro/kernels/cmsis_nn/depthwise_conv.cc **** #include "tensorflow/lite/kernels/kernel_util.h"
  28:../src/tensorflow_lite/tensorflow/lite/micro/kernels/cmsis_nn/depthwise_conv.cc **** #include "tensorflow/lite/kernels/padding.h"
  29:../src/tensorflow_lite/tensorflow/lite/micro/kernels/cmsis_nn/depthwise_conv.cc **** #include "tensorflow/lite/micro/kernels/conv.h"
  30:../src/tensorflow_lite/tensorflow/lite/micro/kernels/cmsis_nn/depthwise_conv.cc **** #include "tensorflow/lite/micro/kernels/kernel_util.h"
  31:../src/tensorflow_lite/tensorflow/lite/micro/kernels/cmsis_nn/depthwise_conv.cc **** 
  32:../src/tensorflow_lite/tensorflow/lite/micro/kernels/cmsis_nn/depthwise_conv.cc **** namespace tflite {
  33:../src/tensorflow_lite/tensorflow/lite/micro/kernels/cmsis_nn/depthwise_conv.cc **** namespace {
  34:../src/tensorflow_lite/tensorflow/lite/micro/kernels/cmsis_nn/depthwise_conv.cc **** 
  35:../src/tensorflow_lite/tensorflow/lite/micro/kernels/cmsis_nn/depthwise_conv.cc **** struct OpData {
  36:../src/tensorflow_lite/tensorflow/lite/micro/kernels/cmsis_nn/depthwise_conv.cc ****   OpDataConv reference_op_data;
  37:../src/tensorflow_lite/tensorflow/lite/micro/kernels/cmsis_nn/depthwise_conv.cc **** 
  38:../src/tensorflow_lite/tensorflow/lite/micro/kernels/cmsis_nn/depthwise_conv.cc ****   // Index to buffer for optimizations if applicable.
  39:../src/tensorflow_lite/tensorflow/lite/micro/kernels/cmsis_nn/depthwise_conv.cc ****   int buffer_idx;
  40:../src/tensorflow_lite/tensorflow/lite/micro/kernels/cmsis_nn/depthwise_conv.cc **** };
  41:../src/tensorflow_lite/tensorflow/lite/micro/kernels/cmsis_nn/depthwise_conv.cc **** 
  42:../src/tensorflow_lite/tensorflow/lite/micro/kernels/cmsis_nn/depthwise_conv.cc **** void* Init(TfLiteContext* context, const char* buffer, size_t length) {
  26              		.loc 1 42 0
  27              		.cfi_startproc
  28              		@ args = 0, pretend = 0, frame = 0
  29              		@ frame_needed = 0, uses_anonymous_args = 0
  30              	.LVL0:
  43:../src/tensorflow_lite/tensorflow/lite/micro/kernels/cmsis_nn/depthwise_conv.cc ****   TFLITE_DCHECK(context->AllocatePersistentBuffer != nullptr);
  31              		.loc 1 43 0
  32 0000 383090E5 		ldr	r3, [r0, #56]
  33 0004 000053E3 		cmp	r3, #0
  34 0008 0100000A 		beq	.L7
  44:../src/tensorflow_lite/tensorflow/lite/micro/kernels/cmsis_nn/depthwise_conv.cc ****   return context->AllocatePersistentBuffer(context, sizeof(OpData));
  35              		.loc 1 44 0
  36 000c 3810A0E3 		mov	r1, #56
  37              	.LVL1:
  38 0010 13FF2FE1 		bx	r3
  39              	.LVL2:
  40              	.L7:
  42:../src/tensorflow_lite/tensorflow/lite/micro/kernels/cmsis_nn/depthwise_conv.cc ****   TFLITE_DCHECK(context->AllocatePersistentBuffer != nullptr);
  41              		.loc 1 42 0 discriminator 1
  42 0014 10402DE9 		push	{r4, lr}
  43              		.save {r4, lr}
  44              		.cfi_def_cfa_offset 8
  45              		.cfi_offset 4, -8
  46              		.cfi_offset 14, -4
  43:../src/tensorflow_lite/tensorflow/lite/micro/kernels/cmsis_nn/depthwise_conv.cc ****   TFLITE_DCHECK(context->AllocatePersistentBuffer != nullptr);
  47              		.loc 1 43 0 discriminator 1
  48 0018 FEFFFFEB 		bl	abort
  49              	.LVL3:
  50              		.cfi_endproc
  51              	.LFE4269:
  52              		.fnend
  54              		.section	.text._ZN6tflite12_GLOBAL__N_17PrepareEP13TfLiteContextP10TfLiteNode,"ax",%progbits
  55              		.align	2
  56              		.syntax unified
  57              		.arm
  58              		.fpu neon
  60              	_ZN6tflite12_GLOBAL__N_17PrepareEP13TfLiteContextP10TfLiteNode:
  61              		.fnstart
  62              	.LFB4270:
  45:../src/tensorflow_lite/tensorflow/lite/micro/kernels/cmsis_nn/depthwise_conv.cc **** }
  46:../src/tensorflow_lite/tensorflow/lite/micro/kernels/cmsis_nn/depthwise_conv.cc **** 
  47:../src/tensorflow_lite/tensorflow/lite/micro/kernels/cmsis_nn/depthwise_conv.cc **** TfLiteStatus Prepare(TfLiteContext* context, TfLiteNode* node) {
  63              		.loc 1 47 0
  64              		.cfi_startproc
  65              		.cfi_personality 0,__gxx_personality_v0
  66              		.cfi_lsda 0,.LLSDA4270
  67              		@ args = 0, pretend = 0, frame = 200
  68              		@ frame_needed = 0, uses_anonymous_args = 0
  69              	.LVL4:
  70 0000 F04F2DE9 		push	{r4, r5, r6, r7, r8, r9, r10, fp, lr}
  71              		.save {r4, r5, r6, r7, r8, r9, r10, fp, lr}
  72              		.cfi_def_cfa_offset 36
  73              		.cfi_offset 4, -36
  74              		.cfi_offset 5, -32
  75              		.cfi_offset 6, -28
  76              		.cfi_offset 7, -24
  77              		.cfi_offset 8, -20
  78              		.cfi_offset 9, -16
  79              		.cfi_offset 10, -12
  80              		.cfi_offset 11, -8
  81              		.cfi_offset 14, -4
  82              		.pad #236
  83 0004 ECD04DE2 		sub	sp, sp, #236
  84              		.cfi_def_cfa_offset 272
  48:../src/tensorflow_lite/tensorflow/lite/micro/kernels/cmsis_nn/depthwise_conv.cc ****   TFLITE_DCHECK(node->user_data != nullptr);
  85              		.loc 1 48 0
  86 0008 106091E5 		ldr	r6, [r1, #16]
  87 000c 000056E3 		cmp	r6, #0
  88 0010 5F01000A 		beq	.L10
  49:../src/tensorflow_lite/tensorflow/lite/micro/kernels/cmsis_nn/depthwise_conv.cc ****   TFLITE_DCHECK(node->builtin_data != nullptr);
  89              		.loc 1 49 0
  90 0014 148091E5 		ldr	r8, [r1, #20]
  91 0018 0150A0E1 		mov	r5, r1
  92 001c 000058E3 		cmp	r8, #0
  93 0020 5B01000A 		beq	.L10
  94              	.LVL5:
  50:../src/tensorflow_lite/tensorflow/lite/micro/kernels/cmsis_nn/depthwise_conv.cc **** 
  51:../src/tensorflow_lite/tensorflow/lite/micro/kernels/cmsis_nn/depthwise_conv.cc ****   OpData* data = static_cast<OpData*>(node->user_data);
  52:../src/tensorflow_lite/tensorflow/lite/micro/kernels/cmsis_nn/depthwise_conv.cc ****   const auto& params =
  53:../src/tensorflow_lite/tensorflow/lite/micro/kernels/cmsis_nn/depthwise_conv.cc ****       *(reinterpret_cast<TfLiteDepthwiseConvParams*>(node->builtin_data));
  54:../src/tensorflow_lite/tensorflow/lite/micro/kernels/cmsis_nn/depthwise_conv.cc **** 
  55:../src/tensorflow_lite/tensorflow/lite/micro/kernels/cmsis_nn/depthwise_conv.cc ****   const TfLiteTensor* input =
  56:../src/tensorflow_lite/tensorflow/lite/micro/kernels/cmsis_nn/depthwise_conv.cc ****       GetInput(context, node, kDepthwiseConvInputTensor);
  95              		.loc 1 56 0
  96 0024 003000E3 		movw	r3, #:lower16:_ZN6tflite25kDepthwiseConvInputTensorE
  97 0028 0040A0E1 		mov	r4, r0
  98 002c 003040E3 		movt	r3, #:upper16:_ZN6tflite25kDepthwiseConvInputTensorE
  99 0030 002093E5 		ldr	r2, [r3]
 100              	.LEHB0:
 101 0034 FEFFFFEB 		bl	_ZN6tflite8GetInputEPK13TfLiteContextPK10TfLiteNodei
 102              	.LVL6:
  57:../src/tensorflow_lite/tensorflow/lite/micro/kernels/cmsis_nn/depthwise_conv.cc ****   TF_LITE_ENSURE(context, input != nullptr);
 103              		.loc 1 57 0
 104 0038 007050E2 		subs	r7, r0, #0
 105 003c 8900000A 		beq	.L72
  58:../src/tensorflow_lite/tensorflow/lite/micro/kernels/cmsis_nn/depthwise_conv.cc ****   const TfLiteTensor* filter =
  59:../src/tensorflow_lite/tensorflow/lite/micro/kernels/cmsis_nn/depthwise_conv.cc ****       GetInput(context, node, kDepthwiseConvWeightsTensor);
 106              		.loc 1 59 0
 107 0040 003000E3 		movw	r3, #:lower16:_ZN6tflite27kDepthwiseConvWeightsTensorE
 108 0044 0510A0E1 		mov	r1, r5
 109 0048 003040E3 		movt	r3, #:upper16:_ZN6tflite27kDepthwiseConvWeightsTensorE
 110 004c 0400A0E1 		mov	r0, r4
 111              	.LVL7:
 112 0050 002093E5 		ldr	r2, [r3]
 113 0054 FEFFFFEB 		bl	_ZN6tflite8GetInputEPK13TfLiteContextPK10TfLiteNodei
 114              	.LVL8:
  60:../src/tensorflow_lite/tensorflow/lite/micro/kernels/cmsis_nn/depthwise_conv.cc ****   TF_LITE_ENSURE(context, filter != nullptr);
 115              		.loc 1 60 0
 116 0058 009050E2 		subs	r9, r0, #0
 117 005c 8F00000A 		beq	.L73
  61:../src/tensorflow_lite/tensorflow/lite/micro/kernels/cmsis_nn/depthwise_conv.cc ****   TfLiteTensor* output = GetOutput(context, node, kDepthwiseConvOutputTensor);
 118              		.loc 1 61 0
 119 0060 003000E3 		movw	r3, #:lower16:_ZN6tflite26kDepthwiseConvOutputTensorE
 120 0064 0510A0E1 		mov	r1, r5
 121 0068 003040E3 		movt	r3, #:upper16:_ZN6tflite26kDepthwiseConvOutputTensorE
 122 006c 0400A0E1 		mov	r0, r4
 123              	.LVL9:
 124 0070 002093E5 		ldr	r2, [r3]
 125 0074 FEFFFFEB 		bl	_ZN6tflite9GetOutputEP13TfLiteContextPK10TfLiteNodei
 126              	.LVL10:
  62:../src/tensorflow_lite/tensorflow/lite/micro/kernels/cmsis_nn/depthwise_conv.cc ****   TF_LITE_ENSURE(context, output != nullptr);
 127              		.loc 1 62 0
 128 0078 003050E2 		subs	r3, r0, #0
 129 007c 24308DE5 		str	r3, [sp, #36]
 130 0080 1301000A 		beq	.L74
  63:../src/tensorflow_lite/tensorflow/lite/micro/kernels/cmsis_nn/depthwise_conv.cc **** 
  64:../src/tensorflow_lite/tensorflow/lite/micro/kernels/cmsis_nn/depthwise_conv.cc ****   const TfLiteType data_type = input->type;
 131              		.loc 1 64 0
 132 0084 00A0D7E5 		ldrb	r10, [r7]	@ zero_extendqisi2
 133              	.LVL11:
 134 0088 082099E5 		ldr	r2, [r9, #8]
 135              	.LVL12:
 136              	.LBB449:
  65:../src/tensorflow_lite/tensorflow/lite/micro/kernels/cmsis_nn/depthwise_conv.cc ****   int input_width = SizeOfDimension(input, 2);
  66:../src/tensorflow_lite/tensorflow/lite/micro/kernels/cmsis_nn/depthwise_conv.cc ****   int input_height = SizeOfDimension(input, 1);
  67:../src/tensorflow_lite/tensorflow/lite/micro/kernels/cmsis_nn/depthwise_conv.cc ****   int filter_width = SizeOfDimension(filter, 2);
  68:../src/tensorflow_lite/tensorflow/lite/micro/kernels/cmsis_nn/depthwise_conv.cc ****   int filter_height = SizeOfDimension(filter, 1);
  69:../src/tensorflow_lite/tensorflow/lite/micro/kernels/cmsis_nn/depthwise_conv.cc ****   int output_width = SizeOfDimension(output, 2);
  70:../src/tensorflow_lite/tensorflow/lite/micro/kernels/cmsis_nn/depthwise_conv.cc ****   int output_height = SizeOfDimension(output, 1);
  71:../src/tensorflow_lite/tensorflow/lite/micro/kernels/cmsis_nn/depthwise_conv.cc **** 
  72:../src/tensorflow_lite/tensorflow/lite/micro/kernels/cmsis_nn/depthwise_conv.cc ****   if (input->type == kTfLiteInt8) {
 137              		.loc 1 72 0
 138 008c 09005AE3 		cmp	r10, #9
 139 0090 3600000A 		beq	.L75
 140              	.LVL13:
 141              	.L15:
 142              	.LBE449:
  73:../src/tensorflow_lite/tensorflow/lite/micro/kernels/cmsis_nn/depthwise_conv.cc ****     TF_LITE_ENSURE_EQ(context, filter->quantization.type,
  74:../src/tensorflow_lite/tensorflow/lite/micro/kernels/cmsis_nn/depthwise_conv.cc ****                       kTfLiteAffineQuantization);
  75:../src/tensorflow_lite/tensorflow/lite/micro/kernels/cmsis_nn/depthwise_conv.cc **** 
  76:../src/tensorflow_lite/tensorflow/lite/micro/kernels/cmsis_nn/depthwise_conv.cc ****     // All per-channel quantized tensors need valid zero point and scale arrays.
  77:../src/tensorflow_lite/tensorflow/lite/micro/kernels/cmsis_nn/depthwise_conv.cc ****     const auto* affine_quantization =
  78:../src/tensorflow_lite/tensorflow/lite/micro/kernels/cmsis_nn/depthwise_conv.cc ****         reinterpret_cast<TfLiteAffineQuantization*>(
  79:../src/tensorflow_lite/tensorflow/lite/micro/kernels/cmsis_nn/depthwise_conv.cc ****             filter->quantization.params);
  80:../src/tensorflow_lite/tensorflow/lite/micro/kernels/cmsis_nn/depthwise_conv.cc ****     TF_LITE_ENSURE(context, affine_quantization);
  81:../src/tensorflow_lite/tensorflow/lite/micro/kernels/cmsis_nn/depthwise_conv.cc ****     TF_LITE_ENSURE(context, affine_quantization->scale);
  82:../src/tensorflow_lite/tensorflow/lite/micro/kernels/cmsis_nn/depthwise_conv.cc ****     TF_LITE_ENSURE(context, affine_quantization->zero_point);
  83:../src/tensorflow_lite/tensorflow/lite/micro/kernels/cmsis_nn/depthwise_conv.cc ****     TF_LITE_ENSURE(
  84:../src/tensorflow_lite/tensorflow/lite/micro/kernels/cmsis_nn/depthwise_conv.cc ****         context, affine_quantization->scale->size == 1 ||
  85:../src/tensorflow_lite/tensorflow/lite/micro/kernels/cmsis_nn/depthwise_conv.cc ****                      affine_quantization->scale->size ==
  86:../src/tensorflow_lite/tensorflow/lite/micro/kernels/cmsis_nn/depthwise_conv.cc ****                          filter->dims->data[kDepthwiseConvQuantizedDimension]);
  87:../src/tensorflow_lite/tensorflow/lite/micro/kernels/cmsis_nn/depthwise_conv.cc ****     TF_LITE_ENSURE_EQ(context, affine_quantization->scale->size,
  88:../src/tensorflow_lite/tensorflow/lite/micro/kernels/cmsis_nn/depthwise_conv.cc ****                       affine_quantization->zero_point->size);
  89:../src/tensorflow_lite/tensorflow/lite/micro/kernels/cmsis_nn/depthwise_conv.cc ****   }
  90:../src/tensorflow_lite/tensorflow/lite/micro/kernels/cmsis_nn/depthwise_conv.cc **** 
  91:../src/tensorflow_lite/tensorflow/lite/micro/kernels/cmsis_nn/depthwise_conv.cc ****   // Allocate memory for per-channel quantization parameters
  92:../src/tensorflow_lite/tensorflow/lite/micro/kernels/cmsis_nn/depthwise_conv.cc ****   const int num_channels = filter->dims->data[kDepthwiseConvQuantizedDimension];
 143              		.loc 1 92 0
 144 0094 003000E3 		movw	r3, #:lower16:_ZN6tflite32kDepthwiseConvQuantizedDimensionE
 145 0098 24109DE5 		ldr	r1, [sp, #36]
 146 009c 003040E3 		movt	r3, #:upper16:_ZN6tflite32kDepthwiseConvQuantizedDimensionE
 147 00a0 08C097E5 		ldr	ip, [r7, #8]
 148 00a4 003093E5 		ldr	r3, [r3]
  93:../src/tensorflow_lite/tensorflow/lite/micro/kernels/cmsis_nn/depthwise_conv.cc **** 
  94:../src/tensorflow_lite/tensorflow/lite/micro/kernels/cmsis_nn/depthwise_conv.cc ****   data->reference_op_data.per_channel_output_multiplier =
  95:../src/tensorflow_lite/tensorflow/lite/micro/kernels/cmsis_nn/depthwise_conv.cc ****       reinterpret_cast<int32_t*>(context->AllocatePersistentBuffer(
 149              		.loc 1 95 0
 150 00a8 0400A0E1 		mov	r0, r4
 151 00ac 081091E5 		ldr	r1, [r1, #8]
 152              	.LBB455:
 153              	.LBB456:
 154              		.file 2 "C:/Renesas/e2studio_2021_01_workspace_RZA2M_ANPR/ANPR_RZA2M_GR_MANGO/src/tensorflow_lite/
   1:C:/Renesas/e2studio_2021_01_workspace_RZA2M_ANPR/ANPR_RZA2M_GR_MANGO/src/tensorflow_lite/tensorflow/lite/kernels\kernel_util.h **** /* Copyright 2017 The TensorFlow Authors. All Rights Reserved.
   2:C:/Renesas/e2studio_2021_01_workspace_RZA2M_ANPR/ANPR_RZA2M_GR_MANGO/src/tensorflow_lite/tensorflow/lite/kernels\kernel_util.h **** 
   3:C:/Renesas/e2studio_2021_01_workspace_RZA2M_ANPR/ANPR_RZA2M_GR_MANGO/src/tensorflow_lite/tensorflow/lite/kernels\kernel_util.h **** Licensed under the Apache License, Version 2.0 (the "License");
   4:C:/Renesas/e2studio_2021_01_workspace_RZA2M_ANPR/ANPR_RZA2M_GR_MANGO/src/tensorflow_lite/tensorflow/lite/kernels\kernel_util.h **** you may not use this file except in compliance with the License.
   5:C:/Renesas/e2studio_2021_01_workspace_RZA2M_ANPR/ANPR_RZA2M_GR_MANGO/src/tensorflow_lite/tensorflow/lite/kernels\kernel_util.h **** You may obtain a copy of the License at
   6:C:/Renesas/e2studio_2021_01_workspace_RZA2M_ANPR/ANPR_RZA2M_GR_MANGO/src/tensorflow_lite/tensorflow/lite/kernels\kernel_util.h **** 
   7:C:/Renesas/e2studio_2021_01_workspace_RZA2M_ANPR/ANPR_RZA2M_GR_MANGO/src/tensorflow_lite/tensorflow/lite/kernels\kernel_util.h ****     http://www.apache.org/licenses/LICENSE-2.0
   8:C:/Renesas/e2studio_2021_01_workspace_RZA2M_ANPR/ANPR_RZA2M_GR_MANGO/src/tensorflow_lite/tensorflow/lite/kernels\kernel_util.h **** 
   9:C:/Renesas/e2studio_2021_01_workspace_RZA2M_ANPR/ANPR_RZA2M_GR_MANGO/src/tensorflow_lite/tensorflow/lite/kernels\kernel_util.h **** Unless required by applicable law or agreed to in writing, software
  10:C:/Renesas/e2studio_2021_01_workspace_RZA2M_ANPR/ANPR_RZA2M_GR_MANGO/src/tensorflow_lite/tensorflow/lite/kernels\kernel_util.h **** distributed under the License is distributed on an "AS IS" BASIS,
  11:C:/Renesas/e2studio_2021_01_workspace_RZA2M_ANPR/ANPR_RZA2M_GR_MANGO/src/tensorflow_lite/tensorflow/lite/kernels\kernel_util.h **** WITHOUT WARRANTIES OR CONDITIONS OF ANY KIND, either express or implied.
  12:C:/Renesas/e2studio_2021_01_workspace_RZA2M_ANPR/ANPR_RZA2M_GR_MANGO/src/tensorflow_lite/tensorflow/lite/kernels\kernel_util.h **** See the License for the specific language governing permissions and
  13:C:/Renesas/e2studio_2021_01_workspace_RZA2M_ANPR/ANPR_RZA2M_GR_MANGO/src/tensorflow_lite/tensorflow/lite/kernels\kernel_util.h **** limitations under the License.
  14:C:/Renesas/e2studio_2021_01_workspace_RZA2M_ANPR/ANPR_RZA2M_GR_MANGO/src/tensorflow_lite/tensorflow/lite/kernels\kernel_util.h **** ==============================================================================*/
  15:C:/Renesas/e2studio_2021_01_workspace_RZA2M_ANPR/ANPR_RZA2M_GR_MANGO/src/tensorflow_lite/tensorflow/lite/kernels\kernel_util.h **** #ifndef TENSORFLOW_LITE_KERNELS_KERNEL_UTIL_H_
  16:C:/Renesas/e2studio_2021_01_workspace_RZA2M_ANPR/ANPR_RZA2M_GR_MANGO/src/tensorflow_lite/tensorflow/lite/kernels\kernel_util.h **** #define TENSORFLOW_LITE_KERNELS_KERNEL_UTIL_H_
  17:C:/Renesas/e2studio_2021_01_workspace_RZA2M_ANPR/ANPR_RZA2M_GR_MANGO/src/tensorflow_lite/tensorflow/lite/kernels\kernel_util.h **** 
  18:C:/Renesas/e2studio_2021_01_workspace_RZA2M_ANPR/ANPR_RZA2M_GR_MANGO/src/tensorflow_lite/tensorflow/lite/kernels\kernel_util.h **** #include <stdint.h>
  19:C:/Renesas/e2studio_2021_01_workspace_RZA2M_ANPR/ANPR_RZA2M_GR_MANGO/src/tensorflow_lite/tensorflow/lite/kernels\kernel_util.h **** 
  20:C:/Renesas/e2studio_2021_01_workspace_RZA2M_ANPR/ANPR_RZA2M_GR_MANGO/src/tensorflow_lite/tensorflow/lite/kernels\kernel_util.h **** #include <limits>
  21:C:/Renesas/e2studio_2021_01_workspace_RZA2M_ANPR/ANPR_RZA2M_GR_MANGO/src/tensorflow_lite/tensorflow/lite/kernels\kernel_util.h **** 
  22:C:/Renesas/e2studio_2021_01_workspace_RZA2M_ANPR/ANPR_RZA2M_GR_MANGO/src/tensorflow_lite/tensorflow/lite/kernels\kernel_util.h **** #include "tensorflow/lite/c/builtin_op_data.h"
  23:C:/Renesas/e2studio_2021_01_workspace_RZA2M_ANPR/ANPR_RZA2M_GR_MANGO/src/tensorflow_lite/tensorflow/lite/kernels\kernel_util.h **** #include "tensorflow/lite/c/common.h"
  24:C:/Renesas/e2studio_2021_01_workspace_RZA2M_ANPR/ANPR_RZA2M_GR_MANGO/src/tensorflow_lite/tensorflow/lite/kernels\kernel_util.h **** 
  25:C:/Renesas/e2studio_2021_01_workspace_RZA2M_ANPR/ANPR_RZA2M_GR_MANGO/src/tensorflow_lite/tensorflow/lite/kernels\kernel_util.h **** namespace tflite {
  26:C:/Renesas/e2studio_2021_01_workspace_RZA2M_ANPR/ANPR_RZA2M_GR_MANGO/src/tensorflow_lite/tensorflow/lite/kernels\kernel_util.h **** 
  27:C:/Renesas/e2studio_2021_01_workspace_RZA2M_ANPR/ANPR_RZA2M_GR_MANGO/src/tensorflow_lite/tensorflow/lite/kernels\kernel_util.h **** // A fair number of functions in this header have historically been inline.
  28:C:/Renesas/e2studio_2021_01_workspace_RZA2M_ANPR/ANPR_RZA2M_GR_MANGO/src/tensorflow_lite/tensorflow/lite/kernels\kernel_util.h **** // It is ok to change functions to not be inline if the latency with
  29:C:/Renesas/e2studio_2021_01_workspace_RZA2M_ANPR/ANPR_RZA2M_GR_MANGO/src/tensorflow_lite/tensorflow/lite/kernels\kernel_util.h **** // benchmark_model for MobileNet + MobileBERT is unaffected. If such a change is
  30:C:/Renesas/e2studio_2021_01_workspace_RZA2M_ANPR/ANPR_RZA2M_GR_MANGO/src/tensorflow_lite/tensorflow/lite/kernels\kernel_util.h **** // made, move the newly non-inlined function declarations to the top of this
  31:C:/Renesas/e2studio_2021_01_workspace_RZA2M_ANPR/ANPR_RZA2M_GR_MANGO/src/tensorflow_lite/tensorflow/lite/kernels\kernel_util.h **** // header file.
  32:C:/Renesas/e2studio_2021_01_workspace_RZA2M_ANPR/ANPR_RZA2M_GR_MANGO/src/tensorflow_lite/tensorflow/lite/kernels\kernel_util.h **** 
  33:C:/Renesas/e2studio_2021_01_workspace_RZA2M_ANPR/ANPR_RZA2M_GR_MANGO/src/tensorflow_lite/tensorflow/lite/kernels\kernel_util.h **** // Note: You must check if result is not null:
  34:C:/Renesas/e2studio_2021_01_workspace_RZA2M_ANPR/ANPR_RZA2M_GR_MANGO/src/tensorflow_lite/tensorflow/lite/kernels\kernel_util.h **** //
  35:C:/Renesas/e2studio_2021_01_workspace_RZA2M_ANPR/ANPR_RZA2M_GR_MANGO/src/tensorflow_lite/tensorflow/lite/kernels\kernel_util.h **** //   TfLiteTensor* my_tensor = GetInput(context, node, kMyTensorIdx);
  36:C:/Renesas/e2studio_2021_01_workspace_RZA2M_ANPR/ANPR_RZA2M_GR_MANGO/src/tensorflow_lite/tensorflow/lite/kernels\kernel_util.h **** //   TF_LITE_ENSURE(context, my_tensor != nullptr);
  37:C:/Renesas/e2studio_2021_01_workspace_RZA2M_ANPR/ANPR_RZA2M_GR_MANGO/src/tensorflow_lite/tensorflow/lite/kernels\kernel_util.h **** //
  38:C:/Renesas/e2studio_2021_01_workspace_RZA2M_ANPR/ANPR_RZA2M_GR_MANGO/src/tensorflow_lite/tensorflow/lite/kernels\kernel_util.h **** // This is because the index might point to the optional tensor constant
  39:C:/Renesas/e2studio_2021_01_workspace_RZA2M_ANPR/ANPR_RZA2M_GR_MANGO/src/tensorflow_lite/tensorflow/lite/kernels\kernel_util.h **** // (kTfLiteOptionalTensor) in which case there is no tensor to return.
  40:C:/Renesas/e2studio_2021_01_workspace_RZA2M_ANPR/ANPR_RZA2M_GR_MANGO/src/tensorflow_lite/tensorflow/lite/kernels\kernel_util.h **** const TfLiteTensor* GetInput(const TfLiteContext* context,
  41:C:/Renesas/e2studio_2021_01_workspace_RZA2M_ANPR/ANPR_RZA2M_GR_MANGO/src/tensorflow_lite/tensorflow/lite/kernels\kernel_util.h ****                              const TfLiteNode* node, int index);
  42:C:/Renesas/e2studio_2021_01_workspace_RZA2M_ANPR/ANPR_RZA2M_GR_MANGO/src/tensorflow_lite/tensorflow/lite/kernels\kernel_util.h **** 
  43:C:/Renesas/e2studio_2021_01_workspace_RZA2M_ANPR/ANPR_RZA2M_GR_MANGO/src/tensorflow_lite/tensorflow/lite/kernels\kernel_util.h **** // Same as `GetInput` but returns boolean and uses output argument for tensor.
  44:C:/Renesas/e2studio_2021_01_workspace_RZA2M_ANPR/ANPR_RZA2M_GR_MANGO/src/tensorflow_lite/tensorflow/lite/kernels\kernel_util.h **** //
  45:C:/Renesas/e2studio_2021_01_workspace_RZA2M_ANPR/ANPR_RZA2M_GR_MANGO/src/tensorflow_lite/tensorflow/lite/kernels\kernel_util.h **** //   TfLiteTensor* my_tensor;
  46:C:/Renesas/e2studio_2021_01_workspace_RZA2M_ANPR/ANPR_RZA2M_GR_MANGO/src/tensorflow_lite/tensorflow/lite/kernels\kernel_util.h **** //   TF_LITE_ENSURE_OK(context,
  47:C:/Renesas/e2studio_2021_01_workspace_RZA2M_ANPR/ANPR_RZA2M_GR_MANGO/src/tensorflow_lite/tensorflow/lite/kernels\kernel_util.h **** //                     GetInputSafe(context, node, kMyTensorIdx, &my_tensor));
  48:C:/Renesas/e2studio_2021_01_workspace_RZA2M_ANPR/ANPR_RZA2M_GR_MANGO/src/tensorflow_lite/tensorflow/lite/kernels\kernel_util.h **** //   // can use my_tensor directly from here onwards, it is not nullptr
  49:C:/Renesas/e2studio_2021_01_workspace_RZA2M_ANPR/ANPR_RZA2M_GR_MANGO/src/tensorflow_lite/tensorflow/lite/kernels\kernel_util.h **** //
  50:C:/Renesas/e2studio_2021_01_workspace_RZA2M_ANPR/ANPR_RZA2M_GR_MANGO/src/tensorflow_lite/tensorflow/lite/kernels\kernel_util.h **** // Should be used in cases where the binary size is too large.
  51:C:/Renesas/e2studio_2021_01_workspace_RZA2M_ANPR/ANPR_RZA2M_GR_MANGO/src/tensorflow_lite/tensorflow/lite/kernels\kernel_util.h **** TfLiteStatus GetInputSafe(const TfLiteContext* context, const TfLiteNode* node,
  52:C:/Renesas/e2studio_2021_01_workspace_RZA2M_ANPR/ANPR_RZA2M_GR_MANGO/src/tensorflow_lite/tensorflow/lite/kernels\kernel_util.h ****                           int index, const TfLiteTensor** tensor);
  53:C:/Renesas/e2studio_2021_01_workspace_RZA2M_ANPR/ANPR_RZA2M_GR_MANGO/src/tensorflow_lite/tensorflow/lite/kernels\kernel_util.h **** 
  54:C:/Renesas/e2studio_2021_01_workspace_RZA2M_ANPR/ANPR_RZA2M_GR_MANGO/src/tensorflow_lite/tensorflow/lite/kernels\kernel_util.h **** // Note: You must check if result is not null:
  55:C:/Renesas/e2studio_2021_01_workspace_RZA2M_ANPR/ANPR_RZA2M_GR_MANGO/src/tensorflow_lite/tensorflow/lite/kernels\kernel_util.h **** //
  56:C:/Renesas/e2studio_2021_01_workspace_RZA2M_ANPR/ANPR_RZA2M_GR_MANGO/src/tensorflow_lite/tensorflow/lite/kernels\kernel_util.h **** //   TfLiteTensor* my_tensor = GetVariableInput(context, node, kMyTensorIdx);
  57:C:/Renesas/e2studio_2021_01_workspace_RZA2M_ANPR/ANPR_RZA2M_GR_MANGO/src/tensorflow_lite/tensorflow/lite/kernels\kernel_util.h **** //   TF_LITE_ENSURE(context, my_tensor != nullptr);
  58:C:/Renesas/e2studio_2021_01_workspace_RZA2M_ANPR/ANPR_RZA2M_GR_MANGO/src/tensorflow_lite/tensorflow/lite/kernels\kernel_util.h **** //
  59:C:/Renesas/e2studio_2021_01_workspace_RZA2M_ANPR/ANPR_RZA2M_GR_MANGO/src/tensorflow_lite/tensorflow/lite/kernels\kernel_util.h **** // This is because the index might point to the optional tensor constant
  60:C:/Renesas/e2studio_2021_01_workspace_RZA2M_ANPR/ANPR_RZA2M_GR_MANGO/src/tensorflow_lite/tensorflow/lite/kernels\kernel_util.h **** // (kTfLiteOptionalTensor) in which case there is no tensor to return.
  61:C:/Renesas/e2studio_2021_01_workspace_RZA2M_ANPR/ANPR_RZA2M_GR_MANGO/src/tensorflow_lite/tensorflow/lite/kernels\kernel_util.h **** TfLiteTensor* GetVariableInput(TfLiteContext* context, const TfLiteNode* node,
  62:C:/Renesas/e2studio_2021_01_workspace_RZA2M_ANPR/ANPR_RZA2M_GR_MANGO/src/tensorflow_lite/tensorflow/lite/kernels\kernel_util.h ****                                int index);
  63:C:/Renesas/e2studio_2021_01_workspace_RZA2M_ANPR/ANPR_RZA2M_GR_MANGO/src/tensorflow_lite/tensorflow/lite/kernels\kernel_util.h **** 
  64:C:/Renesas/e2studio_2021_01_workspace_RZA2M_ANPR/ANPR_RZA2M_GR_MANGO/src/tensorflow_lite/tensorflow/lite/kernels\kernel_util.h **** // Note: You must check if result is not null:
  65:C:/Renesas/e2studio_2021_01_workspace_RZA2M_ANPR/ANPR_RZA2M_GR_MANGO/src/tensorflow_lite/tensorflow/lite/kernels\kernel_util.h **** //
  66:C:/Renesas/e2studio_2021_01_workspace_RZA2M_ANPR/ANPR_RZA2M_GR_MANGO/src/tensorflow_lite/tensorflow/lite/kernels\kernel_util.h **** //   TfLiteTensor* my_tensor = GetOutput(context, node, kMyTensorIdx);
  67:C:/Renesas/e2studio_2021_01_workspace_RZA2M_ANPR/ANPR_RZA2M_GR_MANGO/src/tensorflow_lite/tensorflow/lite/kernels\kernel_util.h **** //   TF_LITE_ENSURE(context, my_tensor != nullptr);
  68:C:/Renesas/e2studio_2021_01_workspace_RZA2M_ANPR/ANPR_RZA2M_GR_MANGO/src/tensorflow_lite/tensorflow/lite/kernels\kernel_util.h **** //
  69:C:/Renesas/e2studio_2021_01_workspace_RZA2M_ANPR/ANPR_RZA2M_GR_MANGO/src/tensorflow_lite/tensorflow/lite/kernels\kernel_util.h **** // This is because the index might point to the optional tensor constant
  70:C:/Renesas/e2studio_2021_01_workspace_RZA2M_ANPR/ANPR_RZA2M_GR_MANGO/src/tensorflow_lite/tensorflow/lite/kernels\kernel_util.h **** // (kTfLiteOptionalTensor) in which case there is no tensor to return.
  71:C:/Renesas/e2studio_2021_01_workspace_RZA2M_ANPR/ANPR_RZA2M_GR_MANGO/src/tensorflow_lite/tensorflow/lite/kernels\kernel_util.h **** TfLiteTensor* GetOutput(TfLiteContext* context, const TfLiteNode* node,
  72:C:/Renesas/e2studio_2021_01_workspace_RZA2M_ANPR/ANPR_RZA2M_GR_MANGO/src/tensorflow_lite/tensorflow/lite/kernels\kernel_util.h ****                         int index);
  73:C:/Renesas/e2studio_2021_01_workspace_RZA2M_ANPR/ANPR_RZA2M_GR_MANGO/src/tensorflow_lite/tensorflow/lite/kernels\kernel_util.h **** 
  74:C:/Renesas/e2studio_2021_01_workspace_RZA2M_ANPR/ANPR_RZA2M_GR_MANGO/src/tensorflow_lite/tensorflow/lite/kernels\kernel_util.h **** // Same as `GetOutput` but returns boolean and uses output argument for tensor.
  75:C:/Renesas/e2studio_2021_01_workspace_RZA2M_ANPR/ANPR_RZA2M_GR_MANGO/src/tensorflow_lite/tensorflow/lite/kernels\kernel_util.h **** //
  76:C:/Renesas/e2studio_2021_01_workspace_RZA2M_ANPR/ANPR_RZA2M_GR_MANGO/src/tensorflow_lite/tensorflow/lite/kernels\kernel_util.h **** //   TfLiteTensor* my_tensor;
  77:C:/Renesas/e2studio_2021_01_workspace_RZA2M_ANPR/ANPR_RZA2M_GR_MANGO/src/tensorflow_lite/tensorflow/lite/kernels\kernel_util.h **** //   TF_LITE_ENSURE_OK(context,
  78:C:/Renesas/e2studio_2021_01_workspace_RZA2M_ANPR/ANPR_RZA2M_GR_MANGO/src/tensorflow_lite/tensorflow/lite/kernels\kernel_util.h **** //                     GetOutputSafe(context, node, kMyTensorIdx, &my_tensor));
  79:C:/Renesas/e2studio_2021_01_workspace_RZA2M_ANPR/ANPR_RZA2M_GR_MANGO/src/tensorflow_lite/tensorflow/lite/kernels\kernel_util.h **** //   // can use my_tensor directly from here onwards, it is not nullptr
  80:C:/Renesas/e2studio_2021_01_workspace_RZA2M_ANPR/ANPR_RZA2M_GR_MANGO/src/tensorflow_lite/tensorflow/lite/kernels\kernel_util.h **** //
  81:C:/Renesas/e2studio_2021_01_workspace_RZA2M_ANPR/ANPR_RZA2M_GR_MANGO/src/tensorflow_lite/tensorflow/lite/kernels\kernel_util.h **** // Should be used in cases where the binary size is too large.
  82:C:/Renesas/e2studio_2021_01_workspace_RZA2M_ANPR/ANPR_RZA2M_GR_MANGO/src/tensorflow_lite/tensorflow/lite/kernels\kernel_util.h **** TfLiteStatus GetOutputSafe(const TfLiteContext* context, const TfLiteNode* node,
  83:C:/Renesas/e2studio_2021_01_workspace_RZA2M_ANPR/ANPR_RZA2M_GR_MANGO/src/tensorflow_lite/tensorflow/lite/kernels\kernel_util.h ****                            int index, TfLiteTensor** tensor);
  84:C:/Renesas/e2studio_2021_01_workspace_RZA2M_ANPR/ANPR_RZA2M_GR_MANGO/src/tensorflow_lite/tensorflow/lite/kernels\kernel_util.h **** 
  85:C:/Renesas/e2studio_2021_01_workspace_RZA2M_ANPR/ANPR_RZA2M_GR_MANGO/src/tensorflow_lite/tensorflow/lite/kernels\kernel_util.h **** // Note: You must check if result is not null:
  86:C:/Renesas/e2studio_2021_01_workspace_RZA2M_ANPR/ANPR_RZA2M_GR_MANGO/src/tensorflow_lite/tensorflow/lite/kernels\kernel_util.h **** //
  87:C:/Renesas/e2studio_2021_01_workspace_RZA2M_ANPR/ANPR_RZA2M_GR_MANGO/src/tensorflow_lite/tensorflow/lite/kernels\kernel_util.h **** //   TfLiteTensor* my_tensor = GetOptionalInputTensor(context, node, kIdx);
  88:C:/Renesas/e2studio_2021_01_workspace_RZA2M_ANPR/ANPR_RZA2M_GR_MANGO/src/tensorflow_lite/tensorflow/lite/kernels\kernel_util.h **** //   TF_LITE_ENSURE(context, my_tensor != nullptr);
  89:C:/Renesas/e2studio_2021_01_workspace_RZA2M_ANPR/ANPR_RZA2M_GR_MANGO/src/tensorflow_lite/tensorflow/lite/kernels\kernel_util.h **** //
  90:C:/Renesas/e2studio_2021_01_workspace_RZA2M_ANPR/ANPR_RZA2M_GR_MANGO/src/tensorflow_lite/tensorflow/lite/kernels\kernel_util.h **** // This is because the index might point to the optional tensor constant
  91:C:/Renesas/e2studio_2021_01_workspace_RZA2M_ANPR/ANPR_RZA2M_GR_MANGO/src/tensorflow_lite/tensorflow/lite/kernels\kernel_util.h **** // (kTfLiteOptionalTensor) in which case there is no tensor to return.
  92:C:/Renesas/e2studio_2021_01_workspace_RZA2M_ANPR/ANPR_RZA2M_GR_MANGO/src/tensorflow_lite/tensorflow/lite/kernels\kernel_util.h **** //
  93:C:/Renesas/e2studio_2021_01_workspace_RZA2M_ANPR/ANPR_RZA2M_GR_MANGO/src/tensorflow_lite/tensorflow/lite/kernels\kernel_util.h **** // Deprecated. GetInput has the same functionality.
  94:C:/Renesas/e2studio_2021_01_workspace_RZA2M_ANPR/ANPR_RZA2M_GR_MANGO/src/tensorflow_lite/tensorflow/lite/kernels\kernel_util.h **** const TfLiteTensor* GetOptionalInputTensor(const TfLiteContext* context,
  95:C:/Renesas/e2studio_2021_01_workspace_RZA2M_ANPR/ANPR_RZA2M_GR_MANGO/src/tensorflow_lite/tensorflow/lite/kernels\kernel_util.h ****                                            const TfLiteNode* node, int index);
  96:C:/Renesas/e2studio_2021_01_workspace_RZA2M_ANPR/ANPR_RZA2M_GR_MANGO/src/tensorflow_lite/tensorflow/lite/kernels\kernel_util.h **** 
  97:C:/Renesas/e2studio_2021_01_workspace_RZA2M_ANPR/ANPR_RZA2M_GR_MANGO/src/tensorflow_lite/tensorflow/lite/kernels\kernel_util.h **** #ifndef TF_LITE_STATIC_MEMORY
  98:C:/Renesas/e2studio_2021_01_workspace_RZA2M_ANPR/ANPR_RZA2M_GR_MANGO/src/tensorflow_lite/tensorflow/lite/kernels\kernel_util.h **** // Note: You must check if result is not null:
  99:C:/Renesas/e2studio_2021_01_workspace_RZA2M_ANPR/ANPR_RZA2M_GR_MANGO/src/tensorflow_lite/tensorflow/lite/kernels\kernel_util.h **** //
 100:C:/Renesas/e2studio_2021_01_workspace_RZA2M_ANPR/ANPR_RZA2M_GR_MANGO/src/tensorflow_lite/tensorflow/lite/kernels\kernel_util.h **** //   TfLiteTensor* my_tensor = GetTemporary(context, node, kMyTensorIdx);
 101:C:/Renesas/e2studio_2021_01_workspace_RZA2M_ANPR/ANPR_RZA2M_GR_MANGO/src/tensorflow_lite/tensorflow/lite/kernels\kernel_util.h **** //   TF_LITE_ENSURE(context, my_tensor != nullptr);
 102:C:/Renesas/e2studio_2021_01_workspace_RZA2M_ANPR/ANPR_RZA2M_GR_MANGO/src/tensorflow_lite/tensorflow/lite/kernels\kernel_util.h **** //
 103:C:/Renesas/e2studio_2021_01_workspace_RZA2M_ANPR/ANPR_RZA2M_GR_MANGO/src/tensorflow_lite/tensorflow/lite/kernels\kernel_util.h **** // This is because the index might point to the optional tensor constant
 104:C:/Renesas/e2studio_2021_01_workspace_RZA2M_ANPR/ANPR_RZA2M_GR_MANGO/src/tensorflow_lite/tensorflow/lite/kernels\kernel_util.h **** // (kTfLiteOptionalTensor) in which case there is no tensor to return.
 105:C:/Renesas/e2studio_2021_01_workspace_RZA2M_ANPR/ANPR_RZA2M_GR_MANGO/src/tensorflow_lite/tensorflow/lite/kernels\kernel_util.h **** TfLiteTensor* GetTemporary(TfLiteContext* context, const TfLiteNode* node,
 106:C:/Renesas/e2studio_2021_01_workspace_RZA2M_ANPR/ANPR_RZA2M_GR_MANGO/src/tensorflow_lite/tensorflow/lite/kernels\kernel_util.h ****                            int index);
 107:C:/Renesas/e2studio_2021_01_workspace_RZA2M_ANPR/ANPR_RZA2M_GR_MANGO/src/tensorflow_lite/tensorflow/lite/kernels\kernel_util.h **** 
 108:C:/Renesas/e2studio_2021_01_workspace_RZA2M_ANPR/ANPR_RZA2M_GR_MANGO/src/tensorflow_lite/tensorflow/lite/kernels\kernel_util.h **** // Same as `GetTemporary` but returns boolean and uses output argument for
 109:C:/Renesas/e2studio_2021_01_workspace_RZA2M_ANPR/ANPR_RZA2M_GR_MANGO/src/tensorflow_lite/tensorflow/lite/kernels\kernel_util.h **** // tensor.
 110:C:/Renesas/e2studio_2021_01_workspace_RZA2M_ANPR/ANPR_RZA2M_GR_MANGO/src/tensorflow_lite/tensorflow/lite/kernels\kernel_util.h **** //
 111:C:/Renesas/e2studio_2021_01_workspace_RZA2M_ANPR/ANPR_RZA2M_GR_MANGO/src/tensorflow_lite/tensorflow/lite/kernels\kernel_util.h **** //   TfLiteTensor* my_tensor;
 112:C:/Renesas/e2studio_2021_01_workspace_RZA2M_ANPR/ANPR_RZA2M_GR_MANGO/src/tensorflow_lite/tensorflow/lite/kernels\kernel_util.h **** //   TF_LITE_ENSURE_OK(context,
 113:C:/Renesas/e2studio_2021_01_workspace_RZA2M_ANPR/ANPR_RZA2M_GR_MANGO/src/tensorflow_lite/tensorflow/lite/kernels\kernel_util.h **** //                     GetTemporarySafe(context, node, kMyTensorIdx,
 114:C:/Renesas/e2studio_2021_01_workspace_RZA2M_ANPR/ANPR_RZA2M_GR_MANGO/src/tensorflow_lite/tensorflow/lite/kernels\kernel_util.h **** //                     &my_tensor));
 115:C:/Renesas/e2studio_2021_01_workspace_RZA2M_ANPR/ANPR_RZA2M_GR_MANGO/src/tensorflow_lite/tensorflow/lite/kernels\kernel_util.h **** //   // can use my_tensor directly from here onwards, it is not nullptr
 116:C:/Renesas/e2studio_2021_01_workspace_RZA2M_ANPR/ANPR_RZA2M_GR_MANGO/src/tensorflow_lite/tensorflow/lite/kernels\kernel_util.h **** //
 117:C:/Renesas/e2studio_2021_01_workspace_RZA2M_ANPR/ANPR_RZA2M_GR_MANGO/src/tensorflow_lite/tensorflow/lite/kernels\kernel_util.h **** // Should be used in cases where the binary size is too large.
 118:C:/Renesas/e2studio_2021_01_workspace_RZA2M_ANPR/ANPR_RZA2M_GR_MANGO/src/tensorflow_lite/tensorflow/lite/kernels\kernel_util.h **** TfLiteStatus GetTemporarySafe(const TfLiteContext* context,
 119:C:/Renesas/e2studio_2021_01_workspace_RZA2M_ANPR/ANPR_RZA2M_GR_MANGO/src/tensorflow_lite/tensorflow/lite/kernels\kernel_util.h ****                               const TfLiteNode* node, int index,
 120:C:/Renesas/e2studio_2021_01_workspace_RZA2M_ANPR/ANPR_RZA2M_GR_MANGO/src/tensorflow_lite/tensorflow/lite/kernels\kernel_util.h ****                               TfLiteTensor** tensor);
 121:C:/Renesas/e2studio_2021_01_workspace_RZA2M_ANPR/ANPR_RZA2M_GR_MANGO/src/tensorflow_lite/tensorflow/lite/kernels\kernel_util.h **** 
 122:C:/Renesas/e2studio_2021_01_workspace_RZA2M_ANPR/ANPR_RZA2M_GR_MANGO/src/tensorflow_lite/tensorflow/lite/kernels\kernel_util.h **** // Note: You must check if result is not null:
 123:C:/Renesas/e2studio_2021_01_workspace_RZA2M_ANPR/ANPR_RZA2M_GR_MANGO/src/tensorflow_lite/tensorflow/lite/kernels\kernel_util.h **** //
 124:C:/Renesas/e2studio_2021_01_workspace_RZA2M_ANPR/ANPR_RZA2M_GR_MANGO/src/tensorflow_lite/tensorflow/lite/kernels\kernel_util.h **** //   TfLiteTensor* my_tensor = GetIntermediates(context, node, kMyTensorIdx);
 125:C:/Renesas/e2studio_2021_01_workspace_RZA2M_ANPR/ANPR_RZA2M_GR_MANGO/src/tensorflow_lite/tensorflow/lite/kernels\kernel_util.h **** //   TF_LITE_ENSURE(context, my_tensor != nullptr);
 126:C:/Renesas/e2studio_2021_01_workspace_RZA2M_ANPR/ANPR_RZA2M_GR_MANGO/src/tensorflow_lite/tensorflow/lite/kernels\kernel_util.h **** //
 127:C:/Renesas/e2studio_2021_01_workspace_RZA2M_ANPR/ANPR_RZA2M_GR_MANGO/src/tensorflow_lite/tensorflow/lite/kernels\kernel_util.h **** // This is because the index might point to the optional tensor constant
 128:C:/Renesas/e2studio_2021_01_workspace_RZA2M_ANPR/ANPR_RZA2M_GR_MANGO/src/tensorflow_lite/tensorflow/lite/kernels\kernel_util.h **** // (kTfLiteOptionalTensor) in which case there is no tensor to return.
 129:C:/Renesas/e2studio_2021_01_workspace_RZA2M_ANPR/ANPR_RZA2M_GR_MANGO/src/tensorflow_lite/tensorflow/lite/kernels\kernel_util.h **** const TfLiteTensor* GetIntermediates(TfLiteContext* context,
 130:C:/Renesas/e2studio_2021_01_workspace_RZA2M_ANPR/ANPR_RZA2M_GR_MANGO/src/tensorflow_lite/tensorflow/lite/kernels\kernel_util.h ****                                      const TfLiteNode* node, int index);
 131:C:/Renesas/e2studio_2021_01_workspace_RZA2M_ANPR/ANPR_RZA2M_GR_MANGO/src/tensorflow_lite/tensorflow/lite/kernels\kernel_util.h **** 
 132:C:/Renesas/e2studio_2021_01_workspace_RZA2M_ANPR/ANPR_RZA2M_GR_MANGO/src/tensorflow_lite/tensorflow/lite/kernels\kernel_util.h **** // Same as `GetIntermediates` but returns boolean and uses output argument for
 133:C:/Renesas/e2studio_2021_01_workspace_RZA2M_ANPR/ANPR_RZA2M_GR_MANGO/src/tensorflow_lite/tensorflow/lite/kernels\kernel_util.h **** // tensor.
 134:C:/Renesas/e2studio_2021_01_workspace_RZA2M_ANPR/ANPR_RZA2M_GR_MANGO/src/tensorflow_lite/tensorflow/lite/kernels\kernel_util.h **** //
 135:C:/Renesas/e2studio_2021_01_workspace_RZA2M_ANPR/ANPR_RZA2M_GR_MANGO/src/tensorflow_lite/tensorflow/lite/kernels\kernel_util.h **** //   TfLiteTensor* my_tensor;
 136:C:/Renesas/e2studio_2021_01_workspace_RZA2M_ANPR/ANPR_RZA2M_GR_MANGO/src/tensorflow_lite/tensorflow/lite/kernels\kernel_util.h **** //   TF_LITE_ENSURE_OK(context,
 137:C:/Renesas/e2studio_2021_01_workspace_RZA2M_ANPR/ANPR_RZA2M_GR_MANGO/src/tensorflow_lite/tensorflow/lite/kernels\kernel_util.h **** //                     GetIntermediatesSafe(context, node, kMyTensorIdx,
 138:C:/Renesas/e2studio_2021_01_workspace_RZA2M_ANPR/ANPR_RZA2M_GR_MANGO/src/tensorflow_lite/tensorflow/lite/kernels\kernel_util.h **** //                     &my_tensor));
 139:C:/Renesas/e2studio_2021_01_workspace_RZA2M_ANPR/ANPR_RZA2M_GR_MANGO/src/tensorflow_lite/tensorflow/lite/kernels\kernel_util.h **** //   // can use my_tensor directly from here onwards, it is not nullptr
 140:C:/Renesas/e2studio_2021_01_workspace_RZA2M_ANPR/ANPR_RZA2M_GR_MANGO/src/tensorflow_lite/tensorflow/lite/kernels\kernel_util.h **** //
 141:C:/Renesas/e2studio_2021_01_workspace_RZA2M_ANPR/ANPR_RZA2M_GR_MANGO/src/tensorflow_lite/tensorflow/lite/kernels\kernel_util.h **** // Should be used in cases where the binary size is too large.
 142:C:/Renesas/e2studio_2021_01_workspace_RZA2M_ANPR/ANPR_RZA2M_GR_MANGO/src/tensorflow_lite/tensorflow/lite/kernels\kernel_util.h **** TfLiteStatus GetIntermediatesSafe(const TfLiteContext* context,
 143:C:/Renesas/e2studio_2021_01_workspace_RZA2M_ANPR/ANPR_RZA2M_GR_MANGO/src/tensorflow_lite/tensorflow/lite/kernels\kernel_util.h ****                                   const TfLiteNode* node, int index,
 144:C:/Renesas/e2studio_2021_01_workspace_RZA2M_ANPR/ANPR_RZA2M_GR_MANGO/src/tensorflow_lite/tensorflow/lite/kernels\kernel_util.h ****                                   TfLiteTensor** tensor);
 145:C:/Renesas/e2studio_2021_01_workspace_RZA2M_ANPR/ANPR_RZA2M_GR_MANGO/src/tensorflow_lite/tensorflow/lite/kernels\kernel_util.h **** #endif  // TF_LITE_STATIC_MEMORY
 146:C:/Renesas/e2studio_2021_01_workspace_RZA2M_ANPR/ANPR_RZA2M_GR_MANGO/src/tensorflow_lite/tensorflow/lite/kernels\kernel_util.h **** 
 147:C:/Renesas/e2studio_2021_01_workspace_RZA2M_ANPR/ANPR_RZA2M_GR_MANGO/src/tensorflow_lite/tensorflow/lite/kernels\kernel_util.h **** inline int NumDimensions(const TfLiteTensor* t) { return t->dims->size; }
 148:C:/Renesas/e2studio_2021_01_workspace_RZA2M_ANPR/ANPR_RZA2M_GR_MANGO/src/tensorflow_lite/tensorflow/lite/kernels\kernel_util.h **** inline int SizeOfDimension(const TfLiteTensor* t, int dim) {
 149:C:/Renesas/e2studio_2021_01_workspace_RZA2M_ANPR/ANPR_RZA2M_GR_MANGO/src/tensorflow_lite/tensorflow/lite/kernels\kernel_util.h ****   return t->dims->data[dim];
 155              		.loc 2 149 0
 156 00b0 0CE09CE5 		ldr	lr, [ip, #12]
 157              	.LBE456:
 158              	.LBE455:
 159              	.LBB458:
 160              	.LBB459:
 161 00b4 08C09CE5 		ldr	ip, [ip, #8]
 162              	.LBE459:
 163              	.LBE458:
  92:../src/tensorflow_lite/tensorflow/lite/micro/kernels/cmsis_nn/depthwise_conv.cc **** 
 164              		.loc 1 92 0
 165 00b8 033182E0 		add	r3, r2, r3, lsl #2
 166              	.LBB461:
 167              	.LBB462:
 168              		.loc 2 149 0
 169 00bc 0CB091E5 		ldr	fp, [r1, #12]
 170              	.LBE462:
 171              	.LBE461:
 172              	.LBB464:
 173              	.LBB465:
 174 00c0 081091E5 		ldr	r1, [r1, #8]
 175              	.LBE465:
 176              	.LBE464:
 177              		.loc 1 95 0
 178 00c4 043093E5 		ldr	r3, [r3, #4]
 179              	.LBB467:
 180              	.LBB463:
 181              		.loc 2 149 0
 182 00c8 2CB08DE5 		str	fp, [sp, #44]
 183              	.LBE463:
 184              	.LBE467:
 185              	.LBB468:
 186              	.LBB466:
 187 00cc 30108DE5 		str	r1, [sp, #48]
 188              	.LBE466:
 189              	.LBE468:
 190              	.LBB469:
 191              	.LBB470:
 192 00d0 0C1092E5 		ldr	r1, [r2, #12]
 193              	.LBE470:
 194              	.LBE469:
 195              		.loc 1 95 0
 196 00d4 0331A0E1 		lsl	r3, r3, #2
 197              	.LBB472:
 198              	.LBB473:
 199              		.loc 2 149 0
 200 00d8 08B092E5 		ldr	fp, [r2, #8]
 201              	.LBE473:
 202              	.LBE472:
 203              		.loc 1 95 0
 204 00dc 382094E5 		ldr	r2, [r4, #56]
 205              	.LVL14:
 206              	.LBB474:
 207              	.LBB471:
 208              		.loc 2 149 0
 209 00e0 28108DE5 		str	r1, [sp, #40]
 210              	.LBE471:
 211              	.LBE474:
 212              		.loc 1 95 0
 213 00e4 0310A0E1 		mov	r1, r3
 214              	.LBB475:
 215              	.LBB457:
 216              		.loc 2 149 0
 217 00e8 38E08DE5 		str	lr, [sp, #56]
 218              	.LBE457:
 219              	.LBE475:
 220              	.LBB476:
 221              	.LBB460:
 222 00ec 34C08DE5 		str	ip, [sp, #52]
 223              	.LBE460:
 224              	.LBE476:
 225              		.loc 1 95 0
 226 00f0 3C308DE5 		str	r3, [sp, #60]
 227 00f4 32FF2FE1 		blx	r2
 228              	.LVL15:
  96:../src/tensorflow_lite/tensorflow/lite/micro/kernels/cmsis_nn/depthwise_conv.cc ****           context, num_channels * sizeof(int32_t)));
  97:../src/tensorflow_lite/tensorflow/lite/micro/kernels/cmsis_nn/depthwise_conv.cc ****   data->reference_op_data.per_channel_output_shift =
  98:../src/tensorflow_lite/tensorflow/lite/micro/kernels/cmsis_nn/depthwise_conv.cc ****       reinterpret_cast<int32_t*>(context->AllocatePersistentBuffer(
 229              		.loc 1 98 0
 230 00f8 3C309DE5 		ldr	r3, [sp, #60]
  94:../src/tensorflow_lite/tensorflow/lite/micro/kernels/cmsis_nn/depthwise_conv.cc ****       reinterpret_cast<int32_t*>(context->AllocatePersistentBuffer(
 231              		.loc 1 94 0
 232 00fc 240086E5 		str	r0, [r6, #36]
 233              		.loc 1 98 0
 234 0100 0400A0E1 		mov	r0, r4
 235 0104 0310A0E1 		mov	r1, r3
 236 0108 383094E5 		ldr	r3, [r4, #56]
 237 010c 33FF2FE1 		blx	r3
 238              	.LVL16:
 239              	.LBB477:
  99:../src/tensorflow_lite/tensorflow/lite/micro/kernels/cmsis_nn/depthwise_conv.cc ****           context, num_channels * sizeof(int32_t)));
 100:../src/tensorflow_lite/tensorflow/lite/micro/kernels/cmsis_nn/depthwise_conv.cc **** 
 101:../src/tensorflow_lite/tensorflow/lite/micro/kernels/cmsis_nn/depthwise_conv.cc ****   TF_LITE_ENSURE_STATUS(CalculateOpDataDepthwiseConv(
 240              		.loc 1 101 0
 241 0110 34C09DE5 		ldr	ip, [sp, #52]
 242 0114 0510A0E1 		mov	r1, r5
 243              	.LBE477:
  97:../src/tensorflow_lite/tensorflow/lite/micro/kernels/cmsis_nn/depthwise_conv.cc ****       reinterpret_cast<int32_t*>(context->AllocatePersistentBuffer(
 244              		.loc 1 97 0
 245 0118 280086E5 		str	r0, [r6, #40]
 246              	.LBB478:
 247              		.loc 1 101 0
 248 011c 0820A0E1 		mov	r2, r8
 249 0120 2C009DE5 		ldr	r0, [sp, #44]
 250 0124 30509DE5 		ldr	r5, [sp, #48]
 251              	.LVL17:
 252 0128 00C08DE5 		str	ip, [sp]
 253 012c 28C09DE5 		ldr	ip, [sp, #40]
 254 0130 0C008DE5 		str	r0, [sp, #12]
 255 0134 0400A0E1 		mov	r0, r4
 256 0138 10508DE5 		str	r5, [sp, #16]
 257 013c 38309DE5 		ldr	r3, [sp, #56]
 258 0140 08B08DE5 		str	fp, [sp, #8]
 259 0144 04C08DE5 		str	ip, [sp, #4]
 260 0148 18608DE5 		str	r6, [sp, #24]
 261 014c 14A08DE5 		str	r10, [sp, #20]
 262 0150 FEFFFFEB 		bl	_ZN6tflite28CalculateOpDataDepthwiseConvEP13TfLiteContextP10TfLiteNodeRK25TfLiteDepthwiseConvPa
 263              	.LVL18:
 264 0154 000050E3 		cmp	r0, #0
 265              	.LVL19:
 266 0158 0200001A 		bne	.L68
 267              	.LBE478:
 268              	.LBB479:
 102:../src/tensorflow_lite/tensorflow/lite/micro/kernels/cmsis_nn/depthwise_conv.cc ****       context, node, params, input_width, input_height, filter_width,
 103:../src/tensorflow_lite/tensorflow/lite/micro/kernels/cmsis_nn/depthwise_conv.cc ****       filter_height, output_width, output_height, data_type,
 104:../src/tensorflow_lite/tensorflow/lite/micro/kernels/cmsis_nn/depthwise_conv.cc ****       &data->reference_op_data));
 105:../src/tensorflow_lite/tensorflow/lite/micro/kernels/cmsis_nn/depthwise_conv.cc **** 
 106:../src/tensorflow_lite/tensorflow/lite/micro/kernels/cmsis_nn/depthwise_conv.cc ****   if (input->type == kTfLiteInt8) {
 269              		.loc 1 106 0
 270 015c 0030D7E5 		ldrb	r3, [r7]	@ zero_extendqisi2
 271 0160 090053E3 		cmp	r3, #9
 272 0164 5A00000A 		beq	.L76
 273              	.LVL20:
 274              	.L68:
 275              	.LBE479:
 107:../src/tensorflow_lite/tensorflow/lite/micro/kernels/cmsis_nn/depthwise_conv.cc ****     RuntimeShape input_shape = GetTensorShape(input);
 108:../src/tensorflow_lite/tensorflow/lite/micro/kernels/cmsis_nn/depthwise_conv.cc ****     RuntimeShape output_shape = GetTensorShape(output);
 109:../src/tensorflow_lite/tensorflow/lite/micro/kernels/cmsis_nn/depthwise_conv.cc ****     RuntimeShape filter_shape = GetTensorShape(filter);
 110:../src/tensorflow_lite/tensorflow/lite/micro/kernels/cmsis_nn/depthwise_conv.cc ****     TFLITE_DCHECK_EQ(input_shape.DimensionsCount(), 4);
 111:../src/tensorflow_lite/tensorflow/lite/micro/kernels/cmsis_nn/depthwise_conv.cc ****     TFLITE_DCHECK_EQ(filter_shape.DimensionsCount(), 4);
 112:../src/tensorflow_lite/tensorflow/lite/micro/kernels/cmsis_nn/depthwise_conv.cc ****     TFLITE_DCHECK_EQ(output_shape.DimensionsCount(), 4);
 113:../src/tensorflow_lite/tensorflow/lite/micro/kernels/cmsis_nn/depthwise_conv.cc **** 
 114:../src/tensorflow_lite/tensorflow/lite/micro/kernels/cmsis_nn/depthwise_conv.cc ****     const int batch_size = MatchingDim(input_shape, 0, output_shape, 0);
 115:../src/tensorflow_lite/tensorflow/lite/micro/kernels/cmsis_nn/depthwise_conv.cc ****     const int output_depth = MatchingDim(output_shape, 3, filter_shape, 3);
 116:../src/tensorflow_lite/tensorflow/lite/micro/kernels/cmsis_nn/depthwise_conv.cc ****     TFLITE_DCHECK_EQ(batch_size, 1); /* Only batch = 1 is supported */
 117:../src/tensorflow_lite/tensorflow/lite/micro/kernels/cmsis_nn/depthwise_conv.cc **** 
 118:../src/tensorflow_lite/tensorflow/lite/micro/kernels/cmsis_nn/depthwise_conv.cc ****     cmsis_nn_dims input_dims;
 119:../src/tensorflow_lite/tensorflow/lite/micro/kernels/cmsis_nn/depthwise_conv.cc ****     input_dims.n = batch_size;
 120:../src/tensorflow_lite/tensorflow/lite/micro/kernels/cmsis_nn/depthwise_conv.cc ****     input_dims.h = input_height;
 121:../src/tensorflow_lite/tensorflow/lite/micro/kernels/cmsis_nn/depthwise_conv.cc ****     input_dims.w = input_width;
 122:../src/tensorflow_lite/tensorflow/lite/micro/kernels/cmsis_nn/depthwise_conv.cc ****     input_dims.c = input_shape.Dims(3);
 123:../src/tensorflow_lite/tensorflow/lite/micro/kernels/cmsis_nn/depthwise_conv.cc **** 
 124:../src/tensorflow_lite/tensorflow/lite/micro/kernels/cmsis_nn/depthwise_conv.cc ****     cmsis_nn_dims filter_dims;
 125:../src/tensorflow_lite/tensorflow/lite/micro/kernels/cmsis_nn/depthwise_conv.cc ****     filter_dims.n = 1;
 126:../src/tensorflow_lite/tensorflow/lite/micro/kernels/cmsis_nn/depthwise_conv.cc ****     filter_dims.h = filter_height;
 127:../src/tensorflow_lite/tensorflow/lite/micro/kernels/cmsis_nn/depthwise_conv.cc ****     filter_dims.w = filter_width;
 128:../src/tensorflow_lite/tensorflow/lite/micro/kernels/cmsis_nn/depthwise_conv.cc ****     filter_dims.c = output_depth;
 129:../src/tensorflow_lite/tensorflow/lite/micro/kernels/cmsis_nn/depthwise_conv.cc **** 
 130:../src/tensorflow_lite/tensorflow/lite/micro/kernels/cmsis_nn/depthwise_conv.cc ****     cmsis_nn_dims output_dims;
 131:../src/tensorflow_lite/tensorflow/lite/micro/kernels/cmsis_nn/depthwise_conv.cc ****     output_dims.n = batch_size;
 132:../src/tensorflow_lite/tensorflow/lite/micro/kernels/cmsis_nn/depthwise_conv.cc ****     output_dims.h = output_height;
 133:../src/tensorflow_lite/tensorflow/lite/micro/kernels/cmsis_nn/depthwise_conv.cc ****     output_dims.w = output_width;
 134:../src/tensorflow_lite/tensorflow/lite/micro/kernels/cmsis_nn/depthwise_conv.cc ****     output_dims.c = output_depth;
 135:../src/tensorflow_lite/tensorflow/lite/micro/kernels/cmsis_nn/depthwise_conv.cc **** 
 136:../src/tensorflow_lite/tensorflow/lite/micro/kernels/cmsis_nn/depthwise_conv.cc ****     cmsis_nn_dw_conv_params dw_conv_params;
 137:../src/tensorflow_lite/tensorflow/lite/micro/kernels/cmsis_nn/depthwise_conv.cc ****     dw_conv_params.padding.h = data->reference_op_data.padding.height;
 138:../src/tensorflow_lite/tensorflow/lite/micro/kernels/cmsis_nn/depthwise_conv.cc ****     dw_conv_params.padding.w = data->reference_op_data.padding.width;
 139:../src/tensorflow_lite/tensorflow/lite/micro/kernels/cmsis_nn/depthwise_conv.cc **** 
 140:../src/tensorflow_lite/tensorflow/lite/micro/kernels/cmsis_nn/depthwise_conv.cc ****     const int32_t buf_size = arm_depthwise_conv_wrapper_s8_get_buffer_size(
 141:../src/tensorflow_lite/tensorflow/lite/micro/kernels/cmsis_nn/depthwise_conv.cc ****         &dw_conv_params, &input_dims, &filter_dims, &output_dims);
 142:../src/tensorflow_lite/tensorflow/lite/micro/kernels/cmsis_nn/depthwise_conv.cc **** 
 143:../src/tensorflow_lite/tensorflow/lite/micro/kernels/cmsis_nn/depthwise_conv.cc ****     if (buf_size > 0) {
 144:../src/tensorflow_lite/tensorflow/lite/micro/kernels/cmsis_nn/depthwise_conv.cc ****       TF_LITE_ENSURE_STATUS(context->RequestScratchBufferInArena(
 145:../src/tensorflow_lite/tensorflow/lite/micro/kernels/cmsis_nn/depthwise_conv.cc ****           context, buf_size, &data->buffer_idx));
 146:../src/tensorflow_lite/tensorflow/lite/micro/kernels/cmsis_nn/depthwise_conv.cc ****     } else {
 147:../src/tensorflow_lite/tensorflow/lite/micro/kernels/cmsis_nn/depthwise_conv.cc ****       data->buffer_idx = -1;
 148:../src/tensorflow_lite/tensorflow/lite/micro/kernels/cmsis_nn/depthwise_conv.cc ****     }
 149:../src/tensorflow_lite/tensorflow/lite/micro/kernels/cmsis_nn/depthwise_conv.cc ****   }
 150:../src/tensorflow_lite/tensorflow/lite/micro/kernels/cmsis_nn/depthwise_conv.cc ****   return kTfLiteOk;
 151:../src/tensorflow_lite/tensorflow/lite/micro/kernels/cmsis_nn/depthwise_conv.cc **** }
 276              		.loc 1 151 0
 277 0168 ECD08DE2 		add	sp, sp, #236
 278              		.cfi_remember_state
 279              		.cfi_def_cfa_offset 36
 280              		@ sp needed
 281 016c F08FBDE8 		pop	{r4, r5, r6, r7, r8, r9, r10, fp, pc}
 282              	.LVL21:
 283              	.L75:
 284              		.cfi_restore_state
 285              	.LBB571:
 286              	.LBB450:
  73:../src/tensorflow_lite/tensorflow/lite/micro/kernels/cmsis_nn/depthwise_conv.cc ****                       kTfLiteAffineQuantization);
 287              		.loc 1 73 0
 288 0170 30B0D9E5 		ldrb	fp, [r9, #48]	@ zero_extendqisi2
 289 0174 01005BE3 		cmp	fp, #1
 290 0178 2700001A 		bne	.L77
  79:../src/tensorflow_lite/tensorflow/lite/micro/kernels/cmsis_nn/depthwise_conv.cc ****     TF_LITE_ENSURE(context, affine_quantization);
 291              		.loc 1 79 0
 292 017c 343099E5 		ldr	r3, [r9, #52]
 293              	.LVL22:
  80:../src/tensorflow_lite/tensorflow/lite/micro/kernels/cmsis_nn/depthwise_conv.cc ****     TF_LITE_ENSURE(context, affine_quantization->scale);
 294              		.loc 1 80 0
 295 0180 000053E3 		cmp	r3, #0
 296 0184 E200000A 		beq	.L78
  81:../src/tensorflow_lite/tensorflow/lite/micro/kernels/cmsis_nn/depthwise_conv.cc ****     TF_LITE_ENSURE(context, affine_quantization->zero_point);
 297              		.loc 1 81 0
 298 0188 001093E5 		ldr	r1, [r3]
 299 018c 000051E3 		cmp	r1, #0
 300 0190 EF00000A 		beq	.L79
  82:../src/tensorflow_lite/tensorflow/lite/micro/kernels/cmsis_nn/depthwise_conv.cc ****     TF_LITE_ENSURE(
 301              		.loc 1 82 0
 302 0194 040093E5 		ldr	r0, [r3, #4]
 303              	.LVL23:
 304 0198 000050E3 		cmp	r0, #0
 305 019c BF00000A 		beq	.L80
  83:../src/tensorflow_lite/tensorflow/lite/micro/kernels/cmsis_nn/depthwise_conv.cc ****         context, affine_quantization->scale->size == 1 ||
 306              		.loc 1 83 0
 307 01a0 003091E5 		ldr	r3, [r1]
 308              	.LVL24:
 309 01a4 010053E3 		cmp	r3, #1
 310 01a8 0600000A 		beq	.L20
  83:../src/tensorflow_lite/tensorflow/lite/micro/kernels/cmsis_nn/depthwise_conv.cc ****         context, affine_quantization->scale->size == 1 ||
 311              		.loc 1 83 0 is_stmt 0 discriminator 1
 312 01ac 001000E3 		movw	r1, #:lower16:_ZN6tflite32kDepthwiseConvQuantizedDimensionE
 313 01b0 001040E3 		movt	r1, #:upper16:_ZN6tflite32kDepthwiseConvQuantizedDimensionE
 314 01b4 001091E5 		ldr	r1, [r1]
 315 01b8 011182E0 		add	r1, r2, r1, lsl #2
 316 01bc 041091E5 		ldr	r1, [r1, #4]
 317 01c0 010053E1 		cmp	r3, r1
 318 01c4 A500001A 		bne	.L81
 319              	.L20:
  87:../src/tensorflow_lite/tensorflow/lite/micro/kernels/cmsis_nn/depthwise_conv.cc ****                       affine_quantization->zero_point->size);
 320              		.loc 1 87 0 is_stmt 1
 321 01c8 000090E5 		ldr	r0, [r0]
 322 01cc 000053E1 		cmp	r3, r0
 323 01d0 AFFFFF0A 		beq	.L15
  87:../src/tensorflow_lite/tensorflow/lite/micro/kernels/cmsis_nn/depthwise_conv.cc ****                       affine_quantization->zero_point->size);
 324              		.loc 1 87 0 is_stmt 0 discriminator 1
 325 01d4 00E000E3 		movw	lr, #:lower16:.LC13
 326 01d8 00C000E3 		movw	ip, #:lower16:.LC14
 327 01dc 00E040E3 		movt	lr, #:upper16:.LC13
 328 01e0 00C040E3 		movt	ip, #:upper16:.LC14
 329 01e4 002000E3 		movw	r2, #:lower16:.LC1
 330 01e8 001000E3 		movw	r1, #:lower16:.LC6
 331 01ec 0C008DE5 		str	r0, [sp, #12]
 332              	.LVL25:
 333 01f0 002040E3 		movt	r2, #:upper16:.LC1
 334 01f4 08308DE5 		str	r3, [sp, #8]
 335 01f8 0400A0E1 		mov	r0, r4
 336 01fc 04E08DE5 		str	lr, [sp, #4]
 337 0200 001040E3 		movt	r1, #:upper16:.LC6
 338 0204 00C08DE5 		str	ip, [sp]
 339 0208 5830A0E3 		mov	r3, #88
 340 020c 144094E5 		ldr	r4, [r4, #20]
 341              	.LVL26:
 342 0210 34FF2FE1 		blx	r4
 343              	.LVL27:
 344 0214 0100A0E3 		mov	r0, #1
 345 0218 D2FFFFEA 		b	.L68
 346              	.LVL28:
 347              	.L77:
  73:../src/tensorflow_lite/tensorflow/lite/micro/kernels/cmsis_nn/depthwise_conv.cc ****                       kTfLiteAffineQuantization);
 348              		.loc 1 73 0 is_stmt 1 discriminator 1
 349 021c 000000E3 		movw	r0, #:lower16:.LC7
 350              	.LVL29:
 351 0220 003000E3 		movw	r3, #:lower16:.LC8
 352              	.LVL30:
 353 0224 0150A0E3 		mov	r5, #1
 354              	.LVL31:
 355 0228 000040E3 		movt	r0, #:upper16:.LC7
 356 022c 003040E3 		movt	r3, #:upper16:.LC8
 357 0230 002000E3 		movw	r2, #:lower16:.LC1
 358 0234 001000E3 		movw	r1, #:lower16:.LC6
 359 0238 01088DE9 		stmib	sp, {r0, fp}
 360 023c 00308DE5 		str	r3, [sp]
 361 0240 0400A0E1 		mov	r0, r4
 362 0244 0C508DE5 		str	r5, [sp, #12]
 363 0248 002040E3 		movt	r2, #:upper16:.LC1
 364 024c 001040E3 		movt	r1, #:upper16:.LC6
 365 0250 144094E5 		ldr	r4, [r4, #20]
 366              	.LVL32:
 367 0254 4A30A0E3 		mov	r3, #74
 368 0258 34FF2FE1 		blx	r4
 369              	.LVL33:
 370 025c 0500A0E1 		mov	r0, r5
 371              	.LBE450:
 372              	.LBE571:
 373              		.loc 1 151 0 discriminator 1
 374 0260 ECD08DE2 		add	sp, sp, #236
 375              		.cfi_remember_state
 376              		.cfi_def_cfa_offset 36
 377              		@ sp needed
 378 0264 F08FBDE8 		pop	{r4, r5, r6, r7, r8, r9, r10, fp, pc}
 379              	.LVL34:
 380              	.L72:
 381              		.cfi_restore_state
  57:../src/tensorflow_lite/tensorflow/lite/micro/kernels/cmsis_nn/depthwise_conv.cc ****   const TfLiteTensor* filter =
 382              		.loc 1 57 0 discriminator 1
 383 0268 003000E3 		movw	r3, #:lower16:.LC3
 384 026c 002000E3 		movw	r2, #:lower16:.LC1
 385 0270 003040E3 		movt	r3, #:upper16:.LC3
 386 0274 001000E3 		movw	r1, #:lower16:.LC2
 387 0278 00308DE5 		str	r3, [sp]
 388 027c 0400A0E1 		mov	r0, r4
 389              	.LVL35:
 390 0280 002040E3 		movt	r2, #:upper16:.LC1
 391 0284 001040E3 		movt	r1, #:upper16:.LC2
 392 0288 145094E5 		ldr	r5, [r4, #20]
 393              	.LVL36:
 394 028c 3930A0E3 		mov	r3, #57
 395 0290 35FF2FE1 		blx	r5
 396              	.LVL37:
 397 0294 0100A0E3 		mov	r0, #1
 398              		.loc 1 151 0 discriminator 1
 399 0298 ECD08DE2 		add	sp, sp, #236
 400              		.cfi_remember_state
 401              		.cfi_def_cfa_offset 36
 402              		@ sp needed
 403 029c F08FBDE8 		pop	{r4, r5, r6, r7, r8, r9, r10, fp, pc}
 404              	.LVL38:
 405              	.L73:
 406              		.cfi_restore_state
  60:../src/tensorflow_lite/tensorflow/lite/micro/kernels/cmsis_nn/depthwise_conv.cc ****   TfLiteTensor* output = GetOutput(context, node, kDepthwiseConvOutputTensor);
 407              		.loc 1 60 0 discriminator 1
 408 02a0 003000E3 		movw	r3, #:lower16:.LC4
 409 02a4 002000E3 		movw	r2, #:lower16:.LC1
 410 02a8 003040E3 		movt	r3, #:upper16:.LC4
 411 02ac 001000E3 		movw	r1, #:lower16:.LC2
 412 02b0 00308DE5 		str	r3, [sp]
 413 02b4 0400A0E1 		mov	r0, r4
 414              	.LVL39:
 415 02b8 002040E3 		movt	r2, #:upper16:.LC1
 416 02bc 001040E3 		movt	r1, #:upper16:.LC2
 417 02c0 145094E5 		ldr	r5, [r4, #20]
 418              	.LVL40:
 419 02c4 3C30A0E3 		mov	r3, #60
 420 02c8 35FF2FE1 		blx	r5
 421              	.LVL41:
 422 02cc 0100A0E3 		mov	r0, #1
 423 02d0 A4FFFFEA 		b	.L68
 424              	.LVL42:
 425              	.L76:
 426              	.LBB572:
 427              	.LBB480:
 428              	.LBB481:
 429              	.LBB482:
 430              		.file 3 "C:/Renesas/e2studio_2021_01_workspace_RZA2M_ANPR/ANPR_RZA2M_GR_MANGO/src/tensorflow_lite/
   1:C:/Renesas/e2studio_2021_01_workspace_RZA2M_ANPR/ANPR_RZA2M_GR_MANGO/src/tensorflow_lite/tensorflow/lite/kernels/internal\tensor_ctypes.h **** /* Copyright 2017 The TensorFlow Authors. All Rights Reserved.
   2:C:/Renesas/e2studio_2021_01_workspace_RZA2M_ANPR/ANPR_RZA2M_GR_MANGO/src/tensorflow_lite/tensorflow/lite/kernels/internal\tensor_ctypes.h **** 
   3:C:/Renesas/e2studio_2021_01_workspace_RZA2M_ANPR/ANPR_RZA2M_GR_MANGO/src/tensorflow_lite/tensorflow/lite/kernels/internal\tensor_ctypes.h **** Licensed under the Apache License, Version 2.0 (the "License");
   4:C:/Renesas/e2studio_2021_01_workspace_RZA2M_ANPR/ANPR_RZA2M_GR_MANGO/src/tensorflow_lite/tensorflow/lite/kernels/internal\tensor_ctypes.h **** you may not use this file except in compliance with the License.
   5:C:/Renesas/e2studio_2021_01_workspace_RZA2M_ANPR/ANPR_RZA2M_GR_MANGO/src/tensorflow_lite/tensorflow/lite/kernels/internal\tensor_ctypes.h **** You may obtain a copy of the License at
   6:C:/Renesas/e2studio_2021_01_workspace_RZA2M_ANPR/ANPR_RZA2M_GR_MANGO/src/tensorflow_lite/tensorflow/lite/kernels/internal\tensor_ctypes.h **** 
   7:C:/Renesas/e2studio_2021_01_workspace_RZA2M_ANPR/ANPR_RZA2M_GR_MANGO/src/tensorflow_lite/tensorflow/lite/kernels/internal\tensor_ctypes.h ****     http://www.apache.org/licenses/LICENSE-2.0
   8:C:/Renesas/e2studio_2021_01_workspace_RZA2M_ANPR/ANPR_RZA2M_GR_MANGO/src/tensorflow_lite/tensorflow/lite/kernels/internal\tensor_ctypes.h **** 
   9:C:/Renesas/e2studio_2021_01_workspace_RZA2M_ANPR/ANPR_RZA2M_GR_MANGO/src/tensorflow_lite/tensorflow/lite/kernels/internal\tensor_ctypes.h **** Unless required by applicable law or agreed to in writing, software
  10:C:/Renesas/e2studio_2021_01_workspace_RZA2M_ANPR/ANPR_RZA2M_GR_MANGO/src/tensorflow_lite/tensorflow/lite/kernels/internal\tensor_ctypes.h **** distributed under the License is distributed on an "AS IS" BASIS,
  11:C:/Renesas/e2studio_2021_01_workspace_RZA2M_ANPR/ANPR_RZA2M_GR_MANGO/src/tensorflow_lite/tensorflow/lite/kernels/internal\tensor_ctypes.h **** WITHOUT WARRANTIES OR CONDITIONS OF ANY KIND, either express or implied.
  12:C:/Renesas/e2studio_2021_01_workspace_RZA2M_ANPR/ANPR_RZA2M_GR_MANGO/src/tensorflow_lite/tensorflow/lite/kernels/internal\tensor_ctypes.h **** See the License for the specific language governing permissions and
  13:C:/Renesas/e2studio_2021_01_workspace_RZA2M_ANPR/ANPR_RZA2M_GR_MANGO/src/tensorflow_lite/tensorflow/lite/kernels/internal\tensor_ctypes.h **** limitations under the License.
  14:C:/Renesas/e2studio_2021_01_workspace_RZA2M_ANPR/ANPR_RZA2M_GR_MANGO/src/tensorflow_lite/tensorflow/lite/kernels/internal\tensor_ctypes.h **** ==============================================================================*/
  15:C:/Renesas/e2studio_2021_01_workspace_RZA2M_ANPR/ANPR_RZA2M_GR_MANGO/src/tensorflow_lite/tensorflow/lite/kernels/internal\tensor_ctypes.h **** #ifndef TENSORFLOW_LITE_KERNELS_INTERNAL_TENSOR_CTYPES_H_
  16:C:/Renesas/e2studio_2021_01_workspace_RZA2M_ANPR/ANPR_RZA2M_GR_MANGO/src/tensorflow_lite/tensorflow/lite/kernels/internal\tensor_ctypes.h **** #define TENSORFLOW_LITE_KERNELS_INTERNAL_TENSOR_CTYPES_H_
  17:C:/Renesas/e2studio_2021_01_workspace_RZA2M_ANPR/ANPR_RZA2M_GR_MANGO/src/tensorflow_lite/tensorflow/lite/kernels/internal\tensor_ctypes.h **** 
  18:C:/Renesas/e2studio_2021_01_workspace_RZA2M_ANPR/ANPR_RZA2M_GR_MANGO/src/tensorflow_lite/tensorflow/lite/kernels/internal\tensor_ctypes.h **** #include "tensorflow/lite/c/common.h"
  19:C:/Renesas/e2studio_2021_01_workspace_RZA2M_ANPR/ANPR_RZA2M_GR_MANGO/src/tensorflow_lite/tensorflow/lite/kernels/internal\tensor_ctypes.h **** #include "tensorflow/lite/kernels/internal/types.h"
  20:C:/Renesas/e2studio_2021_01_workspace_RZA2M_ANPR/ANPR_RZA2M_GR_MANGO/src/tensorflow_lite/tensorflow/lite/kernels/internal\tensor_ctypes.h **** 
  21:C:/Renesas/e2studio_2021_01_workspace_RZA2M_ANPR/ANPR_RZA2M_GR_MANGO/src/tensorflow_lite/tensorflow/lite/kernels/internal\tensor_ctypes.h **** namespace tflite {
  22:C:/Renesas/e2studio_2021_01_workspace_RZA2M_ANPR/ANPR_RZA2M_GR_MANGO/src/tensorflow_lite/tensorflow/lite/kernels/internal\tensor_ctypes.h **** 
  23:C:/Renesas/e2studio_2021_01_workspace_RZA2M_ANPR/ANPR_RZA2M_GR_MANGO/src/tensorflow_lite/tensorflow/lite/kernels/internal\tensor_ctypes.h **** template <typename T>
  24:C:/Renesas/e2studio_2021_01_workspace_RZA2M_ANPR/ANPR_RZA2M_GR_MANGO/src/tensorflow_lite/tensorflow/lite/kernels/internal\tensor_ctypes.h **** inline T* GetTensorData(TfLiteTensor* tensor) {
  25:C:/Renesas/e2studio_2021_01_workspace_RZA2M_ANPR/ANPR_RZA2M_GR_MANGO/src/tensorflow_lite/tensorflow/lite/kernels/internal\tensor_ctypes.h ****   return tensor != nullptr ? reinterpret_cast<T*>(tensor->data.raw) : nullptr;
  26:C:/Renesas/e2studio_2021_01_workspace_RZA2M_ANPR/ANPR_RZA2M_GR_MANGO/src/tensorflow_lite/tensorflow/lite/kernels/internal\tensor_ctypes.h **** }
  27:C:/Renesas/e2studio_2021_01_workspace_RZA2M_ANPR/ANPR_RZA2M_GR_MANGO/src/tensorflow_lite/tensorflow/lite/kernels/internal\tensor_ctypes.h **** 
  28:C:/Renesas/e2studio_2021_01_workspace_RZA2M_ANPR/ANPR_RZA2M_GR_MANGO/src/tensorflow_lite/tensorflow/lite/kernels/internal\tensor_ctypes.h **** template <typename T>
  29:C:/Renesas/e2studio_2021_01_workspace_RZA2M_ANPR/ANPR_RZA2M_GR_MANGO/src/tensorflow_lite/tensorflow/lite/kernels/internal\tensor_ctypes.h **** inline const T* GetTensorData(const TfLiteTensor* tensor) {
  30:C:/Renesas/e2studio_2021_01_workspace_RZA2M_ANPR/ANPR_RZA2M_GR_MANGO/src/tensorflow_lite/tensorflow/lite/kernels/internal\tensor_ctypes.h ****   return tensor != nullptr ? reinterpret_cast<const T*>(tensor->data.raw)
  31:C:/Renesas/e2studio_2021_01_workspace_RZA2M_ANPR/ANPR_RZA2M_GR_MANGO/src/tensorflow_lite/tensorflow/lite/kernels/internal\tensor_ctypes.h ****                            : nullptr;
  32:C:/Renesas/e2studio_2021_01_workspace_RZA2M_ANPR/ANPR_RZA2M_GR_MANGO/src/tensorflow_lite/tensorflow/lite/kernels/internal\tensor_ctypes.h **** }
  33:C:/Renesas/e2studio_2021_01_workspace_RZA2M_ANPR/ANPR_RZA2M_GR_MANGO/src/tensorflow_lite/tensorflow/lite/kernels/internal\tensor_ctypes.h **** 
  34:C:/Renesas/e2studio_2021_01_workspace_RZA2M_ANPR/ANPR_RZA2M_GR_MANGO/src/tensorflow_lite/tensorflow/lite/kernels/internal\tensor_ctypes.h **** inline RuntimeShape GetTensorShape(const TfLiteTensor* tensor) {
  35:C:/Renesas/e2studio_2021_01_workspace_RZA2M_ANPR/ANPR_RZA2M_GR_MANGO/src/tensorflow_lite/tensorflow/lite/kernels/internal\tensor_ctypes.h ****   if (tensor == nullptr) {
  36:C:/Renesas/e2studio_2021_01_workspace_RZA2M_ANPR/ANPR_RZA2M_GR_MANGO/src/tensorflow_lite/tensorflow/lite/kernels/internal\tensor_ctypes.h ****     return RuntimeShape();
  37:C:/Renesas/e2studio_2021_01_workspace_RZA2M_ANPR/ANPR_RZA2M_GR_MANGO/src/tensorflow_lite/tensorflow/lite/kernels/internal\tensor_ctypes.h ****   }
  38:C:/Renesas/e2studio_2021_01_workspace_RZA2M_ANPR/ANPR_RZA2M_GR_MANGO/src/tensorflow_lite/tensorflow/lite/kernels/internal\tensor_ctypes.h **** 
  39:C:/Renesas/e2studio_2021_01_workspace_RZA2M_ANPR/ANPR_RZA2M_GR_MANGO/src/tensorflow_lite/tensorflow/lite/kernels/internal\tensor_ctypes.h ****   TfLiteIntArray* dims = tensor->dims;
 431              		.loc 3 39 0
 432 02d4 085097E5 		ldr	r5, [r7, #8]
 433              	.LVL43:
  40:C:/Renesas/e2studio_2021_01_workspace_RZA2M_ANPR/ANPR_RZA2M_GR_MANGO/src/tensorflow_lite/tensorflow/lite/kernels/internal\tensor_ctypes.h ****   const int dims_size = dims->size;
 434              		.loc 3 40 0
 435 02d8 002095E5 		ldr	r2, [r5]
 436              	.LVL44:
 437              	.LBB483:
 438              	.LBB484:
 439              	.LBB485:
 440              	.LBB486:
 441              	.LBB487:
 442              		.file 4 "C:/Renesas/e2studio_2021_01_workspace_RZA2M_ANPR/ANPR_RZA2M_GR_MANGO/src/tensorflow_lite/
   1:C:/Renesas/e2studio_2021_01_workspace_RZA2M_ANPR/ANPR_RZA2M_GR_MANGO/src/tensorflow_lite/tensorflow/lite/kernels/internal\types.h **** /* Copyright 2018 The TensorFlow Authors. All Rights Reserved.
   2:C:/Renesas/e2studio_2021_01_workspace_RZA2M_ANPR/ANPR_RZA2M_GR_MANGO/src/tensorflow_lite/tensorflow/lite/kernels/internal\types.h **** 
   3:C:/Renesas/e2studio_2021_01_workspace_RZA2M_ANPR/ANPR_RZA2M_GR_MANGO/src/tensorflow_lite/tensorflow/lite/kernels/internal\types.h **** Licensed under the Apache License, Version 2.0 (the "License");
   4:C:/Renesas/e2studio_2021_01_workspace_RZA2M_ANPR/ANPR_RZA2M_GR_MANGO/src/tensorflow_lite/tensorflow/lite/kernels/internal\types.h **** you may not use this file except in compliance with the License.
   5:C:/Renesas/e2studio_2021_01_workspace_RZA2M_ANPR/ANPR_RZA2M_GR_MANGO/src/tensorflow_lite/tensorflow/lite/kernels/internal\types.h **** You may obtain a copy of the License at
   6:C:/Renesas/e2studio_2021_01_workspace_RZA2M_ANPR/ANPR_RZA2M_GR_MANGO/src/tensorflow_lite/tensorflow/lite/kernels/internal\types.h **** 
   7:C:/Renesas/e2studio_2021_01_workspace_RZA2M_ANPR/ANPR_RZA2M_GR_MANGO/src/tensorflow_lite/tensorflow/lite/kernels/internal\types.h ****     http://www.apache.org/licenses/LICENSE-2.0
   8:C:/Renesas/e2studio_2021_01_workspace_RZA2M_ANPR/ANPR_RZA2M_GR_MANGO/src/tensorflow_lite/tensorflow/lite/kernels/internal\types.h **** 
   9:C:/Renesas/e2studio_2021_01_workspace_RZA2M_ANPR/ANPR_RZA2M_GR_MANGO/src/tensorflow_lite/tensorflow/lite/kernels/internal\types.h **** Unless required by applicable law or agreed to in writing, software
  10:C:/Renesas/e2studio_2021_01_workspace_RZA2M_ANPR/ANPR_RZA2M_GR_MANGO/src/tensorflow_lite/tensorflow/lite/kernels/internal\types.h **** distributed under the License is distributed on an "AS IS" BASIS,
  11:C:/Renesas/e2studio_2021_01_workspace_RZA2M_ANPR/ANPR_RZA2M_GR_MANGO/src/tensorflow_lite/tensorflow/lite/kernels/internal\types.h **** WITHOUT WARRANTIES OR CONDITIONS OF ANY KIND, either express or implied.
  12:C:/Renesas/e2studio_2021_01_workspace_RZA2M_ANPR/ANPR_RZA2M_GR_MANGO/src/tensorflow_lite/tensorflow/lite/kernels/internal\types.h **** See the License for the specific language governing permissions and
  13:C:/Renesas/e2studio_2021_01_workspace_RZA2M_ANPR/ANPR_RZA2M_GR_MANGO/src/tensorflow_lite/tensorflow/lite/kernels/internal\types.h **** limitations under the License.
  14:C:/Renesas/e2studio_2021_01_workspace_RZA2M_ANPR/ANPR_RZA2M_GR_MANGO/src/tensorflow_lite/tensorflow/lite/kernels/internal\types.h **** ==============================================================================*/
  15:C:/Renesas/e2studio_2021_01_workspace_RZA2M_ANPR/ANPR_RZA2M_GR_MANGO/src/tensorflow_lite/tensorflow/lite/kernels/internal\types.h **** #ifndef TENSORFLOW_LITE_KERNELS_INTERNAL_TYPES_H_
  16:C:/Renesas/e2studio_2021_01_workspace_RZA2M_ANPR/ANPR_RZA2M_GR_MANGO/src/tensorflow_lite/tensorflow/lite/kernels/internal\types.h **** #define TENSORFLOW_LITE_KERNELS_INTERNAL_TYPES_H_
  17:C:/Renesas/e2studio_2021_01_workspace_RZA2M_ANPR/ANPR_RZA2M_GR_MANGO/src/tensorflow_lite/tensorflow/lite/kernels/internal\types.h **** 
  18:C:/Renesas/e2studio_2021_01_workspace_RZA2M_ANPR/ANPR_RZA2M_GR_MANGO/src/tensorflow_lite/tensorflow/lite/kernels/internal\types.h **** #include <algorithm>
  19:C:/Renesas/e2studio_2021_01_workspace_RZA2M_ANPR/ANPR_RZA2M_GR_MANGO/src/tensorflow_lite/tensorflow/lite/kernels/internal\types.h **** #include <cstdint>
  20:C:/Renesas/e2studio_2021_01_workspace_RZA2M_ANPR/ANPR_RZA2M_GR_MANGO/src/tensorflow_lite/tensorflow/lite/kernels/internal\types.h **** #include <cstring>
  21:C:/Renesas/e2studio_2021_01_workspace_RZA2M_ANPR/ANPR_RZA2M_GR_MANGO/src/tensorflow_lite/tensorflow/lite/kernels/internal\types.h **** #include <initializer_list>
  22:C:/Renesas/e2studio_2021_01_workspace_RZA2M_ANPR/ANPR_RZA2M_GR_MANGO/src/tensorflow_lite/tensorflow/lite/kernels/internal\types.h **** 
  23:C:/Renesas/e2studio_2021_01_workspace_RZA2M_ANPR/ANPR_RZA2M_GR_MANGO/src/tensorflow_lite/tensorflow/lite/kernels/internal\types.h **** #include "tensorflow/lite/kernels/internal/compatibility.h"
  24:C:/Renesas/e2studio_2021_01_workspace_RZA2M_ANPR/ANPR_RZA2M_GR_MANGO/src/tensorflow_lite/tensorflow/lite/kernels/internal\types.h **** 
  25:C:/Renesas/e2studio_2021_01_workspace_RZA2M_ANPR/ANPR_RZA2M_GR_MANGO/src/tensorflow_lite/tensorflow/lite/kernels/internal\types.h **** namespace tflite {
  26:C:/Renesas/e2studio_2021_01_workspace_RZA2M_ANPR/ANPR_RZA2M_GR_MANGO/src/tensorflow_lite/tensorflow/lite/kernels/internal\types.h **** 
  27:C:/Renesas/e2studio_2021_01_workspace_RZA2M_ANPR/ANPR_RZA2M_GR_MANGO/src/tensorflow_lite/tensorflow/lite/kernels/internal\types.h **** enum class FusedActivationFunctionType : uint8_t {
  28:C:/Renesas/e2studio_2021_01_workspace_RZA2M_ANPR/ANPR_RZA2M_GR_MANGO/src/tensorflow_lite/tensorflow/lite/kernels/internal\types.h ****   kNone,
  29:C:/Renesas/e2studio_2021_01_workspace_RZA2M_ANPR/ANPR_RZA2M_GR_MANGO/src/tensorflow_lite/tensorflow/lite/kernels/internal\types.h ****   kRelu6,
  30:C:/Renesas/e2studio_2021_01_workspace_RZA2M_ANPR/ANPR_RZA2M_GR_MANGO/src/tensorflow_lite/tensorflow/lite/kernels/internal\types.h ****   kRelu1,
  31:C:/Renesas/e2studio_2021_01_workspace_RZA2M_ANPR/ANPR_RZA2M_GR_MANGO/src/tensorflow_lite/tensorflow/lite/kernels/internal\types.h ****   kRelu
  32:C:/Renesas/e2studio_2021_01_workspace_RZA2M_ANPR/ANPR_RZA2M_GR_MANGO/src/tensorflow_lite/tensorflow/lite/kernels/internal\types.h **** };
  33:C:/Renesas/e2studio_2021_01_workspace_RZA2M_ANPR/ANPR_RZA2M_GR_MANGO/src/tensorflow_lite/tensorflow/lite/kernels/internal\types.h **** enum class PaddingType : uint8_t { kNone, kSame, kValid };
  34:C:/Renesas/e2studio_2021_01_workspace_RZA2M_ANPR/ANPR_RZA2M_GR_MANGO/src/tensorflow_lite/tensorflow/lite/kernels/internal\types.h **** 
  35:C:/Renesas/e2studio_2021_01_workspace_RZA2M_ANPR/ANPR_RZA2M_GR_MANGO/src/tensorflow_lite/tensorflow/lite/kernels/internal\types.h **** struct PaddingValues {
  36:C:/Renesas/e2studio_2021_01_workspace_RZA2M_ANPR/ANPR_RZA2M_GR_MANGO/src/tensorflow_lite/tensorflow/lite/kernels/internal\types.h ****   int16_t width;
  37:C:/Renesas/e2studio_2021_01_workspace_RZA2M_ANPR/ANPR_RZA2M_GR_MANGO/src/tensorflow_lite/tensorflow/lite/kernels/internal\types.h ****   int16_t height;
  38:C:/Renesas/e2studio_2021_01_workspace_RZA2M_ANPR/ANPR_RZA2M_GR_MANGO/src/tensorflow_lite/tensorflow/lite/kernels/internal\types.h ****   // offset is used for calculating "remaining" padding, for example, `width`
  39:C:/Renesas/e2studio_2021_01_workspace_RZA2M_ANPR/ANPR_RZA2M_GR_MANGO/src/tensorflow_lite/tensorflow/lite/kernels/internal\types.h ****   // is 1 and `width_offset` is 1, so padding_left is 1 while padding_right is
  40:C:/Renesas/e2studio_2021_01_workspace_RZA2M_ANPR/ANPR_RZA2M_GR_MANGO/src/tensorflow_lite/tensorflow/lite/kernels/internal\types.h ****   // 1 + 1 = 2.
  41:C:/Renesas/e2studio_2021_01_workspace_RZA2M_ANPR/ANPR_RZA2M_GR_MANGO/src/tensorflow_lite/tensorflow/lite/kernels/internal\types.h ****   int16_t width_offset;
  42:C:/Renesas/e2studio_2021_01_workspace_RZA2M_ANPR/ANPR_RZA2M_GR_MANGO/src/tensorflow_lite/tensorflow/lite/kernels/internal\types.h ****   // Same as width_offset except it's over the height dimension.
  43:C:/Renesas/e2studio_2021_01_workspace_RZA2M_ANPR/ANPR_RZA2M_GR_MANGO/src/tensorflow_lite/tensorflow/lite/kernels/internal\types.h ****   int16_t height_offset;
  44:C:/Renesas/e2studio_2021_01_workspace_RZA2M_ANPR/ANPR_RZA2M_GR_MANGO/src/tensorflow_lite/tensorflow/lite/kernels/internal\types.h **** };
  45:C:/Renesas/e2studio_2021_01_workspace_RZA2M_ANPR/ANPR_RZA2M_GR_MANGO/src/tensorflow_lite/tensorflow/lite/kernels/internal\types.h **** 
  46:C:/Renesas/e2studio_2021_01_workspace_RZA2M_ANPR/ANPR_RZA2M_GR_MANGO/src/tensorflow_lite/tensorflow/lite/kernels/internal\types.h **** struct Padding3DValues {
  47:C:/Renesas/e2studio_2021_01_workspace_RZA2M_ANPR/ANPR_RZA2M_GR_MANGO/src/tensorflow_lite/tensorflow/lite/kernels/internal\types.h ****   int16_t width;
  48:C:/Renesas/e2studio_2021_01_workspace_RZA2M_ANPR/ANPR_RZA2M_GR_MANGO/src/tensorflow_lite/tensorflow/lite/kernels/internal\types.h ****   int16_t height;
  49:C:/Renesas/e2studio_2021_01_workspace_RZA2M_ANPR/ANPR_RZA2M_GR_MANGO/src/tensorflow_lite/tensorflow/lite/kernels/internal\types.h ****   int16_t depth;
  50:C:/Renesas/e2studio_2021_01_workspace_RZA2M_ANPR/ANPR_RZA2M_GR_MANGO/src/tensorflow_lite/tensorflow/lite/kernels/internal\types.h ****   // offset is used for calculating "remaining" padding, for example, `width`
  51:C:/Renesas/e2studio_2021_01_workspace_RZA2M_ANPR/ANPR_RZA2M_GR_MANGO/src/tensorflow_lite/tensorflow/lite/kernels/internal\types.h ****   // is 1 and `width_offset` is 1, so padding_left is 1 while padding_right is
  52:C:/Renesas/e2studio_2021_01_workspace_RZA2M_ANPR/ANPR_RZA2M_GR_MANGO/src/tensorflow_lite/tensorflow/lite/kernels/internal\types.h ****   // 1 + 1 = 2.
  53:C:/Renesas/e2studio_2021_01_workspace_RZA2M_ANPR/ANPR_RZA2M_GR_MANGO/src/tensorflow_lite/tensorflow/lite/kernels/internal\types.h ****   int16_t width_offset;
  54:C:/Renesas/e2studio_2021_01_workspace_RZA2M_ANPR/ANPR_RZA2M_GR_MANGO/src/tensorflow_lite/tensorflow/lite/kernels/internal\types.h ****   // Same as width_offset except it's over the height dimension.
  55:C:/Renesas/e2studio_2021_01_workspace_RZA2M_ANPR/ANPR_RZA2M_GR_MANGO/src/tensorflow_lite/tensorflow/lite/kernels/internal\types.h ****   int16_t height_offset;
  56:C:/Renesas/e2studio_2021_01_workspace_RZA2M_ANPR/ANPR_RZA2M_GR_MANGO/src/tensorflow_lite/tensorflow/lite/kernels/internal\types.h ****   // Same as width_offset except it's over the depth dimension.
  57:C:/Renesas/e2studio_2021_01_workspace_RZA2M_ANPR/ANPR_RZA2M_GR_MANGO/src/tensorflow_lite/tensorflow/lite/kernels/internal\types.h ****   int16_t depth_offset;
  58:C:/Renesas/e2studio_2021_01_workspace_RZA2M_ANPR/ANPR_RZA2M_GR_MANGO/src/tensorflow_lite/tensorflow/lite/kernels/internal\types.h **** };
  59:C:/Renesas/e2studio_2021_01_workspace_RZA2M_ANPR/ANPR_RZA2M_GR_MANGO/src/tensorflow_lite/tensorflow/lite/kernels/internal\types.h **** 
  60:C:/Renesas/e2studio_2021_01_workspace_RZA2M_ANPR/ANPR_RZA2M_GR_MANGO/src/tensorflow_lite/tensorflow/lite/kernels/internal\types.h **** // This enumeration allows for non-default formats for the weights array
  61:C:/Renesas/e2studio_2021_01_workspace_RZA2M_ANPR/ANPR_RZA2M_GR_MANGO/src/tensorflow_lite/tensorflow/lite/kernels/internal\types.h **** // of a fully-connected operator, allowing the use of special optimized
  62:C:/Renesas/e2studio_2021_01_workspace_RZA2M_ANPR/ANPR_RZA2M_GR_MANGO/src/tensorflow_lite/tensorflow/lite/kernels/internal\types.h **** // runtime paths.
  63:C:/Renesas/e2studio_2021_01_workspace_RZA2M_ANPR/ANPR_RZA2M_GR_MANGO/src/tensorflow_lite/tensorflow/lite/kernels/internal\types.h **** enum class FullyConnectedWeightsFormat : uint8_t {
  64:C:/Renesas/e2studio_2021_01_workspace_RZA2M_ANPR/ANPR_RZA2M_GR_MANGO/src/tensorflow_lite/tensorflow/lite/kernels/internal\types.h ****   // Default format (flat 2D layout, the inner contiguous dimension
  65:C:/Renesas/e2studio_2021_01_workspace_RZA2M_ANPR/ANPR_RZA2M_GR_MANGO/src/tensorflow_lite/tensorflow/lite/kernels/internal\types.h ****   // is input_depth, the outer non-contiguous dimension is output_depth)
  66:C:/Renesas/e2studio_2021_01_workspace_RZA2M_ANPR/ANPR_RZA2M_GR_MANGO/src/tensorflow_lite/tensorflow/lite/kernels/internal\types.h ****   kDefault,
  67:C:/Renesas/e2studio_2021_01_workspace_RZA2M_ANPR/ANPR_RZA2M_GR_MANGO/src/tensorflow_lite/tensorflow/lite/kernels/internal\types.h ****   // Summary: optimized layout for fast CPU runtime implementation,
  68:C:/Renesas/e2studio_2021_01_workspace_RZA2M_ANPR/ANPR_RZA2M_GR_MANGO/src/tensorflow_lite/tensorflow/lite/kernels/internal\types.h ****   // aimed specifically at ARM CPUs at the moment, and specialized for
  69:C:/Renesas/e2studio_2021_01_workspace_RZA2M_ANPR/ANPR_RZA2M_GR_MANGO/src/tensorflow_lite/tensorflow/lite/kernels/internal\types.h ****   // 8-bit quantized layers.
  70:C:/Renesas/e2studio_2021_01_workspace_RZA2M_ANPR/ANPR_RZA2M_GR_MANGO/src/tensorflow_lite/tensorflow/lite/kernels/internal\types.h ****   //
  71:C:/Renesas/e2studio_2021_01_workspace_RZA2M_ANPR/ANPR_RZA2M_GR_MANGO/src/tensorflow_lite/tensorflow/lite/kernels/internal\types.h ****   // The use case we're concerned with here is: 8-bit quantization,
  72:C:/Renesas/e2studio_2021_01_workspace_RZA2M_ANPR/ANPR_RZA2M_GR_MANGO/src/tensorflow_lite/tensorflow/lite/kernels/internal\types.h ****   // large weights matrix that doesn't fit in cache (e.g. 4096x2048 in
  73:C:/Renesas/e2studio_2021_01_workspace_RZA2M_ANPR/ANPR_RZA2M_GR_MANGO/src/tensorflow_lite/tensorflow/lite/kernels/internal\types.h ****   // a key application that drove this), very small batch size (e.g. 1 -- 4).
  74:C:/Renesas/e2studio_2021_01_workspace_RZA2M_ANPR/ANPR_RZA2M_GR_MANGO/src/tensorflow_lite/tensorflow/lite/kernels/internal\types.h ****   //
  75:C:/Renesas/e2studio_2021_01_workspace_RZA2M_ANPR/ANPR_RZA2M_GR_MANGO/src/tensorflow_lite/tensorflow/lite/kernels/internal\types.h ****   // Even with 8-bit quantization of weights, the performance of memory
  76:C:/Renesas/e2studio_2021_01_workspace_RZA2M_ANPR/ANPR_RZA2M_GR_MANGO/src/tensorflow_lite/tensorflow/lite/kernels/internal\types.h ****   // accesses to the weights can become the dominant issue when
  77:C:/Renesas/e2studio_2021_01_workspace_RZA2M_ANPR/ANPR_RZA2M_GR_MANGO/src/tensorflow_lite/tensorflow/lite/kernels/internal\types.h ****   // the batch size is small, so each weight value is used in only a few
  78:C:/Renesas/e2studio_2021_01_workspace_RZA2M_ANPR/ANPR_RZA2M_GR_MANGO/src/tensorflow_lite/tensorflow/lite/kernels/internal\types.h ****   // arithmetic ops, i.e. the fully-connected node has a low arithmetic
  79:C:/Renesas/e2studio_2021_01_workspace_RZA2M_ANPR/ANPR_RZA2M_GR_MANGO/src/tensorflow_lite/tensorflow/lite/kernels/internal\types.h ****   // intensity. The specific issues that arise are of three kinds:
  80:C:/Renesas/e2studio_2021_01_workspace_RZA2M_ANPR/ANPR_RZA2M_GR_MANGO/src/tensorflow_lite/tensorflow/lite/kernels/internal\types.h ****   // (1) One may, ideally, max out DRAM bandwidth, i.e. be truly memory
  81:C:/Renesas/e2studio_2021_01_workspace_RZA2M_ANPR/ANPR_RZA2M_GR_MANGO/src/tensorflow_lite/tensorflow/lite/kernels/internal\types.h ****   //     bound. That's the "good" issue to run into.
  82:C:/Renesas/e2studio_2021_01_workspace_RZA2M_ANPR/ANPR_RZA2M_GR_MANGO/src/tensorflow_lite/tensorflow/lite/kernels/internal\types.h ****   // (2) One may run into sub-optimal pre-fetching: the data hasn't been
  83:C:/Renesas/e2studio_2021_01_workspace_RZA2M_ANPR/ANPR_RZA2M_GR_MANGO/src/tensorflow_lite/tensorflow/lite/kernels/internal\types.h ****   //     prefetched into the cache by the time we need it.
  84:C:/Renesas/e2studio_2021_01_workspace_RZA2M_ANPR/ANPR_RZA2M_GR_MANGO/src/tensorflow_lite/tensorflow/lite/kernels/internal\types.h ****   // (3) One may run into cache aliasing: multiple values that are
  85:C:/Renesas/e2studio_2021_01_workspace_RZA2M_ANPR/ANPR_RZA2M_GR_MANGO/src/tensorflow_lite/tensorflow/lite/kernels/internal\types.h ****   //     pre-fetched, alias each other in the L1 cache (which typically
  86:C:/Renesas/e2studio_2021_01_workspace_RZA2M_ANPR/ANPR_RZA2M_GR_MANGO/src/tensorflow_lite/tensorflow/lite/kernels/internal\types.h ****   //     has only 4-way set associativity in ARM CPUs) and thus evict
  87:C:/Renesas/e2studio_2021_01_workspace_RZA2M_ANPR/ANPR_RZA2M_GR_MANGO/src/tensorflow_lite/tensorflow/lite/kernels/internal\types.h ****   //     each other before we get to using them.
  88:C:/Renesas/e2studio_2021_01_workspace_RZA2M_ANPR/ANPR_RZA2M_GR_MANGO/src/tensorflow_lite/tensorflow/lite/kernels/internal\types.h ****   //
  89:C:/Renesas/e2studio_2021_01_workspace_RZA2M_ANPR/ANPR_RZA2M_GR_MANGO/src/tensorflow_lite/tensorflow/lite/kernels/internal\types.h ****   // The point of this shuffling is to avoid issues (2) and (3) so that
  90:C:/Renesas/e2studio_2021_01_workspace_RZA2M_ANPR/ANPR_RZA2M_GR_MANGO/src/tensorflow_lite/tensorflow/lite/kernels/internal\types.h ****   // we get as fast as possible given only the hard constraint (1).
  91:C:/Renesas/e2studio_2021_01_workspace_RZA2M_ANPR/ANPR_RZA2M_GR_MANGO/src/tensorflow_lite/tensorflow/lite/kernels/internal\types.h ****   // This is achieved by turning the difficulty into a solution: the
  92:C:/Renesas/e2studio_2021_01_workspace_RZA2M_ANPR/ANPR_RZA2M_GR_MANGO/src/tensorflow_lite/tensorflow/lite/kernels/internal\types.h ****   // difficulty, that each value loaded from memory is used only in
  93:C:/Renesas/e2studio_2021_01_workspace_RZA2M_ANPR/ANPR_RZA2M_GR_MANGO/src/tensorflow_lite/tensorflow/lite/kernels/internal\types.h ****   // one kernel iteration, making this operation memory-intensive, hints at
  94:C:/Renesas/e2studio_2021_01_workspace_RZA2M_ANPR/ANPR_RZA2M_GR_MANGO/src/tensorflow_lite/tensorflow/lite/kernels/internal\types.h ****   // the solution, of shuffling the weights so that they are stored in the
  95:C:/Renesas/e2studio_2021_01_workspace_RZA2M_ANPR/ANPR_RZA2M_GR_MANGO/src/tensorflow_lite/tensorflow/lite/kernels/internal\types.h ****   // exact order as the kernel needs to load them, so that the memory
  96:C:/Renesas/e2studio_2021_01_workspace_RZA2M_ANPR/ANPR_RZA2M_GR_MANGO/src/tensorflow_lite/tensorflow/lite/kernels/internal\types.h ****   // accesses made by the kernel are trivial. This solves (2) because the
  97:C:/Renesas/e2studio_2021_01_workspace_RZA2M_ANPR/ANPR_RZA2M_GR_MANGO/src/tensorflow_lite/tensorflow/lite/kernels/internal\types.h ****   // trivial memory access pattern allows the CPU's automatic prefetching
  98:C:/Renesas/e2studio_2021_01_workspace_RZA2M_ANPR/ANPR_RZA2M_GR_MANGO/src/tensorflow_lite/tensorflow/lite/kernels/internal\types.h ****   // to perform very well (no need even for preload instructions), and this
  99:C:/Renesas/e2studio_2021_01_workspace_RZA2M_ANPR/ANPR_RZA2M_GR_MANGO/src/tensorflow_lite/tensorflow/lite/kernels/internal\types.h ****   // solves (3) because the values being loaded concurrently are now
 100:C:/Renesas/e2studio_2021_01_workspace_RZA2M_ANPR/ANPR_RZA2M_GR_MANGO/src/tensorflow_lite/tensorflow/lite/kernels/internal\types.h ****   // contiguous in the address space, thus don't alias each other in the cache.
 101:C:/Renesas/e2studio_2021_01_workspace_RZA2M_ANPR/ANPR_RZA2M_GR_MANGO/src/tensorflow_lite/tensorflow/lite/kernels/internal\types.h ****   //
 102:C:/Renesas/e2studio_2021_01_workspace_RZA2M_ANPR/ANPR_RZA2M_GR_MANGO/src/tensorflow_lite/tensorflow/lite/kernels/internal\types.h ****   // On ARM, we typically want our kernel to process a 4x16 block of weights
 103:C:/Renesas/e2studio_2021_01_workspace_RZA2M_ANPR/ANPR_RZA2M_GR_MANGO/src/tensorflow_lite/tensorflow/lite/kernels/internal\types.h ****   // at a time, because:
 104:C:/Renesas/e2studio_2021_01_workspace_RZA2M_ANPR/ANPR_RZA2M_GR_MANGO/src/tensorflow_lite/tensorflow/lite/kernels/internal\types.h ****   //   - 16 is the number of bytes in a NEON register.
 105:C:/Renesas/e2studio_2021_01_workspace_RZA2M_ANPR/ANPR_RZA2M_GR_MANGO/src/tensorflow_lite/tensorflow/lite/kernels/internal\types.h ****   //   - 4 is how many rows we need to handle concurrently in the kernel in
 106:C:/Renesas/e2studio_2021_01_workspace_RZA2M_ANPR/ANPR_RZA2M_GR_MANGO/src/tensorflow_lite/tensorflow/lite/kernels/internal\types.h ****   //     order to have sufficient mutual independence of instructions to
 107:C:/Renesas/e2studio_2021_01_workspace_RZA2M_ANPR/ANPR_RZA2M_GR_MANGO/src/tensorflow_lite/tensorflow/lite/kernels/internal\types.h ****   //     maximize arithmetic throughput.
 108:C:/Renesas/e2studio_2021_01_workspace_RZA2M_ANPR/ANPR_RZA2M_GR_MANGO/src/tensorflow_lite/tensorflow/lite/kernels/internal\types.h ****   //
 109:C:/Renesas/e2studio_2021_01_workspace_RZA2M_ANPR/ANPR_RZA2M_GR_MANGO/src/tensorflow_lite/tensorflow/lite/kernels/internal\types.h ****   // Finally, the 'Int8' part in the name refers to the fact that this
 110:C:/Renesas/e2studio_2021_01_workspace_RZA2M_ANPR/ANPR_RZA2M_GR_MANGO/src/tensorflow_lite/tensorflow/lite/kernels/internal\types.h ****   // weights format has each weights value encoded as a signed int8_t value,
 111:C:/Renesas/e2studio_2021_01_workspace_RZA2M_ANPR/ANPR_RZA2M_GR_MANGO/src/tensorflow_lite/tensorflow/lite/kernels/internal\types.h ****   // even if the data type of the weights buffer is uint8_t.  This is intended
 112:C:/Renesas/e2studio_2021_01_workspace_RZA2M_ANPR/ANPR_RZA2M_GR_MANGO/src/tensorflow_lite/tensorflow/lite/kernels/internal\types.h ****   // to save runtime kernels the effort to have to XOR the top bit of these
 113:C:/Renesas/e2studio_2021_01_workspace_RZA2M_ANPR/ANPR_RZA2M_GR_MANGO/src/tensorflow_lite/tensorflow/lite/kernels/internal\types.h ****   // bytes before using them in signed arithmetic, see this file for more
 114:C:/Renesas/e2studio_2021_01_workspace_RZA2M_ANPR/ANPR_RZA2M_GR_MANGO/src/tensorflow_lite/tensorflow/lite/kernels/internal\types.h ****   // explanations on the 'signed int8_t trick' in matrix multiplication kernels:
 115:C:/Renesas/e2studio_2021_01_workspace_RZA2M_ANPR/ANPR_RZA2M_GR_MANGO/src/tensorflow_lite/tensorflow/lite/kernels/internal\types.h ****   //
 116:C:/Renesas/e2studio_2021_01_workspace_RZA2M_ANPR/ANPR_RZA2M_GR_MANGO/src/tensorflow_lite/tensorflow/lite/kernels/internal\types.h ****   //   tensorflow/lite/toco/graph_transformations/ensure_uint8_weights_safe_for_fast_int8_kernels.c
 117:C:/Renesas/e2studio_2021_01_workspace_RZA2M_ANPR/ANPR_RZA2M_GR_MANGO/src/tensorflow_lite/tensorflow/lite/kernels/internal\types.h ****   //
 118:C:/Renesas/e2studio_2021_01_workspace_RZA2M_ANPR/ANPR_RZA2M_GR_MANGO/src/tensorflow_lite/tensorflow/lite/kernels/internal\types.h ****   kShuffled4x16Int8,
 119:C:/Renesas/e2studio_2021_01_workspace_RZA2M_ANPR/ANPR_RZA2M_GR_MANGO/src/tensorflow_lite/tensorflow/lite/kernels/internal\types.h **** };
 120:C:/Renesas/e2studio_2021_01_workspace_RZA2M_ANPR/ANPR_RZA2M_GR_MANGO/src/tensorflow_lite/tensorflow/lite/kernels/internal\types.h **** 
 121:C:/Renesas/e2studio_2021_01_workspace_RZA2M_ANPR/ANPR_RZA2M_GR_MANGO/src/tensorflow_lite/tensorflow/lite/kernels/internal\types.h **** // Quantization parameters, determining the mapping of quantized values
 122:C:/Renesas/e2studio_2021_01_workspace_RZA2M_ANPR/ANPR_RZA2M_GR_MANGO/src/tensorflow_lite/tensorflow/lite/kernels/internal\types.h **** // to real values (i.e. determining how quantized values are mathematically
 123:C:/Renesas/e2studio_2021_01_workspace_RZA2M_ANPR/ANPR_RZA2M_GR_MANGO/src/tensorflow_lite/tensorflow/lite/kernels/internal\types.h **** // interpreted).
 124:C:/Renesas/e2studio_2021_01_workspace_RZA2M_ANPR/ANPR_RZA2M_GR_MANGO/src/tensorflow_lite/tensorflow/lite/kernels/internal\types.h **** //
 125:C:/Renesas/e2studio_2021_01_workspace_RZA2M_ANPR/ANPR_RZA2M_GR_MANGO/src/tensorflow_lite/tensorflow/lite/kernels/internal\types.h **** // The correspondence is as follows:
 126:C:/Renesas/e2studio_2021_01_workspace_RZA2M_ANPR/ANPR_RZA2M_GR_MANGO/src/tensorflow_lite/tensorflow/lite/kernels/internal\types.h **** //
 127:C:/Renesas/e2studio_2021_01_workspace_RZA2M_ANPR/ANPR_RZA2M_GR_MANGO/src/tensorflow_lite/tensorflow/lite/kernels/internal\types.h **** //   real_value = scale * (quantized_value - zero_point);
 128:C:/Renesas/e2studio_2021_01_workspace_RZA2M_ANPR/ANPR_RZA2M_GR_MANGO/src/tensorflow_lite/tensorflow/lite/kernels/internal\types.h **** //
 129:C:/Renesas/e2studio_2021_01_workspace_RZA2M_ANPR/ANPR_RZA2M_GR_MANGO/src/tensorflow_lite/tensorflow/lite/kernels/internal\types.h **** // In other words, zero_point designates which quantized value corresponds to
 130:C:/Renesas/e2studio_2021_01_workspace_RZA2M_ANPR/ANPR_RZA2M_GR_MANGO/src/tensorflow_lite/tensorflow/lite/kernels/internal\types.h **** // the real 0 value, and scale designates the difference between the real values
 131:C:/Renesas/e2studio_2021_01_workspace_RZA2M_ANPR/ANPR_RZA2M_GR_MANGO/src/tensorflow_lite/tensorflow/lite/kernels/internal\types.h **** // corresponding to consecutive quantized values differing by 1.
 132:C:/Renesas/e2studio_2021_01_workspace_RZA2M_ANPR/ANPR_RZA2M_GR_MANGO/src/tensorflow_lite/tensorflow/lite/kernels/internal\types.h **** struct QuantizationParams {
 133:C:/Renesas/e2studio_2021_01_workspace_RZA2M_ANPR/ANPR_RZA2M_GR_MANGO/src/tensorflow_lite/tensorflow/lite/kernels/internal\types.h ****   int32_t zero_point = 0;
 134:C:/Renesas/e2studio_2021_01_workspace_RZA2M_ANPR/ANPR_RZA2M_GR_MANGO/src/tensorflow_lite/tensorflow/lite/kernels/internal\types.h ****   double scale = 0.0;
 135:C:/Renesas/e2studio_2021_01_workspace_RZA2M_ANPR/ANPR_RZA2M_GR_MANGO/src/tensorflow_lite/tensorflow/lite/kernels/internal\types.h **** };
 136:C:/Renesas/e2studio_2021_01_workspace_RZA2M_ANPR/ANPR_RZA2M_GR_MANGO/src/tensorflow_lite/tensorflow/lite/kernels/internal\types.h **** 
 137:C:/Renesas/e2studio_2021_01_workspace_RZA2M_ANPR/ANPR_RZA2M_GR_MANGO/src/tensorflow_lite/tensorflow/lite/kernels/internal\types.h **** inline bool operator==(const QuantizationParams& qp1,
 138:C:/Renesas/e2studio_2021_01_workspace_RZA2M_ANPR/ANPR_RZA2M_GR_MANGO/src/tensorflow_lite/tensorflow/lite/kernels/internal\types.h ****                        const QuantizationParams& qp2) {
 139:C:/Renesas/e2studio_2021_01_workspace_RZA2M_ANPR/ANPR_RZA2M_GR_MANGO/src/tensorflow_lite/tensorflow/lite/kernels/internal\types.h ****   return qp1.zero_point == qp2.zero_point && qp1.scale == qp2.scale;
 140:C:/Renesas/e2studio_2021_01_workspace_RZA2M_ANPR/ANPR_RZA2M_GR_MANGO/src/tensorflow_lite/tensorflow/lite/kernels/internal\types.h **** }
 141:C:/Renesas/e2studio_2021_01_workspace_RZA2M_ANPR/ANPR_RZA2M_GR_MANGO/src/tensorflow_lite/tensorflow/lite/kernels/internal\types.h **** 
 142:C:/Renesas/e2studio_2021_01_workspace_RZA2M_ANPR/ANPR_RZA2M_GR_MANGO/src/tensorflow_lite/tensorflow/lite/kernels/internal\types.h **** template <int N>
 143:C:/Renesas/e2studio_2021_01_workspace_RZA2M_ANPR/ANPR_RZA2M_GR_MANGO/src/tensorflow_lite/tensorflow/lite/kernels/internal\types.h **** struct Dims {
 144:C:/Renesas/e2studio_2021_01_workspace_RZA2M_ANPR/ANPR_RZA2M_GR_MANGO/src/tensorflow_lite/tensorflow/lite/kernels/internal\types.h ****   int sizes[N];
 145:C:/Renesas/e2studio_2021_01_workspace_RZA2M_ANPR/ANPR_RZA2M_GR_MANGO/src/tensorflow_lite/tensorflow/lite/kernels/internal\types.h ****   int strides[N];
 146:C:/Renesas/e2studio_2021_01_workspace_RZA2M_ANPR/ANPR_RZA2M_GR_MANGO/src/tensorflow_lite/tensorflow/lite/kernels/internal\types.h **** };
 147:C:/Renesas/e2studio_2021_01_workspace_RZA2M_ANPR/ANPR_RZA2M_GR_MANGO/src/tensorflow_lite/tensorflow/lite/kernels/internal\types.h **** 
 148:C:/Renesas/e2studio_2021_01_workspace_RZA2M_ANPR/ANPR_RZA2M_GR_MANGO/src/tensorflow_lite/tensorflow/lite/kernels/internal\types.h **** class RuntimeShape {
 149:C:/Renesas/e2studio_2021_01_workspace_RZA2M_ANPR/ANPR_RZA2M_GR_MANGO/src/tensorflow_lite/tensorflow/lite/kernels/internal\types.h ****  public:
 150:C:/Renesas/e2studio_2021_01_workspace_RZA2M_ANPR/ANPR_RZA2M_GR_MANGO/src/tensorflow_lite/tensorflow/lite/kernels/internal\types.h ****   // Shapes with dimensions up to 5 are stored directly in the structure, while
 151:C:/Renesas/e2studio_2021_01_workspace_RZA2M_ANPR/ANPR_RZA2M_GR_MANGO/src/tensorflow_lite/tensorflow/lite/kernels/internal\types.h ****   // larger shapes are separately allocated.
 152:C:/Renesas/e2studio_2021_01_workspace_RZA2M_ANPR/ANPR_RZA2M_GR_MANGO/src/tensorflow_lite/tensorflow/lite/kernels/internal\types.h ****   static constexpr int kMaxSmallSize = 5;
 153:C:/Renesas/e2studio_2021_01_workspace_RZA2M_ANPR/ANPR_RZA2M_GR_MANGO/src/tensorflow_lite/tensorflow/lite/kernels/internal\types.h **** 
 154:C:/Renesas/e2studio_2021_01_workspace_RZA2M_ANPR/ANPR_RZA2M_GR_MANGO/src/tensorflow_lite/tensorflow/lite/kernels/internal\types.h ****   RuntimeShape& operator=(RuntimeShape const&) = delete;
 155:C:/Renesas/e2studio_2021_01_workspace_RZA2M_ANPR/ANPR_RZA2M_GR_MANGO/src/tensorflow_lite/tensorflow/lite/kernels/internal\types.h **** 
 156:C:/Renesas/e2studio_2021_01_workspace_RZA2M_ANPR/ANPR_RZA2M_GR_MANGO/src/tensorflow_lite/tensorflow/lite/kernels/internal\types.h ****   RuntimeShape() : size_(0) {}
 157:C:/Renesas/e2studio_2021_01_workspace_RZA2M_ANPR/ANPR_RZA2M_GR_MANGO/src/tensorflow_lite/tensorflow/lite/kernels/internal\types.h **** 
 158:C:/Renesas/e2studio_2021_01_workspace_RZA2M_ANPR/ANPR_RZA2M_GR_MANGO/src/tensorflow_lite/tensorflow/lite/kernels/internal\types.h ****   explicit RuntimeShape(int dimensions_count) : size_(dimensions_count) {
 159:C:/Renesas/e2studio_2021_01_workspace_RZA2M_ANPR/ANPR_RZA2M_GR_MANGO/src/tensorflow_lite/tensorflow/lite/kernels/internal\types.h ****     if (dimensions_count > kMaxSmallSize) {
 160:C:/Renesas/e2studio_2021_01_workspace_RZA2M_ANPR/ANPR_RZA2M_GR_MANGO/src/tensorflow_lite/tensorflow/lite/kernels/internal\types.h **** #ifdef TF_LITE_STATIC_MEMORY
 161:C:/Renesas/e2studio_2021_01_workspace_RZA2M_ANPR/ANPR_RZA2M_GR_MANGO/src/tensorflow_lite/tensorflow/lite/kernels/internal\types.h ****       TFLITE_CHECK(false && "No shape resizing supported on this platform");
 162:C:/Renesas/e2studio_2021_01_workspace_RZA2M_ANPR/ANPR_RZA2M_GR_MANGO/src/tensorflow_lite/tensorflow/lite/kernels/internal\types.h **** #else  // TF_LITE_STATIC_MEMORY
 163:C:/Renesas/e2studio_2021_01_workspace_RZA2M_ANPR/ANPR_RZA2M_GR_MANGO/src/tensorflow_lite/tensorflow/lite/kernels/internal\types.h ****       dims_pointer_ = new int32_t[dimensions_count];
 164:C:/Renesas/e2studio_2021_01_workspace_RZA2M_ANPR/ANPR_RZA2M_GR_MANGO/src/tensorflow_lite/tensorflow/lite/kernels/internal\types.h **** #endif  // TF_LITE_STATIC_MEMORY
 165:C:/Renesas/e2studio_2021_01_workspace_RZA2M_ANPR/ANPR_RZA2M_GR_MANGO/src/tensorflow_lite/tensorflow/lite/kernels/internal\types.h ****     }
 166:C:/Renesas/e2studio_2021_01_workspace_RZA2M_ANPR/ANPR_RZA2M_GR_MANGO/src/tensorflow_lite/tensorflow/lite/kernels/internal\types.h ****   }
 167:C:/Renesas/e2studio_2021_01_workspace_RZA2M_ANPR/ANPR_RZA2M_GR_MANGO/src/tensorflow_lite/tensorflow/lite/kernels/internal\types.h **** 
 168:C:/Renesas/e2studio_2021_01_workspace_RZA2M_ANPR/ANPR_RZA2M_GR_MANGO/src/tensorflow_lite/tensorflow/lite/kernels/internal\types.h ****   RuntimeShape(int shape_size, int32_t value) : size_(0) {
 169:C:/Renesas/e2studio_2021_01_workspace_RZA2M_ANPR/ANPR_RZA2M_GR_MANGO/src/tensorflow_lite/tensorflow/lite/kernels/internal\types.h ****     Resize(shape_size);
 170:C:/Renesas/e2studio_2021_01_workspace_RZA2M_ANPR/ANPR_RZA2M_GR_MANGO/src/tensorflow_lite/tensorflow/lite/kernels/internal\types.h ****     for (int i = 0; i < shape_size; ++i) {
 171:C:/Renesas/e2studio_2021_01_workspace_RZA2M_ANPR/ANPR_RZA2M_GR_MANGO/src/tensorflow_lite/tensorflow/lite/kernels/internal\types.h ****       SetDim(i, value);
 172:C:/Renesas/e2studio_2021_01_workspace_RZA2M_ANPR/ANPR_RZA2M_GR_MANGO/src/tensorflow_lite/tensorflow/lite/kernels/internal\types.h ****     }
 173:C:/Renesas/e2studio_2021_01_workspace_RZA2M_ANPR/ANPR_RZA2M_GR_MANGO/src/tensorflow_lite/tensorflow/lite/kernels/internal\types.h ****   }
 174:C:/Renesas/e2studio_2021_01_workspace_RZA2M_ANPR/ANPR_RZA2M_GR_MANGO/src/tensorflow_lite/tensorflow/lite/kernels/internal\types.h **** 
 175:C:/Renesas/e2studio_2021_01_workspace_RZA2M_ANPR/ANPR_RZA2M_GR_MANGO/src/tensorflow_lite/tensorflow/lite/kernels/internal\types.h ****   RuntimeShape(int dimensions_count, const int32_t* dims_data) : size_(0) {
 176:C:/Renesas/e2studio_2021_01_workspace_RZA2M_ANPR/ANPR_RZA2M_GR_MANGO/src/tensorflow_lite/tensorflow/lite/kernels/internal\types.h ****     ReplaceWith(dimensions_count, dims_data);
 177:C:/Renesas/e2studio_2021_01_workspace_RZA2M_ANPR/ANPR_RZA2M_GR_MANGO/src/tensorflow_lite/tensorflow/lite/kernels/internal\types.h ****   }
 178:C:/Renesas/e2studio_2021_01_workspace_RZA2M_ANPR/ANPR_RZA2M_GR_MANGO/src/tensorflow_lite/tensorflow/lite/kernels/internal\types.h **** 
 179:C:/Renesas/e2studio_2021_01_workspace_RZA2M_ANPR/ANPR_RZA2M_GR_MANGO/src/tensorflow_lite/tensorflow/lite/kernels/internal\types.h ****   RuntimeShape(const std::initializer_list<int> init_list) : size_(0) {
 180:C:/Renesas/e2studio_2021_01_workspace_RZA2M_ANPR/ANPR_RZA2M_GR_MANGO/src/tensorflow_lite/tensorflow/lite/kernels/internal\types.h ****     BuildFrom(init_list);
 181:C:/Renesas/e2studio_2021_01_workspace_RZA2M_ANPR/ANPR_RZA2M_GR_MANGO/src/tensorflow_lite/tensorflow/lite/kernels/internal\types.h ****   }
 182:C:/Renesas/e2studio_2021_01_workspace_RZA2M_ANPR/ANPR_RZA2M_GR_MANGO/src/tensorflow_lite/tensorflow/lite/kernels/internal\types.h **** 
 183:C:/Renesas/e2studio_2021_01_workspace_RZA2M_ANPR/ANPR_RZA2M_GR_MANGO/src/tensorflow_lite/tensorflow/lite/kernels/internal\types.h ****   // Avoid using this constructor.  We should be able to delete it when C++17
 184:C:/Renesas/e2studio_2021_01_workspace_RZA2M_ANPR/ANPR_RZA2M_GR_MANGO/src/tensorflow_lite/tensorflow/lite/kernels/internal\types.h ****   // rolls out.
 185:C:/Renesas/e2studio_2021_01_workspace_RZA2M_ANPR/ANPR_RZA2M_GR_MANGO/src/tensorflow_lite/tensorflow/lite/kernels/internal\types.h ****   RuntimeShape(RuntimeShape const& other) : size_(other.DimensionsCount()) {
 186:C:/Renesas/e2studio_2021_01_workspace_RZA2M_ANPR/ANPR_RZA2M_GR_MANGO/src/tensorflow_lite/tensorflow/lite/kernels/internal\types.h ****     if (size_ > kMaxSmallSize) {
 187:C:/Renesas/e2studio_2021_01_workspace_RZA2M_ANPR/ANPR_RZA2M_GR_MANGO/src/tensorflow_lite/tensorflow/lite/kernels/internal\types.h **** #ifdef TF_LITE_STATIC_MEMORY
 188:C:/Renesas/e2studio_2021_01_workspace_RZA2M_ANPR/ANPR_RZA2M_GR_MANGO/src/tensorflow_lite/tensorflow/lite/kernels/internal\types.h ****       TFLITE_CHECK(false && "No shape resizing supported on this platform");
 189:C:/Renesas/e2studio_2021_01_workspace_RZA2M_ANPR/ANPR_RZA2M_GR_MANGO/src/tensorflow_lite/tensorflow/lite/kernels/internal\types.h **** #else
 190:C:/Renesas/e2studio_2021_01_workspace_RZA2M_ANPR/ANPR_RZA2M_GR_MANGO/src/tensorflow_lite/tensorflow/lite/kernels/internal\types.h ****       dims_pointer_ = new int32_t[size_];
 191:C:/Renesas/e2studio_2021_01_workspace_RZA2M_ANPR/ANPR_RZA2M_GR_MANGO/src/tensorflow_lite/tensorflow/lite/kernels/internal\types.h **** #endif
 192:C:/Renesas/e2studio_2021_01_workspace_RZA2M_ANPR/ANPR_RZA2M_GR_MANGO/src/tensorflow_lite/tensorflow/lite/kernels/internal\types.h ****     }
 193:C:/Renesas/e2studio_2021_01_workspace_RZA2M_ANPR/ANPR_RZA2M_GR_MANGO/src/tensorflow_lite/tensorflow/lite/kernels/internal\types.h ****     std::memcpy(DimsData(), other.DimsData(), sizeof(int32_t) * size_);
 194:C:/Renesas/e2studio_2021_01_workspace_RZA2M_ANPR/ANPR_RZA2M_GR_MANGO/src/tensorflow_lite/tensorflow/lite/kernels/internal\types.h ****   }
 195:C:/Renesas/e2studio_2021_01_workspace_RZA2M_ANPR/ANPR_RZA2M_GR_MANGO/src/tensorflow_lite/tensorflow/lite/kernels/internal\types.h **** 
 196:C:/Renesas/e2studio_2021_01_workspace_RZA2M_ANPR/ANPR_RZA2M_GR_MANGO/src/tensorflow_lite/tensorflow/lite/kernels/internal\types.h ****   bool operator==(const RuntimeShape& comp) const {
 197:C:/Renesas/e2studio_2021_01_workspace_RZA2M_ANPR/ANPR_RZA2M_GR_MANGO/src/tensorflow_lite/tensorflow/lite/kernels/internal\types.h ****     return this->size_ == comp.size_ &&
 198:C:/Renesas/e2studio_2021_01_workspace_RZA2M_ANPR/ANPR_RZA2M_GR_MANGO/src/tensorflow_lite/tensorflow/lite/kernels/internal\types.h ****            std::memcmp(DimsData(), comp.DimsData(), size_ * sizeof(int32_t)) ==
 199:C:/Renesas/e2studio_2021_01_workspace_RZA2M_ANPR/ANPR_RZA2M_GR_MANGO/src/tensorflow_lite/tensorflow/lite/kernels/internal\types.h ****                0;
 200:C:/Renesas/e2studio_2021_01_workspace_RZA2M_ANPR/ANPR_RZA2M_GR_MANGO/src/tensorflow_lite/tensorflow/lite/kernels/internal\types.h ****   }
 201:C:/Renesas/e2studio_2021_01_workspace_RZA2M_ANPR/ANPR_RZA2M_GR_MANGO/src/tensorflow_lite/tensorflow/lite/kernels/internal\types.h **** 
 202:C:/Renesas/e2studio_2021_01_workspace_RZA2M_ANPR/ANPR_RZA2M_GR_MANGO/src/tensorflow_lite/tensorflow/lite/kernels/internal\types.h ****   ~RuntimeShape() {
 203:C:/Renesas/e2studio_2021_01_workspace_RZA2M_ANPR/ANPR_RZA2M_GR_MANGO/src/tensorflow_lite/tensorflow/lite/kernels/internal\types.h ****     if (size_ > kMaxSmallSize) {
 204:C:/Renesas/e2studio_2021_01_workspace_RZA2M_ANPR/ANPR_RZA2M_GR_MANGO/src/tensorflow_lite/tensorflow/lite/kernels/internal\types.h **** #ifdef TF_LITE_STATIC_MEMORY
 205:C:/Renesas/e2studio_2021_01_workspace_RZA2M_ANPR/ANPR_RZA2M_GR_MANGO/src/tensorflow_lite/tensorflow/lite/kernels/internal\types.h ****       TFLITE_CHECK(false && "No shape resizing supported on this platform");
 206:C:/Renesas/e2studio_2021_01_workspace_RZA2M_ANPR/ANPR_RZA2M_GR_MANGO/src/tensorflow_lite/tensorflow/lite/kernels/internal\types.h **** #else  // TF_LITE_STATIC_MEMORY
 207:C:/Renesas/e2studio_2021_01_workspace_RZA2M_ANPR/ANPR_RZA2M_GR_MANGO/src/tensorflow_lite/tensorflow/lite/kernels/internal\types.h ****       delete[] dims_pointer_;
 208:C:/Renesas/e2studio_2021_01_workspace_RZA2M_ANPR/ANPR_RZA2M_GR_MANGO/src/tensorflow_lite/tensorflow/lite/kernels/internal\types.h **** #endif  // TF_LITE_STATIC_MEMORY
 209:C:/Renesas/e2studio_2021_01_workspace_RZA2M_ANPR/ANPR_RZA2M_GR_MANGO/src/tensorflow_lite/tensorflow/lite/kernels/internal\types.h ****     }
 210:C:/Renesas/e2studio_2021_01_workspace_RZA2M_ANPR/ANPR_RZA2M_GR_MANGO/src/tensorflow_lite/tensorflow/lite/kernels/internal\types.h ****   }
 211:C:/Renesas/e2studio_2021_01_workspace_RZA2M_ANPR/ANPR_RZA2M_GR_MANGO/src/tensorflow_lite/tensorflow/lite/kernels/internal\types.h **** 
 212:C:/Renesas/e2studio_2021_01_workspace_RZA2M_ANPR/ANPR_RZA2M_GR_MANGO/src/tensorflow_lite/tensorflow/lite/kernels/internal\types.h ****   inline int32_t DimensionsCount() const { return size_; }
 213:C:/Renesas/e2studio_2021_01_workspace_RZA2M_ANPR/ANPR_RZA2M_GR_MANGO/src/tensorflow_lite/tensorflow/lite/kernels/internal\types.h ****   inline int32_t Dims(int i) const {
 214:C:/Renesas/e2studio_2021_01_workspace_RZA2M_ANPR/ANPR_RZA2M_GR_MANGO/src/tensorflow_lite/tensorflow/lite/kernels/internal\types.h ****     TFLITE_DCHECK_GE(i, 0);
 215:C:/Renesas/e2studio_2021_01_workspace_RZA2M_ANPR/ANPR_RZA2M_GR_MANGO/src/tensorflow_lite/tensorflow/lite/kernels/internal\types.h ****     TFLITE_DCHECK_LT(i, size_);
 216:C:/Renesas/e2studio_2021_01_workspace_RZA2M_ANPR/ANPR_RZA2M_GR_MANGO/src/tensorflow_lite/tensorflow/lite/kernels/internal\types.h ****     return size_ > kMaxSmallSize ? dims_pointer_[i] : dims_[i];
 217:C:/Renesas/e2studio_2021_01_workspace_RZA2M_ANPR/ANPR_RZA2M_GR_MANGO/src/tensorflow_lite/tensorflow/lite/kernels/internal\types.h ****   }
 218:C:/Renesas/e2studio_2021_01_workspace_RZA2M_ANPR/ANPR_RZA2M_GR_MANGO/src/tensorflow_lite/tensorflow/lite/kernels/internal\types.h ****   inline void SetDim(int i, int32_t val) {
 219:C:/Renesas/e2studio_2021_01_workspace_RZA2M_ANPR/ANPR_RZA2M_GR_MANGO/src/tensorflow_lite/tensorflow/lite/kernels/internal\types.h ****     TFLITE_DCHECK_GE(i, 0);
 220:C:/Renesas/e2studio_2021_01_workspace_RZA2M_ANPR/ANPR_RZA2M_GR_MANGO/src/tensorflow_lite/tensorflow/lite/kernels/internal\types.h ****     TFLITE_DCHECK_LT(i, size_);
 221:C:/Renesas/e2studio_2021_01_workspace_RZA2M_ANPR/ANPR_RZA2M_GR_MANGO/src/tensorflow_lite/tensorflow/lite/kernels/internal\types.h ****     if (size_ > kMaxSmallSize) {
 222:C:/Renesas/e2studio_2021_01_workspace_RZA2M_ANPR/ANPR_RZA2M_GR_MANGO/src/tensorflow_lite/tensorflow/lite/kernels/internal\types.h ****       dims_pointer_[i] = val;
 223:C:/Renesas/e2studio_2021_01_workspace_RZA2M_ANPR/ANPR_RZA2M_GR_MANGO/src/tensorflow_lite/tensorflow/lite/kernels/internal\types.h ****     } else {
 224:C:/Renesas/e2studio_2021_01_workspace_RZA2M_ANPR/ANPR_RZA2M_GR_MANGO/src/tensorflow_lite/tensorflow/lite/kernels/internal\types.h ****       dims_[i] = val;
 225:C:/Renesas/e2studio_2021_01_workspace_RZA2M_ANPR/ANPR_RZA2M_GR_MANGO/src/tensorflow_lite/tensorflow/lite/kernels/internal\types.h ****     }
 226:C:/Renesas/e2studio_2021_01_workspace_RZA2M_ANPR/ANPR_RZA2M_GR_MANGO/src/tensorflow_lite/tensorflow/lite/kernels/internal\types.h ****   }
 227:C:/Renesas/e2studio_2021_01_workspace_RZA2M_ANPR/ANPR_RZA2M_GR_MANGO/src/tensorflow_lite/tensorflow/lite/kernels/internal\types.h **** 
 228:C:/Renesas/e2studio_2021_01_workspace_RZA2M_ANPR/ANPR_RZA2M_GR_MANGO/src/tensorflow_lite/tensorflow/lite/kernels/internal\types.h ****   inline int32_t* DimsData() {
 229:C:/Renesas/e2studio_2021_01_workspace_RZA2M_ANPR/ANPR_RZA2M_GR_MANGO/src/tensorflow_lite/tensorflow/lite/kernels/internal\types.h ****     return size_ > kMaxSmallSize ? dims_pointer_ : dims_;
 230:C:/Renesas/e2studio_2021_01_workspace_RZA2M_ANPR/ANPR_RZA2M_GR_MANGO/src/tensorflow_lite/tensorflow/lite/kernels/internal\types.h ****   }
 231:C:/Renesas/e2studio_2021_01_workspace_RZA2M_ANPR/ANPR_RZA2M_GR_MANGO/src/tensorflow_lite/tensorflow/lite/kernels/internal\types.h ****   inline const int32_t* DimsData() const {
 232:C:/Renesas/e2studio_2021_01_workspace_RZA2M_ANPR/ANPR_RZA2M_GR_MANGO/src/tensorflow_lite/tensorflow/lite/kernels/internal\types.h ****     return size_ > kMaxSmallSize ? dims_pointer_ : dims_;
 233:C:/Renesas/e2studio_2021_01_workspace_RZA2M_ANPR/ANPR_RZA2M_GR_MANGO/src/tensorflow_lite/tensorflow/lite/kernels/internal\types.h ****   }
 234:C:/Renesas/e2studio_2021_01_workspace_RZA2M_ANPR/ANPR_RZA2M_GR_MANGO/src/tensorflow_lite/tensorflow/lite/kernels/internal\types.h ****   // The caller must ensure that the shape is no bigger than 5-D.
 235:C:/Renesas/e2studio_2021_01_workspace_RZA2M_ANPR/ANPR_RZA2M_GR_MANGO/src/tensorflow_lite/tensorflow/lite/kernels/internal\types.h ****   inline const int32_t* DimsDataUpTo5D() const { return dims_; }
 236:C:/Renesas/e2studio_2021_01_workspace_RZA2M_ANPR/ANPR_RZA2M_GR_MANGO/src/tensorflow_lite/tensorflow/lite/kernels/internal\types.h **** 
 237:C:/Renesas/e2studio_2021_01_workspace_RZA2M_ANPR/ANPR_RZA2M_GR_MANGO/src/tensorflow_lite/tensorflow/lite/kernels/internal\types.h ****   inline void Resize(int dimensions_count) {
 238:C:/Renesas/e2studio_2021_01_workspace_RZA2M_ANPR/ANPR_RZA2M_GR_MANGO/src/tensorflow_lite/tensorflow/lite/kernels/internal\types.h ****     if (size_ > kMaxSmallSize) {
 239:C:/Renesas/e2studio_2021_01_workspace_RZA2M_ANPR/ANPR_RZA2M_GR_MANGO/src/tensorflow_lite/tensorflow/lite/kernels/internal\types.h **** #ifdef TF_LITE_STATIC_MEMORY
 240:C:/Renesas/e2studio_2021_01_workspace_RZA2M_ANPR/ANPR_RZA2M_GR_MANGO/src/tensorflow_lite/tensorflow/lite/kernels/internal\types.h ****       TFLITE_CHECK(false && "No shape resizing supported on this platform");
 241:C:/Renesas/e2studio_2021_01_workspace_RZA2M_ANPR/ANPR_RZA2M_GR_MANGO/src/tensorflow_lite/tensorflow/lite/kernels/internal\types.h **** #else  // TF_LITE_STATIC_MEMORY
 242:C:/Renesas/e2studio_2021_01_workspace_RZA2M_ANPR/ANPR_RZA2M_GR_MANGO/src/tensorflow_lite/tensorflow/lite/kernels/internal\types.h ****       delete[] dims_pointer_;
 243:C:/Renesas/e2studio_2021_01_workspace_RZA2M_ANPR/ANPR_RZA2M_GR_MANGO/src/tensorflow_lite/tensorflow/lite/kernels/internal\types.h **** #endif  // TF_LITE_STATIC_MEMORY
 244:C:/Renesas/e2studio_2021_01_workspace_RZA2M_ANPR/ANPR_RZA2M_GR_MANGO/src/tensorflow_lite/tensorflow/lite/kernels/internal\types.h ****     }
 245:C:/Renesas/e2studio_2021_01_workspace_RZA2M_ANPR/ANPR_RZA2M_GR_MANGO/src/tensorflow_lite/tensorflow/lite/kernels/internal\types.h ****     size_ = dimensions_count;
 246:C:/Renesas/e2studio_2021_01_workspace_RZA2M_ANPR/ANPR_RZA2M_GR_MANGO/src/tensorflow_lite/tensorflow/lite/kernels/internal\types.h ****     if (dimensions_count > kMaxSmallSize) {
 443              		.loc 4 246 0
 444 02dc 050052E3 		cmp	r2, #5
 245:C:/Renesas/e2studio_2021_01_workspace_RZA2M_ANPR/ANPR_RZA2M_GR_MANGO/src/tensorflow_lite/tensorflow/lite/kernels/internal\types.h ****     if (dimensions_count > kMaxSmallSize) {
 445              		.loc 4 245 0
 446 02e0 74208DE5 		str	r2, [sp, #116]
 447              		.loc 4 246 0
 448 02e4 6A0000DA 		ble	.L21
 247:C:/Renesas/e2studio_2021_01_workspace_RZA2M_ANPR/ANPR_RZA2M_GR_MANGO/src/tensorflow_lite/tensorflow/lite/kernels/internal\types.h **** #ifdef TF_LITE_STATIC_MEMORY
 248:C:/Renesas/e2studio_2021_01_workspace_RZA2M_ANPR/ANPR_RZA2M_GR_MANGO/src/tensorflow_lite/tensorflow/lite/kernels/internal\types.h ****       TFLITE_CHECK(false && "No shape resizing supported on this platform");
 249:C:/Renesas/e2studio_2021_01_workspace_RZA2M_ANPR/ANPR_RZA2M_GR_MANGO/src/tensorflow_lite/tensorflow/lite/kernels/internal\types.h **** #else  // TF_LITE_STATIC_MEMORY
 250:C:/Renesas/e2studio_2021_01_workspace_RZA2M_ANPR/ANPR_RZA2M_GR_MANGO/src/tensorflow_lite/tensorflow/lite/kernels/internal\types.h ****       dims_pointer_ = new int32_t[dimensions_count];
 449              		.loc 4 250 0
 450 02e8 2E0272E3 		cmn	r2, #-536870910
 451 02ec AA0000CA 		bgt	.L22
 452 02f0 0271A0E1 		lsl	r7, r2, #2
 453              	.LVL45:
 454 02f4 0700A0E1 		mov	r0, r7
 455 02f8 FEFFFFEB 		bl	_Znaj
 456              	.LVL46:
 457              	.LEHE0:
 458 02fc 78008DE5 		str	r0, [sp, #120]
 459              	.LVL47:
 460              	.L23:
 461              	.LBE487:
 462              	.LBE486:
 251:C:/Renesas/e2studio_2021_01_workspace_RZA2M_ANPR/ANPR_RZA2M_GR_MANGO/src/tensorflow_lite/tensorflow/lite/kernels/internal\types.h **** #endif  // TF_LITE_STATIC_MEMORY
 252:C:/Renesas/e2studio_2021_01_workspace_RZA2M_ANPR/ANPR_RZA2M_GR_MANGO/src/tensorflow_lite/tensorflow/lite/kernels/internal\types.h ****     }
 253:C:/Renesas/e2studio_2021_01_workspace_RZA2M_ANPR/ANPR_RZA2M_GR_MANGO/src/tensorflow_lite/tensorflow/lite/kernels/internal\types.h ****   }
 254:C:/Renesas/e2studio_2021_01_workspace_RZA2M_ANPR/ANPR_RZA2M_GR_MANGO/src/tensorflow_lite/tensorflow/lite/kernels/internal\types.h **** 
 255:C:/Renesas/e2studio_2021_01_workspace_RZA2M_ANPR/ANPR_RZA2M_GR_MANGO/src/tensorflow_lite/tensorflow/lite/kernels/internal\types.h ****   inline void ReplaceWith(int dimensions_count, const int32_t* dims_data) {
 256:C:/Renesas/e2studio_2021_01_workspace_RZA2M_ANPR/ANPR_RZA2M_GR_MANGO/src/tensorflow_lite/tensorflow/lite/kernels/internal\types.h ****     Resize(dimensions_count);
 257:C:/Renesas/e2studio_2021_01_workspace_RZA2M_ANPR/ANPR_RZA2M_GR_MANGO/src/tensorflow_lite/tensorflow/lite/kernels/internal\types.h ****     int32_t* dst_dims = DimsData();
 258:C:/Renesas/e2studio_2021_01_workspace_RZA2M_ANPR/ANPR_RZA2M_GR_MANGO/src/tensorflow_lite/tensorflow/lite/kernels/internal\types.h ****     std::memcpy(dst_dims, dims_data, dimensions_count * sizeof(int32_t));
 463              		.loc 4 258 0
 464 0300 0720A0E1 		mov	r2, r7
 465 0304 041085E2 		add	r1, r5, #4
 466 0308 FEFFFFEB 		bl	memcpy
 467              	.LVL48:
 468              	.LBE485:
 469              	.LBE484:
 470              	.LBE483:
 471              	.LBE482:
 472              	.LBE481:
 473              	.LBB500:
 474              	.LBB501:
  39:C:/Renesas/e2studio_2021_01_workspace_RZA2M_ANPR/ANPR_RZA2M_GR_MANGO/src/tensorflow_lite/tensorflow/lite/kernels/internal\tensor_ctypes.h ****   const int dims_size = dims->size;
 475              		.loc 3 39 0
 476 030c 24309DE5 		ldr	r3, [sp, #36]
 477 0310 087093E5 		ldr	r7, [r3, #8]
 478              	.LVL49:
 479              		.loc 3 40 0
 480 0314 005097E5 		ldr	r5, [r7]
 481              	.LVL50:
 482              	.LBB502:
 483              	.LBB503:
 484              	.LBB504:
 485              	.LBB505:
 486              	.LBB506:
 246:C:/Renesas/e2studio_2021_01_workspace_RZA2M_ANPR/ANPR_RZA2M_GR_MANGO/src/tensorflow_lite/tensorflow/lite/kernels/internal\types.h **** #ifdef TF_LITE_STATIC_MEMORY
 487              		.loc 4 246 0
 488 0318 050055E3 		cmp	r5, #5
 245:C:/Renesas/e2studio_2021_01_workspace_RZA2M_ANPR/ANPR_RZA2M_GR_MANGO/src/tensorflow_lite/tensorflow/lite/kernels/internal\types.h ****     if (dimensions_count > kMaxSmallSize) {
 489              		.loc 4 245 0
 490 031c 8C508DE5 		str	r5, [sp, #140]
 246:C:/Renesas/e2studio_2021_01_workspace_RZA2M_ANPR/ANPR_RZA2M_GR_MANGO/src/tensorflow_lite/tensorflow/lite/kernels/internal\types.h **** #ifdef TF_LITE_STATIC_MEMORY
 491              		.loc 4 246 0
 492 0320 780000DA 		ble	.L24
 250:C:/Renesas/e2studio_2021_01_workspace_RZA2M_ANPR/ANPR_RZA2M_GR_MANGO/src/tensorflow_lite/tensorflow/lite/kernels/internal\types.h **** #endif  // TF_LITE_STATIC_MEMORY
 493              		.loc 4 250 0
 494 0324 2E0275E3 		cmn	r5, #-536870910
 495 0328 A40000CA 		bgt	.L25
 496 032c 0551A0E1 		lsl	r5, r5, #2
 497              	.LVL51:
 498 0330 0500A0E1 		mov	r0, r5
 499              	.LEHB1:
 500 0334 FEFFFFEB 		bl	_Znaj
 501              	.LVL52:
 502              	.LEHE1:
 503 0338 90008DE5 		str	r0, [sp, #144]
 504              	.LVL53:
 505              	.L26:
 506              	.LBE506:
 507              	.LBE505:
 508              		.loc 4 258 0
 509 033c 0520A0E1 		mov	r2, r5
 510 0340 041087E2 		add	r1, r7, #4
 511 0344 FEFFFFEB 		bl	memcpy
 512              	.LVL54:
 513              	.LBE504:
 514              	.LBE503:
 515              	.LBE502:
 516              	.LBE501:
 517              	.LBE500:
 518              	.LBB519:
 519              	.LBB520:
  39:C:/Renesas/e2studio_2021_01_workspace_RZA2M_ANPR/ANPR_RZA2M_GR_MANGO/src/tensorflow_lite/tensorflow/lite/kernels/internal\tensor_ctypes.h ****   const int dims_size = dims->size;
 520              		.loc 3 39 0
 521 0348 087099E5 		ldr	r7, [r9, #8]
 522              	.LVL55:
 523              		.loc 3 40 0
 524 034c 005097E5 		ldr	r5, [r7]
 525              	.LVL56:
 526              	.LBB521:
 527              	.LBB522:
 528              	.LBB523:
 529              	.LBB524:
 530              	.LBB525:
 246:C:/Renesas/e2studio_2021_01_workspace_RZA2M_ANPR/ANPR_RZA2M_GR_MANGO/src/tensorflow_lite/tensorflow/lite/kernels/internal\types.h **** #ifdef TF_LITE_STATIC_MEMORY
 531              		.loc 4 246 0
 532 0350 050055E3 		cmp	r5, #5
 245:C:/Renesas/e2studio_2021_01_workspace_RZA2M_ANPR/ANPR_RZA2M_GR_MANGO/src/tensorflow_lite/tensorflow/lite/kernels/internal\types.h ****     if (dimensions_count > kMaxSmallSize) {
 533              		.loc 4 245 0
 534 0354 A4508DE5 		str	r5, [sp, #164]
 246:C:/Renesas/e2studio_2021_01_workspace_RZA2M_ANPR/ANPR_RZA2M_GR_MANGO/src/tensorflow_lite/tensorflow/lite/kernels/internal\types.h **** #ifdef TF_LITE_STATIC_MEMORY
 535              		.loc 4 246 0
 536 0358 7A0000DA 		ble	.L27
 250:C:/Renesas/e2studio_2021_01_workspace_RZA2M_ANPR/ANPR_RZA2M_GR_MANGO/src/tensorflow_lite/tensorflow/lite/kernels/internal\types.h **** #endif  // TF_LITE_STATIC_MEMORY
 537              		.loc 4 250 0
 538 035c 2E0275E3 		cmn	r5, #-536870910
 539 0360 8C0000CA 		bgt	.L28
 540 0364 0551A0E1 		lsl	r5, r5, #2
 541              	.LVL57:
 542 0368 0500A0E1 		mov	r0, r5
 543              	.LEHB2:
 544 036c FEFFFFEB 		bl	_Znaj
 545              	.LVL58:
 546              	.LEHE2:
 547 0370 A8008DE5 		str	r0, [sp, #168]
 548              	.LVL59:
 549              	.L29:
 550              	.LBE525:
 551              	.LBE524:
 552              		.loc 4 258 0
 553 0374 0520A0E1 		mov	r2, r5
 554 0378 041087E2 		add	r1, r7, #4
 555 037c FEFFFFEB 		bl	memcpy
 556              	.LVL60:
 557              	.LBE523:
 558              	.LBE522:
 559              	.LBE521:
 560              	.LBE520:
 561              	.LBE519:
 110:../src/tensorflow_lite/tensorflow/lite/micro/kernels/cmsis_nn/depthwise_conv.cc ****     TFLITE_DCHECK_EQ(filter_shape.DimensionsCount(), 4);
 562              		.loc 1 110 0
 563 0380 74309DE5 		ldr	r3, [sp, #116]
 564 0384 040053E3 		cmp	r3, #4
 565 0388 8D00001A 		bne	.L82
 566              	.LVL61:
 111:../src/tensorflow_lite/tensorflow/lite/micro/kernels/cmsis_nn/depthwise_conv.cc ****     TFLITE_DCHECK_EQ(output_shape.DimensionsCount(), 4);
 567              		.loc 1 111 0
 568 038c A4309DE5 		ldr	r3, [sp, #164]
 569 0390 040053E3 		cmp	r3, #4
 570 0394 A000001A 		bne	.L83
 571              	.LVL62:
 112:../src/tensorflow_lite/tensorflow/lite/micro/kernels/cmsis_nn/depthwise_conv.cc **** 
 572              		.loc 1 112 0
 573 0398 8C309DE5 		ldr	r3, [sp, #140]
 574 039c 040053E3 		cmp	r3, #4
 575 03a0 9C00001A 		bne	.L84
 576              	.LVL63:
 577              	.LBB538:
 578              	.LBB539:
 579              	.LBB540:
 580              	.LBB541:
 216:C:/Renesas/e2studio_2021_01_workspace_RZA2M_ANPR/ANPR_RZA2M_GR_MANGO/src/tensorflow_lite/tensorflow/lite/kernels/internal\types.h ****   }
 581              		.loc 4 216 0
 582 03a4 78C09DE5 		ldr	ip, [sp, #120]
 583              	.LVL64:
 584              	.LBE541:
 585              	.LBE540:
 259:C:/Renesas/e2studio_2021_01_workspace_RZA2M_ANPR/ANPR_RZA2M_GR_MANGO/src/tensorflow_lite/tensorflow/lite/kernels/internal\types.h ****   }
 260:C:/Renesas/e2studio_2021_01_workspace_RZA2M_ANPR/ANPR_RZA2M_GR_MANGO/src/tensorflow_lite/tensorflow/lite/kernels/internal\types.h **** 
 261:C:/Renesas/e2studio_2021_01_workspace_RZA2M_ANPR/ANPR_RZA2M_GR_MANGO/src/tensorflow_lite/tensorflow/lite/kernels/internal\types.h ****   template <typename T>
 262:C:/Renesas/e2studio_2021_01_workspace_RZA2M_ANPR/ANPR_RZA2M_GR_MANGO/src/tensorflow_lite/tensorflow/lite/kernels/internal\types.h ****   inline void BuildFrom(const T& src_iterable) {
 263:C:/Renesas/e2studio_2021_01_workspace_RZA2M_ANPR/ANPR_RZA2M_GR_MANGO/src/tensorflow_lite/tensorflow/lite/kernels/internal\types.h ****     const int dimensions_count =
 264:C:/Renesas/e2studio_2021_01_workspace_RZA2M_ANPR/ANPR_RZA2M_GR_MANGO/src/tensorflow_lite/tensorflow/lite/kernels/internal\types.h ****         std::distance(src_iterable.begin(), src_iterable.end());
 265:C:/Renesas/e2studio_2021_01_workspace_RZA2M_ANPR/ANPR_RZA2M_GR_MANGO/src/tensorflow_lite/tensorflow/lite/kernels/internal\types.h ****     Resize(dimensions_count);
 266:C:/Renesas/e2studio_2021_01_workspace_RZA2M_ANPR/ANPR_RZA2M_GR_MANGO/src/tensorflow_lite/tensorflow/lite/kernels/internal\types.h ****     int32_t* data = DimsData();
 267:C:/Renesas/e2studio_2021_01_workspace_RZA2M_ANPR/ANPR_RZA2M_GR_MANGO/src/tensorflow_lite/tensorflow/lite/kernels/internal\types.h ****     for (auto it : src_iterable) {
 268:C:/Renesas/e2studio_2021_01_workspace_RZA2M_ANPR/ANPR_RZA2M_GR_MANGO/src/tensorflow_lite/tensorflow/lite/kernels/internal\types.h ****       *data = it;
 269:C:/Renesas/e2studio_2021_01_workspace_RZA2M_ANPR/ANPR_RZA2M_GR_MANGO/src/tensorflow_lite/tensorflow/lite/kernels/internal\types.h ****       ++data;
 270:C:/Renesas/e2studio_2021_01_workspace_RZA2M_ANPR/ANPR_RZA2M_GR_MANGO/src/tensorflow_lite/tensorflow/lite/kernels/internal\types.h ****     }
 271:C:/Renesas/e2studio_2021_01_workspace_RZA2M_ANPR/ANPR_RZA2M_GR_MANGO/src/tensorflow_lite/tensorflow/lite/kernels/internal\types.h ****   }
 272:C:/Renesas/e2studio_2021_01_workspace_RZA2M_ANPR/ANPR_RZA2M_GR_MANGO/src/tensorflow_lite/tensorflow/lite/kernels/internal\types.h **** 
 273:C:/Renesas/e2studio_2021_01_workspace_RZA2M_ANPR/ANPR_RZA2M_GR_MANGO/src/tensorflow_lite/tensorflow/lite/kernels/internal\types.h ****   // This will probably be factored out. Old code made substantial use of 4-D
 274:C:/Renesas/e2studio_2021_01_workspace_RZA2M_ANPR/ANPR_RZA2M_GR_MANGO/src/tensorflow_lite/tensorflow/lite/kernels/internal\types.h ****   // shapes, and so this function is used to extend smaller shapes. Note that
 275:C:/Renesas/e2studio_2021_01_workspace_RZA2M_ANPR/ANPR_RZA2M_GR_MANGO/src/tensorflow_lite/tensorflow/lite/kernels/internal\types.h ****   // (a) as Dims<4>-dependent code is eliminated, the reliance on this should be
 276:C:/Renesas/e2studio_2021_01_workspace_RZA2M_ANPR/ANPR_RZA2M_GR_MANGO/src/tensorflow_lite/tensorflow/lite/kernels/internal\types.h ****   // reduced, and (b) some kernels are stricly 4-D, but then the shapes of their
 277:C:/Renesas/e2studio_2021_01_workspace_RZA2M_ANPR/ANPR_RZA2M_GR_MANGO/src/tensorflow_lite/tensorflow/lite/kernels/internal\types.h ****   // inputs should already be 4-D, so this function should not be needed.
 278:C:/Renesas/e2studio_2021_01_workspace_RZA2M_ANPR/ANPR_RZA2M_GR_MANGO/src/tensorflow_lite/tensorflow/lite/kernels/internal\types.h ****   inline static RuntimeShape ExtendedShape(int new_shape_size,
 279:C:/Renesas/e2studio_2021_01_workspace_RZA2M_ANPR/ANPR_RZA2M_GR_MANGO/src/tensorflow_lite/tensorflow/lite/kernels/internal\types.h ****                                            const RuntimeShape& shape) {
 280:C:/Renesas/e2studio_2021_01_workspace_RZA2M_ANPR/ANPR_RZA2M_GR_MANGO/src/tensorflow_lite/tensorflow/lite/kernels/internal\types.h ****     return RuntimeShape(new_shape_size, shape, 1);
 281:C:/Renesas/e2studio_2021_01_workspace_RZA2M_ANPR/ANPR_RZA2M_GR_MANGO/src/tensorflow_lite/tensorflow/lite/kernels/internal\types.h ****   }
 282:C:/Renesas/e2studio_2021_01_workspace_RZA2M_ANPR/ANPR_RZA2M_GR_MANGO/src/tensorflow_lite/tensorflow/lite/kernels/internal\types.h **** 
 283:C:/Renesas/e2studio_2021_01_workspace_RZA2M_ANPR/ANPR_RZA2M_GR_MANGO/src/tensorflow_lite/tensorflow/lite/kernels/internal\types.h ****   inline void BuildFrom(const std::initializer_list<int> init_list) {
 284:C:/Renesas/e2studio_2021_01_workspace_RZA2M_ANPR/ANPR_RZA2M_GR_MANGO/src/tensorflow_lite/tensorflow/lite/kernels/internal\types.h ****     BuildFrom<const std::initializer_list<int>>(init_list);
 285:C:/Renesas/e2studio_2021_01_workspace_RZA2M_ANPR/ANPR_RZA2M_GR_MANGO/src/tensorflow_lite/tensorflow/lite/kernels/internal\types.h ****   }
 286:C:/Renesas/e2studio_2021_01_workspace_RZA2M_ANPR/ANPR_RZA2M_GR_MANGO/src/tensorflow_lite/tensorflow/lite/kernels/internal\types.h **** 
 287:C:/Renesas/e2studio_2021_01_workspace_RZA2M_ANPR/ANPR_RZA2M_GR_MANGO/src/tensorflow_lite/tensorflow/lite/kernels/internal\types.h ****   // Returns the total count of elements, that is the size when flattened into a
 288:C:/Renesas/e2studio_2021_01_workspace_RZA2M_ANPR/ANPR_RZA2M_GR_MANGO/src/tensorflow_lite/tensorflow/lite/kernels/internal\types.h ****   // vector.
 289:C:/Renesas/e2studio_2021_01_workspace_RZA2M_ANPR/ANPR_RZA2M_GR_MANGO/src/tensorflow_lite/tensorflow/lite/kernels/internal\types.h ****   inline int FlatSize() const {
 290:C:/Renesas/e2studio_2021_01_workspace_RZA2M_ANPR/ANPR_RZA2M_GR_MANGO/src/tensorflow_lite/tensorflow/lite/kernels/internal\types.h ****     int buffer_size = 1;
 291:C:/Renesas/e2studio_2021_01_workspace_RZA2M_ANPR/ANPR_RZA2M_GR_MANGO/src/tensorflow_lite/tensorflow/lite/kernels/internal\types.h ****     const int* dims_data = reinterpret_cast<const int*>(DimsData());
 292:C:/Renesas/e2studio_2021_01_workspace_RZA2M_ANPR/ANPR_RZA2M_GR_MANGO/src/tensorflow_lite/tensorflow/lite/kernels/internal\types.h ****     for (int i = 0; i < size_; i++) {
 293:C:/Renesas/e2studio_2021_01_workspace_RZA2M_ANPR/ANPR_RZA2M_GR_MANGO/src/tensorflow_lite/tensorflow/lite/kernels/internal\types.h ****       buffer_size *= dims_data[i];
 294:C:/Renesas/e2studio_2021_01_workspace_RZA2M_ANPR/ANPR_RZA2M_GR_MANGO/src/tensorflow_lite/tensorflow/lite/kernels/internal\types.h ****     }
 295:C:/Renesas/e2studio_2021_01_workspace_RZA2M_ANPR/ANPR_RZA2M_GR_MANGO/src/tensorflow_lite/tensorflow/lite/kernels/internal\types.h ****     return buffer_size;
 296:C:/Renesas/e2studio_2021_01_workspace_RZA2M_ANPR/ANPR_RZA2M_GR_MANGO/src/tensorflow_lite/tensorflow/lite/kernels/internal\types.h ****   }
 297:C:/Renesas/e2studio_2021_01_workspace_RZA2M_ANPR/ANPR_RZA2M_GR_MANGO/src/tensorflow_lite/tensorflow/lite/kernels/internal\types.h **** 
 298:C:/Renesas/e2studio_2021_01_workspace_RZA2M_ANPR/ANPR_RZA2M_GR_MANGO/src/tensorflow_lite/tensorflow/lite/kernels/internal\types.h ****   bool operator!=(const RuntimeShape& comp) const { return !((*this) == comp); }
 299:C:/Renesas/e2studio_2021_01_workspace_RZA2M_ANPR/ANPR_RZA2M_GR_MANGO/src/tensorflow_lite/tensorflow/lite/kernels/internal\types.h **** 
 300:C:/Renesas/e2studio_2021_01_workspace_RZA2M_ANPR/ANPR_RZA2M_GR_MANGO/src/tensorflow_lite/tensorflow/lite/kernels/internal\types.h ****  private:
 301:C:/Renesas/e2studio_2021_01_workspace_RZA2M_ANPR/ANPR_RZA2M_GR_MANGO/src/tensorflow_lite/tensorflow/lite/kernels/internal\types.h ****   // For use only by ExtendedShape(), written to guarantee (return-value) copy
 302:C:/Renesas/e2studio_2021_01_workspace_RZA2M_ANPR/ANPR_RZA2M_GR_MANGO/src/tensorflow_lite/tensorflow/lite/kernels/internal\types.h ****   // elision in C++17.
 303:C:/Renesas/e2studio_2021_01_workspace_RZA2M_ANPR/ANPR_RZA2M_GR_MANGO/src/tensorflow_lite/tensorflow/lite/kernels/internal\types.h ****   // This creates a shape padded to the desired size with the specified value.
 304:C:/Renesas/e2studio_2021_01_workspace_RZA2M_ANPR/ANPR_RZA2M_GR_MANGO/src/tensorflow_lite/tensorflow/lite/kernels/internal\types.h ****   RuntimeShape(int new_shape_size, const RuntimeShape& shape, int pad_value)
 305:C:/Renesas/e2studio_2021_01_workspace_RZA2M_ANPR/ANPR_RZA2M_GR_MANGO/src/tensorflow_lite/tensorflow/lite/kernels/internal\types.h ****       : size_(0) {
 306:C:/Renesas/e2studio_2021_01_workspace_RZA2M_ANPR/ANPR_RZA2M_GR_MANGO/src/tensorflow_lite/tensorflow/lite/kernels/internal\types.h ****     // If the following check fails, it is likely because a 4D-only kernel is
 307:C:/Renesas/e2studio_2021_01_workspace_RZA2M_ANPR/ANPR_RZA2M_GR_MANGO/src/tensorflow_lite/tensorflow/lite/kernels/internal\types.h ****     // being used with an array of larger dimension count.
 308:C:/Renesas/e2studio_2021_01_workspace_RZA2M_ANPR/ANPR_RZA2M_GR_MANGO/src/tensorflow_lite/tensorflow/lite/kernels/internal\types.h ****     TFLITE_CHECK_GE(new_shape_size, shape.DimensionsCount());
 309:C:/Renesas/e2studio_2021_01_workspace_RZA2M_ANPR/ANPR_RZA2M_GR_MANGO/src/tensorflow_lite/tensorflow/lite/kernels/internal\types.h ****     Resize(new_shape_size);
 310:C:/Renesas/e2studio_2021_01_workspace_RZA2M_ANPR/ANPR_RZA2M_GR_MANGO/src/tensorflow_lite/tensorflow/lite/kernels/internal\types.h ****     const int size_increase = new_shape_size - shape.DimensionsCount();
 311:C:/Renesas/e2studio_2021_01_workspace_RZA2M_ANPR/ANPR_RZA2M_GR_MANGO/src/tensorflow_lite/tensorflow/lite/kernels/internal\types.h ****     for (int i = 0; i < size_increase; ++i) {
 312:C:/Renesas/e2studio_2021_01_workspace_RZA2M_ANPR/ANPR_RZA2M_GR_MANGO/src/tensorflow_lite/tensorflow/lite/kernels/internal\types.h ****       SetDim(i, pad_value);
 313:C:/Renesas/e2studio_2021_01_workspace_RZA2M_ANPR/ANPR_RZA2M_GR_MANGO/src/tensorflow_lite/tensorflow/lite/kernels/internal\types.h ****     }
 314:C:/Renesas/e2studio_2021_01_workspace_RZA2M_ANPR/ANPR_RZA2M_GR_MANGO/src/tensorflow_lite/tensorflow/lite/kernels/internal\types.h ****     std::memcpy(DimsData() + size_increase, shape.DimsData(),
 315:C:/Renesas/e2studio_2021_01_workspace_RZA2M_ANPR/ANPR_RZA2M_GR_MANGO/src/tensorflow_lite/tensorflow/lite/kernels/internal\types.h ****                 sizeof(int32_t) * shape.DimensionsCount());
 316:C:/Renesas/e2studio_2021_01_workspace_RZA2M_ANPR/ANPR_RZA2M_GR_MANGO/src/tensorflow_lite/tensorflow/lite/kernels/internal\types.h ****   }
 317:C:/Renesas/e2studio_2021_01_workspace_RZA2M_ANPR/ANPR_RZA2M_GR_MANGO/src/tensorflow_lite/tensorflow/lite/kernels/internal\types.h **** 
 318:C:/Renesas/e2studio_2021_01_workspace_RZA2M_ANPR/ANPR_RZA2M_GR_MANGO/src/tensorflow_lite/tensorflow/lite/kernels/internal\types.h ****   int32_t size_;
 319:C:/Renesas/e2studio_2021_01_workspace_RZA2M_ANPR/ANPR_RZA2M_GR_MANGO/src/tensorflow_lite/tensorflow/lite/kernels/internal\types.h ****   union {
 320:C:/Renesas/e2studio_2021_01_workspace_RZA2M_ANPR/ANPR_RZA2M_GR_MANGO/src/tensorflow_lite/tensorflow/lite/kernels/internal\types.h ****     int32_t dims_[kMaxSmallSize];
 321:C:/Renesas/e2studio_2021_01_workspace_RZA2M_ANPR/ANPR_RZA2M_GR_MANGO/src/tensorflow_lite/tensorflow/lite/kernels/internal\types.h ****     int32_t* dims_pointer_;
 322:C:/Renesas/e2studio_2021_01_workspace_RZA2M_ANPR/ANPR_RZA2M_GR_MANGO/src/tensorflow_lite/tensorflow/lite/kernels/internal\types.h ****   };
 323:C:/Renesas/e2studio_2021_01_workspace_RZA2M_ANPR/ANPR_RZA2M_GR_MANGO/src/tensorflow_lite/tensorflow/lite/kernels/internal\types.h **** };
 324:C:/Renesas/e2studio_2021_01_workspace_RZA2M_ANPR/ANPR_RZA2M_GR_MANGO/src/tensorflow_lite/tensorflow/lite/kernels/internal\types.h **** 
 325:C:/Renesas/e2studio_2021_01_workspace_RZA2M_ANPR/ANPR_RZA2M_GR_MANGO/src/tensorflow_lite/tensorflow/lite/kernels/internal\types.h **** // Converts inference-style shape to legacy tflite::Dims<4>.
 326:C:/Renesas/e2studio_2021_01_workspace_RZA2M_ANPR/ANPR_RZA2M_GR_MANGO/src/tensorflow_lite/tensorflow/lite/kernels/internal\types.h **** inline tflite::Dims<4> ToRuntimeDims(const tflite::RuntimeShape& array_shape) {
 327:C:/Renesas/e2studio_2021_01_workspace_RZA2M_ANPR/ANPR_RZA2M_GR_MANGO/src/tensorflow_lite/tensorflow/lite/kernels/internal\types.h ****   tflite::Dims<4> result;
 328:C:/Renesas/e2studio_2021_01_workspace_RZA2M_ANPR/ANPR_RZA2M_GR_MANGO/src/tensorflow_lite/tensorflow/lite/kernels/internal\types.h ****   const int dimensions_count = array_shape.DimensionsCount();
 329:C:/Renesas/e2studio_2021_01_workspace_RZA2M_ANPR/ANPR_RZA2M_GR_MANGO/src/tensorflow_lite/tensorflow/lite/kernels/internal\types.h ****   TFLITE_CHECK_LE(dimensions_count, 4);
 330:C:/Renesas/e2studio_2021_01_workspace_RZA2M_ANPR/ANPR_RZA2M_GR_MANGO/src/tensorflow_lite/tensorflow/lite/kernels/internal\types.h ****   int cum_prod = 1;
 331:C:/Renesas/e2studio_2021_01_workspace_RZA2M_ANPR/ANPR_RZA2M_GR_MANGO/src/tensorflow_lite/tensorflow/lite/kernels/internal\types.h ****   for (int i = 0; i < 4; i++) {
 332:C:/Renesas/e2studio_2021_01_workspace_RZA2M_ANPR/ANPR_RZA2M_GR_MANGO/src/tensorflow_lite/tensorflow/lite/kernels/internal\types.h ****     const int new_dim =
 333:C:/Renesas/e2studio_2021_01_workspace_RZA2M_ANPR/ANPR_RZA2M_GR_MANGO/src/tensorflow_lite/tensorflow/lite/kernels/internal\types.h ****         (i < dimensions_count) ? array_shape.Dims(dimensions_count - 1 - i) : 1;
 334:C:/Renesas/e2studio_2021_01_workspace_RZA2M_ANPR/ANPR_RZA2M_GR_MANGO/src/tensorflow_lite/tensorflow/lite/kernels/internal\types.h ****     result.sizes[i] = new_dim;
 335:C:/Renesas/e2studio_2021_01_workspace_RZA2M_ANPR/ANPR_RZA2M_GR_MANGO/src/tensorflow_lite/tensorflow/lite/kernels/internal\types.h ****     result.strides[i] = cum_prod;
 336:C:/Renesas/e2studio_2021_01_workspace_RZA2M_ANPR/ANPR_RZA2M_GR_MANGO/src/tensorflow_lite/tensorflow/lite/kernels/internal\types.h ****     cum_prod *= new_dim;
 337:C:/Renesas/e2studio_2021_01_workspace_RZA2M_ANPR/ANPR_RZA2M_GR_MANGO/src/tensorflow_lite/tensorflow/lite/kernels/internal\types.h ****   }
 338:C:/Renesas/e2studio_2021_01_workspace_RZA2M_ANPR/ANPR_RZA2M_GR_MANGO/src/tensorflow_lite/tensorflow/lite/kernels/internal\types.h ****   return result;
 339:C:/Renesas/e2studio_2021_01_workspace_RZA2M_ANPR/ANPR_RZA2M_GR_MANGO/src/tensorflow_lite/tensorflow/lite/kernels/internal\types.h **** }
 340:C:/Renesas/e2studio_2021_01_workspace_RZA2M_ANPR/ANPR_RZA2M_GR_MANGO/src/tensorflow_lite/tensorflow/lite/kernels/internal\types.h **** 
 341:C:/Renesas/e2studio_2021_01_workspace_RZA2M_ANPR/ANPR_RZA2M_GR_MANGO/src/tensorflow_lite/tensorflow/lite/kernels/internal\types.h **** // TODO(b/80418076): Move to legacy ops file, update invocations.
 342:C:/Renesas/e2studio_2021_01_workspace_RZA2M_ANPR/ANPR_RZA2M_GR_MANGO/src/tensorflow_lite/tensorflow/lite/kernels/internal\types.h **** inline RuntimeShape DimsToShape(const tflite::Dims<4>& dims) {
 343:C:/Renesas/e2studio_2021_01_workspace_RZA2M_ANPR/ANPR_RZA2M_GR_MANGO/src/tensorflow_lite/tensorflow/lite/kernels/internal\types.h ****   return RuntimeShape(
 344:C:/Renesas/e2studio_2021_01_workspace_RZA2M_ANPR/ANPR_RZA2M_GR_MANGO/src/tensorflow_lite/tensorflow/lite/kernels/internal\types.h ****       {dims.sizes[3], dims.sizes[2], dims.sizes[1], dims.sizes[0]});
 345:C:/Renesas/e2studio_2021_01_workspace_RZA2M_ANPR/ANPR_RZA2M_GR_MANGO/src/tensorflow_lite/tensorflow/lite/kernels/internal\types.h **** }
 346:C:/Renesas/e2studio_2021_01_workspace_RZA2M_ANPR/ANPR_RZA2M_GR_MANGO/src/tensorflow_lite/tensorflow/lite/kernels/internal\types.h **** 
 347:C:/Renesas/e2studio_2021_01_workspace_RZA2M_ANPR/ANPR_RZA2M_GR_MANGO/src/tensorflow_lite/tensorflow/lite/kernels/internal\types.h **** // Gets next index to iterate through a multidimensional array.
 348:C:/Renesas/e2studio_2021_01_workspace_RZA2M_ANPR/ANPR_RZA2M_GR_MANGO/src/tensorflow_lite/tensorflow/lite/kernels/internal\types.h **** inline bool NextIndex(const int num_dims, const int* dims, int* current) {
 349:C:/Renesas/e2studio_2021_01_workspace_RZA2M_ANPR/ANPR_RZA2M_GR_MANGO/src/tensorflow_lite/tensorflow/lite/kernels/internal\types.h ****   if (num_dims == 0) {
 350:C:/Renesas/e2studio_2021_01_workspace_RZA2M_ANPR/ANPR_RZA2M_GR_MANGO/src/tensorflow_lite/tensorflow/lite/kernels/internal\types.h ****     return false;
 351:C:/Renesas/e2studio_2021_01_workspace_RZA2M_ANPR/ANPR_RZA2M_GR_MANGO/src/tensorflow_lite/tensorflow/lite/kernels/internal\types.h ****   }
 352:C:/Renesas/e2studio_2021_01_workspace_RZA2M_ANPR/ANPR_RZA2M_GR_MANGO/src/tensorflow_lite/tensorflow/lite/kernels/internal\types.h ****   TFLITE_DCHECK(dims != nullptr);
 353:C:/Renesas/e2studio_2021_01_workspace_RZA2M_ANPR/ANPR_RZA2M_GR_MANGO/src/tensorflow_lite/tensorflow/lite/kernels/internal\types.h ****   TFLITE_DCHECK(current != nullptr);
 354:C:/Renesas/e2studio_2021_01_workspace_RZA2M_ANPR/ANPR_RZA2M_GR_MANGO/src/tensorflow_lite/tensorflow/lite/kernels/internal\types.h ****   int carry = 1;
 355:C:/Renesas/e2studio_2021_01_workspace_RZA2M_ANPR/ANPR_RZA2M_GR_MANGO/src/tensorflow_lite/tensorflow/lite/kernels/internal\types.h ****   for (int idx = num_dims - 1; idx >= 0; --idx) {
 356:C:/Renesas/e2studio_2021_01_workspace_RZA2M_ANPR/ANPR_RZA2M_GR_MANGO/src/tensorflow_lite/tensorflow/lite/kernels/internal\types.h ****     int current_val = current[idx] + carry;
 357:C:/Renesas/e2studio_2021_01_workspace_RZA2M_ANPR/ANPR_RZA2M_GR_MANGO/src/tensorflow_lite/tensorflow/lite/kernels/internal\types.h ****     TFLITE_DCHECK_GE(dims[idx], current_val);
 358:C:/Renesas/e2studio_2021_01_workspace_RZA2M_ANPR/ANPR_RZA2M_GR_MANGO/src/tensorflow_lite/tensorflow/lite/kernels/internal\types.h ****     if (dims[idx] == current_val) {
 359:C:/Renesas/e2studio_2021_01_workspace_RZA2M_ANPR/ANPR_RZA2M_GR_MANGO/src/tensorflow_lite/tensorflow/lite/kernels/internal\types.h ****       current[idx] = 0;
 360:C:/Renesas/e2studio_2021_01_workspace_RZA2M_ANPR/ANPR_RZA2M_GR_MANGO/src/tensorflow_lite/tensorflow/lite/kernels/internal\types.h ****     } else {
 361:C:/Renesas/e2studio_2021_01_workspace_RZA2M_ANPR/ANPR_RZA2M_GR_MANGO/src/tensorflow_lite/tensorflow/lite/kernels/internal\types.h ****       current[idx] = current_val;
 362:C:/Renesas/e2studio_2021_01_workspace_RZA2M_ANPR/ANPR_RZA2M_GR_MANGO/src/tensorflow_lite/tensorflow/lite/kernels/internal\types.h ****       carry = 0;
 363:C:/Renesas/e2studio_2021_01_workspace_RZA2M_ANPR/ANPR_RZA2M_GR_MANGO/src/tensorflow_lite/tensorflow/lite/kernels/internal\types.h ****       break;
 364:C:/Renesas/e2studio_2021_01_workspace_RZA2M_ANPR/ANPR_RZA2M_GR_MANGO/src/tensorflow_lite/tensorflow/lite/kernels/internal\types.h ****     }
 365:C:/Renesas/e2studio_2021_01_workspace_RZA2M_ANPR/ANPR_RZA2M_GR_MANGO/src/tensorflow_lite/tensorflow/lite/kernels/internal\types.h ****   }
 366:C:/Renesas/e2studio_2021_01_workspace_RZA2M_ANPR/ANPR_RZA2M_GR_MANGO/src/tensorflow_lite/tensorflow/lite/kernels/internal\types.h ****   return (carry == 0);
 367:C:/Renesas/e2studio_2021_01_workspace_RZA2M_ANPR/ANPR_RZA2M_GR_MANGO/src/tensorflow_lite/tensorflow/lite/kernels/internal\types.h **** }
 368:C:/Renesas/e2studio_2021_01_workspace_RZA2M_ANPR/ANPR_RZA2M_GR_MANGO/src/tensorflow_lite/tensorflow/lite/kernels/internal\types.h **** 
 369:C:/Renesas/e2studio_2021_01_workspace_RZA2M_ANPR/ANPR_RZA2M_GR_MANGO/src/tensorflow_lite/tensorflow/lite/kernels/internal\types.h **** // Gets offset of index if reducing on axis. When reducing, the flattened offset
 370:C:/Renesas/e2studio_2021_01_workspace_RZA2M_ANPR/ANPR_RZA2M_GR_MANGO/src/tensorflow_lite/tensorflow/lite/kernels/internal\types.h **** // will not change, if the input index changes on the given axis. For example,
 371:C:/Renesas/e2studio_2021_01_workspace_RZA2M_ANPR/ANPR_RZA2M_GR_MANGO/src/tensorflow_lite/tensorflow/lite/kernels/internal\types.h **** // if you have a 3D tensor and you are reducing to 2D by eliminating axis 0,
 372:C:/Renesas/e2studio_2021_01_workspace_RZA2M_ANPR/ANPR_RZA2M_GR_MANGO/src/tensorflow_lite/tensorflow/lite/kernels/internal\types.h **** // then index (0, 1, 2) and index (1, 1, 2) will map to the same flattened
 373:C:/Renesas/e2studio_2021_01_workspace_RZA2M_ANPR/ANPR_RZA2M_GR_MANGO/src/tensorflow_lite/tensorflow/lite/kernels/internal\types.h **** // offset.
 374:C:/Renesas/e2studio_2021_01_workspace_RZA2M_ANPR/ANPR_RZA2M_GR_MANGO/src/tensorflow_lite/tensorflow/lite/kernels/internal\types.h **** // TODO(kanlig): uses Dims to represent dimensions.
 375:C:/Renesas/e2studio_2021_01_workspace_RZA2M_ANPR/ANPR_RZA2M_GR_MANGO/src/tensorflow_lite/tensorflow/lite/kernels/internal\types.h **** inline size_t ReducedOutputOffset(const int num_dims, const int* dims,
 376:C:/Renesas/e2studio_2021_01_workspace_RZA2M_ANPR/ANPR_RZA2M_GR_MANGO/src/tensorflow_lite/tensorflow/lite/kernels/internal\types.h ****                                   const int* index, const int num_axis,
 377:C:/Renesas/e2studio_2021_01_workspace_RZA2M_ANPR/ANPR_RZA2M_GR_MANGO/src/tensorflow_lite/tensorflow/lite/kernels/internal\types.h ****                                   const int* axis) {
 378:C:/Renesas/e2studio_2021_01_workspace_RZA2M_ANPR/ANPR_RZA2M_GR_MANGO/src/tensorflow_lite/tensorflow/lite/kernels/internal\types.h ****   if (num_dims == 0) {
 379:C:/Renesas/e2studio_2021_01_workspace_RZA2M_ANPR/ANPR_RZA2M_GR_MANGO/src/tensorflow_lite/tensorflow/lite/kernels/internal\types.h ****     return 0;
 380:C:/Renesas/e2studio_2021_01_workspace_RZA2M_ANPR/ANPR_RZA2M_GR_MANGO/src/tensorflow_lite/tensorflow/lite/kernels/internal\types.h ****   }
 381:C:/Renesas/e2studio_2021_01_workspace_RZA2M_ANPR/ANPR_RZA2M_GR_MANGO/src/tensorflow_lite/tensorflow/lite/kernels/internal\types.h ****   TFLITE_DCHECK(dims != nullptr);
 382:C:/Renesas/e2studio_2021_01_workspace_RZA2M_ANPR/ANPR_RZA2M_GR_MANGO/src/tensorflow_lite/tensorflow/lite/kernels/internal\types.h ****   TFLITE_DCHECK(index != nullptr);
 383:C:/Renesas/e2studio_2021_01_workspace_RZA2M_ANPR/ANPR_RZA2M_GR_MANGO/src/tensorflow_lite/tensorflow/lite/kernels/internal\types.h ****   size_t offset = 0;
 384:C:/Renesas/e2studio_2021_01_workspace_RZA2M_ANPR/ANPR_RZA2M_GR_MANGO/src/tensorflow_lite/tensorflow/lite/kernels/internal\types.h ****   for (int idx = 0; idx < num_dims; ++idx) {
 385:C:/Renesas/e2studio_2021_01_workspace_RZA2M_ANPR/ANPR_RZA2M_GR_MANGO/src/tensorflow_lite/tensorflow/lite/kernels/internal\types.h ****     // if we need to skip this axis
 386:C:/Renesas/e2studio_2021_01_workspace_RZA2M_ANPR/ANPR_RZA2M_GR_MANGO/src/tensorflow_lite/tensorflow/lite/kernels/internal\types.h ****     bool is_axis = false;
 387:C:/Renesas/e2studio_2021_01_workspace_RZA2M_ANPR/ANPR_RZA2M_GR_MANGO/src/tensorflow_lite/tensorflow/lite/kernels/internal\types.h ****     if (axis != nullptr) {
 388:C:/Renesas/e2studio_2021_01_workspace_RZA2M_ANPR/ANPR_RZA2M_GR_MANGO/src/tensorflow_lite/tensorflow/lite/kernels/internal\types.h ****       for (int axis_idx = 0; axis_idx < num_axis; ++axis_idx) {
 389:C:/Renesas/e2studio_2021_01_workspace_RZA2M_ANPR/ANPR_RZA2M_GR_MANGO/src/tensorflow_lite/tensorflow/lite/kernels/internal\types.h ****         if (idx == axis[axis_idx]) {
 390:C:/Renesas/e2studio_2021_01_workspace_RZA2M_ANPR/ANPR_RZA2M_GR_MANGO/src/tensorflow_lite/tensorflow/lite/kernels/internal\types.h ****           is_axis = true;
 391:C:/Renesas/e2studio_2021_01_workspace_RZA2M_ANPR/ANPR_RZA2M_GR_MANGO/src/tensorflow_lite/tensorflow/lite/kernels/internal\types.h ****           break;
 392:C:/Renesas/e2studio_2021_01_workspace_RZA2M_ANPR/ANPR_RZA2M_GR_MANGO/src/tensorflow_lite/tensorflow/lite/kernels/internal\types.h ****         }
 393:C:/Renesas/e2studio_2021_01_workspace_RZA2M_ANPR/ANPR_RZA2M_GR_MANGO/src/tensorflow_lite/tensorflow/lite/kernels/internal\types.h ****       }
 394:C:/Renesas/e2studio_2021_01_workspace_RZA2M_ANPR/ANPR_RZA2M_GR_MANGO/src/tensorflow_lite/tensorflow/lite/kernels/internal\types.h ****     }
 395:C:/Renesas/e2studio_2021_01_workspace_RZA2M_ANPR/ANPR_RZA2M_GR_MANGO/src/tensorflow_lite/tensorflow/lite/kernels/internal\types.h ****     if (!is_axis) {
 396:C:/Renesas/e2studio_2021_01_workspace_RZA2M_ANPR/ANPR_RZA2M_GR_MANGO/src/tensorflow_lite/tensorflow/lite/kernels/internal\types.h ****       offset = offset * static_cast<size_t>(dims[idx]) +
 397:C:/Renesas/e2studio_2021_01_workspace_RZA2M_ANPR/ANPR_RZA2M_GR_MANGO/src/tensorflow_lite/tensorflow/lite/kernels/internal\types.h ****                static_cast<size_t>(index[idx]);
 398:C:/Renesas/e2studio_2021_01_workspace_RZA2M_ANPR/ANPR_RZA2M_GR_MANGO/src/tensorflow_lite/tensorflow/lite/kernels/internal\types.h ****     }
 399:C:/Renesas/e2studio_2021_01_workspace_RZA2M_ANPR/ANPR_RZA2M_GR_MANGO/src/tensorflow_lite/tensorflow/lite/kernels/internal\types.h ****   }
 400:C:/Renesas/e2studio_2021_01_workspace_RZA2M_ANPR/ANPR_RZA2M_GR_MANGO/src/tensorflow_lite/tensorflow/lite/kernels/internal\types.h ****   return offset;
 401:C:/Renesas/e2studio_2021_01_workspace_RZA2M_ANPR/ANPR_RZA2M_GR_MANGO/src/tensorflow_lite/tensorflow/lite/kernels/internal\types.h **** }
 402:C:/Renesas/e2studio_2021_01_workspace_RZA2M_ANPR/ANPR_RZA2M_GR_MANGO/src/tensorflow_lite/tensorflow/lite/kernels/internal\types.h **** 
 403:C:/Renesas/e2studio_2021_01_workspace_RZA2M_ANPR/ANPR_RZA2M_GR_MANGO/src/tensorflow_lite/tensorflow/lite/kernels/internal\types.h **** inline int Offset(const RuntimeShape& shape, int i0, int i1, int i2, int i3) {
 404:C:/Renesas/e2studio_2021_01_workspace_RZA2M_ANPR/ANPR_RZA2M_GR_MANGO/src/tensorflow_lite/tensorflow/lite/kernels/internal\types.h ****   TFLITE_DCHECK_EQ(shape.DimensionsCount(), 4);
 405:C:/Renesas/e2studio_2021_01_workspace_RZA2M_ANPR/ANPR_RZA2M_GR_MANGO/src/tensorflow_lite/tensorflow/lite/kernels/internal\types.h ****   const int* dims_data = reinterpret_cast<const int*>(shape.DimsDataUpTo5D());
 406:C:/Renesas/e2studio_2021_01_workspace_RZA2M_ANPR/ANPR_RZA2M_GR_MANGO/src/tensorflow_lite/tensorflow/lite/kernels/internal\types.h ****   TFLITE_DCHECK(i0 >= 0 && i0 < dims_data[0]);
 407:C:/Renesas/e2studio_2021_01_workspace_RZA2M_ANPR/ANPR_RZA2M_GR_MANGO/src/tensorflow_lite/tensorflow/lite/kernels/internal\types.h ****   TFLITE_DCHECK(i1 >= 0 && i1 < dims_data[1]);
 408:C:/Renesas/e2studio_2021_01_workspace_RZA2M_ANPR/ANPR_RZA2M_GR_MANGO/src/tensorflow_lite/tensorflow/lite/kernels/internal\types.h ****   TFLITE_DCHECK(i2 >= 0 && i2 < dims_data[2]);
 409:C:/Renesas/e2studio_2021_01_workspace_RZA2M_ANPR/ANPR_RZA2M_GR_MANGO/src/tensorflow_lite/tensorflow/lite/kernels/internal\types.h ****   TFLITE_DCHECK(i3 >= 0 && i3 < dims_data[3]);
 410:C:/Renesas/e2studio_2021_01_workspace_RZA2M_ANPR/ANPR_RZA2M_GR_MANGO/src/tensorflow_lite/tensorflow/lite/kernels/internal\types.h ****   return ((i0 * dims_data[1] + i1) * dims_data[2] + i2) * dims_data[3] + i3;
 411:C:/Renesas/e2studio_2021_01_workspace_RZA2M_ANPR/ANPR_RZA2M_GR_MANGO/src/tensorflow_lite/tensorflow/lite/kernels/internal\types.h **** }
 412:C:/Renesas/e2studio_2021_01_workspace_RZA2M_ANPR/ANPR_RZA2M_GR_MANGO/src/tensorflow_lite/tensorflow/lite/kernels/internal\types.h **** 
 413:C:/Renesas/e2studio_2021_01_workspace_RZA2M_ANPR/ANPR_RZA2M_GR_MANGO/src/tensorflow_lite/tensorflow/lite/kernels/internal\types.h **** inline int Offset(const RuntimeShape& shape, int i0, int i1, int i2, int i3,
 414:C:/Renesas/e2studio_2021_01_workspace_RZA2M_ANPR/ANPR_RZA2M_GR_MANGO/src/tensorflow_lite/tensorflow/lite/kernels/internal\types.h ****                   int i4) {
 415:C:/Renesas/e2studio_2021_01_workspace_RZA2M_ANPR/ANPR_RZA2M_GR_MANGO/src/tensorflow_lite/tensorflow/lite/kernels/internal\types.h ****   TFLITE_DCHECK_EQ(shape.DimensionsCount(), 5);
 416:C:/Renesas/e2studio_2021_01_workspace_RZA2M_ANPR/ANPR_RZA2M_GR_MANGO/src/tensorflow_lite/tensorflow/lite/kernels/internal\types.h ****   const int* dims_data = reinterpret_cast<const int*>(shape.DimsDataUpTo5D());
 417:C:/Renesas/e2studio_2021_01_workspace_RZA2M_ANPR/ANPR_RZA2M_GR_MANGO/src/tensorflow_lite/tensorflow/lite/kernels/internal\types.h ****   TFLITE_DCHECK(i0 >= 0 && i0 < dims_data[0]);
 418:C:/Renesas/e2studio_2021_01_workspace_RZA2M_ANPR/ANPR_RZA2M_GR_MANGO/src/tensorflow_lite/tensorflow/lite/kernels/internal\types.h ****   TFLITE_DCHECK(i1 >= 0 && i1 < dims_data[1]);
 419:C:/Renesas/e2studio_2021_01_workspace_RZA2M_ANPR/ANPR_RZA2M_GR_MANGO/src/tensorflow_lite/tensorflow/lite/kernels/internal\types.h ****   TFLITE_DCHECK(i2 >= 0 && i2 < dims_data[2]);
 420:C:/Renesas/e2studio_2021_01_workspace_RZA2M_ANPR/ANPR_RZA2M_GR_MANGO/src/tensorflow_lite/tensorflow/lite/kernels/internal\types.h ****   TFLITE_DCHECK(i3 >= 0 && i3 < dims_data[3]);
 421:C:/Renesas/e2studio_2021_01_workspace_RZA2M_ANPR/ANPR_RZA2M_GR_MANGO/src/tensorflow_lite/tensorflow/lite/kernels/internal\types.h ****   TFLITE_DCHECK(i4 >= 0 && i4 < dims_data[4]);
 422:C:/Renesas/e2studio_2021_01_workspace_RZA2M_ANPR/ANPR_RZA2M_GR_MANGO/src/tensorflow_lite/tensorflow/lite/kernels/internal\types.h ****   return (((i0 * dims_data[1] + i1) * dims_data[2] + i2) * dims_data[3] + i3) *
 423:C:/Renesas/e2studio_2021_01_workspace_RZA2M_ANPR/ANPR_RZA2M_GR_MANGO/src/tensorflow_lite/tensorflow/lite/kernels/internal\types.h ****              dims_data[4] +
 424:C:/Renesas/e2studio_2021_01_workspace_RZA2M_ANPR/ANPR_RZA2M_GR_MANGO/src/tensorflow_lite/tensorflow/lite/kernels/internal\types.h ****          i4;
 425:C:/Renesas/e2studio_2021_01_workspace_RZA2M_ANPR/ANPR_RZA2M_GR_MANGO/src/tensorflow_lite/tensorflow/lite/kernels/internal\types.h **** }
 426:C:/Renesas/e2studio_2021_01_workspace_RZA2M_ANPR/ANPR_RZA2M_GR_MANGO/src/tensorflow_lite/tensorflow/lite/kernels/internal\types.h **** 
 427:C:/Renesas/e2studio_2021_01_workspace_RZA2M_ANPR/ANPR_RZA2M_GR_MANGO/src/tensorflow_lite/tensorflow/lite/kernels/internal\types.h **** inline int Offset(const Dims<4>& dims, int i0, int i1, int i2, int i3) {
 428:C:/Renesas/e2studio_2021_01_workspace_RZA2M_ANPR/ANPR_RZA2M_GR_MANGO/src/tensorflow_lite/tensorflow/lite/kernels/internal\types.h ****   TFLITE_DCHECK(i0 >= 0 && i0 < dims.sizes[0]);
 429:C:/Renesas/e2studio_2021_01_workspace_RZA2M_ANPR/ANPR_RZA2M_GR_MANGO/src/tensorflow_lite/tensorflow/lite/kernels/internal\types.h ****   TFLITE_DCHECK(i1 >= 0 && i1 < dims.sizes[1]);
 430:C:/Renesas/e2studio_2021_01_workspace_RZA2M_ANPR/ANPR_RZA2M_GR_MANGO/src/tensorflow_lite/tensorflow/lite/kernels/internal\types.h ****   TFLITE_DCHECK(i2 >= 0 && i2 < dims.sizes[2]);
 431:C:/Renesas/e2studio_2021_01_workspace_RZA2M_ANPR/ANPR_RZA2M_GR_MANGO/src/tensorflow_lite/tensorflow/lite/kernels/internal\types.h ****   TFLITE_DCHECK(i3 >= 0 && i3 < dims.sizes[3]);
 432:C:/Renesas/e2studio_2021_01_workspace_RZA2M_ANPR/ANPR_RZA2M_GR_MANGO/src/tensorflow_lite/tensorflow/lite/kernels/internal\types.h ****   return i0 * dims.strides[0] + i1 * dims.strides[1] + i2 * dims.strides[2] +
 433:C:/Renesas/e2studio_2021_01_workspace_RZA2M_ANPR/ANPR_RZA2M_GR_MANGO/src/tensorflow_lite/tensorflow/lite/kernels/internal\types.h ****          i3 * dims.strides[3];
 434:C:/Renesas/e2studio_2021_01_workspace_RZA2M_ANPR/ANPR_RZA2M_GR_MANGO/src/tensorflow_lite/tensorflow/lite/kernels/internal\types.h **** }
 435:C:/Renesas/e2studio_2021_01_workspace_RZA2M_ANPR/ANPR_RZA2M_GR_MANGO/src/tensorflow_lite/tensorflow/lite/kernels/internal\types.h **** 
 436:C:/Renesas/e2studio_2021_01_workspace_RZA2M_ANPR/ANPR_RZA2M_GR_MANGO/src/tensorflow_lite/tensorflow/lite/kernels/internal\types.h **** inline int Offset(const Dims<4>& dims, int* index) {
 437:C:/Renesas/e2studio_2021_01_workspace_RZA2M_ANPR/ANPR_RZA2M_GR_MANGO/src/tensorflow_lite/tensorflow/lite/kernels/internal\types.h ****   return Offset(dims, index[0], index[1], index[2], index[3]);
 438:C:/Renesas/e2studio_2021_01_workspace_RZA2M_ANPR/ANPR_RZA2M_GR_MANGO/src/tensorflow_lite/tensorflow/lite/kernels/internal\types.h **** }
 439:C:/Renesas/e2studio_2021_01_workspace_RZA2M_ANPR/ANPR_RZA2M_GR_MANGO/src/tensorflow_lite/tensorflow/lite/kernels/internal\types.h **** 
 440:C:/Renesas/e2studio_2021_01_workspace_RZA2M_ANPR/ANPR_RZA2M_GR_MANGO/src/tensorflow_lite/tensorflow/lite/kernels/internal\types.h **** inline int Offset(const RuntimeShape& shape, int* index) {
 441:C:/Renesas/e2studio_2021_01_workspace_RZA2M_ANPR/ANPR_RZA2M_GR_MANGO/src/tensorflow_lite/tensorflow/lite/kernels/internal\types.h ****   return Offset(shape, index[0], index[1], index[2], index[3]);
 442:C:/Renesas/e2studio_2021_01_workspace_RZA2M_ANPR/ANPR_RZA2M_GR_MANGO/src/tensorflow_lite/tensorflow/lite/kernels/internal\types.h **** }
 443:C:/Renesas/e2studio_2021_01_workspace_RZA2M_ANPR/ANPR_RZA2M_GR_MANGO/src/tensorflow_lite/tensorflow/lite/kernels/internal\types.h **** 
 444:C:/Renesas/e2studio_2021_01_workspace_RZA2M_ANPR/ANPR_RZA2M_GR_MANGO/src/tensorflow_lite/tensorflow/lite/kernels/internal\types.h **** // Get array size, DCHECKing that the dim index is in range.
 445:C:/Renesas/e2studio_2021_01_workspace_RZA2M_ANPR/ANPR_RZA2M_GR_MANGO/src/tensorflow_lite/tensorflow/lite/kernels/internal\types.h **** //
 446:C:/Renesas/e2studio_2021_01_workspace_RZA2M_ANPR/ANPR_RZA2M_GR_MANGO/src/tensorflow_lite/tensorflow/lite/kernels/internal\types.h **** // Note that this will be phased out with Dims<4>, since RuntimeShape::Dims()
 447:C:/Renesas/e2studio_2021_01_workspace_RZA2M_ANPR/ANPR_RZA2M_GR_MANGO/src/tensorflow_lite/tensorflow/lite/kernels/internal\types.h **** // already performs this check.
 448:C:/Renesas/e2studio_2021_01_workspace_RZA2M_ANPR/ANPR_RZA2M_GR_MANGO/src/tensorflow_lite/tensorflow/lite/kernels/internal\types.h **** template <int N>
 449:C:/Renesas/e2studio_2021_01_workspace_RZA2M_ANPR/ANPR_RZA2M_GR_MANGO/src/tensorflow_lite/tensorflow/lite/kernels/internal\types.h **** int ArraySize(const Dims<N>& array, int index) {
 450:C:/Renesas/e2studio_2021_01_workspace_RZA2M_ANPR/ANPR_RZA2M_GR_MANGO/src/tensorflow_lite/tensorflow/lite/kernels/internal\types.h ****   TFLITE_DCHECK(index >= 0 && index < N);
 451:C:/Renesas/e2studio_2021_01_workspace_RZA2M_ANPR/ANPR_RZA2M_GR_MANGO/src/tensorflow_lite/tensorflow/lite/kernels/internal\types.h ****   return array.sizes[index];
 452:C:/Renesas/e2studio_2021_01_workspace_RZA2M_ANPR/ANPR_RZA2M_GR_MANGO/src/tensorflow_lite/tensorflow/lite/kernels/internal\types.h **** }
 453:C:/Renesas/e2studio_2021_01_workspace_RZA2M_ANPR/ANPR_RZA2M_GR_MANGO/src/tensorflow_lite/tensorflow/lite/kernels/internal\types.h **** 
 454:C:/Renesas/e2studio_2021_01_workspace_RZA2M_ANPR/ANPR_RZA2M_GR_MANGO/src/tensorflow_lite/tensorflow/lite/kernels/internal\types.h **** // Get common array size, DCHECKing that they all agree.
 455:C:/Renesas/e2studio_2021_01_workspace_RZA2M_ANPR/ANPR_RZA2M_GR_MANGO/src/tensorflow_lite/tensorflow/lite/kernels/internal\types.h **** template <typename ArrayType1, typename ArrayType2>
 456:C:/Renesas/e2studio_2021_01_workspace_RZA2M_ANPR/ANPR_RZA2M_GR_MANGO/src/tensorflow_lite/tensorflow/lite/kernels/internal\types.h **** int MatchingArraySize(const ArrayType1& array1, int index1,
 457:C:/Renesas/e2studio_2021_01_workspace_RZA2M_ANPR/ANPR_RZA2M_GR_MANGO/src/tensorflow_lite/tensorflow/lite/kernels/internal\types.h ****                       const ArrayType2& array2, int index2) {
 458:C:/Renesas/e2studio_2021_01_workspace_RZA2M_ANPR/ANPR_RZA2M_GR_MANGO/src/tensorflow_lite/tensorflow/lite/kernels/internal\types.h ****   TFLITE_DCHECK_EQ(ArraySize(array1, index1), ArraySize(array2, index2));
 459:C:/Renesas/e2studio_2021_01_workspace_RZA2M_ANPR/ANPR_RZA2M_GR_MANGO/src/tensorflow_lite/tensorflow/lite/kernels/internal\types.h ****   return ArraySize(array1, index1);
 460:C:/Renesas/e2studio_2021_01_workspace_RZA2M_ANPR/ANPR_RZA2M_GR_MANGO/src/tensorflow_lite/tensorflow/lite/kernels/internal\types.h **** }
 461:C:/Renesas/e2studio_2021_01_workspace_RZA2M_ANPR/ANPR_RZA2M_GR_MANGO/src/tensorflow_lite/tensorflow/lite/kernels/internal\types.h **** 
 462:C:/Renesas/e2studio_2021_01_workspace_RZA2M_ANPR/ANPR_RZA2M_GR_MANGO/src/tensorflow_lite/tensorflow/lite/kernels/internal\types.h **** template <typename ArrayType1, typename ArrayType2, typename... Args>
 463:C:/Renesas/e2studio_2021_01_workspace_RZA2M_ANPR/ANPR_RZA2M_GR_MANGO/src/tensorflow_lite/tensorflow/lite/kernels/internal\types.h **** int MatchingArraySize(const ArrayType1& array1, int index1,
 464:C:/Renesas/e2studio_2021_01_workspace_RZA2M_ANPR/ANPR_RZA2M_GR_MANGO/src/tensorflow_lite/tensorflow/lite/kernels/internal\types.h ****                       const ArrayType2& array2, int index2, Args... args) {
 465:C:/Renesas/e2studio_2021_01_workspace_RZA2M_ANPR/ANPR_RZA2M_GR_MANGO/src/tensorflow_lite/tensorflow/lite/kernels/internal\types.h ****   TFLITE_DCHECK_EQ(ArraySize(array1, index1), ArraySize(array2, index2));
 466:C:/Renesas/e2studio_2021_01_workspace_RZA2M_ANPR/ANPR_RZA2M_GR_MANGO/src/tensorflow_lite/tensorflow/lite/kernels/internal\types.h ****   return MatchingArraySize(array1, index1, args...);
 467:C:/Renesas/e2studio_2021_01_workspace_RZA2M_ANPR/ANPR_RZA2M_GR_MANGO/src/tensorflow_lite/tensorflow/lite/kernels/internal\types.h **** }
 468:C:/Renesas/e2studio_2021_01_workspace_RZA2M_ANPR/ANPR_RZA2M_GR_MANGO/src/tensorflow_lite/tensorflow/lite/kernels/internal\types.h **** 
 469:C:/Renesas/e2studio_2021_01_workspace_RZA2M_ANPR/ANPR_RZA2M_GR_MANGO/src/tensorflow_lite/tensorflow/lite/kernels/internal\types.h **** // Get common shape dim, DCHECKing that they all agree.
 470:C:/Renesas/e2studio_2021_01_workspace_RZA2M_ANPR/ANPR_RZA2M_GR_MANGO/src/tensorflow_lite/tensorflow/lite/kernels/internal\types.h **** inline int MatchingDim(const RuntimeShape& shape1, int index1,
 471:C:/Renesas/e2studio_2021_01_workspace_RZA2M_ANPR/ANPR_RZA2M_GR_MANGO/src/tensorflow_lite/tensorflow/lite/kernels/internal\types.h ****                        const RuntimeShape& shape2, int index2) {
 472:C:/Renesas/e2studio_2021_01_workspace_RZA2M_ANPR/ANPR_RZA2M_GR_MANGO/src/tensorflow_lite/tensorflow/lite/kernels/internal\types.h ****   TFLITE_DCHECK_EQ(shape1.Dims(index1), shape2.Dims(index2));
 586              		.loc 4 472 0
 587 03a8 90309DE5 		ldr	r3, [sp, #144]
 588 03ac 03005CE1 		cmp	ip, r3
 589 03b0 9700001A 		bne	.L85
 590              	.LVL65:
 591              	.LBE539:
 592              	.LBE538:
 593              	.LBB543:
 594              	.LBB544:
 595              	.LBB545:
 596              	.LBB546:
 216:C:/Renesas/e2studio_2021_01_workspace_RZA2M_ANPR/ANPR_RZA2M_GR_MANGO/src/tensorflow_lite/tensorflow/lite/kernels/internal\types.h ****   }
 597              		.loc 4 216 0
 598 03b4 9CE09DE5 		ldr	lr, [sp, #156]
 599              	.LVL66:
 600              	.LBE546:
 601              	.LBE545:
 602              		.loc 4 472 0
 603 03b8 B4309DE5 		ldr	r3, [sp, #180]
 604 03bc 03005EE1 		cmp	lr, r3
 605 03c0 9200001A 		bne	.L86
 606              	.LVL67:
 607              	.LBE544:
 608              	.LBE543:
 116:../src/tensorflow_lite/tensorflow/lite/micro/kernels/cmsis_nn/depthwise_conv.cc **** 
 609              		.loc 1 116 0
 610 03c4 01005CE3 		cmp	ip, #1
 611 03c8 8F00001A 		bne	.L87
 127:../src/tensorflow_lite/tensorflow/lite/micro/kernels/cmsis_nn/depthwise_conv.cc ****     filter_dims.c = output_depth;
 612              		.loc 1 127 0
 613 03cc 28709DE5 		ldr	r7, [sp, #40]
 141:../src/tensorflow_lite/tensorflow/lite/micro/kernels/cmsis_nn/depthwise_conv.cc **** 
 614              		.loc 1 141 0
 615 03d0 64308DE2 		add	r3, sp, #100
 132:../src/tensorflow_lite/tensorflow/lite/micro/kernels/cmsis_nn/depthwise_conv.cc ****     output_dims.w = output_width;
 616              		.loc 1 132 0
 617 03d4 30809DE5 		ldr	r8, [sp, #48]
 618              	.LVL68:
 141:../src/tensorflow_lite/tensorflow/lite/micro/kernels/cmsis_nn/depthwise_conv.cc **** 
 619              		.loc 1 141 0
 620 03d8 BC008DE2 		add	r0, sp, #188
 120:../src/tensorflow_lite/tensorflow/lite/micro/kernels/cmsis_nn/depthwise_conv.cc ****     input_dims.w = input_width;
 621              		.loc 1 120 0
 622 03dc 34209DE5 		ldr	r2, [sp, #52]
 121:../src/tensorflow_lite/tensorflow/lite/micro/kernels/cmsis_nn/depthwise_conv.cc ****     input_dims.c = input_shape.Dims(3);
 623              		.loc 1 121 0
 624 03e0 38109DE5 		ldr	r1, [sp, #56]
 122:../src/tensorflow_lite/tensorflow/lite/micro/kernels/cmsis_nn/depthwise_conv.cc **** 
 625              		.loc 1 122 0
 626 03e4 84509DE5 		ldr	r5, [sp, #132]
 119:../src/tensorflow_lite/tensorflow/lite/micro/kernels/cmsis_nn/depthwise_conv.cc ****     input_dims.h = input_height;
 627              		.loc 1 119 0
 628 03e8 44C08DE5 		str	ip, [sp, #68]
 125:../src/tensorflow_lite/tensorflow/lite/micro/kernels/cmsis_nn/depthwise_conv.cc ****     filter_dims.h = filter_height;
 629              		.loc 1 125 0
 630 03ec 54C08DE5 		str	ip, [sp, #84]
 127:../src/tensorflow_lite/tensorflow/lite/micro/kernels/cmsis_nn/depthwise_conv.cc ****     filter_dims.c = output_depth;
 631              		.loc 1 127 0
 632 03f0 5C708DE5 		str	r7, [sp, #92]
 131:../src/tensorflow_lite/tensorflow/lite/micro/kernels/cmsis_nn/depthwise_conv.cc ****     output_dims.h = output_height;
 633              		.loc 1 131 0
 634 03f4 64C08DE5 		str	ip, [sp, #100]
 137:../src/tensorflow_lite/tensorflow/lite/micro/kernels/cmsis_nn/depthwise_conv.cc ****     dw_conv_params.padding.w = data->reference_op_data.padding.width;
 635              		.loc 1 137 0
 636 03f8 047096E5 		ldr	r7, [r6, #4]
 138:../src/tensorflow_lite/tensorflow/lite/micro/kernels/cmsis_nn/depthwise_conv.cc **** 
 637              		.loc 1 138 0
 638 03fc 00C096E5 		ldr	ip, [r6]
 132:../src/tensorflow_lite/tensorflow/lite/micro/kernels/cmsis_nn/depthwise_conv.cc ****     output_dims.w = output_width;
 639              		.loc 1 132 0
 640 0400 68808DE5 		str	r8, [sp, #104]
 133:../src/tensorflow_lite/tensorflow/lite/micro/kernels/cmsis_nn/depthwise_conv.cc ****     output_dims.c = output_depth;
 641              		.loc 1 133 0
 642 0404 2C809DE5 		ldr	r8, [sp, #44]
 120:../src/tensorflow_lite/tensorflow/lite/micro/kernels/cmsis_nn/depthwise_conv.cc ****     input_dims.w = input_width;
 643              		.loc 1 120 0
 644 0408 48208DE5 		str	r2, [sp, #72]
 141:../src/tensorflow_lite/tensorflow/lite/micro/kernels/cmsis_nn/depthwise_conv.cc **** 
 645              		.loc 1 141 0
 646 040c 54208DE2 		add	r2, sp, #84
 121:../src/tensorflow_lite/tensorflow/lite/micro/kernels/cmsis_nn/depthwise_conv.cc ****     input_dims.c = input_shape.Dims(3);
 647              		.loc 1 121 0
 648 0410 4C108DE5 		str	r1, [sp, #76]
 141:../src/tensorflow_lite/tensorflow/lite/micro/kernels/cmsis_nn/depthwise_conv.cc **** 
 649              		.loc 1 141 0
 650 0414 44108DE2 		add	r1, sp, #68
 126:../src/tensorflow_lite/tensorflow/lite/micro/kernels/cmsis_nn/depthwise_conv.cc ****     filter_dims.w = filter_width;
 651              		.loc 1 126 0
 652 0418 58B08DE5 		str	fp, [sp, #88]
 128:../src/tensorflow_lite/tensorflow/lite/micro/kernels/cmsis_nn/depthwise_conv.cc **** 
 653              		.loc 1 128 0
 654 041c 60E08DE5 		str	lr, [sp, #96]
 133:../src/tensorflow_lite/tensorflow/lite/micro/kernels/cmsis_nn/depthwise_conv.cc ****     output_dims.c = output_depth;
 655              		.loc 1 133 0
 656 0420 6C808DE5 		str	r8, [sp, #108]
 134:../src/tensorflow_lite/tensorflow/lite/micro/kernels/cmsis_nn/depthwise_conv.cc **** 
 657              		.loc 1 134 0
 658 0424 70E08DE5 		str	lr, [sp, #112]
 122:../src/tensorflow_lite/tensorflow/lite/micro/kernels/cmsis_nn/depthwise_conv.cc **** 
 659              		.loc 1 122 0
 660 0428 50508DE5 		str	r5, [sp, #80]
 137:../src/tensorflow_lite/tensorflow/lite/micro/kernels/cmsis_nn/depthwise_conv.cc ****     dw_conv_params.padding.w = data->reference_op_data.padding.width;
 661              		.loc 1 137 0
 662 042c D4708DE5 		str	r7, [sp, #212]
 138:../src/tensorflow_lite/tensorflow/lite/micro/kernels/cmsis_nn/depthwise_conv.cc **** 
 663              		.loc 1 138 0
 664 0430 D0C08DE5 		str	ip, [sp, #208]
 665              	.LEHB3:
 141:../src/tensorflow_lite/tensorflow/lite/micro/kernels/cmsis_nn/depthwise_conv.cc **** 
 666              		.loc 1 141 0
 667 0434 FEFFFFEB 		bl	arm_depthwise_conv_wrapper_s8_get_buffer_size
 668              	.LVL69:
 669              	.LBB548:
 143:../src/tensorflow_lite/tensorflow/lite/micro/kernels/cmsis_nn/depthwise_conv.cc ****       TF_LITE_ENSURE_STATUS(context->RequestScratchBufferInArena(
 670              		.loc 1 143 0
 671 0438 001050E2 		subs	r1, r0, #0
 672 043c 510000DA 		ble	.L88
 673              	.LBB549:
 144:../src/tensorflow_lite/tensorflow/lite/micro/kernels/cmsis_nn/depthwise_conv.cc ****           context, buf_size, &data->buffer_idx));
 674              		.loc 1 144 0
 675 0440 342086E2 		add	r2, r6, #52
 676 0444 403094E5 		ldr	r3, [r4, #64]
 677 0448 0400A0E1 		mov	r0, r4
 678              	.LVL70:
 679 044c 33FF2FE1 		blx	r3
 680              	.LVL71:
 681              	.LEHE3:
 682 0450 000050E3 		cmp	r0, #0
 683              	.LVL72:
 684 0454 43FFFF1A 		bne	.L68
 685              	.L37:
 686              	.LBE549:
 687              	.LBE548:
 688              	.LBE480:
 689              	.LBE572:
 150:../src/tensorflow_lite/tensorflow/lite/micro/kernels/cmsis_nn/depthwise_conv.cc **** }
 690              		.loc 1 150 0
 691 0458 0000A0E3 		mov	r0, #0
 692              	.LBB573:
 693              	.LBB565:
 694 045c 41FFFFEA 		b	.L68
 695              	.LVL73:
 696              	.L81:
 697              	.LBE565:
 698              	.LBE573:
 699              	.LBB574:
 700              	.LBB451:
  83:../src/tensorflow_lite/tensorflow/lite/micro/kernels/cmsis_nn/depthwise_conv.cc ****         context, affine_quantization->scale->size == 1 ||
 701              		.loc 1 83 0 discriminator 2
 702 0460 003000E3 		movw	r3, #:lower16:.LC12
 703 0464 002000E3 		movw	r2, #:lower16:.LC1
 704 0468 003040E3 		movt	r3, #:upper16:.LC12
 705 046c 001000E3 		movw	r1, #:lower16:.LC2
 706 0470 00308DE5 		str	r3, [sp]
 707              	.LVL74:
 708 0474 0400A0E1 		mov	r0, r4
 709 0478 002040E3 		movt	r2, #:upper16:.LC1
 710 047c 001040E3 		movt	r1, #:upper16:.LC2
 711 0480 145094E5 		ldr	r5, [r4, #20]
 712              	.LVL75:
 713 0484 5630A0E3 		mov	r3, #86
 714              	.LEHB4:
 715 0488 35FF2FE1 		blx	r5
 716              	.LVL76:
 717 048c 0100A0E3 		mov	r0, #1
 718 0490 34FFFFEA 		b	.L68
 719              	.LVL77:
 720              	.L21:
 721 0494 0271A0E1 		lsl	r7, r2, #2
 722              	.LVL78:
 723              	.LBE451:
 724              	.LBE574:
 725              	.LBB575:
 726              	.LBB566:
 727              	.LBB550:
 728              	.LBB498:
 729              	.LBB496:
 730              	.LBB494:
 731              	.LBB492:
 732              	.LBB489:
 733              	.LBB490:
 229:C:/Renesas/e2studio_2021_01_workspace_RZA2M_ANPR/ANPR_RZA2M_GR_MANGO/src/tensorflow_lite/tensorflow/lite/kernels/internal\types.h ****   }
 734              		.loc 4 229 0
 735 0498 78008DE2 		add	r0, sp, #120
 736 049c 97FFFFEA 		b	.L23
 737              	.LVL79:
 738              	.L80:
 739              	.LBE490:
 740              	.LBE489:
 741              	.LBE492:
 742              	.LBE494:
 743              	.LBE496:
 744              	.LBE498:
 745              	.LBE550:
 746              	.LBE566:
 747              	.LBE575:
 748              	.LBB576:
 749              	.LBB452:
  82:../src/tensorflow_lite/tensorflow/lite/micro/kernels/cmsis_nn/depthwise_conv.cc ****     TF_LITE_ENSURE(
 750              		.loc 1 82 0 discriminator 1
 751 04a0 003000E3 		movw	r3, #:lower16:.LC11
 752              	.LVL80:
 753 04a4 002000E3 		movw	r2, #:lower16:.LC1
 754 04a8 003040E3 		movt	r3, #:upper16:.LC11
 755 04ac 001000E3 		movw	r1, #:lower16:.LC2
 756 04b0 00308DE5 		str	r3, [sp]
 757              	.LVL81:
 758 04b4 0400A0E1 		mov	r0, r4
 759 04b8 002040E3 		movt	r2, #:upper16:.LC1
 760 04bc 001040E3 		movt	r1, #:upper16:.LC2
 761 04c0 145094E5 		ldr	r5, [r4, #20]
 762              	.LVL82:
 763 04c4 5230A0E3 		mov	r3, #82
 764 04c8 35FF2FE1 		blx	r5
 765              	.LVL83:
 766 04cc 0100A0E3 		mov	r0, #1
 767 04d0 24FFFFEA 		b	.L68
 768              	.LVL84:
 769              	.L74:
 770              	.LBE452:
 771              	.LBE576:
  62:../src/tensorflow_lite/tensorflow/lite/micro/kernels/cmsis_nn/depthwise_conv.cc **** 
 772              		.loc 1 62 0 discriminator 1
 773 04d4 003000E3 		movw	r3, #:lower16:.LC5
 774 04d8 002000E3 		movw	r2, #:lower16:.LC1
 775 04dc 003040E3 		movt	r3, #:upper16:.LC5
 776 04e0 001000E3 		movw	r1, #:lower16:.LC2
 777 04e4 00308DE5 		str	r3, [sp]
 778 04e8 0400A0E1 		mov	r0, r4
 779              	.LVL85:
 780 04ec 002040E3 		movt	r2, #:upper16:.LC1
 781 04f0 001040E3 		movt	r1, #:upper16:.LC2
 782 04f4 145094E5 		ldr	r5, [r4, #20]
 783              	.LVL86:
 784 04f8 3E30A0E3 		mov	r3, #62
 785 04fc 35FF2FE1 		blx	r5
 786              	.LVL87:
 787 0500 0100A0E3 		mov	r0, #1
 788 0504 17FFFFEA 		b	.L68
 789              	.LVL88:
 790              	.L24:
 791 0508 0551A0E1 		lsl	r5, r5, #2
 792              	.LVL89:
 793              	.LBB577:
 794              	.LBB567:
 795              	.LBB551:
 796              	.LBB517:
 797              	.LBB515:
 798              	.LBB513:
 799              	.LBB511:
 800              	.LBB508:
 801              	.LBB509:
 229:C:/Renesas/e2studio_2021_01_workspace_RZA2M_ANPR/ANPR_RZA2M_GR_MANGO/src/tensorflow_lite/tensorflow/lite/kernels/internal\types.h ****   }
 802              		.loc 4 229 0
 803 050c 90008DE2 		add	r0, sp, #144
 804 0510 89FFFFEA 		b	.L26
 805              	.LVL90:
 806              	.L78:
 807              	.LBE509:
 808              	.LBE508:
 809              	.LBE511:
 810              	.LBE513:
 811              	.LBE515:
 812              	.LBE517:
 813              	.LBE551:
 814              	.LBE567:
 815              	.LBE577:
 816              	.LBB578:
 817              	.LBB453:
  80:../src/tensorflow_lite/tensorflow/lite/micro/kernels/cmsis_nn/depthwise_conv.cc ****     TF_LITE_ENSURE(context, affine_quantization->scale);
 818              		.loc 1 80 0 discriminator 1
 819 0514 003000E3 		movw	r3, #:lower16:.LC9
 820              	.LVL91:
 821 0518 002000E3 		movw	r2, #:lower16:.LC1
 822 051c 003040E3 		movt	r3, #:upper16:.LC9
 823 0520 001000E3 		movw	r1, #:lower16:.LC2
 824 0524 00308DE5 		str	r3, [sp]
 825              	.LVL92:
 826 0528 0400A0E1 		mov	r0, r4
 827              	.LVL93:
 828 052c 002040E3 		movt	r2, #:upper16:.LC1
 829 0530 001040E3 		movt	r1, #:upper16:.LC2
 830 0534 145094E5 		ldr	r5, [r4, #20]
 831              	.LVL94:
 832 0538 5030A0E3 		mov	r3, #80
 833 053c 35FF2FE1 		blx	r5
 834              	.LVL95:
 835 0540 0B00A0E1 		mov	r0, fp
 836 0544 07FFFFEA 		b	.L68
 837              	.LVL96:
 838              	.L27:
 839 0548 0551A0E1 		lsl	r5, r5, #2
 840              	.LVL97:
 841              	.LBE453:
 842              	.LBE578:
 843              	.LBB579:
 844              	.LBB568:
 845              	.LBB552:
 846              	.LBB536:
 847              	.LBB534:
 848              	.LBB532:
 849              	.LBB530:
 850              	.LBB527:
 851              	.LBB528:
 229:C:/Renesas/e2studio_2021_01_workspace_RZA2M_ANPR/ANPR_RZA2M_GR_MANGO/src/tensorflow_lite/tensorflow/lite/kernels/internal\types.h ****   }
 852              		.loc 4 229 0
 853 054c A8008DE2 		add	r0, sp, #168
 854 0550 87FFFFEA 		b	.L29
 855              	.LVL98:
 856              	.L79:
 857              	.LBE528:
 858              	.LBE527:
 859              	.LBE530:
 860              	.LBE532:
 861              	.LBE534:
 862              	.LBE536:
 863              	.LBE552:
 864              	.LBE568:
 865              	.LBE579:
 866              	.LBB580:
 867              	.LBB454:
  81:../src/tensorflow_lite/tensorflow/lite/micro/kernels/cmsis_nn/depthwise_conv.cc ****     TF_LITE_ENSURE(context, affine_quantization->zero_point);
 868              		.loc 1 81 0 discriminator 1
 869 0554 003000E3 		movw	r3, #:lower16:.LC10
 870              	.LVL99:
 871 0558 002000E3 		movw	r2, #:lower16:.LC1
 872 055c 003040E3 		movt	r3, #:upper16:.LC10
 873 0560 001000E3 		movw	r1, #:lower16:.LC2
 874 0564 00308DE5 		str	r3, [sp]
 875              	.LVL100:
 876 0568 0400A0E1 		mov	r0, r4
 877              	.LVL101:
 878 056c 002040E3 		movt	r2, #:upper16:.LC1
 879 0570 001040E3 		movt	r1, #:upper16:.LC2
 880 0574 145094E5 		ldr	r5, [r4, #20]
 881              	.LVL102:
 882 0578 5130A0E3 		mov	r3, #81
 883 057c 35FF2FE1 		blx	r5
 884              	.LVL103:
 885 0580 0B00A0E1 		mov	r0, fp
 886 0584 F7FEFFEA 		b	.L68
 887              	.LVL104:
 888              	.L88:
 889              	.LBE454:
 890              	.LBE580:
 891              	.LBB581:
 892              	.LBB569:
 893              	.LBB553:
 147:../src/tensorflow_lite/tensorflow/lite/micro/kernels/cmsis_nn/depthwise_conv.cc ****     }
 894              		.loc 1 147 0
 895 0588 0030E0E3 		mvn	r3, #0
 896 058c 343086E5 		str	r3, [r6, #52]
 897 0590 B0FFFFEA 		b	.L37
 898              	.LVL105:
 899              	.L10:
 900              	.LBE553:
 901              	.LBE569:
 902              	.LBE581:
  48:../src/tensorflow_lite/tensorflow/lite/micro/kernels/cmsis_nn/depthwise_conv.cc ****   TFLITE_DCHECK(node->builtin_data != nullptr);
 903              		.loc 1 48 0 discriminator 1
 904 0594 FEFFFFEB 		bl	abort
 905              	.LVL106:
 906              	.LEHE4:
 907              	.L28:
 908              	.LEHB5:
 909              	.LBB582:
 910              	.LBB570:
 911              	.LBB554:
 912              	.LBB537:
 913              	.LBB535:
 914              	.LBB533:
 915              	.LBB531:
 916              	.LBB529:
 917              	.LBB526:
 250:C:/Renesas/e2studio_2021_01_workspace_RZA2M_ANPR/ANPR_RZA2M_GR_MANGO/src/tensorflow_lite/tensorflow/lite/kernels/internal\types.h **** #endif  // TF_LITE_STATIC_MEMORY
 918              		.loc 4 250 0
 919 0598 FEFFFFEB 		bl	__cxa_throw_bad_array_new_length
 920              	.LVL107:
 921              	.LEHE5:
 922              	.L22:
 923              	.LEHB6:
 924              	.LBE526:
 925              	.LBE529:
 926              	.LBE531:
 927              	.LBE533:
 928              	.LBE535:
 929              	.LBE537:
 930              	.LBE554:
 931              	.LBB555:
 932              	.LBB499:
 933              	.LBB497:
 934              	.LBB495:
 935              	.LBB493:
 936              	.LBB491:
 937              	.LBB488:
 938 059c FEFFFFEB 		bl	__cxa_throw_bad_array_new_length
 939              	.LVL108:
 940              	.L49:
 941              	.L44:
 942              	.LBE488:
 943              	.LBE491:
 944              	.LBE493:
 945              	.LBE495:
 946              	.LBE497:
 947              	.LBE499:
 948              	.LBE555:
 949              	.LBB556:
 950              	.LBB557:
 203:C:/Renesas/e2studio_2021_01_workspace_RZA2M_ANPR/ANPR_RZA2M_GR_MANGO/src/tensorflow_lite/tensorflow/lite/kernels/internal\types.h **** #ifdef TF_LITE_STATIC_MEMORY
 951              		.loc 4 203 0
 952 05a0 74309DE5 		ldr	r3, [sp, #116]
 953 05a4 050053E3 		cmp	r3, #5
 954 05a8 030000DA 		ble	.L45
 207:C:/Renesas/e2studio_2021_01_workspace_RZA2M_ANPR/ANPR_RZA2M_GR_MANGO/src/tensorflow_lite/tensorflow/lite/kernels/internal\types.h **** #endif  // TF_LITE_STATIC_MEMORY
 955              		.loc 4 207 0
 956 05ac 78009DE5 		ldr	r0, [sp, #120]
 957 05b0 000050E3 		cmp	r0, #0
 958 05b4 0000000A 		beq	.L45
 959 05b8 FEFFFFEB 		bl	_ZdaPv
 960              	.LVL109:
 961              	.L45:
 962 05bc FEFFFFEB 		bl	__cxa_end_cleanup
 963              	.LVL110:
 964              	.LEHE6:
 965              	.L25:
 966              	.LEHB7:
 967              	.LBE557:
 968              	.LBE556:
 969              	.LBB558:
 970              	.LBB518:
 971              	.LBB516:
 972              	.LBB514:
 973              	.LBB512:
 974              	.LBB510:
 975              	.LBB507:
 250:C:/Renesas/e2studio_2021_01_workspace_RZA2M_ANPR/ANPR_RZA2M_GR_MANGO/src/tensorflow_lite/tensorflow/lite/kernels/internal\types.h **** #endif  // TF_LITE_STATIC_MEMORY
 976              		.loc 4 250 0
 977 05c0 FEFFFFEB 		bl	__cxa_throw_bad_array_new_length
 978              	.LVL111:
 979              	.LEHE7:
 980              	.L82:
 981              	.LEHB8:
 982              	.LBE507:
 983              	.LBE510:
 984              	.LBE512:
 985              	.LBE514:
 986              	.LBE516:
 987              	.LBE518:
 988              	.LBE558:
 110:../src/tensorflow_lite/tensorflow/lite/micro/kernels/cmsis_nn/depthwise_conv.cc ****     TFLITE_DCHECK_EQ(filter_shape.DimensionsCount(), 4);
 989              		.loc 1 110 0 discriminator 1
 990 05c4 FEFFFFEB 		bl	abort
 991              	.LVL112:
 992              	.LEHE8:
 993              	.L50:
 994              	.L42:
 995              	.LBB559:
 996              	.LBB560:
 203:C:/Renesas/e2studio_2021_01_workspace_RZA2M_ANPR/ANPR_RZA2M_GR_MANGO/src/tensorflow_lite/tensorflow/lite/kernels/internal\types.h **** #ifdef TF_LITE_STATIC_MEMORY
 997              		.loc 4 203 0
 998 05c8 8C309DE5 		ldr	r3, [sp, #140]
 999 05cc 050053E3 		cmp	r3, #5
 1000 05d0 F2FFFFDA 		ble	.L44
 207:C:/Renesas/e2studio_2021_01_workspace_RZA2M_ANPR/ANPR_RZA2M_GR_MANGO/src/tensorflow_lite/tensorflow/lite/kernels/internal\types.h **** #endif  // TF_LITE_STATIC_MEMORY
 1001              		.loc 4 207 0
 1002 05d4 90009DE5 		ldr	r0, [sp, #144]
 1003 05d8 000050E3 		cmp	r0, #0
 1004 05dc EFFFFF0A 		beq	.L44
 1005 05e0 FEFFFFEB 		bl	_ZdaPv
 1006              	.LVL113:
 1007 05e4 EDFFFFEA 		b	.L44
 1008              	.LVL114:
 1009              	.L51:
 1010              	.LBE560:
 1011              	.LBE559:
 1012              	.LBB561:
 1013              	.LBB562:
 203:C:/Renesas/e2studio_2021_01_workspace_RZA2M_ANPR/ANPR_RZA2M_GR_MANGO/src/tensorflow_lite/tensorflow/lite/kernels/internal\types.h **** #ifdef TF_LITE_STATIC_MEMORY
 1014              		.loc 4 203 0
 1015 05e8 A4309DE5 		ldr	r3, [sp, #164]
 1016 05ec 050053E3 		cmp	r3, #5
 1017 05f0 F4FFFFDA 		ble	.L42
 207:C:/Renesas/e2studio_2021_01_workspace_RZA2M_ANPR/ANPR_RZA2M_GR_MANGO/src/tensorflow_lite/tensorflow/lite/kernels/internal\types.h **** #endif  // TF_LITE_STATIC_MEMORY
 1018              		.loc 4 207 0
 1019 05f4 A8009DE5 		ldr	r0, [sp, #168]
 1020 05f8 000050E3 		cmp	r0, #0
 1021 05fc F1FFFF0A 		beq	.L42
 1022 0600 FEFFFFEB 		bl	_ZdaPv
 1023              	.LVL115:
 1024 0604 EFFFFFEA 		b	.L42
 1025              	.LVL116:
 1026              	.L52:
 1027 0608 EEFFFFEA 		b	.L42
 1028              	.LVL117:
 1029              	.L87:
 1030              	.LEHB9:
 1031              	.LBE562:
 1032              	.LBE561:
 116:../src/tensorflow_lite/tensorflow/lite/micro/kernels/cmsis_nn/depthwise_conv.cc **** 
 1033              		.loc 1 116 0 discriminator 1
 1034 060c FEFFFFEB 		bl	abort
 1035              	.LVL118:
 1036              	.L86:
 1037              	.LBB563:
 1038              	.LBB547:
 1039              		.loc 4 472 0
 1040 0610 FEFFFFEB 		bl	abort
 1041              	.LVL119:
 1042              	.L85:
 1043              	.LBE547:
 1044              	.LBE563:
 1045              	.LBB564:
 1046              	.LBB542:
 1047 0614 FEFFFFEB 		bl	abort
 1048              	.LVL120:
 1049              	.L84:
 1050              	.LBE542:
 1051              	.LBE564:
 112:../src/tensorflow_lite/tensorflow/lite/micro/kernels/cmsis_nn/depthwise_conv.cc **** 
 1052              		.loc 1 112 0 discriminator 1
 1053 0618 FEFFFFEB 		bl	abort
 1054              	.LVL121:
 1055              	.LEHE9:
 1056              	.L83:
 1057              	.LEHB10:
 111:../src/tensorflow_lite/tensorflow/lite/micro/kernels/cmsis_nn/depthwise_conv.cc ****     TFLITE_DCHECK_EQ(output_shape.DimensionsCount(), 4);
 1058              		.loc 1 111 0 discriminator 1
 1059 061c FEFFFFEB 		bl	abort
 1060              	.LVL122:
 1061              	.LEHE10:
 1062              	.LBE570:
 1063              	.LBE582:
 1064              		.cfi_endproc
 1065              	.LFE4270:
 1066              		.global	__gxx_personality_v0
 1067              		.personality	__gxx_personality_v0
 1068              		.handlerdata
 1069              	.LLSDA4270:
 1070 0008 FF       		.byte	0xff
 1071 0009 FF       		.byte	0xff
 1072 000a 01       		.byte	0x1
 1073 000b 40       		.uleb128 .LLSDACSE4270-.LLSDACSB4270
 1074              	.LLSDACSB4270:
 1075 000c 34       		.uleb128 .LEHB0-.LFB4270
 1076 000d C805     		.uleb128 .LEHE0-.LEHB0
 1077 000f 00       		.uleb128 0
 1078 0010 00       		.uleb128 0
 1079 0011 B406     		.uleb128 .LEHB1-.LFB4270
 1080 0013 04       		.uleb128 .LEHE1-.LEHB1
 1081 0014 A00B     		.uleb128 .L49-.LFB4270
 1082 0016 00       		.uleb128 0
 1083 0017 EC06     		.uleb128 .LEHB2-.LFB4270
 1084 0019 04       		.uleb128 .LEHE2-.LEHB2
 1085 001a C80B     		.uleb128 .L50-.LFB4270
 1086 001c 00       		.uleb128 0
 1087 001d B408     		.uleb128 .LEHB3-.LFB4270
 1088 001f 1C       		.uleb128 .LEHE3-.LEHB3
 1089 0020 880C     		.uleb128 .L52-.LFB4270
 1090 0022 00       		.uleb128 0
 1091 0023 8809     		.uleb128 .LEHB4-.LFB4270
 1092 0025 9002     		.uleb128 .LEHE4-.LEHB4
 1093 0027 00       		.uleb128 0
 1094 0028 00       		.uleb128 0
 1095 0029 980B     		.uleb128 .LEHB5-.LFB4270
 1096 002b 04       		.uleb128 .LEHE5-.LEHB5
 1097 002c C80B     		.uleb128 .L50-.LFB4270
 1098 002e 00       		.uleb128 0
 1099 002f 9C0B     		.uleb128 .LEHB6-.LFB4270
 1100 0031 24       		.uleb128 .LEHE6-.LEHB6
 1101 0032 00       		.uleb128 0
 1102 0033 00       		.uleb128 0
 1103 0034 C00B     		.uleb128 .LEHB7-.LFB4270
 1104 0036 04       		.uleb128 .LEHE7-.LEHB7
 1105 0037 A00B     		.uleb128 .L49-.LFB4270
 1106 0039 00       		.uleb128 0
 1107 003a C40B     		.uleb128 .LEHB8-.LFB4270
 1108 003c 04       		.uleb128 .LEHE8-.LEHB8
 1109 003d E80B     		.uleb128 .L51-.LFB4270
 1110 003f 00       		.uleb128 0
 1111 0040 8C0C     		.uleb128 .LEHB9-.LFB4270
 1112 0042 10       		.uleb128 .LEHE9-.LEHB9
 1113 0043 880C     		.uleb128 .L52-.LFB4270
 1114 0045 00       		.uleb128 0
 1115 0046 9C0C     		.uleb128 .LEHB10-.LFB4270
 1116 0048 04       		.uleb128 .LEHE10-.LEHB10
 1117 0049 E80B     		.uleb128 .L51-.LFB4270
 1118 004b 00       		.uleb128 0
 1119              	.LLSDACSE4270:
 1120              		.section	.text._ZN6tflite12_GLOBAL__N_17PrepareEP13TfLiteContextP10TfLiteNode
 1121              		.fnend
 1123              		.section	.text._ZN6tflite12_GLOBAL__N_14EvalEP13TfLiteContextP10TfLiteNode,"ax",%progbits
 1124              		.align	2
 1125              		.syntax unified
 1126              		.arm
 1127              		.fpu neon
 1129              	_ZN6tflite12_GLOBAL__N_14EvalEP13TfLiteContextP10TfLiteNode:
 1130              		.fnstart
 1131              	.LFB4272:
 152:../src/tensorflow_lite/tensorflow/lite/micro/kernels/cmsis_nn/depthwise_conv.cc **** 
 153:../src/tensorflow_lite/tensorflow/lite/micro/kernels/cmsis_nn/depthwise_conv.cc **** void EvalQuantizedPerChannel(TfLiteContext* context, TfLiteNode* node,
 154:../src/tensorflow_lite/tensorflow/lite/micro/kernels/cmsis_nn/depthwise_conv.cc ****                              const TfLiteDepthwiseConvParams& params,
 155:../src/tensorflow_lite/tensorflow/lite/micro/kernels/cmsis_nn/depthwise_conv.cc ****                              const OpData& data, const TfLiteEvalTensor* input,
 156:../src/tensorflow_lite/tensorflow/lite/micro/kernels/cmsis_nn/depthwise_conv.cc ****                              const TfLiteEvalTensor* filter,
 157:../src/tensorflow_lite/tensorflow/lite/micro/kernels/cmsis_nn/depthwise_conv.cc ****                              const TfLiteEvalTensor* bias,
 158:../src/tensorflow_lite/tensorflow/lite/micro/kernels/cmsis_nn/depthwise_conv.cc ****                              TfLiteEvalTensor* output) {
 159:../src/tensorflow_lite/tensorflow/lite/micro/kernels/cmsis_nn/depthwise_conv.cc ****   cmsis_nn_dw_conv_params dw_conv_params;
 160:../src/tensorflow_lite/tensorflow/lite/micro/kernels/cmsis_nn/depthwise_conv.cc ****   dw_conv_params.dilation.h = params.dilation_height_factor;
 161:../src/tensorflow_lite/tensorflow/lite/micro/kernels/cmsis_nn/depthwise_conv.cc ****   dw_conv_params.dilation.w = params.dilation_width_factor;
 162:../src/tensorflow_lite/tensorflow/lite/micro/kernels/cmsis_nn/depthwise_conv.cc ****   // Call to reference implementation can be removed when dilation is supported
 163:../src/tensorflow_lite/tensorflow/lite/micro/kernels/cmsis_nn/depthwise_conv.cc ****   // in the optimized implementations.
 164:../src/tensorflow_lite/tensorflow/lite/micro/kernels/cmsis_nn/depthwise_conv.cc ****   if (1 == dw_conv_params.dilation.h && 1 == dw_conv_params.dilation.w) {
 165:../src/tensorflow_lite/tensorflow/lite/micro/kernels/cmsis_nn/depthwise_conv.cc ****     dw_conv_params.input_offset = -data.reference_op_data.input_zero_point;
 166:../src/tensorflow_lite/tensorflow/lite/micro/kernels/cmsis_nn/depthwise_conv.cc ****     dw_conv_params.output_offset = data.reference_op_data.output_zero_point;
 167:../src/tensorflow_lite/tensorflow/lite/micro/kernels/cmsis_nn/depthwise_conv.cc ****     dw_conv_params.stride.h = params.stride_height;
 168:../src/tensorflow_lite/tensorflow/lite/micro/kernels/cmsis_nn/depthwise_conv.cc ****     dw_conv_params.stride.w = params.stride_width;
 169:../src/tensorflow_lite/tensorflow/lite/micro/kernels/cmsis_nn/depthwise_conv.cc ****     dw_conv_params.padding.h = data.reference_op_data.padding.height;
 170:../src/tensorflow_lite/tensorflow/lite/micro/kernels/cmsis_nn/depthwise_conv.cc ****     dw_conv_params.padding.w = data.reference_op_data.padding.width;
 171:../src/tensorflow_lite/tensorflow/lite/micro/kernels/cmsis_nn/depthwise_conv.cc ****     // TODO(b/130439627): Use calculated value for clamping.
 172:../src/tensorflow_lite/tensorflow/lite/micro/kernels/cmsis_nn/depthwise_conv.cc ****     dw_conv_params.activation.min = std::numeric_limits<int8_t>::min();
 173:../src/tensorflow_lite/tensorflow/lite/micro/kernels/cmsis_nn/depthwise_conv.cc ****     dw_conv_params.activation.max = std::numeric_limits<int8_t>::max();
 174:../src/tensorflow_lite/tensorflow/lite/micro/kernels/cmsis_nn/depthwise_conv.cc ****     dw_conv_params.ch_mult = params.depth_multiplier;
 175:../src/tensorflow_lite/tensorflow/lite/micro/kernels/cmsis_nn/depthwise_conv.cc **** 
 176:../src/tensorflow_lite/tensorflow/lite/micro/kernels/cmsis_nn/depthwise_conv.cc ****     cmsis_nn_per_channel_quant_params quant_params;
 177:../src/tensorflow_lite/tensorflow/lite/micro/kernels/cmsis_nn/depthwise_conv.cc ****     quant_params.multiplier =
 178:../src/tensorflow_lite/tensorflow/lite/micro/kernels/cmsis_nn/depthwise_conv.cc ****         data.reference_op_data.per_channel_output_multiplier;
 179:../src/tensorflow_lite/tensorflow/lite/micro/kernels/cmsis_nn/depthwise_conv.cc ****     quant_params.shift = data.reference_op_data.per_channel_output_shift;
 180:../src/tensorflow_lite/tensorflow/lite/micro/kernels/cmsis_nn/depthwise_conv.cc **** 
 181:../src/tensorflow_lite/tensorflow/lite/micro/kernels/cmsis_nn/depthwise_conv.cc ****     RuntimeShape filter_shape = tflite::micro::GetTensorShape(filter);
 182:../src/tensorflow_lite/tensorflow/lite/micro/kernels/cmsis_nn/depthwise_conv.cc ****     RuntimeShape input_shape = tflite::micro::GetTensorShape(input);
 183:../src/tensorflow_lite/tensorflow/lite/micro/kernels/cmsis_nn/depthwise_conv.cc ****     RuntimeShape output_shape = tflite::micro::GetTensorShape(output);
 184:../src/tensorflow_lite/tensorflow/lite/micro/kernels/cmsis_nn/depthwise_conv.cc ****     RuntimeShape bias_shape = tflite::micro::GetTensorShape(bias);
 185:../src/tensorflow_lite/tensorflow/lite/micro/kernels/cmsis_nn/depthwise_conv.cc **** 
 186:../src/tensorflow_lite/tensorflow/lite/micro/kernels/cmsis_nn/depthwise_conv.cc ****     TFLITE_DCHECK_LE(dw_conv_params.activation.min,
 187:../src/tensorflow_lite/tensorflow/lite/micro/kernels/cmsis_nn/depthwise_conv.cc ****                      dw_conv_params.activation.max);
 188:../src/tensorflow_lite/tensorflow/lite/micro/kernels/cmsis_nn/depthwise_conv.cc **** 
 189:../src/tensorflow_lite/tensorflow/lite/micro/kernels/cmsis_nn/depthwise_conv.cc ****     const int batch_size = MatchingDim(input_shape, 0, output_shape, 0);
 190:../src/tensorflow_lite/tensorflow/lite/micro/kernels/cmsis_nn/depthwise_conv.cc ****     const int output_depth = MatchingDim(filter_shape, 3, output_shape, 3);
 191:../src/tensorflow_lite/tensorflow/lite/micro/kernels/cmsis_nn/depthwise_conv.cc **** 
 192:../src/tensorflow_lite/tensorflow/lite/micro/kernels/cmsis_nn/depthwise_conv.cc ****     if (tflite::micro::GetTensorData<int8_t>(bias)) {
 193:../src/tensorflow_lite/tensorflow/lite/micro/kernels/cmsis_nn/depthwise_conv.cc ****       TFLITE_DCHECK_EQ(bias_shape.FlatSize(), output_depth);
 194:../src/tensorflow_lite/tensorflow/lite/micro/kernels/cmsis_nn/depthwise_conv.cc ****     }
 195:../src/tensorflow_lite/tensorflow/lite/micro/kernels/cmsis_nn/depthwise_conv.cc **** 
 196:../src/tensorflow_lite/tensorflow/lite/micro/kernels/cmsis_nn/depthwise_conv.cc ****     cmsis_nn_dims input_dims;
 197:../src/tensorflow_lite/tensorflow/lite/micro/kernels/cmsis_nn/depthwise_conv.cc ****     input_dims.n = batch_size;
 198:../src/tensorflow_lite/tensorflow/lite/micro/kernels/cmsis_nn/depthwise_conv.cc ****     input_dims.h = input_shape.Dims(1);
 199:../src/tensorflow_lite/tensorflow/lite/micro/kernels/cmsis_nn/depthwise_conv.cc ****     input_dims.w = input_shape.Dims(2);
 200:../src/tensorflow_lite/tensorflow/lite/micro/kernels/cmsis_nn/depthwise_conv.cc ****     input_dims.c = input_shape.Dims(3);
 201:../src/tensorflow_lite/tensorflow/lite/micro/kernels/cmsis_nn/depthwise_conv.cc **** 
 202:../src/tensorflow_lite/tensorflow/lite/micro/kernels/cmsis_nn/depthwise_conv.cc ****     cmsis_nn_dims filter_dims;
 203:../src/tensorflow_lite/tensorflow/lite/micro/kernels/cmsis_nn/depthwise_conv.cc ****     filter_dims.n = filter_shape.Dims(0);
 204:../src/tensorflow_lite/tensorflow/lite/micro/kernels/cmsis_nn/depthwise_conv.cc ****     filter_dims.h = filter_shape.Dims(1);
 205:../src/tensorflow_lite/tensorflow/lite/micro/kernels/cmsis_nn/depthwise_conv.cc ****     filter_dims.w = filter_shape.Dims(2);
 206:../src/tensorflow_lite/tensorflow/lite/micro/kernels/cmsis_nn/depthwise_conv.cc ****     filter_dims.c = output_depth;
 207:../src/tensorflow_lite/tensorflow/lite/micro/kernels/cmsis_nn/depthwise_conv.cc **** 
 208:../src/tensorflow_lite/tensorflow/lite/micro/kernels/cmsis_nn/depthwise_conv.cc ****     cmsis_nn_dims bias_dims;
 209:../src/tensorflow_lite/tensorflow/lite/micro/kernels/cmsis_nn/depthwise_conv.cc ****     bias_dims.n = 1;
 210:../src/tensorflow_lite/tensorflow/lite/micro/kernels/cmsis_nn/depthwise_conv.cc ****     bias_dims.h = 1;
 211:../src/tensorflow_lite/tensorflow/lite/micro/kernels/cmsis_nn/depthwise_conv.cc ****     bias_dims.w = 1;
 212:../src/tensorflow_lite/tensorflow/lite/micro/kernels/cmsis_nn/depthwise_conv.cc ****     bias_dims.c = output_depth;
 213:../src/tensorflow_lite/tensorflow/lite/micro/kernels/cmsis_nn/depthwise_conv.cc **** 
 214:../src/tensorflow_lite/tensorflow/lite/micro/kernels/cmsis_nn/depthwise_conv.cc ****     cmsis_nn_dims output_dims;
 215:../src/tensorflow_lite/tensorflow/lite/micro/kernels/cmsis_nn/depthwise_conv.cc ****     output_dims.n = batch_size;
 216:../src/tensorflow_lite/tensorflow/lite/micro/kernels/cmsis_nn/depthwise_conv.cc ****     output_dims.h = output_shape.Dims(1);
 217:../src/tensorflow_lite/tensorflow/lite/micro/kernels/cmsis_nn/depthwise_conv.cc ****     output_dims.w = output_shape.Dims(2);
 218:../src/tensorflow_lite/tensorflow/lite/micro/kernels/cmsis_nn/depthwise_conv.cc ****     output_dims.c = output_depth;
 219:../src/tensorflow_lite/tensorflow/lite/micro/kernels/cmsis_nn/depthwise_conv.cc **** 
 220:../src/tensorflow_lite/tensorflow/lite/micro/kernels/cmsis_nn/depthwise_conv.cc ****     cmsis_nn_context ctx;
 221:../src/tensorflow_lite/tensorflow/lite/micro/kernels/cmsis_nn/depthwise_conv.cc ****     ctx.buf = nullptr;
 222:../src/tensorflow_lite/tensorflow/lite/micro/kernels/cmsis_nn/depthwise_conv.cc ****     /* 'size' is unused */
 223:../src/tensorflow_lite/tensorflow/lite/micro/kernels/cmsis_nn/depthwise_conv.cc ****     ctx.size = 0;
 224:../src/tensorflow_lite/tensorflow/lite/micro/kernels/cmsis_nn/depthwise_conv.cc **** 
 225:../src/tensorflow_lite/tensorflow/lite/micro/kernels/cmsis_nn/depthwise_conv.cc ****     if (data.buffer_idx > -1) {
 226:../src/tensorflow_lite/tensorflow/lite/micro/kernels/cmsis_nn/depthwise_conv.cc ****       ctx.buf = context->GetScratchBuffer(context, data.buffer_idx);
 227:../src/tensorflow_lite/tensorflow/lite/micro/kernels/cmsis_nn/depthwise_conv.cc ****     }
 228:../src/tensorflow_lite/tensorflow/lite/micro/kernels/cmsis_nn/depthwise_conv.cc **** 
 229:../src/tensorflow_lite/tensorflow/lite/micro/kernels/cmsis_nn/depthwise_conv.cc ****     TFLITE_DCHECK_EQ(
 230:../src/tensorflow_lite/tensorflow/lite/micro/kernels/cmsis_nn/depthwise_conv.cc ****         arm_depthwise_conv_wrapper_s8(
 231:../src/tensorflow_lite/tensorflow/lite/micro/kernels/cmsis_nn/depthwise_conv.cc ****             &ctx, &dw_conv_params, &quant_params, &input_dims,
 232:../src/tensorflow_lite/tensorflow/lite/micro/kernels/cmsis_nn/depthwise_conv.cc ****             tflite::micro::GetTensorData<int8_t>(input), &filter_dims,
 233:../src/tensorflow_lite/tensorflow/lite/micro/kernels/cmsis_nn/depthwise_conv.cc ****             tflite::micro::GetTensorData<int8_t>(filter), &bias_dims,
 234:../src/tensorflow_lite/tensorflow/lite/micro/kernels/cmsis_nn/depthwise_conv.cc ****             tflite::micro::GetTensorData<int32_t>(bias), &output_dims,
 235:../src/tensorflow_lite/tensorflow/lite/micro/kernels/cmsis_nn/depthwise_conv.cc ****             tflite::micro::GetTensorData<int8_t>(output)),
 236:../src/tensorflow_lite/tensorflow/lite/micro/kernels/cmsis_nn/depthwise_conv.cc ****         ARM_MATH_SUCCESS);
 237:../src/tensorflow_lite/tensorflow/lite/micro/kernels/cmsis_nn/depthwise_conv.cc ****   } else {
 238:../src/tensorflow_lite/tensorflow/lite/micro/kernels/cmsis_nn/depthwise_conv.cc ****     reference_integer_ops::DepthwiseConvPerChannel(
 239:../src/tensorflow_lite/tensorflow/lite/micro/kernels/cmsis_nn/depthwise_conv.cc ****         DepthwiseConvParamsQuantized(params, data.reference_op_data),
 240:../src/tensorflow_lite/tensorflow/lite/micro/kernels/cmsis_nn/depthwise_conv.cc ****         data.reference_op_data.per_channel_output_multiplier,
 241:../src/tensorflow_lite/tensorflow/lite/micro/kernels/cmsis_nn/depthwise_conv.cc ****         data.reference_op_data.per_channel_output_shift,
 242:../src/tensorflow_lite/tensorflow/lite/micro/kernels/cmsis_nn/depthwise_conv.cc ****         tflite::micro::GetTensorShape(input),
 243:../src/tensorflow_lite/tensorflow/lite/micro/kernels/cmsis_nn/depthwise_conv.cc ****         tflite::micro::GetTensorData<int8_t>(input),
 244:../src/tensorflow_lite/tensorflow/lite/micro/kernels/cmsis_nn/depthwise_conv.cc ****         tflite::micro::GetTensorShape(filter),
 245:../src/tensorflow_lite/tensorflow/lite/micro/kernels/cmsis_nn/depthwise_conv.cc ****         tflite::micro::GetTensorData<int8_t>(filter),
 246:../src/tensorflow_lite/tensorflow/lite/micro/kernels/cmsis_nn/depthwise_conv.cc ****         tflite::micro::GetTensorShape(bias),
 247:../src/tensorflow_lite/tensorflow/lite/micro/kernels/cmsis_nn/depthwise_conv.cc ****         tflite::micro::GetTensorData<int32_t>(bias),
 248:../src/tensorflow_lite/tensorflow/lite/micro/kernels/cmsis_nn/depthwise_conv.cc ****         tflite::micro::GetTensorShape(output),
 249:../src/tensorflow_lite/tensorflow/lite/micro/kernels/cmsis_nn/depthwise_conv.cc ****         tflite::micro::GetTensorData<int8_t>(output));
 250:../src/tensorflow_lite/tensorflow/lite/micro/kernels/cmsis_nn/depthwise_conv.cc ****   }
 251:../src/tensorflow_lite/tensorflow/lite/micro/kernels/cmsis_nn/depthwise_conv.cc **** }
 252:../src/tensorflow_lite/tensorflow/lite/micro/kernels/cmsis_nn/depthwise_conv.cc **** 
 253:../src/tensorflow_lite/tensorflow/lite/micro/kernels/cmsis_nn/depthwise_conv.cc **** TfLiteStatus Eval(TfLiteContext* context, TfLiteNode* node) {
 1132              		.loc 1 253 0
 1133              		.cfi_startproc
 1134              		.cfi_personality 0,__gxx_personality_v0
 1135              		.cfi_lsda 0,.LLSDA4272
 1136              		@ args = 0, pretend = 0, frame = 472
 1137              		@ frame_needed = 0, uses_anonymous_args = 0
 1138              	.LVL123:
 1139 0000 F04F2DE9 		push	{r4, r5, r6, r7, r8, r9, r10, fp, lr}
 1140              		.save {r4, r5, r6, r7, r8, r9, r10, fp, lr}
 1141              		.cfi_def_cfa_offset 36
 1142              		.cfi_offset 4, -36
 1143              		.cfi_offset 5, -32
 1144              		.cfi_offset 6, -28
 1145              		.cfi_offset 7, -24
 1146              		.cfi_offset 8, -20
 1147              		.cfi_offset 9, -16
 1148              		.cfi_offset 10, -12
 1149              		.cfi_offset 11, -8
 1150              		.cfi_offset 14, -4
 1151              		.pad #508
 1152 0004 7FDF4DE2 		sub	sp, sp, #508
 1153              		.cfi_def_cfa_offset 544
 254:../src/tensorflow_lite/tensorflow/lite/micro/kernels/cmsis_nn/depthwise_conv.cc ****   TFLITE_DCHECK(node->user_data != nullptr);
 1154              		.loc 1 254 0
 1155 0008 106091E5 		ldr	r6, [r1, #16]
 1156 000c 000056E3 		cmp	r6, #0
 1157 0010 8206000A 		beq	.L91
 255:../src/tensorflow_lite/tensorflow/lite/micro/kernels/cmsis_nn/depthwise_conv.cc ****   TFLITE_DCHECK(node->builtin_data != nullptr);
 1158              		.loc 1 255 0
 1159 0014 14A091E5 		ldr	r10, [r1, #20]
 1160 0018 0180A0E1 		mov	r8, r1
 1161 001c 00005AE3 		cmp	r10, #0
 1162 0020 7E06000A 		beq	.L91
 256:../src/tensorflow_lite/tensorflow/lite/micro/kernels/cmsis_nn/depthwise_conv.cc **** 
 257:../src/tensorflow_lite/tensorflow/lite/micro/kernels/cmsis_nn/depthwise_conv.cc ****   const auto& params =
 258:../src/tensorflow_lite/tensorflow/lite/micro/kernels/cmsis_nn/depthwise_conv.cc ****       *(reinterpret_cast<TfLiteDepthwiseConvParams*>(node->builtin_data));
 259:../src/tensorflow_lite/tensorflow/lite/micro/kernels/cmsis_nn/depthwise_conv.cc ****   const OpData& data = *(static_cast<OpData*>(node->user_data));
 260:../src/tensorflow_lite/tensorflow/lite/micro/kernels/cmsis_nn/depthwise_conv.cc **** 
 261:../src/tensorflow_lite/tensorflow/lite/micro/kernels/cmsis_nn/depthwise_conv.cc ****   TfLiteEvalTensor* output =
 262:../src/tensorflow_lite/tensorflow/lite/micro/kernels/cmsis_nn/depthwise_conv.cc ****       tflite::micro::GetEvalOutput(context, node, kDepthwiseConvOutputTensor);
 1163              		.loc 1 262 0
 1164 0024 003000E3 		movw	r3, #:lower16:_ZN6tflite26kDepthwiseConvOutputTensorE
 1165              	.LBB882:
 1166              	.LBB883:
 1167              		.file 5 "C:/Renesas/e2studio_2021_01_workspace_RZA2M_ANPR/ANPR_RZA2M_GR_MANGO/src/tensorflow_lite/
   1:C:/Renesas/e2studio_2021_01_workspace_RZA2M_ANPR/ANPR_RZA2M_GR_MANGO/src/tensorflow_lite/tensorflow/lite/micro/kernels\kernel_util.h **** /* Copyright 2020 The TensorFlow Authors. All Rights Reserved.
   2:C:/Renesas/e2studio_2021_01_workspace_RZA2M_ANPR/ANPR_RZA2M_GR_MANGO/src/tensorflow_lite/tensorflow/lite/micro/kernels\kernel_util.h **** 
   3:C:/Renesas/e2studio_2021_01_workspace_RZA2M_ANPR/ANPR_RZA2M_GR_MANGO/src/tensorflow_lite/tensorflow/lite/micro/kernels\kernel_util.h **** Licensed under the Apache License, Version 2.0 (the "License");
   4:C:/Renesas/e2studio_2021_01_workspace_RZA2M_ANPR/ANPR_RZA2M_GR_MANGO/src/tensorflow_lite/tensorflow/lite/micro/kernels\kernel_util.h **** you may not use this file except in compliance with the License.
   5:C:/Renesas/e2studio_2021_01_workspace_RZA2M_ANPR/ANPR_RZA2M_GR_MANGO/src/tensorflow_lite/tensorflow/lite/micro/kernels\kernel_util.h **** You may obtain a copy of the License at
   6:C:/Renesas/e2studio_2021_01_workspace_RZA2M_ANPR/ANPR_RZA2M_GR_MANGO/src/tensorflow_lite/tensorflow/lite/micro/kernels\kernel_util.h **** 
   7:C:/Renesas/e2studio_2021_01_workspace_RZA2M_ANPR/ANPR_RZA2M_GR_MANGO/src/tensorflow_lite/tensorflow/lite/micro/kernels\kernel_util.h ****     http://www.apache.org/licenses/LICENSE-2.0
   8:C:/Renesas/e2studio_2021_01_workspace_RZA2M_ANPR/ANPR_RZA2M_GR_MANGO/src/tensorflow_lite/tensorflow/lite/micro/kernels\kernel_util.h **** 
   9:C:/Renesas/e2studio_2021_01_workspace_RZA2M_ANPR/ANPR_RZA2M_GR_MANGO/src/tensorflow_lite/tensorflow/lite/micro/kernels\kernel_util.h **** Unless required by applicable law or agreed to in writing, software
  10:C:/Renesas/e2studio_2021_01_workspace_RZA2M_ANPR/ANPR_RZA2M_GR_MANGO/src/tensorflow_lite/tensorflow/lite/micro/kernels\kernel_util.h **** distributed under the License is distributed on an "AS IS" BASIS,
  11:C:/Renesas/e2studio_2021_01_workspace_RZA2M_ANPR/ANPR_RZA2M_GR_MANGO/src/tensorflow_lite/tensorflow/lite/micro/kernels\kernel_util.h **** WITHOUT WARRANTIES OR CONDITIONS OF ANY KIND, either express or implied.
  12:C:/Renesas/e2studio_2021_01_workspace_RZA2M_ANPR/ANPR_RZA2M_GR_MANGO/src/tensorflow_lite/tensorflow/lite/micro/kernels\kernel_util.h **** See the License for the specific language governing permissions and
  13:C:/Renesas/e2studio_2021_01_workspace_RZA2M_ANPR/ANPR_RZA2M_GR_MANGO/src/tensorflow_lite/tensorflow/lite/micro/kernels\kernel_util.h **** limitations under the License.
  14:C:/Renesas/e2studio_2021_01_workspace_RZA2M_ANPR/ANPR_RZA2M_GR_MANGO/src/tensorflow_lite/tensorflow/lite/micro/kernels\kernel_util.h **** ==============================================================================*/
  15:C:/Renesas/e2studio_2021_01_workspace_RZA2M_ANPR/ANPR_RZA2M_GR_MANGO/src/tensorflow_lite/tensorflow/lite/micro/kernels\kernel_util.h **** 
  16:C:/Renesas/e2studio_2021_01_workspace_RZA2M_ANPR/ANPR_RZA2M_GR_MANGO/src/tensorflow_lite/tensorflow/lite/micro/kernels\kernel_util.h **** #ifndef TENSORFLOW_LITE_MICRO_KERNELS_KERNEL_UTIL_H_
  17:C:/Renesas/e2studio_2021_01_workspace_RZA2M_ANPR/ANPR_RZA2M_GR_MANGO/src/tensorflow_lite/tensorflow/lite/micro/kernels\kernel_util.h **** #define TENSORFLOW_LITE_MICRO_KERNELS_KERNEL_UTIL_H_
  18:C:/Renesas/e2studio_2021_01_workspace_RZA2M_ANPR/ANPR_RZA2M_GR_MANGO/src/tensorflow_lite/tensorflow/lite/micro/kernels\kernel_util.h **** 
  19:C:/Renesas/e2studio_2021_01_workspace_RZA2M_ANPR/ANPR_RZA2M_GR_MANGO/src/tensorflow_lite/tensorflow/lite/micro/kernels\kernel_util.h **** #include <cstdint>
  20:C:/Renesas/e2studio_2021_01_workspace_RZA2M_ANPR/ANPR_RZA2M_GR_MANGO/src/tensorflow_lite/tensorflow/lite/micro/kernels\kernel_util.h **** 
  21:C:/Renesas/e2studio_2021_01_workspace_RZA2M_ANPR/ANPR_RZA2M_GR_MANGO/src/tensorflow_lite/tensorflow/lite/micro/kernels\kernel_util.h **** #include "tensorflow/lite/c/builtin_op_data.h"
  22:C:/Renesas/e2studio_2021_01_workspace_RZA2M_ANPR/ANPR_RZA2M_GR_MANGO/src/tensorflow_lite/tensorflow/lite/micro/kernels\kernel_util.h **** #include "tensorflow/lite/c/common.h"
  23:C:/Renesas/e2studio_2021_01_workspace_RZA2M_ANPR/ANPR_RZA2M_GR_MANGO/src/tensorflow_lite/tensorflow/lite/micro/kernels\kernel_util.h **** #include "tensorflow/lite/kernels/internal/compatibility.h"
  24:C:/Renesas/e2studio_2021_01_workspace_RZA2M_ANPR/ANPR_RZA2M_GR_MANGO/src/tensorflow_lite/tensorflow/lite/micro/kernels\kernel_util.h **** #include "tensorflow/lite/kernels/internal/types.h"
  25:C:/Renesas/e2studio_2021_01_workspace_RZA2M_ANPR/ANPR_RZA2M_GR_MANGO/src/tensorflow_lite/tensorflow/lite/micro/kernels\kernel_util.h **** 
  26:C:/Renesas/e2studio_2021_01_workspace_RZA2M_ANPR/ANPR_RZA2M_GR_MANGO/src/tensorflow_lite/tensorflow/lite/micro/kernels\kernel_util.h **** namespace tflite {
  27:C:/Renesas/e2studio_2021_01_workspace_RZA2M_ANPR/ANPR_RZA2M_GR_MANGO/src/tensorflow_lite/tensorflow/lite/micro/kernels\kernel_util.h **** namespace micro {
  28:C:/Renesas/e2studio_2021_01_workspace_RZA2M_ANPR/ANPR_RZA2M_GR_MANGO/src/tensorflow_lite/tensorflow/lite/micro/kernels\kernel_util.h **** 
  29:C:/Renesas/e2studio_2021_01_workspace_RZA2M_ANPR/ANPR_RZA2M_GR_MANGO/src/tensorflow_lite/tensorflow/lite/micro/kernels\kernel_util.h **** // Returns a mutable tensor for a given input index. is_variable must be checked
  30:C:/Renesas/e2studio_2021_01_workspace_RZA2M_ANPR/ANPR_RZA2M_GR_MANGO/src/tensorflow_lite/tensorflow/lite/micro/kernels\kernel_util.h **** // during prepare when the full TfLiteTensor is available.
  31:C:/Renesas/e2studio_2021_01_workspace_RZA2M_ANPR/ANPR_RZA2M_GR_MANGO/src/tensorflow_lite/tensorflow/lite/micro/kernels\kernel_util.h **** inline TfLiteEvalTensor* GetMutableEvalInput(const TfLiteContext* context,
  32:C:/Renesas/e2studio_2021_01_workspace_RZA2M_ANPR/ANPR_RZA2M_GR_MANGO/src/tensorflow_lite/tensorflow/lite/micro/kernels\kernel_util.h ****                                              const TfLiteNode* node,
  33:C:/Renesas/e2studio_2021_01_workspace_RZA2M_ANPR/ANPR_RZA2M_GR_MANGO/src/tensorflow_lite/tensorflow/lite/micro/kernels\kernel_util.h ****                                              int index) {
  34:C:/Renesas/e2studio_2021_01_workspace_RZA2M_ANPR/ANPR_RZA2M_GR_MANGO/src/tensorflow_lite/tensorflow/lite/micro/kernels\kernel_util.h ****   TFLITE_DCHECK(context != nullptr);
  35:C:/Renesas/e2studio_2021_01_workspace_RZA2M_ANPR/ANPR_RZA2M_GR_MANGO/src/tensorflow_lite/tensorflow/lite/micro/kernels\kernel_util.h ****   TFLITE_DCHECK(node != nullptr);
  36:C:/Renesas/e2studio_2021_01_workspace_RZA2M_ANPR/ANPR_RZA2M_GR_MANGO/src/tensorflow_lite/tensorflow/lite/micro/kernels\kernel_util.h ****   return context->GetEvalTensor(context, node->inputs->data[index]);
  37:C:/Renesas/e2studio_2021_01_workspace_RZA2M_ANPR/ANPR_RZA2M_GR_MANGO/src/tensorflow_lite/tensorflow/lite/micro/kernels\kernel_util.h **** }
  38:C:/Renesas/e2studio_2021_01_workspace_RZA2M_ANPR/ANPR_RZA2M_GR_MANGO/src/tensorflow_lite/tensorflow/lite/micro/kernels\kernel_util.h **** 
  39:C:/Renesas/e2studio_2021_01_workspace_RZA2M_ANPR/ANPR_RZA2M_GR_MANGO/src/tensorflow_lite/tensorflow/lite/micro/kernels\kernel_util.h **** // Returns the TfLiteEvalTensor struct for a given input index in a node.
  40:C:/Renesas/e2studio_2021_01_workspace_RZA2M_ANPR/ANPR_RZA2M_GR_MANGO/src/tensorflow_lite/tensorflow/lite/micro/kernels\kernel_util.h **** inline const TfLiteEvalTensor* GetEvalInput(const TfLiteContext* context,
  41:C:/Renesas/e2studio_2021_01_workspace_RZA2M_ANPR/ANPR_RZA2M_GR_MANGO/src/tensorflow_lite/tensorflow/lite/micro/kernels\kernel_util.h ****                                             const TfLiteNode* node, int index) {
  42:C:/Renesas/e2studio_2021_01_workspace_RZA2M_ANPR/ANPR_RZA2M_GR_MANGO/src/tensorflow_lite/tensorflow/lite/micro/kernels\kernel_util.h ****   return GetMutableEvalInput(context, node, index);
  43:C:/Renesas/e2studio_2021_01_workspace_RZA2M_ANPR/ANPR_RZA2M_GR_MANGO/src/tensorflow_lite/tensorflow/lite/micro/kernels\kernel_util.h **** }
  44:C:/Renesas/e2studio_2021_01_workspace_RZA2M_ANPR/ANPR_RZA2M_GR_MANGO/src/tensorflow_lite/tensorflow/lite/micro/kernels\kernel_util.h **** 
  45:C:/Renesas/e2studio_2021_01_workspace_RZA2M_ANPR/ANPR_RZA2M_GR_MANGO/src/tensorflow_lite/tensorflow/lite/micro/kernels\kernel_util.h **** // Returns the TfLiteEvalTensor struct for a given output index in a node.
  46:C:/Renesas/e2studio_2021_01_workspace_RZA2M_ANPR/ANPR_RZA2M_GR_MANGO/src/tensorflow_lite/tensorflow/lite/micro/kernels\kernel_util.h **** inline TfLiteEvalTensor* GetEvalOutput(const TfLiteContext* context,
  47:C:/Renesas/e2studio_2021_01_workspace_RZA2M_ANPR/ANPR_RZA2M_GR_MANGO/src/tensorflow_lite/tensorflow/lite/micro/kernels\kernel_util.h ****                                        const TfLiteNode* node, int index) {
  48:C:/Renesas/e2studio_2021_01_workspace_RZA2M_ANPR/ANPR_RZA2M_GR_MANGO/src/tensorflow_lite/tensorflow/lite/micro/kernels\kernel_util.h ****   TFLITE_DCHECK(context != nullptr);
 1168              		.loc 5 48 0
 1169 0028 000050E3 		cmp	r0, #0
 1170              	.LBE883:
 1171              	.LBE882:
 1172              		.loc 1 262 0
 1173 002c 003040E3 		movt	r3, #:upper16:_ZN6tflite26kDepthwiseConvOutputTensorE
 1174 0030 0040A0E1 		mov	r4, r0
 1175              	.LVL124:
 1176 0034 001093E5 		ldr	r1, [r3]
 1177              	.LVL125:
 1178              	.LBB886:
 1179              	.LBB884:
 1180              		.loc 5 48 0
 1181 0038 7806000A 		beq	.L91
  49:C:/Renesas/e2studio_2021_01_workspace_RZA2M_ANPR/ANPR_RZA2M_GR_MANGO/src/tensorflow_lite/tensorflow/lite/micro/kernels\kernel_util.h ****   TFLITE_DCHECK(node != nullptr);
  50:C:/Renesas/e2studio_2021_01_workspace_RZA2M_ANPR/ANPR_RZA2M_GR_MANGO/src/tensorflow_lite/tensorflow/lite/micro/kernels\kernel_util.h ****   return context->GetEvalTensor(context, node->outputs->data[index]);
 1182              		.loc 5 50 0
 1183 003c 043098E5 		ldr	r3, [r8, #4]
 1184 0040 542090E5 		ldr	r2, [r0, #84]
 1185 0044 013183E0 		add	r3, r3, r1, lsl #2
 1186 0048 041093E5 		ldr	r1, [r3, #4]
 1187              	.LVL126:
 1188              	.LEHB11:
 1189 004c 32FF2FE1 		blx	r2
 1190              	.LVL127:
 1191              	.LBE884:
 1192              	.LBE886:
 1193              	.LBB887:
 1194              	.LBB888:
 1195              	.LBB889:
  36:C:/Renesas/e2studio_2021_01_workspace_RZA2M_ANPR/ANPR_RZA2M_GR_MANGO/src/tensorflow_lite/tensorflow/lite/micro/kernels\kernel_util.h **** }
 1196              		.loc 5 36 0
 1197 0050 002000E3 		movw	r2, #:lower16:_ZN6tflite25kDepthwiseConvInputTensorE
 1198 0054 003098E5 		ldr	r3, [r8]
 1199 0058 002040E3 		movt	r2, #:upper16:_ZN6tflite25kDepthwiseConvInputTensorE
 1200 005c 547094E5 		ldr	r7, [r4, #84]
 1201 0060 002092E5 		ldr	r2, [r2]
 1202              	.LBE889:
 1203              	.LBE888:
 1204              	.LBE887:
 1205              	.LBB894:
 1206              	.LBB885:
 1207              		.loc 5 50 0
 1208 0064 0050A0E1 		mov	r5, r0
 1209              	.LVL128:
 1210              	.LBE885:
 1211              	.LBE894:
 1212              	.LBB895:
 1213              	.LBB892:
 1214              	.LBB890:
  36:C:/Renesas/e2studio_2021_01_workspace_RZA2M_ANPR/ANPR_RZA2M_GR_MANGO/src/tensorflow_lite/tensorflow/lite/micro/kernels\kernel_util.h **** }
 1215              		.loc 5 36 0
 1216 0068 0400A0E1 		mov	r0, r4
 1217 006c 023183E0 		add	r3, r3, r2, lsl #2
 1218 0070 041093E5 		ldr	r1, [r3, #4]
 1219 0074 37FF2FE1 		blx	r7
 1220              	.LVL129:
 1221              	.LBE890:
 1222              	.LBE892:
 1223              	.LBE895:
 1224              	.LBB896:
 1225              	.LBB897:
 1226              	.LBB898:
 1227 0078 002000E3 		movw	r2, #:lower16:_ZN6tflite27kDepthwiseConvWeightsTensorE
 1228 007c 003098E5 		ldr	r3, [r8]
 1229 0080 002040E3 		movt	r2, #:upper16:_ZN6tflite27kDepthwiseConvWeightsTensorE
 1230 0084 549094E5 		ldr	r9, [r4, #84]
 1231 0088 002092E5 		ldr	r2, [r2]
 1232              	.LBE898:
 1233              	.LBE897:
 1234              	.LBE896:
 1235              	.LBB901:
 1236              	.LBB893:
 1237              	.LBB891:
 1238 008c 0070A0E1 		mov	r7, r0
 1239              	.LVL130:
 1240              	.LBE891:
 1241              	.LBE893:
 1242              	.LBE901:
 1243              	.LBB902:
 1244              	.LBB900:
 1245              	.LBB899:
 1246 0090 0400A0E1 		mov	r0, r4
 1247 0094 023183E0 		add	r3, r3, r2, lsl #2
 1248 0098 041093E5 		ldr	r1, [r3, #4]
 1249 009c 39FF2FE1 		blx	r9
 1250              	.LVL131:
 1251 00a0 003098E5 		ldr	r3, [r8]
 1252 00a4 0090A0E1 		mov	r9, r0
 1253              	.LVL132:
 1254              	.LBE899:
 1255              	.LBE900:
 1256              	.LBE902:
 263:../src/tensorflow_lite/tensorflow/lite/micro/kernels/cmsis_nn/depthwise_conv.cc ****   const TfLiteEvalTensor* input =
 264:../src/tensorflow_lite/tensorflow/lite/micro/kernels/cmsis_nn/depthwise_conv.cc ****       tflite::micro::GetEvalInput(context, node, kDepthwiseConvInputTensor);
 265:../src/tensorflow_lite/tensorflow/lite/micro/kernels/cmsis_nn/depthwise_conv.cc ****   const TfLiteEvalTensor* filter =
 266:../src/tensorflow_lite/tensorflow/lite/micro/kernels/cmsis_nn/depthwise_conv.cc ****       tflite::micro::GetEvalInput(context, node, kDepthwiseConvWeightsTensor);
 267:../src/tensorflow_lite/tensorflow/lite/micro/kernels/cmsis_nn/depthwise_conv.cc ****   const TfLiteEvalTensor* bias =
 268:../src/tensorflow_lite/tensorflow/lite/micro/kernels/cmsis_nn/depthwise_conv.cc ****       (NumInputs(node) == 3)
 269:../src/tensorflow_lite/tensorflow/lite/micro/kernels/cmsis_nn/depthwise_conv.cc ****           ? tflite::micro::GetEvalInput(context, node, kDepthwiseConvBiasTensor)
 1257              		.loc 1 269 0
 1258 00a8 002093E5 		ldr	r2, [r3]
 1259 00ac 030052E3 		cmp	r2, #3
 1260 00b0 0080A013 		movne	r8, #0
 1261              	.LVL133:
 1262 00b4 4F04000A 		beq	.L563
 1263              	.L92:
 1264              	.LVL134:
 270:../src/tensorflow_lite/tensorflow/lite/micro/kernels/cmsis_nn/depthwise_conv.cc ****           : nullptr;
 271:../src/tensorflow_lite/tensorflow/lite/micro/kernels/cmsis_nn/depthwise_conv.cc **** 
 272:../src/tensorflow_lite/tensorflow/lite/micro/kernels/cmsis_nn/depthwise_conv.cc ****   switch (input->type) {  // Already know in/out types are same.
 1265              		.loc 1 272 0
 1266 00b8 0800D7E5 		ldrb	r0, [r7, #8]	@ zero_extendqisi2
 1267 00bc 010050E3 		cmp	r0, #1
 1268 00c0 2C02000A 		beq	.L319
 1269 00c4 090050E3 		cmp	r0, #9
 1270 00c8 1F02001A 		bne	.L564
 1271              	.LVL135:
 1272              	.LBB903:
 1273              	.LBB904:
 160:../src/tensorflow_lite/tensorflow/lite/micro/kernels/cmsis_nn/depthwise_conv.cc ****   dw_conv_params.dilation.w = params.dilation_width_factor;
 1274              		.loc 1 160 0
 1275 00cc 18209AE5 		ldr	r2, [r10, #24]
 161:../src/tensorflow_lite/tensorflow/lite/micro/kernels/cmsis_nn/depthwise_conv.cc ****   // Call to reference implementation can be removed when dilation is supported
 1276              		.loc 1 161 0
 1277 00d0 14309AE5 		ldr	r3, [r10, #20]
 160:../src/tensorflow_lite/tensorflow/lite/micro/kernels/cmsis_nn/depthwise_conv.cc ****   dw_conv_params.dilation.w = params.dilation_width_factor;
 1278              		.loc 1 160 0
 1279 00d4 AC218DE5 		str	r2, [sp, #428]
 1280              	.LBB905:
 164:../src/tensorflow_lite/tensorflow/lite/micro/kernels/cmsis_nn/depthwise_conv.cc ****     dw_conv_params.input_offset = -data.reference_op_data.input_zero_point;
 1281              		.loc 1 164 0
 1282 00d8 010053E3 		cmp	r3, #1
 1283 00dc 01005203 		cmpeq	r2, #1
 1284              	.LBE905:
 161:../src/tensorflow_lite/tensorflow/lite/micro/kernels/cmsis_nn/depthwise_conv.cc ****   // Call to reference implementation can be removed when dilation is supported
 1285              		.loc 1 161 0
 1286 00e0 A8318DE5 		str	r3, [sp, #424]
 1287              	.LBB1266:
 164:../src/tensorflow_lite/tensorflow/lite/micro/kernels/cmsis_nn/depthwise_conv.cc ****     dw_conv_params.input_offset = -data.reference_op_data.input_zero_point;
 1288              		.loc 1 164 0
 1289 00e4 5C04000A 		beq	.L565
 239:../src/tensorflow_lite/tensorflow/lite/micro/kernels/cmsis_nn/depthwise_conv.cc ****         data.reference_op_data.per_channel_output_multiplier,
 1290              		.loc 1 239 0
 1291 00e8 0A10A0E1 		mov	r1, r10
 1292 00ec 0620A0E1 		mov	r2, r6
 1293 00f0 6E0F8DE2 		add	r0, sp, #440
 1294 00f4 FEFFFFEB 		bl	_ZN6tflite28DepthwiseConvParamsQuantizedERK25TfLiteDepthwiseConvParamsRKNS_10OpDataConvE
 1295              	.LVL136:
 240:../src/tensorflow_lite/tensorflow/lite/micro/kernels/cmsis_nn/depthwise_conv.cc ****         data.reference_op_data.per_channel_output_shift,
 1296              		.loc 1 240 0
 1297 00f8 243096E5 		ldr	r3, [r6, #36]
 242:../src/tensorflow_lite/tensorflow/lite/micro/kernels/cmsis_nn/depthwise_conv.cc ****         tflite::micro::GetTensorData<int8_t>(input),
 1298              		.loc 1 242 0
 1299 00fc 0710A0E1 		mov	r1, r7
 1300 0100 4B0F8DE2 		add	r0, sp, #300
 240:../src/tensorflow_lite/tensorflow/lite/micro/kernels/cmsis_nn/depthwise_conv.cc ****         data.reference_op_data.per_channel_output_shift,
 1301              		.loc 1 240 0
 1302 0104 CC308DE5 		str	r3, [sp, #204]
 241:../src/tensorflow_lite/tensorflow/lite/micro/kernels/cmsis_nn/depthwise_conv.cc ****         tflite::micro::GetTensorShape(input),
 1303              		.loc 1 241 0
 1304 0108 283096E5 		ldr	r3, [r6, #40]
 1305 010c D0308DE5 		str	r3, [sp, #208]
 242:../src/tensorflow_lite/tensorflow/lite/micro/kernels/cmsis_nn/depthwise_conv.cc ****         tflite::micro::GetTensorData<int8_t>(input),
 1306              		.loc 1 242 0
 1307 0110 FEFFFFEB 		bl	_ZN6tflite5micro14GetTensorShapeEPK16TfLiteEvalTensor
 1308              	.LVL137:
 1309              	.LEHE11:
 1310              	.LBB906:
 1311              	.LBB907:
  51:C:/Renesas/e2studio_2021_01_workspace_RZA2M_ANPR/ANPR_RZA2M_GR_MANGO/src/tensorflow_lite/tensorflow/lite/micro/kernels\kernel_util.h **** }
  52:C:/Renesas/e2studio_2021_01_workspace_RZA2M_ANPR/ANPR_RZA2M_GR_MANGO/src/tensorflow_lite/tensorflow/lite/micro/kernels\kernel_util.h **** 
  53:C:/Renesas/e2studio_2021_01_workspace_RZA2M_ANPR/ANPR_RZA2M_GR_MANGO/src/tensorflow_lite/tensorflow/lite/micro/kernels\kernel_util.h **** // Returns data for a TfLiteEvalTensor struct.
  54:C:/Renesas/e2studio_2021_01_workspace_RZA2M_ANPR/ANPR_RZA2M_GR_MANGO/src/tensorflow_lite/tensorflow/lite/micro/kernels\kernel_util.h **** template <typename T>
  55:C:/Renesas/e2studio_2021_01_workspace_RZA2M_ANPR/ANPR_RZA2M_GR_MANGO/src/tensorflow_lite/tensorflow/lite/micro/kernels\kernel_util.h **** T* GetTensorData(TfLiteEvalTensor* tensor) {
  56:C:/Renesas/e2studio_2021_01_workspace_RZA2M_ANPR/ANPR_RZA2M_GR_MANGO/src/tensorflow_lite/tensorflow/lite/micro/kernels\kernel_util.h ****   return tensor != nullptr ? reinterpret_cast<T*>(tensor->data.raw) : nullptr;
  57:C:/Renesas/e2studio_2021_01_workspace_RZA2M_ANPR/ANPR_RZA2M_GR_MANGO/src/tensorflow_lite/tensorflow/lite/micro/kernels\kernel_util.h **** }
  58:C:/Renesas/e2studio_2021_01_workspace_RZA2M_ANPR/ANPR_RZA2M_GR_MANGO/src/tensorflow_lite/tensorflow/lite/micro/kernels\kernel_util.h **** 
  59:C:/Renesas/e2studio_2021_01_workspace_RZA2M_ANPR/ANPR_RZA2M_GR_MANGO/src/tensorflow_lite/tensorflow/lite/micro/kernels\kernel_util.h **** // Returns const data for a TfLiteEvalTensor struct.
  60:C:/Renesas/e2studio_2021_01_workspace_RZA2M_ANPR/ANPR_RZA2M_GR_MANGO/src/tensorflow_lite/tensorflow/lite/micro/kernels\kernel_util.h **** template <typename T>
  61:C:/Renesas/e2studio_2021_01_workspace_RZA2M_ANPR/ANPR_RZA2M_GR_MANGO/src/tensorflow_lite/tensorflow/lite/micro/kernels\kernel_util.h **** const T* GetTensorData(const TfLiteEvalTensor* tensor) {
  62:C:/Renesas/e2studio_2021_01_workspace_RZA2M_ANPR/ANPR_RZA2M_GR_MANGO/src/tensorflow_lite/tensorflow/lite/micro/kernels\kernel_util.h ****   TFLITE_DCHECK(tensor != nullptr);
  63:C:/Renesas/e2studio_2021_01_workspace_RZA2M_ANPR/ANPR_RZA2M_GR_MANGO/src/tensorflow_lite/tensorflow/lite/micro/kernels\kernel_util.h ****   return reinterpret_cast<const T*>(tensor->data.raw);
 1312              		.loc 5 63 0
 1313 0114 003097E5 		ldr	r3, [r7]
 1314              	.LBE907:
 1315              	.LBE906:
 244:../src/tensorflow_lite/tensorflow/lite/micro/kernels/cmsis_nn/depthwise_conv.cc ****         tflite::micro::GetTensorData<int8_t>(filter),
 1316              		.loc 1 244 0
 1317 0118 0910A0E1 		mov	r1, r9
 1318 011c 510F8DE2 		add	r0, sp, #324
 1319              	.LBB909:
 1320              	.LBB908:
 1321              		.loc 5 63 0
 1322 0120 A0308DE5 		str	r3, [sp, #160]
 1323              	.LVL138:
 1324              	.LEHB12:
 1325              	.LBE908:
 1326              	.LBE909:
 244:../src/tensorflow_lite/tensorflow/lite/micro/kernels/cmsis_nn/depthwise_conv.cc ****         tflite::micro::GetTensorData<int8_t>(filter),
 1327              		.loc 1 244 0
 1328 0124 FEFFFFEB 		bl	_ZN6tflite5micro14GetTensorShapeEPK16TfLiteEvalTensor
 1329              	.LVL139:
 1330              	.LEHE12:
 1331              	.LBB910:
 1332              	.LBB911:
  62:C:/Renesas/e2studio_2021_01_workspace_RZA2M_ANPR/ANPR_RZA2M_GR_MANGO/src/tensorflow_lite/tensorflow/lite/micro/kernels\kernel_util.h ****   return reinterpret_cast<const T*>(tensor->data.raw);
 1333              		.loc 5 62 0
 1334 0128 000059E3 		cmp	r9, #0
 1335 012c 3406000A 		beq	.L566
 1336              		.loc 5 63 0
 1337 0130 003099E5 		ldr	r3, [r9]
 1338              	.LBE911:
 1339              	.LBE910:
 246:../src/tensorflow_lite/tensorflow/lite/micro/kernels/cmsis_nn/depthwise_conv.cc ****         tflite::micro::GetTensorData<int32_t>(bias),
 1340              		.loc 1 246 0
 1341 0134 0810A0E1 		mov	r1, r8
 1342 0138 570F8DE2 		add	r0, sp, #348
 1343              	.LBB914:
 1344              	.LBB912:
 1345              		.loc 5 63 0
 1346 013c A4308DE5 		str	r3, [sp, #164]
 1347              	.LVL140:
 1348              	.LEHB13:
 1349              	.LBE912:
 1350              	.LBE914:
 246:../src/tensorflow_lite/tensorflow/lite/micro/kernels/cmsis_nn/depthwise_conv.cc ****         tflite::micro::GetTensorData<int32_t>(bias),
 1351              		.loc 1 246 0
 1352 0140 FEFFFFEB 		bl	_ZN6tflite5micro14GetTensorShapeEPK16TfLiteEvalTensor
 1353              	.LVL141:
 1354              	.LEHE13:
 1355              	.LBB915:
 1356              	.LBB916:
  62:C:/Renesas/e2studio_2021_01_workspace_RZA2M_ANPR/ANPR_RZA2M_GR_MANGO/src/tensorflow_lite/tensorflow/lite/micro/kernels\kernel_util.h ****   return reinterpret_cast<const T*>(tensor->data.raw);
 1357              		.loc 5 62 0
 1358 0144 000058E3 		cmp	r8, #0
 1359 0148 2F06000A 		beq	.L567
 1360              		.loc 5 63 0
 1361 014c 003098E5 		ldr	r3, [r8]
 1362              	.LBE916:
 1363              	.LBE915:
 248:../src/tensorflow_lite/tensorflow/lite/micro/kernels/cmsis_nn/depthwise_conv.cc ****         tflite::micro::GetTensorData<int8_t>(output));
 1364              		.loc 1 248 0
 1365 0150 0510A0E1 		mov	r1, r5
 1366 0154 5D0F8DE2 		add	r0, sp, #372
 1367              	.LBB919:
 1368              	.LBB917:
 1369              		.loc 5 63 0
 1370 0158 A8308DE5 		str	r3, [sp, #168]
 1371              	.LVL142:
 1372              	.LEHB14:
 1373              	.LBE917:
 1374              	.LBE919:
 248:../src/tensorflow_lite/tensorflow/lite/micro/kernels/cmsis_nn/depthwise_conv.cc ****         tflite::micro::GetTensorData<int8_t>(output));
 1375              		.loc 1 248 0
 1376 015c FEFFFFEB 		bl	_ZN6tflite5micro14GetTensorShapeEPK16TfLiteEvalTensor
 1377              	.LVL143:
 1378              	.LEHE14:
 1379              	.LBB920:
 1380              	.LBB921:
  56:C:/Renesas/e2studio_2021_01_workspace_RZA2M_ANPR/ANPR_RZA2M_GR_MANGO/src/tensorflow_lite/tensorflow/lite/micro/kernels\kernel_util.h **** }
 1381              		.loc 5 56 0
 1382 0160 000055E3 		cmp	r5, #0
 1383              	.LBE921:
 1384              	.LBE920:
 1385              	.LBB925:
 1386              	.LBB926:
 1387              		.file 6 "C:/Renesas/e2studio_2021_01_workspace_RZA2M_ANPR/ANPR_RZA2M_GR_MANGO/src/tensorflow_lite/
   1:C:/Renesas/e2studio_2021_01_workspace_RZA2M_ANPR/ANPR_RZA2M_GR_MANGO/src/tensorflow_lite/tensorflow/lite/kernels/internal/reference/integer_ops\depthwise_conv.h **** /* Copyright 2019 The TensorFlow Authors. All Rights Reserved.
   2:C:/Renesas/e2studio_2021_01_workspace_RZA2M_ANPR/ANPR_RZA2M_GR_MANGO/src/tensorflow_lite/tensorflow/lite/kernels/internal/reference/integer_ops\depthwise_conv.h **** 
   3:C:/Renesas/e2studio_2021_01_workspace_RZA2M_ANPR/ANPR_RZA2M_GR_MANGO/src/tensorflow_lite/tensorflow/lite/kernels/internal/reference/integer_ops\depthwise_conv.h **** Licensed under the Apache License, Version 2.0 (the "License");
   4:C:/Renesas/e2studio_2021_01_workspace_RZA2M_ANPR/ANPR_RZA2M_GR_MANGO/src/tensorflow_lite/tensorflow/lite/kernels/internal/reference/integer_ops\depthwise_conv.h **** you may not use this file except in compliance with the License.
   5:C:/Renesas/e2studio_2021_01_workspace_RZA2M_ANPR/ANPR_RZA2M_GR_MANGO/src/tensorflow_lite/tensorflow/lite/kernels/internal/reference/integer_ops\depthwise_conv.h **** You may obtain a copy of the License at
   6:C:/Renesas/e2studio_2021_01_workspace_RZA2M_ANPR/ANPR_RZA2M_GR_MANGO/src/tensorflow_lite/tensorflow/lite/kernels/internal/reference/integer_ops\depthwise_conv.h **** 
   7:C:/Renesas/e2studio_2021_01_workspace_RZA2M_ANPR/ANPR_RZA2M_GR_MANGO/src/tensorflow_lite/tensorflow/lite/kernels/internal/reference/integer_ops\depthwise_conv.h ****     http://www.apache.org/licenses/LICENSE-2.0
   8:C:/Renesas/e2studio_2021_01_workspace_RZA2M_ANPR/ANPR_RZA2M_GR_MANGO/src/tensorflow_lite/tensorflow/lite/kernels/internal/reference/integer_ops\depthwise_conv.h **** 
   9:C:/Renesas/e2studio_2021_01_workspace_RZA2M_ANPR/ANPR_RZA2M_GR_MANGO/src/tensorflow_lite/tensorflow/lite/kernels/internal/reference/integer_ops\depthwise_conv.h **** Unless required by applicable law or agreed to in writing, software
  10:C:/Renesas/e2studio_2021_01_workspace_RZA2M_ANPR/ANPR_RZA2M_GR_MANGO/src/tensorflow_lite/tensorflow/lite/kernels/internal/reference/integer_ops\depthwise_conv.h **** distributed under the License is distributed on an "AS IS" BASIS,
  11:C:/Renesas/e2studio_2021_01_workspace_RZA2M_ANPR/ANPR_RZA2M_GR_MANGO/src/tensorflow_lite/tensorflow/lite/kernels/internal/reference/integer_ops\depthwise_conv.h **** WITHOUT WARRANTIES OR CONDITIONS OF ANY KIND, either express or implied.
  12:C:/Renesas/e2studio_2021_01_workspace_RZA2M_ANPR/ANPR_RZA2M_GR_MANGO/src/tensorflow_lite/tensorflow/lite/kernels/internal/reference/integer_ops\depthwise_conv.h **** See the License for the specific language governing permissions and
  13:C:/Renesas/e2studio_2021_01_workspace_RZA2M_ANPR/ANPR_RZA2M_GR_MANGO/src/tensorflow_lite/tensorflow/lite/kernels/internal/reference/integer_ops\depthwise_conv.h **** limitations under the License.
  14:C:/Renesas/e2studio_2021_01_workspace_RZA2M_ANPR/ANPR_RZA2M_GR_MANGO/src/tensorflow_lite/tensorflow/lite/kernels/internal/reference/integer_ops\depthwise_conv.h **** ==============================================================================*/
  15:C:/Renesas/e2studio_2021_01_workspace_RZA2M_ANPR/ANPR_RZA2M_GR_MANGO/src/tensorflow_lite/tensorflow/lite/kernels/internal/reference/integer_ops\depthwise_conv.h **** #ifndef TENSORFLOW_LITE_KERNELS_INTERNAL_REFERENCE_INTEGER_OPS_DEPTHWISE_CONV_H_
  16:C:/Renesas/e2studio_2021_01_workspace_RZA2M_ANPR/ANPR_RZA2M_GR_MANGO/src/tensorflow_lite/tensorflow/lite/kernels/internal/reference/integer_ops\depthwise_conv.h **** #define TENSORFLOW_LITE_KERNELS_INTERNAL_REFERENCE_INTEGER_OPS_DEPTHWISE_CONV_H_
  17:C:/Renesas/e2studio_2021_01_workspace_RZA2M_ANPR/ANPR_RZA2M_GR_MANGO/src/tensorflow_lite/tensorflow/lite/kernels/internal/reference/integer_ops\depthwise_conv.h **** 
  18:C:/Renesas/e2studio_2021_01_workspace_RZA2M_ANPR/ANPR_RZA2M_GR_MANGO/src/tensorflow_lite/tensorflow/lite/kernels/internal/reference/integer_ops\depthwise_conv.h **** #include "tensorflow/lite/kernels/internal/common.h"
  19:C:/Renesas/e2studio_2021_01_workspace_RZA2M_ANPR/ANPR_RZA2M_GR_MANGO/src/tensorflow_lite/tensorflow/lite/kernels/internal/reference/integer_ops\depthwise_conv.h **** 
  20:C:/Renesas/e2studio_2021_01_workspace_RZA2M_ANPR/ANPR_RZA2M_GR_MANGO/src/tensorflow_lite/tensorflow/lite/kernels/internal/reference/integer_ops\depthwise_conv.h **** namespace tflite {
  21:C:/Renesas/e2studio_2021_01_workspace_RZA2M_ANPR/ANPR_RZA2M_GR_MANGO/src/tensorflow_lite/tensorflow/lite/kernels/internal/reference/integer_ops\depthwise_conv.h **** namespace reference_integer_ops {
  22:C:/Renesas/e2studio_2021_01_workspace_RZA2M_ANPR/ANPR_RZA2M_GR_MANGO/src/tensorflow_lite/tensorflow/lite/kernels/internal/reference/integer_ops\depthwise_conv.h **** inline void DepthwiseConvPerChannel(
  23:C:/Renesas/e2studio_2021_01_workspace_RZA2M_ANPR/ANPR_RZA2M_GR_MANGO/src/tensorflow_lite/tensorflow/lite/kernels/internal/reference/integer_ops\depthwise_conv.h ****     const DepthwiseParams& params, const int32_t* output_multiplier,
  24:C:/Renesas/e2studio_2021_01_workspace_RZA2M_ANPR/ANPR_RZA2M_GR_MANGO/src/tensorflow_lite/tensorflow/lite/kernels/internal/reference/integer_ops\depthwise_conv.h ****     const int32_t* output_shift, const RuntimeShape& input_shape,
  25:C:/Renesas/e2studio_2021_01_workspace_RZA2M_ANPR/ANPR_RZA2M_GR_MANGO/src/tensorflow_lite/tensorflow/lite/kernels/internal/reference/integer_ops\depthwise_conv.h ****     const int8_t* input_data, const RuntimeShape& filter_shape,
  26:C:/Renesas/e2studio_2021_01_workspace_RZA2M_ANPR/ANPR_RZA2M_GR_MANGO/src/tensorflow_lite/tensorflow/lite/kernels/internal/reference/integer_ops\depthwise_conv.h ****     const int8_t* filter_data, const RuntimeShape& bias_shape,
  27:C:/Renesas/e2studio_2021_01_workspace_RZA2M_ANPR/ANPR_RZA2M_GR_MANGO/src/tensorflow_lite/tensorflow/lite/kernels/internal/reference/integer_ops\depthwise_conv.h ****     const int32_t* bias_data, const RuntimeShape& output_shape,
  28:C:/Renesas/e2studio_2021_01_workspace_RZA2M_ANPR/ANPR_RZA2M_GR_MANGO/src/tensorflow_lite/tensorflow/lite/kernels/internal/reference/integer_ops\depthwise_conv.h ****     int8_t* output_data) {
  29:C:/Renesas/e2studio_2021_01_workspace_RZA2M_ANPR/ANPR_RZA2M_GR_MANGO/src/tensorflow_lite/tensorflow/lite/kernels/internal/reference/integer_ops\depthwise_conv.h ****   // Get parameters.
  30:C:/Renesas/e2studio_2021_01_workspace_RZA2M_ANPR/ANPR_RZA2M_GR_MANGO/src/tensorflow_lite/tensorflow/lite/kernels/internal/reference/integer_ops\depthwise_conv.h ****   // TODO(b/141565753): Re-introduce ScopedProfilingLabel on Micro.
  31:C:/Renesas/e2studio_2021_01_workspace_RZA2M_ANPR/ANPR_RZA2M_GR_MANGO/src/tensorflow_lite/tensorflow/lite/kernels/internal/reference/integer_ops\depthwise_conv.h ****   const int stride_width = params.stride_width;
 1388              		.loc 6 31 0
 1389 0164 072D8DE2 		add	r2, sp, #448
 1390              	.LBE926:
 1391              	.LBE925:
 1392              	.LBB1110:
 1393              	.LBB922:
  56:C:/Renesas/e2studio_2021_01_workspace_RZA2M_ANPR/ANPR_RZA2M_GR_MANGO/src/tensorflow_lite/tensorflow/lite/micro/kernels\kernel_util.h **** }
 1394              		.loc 5 56 0
 1395 0168 00309515 		ldrne	r3, [r5]
 1396              	.LBE922:
 1397              	.LBE1110:
 1398              	.LBB1111:
 1399              	.LBB1097:
 1400              		.loc 6 31 0
 1401 016c 022082E2 		add	r2, r2, #2
 1402              	.LBE1097:
 1403              	.LBE1111:
 1404              	.LBB1112:
 1405              	.LBB923:
  56:C:/Renesas/e2studio_2021_01_workspace_RZA2M_ANPR/ANPR_RZA2M_GR_MANGO/src/tensorflow_lite/tensorflow/lite/micro/kernels\kernel_util.h **** }
 1406              		.loc 5 56 0
 1407 0170 98508D05 		streq	r5, [sp, #152]
 1408              	.LVL144:
 1409              	.LBE923:
 1410              	.LBE1112:
 1411              	.LBB1113:
 1412              	.LBB1098:
 1413              		.loc 6 31 0
 1414 0174 F020D2E1 		ldrsh	r2, [r2]
 1415              	.LBE1098:
 1416              	.LBE1113:
 1417              	.LBB1114:
 1418              	.LBB924:
  56:C:/Renesas/e2studio_2021_01_workspace_RZA2M_ANPR/ANPR_RZA2M_GR_MANGO/src/tensorflow_lite/tensorflow/lite/micro/kernels\kernel_util.h **** }
 1419              		.loc 5 56 0
 1420 0178 98308D15 		strne	r3, [sp, #152]
 1421              	.LVL145:
 1422              	.LBE924:
 1423              	.LBE1114:
 1424              	.LBB1115:
 1425              	.LBB1099:
  32:C:/Renesas/e2studio_2021_01_workspace_RZA2M_ANPR/ANPR_RZA2M_GR_MANGO/src/tensorflow_lite/tensorflow/lite/kernels/internal/reference/integer_ops\depthwise_conv.h ****   const int stride_height = params.stride_height;
  33:C:/Renesas/e2studio_2021_01_workspace_RZA2M_ANPR/ANPR_RZA2M_GR_MANGO/src/tensorflow_lite/tensorflow/lite/kernels/internal/reference/integer_ops\depthwise_conv.h ****   const int dilation_width_factor = params.dilation_width_factor;
  34:C:/Renesas/e2studio_2021_01_workspace_RZA2M_ANPR/ANPR_RZA2M_GR_MANGO/src/tensorflow_lite/tensorflow/lite/kernels/internal/reference/integer_ops\depthwise_conv.h ****   const int dilation_height_factor = params.dilation_height_factor;
  35:C:/Renesas/e2studio_2021_01_workspace_RZA2M_ANPR/ANPR_RZA2M_GR_MANGO/src/tensorflow_lite/tensorflow/lite/kernels/internal/reference/integer_ops\depthwise_conv.h ****   const int pad_width = params.padding_values.width;
  36:C:/Renesas/e2studio_2021_01_workspace_RZA2M_ANPR/ANPR_RZA2M_GR_MANGO/src/tensorflow_lite/tensorflow/lite/kernels/internal/reference/integer_ops\depthwise_conv.h ****   const int pad_height = params.padding_values.height;
  37:C:/Renesas/e2studio_2021_01_workspace_RZA2M_ANPR/ANPR_RZA2M_GR_MANGO/src/tensorflow_lite/tensorflow/lite/kernels/internal/reference/integer_ops\depthwise_conv.h ****   const int depth_multiplier = params.depth_multiplier;
  38:C:/Renesas/e2studio_2021_01_workspace_RZA2M_ANPR/ANPR_RZA2M_GR_MANGO/src/tensorflow_lite/tensorflow/lite/kernels/internal/reference/integer_ops\depthwise_conv.h ****   const int32_t input_offset = params.input_offset;
  39:C:/Renesas/e2studio_2021_01_workspace_RZA2M_ANPR/ANPR_RZA2M_GR_MANGO/src/tensorflow_lite/tensorflow/lite/kernels/internal/reference/integer_ops\depthwise_conv.h ****   const int32_t output_offset = params.output_offset;
  40:C:/Renesas/e2studio_2021_01_workspace_RZA2M_ANPR/ANPR_RZA2M_GR_MANGO/src/tensorflow_lite/tensorflow/lite/kernels/internal/reference/integer_ops\depthwise_conv.h ****   const int32_t output_activation_min = params.quantized_activation_min;
  41:C:/Renesas/e2studio_2021_01_workspace_RZA2M_ANPR/ANPR_RZA2M_GR_MANGO/src/tensorflow_lite/tensorflow/lite/kernels/internal/reference/integer_ops\depthwise_conv.h ****   const int32_t output_activation_max = params.quantized_activation_max;
  42:C:/Renesas/e2studio_2021_01_workspace_RZA2M_ANPR/ANPR_RZA2M_GR_MANGO/src/tensorflow_lite/tensorflow/lite/kernels/internal/reference/integer_ops\depthwise_conv.h **** 
  43:C:/Renesas/e2studio_2021_01_workspace_RZA2M_ANPR/ANPR_RZA2M_GR_MANGO/src/tensorflow_lite/tensorflow/lite/kernels/internal/reference/integer_ops\depthwise_conv.h ****   // Check dimensions of the tensors.
  44:C:/Renesas/e2studio_2021_01_workspace_RZA2M_ANPR/ANPR_RZA2M_GR_MANGO/src/tensorflow_lite/tensorflow/lite/kernels/internal/reference/integer_ops\depthwise_conv.h ****   TFLITE_DCHECK_EQ(input_shape.DimensionsCount(), 4);
 1426              		.loc 6 44 0
 1427 017c 2C319DE5 		ldr	r3, [sp, #300]
  31:C:/Renesas/e2studio_2021_01_workspace_RZA2M_ANPR/ANPR_RZA2M_GR_MANGO/src/tensorflow_lite/tensorflow/lite/kernels/internal/reference/integer_ops\depthwise_conv.h ****   const int stride_height = params.stride_height;
 1428              		.loc 6 31 0
 1429 0180 D4208DE5 		str	r2, [sp, #212]
 1430              	.LVL146:
  32:C:/Renesas/e2studio_2021_01_workspace_RZA2M_ANPR/ANPR_RZA2M_GR_MANGO/src/tensorflow_lite/tensorflow/lite/kernels/internal/reference/integer_ops\depthwise_conv.h ****   const int stride_height = params.stride_height;
 1431              		.loc 6 32 0
 1432 0184 712F8DE2 		add	r2, sp, #452
 1433 0188 F020D2E1 		ldrsh	r2, [r2]
 1434              		.loc 6 44 0
 1435 018c 040053E3 		cmp	r3, #4
  33:C:/Renesas/e2studio_2021_01_workspace_RZA2M_ANPR/ANPR_RZA2M_GR_MANGO/src/tensorflow_lite/tensorflow/lite/kernels/internal/reference/integer_ops\depthwise_conv.h ****   const int dilation_height_factor = params.dilation_height_factor;
 1436              		.loc 6 33 0
 1437 0190 713F8DE2 		add	r3, sp, #452
 1438 0194 023083E2 		add	r3, r3, #2
 1439 0198 F0B0D3E1 		ldrsh	fp, [r3]
  34:C:/Renesas/e2studio_2021_01_workspace_RZA2M_ANPR/ANPR_RZA2M_GR_MANGO/src/tensorflow_lite/tensorflow/lite/kernels/internal/reference/integer_ops\depthwise_conv.h ****   const int pad_width = params.padding_values.width;
 1440              		.loc 6 34 0
 1441 019c 723F8DE2 		add	r3, sp, #456
  32:C:/Renesas/e2studio_2021_01_workspace_RZA2M_ANPR/ANPR_RZA2M_GR_MANGO/src/tensorflow_lite/tensorflow/lite/kernels/internal/reference/integer_ops\depthwise_conv.h ****   const int dilation_width_factor = params.dilation_width_factor;
 1442              		.loc 6 32 0
 1443 01a0 D8208DE5 		str	r2, [sp, #216]
 1444              	.LVL147:
  34:C:/Renesas/e2studio_2021_01_workspace_RZA2M_ANPR/ANPR_RZA2M_GR_MANGO/src/tensorflow_lite/tensorflow/lite/kernels/internal/reference/integer_ops\depthwise_conv.h ****   const int pad_width = params.padding_values.width;
 1445              		.loc 6 34 0
 1446 01a4 F030D3E1 		ldrsh	r3, [r3]
 1447 01a8 68308DE5 		str	r3, [sp, #104]
 1448              	.LVL148:
  35:C:/Renesas/e2studio_2021_01_workspace_RZA2M_ANPR/ANPR_RZA2M_GR_MANGO/src/tensorflow_lite/tensorflow/lite/kernels/internal/reference/integer_ops\depthwise_conv.h ****   const int pad_height = params.padding_values.height;
 1449              		.loc 6 35 0
 1450 01ac 6E3F8DE2 		add	r3, sp, #440
 1451              	.LVL149:
 1452 01b0 023083E2 		add	r3, r3, #2
 1453              	.LVL150:
 1454 01b4 F030D3E1 		ldrsh	r3, [r3]
 1455              	.LVL151:
 1456 01b8 DC308DE5 		str	r3, [sp, #220]
 1457              	.LVL152:
  36:C:/Renesas/e2studio_2021_01_workspace_RZA2M_ANPR/ANPR_RZA2M_GR_MANGO/src/tensorflow_lite/tensorflow/lite/kernels/internal/reference/integer_ops\depthwise_conv.h ****   const int depth_multiplier = params.depth_multiplier;
 1458              		.loc 6 36 0
 1459 01bc 6F3F8DE2 		add	r3, sp, #444
 1460 01c0 F030D3E1 		ldrsh	r3, [r3]
 1461 01c4 E0308DE5 		str	r3, [sp, #224]
 1462              	.LVL153:
  37:C:/Renesas/e2studio_2021_01_workspace_RZA2M_ANPR/ANPR_RZA2M_GR_MANGO/src/tensorflow_lite/tensorflow/lite/kernels/internal/reference/integer_ops\depthwise_conv.h ****   const int32_t input_offset = params.input_offset;
 1463              		.loc 6 37 0
 1464 01c8 723F8DE2 		add	r3, sp, #456
 1465 01cc 023083E2 		add	r3, r3, #2
 1466 01d0 F030D3E1 		ldrsh	r3, [r3]
 1467 01d4 9C308DE5 		str	r3, [sp, #156]
 1468              	.LVL154:
  38:C:/Renesas/e2studio_2021_01_workspace_RZA2M_ANPR/ANPR_RZA2M_GR_MANGO/src/tensorflow_lite/tensorflow/lite/kernels/internal/reference/integer_ops\depthwise_conv.h ****   const int32_t output_offset = params.output_offset;
 1469              		.loc 6 38 0
 1470 01d8 CC319DE5 		ldr	r3, [sp, #460]
 1471              	.LVL155:
 1472 01dc 60308DE5 		str	r3, [sp, #96]
 1473              	.LVL156:
  39:C:/Renesas/e2studio_2021_01_workspace_RZA2M_ANPR/ANPR_RZA2M_GR_MANGO/src/tensorflow_lite/tensorflow/lite/kernels/internal/reference/integer_ops\depthwise_conv.h ****   const int32_t output_activation_min = params.quantized_activation_min;
 1474              		.loc 6 39 0
 1475 01e0 D4319DE5 		ldr	r3, [sp, #468]
 1476              	.LVL157:
 1477 01e4 AC308DE5 		str	r3, [sp, #172]
 1478              	.LVL158:
  40:C:/Renesas/e2studio_2021_01_workspace_RZA2M_ANPR/ANPR_RZA2M_GR_MANGO/src/tensorflow_lite/tensorflow/lite/kernels/internal/reference/integer_ops\depthwise_conv.h ****   const int32_t output_activation_max = params.quantized_activation_max;
 1479              		.loc 6 40 0
 1480 01e8 E0319DE5 		ldr	r3, [sp, #480]
 1481              	.LVL159:
 1482 01ec 8C308DE5 		str	r3, [sp, #140]
 1483              	.LVL160:
  41:C:/Renesas/e2studio_2021_01_workspace_RZA2M_ANPR/ANPR_RZA2M_GR_MANGO/src/tensorflow_lite/tensorflow/lite/kernels/internal/reference/integer_ops\depthwise_conv.h **** 
 1484              		.loc 6 41 0
 1485 01f0 E4319DE5 		ldr	r3, [sp, #484]
 1486              	.LVL161:
 1487 01f4 B0308DE5 		str	r3, [sp, #176]
 1488              	.LVL162:
 1489              		.loc 6 44 0
 1490 01f8 B405001A 		bne	.L568
 1491              	.LVL163:
  45:C:/Renesas/e2studio_2021_01_workspace_RZA2M_ANPR/ANPR_RZA2M_GR_MANGO/src/tensorflow_lite/tensorflow/lite/kernels/internal/reference/integer_ops\depthwise_conv.h ****   TFLITE_DCHECK_EQ(filter_shape.DimensionsCount(), 4);
 1492              		.loc 6 45 0
 1493 01fc 44319DE5 		ldr	r3, [sp, #324]
 1494              	.LVL164:
 1495 0200 040053E3 		cmp	r3, #4
 1496 0204 AE05001A 		bne	.L569
 1497              	.LVL165:
  46:C:/Renesas/e2studio_2021_01_workspace_RZA2M_ANPR/ANPR_RZA2M_GR_MANGO/src/tensorflow_lite/tensorflow/lite/kernels/internal/reference/integer_ops\depthwise_conv.h ****   TFLITE_DCHECK_EQ(output_shape.DimensionsCount(), 4);
 1498              		.loc 6 46 0
 1499 0208 74319DE5 		ldr	r3, [sp, #372]
 1500 020c 040053E3 		cmp	r3, #4
 1501 0210 AC05001A 		bne	.L570
  47:C:/Renesas/e2studio_2021_01_workspace_RZA2M_ANPR/ANPR_RZA2M_GR_MANGO/src/tensorflow_lite/tensorflow/lite/kernels/internal/reference/integer_ops\depthwise_conv.h **** 
  48:C:/Renesas/e2studio_2021_01_workspace_RZA2M_ANPR/ANPR_RZA2M_GR_MANGO/src/tensorflow_lite/tensorflow/lite/kernels/internal/reference/integer_ops\depthwise_conv.h ****   TFLITE_DCHECK_LE(output_activation_min, output_activation_max);
 1502              		.loc 6 48 0
 1503 0214 8C309DE5 		ldr	r3, [sp, #140]
 1504 0218 B0209DE5 		ldr	r2, [sp, #176]
 1505 021c 020053E1 		cmp	r3, r2
 1506 0220 D80500CA 		bgt	.L571
 1507              	.LVL166:
 1508              	.LBB927:
 1509              	.LBB928:
 1510              	.LBB929:
 1511              	.LBB930:
 216:C:/Renesas/e2studio_2021_01_workspace_RZA2M_ANPR/ANPR_RZA2M_GR_MANGO/src/tensorflow_lite/tensorflow/lite/kernels/internal\types.h ****   }
 1512              		.loc 4 216 0
 1513 0224 30319DE5 		ldr	r3, [sp, #304]
 1514 0228 0320A0E1 		mov	r2, r3
 1515 022c BC308DE5 		str	r3, [sp, #188]
 1516              	.LVL167:
 1517              	.LBE930:
 1518              	.LBE929:
 1519              		.loc 4 472 0
 1520 0230 78319DE5 		ldr	r3, [sp, #376]
 1521 0234 030052E1 		cmp	r2, r3
 1522 0238 FD05001A 		bne	.L572
 1523              	.LVL168:
 1524              	.LBE928:
 1525              	.LBE927:
 1526              	.LBB932:
 1527              	.LBB933:
 1528              	.LBB934:
 1529              	.LBB935:
 216:C:/Renesas/e2studio_2021_01_workspace_RZA2M_ANPR/ANPR_RZA2M_GR_MANGO/src/tensorflow_lite/tensorflow/lite/kernels/internal\types.h ****   }
 1530              		.loc 4 216 0
 1531 023c 54519DE5 		ldr	r5, [sp, #340]
 1532              	.LVL169:
 1533              	.LBE935:
 1534              	.LBE934:
 1535              		.loc 4 472 0
 1536 0240 84319DE5 		ldr	r3, [sp, #388]
 1537 0244 030055E1 		cmp	r5, r3
 1538 0248 FA05001A 		bne	.L573
 1539              	.LVL170:
 1540              	.LBE933:
 1541              	.LBE932:
 1542              	.LBB937:
 1543              	.LBB938:
 216:C:/Renesas/e2studio_2021_01_workspace_RZA2M_ANPR/ANPR_RZA2M_GR_MANGO/src/tensorflow_lite/tensorflow/lite/kernels/internal\types.h ****   }
 1544              		.loc 4 216 0
 1545 024c 34219DE5 		ldr	r2, [sp, #308]
 1546              	.LBE938:
 1547              	.LBE937:
 1548              	.LBB940:
 1549              	.LBB941:
 1550 0250 3C319DE5 		ldr	r3, [sp, #316]
 1551              	.LBE941:
 1552              	.LBE940:
 1553              	.LBB943:
 1554              	.LBB944:
 1555 0254 38A19DE5 		ldr	r10, [sp, #312]
 1556              	.LVL171:
 1557              	.LBE944:
 1558              	.LBE943:
 1559              	.LBB945:
 1560              	.LBB939:
 1561 0258 78208DE5 		str	r2, [sp, #120]
 1562              	.LVL172:
 1563              	.LBE939:
 1564              	.LBE945:
 1565              	.LBB946:
 1566              	.LBB947:
 1567 025c 4C219DE5 		ldr	r2, [sp, #332]
 1568              	.LBE947:
 1569              	.LBE946:
 1570              	.LBB949:
 1571              	.LBB942:
 1572 0260 C0308DE5 		str	r3, [sp, #192]
 1573              	.LBE942:
 1574              	.LBE949:
 1575              	.LBB950:
 1576              	.LBB951:
 1577 0264 50819DE5 		ldr	r8, [sp, #336]
 1578              	.LVL173:
 1579              	.LBE951:
 1580              	.LBE950:
 1581              	.LBB952:
 1582              	.LBB948:
 1583 0268 64208DE5 		str	r2, [sp, #100]
 1584              	.LVL174:
 1585              	.LBE948:
 1586              	.LBE952:
  49:C:/Renesas/e2studio_2021_01_workspace_RZA2M_ANPR/ANPR_RZA2M_GR_MANGO/src/tensorflow_lite/tensorflow/lite/kernels/internal/reference/integer_ops\depthwise_conv.h ****   const int batches = MatchingDim(input_shape, 0, output_shape, 0);
  50:C:/Renesas/e2studio_2021_01_workspace_RZA2M_ANPR/ANPR_RZA2M_GR_MANGO/src/tensorflow_lite/tensorflow/lite/kernels/internal/reference/integer_ops\depthwise_conv.h ****   const int output_depth = MatchingDim(filter_shape, 3, output_shape, 3);
  51:C:/Renesas/e2studio_2021_01_workspace_RZA2M_ANPR/ANPR_RZA2M_GR_MANGO/src/tensorflow_lite/tensorflow/lite/kernels/internal/reference/integer_ops\depthwise_conv.h ****   const int input_height = input_shape.Dims(1);
  52:C:/Renesas/e2studio_2021_01_workspace_RZA2M_ANPR/ANPR_RZA2M_GR_MANGO/src/tensorflow_lite/tensorflow/lite/kernels/internal/reference/integer_ops\depthwise_conv.h ****   const int input_width = input_shape.Dims(2);
  53:C:/Renesas/e2studio_2021_01_workspace_RZA2M_ANPR/ANPR_RZA2M_GR_MANGO/src/tensorflow_lite/tensorflow/lite/kernels/internal/reference/integer_ops\depthwise_conv.h ****   const int input_depth = input_shape.Dims(3);
  54:C:/Renesas/e2studio_2021_01_workspace_RZA2M_ANPR/ANPR_RZA2M_GR_MANGO/src/tensorflow_lite/tensorflow/lite/kernels/internal/reference/integer_ops\depthwise_conv.h ****   const int filter_height = filter_shape.Dims(1);
  55:C:/Renesas/e2studio_2021_01_workspace_RZA2M_ANPR/ANPR_RZA2M_GR_MANGO/src/tensorflow_lite/tensorflow/lite/kernels/internal/reference/integer_ops\depthwise_conv.h ****   const int filter_width = filter_shape.Dims(2);
  56:C:/Renesas/e2studio_2021_01_workspace_RZA2M_ANPR/ANPR_RZA2M_GR_MANGO/src/tensorflow_lite/tensorflow/lite/kernels/internal/reference/integer_ops\depthwise_conv.h ****   const int output_height = output_shape.Dims(1);
  57:C:/Renesas/e2studio_2021_01_workspace_RZA2M_ANPR/ANPR_RZA2M_GR_MANGO/src/tensorflow_lite/tensorflow/lite/kernels/internal/reference/integer_ops\depthwise_conv.h ****   const int output_width = output_shape.Dims(2);
  58:C:/Renesas/e2studio_2021_01_workspace_RZA2M_ANPR/ANPR_RZA2M_GR_MANGO/src/tensorflow_lite/tensorflow/lite/kernels/internal/reference/integer_ops\depthwise_conv.h ****   TFLITE_DCHECK_EQ(output_depth, input_depth * depth_multiplier);
 1587              		.loc 6 58 0
 1588 026c 9C209DE5 		ldr	r2, [sp, #156]
 1589 0270 930203E0 		mul	r3, r3, r2
 1590              	.LBB953:
 1591              	.LBB954:
 216:C:/Renesas/e2studio_2021_01_workspace_RZA2M_ANPR/ANPR_RZA2M_GR_MANGO/src/tensorflow_lite/tensorflow/lite/kernels/internal\types.h ****   }
 1592              		.loc 4 216 0
 1593 0274 7C219DE5 		ldr	r2, [sp, #380]
 1594 0278 C4208DE5 		str	r2, [sp, #196]
 1595              	.LVL175:
 1596              	.LBE954:
 1597              	.LBE953:
 1598              	.LBB955:
 1599              	.LBB956:
 1600 027c 80219DE5 		ldr	r2, [sp, #384]
 1601              	.LBE956:
 1602              	.LBE955:
 1603              		.loc 6 58 0
 1604 0280 050053E1 		cmp	r3, r5
 1605              	.LBB958:
 1606              	.LBB957:
 216:C:/Renesas/e2studio_2021_01_workspace_RZA2M_ANPR/ANPR_RZA2M_GR_MANGO/src/tensorflow_lite/tensorflow/lite/kernels/internal\types.h ****   }
 1607              		.loc 4 216 0
 1608 0284 C8208DE5 		str	r2, [sp, #200]
 1609              	.LVL176:
 1610              	.LBE957:
 1611              	.LBE958:
 1612              		.loc 6 58 0
 1613 0288 EB05001A 		bne	.L574
 1614              	.LVL177:
 1615              	.LBB959:
 1616              	.LBB960:
 1617              	.LBB961:
 1618              	.LBB962:
 232:C:/Renesas/e2studio_2021_01_workspace_RZA2M_ANPR/ANPR_RZA2M_GR_MANGO/src/tensorflow_lite/tensorflow/lite/kernels/internal\types.h ****   }
 1619              		.loc 4 232 0
 1620 028c 5C019DE5 		ldr	r0, [sp, #348]
 1621 0290 050050E3 		cmp	r0, #5
 1622 0294 360300CA 		bgt	.L575
 1623              	.LVL178:
 1624              	.LBE962:
 1625              	.LBE961:
 1626              	.LBB965:
 292:C:/Renesas/e2studio_2021_01_workspace_RZA2M_ANPR/ANPR_RZA2M_GR_MANGO/src/tensorflow_lite/tensorflow/lite/kernels/internal\types.h ****       buffer_size *= dims_data[i];
 1627              		.loc 4 292 0
 1628 0298 000050E3 		cmp	r0, #0
 1629              	.LBE965:
 290:C:/Renesas/e2studio_2021_01_workspace_RZA2M_ANPR/ANPR_RZA2M_GR_MANGO/src/tensorflow_lite/tensorflow/lite/kernels/internal\types.h ****     const int* dims_data = reinterpret_cast<const int*>(DimsData());
 1630              		.loc 4 290 0
 1631 029c 0120A0D3 		movle	r2, #1
 1632              	.LBB966:
 292:C:/Renesas/e2studio_2021_01_workspace_RZA2M_ANPR/ANPR_RZA2M_GR_MANGO/src/tensorflow_lite/tensorflow/lite/kernels/internal\types.h ****       buffer_size *= dims_data[i];
 1633              		.loc 4 292 0
 1634 02a0 500000DA 		ble	.L235
 1635              	.LBE966:
 1636              	.LBB967:
 1637              	.LBB963:
 232:C:/Renesas/e2studio_2021_01_workspace_RZA2M_ANPR/ANPR_RZA2M_GR_MANGO/src/tensorflow_lite/tensorflow/lite/kernels/internal\types.h ****   }
 1638              		.loc 4 232 0
 1639 02a4 16CE8DE2 		add	ip, sp, #352
 1640              	.L234:
 1641 02a8 5C31A0E7 		sbfx	r3, ip, #2, #1
 1642 02ac 033003E2 		and	r3, r3, #3
 1643 02b0 000053E1 		cmp	r3, r0
 1644 02b4 0030A021 		movcs	r3, r0
 1645 02b8 080050E3 		cmp	r0, #8
 1646 02bc 0030A0D1 		movle	r3, r0
 1647 02c0 D60300CA 		bgt	.L576
 1648              	.L236:
 1649 02c4 010053E3 		cmp	r3, #1
 1650              	.LBE963:
 1651              	.LBE967:
 1652              	.LBB968:
 293:C:/Renesas/e2studio_2021_01_workspace_RZA2M_ANPR/ANPR_RZA2M_GR_MANGO/src/tensorflow_lite/tensorflow/lite/kernels/internal\types.h ****     }
 1653              		.loc 4 293 0
 1654 02c8 00209CE5 		ldr	r2, [ip]
 1655              	.LVL179:
 1656 02cc C503000A 		beq	.L373
 1657 02d0 04109CE5 		ldr	r1, [ip, #4]
 1658 02d4 020053E3 		cmp	r3, #2
 1659 02d8 910202E0 		mul	r2, r1, r2
 1660              	.LVL180:
 1661 02dc C103000A 		beq	.L373
 1662 02e0 08109CE5 		ldr	r1, [ip, #8]
 1663 02e4 030053E3 		cmp	r3, #3
 1664 02e8 910202E0 		mul	r2, r1, r2
 1665              	.LVL181:
 1666 02ec BD03000A 		beq	.L373
 1667 02f0 0C109CE5 		ldr	r1, [ip, #12]
 1668 02f4 040053E3 		cmp	r3, #4
 1669 02f8 910202E0 		mul	r2, r1, r2
 1670              	.LVL182:
 1671 02fc B903000A 		beq	.L373
 1672 0300 10109CE5 		ldr	r1, [ip, #16]
 1673 0304 050053E3 		cmp	r3, #5
 1674 0308 910202E0 		mul	r2, r1, r2
 1675              	.LVL183:
 1676 030c B503000A 		beq	.L373
 1677 0310 14109CE5 		ldr	r1, [ip, #20]
 1678 0314 060053E3 		cmp	r3, #6
 1679 0318 910202E0 		mul	r2, r1, r2
 1680              	.LVL184:
 1681 031c B103000A 		beq	.L373
 1682 0320 18109CE5 		ldr	r1, [ip, #24]
 1683 0324 070053E3 		cmp	r3, #7
 1684 0328 910202E0 		mul	r2, r1, r2
 1685              	.LVL185:
 1686 032c AD03000A 		beq	.L373
 1687 0330 1CE09CE5 		ldr	lr, [ip, #28]
 292:C:/Renesas/e2studio_2021_01_workspace_RZA2M_ANPR/ANPR_RZA2M_GR_MANGO/src/tensorflow_lite/tensorflow/lite/kernels/internal\types.h ****       buffer_size *= dims_data[i];
 1688              		.loc 4 292 0
 1689 0334 0810A0E3 		mov	r1, #8
 293:C:/Renesas/e2studio_2021_01_workspace_RZA2M_ANPR/ANPR_RZA2M_GR_MANGO/src/tensorflow_lite/tensorflow/lite/kernels/internal\types.h ****     }
 1690              		.loc 4 293 0
 1691 0338 9E0202E0 		mul	r2, lr, r2
 1692              	.LVL186:
 1693              	.L238:
 1694 033c 030050E1 		cmp	r0, r3
 1695 0340 2800000A 		beq	.L235
 1696              	.LVL187:
 1697              	.L237:
 1698 0344 036040E0 		sub	r6, r0, r3
 1699              	.LVL188:
 1700 0348 014040E2 		sub	r4, r0, #1
 1701              	.LVL189:
 1702 034c 04E046E2 		sub	lr, r6, #4
 1703 0350 034044E0 		sub	r4, r4, r3
 1704 0354 2EE1A0E1 		lsr	lr, lr, #2
 1705 0358 020054E3 		cmp	r4, #2
 1706 035c 01E08EE2 		add	lr, lr, #1
 1707 0360 0E71A0E1 		lsl	r7, lr, #2
 1708              	.LVL190:
 1709 0364 1200009A 		bls	.L240
 1710 0368 03318CE0 		add	r3, ip, r3, lsl #2
 292:C:/Renesas/e2studio_2021_01_workspace_RZA2M_ANPR/ANPR_RZA2M_GR_MANGO/src/tensorflow_lite/tensorflow/lite/kernels/internal\types.h ****       buffer_size *= dims_data[i];
 1711              		.loc 4 292 0
 1712 036c 5140C0F2 		vmov.i32	q10, #1  @ v4si
 1713 0370 0040A0E3 		mov	r4, #0
 1714              	.L242:
 1715 0374 014084E2 		add	r4, r4, #1
 293:C:/Renesas/e2studio_2021_01_workspace_RZA2M_ANPR/ANPR_RZA2M_GR_MANGO/src/tensorflow_lite/tensorflow/lite/kernels/internal\types.h ****     }
 1716              		.loc 4 293 0
 1717 0378 DF0A63F4 		vld1.64	{d16-d17}, [r3:64]
 1718 037c 04005EE1 		cmp	lr, r4
 1719 0380 103083E2 		add	r3, r3, #16
 1720 0384 F04964F2 		vmul.i32	q10, q10, q8
 1721 0388 F9FFFF8A 		bhi	.L242
 1722 038c 5020C0F2 		vmov.i32	q9, #0  @ v4si
 1723 0390 070056E1 		cmp	r6, r7
 1724 0394 071081E0 		add	r1, r1, r7
 1725 0398 E208F4F2 		vext.32	q8, q10, q9, #2
 1726 039c F40960F2 		vmul.i32	q8, q8, q10
 1727 03a0 E224F0F2 		vext.32	q9, q8, q9, #1
 1728 03a4 F20960F2 		vmul.i32	q8, q8, q9
 1729 03a8 903B10EE 		vmov.32	r3, d16[0]
 1730 03ac 930202E0 		mul	r2, r3, r2
 1731 03b0 0C00000A 		beq	.L235
 1732              	.L240:
 1733              	.LVL191:
 1734 03b4 01E19CE7 		ldr	lr, [ip, r1, lsl #2]
 292:C:/Renesas/e2studio_2021_01_workspace_RZA2M_ANPR/ANPR_RZA2M_GR_MANGO/src/tensorflow_lite/tensorflow/lite/kernels/internal\types.h ****       buffer_size *= dims_data[i];
 1735              		.loc 4 292 0
 1736 03b8 013081E2 		add	r3, r1, #1
 1737 03bc 030050E1 		cmp	r0, r3
 293:C:/Renesas/e2studio_2021_01_workspace_RZA2M_ANPR/ANPR_RZA2M_GR_MANGO/src/tensorflow_lite/tensorflow/lite/kernels/internal\types.h ****     }
 1738              		.loc 4 293 0
 1739 03c0 0131A0E1 		lsl	r3, r1, #2
 1740 03c4 9E0202E0 		mul	r2, lr, r2
 1741              	.LVL192:
 292:C:/Renesas/e2studio_2021_01_workspace_RZA2M_ANPR/ANPR_RZA2M_GR_MANGO/src/tensorflow_lite/tensorflow/lite/kernels/internal\types.h ****       buffer_size *= dims_data[i];
 1742              		.loc 4 292 0
 1743 03c8 060000DA 		ble	.L235
 293:C:/Renesas/e2studio_2021_01_workspace_RZA2M_ANPR/ANPR_RZA2M_GR_MANGO/src/tensorflow_lite/tensorflow/lite/kernels/internal\types.h ****     }
 1744              		.loc 4 293 0
 1745 03cc 03C08CE0 		add	ip, ip, r3
 292:C:/Renesas/e2studio_2021_01_workspace_RZA2M_ANPR/ANPR_RZA2M_GR_MANGO/src/tensorflow_lite/tensorflow/lite/kernels/internal\types.h ****       buffer_size *= dims_data[i];
 1746              		.loc 4 292 0
 1747 03d0 021081E2 		add	r1, r1, #2
 293:C:/Renesas/e2studio_2021_01_workspace_RZA2M_ANPR/ANPR_RZA2M_GR_MANGO/src/tensorflow_lite/tensorflow/lite/kernels/internal\types.h ****     }
 1748              		.loc 4 293 0
 1749 03d4 04309CE5 		ldr	r3, [ip, #4]
 292:C:/Renesas/e2studio_2021_01_workspace_RZA2M_ANPR/ANPR_RZA2M_GR_MANGO/src/tensorflow_lite/tensorflow/lite/kernels/internal\types.h ****       buffer_size *= dims_data[i];
 1750              		.loc 4 292 0
 1751 03d8 010050E1 		cmp	r0, r1
 293:C:/Renesas/e2studio_2021_01_workspace_RZA2M_ANPR/ANPR_RZA2M_GR_MANGO/src/tensorflow_lite/tensorflow/lite/kernels/internal\types.h ****     }
 1752              		.loc 4 293 0
 1753 03dc 930202E0 		mul	r2, r3, r2
 1754              	.LVL193:
 292:C:/Renesas/e2studio_2021_01_workspace_RZA2M_ANPR/ANPR_RZA2M_GR_MANGO/src/tensorflow_lite/tensorflow/lite/kernels/internal\types.h ****       buffer_size *= dims_data[i];
 1755              		.loc 4 292 0
 293:C:/Renesas/e2studio_2021_01_workspace_RZA2M_ANPR/ANPR_RZA2M_GR_MANGO/src/tensorflow_lite/tensorflow/lite/kernels/internal\types.h ****     }
 1756              		.loc 4 293 0
 1757 03e0 08309CC5 		ldrgt	r3, [ip, #8]
 1758 03e4 930202C0 		mulgt	r2, r3, r2
 1759              	.LVL194:
 1760              	.L235:
 1761              	.LBE968:
 1762              	.LBE960:
 1763              	.LBE959:
  59:C:/Renesas/e2studio_2021_01_workspace_RZA2M_ANPR/ANPR_RZA2M_GR_MANGO/src/tensorflow_lite/tensorflow/lite/kernels/internal/reference/integer_ops\depthwise_conv.h ****   TFLITE_DCHECK_EQ(bias_shape.FlatSize(), output_depth);
 1764              		.loc 6 59 0
 1765 03e8 020055E1 		cmp	r5, r2
 1766 03ec 0D05001A 		bne	.L246
 1767              	.LVL195:
 1768              	.LBB975:
  60:C:/Renesas/e2studio_2021_01_workspace_RZA2M_ANPR/ANPR_RZA2M_GR_MANGO/src/tensorflow_lite/tensorflow/lite/kernels/internal/reference/integer_ops\depthwise_conv.h **** 
  61:C:/Renesas/e2studio_2021_01_workspace_RZA2M_ANPR/ANPR_RZA2M_GR_MANGO/src/tensorflow_lite/tensorflow/lite/kernels/internal/reference/integer_ops\depthwise_conv.h ****   for (int batch = 0; batch < batches; ++batch) {
 1769              		.loc 6 61 0
 1770 03f0 BC309DE5 		ldr	r3, [sp, #188]
 1771 03f4 000053E3 		cmp	r3, #0
 1772 03f8 3F0100DA 		ble	.L247
 1773 03fc 9C309DE5 		ldr	r3, [sp, #156]
 1774              	.LBB976:
 1775              	.LBB977:
 1776              	.LBB978:
 1777              	.LBB979:
 1778              	.LBB980:
 1779              	.LBB981:
 1780              	.LBB982:
 1781              	.LBB983:
 1782              	.LBB984:
 1783              		.file 7 "C:/Renesas/e2studio_2021_01_workspace_RZA2M_ANPR/ANPR_RZA2M_GR_MANGO/src/tensorflow_lite/
   1:C:/Renesas/e2studio_2021_01_workspace_RZA2M_ANPR/ANPR_RZA2M_GR_MANGO/src/tensorflow_lite/third_party/gemmlowp/fixedpoint\fixedpoint.h **** // Copyright 2015 The Gemmlowp Authors. All Rights Reserved.
   2:C:/Renesas/e2studio_2021_01_workspace_RZA2M_ANPR/ANPR_RZA2M_GR_MANGO/src/tensorflow_lite/third_party/gemmlowp/fixedpoint\fixedpoint.h **** //
   3:C:/Renesas/e2studio_2021_01_workspace_RZA2M_ANPR/ANPR_RZA2M_GR_MANGO/src/tensorflow_lite/third_party/gemmlowp/fixedpoint\fixedpoint.h **** // Licensed under the Apache License, Version 2.0 (the "License");
   4:C:/Renesas/e2studio_2021_01_workspace_RZA2M_ANPR/ANPR_RZA2M_GR_MANGO/src/tensorflow_lite/third_party/gemmlowp/fixedpoint\fixedpoint.h **** // you may not use this file except in compliance with the License.
   5:C:/Renesas/e2studio_2021_01_workspace_RZA2M_ANPR/ANPR_RZA2M_GR_MANGO/src/tensorflow_lite/third_party/gemmlowp/fixedpoint\fixedpoint.h **** // You may obtain a copy of the License at
   6:C:/Renesas/e2studio_2021_01_workspace_RZA2M_ANPR/ANPR_RZA2M_GR_MANGO/src/tensorflow_lite/third_party/gemmlowp/fixedpoint\fixedpoint.h **** //
   7:C:/Renesas/e2studio_2021_01_workspace_RZA2M_ANPR/ANPR_RZA2M_GR_MANGO/src/tensorflow_lite/third_party/gemmlowp/fixedpoint\fixedpoint.h **** //     http://www.apache.org/licenses/LICENSE-2.0
   8:C:/Renesas/e2studio_2021_01_workspace_RZA2M_ANPR/ANPR_RZA2M_GR_MANGO/src/tensorflow_lite/third_party/gemmlowp/fixedpoint\fixedpoint.h **** //
   9:C:/Renesas/e2studio_2021_01_workspace_RZA2M_ANPR/ANPR_RZA2M_GR_MANGO/src/tensorflow_lite/third_party/gemmlowp/fixedpoint\fixedpoint.h **** // Unless required by applicable law or agreed to in writing, software
  10:C:/Renesas/e2studio_2021_01_workspace_RZA2M_ANPR/ANPR_RZA2M_GR_MANGO/src/tensorflow_lite/third_party/gemmlowp/fixedpoint\fixedpoint.h **** // distributed under the License is distributed on an "AS IS" BASIS,
  11:C:/Renesas/e2studio_2021_01_workspace_RZA2M_ANPR/ANPR_RZA2M_GR_MANGO/src/tensorflow_lite/third_party/gemmlowp/fixedpoint\fixedpoint.h **** // WITHOUT WARRANTIES OR CONDITIONS OF ANY KIND, either express or implied.
  12:C:/Renesas/e2studio_2021_01_workspace_RZA2M_ANPR/ANPR_RZA2M_GR_MANGO/src/tensorflow_lite/third_party/gemmlowp/fixedpoint\fixedpoint.h **** // See the License for the specific language governing permissions and
  13:C:/Renesas/e2studio_2021_01_workspace_RZA2M_ANPR/ANPR_RZA2M_GR_MANGO/src/tensorflow_lite/third_party/gemmlowp/fixedpoint\fixedpoint.h **** // limitations under the License.
  14:C:/Renesas/e2studio_2021_01_workspace_RZA2M_ANPR/ANPR_RZA2M_GR_MANGO/src/tensorflow_lite/third_party/gemmlowp/fixedpoint\fixedpoint.h **** 
  15:C:/Renesas/e2studio_2021_01_workspace_RZA2M_ANPR/ANPR_RZA2M_GR_MANGO/src/tensorflow_lite/third_party/gemmlowp/fixedpoint\fixedpoint.h **** // fixedpoint.h: fixed-point arithmetic, with basic operations and
  16:C:/Renesas/e2studio_2021_01_workspace_RZA2M_ANPR/ANPR_RZA2M_GR_MANGO/src/tensorflow_lite/third_party/gemmlowp/fixedpoint\fixedpoint.h **** // a few math functions such as tanh.
  17:C:/Renesas/e2studio_2021_01_workspace_RZA2M_ANPR/ANPR_RZA2M_GR_MANGO/src/tensorflow_lite/third_party/gemmlowp/fixedpoint\fixedpoint.h **** 
  18:C:/Renesas/e2studio_2021_01_workspace_RZA2M_ANPR/ANPR_RZA2M_GR_MANGO/src/tensorflow_lite/third_party/gemmlowp/fixedpoint\fixedpoint.h **** #ifndef GEMMLOWP_INTERNAL_FIXEDPOINT_H_
  19:C:/Renesas/e2studio_2021_01_workspace_RZA2M_ANPR/ANPR_RZA2M_GR_MANGO/src/tensorflow_lite/third_party/gemmlowp/fixedpoint\fixedpoint.h **** #define GEMMLOWP_INTERNAL_FIXEDPOINT_H_
  20:C:/Renesas/e2studio_2021_01_workspace_RZA2M_ANPR/ANPR_RZA2M_GR_MANGO/src/tensorflow_lite/third_party/gemmlowp/fixedpoint\fixedpoint.h **** 
  21:C:/Renesas/e2studio_2021_01_workspace_RZA2M_ANPR/ANPR_RZA2M_GR_MANGO/src/tensorflow_lite/third_party/gemmlowp/fixedpoint\fixedpoint.h **** #include <algorithm>
  22:C:/Renesas/e2studio_2021_01_workspace_RZA2M_ANPR/ANPR_RZA2M_GR_MANGO/src/tensorflow_lite/third_party/gemmlowp/fixedpoint\fixedpoint.h **** #include <cassert>
  23:C:/Renesas/e2studio_2021_01_workspace_RZA2M_ANPR/ANPR_RZA2M_GR_MANGO/src/tensorflow_lite/third_party/gemmlowp/fixedpoint\fixedpoint.h **** #include <cmath>
  24:C:/Renesas/e2studio_2021_01_workspace_RZA2M_ANPR/ANPR_RZA2M_GR_MANGO/src/tensorflow_lite/third_party/gemmlowp/fixedpoint\fixedpoint.h **** #include <cstdint>
  25:C:/Renesas/e2studio_2021_01_workspace_RZA2M_ANPR/ANPR_RZA2M_GR_MANGO/src/tensorflow_lite/third_party/gemmlowp/fixedpoint\fixedpoint.h **** #include <limits>
  26:C:/Renesas/e2studio_2021_01_workspace_RZA2M_ANPR/ANPR_RZA2M_GR_MANGO/src/tensorflow_lite/third_party/gemmlowp/fixedpoint\fixedpoint.h **** 
  27:C:/Renesas/e2studio_2021_01_workspace_RZA2M_ANPR/ANPR_RZA2M_GR_MANGO/src/tensorflow_lite/third_party/gemmlowp/fixedpoint\fixedpoint.h **** #include "../internal/detect_platform.h"
  28:C:/Renesas/e2studio_2021_01_workspace_RZA2M_ANPR/ANPR_RZA2M_GR_MANGO/src/tensorflow_lite/third_party/gemmlowp/fixedpoint\fixedpoint.h **** 
  29:C:/Renesas/e2studio_2021_01_workspace_RZA2M_ANPR/ANPR_RZA2M_GR_MANGO/src/tensorflow_lite/third_party/gemmlowp/fixedpoint\fixedpoint.h **** namespace gemmlowp {
  30:C:/Renesas/e2studio_2021_01_workspace_RZA2M_ANPR/ANPR_RZA2M_GR_MANGO/src/tensorflow_lite/third_party/gemmlowp/fixedpoint\fixedpoint.h **** 
  31:C:/Renesas/e2studio_2021_01_workspace_RZA2M_ANPR/ANPR_RZA2M_GR_MANGO/src/tensorflow_lite/third_party/gemmlowp/fixedpoint\fixedpoint.h **** // Part 1: Low-level integer-arithmetic primitives.
  32:C:/Renesas/e2studio_2021_01_workspace_RZA2M_ANPR/ANPR_RZA2M_GR_MANGO/src/tensorflow_lite/third_party/gemmlowp/fixedpoint\fixedpoint.h **** // The implementations here are generic implementations valid for
  33:C:/Renesas/e2studio_2021_01_workspace_RZA2M_ANPR/ANPR_RZA2M_GR_MANGO/src/tensorflow_lite/third_party/gemmlowp/fixedpoint\fixedpoint.h **** // scalar types (e.g. std::int32_t). Architecture-specific SIMD types
  34:C:/Renesas/e2studio_2021_01_workspace_RZA2M_ANPR/ANPR_RZA2M_GR_MANGO/src/tensorflow_lite/third_party/gemmlowp/fixedpoint\fixedpoint.h **** // (e.g. NEON int32x4_t) may be supported by providing
  35:C:/Renesas/e2studio_2021_01_workspace_RZA2M_ANPR/ANPR_RZA2M_GR_MANGO/src/tensorflow_lite/third_party/gemmlowp/fixedpoint\fixedpoint.h **** // specializations for them in separate files.
  36:C:/Renesas/e2studio_2021_01_workspace_RZA2M_ANPR/ANPR_RZA2M_GR_MANGO/src/tensorflow_lite/third_party/gemmlowp/fixedpoint\fixedpoint.h **** //
  37:C:/Renesas/e2studio_2021_01_workspace_RZA2M_ANPR/ANPR_RZA2M_GR_MANGO/src/tensorflow_lite/third_party/gemmlowp/fixedpoint\fixedpoint.h **** // The purpose of these primitives is two-fold:
  38:C:/Renesas/e2studio_2021_01_workspace_RZA2M_ANPR/ANPR_RZA2M_GR_MANGO/src/tensorflow_lite/third_party/gemmlowp/fixedpoint\fixedpoint.h **** //  - They will be used to implement higher-level fixed-point
  39:C:/Renesas/e2studio_2021_01_workspace_RZA2M_ANPR/ANPR_RZA2M_GR_MANGO/src/tensorflow_lite/third_party/gemmlowp/fixedpoint\fixedpoint.h **** //    abstractions, namely the FixedPoint class and its arithmetic
  40:C:/Renesas/e2studio_2021_01_workspace_RZA2M_ANPR/ANPR_RZA2M_GR_MANGO/src/tensorflow_lite/third_party/gemmlowp/fixedpoint\fixedpoint.h **** //    operators.
  41:C:/Renesas/e2studio_2021_01_workspace_RZA2M_ANPR/ANPR_RZA2M_GR_MANGO/src/tensorflow_lite/third_party/gemmlowp/fixedpoint\fixedpoint.h **** //  - They will be directly used to implement some more involved
  42:C:/Renesas/e2studio_2021_01_workspace_RZA2M_ANPR/ANPR_RZA2M_GR_MANGO/src/tensorflow_lite/third_party/gemmlowp/fixedpoint\fixedpoint.h **** //    fixed-point computations, e.g. the fixed-point implementation
  43:C:/Renesas/e2studio_2021_01_workspace_RZA2M_ANPR/ANPR_RZA2M_GR_MANGO/src/tensorflow_lite/third_party/gemmlowp/fixedpoint\fixedpoint.h **** //    of math functions such as tanh.
  44:C:/Renesas/e2studio_2021_01_workspace_RZA2M_ANPR/ANPR_RZA2M_GR_MANGO/src/tensorflow_lite/third_party/gemmlowp/fixedpoint\fixedpoint.h **** 
  45:C:/Renesas/e2studio_2021_01_workspace_RZA2M_ANPR/ANPR_RZA2M_GR_MANGO/src/tensorflow_lite/third_party/gemmlowp/fixedpoint\fixedpoint.h **** // Some compile-time traits around raw types to handle SIMD aspects:
  46:C:/Renesas/e2studio_2021_01_workspace_RZA2M_ANPR/ANPR_RZA2M_GR_MANGO/src/tensorflow_lite/third_party/gemmlowp/fixedpoint\fixedpoint.h **** // number of lanes, underlying scalar type.
  47:C:/Renesas/e2studio_2021_01_workspace_RZA2M_ANPR/ANPR_RZA2M_GR_MANGO/src/tensorflow_lite/third_party/gemmlowp/fixedpoint\fixedpoint.h **** template <typename tIntegerType>
  48:C:/Renesas/e2studio_2021_01_workspace_RZA2M_ANPR/ANPR_RZA2M_GR_MANGO/src/tensorflow_lite/third_party/gemmlowp/fixedpoint\fixedpoint.h **** struct FixedPointRawTypeTraits {};
  49:C:/Renesas/e2studio_2021_01_workspace_RZA2M_ANPR/ANPR_RZA2M_GR_MANGO/src/tensorflow_lite/third_party/gemmlowp/fixedpoint\fixedpoint.h **** 
  50:C:/Renesas/e2studio_2021_01_workspace_RZA2M_ANPR/ANPR_RZA2M_GR_MANGO/src/tensorflow_lite/third_party/gemmlowp/fixedpoint\fixedpoint.h **** template <>
  51:C:/Renesas/e2studio_2021_01_workspace_RZA2M_ANPR/ANPR_RZA2M_GR_MANGO/src/tensorflow_lite/third_party/gemmlowp/fixedpoint\fixedpoint.h **** struct FixedPointRawTypeTraits<std::int32_t> {
  52:C:/Renesas/e2studio_2021_01_workspace_RZA2M_ANPR/ANPR_RZA2M_GR_MANGO/src/tensorflow_lite/third_party/gemmlowp/fixedpoint\fixedpoint.h ****   typedef std::int32_t ScalarRawType;
  53:C:/Renesas/e2studio_2021_01_workspace_RZA2M_ANPR/ANPR_RZA2M_GR_MANGO/src/tensorflow_lite/third_party/gemmlowp/fixedpoint\fixedpoint.h ****   static constexpr int kLanes = 1;
  54:C:/Renesas/e2studio_2021_01_workspace_RZA2M_ANPR/ANPR_RZA2M_GR_MANGO/src/tensorflow_lite/third_party/gemmlowp/fixedpoint\fixedpoint.h **** };
  55:C:/Renesas/e2studio_2021_01_workspace_RZA2M_ANPR/ANPR_RZA2M_GR_MANGO/src/tensorflow_lite/third_party/gemmlowp/fixedpoint\fixedpoint.h **** 
  56:C:/Renesas/e2studio_2021_01_workspace_RZA2M_ANPR/ANPR_RZA2M_GR_MANGO/src/tensorflow_lite/third_party/gemmlowp/fixedpoint\fixedpoint.h **** template <>
  57:C:/Renesas/e2studio_2021_01_workspace_RZA2M_ANPR/ANPR_RZA2M_GR_MANGO/src/tensorflow_lite/third_party/gemmlowp/fixedpoint\fixedpoint.h **** struct FixedPointRawTypeTraits<std::int16_t> {
  58:C:/Renesas/e2studio_2021_01_workspace_RZA2M_ANPR/ANPR_RZA2M_GR_MANGO/src/tensorflow_lite/third_party/gemmlowp/fixedpoint\fixedpoint.h ****   typedef std::int16_t ScalarRawType;
  59:C:/Renesas/e2studio_2021_01_workspace_RZA2M_ANPR/ANPR_RZA2M_GR_MANGO/src/tensorflow_lite/third_party/gemmlowp/fixedpoint\fixedpoint.h ****   static constexpr int kLanes = 1;
  60:C:/Renesas/e2studio_2021_01_workspace_RZA2M_ANPR/ANPR_RZA2M_GR_MANGO/src/tensorflow_lite/third_party/gemmlowp/fixedpoint\fixedpoint.h **** };
  61:C:/Renesas/e2studio_2021_01_workspace_RZA2M_ANPR/ANPR_RZA2M_GR_MANGO/src/tensorflow_lite/third_party/gemmlowp/fixedpoint\fixedpoint.h **** 
  62:C:/Renesas/e2studio_2021_01_workspace_RZA2M_ANPR/ANPR_RZA2M_GR_MANGO/src/tensorflow_lite/third_party/gemmlowp/fixedpoint\fixedpoint.h **** // Returns a SIMD value duplicating a scalar value across all lanes.
  63:C:/Renesas/e2studio_2021_01_workspace_RZA2M_ANPR/ANPR_RZA2M_GR_MANGO/src/tensorflow_lite/third_party/gemmlowp/fixedpoint\fixedpoint.h **** template <typename tRawType>
  64:C:/Renesas/e2studio_2021_01_workspace_RZA2M_ANPR/ANPR_RZA2M_GR_MANGO/src/tensorflow_lite/third_party/gemmlowp/fixedpoint\fixedpoint.h **** tRawType Dup(typename FixedPointRawTypeTraits<tRawType>::ScalarRawType x) {
  65:C:/Renesas/e2studio_2021_01_workspace_RZA2M_ANPR/ANPR_RZA2M_GR_MANGO/src/tensorflow_lite/third_party/gemmlowp/fixedpoint\fixedpoint.h ****   return x;
  66:C:/Renesas/e2studio_2021_01_workspace_RZA2M_ANPR/ANPR_RZA2M_GR_MANGO/src/tensorflow_lite/third_party/gemmlowp/fixedpoint\fixedpoint.h **** }
  67:C:/Renesas/e2studio_2021_01_workspace_RZA2M_ANPR/ANPR_RZA2M_GR_MANGO/src/tensorflow_lite/third_party/gemmlowp/fixedpoint\fixedpoint.h **** 
  68:C:/Renesas/e2studio_2021_01_workspace_RZA2M_ANPR/ANPR_RZA2M_GR_MANGO/src/tensorflow_lite/third_party/gemmlowp/fixedpoint\fixedpoint.h **** // Plain bit-wise AND
  69:C:/Renesas/e2studio_2021_01_workspace_RZA2M_ANPR/ANPR_RZA2M_GR_MANGO/src/tensorflow_lite/third_party/gemmlowp/fixedpoint\fixedpoint.h **** template <typename tIntegerType>
  70:C:/Renesas/e2studio_2021_01_workspace_RZA2M_ANPR/ANPR_RZA2M_GR_MANGO/src/tensorflow_lite/third_party/gemmlowp/fixedpoint\fixedpoint.h **** tIntegerType BitAnd(tIntegerType a, tIntegerType b) {
  71:C:/Renesas/e2studio_2021_01_workspace_RZA2M_ANPR/ANPR_RZA2M_GR_MANGO/src/tensorflow_lite/third_party/gemmlowp/fixedpoint\fixedpoint.h ****   return a & b;
  72:C:/Renesas/e2studio_2021_01_workspace_RZA2M_ANPR/ANPR_RZA2M_GR_MANGO/src/tensorflow_lite/third_party/gemmlowp/fixedpoint\fixedpoint.h **** }
  73:C:/Renesas/e2studio_2021_01_workspace_RZA2M_ANPR/ANPR_RZA2M_GR_MANGO/src/tensorflow_lite/third_party/gemmlowp/fixedpoint\fixedpoint.h **** 
  74:C:/Renesas/e2studio_2021_01_workspace_RZA2M_ANPR/ANPR_RZA2M_GR_MANGO/src/tensorflow_lite/third_party/gemmlowp/fixedpoint\fixedpoint.h **** // Plain bit-wise OR
  75:C:/Renesas/e2studio_2021_01_workspace_RZA2M_ANPR/ANPR_RZA2M_GR_MANGO/src/tensorflow_lite/third_party/gemmlowp/fixedpoint\fixedpoint.h **** template <typename tIntegerType>
  76:C:/Renesas/e2studio_2021_01_workspace_RZA2M_ANPR/ANPR_RZA2M_GR_MANGO/src/tensorflow_lite/third_party/gemmlowp/fixedpoint\fixedpoint.h **** tIntegerType BitOr(tIntegerType a, tIntegerType b) {
  77:C:/Renesas/e2studio_2021_01_workspace_RZA2M_ANPR/ANPR_RZA2M_GR_MANGO/src/tensorflow_lite/third_party/gemmlowp/fixedpoint\fixedpoint.h ****   return a | b;
  78:C:/Renesas/e2studio_2021_01_workspace_RZA2M_ANPR/ANPR_RZA2M_GR_MANGO/src/tensorflow_lite/third_party/gemmlowp/fixedpoint\fixedpoint.h **** }
  79:C:/Renesas/e2studio_2021_01_workspace_RZA2M_ANPR/ANPR_RZA2M_GR_MANGO/src/tensorflow_lite/third_party/gemmlowp/fixedpoint\fixedpoint.h **** 
  80:C:/Renesas/e2studio_2021_01_workspace_RZA2M_ANPR/ANPR_RZA2M_GR_MANGO/src/tensorflow_lite/third_party/gemmlowp/fixedpoint\fixedpoint.h **** // Plain bit-wise XOR
  81:C:/Renesas/e2studio_2021_01_workspace_RZA2M_ANPR/ANPR_RZA2M_GR_MANGO/src/tensorflow_lite/third_party/gemmlowp/fixedpoint\fixedpoint.h **** template <typename tIntegerType>
  82:C:/Renesas/e2studio_2021_01_workspace_RZA2M_ANPR/ANPR_RZA2M_GR_MANGO/src/tensorflow_lite/third_party/gemmlowp/fixedpoint\fixedpoint.h **** tIntegerType BitXor(tIntegerType a, tIntegerType b) {
  83:C:/Renesas/e2studio_2021_01_workspace_RZA2M_ANPR/ANPR_RZA2M_GR_MANGO/src/tensorflow_lite/third_party/gemmlowp/fixedpoint\fixedpoint.h ****   return a ^ b;
  84:C:/Renesas/e2studio_2021_01_workspace_RZA2M_ANPR/ANPR_RZA2M_GR_MANGO/src/tensorflow_lite/third_party/gemmlowp/fixedpoint\fixedpoint.h **** }
  85:C:/Renesas/e2studio_2021_01_workspace_RZA2M_ANPR/ANPR_RZA2M_GR_MANGO/src/tensorflow_lite/third_party/gemmlowp/fixedpoint\fixedpoint.h **** 
  86:C:/Renesas/e2studio_2021_01_workspace_RZA2M_ANPR/ANPR_RZA2M_GR_MANGO/src/tensorflow_lite/third_party/gemmlowp/fixedpoint\fixedpoint.h **** // Plain bit-wise NOT
  87:C:/Renesas/e2studio_2021_01_workspace_RZA2M_ANPR/ANPR_RZA2M_GR_MANGO/src/tensorflow_lite/third_party/gemmlowp/fixedpoint\fixedpoint.h **** template <typename tIntegerType>
  88:C:/Renesas/e2studio_2021_01_workspace_RZA2M_ANPR/ANPR_RZA2M_GR_MANGO/src/tensorflow_lite/third_party/gemmlowp/fixedpoint\fixedpoint.h **** tIntegerType BitNot(tIntegerType a) {
  89:C:/Renesas/e2studio_2021_01_workspace_RZA2M_ANPR/ANPR_RZA2M_GR_MANGO/src/tensorflow_lite/third_party/gemmlowp/fixedpoint\fixedpoint.h ****   return ~a;
  90:C:/Renesas/e2studio_2021_01_workspace_RZA2M_ANPR/ANPR_RZA2M_GR_MANGO/src/tensorflow_lite/third_party/gemmlowp/fixedpoint\fixedpoint.h **** }
  91:C:/Renesas/e2studio_2021_01_workspace_RZA2M_ANPR/ANPR_RZA2M_GR_MANGO/src/tensorflow_lite/third_party/gemmlowp/fixedpoint\fixedpoint.h **** 
  92:C:/Renesas/e2studio_2021_01_workspace_RZA2M_ANPR/ANPR_RZA2M_GR_MANGO/src/tensorflow_lite/third_party/gemmlowp/fixedpoint\fixedpoint.h **** // Integer addition. Not saturating. Overflow is undefined behavior.
  93:C:/Renesas/e2studio_2021_01_workspace_RZA2M_ANPR/ANPR_RZA2M_GR_MANGO/src/tensorflow_lite/third_party/gemmlowp/fixedpoint\fixedpoint.h **** template <typename tIntegerType>
  94:C:/Renesas/e2studio_2021_01_workspace_RZA2M_ANPR/ANPR_RZA2M_GR_MANGO/src/tensorflow_lite/third_party/gemmlowp/fixedpoint\fixedpoint.h **** tIntegerType Add(tIntegerType a, tIntegerType b) {
  95:C:/Renesas/e2studio_2021_01_workspace_RZA2M_ANPR/ANPR_RZA2M_GR_MANGO/src/tensorflow_lite/third_party/gemmlowp/fixedpoint\fixedpoint.h ****   return a + b;
  96:C:/Renesas/e2studio_2021_01_workspace_RZA2M_ANPR/ANPR_RZA2M_GR_MANGO/src/tensorflow_lite/third_party/gemmlowp/fixedpoint\fixedpoint.h **** }
  97:C:/Renesas/e2studio_2021_01_workspace_RZA2M_ANPR/ANPR_RZA2M_GR_MANGO/src/tensorflow_lite/third_party/gemmlowp/fixedpoint\fixedpoint.h **** 
  98:C:/Renesas/e2studio_2021_01_workspace_RZA2M_ANPR/ANPR_RZA2M_GR_MANGO/src/tensorflow_lite/third_party/gemmlowp/fixedpoint\fixedpoint.h **** // Integer subtraction. Not saturating. Overflow is undefined behavior.
  99:C:/Renesas/e2studio_2021_01_workspace_RZA2M_ANPR/ANPR_RZA2M_GR_MANGO/src/tensorflow_lite/third_party/gemmlowp/fixedpoint\fixedpoint.h **** template <typename tIntegerType>
 100:C:/Renesas/e2studio_2021_01_workspace_RZA2M_ANPR/ANPR_RZA2M_GR_MANGO/src/tensorflow_lite/third_party/gemmlowp/fixedpoint\fixedpoint.h **** tIntegerType Mul(tIntegerType a, tIntegerType b) {
 101:C:/Renesas/e2studio_2021_01_workspace_RZA2M_ANPR/ANPR_RZA2M_GR_MANGO/src/tensorflow_lite/third_party/gemmlowp/fixedpoint\fixedpoint.h ****   return a * b;
 102:C:/Renesas/e2studio_2021_01_workspace_RZA2M_ANPR/ANPR_RZA2M_GR_MANGO/src/tensorflow_lite/third_party/gemmlowp/fixedpoint\fixedpoint.h **** }
 103:C:/Renesas/e2studio_2021_01_workspace_RZA2M_ANPR/ANPR_RZA2M_GR_MANGO/src/tensorflow_lite/third_party/gemmlowp/fixedpoint\fixedpoint.h **** 
 104:C:/Renesas/e2studio_2021_01_workspace_RZA2M_ANPR/ANPR_RZA2M_GR_MANGO/src/tensorflow_lite/third_party/gemmlowp/fixedpoint\fixedpoint.h **** template <typename tIntegerType>
 105:C:/Renesas/e2studio_2021_01_workspace_RZA2M_ANPR/ANPR_RZA2M_GR_MANGO/src/tensorflow_lite/third_party/gemmlowp/fixedpoint\fixedpoint.h **** tIntegerType Sub(tIntegerType a, tIntegerType b) {
 106:C:/Renesas/e2studio_2021_01_workspace_RZA2M_ANPR/ANPR_RZA2M_GR_MANGO/src/tensorflow_lite/third_party/gemmlowp/fixedpoint\fixedpoint.h ****   return a - b;
 107:C:/Renesas/e2studio_2021_01_workspace_RZA2M_ANPR/ANPR_RZA2M_GR_MANGO/src/tensorflow_lite/third_party/gemmlowp/fixedpoint\fixedpoint.h **** }
 108:C:/Renesas/e2studio_2021_01_workspace_RZA2M_ANPR/ANPR_RZA2M_GR_MANGO/src/tensorflow_lite/third_party/gemmlowp/fixedpoint\fixedpoint.h **** 
 109:C:/Renesas/e2studio_2021_01_workspace_RZA2M_ANPR/ANPR_RZA2M_GR_MANGO/src/tensorflow_lite/third_party/gemmlowp/fixedpoint\fixedpoint.h **** // Integer unary negative. Not saturating. Overflow is undefined behavior.
 110:C:/Renesas/e2studio_2021_01_workspace_RZA2M_ANPR/ANPR_RZA2M_GR_MANGO/src/tensorflow_lite/third_party/gemmlowp/fixedpoint\fixedpoint.h **** template <typename tIntegerType>
 111:C:/Renesas/e2studio_2021_01_workspace_RZA2M_ANPR/ANPR_RZA2M_GR_MANGO/src/tensorflow_lite/third_party/gemmlowp/fixedpoint\fixedpoint.h **** tIntegerType Neg(tIntegerType a) {
 112:C:/Renesas/e2studio_2021_01_workspace_RZA2M_ANPR/ANPR_RZA2M_GR_MANGO/src/tensorflow_lite/third_party/gemmlowp/fixedpoint\fixedpoint.h ****   return -a;
 113:C:/Renesas/e2studio_2021_01_workspace_RZA2M_ANPR/ANPR_RZA2M_GR_MANGO/src/tensorflow_lite/third_party/gemmlowp/fixedpoint\fixedpoint.h **** }
 114:C:/Renesas/e2studio_2021_01_workspace_RZA2M_ANPR/ANPR_RZA2M_GR_MANGO/src/tensorflow_lite/third_party/gemmlowp/fixedpoint\fixedpoint.h **** 
 115:C:/Renesas/e2studio_2021_01_workspace_RZA2M_ANPR/ANPR_RZA2M_GR_MANGO/src/tensorflow_lite/third_party/gemmlowp/fixedpoint\fixedpoint.h **** // Integer arithmetic left-shift, equivalent to multiplying with a power of two.
 116:C:/Renesas/e2studio_2021_01_workspace_RZA2M_ANPR/ANPR_RZA2M_GR_MANGO/src/tensorflow_lite/third_party/gemmlowp/fixedpoint\fixedpoint.h **** // Negative values are OK. In case of overflow, no Undefined
 117:C:/Renesas/e2studio_2021_01_workspace_RZA2M_ANPR/ANPR_RZA2M_GR_MANGO/src/tensorflow_lite/third_party/gemmlowp/fixedpoint\fixedpoint.h **** // Behavior, but the results are implementation-defined (in practice,
 118:C:/Renesas/e2studio_2021_01_workspace_RZA2M_ANPR/ANPR_RZA2M_GR_MANGO/src/tensorflow_lite/third_party/gemmlowp/fixedpoint\fixedpoint.h **** // they currently are saturated, but we make no commitment to that). The idea
 119:C:/Renesas/e2studio_2021_01_workspace_RZA2M_ANPR/ANPR_RZA2M_GR_MANGO/src/tensorflow_lite/third_party/gemmlowp/fixedpoint\fixedpoint.h **** // is that the caller will want to implement the overflowing cases with
 120:C:/Renesas/e2studio_2021_01_workspace_RZA2M_ANPR/ANPR_RZA2M_GR_MANGO/src/tensorflow_lite/third_party/gemmlowp/fixedpoint\fixedpoint.h **** // saturation with compare-and-mask, so we don't care about the results
 121:C:/Renesas/e2studio_2021_01_workspace_RZA2M_ANPR/ANPR_RZA2M_GR_MANGO/src/tensorflow_lite/third_party/gemmlowp/fixedpoint\fixedpoint.h **** // in the overflow case, we just want to avoid undefined behavior.
 122:C:/Renesas/e2studio_2021_01_workspace_RZA2M_ANPR/ANPR_RZA2M_GR_MANGO/src/tensorflow_lite/third_party/gemmlowp/fixedpoint\fixedpoint.h **** //
 123:C:/Renesas/e2studio_2021_01_workspace_RZA2M_ANPR/ANPR_RZA2M_GR_MANGO/src/tensorflow_lite/third_party/gemmlowp/fixedpoint\fixedpoint.h **** // tIntegerType may be int32 or any narrower signed type.
 124:C:/Renesas/e2studio_2021_01_workspace_RZA2M_ANPR/ANPR_RZA2M_GR_MANGO/src/tensorflow_lite/third_party/gemmlowp/fixedpoint\fixedpoint.h **** template <typename tIntegerType>
 125:C:/Renesas/e2studio_2021_01_workspace_RZA2M_ANPR/ANPR_RZA2M_GR_MANGO/src/tensorflow_lite/third_party/gemmlowp/fixedpoint\fixedpoint.h **** tIntegerType ShiftLeft(tIntegerType a, int offset) {
 126:C:/Renesas/e2studio_2021_01_workspace_RZA2M_ANPR/ANPR_RZA2M_GR_MANGO/src/tensorflow_lite/third_party/gemmlowp/fixedpoint\fixedpoint.h ****   const std::int64_t wide_a = static_cast<std::int64_t>(a);
 127:C:/Renesas/e2studio_2021_01_workspace_RZA2M_ANPR/ANPR_RZA2M_GR_MANGO/src/tensorflow_lite/third_party/gemmlowp/fixedpoint\fixedpoint.h ****   const std::int64_t wide_shifted = wide_a * (1 << offset);
 128:C:/Renesas/e2studio_2021_01_workspace_RZA2M_ANPR/ANPR_RZA2M_GR_MANGO/src/tensorflow_lite/third_party/gemmlowp/fixedpoint\fixedpoint.h ****   const auto min = std::numeric_limits<tIntegerType>::min();
 129:C:/Renesas/e2studio_2021_01_workspace_RZA2M_ANPR/ANPR_RZA2M_GR_MANGO/src/tensorflow_lite/third_party/gemmlowp/fixedpoint\fixedpoint.h ****   const auto max = std::numeric_limits<tIntegerType>::max();
 130:C:/Renesas/e2studio_2021_01_workspace_RZA2M_ANPR/ANPR_RZA2M_GR_MANGO/src/tensorflow_lite/third_party/gemmlowp/fixedpoint\fixedpoint.h ****   return wide_shifted < min
 131:C:/Renesas/e2studio_2021_01_workspace_RZA2M_ANPR/ANPR_RZA2M_GR_MANGO/src/tensorflow_lite/third_party/gemmlowp/fixedpoint\fixedpoint.h ****              ? min
 132:C:/Renesas/e2studio_2021_01_workspace_RZA2M_ANPR/ANPR_RZA2M_GR_MANGO/src/tensorflow_lite/third_party/gemmlowp/fixedpoint\fixedpoint.h ****              : wide_shifted > max ? max
 133:C:/Renesas/e2studio_2021_01_workspace_RZA2M_ANPR/ANPR_RZA2M_GR_MANGO/src/tensorflow_lite/third_party/gemmlowp/fixedpoint\fixedpoint.h ****                                   : static_cast<tIntegerType>(wide_shifted);
 134:C:/Renesas/e2studio_2021_01_workspace_RZA2M_ANPR/ANPR_RZA2M_GR_MANGO/src/tensorflow_lite/third_party/gemmlowp/fixedpoint\fixedpoint.h **** }
 135:C:/Renesas/e2studio_2021_01_workspace_RZA2M_ANPR/ANPR_RZA2M_GR_MANGO/src/tensorflow_lite/third_party/gemmlowp/fixedpoint\fixedpoint.h **** 
 136:C:/Renesas/e2studio_2021_01_workspace_RZA2M_ANPR/ANPR_RZA2M_GR_MANGO/src/tensorflow_lite/third_party/gemmlowp/fixedpoint\fixedpoint.h **** // Integer arithmetic right-shift. Not rounding.
 137:C:/Renesas/e2studio_2021_01_workspace_RZA2M_ANPR/ANPR_RZA2M_GR_MANGO/src/tensorflow_lite/third_party/gemmlowp/fixedpoint\fixedpoint.h **** // Relying on implementation-defined, but in-practice-consistent,
 138:C:/Renesas/e2studio_2021_01_workspace_RZA2M_ANPR/ANPR_RZA2M_GR_MANGO/src/tensorflow_lite/third_party/gemmlowp/fixedpoint\fixedpoint.h **** // C++ compiler behavior.
 139:C:/Renesas/e2studio_2021_01_workspace_RZA2M_ANPR/ANPR_RZA2M_GR_MANGO/src/tensorflow_lite/third_party/gemmlowp/fixedpoint\fixedpoint.h **** template <typename tIntegerType>
 140:C:/Renesas/e2studio_2021_01_workspace_RZA2M_ANPR/ANPR_RZA2M_GR_MANGO/src/tensorflow_lite/third_party/gemmlowp/fixedpoint\fixedpoint.h **** tIntegerType ShiftRight(tIntegerType a, int offset) {
 141:C:/Renesas/e2studio_2021_01_workspace_RZA2M_ANPR/ANPR_RZA2M_GR_MANGO/src/tensorflow_lite/third_party/gemmlowp/fixedpoint\fixedpoint.h ****   return a >> offset;
 142:C:/Renesas/e2studio_2021_01_workspace_RZA2M_ANPR/ANPR_RZA2M_GR_MANGO/src/tensorflow_lite/third_party/gemmlowp/fixedpoint\fixedpoint.h **** }
 143:C:/Renesas/e2studio_2021_01_workspace_RZA2M_ANPR/ANPR_RZA2M_GR_MANGO/src/tensorflow_lite/third_party/gemmlowp/fixedpoint\fixedpoint.h **** 
 144:C:/Renesas/e2studio_2021_01_workspace_RZA2M_ANPR/ANPR_RZA2M_GR_MANGO/src/tensorflow_lite/third_party/gemmlowp/fixedpoint\fixedpoint.h **** // Each bit of the result is set to the corresponding bit of either then_val or
 145:C:/Renesas/e2studio_2021_01_workspace_RZA2M_ANPR/ANPR_RZA2M_GR_MANGO/src/tensorflow_lite/third_party/gemmlowp/fixedpoint\fixedpoint.h **** // else_val depending on whether the corresponding bit of if_mask is set.
 146:C:/Renesas/e2studio_2021_01_workspace_RZA2M_ANPR/ANPR_RZA2M_GR_MANGO/src/tensorflow_lite/third_party/gemmlowp/fixedpoint\fixedpoint.h **** // Equivalent to the VBSL instruction in ARM NEON.
 147:C:/Renesas/e2studio_2021_01_workspace_RZA2M_ANPR/ANPR_RZA2M_GR_MANGO/src/tensorflow_lite/third_party/gemmlowp/fixedpoint\fixedpoint.h **** template <typename tIntegerType>
 148:C:/Renesas/e2studio_2021_01_workspace_RZA2M_ANPR/ANPR_RZA2M_GR_MANGO/src/tensorflow_lite/third_party/gemmlowp/fixedpoint\fixedpoint.h **** tIntegerType SelectUsingMask(tIntegerType if_mask, tIntegerType then_val,
 149:C:/Renesas/e2studio_2021_01_workspace_RZA2M_ANPR/ANPR_RZA2M_GR_MANGO/src/tensorflow_lite/third_party/gemmlowp/fixedpoint\fixedpoint.h ****                              tIntegerType else_val) {
 150:C:/Renesas/e2studio_2021_01_workspace_RZA2M_ANPR/ANPR_RZA2M_GR_MANGO/src/tensorflow_lite/third_party/gemmlowp/fixedpoint\fixedpoint.h ****   return BitXor(BitAnd(if_mask, then_val), BitAnd(BitNot(if_mask), else_val));
 151:C:/Renesas/e2studio_2021_01_workspace_RZA2M_ANPR/ANPR_RZA2M_GR_MANGO/src/tensorflow_lite/third_party/gemmlowp/fixedpoint\fixedpoint.h **** }
 152:C:/Renesas/e2studio_2021_01_workspace_RZA2M_ANPR/ANPR_RZA2M_GR_MANGO/src/tensorflow_lite/third_party/gemmlowp/fixedpoint\fixedpoint.h **** 
 153:C:/Renesas/e2studio_2021_01_workspace_RZA2M_ANPR/ANPR_RZA2M_GR_MANGO/src/tensorflow_lite/third_party/gemmlowp/fixedpoint\fixedpoint.h **** // For each input scalar, the corresponding bits of the result are set if the
 154:C:/Renesas/e2studio_2021_01_workspace_RZA2M_ANPR/ANPR_RZA2M_GR_MANGO/src/tensorflow_lite/third_party/gemmlowp/fixedpoint\fixedpoint.h **** // input scalar is non-zero.
 155:C:/Renesas/e2studio_2021_01_workspace_RZA2M_ANPR/ANPR_RZA2M_GR_MANGO/src/tensorflow_lite/third_party/gemmlowp/fixedpoint\fixedpoint.h **** template <typename tIntegerType>
 156:C:/Renesas/e2studio_2021_01_workspace_RZA2M_ANPR/ANPR_RZA2M_GR_MANGO/src/tensorflow_lite/third_party/gemmlowp/fixedpoint\fixedpoint.h **** tIntegerType MaskIfNonZero(tIntegerType a) {
 157:C:/Renesas/e2studio_2021_01_workspace_RZA2M_ANPR/ANPR_RZA2M_GR_MANGO/src/tensorflow_lite/third_party/gemmlowp/fixedpoint\fixedpoint.h ****   static constexpr tIntegerType zero = 0;
 158:C:/Renesas/e2studio_2021_01_workspace_RZA2M_ANPR/ANPR_RZA2M_GR_MANGO/src/tensorflow_lite/third_party/gemmlowp/fixedpoint\fixedpoint.h ****   return a ? BitNot(zero) : zero;
 159:C:/Renesas/e2studio_2021_01_workspace_RZA2M_ANPR/ANPR_RZA2M_GR_MANGO/src/tensorflow_lite/third_party/gemmlowp/fixedpoint\fixedpoint.h **** }
 160:C:/Renesas/e2studio_2021_01_workspace_RZA2M_ANPR/ANPR_RZA2M_GR_MANGO/src/tensorflow_lite/third_party/gemmlowp/fixedpoint\fixedpoint.h **** 
 161:C:/Renesas/e2studio_2021_01_workspace_RZA2M_ANPR/ANPR_RZA2M_GR_MANGO/src/tensorflow_lite/third_party/gemmlowp/fixedpoint\fixedpoint.h **** // For each input scalar, the corresponding bits of the result are set if the
 162:C:/Renesas/e2studio_2021_01_workspace_RZA2M_ANPR/ANPR_RZA2M_GR_MANGO/src/tensorflow_lite/third_party/gemmlowp/fixedpoint\fixedpoint.h **** // input scalar is zero.
 163:C:/Renesas/e2studio_2021_01_workspace_RZA2M_ANPR/ANPR_RZA2M_GR_MANGO/src/tensorflow_lite/third_party/gemmlowp/fixedpoint\fixedpoint.h **** template <typename tIntegerType>
 164:C:/Renesas/e2studio_2021_01_workspace_RZA2M_ANPR/ANPR_RZA2M_GR_MANGO/src/tensorflow_lite/third_party/gemmlowp/fixedpoint\fixedpoint.h **** tIntegerType MaskIfZero(tIntegerType a) {
 165:C:/Renesas/e2studio_2021_01_workspace_RZA2M_ANPR/ANPR_RZA2M_GR_MANGO/src/tensorflow_lite/third_party/gemmlowp/fixedpoint\fixedpoint.h ****   return MaskIfNonZero<tIntegerType>(!a);
 166:C:/Renesas/e2studio_2021_01_workspace_RZA2M_ANPR/ANPR_RZA2M_GR_MANGO/src/tensorflow_lite/third_party/gemmlowp/fixedpoint\fixedpoint.h **** }
 167:C:/Renesas/e2studio_2021_01_workspace_RZA2M_ANPR/ANPR_RZA2M_GR_MANGO/src/tensorflow_lite/third_party/gemmlowp/fixedpoint\fixedpoint.h **** 
 168:C:/Renesas/e2studio_2021_01_workspace_RZA2M_ANPR/ANPR_RZA2M_GR_MANGO/src/tensorflow_lite/third_party/gemmlowp/fixedpoint\fixedpoint.h **** // For each pair of input scalars, the corresponding bits of the result are
 169:C:/Renesas/e2studio_2021_01_workspace_RZA2M_ANPR/ANPR_RZA2M_GR_MANGO/src/tensorflow_lite/third_party/gemmlowp/fixedpoint\fixedpoint.h **** // set if the input scalars are equal.
 170:C:/Renesas/e2studio_2021_01_workspace_RZA2M_ANPR/ANPR_RZA2M_GR_MANGO/src/tensorflow_lite/third_party/gemmlowp/fixedpoint\fixedpoint.h **** template <typename tIntegerType>
 171:C:/Renesas/e2studio_2021_01_workspace_RZA2M_ANPR/ANPR_RZA2M_GR_MANGO/src/tensorflow_lite/third_party/gemmlowp/fixedpoint\fixedpoint.h **** tIntegerType MaskIfEqual(tIntegerType a, tIntegerType b) {
 172:C:/Renesas/e2studio_2021_01_workspace_RZA2M_ANPR/ANPR_RZA2M_GR_MANGO/src/tensorflow_lite/third_party/gemmlowp/fixedpoint\fixedpoint.h ****   return MaskIfNonZero<tIntegerType>(a == b);
 173:C:/Renesas/e2studio_2021_01_workspace_RZA2M_ANPR/ANPR_RZA2M_GR_MANGO/src/tensorflow_lite/third_party/gemmlowp/fixedpoint\fixedpoint.h **** }
 174:C:/Renesas/e2studio_2021_01_workspace_RZA2M_ANPR/ANPR_RZA2M_GR_MANGO/src/tensorflow_lite/third_party/gemmlowp/fixedpoint\fixedpoint.h **** 
 175:C:/Renesas/e2studio_2021_01_workspace_RZA2M_ANPR/ANPR_RZA2M_GR_MANGO/src/tensorflow_lite/third_party/gemmlowp/fixedpoint\fixedpoint.h **** // For each pair of input scalars, the corresponding bits of the result are
 176:C:/Renesas/e2studio_2021_01_workspace_RZA2M_ANPR/ANPR_RZA2M_GR_MANGO/src/tensorflow_lite/third_party/gemmlowp/fixedpoint\fixedpoint.h **** // set if the input scalars are not equal.
 177:C:/Renesas/e2studio_2021_01_workspace_RZA2M_ANPR/ANPR_RZA2M_GR_MANGO/src/tensorflow_lite/third_party/gemmlowp/fixedpoint\fixedpoint.h **** template <typename tIntegerType>
 178:C:/Renesas/e2studio_2021_01_workspace_RZA2M_ANPR/ANPR_RZA2M_GR_MANGO/src/tensorflow_lite/third_party/gemmlowp/fixedpoint\fixedpoint.h **** tIntegerType MaskIfNotEqual(tIntegerType a, tIntegerType b) {
 179:C:/Renesas/e2studio_2021_01_workspace_RZA2M_ANPR/ANPR_RZA2M_GR_MANGO/src/tensorflow_lite/third_party/gemmlowp/fixedpoint\fixedpoint.h ****   return MaskIfNonZero<tIntegerType>(a != b);
 180:C:/Renesas/e2studio_2021_01_workspace_RZA2M_ANPR/ANPR_RZA2M_GR_MANGO/src/tensorflow_lite/third_party/gemmlowp/fixedpoint\fixedpoint.h **** }
 181:C:/Renesas/e2studio_2021_01_workspace_RZA2M_ANPR/ANPR_RZA2M_GR_MANGO/src/tensorflow_lite/third_party/gemmlowp/fixedpoint\fixedpoint.h **** 
 182:C:/Renesas/e2studio_2021_01_workspace_RZA2M_ANPR/ANPR_RZA2M_GR_MANGO/src/tensorflow_lite/third_party/gemmlowp/fixedpoint\fixedpoint.h **** // For each pair of input scalars, the corresponding bits of the result are
 183:C:/Renesas/e2studio_2021_01_workspace_RZA2M_ANPR/ANPR_RZA2M_GR_MANGO/src/tensorflow_lite/third_party/gemmlowp/fixedpoint\fixedpoint.h **** // set if the input scalars a, b satisfy a > b.
 184:C:/Renesas/e2studio_2021_01_workspace_RZA2M_ANPR/ANPR_RZA2M_GR_MANGO/src/tensorflow_lite/third_party/gemmlowp/fixedpoint\fixedpoint.h **** template <typename tIntegerType>
 185:C:/Renesas/e2studio_2021_01_workspace_RZA2M_ANPR/ANPR_RZA2M_GR_MANGO/src/tensorflow_lite/third_party/gemmlowp/fixedpoint\fixedpoint.h **** tIntegerType MaskIfGreaterThan(tIntegerType a, tIntegerType b) {
 186:C:/Renesas/e2studio_2021_01_workspace_RZA2M_ANPR/ANPR_RZA2M_GR_MANGO/src/tensorflow_lite/third_party/gemmlowp/fixedpoint\fixedpoint.h ****   return MaskIfNonZero<tIntegerType>(a > b);
 187:C:/Renesas/e2studio_2021_01_workspace_RZA2M_ANPR/ANPR_RZA2M_GR_MANGO/src/tensorflow_lite/third_party/gemmlowp/fixedpoint\fixedpoint.h **** }
 188:C:/Renesas/e2studio_2021_01_workspace_RZA2M_ANPR/ANPR_RZA2M_GR_MANGO/src/tensorflow_lite/third_party/gemmlowp/fixedpoint\fixedpoint.h **** 
 189:C:/Renesas/e2studio_2021_01_workspace_RZA2M_ANPR/ANPR_RZA2M_GR_MANGO/src/tensorflow_lite/third_party/gemmlowp/fixedpoint\fixedpoint.h **** // For each pair of input scalars, the corresponding bits of the result are
 190:C:/Renesas/e2studio_2021_01_workspace_RZA2M_ANPR/ANPR_RZA2M_GR_MANGO/src/tensorflow_lite/third_party/gemmlowp/fixedpoint\fixedpoint.h **** // set if the input scalars a, b satisfy a >= b.
 191:C:/Renesas/e2studio_2021_01_workspace_RZA2M_ANPR/ANPR_RZA2M_GR_MANGO/src/tensorflow_lite/third_party/gemmlowp/fixedpoint\fixedpoint.h **** template <typename tIntegerType>
 192:C:/Renesas/e2studio_2021_01_workspace_RZA2M_ANPR/ANPR_RZA2M_GR_MANGO/src/tensorflow_lite/third_party/gemmlowp/fixedpoint\fixedpoint.h **** tIntegerType MaskIfGreaterThanOrEqual(tIntegerType a, tIntegerType b) {
 193:C:/Renesas/e2studio_2021_01_workspace_RZA2M_ANPR/ANPR_RZA2M_GR_MANGO/src/tensorflow_lite/third_party/gemmlowp/fixedpoint\fixedpoint.h ****   return MaskIfNonZero<tIntegerType>(a >= b);
 194:C:/Renesas/e2studio_2021_01_workspace_RZA2M_ANPR/ANPR_RZA2M_GR_MANGO/src/tensorflow_lite/third_party/gemmlowp/fixedpoint\fixedpoint.h **** }
 195:C:/Renesas/e2studio_2021_01_workspace_RZA2M_ANPR/ANPR_RZA2M_GR_MANGO/src/tensorflow_lite/third_party/gemmlowp/fixedpoint\fixedpoint.h **** 
 196:C:/Renesas/e2studio_2021_01_workspace_RZA2M_ANPR/ANPR_RZA2M_GR_MANGO/src/tensorflow_lite/third_party/gemmlowp/fixedpoint\fixedpoint.h **** // For each pair of input scalars, the corresponding bits of the result are
 197:C:/Renesas/e2studio_2021_01_workspace_RZA2M_ANPR/ANPR_RZA2M_GR_MANGO/src/tensorflow_lite/third_party/gemmlowp/fixedpoint\fixedpoint.h **** // set if the input scalars a, b satisfy a < b.
 198:C:/Renesas/e2studio_2021_01_workspace_RZA2M_ANPR/ANPR_RZA2M_GR_MANGO/src/tensorflow_lite/third_party/gemmlowp/fixedpoint\fixedpoint.h **** template <typename tIntegerType>
 199:C:/Renesas/e2studio_2021_01_workspace_RZA2M_ANPR/ANPR_RZA2M_GR_MANGO/src/tensorflow_lite/third_party/gemmlowp/fixedpoint\fixedpoint.h **** tIntegerType MaskIfLessThan(tIntegerType a, tIntegerType b) {
 200:C:/Renesas/e2studio_2021_01_workspace_RZA2M_ANPR/ANPR_RZA2M_GR_MANGO/src/tensorflow_lite/third_party/gemmlowp/fixedpoint\fixedpoint.h ****   return MaskIfNonZero<tIntegerType>(a < b);
 201:C:/Renesas/e2studio_2021_01_workspace_RZA2M_ANPR/ANPR_RZA2M_GR_MANGO/src/tensorflow_lite/third_party/gemmlowp/fixedpoint\fixedpoint.h **** }
 202:C:/Renesas/e2studio_2021_01_workspace_RZA2M_ANPR/ANPR_RZA2M_GR_MANGO/src/tensorflow_lite/third_party/gemmlowp/fixedpoint\fixedpoint.h **** 
 203:C:/Renesas/e2studio_2021_01_workspace_RZA2M_ANPR/ANPR_RZA2M_GR_MANGO/src/tensorflow_lite/third_party/gemmlowp/fixedpoint\fixedpoint.h **** // For each pair of input scalars, the corresponding bits of the result are
 204:C:/Renesas/e2studio_2021_01_workspace_RZA2M_ANPR/ANPR_RZA2M_GR_MANGO/src/tensorflow_lite/third_party/gemmlowp/fixedpoint\fixedpoint.h **** // set if the input scalars a, b satisfy a <= b.
 205:C:/Renesas/e2studio_2021_01_workspace_RZA2M_ANPR/ANPR_RZA2M_GR_MANGO/src/tensorflow_lite/third_party/gemmlowp/fixedpoint\fixedpoint.h **** template <typename tIntegerType>
 206:C:/Renesas/e2studio_2021_01_workspace_RZA2M_ANPR/ANPR_RZA2M_GR_MANGO/src/tensorflow_lite/third_party/gemmlowp/fixedpoint\fixedpoint.h **** tIntegerType MaskIfLessThanOrEqual(tIntegerType a, tIntegerType b) {
 207:C:/Renesas/e2studio_2021_01_workspace_RZA2M_ANPR/ANPR_RZA2M_GR_MANGO/src/tensorflow_lite/third_party/gemmlowp/fixedpoint\fixedpoint.h ****   return MaskIfNonZero<tIntegerType>(a <= b);
 208:C:/Renesas/e2studio_2021_01_workspace_RZA2M_ANPR/ANPR_RZA2M_GR_MANGO/src/tensorflow_lite/third_party/gemmlowp/fixedpoint\fixedpoint.h **** }
 209:C:/Renesas/e2studio_2021_01_workspace_RZA2M_ANPR/ANPR_RZA2M_GR_MANGO/src/tensorflow_lite/third_party/gemmlowp/fixedpoint\fixedpoint.h **** 
 210:C:/Renesas/e2studio_2021_01_workspace_RZA2M_ANPR/ANPR_RZA2M_GR_MANGO/src/tensorflow_lite/third_party/gemmlowp/fixedpoint\fixedpoint.h **** // Returns true if all of the input scalars are nonzero.
 211:C:/Renesas/e2studio_2021_01_workspace_RZA2M_ANPR/ANPR_RZA2M_GR_MANGO/src/tensorflow_lite/third_party/gemmlowp/fixedpoint\fixedpoint.h **** // This function may currently assume that each of the input scalars has either
 212:C:/Renesas/e2studio_2021_01_workspace_RZA2M_ANPR/ANPR_RZA2M_GR_MANGO/src/tensorflow_lite/third_party/gemmlowp/fixedpoint\fixedpoint.h **** // all or none of its bits set. Otherwise, its behavior is currently undefined.
 213:C:/Renesas/e2studio_2021_01_workspace_RZA2M_ANPR/ANPR_RZA2M_GR_MANGO/src/tensorflow_lite/third_party/gemmlowp/fixedpoint\fixedpoint.h **** template <typename tIntegerType>
 214:C:/Renesas/e2studio_2021_01_workspace_RZA2M_ANPR/ANPR_RZA2M_GR_MANGO/src/tensorflow_lite/third_party/gemmlowp/fixedpoint\fixedpoint.h **** bool All(tIntegerType a) {
 215:C:/Renesas/e2studio_2021_01_workspace_RZA2M_ANPR/ANPR_RZA2M_GR_MANGO/src/tensorflow_lite/third_party/gemmlowp/fixedpoint\fixedpoint.h ****   return a;
 216:C:/Renesas/e2studio_2021_01_workspace_RZA2M_ANPR/ANPR_RZA2M_GR_MANGO/src/tensorflow_lite/third_party/gemmlowp/fixedpoint\fixedpoint.h **** }
 217:C:/Renesas/e2studio_2021_01_workspace_RZA2M_ANPR/ANPR_RZA2M_GR_MANGO/src/tensorflow_lite/third_party/gemmlowp/fixedpoint\fixedpoint.h **** 
 218:C:/Renesas/e2studio_2021_01_workspace_RZA2M_ANPR/ANPR_RZA2M_GR_MANGO/src/tensorflow_lite/third_party/gemmlowp/fixedpoint\fixedpoint.h **** // Returns true if any of the input scalars are nonzero.
 219:C:/Renesas/e2studio_2021_01_workspace_RZA2M_ANPR/ANPR_RZA2M_GR_MANGO/src/tensorflow_lite/third_party/gemmlowp/fixedpoint\fixedpoint.h **** // This function may currently assume that each of the input scalars has either
 220:C:/Renesas/e2studio_2021_01_workspace_RZA2M_ANPR/ANPR_RZA2M_GR_MANGO/src/tensorflow_lite/third_party/gemmlowp/fixedpoint\fixedpoint.h **** // all or none of its bits set. Otherwise, its behavior is currently undefined.
 221:C:/Renesas/e2studio_2021_01_workspace_RZA2M_ANPR/ANPR_RZA2M_GR_MANGO/src/tensorflow_lite/third_party/gemmlowp/fixedpoint\fixedpoint.h **** template <typename tIntegerType>
 222:C:/Renesas/e2studio_2021_01_workspace_RZA2M_ANPR/ANPR_RZA2M_GR_MANGO/src/tensorflow_lite/third_party/gemmlowp/fixedpoint\fixedpoint.h **** bool Any(tIntegerType a) {
 223:C:/Renesas/e2studio_2021_01_workspace_RZA2M_ANPR/ANPR_RZA2M_GR_MANGO/src/tensorflow_lite/third_party/gemmlowp/fixedpoint\fixedpoint.h ****   return a;
 224:C:/Renesas/e2studio_2021_01_workspace_RZA2M_ANPR/ANPR_RZA2M_GR_MANGO/src/tensorflow_lite/third_party/gemmlowp/fixedpoint\fixedpoint.h **** }
 225:C:/Renesas/e2studio_2021_01_workspace_RZA2M_ANPR/ANPR_RZA2M_GR_MANGO/src/tensorflow_lite/third_party/gemmlowp/fixedpoint\fixedpoint.h **** 
 226:C:/Renesas/e2studio_2021_01_workspace_RZA2M_ANPR/ANPR_RZA2M_GR_MANGO/src/tensorflow_lite/third_party/gemmlowp/fixedpoint\fixedpoint.h **** // Returns (a+b)/2, rounded to the nearest integer.
 227:C:/Renesas/e2studio_2021_01_workspace_RZA2M_ANPR/ANPR_RZA2M_GR_MANGO/src/tensorflow_lite/third_party/gemmlowp/fixedpoint\fixedpoint.h **** // Equivalent to VRHADD in the ARM NEON instruction set.
 228:C:/Renesas/e2studio_2021_01_workspace_RZA2M_ANPR/ANPR_RZA2M_GR_MANGO/src/tensorflow_lite/third_party/gemmlowp/fixedpoint\fixedpoint.h **** template <typename IntegerType>
 229:C:/Renesas/e2studio_2021_01_workspace_RZA2M_ANPR/ANPR_RZA2M_GR_MANGO/src/tensorflow_lite/third_party/gemmlowp/fixedpoint\fixedpoint.h **** IntegerType RoundingHalfSum(IntegerType a, IntegerType b) {
 230:C:/Renesas/e2studio_2021_01_workspace_RZA2M_ANPR/ANPR_RZA2M_GR_MANGO/src/tensorflow_lite/third_party/gemmlowp/fixedpoint\fixedpoint.h ****   static_assert(std::is_same<IntegerType, void>::value, "unimplemented");
 231:C:/Renesas/e2studio_2021_01_workspace_RZA2M_ANPR/ANPR_RZA2M_GR_MANGO/src/tensorflow_lite/third_party/gemmlowp/fixedpoint\fixedpoint.h ****   (void)b;
 232:C:/Renesas/e2studio_2021_01_workspace_RZA2M_ANPR/ANPR_RZA2M_GR_MANGO/src/tensorflow_lite/third_party/gemmlowp/fixedpoint\fixedpoint.h ****   return a;
 233:C:/Renesas/e2studio_2021_01_workspace_RZA2M_ANPR/ANPR_RZA2M_GR_MANGO/src/tensorflow_lite/third_party/gemmlowp/fixedpoint\fixedpoint.h **** }
 234:C:/Renesas/e2studio_2021_01_workspace_RZA2M_ANPR/ANPR_RZA2M_GR_MANGO/src/tensorflow_lite/third_party/gemmlowp/fixedpoint\fixedpoint.h **** 
 235:C:/Renesas/e2studio_2021_01_workspace_RZA2M_ANPR/ANPR_RZA2M_GR_MANGO/src/tensorflow_lite/third_party/gemmlowp/fixedpoint\fixedpoint.h **** template <>
 236:C:/Renesas/e2studio_2021_01_workspace_RZA2M_ANPR/ANPR_RZA2M_GR_MANGO/src/tensorflow_lite/third_party/gemmlowp/fixedpoint\fixedpoint.h **** inline std::int32_t RoundingHalfSum(std::int32_t a, std::int32_t b) {
 237:C:/Renesas/e2studio_2021_01_workspace_RZA2M_ANPR/ANPR_RZA2M_GR_MANGO/src/tensorflow_lite/third_party/gemmlowp/fixedpoint\fixedpoint.h ****   std::int64_t a64 = a;
 238:C:/Renesas/e2studio_2021_01_workspace_RZA2M_ANPR/ANPR_RZA2M_GR_MANGO/src/tensorflow_lite/third_party/gemmlowp/fixedpoint\fixedpoint.h ****   std::int64_t b64 = b;
 239:C:/Renesas/e2studio_2021_01_workspace_RZA2M_ANPR/ANPR_RZA2M_GR_MANGO/src/tensorflow_lite/third_party/gemmlowp/fixedpoint\fixedpoint.h ****   std::int64_t sum = a64 + b64;
 240:C:/Renesas/e2studio_2021_01_workspace_RZA2M_ANPR/ANPR_RZA2M_GR_MANGO/src/tensorflow_lite/third_party/gemmlowp/fixedpoint\fixedpoint.h ****   std::int64_t sign = sum >= 0 ? 1 : -1;
 241:C:/Renesas/e2studio_2021_01_workspace_RZA2M_ANPR/ANPR_RZA2M_GR_MANGO/src/tensorflow_lite/third_party/gemmlowp/fixedpoint\fixedpoint.h ****   return static_cast<std::int32_t>((sum + sign) / 2);
 242:C:/Renesas/e2studio_2021_01_workspace_RZA2M_ANPR/ANPR_RZA2M_GR_MANGO/src/tensorflow_lite/third_party/gemmlowp/fixedpoint\fixedpoint.h **** }
 243:C:/Renesas/e2studio_2021_01_workspace_RZA2M_ANPR/ANPR_RZA2M_GR_MANGO/src/tensorflow_lite/third_party/gemmlowp/fixedpoint\fixedpoint.h **** 
 244:C:/Renesas/e2studio_2021_01_workspace_RZA2M_ANPR/ANPR_RZA2M_GR_MANGO/src/tensorflow_lite/third_party/gemmlowp/fixedpoint\fixedpoint.h **** template <>
 245:C:/Renesas/e2studio_2021_01_workspace_RZA2M_ANPR/ANPR_RZA2M_GR_MANGO/src/tensorflow_lite/third_party/gemmlowp/fixedpoint\fixedpoint.h **** inline std::int16_t RoundingHalfSum(std::int16_t a, std::int16_t b) {
 246:C:/Renesas/e2studio_2021_01_workspace_RZA2M_ANPR/ANPR_RZA2M_GR_MANGO/src/tensorflow_lite/third_party/gemmlowp/fixedpoint\fixedpoint.h ****   std::int32_t a32 = a;
 247:C:/Renesas/e2studio_2021_01_workspace_RZA2M_ANPR/ANPR_RZA2M_GR_MANGO/src/tensorflow_lite/third_party/gemmlowp/fixedpoint\fixedpoint.h ****   std::int32_t b32 = b;
 248:C:/Renesas/e2studio_2021_01_workspace_RZA2M_ANPR/ANPR_RZA2M_GR_MANGO/src/tensorflow_lite/third_party/gemmlowp/fixedpoint\fixedpoint.h ****   std::int32_t sum = a32 + b32;
 249:C:/Renesas/e2studio_2021_01_workspace_RZA2M_ANPR/ANPR_RZA2M_GR_MANGO/src/tensorflow_lite/third_party/gemmlowp/fixedpoint\fixedpoint.h ****   std::int32_t sign = sum >= 0 ? 1 : -1;
 250:C:/Renesas/e2studio_2021_01_workspace_RZA2M_ANPR/ANPR_RZA2M_GR_MANGO/src/tensorflow_lite/third_party/gemmlowp/fixedpoint\fixedpoint.h ****   return static_cast<std::int16_t>((sum + sign) / 2);
 251:C:/Renesas/e2studio_2021_01_workspace_RZA2M_ANPR/ANPR_RZA2M_GR_MANGO/src/tensorflow_lite/third_party/gemmlowp/fixedpoint\fixedpoint.h **** }
 252:C:/Renesas/e2studio_2021_01_workspace_RZA2M_ANPR/ANPR_RZA2M_GR_MANGO/src/tensorflow_lite/third_party/gemmlowp/fixedpoint\fixedpoint.h **** 
 253:C:/Renesas/e2studio_2021_01_workspace_RZA2M_ANPR/ANPR_RZA2M_GR_MANGO/src/tensorflow_lite/third_party/gemmlowp/fixedpoint\fixedpoint.h **** template <typename IntegerType>
 254:C:/Renesas/e2studio_2021_01_workspace_RZA2M_ANPR/ANPR_RZA2M_GR_MANGO/src/tensorflow_lite/third_party/gemmlowp/fixedpoint\fixedpoint.h **** IntegerType SaturatingAdd(IntegerType a, IntegerType b) {
 255:C:/Renesas/e2studio_2021_01_workspace_RZA2M_ANPR/ANPR_RZA2M_GR_MANGO/src/tensorflow_lite/third_party/gemmlowp/fixedpoint\fixedpoint.h ****   static_assert(std::is_same<IntegerType, void>::value, "unimplemented");
 256:C:/Renesas/e2studio_2021_01_workspace_RZA2M_ANPR/ANPR_RZA2M_GR_MANGO/src/tensorflow_lite/third_party/gemmlowp/fixedpoint\fixedpoint.h ****   (void)b;
 257:C:/Renesas/e2studio_2021_01_workspace_RZA2M_ANPR/ANPR_RZA2M_GR_MANGO/src/tensorflow_lite/third_party/gemmlowp/fixedpoint\fixedpoint.h ****   return a;
 258:C:/Renesas/e2studio_2021_01_workspace_RZA2M_ANPR/ANPR_RZA2M_GR_MANGO/src/tensorflow_lite/third_party/gemmlowp/fixedpoint\fixedpoint.h **** }
 259:C:/Renesas/e2studio_2021_01_workspace_RZA2M_ANPR/ANPR_RZA2M_GR_MANGO/src/tensorflow_lite/third_party/gemmlowp/fixedpoint\fixedpoint.h **** 
 260:C:/Renesas/e2studio_2021_01_workspace_RZA2M_ANPR/ANPR_RZA2M_GR_MANGO/src/tensorflow_lite/third_party/gemmlowp/fixedpoint\fixedpoint.h **** // So far this is only needed for int16.
 261:C:/Renesas/e2studio_2021_01_workspace_RZA2M_ANPR/ANPR_RZA2M_GR_MANGO/src/tensorflow_lite/third_party/gemmlowp/fixedpoint\fixedpoint.h **** template <>
 262:C:/Renesas/e2studio_2021_01_workspace_RZA2M_ANPR/ANPR_RZA2M_GR_MANGO/src/tensorflow_lite/third_party/gemmlowp/fixedpoint\fixedpoint.h **** inline std::int16_t SaturatingAdd(std::int16_t a, std::int16_t b) {
 263:C:/Renesas/e2studio_2021_01_workspace_RZA2M_ANPR/ANPR_RZA2M_GR_MANGO/src/tensorflow_lite/third_party/gemmlowp/fixedpoint\fixedpoint.h ****   std::int32_t a32 = a;
 264:C:/Renesas/e2studio_2021_01_workspace_RZA2M_ANPR/ANPR_RZA2M_GR_MANGO/src/tensorflow_lite/third_party/gemmlowp/fixedpoint\fixedpoint.h ****   std::int32_t b32 = b;
 265:C:/Renesas/e2studio_2021_01_workspace_RZA2M_ANPR/ANPR_RZA2M_GR_MANGO/src/tensorflow_lite/third_party/gemmlowp/fixedpoint\fixedpoint.h ****   std::int32_t sum = a32 + b32;
 266:C:/Renesas/e2studio_2021_01_workspace_RZA2M_ANPR/ANPR_RZA2M_GR_MANGO/src/tensorflow_lite/third_party/gemmlowp/fixedpoint\fixedpoint.h ****   return static_cast<std::int16_t>(
 267:C:/Renesas/e2studio_2021_01_workspace_RZA2M_ANPR/ANPR_RZA2M_GR_MANGO/src/tensorflow_lite/third_party/gemmlowp/fixedpoint\fixedpoint.h ****       std::min(static_cast<std::int32_t>(32767),
 268:C:/Renesas/e2studio_2021_01_workspace_RZA2M_ANPR/ANPR_RZA2M_GR_MANGO/src/tensorflow_lite/third_party/gemmlowp/fixedpoint\fixedpoint.h ****                std::max(static_cast<std::int32_t>(-32768), sum)));
 269:C:/Renesas/e2studio_2021_01_workspace_RZA2M_ANPR/ANPR_RZA2M_GR_MANGO/src/tensorflow_lite/third_party/gemmlowp/fixedpoint\fixedpoint.h **** }
 270:C:/Renesas/e2studio_2021_01_workspace_RZA2M_ANPR/ANPR_RZA2M_GR_MANGO/src/tensorflow_lite/third_party/gemmlowp/fixedpoint\fixedpoint.h **** 
 271:C:/Renesas/e2studio_2021_01_workspace_RZA2M_ANPR/ANPR_RZA2M_GR_MANGO/src/tensorflow_lite/third_party/gemmlowp/fixedpoint\fixedpoint.h **** // Returns a+b, saturating if the integers are 16bit or narrower,
 272:C:/Renesas/e2studio_2021_01_workspace_RZA2M_ANPR/ANPR_RZA2M_GR_MANGO/src/tensorflow_lite/third_party/gemmlowp/fixedpoint\fixedpoint.h **** // otherwise just a plain addition.
 273:C:/Renesas/e2studio_2021_01_workspace_RZA2M_ANPR/ANPR_RZA2M_GR_MANGO/src/tensorflow_lite/third_party/gemmlowp/fixedpoint\fixedpoint.h **** template <typename IntegerType, bool Is16Bit>
 274:C:/Renesas/e2studio_2021_01_workspace_RZA2M_ANPR/ANPR_RZA2M_GR_MANGO/src/tensorflow_lite/third_party/gemmlowp/fixedpoint\fixedpoint.h **** struct AddSaturatingIf16BitImpl {
 275:C:/Renesas/e2studio_2021_01_workspace_RZA2M_ANPR/ANPR_RZA2M_GR_MANGO/src/tensorflow_lite/third_party/gemmlowp/fixedpoint\fixedpoint.h ****   static IntegerType Run(IntegerType a, IntegerType b) { return Add(a, b); }
 276:C:/Renesas/e2studio_2021_01_workspace_RZA2M_ANPR/ANPR_RZA2M_GR_MANGO/src/tensorflow_lite/third_party/gemmlowp/fixedpoint\fixedpoint.h **** };
 277:C:/Renesas/e2studio_2021_01_workspace_RZA2M_ANPR/ANPR_RZA2M_GR_MANGO/src/tensorflow_lite/third_party/gemmlowp/fixedpoint\fixedpoint.h **** template <typename IntegerType>
 278:C:/Renesas/e2studio_2021_01_workspace_RZA2M_ANPR/ANPR_RZA2M_GR_MANGO/src/tensorflow_lite/third_party/gemmlowp/fixedpoint\fixedpoint.h **** struct AddSaturatingIf16BitImpl<IntegerType, true> {
 279:C:/Renesas/e2studio_2021_01_workspace_RZA2M_ANPR/ANPR_RZA2M_GR_MANGO/src/tensorflow_lite/third_party/gemmlowp/fixedpoint\fixedpoint.h ****   static IntegerType Run(IntegerType a, IntegerType b) {
 280:C:/Renesas/e2studio_2021_01_workspace_RZA2M_ANPR/ANPR_RZA2M_GR_MANGO/src/tensorflow_lite/third_party/gemmlowp/fixedpoint\fixedpoint.h ****     return SaturatingAdd(a, b);
 281:C:/Renesas/e2studio_2021_01_workspace_RZA2M_ANPR/ANPR_RZA2M_GR_MANGO/src/tensorflow_lite/third_party/gemmlowp/fixedpoint\fixedpoint.h ****   }
 282:C:/Renesas/e2studio_2021_01_workspace_RZA2M_ANPR/ANPR_RZA2M_GR_MANGO/src/tensorflow_lite/third_party/gemmlowp/fixedpoint\fixedpoint.h **** };
 283:C:/Renesas/e2studio_2021_01_workspace_RZA2M_ANPR/ANPR_RZA2M_GR_MANGO/src/tensorflow_lite/third_party/gemmlowp/fixedpoint\fixedpoint.h **** template <typename IntegerType>
 284:C:/Renesas/e2studio_2021_01_workspace_RZA2M_ANPR/ANPR_RZA2M_GR_MANGO/src/tensorflow_lite/third_party/gemmlowp/fixedpoint\fixedpoint.h **** IntegerType AddSaturatingIf16Bit(IntegerType a, IntegerType b) {
 285:C:/Renesas/e2studio_2021_01_workspace_RZA2M_ANPR/ANPR_RZA2M_GR_MANGO/src/tensorflow_lite/third_party/gemmlowp/fixedpoint\fixedpoint.h ****   using ScalarType =
 286:C:/Renesas/e2studio_2021_01_workspace_RZA2M_ANPR/ANPR_RZA2M_GR_MANGO/src/tensorflow_lite/third_party/gemmlowp/fixedpoint\fixedpoint.h ****       typename FixedPointRawTypeTraits<IntegerType>::ScalarRawType;
 287:C:/Renesas/e2studio_2021_01_workspace_RZA2M_ANPR/ANPR_RZA2M_GR_MANGO/src/tensorflow_lite/third_party/gemmlowp/fixedpoint\fixedpoint.h ****   return AddSaturatingIf16BitImpl<IntegerType, sizeof(ScalarType) == 2>::Run(a,
 288:C:/Renesas/e2studio_2021_01_workspace_RZA2M_ANPR/ANPR_RZA2M_GR_MANGO/src/tensorflow_lite/third_party/gemmlowp/fixedpoint\fixedpoint.h ****                                                                              b);
 289:C:/Renesas/e2studio_2021_01_workspace_RZA2M_ANPR/ANPR_RZA2M_GR_MANGO/src/tensorflow_lite/third_party/gemmlowp/fixedpoint\fixedpoint.h **** }
 290:C:/Renesas/e2studio_2021_01_workspace_RZA2M_ANPR/ANPR_RZA2M_GR_MANGO/src/tensorflow_lite/third_party/gemmlowp/fixedpoint\fixedpoint.h **** 
 291:C:/Renesas/e2studio_2021_01_workspace_RZA2M_ANPR/ANPR_RZA2M_GR_MANGO/src/tensorflow_lite/third_party/gemmlowp/fixedpoint\fixedpoint.h **** // Returns the integer that represents the product of two fixed-point
 292:C:/Renesas/e2studio_2021_01_workspace_RZA2M_ANPR/ANPR_RZA2M_GR_MANGO/src/tensorflow_lite/third_party/gemmlowp/fixedpoint\fixedpoint.h **** // numbers, interpreting all integers as fixed-point values in the
 293:C:/Renesas/e2studio_2021_01_workspace_RZA2M_ANPR/ANPR_RZA2M_GR_MANGO/src/tensorflow_lite/third_party/gemmlowp/fixedpoint\fixedpoint.h **** // interval [-1, 1), rounding to the nearest value, and saturating
 294:C:/Renesas/e2studio_2021_01_workspace_RZA2M_ANPR/ANPR_RZA2M_GR_MANGO/src/tensorflow_lite/third_party/gemmlowp/fixedpoint\fixedpoint.h **** // -1 * -1 to the maximum value (since 1 is not in the half-open
 295:C:/Renesas/e2studio_2021_01_workspace_RZA2M_ANPR/ANPR_RZA2M_GR_MANGO/src/tensorflow_lite/third_party/gemmlowp/fixedpoint\fixedpoint.h **** // interval [-1, 1)).
 296:C:/Renesas/e2studio_2021_01_workspace_RZA2M_ANPR/ANPR_RZA2M_GR_MANGO/src/tensorflow_lite/third_party/gemmlowp/fixedpoint\fixedpoint.h **** //
 297:C:/Renesas/e2studio_2021_01_workspace_RZA2M_ANPR/ANPR_RZA2M_GR_MANGO/src/tensorflow_lite/third_party/gemmlowp/fixedpoint\fixedpoint.h **** // [The explanation below specializes to std::int32_t for example purpose.]
 298:C:/Renesas/e2studio_2021_01_workspace_RZA2M_ANPR/ANPR_RZA2M_GR_MANGO/src/tensorflow_lite/third_party/gemmlowp/fixedpoint\fixedpoint.h **** //
 299:C:/Renesas/e2studio_2021_01_workspace_RZA2M_ANPR/ANPR_RZA2M_GR_MANGO/src/tensorflow_lite/third_party/gemmlowp/fixedpoint\fixedpoint.h **** // The mapping between IntegerType and the interval [-1, 1) is unique and
 300:C:/Renesas/e2studio_2021_01_workspace_RZA2M_ANPR/ANPR_RZA2M_GR_MANGO/src/tensorflow_lite/third_party/gemmlowp/fixedpoint\fixedpoint.h **** // implied by IntegerType, which is assumed to be signed. For example,
 301:C:/Renesas/e2studio_2021_01_workspace_RZA2M_ANPR/ANPR_RZA2M_GR_MANGO/src/tensorflow_lite/third_party/gemmlowp/fixedpoint\fixedpoint.h **** // for IntegerType==std::int32_t, the mapping is
 302:C:/Renesas/e2studio_2021_01_workspace_RZA2M_ANPR/ANPR_RZA2M_GR_MANGO/src/tensorflow_lite/third_party/gemmlowp/fixedpoint\fixedpoint.h **** //   real_value = integer_value / 2^31.
 303:C:/Renesas/e2studio_2021_01_workspace_RZA2M_ANPR/ANPR_RZA2M_GR_MANGO/src/tensorflow_lite/third_party/gemmlowp/fixedpoint\fixedpoint.h **** // So in this case, and leaving aside rounding and saturating, this
 304:C:/Renesas/e2studio_2021_01_workspace_RZA2M_ANPR/ANPR_RZA2M_GR_MANGO/src/tensorflow_lite/third_party/gemmlowp/fixedpoint\fixedpoint.h **** // function computes ((a / 2^31) * (b / 2^31)) * 2^31, which simplifies to
 305:C:/Renesas/e2studio_2021_01_workspace_RZA2M_ANPR/ANPR_RZA2M_GR_MANGO/src/tensorflow_lite/third_party/gemmlowp/fixedpoint\fixedpoint.h **** //   (a * b) / 2^31.
 306:C:/Renesas/e2studio_2021_01_workspace_RZA2M_ANPR/ANPR_RZA2M_GR_MANGO/src/tensorflow_lite/third_party/gemmlowp/fixedpoint\fixedpoint.h **** //
 307:C:/Renesas/e2studio_2021_01_workspace_RZA2M_ANPR/ANPR_RZA2M_GR_MANGO/src/tensorflow_lite/third_party/gemmlowp/fixedpoint\fixedpoint.h **** // The 'doubling' part in the name of this function comes from the fact that
 308:C:/Renesas/e2studio_2021_01_workspace_RZA2M_ANPR/ANPR_RZA2M_GR_MANGO/src/tensorflow_lite/third_party/gemmlowp/fixedpoint\fixedpoint.h **** // this operation is very close to a "multiply-high" operation, keeping only
 309:C:/Renesas/e2studio_2021_01_workspace_RZA2M_ANPR/ANPR_RZA2M_GR_MANGO/src/tensorflow_lite/third_party/gemmlowp/fixedpoint\fixedpoint.h **** // the top half bits, except that that would be effectively computing
 310:C:/Renesas/e2studio_2021_01_workspace_RZA2M_ANPR/ANPR_RZA2M_GR_MANGO/src/tensorflow_lite/third_party/gemmlowp/fixedpoint\fixedpoint.h **** //   (a * b) / 2^32,
 311:C:/Renesas/e2studio_2021_01_workspace_RZA2M_ANPR/ANPR_RZA2M_GR_MANGO/src/tensorflow_lite/third_party/gemmlowp/fixedpoint\fixedpoint.h **** // so here we are computing 2x that, since
 312:C:/Renesas/e2studio_2021_01_workspace_RZA2M_ANPR/ANPR_RZA2M_GR_MANGO/src/tensorflow_lite/third_party/gemmlowp/fixedpoint\fixedpoint.h **** //   1/2^31 = 2 * 1/2^32.
 313:C:/Renesas/e2studio_2021_01_workspace_RZA2M_ANPR/ANPR_RZA2M_GR_MANGO/src/tensorflow_lite/third_party/gemmlowp/fixedpoint\fixedpoint.h **** // The idea is to use all of the available 32 bits in the destination int32
 314:C:/Renesas/e2studio_2021_01_workspace_RZA2M_ANPR/ANPR_RZA2M_GR_MANGO/src/tensorflow_lite/third_party/gemmlowp/fixedpoint\fixedpoint.h **** // value.
 315:C:/Renesas/e2studio_2021_01_workspace_RZA2M_ANPR/ANPR_RZA2M_GR_MANGO/src/tensorflow_lite/third_party/gemmlowp/fixedpoint\fixedpoint.h **** //
 316:C:/Renesas/e2studio_2021_01_workspace_RZA2M_ANPR/ANPR_RZA2M_GR_MANGO/src/tensorflow_lite/third_party/gemmlowp/fixedpoint\fixedpoint.h **** // [End of the explanation specializing to int32.]
 317:C:/Renesas/e2studio_2021_01_workspace_RZA2M_ANPR/ANPR_RZA2M_GR_MANGO/src/tensorflow_lite/third_party/gemmlowp/fixedpoint\fixedpoint.h **** //
 318:C:/Renesas/e2studio_2021_01_workspace_RZA2M_ANPR/ANPR_RZA2M_GR_MANGO/src/tensorflow_lite/third_party/gemmlowp/fixedpoint\fixedpoint.h **** // This is equivalent to the VQRDMULH instruction in ARM NEON.
 319:C:/Renesas/e2studio_2021_01_workspace_RZA2M_ANPR/ANPR_RZA2M_GR_MANGO/src/tensorflow_lite/third_party/gemmlowp/fixedpoint\fixedpoint.h **** template <typename IntegerType>
 320:C:/Renesas/e2studio_2021_01_workspace_RZA2M_ANPR/ANPR_RZA2M_GR_MANGO/src/tensorflow_lite/third_party/gemmlowp/fixedpoint\fixedpoint.h **** IntegerType SaturatingRoundingDoublingHighMul(IntegerType a, IntegerType b) {
 321:C:/Renesas/e2studio_2021_01_workspace_RZA2M_ANPR/ANPR_RZA2M_GR_MANGO/src/tensorflow_lite/third_party/gemmlowp/fixedpoint\fixedpoint.h ****   static_assert(std::is_same<IntegerType, void>::value, "unimplemented");
 322:C:/Renesas/e2studio_2021_01_workspace_RZA2M_ANPR/ANPR_RZA2M_GR_MANGO/src/tensorflow_lite/third_party/gemmlowp/fixedpoint\fixedpoint.h ****   (void)b;
 323:C:/Renesas/e2studio_2021_01_workspace_RZA2M_ANPR/ANPR_RZA2M_GR_MANGO/src/tensorflow_lite/third_party/gemmlowp/fixedpoint\fixedpoint.h ****   return a;
 324:C:/Renesas/e2studio_2021_01_workspace_RZA2M_ANPR/ANPR_RZA2M_GR_MANGO/src/tensorflow_lite/third_party/gemmlowp/fixedpoint\fixedpoint.h **** }
 325:C:/Renesas/e2studio_2021_01_workspace_RZA2M_ANPR/ANPR_RZA2M_GR_MANGO/src/tensorflow_lite/third_party/gemmlowp/fixedpoint\fixedpoint.h **** 
 326:C:/Renesas/e2studio_2021_01_workspace_RZA2M_ANPR/ANPR_RZA2M_GR_MANGO/src/tensorflow_lite/third_party/gemmlowp/fixedpoint\fixedpoint.h **** // This function implements the same computation as the ARMv7 NEON VQRDMULH
 327:C:/Renesas/e2studio_2021_01_workspace_RZA2M_ANPR/ANPR_RZA2M_GR_MANGO/src/tensorflow_lite/third_party/gemmlowp/fixedpoint\fixedpoint.h **** // instruction.
 328:C:/Renesas/e2studio_2021_01_workspace_RZA2M_ANPR/ANPR_RZA2M_GR_MANGO/src/tensorflow_lite/third_party/gemmlowp/fixedpoint\fixedpoint.h **** template <>
 329:C:/Renesas/e2studio_2021_01_workspace_RZA2M_ANPR/ANPR_RZA2M_GR_MANGO/src/tensorflow_lite/third_party/gemmlowp/fixedpoint\fixedpoint.h **** inline std::int32_t SaturatingRoundingDoublingHighMul(std::int32_t a,
 330:C:/Renesas/e2studio_2021_01_workspace_RZA2M_ANPR/ANPR_RZA2M_GR_MANGO/src/tensorflow_lite/third_party/gemmlowp/fixedpoint\fixedpoint.h ****                                                       std::int32_t b) {
 331:C:/Renesas/e2studio_2021_01_workspace_RZA2M_ANPR/ANPR_RZA2M_GR_MANGO/src/tensorflow_lite/third_party/gemmlowp/fixedpoint\fixedpoint.h ****   bool overflow = a == b && a == std::numeric_limits<std::int32_t>::min();
 332:C:/Renesas/e2studio_2021_01_workspace_RZA2M_ANPR/ANPR_RZA2M_GR_MANGO/src/tensorflow_lite/third_party/gemmlowp/fixedpoint\fixedpoint.h ****   std::int64_t a_64(a);
 333:C:/Renesas/e2studio_2021_01_workspace_RZA2M_ANPR/ANPR_RZA2M_GR_MANGO/src/tensorflow_lite/third_party/gemmlowp/fixedpoint\fixedpoint.h ****   std::int64_t b_64(b);
 334:C:/Renesas/e2studio_2021_01_workspace_RZA2M_ANPR/ANPR_RZA2M_GR_MANGO/src/tensorflow_lite/third_party/gemmlowp/fixedpoint\fixedpoint.h ****   std::int64_t ab_64 = a_64 * b_64;
 335:C:/Renesas/e2studio_2021_01_workspace_RZA2M_ANPR/ANPR_RZA2M_GR_MANGO/src/tensorflow_lite/third_party/gemmlowp/fixedpoint\fixedpoint.h ****   std::int32_t nudge = ab_64 >= 0 ? (1 << 30) : (1 - (1 << 30));
 336:C:/Renesas/e2studio_2021_01_workspace_RZA2M_ANPR/ANPR_RZA2M_GR_MANGO/src/tensorflow_lite/third_party/gemmlowp/fixedpoint\fixedpoint.h ****   std::int32_t ab_x2_high32 =
 337:C:/Renesas/e2studio_2021_01_workspace_RZA2M_ANPR/ANPR_RZA2M_GR_MANGO/src/tensorflow_lite/third_party/gemmlowp/fixedpoint\fixedpoint.h ****       static_cast<std::int32_t>((ab_64 + nudge) / (1ll << 31));
 338:C:/Renesas/e2studio_2021_01_workspace_RZA2M_ANPR/ANPR_RZA2M_GR_MANGO/src/tensorflow_lite/third_party/gemmlowp/fixedpoint\fixedpoint.h ****   return overflow ? std::numeric_limits<std::int32_t>::max() : ab_x2_high32;
 339:C:/Renesas/e2studio_2021_01_workspace_RZA2M_ANPR/ANPR_RZA2M_GR_MANGO/src/tensorflow_lite/third_party/gemmlowp/fixedpoint\fixedpoint.h **** }
 340:C:/Renesas/e2studio_2021_01_workspace_RZA2M_ANPR/ANPR_RZA2M_GR_MANGO/src/tensorflow_lite/third_party/gemmlowp/fixedpoint\fixedpoint.h **** 
 341:C:/Renesas/e2studio_2021_01_workspace_RZA2M_ANPR/ANPR_RZA2M_GR_MANGO/src/tensorflow_lite/third_party/gemmlowp/fixedpoint\fixedpoint.h **** template <>
 342:C:/Renesas/e2studio_2021_01_workspace_RZA2M_ANPR/ANPR_RZA2M_GR_MANGO/src/tensorflow_lite/third_party/gemmlowp/fixedpoint\fixedpoint.h **** inline std::int16_t SaturatingRoundingDoublingHighMul(std::int16_t a,
 343:C:/Renesas/e2studio_2021_01_workspace_RZA2M_ANPR/ANPR_RZA2M_GR_MANGO/src/tensorflow_lite/third_party/gemmlowp/fixedpoint\fixedpoint.h ****                                                       std::int16_t b) {
 344:C:/Renesas/e2studio_2021_01_workspace_RZA2M_ANPR/ANPR_RZA2M_GR_MANGO/src/tensorflow_lite/third_party/gemmlowp/fixedpoint\fixedpoint.h ****   bool overflow = a == b && a == std::numeric_limits<std::int16_t>::min();
 345:C:/Renesas/e2studio_2021_01_workspace_RZA2M_ANPR/ANPR_RZA2M_GR_MANGO/src/tensorflow_lite/third_party/gemmlowp/fixedpoint\fixedpoint.h ****   std::int32_t a_32(a);
 346:C:/Renesas/e2studio_2021_01_workspace_RZA2M_ANPR/ANPR_RZA2M_GR_MANGO/src/tensorflow_lite/third_party/gemmlowp/fixedpoint\fixedpoint.h ****   std::int32_t b_32(b);
 347:C:/Renesas/e2studio_2021_01_workspace_RZA2M_ANPR/ANPR_RZA2M_GR_MANGO/src/tensorflow_lite/third_party/gemmlowp/fixedpoint\fixedpoint.h ****   std::int32_t ab_32 = a_32 * b_32;
 348:C:/Renesas/e2studio_2021_01_workspace_RZA2M_ANPR/ANPR_RZA2M_GR_MANGO/src/tensorflow_lite/third_party/gemmlowp/fixedpoint\fixedpoint.h ****   std::int16_t nudge = ab_32 >= 0 ? (1 << 14) : (1 - (1 << 14));
 349:C:/Renesas/e2studio_2021_01_workspace_RZA2M_ANPR/ANPR_RZA2M_GR_MANGO/src/tensorflow_lite/third_party/gemmlowp/fixedpoint\fixedpoint.h ****   std::int16_t ab_x2_high16 =
 350:C:/Renesas/e2studio_2021_01_workspace_RZA2M_ANPR/ANPR_RZA2M_GR_MANGO/src/tensorflow_lite/third_party/gemmlowp/fixedpoint\fixedpoint.h ****       static_cast<std::int16_t>((ab_32 + nudge) / (1 << 15));
 351:C:/Renesas/e2studio_2021_01_workspace_RZA2M_ANPR/ANPR_RZA2M_GR_MANGO/src/tensorflow_lite/third_party/gemmlowp/fixedpoint\fixedpoint.h ****   return overflow ? std::numeric_limits<std::int16_t>::max() : ab_x2_high16;
 352:C:/Renesas/e2studio_2021_01_workspace_RZA2M_ANPR/ANPR_RZA2M_GR_MANGO/src/tensorflow_lite/third_party/gemmlowp/fixedpoint\fixedpoint.h **** }
 353:C:/Renesas/e2studio_2021_01_workspace_RZA2M_ANPR/ANPR_RZA2M_GR_MANGO/src/tensorflow_lite/third_party/gemmlowp/fixedpoint\fixedpoint.h **** 
 354:C:/Renesas/e2studio_2021_01_workspace_RZA2M_ANPR/ANPR_RZA2M_GR_MANGO/src/tensorflow_lite/third_party/gemmlowp/fixedpoint\fixedpoint.h **** // Correctly-rounded-to-nearest division by a power-of-two.
 355:C:/Renesas/e2studio_2021_01_workspace_RZA2M_ANPR/ANPR_RZA2M_GR_MANGO/src/tensorflow_lite/third_party/gemmlowp/fixedpoint\fixedpoint.h **** // Also known as a rounding arithmetic right shift.
 356:C:/Renesas/e2studio_2021_01_workspace_RZA2M_ANPR/ANPR_RZA2M_GR_MANGO/src/tensorflow_lite/third_party/gemmlowp/fixedpoint\fixedpoint.h **** template <typename IntegerType>
 357:C:/Renesas/e2studio_2021_01_workspace_RZA2M_ANPR/ANPR_RZA2M_GR_MANGO/src/tensorflow_lite/third_party/gemmlowp/fixedpoint\fixedpoint.h **** inline IntegerType RoundingDivideByPOT(IntegerType x, int exponent) {
 358:C:/Renesas/e2studio_2021_01_workspace_RZA2M_ANPR/ANPR_RZA2M_GR_MANGO/src/tensorflow_lite/third_party/gemmlowp/fixedpoint\fixedpoint.h ****   assert(exponent >= 0);
 359:C:/Renesas/e2studio_2021_01_workspace_RZA2M_ANPR/ANPR_RZA2M_GR_MANGO/src/tensorflow_lite/third_party/gemmlowp/fixedpoint\fixedpoint.h ****   assert(exponent <= 31);
 360:C:/Renesas/e2studio_2021_01_workspace_RZA2M_ANPR/ANPR_RZA2M_GR_MANGO/src/tensorflow_lite/third_party/gemmlowp/fixedpoint\fixedpoint.h ****   const IntegerType mask = Dup<IntegerType>((1ll << exponent) - 1);
 1784              		.loc 7 360 0
 1785 0400 EA0BDFED 		vldr.64	d16, .L627	@ int
 1786 0404 0331A0E1 		lsl	r3, r3, #2
 1787 0408 E4308DE5 		str	r3, [sp, #228]
 1788              	.LBE984:
 1789              	.LBE983:
 1790              	.LBE982:
 1791              	.LBE981:
 1792              	.LBE980:
 1793              	.LBE979:
 1794              	.LBE978:
 1795              	.LBE977:
 1796              	.LBE976:
 1797              		.loc 6 61 0
 1798 040c 0030A0E3 		mov	r3, #0
 1799 0410 2C308DE5 		str	r3, [sp, #44]
 1800              	.LVL196:
 1801              	.L251:
 1802              	.LBB1083:
  62:C:/Renesas/e2studio_2021_01_workspace_RZA2M_ANPR/ANPR_RZA2M_GR_MANGO/src/tensorflow_lite/tensorflow/lite/kernels/internal/reference/integer_ops\depthwise_conv.h ****     for (int out_y = 0; out_y < output_height; ++out_y) {
 1803              		.loc 6 62 0
 1804 0414 C4309DE5 		ldr	r3, [sp, #196]
 1805 0418 000053E3 		cmp	r3, #0
 1806 041c 280100DA 		ble	.L253
 1807 0420 E0309DE5 		ldr	r3, [sp, #224]
 1808 0424 003063E2 		rsb	r3, r3, #0
 1809 0428 90308DE5 		str	r3, [sp, #144]
 1810 042c 0030A0E3 		mov	r3, #0
 1811 0430 80308DE5 		str	r3, [sp, #128]
 1812              	.LVL197:
 1813              	.L254:
 1814              	.LBB1078:
  63:C:/Renesas/e2studio_2021_01_workspace_RZA2M_ANPR/ANPR_RZA2M_GR_MANGO/src/tensorflow_lite/tensorflow/lite/kernels/internal/reference/integer_ops\depthwise_conv.h ****       for (int out_x = 0; out_x < output_width; ++out_x) {
 1815              		.loc 6 63 0
 1816 0434 C8309DE5 		ldr	r3, [sp, #200]
 1817 0438 000053E3 		cmp	r3, #0
 1818 043c 160100DA 		ble	.L256
 1819 0440 DC309DE5 		ldr	r3, [sp, #220]
 1820 0444 003063E2 		rsb	r3, r3, #0
 1821 0448 74308DE5 		str	r3, [sp, #116]
 1822 044c 0030A0E3 		mov	r3, #0
 1823 0450 7C308DE5 		str	r3, [sp, #124]
 1824              	.LVL198:
 1825              	.L257:
 1826              	.LBB1073:
  64:C:/Renesas/e2studio_2021_01_workspace_RZA2M_ANPR/ANPR_RZA2M_GR_MANGO/src/tensorflow_lite/tensorflow/lite/kernels/internal/reference/integer_ops\depthwise_conv.h ****         for (int in_channel = 0; in_channel < input_depth; ++in_channel) {
 1827              		.loc 6 64 0
 1828 0454 C0309DE5 		ldr	r3, [sp, #192]
 1829 0458 000053E3 		cmp	r3, #0
 1830 045c 040100DA 		ble	.L259
 1831 0460 CC309DE5 		ldr	r3, [sp, #204]
 1832 0464 0890A0E1 		mov	r9, r8
 1833 0468 0070A0E3 		mov	r7, #0
 1834 046c 30708DE5 		str	r7, [sp, #48]
 1835 0470 B4308DE5 		str	r3, [sp, #180]
 1836 0474 D0309DE5 		ldr	r3, [sp, #208]
 1837 0478 B8308DE5 		str	r3, [sp, #184]
 1838              	.LVL199:
 1839              	.L260:
 1840              	.LBB1068:
  65:C:/Renesas/e2studio_2021_01_workspace_RZA2M_ANPR/ANPR_RZA2M_GR_MANGO/src/tensorflow_lite/tensorflow/lite/kernels/internal/reference/integer_ops\depthwise_conv.h ****           for (int m = 0; m < depth_multiplier; ++m) {
 1841              		.loc 6 65 0
 1842 047c 9C309DE5 		ldr	r3, [sp, #156]
 1843 0480 000053E3 		cmp	r3, #0
 1844 0484 033087E0 		add	r3, r7, r3
 1845 0488 94308DE5 		str	r3, [sp, #148]
 1846 048c E90000DA 		ble	.L514
 1847 0490 B8309DE5 		ldr	r3, [sp, #184]
 1848 0494 88308DE5 		str	r3, [sp, #136]
 1849 0498 B4309DE5 		ldr	r3, [sp, #180]
 1850 049c 84308DE5 		str	r3, [sp, #132]
 1851              	.LVL200:
 1852              	.L288:
 1853              	.LBB1063:
 1854              	.LBB1007:
  66:C:/Renesas/e2studio_2021_01_workspace_RZA2M_ANPR/ANPR_RZA2M_GR_MANGO/src/tensorflow_lite/tensorflow/lite/kernels/internal/reference/integer_ops\depthwise_conv.h ****             const int output_channel = m + in_channel * depth_multiplier;
  67:C:/Renesas/e2studio_2021_01_workspace_RZA2M_ANPR/ANPR_RZA2M_GR_MANGO/src/tensorflow_lite/tensorflow/lite/kernels/internal/reference/integer_ops\depthwise_conv.h ****             const int in_x_origin = (out_x * stride_width) - pad_width;
  68:C:/Renesas/e2studio_2021_01_workspace_RZA2M_ANPR/ANPR_RZA2M_GR_MANGO/src/tensorflow_lite/tensorflow/lite/kernels/internal/reference/integer_ops\depthwise_conv.h ****             const int in_y_origin = (out_y * stride_height) - pad_height;
  69:C:/Renesas/e2studio_2021_01_workspace_RZA2M_ANPR/ANPR_RZA2M_GR_MANGO/src/tensorflow_lite/tensorflow/lite/kernels/internal/reference/integer_ops\depthwise_conv.h ****             int32_t acc = 0;
  70:C:/Renesas/e2studio_2021_01_workspace_RZA2M_ANPR/ANPR_RZA2M_GR_MANGO/src/tensorflow_lite/tensorflow/lite/kernels/internal/reference/integer_ops\depthwise_conv.h ****             for (int filter_y = 0; filter_y < filter_height; ++filter_y) {
 1855              		.loc 6 70 0
 1856 04a0 64309DE5 		ldr	r3, [sp, #100]
 1857 04a4 000053E3 		cmp	r3, #0
 1858 04a8 500300DA 		ble	.L374
 1859              	.LBB1008:
 1860              	.LBB1009:
 1861              	.LBB1010:
 1862              	.LBB1011:
 1863              	.LBB1012:
 407:C:/Renesas/e2studio_2021_01_workspace_RZA2M_ANPR/ANPR_RZA2M_GR_MANGO/src/tensorflow_lite/tensorflow/lite/kernels/internal\types.h ****   TFLITE_DCHECK(i2 >= 0 && i2 < dims_data[2]);
 1864              		.loc 4 407 0
 1865 04ac 34319DE5 		ldr	r3, [sp, #308]
 1866              	.LBE1012:
 1867              	.LBE1011:
 1868              	.LBB1020:
 1869              	.LBB1021:
 409:C:/Renesas/e2studio_2021_01_workspace_RZA2M_ANPR/ANPR_RZA2M_GR_MANGO/src/tensorflow_lite/tensorflow/lite/kernels/internal\types.h ****   return ((i0 * dims_data[1] + i1) * dims_data[2] + i2) * dims_data[3] + i3;
 1870              		.loc 4 409 0
 1871 04b0 0060A0E3 		mov	r6, #0
 1872 04b4 90C09DE5 		ldr	ip, [sp, #144]
 1873 04b8 2C409DE5 		ldr	r4, [sp, #44]
 1874              	.LBE1021:
 1875              	.LBE1020:
 1876              	.LBB1029:
 1877              	.LBB1013:
 407:C:/Renesas/e2studio_2021_01_workspace_RZA2M_ANPR/ANPR_RZA2M_GR_MANGO/src/tensorflow_lite/tensorflow/lite/kernels/internal\types.h ****   TFLITE_DCHECK(i2 >= 0 && i2 < dims_data[2]);
 1878              		.loc 4 407 0
 1879 04bc 0320A0E1 		mov	r2, r3
 1880 04c0 3C308DE5 		str	r3, [sp, #60]
 408:C:/Renesas/e2studio_2021_01_workspace_RZA2M_ANPR/ANPR_RZA2M_GR_MANGO/src/tensorflow_lite/tensorflow/lite/kernels/internal\types.h ****   TFLITE_DCHECK(i3 >= 0 && i3 < dims_data[3]);
 1881              		.loc 4 408 0
 1882 04c4 38319DE5 		ldr	r3, [sp, #312]
 1883              	.LBE1013:
 1884              	.LBE1029:
 1885              	.LBB1030:
 1886              	.LBB1022:
 409:C:/Renesas/e2studio_2021_01_workspace_RZA2M_ANPR/ANPR_RZA2M_GR_MANGO/src/tensorflow_lite/tensorflow/lite/kernels/internal\types.h ****   return ((i0 * dims_data[1] + i1) * dims_data[2] + i2) * dims_data[3] + i3;
 1887              		.loc 4 409 0
 1888 04c8 0C50A0E1 		mov	r5, ip
 406:C:/Renesas/e2studio_2021_01_workspace_RZA2M_ANPR/ANPR_RZA2M_GR_MANGO/src/tensorflow_lite/tensorflow/lite/kernels/internal\types.h ****   TFLITE_DCHECK(i1 >= 0 && i1 < dims_data[1]);
 1889              		.loc 4 406 0
 1890 04cc 48819DE5 		ldr	r8, [sp, #328]
 409:C:/Renesas/e2studio_2021_01_workspace_RZA2M_ANPR/ANPR_RZA2M_GR_MANGO/src/tensorflow_lite/tensorflow/lite/kernels/internal\types.h ****   return ((i0 * dims_data[1] + i1) * dims_data[2] + i2) * dims_data[3] + i3;
 1891              		.loc 4 409 0
 1892 04d0 24608DE5 		str	r6, [sp, #36]
 1893              	.LBE1022:
 1894              	.LBE1030:
 1895              	.LBB1031:
 1896              	.LBB1014:
 408:C:/Renesas/e2studio_2021_01_workspace_RZA2M_ANPR/ANPR_RZA2M_GR_MANGO/src/tensorflow_lite/tensorflow/lite/kernels/internal\types.h ****   TFLITE_DCHECK(i3 >= 0 && i3 < dims_data[3]);
 1897              		.loc 4 408 0
 1898 04d4 0300A0E1 		mov	r0, r3
 1899 04d8 40308DE5 		str	r3, [sp, #64]
 409:C:/Renesas/e2studio_2021_01_workspace_RZA2M_ANPR/ANPR_RZA2M_GR_MANGO/src/tensorflow_lite/tensorflow/lite/kernels/internal\types.h ****   return ((i0 * dims_data[1] + i1) * dims_data[2] + i2) * dims_data[3] + i3;
 1900              		.loc 4 409 0
 1901 04dc 3C319DE5 		ldr	r3, [sp, #316]
 1902              	.LBE1014:
 1903              	.LBE1031:
 1904              	.LBB1032:
 1905              	.LBB1023:
 406:C:/Renesas/e2studio_2021_01_workspace_RZA2M_ANPR/ANPR_RZA2M_GR_MANGO/src/tensorflow_lite/tensorflow/lite/kernels/internal\types.h ****   TFLITE_DCHECK(i1 >= 0 && i1 < dims_data[1]);
 1906              		.loc 4 406 0
 1907 04e0 4C808DE5 		str	r8, [sp, #76]
 407:C:/Renesas/e2studio_2021_01_workspace_RZA2M_ANPR/ANPR_RZA2M_GR_MANGO/src/tensorflow_lite/tensorflow/lite/kernels/internal\types.h ****   TFLITE_DCHECK(i2 >= 0 && i2 < dims_data[2]);
 1908              		.loc 4 407 0
 1909 04e4 4C819DE5 		ldr	r8, [sp, #332]
 1910              	.LBE1023:
 1911              	.LBE1032:
 1912              	.LBB1033:
 1913              	.LBB1015:
 409:C:/Renesas/e2studio_2021_01_workspace_RZA2M_ANPR/ANPR_RZA2M_GR_MANGO/src/tensorflow_lite/tensorflow/lite/kernels/internal\types.h ****   return ((i0 * dims_data[1] + i1) * dims_data[2] + i2) * dims_data[3] + i3;
 1914              		.loc 4 409 0
 1915 04e8 0310A0E1 		mov	r1, r3
 1916 04ec 44308DE5 		str	r3, [sp, #68]
 1917 04f0 A4309DE5 		ldr	r3, [sp, #164]
 1918              	.LBE1015:
 1919              	.LBE1033:
 1920              	.LBB1034:
 1921              	.LBB1024:
 407:C:/Renesas/e2studio_2021_01_workspace_RZA2M_ANPR/ANPR_RZA2M_GR_MANGO/src/tensorflow_lite/tensorflow/lite/kernels/internal\types.h ****   TFLITE_DCHECK(i2 >= 0 && i2 < dims_data[2]);
 1922              		.loc 4 407 0
 1923 04f4 50808DE5 		str	r8, [sp, #80]
 1924 04f8 68809DE5 		ldr	r8, [sp, #104]
 1925 04fc 073083E0 		add	r3, r3, r7
 1926 0500 58308DE5 		str	r3, [sp, #88]
 408:C:/Renesas/e2studio_2021_01_workspace_RZA2M_ANPR/ANPR_RZA2M_GR_MANGO/src/tensorflow_lite/tensorflow/lite/kernels/internal\types.h ****   TFLITE_DCHECK(i3 >= 0 && i3 < dims_data[3]);
 1927              		.loc 4 408 0
 1928 0504 50319DE5 		ldr	r3, [sp, #336]
 1929 0508 03E0A0E1 		mov	lr, r3
 1930 050c 54308DE5 		str	r3, [sp, #84]
 1931 0510 0230A0E1 		mov	r3, r2
 1932 0514 94C322E0 		mla	r2, r4, r3, ip
 1933 0518 2C319DE5 		ldr	r3, [sp, #300]
 409:C:/Renesas/e2studio_2021_01_workspace_RZA2M_ANPR/ANPR_RZA2M_GR_MANGO/src/tensorflow_lite/tensorflow/lite/kernels/internal\types.h ****   return ((i0 * dims_data[1] + i1) * dims_data[2] + i2) * dims_data[3] + i3;
 1934              		.loc 4 409 0
 1935 051c 54C19DE5 		ldr	ip, [sp, #340]
 1936              	.LBE1024:
 1937              	.LBE1034:
 1938              	.LBB1035:
 1939              	.LBB1016:
 406:C:/Renesas/e2studio_2021_01_workspace_RZA2M_ANPR/ANPR_RZA2M_GR_MANGO/src/tensorflow_lite/tensorflow/lite/kernels/internal\types.h ****   TFLITE_DCHECK(i1 >= 0 && i1 < dims_data[1]);
 1940              		.loc 4 406 0
 1941 0520 30419DE5 		ldr	r4, [sp, #304]
 1942 0524 34308DE5 		str	r3, [sp, #52]
 1943 0528 910003E0 		mul	r3, r1, r0
 1944 052c 38408DE5 		str	r4, [sp, #56]
 1945 0530 44419DE5 		ldr	r4, [sp, #324]
 1946 0534 980303E0 		mul	r3, r8, r3
 1947 0538 0680A0E1 		mov	r8, r6
 1948 053c 48408DE5 		str	r4, [sp, #72]
 1949 0540 910B04E0 		mul	r4, r1, fp
 1950 0544 70308DE5 		str	r3, [sp, #112]
 1951 0548 9C0E03E0 		mul	r3, ip, lr
 1952 054c 6C308DE5 		str	r3, [sp, #108]
 1953 0550 74309DE5 		ldr	r3, [sp, #116]
 1954 0554 903223E0 		mla	r3, r0, r2, r3
 1955 0558 30209DE5 		ldr	r2, [sp, #48]
 1956 055c 912323E0 		mla	r3, r1, r3, r2
 1957 0560 A0209DE5 		ldr	r2, [sp, #160]
 1958 0564 033082E0 		add	r3, r2, r3
 1959 0568 5C308DE5 		str	r3, [sp, #92]
 1960              	.LVL201:
 1961              	.L276:
 1962              	.LBE1016:
 1963              	.LBE1035:
 1964              	.LBE1010:
 1965              	.LBE1009:
  71:C:/Renesas/e2studio_2021_01_workspace_RZA2M_ANPR/ANPR_RZA2M_GR_MANGO/src/tensorflow_lite/tensorflow/lite/kernels/internal/reference/integer_ops\depthwise_conv.h ****               for (int filter_x = 0; filter_x < filter_width; ++filter_x) {
 1966              		.loc 6 71 0
 1967 056c 000059E3 		cmp	r9, #0
 1968 0570 410000DA 		ble	.L262
 1969              	.LBB1046:
  72:C:/Renesas/e2studio_2021_01_workspace_RZA2M_ANPR/ANPR_RZA2M_GR_MANGO/src/tensorflow_lite/tensorflow/lite/kernels/internal/reference/integer_ops\depthwise_conv.h ****                 const int in_x = in_x_origin + dilation_width_factor * filter_x;
  73:C:/Renesas/e2studio_2021_01_workspace_RZA2M_ANPR/ANPR_RZA2M_GR_MANGO/src/tensorflow_lite/tensorflow/lite/kernels/internal/reference/integer_ops\depthwise_conv.h ****                 const int in_y =
  74:C:/Renesas/e2studio_2021_01_workspace_RZA2M_ANPR/ANPR_RZA2M_GR_MANGO/src/tensorflow_lite/tensorflow/lite/kernels/internal/reference/integer_ops\depthwise_conv.h ****                     in_y_origin + dilation_height_factor * filter_y;
  75:C:/Renesas/e2studio_2021_01_workspace_RZA2M_ANPR/ANPR_RZA2M_GR_MANGO/src/tensorflow_lite/tensorflow/lite/kernels/internal/reference/integer_ops\depthwise_conv.h ****                 // Zero padding by omitting the areas outside the image.
  76:C:/Renesas/e2studio_2021_01_workspace_RZA2M_ANPR/ANPR_RZA2M_GR_MANGO/src/tensorflow_lite/tensorflow/lite/kernels/internal/reference/integer_ops\depthwise_conv.h ****                 const bool is_point_inside_image =
  77:C:/Renesas/e2studio_2021_01_workspace_RZA2M_ANPR/ANPR_RZA2M_GR_MANGO/src/tensorflow_lite/tensorflow/lite/kernels/internal/reference/integer_ops\depthwise_conv.h ****                     (in_x >= 0) && (in_x < input_width) && (in_y >= 0) &&
 1970              		.loc 6 77 0
 1971 0574 78309DE5 		ldr	r3, [sp, #120]
 1972 0578 0020A0E3 		mov	r2, #0
 1973 057c 5C109DE5 		ldr	r1, [sp, #92]
 1974 0580 58009DE5 		ldr	r0, [sp, #88]
 1975 0584 000055E3 		cmp	r5, #0
 1976 0588 050053A1 		cmpge	r3, r5
 1977 058c 74309DE5 		ldr	r3, [sp, #116]
 1978 0590 0160A0C3 		movgt	r6, #1
 1979 0594 0060A0D3 		movle	r6, #0
 1980 0598 20808DE5 		str	r8, [sp, #32]
 1981 059c 28508DE5 		str	r5, [sp, #40]
 1982              	.LVL202:
 1983              	.L275:
 1984 05a0 000053E3 		cmp	r3, #0
 1985 05a4 03005AA1 		cmpge	r10, r3
 1986 05a8 2B0000DA 		ble	.L263
 1987 05ac 000056E3 		cmp	r6, #0
 1988 05b0 2900000A 		beq	.L263
 1989              	.LVL203:
 1990              	.LBB1043:
 1991              	.LBB1036:
 1992              	.LBB1017:
 404:C:/Renesas/e2studio_2021_01_workspace_RZA2M_ANPR/ANPR_RZA2M_GR_MANGO/src/tensorflow_lite/tensorflow/lite/kernels/internal\types.h ****   const int* dims_data = reinterpret_cast<const int*>(shape.DimsDataUpTo5D());
 1993              		.loc 4 404 0
 1994 05b4 34E09DE5 		ldr	lr, [sp, #52]
 1995 05b8 04005EE3 		cmp	lr, #4
 1996 05bc 9804001A 		bne	.L577
 406:C:/Renesas/e2studio_2021_01_workspace_RZA2M_ANPR/ANPR_RZA2M_GR_MANGO/src/tensorflow_lite/tensorflow/lite/kernels/internal\types.h ****   TFLITE_DCHECK(i1 >= 0 && i1 < dims_data[1]);
 1997              		.loc 4 406 0
 1998 05c0 2CE09DE5 		ldr	lr, [sp, #44]
 1999 05c4 38509DE5 		ldr	r5, [sp, #56]
 2000 05c8 05005EE1 		cmp	lr, r5
 2001 05cc 340400AA 		bge	.L578
 407:C:/Renesas/e2studio_2021_01_workspace_RZA2M_ANPR/ANPR_RZA2M_GR_MANGO/src/tensorflow_lite/tensorflow/lite/kernels/internal\types.h ****   TFLITE_DCHECK(i2 >= 0 && i2 < dims_data[2]);
 2002              		.loc 4 407 0
 2003 05d0 3CE09DE5 		ldr	lr, [sp, #60]
 2004 05d4 28509DE5 		ldr	r5, [sp, #40]
 2005 05d8 05005EE1 		cmp	lr, r5
 2006 05dc 2F0400DA 		ble	.L579
 408:C:/Renesas/e2studio_2021_01_workspace_RZA2M_ANPR/ANPR_RZA2M_GR_MANGO/src/tensorflow_lite/tensorflow/lite/kernels/internal\types.h ****   TFLITE_DCHECK(i3 >= 0 && i3 < dims_data[3]);
 2007              		.loc 4 408 0
 2008 05e0 40E09DE5 		ldr	lr, [sp, #64]
 2009 05e4 03005EE1 		cmp	lr, r3
 2010 05e8 2B0400DA 		ble	.L580
 409:C:/Renesas/e2studio_2021_01_workspace_RZA2M_ANPR/ANPR_RZA2M_GR_MANGO/src/tensorflow_lite/tensorflow/lite/kernels/internal\types.h ****   return ((i0 * dims_data[1] + i1) * dims_data[2] + i2) * dims_data[3] + i3;
 2011              		.loc 4 409 0
 2012 05ec 30E09DE5 		ldr	lr, [sp, #48]
 2013 05f0 44509DE5 		ldr	r5, [sp, #68]
 2014 05f4 05005EE1 		cmp	lr, r5
 2015 05f8 260400AA 		bge	.L581
 2016              	.LVL204:
 2017              	.LBE1017:
 2018              	.LBE1036:
 2019              	.LBB1037:
 2020              	.LBB1025:
 404:C:/Renesas/e2studio_2021_01_workspace_RZA2M_ANPR/ANPR_RZA2M_GR_MANGO/src/tensorflow_lite/tensorflow/lite/kernels/internal\types.h ****   const int* dims_data = reinterpret_cast<const int*>(shape.DimsDataUpTo5D());
 2021              		.loc 4 404 0
 2022 05fc 48E09DE5 		ldr	lr, [sp, #72]
 2023 0600 04005EE3 		cmp	lr, #4
 2024              	.LBE1025:
 2025              	.LBE1037:
  78:C:/Renesas/e2studio_2021_01_workspace_RZA2M_ANPR/ANPR_RZA2M_GR_MANGO/src/tensorflow_lite/tensorflow/lite/kernels/internal/reference/integer_ops\depthwise_conv.h ****                     (in_y < input_height);
  79:C:/Renesas/e2studio_2021_01_workspace_RZA2M_ANPR/ANPR_RZA2M_GR_MANGO/src/tensorflow_lite/tensorflow/lite/kernels/internal/reference/integer_ops\depthwise_conv.h ****                 if (is_point_inside_image) {
  80:C:/Renesas/e2studio_2021_01_workspace_RZA2M_ANPR/ANPR_RZA2M_GR_MANGO/src/tensorflow_lite/tensorflow/lite/kernels/internal/reference/integer_ops\depthwise_conv.h ****                   int32_t input_val = input_data[Offset(
  81:C:/Renesas/e2studio_2021_01_workspace_RZA2M_ANPR/ANPR_RZA2M_GR_MANGO/src/tensorflow_lite/tensorflow/lite/kernels/internal/reference/integer_ops\depthwise_conv.h ****                       input_shape, batch, in_y, in_x, in_channel)];
 2026              		.loc 6 81 0
 2027 0604 D0E0D1E1 		ldrsb	lr, [r1]
 2028              	.LVL205:
 2029              	.LBB1038:
 2030              	.LBB1026:
 404:C:/Renesas/e2studio_2021_01_workspace_RZA2M_ANPR/ANPR_RZA2M_GR_MANGO/src/tensorflow_lite/tensorflow/lite/kernels/internal\types.h ****   const int* dims_data = reinterpret_cast<const int*>(shape.DimsDataUpTo5D());
 2031              		.loc 4 404 0
 2032 0608 8404001A 		bne	.L582
 406:C:/Renesas/e2studio_2021_01_workspace_RZA2M_ANPR/ANPR_RZA2M_GR_MANGO/src/tensorflow_lite/tensorflow/lite/kernels/internal\types.h ****   TFLITE_DCHECK(i1 >= 0 && i1 < dims_data[1]);
 2033              		.loc 4 406 0
 2034 060c 4C509DE5 		ldr	r5, [sp, #76]
 2035 0610 000055E3 		cmp	r5, #0
 2036 0614 800400DA 		ble	.L583
 407:C:/Renesas/e2studio_2021_01_workspace_RZA2M_ANPR/ANPR_RZA2M_GR_MANGO/src/tensorflow_lite/tensorflow/lite/kernels/internal\types.h ****   TFLITE_DCHECK(i2 >= 0 && i2 < dims_data[2]);
 2037              		.loc 4 407 0
 2038 0618 24509DE5 		ldr	r5, [sp, #36]
 2039 061c 50809DE5 		ldr	r8, [sp, #80]
 2040 0620 080055E1 		cmp	r5, r8
 2041 0624 1A0400AA 		bge	.L584
 408:C:/Renesas/e2studio_2021_01_workspace_RZA2M_ANPR/ANPR_RZA2M_GR_MANGO/src/tensorflow_lite/tensorflow/lite/kernels/internal\types.h ****   TFLITE_DCHECK(i3 >= 0 && i3 < dims_data[3]);
 2042              		.loc 4 408 0
 2043 0628 54509DE5 		ldr	r5, [sp, #84]
 2044 062c 050052E1 		cmp	r2, r5
 2045 0630 160400AA 		bge	.L585
 409:C:/Renesas/e2studio_2021_01_workspace_RZA2M_ANPR/ANPR_RZA2M_GR_MANGO/src/tensorflow_lite/tensorflow/lite/kernels/internal\types.h ****   return ((i0 * dims_data[1] + i1) * dims_data[2] + i2) * dims_data[3] + i3;
 2046              		.loc 4 409 0
 2047 0634 000057E3 		cmp	r7, #0
 2048 0638 130400BA 		blt	.L273
 2049 063c 0C0057E1 		cmp	r7, ip
 2050 0640 110400AA 		bge	.L273
 2051              	.LVL206:
 2052              	.LBE1026:
 2053              	.LBE1038:
  82:C:/Renesas/e2studio_2021_01_workspace_RZA2M_ANPR/ANPR_RZA2M_GR_MANGO/src/tensorflow_lite/tensorflow/lite/kernels/internal/reference/integer_ops\depthwise_conv.h ****                   int32_t filter_val = filter_data[Offset(
  83:C:/Renesas/e2studio_2021_01_workspace_RZA2M_ANPR/ANPR_RZA2M_GR_MANGO/src/tensorflow_lite/tensorflow/lite/kernels/internal/reference/integer_ops\depthwise_conv.h ****                       filter_shape, 0, filter_y, filter_x, output_channel)];
  84:C:/Renesas/e2studio_2021_01_workspace_RZA2M_ANPR/ANPR_RZA2M_GR_MANGO/src/tensorflow_lite/tensorflow/lite/kernels/internal/reference/integer_ops\depthwise_conv.h ****                   // Accumulate with 32 bits accumulator.
  85:C:/Renesas/e2studio_2021_01_workspace_RZA2M_ANPR/ANPR_RZA2M_GR_MANGO/src/tensorflow_lite/tensorflow/lite/kernels/internal/reference/integer_ops\depthwise_conv.h ****                   // In the nudging process during model quantization, we force
  86:C:/Renesas/e2studio_2021_01_workspace_RZA2M_ANPR/ANPR_RZA2M_GR_MANGO/src/tensorflow_lite/tensorflow/lite/kernels/internal/reference/integer_ops\depthwise_conv.h ****                   // real value of 0.0 be represented by a quantized value. This
  87:C:/Renesas/e2studio_2021_01_workspace_RZA2M_ANPR/ANPR_RZA2M_GR_MANGO/src/tensorflow_lite/tensorflow/lite/kernels/internal/reference/integer_ops\depthwise_conv.h ****                   // guarantees that the input_offset is a int8_t, even though
  88:C:/Renesas/e2studio_2021_01_workspace_RZA2M_ANPR/ANPR_RZA2M_GR_MANGO/src/tensorflow_lite/tensorflow/lite/kernels/internal/reference/integer_ops\depthwise_conv.h ****                   // it is represented using int32_t. int32_t += int8_t *
  89:C:/Renesas/e2studio_2021_01_workspace_RZA2M_ANPR/ANPR_RZA2M_GR_MANGO/src/tensorflow_lite/tensorflow/lite/kernels/internal/reference/integer_ops\depthwise_conv.h ****                   // (int8_t - int8_t) so the highest value we can get from each
  90:C:/Renesas/e2studio_2021_01_workspace_RZA2M_ANPR/ANPR_RZA2M_GR_MANGO/src/tensorflow_lite/tensorflow/lite/kernels/internal/reference/integer_ops\depthwise_conv.h ****                   // accumulation is [-127, 127] * ([-128, 127] -
  91:C:/Renesas/e2studio_2021_01_workspace_RZA2M_ANPR/ANPR_RZA2M_GR_MANGO/src/tensorflow_lite/tensorflow/lite/kernels/internal/reference/integer_ops\depthwise_conv.h ****                   // [-128, 127]), which is [-32512, 32512]. log2(32512)
  92:C:/Renesas/e2studio_2021_01_workspace_RZA2M_ANPR/ANPR_RZA2M_GR_MANGO/src/tensorflow_lite/tensorflow/lite/kernels/internal/reference/integer_ops\depthwise_conv.h ****                   // = 14.98, which means we can accumulate at least 2^16
  93:C:/Renesas/e2studio_2021_01_workspace_RZA2M_ANPR/ANPR_RZA2M_GR_MANGO/src/tensorflow_lite/tensorflow/lite/kernels/internal/reference/integer_ops\depthwise_conv.h ****                   // multiplications without overflow. The accumulator is
  94:C:/Renesas/e2studio_2021_01_workspace_RZA2M_ANPR/ANPR_RZA2M_GR_MANGO/src/tensorflow_lite/tensorflow/lite/kernels/internal/reference/integer_ops\depthwise_conv.h ****                   // applied to a filter so the accumulation logic will hold as
  95:C:/Renesas/e2studio_2021_01_workspace_RZA2M_ANPR/ANPR_RZA2M_GR_MANGO/src/tensorflow_lite/tensorflow/lite/kernels/internal/reference/integer_ops\depthwise_conv.h ****                   // long as the filter size (filter_y * filter_x * in_channel)
  96:C:/Renesas/e2studio_2021_01_workspace_RZA2M_ANPR/ANPR_RZA2M_GR_MANGO/src/tensorflow_lite/tensorflow/lite/kernels/internal/reference/integer_ops\depthwise_conv.h ****                   // does not exceed 2^16, which is the case in all the models
  97:C:/Renesas/e2studio_2021_01_workspace_RZA2M_ANPR/ANPR_RZA2M_GR_MANGO/src/tensorflow_lite/tensorflow/lite/kernels/internal/reference/integer_ops\depthwise_conv.h ****                   // we have seen so far.
  98:C:/Renesas/e2studio_2021_01_workspace_RZA2M_ANPR/ANPR_RZA2M_GR_MANGO/src/tensorflow_lite/tensorflow/lite/kernels/internal/reference/integer_ops\depthwise_conv.h ****                   // TODO(b/174275578): Add a check to make sure the
  99:C:/Renesas/e2studio_2021_01_workspace_RZA2M_ANPR/ANPR_RZA2M_GR_MANGO/src/tensorflow_lite/tensorflow/lite/kernels/internal/reference/integer_ops\depthwise_conv.h ****                   // accumulator depth is smaller than 2^16.
 100:C:/Renesas/e2studio_2021_01_workspace_RZA2M_ANPR/ANPR_RZA2M_GR_MANGO/src/tensorflow_lite/tensorflow/lite/kernels/internal/reference/integer_ops\depthwise_conv.h ****                   acc += filter_val * (input_val + input_offset);
 2054              		.loc 6 100 0
 2055 0644 60809DE5 		ldr	r8, [sp, #96]
  83:C:/Renesas/e2studio_2021_01_workspace_RZA2M_ANPR/ANPR_RZA2M_GR_MANGO/src/tensorflow_lite/tensorflow/lite/kernels/internal/reference/integer_ops\depthwise_conv.h ****                   // Accumulate with 32 bits accumulator.
 2056              		.loc 6 83 0
 2057 0648 D050D0E1 		ldrsb	r5, [r0]
 2058              	.LVL207:
 2059              		.loc 6 100 0
 2060 064c 0EE088E0 		add	lr, r8, lr
 2061              	.LVL208:
 2062 0650 20809DE5 		ldr	r8, [sp, #32]
 2063 0654 9E852EE0 		mla	lr, lr, r5, r8
 2064 0658 20E08DE5 		str	lr, [sp, #32]
 2065              	.LVL209:
 2066              	.L263:
 2067              	.LBE1043:
 2068              	.LBE1046:
  71:C:/Renesas/e2studio_2021_01_workspace_RZA2M_ANPR/ANPR_RZA2M_GR_MANGO/src/tensorflow_lite/tensorflow/lite/kernels/internal/reference/integer_ops\depthwise_conv.h ****                 const int in_x = in_x_origin + dilation_width_factor * filter_x;
 2069              		.loc 6 71 0
 2070 065c 012082E2 		add	r2, r2, #1
 2071              	.LVL210:
 2072 0660 0B3083E0 		add	r3, r3, fp
 2073 0664 090052E1 		cmp	r2, r9
 2074 0668 0C0080E0 		add	r0, r0, ip
 2075 066c 041081E0 		add	r1, r1, r4
 2076 0670 CAFFFF1A 		bne	.L275
 2077 0674 20809DE5 		ldr	r8, [sp, #32]
 2078 0678 28509DE5 		ldr	r5, [sp, #40]
 2079              	.LVL211:
 2080              	.L262:
 2081 067c 58209DE5 		ldr	r2, [sp, #88]
 2082 0680 6C109DE5 		ldr	r1, [sp, #108]
 2083              	.LBE1008:
  70:C:/Renesas/e2studio_2021_01_workspace_RZA2M_ANPR/ANPR_RZA2M_GR_MANGO/src/tensorflow_lite/tensorflow/lite/kernels/internal/reference/integer_ops\depthwise_conv.h ****               for (int filter_x = 0; filter_x < filter_width; ++filter_x) {
 2084              		.loc 6 70 0
 2085 0684 24309DE5 		ldr	r3, [sp, #36]
 2086 0688 012082E0 		add	r2, r2, r1
 2087 068c 58208DE5 		str	r2, [sp, #88]
 2088 0690 013083E2 		add	r3, r3, #1
 2089 0694 64209DE5 		ldr	r2, [sp, #100]
 2090 0698 24308DE5 		str	r3, [sp, #36]
 2091              	.LVL212:
 2092 069c 020053E1 		cmp	r3, r2
 2093 06a0 5C309DE5 		ldr	r3, [sp, #92]
 2094              	.LVL213:
 2095 06a4 70209DE5 		ldr	r2, [sp, #112]
 2096 06a8 023083E0 		add	r3, r3, r2
 2097 06ac 5C308DE5 		str	r3, [sp, #92]
 2098 06b0 68309DE5 		ldr	r3, [sp, #104]
 2099 06b4 035085E0 		add	r5, r5, r3
 2100 06b8 ABFFFF1A 		bne	.L276
 2101 06bc 0860A0E1 		mov	r6, r8
 2102              	.LVL214:
 2103              	.L261:
 2104              	.LBE1007:
 101:C:/Renesas/e2studio_2021_01_workspace_RZA2M_ANPR/ANPR_RZA2M_GR_MANGO/src/tensorflow_lite/tensorflow/lite/kernels/internal/reference/integer_ops\depthwise_conv.h ****                 }
 102:C:/Renesas/e2studio_2021_01_workspace_RZA2M_ANPR/ANPR_RZA2M_GR_MANGO/src/tensorflow_lite/tensorflow/lite/kernels/internal/reference/integer_ops\depthwise_conv.h ****               }
 103:C:/Renesas/e2studio_2021_01_workspace_RZA2M_ANPR/ANPR_RZA2M_GR_MANGO/src/tensorflow_lite/tensorflow/lite/kernels/internal/reference/integer_ops\depthwise_conv.h ****             }
 104:C:/Renesas/e2studio_2021_01_workspace_RZA2M_ANPR/ANPR_RZA2M_GR_MANGO/src/tensorflow_lite/tensorflow/lite/kernels/internal/reference/integer_ops\depthwise_conv.h ****             if (bias_data) {
 2105              		.loc 6 104 0
 2106 06c0 A8309DE5 		ldr	r3, [sp, #168]
 105:C:/Renesas/e2studio_2021_01_workspace_RZA2M_ANPR/ANPR_RZA2M_GR_MANGO/src/tensorflow_lite/tensorflow/lite/kernels/internal/reference/integer_ops\depthwise_conv.h ****               acc += bias_data[output_channel];
 106:C:/Renesas/e2studio_2021_01_workspace_RZA2M_ANPR/ANPR_RZA2M_GR_MANGO/src/tensorflow_lite/tensorflow/lite/kernels/internal/reference/integer_ops\depthwise_conv.h ****             }
 107:C:/Renesas/e2studio_2021_01_workspace_RZA2M_ANPR/ANPR_RZA2M_GR_MANGO/src/tensorflow_lite/tensorflow/lite/kernels/internal/reference/integer_ops\depthwise_conv.h ****             acc = MultiplyByQuantizedMultiplier(
 2107              		.loc 6 107 0
 2108 06c4 84209DE5 		ldr	r2, [sp, #132]
 104:C:/Renesas/e2studio_2021_01_workspace_RZA2M_ANPR/ANPR_RZA2M_GR_MANGO/src/tensorflow_lite/tensorflow/lite/kernels/internal/reference/integer_ops\depthwise_conv.h ****               acc += bias_data[output_channel];
 2109              		.loc 6 104 0
 2110 06c8 000053E3 		cmp	r3, #0
 105:C:/Renesas/e2studio_2021_01_workspace_RZA2M_ANPR/ANPR_RZA2M_GR_MANGO/src/tensorflow_lite/tensorflow/lite/kernels/internal/reference/integer_ops\depthwise_conv.h ****               acc += bias_data[output_channel];
 2111              		.loc 6 105 0
 2112 06cc 07319317 		ldrne	r3, [r3, r7, lsl #2]
 2113 06d0 03608610 		addne	r6, r6, r3
 2114              	.LVL215:
 2115              		.loc 6 107 0
 2116 06d4 88309DE5 		ldr	r3, [sp, #136]
 2117 06d8 041093E4 		ldr	r1, [r3], #4
 2118 06dc 88308DE5 		str	r3, [sp, #136]
 2119              	.LVL216:
 2120              	.LBB1051:
 2121              	.LBB1003:
 2122              		.file 8 "C:/Renesas/e2studio_2021_01_workspace_RZA2M_ANPR/ANPR_RZA2M_GR_MANGO/src/tensorflow_lite/
   1:C:/Renesas/e2studio_2021_01_workspace_RZA2M_ANPR/ANPR_RZA2M_GR_MANGO/src/tensorflow_lite/tensorflow/lite/kernels/internal\common.h **** /* Copyright 2017 The TensorFlow Authors. All Rights Reserved.
   2:C:/Renesas/e2studio_2021_01_workspace_RZA2M_ANPR/ANPR_RZA2M_GR_MANGO/src/tensorflow_lite/tensorflow/lite/kernels/internal\common.h **** 
   3:C:/Renesas/e2studio_2021_01_workspace_RZA2M_ANPR/ANPR_RZA2M_GR_MANGO/src/tensorflow_lite/tensorflow/lite/kernels/internal\common.h **** Licensed under the Apache License, Version 2.0 (the "License");
   4:C:/Renesas/e2studio_2021_01_workspace_RZA2M_ANPR/ANPR_RZA2M_GR_MANGO/src/tensorflow_lite/tensorflow/lite/kernels/internal\common.h **** you may not use this file except in compliance with the License.
   5:C:/Renesas/e2studio_2021_01_workspace_RZA2M_ANPR/ANPR_RZA2M_GR_MANGO/src/tensorflow_lite/tensorflow/lite/kernels/internal\common.h **** You may obtain a copy of the License at
   6:C:/Renesas/e2studio_2021_01_workspace_RZA2M_ANPR/ANPR_RZA2M_GR_MANGO/src/tensorflow_lite/tensorflow/lite/kernels/internal\common.h **** 
   7:C:/Renesas/e2studio_2021_01_workspace_RZA2M_ANPR/ANPR_RZA2M_GR_MANGO/src/tensorflow_lite/tensorflow/lite/kernels/internal\common.h ****     http://www.apache.org/licenses/LICENSE-2.0
   8:C:/Renesas/e2studio_2021_01_workspace_RZA2M_ANPR/ANPR_RZA2M_GR_MANGO/src/tensorflow_lite/tensorflow/lite/kernels/internal\common.h **** 
   9:C:/Renesas/e2studio_2021_01_workspace_RZA2M_ANPR/ANPR_RZA2M_GR_MANGO/src/tensorflow_lite/tensorflow/lite/kernels/internal\common.h **** Unless required by applicable law or agreed to in writing, software
  10:C:/Renesas/e2studio_2021_01_workspace_RZA2M_ANPR/ANPR_RZA2M_GR_MANGO/src/tensorflow_lite/tensorflow/lite/kernels/internal\common.h **** distributed under the License is distributed on an "AS IS" BASIS,
  11:C:/Renesas/e2studio_2021_01_workspace_RZA2M_ANPR/ANPR_RZA2M_GR_MANGO/src/tensorflow_lite/tensorflow/lite/kernels/internal\common.h **** WITHOUT WARRANTIES OR CONDITIONS OF ANY KIND, either express or implied.
  12:C:/Renesas/e2studio_2021_01_workspace_RZA2M_ANPR/ANPR_RZA2M_GR_MANGO/src/tensorflow_lite/tensorflow/lite/kernels/internal\common.h **** See the License for the specific language governing permissions and
  13:C:/Renesas/e2studio_2021_01_workspace_RZA2M_ANPR/ANPR_RZA2M_GR_MANGO/src/tensorflow_lite/tensorflow/lite/kernels/internal\common.h **** limitations under the License.
  14:C:/Renesas/e2studio_2021_01_workspace_RZA2M_ANPR/ANPR_RZA2M_GR_MANGO/src/tensorflow_lite/tensorflow/lite/kernels/internal\common.h **** ==============================================================================*/
  15:C:/Renesas/e2studio_2021_01_workspace_RZA2M_ANPR/ANPR_RZA2M_GR_MANGO/src/tensorflow_lite/tensorflow/lite/kernels/internal\common.h **** #ifndef TENSORFLOW_LITE_KERNELS_INTERNAL_COMMON_H_
  16:C:/Renesas/e2studio_2021_01_workspace_RZA2M_ANPR/ANPR_RZA2M_GR_MANGO/src/tensorflow_lite/tensorflow/lite/kernels/internal\common.h **** #define TENSORFLOW_LITE_KERNELS_INTERNAL_COMMON_H_
  17:C:/Renesas/e2studio_2021_01_workspace_RZA2M_ANPR/ANPR_RZA2M_GR_MANGO/src/tensorflow_lite/tensorflow/lite/kernels/internal\common.h **** 
  18:C:/Renesas/e2studio_2021_01_workspace_RZA2M_ANPR/ANPR_RZA2M_GR_MANGO/src/tensorflow_lite/tensorflow/lite/kernels/internal\common.h **** #ifndef ALLOW_SLOW_GENERIC_DEPTHWISECONV_FALLBACK
  19:C:/Renesas/e2studio_2021_01_workspace_RZA2M_ANPR/ANPR_RZA2M_GR_MANGO/src/tensorflow_lite/tensorflow/lite/kernels/internal\common.h **** #ifdef GEMMLOWP_ALLOW_SLOW_SCALAR_FALLBACK
  20:C:/Renesas/e2studio_2021_01_workspace_RZA2M_ANPR/ANPR_RZA2M_GR_MANGO/src/tensorflow_lite/tensorflow/lite/kernels/internal\common.h **** #define ALLOW_SLOW_GENERIC_DEPTHWISECONV_FALLBACK
  21:C:/Renesas/e2studio_2021_01_workspace_RZA2M_ANPR/ANPR_RZA2M_GR_MANGO/src/tensorflow_lite/tensorflow/lite/kernels/internal\common.h **** #endif
  22:C:/Renesas/e2studio_2021_01_workspace_RZA2M_ANPR/ANPR_RZA2M_GR_MANGO/src/tensorflow_lite/tensorflow/lite/kernels/internal\common.h **** #endif
  23:C:/Renesas/e2studio_2021_01_workspace_RZA2M_ANPR/ANPR_RZA2M_GR_MANGO/src/tensorflow_lite/tensorflow/lite/kernels/internal\common.h **** 
  24:C:/Renesas/e2studio_2021_01_workspace_RZA2M_ANPR/ANPR_RZA2M_GR_MANGO/src/tensorflow_lite/tensorflow/lite/kernels/internal\common.h **** #include <functional>
  25:C:/Renesas/e2studio_2021_01_workspace_RZA2M_ANPR/ANPR_RZA2M_GR_MANGO/src/tensorflow_lite/tensorflow/lite/kernels/internal\common.h **** 
  26:C:/Renesas/e2studio_2021_01_workspace_RZA2M_ANPR/ANPR_RZA2M_GR_MANGO/src/tensorflow_lite/tensorflow/lite/kernels/internal\common.h **** #include "fixedpoint/fixedpoint.h"
  27:C:/Renesas/e2studio_2021_01_workspace_RZA2M_ANPR/ANPR_RZA2M_GR_MANGO/src/tensorflow_lite/tensorflow/lite/kernels/internal\common.h **** #include "tensorflow/lite/kernels/internal/cppmath.h"
  28:C:/Renesas/e2studio_2021_01_workspace_RZA2M_ANPR/ANPR_RZA2M_GR_MANGO/src/tensorflow_lite/tensorflow/lite/kernels/internal\common.h **** #include "tensorflow/lite/kernels/internal/optimized/neon_check.h"
  29:C:/Renesas/e2studio_2021_01_workspace_RZA2M_ANPR/ANPR_RZA2M_GR_MANGO/src/tensorflow_lite/tensorflow/lite/kernels/internal\common.h **** #include "tensorflow/lite/kernels/internal/types.h"
  30:C:/Renesas/e2studio_2021_01_workspace_RZA2M_ANPR/ANPR_RZA2M_GR_MANGO/src/tensorflow_lite/tensorflow/lite/kernels/internal\common.h **** 
  31:C:/Renesas/e2studio_2021_01_workspace_RZA2M_ANPR/ANPR_RZA2M_GR_MANGO/src/tensorflow_lite/tensorflow/lite/kernels/internal\common.h **** namespace tflite {
  32:C:/Renesas/e2studio_2021_01_workspace_RZA2M_ANPR/ANPR_RZA2M_GR_MANGO/src/tensorflow_lite/tensorflow/lite/kernels/internal\common.h **** 
  33:C:/Renesas/e2studio_2021_01_workspace_RZA2M_ANPR/ANPR_RZA2M_GR_MANGO/src/tensorflow_lite/tensorflow/lite/kernels/internal\common.h **** constexpr int kReverseShift = -1;
  34:C:/Renesas/e2studio_2021_01_workspace_RZA2M_ANPR/ANPR_RZA2M_GR_MANGO/src/tensorflow_lite/tensorflow/lite/kernels/internal\common.h **** 
  35:C:/Renesas/e2studio_2021_01_workspace_RZA2M_ANPR/ANPR_RZA2M_GR_MANGO/src/tensorflow_lite/tensorflow/lite/kernels/internal\common.h **** inline void GetActivationMinMax(FusedActivationFunctionType ac,
  36:C:/Renesas/e2studio_2021_01_workspace_RZA2M_ANPR/ANPR_RZA2M_GR_MANGO/src/tensorflow_lite/tensorflow/lite/kernels/internal\common.h ****                                 float* output_activation_min,
  37:C:/Renesas/e2studio_2021_01_workspace_RZA2M_ANPR/ANPR_RZA2M_GR_MANGO/src/tensorflow_lite/tensorflow/lite/kernels/internal\common.h ****                                 float* output_activation_max) {
  38:C:/Renesas/e2studio_2021_01_workspace_RZA2M_ANPR/ANPR_RZA2M_GR_MANGO/src/tensorflow_lite/tensorflow/lite/kernels/internal\common.h ****   switch (ac) {
  39:C:/Renesas/e2studio_2021_01_workspace_RZA2M_ANPR/ANPR_RZA2M_GR_MANGO/src/tensorflow_lite/tensorflow/lite/kernels/internal\common.h ****     case FusedActivationFunctionType::kNone:
  40:C:/Renesas/e2studio_2021_01_workspace_RZA2M_ANPR/ANPR_RZA2M_GR_MANGO/src/tensorflow_lite/tensorflow/lite/kernels/internal\common.h ****       *output_activation_min = std::numeric_limits<float>::lowest();
  41:C:/Renesas/e2studio_2021_01_workspace_RZA2M_ANPR/ANPR_RZA2M_GR_MANGO/src/tensorflow_lite/tensorflow/lite/kernels/internal\common.h ****       *output_activation_max = std::numeric_limits<float>::max();
  42:C:/Renesas/e2studio_2021_01_workspace_RZA2M_ANPR/ANPR_RZA2M_GR_MANGO/src/tensorflow_lite/tensorflow/lite/kernels/internal\common.h ****       break;
  43:C:/Renesas/e2studio_2021_01_workspace_RZA2M_ANPR/ANPR_RZA2M_GR_MANGO/src/tensorflow_lite/tensorflow/lite/kernels/internal\common.h ****     case FusedActivationFunctionType::kRelu:
  44:C:/Renesas/e2studio_2021_01_workspace_RZA2M_ANPR/ANPR_RZA2M_GR_MANGO/src/tensorflow_lite/tensorflow/lite/kernels/internal\common.h ****       *output_activation_min = 0.f;
  45:C:/Renesas/e2studio_2021_01_workspace_RZA2M_ANPR/ANPR_RZA2M_GR_MANGO/src/tensorflow_lite/tensorflow/lite/kernels/internal\common.h ****       *output_activation_max = std::numeric_limits<float>::max();
  46:C:/Renesas/e2studio_2021_01_workspace_RZA2M_ANPR/ANPR_RZA2M_GR_MANGO/src/tensorflow_lite/tensorflow/lite/kernels/internal\common.h ****       break;
  47:C:/Renesas/e2studio_2021_01_workspace_RZA2M_ANPR/ANPR_RZA2M_GR_MANGO/src/tensorflow_lite/tensorflow/lite/kernels/internal\common.h ****     case FusedActivationFunctionType::kRelu1:
  48:C:/Renesas/e2studio_2021_01_workspace_RZA2M_ANPR/ANPR_RZA2M_GR_MANGO/src/tensorflow_lite/tensorflow/lite/kernels/internal\common.h ****       *output_activation_min = -1.f;
  49:C:/Renesas/e2studio_2021_01_workspace_RZA2M_ANPR/ANPR_RZA2M_GR_MANGO/src/tensorflow_lite/tensorflow/lite/kernels/internal\common.h ****       *output_activation_max = 1.f;
  50:C:/Renesas/e2studio_2021_01_workspace_RZA2M_ANPR/ANPR_RZA2M_GR_MANGO/src/tensorflow_lite/tensorflow/lite/kernels/internal\common.h ****       break;
  51:C:/Renesas/e2studio_2021_01_workspace_RZA2M_ANPR/ANPR_RZA2M_GR_MANGO/src/tensorflow_lite/tensorflow/lite/kernels/internal\common.h ****     case FusedActivationFunctionType::kRelu6:
  52:C:/Renesas/e2studio_2021_01_workspace_RZA2M_ANPR/ANPR_RZA2M_GR_MANGO/src/tensorflow_lite/tensorflow/lite/kernels/internal\common.h ****       *output_activation_min = 0.f;
  53:C:/Renesas/e2studio_2021_01_workspace_RZA2M_ANPR/ANPR_RZA2M_GR_MANGO/src/tensorflow_lite/tensorflow/lite/kernels/internal\common.h ****       *output_activation_max = 6.f;
  54:C:/Renesas/e2studio_2021_01_workspace_RZA2M_ANPR/ANPR_RZA2M_GR_MANGO/src/tensorflow_lite/tensorflow/lite/kernels/internal\common.h ****       break;
  55:C:/Renesas/e2studio_2021_01_workspace_RZA2M_ANPR/ANPR_RZA2M_GR_MANGO/src/tensorflow_lite/tensorflow/lite/kernels/internal\common.h ****   }
  56:C:/Renesas/e2studio_2021_01_workspace_RZA2M_ANPR/ANPR_RZA2M_GR_MANGO/src/tensorflow_lite/tensorflow/lite/kernels/internal\common.h **** }
  57:C:/Renesas/e2studio_2021_01_workspace_RZA2M_ANPR/ANPR_RZA2M_GR_MANGO/src/tensorflow_lite/tensorflow/lite/kernels/internal\common.h **** 
  58:C:/Renesas/e2studio_2021_01_workspace_RZA2M_ANPR/ANPR_RZA2M_GR_MANGO/src/tensorflow_lite/tensorflow/lite/kernels/internal\common.h **** template <typename T>
  59:C:/Renesas/e2studio_2021_01_workspace_RZA2M_ANPR/ANPR_RZA2M_GR_MANGO/src/tensorflow_lite/tensorflow/lite/kernels/internal\common.h **** inline T ActivationFunctionWithMinMax(T x, T output_activation_min,
  60:C:/Renesas/e2studio_2021_01_workspace_RZA2M_ANPR/ANPR_RZA2M_GR_MANGO/src/tensorflow_lite/tensorflow/lite/kernels/internal\common.h ****                                       T output_activation_max) {
  61:C:/Renesas/e2studio_2021_01_workspace_RZA2M_ANPR/ANPR_RZA2M_GR_MANGO/src/tensorflow_lite/tensorflow/lite/kernels/internal\common.h ****   using std::max;
  62:C:/Renesas/e2studio_2021_01_workspace_RZA2M_ANPR/ANPR_RZA2M_GR_MANGO/src/tensorflow_lite/tensorflow/lite/kernels/internal\common.h ****   using std::min;
  63:C:/Renesas/e2studio_2021_01_workspace_RZA2M_ANPR/ANPR_RZA2M_GR_MANGO/src/tensorflow_lite/tensorflow/lite/kernels/internal\common.h ****   return min(max(x, output_activation_min), output_activation_max);
  64:C:/Renesas/e2studio_2021_01_workspace_RZA2M_ANPR/ANPR_RZA2M_GR_MANGO/src/tensorflow_lite/tensorflow/lite/kernels/internal\common.h **** }
  65:C:/Renesas/e2studio_2021_01_workspace_RZA2M_ANPR/ANPR_RZA2M_GR_MANGO/src/tensorflow_lite/tensorflow/lite/kernels/internal\common.h **** 
  66:C:/Renesas/e2studio_2021_01_workspace_RZA2M_ANPR/ANPR_RZA2M_GR_MANGO/src/tensorflow_lite/tensorflow/lite/kernels/internal\common.h **** // Legacy function, left for compatibility only.
  67:C:/Renesas/e2studio_2021_01_workspace_RZA2M_ANPR/ANPR_RZA2M_GR_MANGO/src/tensorflow_lite/tensorflow/lite/kernels/internal\common.h **** template <FusedActivationFunctionType Ac>
  68:C:/Renesas/e2studio_2021_01_workspace_RZA2M_ANPR/ANPR_RZA2M_GR_MANGO/src/tensorflow_lite/tensorflow/lite/kernels/internal\common.h **** float ActivationFunction(float x) {
  69:C:/Renesas/e2studio_2021_01_workspace_RZA2M_ANPR/ANPR_RZA2M_GR_MANGO/src/tensorflow_lite/tensorflow/lite/kernels/internal\common.h ****   float output_activation_min, output_activation_max;
  70:C:/Renesas/e2studio_2021_01_workspace_RZA2M_ANPR/ANPR_RZA2M_GR_MANGO/src/tensorflow_lite/tensorflow/lite/kernels/internal\common.h ****   GetActivationMinMax(Ac, &output_activation_min, &output_activation_max);
  71:C:/Renesas/e2studio_2021_01_workspace_RZA2M_ANPR/ANPR_RZA2M_GR_MANGO/src/tensorflow_lite/tensorflow/lite/kernels/internal\common.h ****   return ActivationFunctionWithMinMax(x, output_activation_min,
  72:C:/Renesas/e2studio_2021_01_workspace_RZA2M_ANPR/ANPR_RZA2M_GR_MANGO/src/tensorflow_lite/tensorflow/lite/kernels/internal\common.h ****                                       output_activation_max);
  73:C:/Renesas/e2studio_2021_01_workspace_RZA2M_ANPR/ANPR_RZA2M_GR_MANGO/src/tensorflow_lite/tensorflow/lite/kernels/internal\common.h **** }
  74:C:/Renesas/e2studio_2021_01_workspace_RZA2M_ANPR/ANPR_RZA2M_GR_MANGO/src/tensorflow_lite/tensorflow/lite/kernels/internal\common.h **** 
  75:C:/Renesas/e2studio_2021_01_workspace_RZA2M_ANPR/ANPR_RZA2M_GR_MANGO/src/tensorflow_lite/tensorflow/lite/kernels/internal\common.h **** inline void BiasAndClamp(float clamp_min, float clamp_max, int bias_size,
  76:C:/Renesas/e2studio_2021_01_workspace_RZA2M_ANPR/ANPR_RZA2M_GR_MANGO/src/tensorflow_lite/tensorflow/lite/kernels/internal\common.h ****                          const float* bias_data, int array_size,
  77:C:/Renesas/e2studio_2021_01_workspace_RZA2M_ANPR/ANPR_RZA2M_GR_MANGO/src/tensorflow_lite/tensorflow/lite/kernels/internal\common.h ****                          float* array_data) {
  78:C:/Renesas/e2studio_2021_01_workspace_RZA2M_ANPR/ANPR_RZA2M_GR_MANGO/src/tensorflow_lite/tensorflow/lite/kernels/internal\common.h ****   // Note: see b/132215220: in May 2019 we thought it would be OK to replace
  79:C:/Renesas/e2studio_2021_01_workspace_RZA2M_ANPR/ANPR_RZA2M_GR_MANGO/src/tensorflow_lite/tensorflow/lite/kernels/internal\common.h ****   // this with the Eigen one-liner:
  80:C:/Renesas/e2studio_2021_01_workspace_RZA2M_ANPR/ANPR_RZA2M_GR_MANGO/src/tensorflow_lite/tensorflow/lite/kernels/internal\common.h ****   //   return (array.colwise() + bias).cwiseMin(clamp_max).cwiseMin(clamp_max).
  81:C:/Renesas/e2studio_2021_01_workspace_RZA2M_ANPR/ANPR_RZA2M_GR_MANGO/src/tensorflow_lite/tensorflow/lite/kernels/internal\common.h ****   // This turned out to severely regress performance: +4ms (i.e. 8%) on
  82:C:/Renesas/e2studio_2021_01_workspace_RZA2M_ANPR/ANPR_RZA2M_GR_MANGO/src/tensorflow_lite/tensorflow/lite/kernels/internal\common.h ****   // MobileNet v2 / 1.0 / 224. So we keep custom NEON code for now.
  83:C:/Renesas/e2studio_2021_01_workspace_RZA2M_ANPR/ANPR_RZA2M_GR_MANGO/src/tensorflow_lite/tensorflow/lite/kernels/internal\common.h ****   TFLITE_DCHECK_EQ((array_size % bias_size), 0);
  84:C:/Renesas/e2studio_2021_01_workspace_RZA2M_ANPR/ANPR_RZA2M_GR_MANGO/src/tensorflow_lite/tensorflow/lite/kernels/internal\common.h **** #ifdef USE_NEON
  85:C:/Renesas/e2studio_2021_01_workspace_RZA2M_ANPR/ANPR_RZA2M_GR_MANGO/src/tensorflow_lite/tensorflow/lite/kernels/internal\common.h ****   float* array_ptr = array_data;
  86:C:/Renesas/e2studio_2021_01_workspace_RZA2M_ANPR/ANPR_RZA2M_GR_MANGO/src/tensorflow_lite/tensorflow/lite/kernels/internal\common.h ****   float* array_end_ptr = array_ptr + array_size;
  87:C:/Renesas/e2studio_2021_01_workspace_RZA2M_ANPR/ANPR_RZA2M_GR_MANGO/src/tensorflow_lite/tensorflow/lite/kernels/internal\common.h ****   const auto clamp_min_vec = vdupq_n_f32(clamp_min);
  88:C:/Renesas/e2studio_2021_01_workspace_RZA2M_ANPR/ANPR_RZA2M_GR_MANGO/src/tensorflow_lite/tensorflow/lite/kernels/internal\common.h ****   const auto clamp_max_vec = vdupq_n_f32(clamp_max);
  89:C:/Renesas/e2studio_2021_01_workspace_RZA2M_ANPR/ANPR_RZA2M_GR_MANGO/src/tensorflow_lite/tensorflow/lite/kernels/internal\common.h ****   for (; array_ptr != array_end_ptr; array_ptr += bias_size) {
  90:C:/Renesas/e2studio_2021_01_workspace_RZA2M_ANPR/ANPR_RZA2M_GR_MANGO/src/tensorflow_lite/tensorflow/lite/kernels/internal\common.h ****     int i = 0;
  91:C:/Renesas/e2studio_2021_01_workspace_RZA2M_ANPR/ANPR_RZA2M_GR_MANGO/src/tensorflow_lite/tensorflow/lite/kernels/internal\common.h ****     for (; i <= bias_size - 16; i += 16) {
  92:C:/Renesas/e2studio_2021_01_workspace_RZA2M_ANPR/ANPR_RZA2M_GR_MANGO/src/tensorflow_lite/tensorflow/lite/kernels/internal\common.h ****       auto b0 = vld1q_f32(bias_data + i);
  93:C:/Renesas/e2studio_2021_01_workspace_RZA2M_ANPR/ANPR_RZA2M_GR_MANGO/src/tensorflow_lite/tensorflow/lite/kernels/internal\common.h ****       auto b1 = vld1q_f32(bias_data + i + 4);
  94:C:/Renesas/e2studio_2021_01_workspace_RZA2M_ANPR/ANPR_RZA2M_GR_MANGO/src/tensorflow_lite/tensorflow/lite/kernels/internal\common.h ****       auto b2 = vld1q_f32(bias_data + i + 8);
  95:C:/Renesas/e2studio_2021_01_workspace_RZA2M_ANPR/ANPR_RZA2M_GR_MANGO/src/tensorflow_lite/tensorflow/lite/kernels/internal\common.h ****       auto b3 = vld1q_f32(bias_data + i + 12);
  96:C:/Renesas/e2studio_2021_01_workspace_RZA2M_ANPR/ANPR_RZA2M_GR_MANGO/src/tensorflow_lite/tensorflow/lite/kernels/internal\common.h ****       auto a0 = vld1q_f32(array_ptr + i);
  97:C:/Renesas/e2studio_2021_01_workspace_RZA2M_ANPR/ANPR_RZA2M_GR_MANGO/src/tensorflow_lite/tensorflow/lite/kernels/internal\common.h ****       auto a1 = vld1q_f32(array_ptr + i + 4);
  98:C:/Renesas/e2studio_2021_01_workspace_RZA2M_ANPR/ANPR_RZA2M_GR_MANGO/src/tensorflow_lite/tensorflow/lite/kernels/internal\common.h ****       auto a2 = vld1q_f32(array_ptr + i + 8);
  99:C:/Renesas/e2studio_2021_01_workspace_RZA2M_ANPR/ANPR_RZA2M_GR_MANGO/src/tensorflow_lite/tensorflow/lite/kernels/internal\common.h ****       auto a3 = vld1q_f32(array_ptr + i + 12);
 100:C:/Renesas/e2studio_2021_01_workspace_RZA2M_ANPR/ANPR_RZA2M_GR_MANGO/src/tensorflow_lite/tensorflow/lite/kernels/internal\common.h ****       auto x0 = vaddq_f32(a0, b0);
 101:C:/Renesas/e2studio_2021_01_workspace_RZA2M_ANPR/ANPR_RZA2M_GR_MANGO/src/tensorflow_lite/tensorflow/lite/kernels/internal\common.h ****       auto x1 = vaddq_f32(a1, b1);
 102:C:/Renesas/e2studio_2021_01_workspace_RZA2M_ANPR/ANPR_RZA2M_GR_MANGO/src/tensorflow_lite/tensorflow/lite/kernels/internal\common.h ****       auto x2 = vaddq_f32(a2, b2);
 103:C:/Renesas/e2studio_2021_01_workspace_RZA2M_ANPR/ANPR_RZA2M_GR_MANGO/src/tensorflow_lite/tensorflow/lite/kernels/internal\common.h ****       auto x3 = vaddq_f32(a3, b3);
 104:C:/Renesas/e2studio_2021_01_workspace_RZA2M_ANPR/ANPR_RZA2M_GR_MANGO/src/tensorflow_lite/tensorflow/lite/kernels/internal\common.h ****       x0 = vmaxq_f32(clamp_min_vec, x0);
 105:C:/Renesas/e2studio_2021_01_workspace_RZA2M_ANPR/ANPR_RZA2M_GR_MANGO/src/tensorflow_lite/tensorflow/lite/kernels/internal\common.h ****       x1 = vmaxq_f32(clamp_min_vec, x1);
 106:C:/Renesas/e2studio_2021_01_workspace_RZA2M_ANPR/ANPR_RZA2M_GR_MANGO/src/tensorflow_lite/tensorflow/lite/kernels/internal\common.h ****       x2 = vmaxq_f32(clamp_min_vec, x2);
 107:C:/Renesas/e2studio_2021_01_workspace_RZA2M_ANPR/ANPR_RZA2M_GR_MANGO/src/tensorflow_lite/tensorflow/lite/kernels/internal\common.h ****       x3 = vmaxq_f32(clamp_min_vec, x3);
 108:C:/Renesas/e2studio_2021_01_workspace_RZA2M_ANPR/ANPR_RZA2M_GR_MANGO/src/tensorflow_lite/tensorflow/lite/kernels/internal\common.h ****       x0 = vminq_f32(clamp_max_vec, x0);
 109:C:/Renesas/e2studio_2021_01_workspace_RZA2M_ANPR/ANPR_RZA2M_GR_MANGO/src/tensorflow_lite/tensorflow/lite/kernels/internal\common.h ****       x1 = vminq_f32(clamp_max_vec, x1);
 110:C:/Renesas/e2studio_2021_01_workspace_RZA2M_ANPR/ANPR_RZA2M_GR_MANGO/src/tensorflow_lite/tensorflow/lite/kernels/internal\common.h ****       x2 = vminq_f32(clamp_max_vec, x2);
 111:C:/Renesas/e2studio_2021_01_workspace_RZA2M_ANPR/ANPR_RZA2M_GR_MANGO/src/tensorflow_lite/tensorflow/lite/kernels/internal\common.h ****       x3 = vminq_f32(clamp_max_vec, x3);
 112:C:/Renesas/e2studio_2021_01_workspace_RZA2M_ANPR/ANPR_RZA2M_GR_MANGO/src/tensorflow_lite/tensorflow/lite/kernels/internal\common.h ****       vst1q_f32(array_ptr + i, x0);
 113:C:/Renesas/e2studio_2021_01_workspace_RZA2M_ANPR/ANPR_RZA2M_GR_MANGO/src/tensorflow_lite/tensorflow/lite/kernels/internal\common.h ****       vst1q_f32(array_ptr + i + 4, x1);
 114:C:/Renesas/e2studio_2021_01_workspace_RZA2M_ANPR/ANPR_RZA2M_GR_MANGO/src/tensorflow_lite/tensorflow/lite/kernels/internal\common.h ****       vst1q_f32(array_ptr + i + 8, x2);
 115:C:/Renesas/e2studio_2021_01_workspace_RZA2M_ANPR/ANPR_RZA2M_GR_MANGO/src/tensorflow_lite/tensorflow/lite/kernels/internal\common.h ****       vst1q_f32(array_ptr + i + 12, x3);
 116:C:/Renesas/e2studio_2021_01_workspace_RZA2M_ANPR/ANPR_RZA2M_GR_MANGO/src/tensorflow_lite/tensorflow/lite/kernels/internal\common.h ****     }
 117:C:/Renesas/e2studio_2021_01_workspace_RZA2M_ANPR/ANPR_RZA2M_GR_MANGO/src/tensorflow_lite/tensorflow/lite/kernels/internal\common.h ****     for (; i <= bias_size - 4; i += 4) {
 118:C:/Renesas/e2studio_2021_01_workspace_RZA2M_ANPR/ANPR_RZA2M_GR_MANGO/src/tensorflow_lite/tensorflow/lite/kernels/internal\common.h ****       auto b = vld1q_f32(bias_data + i);
 119:C:/Renesas/e2studio_2021_01_workspace_RZA2M_ANPR/ANPR_RZA2M_GR_MANGO/src/tensorflow_lite/tensorflow/lite/kernels/internal\common.h ****       auto a = vld1q_f32(array_ptr + i);
 120:C:/Renesas/e2studio_2021_01_workspace_RZA2M_ANPR/ANPR_RZA2M_GR_MANGO/src/tensorflow_lite/tensorflow/lite/kernels/internal\common.h ****       auto x = vaddq_f32(a, b);
 121:C:/Renesas/e2studio_2021_01_workspace_RZA2M_ANPR/ANPR_RZA2M_GR_MANGO/src/tensorflow_lite/tensorflow/lite/kernels/internal\common.h ****       x = vmaxq_f32(clamp_min_vec, x);
 122:C:/Renesas/e2studio_2021_01_workspace_RZA2M_ANPR/ANPR_RZA2M_GR_MANGO/src/tensorflow_lite/tensorflow/lite/kernels/internal\common.h ****       x = vminq_f32(clamp_max_vec, x);
 123:C:/Renesas/e2studio_2021_01_workspace_RZA2M_ANPR/ANPR_RZA2M_GR_MANGO/src/tensorflow_lite/tensorflow/lite/kernels/internal\common.h ****       vst1q_f32(array_ptr + i, x);
 124:C:/Renesas/e2studio_2021_01_workspace_RZA2M_ANPR/ANPR_RZA2M_GR_MANGO/src/tensorflow_lite/tensorflow/lite/kernels/internal\common.h ****     }
 125:C:/Renesas/e2studio_2021_01_workspace_RZA2M_ANPR/ANPR_RZA2M_GR_MANGO/src/tensorflow_lite/tensorflow/lite/kernels/internal\common.h ****     for (; i < bias_size; i++) {
 126:C:/Renesas/e2studio_2021_01_workspace_RZA2M_ANPR/ANPR_RZA2M_GR_MANGO/src/tensorflow_lite/tensorflow/lite/kernels/internal\common.h ****       array_ptr[i] = ActivationFunctionWithMinMax(array_ptr[i] + bias_data[i],
 127:C:/Renesas/e2studio_2021_01_workspace_RZA2M_ANPR/ANPR_RZA2M_GR_MANGO/src/tensorflow_lite/tensorflow/lite/kernels/internal\common.h ****                                                   clamp_min, clamp_max);
 128:C:/Renesas/e2studio_2021_01_workspace_RZA2M_ANPR/ANPR_RZA2M_GR_MANGO/src/tensorflow_lite/tensorflow/lite/kernels/internal\common.h ****     }
 129:C:/Renesas/e2studio_2021_01_workspace_RZA2M_ANPR/ANPR_RZA2M_GR_MANGO/src/tensorflow_lite/tensorflow/lite/kernels/internal\common.h ****   }
 130:C:/Renesas/e2studio_2021_01_workspace_RZA2M_ANPR/ANPR_RZA2M_GR_MANGO/src/tensorflow_lite/tensorflow/lite/kernels/internal\common.h **** #else  // not NEON
 131:C:/Renesas/e2studio_2021_01_workspace_RZA2M_ANPR/ANPR_RZA2M_GR_MANGO/src/tensorflow_lite/tensorflow/lite/kernels/internal\common.h ****   for (int array_offset = 0; array_offset < array_size;
 132:C:/Renesas/e2studio_2021_01_workspace_RZA2M_ANPR/ANPR_RZA2M_GR_MANGO/src/tensorflow_lite/tensorflow/lite/kernels/internal\common.h ****        array_offset += bias_size) {
 133:C:/Renesas/e2studio_2021_01_workspace_RZA2M_ANPR/ANPR_RZA2M_GR_MANGO/src/tensorflow_lite/tensorflow/lite/kernels/internal\common.h ****     for (int i = 0; i < bias_size; i++) {
 134:C:/Renesas/e2studio_2021_01_workspace_RZA2M_ANPR/ANPR_RZA2M_GR_MANGO/src/tensorflow_lite/tensorflow/lite/kernels/internal\common.h ****       array_data[array_offset + i] = ActivationFunctionWithMinMax(
 135:C:/Renesas/e2studio_2021_01_workspace_RZA2M_ANPR/ANPR_RZA2M_GR_MANGO/src/tensorflow_lite/tensorflow/lite/kernels/internal\common.h ****           array_data[array_offset + i] + bias_data[i], clamp_min, clamp_max);
 136:C:/Renesas/e2studio_2021_01_workspace_RZA2M_ANPR/ANPR_RZA2M_GR_MANGO/src/tensorflow_lite/tensorflow/lite/kernels/internal\common.h ****     }
 137:C:/Renesas/e2studio_2021_01_workspace_RZA2M_ANPR/ANPR_RZA2M_GR_MANGO/src/tensorflow_lite/tensorflow/lite/kernels/internal\common.h ****   }
 138:C:/Renesas/e2studio_2021_01_workspace_RZA2M_ANPR/ANPR_RZA2M_GR_MANGO/src/tensorflow_lite/tensorflow/lite/kernels/internal\common.h **** #endif
 139:C:/Renesas/e2studio_2021_01_workspace_RZA2M_ANPR/ANPR_RZA2M_GR_MANGO/src/tensorflow_lite/tensorflow/lite/kernels/internal\common.h **** }
 140:C:/Renesas/e2studio_2021_01_workspace_RZA2M_ANPR/ANPR_RZA2M_GR_MANGO/src/tensorflow_lite/tensorflow/lite/kernels/internal\common.h **** 
 141:C:/Renesas/e2studio_2021_01_workspace_RZA2M_ANPR/ANPR_RZA2M_GR_MANGO/src/tensorflow_lite/tensorflow/lite/kernels/internal\common.h **** inline int32_t MultiplyByQuantizedMultiplierSmallerThanOneExp(
 142:C:/Renesas/e2studio_2021_01_workspace_RZA2M_ANPR/ANPR_RZA2M_GR_MANGO/src/tensorflow_lite/tensorflow/lite/kernels/internal\common.h ****     int32_t x, int32_t quantized_multiplier, int left_shift) {
 143:C:/Renesas/e2studio_2021_01_workspace_RZA2M_ANPR/ANPR_RZA2M_GR_MANGO/src/tensorflow_lite/tensorflow/lite/kernels/internal\common.h ****   using gemmlowp::RoundingDivideByPOT;
 144:C:/Renesas/e2studio_2021_01_workspace_RZA2M_ANPR/ANPR_RZA2M_GR_MANGO/src/tensorflow_lite/tensorflow/lite/kernels/internal\common.h ****   using gemmlowp::SaturatingRoundingDoublingHighMul;
 145:C:/Renesas/e2studio_2021_01_workspace_RZA2M_ANPR/ANPR_RZA2M_GR_MANGO/src/tensorflow_lite/tensorflow/lite/kernels/internal\common.h ****   return RoundingDivideByPOT(
 146:C:/Renesas/e2studio_2021_01_workspace_RZA2M_ANPR/ANPR_RZA2M_GR_MANGO/src/tensorflow_lite/tensorflow/lite/kernels/internal\common.h ****       SaturatingRoundingDoublingHighMul(x, quantized_multiplier), -left_shift);
 147:C:/Renesas/e2studio_2021_01_workspace_RZA2M_ANPR/ANPR_RZA2M_GR_MANGO/src/tensorflow_lite/tensorflow/lite/kernels/internal\common.h **** }
 148:C:/Renesas/e2studio_2021_01_workspace_RZA2M_ANPR/ANPR_RZA2M_GR_MANGO/src/tensorflow_lite/tensorflow/lite/kernels/internal\common.h **** 
 149:C:/Renesas/e2studio_2021_01_workspace_RZA2M_ANPR/ANPR_RZA2M_GR_MANGO/src/tensorflow_lite/tensorflow/lite/kernels/internal\common.h **** inline int32_t MultiplyByQuantizedMultiplierGreaterThanOne(
 150:C:/Renesas/e2studio_2021_01_workspace_RZA2M_ANPR/ANPR_RZA2M_GR_MANGO/src/tensorflow_lite/tensorflow/lite/kernels/internal\common.h ****     int32_t x, int32_t quantized_multiplier, int left_shift) {
 151:C:/Renesas/e2studio_2021_01_workspace_RZA2M_ANPR/ANPR_RZA2M_GR_MANGO/src/tensorflow_lite/tensorflow/lite/kernels/internal\common.h ****   using gemmlowp::SaturatingRoundingDoublingHighMul;
 152:C:/Renesas/e2studio_2021_01_workspace_RZA2M_ANPR/ANPR_RZA2M_GR_MANGO/src/tensorflow_lite/tensorflow/lite/kernels/internal\common.h ****   return SaturatingRoundingDoublingHighMul(x * (1 << left_shift),
 153:C:/Renesas/e2studio_2021_01_workspace_RZA2M_ANPR/ANPR_RZA2M_GR_MANGO/src/tensorflow_lite/tensorflow/lite/kernels/internal\common.h ****                                            quantized_multiplier);
 154:C:/Renesas/e2studio_2021_01_workspace_RZA2M_ANPR/ANPR_RZA2M_GR_MANGO/src/tensorflow_lite/tensorflow/lite/kernels/internal\common.h **** }
 155:C:/Renesas/e2studio_2021_01_workspace_RZA2M_ANPR/ANPR_RZA2M_GR_MANGO/src/tensorflow_lite/tensorflow/lite/kernels/internal\common.h **** 
 156:C:/Renesas/e2studio_2021_01_workspace_RZA2M_ANPR/ANPR_RZA2M_GR_MANGO/src/tensorflow_lite/tensorflow/lite/kernels/internal\common.h **** inline int32_t MultiplyByQuantizedMultiplier(int32_t x,
 157:C:/Renesas/e2studio_2021_01_workspace_RZA2M_ANPR/ANPR_RZA2M_GR_MANGO/src/tensorflow_lite/tensorflow/lite/kernels/internal\common.h ****                                              int32_t quantized_multiplier,
 158:C:/Renesas/e2studio_2021_01_workspace_RZA2M_ANPR/ANPR_RZA2M_GR_MANGO/src/tensorflow_lite/tensorflow/lite/kernels/internal\common.h ****                                              int shift) {
 159:C:/Renesas/e2studio_2021_01_workspace_RZA2M_ANPR/ANPR_RZA2M_GR_MANGO/src/tensorflow_lite/tensorflow/lite/kernels/internal\common.h ****   using gemmlowp::RoundingDivideByPOT;
 160:C:/Renesas/e2studio_2021_01_workspace_RZA2M_ANPR/ANPR_RZA2M_GR_MANGO/src/tensorflow_lite/tensorflow/lite/kernels/internal\common.h ****   using gemmlowp::SaturatingRoundingDoublingHighMul;
 161:C:/Renesas/e2studio_2021_01_workspace_RZA2M_ANPR/ANPR_RZA2M_GR_MANGO/src/tensorflow_lite/tensorflow/lite/kernels/internal\common.h ****   int left_shift = shift > 0 ? shift : 0;
 162:C:/Renesas/e2studio_2021_01_workspace_RZA2M_ANPR/ANPR_RZA2M_GR_MANGO/src/tensorflow_lite/tensorflow/lite/kernels/internal\common.h ****   int right_shift = shift > 0 ? 0 : -shift;
 2123              		.loc 8 162 0
 2124 06e0 000051E3 		cmp	r1, #0
 2125              	.LBE1003:
 2126              	.LBE1051:
 2127              		.loc 6 107 0
 2128 06e4 043092E4 		ldr	r3, [r2], #4
 2129 06e8 84208DE5 		str	r2, [sp, #132]
 2130              	.LVL217:
 2131              	.LBB1052:
 2132              	.LBB1004:
 161:C:/Renesas/e2studio_2021_01_workspace_RZA2M_ANPR/ANPR_RZA2M_GR_MANGO/src/tensorflow_lite/tensorflow/lite/kernels/internal\common.h ****   int right_shift = shift > 0 ? 0 : -shift;
 2133              		.loc 8 161 0
 2134 06ec C12FC1E1 		bic	r2, r1, r1, asr #31
 2135              	.LVL218:
 2136              		.loc 8 162 0
 2137 06f0 001061D2 		rsble	r1, r1, #0
 2138              	.LVL219:
 163:C:/Renesas/e2studio_2021_01_workspace_RZA2M_ANPR/ANPR_RZA2M_GR_MANGO/src/tensorflow_lite/tensorflow/lite/kernels/internal\common.h ****   return RoundingDivideByPOT(SaturatingRoundingDoublingHighMul(
 2139              		.loc 8 163 0
 2140 06f4 1662A0E1 		lsl	r6, r6, r2
 2141              	.LVL220:
 162:C:/Renesas/e2studio_2021_01_workspace_RZA2M_ANPR/ANPR_RZA2M_GR_MANGO/src/tensorflow_lite/tensorflow/lite/kernels/internal\common.h ****   return RoundingDivideByPOT(SaturatingRoundingDoublingHighMul(
 2142              		.loc 8 162 0
 2143 06f8 0010A0C3 		movgt	r1, #0
 2144              	.LVL221:
 2145              	.LBB997:
 2146              	.LBB998:
 334:C:/Renesas/e2studio_2021_01_workspace_RZA2M_ANPR/ANPR_RZA2M_GR_MANGO/src/tensorflow_lite/third_party/gemmlowp/fixedpoint\fixedpoint.h ****   std::int32_t nudge = ab_64 >= 0 ? (1 << 30) : (1 - (1 << 30));
 2147              		.loc 7 334 0
 2148 06fc 9643C5E0 		smull	r4, r5, r6, r3
 331:C:/Renesas/e2studio_2021_01_workspace_RZA2M_ANPR/ANPR_RZA2M_GR_MANGO/src/tensorflow_lite/third_party/gemmlowp/fixedpoint\fixedpoint.h ****   std::int64_t a_64(a);
 2149              		.loc 7 331 0
 2150 0700 060053E1 		cmp	r3, r6
 2151 0704 02015603 		cmpeq	r6, #-2147483648
 2152 0708 0160A003 		moveq	r6, #1
 2153              	.LVL222:
 2154 070c 0060A013 		movne	r6, #0
 2155              	.LVL223:
 335:C:/Renesas/e2studio_2021_01_workspace_RZA2M_ANPR/ANPR_RZA2M_GR_MANGO/src/tensorflow_lite/third_party/gemmlowp/fixedpoint\fixedpoint.h ****   std::int32_t ab_x2_high32 =
 2156              		.loc 7 335 0
 2157 0710 000054E3 		cmp	r4, #0
 2158 0714 0030D5E2 		sbcs	r3, r5, #0
 2159              	.LVL224:
 2160 0718 AD0200BA 		blt	.L376
 2161 071c 0121A0E3 		mov	r2, #1073741824
 2162              	.LVL225:
 2163 0720 0030A0E3 		mov	r3, #0
 2164              	.L279:
 2165              	.LVL226:
 338:C:/Renesas/e2studio_2021_01_workspace_RZA2M_ANPR/ANPR_RZA2M_GR_MANGO/src/tensorflow_lite/third_party/gemmlowp/fixedpoint\fixedpoint.h **** }
 2166              		.loc 7 338 0
 2167 0724 000056E3 		cmp	r6, #0
 2168 0728 A702001A 		bne	.L586
 337:C:/Renesas/e2studio_2021_01_workspace_RZA2M_ANPR/ANPR_RZA2M_GR_MANGO/src/tensorflow_lite/third_party/gemmlowp/fixedpoint\fixedpoint.h ****   return overflow ? std::numeric_limits<std::int32_t>::max() : ab_x2_high32;
 2169              		.loc 7 337 0
 2170 072c 024094E0 		adds	r4, r4, r2
 2171              	.LVL227:
 2172 0730 0350A5E0 		adc	r5, r5, r3
 2173 0734 0030A0E3 		mov	r3, #0
 2174 0738 C52FA0E1 		asr	r2, r5, #31
 2175 073c 0221C2E3 		bic	r2, r2, #-2147483648
 2176 0740 042092E0 		adds	r2, r2, r4
 2177 0744 A22FA0E1 		lsr	r2, r2, #31
 2178 0748 0530A3E0 		adc	r3, r3, r5
 2179 074c 832082E1 		orr	r2, r2, r3, lsl #1
 2180              	.L325:
 2181              	.LVL228:
 2182              	.LBE998:
 2183              	.LBE997:
 2184              	.LBB1000:
 2185              	.LBB995:
 359:C:/Renesas/e2studio_2021_01_workspace_RZA2M_ANPR/ANPR_RZA2M_GR_MANGO/src/tensorflow_lite/third_party/gemmlowp/fixedpoint\fixedpoint.h ****   const IntegerType mask = Dup<IntegerType>((1ll << exponent) - 1);
 2186              		.loc 7 359 0
 2187 0750 1F0051E3 		cmp	r1, #31
 2188 0754 280400CA 		bgt	.L587
 2189              		.loc 7 360 0
 2190 0758 901B02EE 		vmov.32	d18[0], r1
 2191              	.LBB985:
 2192              	.LBB986:
 141:C:/Renesas/e2studio_2021_01_workspace_RZA2M_ANPR/ANPR_RZA2M_GR_MANGO/src/tensorflow_lite/third_party/gemmlowp/fixedpoint\fixedpoint.h **** }
 2193              		.loc 7 141 0
 2194 075c 5211A0E1 		asr	r1, r2, r1
 2195              	.LVL229:
 2196              	.LBE986:
 2197              	.LBE985:
 2198              		.loc 7 360 0
 2199 0760 A01472F3 		vshl.u64	d17, d16, d18
 2200 0764 314B55EC 		vmov	r4, r5, d17	@ int
 2201 0768 013044E2 		sub	r3, r4, #1
 2202              	.LVL230:
 2203              	.LBB987:
 2204              	.LBB988:
 141:C:/Renesas/e2studio_2021_01_workspace_RZA2M_ANPR/ANPR_RZA2M_GR_MANGO/src/tensorflow_lite/third_party/gemmlowp/fixedpoint\fixedpoint.h **** }
 2205              		.loc 7 141 0
 2206 076c C300A0E1 		asr	r0, r3, #1
 2207              	.LBE988:
 2208              	.LBE987:
 2209              	.LBB989:
 2210              	.LBB990:
  71:C:/Renesas/e2studio_2021_01_workspace_RZA2M_ANPR/ANPR_RZA2M_GR_MANGO/src/tensorflow_lite/third_party/gemmlowp/fixedpoint\fixedpoint.h **** }
 2211              		.loc 7 71 0
 2212 0770 023003E0 		and	r3, r3, r2
 2213              	.LBE990:
 2214              	.LBE989:
 2215              	.LBB991:
 2216              	.LBB992:
  95:C:/Renesas/e2studio_2021_01_workspace_RZA2M_ANPR/ANPR_RZA2M_GR_MANGO/src/tensorflow_lite/third_party/gemmlowp/fixedpoint\fixedpoint.h **** }
 2217              		.loc 7 95 0
 2218 0774 A22F80E0 		add	r2, r0, r2, lsr #31
 2219              	.LBE992:
 2220              	.LBE991:
 2221              	.LBB993:
 2222              	.LBB994:
 2223 0778 020053E1 		cmp	r3, r2
 2224 077c 0130A0D1 		movle	r3, r1
 2225 0780 013081C2 		addgt	r3, r1, #1
 2226              	.LBE994:
 2227              	.LBE993:
 2228              	.LBE995:
 2229              	.LBE1000:
 2230              	.LBE1004:
 2231              	.LBE1052:
 108:C:/Renesas/e2studio_2021_01_workspace_RZA2M_ANPR/ANPR_RZA2M_GR_MANGO/src/tensorflow_lite/tensorflow/lite/kernels/internal/reference/integer_ops\depthwise_conv.h ****                 acc, output_multiplier[output_channel],
 109:C:/Renesas/e2studio_2021_01_workspace_RZA2M_ANPR/ANPR_RZA2M_GR_MANGO/src/tensorflow_lite/tensorflow/lite/kernels/internal/reference/integer_ops\depthwise_conv.h ****                 output_shift[output_channel]);
 110:C:/Renesas/e2studio_2021_01_workspace_RZA2M_ANPR/ANPR_RZA2M_GR_MANGO/src/tensorflow_lite/tensorflow/lite/kernels/internal/reference/integer_ops\depthwise_conv.h ****             acc += output_offset;
 2232              		.loc 6 110 0
 2233 0784 AC209DE5 		ldr	r2, [sp, #172]
 2234 0788 023083E0 		add	r3, r3, r2
 2235              	.LVL231:
 2236              	.LBB1053:
 2237              	.LBB1054:
 2238              		.file 9 "c:\\program files (x86)\\gnu tools arm embedded\\6 2017-q2-update\\arm-none-eabi\\include
   1:c:\program files (x86)\gnu tools arm embedded\6 2017-q2-update\arm-none-eabi\include\c++\6.3.1\bits\stl_algobase.h **** // Core algorithmic facilities -*- C++ -*-
   2:c:\program files (x86)\gnu tools arm embedded\6 2017-q2-update\arm-none-eabi\include\c++\6.3.1\bits\stl_algobase.h **** 
   3:c:\program files (x86)\gnu tools arm embedded\6 2017-q2-update\arm-none-eabi\include\c++\6.3.1\bits\stl_algobase.h **** // Copyright (C) 2001-2016 Free Software Foundation, Inc.
   4:c:\program files (x86)\gnu tools arm embedded\6 2017-q2-update\arm-none-eabi\include\c++\6.3.1\bits\stl_algobase.h **** //
   5:c:\program files (x86)\gnu tools arm embedded\6 2017-q2-update\arm-none-eabi\include\c++\6.3.1\bits\stl_algobase.h **** // This file is part of the GNU ISO C++ Library.  This library is free
   6:c:\program files (x86)\gnu tools arm embedded\6 2017-q2-update\arm-none-eabi\include\c++\6.3.1\bits\stl_algobase.h **** // software; you can redistribute it and/or modify it under the
   7:c:\program files (x86)\gnu tools arm embedded\6 2017-q2-update\arm-none-eabi\include\c++\6.3.1\bits\stl_algobase.h **** // terms of the GNU General Public License as published by the
   8:c:\program files (x86)\gnu tools arm embedded\6 2017-q2-update\arm-none-eabi\include\c++\6.3.1\bits\stl_algobase.h **** // Free Software Foundation; either version 3, or (at your option)
   9:c:\program files (x86)\gnu tools arm embedded\6 2017-q2-update\arm-none-eabi\include\c++\6.3.1\bits\stl_algobase.h **** // any later version.
  10:c:\program files (x86)\gnu tools arm embedded\6 2017-q2-update\arm-none-eabi\include\c++\6.3.1\bits\stl_algobase.h **** 
  11:c:\program files (x86)\gnu tools arm embedded\6 2017-q2-update\arm-none-eabi\include\c++\6.3.1\bits\stl_algobase.h **** // This library is distributed in the hope that it will be useful,
  12:c:\program files (x86)\gnu tools arm embedded\6 2017-q2-update\arm-none-eabi\include\c++\6.3.1\bits\stl_algobase.h **** // but WITHOUT ANY WARRANTY; without even the implied warranty of
  13:c:\program files (x86)\gnu tools arm embedded\6 2017-q2-update\arm-none-eabi\include\c++\6.3.1\bits\stl_algobase.h **** // MERCHANTABILITY or FITNESS FOR A PARTICULAR PURPOSE.  See the
  14:c:\program files (x86)\gnu tools arm embedded\6 2017-q2-update\arm-none-eabi\include\c++\6.3.1\bits\stl_algobase.h **** // GNU General Public License for more details.
  15:c:\program files (x86)\gnu tools arm embedded\6 2017-q2-update\arm-none-eabi\include\c++\6.3.1\bits\stl_algobase.h **** 
  16:c:\program files (x86)\gnu tools arm embedded\6 2017-q2-update\arm-none-eabi\include\c++\6.3.1\bits\stl_algobase.h **** // Under Section 7 of GPL version 3, you are granted additional
  17:c:\program files (x86)\gnu tools arm embedded\6 2017-q2-update\arm-none-eabi\include\c++\6.3.1\bits\stl_algobase.h **** // permissions described in the GCC Runtime Library Exception, version
  18:c:\program files (x86)\gnu tools arm embedded\6 2017-q2-update\arm-none-eabi\include\c++\6.3.1\bits\stl_algobase.h **** // 3.1, as published by the Free Software Foundation.
  19:c:\program files (x86)\gnu tools arm embedded\6 2017-q2-update\arm-none-eabi\include\c++\6.3.1\bits\stl_algobase.h **** 
  20:c:\program files (x86)\gnu tools arm embedded\6 2017-q2-update\arm-none-eabi\include\c++\6.3.1\bits\stl_algobase.h **** // You should have received a copy of the GNU General Public License and
  21:c:\program files (x86)\gnu tools arm embedded\6 2017-q2-update\arm-none-eabi\include\c++\6.3.1\bits\stl_algobase.h **** // a copy of the GCC Runtime Library Exception along with this program;
  22:c:\program files (x86)\gnu tools arm embedded\6 2017-q2-update\arm-none-eabi\include\c++\6.3.1\bits\stl_algobase.h **** // see the files COPYING3 and COPYING.RUNTIME respectively.  If not, see
  23:c:\program files (x86)\gnu tools arm embedded\6 2017-q2-update\arm-none-eabi\include\c++\6.3.1\bits\stl_algobase.h **** // <http://www.gnu.org/licenses/>.
  24:c:\program files (x86)\gnu tools arm embedded\6 2017-q2-update\arm-none-eabi\include\c++\6.3.1\bits\stl_algobase.h **** 
  25:c:\program files (x86)\gnu tools arm embedded\6 2017-q2-update\arm-none-eabi\include\c++\6.3.1\bits\stl_algobase.h **** /*
  26:c:\program files (x86)\gnu tools arm embedded\6 2017-q2-update\arm-none-eabi\include\c++\6.3.1\bits\stl_algobase.h ****  *
  27:c:\program files (x86)\gnu tools arm embedded\6 2017-q2-update\arm-none-eabi\include\c++\6.3.1\bits\stl_algobase.h ****  * Copyright (c) 1994
  28:c:\program files (x86)\gnu tools arm embedded\6 2017-q2-update\arm-none-eabi\include\c++\6.3.1\bits\stl_algobase.h ****  * Hewlett-Packard Company
  29:c:\program files (x86)\gnu tools arm embedded\6 2017-q2-update\arm-none-eabi\include\c++\6.3.1\bits\stl_algobase.h ****  *
  30:c:\program files (x86)\gnu tools arm embedded\6 2017-q2-update\arm-none-eabi\include\c++\6.3.1\bits\stl_algobase.h ****  * Permission to use, copy, modify, distribute and sell this software
  31:c:\program files (x86)\gnu tools arm embedded\6 2017-q2-update\arm-none-eabi\include\c++\6.3.1\bits\stl_algobase.h ****  * and its documentation for any purpose is hereby granted without fee,
  32:c:\program files (x86)\gnu tools arm embedded\6 2017-q2-update\arm-none-eabi\include\c++\6.3.1\bits\stl_algobase.h ****  * provided that the above copyright notice appear in all copies and
  33:c:\program files (x86)\gnu tools arm embedded\6 2017-q2-update\arm-none-eabi\include\c++\6.3.1\bits\stl_algobase.h ****  * that both that copyright notice and this permission notice appear
  34:c:\program files (x86)\gnu tools arm embedded\6 2017-q2-update\arm-none-eabi\include\c++\6.3.1\bits\stl_algobase.h ****  * in supporting documentation.  Hewlett-Packard Company makes no
  35:c:\program files (x86)\gnu tools arm embedded\6 2017-q2-update\arm-none-eabi\include\c++\6.3.1\bits\stl_algobase.h ****  * representations about the suitability of this software for any
  36:c:\program files (x86)\gnu tools arm embedded\6 2017-q2-update\arm-none-eabi\include\c++\6.3.1\bits\stl_algobase.h ****  * purpose.  It is provided "as is" without express or implied warranty.
  37:c:\program files (x86)\gnu tools arm embedded\6 2017-q2-update\arm-none-eabi\include\c++\6.3.1\bits\stl_algobase.h ****  *
  38:c:\program files (x86)\gnu tools arm embedded\6 2017-q2-update\arm-none-eabi\include\c++\6.3.1\bits\stl_algobase.h ****  *
  39:c:\program files (x86)\gnu tools arm embedded\6 2017-q2-update\arm-none-eabi\include\c++\6.3.1\bits\stl_algobase.h ****  * Copyright (c) 1996-1998
  40:c:\program files (x86)\gnu tools arm embedded\6 2017-q2-update\arm-none-eabi\include\c++\6.3.1\bits\stl_algobase.h ****  * Silicon Graphics Computer Systems, Inc.
  41:c:\program files (x86)\gnu tools arm embedded\6 2017-q2-update\arm-none-eabi\include\c++\6.3.1\bits\stl_algobase.h ****  *
  42:c:\program files (x86)\gnu tools arm embedded\6 2017-q2-update\arm-none-eabi\include\c++\6.3.1\bits\stl_algobase.h ****  * Permission to use, copy, modify, distribute and sell this software
  43:c:\program files (x86)\gnu tools arm embedded\6 2017-q2-update\arm-none-eabi\include\c++\6.3.1\bits\stl_algobase.h ****  * and its documentation for any purpose is hereby granted without fee,
  44:c:\program files (x86)\gnu tools arm embedded\6 2017-q2-update\arm-none-eabi\include\c++\6.3.1\bits\stl_algobase.h ****  * provided that the above copyright notice appear in all copies and
  45:c:\program files (x86)\gnu tools arm embedded\6 2017-q2-update\arm-none-eabi\include\c++\6.3.1\bits\stl_algobase.h ****  * that both that copyright notice and this permission notice appear
  46:c:\program files (x86)\gnu tools arm embedded\6 2017-q2-update\arm-none-eabi\include\c++\6.3.1\bits\stl_algobase.h ****  * in supporting documentation.  Silicon Graphics makes no
  47:c:\program files (x86)\gnu tools arm embedded\6 2017-q2-update\arm-none-eabi\include\c++\6.3.1\bits\stl_algobase.h ****  * representations about the suitability of this software for any
  48:c:\program files (x86)\gnu tools arm embedded\6 2017-q2-update\arm-none-eabi\include\c++\6.3.1\bits\stl_algobase.h ****  * purpose.  It is provided "as is" without express or implied warranty.
  49:c:\program files (x86)\gnu tools arm embedded\6 2017-q2-update\arm-none-eabi\include\c++\6.3.1\bits\stl_algobase.h ****  */
  50:c:\program files (x86)\gnu tools arm embedded\6 2017-q2-update\arm-none-eabi\include\c++\6.3.1\bits\stl_algobase.h **** 
  51:c:\program files (x86)\gnu tools arm embedded\6 2017-q2-update\arm-none-eabi\include\c++\6.3.1\bits\stl_algobase.h **** /** @file bits/stl_algobase.h
  52:c:\program files (x86)\gnu tools arm embedded\6 2017-q2-update\arm-none-eabi\include\c++\6.3.1\bits\stl_algobase.h ****  *  This is an internal header file, included by other library headers.
  53:c:\program files (x86)\gnu tools arm embedded\6 2017-q2-update\arm-none-eabi\include\c++\6.3.1\bits\stl_algobase.h ****  *  Do not attempt to use it directly. @headername{algorithm}
  54:c:\program files (x86)\gnu tools arm embedded\6 2017-q2-update\arm-none-eabi\include\c++\6.3.1\bits\stl_algobase.h ****  */
  55:c:\program files (x86)\gnu tools arm embedded\6 2017-q2-update\arm-none-eabi\include\c++\6.3.1\bits\stl_algobase.h **** 
  56:c:\program files (x86)\gnu tools arm embedded\6 2017-q2-update\arm-none-eabi\include\c++\6.3.1\bits\stl_algobase.h **** #ifndef _STL_ALGOBASE_H
  57:c:\program files (x86)\gnu tools arm embedded\6 2017-q2-update\arm-none-eabi\include\c++\6.3.1\bits\stl_algobase.h **** #define _STL_ALGOBASE_H 1
  58:c:\program files (x86)\gnu tools arm embedded\6 2017-q2-update\arm-none-eabi\include\c++\6.3.1\bits\stl_algobase.h **** 
  59:c:\program files (x86)\gnu tools arm embedded\6 2017-q2-update\arm-none-eabi\include\c++\6.3.1\bits\stl_algobase.h **** #include <bits/c++config.h>
  60:c:\program files (x86)\gnu tools arm embedded\6 2017-q2-update\arm-none-eabi\include\c++\6.3.1\bits\stl_algobase.h **** #include <bits/functexcept.h>
  61:c:\program files (x86)\gnu tools arm embedded\6 2017-q2-update\arm-none-eabi\include\c++\6.3.1\bits\stl_algobase.h **** #include <bits/cpp_type_traits.h>
  62:c:\program files (x86)\gnu tools arm embedded\6 2017-q2-update\arm-none-eabi\include\c++\6.3.1\bits\stl_algobase.h **** #include <ext/type_traits.h>
  63:c:\program files (x86)\gnu tools arm embedded\6 2017-q2-update\arm-none-eabi\include\c++\6.3.1\bits\stl_algobase.h **** #include <ext/numeric_traits.h>
  64:c:\program files (x86)\gnu tools arm embedded\6 2017-q2-update\arm-none-eabi\include\c++\6.3.1\bits\stl_algobase.h **** #include <bits/stl_pair.h>
  65:c:\program files (x86)\gnu tools arm embedded\6 2017-q2-update\arm-none-eabi\include\c++\6.3.1\bits\stl_algobase.h **** #include <bits/stl_iterator_base_types.h>
  66:c:\program files (x86)\gnu tools arm embedded\6 2017-q2-update\arm-none-eabi\include\c++\6.3.1\bits\stl_algobase.h **** #include <bits/stl_iterator_base_funcs.h>
  67:c:\program files (x86)\gnu tools arm embedded\6 2017-q2-update\arm-none-eabi\include\c++\6.3.1\bits\stl_algobase.h **** #include <bits/stl_iterator.h>
  68:c:\program files (x86)\gnu tools arm embedded\6 2017-q2-update\arm-none-eabi\include\c++\6.3.1\bits\stl_algobase.h **** #include <bits/concept_check.h>
  69:c:\program files (x86)\gnu tools arm embedded\6 2017-q2-update\arm-none-eabi\include\c++\6.3.1\bits\stl_algobase.h **** #include <debug/debug.h>
  70:c:\program files (x86)\gnu tools arm embedded\6 2017-q2-update\arm-none-eabi\include\c++\6.3.1\bits\stl_algobase.h **** #include <bits/move.h> // For std::swap and _GLIBCXX_MOVE
  71:c:\program files (x86)\gnu tools arm embedded\6 2017-q2-update\arm-none-eabi\include\c++\6.3.1\bits\stl_algobase.h **** #include <bits/predefined_ops.h>
  72:c:\program files (x86)\gnu tools arm embedded\6 2017-q2-update\arm-none-eabi\include\c++\6.3.1\bits\stl_algobase.h **** 
  73:c:\program files (x86)\gnu tools arm embedded\6 2017-q2-update\arm-none-eabi\include\c++\6.3.1\bits\stl_algobase.h **** namespace std _GLIBCXX_VISIBILITY(default)
  74:c:\program files (x86)\gnu tools arm embedded\6 2017-q2-update\arm-none-eabi\include\c++\6.3.1\bits\stl_algobase.h **** {
  75:c:\program files (x86)\gnu tools arm embedded\6 2017-q2-update\arm-none-eabi\include\c++\6.3.1\bits\stl_algobase.h **** _GLIBCXX_BEGIN_NAMESPACE_VERSION
  76:c:\program files (x86)\gnu tools arm embedded\6 2017-q2-update\arm-none-eabi\include\c++\6.3.1\bits\stl_algobase.h **** 
  77:c:\program files (x86)\gnu tools arm embedded\6 2017-q2-update\arm-none-eabi\include\c++\6.3.1\bits\stl_algobase.h **** #if __cplusplus < 201103L
  78:c:\program files (x86)\gnu tools arm embedded\6 2017-q2-update\arm-none-eabi\include\c++\6.3.1\bits\stl_algobase.h ****   // See http://gcc.gnu.org/ml/libstdc++/2004-08/msg00167.html: in a
  79:c:\program files (x86)\gnu tools arm embedded\6 2017-q2-update\arm-none-eabi\include\c++\6.3.1\bits\stl_algobase.h ****   // nutshell, we are partially implementing the resolution of DR 187,
  80:c:\program files (x86)\gnu tools arm embedded\6 2017-q2-update\arm-none-eabi\include\c++\6.3.1\bits\stl_algobase.h ****   // when it's safe, i.e., the value_types are equal.
  81:c:\program files (x86)\gnu tools arm embedded\6 2017-q2-update\arm-none-eabi\include\c++\6.3.1\bits\stl_algobase.h ****   template<bool _BoolType>
  82:c:\program files (x86)\gnu tools arm embedded\6 2017-q2-update\arm-none-eabi\include\c++\6.3.1\bits\stl_algobase.h ****     struct __iter_swap
  83:c:\program files (x86)\gnu tools arm embedded\6 2017-q2-update\arm-none-eabi\include\c++\6.3.1\bits\stl_algobase.h ****     {
  84:c:\program files (x86)\gnu tools arm embedded\6 2017-q2-update\arm-none-eabi\include\c++\6.3.1\bits\stl_algobase.h ****       template<typename _ForwardIterator1, typename _ForwardIterator2>
  85:c:\program files (x86)\gnu tools arm embedded\6 2017-q2-update\arm-none-eabi\include\c++\6.3.1\bits\stl_algobase.h ****         static void
  86:c:\program files (x86)\gnu tools arm embedded\6 2017-q2-update\arm-none-eabi\include\c++\6.3.1\bits\stl_algobase.h ****         iter_swap(_ForwardIterator1 __a, _ForwardIterator2 __b)
  87:c:\program files (x86)\gnu tools arm embedded\6 2017-q2-update\arm-none-eabi\include\c++\6.3.1\bits\stl_algobase.h ****         {
  88:c:\program files (x86)\gnu tools arm embedded\6 2017-q2-update\arm-none-eabi\include\c++\6.3.1\bits\stl_algobase.h ****           typedef typename iterator_traits<_ForwardIterator1>::value_type
  89:c:\program files (x86)\gnu tools arm embedded\6 2017-q2-update\arm-none-eabi\include\c++\6.3.1\bits\stl_algobase.h ****             _ValueType1;
  90:c:\program files (x86)\gnu tools arm embedded\6 2017-q2-update\arm-none-eabi\include\c++\6.3.1\bits\stl_algobase.h ****           _ValueType1 __tmp = _GLIBCXX_MOVE(*__a);
  91:c:\program files (x86)\gnu tools arm embedded\6 2017-q2-update\arm-none-eabi\include\c++\6.3.1\bits\stl_algobase.h ****           *__a = _GLIBCXX_MOVE(*__b);
  92:c:\program files (x86)\gnu tools arm embedded\6 2017-q2-update\arm-none-eabi\include\c++\6.3.1\bits\stl_algobase.h ****           *__b = _GLIBCXX_MOVE(__tmp);
  93:c:\program files (x86)\gnu tools arm embedded\6 2017-q2-update\arm-none-eabi\include\c++\6.3.1\bits\stl_algobase.h **** 	}
  94:c:\program files (x86)\gnu tools arm embedded\6 2017-q2-update\arm-none-eabi\include\c++\6.3.1\bits\stl_algobase.h ****     };
  95:c:\program files (x86)\gnu tools arm embedded\6 2017-q2-update\arm-none-eabi\include\c++\6.3.1\bits\stl_algobase.h **** 
  96:c:\program files (x86)\gnu tools arm embedded\6 2017-q2-update\arm-none-eabi\include\c++\6.3.1\bits\stl_algobase.h ****   template<>
  97:c:\program files (x86)\gnu tools arm embedded\6 2017-q2-update\arm-none-eabi\include\c++\6.3.1\bits\stl_algobase.h ****     struct __iter_swap<true>
  98:c:\program files (x86)\gnu tools arm embedded\6 2017-q2-update\arm-none-eabi\include\c++\6.3.1\bits\stl_algobase.h ****     {
  99:c:\program files (x86)\gnu tools arm embedded\6 2017-q2-update\arm-none-eabi\include\c++\6.3.1\bits\stl_algobase.h ****       template<typename _ForwardIterator1, typename _ForwardIterator2>
 100:c:\program files (x86)\gnu tools arm embedded\6 2017-q2-update\arm-none-eabi\include\c++\6.3.1\bits\stl_algobase.h ****         static void 
 101:c:\program files (x86)\gnu tools arm embedded\6 2017-q2-update\arm-none-eabi\include\c++\6.3.1\bits\stl_algobase.h ****         iter_swap(_ForwardIterator1 __a, _ForwardIterator2 __b)
 102:c:\program files (x86)\gnu tools arm embedded\6 2017-q2-update\arm-none-eabi\include\c++\6.3.1\bits\stl_algobase.h ****         {
 103:c:\program files (x86)\gnu tools arm embedded\6 2017-q2-update\arm-none-eabi\include\c++\6.3.1\bits\stl_algobase.h ****           swap(*__a, *__b);
 104:c:\program files (x86)\gnu tools arm embedded\6 2017-q2-update\arm-none-eabi\include\c++\6.3.1\bits\stl_algobase.h ****         }
 105:c:\program files (x86)\gnu tools arm embedded\6 2017-q2-update\arm-none-eabi\include\c++\6.3.1\bits\stl_algobase.h ****     };
 106:c:\program files (x86)\gnu tools arm embedded\6 2017-q2-update\arm-none-eabi\include\c++\6.3.1\bits\stl_algobase.h **** #endif
 107:c:\program files (x86)\gnu tools arm embedded\6 2017-q2-update\arm-none-eabi\include\c++\6.3.1\bits\stl_algobase.h **** 
 108:c:\program files (x86)\gnu tools arm embedded\6 2017-q2-update\arm-none-eabi\include\c++\6.3.1\bits\stl_algobase.h ****   /**
 109:c:\program files (x86)\gnu tools arm embedded\6 2017-q2-update\arm-none-eabi\include\c++\6.3.1\bits\stl_algobase.h ****    *  @brief Swaps the contents of two iterators.
 110:c:\program files (x86)\gnu tools arm embedded\6 2017-q2-update\arm-none-eabi\include\c++\6.3.1\bits\stl_algobase.h ****    *  @ingroup mutating_algorithms
 111:c:\program files (x86)\gnu tools arm embedded\6 2017-q2-update\arm-none-eabi\include\c++\6.3.1\bits\stl_algobase.h ****    *  @param  __a  An iterator.
 112:c:\program files (x86)\gnu tools arm embedded\6 2017-q2-update\arm-none-eabi\include\c++\6.3.1\bits\stl_algobase.h ****    *  @param  __b  Another iterator.
 113:c:\program files (x86)\gnu tools arm embedded\6 2017-q2-update\arm-none-eabi\include\c++\6.3.1\bits\stl_algobase.h ****    *  @return   Nothing.
 114:c:\program files (x86)\gnu tools arm embedded\6 2017-q2-update\arm-none-eabi\include\c++\6.3.1\bits\stl_algobase.h ****    *
 115:c:\program files (x86)\gnu tools arm embedded\6 2017-q2-update\arm-none-eabi\include\c++\6.3.1\bits\stl_algobase.h ****    *  This function swaps the values pointed to by two iterators, not the
 116:c:\program files (x86)\gnu tools arm embedded\6 2017-q2-update\arm-none-eabi\include\c++\6.3.1\bits\stl_algobase.h ****    *  iterators themselves.
 117:c:\program files (x86)\gnu tools arm embedded\6 2017-q2-update\arm-none-eabi\include\c++\6.3.1\bits\stl_algobase.h ****   */
 118:c:\program files (x86)\gnu tools arm embedded\6 2017-q2-update\arm-none-eabi\include\c++\6.3.1\bits\stl_algobase.h ****   template<typename _ForwardIterator1, typename _ForwardIterator2>
 119:c:\program files (x86)\gnu tools arm embedded\6 2017-q2-update\arm-none-eabi\include\c++\6.3.1\bits\stl_algobase.h ****     inline void
 120:c:\program files (x86)\gnu tools arm embedded\6 2017-q2-update\arm-none-eabi\include\c++\6.3.1\bits\stl_algobase.h ****     iter_swap(_ForwardIterator1 __a, _ForwardIterator2 __b)
 121:c:\program files (x86)\gnu tools arm embedded\6 2017-q2-update\arm-none-eabi\include\c++\6.3.1\bits\stl_algobase.h ****     {
 122:c:\program files (x86)\gnu tools arm embedded\6 2017-q2-update\arm-none-eabi\include\c++\6.3.1\bits\stl_algobase.h ****       // concept requirements
 123:c:\program files (x86)\gnu tools arm embedded\6 2017-q2-update\arm-none-eabi\include\c++\6.3.1\bits\stl_algobase.h ****       __glibcxx_function_requires(_Mutable_ForwardIteratorConcept<
 124:c:\program files (x86)\gnu tools arm embedded\6 2017-q2-update\arm-none-eabi\include\c++\6.3.1\bits\stl_algobase.h **** 				  _ForwardIterator1>)
 125:c:\program files (x86)\gnu tools arm embedded\6 2017-q2-update\arm-none-eabi\include\c++\6.3.1\bits\stl_algobase.h ****       __glibcxx_function_requires(_Mutable_ForwardIteratorConcept<
 126:c:\program files (x86)\gnu tools arm embedded\6 2017-q2-update\arm-none-eabi\include\c++\6.3.1\bits\stl_algobase.h **** 				  _ForwardIterator2>)
 127:c:\program files (x86)\gnu tools arm embedded\6 2017-q2-update\arm-none-eabi\include\c++\6.3.1\bits\stl_algobase.h **** 
 128:c:\program files (x86)\gnu tools arm embedded\6 2017-q2-update\arm-none-eabi\include\c++\6.3.1\bits\stl_algobase.h **** #if __cplusplus < 201103L
 129:c:\program files (x86)\gnu tools arm embedded\6 2017-q2-update\arm-none-eabi\include\c++\6.3.1\bits\stl_algobase.h ****       typedef typename iterator_traits<_ForwardIterator1>::value_type
 130:c:\program files (x86)\gnu tools arm embedded\6 2017-q2-update\arm-none-eabi\include\c++\6.3.1\bits\stl_algobase.h **** 	_ValueType1;
 131:c:\program files (x86)\gnu tools arm embedded\6 2017-q2-update\arm-none-eabi\include\c++\6.3.1\bits\stl_algobase.h ****       typedef typename iterator_traits<_ForwardIterator2>::value_type
 132:c:\program files (x86)\gnu tools arm embedded\6 2017-q2-update\arm-none-eabi\include\c++\6.3.1\bits\stl_algobase.h **** 	_ValueType2;
 133:c:\program files (x86)\gnu tools arm embedded\6 2017-q2-update\arm-none-eabi\include\c++\6.3.1\bits\stl_algobase.h **** 
 134:c:\program files (x86)\gnu tools arm embedded\6 2017-q2-update\arm-none-eabi\include\c++\6.3.1\bits\stl_algobase.h ****       __glibcxx_function_requires(_ConvertibleConcept<_ValueType1,
 135:c:\program files (x86)\gnu tools arm embedded\6 2017-q2-update\arm-none-eabi\include\c++\6.3.1\bits\stl_algobase.h **** 				  _ValueType2>)
 136:c:\program files (x86)\gnu tools arm embedded\6 2017-q2-update\arm-none-eabi\include\c++\6.3.1\bits\stl_algobase.h ****       __glibcxx_function_requires(_ConvertibleConcept<_ValueType2,
 137:c:\program files (x86)\gnu tools arm embedded\6 2017-q2-update\arm-none-eabi\include\c++\6.3.1\bits\stl_algobase.h **** 				  _ValueType1>)
 138:c:\program files (x86)\gnu tools arm embedded\6 2017-q2-update\arm-none-eabi\include\c++\6.3.1\bits\stl_algobase.h **** 
 139:c:\program files (x86)\gnu tools arm embedded\6 2017-q2-update\arm-none-eabi\include\c++\6.3.1\bits\stl_algobase.h ****       typedef typename iterator_traits<_ForwardIterator1>::reference
 140:c:\program files (x86)\gnu tools arm embedded\6 2017-q2-update\arm-none-eabi\include\c++\6.3.1\bits\stl_algobase.h **** 	_ReferenceType1;
 141:c:\program files (x86)\gnu tools arm embedded\6 2017-q2-update\arm-none-eabi\include\c++\6.3.1\bits\stl_algobase.h ****       typedef typename iterator_traits<_ForwardIterator2>::reference
 142:c:\program files (x86)\gnu tools arm embedded\6 2017-q2-update\arm-none-eabi\include\c++\6.3.1\bits\stl_algobase.h **** 	_ReferenceType2;
 143:c:\program files (x86)\gnu tools arm embedded\6 2017-q2-update\arm-none-eabi\include\c++\6.3.1\bits\stl_algobase.h ****       std::__iter_swap<__are_same<_ValueType1, _ValueType2>::__value
 144:c:\program files (x86)\gnu tools arm embedded\6 2017-q2-update\arm-none-eabi\include\c++\6.3.1\bits\stl_algobase.h **** 	&& __are_same<_ValueType1&, _ReferenceType1>::__value
 145:c:\program files (x86)\gnu tools arm embedded\6 2017-q2-update\arm-none-eabi\include\c++\6.3.1\bits\stl_algobase.h **** 	&& __are_same<_ValueType2&, _ReferenceType2>::__value>::
 146:c:\program files (x86)\gnu tools arm embedded\6 2017-q2-update\arm-none-eabi\include\c++\6.3.1\bits\stl_algobase.h **** 	iter_swap(__a, __b);
 147:c:\program files (x86)\gnu tools arm embedded\6 2017-q2-update\arm-none-eabi\include\c++\6.3.1\bits\stl_algobase.h **** #else
 148:c:\program files (x86)\gnu tools arm embedded\6 2017-q2-update\arm-none-eabi\include\c++\6.3.1\bits\stl_algobase.h ****       swap(*__a, *__b);
 149:c:\program files (x86)\gnu tools arm embedded\6 2017-q2-update\arm-none-eabi\include\c++\6.3.1\bits\stl_algobase.h **** #endif
 150:c:\program files (x86)\gnu tools arm embedded\6 2017-q2-update\arm-none-eabi\include\c++\6.3.1\bits\stl_algobase.h ****     }
 151:c:\program files (x86)\gnu tools arm embedded\6 2017-q2-update\arm-none-eabi\include\c++\6.3.1\bits\stl_algobase.h **** 
 152:c:\program files (x86)\gnu tools arm embedded\6 2017-q2-update\arm-none-eabi\include\c++\6.3.1\bits\stl_algobase.h ****   /**
 153:c:\program files (x86)\gnu tools arm embedded\6 2017-q2-update\arm-none-eabi\include\c++\6.3.1\bits\stl_algobase.h ****    *  @brief Swap the elements of two sequences.
 154:c:\program files (x86)\gnu tools arm embedded\6 2017-q2-update\arm-none-eabi\include\c++\6.3.1\bits\stl_algobase.h ****    *  @ingroup mutating_algorithms
 155:c:\program files (x86)\gnu tools arm embedded\6 2017-q2-update\arm-none-eabi\include\c++\6.3.1\bits\stl_algobase.h ****    *  @param  __first1  A forward iterator.
 156:c:\program files (x86)\gnu tools arm embedded\6 2017-q2-update\arm-none-eabi\include\c++\6.3.1\bits\stl_algobase.h ****    *  @param  __last1   A forward iterator.
 157:c:\program files (x86)\gnu tools arm embedded\6 2017-q2-update\arm-none-eabi\include\c++\6.3.1\bits\stl_algobase.h ****    *  @param  __first2  A forward iterator.
 158:c:\program files (x86)\gnu tools arm embedded\6 2017-q2-update\arm-none-eabi\include\c++\6.3.1\bits\stl_algobase.h ****    *  @return   An iterator equal to @p first2+(last1-first1).
 159:c:\program files (x86)\gnu tools arm embedded\6 2017-q2-update\arm-none-eabi\include\c++\6.3.1\bits\stl_algobase.h ****    *
 160:c:\program files (x86)\gnu tools arm embedded\6 2017-q2-update\arm-none-eabi\include\c++\6.3.1\bits\stl_algobase.h ****    *  Swaps each element in the range @p [first1,last1) with the
 161:c:\program files (x86)\gnu tools arm embedded\6 2017-q2-update\arm-none-eabi\include\c++\6.3.1\bits\stl_algobase.h ****    *  corresponding element in the range @p [first2,(last1-first1)).
 162:c:\program files (x86)\gnu tools arm embedded\6 2017-q2-update\arm-none-eabi\include\c++\6.3.1\bits\stl_algobase.h ****    *  The ranges must not overlap.
 163:c:\program files (x86)\gnu tools arm embedded\6 2017-q2-update\arm-none-eabi\include\c++\6.3.1\bits\stl_algobase.h ****   */
 164:c:\program files (x86)\gnu tools arm embedded\6 2017-q2-update\arm-none-eabi\include\c++\6.3.1\bits\stl_algobase.h ****   template<typename _ForwardIterator1, typename _ForwardIterator2>
 165:c:\program files (x86)\gnu tools arm embedded\6 2017-q2-update\arm-none-eabi\include\c++\6.3.1\bits\stl_algobase.h ****     _ForwardIterator2
 166:c:\program files (x86)\gnu tools arm embedded\6 2017-q2-update\arm-none-eabi\include\c++\6.3.1\bits\stl_algobase.h ****     swap_ranges(_ForwardIterator1 __first1, _ForwardIterator1 __last1,
 167:c:\program files (x86)\gnu tools arm embedded\6 2017-q2-update\arm-none-eabi\include\c++\6.3.1\bits\stl_algobase.h **** 		_ForwardIterator2 __first2)
 168:c:\program files (x86)\gnu tools arm embedded\6 2017-q2-update\arm-none-eabi\include\c++\6.3.1\bits\stl_algobase.h ****     {
 169:c:\program files (x86)\gnu tools arm embedded\6 2017-q2-update\arm-none-eabi\include\c++\6.3.1\bits\stl_algobase.h ****       // concept requirements
 170:c:\program files (x86)\gnu tools arm embedded\6 2017-q2-update\arm-none-eabi\include\c++\6.3.1\bits\stl_algobase.h ****       __glibcxx_function_requires(_Mutable_ForwardIteratorConcept<
 171:c:\program files (x86)\gnu tools arm embedded\6 2017-q2-update\arm-none-eabi\include\c++\6.3.1\bits\stl_algobase.h **** 				  _ForwardIterator1>)
 172:c:\program files (x86)\gnu tools arm embedded\6 2017-q2-update\arm-none-eabi\include\c++\6.3.1\bits\stl_algobase.h ****       __glibcxx_function_requires(_Mutable_ForwardIteratorConcept<
 173:c:\program files (x86)\gnu tools arm embedded\6 2017-q2-update\arm-none-eabi\include\c++\6.3.1\bits\stl_algobase.h **** 				  _ForwardIterator2>)
 174:c:\program files (x86)\gnu tools arm embedded\6 2017-q2-update\arm-none-eabi\include\c++\6.3.1\bits\stl_algobase.h ****       __glibcxx_requires_valid_range(__first1, __last1);
 175:c:\program files (x86)\gnu tools arm embedded\6 2017-q2-update\arm-none-eabi\include\c++\6.3.1\bits\stl_algobase.h **** 
 176:c:\program files (x86)\gnu tools arm embedded\6 2017-q2-update\arm-none-eabi\include\c++\6.3.1\bits\stl_algobase.h ****       for (; __first1 != __last1; ++__first1, (void)++__first2)
 177:c:\program files (x86)\gnu tools arm embedded\6 2017-q2-update\arm-none-eabi\include\c++\6.3.1\bits\stl_algobase.h **** 	std::iter_swap(__first1, __first2);
 178:c:\program files (x86)\gnu tools arm embedded\6 2017-q2-update\arm-none-eabi\include\c++\6.3.1\bits\stl_algobase.h ****       return __first2;
 179:c:\program files (x86)\gnu tools arm embedded\6 2017-q2-update\arm-none-eabi\include\c++\6.3.1\bits\stl_algobase.h ****     }
 180:c:\program files (x86)\gnu tools arm embedded\6 2017-q2-update\arm-none-eabi\include\c++\6.3.1\bits\stl_algobase.h **** 
 181:c:\program files (x86)\gnu tools arm embedded\6 2017-q2-update\arm-none-eabi\include\c++\6.3.1\bits\stl_algobase.h ****   /**
 182:c:\program files (x86)\gnu tools arm embedded\6 2017-q2-update\arm-none-eabi\include\c++\6.3.1\bits\stl_algobase.h ****    *  @brief This does what you think it does.
 183:c:\program files (x86)\gnu tools arm embedded\6 2017-q2-update\arm-none-eabi\include\c++\6.3.1\bits\stl_algobase.h ****    *  @ingroup sorting_algorithms
 184:c:\program files (x86)\gnu tools arm embedded\6 2017-q2-update\arm-none-eabi\include\c++\6.3.1\bits\stl_algobase.h ****    *  @param  __a  A thing of arbitrary type.
 185:c:\program files (x86)\gnu tools arm embedded\6 2017-q2-update\arm-none-eabi\include\c++\6.3.1\bits\stl_algobase.h ****    *  @param  __b  Another thing of arbitrary type.
 186:c:\program files (x86)\gnu tools arm embedded\6 2017-q2-update\arm-none-eabi\include\c++\6.3.1\bits\stl_algobase.h ****    *  @return   The lesser of the parameters.
 187:c:\program files (x86)\gnu tools arm embedded\6 2017-q2-update\arm-none-eabi\include\c++\6.3.1\bits\stl_algobase.h ****    *
 188:c:\program files (x86)\gnu tools arm embedded\6 2017-q2-update\arm-none-eabi\include\c++\6.3.1\bits\stl_algobase.h ****    *  This is the simple classic generic implementation.  It will work on
 189:c:\program files (x86)\gnu tools arm embedded\6 2017-q2-update\arm-none-eabi\include\c++\6.3.1\bits\stl_algobase.h ****    *  temporary expressions, since they are only evaluated once, unlike a
 190:c:\program files (x86)\gnu tools arm embedded\6 2017-q2-update\arm-none-eabi\include\c++\6.3.1\bits\stl_algobase.h ****    *  preprocessor macro.
 191:c:\program files (x86)\gnu tools arm embedded\6 2017-q2-update\arm-none-eabi\include\c++\6.3.1\bits\stl_algobase.h ****   */
 192:c:\program files (x86)\gnu tools arm embedded\6 2017-q2-update\arm-none-eabi\include\c++\6.3.1\bits\stl_algobase.h ****   template<typename _Tp>
 193:c:\program files (x86)\gnu tools arm embedded\6 2017-q2-update\arm-none-eabi\include\c++\6.3.1\bits\stl_algobase.h ****     _GLIBCXX14_CONSTEXPR
 194:c:\program files (x86)\gnu tools arm embedded\6 2017-q2-update\arm-none-eabi\include\c++\6.3.1\bits\stl_algobase.h ****     inline const _Tp&
 195:c:\program files (x86)\gnu tools arm embedded\6 2017-q2-update\arm-none-eabi\include\c++\6.3.1\bits\stl_algobase.h ****     min(const _Tp& __a, const _Tp& __b)
 196:c:\program files (x86)\gnu tools arm embedded\6 2017-q2-update\arm-none-eabi\include\c++\6.3.1\bits\stl_algobase.h ****     {
 197:c:\program files (x86)\gnu tools arm embedded\6 2017-q2-update\arm-none-eabi\include\c++\6.3.1\bits\stl_algobase.h ****       // concept requirements
 198:c:\program files (x86)\gnu tools arm embedded\6 2017-q2-update\arm-none-eabi\include\c++\6.3.1\bits\stl_algobase.h ****       __glibcxx_function_requires(_LessThanComparableConcept<_Tp>)
 199:c:\program files (x86)\gnu tools arm embedded\6 2017-q2-update\arm-none-eabi\include\c++\6.3.1\bits\stl_algobase.h ****       //return __b < __a ? __b : __a;
 200:c:\program files (x86)\gnu tools arm embedded\6 2017-q2-update\arm-none-eabi\include\c++\6.3.1\bits\stl_algobase.h ****       if (__b < __a)
 201:c:\program files (x86)\gnu tools arm embedded\6 2017-q2-update\arm-none-eabi\include\c++\6.3.1\bits\stl_algobase.h **** 	return __b;
 202:c:\program files (x86)\gnu tools arm embedded\6 2017-q2-update\arm-none-eabi\include\c++\6.3.1\bits\stl_algobase.h ****       return __a;
 203:c:\program files (x86)\gnu tools arm embedded\6 2017-q2-update\arm-none-eabi\include\c++\6.3.1\bits\stl_algobase.h ****     }
 204:c:\program files (x86)\gnu tools arm embedded\6 2017-q2-update\arm-none-eabi\include\c++\6.3.1\bits\stl_algobase.h **** 
 205:c:\program files (x86)\gnu tools arm embedded\6 2017-q2-update\arm-none-eabi\include\c++\6.3.1\bits\stl_algobase.h ****   /**
 206:c:\program files (x86)\gnu tools arm embedded\6 2017-q2-update\arm-none-eabi\include\c++\6.3.1\bits\stl_algobase.h ****    *  @brief This does what you think it does.
 207:c:\program files (x86)\gnu tools arm embedded\6 2017-q2-update\arm-none-eabi\include\c++\6.3.1\bits\stl_algobase.h ****    *  @ingroup sorting_algorithms
 208:c:\program files (x86)\gnu tools arm embedded\6 2017-q2-update\arm-none-eabi\include\c++\6.3.1\bits\stl_algobase.h ****    *  @param  __a  A thing of arbitrary type.
 209:c:\program files (x86)\gnu tools arm embedded\6 2017-q2-update\arm-none-eabi\include\c++\6.3.1\bits\stl_algobase.h ****    *  @param  __b  Another thing of arbitrary type.
 210:c:\program files (x86)\gnu tools arm embedded\6 2017-q2-update\arm-none-eabi\include\c++\6.3.1\bits\stl_algobase.h ****    *  @return   The greater of the parameters.
 211:c:\program files (x86)\gnu tools arm embedded\6 2017-q2-update\arm-none-eabi\include\c++\6.3.1\bits\stl_algobase.h ****    *
 212:c:\program files (x86)\gnu tools arm embedded\6 2017-q2-update\arm-none-eabi\include\c++\6.3.1\bits\stl_algobase.h ****    *  This is the simple classic generic implementation.  It will work on
 213:c:\program files (x86)\gnu tools arm embedded\6 2017-q2-update\arm-none-eabi\include\c++\6.3.1\bits\stl_algobase.h ****    *  temporary expressions, since they are only evaluated once, unlike a
 214:c:\program files (x86)\gnu tools arm embedded\6 2017-q2-update\arm-none-eabi\include\c++\6.3.1\bits\stl_algobase.h ****    *  preprocessor macro.
 215:c:\program files (x86)\gnu tools arm embedded\6 2017-q2-update\arm-none-eabi\include\c++\6.3.1\bits\stl_algobase.h ****   */
 216:c:\program files (x86)\gnu tools arm embedded\6 2017-q2-update\arm-none-eabi\include\c++\6.3.1\bits\stl_algobase.h ****   template<typename _Tp>
 217:c:\program files (x86)\gnu tools arm embedded\6 2017-q2-update\arm-none-eabi\include\c++\6.3.1\bits\stl_algobase.h ****     _GLIBCXX14_CONSTEXPR
 218:c:\program files (x86)\gnu tools arm embedded\6 2017-q2-update\arm-none-eabi\include\c++\6.3.1\bits\stl_algobase.h ****     inline const _Tp&
 219:c:\program files (x86)\gnu tools arm embedded\6 2017-q2-update\arm-none-eabi\include\c++\6.3.1\bits\stl_algobase.h ****     max(const _Tp& __a, const _Tp& __b)
 220:c:\program files (x86)\gnu tools arm embedded\6 2017-q2-update\arm-none-eabi\include\c++\6.3.1\bits\stl_algobase.h ****     {
 221:c:\program files (x86)\gnu tools arm embedded\6 2017-q2-update\arm-none-eabi\include\c++\6.3.1\bits\stl_algobase.h ****       // concept requirements
 222:c:\program files (x86)\gnu tools arm embedded\6 2017-q2-update\arm-none-eabi\include\c++\6.3.1\bits\stl_algobase.h ****       __glibcxx_function_requires(_LessThanComparableConcept<_Tp>)
 223:c:\program files (x86)\gnu tools arm embedded\6 2017-q2-update\arm-none-eabi\include\c++\6.3.1\bits\stl_algobase.h ****       //return  __a < __b ? __b : __a;
 224:c:\program files (x86)\gnu tools arm embedded\6 2017-q2-update\arm-none-eabi\include\c++\6.3.1\bits\stl_algobase.h ****       if (__a < __b)
 2239              		.loc 9 224 0
 2240 078c 8C209DE5 		ldr	r2, [sp, #140]
 2241 0790 030052E1 		cmp	r2, r3
 2242 0794 0230A0C1 		movgt	r3, r2
 2243              	.LVL232:
 2244 0798 060000CA 		bgt	.L281
 2245              	.LVL233:
 2246 079c B0209DE5 		ldr	r2, [sp, #176]
 2247 07a0 030052E1 		cmp	r2, r3
 2248 07a4 0230A0B1 		movlt	r3, r2
 2249 07a8 020000EA 		b	.L628
 2250              	.L629:
 2251 07ac 00F020E3 		.align	3
 2252              	.L627:
 2253 07b0 01000000 		.word	1
 2254 07b4 00000000 		.word	0
 2255              	.L628:
 2256              	.LVL234:
 2257              	.L281:
 2258              	.LBE1054:
 2259              	.LBE1053:
 2260              	.LBB1055:
 2261              	.LBB1056:
 404:C:/Renesas/e2studio_2021_01_workspace_RZA2M_ANPR/ANPR_RZA2M_GR_MANGO/src/tensorflow_lite/tensorflow/lite/kernels/internal\types.h ****   const int* dims_data = reinterpret_cast<const int*>(shape.DimsDataUpTo5D());
 2262              		.loc 4 404 0
 2263 07b8 74219DE5 		ldr	r2, [sp, #372]
 2264 07bc 040052E3 		cmp	r2, #4
 2265 07c0 0C04001A 		bne	.L588
 406:C:/Renesas/e2studio_2021_01_workspace_RZA2M_ANPR/ANPR_RZA2M_GR_MANGO/src/tensorflow_lite/tensorflow/lite/kernels/internal\types.h ****   TFLITE_DCHECK(i1 >= 0 && i1 < dims_data[1]);
 2266              		.loc 4 406 0
 2267 07c4 78219DE5 		ldr	r2, [sp, #376]
 2268 07c8 2C109DE5 		ldr	r1, [sp, #44]
 2269 07cc 020051E1 		cmp	r1, r2
 2270 07d0 070400AA 		bge	.L589
 407:C:/Renesas/e2studio_2021_01_workspace_RZA2M_ANPR/ANPR_RZA2M_GR_MANGO/src/tensorflow_lite/tensorflow/lite/kernels/internal\types.h ****   TFLITE_DCHECK(i2 >= 0 && i2 < dims_data[2]);
 2271              		.loc 4 407 0
 2272 07d4 7C219DE5 		ldr	r2, [sp, #380]
 2273 07d8 80109DE5 		ldr	r1, [sp, #128]
 2274 07dc 020051E1 		cmp	r1, r2
 2275 07e0 020400AA 		bge	.L590
 408:C:/Renesas/e2studio_2021_01_workspace_RZA2M_ANPR/ANPR_RZA2M_GR_MANGO/src/tensorflow_lite/tensorflow/lite/kernels/internal\types.h ****   TFLITE_DCHECK(i3 >= 0 && i3 < dims_data[3]);
 2276              		.loc 4 408 0
 2277 07e4 80019DE5 		ldr	r0, [sp, #384]
 2278 07e8 7C109DE5 		ldr	r1, [sp, #124]
 2279 07ec 000051E1 		cmp	r1, r0
 2280 07f0 FD0300AA 		bge	.L591
 409:C:/Renesas/e2studio_2021_01_workspace_RZA2M_ANPR/ANPR_RZA2M_GR_MANGO/src/tensorflow_lite/tensorflow/lite/kernels/internal\types.h ****   return ((i0 * dims_data[1] + i1) * dims_data[2] + i2) * dims_data[3] + i3;
 2281              		.loc 4 409 0
 2282 07f4 000057E3 		cmp	r7, #0
 2283 07f8 FA0300BA 		blt	.L285
 2284 07fc 84119DE5 		ldr	r1, [sp, #388]
 2285 0800 010057E1 		cmp	r7, r1
 2286 0804 F70300AA 		bge	.L285
 2287              	.LVL235:
 410:C:/Renesas/e2studio_2021_01_workspace_RZA2M_ANPR/ANPR_RZA2M_GR_MANGO/src/tensorflow_lite/tensorflow/lite/kernels/internal\types.h **** }
 2288              		.loc 4 410 0
 2289 0808 2CC09DE5 		ldr	ip, [sp, #44]
 2290 080c 80E09DE5 		ldr	lr, [sp, #128]
 2291 0810 92EC22E0 		mla	r2, r2, ip, lr
 2292 0814 7CC09DE5 		ldr	ip, [sp, #124]
 2293 0818 90C222E0 		mla	r2, r0, r2, ip
 2294              	.LBE1056:
 2295              	.LBE1055:
 111:C:/Renesas/e2studio_2021_01_workspace_RZA2M_ANPR/ANPR_RZA2M_GR_MANGO/src/tensorflow_lite/tensorflow/lite/kernels/internal/reference/integer_ops\depthwise_conv.h ****             acc = std::max(acc, output_activation_min);
 112:C:/Renesas/e2studio_2021_01_workspace_RZA2M_ANPR/ANPR_RZA2M_GR_MANGO/src/tensorflow_lite/tensorflow/lite/kernels/internal/reference/integer_ops\depthwise_conv.h ****             acc = std::min(acc, output_activation_max);
 113:C:/Renesas/e2studio_2021_01_workspace_RZA2M_ANPR/ANPR_RZA2M_GR_MANGO/src/tensorflow_lite/tensorflow/lite/kernels/internal/reference/integer_ops\depthwise_conv.h ****             output_data[Offset(output_shape, batch, out_y, out_x,
 114:C:/Renesas/e2studio_2021_01_workspace_RZA2M_ANPR/ANPR_RZA2M_GR_MANGO/src/tensorflow_lite/tensorflow/lite/kernels/internal/reference/integer_ops\depthwise_conv.h ****                                output_channel)] = static_cast<int8_t>(acc);
 2296              		.loc 6 114 0
 2297 081c 98009DE5 		ldr	r0, [sp, #152]
 2298 0820 910222E0 		mla	r2, r1, r2, r0
 2299 0824 0730C2E7 		strb	r3, [r2, r7]
 2300              	.LVL236:
 2301 0828 017087E2 		add	r7, r7, #1
 2302              	.LVL237:
 2303              	.LBE1063:
  65:C:/Renesas/e2studio_2021_01_workspace_RZA2M_ANPR/ANPR_RZA2M_GR_MANGO/src/tensorflow_lite/tensorflow/lite/kernels/internal/reference/integer_ops\depthwise_conv.h ****             const int output_channel = m + in_channel * depth_multiplier;
 2304              		.loc 6 65 0
 2305 082c 94309DE5 		ldr	r3, [sp, #148]
 2306 0830 030057E1 		cmp	r7, r3
 2307 0834 19FFFF1A 		bne	.L288
 2308              	.LVL238:
 2309              	.L514:
 2310 0838 0370A0E1 		mov	r7, r3
 2311              	.LBE1068:
  64:C:/Renesas/e2studio_2021_01_workspace_RZA2M_ANPR/ANPR_RZA2M_GR_MANGO/src/tensorflow_lite/tensorflow/lite/kernels/internal/reference/integer_ops\depthwise_conv.h ****           for (int m = 0; m < depth_multiplier; ++m) {
 2312              		.loc 6 64 0
 2313 083c 30309DE5 		ldr	r3, [sp, #48]
 2314 0840 C0209DE5 		ldr	r2, [sp, #192]
 2315 0844 013083E2 		add	r3, r3, #1
 2316 0848 020053E1 		cmp	r3, r2
 2317 084c 30308DE5 		str	r3, [sp, #48]
 2318              	.LVL239:
 2319 0850 B4209DE5 		ldr	r2, [sp, #180]
 2320 0854 E4309DE5 		ldr	r3, [sp, #228]
 2321              	.LVL240:
 2322 0858 032082E0 		add	r2, r2, r3
 2323 085c B4208DE5 		str	r2, [sp, #180]
 2324 0860 B8209DE5 		ldr	r2, [sp, #184]
 2325 0864 033082E0 		add	r3, r2, r3
 2326 0868 B8308DE5 		str	r3, [sp, #184]
 2327 086c 02FFFF1A 		bne	.L260
 2328 0870 0980A0E1 		mov	r8, r9
 2329              	.LVL241:
 2330              	.L259:
 2331 0874 74209DE5 		ldr	r2, [sp, #116]
 2332 0878 D4109DE5 		ldr	r1, [sp, #212]
 2333              	.LBE1073:
  63:C:/Renesas/e2studio_2021_01_workspace_RZA2M_ANPR/ANPR_RZA2M_GR_MANGO/src/tensorflow_lite/tensorflow/lite/kernels/internal/reference/integer_ops\depthwise_conv.h ****         for (int in_channel = 0; in_channel < input_depth; ++in_channel) {
 2334              		.loc 6 63 0
 2335 087c 7C309DE5 		ldr	r3, [sp, #124]
 2336 0880 012082E0 		add	r2, r2, r1
 2337 0884 74208DE5 		str	r2, [sp, #116]
 2338 0888 013083E2 		add	r3, r3, #1
 2339 088c C8209DE5 		ldr	r2, [sp, #200]
 2340 0890 7C308DE5 		str	r3, [sp, #124]
 2341              	.LVL242:
 2342 0894 020053E1 		cmp	r3, r2
 2343 0898 EDFEFF1A 		bne	.L257
 2344              	.LVL243:
 2345              	.L256:
 2346 089c 90209DE5 		ldr	r2, [sp, #144]
 2347 08a0 D8109DE5 		ldr	r1, [sp, #216]
 2348              	.LBE1078:
  62:C:/Renesas/e2studio_2021_01_workspace_RZA2M_ANPR/ANPR_RZA2M_GR_MANGO/src/tensorflow_lite/tensorflow/lite/kernels/internal/reference/integer_ops\depthwise_conv.h ****       for (int out_x = 0; out_x < output_width; ++out_x) {
 2349              		.loc 6 62 0
 2350 08a4 80309DE5 		ldr	r3, [sp, #128]
 2351 08a8 012082E0 		add	r2, r2, r1
 2352 08ac 90208DE5 		str	r2, [sp, #144]
 2353 08b0 013083E2 		add	r3, r3, #1
 2354 08b4 C4209DE5 		ldr	r2, [sp, #196]
 2355 08b8 80308DE5 		str	r3, [sp, #128]
 2356              	.LVL244:
 2357 08bc 020053E1 		cmp	r3, r2
 2358 08c0 DBFEFF1A 		bne	.L254
 2359              	.LVL245:
 2360              	.L253:
 2361              	.LBE1083:
  61:C:/Renesas/e2studio_2021_01_workspace_RZA2M_ANPR/ANPR_RZA2M_GR_MANGO/src/tensorflow_lite/tensorflow/lite/kernels/internal/reference/integer_ops\depthwise_conv.h ****     for (int out_y = 0; out_y < output_height; ++out_y) {
 2362              		.loc 6 61 0
 2363 08c4 2C309DE5 		ldr	r3, [sp, #44]
 2364 08c8 BC209DE5 		ldr	r2, [sp, #188]
 2365 08cc 013083E2 		add	r3, r3, #1
 2366 08d0 020053E1 		cmp	r3, r2
 2367 08d4 2C308DE5 		str	r3, [sp, #44]
 2368              	.LVL246:
 2369 08d8 CDFEFF1A 		bne	.L251
 2370              	.LVL247:
 2371              	.LBE975:
 2372              	.LBE1099:
 2373              	.LBE1115:
 2374              	.LBB1116:
 2375              	.LBB1117:
 203:C:/Renesas/e2studio_2021_01_workspace_RZA2M_ANPR/ANPR_RZA2M_GR_MANGO/src/tensorflow_lite/tensorflow/lite/kernels/internal\types.h **** #ifdef TF_LITE_STATIC_MEMORY
 2376              		.loc 4 203 0
 2377 08dc 74319DE5 		ldr	r3, [sp, #372]
 2378 08e0 050053E3 		cmp	r3, #5
 2379 08e4 030000DA 		ble	.L515
 207:C:/Renesas/e2studio_2021_01_workspace_RZA2M_ANPR/ANPR_RZA2M_GR_MANGO/src/tensorflow_lite/tensorflow/lite/kernels/internal\types.h **** #endif  // TF_LITE_STATIC_MEMORY
 2380              		.loc 4 207 0
 2381 08e8 78019DE5 		ldr	r0, [sp, #376]
 2382 08ec 000050E3 		cmp	r0, #0
 2383 08f0 0000000A 		beq	.L515
 2384 08f4 FEFFFFEB 		bl	_ZdaPv
 2385              	.LVL248:
 2386              	.L515:
 2387 08f8 5C019DE5 		ldr	r0, [sp, #348]
 2388              	.LVL249:
 2389              	.L247:
 2390              	.LBE1117:
 2391              	.LBE1116:
 2392              	.LBB1118:
 2393              	.LBB1119:
 203:C:/Renesas/e2studio_2021_01_workspace_RZA2M_ANPR/ANPR_RZA2M_GR_MANGO/src/tensorflow_lite/tensorflow/lite/kernels/internal\types.h **** #ifdef TF_LITE_STATIC_MEMORY
 2394              		.loc 4 203 0
 2395 08fc 050050E3 		cmp	r0, #5
 2396 0900 030000DA 		ble	.L291
 207:C:/Renesas/e2studio_2021_01_workspace_RZA2M_ANPR/ANPR_RZA2M_GR_MANGO/src/tensorflow_lite/tensorflow/lite/kernels/internal\types.h **** #endif  // TF_LITE_STATIC_MEMORY
 2397              		.loc 4 207 0
 2398 0904 60019DE5 		ldr	r0, [sp, #352]
 2399 0908 000050E3 		cmp	r0, #0
 2400 090c 0000000A 		beq	.L291
 2401 0910 FEFFFFEB 		bl	_ZdaPv
 2402              	.LVL250:
 2403              	.L291:
 2404              	.LBE1119:
 2405              	.LBE1118:
 2406              	.LBB1120:
 2407              	.LBB1121:
 203:C:/Renesas/e2studio_2021_01_workspace_RZA2M_ANPR/ANPR_RZA2M_GR_MANGO/src/tensorflow_lite/tensorflow/lite/kernels/internal\types.h **** #ifdef TF_LITE_STATIC_MEMORY
 2408              		.loc 4 203 0
 2409 0914 44319DE5 		ldr	r3, [sp, #324]
 2410 0918 050053E3 		cmp	r3, #5
 2411 091c 030000DA 		ble	.L292
 207:C:/Renesas/e2studio_2021_01_workspace_RZA2M_ANPR/ANPR_RZA2M_GR_MANGO/src/tensorflow_lite/tensorflow/lite/kernels/internal\types.h **** #endif  // TF_LITE_STATIC_MEMORY
 2412              		.loc 4 207 0
 2413 0920 48019DE5 		ldr	r0, [sp, #328]
 2414 0924 000050E3 		cmp	r0, #0
 2415 0928 0000000A 		beq	.L292
 2416 092c FEFFFFEB 		bl	_ZdaPv
 2417              	.LVL251:
 2418              	.L292:
 2419              	.LBE1121:
 2420              	.LBE1120:
 2421              	.LBB1122:
 2422              	.LBB1123:
 203:C:/Renesas/e2studio_2021_01_workspace_RZA2M_ANPR/ANPR_RZA2M_GR_MANGO/src/tensorflow_lite/tensorflow/lite/kernels/internal\types.h **** #ifdef TF_LITE_STATIC_MEMORY
 2423              		.loc 4 203 0
 2424 0930 2C319DE5 		ldr	r3, [sp, #300]
 2425 0934 050053E3 		cmp	r3, #5
 2426 0938 200200DA 		ble	.L222
 207:C:/Renesas/e2studio_2021_01_workspace_RZA2M_ANPR/ANPR_RZA2M_GR_MANGO/src/tensorflow_lite/tensorflow/lite/kernels/internal\types.h **** #endif  // TF_LITE_STATIC_MEMORY
 2427              		.loc 4 207 0
 2428 093c 30019DE5 		ldr	r0, [sp, #304]
 2429 0940 000050E3 		cmp	r0, #0
 2430 0944 1C02001A 		bne	.L516
 2431 0948 1C0200EA 		b	.L222
 2432              	.LVL252:
 2433              	.L564:
 2434              	.LBE1123:
 2435              	.LBE1122:
 2436              	.LBE1266:
 2437              	.LBE904:
 2438              	.LBE903:
 273:../src/tensorflow_lite/tensorflow/lite/micro/kernels/cmsis_nn/depthwise_conv.cc ****     case kTfLiteFloat32: {
 274:../src/tensorflow_lite/tensorflow/lite/micro/kernels/cmsis_nn/depthwise_conv.cc ****       tflite::reference_ops::DepthwiseConv(
 275:../src/tensorflow_lite/tensorflow/lite/micro/kernels/cmsis_nn/depthwise_conv.cc ****           DepthwiseConvParamsFloat(params, data.reference_op_data),
 276:../src/tensorflow_lite/tensorflow/lite/micro/kernels/cmsis_nn/depthwise_conv.cc ****           tflite::micro::GetTensorShape(input),
 277:../src/tensorflow_lite/tensorflow/lite/micro/kernels/cmsis_nn/depthwise_conv.cc ****           tflite::micro::GetTensorData<float>(input),
 278:../src/tensorflow_lite/tensorflow/lite/micro/kernels/cmsis_nn/depthwise_conv.cc ****           tflite::micro::GetTensorShape(filter),
 279:../src/tensorflow_lite/tensorflow/lite/micro/kernels/cmsis_nn/depthwise_conv.cc ****           tflite::micro::GetTensorData<float>(filter),
 280:../src/tensorflow_lite/tensorflow/lite/micro/kernels/cmsis_nn/depthwise_conv.cc ****           tflite::micro::GetTensorShape(bias),
 281:../src/tensorflow_lite/tensorflow/lite/micro/kernels/cmsis_nn/depthwise_conv.cc ****           tflite::micro::GetTensorData<float>(bias),
 282:../src/tensorflow_lite/tensorflow/lite/micro/kernels/cmsis_nn/depthwise_conv.cc ****           tflite::micro::GetTensorShape(output),
 283:../src/tensorflow_lite/tensorflow/lite/micro/kernels/cmsis_nn/depthwise_conv.cc ****           tflite::micro::GetTensorData<float>(output));
 284:../src/tensorflow_lite/tensorflow/lite/micro/kernels/cmsis_nn/depthwise_conv.cc ****       break;
 285:../src/tensorflow_lite/tensorflow/lite/micro/kernels/cmsis_nn/depthwise_conv.cc ****     }
 286:../src/tensorflow_lite/tensorflow/lite/micro/kernels/cmsis_nn/depthwise_conv.cc ****     case kTfLiteInt8:
 287:../src/tensorflow_lite/tensorflow/lite/micro/kernels/cmsis_nn/depthwise_conv.cc ****       EvalQuantizedPerChannel(context, node, params, data, input, filter, bias,
 288:../src/tensorflow_lite/tensorflow/lite/micro/kernels/cmsis_nn/depthwise_conv.cc ****                               output);
 289:../src/tensorflow_lite/tensorflow/lite/micro/kernels/cmsis_nn/depthwise_conv.cc ****       break;
 290:../src/tensorflow_lite/tensorflow/lite/micro/kernels/cmsis_nn/depthwise_conv.cc ****     default:
 291:../src/tensorflow_lite/tensorflow/lite/micro/kernels/cmsis_nn/depthwise_conv.cc ****       TF_LITE_KERNEL_LOG(context, "Type %s (%d) not supported.",
 2439              		.loc 1 291 0
 2440 094c 145094E5 		ldr	r5, [r4, #20]
 2441              	.LEHB15:
 2442 0950 FEFFFFEB 		bl	TfLiteTypeGetName
 2443              	.LVL253:
 2444 0954 001000E3 		movw	r1, #:lower16:.LC17
 2445 0958 0020A0E1 		mov	r2, r0
 2446 095c 0830D7E5 		ldrb	r3, [r7, #8]	@ zero_extendqisi2
 2447 0960 0400A0E1 		mov	r0, r4
 2448 0964 001040E3 		movt	r1, #:upper16:.LC17
 2449 0968 35FF2FE1 		blx	r5
 2450              	.LVL254:
 292:../src/tensorflow_lite/tensorflow/lite/micro/kernels/cmsis_nn/depthwise_conv.cc ****                          TfLiteTypeGetName(input->type), input->type);
 293:../src/tensorflow_lite/tensorflow/lite/micro/kernels/cmsis_nn/depthwise_conv.cc ****       return kTfLiteError;
 2451              		.loc 1 293 0
 2452 096c 0100A0E3 		mov	r0, #1
 294:../src/tensorflow_lite/tensorflow/lite/micro/kernels/cmsis_nn/depthwise_conv.cc ****   }
 295:../src/tensorflow_lite/tensorflow/lite/micro/kernels/cmsis_nn/depthwise_conv.cc ****   return kTfLiteOk;
 296:../src/tensorflow_lite/tensorflow/lite/micro/kernels/cmsis_nn/depthwise_conv.cc **** }
 2453              		.loc 1 296 0
 2454 0970 7FDF8DE2 		add	sp, sp, #508
 2455              		.cfi_remember_state
 2456              		.cfi_def_cfa_offset 36
 2457              		@ sp needed
 2458 0974 F08FBDE8 		pop	{r4, r5, r6, r7, r8, r9, r10, fp, pc}
 2459              	.LVL255:
 2460              	.L319:
 2461              		.cfi_restore_state
 275:../src/tensorflow_lite/tensorflow/lite/micro/kernels/cmsis_nn/depthwise_conv.cc ****           tflite::micro::GetTensorShape(input),
 2462              		.loc 1 275 0
 2463 0978 0620A0E1 		mov	r2, r6
 2464 097c 0A10A0E1 		mov	r1, r10
 2465 0980 6E0F8DE2 		add	r0, sp, #440
 2466 0984 FEFFFFEB 		bl	_ZN6tflite24DepthwiseConvParamsFloatERK25TfLiteDepthwiseConvParamsRKNS_10OpDataConvE
 2467              	.LVL256:
 276:../src/tensorflow_lite/tensorflow/lite/micro/kernels/cmsis_nn/depthwise_conv.cc ****           tflite::micro::GetTensorData<float>(input),
 2468              		.loc 1 276 0
 2469 0988 0710A0E1 		mov	r1, r7
 2470 098c 510F8DE2 		add	r0, sp, #324
 2471 0990 FEFFFFEB 		bl	_ZN6tflite5micro14GetTensorShapeEPK16TfLiteEvalTensor
 2472              	.LVL257:
 2473              	.LEHE15:
 2474              	.LBB1295:
 2475              	.LBB1296:
 2476              		.loc 5 63 0
 2477 0994 003097E5 		ldr	r3, [r7]
 2478              	.LBE1296:
 2479              	.LBE1295:
 278:../src/tensorflow_lite/tensorflow/lite/micro/kernels/cmsis_nn/depthwise_conv.cc ****           tflite::micro::GetTensorData<float>(filter),
 2480              		.loc 1 278 0
 2481 0998 0910A0E1 		mov	r1, r9
 2482 099c 570F8DE2 		add	r0, sp, #348
 2483              	.LBB1298:
 2484              	.LBB1297:
 2485              		.loc 5 63 0
 2486 09a0 30308DE5 		str	r3, [sp, #48]
 2487              	.LEHB16:
 2488              	.LBE1297:
 2489              	.LBE1298:
 278:../src/tensorflow_lite/tensorflow/lite/micro/kernels/cmsis_nn/depthwise_conv.cc ****           tflite::micro::GetTensorData<float>(filter),
 2490              		.loc 1 278 0
 2491 09a4 FEFFFFEB 		bl	_ZN6tflite5micro14GetTensorShapeEPK16TfLiteEvalTensor
 2492              	.LVL258:
 2493              	.LEHE16:
 2494              	.LBB1299:
 2495              	.LBB1300:
  62:C:/Renesas/e2studio_2021_01_workspace_RZA2M_ANPR/ANPR_RZA2M_GR_MANGO/src/tensorflow_lite/tensorflow/lite/micro/kernels\kernel_util.h ****   return reinterpret_cast<const T*>(tensor->data.raw);
 2496              		.loc 5 62 0
 2497 09a8 000059E3 		cmp	r9, #0
 2498 09ac 1804000A 		beq	.L592
 2499              		.loc 5 63 0
 2500 09b0 003099E5 		ldr	r3, [r9]
 2501              	.LBE1300:
 2502              	.LBE1299:
 280:../src/tensorflow_lite/tensorflow/lite/micro/kernels/cmsis_nn/depthwise_conv.cc ****           tflite::micro::GetTensorData<float>(bias),
 2503              		.loc 1 280 0
 2504 09b4 0810A0E1 		mov	r1, r8
 2505 09b8 5D0F8DE2 		add	r0, sp, #372
 2506              	.LBB1303:
 2507              	.LBB1301:
 2508              		.loc 5 63 0
 2509 09bc C0308DE5 		str	r3, [sp, #192]
 2510              	.LEHB17:
 2511              	.LBE1301:
 2512              	.LBE1303:
 280:../src/tensorflow_lite/tensorflow/lite/micro/kernels/cmsis_nn/depthwise_conv.cc ****           tflite::micro::GetTensorData<float>(bias),
 2513              		.loc 1 280 0
 2514 09c0 FEFFFFEB 		bl	_ZN6tflite5micro14GetTensorShapeEPK16TfLiteEvalTensor
 2515              	.LVL259:
 2516              	.LEHE17:
 2517              	.LBB1304:
 2518              	.LBB1305:
  62:C:/Renesas/e2studio_2021_01_workspace_RZA2M_ANPR/ANPR_RZA2M_GR_MANGO/src/tensorflow_lite/tensorflow/lite/micro/kernels\kernel_util.h ****   return reinterpret_cast<const T*>(tensor->data.raw);
 2519              		.loc 5 62 0
 2520 09c4 000058E3 		cmp	r8, #0
 2521 09c8 0104000A 		beq	.L593
 2522              		.loc 5 63 0
 2523 09cc 003098E5 		ldr	r3, [r8]
 2524              	.LBE1305:
 2525              	.LBE1304:
 282:../src/tensorflow_lite/tensorflow/lite/micro/kernels/cmsis_nn/depthwise_conv.cc ****           tflite::micro::GetTensorData<float>(output));
 2526              		.loc 1 282 0
 2527 09d0 0510A0E1 		mov	r1, r5
 2528 09d4 630F8DE2 		add	r0, sp, #396
 2529              	.LBB1308:
 2530              	.LBB1306:
 2531              		.loc 5 63 0
 2532 09d8 88308DE5 		str	r3, [sp, #136]
 2533              	.LVL260:
 2534              	.LEHB18:
 2535              	.LBE1306:
 2536              	.LBE1308:
 282:../src/tensorflow_lite/tensorflow/lite/micro/kernels/cmsis_nn/depthwise_conv.cc ****           tflite::micro::GetTensorData<float>(output));
 2537              		.loc 1 282 0
 2538 09dc FEFFFFEB 		bl	_ZN6tflite5micro14GetTensorShapeEPK16TfLiteEvalTensor
 2539              	.LVL261:
 2540              	.LEHE18:
 2541              	.LBB1309:
 2542              	.LBB1310:
  56:C:/Renesas/e2studio_2021_01_workspace_RZA2M_ANPR/ANPR_RZA2M_GR_MANGO/src/tensorflow_lite/tensorflow/lite/micro/kernels\kernel_util.h **** }
 2543              		.loc 5 56 0
 2544 09e0 000055E3 		cmp	r5, #0
 2545              	.LBE1310:
 2546              	.LBE1309:
 2547              	.LBB1314:
 2548              	.LBB1315:
 2549              		.file 10 "C:/Renesas/e2studio_2021_01_workspace_RZA2M_ANPR/ANPR_RZA2M_GR_MANGO/src/tensorflow_lite
   1:C:/Renesas/e2studio_2021_01_workspace_RZA2M_ANPR/ANPR_RZA2M_GR_MANGO/src/tensorflow_lite/tensorflow/lite/kernels/internal/reference\depthwiseconv_float.h **** /* Copyright 2017 The TensorFlow Authors. All Rights Reserved.
   2:C:/Renesas/e2studio_2021_01_workspace_RZA2M_ANPR/ANPR_RZA2M_GR_MANGO/src/tensorflow_lite/tensorflow/lite/kernels/internal/reference\depthwiseconv_float.h **** 
   3:C:/Renesas/e2studio_2021_01_workspace_RZA2M_ANPR/ANPR_RZA2M_GR_MANGO/src/tensorflow_lite/tensorflow/lite/kernels/internal/reference\depthwiseconv_float.h **** Licensed under the Apache License, Version 2.0 (the "License");
   4:C:/Renesas/e2studio_2021_01_workspace_RZA2M_ANPR/ANPR_RZA2M_GR_MANGO/src/tensorflow_lite/tensorflow/lite/kernels/internal/reference\depthwiseconv_float.h **** you may not use this file except in compliance with the License.
   5:C:/Renesas/e2studio_2021_01_workspace_RZA2M_ANPR/ANPR_RZA2M_GR_MANGO/src/tensorflow_lite/tensorflow/lite/kernels/internal/reference\depthwiseconv_float.h **** You may obtain a copy of the License at
   6:C:/Renesas/e2studio_2021_01_workspace_RZA2M_ANPR/ANPR_RZA2M_GR_MANGO/src/tensorflow_lite/tensorflow/lite/kernels/internal/reference\depthwiseconv_float.h **** 
   7:C:/Renesas/e2studio_2021_01_workspace_RZA2M_ANPR/ANPR_RZA2M_GR_MANGO/src/tensorflow_lite/tensorflow/lite/kernels/internal/reference\depthwiseconv_float.h ****     http://www.apache.org/licenses/LICENSE-2.0
   8:C:/Renesas/e2studio_2021_01_workspace_RZA2M_ANPR/ANPR_RZA2M_GR_MANGO/src/tensorflow_lite/tensorflow/lite/kernels/internal/reference\depthwiseconv_float.h **** 
   9:C:/Renesas/e2studio_2021_01_workspace_RZA2M_ANPR/ANPR_RZA2M_GR_MANGO/src/tensorflow_lite/tensorflow/lite/kernels/internal/reference\depthwiseconv_float.h **** Unless required by applicable law or agreed to in writing, software
  10:C:/Renesas/e2studio_2021_01_workspace_RZA2M_ANPR/ANPR_RZA2M_GR_MANGO/src/tensorflow_lite/tensorflow/lite/kernels/internal/reference\depthwiseconv_float.h **** distributed under the License is distributed on an "AS IS" BASIS,
  11:C:/Renesas/e2studio_2021_01_workspace_RZA2M_ANPR/ANPR_RZA2M_GR_MANGO/src/tensorflow_lite/tensorflow/lite/kernels/internal/reference\depthwiseconv_float.h **** WITHOUT WARRANTIES OR CONDITIONS OF ANY KIND, either express or implied.
  12:C:/Renesas/e2studio_2021_01_workspace_RZA2M_ANPR/ANPR_RZA2M_GR_MANGO/src/tensorflow_lite/tensorflow/lite/kernels/internal/reference\depthwiseconv_float.h **** See the License for the specific language governing permissions and
  13:C:/Renesas/e2studio_2021_01_workspace_RZA2M_ANPR/ANPR_RZA2M_GR_MANGO/src/tensorflow_lite/tensorflow/lite/kernels/internal/reference\depthwiseconv_float.h **** limitations under the License.
  14:C:/Renesas/e2studio_2021_01_workspace_RZA2M_ANPR/ANPR_RZA2M_GR_MANGO/src/tensorflow_lite/tensorflow/lite/kernels/internal/reference\depthwiseconv_float.h **** ==============================================================================*/
  15:C:/Renesas/e2studio_2021_01_workspace_RZA2M_ANPR/ANPR_RZA2M_GR_MANGO/src/tensorflow_lite/tensorflow/lite/kernels/internal/reference\depthwiseconv_float.h **** #ifndef TENSORFLOW_LITE_KERNELS_INTERNAL_REFERENCE_DEPTHWISECONV_FLOAT_H_
  16:C:/Renesas/e2studio_2021_01_workspace_RZA2M_ANPR/ANPR_RZA2M_GR_MANGO/src/tensorflow_lite/tensorflow/lite/kernels/internal/reference\depthwiseconv_float.h **** #define TENSORFLOW_LITE_KERNELS_INTERNAL_REFERENCE_DEPTHWISECONV_FLOAT_H_
  17:C:/Renesas/e2studio_2021_01_workspace_RZA2M_ANPR/ANPR_RZA2M_GR_MANGO/src/tensorflow_lite/tensorflow/lite/kernels/internal/reference\depthwiseconv_float.h **** 
  18:C:/Renesas/e2studio_2021_01_workspace_RZA2M_ANPR/ANPR_RZA2M_GR_MANGO/src/tensorflow_lite/tensorflow/lite/kernels/internal/reference\depthwiseconv_float.h **** #include "tensorflow/lite/kernels/internal/common.h"
  19:C:/Renesas/e2studio_2021_01_workspace_RZA2M_ANPR/ANPR_RZA2M_GR_MANGO/src/tensorflow_lite/tensorflow/lite/kernels/internal/reference\depthwiseconv_float.h **** #include "tensorflow/lite/kernels/internal/compatibility.h"
  20:C:/Renesas/e2studio_2021_01_workspace_RZA2M_ANPR/ANPR_RZA2M_GR_MANGO/src/tensorflow_lite/tensorflow/lite/kernels/internal/reference\depthwiseconv_float.h **** #include "tensorflow/lite/kernels/internal/types.h"
  21:C:/Renesas/e2studio_2021_01_workspace_RZA2M_ANPR/ANPR_RZA2M_GR_MANGO/src/tensorflow_lite/tensorflow/lite/kernels/internal/reference\depthwiseconv_float.h **** 
  22:C:/Renesas/e2studio_2021_01_workspace_RZA2M_ANPR/ANPR_RZA2M_GR_MANGO/src/tensorflow_lite/tensorflow/lite/kernels/internal/reference\depthwiseconv_float.h **** namespace tflite {
  23:C:/Renesas/e2studio_2021_01_workspace_RZA2M_ANPR/ANPR_RZA2M_GR_MANGO/src/tensorflow_lite/tensorflow/lite/kernels/internal/reference\depthwiseconv_float.h **** namespace reference_ops {
  24:C:/Renesas/e2studio_2021_01_workspace_RZA2M_ANPR/ANPR_RZA2M_GR_MANGO/src/tensorflow_lite/tensorflow/lite/kernels/internal/reference\depthwiseconv_float.h **** 
  25:C:/Renesas/e2studio_2021_01_workspace_RZA2M_ANPR/ANPR_RZA2M_GR_MANGO/src/tensorflow_lite/tensorflow/lite/kernels/internal/reference\depthwiseconv_float.h **** inline void DepthwiseConv(
  26:C:/Renesas/e2studio_2021_01_workspace_RZA2M_ANPR/ANPR_RZA2M_GR_MANGO/src/tensorflow_lite/tensorflow/lite/kernels/internal/reference\depthwiseconv_float.h ****     const DepthwiseParams& params, const RuntimeShape& input_shape,
  27:C:/Renesas/e2studio_2021_01_workspace_RZA2M_ANPR/ANPR_RZA2M_GR_MANGO/src/tensorflow_lite/tensorflow/lite/kernels/internal/reference\depthwiseconv_float.h ****     const float* input_data, const RuntimeShape& filter_shape,
  28:C:/Renesas/e2studio_2021_01_workspace_RZA2M_ANPR/ANPR_RZA2M_GR_MANGO/src/tensorflow_lite/tensorflow/lite/kernels/internal/reference\depthwiseconv_float.h ****     const float* filter_data, const RuntimeShape& bias_shape,
  29:C:/Renesas/e2studio_2021_01_workspace_RZA2M_ANPR/ANPR_RZA2M_GR_MANGO/src/tensorflow_lite/tensorflow/lite/kernels/internal/reference\depthwiseconv_float.h ****     const float* bias_data, const RuntimeShape& output_shape,
  30:C:/Renesas/e2studio_2021_01_workspace_RZA2M_ANPR/ANPR_RZA2M_GR_MANGO/src/tensorflow_lite/tensorflow/lite/kernels/internal/reference\depthwiseconv_float.h ****     float* output_data) {
  31:C:/Renesas/e2studio_2021_01_workspace_RZA2M_ANPR/ANPR_RZA2M_GR_MANGO/src/tensorflow_lite/tensorflow/lite/kernels/internal/reference\depthwiseconv_float.h ****   const int stride_width = params.stride_width;
 2550              		.loc 10 31 0
 2551 09e4 072D8DE2 		add	r2, sp, #448
 2552              	.LBE1315:
 2553              	.LBE1314:
 2554              	.LBB1509:
 2555              	.LBB1311:
  56:C:/Renesas/e2studio_2021_01_workspace_RZA2M_ANPR/ANPR_RZA2M_GR_MANGO/src/tensorflow_lite/tensorflow/lite/micro/kernels\kernel_util.h **** }
 2556              		.loc 5 56 0
 2557 09e8 00309515 		ldrne	r3, [r5]
 2558              	.LBE1311:
 2559              	.LBE1509:
 2560              	.LBB1510:
 2561              	.LBB1495:
 2562              		.loc 10 31 0
 2563 09ec 022082E2 		add	r2, r2, #2
 2564              	.LBE1495:
 2565              	.LBE1510:
 2566              	.LBB1511:
 2567              	.LBB1312:
  56:C:/Renesas/e2studio_2021_01_workspace_RZA2M_ANPR/ANPR_RZA2M_GR_MANGO/src/tensorflow_lite/tensorflow/lite/micro/kernels\kernel_util.h **** }
 2568              		.loc 5 56 0
 2569 09f0 24508D05 		streq	r5, [sp, #36]
 2570              	.LVL262:
 2571              	.LBE1312:
 2572              	.LBE1511:
 2573              	.LBB1512:
 2574              	.LBB1496:
 2575              		.loc 10 31 0
 2576 09f4 F020D2E1 		ldrsh	r2, [r2]
 2577              	.LBE1496:
 2578              	.LBE1512:
 2579              	.LBB1513:
 2580              	.LBB1313:
  56:C:/Renesas/e2studio_2021_01_workspace_RZA2M_ANPR/ANPR_RZA2M_GR_MANGO/src/tensorflow_lite/tensorflow/lite/micro/kernels\kernel_util.h **** }
 2581              		.loc 5 56 0
 2582 09f8 24308D15 		strne	r3, [sp, #36]
 2583              	.LVL263:
 2584              	.LBE1313:
 2585              	.LBE1513:
 2586              	.LBB1514:
 2587              	.LBB1497:
  32:C:/Renesas/e2studio_2021_01_workspace_RZA2M_ANPR/ANPR_RZA2M_GR_MANGO/src/tensorflow_lite/tensorflow/lite/kernels/internal/reference\depthwiseconv_float.h ****   const int stride_height = params.stride_height;
  33:C:/Renesas/e2studio_2021_01_workspace_RZA2M_ANPR/ANPR_RZA2M_GR_MANGO/src/tensorflow_lite/tensorflow/lite/kernels/internal/reference\depthwiseconv_float.h ****   const int dilation_width_factor = params.dilation_width_factor;
  34:C:/Renesas/e2studio_2021_01_workspace_RZA2M_ANPR/ANPR_RZA2M_GR_MANGO/src/tensorflow_lite/tensorflow/lite/kernels/internal/reference\depthwiseconv_float.h ****   const int dilation_height_factor = params.dilation_height_factor;
  35:C:/Renesas/e2studio_2021_01_workspace_RZA2M_ANPR/ANPR_RZA2M_GR_MANGO/src/tensorflow_lite/tensorflow/lite/kernels/internal/reference\depthwiseconv_float.h ****   const int pad_width = params.padding_values.width;
  36:C:/Renesas/e2studio_2021_01_workspace_RZA2M_ANPR/ANPR_RZA2M_GR_MANGO/src/tensorflow_lite/tensorflow/lite/kernels/internal/reference\depthwiseconv_float.h ****   const int pad_height = params.padding_values.height;
  37:C:/Renesas/e2studio_2021_01_workspace_RZA2M_ANPR/ANPR_RZA2M_GR_MANGO/src/tensorflow_lite/tensorflow/lite/kernels/internal/reference\depthwiseconv_float.h ****   const int depth_multiplier = params.depth_multiplier;
  38:C:/Renesas/e2studio_2021_01_workspace_RZA2M_ANPR/ANPR_RZA2M_GR_MANGO/src/tensorflow_lite/tensorflow/lite/kernels/internal/reference\depthwiseconv_float.h ****   const float output_activation_min = params.float_activation_min;
  39:C:/Renesas/e2studio_2021_01_workspace_RZA2M_ANPR/ANPR_RZA2M_GR_MANGO/src/tensorflow_lite/tensorflow/lite/kernels/internal/reference\depthwiseconv_float.h ****   const float output_activation_max = params.float_activation_max;
  40:C:/Renesas/e2studio_2021_01_workspace_RZA2M_ANPR/ANPR_RZA2M_GR_MANGO/src/tensorflow_lite/tensorflow/lite/kernels/internal/reference\depthwiseconv_float.h ****   TFLITE_DCHECK_EQ(input_shape.DimensionsCount(), 4);
 2588              		.loc 10 40 0
 2589 09fc 44319DE5 		ldr	r3, [sp, #324]
  31:C:/Renesas/e2studio_2021_01_workspace_RZA2M_ANPR/ANPR_RZA2M_GR_MANGO/src/tensorflow_lite/tensorflow/lite/kernels/internal/reference\depthwiseconv_float.h ****   const int stride_height = params.stride_height;
 2590              		.loc 10 31 0
 2591 0a00 B8208DE5 		str	r2, [sp, #184]
 2592              	.LVL264:
  32:C:/Renesas/e2studio_2021_01_workspace_RZA2M_ANPR/ANPR_RZA2M_GR_MANGO/src/tensorflow_lite/tensorflow/lite/kernels/internal/reference\depthwiseconv_float.h ****   const int stride_height = params.stride_height;
 2593              		.loc 10 32 0
 2594 0a04 712F8DE2 		add	r2, sp, #452
 2595 0a08 F020D2E1 		ldrsh	r2, [r2]
 2596              		.loc 10 40 0
 2597 0a0c 040053E3 		cmp	r3, #4
  33:C:/Renesas/e2studio_2021_01_workspace_RZA2M_ANPR/ANPR_RZA2M_GR_MANGO/src/tensorflow_lite/tensorflow/lite/kernels/internal/reference\depthwiseconv_float.h ****   const int dilation_height_factor = params.dilation_height_factor;
 2598              		.loc 10 33 0
 2599 0a10 713F8DE2 		add	r3, sp, #452
 2600 0a14 023083E2 		add	r3, r3, #2
 2601 0a18 F0A0D3E1 		ldrsh	r10, [r3]
 2602              	.LVL265:
  34:C:/Renesas/e2studio_2021_01_workspace_RZA2M_ANPR/ANPR_RZA2M_GR_MANGO/src/tensorflow_lite/tensorflow/lite/kernels/internal/reference\depthwiseconv_float.h ****   const int pad_width = params.padding_values.width;
 2603              		.loc 10 34 0
 2604 0a1c 723F8DE2 		add	r3, sp, #456
  32:C:/Renesas/e2studio_2021_01_workspace_RZA2M_ANPR/ANPR_RZA2M_GR_MANGO/src/tensorflow_lite/tensorflow/lite/kernels/internal/reference\depthwiseconv_float.h ****   const int dilation_width_factor = params.dilation_width_factor;
 2605              		.loc 10 32 0
 2606 0a20 BC208DE5 		str	r2, [sp, #188]
 2607              	.LVL266:
  34:C:/Renesas/e2studio_2021_01_workspace_RZA2M_ANPR/ANPR_RZA2M_GR_MANGO/src/tensorflow_lite/tensorflow/lite/kernels/internal/reference\depthwiseconv_float.h ****   const int pad_width = params.padding_values.width;
 2608              		.loc 10 34 0
 2609 0a24 F030D3E1 		ldrsh	r3, [r3]
  38:C:/Renesas/e2studio_2021_01_workspace_RZA2M_ANPR/ANPR_RZA2M_GR_MANGO/src/tensorflow_lite/tensorflow/lite/kernels/internal/reference\depthwiseconv_float.h ****   const float output_activation_max = params.float_activation_max;
 2610              		.loc 10 38 0
 2611 0a28 7A6A9DED 		vldr.32	s12, [sp, #488]
  39:C:/Renesas/e2studio_2021_01_workspace_RZA2M_ANPR/ANPR_RZA2M_GR_MANGO/src/tensorflow_lite/tensorflow/lite/kernels/internal/reference\depthwiseconv_float.h ****   TFLITE_DCHECK_EQ(input_shape.DimensionsCount(), 4);
 2612              		.loc 10 39 0
 2613 0a2c 7B5ADDED 		vldr.32	s11, [sp, #492]
  34:C:/Renesas/e2studio_2021_01_workspace_RZA2M_ANPR/ANPR_RZA2M_GR_MANGO/src/tensorflow_lite/tensorflow/lite/kernels/internal/reference\depthwiseconv_float.h ****   const int pad_width = params.padding_values.width;
 2614              		.loc 10 34 0
 2615 0a30 20308DE5 		str	r3, [sp, #32]
 2616              	.LVL267:
  35:C:/Renesas/e2studio_2021_01_workspace_RZA2M_ANPR/ANPR_RZA2M_GR_MANGO/src/tensorflow_lite/tensorflow/lite/kernels/internal/reference\depthwiseconv_float.h ****   const int pad_height = params.padding_values.height;
 2617              		.loc 10 35 0
 2618 0a34 6E3F8DE2 		add	r3, sp, #440
 2619              	.LVL268:
 2620 0a38 023083E2 		add	r3, r3, #2
 2621              	.LVL269:
 2622 0a3c F070D3E1 		ldrsh	r7, [r3]
 2623              	.LVL270:
  36:C:/Renesas/e2studio_2021_01_workspace_RZA2M_ANPR/ANPR_RZA2M_GR_MANGO/src/tensorflow_lite/tensorflow/lite/kernels/internal/reference\depthwiseconv_float.h ****   const int depth_multiplier = params.depth_multiplier;
 2624              		.loc 10 36 0
 2625 0a40 6F3F8DE2 		add	r3, sp, #444
 2626              	.LVL271:
 2627 0a44 F080D3E1 		ldrsh	r8, [r3]
 2628              	.LVL272:
  37:C:/Renesas/e2studio_2021_01_workspace_RZA2M_ANPR/ANPR_RZA2M_GR_MANGO/src/tensorflow_lite/tensorflow/lite/kernels/internal/reference\depthwiseconv_float.h ****   const float output_activation_min = params.float_activation_min;
 2629              		.loc 10 37 0
 2630 0a48 723F8DE2 		add	r3, sp, #456
 2631 0a4c 023083E2 		add	r3, r3, #2
 2632 0a50 F030D3E1 		ldrsh	r3, [r3]
 2633 0a54 90308DE5 		str	r3, [sp, #144]
 2634              	.LVL273:
 2635              		.loc 10 40 0
 2636 0a58 E703001A 		bne	.L594
 2637              	.LVL274:
  41:C:/Renesas/e2studio_2021_01_workspace_RZA2M_ANPR/ANPR_RZA2M_GR_MANGO/src/tensorflow_lite/tensorflow/lite/kernels/internal/reference\depthwiseconv_float.h ****   TFLITE_DCHECK_EQ(filter_shape.DimensionsCount(), 4);
 2638              		.loc 10 41 0
 2639 0a5c 5C319DE5 		ldr	r3, [sp, #348]
 2640              	.LVL275:
 2641 0a60 040053E3 		cmp	r3, #4
 2642 0a64 E503001A 		bne	.L595
 2643              	.LVL276:
  42:C:/Renesas/e2studio_2021_01_workspace_RZA2M_ANPR/ANPR_RZA2M_GR_MANGO/src/tensorflow_lite/tensorflow/lite/kernels/internal/reference\depthwiseconv_float.h ****   TFLITE_DCHECK_EQ(output_shape.DimensionsCount(), 4);
 2644              		.loc 10 42 0
 2645 0a68 8C319DE5 		ldr	r3, [sp, #396]
 2646 0a6c 040053E3 		cmp	r3, #4
 2647 0a70 EB03001A 		bne	.L596
 2648              	.LVL277:
 2649              	.LBB1316:
 2650              	.LBB1317:
 2651              	.LBB1318:
 2652              	.LBB1319:
 216:C:/Renesas/e2studio_2021_01_workspace_RZA2M_ANPR/ANPR_RZA2M_GR_MANGO/src/tensorflow_lite/tensorflow/lite/kernels/internal\types.h ****   }
 2653              		.loc 4 216 0
 2654 0a74 48319DE5 		ldr	r3, [sp, #328]
 2655              	.LBE1319:
 2656              	.LBE1318:
 2657              	.LBB1321:
 2658              	.LBB1322:
 2659 0a78 90219DE5 		ldr	r2, [sp, #400]
 2660              	.LBE1322:
 2661              	.LBE1321:
 2662              	.LBB1324:
 2663              	.LBB1320:
 2664 0a7c 78308DE5 		str	r3, [sp, #120]
 2665              	.LVL278:
 2666              	.LBE1320:
 2667              	.LBE1324:
 2668              		.loc 4 472 0
 2669 0a80 020053E1 		cmp	r3, r2
 2670              	.LBB1325:
 2671              	.LBB1323:
 216:C:/Renesas/e2studio_2021_01_workspace_RZA2M_ANPR/ANPR_RZA2M_GR_MANGO/src/tensorflow_lite/tensorflow/lite/kernels/internal\types.h ****   }
 2672              		.loc 4 216 0
 2673 0a84 48208DE5 		str	r2, [sp, #72]
 2674              	.LVL279:
 2675              	.LBE1323:
 2676              	.LBE1325:
 2677              		.loc 4 472 0
 2678 0a88 E603001A 		bne	.L597
 2679              	.LVL280:
 2680              	.LBE1317:
 2681              	.LBE1316:
 2682              	.LBB1327:
 2683              	.LBB1328:
 2684              	.LBB1329:
 2685              	.LBB1330:
 216:C:/Renesas/e2studio_2021_01_workspace_RZA2M_ANPR/ANPR_RZA2M_GR_MANGO/src/tensorflow_lite/tensorflow/lite/kernels/internal\types.h ****   }
 2686              		.loc 4 216 0
 2687 0a8c 6C319DE5 		ldr	r3, [sp, #364]
 2688 0a90 0320A0E1 		mov	r2, r3
 2689 0a94 50308DE5 		str	r3, [sp, #80]
 2690              	.LVL281:
 2691              	.LBE1330:
 2692              	.LBE1329:
 2693              		.loc 4 472 0
 2694 0a98 9C319DE5 		ldr	r3, [sp, #412]
 2695 0a9c 030052E1 		cmp	r2, r3
 2696 0aa0 E103001A 		bne	.L598
 2697              	.LVL282:
 2698              	.LBE1328:
 2699              	.LBE1327:
 2700              	.LBB1332:
 2701              	.LBB1333:
 216:C:/Renesas/e2studio_2021_01_workspace_RZA2M_ANPR/ANPR_RZA2M_GR_MANGO/src/tensorflow_lite/tensorflow/lite/kernels/internal\types.h ****   }
 2702              		.loc 4 216 0
 2703 0aa4 4C219DE5 		ldr	r2, [sp, #332]
 2704              	.LBE1333:
 2705              	.LBE1332:
 2706              	.LBB1335:
 2707              	.LBB1336:
 2708 0aa8 54319DE5 		ldr	r3, [sp, #340]
 2709              	.LBE1336:
 2710              	.LBE1335:
 2711              	.LBB1338:
 2712              	.LBB1339:
 2713 0aac 50919DE5 		ldr	r9, [sp, #336]
 2714              	.LBE1339:
 2715              	.LBE1338:
 2716              	.LBB1340:
 2717              	.LBB1334:
 2718 0ab0 2C208DE5 		str	r2, [sp, #44]
 2719              	.LVL283:
 2720              	.LBE1334:
 2721              	.LBE1340:
  43:C:/Renesas/e2studio_2021_01_workspace_RZA2M_ANPR/ANPR_RZA2M_GR_MANGO/src/tensorflow_lite/tensorflow/lite/kernels/internal/reference\depthwiseconv_float.h **** 
  44:C:/Renesas/e2studio_2021_01_workspace_RZA2M_ANPR/ANPR_RZA2M_GR_MANGO/src/tensorflow_lite/tensorflow/lite/kernels/internal/reference\depthwiseconv_float.h ****   const int batches = MatchingDim(input_shape, 0, output_shape, 0);
  45:C:/Renesas/e2studio_2021_01_workspace_RZA2M_ANPR/ANPR_RZA2M_GR_MANGO/src/tensorflow_lite/tensorflow/lite/kernels/internal/reference\depthwiseconv_float.h ****   const int output_depth = MatchingDim(filter_shape, 3, output_shape, 3);
  46:C:/Renesas/e2studio_2021_01_workspace_RZA2M_ANPR/ANPR_RZA2M_GR_MANGO/src/tensorflow_lite/tensorflow/lite/kernels/internal/reference\depthwiseconv_float.h ****   const int input_height = input_shape.Dims(1);
  47:C:/Renesas/e2studio_2021_01_workspace_RZA2M_ANPR/ANPR_RZA2M_GR_MANGO/src/tensorflow_lite/tensorflow/lite/kernels/internal/reference\depthwiseconv_float.h ****   const int input_width = input_shape.Dims(2);
  48:C:/Renesas/e2studio_2021_01_workspace_RZA2M_ANPR/ANPR_RZA2M_GR_MANGO/src/tensorflow_lite/tensorflow/lite/kernels/internal/reference\depthwiseconv_float.h ****   const int input_depth = input_shape.Dims(3);
  49:C:/Renesas/e2studio_2021_01_workspace_RZA2M_ANPR/ANPR_RZA2M_GR_MANGO/src/tensorflow_lite/tensorflow/lite/kernels/internal/reference\depthwiseconv_float.h ****   const int filter_height = filter_shape.Dims(1);
  50:C:/Renesas/e2studio_2021_01_workspace_RZA2M_ANPR/ANPR_RZA2M_GR_MANGO/src/tensorflow_lite/tensorflow/lite/kernels/internal/reference\depthwiseconv_float.h ****   const int filter_width = filter_shape.Dims(2);
  51:C:/Renesas/e2studio_2021_01_workspace_RZA2M_ANPR/ANPR_RZA2M_GR_MANGO/src/tensorflow_lite/tensorflow/lite/kernels/internal/reference\depthwiseconv_float.h ****   const int output_height = output_shape.Dims(1);
  52:C:/Renesas/e2studio_2021_01_workspace_RZA2M_ANPR/ANPR_RZA2M_GR_MANGO/src/tensorflow_lite/tensorflow/lite/kernels/internal/reference\depthwiseconv_float.h ****   const int output_width = output_shape.Dims(2);
  53:C:/Renesas/e2studio_2021_01_workspace_RZA2M_ANPR/ANPR_RZA2M_GR_MANGO/src/tensorflow_lite/tensorflow/lite/kernels/internal/reference\depthwiseconv_float.h ****   TFLITE_DCHECK_EQ(output_depth, input_depth * depth_multiplier);
 2722              		.loc 10 53 0
 2723 0ab4 90209DE5 		ldr	r2, [sp, #144]
 2724              	.LBB1341:
 2725              	.LBB1337:
 216:C:/Renesas/e2studio_2021_01_workspace_RZA2M_ANPR/ANPR_RZA2M_GR_MANGO/src/tensorflow_lite/tensorflow/lite/kernels/internal\types.h ****   }
 2726              		.loc 4 216 0
 2727 0ab8 38308DE5 		str	r3, [sp, #56]
 2728              	.LBE1337:
 2729              	.LBE1341:
 2730              	.LBB1342:
 2731              	.LBB1343:
 2732 0abc 64619DE5 		ldr	r6, [sp, #356]
 2733              	.LVL284:
 2734              	.LBE1343:
 2735              	.LBE1342:
 2736              	.LBB1344:
 2737              	.LBB1345:
 2738 0ac0 68B19DE5 		ldr	fp, [sp, #360]
 2739              	.LVL285:
 2740              	.LBE1345:
 2741              	.LBE1344:
 2742              		.loc 10 53 0
 2743 0ac4 930203E0 		mul	r3, r3, r2
 2744              	.LBB1346:
 2745              	.LBB1347:
 216:C:/Renesas/e2studio_2021_01_workspace_RZA2M_ANPR/ANPR_RZA2M_GR_MANGO/src/tensorflow_lite/tensorflow/lite/kernels/internal\types.h ****   }
 2746              		.loc 4 216 0
 2747 0ac8 94219DE5 		ldr	r2, [sp, #404]
 2748 0acc 6C208DE5 		str	r2, [sp, #108]
 2749              	.LVL286:
 2750              	.LBE1347:
 2751              	.LBE1346:
 2752              	.LBB1348:
 2753              	.LBB1349:
 2754 0ad0 98219DE5 		ldr	r2, [sp, #408]
 2755 0ad4 68208DE5 		str	r2, [sp, #104]
 2756              	.LVL287:
 2757              	.LBE1349:
 2758              	.LBE1348:
 2759              		.loc 10 53 0
 2760 0ad8 50209DE5 		ldr	r2, [sp, #80]
 2761 0adc 020053E1 		cmp	r3, r2
 2762 0ae0 D203001A 		bne	.L599
 2763              	.LVL288:
 2764              	.LBB1350:
 2765              	.LBB1351:
 2766              	.LBB1352:
 2767              	.LBB1353:
 232:C:/Renesas/e2studio_2021_01_workspace_RZA2M_ANPR/ANPR_RZA2M_GR_MANGO/src/tensorflow_lite/tensorflow/lite/kernels/internal\types.h ****   }
 2768              		.loc 4 232 0
 2769 0ae4 74319DE5 		ldr	r3, [sp, #372]
 2770 0ae8 050053E3 		cmp	r3, #5
 2771 0aec 8C308DE5 		str	r3, [sp, #140]
 2772 0af0 1C0100CA 		bgt	.L600
 2773              	.LVL289:
 2774              	.LBE1353:
 2775              	.LBE1352:
 2776              	.LBB1356:
 292:C:/Renesas/e2studio_2021_01_workspace_RZA2M_ANPR/ANPR_RZA2M_GR_MANGO/src/tensorflow_lite/tensorflow/lite/kernels/internal\types.h ****       buffer_size *= dims_data[i];
 2777              		.loc 4 292 0
 2778 0af4 000053E3 		cmp	r3, #0
 2779              	.LBE1356:
 290:C:/Renesas/e2studio_2021_01_workspace_RZA2M_ANPR/ANPR_RZA2M_GR_MANGO/src/tensorflow_lite/tensorflow/lite/kernels/internal\types.h ****     const int* dims_data = reinterpret_cast<const int*>(DimsData());
 2780              		.loc 4 290 0
 2781 0af8 0120A0D3 		movle	r2, #1
 2782              	.LBB1357:
 292:C:/Renesas/e2studio_2021_01_workspace_RZA2M_ANPR/ANPR_RZA2M_GR_MANGO/src/tensorflow_lite/tensorflow/lite/kernels/internal\types.h ****       buffer_size *= dims_data[i];
 2783              		.loc 4 292 0
 2784 0afc 530000DA 		ble	.L104
 2785              	.LBE1357:
 2786              	.LBB1358:
 2787              	.LBB1354:
 232:C:/Renesas/e2studio_2021_01_workspace_RZA2M_ANPR/ANPR_RZA2M_GR_MANGO/src/tensorflow_lite/tensorflow/lite/kernels/internal\types.h ****   }
 2788              		.loc 4 232 0
 2789 0b00 5EEF8DE2 		add	lr, sp, #376
 2790 0b04 0320A0E1 		mov	r2, r3
 2791              	.L103:
 2792 0b08 5E31A0E7 		sbfx	r3, lr, #2, #1
 2793 0b0c 033003E2 		and	r3, r3, #3
 2794 0b10 020053E1 		cmp	r3, r2
 2795 0b14 0230A021 		movcs	r3, r2
 2796 0b18 080052E3 		cmp	r2, #8
 2797 0b1c 0230A0D1 		movle	r3, r2
 2798 0b20 C30100CA 		bgt	.L601
 2799              	.L105:
 2800 0b24 010053E3 		cmp	r3, #1
 2801              	.LBE1354:
 2802              	.LBE1358:
 2803              	.LBB1359:
 293:C:/Renesas/e2studio_2021_01_workspace_RZA2M_ANPR/ANPR_RZA2M_GR_MANGO/src/tensorflow_lite/tensorflow/lite/kernels/internal\types.h ****     }
 2804              		.loc 4 293 0
 2805 0b28 00209EE5 		ldr	r2, [lr]
 2806              	.LVL290:
 2807 0b2c AB01000A 		beq	.L341
 2808 0b30 04109EE5 		ldr	r1, [lr, #4]
 2809 0b34 020053E3 		cmp	r3, #2
 2810 0b38 910202E0 		mul	r2, r1, r2
 2811              	.LVL291:
 2812 0b3c A701000A 		beq	.L341
 2813 0b40 08109EE5 		ldr	r1, [lr, #8]
 2814 0b44 030053E3 		cmp	r3, #3
 2815 0b48 910202E0 		mul	r2, r1, r2
 2816              	.LVL292:
 2817 0b4c A301000A 		beq	.L341
 2818 0b50 0C109EE5 		ldr	r1, [lr, #12]
 2819 0b54 040053E3 		cmp	r3, #4
 2820 0b58 910202E0 		mul	r2, r1, r2
 2821              	.LVL293:
 2822 0b5c 9F01000A 		beq	.L341
 2823 0b60 10109EE5 		ldr	r1, [lr, #16]
 2824 0b64 050053E3 		cmp	r3, #5
 2825 0b68 910202E0 		mul	r2, r1, r2
 2826              	.LVL294:
 2827 0b6c 9B01000A 		beq	.L341
 2828 0b70 14109EE5 		ldr	r1, [lr, #20]
 2829 0b74 060053E3 		cmp	r3, #6
 2830 0b78 910202E0 		mul	r2, r1, r2
 2831              	.LVL295:
 2832 0b7c 9701000A 		beq	.L341
 2833 0b80 18109EE5 		ldr	r1, [lr, #24]
 2834 0b84 070053E3 		cmp	r3, #7
 2835 0b88 910202E0 		mul	r2, r1, r2
 2836              	.LVL296:
 2837 0b8c 9301000A 		beq	.L341
 2838 0b90 1C009EE5 		ldr	r0, [lr, #28]
 292:C:/Renesas/e2studio_2021_01_workspace_RZA2M_ANPR/ANPR_RZA2M_GR_MANGO/src/tensorflow_lite/tensorflow/lite/kernels/internal\types.h ****       buffer_size *= dims_data[i];
 2839              		.loc 4 292 0
 2840 0b94 0810A0E3 		mov	r1, #8
 293:C:/Renesas/e2studio_2021_01_workspace_RZA2M_ANPR/ANPR_RZA2M_GR_MANGO/src/tensorflow_lite/tensorflow/lite/kernels/internal\types.h ****     }
 2841              		.loc 4 293 0
 2842 0b98 900202E0 		mul	r2, r0, r2
 2843              	.LVL297:
 2844              	.L107:
 2845 0b9c 8C009DE5 		ldr	r0, [sp, #140]
 2846 0ba0 030050E1 		cmp	r0, r3
 2847 0ba4 2900000A 		beq	.L104
 2848              	.LVL298:
 2849              	.L106:
 2850 0ba8 034040E0 		sub	r4, r0, r3
 2851              	.LVL299:
 2852 0bac 01C040E2 		sub	ip, r0, #1
 2853 0bb0 040044E2 		sub	r0, r4, #4
 2854 0bb4 03C04CE0 		sub	ip, ip, r3
 2855 0bb8 2001A0E1 		lsr	r0, r0, #2
 2856 0bbc 02005CE3 		cmp	ip, #2
 2857 0bc0 010080E2 		add	r0, r0, #1
 2858 0bc4 0051A0E1 		lsl	r5, r0, #2
 2859 0bc8 1200009A 		bls	.L109
 2860 0bcc 03318EE0 		add	r3, lr, r3, lsl #2
 292:C:/Renesas/e2studio_2021_01_workspace_RZA2M_ANPR/ANPR_RZA2M_GR_MANGO/src/tensorflow_lite/tensorflow/lite/kernels/internal\types.h ****       buffer_size *= dims_data[i];
 2861              		.loc 4 292 0
 2862 0bd0 5140C0F2 		vmov.i32	q10, #1  @ v4si
 2863 0bd4 00C0A0E3 		mov	ip, #0
 2864              	.L111:
 2865 0bd8 01C08CE2 		add	ip, ip, #1
 293:C:/Renesas/e2studio_2021_01_workspace_RZA2M_ANPR/ANPR_RZA2M_GR_MANGO/src/tensorflow_lite/tensorflow/lite/kernels/internal\types.h ****     }
 2866              		.loc 4 293 0
 2867 0bdc DF0A63F4 		vld1.64	{d16-d17}, [r3:64]
 2868 0be0 0C0050E1 		cmp	r0, ip
 2869 0be4 103083E2 		add	r3, r3, #16
 2870 0be8 F04964F2 		vmul.i32	q10, q10, q8
 2871 0bec F9FFFF8A 		bhi	.L111
 2872 0bf0 050054E1 		cmp	r4, r5
 2873 0bf4 051081E0 		add	r1, r1, r5
 2874 0bf8 5000C0F2 		vmov.i32	q8, #0  @ v4si
 2875 0bfc E028F4F2 		vext.32	q9, q10, q8, #2
 2876 0c00 F42962F2 		vmul.i32	q9, q9, q10
 2877 0c04 E004F2F2 		vext.32	q8, q9, q8, #1
 2878 0c08 F20960F2 		vmul.i32	q8, q8, q9
 2879 0c0c 903B10EE 		vmov.32	r3, d16[0]
 2880 0c10 930202E0 		mul	r2, r3, r2
 2881 0c14 0D00000A 		beq	.L104
 2882              	.L109:
 2883              	.LVL300:
 292:C:/Renesas/e2studio_2021_01_workspace_RZA2M_ANPR/ANPR_RZA2M_GR_MANGO/src/tensorflow_lite/tensorflow/lite/kernels/internal\types.h ****       buffer_size *= dims_data[i];
 2884              		.loc 4 292 0
 2885 0c18 8CC09DE5 		ldr	ip, [sp, #140]
 2886 0c1c 013081E2 		add	r3, r1, #1
 293:C:/Renesas/e2studio_2021_01_workspace_RZA2M_ANPR/ANPR_RZA2M_GR_MANGO/src/tensorflow_lite/tensorflow/lite/kernels/internal\types.h ****     }
 2887              		.loc 4 293 0
 2888 0c20 01019EE7 		ldr	r0, [lr, r1, lsl #2]
 292:C:/Renesas/e2studio_2021_01_workspace_RZA2M_ANPR/ANPR_RZA2M_GR_MANGO/src/tensorflow_lite/tensorflow/lite/kernels/internal\types.h ****       buffer_size *= dims_data[i];
 2889              		.loc 4 292 0
 2890 0c24 03005CE1 		cmp	ip, r3
 293:C:/Renesas/e2studio_2021_01_workspace_RZA2M_ANPR/ANPR_RZA2M_GR_MANGO/src/tensorflow_lite/tensorflow/lite/kernels/internal\types.h ****     }
 2891              		.loc 4 293 0
 2892 0c28 0131A0E1 		lsl	r3, r1, #2
 2893 0c2c 900202E0 		mul	r2, r0, r2
 2894              	.LVL301:
 292:C:/Renesas/e2studio_2021_01_workspace_RZA2M_ANPR/ANPR_RZA2M_GR_MANGO/src/tensorflow_lite/tensorflow/lite/kernels/internal\types.h ****       buffer_size *= dims_data[i];
 2895              		.loc 4 292 0
 2896 0c30 060000DA 		ble	.L104
 293:C:/Renesas/e2studio_2021_01_workspace_RZA2M_ANPR/ANPR_RZA2M_GR_MANGO/src/tensorflow_lite/tensorflow/lite/kernels/internal\types.h ****     }
 2897              		.loc 4 293 0
 2898 0c34 03E08EE0 		add	lr, lr, r3
 292:C:/Renesas/e2studio_2021_01_workspace_RZA2M_ANPR/ANPR_RZA2M_GR_MANGO/src/tensorflow_lite/tensorflow/lite/kernels/internal\types.h ****       buffer_size *= dims_data[i];
 2899              		.loc 4 292 0
 2900 0c38 021081E2 		add	r1, r1, #2
 293:C:/Renesas/e2studio_2021_01_workspace_RZA2M_ANPR/ANPR_RZA2M_GR_MANGO/src/tensorflow_lite/tensorflow/lite/kernels/internal\types.h ****     }
 2901              		.loc 4 293 0
 2902 0c3c 04309EE5 		ldr	r3, [lr, #4]
 292:C:/Renesas/e2studio_2021_01_workspace_RZA2M_ANPR/ANPR_RZA2M_GR_MANGO/src/tensorflow_lite/tensorflow/lite/kernels/internal\types.h ****       buffer_size *= dims_data[i];
 2903              		.loc 4 292 0
 2904 0c40 01005CE1 		cmp	ip, r1
 293:C:/Renesas/e2studio_2021_01_workspace_RZA2M_ANPR/ANPR_RZA2M_GR_MANGO/src/tensorflow_lite/tensorflow/lite/kernels/internal\types.h ****     }
 2905              		.loc 4 293 0
 2906 0c44 930202E0 		mul	r2, r3, r2
 2907              	.LVL302:
 292:C:/Renesas/e2studio_2021_01_workspace_RZA2M_ANPR/ANPR_RZA2M_GR_MANGO/src/tensorflow_lite/tensorflow/lite/kernels/internal\types.h ****       buffer_size *= dims_data[i];
 2908              		.loc 4 292 0
 293:C:/Renesas/e2studio_2021_01_workspace_RZA2M_ANPR/ANPR_RZA2M_GR_MANGO/src/tensorflow_lite/tensorflow/lite/kernels/internal\types.h ****     }
 2909              		.loc 4 293 0
 2910 0c48 08309EC5 		ldrgt	r3, [lr, #8]
 2911 0c4c 930202C0 		mulgt	r2, r3, r2
 2912              	.LVL303:
 2913              	.L104:
 2914              	.LBE1359:
 2915              	.LBE1351:
 2916              	.LBE1350:
  54:C:/Renesas/e2studio_2021_01_workspace_RZA2M_ANPR/ANPR_RZA2M_GR_MANGO/src/tensorflow_lite/tensorflow/lite/kernels/internal/reference\depthwiseconv_float.h ****   TFLITE_DCHECK_EQ(bias_shape.FlatSize(), output_depth);
 2917              		.loc 10 54 0
 2918 0c50 50309DE5 		ldr	r3, [sp, #80]
 2919 0c54 020053E1 		cmp	r3, r2
 2920 0c58 1B03001A 		bne	.L115
 2921              	.LVL304:
 2922              	.LBB1366:
  55:C:/Renesas/e2studio_2021_01_workspace_RZA2M_ANPR/ANPR_RZA2M_GR_MANGO/src/tensorflow_lite/tensorflow/lite/kernels/internal/reference\depthwiseconv_float.h **** 
  56:C:/Renesas/e2studio_2021_01_workspace_RZA2M_ANPR/ANPR_RZA2M_GR_MANGO/src/tensorflow_lite/tensorflow/lite/kernels/internal/reference\depthwiseconv_float.h ****   for (int b = 0; b < batches; ++b) {
 2923              		.loc 10 56 0
 2924 0c5c 78309DE5 		ldr	r3, [sp, #120]
 2925 0c60 000053E3 		cmp	r3, #0
 2926 0c64 400100DA 		ble	.L120
 2927 0c68 003068E2 		rsb	r3, r8, #0
 2928 0c6c 6C109DE5 		ldr	r1, [sp, #108]
 2929 0c70 03E0A0E1 		mov	lr, r3
 2930 0c74 E0308DE5 		str	r3, [sp, #224]
 2931 0c78 68309DE5 		ldr	r3, [sp, #104]
 2932 0c7c 0B51A0E1 		lsl	r5, fp, #2
 2933 0c80 38009DE5 		ldr	r0, [sp, #56]
 2934 0c84 9E090EE0 		mul	lr, lr, r9
 2935 0c88 24809DE5 		ldr	r8, [sp, #36]
 2936              	.LVL305:
 2937 0c8c 930103E0 		mul	r3, r3, r1
 2938              	.LBB1367:
 2939              	.LBB1368:
 2940              	.LBB1369:
 2941              	.LBB1370:
 2942              	.LBB1371:
 2943              	.LBB1372:
 2944              	.LBB1373:
 2945              	.LBB1374:
 2946              	.LBB1375:
 2947              	.LBB1376:
 2948              	.LBB1377:
 2949              	.LBB1378:
 406:C:/Renesas/e2studio_2021_01_workspace_RZA2M_ANPR/ANPR_RZA2M_GR_MANGO/src/tensorflow_lite/tensorflow/lite/kernels/internal\types.h ****   TFLITE_DCHECK(i1 >= 0 && i1 < dims_data[1]);
 2950              		.loc 4 406 0
 2951 0c90 60119DE5 		ldr	r1, [sp, #352]
 2952 0c94 802080E0 		add	r2, r0, r0, lsl #1
 2953 0c98 B0808DE5 		str	r8, [sp, #176]
 2954 0c9c 900900E0 		mul	r0, r0, r9
 2955 0ca0 8241A0E1 		lsl	r4, r2, #3
 2956 0ca4 002067E2 		rsb	r2, r7, #0
 2957 0ca8 03C1A0E1 		lsl	ip, r3, #2
 2958 0cac C4208DE5 		str	r2, [sp, #196]
 2959 0cb0 50309DE5 		ldr	r3, [sp, #80]
 2960 0cb4 07E04EE0 		sub	lr, lr, r7
 2961 0cb8 68209DE5 		ldr	r2, [sp, #104]
 2962 0cbc 4C108DE5 		str	r1, [sp, #76]
 2963 0cc0 2C109DE5 		ldr	r1, [sp, #44]
 2964 0cc4 0381A0E1 		lsl	r8, r3, #2
 2965 0cc8 930202E0 		mul	r2, r3, r2
 2966 0ccc 0031A0E1 		lsl	r3, r0, #2
 2967 0cd0 90009DE5 		ldr	r0, [sp, #144]
 2968 0cd4 990101E0 		mul	r1, r9, r1
 2969 0cd8 0221A0E1 		lsl	r2, r2, #2
 2970 0cdc 0001A0E1 		lsl	r0, r0, #2
 2971 0ce0 D0208DE5 		str	r2, [sp, #208]
 2972 0ce4 0111A0E1 		lsl	r1, r1, #2
 2973 0ce8 BC209DE5 		ldr	r2, [sp, #188]
 2974 0cec C8008DE5 		str	r0, [sp, #200]
 2975 0cf0 0000A0E3 		mov	r0, #0
 2976 0cf4 34008DE5 		str	r0, [sp, #52]
 2977 0cf8 50009DE5 		ldr	r0, [sp, #80]
 2978 0cfc 930202E0 		mul	r2, r3, r2
 2979 0d00 900C0CE0 		mul	ip, r0, ip
 2980 0d04 38009DE5 		ldr	r0, [sp, #56]
 2981 0d08 D4208DE5 		str	r2, [sp, #212]
 2982 0d0c 20209DE5 		ldr	r2, [sp, #32]
 2983 0d10 900101E0 		mul	r1, r0, r1
 2984 0d14 D8C08DE5 		str	ip, [sp, #216]
 2985 0d18 930202E0 		mul	r2, r3, r2
 2986 0d1c DC108DE5 		str	r1, [sp, #220]
 2987 0d20 28208DE5 		str	r2, [sp, #40]
 2988 0d24 9A0402E0 		mul	r2, r10, r4
 2989 0d28 54208DE5 		str	r2, [sp, #84]
 2990 0d2c 50209DE5 		ldr	r2, [sp, #80]
 2991 0d30 920503E0 		mul	r3, r2, r5
 2992 0d34 B8209DE5 		ldr	r2, [sp, #184]
 2993 0d38 24308DE5 		str	r3, [sp, #36]
 2994 0d3c 0031A0E1 		lsl	r3, r0, #2
 2995 0d40 930202E0 		mul	r2, r3, r2
 2996 0d44 930A07E0 		mul	r7, r3, r10
 2997              	.LVL306:
 2998 0d48 CC208DE5 		str	r2, [sp, #204]
 2999 0d4c 30209DE5 		ldr	r2, [sp, #48]
 3000 0d50 932E22E0 		mla	r2, r3, lr, r2
 3001 0d54 0830A0E1 		mov	r3, r8
 3002 0d58 0980A0E1 		mov	r8, r9
 3003 0d5c 0690A0E1 		mov	r9, r6
 3004 0d60 B4208DE5 		str	r2, [sp, #180]
 3005 0d64 0720A0E1 		mov	r2, r7
 3006 0d68 0360A0E1 		mov	r6, r3
 3007 0d6c 0B70A0E1 		mov	r7, fp
 3008 0d70 0AB0A0E1 		mov	fp, r10
 3009 0d74 02A0A0E1 		mov	r10, r2
 3010              	.LVL307:
 3011              	.L121:
 3012              	.LBE1378:
 3013              	.LBE1377:
 3014              	.LBE1376:
 3015              	.LBE1375:
 3016              	.LBE1374:
 3017              	.LBE1373:
 3018              	.LBE1372:
 3019              	.LBE1371:
 3020              	.LBE1370:
 3021              	.LBE1369:
 3022              	.LBE1368:
  57:C:/Renesas/e2studio_2021_01_workspace_RZA2M_ANPR/ANPR_RZA2M_GR_MANGO/src/tensorflow_lite/tensorflow/lite/kernels/internal/reference\depthwiseconv_float.h ****     for (int out_y = 0; out_y < output_height; ++out_y) {
 3023              		.loc 10 57 0
 3024 0d78 6C309DE5 		ldr	r3, [sp, #108]
 3025 0d7c 000053E3 		cmp	r3, #0
 3026 0d80 EB0000DA 		ble	.L123
 3027 0d84 E0309DE5 		ldr	r3, [sp, #224]
 3028 0d88 80308DE5 		str	r3, [sp, #128]
 3029 0d8c B4309DE5 		ldr	r3, [sp, #180]
 3030 0d90 AC308DE5 		str	r3, [sp, #172]
 3031 0d94 B0309DE5 		ldr	r3, [sp, #176]
 3032 0d98 A8308DE5 		str	r3, [sp, #168]
 3033 0d9c 0030A0E3 		mov	r3, #0
 3034 0da0 74308DE5 		str	r3, [sp, #116]
 3035 0da4 0A30A0E1 		mov	r3, r10
 3036 0da8 0BA0A0E1 		mov	r10, fp
 3037 0dac 03B0A0E1 		mov	fp, r3
 3038              	.LVL308:
 3039              	.L119:
 3040              	.LBB1468:
  58:C:/Renesas/e2studio_2021_01_workspace_RZA2M_ANPR/ANPR_RZA2M_GR_MANGO/src/tensorflow_lite/tensorflow/lite/kernels/internal/reference\depthwiseconv_float.h ****       for (int out_x = 0; out_x < output_width; ++out_x) {
 3041              		.loc 10 58 0
 3042 0db0 68309DE5 		ldr	r3, [sp, #104]
 3043 0db4 000053E3 		cmp	r3, #0
 3044 0db8 C80000DA 		ble	.L125
 3045 0dbc C4309DE5 		ldr	r3, [sp, #196]
 3046 0dc0 0920A0E1 		mov	r2, r9
 3047 0dc4 0890A0E1 		mov	r9, r8
 3048 0dc8 0280A0E1 		mov	r8, r2
 3049 0dcc 58308DE5 		str	r3, [sp, #88]
 3050 0dd0 AC309DE5 		ldr	r3, [sp, #172]
 3051 0dd4 A4308DE5 		str	r3, [sp, #164]
 3052 0dd8 A8309DE5 		ldr	r3, [sp, #168]
 3053 0ddc A0308DE5 		str	r3, [sp, #160]
 3054 0de0 0030A0E3 		mov	r3, #0
 3055 0de4 70308DE5 		str	r3, [sp, #112]
 3056 0de8 0B30A0E1 		mov	r3, fp
 3057 0dec 0AB0A0E1 		mov	fp, r10
 3058 0df0 03A0A0E1 		mov	r10, r3
 3059              	.LVL309:
 3060              	.L122:
 3061              	.LBB1460:
  59:C:/Renesas/e2studio_2021_01_workspace_RZA2M_ANPR/ANPR_RZA2M_GR_MANGO/src/tensorflow_lite/tensorflow/lite/kernels/internal/reference\depthwiseconv_float.h ****         for (int ic = 0; ic < input_depth; ++ic) {
 3062              		.loc 10 59 0
 3063 0df4 38309DE5 		ldr	r3, [sp, #56]
 3064 0df8 000053E3 		cmp	r3, #0
 3065 0dfc A00000DA 		ble	.L127
 3066 0e00 88209DE5 		ldr	r2, [sp, #136]
 3067 0e04 0030A0E3 		mov	r3, #0
 3068 0e08 3C308DE5 		str	r3, [sp, #60]
 3069 0e0c 98208DE5 		str	r2, [sp, #152]
 3070 0e10 C0209DE5 		ldr	r2, [sp, #192]
 3071 0e14 9C208DE5 		str	r2, [sp, #156]
 3072 0e18 A4209DE5 		ldr	r2, [sp, #164]
 3073 0e1c 7C208DE5 		str	r2, [sp, #124]
 3074 0e20 A0209DE5 		ldr	r2, [sp, #160]
 3075 0e24 94208DE5 		str	r2, [sp, #148]
 3076              	.LVL310:
 3077              	.L128:
 3078              	.LBB1452:
  60:C:/Renesas/e2studio_2021_01_workspace_RZA2M_ANPR/ANPR_RZA2M_GR_MANGO/src/tensorflow_lite/tensorflow/lite/kernels/internal/reference\depthwiseconv_float.h ****           for (int m = 0; m < depth_multiplier; m++) {
 3079              		.loc 10 60 0
 3080 0e28 90209DE5 		ldr	r2, [sp, #144]
 3081 0e2c 000052E3 		cmp	r2, #0
 3082 0e30 060100DA 		ble	.L602
 3083 0e34 032082E0 		add	r2, r2, r3
 3084 0e38 30308DE5 		str	r3, [sp, #48]
 3085 0e3c 9C309DE5 		ldr	r3, [sp, #156]
 3086 0e40 84208DE5 		str	r2, [sp, #132]
 3087 0e44 5C308DE5 		str	r3, [sp, #92]
 3088 0e48 98309DE5 		ldr	r3, [sp, #152]
 3089 0e4c 60308DE5 		str	r3, [sp, #96]
 3090 0e50 94309DE5 		ldr	r3, [sp, #148]
 3091 0e54 64308DE5 		str	r3, [sp, #100]
 3092              	.LVL311:
 3093              	.L171:
 3094              	.LBB1442:
 3095              	.LBB1423:
  61:C:/Renesas/e2studio_2021_01_workspace_RZA2M_ANPR/ANPR_RZA2M_GR_MANGO/src/tensorflow_lite/tensorflow/lite/kernels/internal/reference\depthwiseconv_float.h ****             const int oc = m + ic * depth_multiplier;
  62:C:/Renesas/e2studio_2021_01_workspace_RZA2M_ANPR/ANPR_RZA2M_GR_MANGO/src/tensorflow_lite/tensorflow/lite/kernels/internal/reference\depthwiseconv_float.h ****             const int in_x_origin = (out_x * stride_width) - pad_width;
  63:C:/Renesas/e2studio_2021_01_workspace_RZA2M_ANPR/ANPR_RZA2M_GR_MANGO/src/tensorflow_lite/tensorflow/lite/kernels/internal/reference\depthwiseconv_float.h ****             const int in_y_origin = (out_y * stride_height) - pad_height;
  64:C:/Renesas/e2studio_2021_01_workspace_RZA2M_ANPR/ANPR_RZA2M_GR_MANGO/src/tensorflow_lite/tensorflow/lite/kernels/internal/reference\depthwiseconv_float.h ****             float total = 0.f;
  65:C:/Renesas/e2studio_2021_01_workspace_RZA2M_ANPR/ANPR_RZA2M_GR_MANGO/src/tensorflow_lite/tensorflow/lite/kernels/internal/reference\depthwiseconv_float.h ****             for (int filter_y = 0; filter_y < filter_height; ++filter_y) {
 3096              		.loc 10 65 0
 3097 0e58 000058E3 		cmp	r8, #0
 3098              	.LBE1423:
  64:C:/Renesas/e2studio_2021_01_workspace_RZA2M_ANPR/ANPR_RZA2M_GR_MANGO/src/tensorflow_lite/tensorflow/lite/kernels/internal/reference\depthwiseconv_float.h ****             for (int filter_y = 0; filter_y < filter_height; ++filter_y) {
 3099              		.loc 10 64 0
 3100 0e5c FA7ADFED 		vldr.32	s15, .L630
 3101              	.LBB1424:
 3102              		.loc 10 65 0
 3103 0e60 450000DA 		ble	.L129
 3104 0e64 7C509DE5 		ldr	r5, [sp, #124]
 3105 0e68 00E0A0E3 		mov	lr, #0
 3106 0e6c 5C409DE5 		ldr	r4, [sp, #92]
 3107 0e70 80C09DE5 		ldr	ip, [sp, #128]
 3108 0e74 080000EA 		b	.L161
 3109              	.LVL312:
 3110              	.L130:
 3111 0e78 20309DE5 		ldr	r3, [sp, #32]
 3112 0e7c 01E08EE2 		add	lr, lr, #1
 3113              	.LVL313:
 3114 0e80 08005EE1 		cmp	lr, r8
 3115 0e84 03C08CE0 		add	ip, ip, r3
 3116 0e88 24309DE5 		ldr	r3, [sp, #36]
 3117 0e8c 034084E0 		add	r4, r4, r3
 3118 0e90 28309DE5 		ldr	r3, [sp, #40]
 3119 0e94 035085E0 		add	r5, r5, r3
 3120 0e98 3700000A 		beq	.L129
 3121              	.LVL314:
 3122              	.L161:
 3123              	.LBB1417:
  66:C:/Renesas/e2studio_2021_01_workspace_RZA2M_ANPR/ANPR_RZA2M_GR_MANGO/src/tensorflow_lite/tensorflow/lite/kernels/internal/reference\depthwiseconv_float.h ****               for (int filter_x = 0; filter_x < filter_width; ++filter_x) {
 3124              		.loc 10 66 0
 3125 0e9c 000057E3 		cmp	r7, #0
 3126 0ea0 F4FFFFDA 		ble	.L130
 3127 0ea4 2C309DE5 		ldr	r3, [sp, #44]
 3128 0ea8 00005CE3 		cmp	ip, #0
 3129 0eac 0C0053A1 		cmpge	r3, ip
 3130 0eb0 F0FFFFDA 		ble	.L130
 3131 0eb4 50309DE5 		ldr	r3, [sp, #80]
 3132 0eb8 30209DE5 		ldr	r2, [sp, #48]
 3133 0ebc 020053E1 		cmp	r3, r2
 3134 0ec0 0230A0E1 		mov	r3, r2
 3135 0ec4 820200DA 		ble	.L603
 3136 0ec8 000052E3 		cmp	r2, #0
 3137 0ecc 670200BA 		blt	.L604
 3138 0ed0 0E0058E1 		cmp	r8, lr
 3139 0ed4 540200DA 		ble	.L605
 3140              	.LBB1409:
 3141              	.LBB1401:
  67:C:/Renesas/e2studio_2021_01_workspace_RZA2M_ANPR/ANPR_RZA2M_GR_MANGO/src/tensorflow_lite/tensorflow/lite/kernels/internal/reference\depthwiseconv_float.h ****                 const int in_x = in_x_origin + dilation_width_factor * filter_x;
  68:C:/Renesas/e2studio_2021_01_workspace_RZA2M_ANPR/ANPR_RZA2M_GR_MANGO/src/tensorflow_lite/tensorflow/lite/kernels/internal/reference\depthwiseconv_float.h ****                 const int in_y =
  69:C:/Renesas/e2studio_2021_01_workspace_RZA2M_ANPR/ANPR_RZA2M_GR_MANGO/src/tensorflow_lite/tensorflow/lite/kernels/internal/reference\depthwiseconv_float.h ****                     in_y_origin + dilation_height_factor * filter_y;
  70:C:/Renesas/e2studio_2021_01_workspace_RZA2M_ANPR/ANPR_RZA2M_GR_MANGO/src/tensorflow_lite/tensorflow/lite/kernels/internal/reference\depthwiseconv_float.h ****                 // If the location is outside the bounds of the input image,
  71:C:/Renesas/e2studio_2021_01_workspace_RZA2M_ANPR/ANPR_RZA2M_GR_MANGO/src/tensorflow_lite/tensorflow/lite/kernels/internal/reference\depthwiseconv_float.h ****                 // use zero as a default value.
  72:C:/Renesas/e2studio_2021_01_workspace_RZA2M_ANPR/ANPR_RZA2M_GR_MANGO/src/tensorflow_lite/tensorflow/lite/kernels/internal/reference\depthwiseconv_float.h ****                 if ((in_x >= 0) && (in_x < input_width) && (in_y >= 0) &&
 3142              		.loc 10 72 0
 3143 0ed8 58309DE5 		ldr	r3, [sp, #88]
 3144 0edc 0510A0E1 		mov	r1, r5
 3145 0ee0 0400A0E1 		mov	r0, r4
 3146 0ee4 0020A0E3 		mov	r2, #0
 3147 0ee8 40E08DE5 		str	lr, [sp, #64]
 3148 0eec 44C08DE5 		str	ip, [sp, #68]
 3149              	.LVL315:
 3150              	.L153:
 3151 0ef0 000053E3 		cmp	r3, #0
 3152 0ef4 030059A1 		cmpge	r9, r3
 3153 0ef8 110000DA 		ble	.L156
 3154              	.LVL316:
 3155              	.LBB1397:
 3156              	.LBB1384:
 3157              	.LBB1385:
 406:C:/Renesas/e2studio_2021_01_workspace_RZA2M_ANPR/ANPR_RZA2M_GR_MANGO/src/tensorflow_lite/tensorflow/lite/kernels/internal\types.h ****   TFLITE_DCHECK(i1 >= 0 && i1 < dims_data[1]);
 3158              		.loc 4 406 0
 3159 0efc 48C09DE5 		ldr	ip, [sp, #72]
 3160 0f00 34E09DE5 		ldr	lr, [sp, #52]
 3161 0f04 0E005CE1 		cmp	ip, lr
 3162 0f08 E90100DA 		ble	.L136
 409:C:/Renesas/e2studio_2021_01_workspace_RZA2M_ANPR/ANPR_RZA2M_GR_MANGO/src/tensorflow_lite/tensorflow/lite/kernels/internal\types.h ****   return ((i0 * dims_data[1] + i1) * dims_data[2] + i2) * dims_data[3] + i3;
 3163              		.loc 4 409 0
 3164 0f0c 38C09DE5 		ldr	ip, [sp, #56]
 3165 0f10 3CE09DE5 		ldr	lr, [sp, #60]
 3166 0f14 0E005CE1 		cmp	ip, lr
 3167 0f18 E40100DA 		ble	.L137
 3168              	.LVL317:
 3169              	.LBE1385:
 3170              	.LBE1384:
 3171              	.LBB1389:
 3172              	.LBB1379:
 406:C:/Renesas/e2studio_2021_01_workspace_RZA2M_ANPR/ANPR_RZA2M_GR_MANGO/src/tensorflow_lite/tensorflow/lite/kernels/internal\types.h ****   TFLITE_DCHECK(i1 >= 0 && i1 < dims_data[1]);
 3173              		.loc 4 406 0
 3174 0f1c 4CC09DE5 		ldr	ip, [sp, #76]
 3175              	.LBE1379:
 3176              	.LBE1389:
  73:C:/Renesas/e2studio_2021_01_workspace_RZA2M_ANPR/ANPR_RZA2M_GR_MANGO/src/tensorflow_lite/tensorflow/lite/kernels/internal/reference\depthwiseconv_float.h ****                     (in_y < input_height)) {
  74:C:/Renesas/e2studio_2021_01_workspace_RZA2M_ANPR/ANPR_RZA2M_GR_MANGO/src/tensorflow_lite/tensorflow/lite/kernels/internal/reference\depthwiseconv_float.h ****                   float input_value =
  75:C:/Renesas/e2studio_2021_01_workspace_RZA2M_ANPR/ANPR_RZA2M_GR_MANGO/src/tensorflow_lite/tensorflow/lite/kernels/internal/reference\depthwiseconv_float.h ****                       input_data[Offset(input_shape, b, in_y, in_x, ic)];
 3177              		.loc 10 75 0
 3178 0f20 006AD1ED 		vldr.32	s13, [r1]
 3179              	.LVL318:
 3180              	.LBB1390:
 3181              	.LBB1380:
 406:C:/Renesas/e2studio_2021_01_workspace_RZA2M_ANPR/ANPR_RZA2M_GR_MANGO/src/tensorflow_lite/tensorflow/lite/kernels/internal\types.h ****   TFLITE_DCHECK(i1 >= 0 && i1 < dims_data[1]);
 3182              		.loc 4 406 0
 3183 0f24 00005CE3 		cmp	ip, #0
 3184 0f28 54C09DE5 		ldr	ip, [sp, #84]
 3185 0f2c 0CF0D1F7 		pld	[r1, ip]
 3186 0f30 DD0100DA 		ble	.L139
 408:C:/Renesas/e2studio_2021_01_workspace_RZA2M_ANPR/ANPR_RZA2M_GR_MANGO/src/tensorflow_lite/tensorflow/lite/kernels/internal\types.h ****   TFLITE_DCHECK(i3 >= 0 && i3 < dims_data[3]);
 3187              		.loc 4 408 0
 3188 0f34 020057E1 		cmp	r7, r2
 3189 0f38 DA0100DA 		ble	.L143
 3190              	.LVL319:
 3191              	.LBE1380:
 3192              	.LBE1390:
  76:C:/Renesas/e2studio_2021_01_workspace_RZA2M_ANPR/ANPR_RZA2M_GR_MANGO/src/tensorflow_lite/tensorflow/lite/kernels/internal/reference\depthwiseconv_float.h ****                   float filter_value = filter_data[Offset(
  77:C:/Renesas/e2studio_2021_01_workspace_RZA2M_ANPR/ANPR_RZA2M_GR_MANGO/src/tensorflow_lite/tensorflow/lite/kernels/internal/reference\depthwiseconv_float.h ****                       filter_shape, 0, filter_y, filter_x, oc)];
  78:C:/Renesas/e2studio_2021_01_workspace_RZA2M_ANPR/ANPR_RZA2M_GR_MANGO/src/tensorflow_lite/tensorflow/lite/kernels/internal/reference\depthwiseconv_float.h ****                   total += (input_value * filter_value);
 3193              		.loc 10 78 0
 3194 0f3c 007A90ED 		vldr.32	s14, [r0]
 3195 0f40 877A46EE 		vmla.f32	s15, s13, s14
 3196              	.LVL320:
 3197              	.L156:
 3198              	.LBE1397:
 3199              	.LBE1401:
 3200              	.LBE1409:
  66:C:/Renesas/e2studio_2021_01_workspace_RZA2M_ANPR/ANPR_RZA2M_GR_MANGO/src/tensorflow_lite/tensorflow/lite/kernels/internal/reference\depthwiseconv_float.h ****                 const int in_x = in_x_origin + dilation_width_factor * filter_x;
 3201              		.loc 10 66 0
 3202 0f44 012082E2 		add	r2, r2, #1
 3203              	.LVL321:
 3204 0f48 0B3083E0 		add	r3, r3, fp
 3205 0f4c 070052E1 		cmp	r2, r7
 3206 0f50 060080E0 		add	r0, r0, r6
 3207 0f54 0A1081E0 		add	r1, r1, r10
 3208 0f58 E4FFFF1A 		bne	.L153
 3209 0f5c 40E09DE5 		ldr	lr, [sp, #64]
 3210 0f60 44C09DE5 		ldr	ip, [sp, #68]
 3211 0f64 C3FFFFEA 		b	.L130
 3212              	.LVL322:
 3213              	.L600:
 3214              	.LBE1417:
 3215              	.LBE1424:
 3216              	.LBE1442:
 3217              	.LBE1452:
 3218              	.LBE1460:
 3219              	.LBE1468:
 3220              	.LBE1367:
 3221              	.LBE1366:
 3222              	.LBB1483:
 3223              	.LBB1363:
 3224              	.LBB1360:
 3225              	.LBB1355:
 232:C:/Renesas/e2studio_2021_01_workspace_RZA2M_ANPR/ANPR_RZA2M_GR_MANGO/src/tensorflow_lite/tensorflow/lite/kernels/internal\types.h ****   }
 3226              		.loc 4 232 0
 3227 0f68 78E19DE5 		ldr	lr, [sp, #376]
 3228              	.LVL323:
 3229 0f6c 0320A0E1 		mov	r2, r3
 3230 0f70 E4FEFFEA 		b	.L103
 3231              	.LVL324:
 3232              	.L575:
 3233              	.LBE1355:
 3234              	.LBE1360:
 3235              	.LBE1363:
 3236              	.LBE1483:
 3237              	.LBE1497:
 3238              	.LBE1514:
 3239              	.LBB1515:
 3240              	.LBB1281:
 3241              	.LBB1267:
 3242              	.LBB1125:
 3243              	.LBB1100:
 3244              	.LBB1088:
 3245              	.LBB972:
 3246              	.LBB969:
 3247              	.LBB964:
 3248 0f74 60C19DE5 		ldr	ip, [sp, #352]
 3249              	.LVL325:
 3250 0f78 CAFCFFEA 		b	.L234
 3251              	.LVL326:
 3252              	.L129:
 3253              	.LBE964:
 3254              	.LBE969:
 3255              	.LBE972:
 3256              	.LBE1088:
 3257              	.LBE1100:
 3258              	.LBE1125:
 3259              	.LBE1267:
 3260              	.LBE1281:
 3261              	.LBE1515:
 3262              	.LBB1516:
 3263              	.LBB1498:
 3264              	.LBB1484:
 3265              	.LBB1476:
 3266              	.LBB1469:
 3267              	.LBB1461:
 3268              	.LBB1453:
 3269              	.LBB1443:
  79:C:/Renesas/e2studio_2021_01_workspace_RZA2M_ANPR/ANPR_RZA2M_GR_MANGO/src/tensorflow_lite/tensorflow/lite/kernels/internal/reference\depthwiseconv_float.h ****                 }
  80:C:/Renesas/e2studio_2021_01_workspace_RZA2M_ANPR/ANPR_RZA2M_GR_MANGO/src/tensorflow_lite/tensorflow/lite/kernels/internal/reference\depthwiseconv_float.h ****               }
  81:C:/Renesas/e2studio_2021_01_workspace_RZA2M_ANPR/ANPR_RZA2M_GR_MANGO/src/tensorflow_lite/tensorflow/lite/kernels/internal/reference\depthwiseconv_float.h ****             }
  82:C:/Renesas/e2studio_2021_01_workspace_RZA2M_ANPR/ANPR_RZA2M_GR_MANGO/src/tensorflow_lite/tensorflow/lite/kernels/internal/reference\depthwiseconv_float.h ****             float bias_value = 0.0f;
  83:C:/Renesas/e2studio_2021_01_workspace_RZA2M_ANPR/ANPR_RZA2M_GR_MANGO/src/tensorflow_lite/tensorflow/lite/kernels/internal/reference\depthwiseconv_float.h ****             if (bias_data) {
 3270              		.loc 10 83 0
 3271 0f7c 88309DE5 		ldr	r3, [sp, #136]
 3272              	.LBB1425:
 3273              	.LBB1426:
 406:C:/Renesas/e2studio_2021_01_workspace_RZA2M_ANPR/ANPR_RZA2M_GR_MANGO/src/tensorflow_lite/tensorflow/lite/kernels/internal\types.h ****   TFLITE_DCHECK(i1 >= 0 && i1 < dims_data[1]);
 3274              		.loc 4 406 0
 3275 0f80 34209DE5 		ldr	r2, [sp, #52]
 3276              	.LBE1426:
 3277              	.LBE1425:
 3278              		.loc 10 83 0
 3279 0f84 000053E3 		cmp	r3, #0
  84:C:/Renesas/e2studio_2021_01_workspace_RZA2M_ANPR/ANPR_RZA2M_GR_MANGO/src/tensorflow_lite/tensorflow/lite/kernels/internal/reference\depthwiseconv_float.h ****               bias_value = bias_data[oc];
 3280              		.loc 10 84 0
 3281 0f88 60309D15 		ldrne	r3, [sp, #96]
  82:C:/Renesas/e2studio_2021_01_workspace_RZA2M_ANPR/ANPR_RZA2M_GR_MANGO/src/tensorflow_lite/tensorflow/lite/kernels/internal/reference\depthwiseconv_float.h ****             if (bias_data) {
 3282              		.loc 10 82 0
 3283 0f8c AE7A9F0D 		vldreq.32	s14, .L630
 3284              		.loc 10 84 0
 3285 0f90 007A931D 		vldrne.32	s14, [r3]
 3286              	.LVL327:
 3287              	.LBB1429:
 3288              	.LBB1427:
 406:C:/Renesas/e2studio_2021_01_workspace_RZA2M_ANPR/ANPR_RZA2M_GR_MANGO/src/tensorflow_lite/tensorflow/lite/kernels/internal\types.h ****   TFLITE_DCHECK(i1 >= 0 && i1 < dims_data[1]);
 3289              		.loc 4 406 0
 3290 0f94 78309DE5 		ldr	r3, [sp, #120]
 3291 0f98 020053E1 		cmp	r3, r2
 3292 0f9c 100200DA 		ble	.L606
 407:C:/Renesas/e2studio_2021_01_workspace_RZA2M_ANPR/ANPR_RZA2M_GR_MANGO/src/tensorflow_lite/tensorflow/lite/kernels/internal\types.h ****   TFLITE_DCHECK(i2 >= 0 && i2 < dims_data[2]);
 3293              		.loc 4 407 0
 3294 0fa0 6C309DE5 		ldr	r3, [sp, #108]
 3295 0fa4 74209DE5 		ldr	r2, [sp, #116]
 3296              	.LVL328:
 3297 0fa8 020053E1 		cmp	r3, r2
 3298 0fac 0B0200DA 		ble	.L607
 408:C:/Renesas/e2studio_2021_01_workspace_RZA2M_ANPR/ANPR_RZA2M_GR_MANGO/src/tensorflow_lite/tensorflow/lite/kernels/internal\types.h ****   TFLITE_DCHECK(i3 >= 0 && i3 < dims_data[3]);
 3299              		.loc 4 408 0
 3300 0fb0 68309DE5 		ldr	r3, [sp, #104]
 3301 0fb4 70209DE5 		ldr	r2, [sp, #112]
 3302 0fb8 020053E1 		cmp	r3, r2
 3303 0fbc 060200DA 		ble	.L608
 409:C:/Renesas/e2studio_2021_01_workspace_RZA2M_ANPR/ANPR_RZA2M_GR_MANGO/src/tensorflow_lite/tensorflow/lite/kernels/internal\types.h ****   return ((i0 * dims_data[1] + i1) * dims_data[2] + i2) * dims_data[3] + i3;
 3304              		.loc 4 409 0
 3305 0fc0 30309DE5 		ldr	r3, [sp, #48]
 3306 0fc4 000053E3 		cmp	r3, #0
 3307 0fc8 020200BA 		blt	.L166
 3308 0fcc 50209DE5 		ldr	r2, [sp, #80]
 3309 0fd0 030052E1 		cmp	r2, r3
 3310 0fd4 FF0100DA 		ble	.L166
 3311              	.LVL329:
 3312 0fd8 60209DE5 		ldr	r2, [sp, #96]
 3313 0fdc 013083E2 		add	r3, r3, #1
 3314              	.LBE1427:
 3315              	.LBE1429:
  85:C:/Renesas/e2studio_2021_01_workspace_RZA2M_ANPR/ANPR_RZA2M_GR_MANGO/src/tensorflow_lite/tensorflow/lite/kernels/internal/reference\depthwiseconv_float.h ****             }
  86:C:/Renesas/e2studio_2021_01_workspace_RZA2M_ANPR/ANPR_RZA2M_GR_MANGO/src/tensorflow_lite/tensorflow/lite/kernels/internal/reference\depthwiseconv_float.h ****             output_data[Offset(output_shape, b, out_y, out_x, oc)] =
  87:C:/Renesas/e2studio_2021_01_workspace_RZA2M_ANPR/ANPR_RZA2M_GR_MANGO/src/tensorflow_lite/tensorflow/lite/kernels/internal/reference\depthwiseconv_float.h ****                 ActivationFunctionWithMinMax(total + bias_value,
 3316              		.loc 10 87 0
 3317 0fe0 277A77EE 		vadd.f32	s15, s14, s15
 3318              	.LVL330:
 3319 0fe4 30308DE5 		str	r3, [sp, #48]
 3320              	.LVL331:
 3321 0fe8 042082E2 		add	r2, r2, #4
 3322 0fec 60208DE5 		str	r2, [sp, #96]
 3323 0ff0 5C209DE5 		ldr	r2, [sp, #92]
 3324              	.LBB1430:
 3325              	.LBB1431:
 3326              	.LBB1432:
 225:c:\program files (x86)\gnu tools arm embedded\6 2017-q2-update\arm-none-eabi\include\c++\6.3.1\bits\stl_algobase.h **** 	return __b;
 3327              		.loc 9 225 0
 3328 0ff4 676AB4EE 		vcmp.f32	s12, s15
 3329 0ff8 10FAF1EE 		vmrs	APSR_nzcv, FPSCR
 3330 0ffc 042082E2 		add	r2, r2, #4
 3331 1000 467AF0CE 		vmovgt.f32	s15, s12
 3332              	.LVL332:
 3333 1004 5C208DE5 		str	r2, [sp, #92]
 3334              	.LBE1432:
 3335              	.LBE1431:
 3336              	.LBE1430:
 3337              	.LBE1443:
  60:C:/Renesas/e2studio_2021_01_workspace_RZA2M_ANPR/ANPR_RZA2M_GR_MANGO/src/tensorflow_lite/tensorflow/lite/kernels/internal/reference\depthwiseconv_float.h ****             const int oc = m + ic * depth_multiplier;
 3338              		.loc 10 60 0
 3339 1008 84209DE5 		ldr	r2, [sp, #132]
 3340              	.LBB1444:
 3341              	.LBB1435:
 3342              	.LBB1433:
 3343              	.LBB1434:
 201:c:\program files (x86)\gnu tools arm embedded\6 2017-q2-update\arm-none-eabi\include\c++\6.3.1\bits\stl_algobase.h ****       return __a;
 3344              		.loc 9 201 0
 3345 100c 675AF4EE 		vcmp.f32	s11, s15
 3346 1010 10FAF1EE 		vmrs	APSR_nzcv, FPSCR
 3347 1014 657AF04E 		vmovmi.f32	s15, s11
 3348              	.LVL333:
 3349              	.LBE1434:
 3350              	.LBE1433:
 3351              	.LBE1435:
 3352              	.LBE1444:
  60:C:/Renesas/e2studio_2021_01_workspace_RZA2M_ANPR/ANPR_RZA2M_GR_MANGO/src/tensorflow_lite/tensorflow/lite/kernels/internal/reference\depthwiseconv_float.h ****             const int oc = m + ic * depth_multiplier;
 3353              		.loc 10 60 0
 3354 1018 020053E1 		cmp	r3, r2
 3355              	.LBB1445:
  86:C:/Renesas/e2studio_2021_01_workspace_RZA2M_ANPR/ANPR_RZA2M_GR_MANGO/src/tensorflow_lite/tensorflow/lite/kernels/internal/reference\depthwiseconv_float.h ****                 ActivationFunctionWithMinMax(total + bias_value,
 3356              		.loc 10 86 0
 3357 101c 64309DE5 		ldr	r3, [sp, #100]
 3358 1020 017AE3EC 		vstmia.32	r3!, {s15}
 3359 1024 64308DE5 		str	r3, [sp, #100]
 3360              	.LBE1445:
  60:C:/Renesas/e2studio_2021_01_workspace_RZA2M_ANPR/ANPR_RZA2M_GR_MANGO/src/tensorflow_lite/tensorflow/lite/kernels/internal/reference\depthwiseconv_float.h ****             const int oc = m + ic * depth_multiplier;
 3361              		.loc 10 60 0
 3362 1028 8AFFFF1A 		bne	.L171
 3363              	.LVL334:
 3364              	.L170:
 3365              	.LBE1453:
  59:C:/Renesas/e2studio_2021_01_workspace_RZA2M_ANPR/ANPR_RZA2M_GR_MANGO/src/tensorflow_lite/tensorflow/lite/kernels/internal/reference\depthwiseconv_float.h ****           for (int m = 0; m < depth_multiplier; m++) {
 3366              		.loc 10 59 0
 3367 102c 3C309DE5 		ldr	r3, [sp, #60]
 3368 1030 C8209DE5 		ldr	r2, [sp, #200]
 3369 1034 94009DE5 		ldr	r0, [sp, #148]
 3370 1038 013083E2 		add	r3, r3, #1
 3371              	.LVL335:
 3372 103c 0310A0E1 		mov	r1, r3
 3373 1040 3C308DE5 		str	r3, [sp, #60]
 3374 1044 023080E0 		add	r3, r0, r2
 3375              	.LVL336:
 3376 1048 94308DE5 		str	r3, [sp, #148]
 3377 104c 0130A0E1 		mov	r3, r1
 3378 1050 38109DE5 		ldr	r1, [sp, #56]
 3379              	.LVL337:
 3380 1054 010053E1 		cmp	r3, r1
 3381 1058 98109DE5 		ldr	r1, [sp, #152]
 3382 105c 84309DE5 		ldr	r3, [sp, #132]
 3383              	.LVL338:
 3384 1060 021081E0 		add	r1, r1, r2
 3385 1064 98108DE5 		str	r1, [sp, #152]
 3386 1068 9C109DE5 		ldr	r1, [sp, #156]
 3387 106c 022081E0 		add	r2, r1, r2
 3388 1070 9C208DE5 		str	r2, [sp, #156]
 3389 1074 7C209DE5 		ldr	r2, [sp, #124]
 3390 1078 042082E2 		add	r2, r2, #4
 3391 107c 7C208DE5 		str	r2, [sp, #124]
 3392 1080 68FFFF1A 		bne	.L128
 3393              	.LVL339:
 3394              	.L127:
 3395 1084 A0209DE5 		ldr	r2, [sp, #160]
 3396              	.LBE1461:
  58:C:/Renesas/e2studio_2021_01_workspace_RZA2M_ANPR/ANPR_RZA2M_GR_MANGO/src/tensorflow_lite/tensorflow/lite/kernels/internal/reference\depthwiseconv_float.h ****         for (int ic = 0; ic < input_depth; ++ic) {
 3397              		.loc 10 58 0
 3398 1088 70309DE5 		ldr	r3, [sp, #112]
 3399 108c 062082E0 		add	r2, r2, r6
 3400 1090 A0208DE5 		str	r2, [sp, #160]
 3401 1094 013083E2 		add	r3, r3, #1
 3402 1098 68209DE5 		ldr	r2, [sp, #104]
 3403 109c 70308DE5 		str	r3, [sp, #112]
 3404              	.LVL340:
 3405 10a0 020053E1 		cmp	r3, r2
 3406 10a4 A4309DE5 		ldr	r3, [sp, #164]
 3407              	.LVL341:
 3408 10a8 CC209DE5 		ldr	r2, [sp, #204]
 3409 10ac 023083E0 		add	r3, r3, r2
 3410 10b0 B8209DE5 		ldr	r2, [sp, #184]
 3411 10b4 A4308DE5 		str	r3, [sp, #164]
 3412 10b8 58309DE5 		ldr	r3, [sp, #88]
 3413 10bc 023083E0 		add	r3, r3, r2
 3414 10c0 58308DE5 		str	r3, [sp, #88]
 3415 10c4 4AFFFF1A 		bne	.L122
 3416 10c8 0820A0E1 		mov	r2, r8
 3417 10cc 0A30A0E1 		mov	r3, r10
 3418 10d0 0980A0E1 		mov	r8, r9
 3419 10d4 0BA0A0E1 		mov	r10, fp
 3420 10d8 0290A0E1 		mov	r9, r2
 3421 10dc 03B0A0E1 		mov	fp, r3
 3422              	.LVL342:
 3423              	.L125:
 3424 10e0 A8209DE5 		ldr	r2, [sp, #168]
 3425 10e4 D0109DE5 		ldr	r1, [sp, #208]
 3426              	.LBE1469:
  57:C:/Renesas/e2studio_2021_01_workspace_RZA2M_ANPR/ANPR_RZA2M_GR_MANGO/src/tensorflow_lite/tensorflow/lite/kernels/internal/reference\depthwiseconv_float.h ****       for (int out_x = 0; out_x < output_width; ++out_x) {
 3427              		.loc 10 57 0
 3428 10e8 74309DE5 		ldr	r3, [sp, #116]
 3429 10ec 012082E0 		add	r2, r2, r1
 3430 10f0 A8208DE5 		str	r2, [sp, #168]
 3431 10f4 013083E2 		add	r3, r3, #1
 3432 10f8 6C209DE5 		ldr	r2, [sp, #108]
 3433 10fc 74308DE5 		str	r3, [sp, #116]
 3434              	.LVL343:
 3435 1100 020053E1 		cmp	r3, r2
 3436 1104 AC309DE5 		ldr	r3, [sp, #172]
 3437              	.LVL344:
 3438 1108 D4209DE5 		ldr	r2, [sp, #212]
 3439 110c 023083E0 		add	r3, r3, r2
 3440 1110 BC209DE5 		ldr	r2, [sp, #188]
 3441 1114 AC308DE5 		str	r3, [sp, #172]
 3442 1118 80309DE5 		ldr	r3, [sp, #128]
 3443 111c 023083E0 		add	r3, r3, r2
 3444 1120 80308DE5 		str	r3, [sp, #128]
 3445 1124 21FFFF1A 		bne	.L119
 3446 1128 0B30A0E1 		mov	r3, fp
 3447 112c 0AB0A0E1 		mov	fp, r10
 3448 1130 03A0A0E1 		mov	r10, r3
 3449              	.LVL345:
 3450              	.L123:
 3451 1134 B0209DE5 		ldr	r2, [sp, #176]
 3452 1138 D8109DE5 		ldr	r1, [sp, #216]
 3453              	.LBE1476:
  56:C:/Renesas/e2studio_2021_01_workspace_RZA2M_ANPR/ANPR_RZA2M_GR_MANGO/src/tensorflow_lite/tensorflow/lite/kernels/internal/reference\depthwiseconv_float.h ****     for (int out_y = 0; out_y < output_height; ++out_y) {
 3454              		.loc 10 56 0
 3455 113c 34309DE5 		ldr	r3, [sp, #52]
 3456 1140 012082E0 		add	r2, r2, r1
 3457 1144 B0208DE5 		str	r2, [sp, #176]
 3458 1148 013083E2 		add	r3, r3, #1
 3459 114c 78209DE5 		ldr	r2, [sp, #120]
 3460 1150 34308DE5 		str	r3, [sp, #52]
 3461              	.LVL346:
 3462 1154 020053E1 		cmp	r3, r2
 3463 1158 B4309DE5 		ldr	r3, [sp, #180]
 3464              	.LVL347:
 3465 115c DC209DE5 		ldr	r2, [sp, #220]
 3466 1160 023083E0 		add	r3, r3, r2
 3467 1164 B4308DE5 		str	r3, [sp, #180]
 3468 1168 02FFFF1A 		bne	.L121
 3469              	.LVL348:
 3470              	.L120:
 3471              	.LBE1484:
 3472              	.LBE1498:
 3473              	.LBE1516:
 3474              	.LBB1517:
 3475              	.LBB1518:
 203:C:/Renesas/e2studio_2021_01_workspace_RZA2M_ANPR/ANPR_RZA2M_GR_MANGO/src/tensorflow_lite/tensorflow/lite/kernels/internal\types.h **** #ifdef TF_LITE_STATIC_MEMORY
 3476              		.loc 4 203 0
 3477 116c 8C309DE5 		ldr	r3, [sp, #140]
 3478 1170 050053E3 		cmp	r3, #5
 3479 1174 0A0000DA 		ble	.L220
 207:C:/Renesas/e2studio_2021_01_workspace_RZA2M_ANPR/ANPR_RZA2M_GR_MANGO/src/tensorflow_lite/tensorflow/lite/kernels/internal\types.h **** #endif  // TF_LITE_STATIC_MEMORY
 3480              		.loc 4 207 0
 3481 1178 78019DE5 		ldr	r0, [sp, #376]
 3482 117c 000050E3 		cmp	r0, #0
 3483 1180 0700000A 		beq	.L220
 3484              	.LVL349:
 3485              	.L548:
 3486              	.LBE1518:
 3487              	.LBE1517:
 3488              	.LBB1519:
 3489              	.LBB1282:
 3490              	.LBB1268:
 3491              	.LBB1126:
 3492              	.LBB1127:
 3493              	.LBB1128:
 3494 1184 FEFFFFEB 		bl	_ZdaPv
 3495              	.LVL350:
 3496              	.L219:
 3497              	.LBE1128:
 3498              	.LBE1127:
 3499              	.LBB1130:
 3500              	.LBB1131:
 203:C:/Renesas/e2studio_2021_01_workspace_RZA2M_ANPR/ANPR_RZA2M_GR_MANGO/src/tensorflow_lite/tensorflow/lite/kernels/internal\types.h **** #ifdef TF_LITE_STATIC_MEMORY
 3501              		.loc 4 203 0
 3502 1188 5C319DE5 		ldr	r3, [sp, #348]
 3503 118c 050053E3 		cmp	r3, #5
 3504 1190 030000DA 		ble	.L220
 207:C:/Renesas/e2studio_2021_01_workspace_RZA2M_ANPR/ANPR_RZA2M_GR_MANGO/src/tensorflow_lite/tensorflow/lite/kernels/internal\types.h **** #endif  // TF_LITE_STATIC_MEMORY
 3505              		.loc 4 207 0
 3506 1194 60019DE5 		ldr	r0, [sp, #352]
 3507 1198 000050E3 		cmp	r0, #0
 3508 119c 0000000A 		beq	.L220
 3509 11a0 FEFFFFEB 		bl	_ZdaPv
 3510              	.LVL351:
 3511              	.L220:
 3512              	.LBE1131:
 3513              	.LBE1130:
 3514              	.LBB1132:
 3515              	.LBB1133:
 203:C:/Renesas/e2studio_2021_01_workspace_RZA2M_ANPR/ANPR_RZA2M_GR_MANGO/src/tensorflow_lite/tensorflow/lite/kernels/internal\types.h **** #ifdef TF_LITE_STATIC_MEMORY
 3516              		.loc 4 203 0
 3517 11a4 44319DE5 		ldr	r3, [sp, #324]
 3518 11a8 050053E3 		cmp	r3, #5
 3519 11ac 030000DA 		ble	.L222
 207:C:/Renesas/e2studio_2021_01_workspace_RZA2M_ANPR/ANPR_RZA2M_GR_MANGO/src/tensorflow_lite/tensorflow/lite/kernels/internal\types.h **** #endif  // TF_LITE_STATIC_MEMORY
 3520              		.loc 4 207 0
 3521 11b0 48019DE5 		ldr	r0, [sp, #328]
 3522 11b4 000050E3 		cmp	r0, #0
 3523 11b8 0000000A 		beq	.L222
 3524              	.LVL352:
 3525              	.L516:
 3526              	.LBE1133:
 3527              	.LBE1132:
 3528              	.LBE1126:
 3529              	.LBB1242:
 3530              	.LBB1124:
 3531 11bc FEFFFFEB 		bl	_ZdaPv
 3532              	.LVL353:
 3533              	.L222:
 3534              	.LBE1124:
 3535              	.LBE1242:
 3536              	.LBE1268:
 3537              	.LBE1282:
 3538              	.LBE1519:
 295:../src/tensorflow_lite/tensorflow/lite/micro/kernels/cmsis_nn/depthwise_conv.cc **** }
 3539              		.loc 1 295 0
 3540 11c0 0000A0E3 		mov	r0, #0
 3541              		.loc 1 296 0
 3542 11c4 7FDF8DE2 		add	sp, sp, #508
 3543              		.cfi_remember_state
 3544              		.cfi_def_cfa_offset 36
 3545              		@ sp needed
 3546 11c8 F08FBDE8 		pop	{r4, r5, r6, r7, r8, r9, r10, fp, pc}
 3547              	.LVL354:
 3548              	.L586:
 3549              		.cfi_restore_state
 3550              	.LBB1520:
 3551              	.LBB1283:
 3552              	.LBB1269:
 3553              	.LBB1243:
 3554              	.LBB1101:
 3555              	.LBB1089:
 3556              	.LBB1084:
 3557              	.LBB1079:
 3558              	.LBB1074:
 3559              	.LBB1069:
 3560              	.LBB1064:
 3561              	.LBB1058:
 3562              	.LBB1005:
 3563              	.LBB1001:
 3564              	.LBB999:
 338:C:/Renesas/e2studio_2021_01_workspace_RZA2M_ANPR/ANPR_RZA2M_GR_MANGO/src/tensorflow_lite/third_party/gemmlowp/fixedpoint\fixedpoint.h **** }
 3565              		.loc 7 338 0
 3566 11cc 0221E0E3 		mvn	r2, #-2147483648
 3567              	.LVL355:
 3568 11d0 5EFDFFEA 		b	.L325
 3569              	.LVL356:
 3570              	.L376:
 335:C:/Renesas/e2studio_2021_01_workspace_RZA2M_ANPR/ANPR_RZA2M_GR_MANGO/src/tensorflow_lite/third_party/gemmlowp/fixedpoint\fixedpoint.h ****   std::int32_t ab_x2_high32 =
 3571              		.loc 7 335 0
 3572 11d4 0721A0E3 		mov	r2, #-1073741823
 3573              	.LVL357:
 3574 11d8 0030E0E3 		mvn	r3, #0
 3575 11dc 50FDFFEA 		b	.L279
 3576              	.LVL358:
 3577              	.L341:
 3578              	.LBE999:
 3579              	.LBE1001:
 3580              	.LBE1005:
 3581              	.LBE1058:
 3582              	.LBE1064:
 3583              	.LBE1069:
 3584              	.LBE1074:
 3585              	.LBE1079:
 3586              	.LBE1084:
 3587              	.LBE1089:
 3588              	.LBE1101:
 3589              	.LBE1243:
 3590              	.LBE1269:
 3591              	.LBE1283:
 3592              	.LBE1520:
 3593              	.LBB1521:
 3594              	.LBB1499:
 3595              	.LBB1485:
 3596              	.LBB1364:
 3597              	.LBB1361:
 292:C:/Renesas/e2studio_2021_01_workspace_RZA2M_ANPR/ANPR_RZA2M_GR_MANGO/src/tensorflow_lite/tensorflow/lite/kernels/internal\types.h ****       buffer_size *= dims_data[i];
 3598              		.loc 4 292 0
 3599 11e0 0310A0E1 		mov	r1, r3
 3600 11e4 6CFEFFEA 		b	.L107
 3601              	.LVL359:
 3602              	.L373:
 3603              	.LBE1361:
 3604              	.LBE1364:
 3605              	.LBE1485:
 3606              	.LBE1499:
 3607              	.LBE1521:
 3608              	.LBB1522:
 3609              	.LBB1284:
 3610              	.LBB1270:
 3611              	.LBB1244:
 3612              	.LBB1102:
 3613              	.LBB1090:
 3614              	.LBB973:
 3615              	.LBB970:
 3616 11e8 0310A0E1 		mov	r1, r3
 3617 11ec 52FCFFEA 		b	.L238
 3618              	.LVL360:
 3619              	.L374:
 3620              	.LBE970:
 3621              	.LBE973:
 3622              	.LBE1090:
 3623              	.LBB1091:
 3624              	.LBB1085:
 3625              	.LBB1080:
 3626              	.LBB1075:
 3627              	.LBB1070:
 3628              	.LBB1065:
  69:C:/Renesas/e2studio_2021_01_workspace_RZA2M_ANPR/ANPR_RZA2M_GR_MANGO/src/tensorflow_lite/tensorflow/lite/kernels/internal/reference/integer_ops\depthwise_conv.h ****             for (int filter_y = 0; filter_y < filter_height; ++filter_y) {
 3629              		.loc 6 69 0
 3630 11f0 0060A0E3 		mov	r6, #0
 3631 11f4 31FDFFEA 		b	.L261
 3632              	.LVL361:
 3633              	.L563:
 3634              	.LBE1065:
 3635              	.LBE1070:
 3636              	.LBE1075:
 3637              	.LBE1080:
 3638              	.LBE1085:
 3639              	.LBE1091:
 3640              	.LBE1102:
 3641              	.LBE1244:
 3642              	.LBE1270:
 3643              	.LBE1284:
 3644              	.LBE1522:
 3645              	.LBB1523:
 3646              	.LBB1524:
 3647              	.LBB1525:
  36:C:/Renesas/e2studio_2021_01_workspace_RZA2M_ANPR/ANPR_RZA2M_GR_MANGO/src/tensorflow_lite/tensorflow/lite/micro/kernels\kernel_util.h **** }
 3648              		.loc 5 36 0 discriminator 1
 3649 11f8 002000E3 		movw	r2, #:lower16:_ZN6tflite24kDepthwiseConvBiasTensorE
 3650 11fc 548094E5 		ldr	r8, [r4, #84]
 3651 1200 002040E3 		movt	r2, #:upper16:_ZN6tflite24kDepthwiseConvBiasTensorE
 3652 1204 0400A0E1 		mov	r0, r4
 3653 1208 002092E5 		ldr	r2, [r2]
 3654 120c 023183E0 		add	r3, r3, r2, lsl #2
 3655 1210 041093E5 		ldr	r1, [r3, #4]
 3656              	.LEHB19:
 3657 1214 38FF2FE1 		blx	r8
 3658              	.LVL362:
 3659 1218 0080A0E1 		mov	r8, r0
 3660              	.LVL363:
 3661              	.LBE1525:
 3662              	.LBE1524:
 3663              	.LBE1523:
 3664 121c A5FBFFEA 		b	.L92
 3665              	.LVL364:
 3666              	.L576:
 3667 1220 000053E3 		cmp	r3, #0
 3668              	.LBB1526:
 3669              	.LBB1285:
 3670              	.LBB1271:
 3671              	.LBB1245:
 3672              	.LBB1103:
 3673              	.LBB1092:
 3674              	.LBB974:
 3675              	.LBB971:
 292:C:/Renesas/e2studio_2021_01_workspace_RZA2M_ANPR/ANPR_RZA2M_GR_MANGO/src/tensorflow_lite/tensorflow/lite/kernels/internal\types.h ****       buffer_size *= dims_data[i];
 3676              		.loc 4 292 0
 3677 1224 0120A003 		moveq	r2, #1
 3678 1228 0310A001 		moveq	r1, r3
 3679 122c 44FCFF0A 		beq	.L237
 3680 1230 23FCFFEA 		b	.L236
 3681              	.LVL365:
 3682              	.L601:
 3683 1234 000053E3 		cmp	r3, #0
 3684 1238 39FEFF1A 		bne	.L105
 3685              	.LBE971:
 3686              	.LBE974:
 3687              	.LBE1092:
 3688              	.LBE1103:
 3689              	.LBE1245:
 3690              	.LBE1271:
 3691              	.LBE1285:
 3692              	.LBE1526:
 3693              	.LBB1527:
 3694              	.LBB1500:
 3695              	.LBB1486:
 3696              	.LBB1365:
 3697              	.LBB1362:
 3698 123c 0120A0E3 		mov	r2, #1
 3699 1240 0310A0E1 		mov	r1, r3
 3700 1244 8C009DE5 		ldr	r0, [sp, #140]
 3701 1248 56FEFFEA 		b	.L106
 3702              	.L631:
 3703              		.align	2
 3704              	.L630:
 3705 124c 00000000 		.word	0
 3706              	.LVL366:
 3707              	.L602:
 3708 1250 023083E0 		add	r3, r3, r2
 3709 1254 84308DE5 		str	r3, [sp, #132]
 3710 1258 73FFFFEA 		b	.L170
 3711              	.LVL367:
 3712              	.L565:
 3713              	.LBE1362:
 3714              	.LBE1365:
 3715              	.LBE1486:
 3716              	.LBE1500:
 3717              	.LBE1527:
 3718              	.LBB1528:
 3719              	.LBB1286:
 3720              	.LBB1272:
 3721              	.LBB1246:
 165:../src/tensorflow_lite/tensorflow/lite/micro/kernels/cmsis_nn/depthwise_conv.cc ****     dw_conv_params.output_offset = data.reference_op_data.output_zero_point;
 3722              		.loc 1 165 0
 3723 125c 103096E5 		ldr	r3, [r6, #16]
 172:../src/tensorflow_lite/tensorflow/lite/micro/kernels/cmsis_nn/depthwise_conv.cc ****     dw_conv_params.activation.max = std::numeric_limits<int8_t>::max();
 3724              		.loc 1 172 0
 3725 1260 7F20E0E3 		mvn	r2, #127
 166:../src/tensorflow_lite/tensorflow/lite/micro/kernels/cmsis_nn/depthwise_conv.cc ****     dw_conv_params.stride.h = params.stride_height;
 3726              		.loc 1 166 0
 3727 1264 180096E5 		ldr	r0, [r6, #24]
 173:../src/tensorflow_lite/tensorflow/lite/micro/kernels/cmsis_nn/depthwise_conv.cc ****     dw_conv_params.ch_mult = params.depth_multiplier;
 3728              		.loc 1 173 0
 3729 1268 7FC0A0E3 		mov	ip, #127
 167:../src/tensorflow_lite/tensorflow/lite/micro/kernels/cmsis_nn/depthwise_conv.cc ****     dw_conv_params.stride.w = params.stride_width;
 3730              		.loc 1 167 0
 3731 126c 08109AE5 		ldr	r1, [r10, #8]
 165:../src/tensorflow_lite/tensorflow/lite/micro/kernels/cmsis_nn/depthwise_conv.cc ****     dw_conv_params.output_offset = data.reference_op_data.output_zero_point;
 3732              		.loc 1 165 0
 3733 1270 003063E2 		rsb	r3, r3, #0
 174:../src/tensorflow_lite/tensorflow/lite/micro/kernels/cmsis_nn/depthwise_conv.cc **** 
 3734              		.loc 1 174 0
 3735 1274 0CE09AE5 		ldr	lr, [r10, #12]
 165:../src/tensorflow_lite/tensorflow/lite/micro/kernels/cmsis_nn/depthwise_conv.cc ****     dw_conv_params.output_offset = data.reference_op_data.output_zero_point;
 3736              		.loc 1 165 0
 3737 1278 8C318DE5 		str	r3, [sp, #396]
 169:../src/tensorflow_lite/tensorflow/lite/micro/kernels/cmsis_nn/depthwise_conv.cc ****     dw_conv_params.padding.w = data.reference_op_data.padding.width;
 3738              		.loc 1 169 0
 3739 127c 043096E5 		ldr	r3, [r6, #4]
 166:../src/tensorflow_lite/tensorflow/lite/micro/kernels/cmsis_nn/depthwise_conv.cc ****     dw_conv_params.stride.h = params.stride_height;
 3740              		.loc 1 166 0
 3741 1280 90018DE5 		str	r0, [sp, #400]
 168:../src/tensorflow_lite/tensorflow/lite/micro/kernels/cmsis_nn/depthwise_conv.cc ****     dw_conv_params.padding.h = data.reference_op_data.padding.height;
 3742              		.loc 1 168 0
 3743 1284 04009AE5 		ldr	r0, [r10, #4]
 169:../src/tensorflow_lite/tensorflow/lite/micro/kernels/cmsis_nn/depthwise_conv.cc ****     dw_conv_params.padding.w = data.reference_op_data.padding.width;
 3744              		.loc 1 169 0
 3745 1288 A4318DE5 		str	r3, [sp, #420]
 170:../src/tensorflow_lite/tensorflow/lite/micro/kernels/cmsis_nn/depthwise_conv.cc ****     // TODO(b/130439627): Use calculated value for clamping.
 3746              		.loc 1 170 0
 3747 128c 003096E5 		ldr	r3, [r6]
 172:../src/tensorflow_lite/tensorflow/lite/micro/kernels/cmsis_nn/depthwise_conv.cc ****     dw_conv_params.activation.max = std::numeric_limits<int8_t>::max();
 3748              		.loc 1 172 0
 3749 1290 B0218DE5 		str	r2, [sp, #432]
 177:../src/tensorflow_lite/tensorflow/lite/micro/kernels/cmsis_nn/depthwise_conv.cc ****         data.reference_op_data.per_channel_output_multiplier;
 3750              		.loc 1 177 0
 3751 1294 242096E5 		ldr	r2, [r6, #36]
 170:../src/tensorflow_lite/tensorflow/lite/micro/kernels/cmsis_nn/depthwise_conv.cc ****     // TODO(b/130439627): Use calculated value for clamping.
 3752              		.loc 1 170 0
 3753 1298 A0318DE5 		str	r3, [sp, #416]
 179:../src/tensorflow_lite/tensorflow/lite/micro/kernels/cmsis_nn/depthwise_conv.cc **** 
 3754              		.loc 1 179 0
 3755 129c 283096E5 		ldr	r3, [r6, #40]
 167:../src/tensorflow_lite/tensorflow/lite/micro/kernels/cmsis_nn/depthwise_conv.cc ****     dw_conv_params.stride.w = params.stride_width;
 3756              		.loc 1 167 0
 3757 12a0 9C118DE5 		str	r1, [sp, #412]
 181:../src/tensorflow_lite/tensorflow/lite/micro/kernels/cmsis_nn/depthwise_conv.cc ****     RuntimeShape input_shape = tflite::micro::GetTensorShape(input);
 3758              		.loc 1 181 0
 3759 12a4 0910A0E1 		mov	r1, r9
 168:../src/tensorflow_lite/tensorflow/lite/micro/kernels/cmsis_nn/depthwise_conv.cc ****     dw_conv_params.padding.h = data.reference_op_data.padding.height;
 3760              		.loc 1 168 0
 3761 12a8 98018DE5 		str	r0, [sp, #408]
 181:../src/tensorflow_lite/tensorflow/lite/micro/kernels/cmsis_nn/depthwise_conv.cc ****     RuntimeShape input_shape = tflite::micro::GetTensorShape(input);
 3762              		.loc 1 181 0
 3763 12ac 510F8DE2 		add	r0, sp, #324
 174:../src/tensorflow_lite/tensorflow/lite/micro/kernels/cmsis_nn/depthwise_conv.cc **** 
 3764              		.loc 1 174 0
 3765 12b0 94E18DE5 		str	lr, [sp, #404]
 173:../src/tensorflow_lite/tensorflow/lite/micro/kernels/cmsis_nn/depthwise_conv.cc ****     dw_conv_params.ch_mult = params.depth_multiplier;
 3766              		.loc 1 173 0
 3767 12b4 B4C18DE5 		str	ip, [sp, #436]
 177:../src/tensorflow_lite/tensorflow/lite/micro/kernels/cmsis_nn/depthwise_conv.cc ****         data.reference_op_data.per_channel_output_multiplier;
 3768              		.loc 1 177 0
 3769 12b8 EC208DE5 		str	r2, [sp, #236]
 179:../src/tensorflow_lite/tensorflow/lite/micro/kernels/cmsis_nn/depthwise_conv.cc **** 
 3770              		.loc 1 179 0
 3771 12bc F0308DE5 		str	r3, [sp, #240]
 181:../src/tensorflow_lite/tensorflow/lite/micro/kernels/cmsis_nn/depthwise_conv.cc ****     RuntimeShape input_shape = tflite::micro::GetTensorShape(input);
 3772              		.loc 1 181 0
 3773 12c0 FEFFFFEB 		bl	_ZN6tflite5micro14GetTensorShapeEPK16TfLiteEvalTensor
 3774              	.LVL368:
 3775              	.LEHE19:
 182:../src/tensorflow_lite/tensorflow/lite/micro/kernels/cmsis_nn/depthwise_conv.cc ****     RuntimeShape output_shape = tflite::micro::GetTensorShape(output);
 3776              		.loc 1 182 0
 3777 12c4 0710A0E1 		mov	r1, r7
 3778 12c8 570F8DE2 		add	r0, sp, #348
 3779              	.LEHB20:
 3780 12cc FEFFFFEB 		bl	_ZN6tflite5micro14GetTensorShapeEPK16TfLiteEvalTensor
 3781              	.LVL369:
 3782              	.LEHE20:
 183:../src/tensorflow_lite/tensorflow/lite/micro/kernels/cmsis_nn/depthwise_conv.cc ****     RuntimeShape bias_shape = tflite::micro::GetTensorShape(bias);
 3783              		.loc 1 183 0
 3784 12d0 0510A0E1 		mov	r1, r5
 3785 12d4 5D0F8DE2 		add	r0, sp, #372
 3786              	.LEHB21:
 3787 12d8 FEFFFFEB 		bl	_ZN6tflite5micro14GetTensorShapeEPK16TfLiteEvalTensor
 3788              	.LVL370:
 3789              	.LEHE21:
 184:../src/tensorflow_lite/tensorflow/lite/micro/kernels/cmsis_nn/depthwise_conv.cc **** 
 3790              		.loc 1 184 0
 3791 12dc 0810A0E1 		mov	r1, r8
 3792 12e0 6E0F8DE2 		add	r0, sp, #440
 3793              	.LEHB22:
 3794 12e4 FEFFFFEB 		bl	_ZN6tflite5micro14GetTensorShapeEPK16TfLiteEvalTensor
 3795              	.LVL371:
 3796              	.LEHE22:
 187:../src/tensorflow_lite/tensorflow/lite/micro/kernels/cmsis_nn/depthwise_conv.cc **** 
 3797              		.loc 1 187 0
 3798 12e8 B0219DE5 		ldr	r2, [sp, #432]
 3799 12ec B4319DE5 		ldr	r3, [sp, #436]
 3800 12f0 030052E1 		cmp	r2, r3
 3801 12f4 330100CA 		bgt	.L609
 3802              	.LVL372:
 3803              	.LBB1134:
 3804              	.LBB1135:
 3805              	.LBB1136:
 3806              	.LBB1137:
 215:C:/Renesas/e2studio_2021_01_workspace_RZA2M_ANPR/ANPR_RZA2M_GR_MANGO/src/tensorflow_lite/tensorflow/lite/kernels/internal\types.h ****     return size_ > kMaxSmallSize ? dims_pointer_[i] : dims_[i];
 3807              		.loc 4 215 0
 3808 12f8 5CE19DE5 		ldr	lr, [sp, #348]
 3809 12fc 00005EE3 		cmp	lr, #0
 3810 1300 2F0100DA 		ble	.L610
 216:C:/Renesas/e2studio_2021_01_workspace_RZA2M_ANPR/ANPR_RZA2M_GR_MANGO/src/tensorflow_lite/tensorflow/lite/kernels/internal\types.h ****   }
 3811              		.loc 4 216 0
 3812 1304 60319DE5 		ldr	r3, [sp, #352]
 3813 1308 05005EE3 		cmp	lr, #5
 3814 130c 003093C5 		ldrgt	r3, [r3]
 3815 1310 24308DE5 		str	r3, [sp, #36]
 3816              	.LVL373:
 3817              	.LBE1137:
 3818              	.LBE1136:
 3819              	.LBB1139:
 3820              	.LBB1140:
 215:C:/Renesas/e2studio_2021_01_workspace_RZA2M_ANPR/ANPR_RZA2M_GR_MANGO/src/tensorflow_lite/tensorflow/lite/kernels/internal\types.h ****     return size_ > kMaxSmallSize ? dims_pointer_[i] : dims_[i];
 3821              		.loc 4 215 0
 3822 1314 74319DE5 		ldr	r3, [sp, #372]
 3823 1318 000053E3 		cmp	r3, #0
 3824 131c 28308DE5 		str	r3, [sp, #40]
 3825 1320 260100DA 		ble	.L611
 216:C:/Renesas/e2studio_2021_01_workspace_RZA2M_ANPR/ANPR_RZA2M_GR_MANGO/src/tensorflow_lite/tensorflow/lite/kernels/internal\types.h ****   }
 3826              		.loc 4 216 0
 3827 1324 050053E3 		cmp	r3, #5
 3828 1328 78319DE5 		ldr	r3, [sp, #376]
 3829              	.LBE1140:
 3830              	.LBE1139:
 3831              		.loc 4 472 0
 3832 132c 24209DE5 		ldr	r2, [sp, #36]
 3833              	.LBB1143:
 3834              	.LBB1141:
 216:C:/Renesas/e2studio_2021_01_workspace_RZA2M_ANPR/ANPR_RZA2M_GR_MANGO/src/tensorflow_lite/tensorflow/lite/kernels/internal\types.h ****   }
 3835              		.loc 4 216 0
 3836 1330 003093C5 		ldrgt	r3, [r3]
 3837              	.LVL374:
 3838              	.LBE1141:
 3839              	.LBE1143:
 3840              		.loc 4 472 0
 3841 1334 030052E1 		cmp	r2, r3
 3842 1338 1F01001A 		bne	.L612
 3843              	.LVL375:
 3844              	.LBE1135:
 3845              	.LBE1134:
 3846              	.LBB1147:
 3847              	.LBB1148:
 3848              	.LBB1149:
 3849              	.LBB1150:
 215:C:/Renesas/e2studio_2021_01_workspace_RZA2M_ANPR/ANPR_RZA2M_GR_MANGO/src/tensorflow_lite/tensorflow/lite/kernels/internal\types.h ****     return size_ > kMaxSmallSize ? dims_pointer_[i] : dims_[i];
 3850              		.loc 4 215 0
 3851 133c 44319DE5 		ldr	r3, [sp, #324]
 3852 1340 030053E3 		cmp	r3, #3
 3853 1344 2C308DE5 		str	r3, [sp, #44]
 3854 1348 1A0100DA 		ble	.L613
 216:C:/Renesas/e2studio_2021_01_workspace_RZA2M_ANPR/ANPR_RZA2M_GR_MANGO/src/tensorflow_lite/tensorflow/lite/kernels/internal\types.h ****   }
 3855              		.loc 4 216 0
 3856 134c 050053E3 		cmp	r3, #5
 3857 1350 48319DC5 		ldrgt	r3, [sp, #328]
 3858 1354 54319DD5 		ldrle	r3, [sp, #340]
 3859 1358 0C3093C5 		ldrgt	r3, [r3, #12]
 3860 135c 20308DE5 		str	r3, [sp, #32]
 3861              	.LVL376:
 3862              	.LBE1150:
 3863              	.LBE1149:
 3864              	.LBB1152:
 3865              	.LBB1153:
 215:C:/Renesas/e2studio_2021_01_workspace_RZA2M_ANPR/ANPR_RZA2M_GR_MANGO/src/tensorflow_lite/tensorflow/lite/kernels/internal\types.h ****     return size_ > kMaxSmallSize ? dims_pointer_[i] : dims_[i];
 3866              		.loc 4 215 0
 3867 1360 28309DE5 		ldr	r3, [sp, #40]
 3868 1364 030053E3 		cmp	r3, #3
 3869 1368 110100DA 		ble	.L614
 216:C:/Renesas/e2studio_2021_01_workspace_RZA2M_ANPR/ANPR_RZA2M_GR_MANGO/src/tensorflow_lite/tensorflow/lite/kernels/internal\types.h ****   }
 3870              		.loc 4 216 0
 3871 136c 050053E3 		cmp	r3, #5
 3872              	.LBE1153:
 3873              	.LBE1152:
 3874              		.loc 4 472 0
 3875 1370 20209DE5 		ldr	r2, [sp, #32]
 3876              	.LBB1156:
 3877              	.LBB1154:
 216:C:/Renesas/e2studio_2021_01_workspace_RZA2M_ANPR/ANPR_RZA2M_GR_MANGO/src/tensorflow_lite/tensorflow/lite/kernels/internal\types.h ****   }
 3878              		.loc 4 216 0
 3879 1374 78319DC5 		ldrgt	r3, [sp, #376]
 3880 1378 84319DD5 		ldrle	r3, [sp, #388]
 3881              	.LVL377:
 3882 137c 0C3093C5 		ldrgt	r3, [r3, #12]
 3883              	.LBE1154:
 3884              	.LBE1156:
 3885              		.loc 4 472 0
 3886 1380 030052E1 		cmp	r2, r3
 3887 1384 0901001A 		bne	.L615
 3888              	.LVL378:
 3889              	.LBE1148:
 3890              	.LBE1147:
 3891              	.LBB1160:
 3892              	.LBB1161:
  62:C:/Renesas/e2studio_2021_01_workspace_RZA2M_ANPR/ANPR_RZA2M_GR_MANGO/src/tensorflow_lite/tensorflow/lite/micro/kernels\kernel_util.h ****   return reinterpret_cast<const T*>(tensor->data.raw);
 3893              		.loc 5 62 0
 3894 1388 000058E3 		cmp	r8, #0
 3895 138c 0601000A 		beq	.L616
 3896              	.LVL379:
 3897              	.LBE1161:
 3898              	.LBE1160:
 192:../src/tensorflow_lite/tensorflow/lite/micro/kernels/cmsis_nn/depthwise_conv.cc ****       TFLITE_DCHECK_EQ(bias_shape.FlatSize(), output_depth);
 3899              		.loc 1 192 0
 3900 1390 003098E5 		ldr	r3, [r8]
 3901 1394 000053E3 		cmp	r3, #0
 3902 1398 5A00000A 		beq	.L193
 3903              	.LVL380:
 3904              	.LBB1163:
 3905              	.LBB1164:
 3906              	.LBB1165:
 3907              	.LBB1166:
 232:C:/Renesas/e2studio_2021_01_workspace_RZA2M_ANPR/ANPR_RZA2M_GR_MANGO/src/tensorflow_lite/tensorflow/lite/kernels/internal\types.h ****   }
 3908              		.loc 4 232 0
 3909 139c B8C19DE5 		ldr	ip, [sp, #440]
 3910 13a0 05005CE3 		cmp	ip, #5
 3911 13a4 C30000DA 		ble	.L194
 3912 13a8 BC019DE5 		ldr	r0, [sp, #444]
 3913              	.LVL381:
 3914              	.L195:
 3915 13ac 5031A0E7 		sbfx	r3, r0, #2, #1
 3916 13b0 033003E2 		and	r3, r3, #3
 3917 13b4 0C0053E1 		cmp	r3, ip
 3918 13b8 0C30A021 		movcs	r3, ip
 3919 13bc 08005CE3 		cmp	ip, #8
 3920 13c0 0C30A0D1 		movle	r3, ip
 3921 13c4 B40100CA 		bgt	.L617
 3922              	.L197:
 3923 13c8 010053E3 		cmp	r3, #1
 3924              	.LBE1166:
 3925              	.LBE1165:
 3926              	.LBB1168:
 293:C:/Renesas/e2studio_2021_01_workspace_RZA2M_ANPR/ANPR_RZA2M_GR_MANGO/src/tensorflow_lite/tensorflow/lite/kernels/internal\types.h ****     }
 3927              		.loc 4 293 0
 3928 13cc 002090E5 		ldr	r2, [r0]
 3929              	.LVL382:
 3930 13d0 AF01000A 		beq	.L361
 3931 13d4 041090E5 		ldr	r1, [r0, #4]
 3932 13d8 020053E3 		cmp	r3, #2
 3933 13dc 910202E0 		mul	r2, r1, r2
 3934              	.LVL383:
 3935 13e0 AB01000A 		beq	.L361
 3936 13e4 081090E5 		ldr	r1, [r0, #8]
 3937 13e8 030053E3 		cmp	r3, #3
 3938 13ec 910202E0 		mul	r2, r1, r2
 3939              	.LVL384:
 3940 13f0 A701000A 		beq	.L361
 3941 13f4 0C1090E5 		ldr	r1, [r0, #12]
 3942 13f8 040053E3 		cmp	r3, #4
 3943 13fc 910202E0 		mul	r2, r1, r2
 3944              	.LVL385:
 3945 1400 A301000A 		beq	.L361
 3946 1404 101090E5 		ldr	r1, [r0, #16]
 3947 1408 050053E3 		cmp	r3, #5
 3948 140c 910202E0 		mul	r2, r1, r2
 3949              	.LVL386:
 3950 1410 9F01000A 		beq	.L361
 3951 1414 141090E5 		ldr	r1, [r0, #20]
 3952 1418 060053E3 		cmp	r3, #6
 3953 141c 910202E0 		mul	r2, r1, r2
 3954              	.LVL387:
 3955 1420 9B01000A 		beq	.L361
 3956 1424 181090E5 		ldr	r1, [r0, #24]
 3957 1428 070053E3 		cmp	r3, #7
 3958 142c 910202E0 		mul	r2, r1, r2
 3959              	.LVL388:
 3960 1430 9701000A 		beq	.L361
 3961 1434 1CA090E5 		ldr	r10, [r0, #28]
 3962              	.LVL389:
 292:C:/Renesas/e2studio_2021_01_workspace_RZA2M_ANPR/ANPR_RZA2M_GR_MANGO/src/tensorflow_lite/tensorflow/lite/kernels/internal\types.h ****       buffer_size *= dims_data[i];
 3963              		.loc 4 292 0
 3964 1438 0810A0E3 		mov	r1, #8
 293:C:/Renesas/e2studio_2021_01_workspace_RZA2M_ANPR/ANPR_RZA2M_GR_MANGO/src/tensorflow_lite/tensorflow/lite/kernels/internal\types.h ****     }
 3965              		.loc 4 293 0
 3966 143c 9A0202E0 		mul	r2, r10, r2
 3967              	.LVL390:
 3968              	.L199:
 3969 1440 03005CE1 		cmp	ip, r3
 3970 1444 2C00000A 		beq	.L196
 3971              	.LVL391:
 3972              	.L198:
 3973 1448 03A04CE0 		sub	r10, ip, r3
 3974 144c 01B04CE2 		sub	fp, ip, #1
 3975 1450 30A08DE5 		str	r10, [sp, #48]
 3976 1454 04A04AE2 		sub	r10, r10, #4
 3977 1458 2AA1A0E1 		lsr	r10, r10, #2
 3978 145c 03B04BE0 		sub	fp, fp, r3
 3979 1460 02005BE3 		cmp	fp, #2
 3980 1464 01A08AE2 		add	r10, r10, #1
 3981 1468 0AB1A0E1 		lsl	fp, r10, #2
 3982 146c 34B08DE5 		str	fp, [sp, #52]
 3983 1470 1400009A 		bls	.L201
 3984 1474 033180E0 		add	r3, r0, r3, lsl #2
 292:C:/Renesas/e2studio_2021_01_workspace_RZA2M_ANPR/ANPR_RZA2M_GR_MANGO/src/tensorflow_lite/tensorflow/lite/kernels/internal\types.h ****       buffer_size *= dims_data[i];
 3985              		.loc 4 292 0
 3986 1478 5100C0F2 		vmov.i32	q8, #1  @ v4si
 3987 147c 00B0A0E3 		mov	fp, #0
 3988              	.L203:
 3989 1480 01B08BE2 		add	fp, fp, #1
 293:C:/Renesas/e2studio_2021_01_workspace_RZA2M_ANPR/ANPR_RZA2M_GR_MANGO/src/tensorflow_lite/tensorflow/lite/kernels/internal\types.h ****     }
 3990              		.loc 4 293 0
 3991 1484 DF2A63F4 		vld1.64	{d18-d19}, [r3:64]
 3992 1488 0B005AE1 		cmp	r10, fp
 3993 148c 103083E2 		add	r3, r3, #16
 3994 1490 F20960F2 		vmul.i32	q8, q8, q9
 3995 1494 F9FFFF8A 		bhi	.L203
 3996 1498 5020C0F2 		vmov.i32	q9, #0  @ v4si
 3997 149c 34309DE5 		ldr	r3, [sp, #52]
 3998 14a0 30A09DE5 		ldr	r10, [sp, #48]
 3999 14a4 E248F0F2 		vext.32	q10, q8, q9, #2
 4000 14a8 031081E0 		add	r1, r1, r3
 4001 14ac 03005AE1 		cmp	r10, r3
 4002 14b0 F40960F2 		vmul.i32	q8, q8, q10
 4003 14b4 E224F0F2 		vext.32	q9, q8, q9, #1
 4004 14b8 F00962F2 		vmul.i32	q8, q9, q8
 4005 14bc 903B10EE 		vmov.32	r3, d16[0]
 4006 14c0 930202E0 		mul	r2, r3, r2
 4007 14c4 0C00000A 		beq	.L196
 4008              	.L201:
 4009              	.LVL392:
 4010 14c8 01A190E7 		ldr	r10, [r0, r1, lsl #2]
 292:C:/Renesas/e2studio_2021_01_workspace_RZA2M_ANPR/ANPR_RZA2M_GR_MANGO/src/tensorflow_lite/tensorflow/lite/kernels/internal\types.h ****       buffer_size *= dims_data[i];
 4011              		.loc 4 292 0
 4012 14cc 013081E2 		add	r3, r1, #1
 4013 14d0 03005CE1 		cmp	ip, r3
 293:C:/Renesas/e2studio_2021_01_workspace_RZA2M_ANPR/ANPR_RZA2M_GR_MANGO/src/tensorflow_lite/tensorflow/lite/kernels/internal\types.h ****     }
 4014              		.loc 4 293 0
 4015 14d4 0131A0E1 		lsl	r3, r1, #2
 4016 14d8 9A0202E0 		mul	r2, r10, r2
 4017              	.LVL393:
 292:C:/Renesas/e2studio_2021_01_workspace_RZA2M_ANPR/ANPR_RZA2M_GR_MANGO/src/tensorflow_lite/tensorflow/lite/kernels/internal\types.h ****       buffer_size *= dims_data[i];
 4018              		.loc 4 292 0
 4019 14dc 060000DA 		ble	.L196
 293:C:/Renesas/e2studio_2021_01_workspace_RZA2M_ANPR/ANPR_RZA2M_GR_MANGO/src/tensorflow_lite/tensorflow/lite/kernels/internal\types.h ****     }
 4020              		.loc 4 293 0
 4021 14e0 030080E0 		add	r0, r0, r3
 292:C:/Renesas/e2studio_2021_01_workspace_RZA2M_ANPR/ANPR_RZA2M_GR_MANGO/src/tensorflow_lite/tensorflow/lite/kernels/internal\types.h ****       buffer_size *= dims_data[i];
 4022              		.loc 4 292 0
 4023 14e4 021081E2 		add	r1, r1, #2
 293:C:/Renesas/e2studio_2021_01_workspace_RZA2M_ANPR/ANPR_RZA2M_GR_MANGO/src/tensorflow_lite/tensorflow/lite/kernels/internal\types.h ****     }
 4024              		.loc 4 293 0
 4025 14e8 043090E5 		ldr	r3, [r0, #4]
 292:C:/Renesas/e2studio_2021_01_workspace_RZA2M_ANPR/ANPR_RZA2M_GR_MANGO/src/tensorflow_lite/tensorflow/lite/kernels/internal\types.h ****       buffer_size *= dims_data[i];
 4026              		.loc 4 292 0
 4027 14ec 01005CE1 		cmp	ip, r1
 293:C:/Renesas/e2studio_2021_01_workspace_RZA2M_ANPR/ANPR_RZA2M_GR_MANGO/src/tensorflow_lite/tensorflow/lite/kernels/internal\types.h ****     }
 4028              		.loc 4 293 0
 4029 14f0 930202E0 		mul	r2, r3, r2
 4030              	.LVL394:
 292:C:/Renesas/e2studio_2021_01_workspace_RZA2M_ANPR/ANPR_RZA2M_GR_MANGO/src/tensorflow_lite/tensorflow/lite/kernels/internal\types.h ****       buffer_size *= dims_data[i];
 4031              		.loc 4 292 0
 293:C:/Renesas/e2studio_2021_01_workspace_RZA2M_ANPR/ANPR_RZA2M_GR_MANGO/src/tensorflow_lite/tensorflow/lite/kernels/internal\types.h ****     }
 4032              		.loc 4 293 0
 4033 14f4 083090C5 		ldrgt	r3, [r0, #8]
 4034 14f8 930202C0 		mulgt	r2, r3, r2
 4035              	.LVL395:
 4036              	.L196:
 4037              	.LBE1168:
 4038              	.LBE1164:
 4039              	.LBE1163:
 193:../src/tensorflow_lite/tensorflow/lite/micro/kernels/cmsis_nn/depthwise_conv.cc ****     }
 4040              		.loc 1 193 0
 4041 14fc 20309DE5 		ldr	r3, [sp, #32]
 4042 1500 020053E1 		cmp	r3, r2
 4043 1504 5001001A 		bne	.L618
 4044              	.L193:
 197:../src/tensorflow_lite/tensorflow/lite/micro/kernels/cmsis_nn/depthwise_conv.cc ****     input_dims.h = input_shape.Dims(1);
 4045              		.loc 1 197 0
 4046 1508 24309DE5 		ldr	r3, [sp, #36]
 4047              	.LBB1174:
 4048              	.LBB1175:
 215:C:/Renesas/e2studio_2021_01_workspace_RZA2M_ANPR/ANPR_RZA2M_GR_MANGO/src/tensorflow_lite/tensorflow/lite/kernels/internal\types.h ****     return size_ > kMaxSmallSize ? dims_pointer_[i] : dims_[i];
 4049              		.loc 4 215 0
 4050 150c 01005EE3 		cmp	lr, #1
 4051              	.LBE1175:
 4052              	.LBE1174:
 197:../src/tensorflow_lite/tensorflow/lite/micro/kernels/cmsis_nn/depthwise_conv.cc ****     input_dims.h = input_shape.Dims(1);
 4053              		.loc 1 197 0
 4054 1510 FC308DE5 		str	r3, [sp, #252]
 4055              	.LVL396:
 4056              	.LBB1179:
 4057              	.LBB1176:
 215:C:/Renesas/e2studio_2021_01_workspace_RZA2M_ANPR/ANPR_RZA2M_GR_MANGO/src/tensorflow_lite/tensorflow/lite/kernels/internal\types.h ****     return size_ > kMaxSmallSize ? dims_pointer_[i] : dims_[i];
 4058              		.loc 4 215 0
 4059 1514 5B01000A 		beq	.L619
 216:C:/Renesas/e2studio_2021_01_workspace_RZA2M_ANPR/ANPR_RZA2M_GR_MANGO/src/tensorflow_lite/tensorflow/lite/kernels/internal\types.h ****   }
 4060              		.loc 4 216 0
 4061 1518 05005EE3 		cmp	lr, #5
 4062 151c 540100CA 		bgt	.L620
 4063              	.LVL397:
 4064              	.LBE1176:
 4065              	.LBE1179:
 198:../src/tensorflow_lite/tensorflow/lite/micro/kernels/cmsis_nn/depthwise_conv.cc ****     input_dims.w = input_shape.Dims(2);
 4066              		.loc 1 198 0
 4067 1520 64319DE5 		ldr	r3, [sp, #356]
 4068              	.LBB1180:
 4069              	.LBB1181:
 215:C:/Renesas/e2studio_2021_01_workspace_RZA2M_ANPR/ANPR_RZA2M_GR_MANGO/src/tensorflow_lite/tensorflow/lite/kernels/internal\types.h ****     return size_ > kMaxSmallSize ? dims_pointer_[i] : dims_[i];
 4070              		.loc 4 215 0
 4071 1524 02005EE3 		cmp	lr, #2
 4072              	.LBE1181:
 4073              	.LBE1180:
 198:../src/tensorflow_lite/tensorflow/lite/micro/kernels/cmsis_nn/depthwise_conv.cc ****     input_dims.w = input_shape.Dims(2);
 4074              		.loc 1 198 0
 4075 1528 00318DE5 		str	r3, [sp, #256]
 4076              	.LVL398:
 4077              	.LBB1184:
 4078              	.LBB1182:
 215:C:/Renesas/e2studio_2021_01_workspace_RZA2M_ANPR/ANPR_RZA2M_GR_MANGO/src/tensorflow_lite/tensorflow/lite/kernels/internal\types.h ****     return size_ > kMaxSmallSize ? dims_pointer_[i] : dims_[i];
 4079              		.loc 4 215 0
 4080 152c 4F01000A 		beq	.L621
 4081              	.LVL399:
 4082              	.LBE1182:
 4083              	.LBE1184:
 199:../src/tensorflow_lite/tensorflow/lite/micro/kernels/cmsis_nn/depthwise_conv.cc ****     input_dims.c = input_shape.Dims(3);
 4084              		.loc 1 199 0
 4085 1530 68319DE5 		ldr	r3, [sp, #360]
 4086              	.LBB1185:
 4087              	.LBB1186:
 215:C:/Renesas/e2studio_2021_01_workspace_RZA2M_ANPR/ANPR_RZA2M_GR_MANGO/src/tensorflow_lite/tensorflow/lite/kernels/internal\types.h ****     return size_ > kMaxSmallSize ? dims_pointer_[i] : dims_[i];
 4088              		.loc 4 215 0
 4089 1534 03005EE3 		cmp	lr, #3
 4090              	.LBE1186:
 4091              	.LBE1185:
 199:../src/tensorflow_lite/tensorflow/lite/micro/kernels/cmsis_nn/depthwise_conv.cc ****     input_dims.c = input_shape.Dims(3);
 4092              		.loc 1 199 0
 4093 1538 04318DE5 		str	r3, [sp, #260]
 4094              	.LVL400:
 4095              	.LBB1190:
 4096              	.LBB1187:
 215:C:/Renesas/e2studio_2021_01_workspace_RZA2M_ANPR/ANPR_RZA2M_GR_MANGO/src/tensorflow_lite/tensorflow/lite/kernels/internal\types.h ****     return size_ > kMaxSmallSize ? dims_pointer_[i] : dims_[i];
 4097              		.loc 4 215 0
 4098 153c 4A01000A 		beq	.L329
 216:C:/Renesas/e2studio_2021_01_workspace_RZA2M_ANPR/ANPR_RZA2M_GR_MANGO/src/tensorflow_lite/tensorflow/lite/kernels/internal\types.h ****   }
 4099              		.loc 4 216 0
 4100 1540 6C319DE5 		ldr	r3, [sp, #364]
 4101              	.L209:
 4102              	.LVL401:
 4103              	.LBE1187:
 4104              	.LBE1190:
 4105              	.LBB1191:
 4106              	.LBB1192:
 4107 1544 2C209DE5 		ldr	r2, [sp, #44]
 4108              	.LBE1192:
 4109              	.LBE1191:
 200:../src/tensorflow_lite/tensorflow/lite/micro/kernels/cmsis_nn/depthwise_conv.cc **** 
 4110              		.loc 1 200 0
 4111 1548 08318DE5 		str	r3, [sp, #264]
 4112              	.LVL402:
 4113              	.LBB1194:
 4114              	.LBB1193:
 216:C:/Renesas/e2studio_2021_01_workspace_RZA2M_ANPR/ANPR_RZA2M_GR_MANGO/src/tensorflow_lite/tensorflow/lite/kernels/internal\types.h ****   }
 4115              		.loc 4 216 0
 4116 154c 050052E3 		cmp	r2, #5
 4117 1550 48319DC5 		ldrgt	r3, [sp, #328]
 4118              	.LBE1193:
 4119              	.LBE1194:
 204:../src/tensorflow_lite/tensorflow/lite/micro/kernels/cmsis_nn/depthwise_conv.cc ****     filter_dims.w = filter_shape.Dims(2);
 4120              		.loc 1 204 0
 4121 1554 4C319DD5 		ldrle	r3, [sp, #332]
 4122              	.LBB1195:
 4123              	.LBB1196:
 216:C:/Renesas/e2studio_2021_01_workspace_RZA2M_ANPR/ANPR_RZA2M_GR_MANGO/src/tensorflow_lite/tensorflow/lite/kernels/internal\types.h ****   }
 4124              		.loc 4 216 0
 4125 1558 50219DD5 		ldrle	r2, [sp, #336]
 4126              	.LBE1196:
 4127              	.LBE1195:
 203:../src/tensorflow_lite/tensorflow/lite/micro/kernels/cmsis_nn/depthwise_conv.cc ****     filter_dims.h = filter_shape.Dims(1);
 4128              		.loc 1 203 0
 4129 155c 48119DD5 		ldrle	r1, [sp, #328]
 4130              	.LBB1198:
 4131              	.LBB1197:
 216:C:/Renesas/e2studio_2021_01_workspace_RZA2M_ANPR/ANPR_RZA2M_GR_MANGO/src/tensorflow_lite/tensorflow/lite/kernels/internal\types.h ****   }
 4132              		.loc 4 216 0
 4133 1560 070093C8 		ldmgt	r3, {r0, r1, r2}
 4134              	.LBE1197:
 4135              	.LBE1198:
 204:../src/tensorflow_lite/tensorflow/lite/micro/kernels/cmsis_nn/depthwise_conv.cc ****     filter_dims.w = filter_shape.Dims(2);
 4136              		.loc 1 204 0
 4137 1564 10318DD5 		strle	r3, [sp, #272]
 4138              	.LBB1199:
 4139              	.LBB1200:
 216:C:/Renesas/e2studio_2021_01_workspace_RZA2M_ANPR/ANPR_RZA2M_GR_MANGO/src/tensorflow_lite/tensorflow/lite/kernels/internal\types.h ****   }
 4140              		.loc 4 216 0
 4141 1568 28309DE5 		ldr	r3, [sp, #40]
 4142              	.LBE1200:
 4143              	.LBE1199:
 205:../src/tensorflow_lite/tensorflow/lite/micro/kernels/cmsis_nn/depthwise_conv.cc ****     filter_dims.c = output_depth;
 4144              		.loc 1 205 0
 4145 156c 14218DE5 		str	r2, [sp, #276]
 206:../src/tensorflow_lite/tensorflow/lite/micro/kernels/cmsis_nn/depthwise_conv.cc **** 
 4146              		.loc 1 206 0
 4147 1570 20209DE5 		ldr	r2, [sp, #32]
 204:../src/tensorflow_lite/tensorflow/lite/micro/kernels/cmsis_nn/depthwise_conv.cc ****     filter_dims.w = filter_shape.Dims(2);
 4148              		.loc 1 204 0
 4149 1574 10118DC5 		strgt	r1, [sp, #272]
 203:../src/tensorflow_lite/tensorflow/lite/micro/kernels/cmsis_nn/depthwise_conv.cc ****     filter_dims.h = filter_shape.Dims(1);
 4150              		.loc 1 203 0
 4151 1578 0C118DD5 		strle	r1, [sp, #268]
 4152 157c 0C018DC5 		strgt	r0, [sp, #268]
 4153              	.LVL403:
 4154              	.LBB1204:
 4155              	.LBB1201:
 216:C:/Renesas/e2studio_2021_01_workspace_RZA2M_ANPR/ANPR_RZA2M_GR_MANGO/src/tensorflow_lite/tensorflow/lite/kernels/internal\types.h ****   }
 4156              		.loc 4 216 0
 4157 1580 050053E3 		cmp	r3, #5
 4158              	.LBE1201:
 4159              	.LBE1204:
 209:../src/tensorflow_lite/tensorflow/lite/micro/kernels/cmsis_nn/depthwise_conv.cc ****     bias_dims.h = 1;
 4160              		.loc 1 209 0
 4161 1584 0130A0E3 		mov	r3, #1
 206:../src/tensorflow_lite/tensorflow/lite/micro/kernels/cmsis_nn/depthwise_conv.cc **** 
 4162              		.loc 1 206 0
 4163 1588 18218DE5 		str	r2, [sp, #280]
 211:../src/tensorflow_lite/tensorflow/lite/micro/kernels/cmsis_nn/depthwise_conv.cc ****     bias_dims.c = output_depth;
 4164              		.loc 1 211 0
 4165 158c 24318DE5 		str	r3, [sp, #292]
 210:../src/tensorflow_lite/tensorflow/lite/micro/kernels/cmsis_nn/depthwise_conv.cc ****     bias_dims.w = 1;
 4166              		.loc 1 210 0
 4167 1590 20318DE5 		str	r3, [sp, #288]
 212:../src/tensorflow_lite/tensorflow/lite/micro/kernels/cmsis_nn/depthwise_conv.cc **** 
 4168              		.loc 1 212 0
 4169 1594 28218DE5 		str	r2, [sp, #296]
 209:../src/tensorflow_lite/tensorflow/lite/micro/kernels/cmsis_nn/depthwise_conv.cc ****     bias_dims.h = 1;
 4170              		.loc 1 209 0
 4171 1598 1C318DE5 		str	r3, [sp, #284]
 215:../src/tensorflow_lite/tensorflow/lite/micro/kernels/cmsis_nn/depthwise_conv.cc ****     output_dims.h = output_shape.Dims(1);
 4172              		.loc 1 215 0
 4173 159c 24209DE5 		ldr	r2, [sp, #36]
 4174              	.LBB1205:
 4175              	.LBB1202:
 216:C:/Renesas/e2studio_2021_01_workspace_RZA2M_ANPR/ANPR_RZA2M_GR_MANGO/src/tensorflow_lite/tensorflow/lite/kernels/internal\types.h ****   }
 4176              		.loc 4 216 0
 4177 15a0 78319DC5 		ldrgt	r3, [sp, #376]
 4178              	.LBE1202:
 4179              	.LBE1205:
 216:../src/tensorflow_lite/tensorflow/lite/micro/kernels/cmsis_nn/depthwise_conv.cc ****     output_dims.w = output_shape.Dims(2);
 4180              		.loc 1 216 0
 4181 15a4 7C319DD5 		ldrle	r3, [sp, #380]
 215:../src/tensorflow_lite/tensorflow/lite/micro/kernels/cmsis_nn/depthwise_conv.cc ****     output_dims.h = output_shape.Dims(1);
 4182              		.loc 1 215 0
 4183 15a8 2C218DE5 		str	r2, [sp, #300]
 4184              	.LVL404:
 4185              	.LBB1206:
 4186              	.LBB1203:
 216:C:/Renesas/e2studio_2021_01_workspace_RZA2M_ANPR/ANPR_RZA2M_GR_MANGO/src/tensorflow_lite/tensorflow/lite/kernels/internal\types.h ****   }
 4187              		.loc 4 216 0
 4188 15ac 042093C5 		ldrgt	r2, [r3, #4]
 4189              	.LVL405:
 4190              	.LBE1203:
 4191              	.LBE1206:
 4192              	.LBB1207:
 4193              	.LBB1208:
 4194 15b0 80219DD5 		ldrle	r2, [sp, #384]
 4195              	.LBE1208:
 4196              	.LBE1207:
 225:../src/tensorflow_lite/tensorflow/lite/micro/kernels/cmsis_nn/depthwise_conv.cc ****       ctx.buf = context->GetScratchBuffer(context, data.buffer_idx);
 4197              		.loc 1 225 0
 4198 15b4 341096E5 		ldr	r1, [r6, #52]
 216:../src/tensorflow_lite/tensorflow/lite/micro/kernels/cmsis_nn/depthwise_conv.cc ****     output_dims.w = output_shape.Dims(2);
 4199              		.loc 1 216 0
 4200 15b8 30218DC5 		strgt	r2, [sp, #304]
 4201              	.LVL406:
 4202              	.LBB1210:
 4203              	.LBB1209:
 216:C:/Renesas/e2studio_2021_01_workspace_RZA2M_ANPR/ANPR_RZA2M_GR_MANGO/src/tensorflow_lite/tensorflow/lite/kernels/internal\types.h ****   }
 4204              		.loc 4 216 0
 4205 15bc 082093C5 		ldrgt	r2, [r3, #8]
 4206              	.LBE1209:
 4207              	.LBE1210:
 216:../src/tensorflow_lite/tensorflow/lite/micro/kernels/cmsis_nn/depthwise_conv.cc ****     output_dims.w = output_shape.Dims(2);
 4208              		.loc 1 216 0
 4209 15c0 30318DD5 		strle	r3, [sp, #304]
 4210              	.LVL407:
 221:../src/tensorflow_lite/tensorflow/lite/micro/kernels/cmsis_nn/depthwise_conv.cc ****     /* 'size' is unused */
 4211              		.loc 1 221 0
 4212 15c4 0030A0E3 		mov	r3, #0
 225:../src/tensorflow_lite/tensorflow/lite/micro/kernels/cmsis_nn/depthwise_conv.cc ****       ctx.buf = context->GetScratchBuffer(context, data.buffer_idx);
 4213              		.loc 1 225 0
 4214 15c8 030051E1 		cmp	r1, r3
 217:../src/tensorflow_lite/tensorflow/lite/micro/kernels/cmsis_nn/depthwise_conv.cc ****     output_dims.c = output_depth;
 4215              		.loc 1 217 0
 4216 15cc 34218DE5 		str	r2, [sp, #308]
 218:../src/tensorflow_lite/tensorflow/lite/micro/kernels/cmsis_nn/depthwise_conv.cc **** 
 4217              		.loc 1 218 0
 4218 15d0 20209DE5 		ldr	r2, [sp, #32]
 221:../src/tensorflow_lite/tensorflow/lite/micro/kernels/cmsis_nn/depthwise_conv.cc ****     /* 'size' is unused */
 4219              		.loc 1 221 0
 4220 15d4 F4308DE5 		str	r3, [sp, #244]
 223:../src/tensorflow_lite/tensorflow/lite/micro/kernels/cmsis_nn/depthwise_conv.cc **** 
 4221              		.loc 1 223 0
 4222 15d8 F8308DE5 		str	r3, [sp, #248]
 218:../src/tensorflow_lite/tensorflow/lite/micro/kernels/cmsis_nn/depthwise_conv.cc **** 
 4223              		.loc 1 218 0
 4224 15dc 38218DE5 		str	r2, [sp, #312]
 225:../src/tensorflow_lite/tensorflow/lite/micro/kernels/cmsis_nn/depthwise_conv.cc ****       ctx.buf = context->GetScratchBuffer(context, data.buffer_idx);
 4225              		.loc 1 225 0
 4226 15e0 030000BA 		blt	.L322
 226:../src/tensorflow_lite/tensorflow/lite/micro/kernels/cmsis_nn/depthwise_conv.cc ****     }
 4227              		.loc 1 226 0
 4228 15e4 443094E5 		ldr	r3, [r4, #68]
 4229 15e8 0400A0E1 		mov	r0, r4
 4230              	.LEHB23:
 4231 15ec 33FF2FE1 		blx	r3
 4232              	.LVL408:
 4233 15f0 F4008DE5 		str	r0, [sp, #244]
 4234              	.LVL409:
 4235              	.L322:
 4236              	.LBB1211:
 4237              	.LBB1212:
  62:C:/Renesas/e2studio_2021_01_workspace_RZA2M_ANPR/ANPR_RZA2M_GR_MANGO/src/tensorflow_lite/tensorflow/lite/micro/kernels\kernel_util.h ****   return reinterpret_cast<const T*>(tensor->data.raw);
 4238              		.loc 5 62 0
 4239 15f4 000059E3 		cmp	r9, #0
 4240              	.LBE1212:
 4241              	.LBE1211:
 4242              	.LBB1216:
 4243              	.LBB1217:
 4244              		.loc 5 63 0
 4245 15f8 001097E5 		ldr	r1, [r7]
 4246              	.LVL410:
 4247              	.LBE1217:
 4248              	.LBE1216:
 4249              	.LBB1218:
 4250              	.LBB1213:
  62:C:/Renesas/e2studio_2021_01_workspace_RZA2M_ANPR/ANPR_RZA2M_GR_MANGO/src/tensorflow_lite/tensorflow/lite/micro/kernels\kernel_util.h ****   return reinterpret_cast<const T*>(tensor->data.raw);
 4251              		.loc 5 62 0
 4252 15fc 1101000A 		beq	.L622
 4253              	.LBE1213:
 4254              	.LBE1218:
 4255              	.LBB1219:
 4256              	.LBB1220:
  56:C:/Renesas/e2studio_2021_01_workspace_RZA2M_ANPR/ANPR_RZA2M_GR_MANGO/src/tensorflow_lite/tensorflow/lite/micro/kernels\kernel_util.h **** }
 4257              		.loc 5 56 0
 4258 1600 000055E3 		cmp	r5, #0
 4259              	.LBE1220:
 4260              	.LBE1219:
 4261              	.LBB1222:
 4262              	.LBB1214:
 4263              		.loc 5 63 0
 4264 1604 002099E5 		ldr	r2, [r9]
 4265              	.LVL411:
 4266              	.LBE1214:
 4267              	.LBE1222:
 4268              	.LBB1223:
 4269              	.LBB1224:
 4270 1608 003098E5 		ldr	r3, [r8]
 4271              	.LVL412:
 4272              	.LBE1224:
 4273              	.LBE1223:
 229:../src/tensorflow_lite/tensorflow/lite/micro/kernels/cmsis_nn/depthwise_conv.cc ****         arm_depthwise_conv_wrapper_s8(
 4274              		.loc 1 229 0
 4275 160c 4B0F8DE2 		add	r0, sp, #300
 4276              	.LBB1225:
 4277              	.LBB1221:
  56:C:/Renesas/e2studio_2021_01_workspace_RZA2M_ANPR/ANPR_RZA2M_GR_MANGO/src/tensorflow_lite/tensorflow/lite/micro/kernels\kernel_util.h **** }
 4278              		.loc 5 56 0
 4279 1610 00509515 		ldrne	r5, [r5]
 4280              	.LVL413:
 4281              	.LBE1221:
 4282              	.LBE1225:
 229:../src/tensorflow_lite/tensorflow/lite/micro/kernels/cmsis_nn/depthwise_conv.cc ****         arm_depthwise_conv_wrapper_s8(
 4283              		.loc 1 229 0
 4284 1614 47EF8DE2 		add	lr, sp, #284
 4285 1618 43CF8DE2 		add	ip, sp, #268
 4286 161c 08208DE5 		str	r2, [sp, #8]
 4287 1620 10308DE5 		str	r3, [sp, #16]
 4288 1624 EC208DE2 		add	r2, sp, #236
 4289 1628 00108DE5 		str	r1, [sp]
 4290 162c FC308DE2 		add	r3, sp, #252
 4291 1630 14008DE5 		str	r0, [sp, #20]
 4292 1634 631F8DE2 		add	r1, sp, #396
 4293 1638 18508DE5 		str	r5, [sp, #24]
 4294 163c F4008DE2 		add	r0, sp, #244
 4295 1640 0CE08DE5 		str	lr, [sp, #12]
 4296 1644 04C08DE5 		str	ip, [sp, #4]
 4297 1648 FEFFFFEB 		bl	arm_depthwise_conv_wrapper_s8
 4298              	.LVL414:
 4299              	.LEHE23:
 236:../src/tensorflow_lite/tensorflow/lite/micro/kernels/cmsis_nn/depthwise_conv.cc ****   } else {
 4300              		.loc 1 236 0
 4301 164c 000050E3 		cmp	r0, #0
 4302 1650 FB00001A 		bne	.L623
 4303              	.LVL415:
 4304              	.LBB1226:
 4305              	.LBB1227:
 203:C:/Renesas/e2studio_2021_01_workspace_RZA2M_ANPR/ANPR_RZA2M_GR_MANGO/src/tensorflow_lite/tensorflow/lite/kernels/internal\types.h **** #ifdef TF_LITE_STATIC_MEMORY
 4306              		.loc 4 203 0
 4307 1654 B8319DE5 		ldr	r3, [sp, #440]
 4308 1658 050053E3 		cmp	r3, #5
 4309 165c 030000DA 		ble	.L218
 207:C:/Renesas/e2studio_2021_01_workspace_RZA2M_ANPR/ANPR_RZA2M_GR_MANGO/src/tensorflow_lite/tensorflow/lite/kernels/internal\types.h **** #endif  // TF_LITE_STATIC_MEMORY
 4310              		.loc 4 207 0
 4311 1660 BC019DE5 		ldr	r0, [sp, #444]
 4312 1664 000050E3 		cmp	r0, #0
 4313 1668 0000000A 		beq	.L218
 4314 166c FEFFFFEB 		bl	_ZdaPv
 4315              	.LVL416:
 4316              	.L218:
 4317              	.LBE1227:
 4318              	.LBE1226:
 4319              	.LBB1228:
 4320              	.LBB1129:
 203:C:/Renesas/e2studio_2021_01_workspace_RZA2M_ANPR/ANPR_RZA2M_GR_MANGO/src/tensorflow_lite/tensorflow/lite/kernels/internal\types.h **** #ifdef TF_LITE_STATIC_MEMORY
 4321              		.loc 4 203 0
 4322 1670 74319DE5 		ldr	r3, [sp, #372]
 4323 1674 050053E3 		cmp	r3, #5
 4324 1678 C2FEFFDA 		ble	.L219
 207:C:/Renesas/e2studio_2021_01_workspace_RZA2M_ANPR/ANPR_RZA2M_GR_MANGO/src/tensorflow_lite/tensorflow/lite/kernels/internal\types.h **** #endif  // TF_LITE_STATIC_MEMORY
 4325              		.loc 4 207 0
 4326 167c 78019DE5 		ldr	r0, [sp, #376]
 4327 1680 000050E3 		cmp	r0, #0
 4328 1684 BEFEFF1A 		bne	.L548
 4329 1688 BEFEFFEA 		b	.L219
 4330              	.LVL417:
 4331              	.L273:
 4332              	.LEHB24:
 4333              	.LBE1129:
 4334              	.LBE1228:
 4335              	.LBE1246:
 4336              	.LBB1247:
 4337              	.LBB1104:
 4338              	.LBB1093:
 4339              	.LBB1086:
 4340              	.LBB1081:
 4341              	.LBB1076:
 4342              	.LBB1071:
 4343              	.LBB1066:
 4344              	.LBB1059:
 4345              	.LBB1049:
 4346              	.LBB1047:
 4347              	.LBB1044:
 4348              	.LBB1039:
 4349              	.LBB1027:
 409:C:/Renesas/e2studio_2021_01_workspace_RZA2M_ANPR/ANPR_RZA2M_GR_MANGO/src/tensorflow_lite/tensorflow/lite/kernels/internal\types.h ****   return ((i0 * dims_data[1] + i1) * dims_data[2] + i2) * dims_data[3] + i3;
 4350              		.loc 4 409 0
 4351 168c FEFFFFEB 		bl	abort
 4352              	.LVL418:
 4353              	.L585:
 408:C:/Renesas/e2studio_2021_01_workspace_RZA2M_ANPR/ANPR_RZA2M_GR_MANGO/src/tensorflow_lite/tensorflow/lite/kernels/internal\types.h ****   TFLITE_DCHECK(i3 >= 0 && i3 < dims_data[3]);
 4354              		.loc 4 408 0
 4355 1690 FEFFFFEB 		bl	abort
 4356              	.LVL419:
 4357              	.L584:
 407:C:/Renesas/e2studio_2021_01_workspace_RZA2M_ANPR/ANPR_RZA2M_GR_MANGO/src/tensorflow_lite/tensorflow/lite/kernels/internal\types.h ****   TFLITE_DCHECK(i2 >= 0 && i2 < dims_data[2]);
 4358              		.loc 4 407 0
 4359 1694 FEFFFFEB 		bl	abort
 4360              	.LVL420:
 4361              	.L581:
 4362              	.LBE1027:
 4363              	.LBE1039:
 4364              	.LBB1040:
 4365              	.LBB1018:
 409:C:/Renesas/e2studio_2021_01_workspace_RZA2M_ANPR/ANPR_RZA2M_GR_MANGO/src/tensorflow_lite/tensorflow/lite/kernels/internal\types.h ****   return ((i0 * dims_data[1] + i1) * dims_data[2] + i2) * dims_data[3] + i3;
 4366              		.loc 4 409 0
 4367 1698 FEFFFFEB 		bl	abort
 4368              	.LVL421:
 4369              	.L580:
 408:C:/Renesas/e2studio_2021_01_workspace_RZA2M_ANPR/ANPR_RZA2M_GR_MANGO/src/tensorflow_lite/tensorflow/lite/kernels/internal\types.h ****   TFLITE_DCHECK(i3 >= 0 && i3 < dims_data[3]);
 4370              		.loc 4 408 0
 4371 169c FEFFFFEB 		bl	abort
 4372              	.LVL422:
 4373              	.L579:
 407:C:/Renesas/e2studio_2021_01_workspace_RZA2M_ANPR/ANPR_RZA2M_GR_MANGO/src/tensorflow_lite/tensorflow/lite/kernels/internal\types.h ****   TFLITE_DCHECK(i2 >= 0 && i2 < dims_data[2]);
 4374              		.loc 4 407 0
 4375 16a0 FEFFFFEB 		bl	abort
 4376              	.LVL423:
 4377              	.L578:
 406:C:/Renesas/e2studio_2021_01_workspace_RZA2M_ANPR/ANPR_RZA2M_GR_MANGO/src/tensorflow_lite/tensorflow/lite/kernels/internal\types.h ****   TFLITE_DCHECK(i1 >= 0 && i1 < dims_data[1]);
 4378              		.loc 4 406 0
 4379 16a4 FEFFFFEB 		bl	abort
 4380              	.LVL424:
 4381              	.LEHE24:
 4382              	.L143:
 4383              	.LEHB25:
 4384              	.LBE1018:
 4385              	.LBE1040:
 4386              	.LBE1044:
 4387              	.LBE1047:
 4388              	.LBE1049:
 4389              	.LBE1059:
 4390              	.LBE1066:
 4391              	.LBE1071:
 4392              	.LBE1076:
 4393              	.LBE1081:
 4394              	.LBE1086:
 4395              	.LBE1093:
 4396              	.LBE1104:
 4397              	.LBE1247:
 4398              	.LBE1272:
 4399              	.LBE1286:
 4400              	.LBE1528:
 4401              	.LBB1529:
 4402              	.LBB1501:
 4403              	.LBB1487:
 4404              	.LBB1477:
 4405              	.LBB1470:
 4406              	.LBB1462:
 4407              	.LBB1454:
 4408              	.LBB1446:
 4409              	.LBB1436:
 4410              	.LBB1418:
 4411              	.LBB1410:
 4412              	.LBB1402:
 4413              	.LBB1398:
 4414              	.LBB1391:
 4415              	.LBB1381:
 408:C:/Renesas/e2studio_2021_01_workspace_RZA2M_ANPR/ANPR_RZA2M_GR_MANGO/src/tensorflow_lite/tensorflow/lite/kernels/internal\types.h ****   TFLITE_DCHECK(i3 >= 0 && i3 < dims_data[3]);
 4416              		.loc 4 408 0
 4417 16a8 FEFFFFEB 		bl	abort
 4418              	.LVL425:
 4419              	.L139:
 406:C:/Renesas/e2studio_2021_01_workspace_RZA2M_ANPR/ANPR_RZA2M_GR_MANGO/src/tensorflow_lite/tensorflow/lite/kernels/internal\types.h ****   TFLITE_DCHECK(i1 >= 0 && i1 < dims_data[1]);
 4420              		.loc 4 406 0
 4421 16ac FEFFFFEB 		bl	abort
 4422              	.LVL426:
 4423              	.L137:
 4424              	.LBE1381:
 4425              	.LBE1391:
 4426              	.LBB1392:
 4427              	.LBB1386:
 409:C:/Renesas/e2studio_2021_01_workspace_RZA2M_ANPR/ANPR_RZA2M_GR_MANGO/src/tensorflow_lite/tensorflow/lite/kernels/internal\types.h ****   return ((i0 * dims_data[1] + i1) * dims_data[2] + i2) * dims_data[3] + i3;
 4428              		.loc 4 409 0
 4429 16b0 FEFFFFEB 		bl	abort
 4430              	.LVL427:
 4431              	.L136:
 406:C:/Renesas/e2studio_2021_01_workspace_RZA2M_ANPR/ANPR_RZA2M_GR_MANGO/src/tensorflow_lite/tensorflow/lite/kernels/internal\types.h ****   TFLITE_DCHECK(i1 >= 0 && i1 < dims_data[1]);
 4432              		.loc 4 406 0
 4433 16b4 FEFFFFEB 		bl	abort
 4434              	.LVL428:
 4435              	.LEHE25:
 4436              	.L194:
 4437              	.LBE1386:
 4438              	.LBE1392:
 4439              	.LBE1398:
 4440              	.LBE1402:
 4441              	.LBE1410:
 4442              	.LBE1418:
 4443              	.LBE1436:
 4444              	.LBE1446:
 4445              	.LBE1454:
 4446              	.LBE1462:
 4447              	.LBE1470:
 4448              	.LBE1477:
 4449              	.LBE1487:
 4450              	.LBE1501:
 4451              	.LBE1529:
 4452              	.LBB1530:
 4453              	.LBB1287:
 4454              	.LBB1273:
 4455              	.LBB1248:
 4456              	.LBB1229:
 4457              	.LBB1172:
 4458              	.LBB1169:
 292:C:/Renesas/e2studio_2021_01_workspace_RZA2M_ANPR/ANPR_RZA2M_GR_MANGO/src/tensorflow_lite/tensorflow/lite/kernels/internal\types.h ****       buffer_size *= dims_data[i];
 4459              		.loc 4 292 0
 4460 16b8 00005CE3 		cmp	ip, #0
 4461 16bc F20000DA 		ble	.L352
 4462              	.LBE1169:
 4463              	.LBB1170:
 4464              	.LBB1167:
 232:C:/Renesas/e2studio_2021_01_workspace_RZA2M_ANPR/ANPR_RZA2M_GR_MANGO/src/tensorflow_lite/tensorflow/lite/kernels/internal\types.h ****   }
 4465              		.loc 4 232 0
 4466 16c0 6F0F8DE2 		add	r0, sp, #444
 4467 16c4 38FFFFEA 		b	.L195
 4468              	.LVL429:
 4469              	.L382:
 4470              	.LBE1167:
 4471              	.LBE1170:
 4472              	.LBE1172:
 4473              	.LBE1229:
 4474              	.LBE1248:
 4475              	.LBE1273:
 4476              	.LBE1287:
 4477              	.LBE1530:
 4478              	.LBB1531:
 4479              	.LBB1532:
 203:C:/Renesas/e2studio_2021_01_workspace_RZA2M_ANPR/ANPR_RZA2M_GR_MANGO/src/tensorflow_lite/tensorflow/lite/kernels/internal\types.h **** #ifdef TF_LITE_STATIC_MEMORY
 4480              		.loc 4 203 0
 4481 16c8 8C319DE5 		ldr	r3, [sp, #396]
 4482 16cc 050053E3 		cmp	r3, #5
 4483 16d0 030000DA 		ble	.L313
 207:C:/Renesas/e2studio_2021_01_workspace_RZA2M_ANPR/ANPR_RZA2M_GR_MANGO/src/tensorflow_lite/tensorflow/lite/kernels/internal\types.h **** #endif  // TF_LITE_STATIC_MEMORY
 4484              		.loc 4 207 0
 4485 16d4 90019DE5 		ldr	r0, [sp, #400]
 4486 16d8 000050E3 		cmp	r0, #0
 4487 16dc 0000000A 		beq	.L313
 4488              	.LVL430:
 4489              	.L554:
 4490 16e0 FEFFFFEB 		bl	_ZdaPv
 4491              	.LVL431:
 4492              	.L313:
 4493              	.LBE1532:
 4494              	.LBE1531:
 4495              	.LBB1533:
 4496              	.LBB1534:
 203:C:/Renesas/e2studio_2021_01_workspace_RZA2M_ANPR/ANPR_RZA2M_GR_MANGO/src/tensorflow_lite/tensorflow/lite/kernels/internal\types.h **** #ifdef TF_LITE_STATIC_MEMORY
 4497              		.loc 4 203 0
 4498 16e4 74319DE5 		ldr	r3, [sp, #372]
 4499 16e8 050053E3 		cmp	r3, #5
 4500 16ec 030000DA 		ble	.L315
 207:C:/Renesas/e2studio_2021_01_workspace_RZA2M_ANPR/ANPR_RZA2M_GR_MANGO/src/tensorflow_lite/tensorflow/lite/kernels/internal\types.h **** #endif  // TF_LITE_STATIC_MEMORY
 4501              		.loc 4 207 0
 4502 16f0 78019DE5 		ldr	r0, [sp, #376]
 4503 16f4 000050E3 		cmp	r0, #0
 4504 16f8 0000000A 		beq	.L315
 4505 16fc FEFFFFEB 		bl	_ZdaPv
 4506              	.LVL432:
 4507              	.L315:
 4508              	.LBE1534:
 4509              	.LBE1533:
 4510              	.LBB1535:
 4511              	.LBB1536:
 203:C:/Renesas/e2studio_2021_01_workspace_RZA2M_ANPR/ANPR_RZA2M_GR_MANGO/src/tensorflow_lite/tensorflow/lite/kernels/internal\types.h **** #ifdef TF_LITE_STATIC_MEMORY
 4512              		.loc 4 203 0
 4513 1700 5C319DE5 		ldr	r3, [sp, #348]
 4514 1704 050053E3 		cmp	r3, #5
 4515 1708 030000DA 		ble	.L317
 207:C:/Renesas/e2studio_2021_01_workspace_RZA2M_ANPR/ANPR_RZA2M_GR_MANGO/src/tensorflow_lite/tensorflow/lite/kernels/internal\types.h **** #endif  // TF_LITE_STATIC_MEMORY
 4516              		.loc 4 207 0
 4517 170c 60019DE5 		ldr	r0, [sp, #352]
 4518 1710 000050E3 		cmp	r0, #0
 4519 1714 0000000A 		beq	.L317
 4520 1718 FEFFFFEB 		bl	_ZdaPv
 4521              	.LVL433:
 4522              	.L317:
 4523              	.LBE1536:
 4524              	.LBE1535:
 4525              	.LBB1537:
 4526              	.LBB1538:
 203:C:/Renesas/e2studio_2021_01_workspace_RZA2M_ANPR/ANPR_RZA2M_GR_MANGO/src/tensorflow_lite/tensorflow/lite/kernels/internal\types.h **** #ifdef TF_LITE_STATIC_MEMORY
 4527              		.loc 4 203 0
 4528 171c 44319DE5 		ldr	r3, [sp, #324]
 4529 1720 050053E3 		cmp	r3, #5
 4530 1724 030000DA 		ble	.L318
 207:C:/Renesas/e2studio_2021_01_workspace_RZA2M_ANPR/ANPR_RZA2M_GR_MANGO/src/tensorflow_lite/tensorflow/lite/kernels/internal\types.h **** #endif  // TF_LITE_STATIC_MEMORY
 4531              		.loc 4 207 0
 4532 1728 48019DE5 		ldr	r0, [sp, #328]
 4533 172c 000050E3 		cmp	r0, #0
 4534 1730 0000000A 		beq	.L318
 4535              	.LVL434:
 4536              	.L524:
 4537 1734 FEFFFFEB 		bl	_ZdaPv
 4538              	.LVL435:
 4539              	.L318:
 4540              	.LEHB26:
 4541 1738 FEFFFFEB 		bl	__cxa_end_cleanup
 4542              	.LVL436:
 4543              	.LEHE26:
 4544              	.L390:
 4545              	.LBE1538:
 4546              	.LBE1537:
 4547              	.LBB1539:
 4548              	.LBB1288:
 4549              	.LBB1274:
 4550              	.LBB1249:
 4551              	.LBB1250:
 203:C:/Renesas/e2studio_2021_01_workspace_RZA2M_ANPR/ANPR_RZA2M_GR_MANGO/src/tensorflow_lite/tensorflow/lite/kernels/internal\types.h **** #ifdef TF_LITE_STATIC_MEMORY
 4552              		.loc 4 203 0
 4553 173c 74319DE5 		ldr	r3, [sp, #372]
 4554 1740 050053E3 		cmp	r3, #5
 4555 1744 030000DA 		ble	.L304
 207:C:/Renesas/e2studio_2021_01_workspace_RZA2M_ANPR/ANPR_RZA2M_GR_MANGO/src/tensorflow_lite/tensorflow/lite/kernels/internal\types.h **** #endif  // TF_LITE_STATIC_MEMORY
 4556              		.loc 4 207 0
 4557 1748 78019DE5 		ldr	r0, [sp, #376]
 4558 174c 000050E3 		cmp	r0, #0
 4559 1750 0000000A 		beq	.L304
 4560 1754 FEFFFFEB 		bl	_ZdaPv
 4561              	.LVL437:
 4562              	.L304:
 4563              	.LBE1250:
 4564              	.LBE1249:
 4565              	.LBB1251:
 4566              	.LBB1252:
 203:C:/Renesas/e2studio_2021_01_workspace_RZA2M_ANPR/ANPR_RZA2M_GR_MANGO/src/tensorflow_lite/tensorflow/lite/kernels/internal\types.h **** #ifdef TF_LITE_STATIC_MEMORY
 4567              		.loc 4 203 0
 4568 1758 5C319DE5 		ldr	r3, [sp, #348]
 4569 175c 050053E3 		cmp	r3, #5
 4570 1760 030000DA 		ble	.L306
 207:C:/Renesas/e2studio_2021_01_workspace_RZA2M_ANPR/ANPR_RZA2M_GR_MANGO/src/tensorflow_lite/tensorflow/lite/kernels/internal\types.h **** #endif  // TF_LITE_STATIC_MEMORY
 4571              		.loc 4 207 0
 4572 1764 60019DE5 		ldr	r0, [sp, #352]
 4573 1768 000050E3 		cmp	r0, #0
 4574 176c 0000000A 		beq	.L306
 4575 1770 FEFFFFEB 		bl	_ZdaPv
 4576              	.LVL438:
 4577              	.L306:
 4578              	.LBE1252:
 4579              	.LBE1251:
 4580              	.LBB1253:
 4581              	.LBB1254:
 203:C:/Renesas/e2studio_2021_01_workspace_RZA2M_ANPR/ANPR_RZA2M_GR_MANGO/src/tensorflow_lite/tensorflow/lite/kernels/internal\types.h **** #ifdef TF_LITE_STATIC_MEMORY
 4582              		.loc 4 203 0
 4583 1774 44319DE5 		ldr	r3, [sp, #324]
 4584 1778 050053E3 		cmp	r3, #5
 4585 177c 030000DA 		ble	.L308
 207:C:/Renesas/e2studio_2021_01_workspace_RZA2M_ANPR/ANPR_RZA2M_GR_MANGO/src/tensorflow_lite/tensorflow/lite/kernels/internal\types.h **** #endif  // TF_LITE_STATIC_MEMORY
 4586              		.loc 4 207 0
 4587 1780 48019DE5 		ldr	r0, [sp, #328]
 4588 1784 000050E3 		cmp	r0, #0
 4589 1788 0000000A 		beq	.L308
 4590 178c FEFFFFEB 		bl	_ZdaPv
 4591              	.LVL439:
 4592              	.L308:
 4593              	.LBE1254:
 4594              	.LBE1253:
 4595              	.LBB1255:
 4596              	.LBB1256:
 203:C:/Renesas/e2studio_2021_01_workspace_RZA2M_ANPR/ANPR_RZA2M_GR_MANGO/src/tensorflow_lite/tensorflow/lite/kernels/internal\types.h **** #ifdef TF_LITE_STATIC_MEMORY
 4597              		.loc 4 203 0
 4598 1790 2C319DE5 		ldr	r3, [sp, #300]
 4599 1794 050053E3 		cmp	r3, #5
 4600 1798 E6FFFFDA 		ble	.L318
 207:C:/Renesas/e2studio_2021_01_workspace_RZA2M_ANPR/ANPR_RZA2M_GR_MANGO/src/tensorflow_lite/tensorflow/lite/kernels/internal\types.h **** #endif  // TF_LITE_STATIC_MEMORY
 4601              		.loc 4 207 0
 4602 179c 30019DE5 		ldr	r0, [sp, #304]
 4603 17a0 000050E3 		cmp	r0, #0
 4604 17a4 E2FFFF1A 		bne	.L524
 4605 17a8 E2FFFFEA 		b	.L318
 4606              	.LVL440:
 4607              	.L616:
 4608              	.LEHB27:
 4609              	.LBE1256:
 4610              	.LBE1255:
 4611              	.LBB1257:
 4612              	.LBB1230:
 4613              	.LBB1162:
  62:C:/Renesas/e2studio_2021_01_workspace_RZA2M_ANPR/ANPR_RZA2M_GR_MANGO/src/tensorflow_lite/tensorflow/lite/micro/kernels\kernel_util.h ****   return reinterpret_cast<const T*>(tensor->data.raw);
 4614              		.loc 5 62 0
 4615 17ac FEFFFFEB 		bl	abort
 4616              	.LVL441:
 4617              	.L615:
 4618              	.LBE1162:
 4619              	.LBE1230:
 4620              	.LBB1231:
 4621              	.LBB1159:
 4622              		.loc 4 472 0
 4623 17b0 FEFFFFEB 		bl	abort
 4624              	.LVL442:
 4625              	.L614:
 4626              	.LBB1157:
 4627              	.LBB1155:
 215:C:/Renesas/e2studio_2021_01_workspace_RZA2M_ANPR/ANPR_RZA2M_GR_MANGO/src/tensorflow_lite/tensorflow/lite/kernels/internal\types.h ****     return size_ > kMaxSmallSize ? dims_pointer_[i] : dims_[i];
 4628              		.loc 4 215 0
 4629 17b4 FEFFFFEB 		bl	abort
 4630              	.LVL443:
 4631              	.L613:
 4632              	.LBE1155:
 4633              	.LBE1157:
 4634              	.LBB1158:
 4635              	.LBB1151:
 4636 17b8 FEFFFFEB 		bl	abort
 4637              	.LVL444:
 4638              	.L612:
 4639              	.LBE1151:
 4640              	.LBE1158:
 4641              	.LBE1159:
 4642              	.LBE1231:
 4643              	.LBB1232:
 4644              	.LBB1146:
 4645              		.loc 4 472 0
 4646 17bc FEFFFFEB 		bl	abort
 4647              	.LVL445:
 4648              	.L611:
 4649              	.LBB1144:
 4650              	.LBB1142:
 215:C:/Renesas/e2studio_2021_01_workspace_RZA2M_ANPR/ANPR_RZA2M_GR_MANGO/src/tensorflow_lite/tensorflow/lite/kernels/internal\types.h ****     return size_ > kMaxSmallSize ? dims_pointer_[i] : dims_[i];
 4651              		.loc 4 215 0
 4652 17c0 FEFFFFEB 		bl	abort
 4653              	.LVL446:
 4654              	.L610:
 4655              	.LBE1142:
 4656              	.LBE1144:
 4657              	.LBB1145:
 4658              	.LBB1138:
 4659 17c4 FEFFFFEB 		bl	abort
 4660              	.LVL447:
 4661              	.L609:
 4662              	.LBE1138:
 4663              	.LBE1145:
 4664              	.LBE1146:
 4665              	.LBE1232:
 186:../src/tensorflow_lite/tensorflow/lite/micro/kernels/cmsis_nn/depthwise_conv.cc ****                      dw_conv_params.activation.max);
 4666              		.loc 1 186 0
 4667 17c8 FEFFFFEB 		bl	abort
 4668              	.LVL448:
 4669              	.LEHE27:
 4670              	.L385:
 4671 17cc C4FFFFEA 		b	.L313
 4672              	.LVL449:
 4673              	.L384:
 4674 17d0 CAFFFFEA 		b	.L315
 4675              	.LVL450:
 4676              	.L383:
 4677 17d4 D0FFFFEA 		b	.L317
 4678              	.LVL451:
 4679              	.L166:
 4680              	.LEHB28:
 4681              	.LBE1257:
 4682              	.LBE1274:
 4683              	.LBE1288:
 4684              	.LBE1539:
 4685              	.LBB1540:
 4686              	.LBB1502:
 4687              	.LBB1488:
 4688              	.LBB1478:
 4689              	.LBB1471:
 4690              	.LBB1463:
 4691              	.LBB1455:
 4692              	.LBB1447:
 4693              	.LBB1437:
 4694              	.LBB1428:
 409:C:/Renesas/e2studio_2021_01_workspace_RZA2M_ANPR/ANPR_RZA2M_GR_MANGO/src/tensorflow_lite/tensorflow/lite/kernels/internal\types.h ****   return ((i0 * dims_data[1] + i1) * dims_data[2] + i2) * dims_data[3] + i3;
 4695              		.loc 4 409 0
 4696 17d8 FEFFFFEB 		bl	abort
 4697              	.LVL452:
 4698              	.L608:
 408:C:/Renesas/e2studio_2021_01_workspace_RZA2M_ANPR/ANPR_RZA2M_GR_MANGO/src/tensorflow_lite/tensorflow/lite/kernels/internal\types.h ****   TFLITE_DCHECK(i3 >= 0 && i3 < dims_data[3]);
 4699              		.loc 4 408 0
 4700 17dc FEFFFFEB 		bl	abort
 4701              	.LVL453:
 4702              	.L607:
 407:C:/Renesas/e2studio_2021_01_workspace_RZA2M_ANPR/ANPR_RZA2M_GR_MANGO/src/tensorflow_lite/tensorflow/lite/kernels/internal\types.h ****   TFLITE_DCHECK(i2 >= 0 && i2 < dims_data[2]);
 4703              		.loc 4 407 0
 4704 17e0 FEFFFFEB 		bl	abort
 4705              	.LVL454:
 4706              	.L606:
 406:C:/Renesas/e2studio_2021_01_workspace_RZA2M_ANPR/ANPR_RZA2M_GR_MANGO/src/tensorflow_lite/tensorflow/lite/kernels/internal\types.h ****   TFLITE_DCHECK(i1 >= 0 && i1 < dims_data[1]);
 4707              		.loc 4 406 0
 4708 17e4 FEFFFFEB 		bl	abort
 4709              	.LVL455:
 4710              	.LEHE28:
 4711              	.L285:
 4712              	.LEHB29:
 4713              	.LBE1428:
 4714              	.LBE1437:
 4715              	.LBE1447:
 4716              	.LBE1455:
 4717              	.LBE1463:
 4718              	.LBE1471:
 4719              	.LBE1478:
 4720              	.LBE1488:
 4721              	.LBE1502:
 4722              	.LBE1540:
 4723              	.LBB1541:
 4724              	.LBB1289:
 4725              	.LBB1275:
 4726              	.LBB1258:
 4727              	.LBB1105:
 4728              	.LBB1094:
 4729              	.LBB1087:
 4730              	.LBB1082:
 4731              	.LBB1077:
 4732              	.LBB1072:
 4733              	.LBB1067:
 4734              	.LBB1060:
 4735              	.LBB1057:
 409:C:/Renesas/e2studio_2021_01_workspace_RZA2M_ANPR/ANPR_RZA2M_GR_MANGO/src/tensorflow_lite/tensorflow/lite/kernels/internal\types.h ****   return ((i0 * dims_data[1] + i1) * dims_data[2] + i2) * dims_data[3] + i3;
 4736              		.loc 4 409 0
 4737 17e8 FEFFFFEB 		bl	abort
 4738              	.LVL456:
 4739              	.L591:
 408:C:/Renesas/e2studio_2021_01_workspace_RZA2M_ANPR/ANPR_RZA2M_GR_MANGO/src/tensorflow_lite/tensorflow/lite/kernels/internal\types.h ****   TFLITE_DCHECK(i3 >= 0 && i3 < dims_data[3]);
 4740              		.loc 4 408 0
 4741 17ec FEFFFFEB 		bl	abort
 4742              	.LVL457:
 4743              	.L590:
 407:C:/Renesas/e2studio_2021_01_workspace_RZA2M_ANPR/ANPR_RZA2M_GR_MANGO/src/tensorflow_lite/tensorflow/lite/kernels/internal\types.h ****   TFLITE_DCHECK(i2 >= 0 && i2 < dims_data[2]);
 4744              		.loc 4 407 0
 4745 17f0 FEFFFFEB 		bl	abort
 4746              	.LVL458:
 4747              	.L589:
 406:C:/Renesas/e2studio_2021_01_workspace_RZA2M_ANPR/ANPR_RZA2M_GR_MANGO/src/tensorflow_lite/tensorflow/lite/kernels/internal\types.h ****   TFLITE_DCHECK(i1 >= 0 && i1 < dims_data[1]);
 4748              		.loc 4 406 0
 4749 17f4 FEFFFFEB 		bl	abort
 4750              	.LVL459:
 4751              	.L588:
 404:C:/Renesas/e2studio_2021_01_workspace_RZA2M_ANPR/ANPR_RZA2M_GR_MANGO/src/tensorflow_lite/tensorflow/lite/kernels/internal\types.h ****   const int* dims_data = reinterpret_cast<const int*>(shape.DimsDataUpTo5D());
 4752              		.loc 4 404 0
 4753 17f8 FEFFFFEB 		bl	abort
 4754              	.LVL460:
 4755              	.L587:
 4756              	.LBE1057:
 4757              	.LBE1060:
 4758              	.LBB1061:
 4759              	.LBB1006:
 4760              	.LBB1002:
 4761              	.LBB996:
 359:C:/Renesas/e2studio_2021_01_workspace_RZA2M_ANPR/ANPR_RZA2M_GR_MANGO/src/tensorflow_lite/third_party/gemmlowp/fixedpoint\fixedpoint.h ****   const IntegerType mask = Dup<IntegerType>((1ll << exponent) - 1);
 4762              		.loc 7 359 0
 4763 17fc 003000E3 		movw	r3, #:lower16:.LC15
 4764 1800 002000E3 		movw	r2, #:lower16:.LANCHOR0
 4765 1804 000000E3 		movw	r0, #:lower16:.LC16
 4766 1808 003040E3 		movt	r3, #:upper16:.LC15
 4767 180c 002040E3 		movt	r2, #:upper16:.LANCHOR0
 4768 1810 000040E3 		movt	r0, #:upper16:.LC16
 4769 1814 671100E3 		movw	r1, #359
 4770              	.LVL461:
 4771 1818 FEFFFFEB 		bl	__assert_func
 4772              	.LVL462:
 4773              	.L583:
 4774              	.LBE996:
 4775              	.LBE1002:
 4776              	.LBE1006:
 4777              	.LBE1061:
 4778              	.LBB1062:
 4779              	.LBB1050:
 4780              	.LBB1048:
 4781              	.LBB1045:
 4782              	.LBB1041:
 4783              	.LBB1028:
 406:C:/Renesas/e2studio_2021_01_workspace_RZA2M_ANPR/ANPR_RZA2M_GR_MANGO/src/tensorflow_lite/tensorflow/lite/kernels/internal\types.h ****   TFLITE_DCHECK(i1 >= 0 && i1 < dims_data[1]);
 4784              		.loc 4 406 0
 4785 181c FEFFFFEB 		bl	abort
 4786              	.LVL463:
 4787              	.L582:
 404:C:/Renesas/e2studio_2021_01_workspace_RZA2M_ANPR/ANPR_RZA2M_GR_MANGO/src/tensorflow_lite/tensorflow/lite/kernels/internal\types.h ****   const int* dims_data = reinterpret_cast<const int*>(shape.DimsDataUpTo5D());
 4788              		.loc 4 404 0
 4789 1820 FEFFFFEB 		bl	abort
 4790              	.LVL464:
 4791              	.L577:
 4792              	.LBE1028:
 4793              	.LBE1041:
 4794              	.LBB1042:
 4795              	.LBB1019:
 4796 1824 FEFFFFEB 		bl	abort
 4797              	.LVL465:
 4798              	.L246:
 4799              	.LBE1019:
 4800              	.LBE1042:
 4801              	.LBE1045:
 4802              	.LBE1048:
 4803              	.LBE1050:
 4804              	.LBE1062:
 4805              	.LBE1067:
 4806              	.LBE1072:
 4807              	.LBE1077:
 4808              	.LBE1082:
 4809              	.LBE1087:
 4810              	.LBE1094:
  59:C:/Renesas/e2studio_2021_01_workspace_RZA2M_ANPR/ANPR_RZA2M_GR_MANGO/src/tensorflow_lite/tensorflow/lite/kernels/internal/reference/integer_ops\depthwise_conv.h **** 
 4811              		.loc 6 59 0
 4812 1828 FEFFFFEB 		bl	abort
 4813              	.LVL466:
 4814              	.LEHE29:
 4815              	.L605:
 4816              	.LBE1105:
 4817              	.LBE1258:
 4818              	.LBE1275:
 4819              	.LBE1289:
 4820              	.LBE1541:
 4821              	.LBB1542:
 4822              	.LBB1503:
 4823              	.LBB1489:
 4824              	.LBB1479:
 4825              	.LBB1472:
 4826              	.LBB1464:
 4827              	.LBB1456:
 4828              	.LBB1448:
 4829              	.LBB1438:
 4830              	.LBB1419:
 4831              	.LBB1411:
 4832              	.LBB1403:
  72:C:/Renesas/e2studio_2021_01_workspace_RZA2M_ANPR/ANPR_RZA2M_GR_MANGO/src/tensorflow_lite/tensorflow/lite/kernels/internal/reference\depthwiseconv_float.h ****                     (in_y < input_height)) {
 4833              		.loc 10 72 0
 4834 182c 58309DE5 		ldr	r3, [sp, #88]
 4835 1830 0020A0E3 		mov	r2, #0
 4836              	.LVL467:
 4837              	.L155:
 4838 1834 000053E3 		cmp	r3, #0
 4839 1838 030059A1 		cmpge	r9, r3
 4840 183c 320000DA 		ble	.L154
 4841              	.LVL468:
 4842              	.L529:
 4843              	.LBB1399:
 4844              	.LBB1393:
 4845              	.LBB1387:
 406:C:/Renesas/e2studio_2021_01_workspace_RZA2M_ANPR/ANPR_RZA2M_GR_MANGO/src/tensorflow_lite/tensorflow/lite/kernels/internal\types.h ****   TFLITE_DCHECK(i1 >= 0 && i1 < dims_data[1]);
 4846              		.loc 4 406 0
 4847 1840 48309DE5 		ldr	r3, [sp, #72]
 4848 1844 34209DE5 		ldr	r2, [sp, #52]
 4849 1848 020053E1 		cmp	r3, r2
 4850 184c 98FFFFDA 		ble	.L136
 409:C:/Renesas/e2studio_2021_01_workspace_RZA2M_ANPR/ANPR_RZA2M_GR_MANGO/src/tensorflow_lite/tensorflow/lite/kernels/internal\types.h ****   return ((i0 * dims_data[1] + i1) * dims_data[2] + i2) * dims_data[3] + i3;
 4851              		.loc 4 409 0
 4852 1850 38309DE5 		ldr	r3, [sp, #56]
 4853 1854 3C209DE5 		ldr	r2, [sp, #60]
 4854 1858 020053E1 		cmp	r3, r2
 4855 185c 93FFFFDA 		ble	.L137
 4856              	.LVL469:
 4857              	.LBE1387:
 4858              	.LBE1393:
 4859              	.LBB1394:
 4860              	.LBB1382:
 406:C:/Renesas/e2studio_2021_01_workspace_RZA2M_ANPR/ANPR_RZA2M_GR_MANGO/src/tensorflow_lite/tensorflow/lite/kernels/internal\types.h ****   TFLITE_DCHECK(i1 >= 0 && i1 < dims_data[1]);
 4861              		.loc 4 406 0
 4862 1860 4C309DE5 		ldr	r3, [sp, #76]
 4863 1864 000053E3 		cmp	r3, #0
 4864 1868 8FFFFFDA 		ble	.L139
 4865              	.LEHB30:
 407:C:/Renesas/e2studio_2021_01_workspace_RZA2M_ANPR/ANPR_RZA2M_GR_MANGO/src/tensorflow_lite/tensorflow/lite/kernels/internal\types.h ****   TFLITE_DCHECK(i2 >= 0 && i2 < dims_data[2]);
 4866              		.loc 4 407 0
 4867 186c FEFFFFEB 		bl	abort
 4868              	.LVL470:
 4869              	.L604:
 4870 1870 0E0058E1 		cmp	r8, lr
 4871              	.LBE1382:
 4872              	.LBE1394:
 4873              	.LBE1399:
  72:C:/Renesas/e2studio_2021_01_workspace_RZA2M_ANPR/ANPR_RZA2M_GR_MANGO/src/tensorflow_lite/tensorflow/lite/kernels/internal/reference\depthwiseconv_float.h ****                     (in_y < input_height)) {
 4874              		.loc 10 72 0
 4875 1874 58309DC5 		ldrgt	r3, [sp, #88]
 4876 1878 0020A0C3 		movgt	r2, #0
 4877 187c 470000DA 		ble	.L624
 4878              	.LVL471:
 4879              	.L149:
 4880 1880 000053E3 		cmp	r3, #0
 4881 1884 030059A1 		cmpge	r9, r3
 4882 1888 3F0000DA 		ble	.L152
 4883              	.LVL472:
 4884              	.L537:
 4885              	.LBB1400:
 4886              	.LBB1395:
 4887              	.LBB1388:
 406:C:/Renesas/e2studio_2021_01_workspace_RZA2M_ANPR/ANPR_RZA2M_GR_MANGO/src/tensorflow_lite/tensorflow/lite/kernels/internal\types.h ****   TFLITE_DCHECK(i1 >= 0 && i1 < dims_data[1]);
 4888              		.loc 4 406 0
 4889 188c 48309DE5 		ldr	r3, [sp, #72]
 4890 1890 34109DE5 		ldr	r1, [sp, #52]
 4891 1894 010053E1 		cmp	r3, r1
 4892 1898 85FFFFDA 		ble	.L136
 409:C:/Renesas/e2studio_2021_01_workspace_RZA2M_ANPR/ANPR_RZA2M_GR_MANGO/src/tensorflow_lite/tensorflow/lite/kernels/internal\types.h ****   return ((i0 * dims_data[1] + i1) * dims_data[2] + i2) * dims_data[3] + i3;
 4893              		.loc 4 409 0
 4894 189c 38309DE5 		ldr	r3, [sp, #56]
 4895 18a0 3C109DE5 		ldr	r1, [sp, #60]
 4896 18a4 010053E1 		cmp	r3, r1
 4897 18a8 80FFFFDA 		ble	.L137
 4898              	.LVL473:
 4899              	.LBE1388:
 4900              	.LBE1395:
 4901              	.LBB1396:
 4902              	.LBB1383:
 406:C:/Renesas/e2studio_2021_01_workspace_RZA2M_ANPR/ANPR_RZA2M_GR_MANGO/src/tensorflow_lite/tensorflow/lite/kernels/internal\types.h ****   TFLITE_DCHECK(i1 >= 0 && i1 < dims_data[1]);
 4903              		.loc 4 406 0
 4904 18ac 4C309DE5 		ldr	r3, [sp, #76]
 4905 18b0 000053E3 		cmp	r3, #0
 4906 18b4 7CFFFFDA 		ble	.L139
 408:C:/Renesas/e2studio_2021_01_workspace_RZA2M_ANPR/ANPR_RZA2M_GR_MANGO/src/tensorflow_lite/tensorflow/lite/kernels/internal\types.h ****   TFLITE_DCHECK(i3 >= 0 && i3 < dims_data[3]);
 4907              		.loc 4 408 0
 4908 18b8 020057E1 		cmp	r7, r2
 4909 18bc 79FFFFDA 		ble	.L143
 409:C:/Renesas/e2studio_2021_01_workspace_RZA2M_ANPR/ANPR_RZA2M_GR_MANGO/src/tensorflow_lite/tensorflow/lite/kernels/internal\types.h ****   return ((i0 * dims_data[1] + i1) * dims_data[2] + i2) * dims_data[3] + i3;
 4910              		.loc 4 409 0
 4911 18c0 FEFFFFEB 		bl	abort
 4912              	.LVL474:
 4913              	.LEHE30:
 4914              	.L569:
 4915              	.LEHB31:
 4916              	.LBE1383:
 4917              	.LBE1396:
 4918              	.LBE1400:
 4919              	.LBE1403:
 4920              	.LBE1411:
 4921              	.LBE1419:
 4922              	.LBE1438:
 4923              	.LBE1448:
 4924              	.LBE1456:
 4925              	.LBE1464:
 4926              	.LBE1472:
 4927              	.LBE1479:
 4928              	.LBE1489:
 4929              	.LBE1503:
 4930              	.LBE1542:
 4931              	.LBB1543:
 4932              	.LBB1290:
 4933              	.LBB1276:
 4934              	.LBB1259:
 4935              	.LBB1106:
  45:C:/Renesas/e2studio_2021_01_workspace_RZA2M_ANPR/ANPR_RZA2M_GR_MANGO/src/tensorflow_lite/tensorflow/lite/kernels/internal/reference/integer_ops\depthwise_conv.h ****   TFLITE_DCHECK_EQ(output_shape.DimensionsCount(), 4);
 4936              		.loc 6 45 0
 4937 18c4 FEFFFFEB 		bl	abort
 4938              	.LVL475:
 4939              	.L570:
  46:C:/Renesas/e2studio_2021_01_workspace_RZA2M_ANPR/ANPR_RZA2M_GR_MANGO/src/tensorflow_lite/tensorflow/lite/kernels/internal/reference/integer_ops\depthwise_conv.h **** 
 4940              		.loc 6 46 0
 4941 18c8 FEFFFFEB 		bl	abort
 4942              	.LVL476:
 4943              	.LEHE31:
 4944              	.L115:
 4945              	.LEHB32:
 4946              	.LBE1106:
 4947              	.LBE1259:
 4948              	.LBE1276:
 4949              	.LBE1290:
 4950              	.LBE1543:
 4951              	.LBB1544:
 4952              	.LBB1504:
  54:C:/Renesas/e2studio_2021_01_workspace_RZA2M_ANPR/ANPR_RZA2M_GR_MANGO/src/tensorflow_lite/tensorflow/lite/kernels/internal/reference\depthwiseconv_float.h **** 
 4953              		.loc 10 54 0
 4954 18cc FEFFFFEB 		bl	abort
 4955              	.LVL477:
 4956              	.LEHE32:
 4957              	.L568:
 4958              	.LEHB33:
 4959              	.LBE1504:
 4960              	.LBE1544:
 4961              	.LBB1545:
 4962              	.LBB1291:
 4963              	.LBB1277:
 4964              	.LBB1260:
 4965              	.LBB1107:
  44:C:/Renesas/e2studio_2021_01_workspace_RZA2M_ANPR/ANPR_RZA2M_GR_MANGO/src/tensorflow_lite/tensorflow/lite/kernels/internal/reference/integer_ops\depthwise_conv.h ****   TFLITE_DCHECK_EQ(filter_shape.DimensionsCount(), 4);
 4966              		.loc 6 44 0
 4967 18d0 FEFFFFEB 		bl	abort
 4968              	.LVL478:
 4969              	.L603:
 4970 18d4 000052E3 		cmp	r2, #0
 4971 18d8 1E0000BA 		blt	.L625
 4972 18dc 0E0058E1 		cmp	r8, lr
 4973              	.LBE1107:
 4974              	.LBE1260:
 4975              	.LBE1277:
 4976              	.LBE1291:
 4977              	.LBE1545:
 4978              	.LBB1546:
 4979              	.LBB1505:
 4980              	.LBB1490:
 4981              	.LBB1480:
 4982              	.LBB1473:
 4983              	.LBB1465:
 4984              	.LBB1457:
 4985              	.LBB1449:
 4986              	.LBB1439:
 4987              	.LBB1420:
 4988              	.LBB1412:
 4989              	.LBB1404:
  72:C:/Renesas/e2studio_2021_01_workspace_RZA2M_ANPR/ANPR_RZA2M_GR_MANGO/src/tensorflow_lite/tensorflow/lite/kernels/internal/reference\depthwiseconv_float.h ****                     (in_y < input_height)) {
 4990              		.loc 10 72 0
 4991 18e0 58309DC5 		ldrgt	r3, [sp, #88]
 4992 18e4 0020A0C3 		movgt	r2, #0
 4993 18e8 0C0000DA 		ble	.L626
 4994              	.LVL479:
 4995              	.L144:
 4996 18ec 000053E3 		cmp	r3, #0
 4997 18f0 030059A1 		cmpge	r9, r3
 4998 18f4 E4FFFFCA 		bgt	.L537
 4999              	.LBE1404:
 5000              	.LBE1412:
  66:C:/Renesas/e2studio_2021_01_workspace_RZA2M_ANPR/ANPR_RZA2M_GR_MANGO/src/tensorflow_lite/tensorflow/lite/kernels/internal/reference\depthwiseconv_float.h ****                 const int in_x = in_x_origin + dilation_width_factor * filter_x;
 5001              		.loc 10 66 0
 5002 18f8 012082E2 		add	r2, r2, #1
 5003              	.LVL480:
 5004 18fc 0B3083E0 		add	r3, r3, fp
 5005              	.LVL481:
 5006 1900 020057E1 		cmp	r7, r2
 5007 1904 F8FFFF1A 		bne	.L144
 5008 1908 5AFDFFEA 		b	.L130
 5009              	.LVL482:
 5010              	.L154:
 5011 190c 012082E2 		add	r2, r2, #1
 5012              	.LVL483:
 5013 1910 0B3083E0 		add	r3, r3, fp
 5014              	.LVL484:
 5015 1914 070052E1 		cmp	r2, r7
 5016 1918 C5FFFF1A 		bne	.L155
 5017 191c 55FDFFEA 		b	.L130
 5018              	.LVL485:
 5019              	.L626:
 5020              	.LBB1413:
 5021              	.LBB1405:
  72:C:/Renesas/e2studio_2021_01_workspace_RZA2M_ANPR/ANPR_RZA2M_GR_MANGO/src/tensorflow_lite/tensorflow/lite/kernels/internal/reference\depthwiseconv_float.h ****                     (in_y < input_height)) {
 5022              		.loc 10 72 0
 5023 1920 58109DE5 		ldr	r1, [sp, #88]
 5024 1924 0020A0E3 		mov	r2, #0
 5025              	.LVL486:
 5026              	.L146:
 5027 1928 090051E1 		cmp	r1, r9
 5028 192c 0130A0B3 		movlt	r3, #1
 5029 1930 0030A0A3 		movge	r3, #0
 5030 1934 000051E3 		cmp	r1, #0
 5031 1938 0030A0B3 		movlt	r3, #0
 5032 193c 000053E3 		cmp	r3, #0
 5033 1940 BEFFFF1A 		bne	.L529
 5034              	.LVL487:
 5035              	.LBE1405:
 5036              	.LBE1413:
  66:C:/Renesas/e2studio_2021_01_workspace_RZA2M_ANPR/ANPR_RZA2M_GR_MANGO/src/tensorflow_lite/tensorflow/lite/kernels/internal/reference\depthwiseconv_float.h ****                 const int in_x = in_x_origin + dilation_width_factor * filter_x;
 5037              		.loc 10 66 0
 5038 1944 012082E2 		add	r2, r2, #1
 5039              	.LVL488:
 5040 1948 0B1081E0 		add	r1, r1, fp
 5041              	.LVL489:
 5042 194c 020057E1 		cmp	r7, r2
 5043 1950 F4FFFF1A 		bne	.L146
 5044 1954 47FDFFEA 		b	.L130
 5045              	.LVL490:
 5046              	.L625:
 5047 1958 0E0058E1 		cmp	r8, lr
 5048              	.LBB1414:
 5049              	.LBB1406:
  72:C:/Renesas/e2studio_2021_01_workspace_RZA2M_ANPR/ANPR_RZA2M_GR_MANGO/src/tensorflow_lite/tensorflow/lite/kernels/internal/reference\depthwiseconv_float.h ****                     (in_y < input_height)) {
 5050              		.loc 10 72 0
 5051 195c 58309DE5 		ldr	r3, [sp, #88]
 5052 1960 0020A0E3 		mov	r2, #0
 5053 1964 1B0000DA 		ble	.L140
 5054              	.LVL491:
 5055              	.L134:
 5056 1968 000053E3 		cmp	r3, #0
 5057 196c 030059A1 		cmpge	r9, r3
 5058 1970 C5FFFFCA 		bgt	.L537
 5059              	.LBE1406:
 5060              	.LBE1414:
  66:C:/Renesas/e2studio_2021_01_workspace_RZA2M_ANPR/ANPR_RZA2M_GR_MANGO/src/tensorflow_lite/tensorflow/lite/kernels/internal/reference\depthwiseconv_float.h ****                 const int in_x = in_x_origin + dilation_width_factor * filter_x;
 5061              		.loc 10 66 0
 5062 1974 012082E2 		add	r2, r2, #1
 5063              	.LVL492:
 5064 1978 0B3083E0 		add	r3, r3, fp
 5065              	.LVL493:
 5066 197c 020057E1 		cmp	r7, r2
 5067 1980 F8FFFF1A 		bne	.L134
 5068 1984 3BFDFFEA 		b	.L130
 5069              	.LVL494:
 5070              	.L571:
 5071              	.LBE1420:
 5072              	.LBE1439:
 5073              	.LBE1449:
 5074              	.LBE1457:
 5075              	.LBE1465:
 5076              	.LBE1473:
 5077              	.LBE1480:
 5078              	.LBE1490:
 5079              	.LBE1505:
 5080              	.LBE1546:
 5081              	.LBB1547:
 5082              	.LBB1292:
 5083              	.LBB1278:
 5084              	.LBB1261:
 5085              	.LBB1108:
  48:C:/Renesas/e2studio_2021_01_workspace_RZA2M_ANPR/ANPR_RZA2M_GR_MANGO/src/tensorflow_lite/tensorflow/lite/kernels/internal/reference/integer_ops\depthwise_conv.h ****   const int batches = MatchingDim(input_shape, 0, output_shape, 0);
 5086              		.loc 6 48 0
 5087 1988 FEFFFFEB 		bl	abort
 5088              	.LVL495:
 5089              	.LEHE33:
 5090              	.L152:
 5091              	.LBE1108:
 5092              	.LBE1261:
 5093              	.LBE1278:
 5094              	.LBE1292:
 5095              	.LBE1547:
 5096              	.LBB1548:
 5097              	.LBB1506:
 5098              	.LBB1491:
 5099              	.LBB1481:
 5100              	.LBB1474:
 5101              	.LBB1466:
 5102              	.LBB1458:
 5103              	.LBB1450:
 5104              	.LBB1440:
 5105              	.LBB1421:
  66:C:/Renesas/e2studio_2021_01_workspace_RZA2M_ANPR/ANPR_RZA2M_GR_MANGO/src/tensorflow_lite/tensorflow/lite/kernels/internal/reference\depthwiseconv_float.h ****                 const int in_x = in_x_origin + dilation_width_factor * filter_x;
 5106              		.loc 10 66 0
 5107 198c 012082E2 		add	r2, r2, #1
 5108              	.LVL496:
 5109 1990 0B3083E0 		add	r3, r3, fp
 5110              	.LVL497:
 5111 1994 020057E1 		cmp	r7, r2
 5112 1998 B8FFFF1A 		bne	.L149
 5113 199c 35FDFFEA 		b	.L130
 5114              	.LVL498:
 5115              	.L624:
 5116              	.LBB1415:
 5117              	.LBB1407:
  72:C:/Renesas/e2studio_2021_01_workspace_RZA2M_ANPR/ANPR_RZA2M_GR_MANGO/src/tensorflow_lite/tensorflow/lite/kernels/internal/reference\depthwiseconv_float.h ****                     (in_y < input_height)) {
 5118              		.loc 10 72 0
 5119 19a0 58109DE5 		ldr	r1, [sp, #88]
 5120 19a4 0020A0E3 		mov	r2, #0
 5121              	.LVL499:
 5122              	.L151:
 5123 19a8 0130E0E1 		mvn	r3, r1
 5124 19ac 090051E1 		cmp	r1, r9
 5125 19b0 A33FA0E1 		lsr	r3, r3, #31
 5126 19b4 0030A0A3 		movge	r3, #0
 5127 19b8 000053E3 		cmp	r3, #0
 5128 19bc 9FFFFF1A 		bne	.L529
 5129              	.LVL500:
 5130              	.LBE1407:
 5131              	.LBE1415:
  66:C:/Renesas/e2studio_2021_01_workspace_RZA2M_ANPR/ANPR_RZA2M_GR_MANGO/src/tensorflow_lite/tensorflow/lite/kernels/internal/reference\depthwiseconv_float.h ****                 const int in_x = in_x_origin + dilation_width_factor * filter_x;
 5132              		.loc 10 66 0
 5133 19c0 012082E2 		add	r2, r2, #1
 5134              	.LVL501:
 5135 19c4 0B1081E0 		add	r1, r1, fp
 5136              	.LVL502:
 5137 19c8 070052E1 		cmp	r2, r7
 5138 19cc F5FFFF1A 		bne	.L151
 5139 19d0 28FDFFEA 		b	.L130
 5140              	.LVL503:
 5141              	.L593:
 5142              	.LEHB34:
 5143              	.LBE1421:
 5144              	.LBE1440:
 5145              	.LBE1450:
 5146              	.LBE1458:
 5147              	.LBE1466:
 5148              	.LBE1474:
 5149              	.LBE1481:
 5150              	.LBE1491:
 5151              	.LBE1506:
 5152              	.LBE1548:
 5153              	.LBB1549:
 5154              	.LBB1307:
  62:C:/Renesas/e2studio_2021_01_workspace_RZA2M_ANPR/ANPR_RZA2M_GR_MANGO/src/tensorflow_lite/tensorflow/lite/micro/kernels\kernel_util.h ****   return reinterpret_cast<const T*>(tensor->data.raw);
 5155              		.loc 5 62 0
 5156 19d4 FEFFFFEB 		bl	abort
 5157              	.LVL504:
 5158              	.LEHE34:
 5159              	.L140:
 5160              	.LBE1307:
 5161              	.LBE1549:
 5162              	.LBB1550:
 5163              	.LBB1507:
 5164              	.LBB1492:
 5165              	.LBB1482:
 5166              	.LBB1475:
 5167              	.LBB1467:
 5168              	.LBB1459:
 5169              	.LBB1451:
 5170              	.LBB1441:
 5171              	.LBB1422:
 5172              	.LBB1416:
 5173              	.LBB1408:
  72:C:/Renesas/e2studio_2021_01_workspace_RZA2M_ANPR/ANPR_RZA2M_GR_MANGO/src/tensorflow_lite/tensorflow/lite/kernels/internal/reference\depthwiseconv_float.h ****                     (in_y < input_height)) {
 5174              		.loc 10 72 0
 5175 19d8 000053E3 		cmp	r3, #0
 5176 19dc 030059A1 		cmpge	r9, r3
 5177 19e0 96FFFFCA 		bgt	.L529
 5178              	.LVL505:
 5179              	.LBE1408:
 5180              	.LBE1416:
  66:C:/Renesas/e2studio_2021_01_workspace_RZA2M_ANPR/ANPR_RZA2M_GR_MANGO/src/tensorflow_lite/tensorflow/lite/kernels/internal/reference\depthwiseconv_float.h ****                 const int in_x = in_x_origin + dilation_width_factor * filter_x;
 5181              		.loc 10 66 0
 5182 19e4 012082E2 		add	r2, r2, #1
 5183              	.LVL506:
 5184 19e8 0B3083E0 		add	r3, r3, fp
 5185              	.LVL507:
 5186 19ec 070052E1 		cmp	r2, r7
 5187 19f0 F8FFFF1A 		bne	.L140
 5188 19f4 1FFDFFEA 		b	.L130
 5189              	.LVL508:
 5190              	.L381:
 5191 19f8 39FFFFEA 		b	.L313
 5192              	.LVL509:
 5193              	.L594:
 5194              	.LEHB35:
 5195              	.LBE1422:
 5196              	.LBE1441:
 5197              	.LBE1451:
 5198              	.LBE1459:
 5199              	.LBE1467:
 5200              	.LBE1475:
 5201              	.LBE1482:
 5202              	.LBE1492:
  40:C:/Renesas/e2studio_2021_01_workspace_RZA2M_ANPR/ANPR_RZA2M_GR_MANGO/src/tensorflow_lite/tensorflow/lite/kernels/internal/reference\depthwiseconv_float.h ****   TFLITE_DCHECK_EQ(filter_shape.DimensionsCount(), 4);
 5203              		.loc 10 40 0
 5204 19fc FEFFFFEB 		bl	abort
 5205              	.LVL510:
 5206              	.L595:
  41:C:/Renesas/e2studio_2021_01_workspace_RZA2M_ANPR/ANPR_RZA2M_GR_MANGO/src/tensorflow_lite/tensorflow/lite/kernels/internal/reference\depthwiseconv_float.h ****   TFLITE_DCHECK_EQ(output_shape.DimensionsCount(), 4);
 5207              		.loc 10 41 0
 5208 1a00 FEFFFFEB 		bl	abort
 5209              	.LVL511:
 5210              	.LEHE35:
 5211              	.L566:
 5212              	.LEHB36:
 5213              	.LBE1507:
 5214              	.LBE1550:
 5215              	.LBB1551:
 5216              	.LBB1293:
 5217              	.LBB1279:
 5218              	.LBB1262:
 5219              	.LBB913:
  62:C:/Renesas/e2studio_2021_01_workspace_RZA2M_ANPR/ANPR_RZA2M_GR_MANGO/src/tensorflow_lite/tensorflow/lite/micro/kernels\kernel_util.h ****   return reinterpret_cast<const T*>(tensor->data.raw);
 5220              		.loc 5 62 0
 5221 1a04 FEFFFFEB 		bl	abort
 5222              	.LVL512:
 5223              	.LEHE36:
 5224              	.L388:
 5225 1a08 59FFFFEA 		b	.L306
 5226              	.LVL513:
 5227              	.L567:
 5228              	.LEHB37:
 5229              	.LBE913:
 5230              	.LBE1262:
 5231              	.LBB1263:
 5232              	.LBB918:
 5233 1a0c FEFFFFEB 		bl	abort
 5234              	.LVL514:
 5235              	.LEHE37:
 5236              	.L389:
 5237 1a10 50FFFFEA 		b	.L304
 5238              	.LVL515:
 5239              	.L592:
 5240              	.LEHB38:
 5241              	.LBE918:
 5242              	.LBE1263:
 5243              	.LBE1279:
 5244              	.LBE1293:
 5245              	.LBE1551:
 5246              	.LBB1552:
 5247              	.LBB1302:
 5248 1a14 FEFFFFEB 		bl	abort
 5249              	.LVL516:
 5250              	.LEHE38:
 5251              	.L380:
 5252 1a18 38FFFFEA 		b	.L315
 5253              	.LVL517:
 5254              	.L387:
 5255 1a1c 5BFFFFEA 		b	.L308
 5256              	.LVL518:
 5257              	.L91:
 5258              	.LEHB39:
 5259              	.LBE1302:
 5260              	.LBE1552:
 254:../src/tensorflow_lite/tensorflow/lite/micro/kernels/cmsis_nn/depthwise_conv.cc ****   TFLITE_DCHECK(node->builtin_data != nullptr);
 5261              		.loc 1 254 0 discriminator 1
 5262 1a20 FEFFFFEB 		bl	abort
 5263              	.LVL519:
 5264              	.LEHE39:
 5265              	.L596:
 5266              	.LEHB40:
 5267              	.LBB1553:
 5268              	.LBB1508:
  42:C:/Renesas/e2studio_2021_01_workspace_RZA2M_ANPR/ANPR_RZA2M_GR_MANGO/src/tensorflow_lite/tensorflow/lite/kernels/internal/reference\depthwiseconv_float.h **** 
 5269              		.loc 10 42 0
 5270 1a24 FEFFFFEB 		bl	abort
 5271              	.LVL520:
 5272              	.L597:
 5273              	.LBB1493:
 5274              	.LBB1326:
 5275              		.loc 4 472 0
 5276 1a28 FEFFFFEB 		bl	abort
 5277              	.LVL521:
 5278              	.L598:
 5279              	.LBE1326:
 5280              	.LBE1493:
 5281              	.LBB1494:
 5282              	.LBB1331:
 5283 1a2c FEFFFFEB 		bl	abort
 5284              	.LVL522:
 5285              	.L599:
 5286              	.LBE1331:
 5287              	.LBE1494:
  53:C:/Renesas/e2studio_2021_01_workspace_RZA2M_ANPR/ANPR_RZA2M_GR_MANGO/src/tensorflow_lite/tensorflow/lite/kernels/internal/reference\depthwiseconv_float.h ****   TFLITE_DCHECK_EQ(bias_shape.FlatSize(), output_depth);
 5288              		.loc 10 53 0
 5289 1a30 FEFFFFEB 		bl	abort
 5290              	.LVL523:
 5291              	.LEHE40:
 5292              	.L572:
 5293              	.LEHB41:
 5294              	.LBE1508:
 5295              	.LBE1553:
 5296              	.LBB1554:
 5297              	.LBB1294:
 5298              	.LBB1280:
 5299              	.LBB1264:
 5300              	.LBB1109:
 5301              	.LBB1095:
 5302              	.LBB931:
 5303              		.loc 4 472 0
 5304 1a34 FEFFFFEB 		bl	abort
 5305              	.LVL524:
 5306              	.L573:
 5307              	.LBE931:
 5308              	.LBE1095:
 5309              	.LBB1096:
 5310              	.LBB936:
 5311 1a38 FEFFFFEB 		bl	abort
 5312              	.LVL525:
 5313              	.L574:
 5314              	.LBE936:
 5315              	.LBE1096:
  58:C:/Renesas/e2studio_2021_01_workspace_RZA2M_ANPR/ANPR_RZA2M_GR_MANGO/src/tensorflow_lite/tensorflow/lite/kernels/internal/reference/integer_ops\depthwise_conv.h ****   TFLITE_DCHECK_EQ(bias_shape.FlatSize(), output_depth);
 5316              		.loc 6 58 0
 5317 1a3c FEFFFFEB 		bl	abort
 5318              	.LVL526:
 5319              	.LEHE41:
 5320              	.L379:
 5321 1a40 35FFFFEA 		b	.L317
 5322              	.LVL527:
 5323              	.L623:
 5324              	.LEHB42:
 5325              	.LBE1109:
 5326              	.LBE1264:
 5327              	.LBB1265:
 229:../src/tensorflow_lite/tensorflow/lite/micro/kernels/cmsis_nn/depthwise_conv.cc ****         arm_depthwise_conv_wrapper_s8(
 5328              		.loc 1 229 0
 5329 1a44 FEFFFFEB 		bl	abort
 5330              	.LVL528:
 5331              	.L622:
 5332              	.LBB1233:
 5333              	.LBB1215:
  62:C:/Renesas/e2studio_2021_01_workspace_RZA2M_ANPR/ANPR_RZA2M_GR_MANGO/src/tensorflow_lite/tensorflow/lite/micro/kernels\kernel_util.h ****   return reinterpret_cast<const T*>(tensor->data.raw);
 5334              		.loc 5 62 0
 5335 1a48 FEFFFFEB 		bl	abort
 5336              	.LVL529:
 5337              	.L618:
 5338              	.LBE1215:
 5339              	.LBE1233:
 193:../src/tensorflow_lite/tensorflow/lite/micro/kernels/cmsis_nn/depthwise_conv.cc ****     }
 5340              		.loc 1 193 0
 5341 1a4c FEFFFFEB 		bl	abort
 5342              	.LVL530:
 5343              	.L386:
 5344              	.LBB1234:
 5345              	.LBB1235:
 203:C:/Renesas/e2studio_2021_01_workspace_RZA2M_ANPR/ANPR_RZA2M_GR_MANGO/src/tensorflow_lite/tensorflow/lite/kernels/internal\types.h **** #ifdef TF_LITE_STATIC_MEMORY
 5346              		.loc 4 203 0
 5347 1a50 B8319DE5 		ldr	r3, [sp, #440]
 5348 1a54 050053E3 		cmp	r3, #5
 5349 1a58 21FFFFDA 		ble	.L313
 207:C:/Renesas/e2studio_2021_01_workspace_RZA2M_ANPR/ANPR_RZA2M_GR_MANGO/src/tensorflow_lite/tensorflow/lite/kernels/internal\types.h **** #endif  // TF_LITE_STATIC_MEMORY
 5350              		.loc 4 207 0
 5351 1a5c BC019DE5 		ldr	r0, [sp, #444]
 5352 1a60 000050E3 		cmp	r0, #0
 5353 1a64 1DFFFF1A 		bne	.L554
 5354 1a68 1DFFFFEA 		b	.L313
 5355              	.LVL531:
 5356              	.L329:
 5357              	.LBE1235:
 5358              	.LBE1234:
 5359              	.LBB1236:
 5360              	.LBB1188:
 215:C:/Renesas/e2studio_2021_01_workspace_RZA2M_ANPR/ANPR_RZA2M_GR_MANGO/src/tensorflow_lite/tensorflow/lite/kernels/internal\types.h ****     return size_ > kMaxSmallSize ? dims_pointer_[i] : dims_[i];
 5361              		.loc 4 215 0
 5362 1a6c FEFFFFEB 		bl	abort
 5363              	.LVL532:
 5364              	.L621:
 5365              	.LBE1188:
 5366              	.LBE1236:
 5367              	.LBB1237:
 5368              	.LBB1183:
 5369 1a70 FEFFFFEB 		bl	abort
 5370              	.LVL533:
 5371              	.L620:
 5372              	.LBE1183:
 5373              	.LBE1237:
 5374              	.LBB1238:
 5375              	.LBB1177:
 216:C:/Renesas/e2studio_2021_01_workspace_RZA2M_ANPR/ANPR_RZA2M_GR_MANGO/src/tensorflow_lite/tensorflow/lite/kernels/internal\types.h ****   }
 5376              		.loc 4 216 0
 5377 1a74 60319DE5 		ldr	r3, [sp, #352]
 5378              	.LBE1177:
 5379              	.LBE1238:
 5380              	.LBB1239:
 5381              	.LBB1189:
 5382 1a78 0E0093E9 		ldmib	r3, {r1, r2, r3}
 5383              	.LBE1189:
 5384              	.LBE1239:
 198:../src/tensorflow_lite/tensorflow/lite/micro/kernels/cmsis_nn/depthwise_conv.cc ****     input_dims.w = input_shape.Dims(2);
 5385              		.loc 1 198 0
 5386 1a7c 00118DE5 		str	r1, [sp, #256]
 5387              	.LVL534:
 199:../src/tensorflow_lite/tensorflow/lite/micro/kernels/cmsis_nn/depthwise_conv.cc ****     input_dims.c = input_shape.Dims(3);
 5388              		.loc 1 199 0
 5389 1a80 04218DE5 		str	r2, [sp, #260]
 5390              	.LVL535:
 5391 1a84 AEFEFFEA 		b	.L209
 5392              	.LVL536:
 5393              	.L619:
 5394              	.LBB1240:
 5395              	.LBB1178:
 215:C:/Renesas/e2studio_2021_01_workspace_RZA2M_ANPR/ANPR_RZA2M_GR_MANGO/src/tensorflow_lite/tensorflow/lite/kernels/internal\types.h ****     return size_ > kMaxSmallSize ? dims_pointer_[i] : dims_[i];
 5396              		.loc 4 215 0
 5397 1a88 FEFFFFEB 		bl	abort
 5398              	.LVL537:
 5399              	.LEHE42:
 5400              	.L352:
 5401              	.LBE1178:
 5402              	.LBE1240:
 5403              	.LBB1241:
 5404              	.LBB1173:
 290:C:/Renesas/e2studio_2021_01_workspace_RZA2M_ANPR/ANPR_RZA2M_GR_MANGO/src/tensorflow_lite/tensorflow/lite/kernels/internal\types.h ****     const int* dims_data = reinterpret_cast<const int*>(DimsData());
 5405              		.loc 4 290 0
 5406 1a8c 0120A0E3 		mov	r2, #1
 5407 1a90 99FEFFEA 		b	.L196
 5408              	.LVL538:
 5409              	.L361:
 5410              	.LBB1171:
 292:C:/Renesas/e2studio_2021_01_workspace_RZA2M_ANPR/ANPR_RZA2M_GR_MANGO/src/tensorflow_lite/tensorflow/lite/kernels/internal\types.h ****       buffer_size *= dims_data[i];
 5411              		.loc 4 292 0
 5412 1a94 0310A0E1 		mov	r1, r3
 5413 1a98 68FEFFEA 		b	.L199
 5414              	.LVL539:
 5415              	.L617:
 5416 1a9c 000053E3 		cmp	r3, #0
 5417 1aa0 0120A003 		moveq	r2, #1
 5418 1aa4 0310A001 		moveq	r1, r3
 5419 1aa8 66FEFF0A 		beq	.L198
 5420 1aac 45FEFFEA 		b	.L197
 5421              	.LBE1171:
 5422              	.LBE1173:
 5423              	.LBE1241:
 5424              	.LBE1265:
 5425              	.LBE1280:
 5426              	.LBE1294:
 5427              	.LBE1554:
 5428              		.cfi_endproc
 5429              	.LFE4272:
 5430              		.personality	__gxx_personality_v0
 5431              		.handlerdata
 5432              	.LLSDA4272:
 5433 0008 FF       		.byte	0xff
 5434 0009 FF       		.byte	0xff
 5435 000a 01       		.byte	0x1
 5436 000b BD01     		.uleb128 .LLSDACSE4272-.LLSDACSB4272
 5437              	.LLSDACSB4272:
 5438 000d 4C       		.uleb128 .LEHB11-.LFB4272
 5439 000e C801     		.uleb128 .LEHE11-.LEHB11
 5440 0010 00       		.uleb128 0
 5441 0011 00       		.uleb128 0
 5442 0012 A402     		.uleb128 .LEHB12-.LFB4272
 5443 0014 04       		.uleb128 .LEHE12-.LEHB12
 5444 0015 9C34     		.uleb128 .L387-.LFB4272
 5445 0017 00       		.uleb128 0
 5446 0018 C002     		.uleb128 .LEHB13-.LFB4272
 5447 001a 04       		.uleb128 .LEHE13-.LEHB13
 5448 001b 8834     		.uleb128 .L388-.LFB4272
 5449 001d 00       		.uleb128 0
 5450 001e DC02     		.uleb128 .LEHB14-.LFB4272
 5451 0020 04       		.uleb128 .LEHE14-.LEHB14
 5452 0021 9034     		.uleb128 .L389-.LFB4272
 5453 0023 00       		.uleb128 0
 5454 0024 D012     		.uleb128 .LEHB15-.LFB4272
 5455 0026 44       		.uleb128 .LEHE15-.LEHB15
 5456 0027 00       		.uleb128 0
 5457 0028 00       		.uleb128 0
 5458 0029 A413     		.uleb128 .LEHB16-.LFB4272
 5459 002b 04       		.uleb128 .LEHE16-.LEHB16
 5460 002c C034     		.uleb128 .L379-.LFB4272
 5461 002e 00       		.uleb128 0
 5462 002f C013     		.uleb128 .LEHB17-.LFB4272
 5463 0031 04       		.uleb128 .LEHE17-.LEHB17
 5464 0032 9834     		.uleb128 .L380-.LFB4272
 5465 0034 00       		.uleb128 0
 5466 0035 DC13     		.uleb128 .LEHB18-.LFB4272
 5467 0037 04       		.uleb128 .LEHE18-.LEHB18
 5468 0038 F833     		.uleb128 .L381-.LFB4272
 5469 003a 00       		.uleb128 0
 5470 003b 9424     		.uleb128 .LEHB19-.LFB4272
 5471 003d B001     		.uleb128 .LEHE19-.LEHB19
 5472 003f 00       		.uleb128 0
 5473 0040 00       		.uleb128 0
 5474 0041 CC25     		.uleb128 .LEHB20-.LFB4272
 5475 0043 04       		.uleb128 .LEHE20-.LEHB20
 5476 0044 D42F     		.uleb128 .L383-.LFB4272
 5477 0046 00       		.uleb128 0
 5478 0047 D825     		.uleb128 .LEHB21-.LFB4272
 5479 0049 04       		.uleb128 .LEHE21-.LEHB21
 5480 004a D02F     		.uleb128 .L384-.LFB4272
 5481 004c 00       		.uleb128 0
 5482 004d E425     		.uleb128 .LEHB22-.LFB4272
 5483 004f 04       		.uleb128 .LEHE22-.LEHB22
 5484 0050 CC2F     		.uleb128 .L385-.LFB4272
 5485 0052 00       		.uleb128 0
 5486 0053 EC2B     		.uleb128 .LEHB23-.LFB4272
 5487 0055 60       		.uleb128 .LEHE23-.LEHB23
 5488 0056 D034     		.uleb128 .L386-.LFB4272
 5489 0058 00       		.uleb128 0
 5490 0059 8C2D     		.uleb128 .LEHB24-.LFB4272
 5491 005b 1C       		.uleb128 .LEHE24-.LEHB24
 5492 005c BC2E     		.uleb128 .L390-.LFB4272
 5493 005e 00       		.uleb128 0
 5494 005f A82D     		.uleb128 .LEHB25-.LFB4272
 5495 0061 10       		.uleb128 .LEHE25-.LEHB25
 5496 0062 C82D     		.uleb128 .L382-.LFB4272
 5497 0064 00       		.uleb128 0
 5498 0065 B82E     		.uleb128 .LEHB26-.LFB4272
 5499 0067 04       		.uleb128 .LEHE26-.LEHB26
 5500 0068 00       		.uleb128 0
 5501 0069 00       		.uleb128 0
 5502 006a AC2F     		.uleb128 .LEHB27-.LFB4272
 5503 006c 20       		.uleb128 .LEHE27-.LEHB27
 5504 006d D034     		.uleb128 .L386-.LFB4272
 5505 006f 00       		.uleb128 0
 5506 0070 D82F     		.uleb128 .LEHB28-.LFB4272
 5507 0072 10       		.uleb128 .LEHE28-.LEHB28
 5508 0073 C82D     		.uleb128 .L382-.LFB4272
 5509 0075 00       		.uleb128 0
 5510 0076 E82F     		.uleb128 .LEHB29-.LFB4272
 5511 0078 44       		.uleb128 .LEHE29-.LEHB29
 5512 0079 BC2E     		.uleb128 .L390-.LFB4272
 5513 007b 00       		.uleb128 0
 5514 007c EC30     		.uleb128 .LEHB30-.LFB4272
 5515 007e 58       		.uleb128 .LEHE30-.LEHB30
 5516 007f C82D     		.uleb128 .L382-.LFB4272
 5517 0081 00       		.uleb128 0
 5518 0082 C431     		.uleb128 .LEHB31-.LFB4272
 5519 0084 08       		.uleb128 .LEHE31-.LEHB31
 5520 0085 BC2E     		.uleb128 .L390-.LFB4272
 5521 0087 00       		.uleb128 0
 5522 0088 CC31     		.uleb128 .LEHB32-.LFB4272
 5523 008a 04       		.uleb128 .LEHE32-.LEHB32
 5524 008b C82D     		.uleb128 .L382-.LFB4272
 5525 008d 00       		.uleb128 0
 5526 008e D031     		.uleb128 .LEHB33-.LFB4272
 5527 0090 BC01     		.uleb128 .LEHE33-.LEHB33
 5528 0092 BC2E     		.uleb128 .L390-.LFB4272
 5529 0094 00       		.uleb128 0
 5530 0095 D433     		.uleb128 .LEHB34-.LFB4272
 5531 0097 04       		.uleb128 .LEHE34-.LEHB34
 5532 0098 F833     		.uleb128 .L381-.LFB4272
 5533 009a 00       		.uleb128 0
 5534 009b FC33     		.uleb128 .LEHB35-.LFB4272
 5535 009d 08       		.uleb128 .LEHE35-.LEHB35
 5536 009e C82D     		.uleb128 .L382-.LFB4272
 5537 00a0 00       		.uleb128 0
 5538 00a1 8434     		.uleb128 .LEHB36-.LFB4272
 5539 00a3 04       		.uleb128 .LEHE36-.LEHB36
 5540 00a4 8834     		.uleb128 .L388-.LFB4272
 5541 00a6 00       		.uleb128 0
 5542 00a7 8C34     		.uleb128 .LEHB37-.LFB4272
 5543 00a9 04       		.uleb128 .LEHE37-.LEHB37
 5544 00aa 9034     		.uleb128 .L389-.LFB4272
 5545 00ac 00       		.uleb128 0
 5546 00ad 9434     		.uleb128 .LEHB38-.LFB4272
 5547 00af 04       		.uleb128 .LEHE38-.LEHB38
 5548 00b0 9834     		.uleb128 .L380-.LFB4272
 5549 00b2 00       		.uleb128 0
 5550 00b3 A034     		.uleb128 .LEHB39-.LFB4272
 5551 00b5 04       		.uleb128 .LEHE39-.LEHB39
 5552 00b6 00       		.uleb128 0
 5553 00b7 00       		.uleb128 0
 5554 00b8 A434     		.uleb128 .LEHB40-.LFB4272
 5555 00ba 10       		.uleb128 .LEHE40-.LEHB40
 5556 00bb C82D     		.uleb128 .L382-.LFB4272
 5557 00bd 00       		.uleb128 0
 5558 00be B434     		.uleb128 .LEHB41-.LFB4272
 5559 00c0 0C       		.uleb128 .LEHE41-.LEHB41
 5560 00c1 BC2E     		.uleb128 .L390-.LFB4272
 5561 00c3 00       		.uleb128 0
 5562 00c4 C434     		.uleb128 .LEHB42-.LFB4272
 5563 00c6 48       		.uleb128 .LEHE42-.LEHB42
 5564 00c7 D034     		.uleb128 .L386-.LFB4272
 5565 00c9 00       		.uleb128 0
 5566              	.LLSDACSE4272:
 5567              		.section	.text._ZN6tflite12_GLOBAL__N_14EvalEP13TfLiteContextP10TfLiteNode
 5568              		.fnend
 5570              		.section	.text._ZN6tflite26Register_DEPTHWISE_CONV_2DEv,"ax",%progbits
 5571              		.align	2
 5572              		.global	_ZN6tflite26Register_DEPTHWISE_CONV_2DEv
 5573              		.syntax unified
 5574              		.arm
 5575              		.fpu neon
 5577              	_ZN6tflite26Register_DEPTHWISE_CONV_2DEv:
 5578              		.fnstart
 5579              	.LFB4273:
 297:../src/tensorflow_lite/tensorflow/lite/micro/kernels/cmsis_nn/depthwise_conv.cc **** 
 298:../src/tensorflow_lite/tensorflow/lite/micro/kernels/cmsis_nn/depthwise_conv.cc **** }  // namespace
 299:../src/tensorflow_lite/tensorflow/lite/micro/kernels/cmsis_nn/depthwise_conv.cc **** 
 300:../src/tensorflow_lite/tensorflow/lite/micro/kernels/cmsis_nn/depthwise_conv.cc **** TfLiteRegistration Register_DEPTHWISE_CONV_2D() {
 5580              		.loc 1 300 0
 5581              		.cfi_startproc
 5582              		@ args = 0, pretend = 0, frame = 0
 5583              		@ frame_needed = 0, uses_anonymous_args = 0
 5584              	.LVL540:
 301:../src/tensorflow_lite/tensorflow/lite/micro/kernels/cmsis_nn/depthwise_conv.cc ****   return {/*init=*/Init,
 302:../src/tensorflow_lite/tensorflow/lite/micro/kernels/cmsis_nn/depthwise_conv.cc ****           /*free=*/nullptr,
 303:../src/tensorflow_lite/tensorflow/lite/micro/kernels/cmsis_nn/depthwise_conv.cc ****           /*prepare=*/Prepare,
 304:../src/tensorflow_lite/tensorflow/lite/micro/kernels/cmsis_nn/depthwise_conv.cc ****           /*invoke=*/Eval,
 305:../src/tensorflow_lite/tensorflow/lite/micro/kernels/cmsis_nn/depthwise_conv.cc ****           /*profiling_string=*/nullptr,
 306:../src/tensorflow_lite/tensorflow/lite/micro/kernels/cmsis_nn/depthwise_conv.cc ****           /*builtin_code=*/0,
 307:../src/tensorflow_lite/tensorflow/lite/micro/kernels/cmsis_nn/depthwise_conv.cc ****           /*custom_name=*/nullptr,
 308:../src/tensorflow_lite/tensorflow/lite/micro/kernels/cmsis_nn/depthwise_conv.cc ****           /*version=*/0};
 5585              		.loc 1 308 0
 5586 0000 00C000E3 		movw	ip, #:lower16:.LANCHOR1
 300:../src/tensorflow_lite/tensorflow/lite/micro/kernels/cmsis_nn/depthwise_conv.cc ****   return {/*init=*/Init,
 5587              		.loc 1 300 0
 5588 0004 10402DE9 		push	{r4, lr}
 5589              		.cfi_def_cfa_offset 8
 5590              		.cfi_offset 4, -8
 5591              		.cfi_offset 14, -4
 5592              		.loc 1 308 0
 5593 0008 00C040E3 		movt	ip, #:upper16:.LANCHOR1
 300:../src/tensorflow_lite/tensorflow/lite/micro/kernels/cmsis_nn/depthwise_conv.cc ****   return {/*init=*/Init,
 5594              		.loc 1 300 0
 5595 000c 0040A0E1 		mov	r4, r0
 5596              		.loc 1 308 0
 5597 0010 00E0A0E1 		mov	lr, r0
 5598 0014 0F00BCE8 		ldmia	ip!, {r0, r1, r2, r3}
 5599              	.LVL541:
 5600 0018 0F00AEE8 		stmia	lr!, {r0, r1, r2, r3}
 5601 001c 0F009CE8 		ldm	ip, {r0, r1, r2, r3}
 5602 0020 0F008EE8 		stm	lr, {r0, r1, r2, r3}
 309:../src/tensorflow_lite/tensorflow/lite/micro/kernels/cmsis_nn/depthwise_conv.cc **** }
 5603              		.loc 1 309 0
 5604 0024 0400A0E1 		mov	r0, r4
 5605 0028 1080BDE8 		pop	{r4, pc}
 5606              		.cfi_endproc
 5607              	.LFE4273:
 5608              		.cantunwind
 5609              		.fnend
 5611              		.section	.rodata
 5612              		.align	2
 5613              		.set	.LANCHOR1,. + 0
 5614              	.LC0:
 5615 0000 00000000 		.word	_ZN6tflite12_GLOBAL__N_14InitEP13TfLiteContextPKcj
 5616 0004 00000000 		.word	0
 5617 0008 00000000 		.word	_ZN6tflite12_GLOBAL__N_17PrepareEP13TfLiteContextP10TfLiteNode
 5618 000c 00000000 		.word	_ZN6tflite12_GLOBAL__N_14EvalEP13TfLiteContextP10TfLiteNode
 5619 0010 00000000 		.word	0
 5620 0014 00000000 		.word	0
 5621 0018 00000000 		.word	0
 5622 001c 00000000 		.word	0
 5623              		.section	.rodata._ZN6tflite12_GLOBAL__N_14EvalEP13TfLiteContextP10TfLiteNode.str1.4,"aMS",%progbit
 5624              		.align	2
 5625              	.LC15:
 5626 0000 6578706F 		.ascii	"exponent <= 31\000"
 5626      6E656E74 
 5626      203C3D20 
 5626      333100
 5627 000f 00       		.space	1
 5628              	.LC16:
 5629 0010 433A2F52 		.ascii	"C:/Renesas/e2studio_2021_01_workspace_RZA2M_ANPR/AN"
 5629      656E6573 
 5629      61732F65 
 5629      32737475 
 5629      64696F5F 
 5630 0043 50525F52 		.ascii	"PR_RZA2M_GR_MANGO/src/tensorflow_lite/third_party/g"
 5630      5A41324D 
 5630      5F47525F 
 5630      4D414E47 
 5630      4F2F7372 
 5631 0076 656D6D6C 		.ascii	"emmlowp/fixedpoint/fixedpoint.h\000"
 5631      6F77702F 
 5631      66697865 
 5631      64706F69 
 5631      6E742F66 
 5632 0096 0000     		.space	2
 5633              	.LC17:
 5634 0098 54797065 		.ascii	"Type %s (%d) not supported.\000"
 5634      20257320 
 5634      28256429 
 5634      206E6F74 
 5634      20737570 
 5635              		.section	.rodata._ZN6tflite12_GLOBAL__N_17PrepareEP13TfLiteContextP10TfLiteNode.str1.4,"aMS",%prog
 5636              		.align	2
 5637              	.LC1:
 5638 0000 2E2E2F73 		.ascii	"../src/tensorflow_lite/tensorflow/lite/micro/kernel"
 5638      72632F74 
 5638      656E736F 
 5638      72666C6F 
 5638      775F6C69 
 5639 0033 732F636D 		.ascii	"s/cmsis_nn/depthwise_conv.cc\000"
 5639      7369735F 
 5639      6E6E2F64 
 5639      65707468 
 5639      77697365 
 5640              	.LC2:
 5641 0050 25733A25 		.ascii	"%s:%d %s was not true.\000"
 5641      64202573 
 5641      20776173 
 5641      206E6F74 
 5641      20747275 
 5642 0067 00       		.space	1
 5643              	.LC3:
 5644 0068 696E7075 		.ascii	"input != nullptr\000"
 5644      7420213D 
 5644      206E756C 
 5644      6C707472 
 5644      00
 5645 0079 000000   		.space	3
 5646              	.LC4:
 5647 007c 66696C74 		.ascii	"filter != nullptr\000"
 5647      65722021 
 5647      3D206E75 
 5647      6C6C7074 
 5647      7200
 5648 008e 0000     		.space	2
 5649              	.LC5:
 5650 0090 6F757470 		.ascii	"output != nullptr\000"
 5650      75742021 
 5650      3D206E75 
 5650      6C6C7074 
 5650      7200
 5651 00a2 0000     		.space	2
 5652              	.LC6:
 5653 00a4 25733A25 		.ascii	"%s:%d %s != %s (%d != %d)\000"
 5653      64202573 
 5653      20213D20 
 5653      25732028 
 5653      25642021 
 5654 00be 0000     		.space	2
 5655              	.LC7:
 5656 00c0 6B54664C 		.ascii	"kTfLiteAffineQuantization\000"
 5656      69746541 
 5656      6666696E 
 5656      65517561 
 5656      6E74697A 
 5657 00da 0000     		.space	2
 5658              	.LC8:
 5659 00dc 66696C74 		.ascii	"filter->quantization.type\000"
 5659      65722D3E 
 5659      7175616E 
 5659      74697A61 
 5659      74696F6E 
 5660 00f6 0000     		.space	2
 5661              	.LC9:
 5662 00f8 61666669 		.ascii	"affine_quantization\000"
 5662      6E655F71 
 5662      75616E74 
 5662      697A6174 
 5662      696F6E00 
 5663              	.LC10:
 5664 010c 61666669 		.ascii	"affine_quantization->scale\000"
 5664      6E655F71 
 5664      75616E74 
 5664      697A6174 
 5664      696F6E2D 
 5665 0127 00       		.space	1
 5666              	.LC11:
 5667 0128 61666669 		.ascii	"affine_quantization->zero_point\000"
 5667      6E655F71 
 5667      75616E74 
 5667      697A6174 
 5667      696F6E2D 
 5668              	.LC12:
 5669 0148 61666669 		.ascii	"affine_quantization->scale->size == 1 || affine_qua"
 5669      6E655F71 
 5669      75616E74 
 5669      697A6174 
 5669      696F6E2D 
 5670 017b 6E74697A 		.ascii	"ntization->scale->size == filter->dims->data[kDepth"
 5670      6174696F 
 5670      6E2D3E73 
 5670      63616C65 
 5670      2D3E7369 
 5671 01ae 77697365 		.ascii	"wiseConvQuantizedDimension]\000"
 5671      436F6E76 
 5671      5175616E 
 5671      74697A65 
 5671      6444696D 
 5672 01ca 0000     		.space	2
 5673              	.LC13:
 5674 01cc 61666669 		.ascii	"affine_quantization->zero_point->size\000"
 5674      6E655F71 
 5674      75616E74 
 5674      697A6174 
 5674      696F6E2D 
 5675 01f2 0000     		.space	2
 5676              	.LC14:
 5677 01f4 61666669 		.ascii	"affine_quantization->scale->size\000"
 5677      6E655F71 
 5677      75616E74 
 5677      697A6174 
 5677      696F6E2D 
 5678              		.section	.rodata._ZZN8gemmlowp19RoundingDivideByPOTIlEET_S1_iE19__PRETTY_FUNCTION__,"a",%progbits
 5679              		.align	3
 5680              		.set	.LANCHOR0,. + 0
 5683              	_ZZN8gemmlowp19RoundingDivideByPOTIlEET_S1_iE19__PRETTY_FUNCTION__:
 5684 0000 496E7465 		.ascii	"IntegerType gemmlowp::RoundingDivideByPOT(IntegerTy"
 5684      67657254 
 5684      79706520 
 5684      67656D6D 
 5684      6C6F7770 
 5685 0033 70652C20 		.ascii	"pe, int) [with IntegerType = long int]\000"
 5685      696E7429 
 5685      205B7769 
 5685      74682049 
 5685      6E746567 
 5686              		.text
 5687              	.Letext0:
 5688              		.file 11 "c:\\program files (x86)\\gnu tools arm embedded\\6 2017-q2-update\\arm-none-eabi\\includ
 5689              		.file 12 "c:\\program files (x86)\\gnu tools arm embedded\\6 2017-q2-update\\arm-none-eabi\\includ
 5690              		.file 13 "c:\\program files (x86)\\gnu tools arm embedded\\6 2017-q2-update\\arm-none-eabi\\includ
 5691              		.file 14 "c:\\program files (x86)\\gnu tools arm embedded\\6 2017-q2-update\\arm-none-eabi\\includ
 5692              		.file 15 "c:\\program files (x86)\\gnu tools arm embedded\\6 2017-q2-update\\arm-none-eabi\\includ
 5693              		.file 16 "c:\\program files (x86)\\gnu tools arm embedded\\6 2017-q2-update\\arm-none-eabi\\includ
 5694              		.file 17 "c:\\program files (x86)\\gnu tools arm embedded\\6 2017-q2-update\\arm-none-eabi\\includ
 5695              		.file 18 "c:\\program files (x86)\\gnu tools arm embedded\\6 2017-q2-update\\arm-none-eabi\\includ
 5696              		.file 19 "c:\\program files (x86)\\gnu tools arm embedded\\6 2017-q2-update\\arm-none-eabi\\includ
 5697              		.file 20 "c:\\program files (x86)\\gnu tools arm embedded\\6 2017-q2-update\\arm-none-eabi\\includ
 5698              		.file 21 "c:\\program files (x86)\\gnu tools arm embedded\\6 2017-q2-update\\arm-none-eabi\\includ
 5699              		.file 22 "c:\\program files (x86)\\gnu tools arm embedded\\6 2017-q2-update\\arm-none-eabi\\includ
 5700              		.file 23 "c:\\program files (x86)\\gnu tools arm embedded\\6 2017-q2-update\\arm-none-eabi\\includ
 5701              		.file 24 "c:\\program files (x86)\\gnu tools arm embedded\\6 2017-q2-update\\arm-none-eabi\\includ
 5702              		.file 25 "c:\\program files (x86)\\gnu tools arm embedded\\6 2017-q2-update\\arm-none-eabi\\includ
 5703              		.file 26 "c:\\program files (x86)\\gnu tools arm embedded\\6 2017-q2-update\\arm-none-eabi\\includ
 5704              		.file 27 "c:\\program files (x86)\\gnu tools arm embedded\\6 2017-q2-update\\arm-none-eabi\\includ
 5705              		.file 28 "c:\\program files (x86)\\gnu tools arm embedded\\6 2017-q2-update\\arm-none-eabi\\includ
 5706              		.file 29 "c:\\program files (x86)\\gnu tools arm embedded\\6 2017-q2-update\\arm-none-eabi\\includ
 5707              		.file 30 "c:\\program files (x86)\\gnu tools arm embedded\\6 2017-q2-update\\arm-none-eabi\\includ
 5708              		.file 31 "c:\\program files (x86)\\gnu tools arm embedded\\6 2017-q2-update\\arm-none-eabi\\includ
 5709              		.file 32 "c:\\program files (x86)\\gnu tools arm embedded\\6 2017-q2-update\\arm-none-eabi\\includ
 5710              		.file 33 "c:\\program files (x86)\\gnu tools arm embedded\\6 2017-q2-update\\arm-none-eabi\\includ
 5711              		.file 34 "c:\\program files (x86)\\gnu tools arm embedded\\6 2017-q2-update\\arm-none-eabi\\includ
 5712              		.file 35 "c:\\program files (x86)\\gnu tools arm embedded\\6 2017-q2-update\\arm-none-eabi\\includ
 5713              		.file 36 "c:\\program files (x86)\\gnu tools arm embedded\\6 2017-q2-update\\lib\\gcc\\arm-none-ea
 5714              		.file 37 "C:/Renesas/e2studio_2021_01_workspace_RZA2M_ANPR/ANPR_RZA2M_GR_MANGO/src/tensorflow_lite
 5715              		.file 38 "C:/Renesas/e2studio_2021_01_workspace_RZA2M_ANPR/ANPR_RZA2M_GR_MANGO/src/tensorflow_lite
 5716              		.file 39 "C:/Renesas/e2studio_2021_01_workspace_RZA2M_ANPR/ANPR_RZA2M_GR_MANGO/src/tensorflow_lite
 5717              		.file 40 "c:\\program files (x86)\\gnu tools arm embedded\\6 2017-q2-update\\arm-none-eabi\\includ
 5718              		.file 41 "c:\\program files (x86)\\gnu tools arm embedded\\6 2017-q2-update\\arm-none-eabi\\includ
 5719              		.file 42 "c:\\program files (x86)\\gnu tools arm embedded\\6 2017-q2-update\\arm-none-eabi\\includ
 5720              		.file 43 "c:\\program files (x86)\\gnu tools arm embedded\\6 2017-q2-update\\arm-none-eabi\\includ
 5721              		.file 44 "c:\\program files (x86)\\gnu tools arm embedded\\6 2017-q2-update\\arm-none-eabi\\includ
 5722              		.file 45 "c:\\program files (x86)\\gnu tools arm embedded\\6 2017-q2-update\\lib\\gcc\\arm-none-ea
 5723              		.file 46 "<built-in>"
 5724              		.file 47 "c:\\program files (x86)\\gnu tools arm embedded\\6 2017-q2-update\\arm-none-eabi\\includ
 5725              		.file 48 "C:/Renesas/e2studio_2021_01_workspace_RZA2M_ANPR/ANPR_RZA2M_GR_MANGO/src/tensorflow_lite
 5726              		.file 49 "C:/Renesas/e2studio_2021_01_workspace_RZA2M_ANPR/ANPR_RZA2M_GR_MANGO/src/tensorflow_lite
 5727              		.file 50 "C:/Renesas/e2studio_2021_01_workspace_RZA2M_ANPR/ANPR_RZA2M_GR_MANGO/src/tensorflow_lite
 5728              		.file 51 "c:\\program files (x86)\\gnu tools arm embedded\\6 2017-q2-update\\arm-none-eabi\\includ
 5729              		.file 52 "c:\\program files (x86)\\gnu tools arm embedded\\6 2017-q2-update\\arm-none-eabi\\includ
 5730              		.file 53 "C:/Renesas/e2studio_2021_01_workspace_RZA2M_ANPR/ANPR_RZA2M_GR_MANGO/src/tensorflow_lite
 5731              		.file 54 "C:/Renesas/e2studio_2021_01_workspace_RZA2M_ANPR/ANPR_RZA2M_GR_MANGO/src/tensorflow_lite
 5732              		.file 55 "c:\\program files (x86)\\gnu tools arm embedded\\6 2017-q2-update\\arm-none-eabi\\includ
 5733              		.file 56 "c:\\program files (x86)\\gnu tools arm embedded\\6 2017-q2-update\\arm-none-eabi\\includ
 5734              		.file 57 "c:\\program files (x86)\\gnu tools arm embedded\\6 2017-q2-update\\arm-none-eabi\\includ
 5735              		.file 58 "c:\\program files (x86)\\gnu tools arm embedded\\6 2017-q2-update\\arm-none-eabi\\includ
 5736              		.file 59 "c:\\program files (x86)\\gnu tools arm embedded\\6 2017-q2-update\\arm-none-eabi\\includ
 5737              		.file 60 "C:/Renesas/e2studio_2021_01_workspace_RZA2M_ANPR/ANPR_RZA2M_GR_MANGO/src/tensorflow_lite
DEFINED SYMBOLS
                            *ABS*:00000000 depthwise_conv.cc
C:\Users\a5050395\AppData\Local\Temp\cc2DcFXc.s:17     .text._ZN6tflite12_GLOBAL__N_14InitEP13TfLiteContextPKcj:00000000 $a
C:\Users\a5050395\AppData\Local\Temp\cc2DcFXc.s:22     .text._ZN6tflite12_GLOBAL__N_14InitEP13TfLiteContextPKcj:00000000 _ZN6tflite12_GLOBAL__N_14InitEP13TfLiteContextPKcj
.ARM.exidx.text._ZN6tflite12_GLOBAL__N_14InitEP13TfLiteContextPKcj:00000000 $d
C:\Users\a5050395\AppData\Local\Temp\cc2DcFXc.s:55     .text._ZN6tflite12_GLOBAL__N_17PrepareEP13TfLiteContextP10TfLiteNode:00000000 $a
C:\Users\a5050395\AppData\Local\Temp\cc2DcFXc.s:60     .text._ZN6tflite12_GLOBAL__N_17PrepareEP13TfLiteContextP10TfLiteNode:00000000 _ZN6tflite12_GLOBAL__N_17PrepareEP13TfLiteContextP10TfLiteNode
C:\Users\a5050395\AppData\Local\Temp\cc2DcFXc.s:5673   .rodata._ZN6tflite12_GLOBAL__N_17PrepareEP13TfLiteContextP10TfLiteNode.str1.4:000001cc .LC13
C:\Users\a5050395\AppData\Local\Temp\cc2DcFXc.s:5676   .rodata._ZN6tflite12_GLOBAL__N_17PrepareEP13TfLiteContextP10TfLiteNode.str1.4:000001f4 .LC14
C:\Users\a5050395\AppData\Local\Temp\cc2DcFXc.s:5637   .rodata._ZN6tflite12_GLOBAL__N_17PrepareEP13TfLiteContextP10TfLiteNode.str1.4:00000000 .LC1
C:\Users\a5050395\AppData\Local\Temp\cc2DcFXc.s:5652   .rodata._ZN6tflite12_GLOBAL__N_17PrepareEP13TfLiteContextP10TfLiteNode.str1.4:000000a4 .LC6
C:\Users\a5050395\AppData\Local\Temp\cc2DcFXc.s:5655   .rodata._ZN6tflite12_GLOBAL__N_17PrepareEP13TfLiteContextP10TfLiteNode.str1.4:000000c0 .LC7
C:\Users\a5050395\AppData\Local\Temp\cc2DcFXc.s:5658   .rodata._ZN6tflite12_GLOBAL__N_17PrepareEP13TfLiteContextP10TfLiteNode.str1.4:000000dc .LC8
C:\Users\a5050395\AppData\Local\Temp\cc2DcFXc.s:5643   .rodata._ZN6tflite12_GLOBAL__N_17PrepareEP13TfLiteContextP10TfLiteNode.str1.4:00000068 .LC3
C:\Users\a5050395\AppData\Local\Temp\cc2DcFXc.s:5640   .rodata._ZN6tflite12_GLOBAL__N_17PrepareEP13TfLiteContextP10TfLiteNode.str1.4:00000050 .LC2
C:\Users\a5050395\AppData\Local\Temp\cc2DcFXc.s:5646   .rodata._ZN6tflite12_GLOBAL__N_17PrepareEP13TfLiteContextP10TfLiteNode.str1.4:0000007c .LC4
C:\Users\a5050395\AppData\Local\Temp\cc2DcFXc.s:5668   .rodata._ZN6tflite12_GLOBAL__N_17PrepareEP13TfLiteContextP10TfLiteNode.str1.4:00000148 .LC12
C:\Users\a5050395\AppData\Local\Temp\cc2DcFXc.s:5666   .rodata._ZN6tflite12_GLOBAL__N_17PrepareEP13TfLiteContextP10TfLiteNode.str1.4:00000128 .LC11
C:\Users\a5050395\AppData\Local\Temp\cc2DcFXc.s:5649   .rodata._ZN6tflite12_GLOBAL__N_17PrepareEP13TfLiteContextP10TfLiteNode.str1.4:00000090 .LC5
C:\Users\a5050395\AppData\Local\Temp\cc2DcFXc.s:5661   .rodata._ZN6tflite12_GLOBAL__N_17PrepareEP13TfLiteContextP10TfLiteNode.str1.4:000000f8 .LC9
C:\Users\a5050395\AppData\Local\Temp\cc2DcFXc.s:5663   .rodata._ZN6tflite12_GLOBAL__N_17PrepareEP13TfLiteContextP10TfLiteNode.str1.4:0000010c .LC10
.ARM.extab.text._ZN6tflite12_GLOBAL__N_17PrepareEP13TfLiteContextP10TfLiteNode:00000000 $d
.ARM.exidx.text._ZN6tflite12_GLOBAL__N_17PrepareEP13TfLiteContextP10TfLiteNode:00000000 $d
C:\Users\a5050395\AppData\Local\Temp\cc2DcFXc.s:1124   .text._ZN6tflite12_GLOBAL__N_14EvalEP13TfLiteContextP10TfLiteNode:00000000 $a
C:\Users\a5050395\AppData\Local\Temp\cc2DcFXc.s:1129   .text._ZN6tflite12_GLOBAL__N_14EvalEP13TfLiteContextP10TfLiteNode:00000000 _ZN6tflite12_GLOBAL__N_14EvalEP13TfLiteContextP10TfLiteNode
C:\Users\a5050395\AppData\Local\Temp\cc2DcFXc.s:2253   .text._ZN6tflite12_GLOBAL__N_14EvalEP13TfLiteContextP10TfLiteNode:000007b0 $d
C:\Users\a5050395\AppData\Local\Temp\cc2DcFXc.s:2263   .text._ZN6tflite12_GLOBAL__N_14EvalEP13TfLiteContextP10TfLiteNode:000007b8 $a
C:\Users\a5050395\AppData\Local\Temp\cc2DcFXc.s:5633   .rodata._ZN6tflite12_GLOBAL__N_14EvalEP13TfLiteContextP10TfLiteNode.str1.4:00000098 .LC17
C:\Users\a5050395\AppData\Local\Temp\cc2DcFXc.s:3705   .text._ZN6tflite12_GLOBAL__N_14EvalEP13TfLiteContextP10TfLiteNode:0000124c $d
C:\Users\a5050395\AppData\Local\Temp\cc2DcFXc.s:3708   .text._ZN6tflite12_GLOBAL__N_14EvalEP13TfLiteContextP10TfLiteNode:00001250 $a
C:\Users\a5050395\AppData\Local\Temp\cc2DcFXc.s:5625   .rodata._ZN6tflite12_GLOBAL__N_14EvalEP13TfLiteContextP10TfLiteNode.str1.4:00000000 .LC15
C:\Users\a5050395\AppData\Local\Temp\cc2DcFXc.s:5680   .rodata._ZZN8gemmlowp19RoundingDivideByPOTIlEET_S1_iE19__PRETTY_FUNCTION__:00000000 .LANCHOR0
C:\Users\a5050395\AppData\Local\Temp\cc2DcFXc.s:5628   .rodata._ZN6tflite12_GLOBAL__N_14EvalEP13TfLiteContextP10TfLiteNode.str1.4:00000010 .LC16
.ARM.extab.text._ZN6tflite12_GLOBAL__N_14EvalEP13TfLiteContextP10TfLiteNode:00000000 $d
.ARM.exidx.text._ZN6tflite12_GLOBAL__N_14EvalEP13TfLiteContextP10TfLiteNode:00000000 $d
C:\Users\a5050395\AppData\Local\Temp\cc2DcFXc.s:5571   .text._ZN6tflite26Register_DEPTHWISE_CONV_2DEv:00000000 $a
C:\Users\a5050395\AppData\Local\Temp\cc2DcFXc.s:5577   .text._ZN6tflite26Register_DEPTHWISE_CONV_2DEv:00000000 _ZN6tflite26Register_DEPTHWISE_CONV_2DEv
C:\Users\a5050395\AppData\Local\Temp\cc2DcFXc.s:5613   .rodata:00000000 .LANCHOR1
.ARM.exidx.text._ZN6tflite26Register_DEPTHWISE_CONV_2DEv:00000000 $d
C:\Users\a5050395\AppData\Local\Temp\cc2DcFXc.s:5612   .rodata:00000000 $d
C:\Users\a5050395\AppData\Local\Temp\cc2DcFXc.s:5624   .rodata._ZN6tflite12_GLOBAL__N_14EvalEP13TfLiteContextP10TfLiteNode.str1.4:00000000 $d
C:\Users\a5050395\AppData\Local\Temp\cc2DcFXc.s:5636   .rodata._ZN6tflite12_GLOBAL__N_17PrepareEP13TfLiteContextP10TfLiteNode.str1.4:00000000 $d
C:\Users\a5050395\AppData\Local\Temp\cc2DcFXc.s:5679   .rodata._ZZN8gemmlowp19RoundingDivideByPOTIlEET_S1_iE19__PRETTY_FUNCTION__:00000000 $d
C:\Users\a5050395\AppData\Local\Temp\cc2DcFXc.s:5683   .rodata._ZZN8gemmlowp19RoundingDivideByPOTIlEET_S1_iE19__PRETTY_FUNCTION__:00000000 _ZZN8gemmlowp19RoundingDivideByPOTIlEET_S1_iE19__PRETTY_FUNCTION__
                     .debug_frame:00000010 $d
                           .group:00000000 wm4.0.3e1481985cce1e923928453d8be0a65b
                           .group:00000000 wm4.cconfig.h.31.1472b8c7bd4952a63a52f3f4f718f872
                           .group:00000000 wm4.cpu_defines.h.31.54d44f9d3e7c42875c5a7fd49795eb93
                           .group:00000000 wm4.cconfig.h.515.5e729db314ae74226e291b4ae081e353
                           .group:00000000 wm4.stdint.h.4.659be5aa44c4ab4eb7c7cc2b24d8ceee
                           .group:00000000 wm4._newlib_version.h.4.3572908597b70d672d181fc7fc501c19
                           .group:00000000 wm4.features.h.33.7b36b8b41abe4293fbb29540b719705c
                           .group:00000000 wm4._default_types.h.15.247e5cd201eca3442cbf5404108c4935
                           .group:00000000 wm4._intsup.h.10.cce27fed8484c08a33f522034c30d2b5
                           .group:00000000 wm4._stdint.h.10.c24fa3af3bc1706662bb5593a907e841
                           .group:00000000 wm4.stdint.h.23.d53047a68f4a85177f80b422d52785ed
                           .group:00000000 wm4.stdbool.h.29.01580e438512fc255c0619569742ffd3
                           .group:00000000 wm4.stddef.h.39.fa2e86d241f4df50b9327c72832885e1
                           .group:00000000 wm4.c_api_types.h.20.9b09175981ed746180e205cc0b4b2bfd
                           .group:00000000 wm4.common.h.77.124de099ec0ac4f95ebf1618a5f42cf6
                           .group:00000000 wm4.concept_check.h.31.f19605d278e56917c68a56d378be308c
                           .group:00000000 wm4.type_traits.30.2c7323a483bcd7601e8b71d2546ae284
                           .group:00000000 wm4.move.h.152.41d7b9e6779674d169b7813982cfa003
                           .group:00000000 wm4.exception_defines.h.31.ca6841b9be3287386aafc5c717935b2e
                           .group:00000000 wm4.cpp_type_traits.h.33.9f2bfd8c4471a9a299f6da3ec24c745c
                           .group:00000000 wm4.numeric_traits.h.30.aa01a98564b7e55086aad9e53c7e5c53
                           .group:00000000 wm4.assertions.h.30.51d443923f0d242550e04246a7819b39
                           .group:00000000 wm4.stl_iterator.h.1250.45f349a262f1b0d836d8edbc4b7b98ff
                           .group:00000000 wm4.debug.h.30.5c1f223b12199e851d4d42805b788ccf
                           .group:00000000 wm4.stl_algobase.h.491.aa250b69c90aafa2a0a62b8c58cd5f30
                           .group:00000000 wm4.cstdlib.44.52c5efdfb0f3c176bd11e611a0b94959
                           .group:00000000 wm4.newlib.h.8.5f2124c7e712be65f83b91ff86a0b1c1
                           .group:00000000 wm4.config.h.219.65a553ab5bef5482f0d7880b0d33015e
                           .group:00000000 wm4._ansi.h.23.1ee1144430bedaab1a14c7b57a6c8384
                           .group:00000000 wm4.stdlib.h.13.4ed386f5c1a80d71e72172885d946ef2
                           .group:00000000 wm4.stddef.h.161.38688f2eb958a8ed58fdb61ffe554c94
                           .group:00000000 wm4.lock.h.2.1461d1fff82dffe8bfddc23307f6484f
                           .group:00000000 wm4._types.h.125.5cf8a495f1f7ef36777ad868a1e32068
                           .group:00000000 wm4.stddef.h.161.7e98c9c86da0ed2d27af2ef92af7d013
                           .group:00000000 wm4._types.h.183.c226d164ceca1f2ecb9ae9360c54a098
                           .group:00000000 wm4.reent.h.17.23b059516345f8f5abfa01ddc379570f
                           .group:00000000 wm4.cdefs.h.47.9bc8274c84fddbf05edd550eb0bf48cd
                           .group:00000000 wm4.stdlib.h.56.b4ddaf162082f284ba35b4444af99a9a
                           .group:00000000 wm4.cstdlib.76.ae666499c8f9b0ace1b4b23fe143da2c
                           .group:00000000 wm4.atomic_lockfree_defines.h.31.d5c6334fb1e95c9462b052951f1411df
                           .group:00000000 wm4.limits.38.55aefcf041805b6211ca3649dd2ab1b5
                           .group:00000000 wm4.string.h.8.c4b8571ce60dff2817f43fec8b86aecd
                           .group:00000000 wm4.cstring.45.6ab09de7fb97b576e744347688ddc8d7
                           .group:00000000 wm4.stdio.h.27.3fc80220048df77954e38daec3bb9670
                           .group:00000000 wm4.stdarg.h.34.3a23a216c0c293b3d2ea2e89281481e6
                           .group:00000000 wm4.types.h.40.e8c16e7ec36ba55f133d0616070e25fc
                           .group:00000000 wm4.types.h.114.fb65732f4f5f288a036a25898de2c91f
                           .group:00000000 wm4.stdio.h.2.4aa87247282eca6c8f36f9de33d8df1a
                           .group:00000000 wm4.stdio.h.81.7ccf35811a8d906c9cfd8de381f5758a
                           .group:00000000 wm4.cstdio.45.ba8d321feb18bfc8923454067605c368
                           .group:00000000 wm4.op_macros.h.42.7b718cb416a067e7bb07e7699647769b
                           .group:00000000 wm4.compatibility.h.23.702d6356326ea59aded8ef5c6c4626d5
                           .group:00000000 wm4.cmsis_gcc.h.26.46d66de85d0f338d1a08c5c2dee519c6
                           .group:00000000 wm4.math.h.13.e7cbdea54f4da98ab8f7fad4d23502b2
                           .group:00000000 wm4.cmath.46.d6e5b776115d39075860ed881d18f087
                           .group:00000000 wm4.float.h.29.86c3142490a28bd085b605be3afde6ca
                           .group:00000000 wm4.limits.h.2.a76e572559edc4d4305b1cf624158ea8
                           .group:00000000 wm4.limits.h.60.d6dc41bd25b93fde4707e6decaa3afd7
                           .group:00000000 wm4.arm_math_types.h.86.d234ffd9523de96a34ed4dd0f785756f
                           .group:00000000 wm4.wchar.h.2.f837619576d797e948eb58c44fac4678
                           .group:00000000 wm4.stddef.h.161.9f48187563b2a85291a91832aa425498
                           .group:00000000 wm4.wchar.h.41.5fcdbd5b6b1cf85dc976edff28470d8f
                           .group:00000000 wm4.cwchar.48.c4e882638bf84f6da89479dda6fe8e17
                           .group:00000000 wm4.allocator.h.52.0ceafb36dc1b82dbfa6b05003082e3f5
                           .group:00000000 wm4.locale.h.8.27d0fe4c0abbb6f8893a1fa7c1799fd9
                           .group:00000000 wm4.locale.h.16.524572cf3c2ed9856516685acdc598fe
                           .group:00000000 wm4.clocale.45.c36d2d5b631a875aa5273176b54fdf0f
                           .group:00000000 wm4.ctype.h.2.da310d2ad165ccf8b86542f76fdb938d
                           .group:00000000 wm4.cctype.45.0da5714876b0be7f2d816b53d9670403
                           .group:00000000 wm4.gthr.h.27.ceb1c66b926f052afcba57e8784df0d4
                           .group:00000000 wm4.gthrdefault.h.27.edc94d4398c0534988962be77dc3c2e1
                           .group:00000000 wm4.atomic_word.h.30.9e0ac69fd462d5e650933e05133b4afa
                           .group:00000000 wm4.errno.h.2.ba016d646105af6cad23be83630b6a3f
                           .group:00000000 wm4.errno.h.9.1ecd7b1049497a0ab61da0f6cbd4b0c6
                           .group:00000000 wm4.functional_hash.h.31.bccc014fee6fc3f930045d809df6f486
                           .group:00000000 wm4.functional.549.0bc5b448cf999863d3841495cd6fe920
                           .group:00000000 wm4.assert.h.11.a5d97ca77559a42890313c4941c01fd9
                           .group:00000000 wm4.cmath.44.b3bcbb5fe53ec6617dec8aa8eb7b03cc
                           .group:00000000 wm4.detect_platform.h.19.a1891273c0cad215067ddb8219400136
                           .group:00000000 wm4.fixedpoint.h.567.8a6371d9452be19811601bace78b0abc
                           .group:00000000 wm4.cppmath.h.27.51580d700716589df4b364298e2ef577
                           .group:00000000 wm4.neon_check.h.16.79a4dcb572cbeac06c4924f1f20cb68d

UNDEFINED SYMBOLS
abort
__aeabi_unwind_cpp_pr0
__gxx_personality_v0
_ZN6tflite25kDepthwiseConvInputTensorE
_ZN6tflite8GetInputEPK13TfLiteContextPK10TfLiteNodei
_ZN6tflite27kDepthwiseConvWeightsTensorE
_ZN6tflite26kDepthwiseConvOutputTensorE
_ZN6tflite9GetOutputEP13TfLiteContextPK10TfLiteNodei
_ZN6tflite32kDepthwiseConvQuantizedDimensionE
_ZN6tflite28CalculateOpDataDepthwiseConvEP13TfLiteContextP10TfLiteNodeRK25TfLiteDepthwiseConvParamsiiiiii10TfLiteTypePNS_10OpDataConvE
_Znaj
memcpy
arm_depthwise_conv_wrapper_s8_get_buffer_size
__cxa_throw_bad_array_new_length
_ZdaPv
__cxa_end_cleanup
_ZN6tflite28DepthwiseConvParamsQuantizedERK25TfLiteDepthwiseConvParamsRKNS_10OpDataConvE
_ZN6tflite5micro14GetTensorShapeEPK16TfLiteEvalTensor
TfLiteTypeGetName
_ZN6tflite24DepthwiseConvParamsFloatERK25TfLiteDepthwiseConvParamsRKNS_10OpDataConvE
_ZN6tflite24kDepthwiseConvBiasTensorE
arm_depthwise_conv_wrapper_s8
__assert_func
