   1              		.cpu cortex-a9
   2              		.eabi_attribute 28, 1
   3              		.eabi_attribute 20, 1
   4              		.eabi_attribute 21, 1
   5              		.eabi_attribute 23, 3
   6              		.eabi_attribute 24, 1
   7              		.eabi_attribute 25, 1
   8              		.eabi_attribute 26, 1
   9              		.eabi_attribute 30, 2
  10              		.eabi_attribute 34, 0
  11              		.eabi_attribute 18, 4
  12              		.file	"svdf.cc"
  13              		.text
  14              	.Ltext0:
  15              		.cfi_sections	.debug_frame
  16              		.section	.text._ZN6tflite12_GLOBAL__N_14InitEP13TfLiteContextPKcj,"ax",%progbits
  17              		.align	2
  18              		.syntax unified
  19              		.arm
  20              		.fpu neon
  22              	_ZN6tflite12_GLOBAL__N_14InitEP13TfLiteContextPKcj:
  23              		.fnstart
  24              	.LFB4267:
  25              		.file 1 "../src/tensorflow_lite/tensorflow/lite/micro/kernels/cmsis_nn/svdf.cc"
   1:../src/tensorflow_lite/tensorflow/lite/micro/kernels/cmsis_nn/svdf.cc **** /* Copyright 2020 The TensorFlow Authors. All Rights Reserved.
   2:../src/tensorflow_lite/tensorflow/lite/micro/kernels/cmsis_nn/svdf.cc **** 
   3:../src/tensorflow_lite/tensorflow/lite/micro/kernels/cmsis_nn/svdf.cc **** Licensed under the Apache License, Version 2.0 (the "License");
   4:../src/tensorflow_lite/tensorflow/lite/micro/kernels/cmsis_nn/svdf.cc **** you may not use this file except in compliance with the License.
   5:../src/tensorflow_lite/tensorflow/lite/micro/kernels/cmsis_nn/svdf.cc **** You may obtain a copy of the License at
   6:../src/tensorflow_lite/tensorflow/lite/micro/kernels/cmsis_nn/svdf.cc **** 
   7:../src/tensorflow_lite/tensorflow/lite/micro/kernels/cmsis_nn/svdf.cc ****     http://www.apache.org/licenses/LICENSE-2.0
   8:../src/tensorflow_lite/tensorflow/lite/micro/kernels/cmsis_nn/svdf.cc **** 
   9:../src/tensorflow_lite/tensorflow/lite/micro/kernels/cmsis_nn/svdf.cc **** Unless required by applicable law or agreed to in writing, software
  10:../src/tensorflow_lite/tensorflow/lite/micro/kernels/cmsis_nn/svdf.cc **** distributed under the License is distributed on an "AS IS" BASIS,
  11:../src/tensorflow_lite/tensorflow/lite/micro/kernels/cmsis_nn/svdf.cc **** WITHOUT WARRANTIES OR CONDITIONS OF ANY KIND, either express or implied.
  12:../src/tensorflow_lite/tensorflow/lite/micro/kernels/cmsis_nn/svdf.cc **** See the License for the specific language governing permissions and
  13:../src/tensorflow_lite/tensorflow/lite/micro/kernels/cmsis_nn/svdf.cc **** limitations under the License.
  14:../src/tensorflow_lite/tensorflow/lite/micro/kernels/cmsis_nn/svdf.cc **** ==============================================================================*/
  15:../src/tensorflow_lite/tensorflow/lite/micro/kernels/cmsis_nn/svdf.cc **** 
  16:../src/tensorflow_lite/tensorflow/lite/micro/kernels/cmsis_nn/svdf.cc **** #include <cmath>
  17:../src/tensorflow_lite/tensorflow/lite/micro/kernels/cmsis_nn/svdf.cc **** #include <cstdint>
  18:../src/tensorflow_lite/tensorflow/lite/micro/kernels/cmsis_nn/svdf.cc **** 
  19:../src/tensorflow_lite/tensorflow/lite/micro/kernels/cmsis_nn/svdf.cc **** #include "CMSIS/NN/Include/arm_nn_types.h"
  20:../src/tensorflow_lite/tensorflow/lite/micro/kernels/cmsis_nn/svdf.cc **** #include "CMSIS/NN/Include/arm_nnfunctions.h"
  21:../src/tensorflow_lite/tensorflow/lite/micro/kernels/cmsis_nn/svdf.cc **** #include "tensorflow/lite/c/builtin_op_data.h"
  22:../src/tensorflow_lite/tensorflow/lite/micro/kernels/cmsis_nn/svdf.cc **** #include "tensorflow/lite/c/common.h"
  23:../src/tensorflow_lite/tensorflow/lite/micro/kernels/cmsis_nn/svdf.cc **** #include "tensorflow/lite/kernels/internal/common.h"
  24:../src/tensorflow_lite/tensorflow/lite/micro/kernels/cmsis_nn/svdf.cc **** #include "tensorflow/lite/kernels/internal/quantization_util.h"
  25:../src/tensorflow_lite/tensorflow/lite/micro/kernels/cmsis_nn/svdf.cc **** #include "tensorflow/lite/kernels/internal/tensor_ctypes.h"
  26:../src/tensorflow_lite/tensorflow/lite/micro/kernels/cmsis_nn/svdf.cc **** #include "tensorflow/lite/kernels/kernel_util.h"
  27:../src/tensorflow_lite/tensorflow/lite/micro/kernels/cmsis_nn/svdf.cc **** #include "tensorflow/lite/kernels/op_macros.h"
  28:../src/tensorflow_lite/tensorflow/lite/micro/kernels/cmsis_nn/svdf.cc **** #include "tensorflow/lite/micro/kernels/activation_utils.h"
  29:../src/tensorflow_lite/tensorflow/lite/micro/kernels/cmsis_nn/svdf.cc **** #include "tensorflow/lite/micro/kernels/kernel_util.h"
  30:../src/tensorflow_lite/tensorflow/lite/micro/kernels/cmsis_nn/svdf.cc **** #include "tensorflow/lite/micro/micro_utils.h"
  31:../src/tensorflow_lite/tensorflow/lite/micro/kernels/cmsis_nn/svdf.cc **** 
  32:../src/tensorflow_lite/tensorflow/lite/micro/kernels/cmsis_nn/svdf.cc **** namespace tflite {
  33:../src/tensorflow_lite/tensorflow/lite/micro/kernels/cmsis_nn/svdf.cc **** namespace {
  34:../src/tensorflow_lite/tensorflow/lite/micro/kernels/cmsis_nn/svdf.cc **** 
  35:../src/tensorflow_lite/tensorflow/lite/micro/kernels/cmsis_nn/svdf.cc **** struct OpData {
  36:../src/tensorflow_lite/tensorflow/lite/micro/kernels/cmsis_nn/svdf.cc ****   int32_t effective_scale_1_a;
  37:../src/tensorflow_lite/tensorflow/lite/micro/kernels/cmsis_nn/svdf.cc ****   int32_t effective_scale_2_a;
  38:../src/tensorflow_lite/tensorflow/lite/micro/kernels/cmsis_nn/svdf.cc ****   // b versions of each scale are kept at int since the numbers are just the
  39:../src/tensorflow_lite/tensorflow/lite/micro/kernels/cmsis_nn/svdf.cc ****   // shift value - typically between [-32, 32].
  40:../src/tensorflow_lite/tensorflow/lite/micro/kernels/cmsis_nn/svdf.cc ****   int effective_scale_1_b;
  41:../src/tensorflow_lite/tensorflow/lite/micro/kernels/cmsis_nn/svdf.cc ****   int effective_scale_2_b;
  42:../src/tensorflow_lite/tensorflow/lite/micro/kernels/cmsis_nn/svdf.cc ****   int scratch_tensor_index;
  43:../src/tensorflow_lite/tensorflow/lite/micro/kernels/cmsis_nn/svdf.cc ****   int scratch_output_tensor_index;
  44:../src/tensorflow_lite/tensorflow/lite/micro/kernels/cmsis_nn/svdf.cc **** 
  45:../src/tensorflow_lite/tensorflow/lite/micro/kernels/cmsis_nn/svdf.cc ****   // Cached tensor zero point values for quantized operations.
  46:../src/tensorflow_lite/tensorflow/lite/micro/kernels/cmsis_nn/svdf.cc ****   int input_zero_point;
  47:../src/tensorflow_lite/tensorflow/lite/micro/kernels/cmsis_nn/svdf.cc ****   int output_zero_point;
  48:../src/tensorflow_lite/tensorflow/lite/micro/kernels/cmsis_nn/svdf.cc **** };
  49:../src/tensorflow_lite/tensorflow/lite/micro/kernels/cmsis_nn/svdf.cc **** 
  50:../src/tensorflow_lite/tensorflow/lite/micro/kernels/cmsis_nn/svdf.cc **** // Input tensors.
  51:../src/tensorflow_lite/tensorflow/lite/micro/kernels/cmsis_nn/svdf.cc **** constexpr int kInputTensor = 0;
  52:../src/tensorflow_lite/tensorflow/lite/micro/kernels/cmsis_nn/svdf.cc **** constexpr int kWeightsFeatureTensor = 1;
  53:../src/tensorflow_lite/tensorflow/lite/micro/kernels/cmsis_nn/svdf.cc **** constexpr int kWeightsTimeTensor = 2;
  54:../src/tensorflow_lite/tensorflow/lite/micro/kernels/cmsis_nn/svdf.cc **** constexpr int kBiasTensor = 3;
  55:../src/tensorflow_lite/tensorflow/lite/micro/kernels/cmsis_nn/svdf.cc **** // This is a variable tensor, and will be modified by this op.
  56:../src/tensorflow_lite/tensorflow/lite/micro/kernels/cmsis_nn/svdf.cc **** constexpr int kInputActivationStateTensor = 4;
  57:../src/tensorflow_lite/tensorflow/lite/micro/kernels/cmsis_nn/svdf.cc **** 
  58:../src/tensorflow_lite/tensorflow/lite/micro/kernels/cmsis_nn/svdf.cc **** // Output tensor.
  59:../src/tensorflow_lite/tensorflow/lite/micro/kernels/cmsis_nn/svdf.cc **** constexpr int kOutputTensor = 0;
  60:../src/tensorflow_lite/tensorflow/lite/micro/kernels/cmsis_nn/svdf.cc **** 
  61:../src/tensorflow_lite/tensorflow/lite/micro/kernels/cmsis_nn/svdf.cc **** /**
  62:../src/tensorflow_lite/tensorflow/lite/micro/kernels/cmsis_nn/svdf.cc ****  * This version of SVDF is specific to TFLite Micro. It contains the following
  63:../src/tensorflow_lite/tensorflow/lite/micro/kernels/cmsis_nn/svdf.cc ****  * differences between the TFLite version:
  64:../src/tensorflow_lite/tensorflow/lite/micro/kernels/cmsis_nn/svdf.cc ****  *
  65:../src/tensorflow_lite/tensorflow/lite/micro/kernels/cmsis_nn/svdf.cc ****  * 1.) Scratch tensor allocation - scratch tensors must be known ahead of time
  66:../src/tensorflow_lite/tensorflow/lite/micro/kernels/cmsis_nn/svdf.cc ****  * for the Micro interpreter.
  67:../src/tensorflow_lite/tensorflow/lite/micro/kernels/cmsis_nn/svdf.cc ****  * 2.) Output dimensions - the TFLite version determines output size and runtime
  68:../src/tensorflow_lite/tensorflow/lite/micro/kernels/cmsis_nn/svdf.cc ****  * and resizes the output tensor. Micro runtime does not support tensor
  69:../src/tensorflow_lite/tensorflow/lite/micro/kernels/cmsis_nn/svdf.cc ****  * resizing.
  70:../src/tensorflow_lite/tensorflow/lite/micro/kernels/cmsis_nn/svdf.cc ****  */
  71:../src/tensorflow_lite/tensorflow/lite/micro/kernels/cmsis_nn/svdf.cc **** static inline void ApplyTimeWeightsBiasAndActivation(
  72:../src/tensorflow_lite/tensorflow/lite/micro/kernels/cmsis_nn/svdf.cc ****     int batch_size, int memory_size, int num_filters, int num_units, int rank,
  73:../src/tensorflow_lite/tensorflow/lite/micro/kernels/cmsis_nn/svdf.cc ****     const float* const __restrict__ weights_time_ptr,
  74:../src/tensorflow_lite/tensorflow/lite/micro/kernels/cmsis_nn/svdf.cc ****     const float* const __restrict__ bias_ptr, TfLiteFusedActivation activation,
  75:../src/tensorflow_lite/tensorflow/lite/micro/kernels/cmsis_nn/svdf.cc ****     float* const __restrict__ state_ptr, float* const __restrict__ scratch_ptr,
  76:../src/tensorflow_lite/tensorflow/lite/micro/kernels/cmsis_nn/svdf.cc ****     float* const __restrict__ output_ptr) {
  77:../src/tensorflow_lite/tensorflow/lite/micro/kernels/cmsis_nn/svdf.cc ****   // Compute matmul(activation_state, weights_time).
  78:../src/tensorflow_lite/tensorflow/lite/micro/kernels/cmsis_nn/svdf.cc ****   for (int b = 0; b < batch_size; ++b) {
  79:../src/tensorflow_lite/tensorflow/lite/micro/kernels/cmsis_nn/svdf.cc ****     // Perform batched vector dot product:
  80:../src/tensorflow_lite/tensorflow/lite/micro/kernels/cmsis_nn/svdf.cc ****     float* scratch_ptr_batch = scratch_ptr + b * num_filters;
  81:../src/tensorflow_lite/tensorflow/lite/micro/kernels/cmsis_nn/svdf.cc ****     const float* vector1_ptr = weights_time_ptr;
  82:../src/tensorflow_lite/tensorflow/lite/micro/kernels/cmsis_nn/svdf.cc ****     const float* vector2_ptr = state_ptr + b * memory_size * num_filters;
  83:../src/tensorflow_lite/tensorflow/lite/micro/kernels/cmsis_nn/svdf.cc ****     for (int i = 0; i < num_filters; ++i) {
  84:../src/tensorflow_lite/tensorflow/lite/micro/kernels/cmsis_nn/svdf.cc ****       *scratch_ptr_batch = 0.f;
  85:../src/tensorflow_lite/tensorflow/lite/micro/kernels/cmsis_nn/svdf.cc ****       for (int j = 0; j < memory_size; ++j) {
  86:../src/tensorflow_lite/tensorflow/lite/micro/kernels/cmsis_nn/svdf.cc ****         *scratch_ptr_batch += *vector1_ptr++ * *vector2_ptr++;
  87:../src/tensorflow_lite/tensorflow/lite/micro/kernels/cmsis_nn/svdf.cc ****       }
  88:../src/tensorflow_lite/tensorflow/lite/micro/kernels/cmsis_nn/svdf.cc ****       scratch_ptr_batch++;
  89:../src/tensorflow_lite/tensorflow/lite/micro/kernels/cmsis_nn/svdf.cc ****     }
  90:../src/tensorflow_lite/tensorflow/lite/micro/kernels/cmsis_nn/svdf.cc ****   }
  91:../src/tensorflow_lite/tensorflow/lite/micro/kernels/cmsis_nn/svdf.cc **** 
  92:../src/tensorflow_lite/tensorflow/lite/micro/kernels/cmsis_nn/svdf.cc ****   // Initialize output with bias if provided.
  93:../src/tensorflow_lite/tensorflow/lite/micro/kernels/cmsis_nn/svdf.cc ****   if (bias_ptr) {
  94:../src/tensorflow_lite/tensorflow/lite/micro/kernels/cmsis_nn/svdf.cc ****     // VectorBatchVectorAssign
  95:../src/tensorflow_lite/tensorflow/lite/micro/kernels/cmsis_nn/svdf.cc ****     for (int i = 0; i < batch_size; ++i) {
  96:../src/tensorflow_lite/tensorflow/lite/micro/kernels/cmsis_nn/svdf.cc ****       float* output_data = output_ptr + i * num_units;
  97:../src/tensorflow_lite/tensorflow/lite/micro/kernels/cmsis_nn/svdf.cc ****       const float* bias_data = bias_ptr;
  98:../src/tensorflow_lite/tensorflow/lite/micro/kernels/cmsis_nn/svdf.cc ****       for (int j = 0; j < num_units; ++j) {
  99:../src/tensorflow_lite/tensorflow/lite/micro/kernels/cmsis_nn/svdf.cc ****         *output_data++ = *bias_data++;
 100:../src/tensorflow_lite/tensorflow/lite/micro/kernels/cmsis_nn/svdf.cc ****       }
 101:../src/tensorflow_lite/tensorflow/lite/micro/kernels/cmsis_nn/svdf.cc ****     }
 102:../src/tensorflow_lite/tensorflow/lite/micro/kernels/cmsis_nn/svdf.cc ****   } else {
 103:../src/tensorflow_lite/tensorflow/lite/micro/kernels/cmsis_nn/svdf.cc ****     float* output_data = output_ptr;
 104:../src/tensorflow_lite/tensorflow/lite/micro/kernels/cmsis_nn/svdf.cc ****     for (int i = 0; i < batch_size * num_units; ++i) {
 105:../src/tensorflow_lite/tensorflow/lite/micro/kernels/cmsis_nn/svdf.cc ****       *output_data++ = 0.0f;
 106:../src/tensorflow_lite/tensorflow/lite/micro/kernels/cmsis_nn/svdf.cc ****     }
 107:../src/tensorflow_lite/tensorflow/lite/micro/kernels/cmsis_nn/svdf.cc ****   }
 108:../src/tensorflow_lite/tensorflow/lite/micro/kernels/cmsis_nn/svdf.cc **** 
 109:../src/tensorflow_lite/tensorflow/lite/micro/kernels/cmsis_nn/svdf.cc ****   // Reduction sum.
 110:../src/tensorflow_lite/tensorflow/lite/micro/kernels/cmsis_nn/svdf.cc ****   for (int b = 0; b < batch_size; ++b) {
 111:../src/tensorflow_lite/tensorflow/lite/micro/kernels/cmsis_nn/svdf.cc ****     float* output_ptr_batch = output_ptr + b * num_units;
 112:../src/tensorflow_lite/tensorflow/lite/micro/kernels/cmsis_nn/svdf.cc ****     float* scratch_ptr_batch = scratch_ptr + b * num_filters;
 113:../src/tensorflow_lite/tensorflow/lite/micro/kernels/cmsis_nn/svdf.cc **** 
 114:../src/tensorflow_lite/tensorflow/lite/micro/kernels/cmsis_nn/svdf.cc ****     // Reduction sum vector
 115:../src/tensorflow_lite/tensorflow/lite/micro/kernels/cmsis_nn/svdf.cc ****     for (int i = 0; i < num_units; ++i) {
 116:../src/tensorflow_lite/tensorflow/lite/micro/kernels/cmsis_nn/svdf.cc ****       for (int j = 0; j < rank; j++) {
 117:../src/tensorflow_lite/tensorflow/lite/micro/kernels/cmsis_nn/svdf.cc ****         output_ptr_batch[i] += *scratch_ptr_batch++;
 118:../src/tensorflow_lite/tensorflow/lite/micro/kernels/cmsis_nn/svdf.cc ****       }
 119:../src/tensorflow_lite/tensorflow/lite/micro/kernels/cmsis_nn/svdf.cc ****     }
 120:../src/tensorflow_lite/tensorflow/lite/micro/kernels/cmsis_nn/svdf.cc ****   }
 121:../src/tensorflow_lite/tensorflow/lite/micro/kernels/cmsis_nn/svdf.cc **** 
 122:../src/tensorflow_lite/tensorflow/lite/micro/kernels/cmsis_nn/svdf.cc ****   // Apply activation.
 123:../src/tensorflow_lite/tensorflow/lite/micro/kernels/cmsis_nn/svdf.cc ****   for (int b = 0; b < batch_size; ++b) {
 124:../src/tensorflow_lite/tensorflow/lite/micro/kernels/cmsis_nn/svdf.cc ****     float* output_ptr_batch = output_ptr + b * num_units;
 125:../src/tensorflow_lite/tensorflow/lite/micro/kernels/cmsis_nn/svdf.cc ****     for (int i = 0; i < num_units; ++i) {
 126:../src/tensorflow_lite/tensorflow/lite/micro/kernels/cmsis_nn/svdf.cc ****       *output_ptr_batch =
 127:../src/tensorflow_lite/tensorflow/lite/micro/kernels/cmsis_nn/svdf.cc ****           tflite::ops::micro::ActivationValFloat(activation, *output_ptr_batch);
 128:../src/tensorflow_lite/tensorflow/lite/micro/kernels/cmsis_nn/svdf.cc ****       ++output_ptr_batch;
 129:../src/tensorflow_lite/tensorflow/lite/micro/kernels/cmsis_nn/svdf.cc ****     }
 130:../src/tensorflow_lite/tensorflow/lite/micro/kernels/cmsis_nn/svdf.cc ****   }
 131:../src/tensorflow_lite/tensorflow/lite/micro/kernels/cmsis_nn/svdf.cc **** }
 132:../src/tensorflow_lite/tensorflow/lite/micro/kernels/cmsis_nn/svdf.cc **** 
 133:../src/tensorflow_lite/tensorflow/lite/micro/kernels/cmsis_nn/svdf.cc **** inline void EvalFloatSVDF(
 134:../src/tensorflow_lite/tensorflow/lite/micro/kernels/cmsis_nn/svdf.cc ****     TfLiteContext* context, TfLiteNode* node, const TfLiteEvalTensor* input,
 135:../src/tensorflow_lite/tensorflow/lite/micro/kernels/cmsis_nn/svdf.cc ****     const TfLiteEvalTensor* weights_feature,
 136:../src/tensorflow_lite/tensorflow/lite/micro/kernels/cmsis_nn/svdf.cc ****     const TfLiteEvalTensor* weights_time, const TfLiteEvalTensor* bias,
 137:../src/tensorflow_lite/tensorflow/lite/micro/kernels/cmsis_nn/svdf.cc ****     const TfLiteSVDFParams* params, int scratch_tensor_index,
 138:../src/tensorflow_lite/tensorflow/lite/micro/kernels/cmsis_nn/svdf.cc ****     TfLiteEvalTensor* activation_state, TfLiteEvalTensor* output) {
 139:../src/tensorflow_lite/tensorflow/lite/micro/kernels/cmsis_nn/svdf.cc ****   const int rank = params->rank;
 140:../src/tensorflow_lite/tensorflow/lite/micro/kernels/cmsis_nn/svdf.cc ****   const int batch_size = input->dims->data[0];
 141:../src/tensorflow_lite/tensorflow/lite/micro/kernels/cmsis_nn/svdf.cc ****   const int input_size = input->dims->data[1];
 142:../src/tensorflow_lite/tensorflow/lite/micro/kernels/cmsis_nn/svdf.cc ****   const int num_filters = weights_feature->dims->data[0];
 143:../src/tensorflow_lite/tensorflow/lite/micro/kernels/cmsis_nn/svdf.cc ****   const int num_units = num_filters / rank;
 144:../src/tensorflow_lite/tensorflow/lite/micro/kernels/cmsis_nn/svdf.cc ****   const int memory_size = weights_time->dims->data[1];
 145:../src/tensorflow_lite/tensorflow/lite/micro/kernels/cmsis_nn/svdf.cc **** 
 146:../src/tensorflow_lite/tensorflow/lite/micro/kernels/cmsis_nn/svdf.cc ****   const float* weights_feature_ptr =
 147:../src/tensorflow_lite/tensorflow/lite/micro/kernels/cmsis_nn/svdf.cc ****       tflite::micro::GetTensorData<float>(weights_feature);
 148:../src/tensorflow_lite/tensorflow/lite/micro/kernels/cmsis_nn/svdf.cc ****   const float* weights_time_ptr =
 149:../src/tensorflow_lite/tensorflow/lite/micro/kernels/cmsis_nn/svdf.cc ****       tflite::micro::GetTensorData<float>(weights_time);
 150:../src/tensorflow_lite/tensorflow/lite/micro/kernels/cmsis_nn/svdf.cc ****   const float* bias_ptr = tflite::micro::GetTensorData<float>(bias);
 151:../src/tensorflow_lite/tensorflow/lite/micro/kernels/cmsis_nn/svdf.cc ****   const float* input_ptr = tflite::micro::GetTensorData<float>(input);
 152:../src/tensorflow_lite/tensorflow/lite/micro/kernels/cmsis_nn/svdf.cc **** 
 153:../src/tensorflow_lite/tensorflow/lite/micro/kernels/cmsis_nn/svdf.cc ****   float* state_ptr = tflite::micro::GetTensorData<float>(activation_state);
 154:../src/tensorflow_lite/tensorflow/lite/micro/kernels/cmsis_nn/svdf.cc **** 
 155:../src/tensorflow_lite/tensorflow/lite/micro/kernels/cmsis_nn/svdf.cc ****   TFLITE_DCHECK(context != nullptr);
 156:../src/tensorflow_lite/tensorflow/lite/micro/kernels/cmsis_nn/svdf.cc ****   TFLITE_DCHECK(context->GetScratchBuffer != nullptr);
 157:../src/tensorflow_lite/tensorflow/lite/micro/kernels/cmsis_nn/svdf.cc **** 
 158:../src/tensorflow_lite/tensorflow/lite/micro/kernels/cmsis_nn/svdf.cc ****   float* scratch_ptr = static_cast<float*>(
 159:../src/tensorflow_lite/tensorflow/lite/micro/kernels/cmsis_nn/svdf.cc ****       context->GetScratchBuffer(context, scratch_tensor_index));
 160:../src/tensorflow_lite/tensorflow/lite/micro/kernels/cmsis_nn/svdf.cc **** 
 161:../src/tensorflow_lite/tensorflow/lite/micro/kernels/cmsis_nn/svdf.cc ****   float* output_ptr = tflite::micro::GetTensorData<float>(output);
 162:../src/tensorflow_lite/tensorflow/lite/micro/kernels/cmsis_nn/svdf.cc **** 
 163:../src/tensorflow_lite/tensorflow/lite/micro/kernels/cmsis_nn/svdf.cc ****   // Left shift the activation_state.
 164:../src/tensorflow_lite/tensorflow/lite/micro/kernels/cmsis_nn/svdf.cc ****   {
 165:../src/tensorflow_lite/tensorflow/lite/micro/kernels/cmsis_nn/svdf.cc ****     float* new_state_start = state_ptr;
 166:../src/tensorflow_lite/tensorflow/lite/micro/kernels/cmsis_nn/svdf.cc ****     const float* old_state_start = state_ptr + 1;
 167:../src/tensorflow_lite/tensorflow/lite/micro/kernels/cmsis_nn/svdf.cc ****     const float* old_state_end =
 168:../src/tensorflow_lite/tensorflow/lite/micro/kernels/cmsis_nn/svdf.cc ****         state_ptr + batch_size * num_filters * memory_size;
 169:../src/tensorflow_lite/tensorflow/lite/micro/kernels/cmsis_nn/svdf.cc ****     while (old_state_start != old_state_end) {
 170:../src/tensorflow_lite/tensorflow/lite/micro/kernels/cmsis_nn/svdf.cc ****       *new_state_start++ = *old_state_start++;
 171:../src/tensorflow_lite/tensorflow/lite/micro/kernels/cmsis_nn/svdf.cc ****     }
 172:../src/tensorflow_lite/tensorflow/lite/micro/kernels/cmsis_nn/svdf.cc ****   }
 173:../src/tensorflow_lite/tensorflow/lite/micro/kernels/cmsis_nn/svdf.cc **** 
 174:../src/tensorflow_lite/tensorflow/lite/micro/kernels/cmsis_nn/svdf.cc ****   // Note: no need to clear the latest activation, matmul is not accumulative.
 175:../src/tensorflow_lite/tensorflow/lite/micro/kernels/cmsis_nn/svdf.cc **** 
 176:../src/tensorflow_lite/tensorflow/lite/micro/kernels/cmsis_nn/svdf.cc ****   // Compute conv1d(inputs, weights_feature).
 177:../src/tensorflow_lite/tensorflow/lite/micro/kernels/cmsis_nn/svdf.cc ****   // The activation_state's rightmost column is used to save current cycle
 178:../src/tensorflow_lite/tensorflow/lite/micro/kernels/cmsis_nn/svdf.cc ****   // activation. This is achieved by starting at state_ptr[memory_size - 1] and
 179:../src/tensorflow_lite/tensorflow/lite/micro/kernels/cmsis_nn/svdf.cc ****   // having the stride equal to memory_size.
 180:../src/tensorflow_lite/tensorflow/lite/micro/kernels/cmsis_nn/svdf.cc **** 
 181:../src/tensorflow_lite/tensorflow/lite/micro/kernels/cmsis_nn/svdf.cc ****   // Perform batched matrix vector multiply operation:
 182:../src/tensorflow_lite/tensorflow/lite/micro/kernels/cmsis_nn/svdf.cc ****   {
 183:../src/tensorflow_lite/tensorflow/lite/micro/kernels/cmsis_nn/svdf.cc ****     const float* matrix = weights_feature_ptr;
 184:../src/tensorflow_lite/tensorflow/lite/micro/kernels/cmsis_nn/svdf.cc ****     const float* vector = input_ptr;
 185:../src/tensorflow_lite/tensorflow/lite/micro/kernels/cmsis_nn/svdf.cc ****     float* result = &state_ptr[memory_size - 1];
 186:../src/tensorflow_lite/tensorflow/lite/micro/kernels/cmsis_nn/svdf.cc ****     float* result_in_batch = result;
 187:../src/tensorflow_lite/tensorflow/lite/micro/kernels/cmsis_nn/svdf.cc ****     for (int i = 0; i < batch_size; ++i) {
 188:../src/tensorflow_lite/tensorflow/lite/micro/kernels/cmsis_nn/svdf.cc ****       const float* matrix_ptr = matrix;
 189:../src/tensorflow_lite/tensorflow/lite/micro/kernels/cmsis_nn/svdf.cc ****       for (int j = 0; j < num_filters; ++j) {
 190:../src/tensorflow_lite/tensorflow/lite/micro/kernels/cmsis_nn/svdf.cc ****         float dot_prod = 0.0f;
 191:../src/tensorflow_lite/tensorflow/lite/micro/kernels/cmsis_nn/svdf.cc ****         const float* vector_in_batch = vector + i * input_size;
 192:../src/tensorflow_lite/tensorflow/lite/micro/kernels/cmsis_nn/svdf.cc ****         for (int k = 0; k < input_size; ++k) {
 193:../src/tensorflow_lite/tensorflow/lite/micro/kernels/cmsis_nn/svdf.cc ****           dot_prod += *matrix_ptr++ * *vector_in_batch++;
 194:../src/tensorflow_lite/tensorflow/lite/micro/kernels/cmsis_nn/svdf.cc ****         }
 195:../src/tensorflow_lite/tensorflow/lite/micro/kernels/cmsis_nn/svdf.cc ****         *result_in_batch = dot_prod;
 196:../src/tensorflow_lite/tensorflow/lite/micro/kernels/cmsis_nn/svdf.cc ****         result_in_batch += memory_size;
 197:../src/tensorflow_lite/tensorflow/lite/micro/kernels/cmsis_nn/svdf.cc ****       }
 198:../src/tensorflow_lite/tensorflow/lite/micro/kernels/cmsis_nn/svdf.cc ****     }
 199:../src/tensorflow_lite/tensorflow/lite/micro/kernels/cmsis_nn/svdf.cc ****   }
 200:../src/tensorflow_lite/tensorflow/lite/micro/kernels/cmsis_nn/svdf.cc **** 
 201:../src/tensorflow_lite/tensorflow/lite/micro/kernels/cmsis_nn/svdf.cc ****   ApplyTimeWeightsBiasAndActivation(
 202:../src/tensorflow_lite/tensorflow/lite/micro/kernels/cmsis_nn/svdf.cc ****       batch_size, memory_size, num_filters, num_units, rank, weights_time_ptr,
 203:../src/tensorflow_lite/tensorflow/lite/micro/kernels/cmsis_nn/svdf.cc ****       bias_ptr, params->activation, state_ptr, scratch_ptr, output_ptr);
 204:../src/tensorflow_lite/tensorflow/lite/micro/kernels/cmsis_nn/svdf.cc **** }
 205:../src/tensorflow_lite/tensorflow/lite/micro/kernels/cmsis_nn/svdf.cc **** 
 206:../src/tensorflow_lite/tensorflow/lite/micro/kernels/cmsis_nn/svdf.cc **** void EvalIntegerSVDF(TfLiteContext* context, TfLiteNode* node,
 207:../src/tensorflow_lite/tensorflow/lite/micro/kernels/cmsis_nn/svdf.cc ****                      const TfLiteEvalTensor* input_tensor,
 208:../src/tensorflow_lite/tensorflow/lite/micro/kernels/cmsis_nn/svdf.cc ****                      const TfLiteEvalTensor* weights_feature_tensor,
 209:../src/tensorflow_lite/tensorflow/lite/micro/kernels/cmsis_nn/svdf.cc ****                      const TfLiteEvalTensor* weights_time_tensor,
 210:../src/tensorflow_lite/tensorflow/lite/micro/kernels/cmsis_nn/svdf.cc ****                      const TfLiteEvalTensor* bias_tensor,
 211:../src/tensorflow_lite/tensorflow/lite/micro/kernels/cmsis_nn/svdf.cc ****                      const TfLiteSVDFParams* params,
 212:../src/tensorflow_lite/tensorflow/lite/micro/kernels/cmsis_nn/svdf.cc ****                      TfLiteEvalTensor* activation_state_tensor,
 213:../src/tensorflow_lite/tensorflow/lite/micro/kernels/cmsis_nn/svdf.cc ****                      TfLiteEvalTensor* output_tensor, const OpData& data) {
 214:../src/tensorflow_lite/tensorflow/lite/micro/kernels/cmsis_nn/svdf.cc ****   cmsis_nn_dims input_dims;
 215:../src/tensorflow_lite/tensorflow/lite/micro/kernels/cmsis_nn/svdf.cc ****   input_dims.n = input_tensor->dims->data[0];
 216:../src/tensorflow_lite/tensorflow/lite/micro/kernels/cmsis_nn/svdf.cc ****   input_dims.h = input_tensor->dims->data[1];
 217:../src/tensorflow_lite/tensorflow/lite/micro/kernels/cmsis_nn/svdf.cc **** 
 218:../src/tensorflow_lite/tensorflow/lite/micro/kernels/cmsis_nn/svdf.cc ****   cmsis_nn_dims weights_feature_dims;
 219:../src/tensorflow_lite/tensorflow/lite/micro/kernels/cmsis_nn/svdf.cc ****   weights_feature_dims.n = weights_feature_tensor->dims->data[0];
 220:../src/tensorflow_lite/tensorflow/lite/micro/kernels/cmsis_nn/svdf.cc ****   weights_feature_dims.h = weights_feature_tensor->dims->data[1];
 221:../src/tensorflow_lite/tensorflow/lite/micro/kernels/cmsis_nn/svdf.cc **** 
 222:../src/tensorflow_lite/tensorflow/lite/micro/kernels/cmsis_nn/svdf.cc ****   cmsis_nn_dims weights_time_dims;
 223:../src/tensorflow_lite/tensorflow/lite/micro/kernels/cmsis_nn/svdf.cc ****   weights_time_dims.n = weights_time_tensor->dims->data[0];
 224:../src/tensorflow_lite/tensorflow/lite/micro/kernels/cmsis_nn/svdf.cc ****   weights_time_dims.h = weights_time_tensor->dims->data[1];
 225:../src/tensorflow_lite/tensorflow/lite/micro/kernels/cmsis_nn/svdf.cc **** 
 226:../src/tensorflow_lite/tensorflow/lite/micro/kernels/cmsis_nn/svdf.cc ****   cmsis_nn_dims bias_dims;
 227:../src/tensorflow_lite/tensorflow/lite/micro/kernels/cmsis_nn/svdf.cc ****   bias_dims.n = bias_tensor->dims->data[0];
 228:../src/tensorflow_lite/tensorflow/lite/micro/kernels/cmsis_nn/svdf.cc **** 
 229:../src/tensorflow_lite/tensorflow/lite/micro/kernels/cmsis_nn/svdf.cc ****   cmsis_nn_dims state_dims;
 230:../src/tensorflow_lite/tensorflow/lite/micro/kernels/cmsis_nn/svdf.cc ****   state_dims.n = bias_tensor->dims->data[0];
 231:../src/tensorflow_lite/tensorflow/lite/micro/kernels/cmsis_nn/svdf.cc ****   state_dims.h = bias_tensor->dims->data[1];
 232:../src/tensorflow_lite/tensorflow/lite/micro/kernels/cmsis_nn/svdf.cc **** 
 233:../src/tensorflow_lite/tensorflow/lite/micro/kernels/cmsis_nn/svdf.cc ****   cmsis_nn_dims output_dims;
 234:../src/tensorflow_lite/tensorflow/lite/micro/kernels/cmsis_nn/svdf.cc ****   output_dims.n = output_tensor->dims->data[0];
 235:../src/tensorflow_lite/tensorflow/lite/micro/kernels/cmsis_nn/svdf.cc ****   output_dims.h = output_tensor->dims->data[1];
 236:../src/tensorflow_lite/tensorflow/lite/micro/kernels/cmsis_nn/svdf.cc **** 
 237:../src/tensorflow_lite/tensorflow/lite/micro/kernels/cmsis_nn/svdf.cc ****   cmsis_nn_svdf_params svdf_params;
 238:../src/tensorflow_lite/tensorflow/lite/micro/kernels/cmsis_nn/svdf.cc ****   svdf_params.rank = params->rank;
 239:../src/tensorflow_lite/tensorflow/lite/micro/kernels/cmsis_nn/svdf.cc ****   svdf_params.input_offset = data.input_zero_point;
 240:../src/tensorflow_lite/tensorflow/lite/micro/kernels/cmsis_nn/svdf.cc ****   svdf_params.output_offset = data.output_zero_point;
 241:../src/tensorflow_lite/tensorflow/lite/micro/kernels/cmsis_nn/svdf.cc **** 
 242:../src/tensorflow_lite/tensorflow/lite/micro/kernels/cmsis_nn/svdf.cc ****   svdf_params.input_activation.min = INT16_MIN;
 243:../src/tensorflow_lite/tensorflow/lite/micro/kernels/cmsis_nn/svdf.cc ****   svdf_params.input_activation.max = INT16_MAX;
 244:../src/tensorflow_lite/tensorflow/lite/micro/kernels/cmsis_nn/svdf.cc **** 
 245:../src/tensorflow_lite/tensorflow/lite/micro/kernels/cmsis_nn/svdf.cc ****   svdf_params.output_activation.min = INT8_MIN;
 246:../src/tensorflow_lite/tensorflow/lite/micro/kernels/cmsis_nn/svdf.cc ****   svdf_params.output_activation.max = INT8_MAX;
 247:../src/tensorflow_lite/tensorflow/lite/micro/kernels/cmsis_nn/svdf.cc **** 
 248:../src/tensorflow_lite/tensorflow/lite/micro/kernels/cmsis_nn/svdf.cc ****   cmsis_nn_per_tensor_quant_params in_quant_params;
 249:../src/tensorflow_lite/tensorflow/lite/micro/kernels/cmsis_nn/svdf.cc ****   in_quant_params.multiplier = data.effective_scale_1_a;
 250:../src/tensorflow_lite/tensorflow/lite/micro/kernels/cmsis_nn/svdf.cc ****   in_quant_params.shift = data.effective_scale_1_b;
 251:../src/tensorflow_lite/tensorflow/lite/micro/kernels/cmsis_nn/svdf.cc **** 
 252:../src/tensorflow_lite/tensorflow/lite/micro/kernels/cmsis_nn/svdf.cc ****   cmsis_nn_per_tensor_quant_params out_quant_params;
 253:../src/tensorflow_lite/tensorflow/lite/micro/kernels/cmsis_nn/svdf.cc ****   out_quant_params.multiplier = data.effective_scale_2_a;
 254:../src/tensorflow_lite/tensorflow/lite/micro/kernels/cmsis_nn/svdf.cc ****   out_quant_params.shift = data.effective_scale_2_b;
 255:../src/tensorflow_lite/tensorflow/lite/micro/kernels/cmsis_nn/svdf.cc **** 
 256:../src/tensorflow_lite/tensorflow/lite/micro/kernels/cmsis_nn/svdf.cc ****   TFLITE_DCHECK(context != nullptr);
 257:../src/tensorflow_lite/tensorflow/lite/micro/kernels/cmsis_nn/svdf.cc ****   TFLITE_DCHECK(context->GetScratchBuffer != nullptr);
 258:../src/tensorflow_lite/tensorflow/lite/micro/kernels/cmsis_nn/svdf.cc **** 
 259:../src/tensorflow_lite/tensorflow/lite/micro/kernels/cmsis_nn/svdf.cc ****   cmsis_nn_context scratch_ctx;
 260:../src/tensorflow_lite/tensorflow/lite/micro/kernels/cmsis_nn/svdf.cc ****   scratch_ctx.buf = static_cast<int32_t*>(
 261:../src/tensorflow_lite/tensorflow/lite/micro/kernels/cmsis_nn/svdf.cc ****       context->GetScratchBuffer(context, data.scratch_tensor_index));
 262:../src/tensorflow_lite/tensorflow/lite/micro/kernels/cmsis_nn/svdf.cc **** 
 263:../src/tensorflow_lite/tensorflow/lite/micro/kernels/cmsis_nn/svdf.cc ****   cmsis_nn_context scratch_output_ctx;
 264:../src/tensorflow_lite/tensorflow/lite/micro/kernels/cmsis_nn/svdf.cc ****   scratch_output_ctx.buf = static_cast<int32_t*>(
 265:../src/tensorflow_lite/tensorflow/lite/micro/kernels/cmsis_nn/svdf.cc ****       context->GetScratchBuffer(context, data.scratch_output_tensor_index));
 266:../src/tensorflow_lite/tensorflow/lite/micro/kernels/cmsis_nn/svdf.cc **** 
 267:../src/tensorflow_lite/tensorflow/lite/micro/kernels/cmsis_nn/svdf.cc ****   int8_t* output_data = tflite::micro::GetTensorData<int8_t>(output_tensor);
 268:../src/tensorflow_lite/tensorflow/lite/micro/kernels/cmsis_nn/svdf.cc ****   arm_svdf_s8(
 269:../src/tensorflow_lite/tensorflow/lite/micro/kernels/cmsis_nn/svdf.cc ****       &scratch_ctx, &scratch_output_ctx, &svdf_params, &in_quant_params,
 270:../src/tensorflow_lite/tensorflow/lite/micro/kernels/cmsis_nn/svdf.cc ****       &out_quant_params, &input_dims,
 271:../src/tensorflow_lite/tensorflow/lite/micro/kernels/cmsis_nn/svdf.cc ****       (int8_t*)tflite::micro::GetTensorData<int8_t>(input_tensor), &state_dims,
 272:../src/tensorflow_lite/tensorflow/lite/micro/kernels/cmsis_nn/svdf.cc ****       (int16_t*)tflite::micro::GetTensorData<int16_t>(activation_state_tensor),
 273:../src/tensorflow_lite/tensorflow/lite/micro/kernels/cmsis_nn/svdf.cc ****       &weights_feature_dims,
 274:../src/tensorflow_lite/tensorflow/lite/micro/kernels/cmsis_nn/svdf.cc ****       (int8_t*)tflite::micro::GetTensorData<int8_t>(weights_feature_tensor),
 275:../src/tensorflow_lite/tensorflow/lite/micro/kernels/cmsis_nn/svdf.cc ****       &weights_time_dims,
 276:../src/tensorflow_lite/tensorflow/lite/micro/kernels/cmsis_nn/svdf.cc ****       (int16_t*)tflite::micro::GetTensorData<int16_t>(weights_time_tensor),
 277:../src/tensorflow_lite/tensorflow/lite/micro/kernels/cmsis_nn/svdf.cc ****       &bias_dims, (int32_t*)tflite::micro::GetTensorData<int32_t>(bias_tensor),
 278:../src/tensorflow_lite/tensorflow/lite/micro/kernels/cmsis_nn/svdf.cc ****       &output_dims, output_data);
 279:../src/tensorflow_lite/tensorflow/lite/micro/kernels/cmsis_nn/svdf.cc **** }
 280:../src/tensorflow_lite/tensorflow/lite/micro/kernels/cmsis_nn/svdf.cc **** 
 281:../src/tensorflow_lite/tensorflow/lite/micro/kernels/cmsis_nn/svdf.cc **** void* Init(TfLiteContext* context, const char* buffer, size_t length) {
  26              		.loc 1 281 0
  27              		.cfi_startproc
  28              		@ args = 0, pretend = 0, frame = 0
  29              		@ frame_needed = 0, uses_anonymous_args = 0
  30              	.LVL0:
 282:../src/tensorflow_lite/tensorflow/lite/micro/kernels/cmsis_nn/svdf.cc ****   TFLITE_DCHECK(context->AllocatePersistentBuffer != nullptr);
  31              		.loc 1 282 0
  32 0000 383090E5 		ldr	r3, [r0, #56]
  33 0004 000053E3 		cmp	r3, #0
  34 0008 0100000A 		beq	.L7
 283:../src/tensorflow_lite/tensorflow/lite/micro/kernels/cmsis_nn/svdf.cc ****   return context->AllocatePersistentBuffer(context, sizeof(OpData));
  35              		.loc 1 283 0
  36 000c 2010A0E3 		mov	r1, #32
  37              	.LVL1:
  38 0010 13FF2FE1 		bx	r3
  39              	.LVL2:
  40              	.L7:
 281:../src/tensorflow_lite/tensorflow/lite/micro/kernels/cmsis_nn/svdf.cc ****   TFLITE_DCHECK(context->AllocatePersistentBuffer != nullptr);
  41              		.loc 1 281 0 discriminator 1
  42 0014 10402DE9 		push	{r4, lr}
  43              		.save {r4, lr}
  44              		.cfi_def_cfa_offset 8
  45              		.cfi_offset 4, -8
  46              		.cfi_offset 14, -4
 282:../src/tensorflow_lite/tensorflow/lite/micro/kernels/cmsis_nn/svdf.cc ****   TFLITE_DCHECK(context->AllocatePersistentBuffer != nullptr);
  47              		.loc 1 282 0 discriminator 1
  48 0018 FEFFFFEB 		bl	abort
  49              	.LVL3:
  50              		.cfi_endproc
  51              	.LFE4267:
  52              		.fnend
  54              		.global	__aeabi_idivmod
  55              		.global	__aeabi_idiv
  56              		.section	.text._ZN6tflite12_GLOBAL__N_17PrepareEP13TfLiteContextP10TfLiteNode,"ax",%progbits
  57              		.align	2
  58              		.syntax unified
  59              		.arm
  60              		.fpu neon
  62              	_ZN6tflite12_GLOBAL__N_17PrepareEP13TfLiteContextP10TfLiteNode:
  63              		.fnstart
  64              	.LFB4268:
 284:../src/tensorflow_lite/tensorflow/lite/micro/kernels/cmsis_nn/svdf.cc **** }
 285:../src/tensorflow_lite/tensorflow/lite/micro/kernels/cmsis_nn/svdf.cc **** 
 286:../src/tensorflow_lite/tensorflow/lite/micro/kernels/cmsis_nn/svdf.cc **** TfLiteStatus Prepare(TfLiteContext* context, TfLiteNode* node) {
  65              		.loc 1 286 0
  66              		.cfi_startproc
  67              		@ args = 0, pretend = 0, frame = 24
  68              		@ frame_needed = 0, uses_anonymous_args = 0
  69              	.LVL4:
  70 0000 F04F2DE9 		push	{r4, r5, r6, r7, r8, r9, r10, fp, lr}
  71              		.save {r4, r5, r6, r7, r8, r9, r10, fp, lr}
  72              		.cfi_def_cfa_offset 36
  73              		.cfi_offset 4, -36
  74              		.cfi_offset 5, -32
  75              		.cfi_offset 6, -28
  76              		.cfi_offset 7, -24
  77              		.cfi_offset 8, -20
  78              		.cfi_offset 9, -16
  79              		.cfi_offset 10, -12
  80              		.cfi_offset 11, -8
  81              		.cfi_offset 14, -4
 287:../src/tensorflow_lite/tensorflow/lite/micro/kernels/cmsis_nn/svdf.cc ****   TFLITE_DCHECK(node->builtin_data != nullptr);
  82              		.loc 1 287 0
  83 0004 146091E5 		ldr	r6, [r1, #20]
 286:../src/tensorflow_lite/tensorflow/lite/micro/kernels/cmsis_nn/svdf.cc ****   TFLITE_DCHECK(node->builtin_data != nullptr);
  84              		.loc 1 286 0
  85 0008 028B2DED 		vpush.64	{d8}
  86              		.vsave {d8}
  87              		.cfi_def_cfa_offset 44
  88              		.cfi_offset 80, -44
  89              		.cfi_offset 81, -40
  90              		.pad #44
  91 000c 2CD04DE2 		sub	sp, sp, #44
  92              		.cfi_def_cfa_offset 88
  93              		.loc 1 287 0
  94 0010 000056E3 		cmp	r6, #0
  95 0014 DC01000A 		beq	.L33
  96              	.LVL5:
 288:../src/tensorflow_lite/tensorflow/lite/micro/kernels/cmsis_nn/svdf.cc **** 
 289:../src/tensorflow_lite/tensorflow/lite/micro/kernels/cmsis_nn/svdf.cc ****   const auto* params = static_cast<const TfLiteSVDFParams*>(node->builtin_data);
 290:../src/tensorflow_lite/tensorflow/lite/micro/kernels/cmsis_nn/svdf.cc **** 
 291:../src/tensorflow_lite/tensorflow/lite/micro/kernels/cmsis_nn/svdf.cc ****   // Validate Tensor Inputs (dtype depends on quantization):
 292:../src/tensorflow_lite/tensorflow/lite/micro/kernels/cmsis_nn/svdf.cc ****   // [0] = Input, {2, batch_size, input_size}
 293:../src/tensorflow_lite/tensorflow/lite/micro/kernels/cmsis_nn/svdf.cc ****   // [1] = Weights Feature, {2, num_filters, input_size}
 294:../src/tensorflow_lite/tensorflow/lite/micro/kernels/cmsis_nn/svdf.cc ****   // [2] = Weights Time, {2, num_filters, memory_size}
 295:../src/tensorflow_lite/tensorflow/lite/micro/kernels/cmsis_nn/svdf.cc ****   // [3] = Bias (optional), {1, num_units}
 296:../src/tensorflow_lite/tensorflow/lite/micro/kernels/cmsis_nn/svdf.cc ****   // [4] = Activation State (variable),
 297:../src/tensorflow_lite/tensorflow/lite/micro/kernels/cmsis_nn/svdf.cc ****   //         {2, batch_size, memory_size * num_filters}
 298:../src/tensorflow_lite/tensorflow/lite/micro/kernels/cmsis_nn/svdf.cc ****   const TfLiteTensor* input = GetInput(context, node, kInputTensor);
  97              		.loc 1 298 0
  98 0018 0020A0E3 		mov	r2, #0
  99 001c 0150A0E1 		mov	r5, r1
 100 0020 0040A0E1 		mov	r4, r0
 101 0024 FEFFFFEB 		bl	_ZN6tflite8GetInputEPK13TfLiteContextPK10TfLiteNodei
 102              	.LVL6:
 299:../src/tensorflow_lite/tensorflow/lite/micro/kernels/cmsis_nn/svdf.cc ****   TF_LITE_ENSURE(context, input != nullptr);
 103              		.loc 1 299 0
 104 0028 007050E2 		subs	r7, r0, #0
 105 002c E900000A 		beq	.L73
 300:../src/tensorflow_lite/tensorflow/lite/micro/kernels/cmsis_nn/svdf.cc ****   const TfLiteTensor* weights_feature =
 301:../src/tensorflow_lite/tensorflow/lite/micro/kernels/cmsis_nn/svdf.cc ****       GetInput(context, node, kWeightsFeatureTensor);
 106              		.loc 1 301 0
 107 0030 0120A0E3 		mov	r2, #1
 108 0034 0510A0E1 		mov	r1, r5
 109 0038 0400A0E1 		mov	r0, r4
 110              	.LVL7:
 111 003c FEFFFFEB 		bl	_ZN6tflite8GetInputEPK13TfLiteContextPK10TfLiteNodei
 112              	.LVL8:
 302:../src/tensorflow_lite/tensorflow/lite/micro/kernels/cmsis_nn/svdf.cc ****   TF_LITE_ENSURE(context, weights_feature != nullptr);
 113              		.loc 1 302 0
 114 0040 008050E2 		subs	r8, r0, #0
 115 0044 F200000A 		beq	.L74
 303:../src/tensorflow_lite/tensorflow/lite/micro/kernels/cmsis_nn/svdf.cc ****   const TfLiteTensor* weights_time =
 304:../src/tensorflow_lite/tensorflow/lite/micro/kernels/cmsis_nn/svdf.cc ****       GetInput(context, node, kWeightsTimeTensor);
 116              		.loc 1 304 0
 117 0048 0220A0E3 		mov	r2, #2
 118 004c 0510A0E1 		mov	r1, r5
 119 0050 0400A0E1 		mov	r0, r4
 120              	.LVL9:
 121 0054 FEFFFFEB 		bl	_ZN6tflite8GetInputEPK13TfLiteContextPK10TfLiteNodei
 122              	.LVL10:
 305:../src/tensorflow_lite/tensorflow/lite/micro/kernels/cmsis_nn/svdf.cc ****   TF_LITE_ENSURE(context, weights_time != nullptr);
 123              		.loc 1 305 0
 124 0058 00B050E2 		subs	fp, r0, #0
 125 005c F900000A 		beq	.L75
 306:../src/tensorflow_lite/tensorflow/lite/micro/kernels/cmsis_nn/svdf.cc ****   const TfLiteTensor* bias = GetOptionalInputTensor(context, node, kBiasTensor);
 126              		.loc 1 306 0
 127 0060 0320A0E3 		mov	r2, #3
 128 0064 0510A0E1 		mov	r1, r5
 129 0068 0400A0E1 		mov	r0, r4
 130              	.LVL11:
 131 006c FEFFFFEB 		bl	_ZN6tflite22GetOptionalInputTensorEPK13TfLiteContextPK10TfLiteNodei
 132              	.LVL12:
 307:../src/tensorflow_lite/tensorflow/lite/micro/kernels/cmsis_nn/svdf.cc ****   const TfLiteTensor* activation_state =
 308:../src/tensorflow_lite/tensorflow/lite/micro/kernels/cmsis_nn/svdf.cc ****       GetInput(context, node, kInputActivationStateTensor);
 133              		.loc 1 308 0
 134 0070 0420A0E3 		mov	r2, #4
 306:../src/tensorflow_lite/tensorflow/lite/micro/kernels/cmsis_nn/svdf.cc ****   const TfLiteTensor* bias = GetOptionalInputTensor(context, node, kBiasTensor);
 135              		.loc 1 306 0
 136 0074 14008DE5 		str	r0, [sp, #20]
 137              	.LVL13:
 138              		.loc 1 308 0
 139 0078 0510A0E1 		mov	r1, r5
 140 007c 0400A0E1 		mov	r0, r4
 141              	.LVL14:
 142 0080 FEFFFFEB 		bl	_ZN6tflite8GetInputEPK13TfLiteContextPK10TfLiteNodei
 143              	.LVL15:
 309:../src/tensorflow_lite/tensorflow/lite/micro/kernels/cmsis_nn/svdf.cc ****   TF_LITE_ENSURE(context, activation_state != nullptr);
 144              		.loc 1 309 0
 145 0084 003050E2 		subs	r3, r0, #0
 146 0088 10308DE5 		str	r3, [sp, #16]
 147 008c 1F01000A 		beq	.L76
 310:../src/tensorflow_lite/tensorflow/lite/micro/kernels/cmsis_nn/svdf.cc **** 
 311:../src/tensorflow_lite/tensorflow/lite/micro/kernels/cmsis_nn/svdf.cc ****   // Define input constants based on input tensor definition above:
 312:../src/tensorflow_lite/tensorflow/lite/micro/kernels/cmsis_nn/svdf.cc ****   const int rank = params->rank;
 313:../src/tensorflow_lite/tensorflow/lite/micro/kernels/cmsis_nn/svdf.cc ****   const int input_size = input->dims->data[1];
 314:../src/tensorflow_lite/tensorflow/lite/micro/kernels/cmsis_nn/svdf.cc ****   const int batch_size = input->dims->data[0];
 315:../src/tensorflow_lite/tensorflow/lite/micro/kernels/cmsis_nn/svdf.cc ****   const int num_filters = weights_feature->dims->data[0];
 148              		.loc 1 315 0
 149 0090 083098E5 		ldr	r3, [r8, #8]
 312:../src/tensorflow_lite/tensorflow/lite/micro/kernels/cmsis_nn/svdf.cc ****   const int input_size = input->dims->data[1];
 150              		.loc 1 312 0
 151 0094 00A096E5 		ldr	r10, [r6]
 152              	.LVL16:
 153              		.loc 1 315 0
 154 0098 049093E5 		ldr	r9, [r3, #4]
 155              	.LVL17:
 316:../src/tensorflow_lite/tensorflow/lite/micro/kernels/cmsis_nn/svdf.cc ****   TF_LITE_ENSURE_EQ(context, num_filters % rank, 0);
 156              		.loc 1 316 0
 157 009c 0A10A0E1 		mov	r1, r10
 158 00a0 0900A0E1 		mov	r0, r9
 159              	.LVL18:
 160 00a4 FEFFFFEB 		bl	__aeabi_idivmod
 161              	.LVL19:
 162 00a8 00C051E2 		subs	ip, r1, #0
 163 00ac B500001A 		bne	.L77
 164              	.LVL20:
 317:../src/tensorflow_lite/tensorflow/lite/micro/kernels/cmsis_nn/svdf.cc ****   const int num_units = num_filters / rank;
 318:../src/tensorflow_lite/tensorflow/lite/micro/kernels/cmsis_nn/svdf.cc ****   const int memory_size = weights_time->dims->data[1];
 319:../src/tensorflow_lite/tensorflow/lite/micro/kernels/cmsis_nn/svdf.cc **** 
 320:../src/tensorflow_lite/tensorflow/lite/micro/kernels/cmsis_nn/svdf.cc ****   // Validate Input Tensor:
 321:../src/tensorflow_lite/tensorflow/lite/micro/kernels/cmsis_nn/svdf.cc ****   TF_LITE_ENSURE(context,
 165              		.loc 1 321 0
 166 00b0 0060D7E5 		ldrb	r6, [r7]	@ zero_extendqisi2
 167              	.LVL21:
 168 00b4 F76006E2 		and	r6, r6, #247
 169 00b8 010056E3 		cmp	r6, #1
 170 00bc 1B00001A 		bne	.L78
 313:../src/tensorflow_lite/tensorflow/lite/micro/kernels/cmsis_nn/svdf.cc ****   const int batch_size = input->dims->data[0];
 171              		.loc 1 313 0
 172 00c0 083097E5 		ldr	r3, [r7, #8]
 173              	.LVL22:
 174              	.LBB162:
 175              	.LBB163:
 176              		.file 2 "C:/Renesas/e2studio_2021_01_workspace_RZA2M_ANPR/ANPR_RZA2M_GR_MANGO/src/tensorflow_lite/
   1:C:/Renesas/e2studio_2021_01_workspace_RZA2M_ANPR/ANPR_RZA2M_GR_MANGO/src/tensorflow_lite/tensorflow/lite/kernels\kernel_util.h **** /* Copyright 2017 The TensorFlow Authors. All Rights Reserved.
   2:C:/Renesas/e2studio_2021_01_workspace_RZA2M_ANPR/ANPR_RZA2M_GR_MANGO/src/tensorflow_lite/tensorflow/lite/kernels\kernel_util.h **** 
   3:C:/Renesas/e2studio_2021_01_workspace_RZA2M_ANPR/ANPR_RZA2M_GR_MANGO/src/tensorflow_lite/tensorflow/lite/kernels\kernel_util.h **** Licensed under the Apache License, Version 2.0 (the "License");
   4:C:/Renesas/e2studio_2021_01_workspace_RZA2M_ANPR/ANPR_RZA2M_GR_MANGO/src/tensorflow_lite/tensorflow/lite/kernels\kernel_util.h **** you may not use this file except in compliance with the License.
   5:C:/Renesas/e2studio_2021_01_workspace_RZA2M_ANPR/ANPR_RZA2M_GR_MANGO/src/tensorflow_lite/tensorflow/lite/kernels\kernel_util.h **** You may obtain a copy of the License at
   6:C:/Renesas/e2studio_2021_01_workspace_RZA2M_ANPR/ANPR_RZA2M_GR_MANGO/src/tensorflow_lite/tensorflow/lite/kernels\kernel_util.h **** 
   7:C:/Renesas/e2studio_2021_01_workspace_RZA2M_ANPR/ANPR_RZA2M_GR_MANGO/src/tensorflow_lite/tensorflow/lite/kernels\kernel_util.h ****     http://www.apache.org/licenses/LICENSE-2.0
   8:C:/Renesas/e2studio_2021_01_workspace_RZA2M_ANPR/ANPR_RZA2M_GR_MANGO/src/tensorflow_lite/tensorflow/lite/kernels\kernel_util.h **** 
   9:C:/Renesas/e2studio_2021_01_workspace_RZA2M_ANPR/ANPR_RZA2M_GR_MANGO/src/tensorflow_lite/tensorflow/lite/kernels\kernel_util.h **** Unless required by applicable law or agreed to in writing, software
  10:C:/Renesas/e2studio_2021_01_workspace_RZA2M_ANPR/ANPR_RZA2M_GR_MANGO/src/tensorflow_lite/tensorflow/lite/kernels\kernel_util.h **** distributed under the License is distributed on an "AS IS" BASIS,
  11:C:/Renesas/e2studio_2021_01_workspace_RZA2M_ANPR/ANPR_RZA2M_GR_MANGO/src/tensorflow_lite/tensorflow/lite/kernels\kernel_util.h **** WITHOUT WARRANTIES OR CONDITIONS OF ANY KIND, either express or implied.
  12:C:/Renesas/e2studio_2021_01_workspace_RZA2M_ANPR/ANPR_RZA2M_GR_MANGO/src/tensorflow_lite/tensorflow/lite/kernels\kernel_util.h **** See the License for the specific language governing permissions and
  13:C:/Renesas/e2studio_2021_01_workspace_RZA2M_ANPR/ANPR_RZA2M_GR_MANGO/src/tensorflow_lite/tensorflow/lite/kernels\kernel_util.h **** limitations under the License.
  14:C:/Renesas/e2studio_2021_01_workspace_RZA2M_ANPR/ANPR_RZA2M_GR_MANGO/src/tensorflow_lite/tensorflow/lite/kernels\kernel_util.h **** ==============================================================================*/
  15:C:/Renesas/e2studio_2021_01_workspace_RZA2M_ANPR/ANPR_RZA2M_GR_MANGO/src/tensorflow_lite/tensorflow/lite/kernels\kernel_util.h **** #ifndef TENSORFLOW_LITE_KERNELS_KERNEL_UTIL_H_
  16:C:/Renesas/e2studio_2021_01_workspace_RZA2M_ANPR/ANPR_RZA2M_GR_MANGO/src/tensorflow_lite/tensorflow/lite/kernels\kernel_util.h **** #define TENSORFLOW_LITE_KERNELS_KERNEL_UTIL_H_
  17:C:/Renesas/e2studio_2021_01_workspace_RZA2M_ANPR/ANPR_RZA2M_GR_MANGO/src/tensorflow_lite/tensorflow/lite/kernels\kernel_util.h **** 
  18:C:/Renesas/e2studio_2021_01_workspace_RZA2M_ANPR/ANPR_RZA2M_GR_MANGO/src/tensorflow_lite/tensorflow/lite/kernels\kernel_util.h **** #include <stdint.h>
  19:C:/Renesas/e2studio_2021_01_workspace_RZA2M_ANPR/ANPR_RZA2M_GR_MANGO/src/tensorflow_lite/tensorflow/lite/kernels\kernel_util.h **** 
  20:C:/Renesas/e2studio_2021_01_workspace_RZA2M_ANPR/ANPR_RZA2M_GR_MANGO/src/tensorflow_lite/tensorflow/lite/kernels\kernel_util.h **** #include <limits>
  21:C:/Renesas/e2studio_2021_01_workspace_RZA2M_ANPR/ANPR_RZA2M_GR_MANGO/src/tensorflow_lite/tensorflow/lite/kernels\kernel_util.h **** 
  22:C:/Renesas/e2studio_2021_01_workspace_RZA2M_ANPR/ANPR_RZA2M_GR_MANGO/src/tensorflow_lite/tensorflow/lite/kernels\kernel_util.h **** #include "tensorflow/lite/c/builtin_op_data.h"
  23:C:/Renesas/e2studio_2021_01_workspace_RZA2M_ANPR/ANPR_RZA2M_GR_MANGO/src/tensorflow_lite/tensorflow/lite/kernels\kernel_util.h **** #include "tensorflow/lite/c/common.h"
  24:C:/Renesas/e2studio_2021_01_workspace_RZA2M_ANPR/ANPR_RZA2M_GR_MANGO/src/tensorflow_lite/tensorflow/lite/kernels\kernel_util.h **** 
  25:C:/Renesas/e2studio_2021_01_workspace_RZA2M_ANPR/ANPR_RZA2M_GR_MANGO/src/tensorflow_lite/tensorflow/lite/kernels\kernel_util.h **** namespace tflite {
  26:C:/Renesas/e2studio_2021_01_workspace_RZA2M_ANPR/ANPR_RZA2M_GR_MANGO/src/tensorflow_lite/tensorflow/lite/kernels\kernel_util.h **** 
  27:C:/Renesas/e2studio_2021_01_workspace_RZA2M_ANPR/ANPR_RZA2M_GR_MANGO/src/tensorflow_lite/tensorflow/lite/kernels\kernel_util.h **** // A fair number of functions in this header have historically been inline.
  28:C:/Renesas/e2studio_2021_01_workspace_RZA2M_ANPR/ANPR_RZA2M_GR_MANGO/src/tensorflow_lite/tensorflow/lite/kernels\kernel_util.h **** // It is ok to change functions to not be inline if the latency with
  29:C:/Renesas/e2studio_2021_01_workspace_RZA2M_ANPR/ANPR_RZA2M_GR_MANGO/src/tensorflow_lite/tensorflow/lite/kernels\kernel_util.h **** // benchmark_model for MobileNet + MobileBERT is unaffected. If such a change is
  30:C:/Renesas/e2studio_2021_01_workspace_RZA2M_ANPR/ANPR_RZA2M_GR_MANGO/src/tensorflow_lite/tensorflow/lite/kernels\kernel_util.h **** // made, move the newly non-inlined function declarations to the top of this
  31:C:/Renesas/e2studio_2021_01_workspace_RZA2M_ANPR/ANPR_RZA2M_GR_MANGO/src/tensorflow_lite/tensorflow/lite/kernels\kernel_util.h **** // header file.
  32:C:/Renesas/e2studio_2021_01_workspace_RZA2M_ANPR/ANPR_RZA2M_GR_MANGO/src/tensorflow_lite/tensorflow/lite/kernels\kernel_util.h **** 
  33:C:/Renesas/e2studio_2021_01_workspace_RZA2M_ANPR/ANPR_RZA2M_GR_MANGO/src/tensorflow_lite/tensorflow/lite/kernels\kernel_util.h **** // Note: You must check if result is not null:
  34:C:/Renesas/e2studio_2021_01_workspace_RZA2M_ANPR/ANPR_RZA2M_GR_MANGO/src/tensorflow_lite/tensorflow/lite/kernels\kernel_util.h **** //
  35:C:/Renesas/e2studio_2021_01_workspace_RZA2M_ANPR/ANPR_RZA2M_GR_MANGO/src/tensorflow_lite/tensorflow/lite/kernels\kernel_util.h **** //   TfLiteTensor* my_tensor = GetInput(context, node, kMyTensorIdx);
  36:C:/Renesas/e2studio_2021_01_workspace_RZA2M_ANPR/ANPR_RZA2M_GR_MANGO/src/tensorflow_lite/tensorflow/lite/kernels\kernel_util.h **** //   TF_LITE_ENSURE(context, my_tensor != nullptr);
  37:C:/Renesas/e2studio_2021_01_workspace_RZA2M_ANPR/ANPR_RZA2M_GR_MANGO/src/tensorflow_lite/tensorflow/lite/kernels\kernel_util.h **** //
  38:C:/Renesas/e2studio_2021_01_workspace_RZA2M_ANPR/ANPR_RZA2M_GR_MANGO/src/tensorflow_lite/tensorflow/lite/kernels\kernel_util.h **** // This is because the index might point to the optional tensor constant
  39:C:/Renesas/e2studio_2021_01_workspace_RZA2M_ANPR/ANPR_RZA2M_GR_MANGO/src/tensorflow_lite/tensorflow/lite/kernels\kernel_util.h **** // (kTfLiteOptionalTensor) in which case there is no tensor to return.
  40:C:/Renesas/e2studio_2021_01_workspace_RZA2M_ANPR/ANPR_RZA2M_GR_MANGO/src/tensorflow_lite/tensorflow/lite/kernels\kernel_util.h **** const TfLiteTensor* GetInput(const TfLiteContext* context,
  41:C:/Renesas/e2studio_2021_01_workspace_RZA2M_ANPR/ANPR_RZA2M_GR_MANGO/src/tensorflow_lite/tensorflow/lite/kernels\kernel_util.h ****                              const TfLiteNode* node, int index);
  42:C:/Renesas/e2studio_2021_01_workspace_RZA2M_ANPR/ANPR_RZA2M_GR_MANGO/src/tensorflow_lite/tensorflow/lite/kernels\kernel_util.h **** 
  43:C:/Renesas/e2studio_2021_01_workspace_RZA2M_ANPR/ANPR_RZA2M_GR_MANGO/src/tensorflow_lite/tensorflow/lite/kernels\kernel_util.h **** // Same as `GetInput` but returns boolean and uses output argument for tensor.
  44:C:/Renesas/e2studio_2021_01_workspace_RZA2M_ANPR/ANPR_RZA2M_GR_MANGO/src/tensorflow_lite/tensorflow/lite/kernels\kernel_util.h **** //
  45:C:/Renesas/e2studio_2021_01_workspace_RZA2M_ANPR/ANPR_RZA2M_GR_MANGO/src/tensorflow_lite/tensorflow/lite/kernels\kernel_util.h **** //   TfLiteTensor* my_tensor;
  46:C:/Renesas/e2studio_2021_01_workspace_RZA2M_ANPR/ANPR_RZA2M_GR_MANGO/src/tensorflow_lite/tensorflow/lite/kernels\kernel_util.h **** //   TF_LITE_ENSURE_OK(context,
  47:C:/Renesas/e2studio_2021_01_workspace_RZA2M_ANPR/ANPR_RZA2M_GR_MANGO/src/tensorflow_lite/tensorflow/lite/kernels\kernel_util.h **** //                     GetInputSafe(context, node, kMyTensorIdx, &my_tensor));
  48:C:/Renesas/e2studio_2021_01_workspace_RZA2M_ANPR/ANPR_RZA2M_GR_MANGO/src/tensorflow_lite/tensorflow/lite/kernels\kernel_util.h **** //   // can use my_tensor directly from here onwards, it is not nullptr
  49:C:/Renesas/e2studio_2021_01_workspace_RZA2M_ANPR/ANPR_RZA2M_GR_MANGO/src/tensorflow_lite/tensorflow/lite/kernels\kernel_util.h **** //
  50:C:/Renesas/e2studio_2021_01_workspace_RZA2M_ANPR/ANPR_RZA2M_GR_MANGO/src/tensorflow_lite/tensorflow/lite/kernels\kernel_util.h **** // Should be used in cases where the binary size is too large.
  51:C:/Renesas/e2studio_2021_01_workspace_RZA2M_ANPR/ANPR_RZA2M_GR_MANGO/src/tensorflow_lite/tensorflow/lite/kernels\kernel_util.h **** TfLiteStatus GetInputSafe(const TfLiteContext* context, const TfLiteNode* node,
  52:C:/Renesas/e2studio_2021_01_workspace_RZA2M_ANPR/ANPR_RZA2M_GR_MANGO/src/tensorflow_lite/tensorflow/lite/kernels\kernel_util.h ****                           int index, const TfLiteTensor** tensor);
  53:C:/Renesas/e2studio_2021_01_workspace_RZA2M_ANPR/ANPR_RZA2M_GR_MANGO/src/tensorflow_lite/tensorflow/lite/kernels\kernel_util.h **** 
  54:C:/Renesas/e2studio_2021_01_workspace_RZA2M_ANPR/ANPR_RZA2M_GR_MANGO/src/tensorflow_lite/tensorflow/lite/kernels\kernel_util.h **** // Note: You must check if result is not null:
  55:C:/Renesas/e2studio_2021_01_workspace_RZA2M_ANPR/ANPR_RZA2M_GR_MANGO/src/tensorflow_lite/tensorflow/lite/kernels\kernel_util.h **** //
  56:C:/Renesas/e2studio_2021_01_workspace_RZA2M_ANPR/ANPR_RZA2M_GR_MANGO/src/tensorflow_lite/tensorflow/lite/kernels\kernel_util.h **** //   TfLiteTensor* my_tensor = GetVariableInput(context, node, kMyTensorIdx);
  57:C:/Renesas/e2studio_2021_01_workspace_RZA2M_ANPR/ANPR_RZA2M_GR_MANGO/src/tensorflow_lite/tensorflow/lite/kernels\kernel_util.h **** //   TF_LITE_ENSURE(context, my_tensor != nullptr);
  58:C:/Renesas/e2studio_2021_01_workspace_RZA2M_ANPR/ANPR_RZA2M_GR_MANGO/src/tensorflow_lite/tensorflow/lite/kernels\kernel_util.h **** //
  59:C:/Renesas/e2studio_2021_01_workspace_RZA2M_ANPR/ANPR_RZA2M_GR_MANGO/src/tensorflow_lite/tensorflow/lite/kernels\kernel_util.h **** // This is because the index might point to the optional tensor constant
  60:C:/Renesas/e2studio_2021_01_workspace_RZA2M_ANPR/ANPR_RZA2M_GR_MANGO/src/tensorflow_lite/tensorflow/lite/kernels\kernel_util.h **** // (kTfLiteOptionalTensor) in which case there is no tensor to return.
  61:C:/Renesas/e2studio_2021_01_workspace_RZA2M_ANPR/ANPR_RZA2M_GR_MANGO/src/tensorflow_lite/tensorflow/lite/kernels\kernel_util.h **** TfLiteTensor* GetVariableInput(TfLiteContext* context, const TfLiteNode* node,
  62:C:/Renesas/e2studio_2021_01_workspace_RZA2M_ANPR/ANPR_RZA2M_GR_MANGO/src/tensorflow_lite/tensorflow/lite/kernels\kernel_util.h ****                                int index);
  63:C:/Renesas/e2studio_2021_01_workspace_RZA2M_ANPR/ANPR_RZA2M_GR_MANGO/src/tensorflow_lite/tensorflow/lite/kernels\kernel_util.h **** 
  64:C:/Renesas/e2studio_2021_01_workspace_RZA2M_ANPR/ANPR_RZA2M_GR_MANGO/src/tensorflow_lite/tensorflow/lite/kernels\kernel_util.h **** // Note: You must check if result is not null:
  65:C:/Renesas/e2studio_2021_01_workspace_RZA2M_ANPR/ANPR_RZA2M_GR_MANGO/src/tensorflow_lite/tensorflow/lite/kernels\kernel_util.h **** //
  66:C:/Renesas/e2studio_2021_01_workspace_RZA2M_ANPR/ANPR_RZA2M_GR_MANGO/src/tensorflow_lite/tensorflow/lite/kernels\kernel_util.h **** //   TfLiteTensor* my_tensor = GetOutput(context, node, kMyTensorIdx);
  67:C:/Renesas/e2studio_2021_01_workspace_RZA2M_ANPR/ANPR_RZA2M_GR_MANGO/src/tensorflow_lite/tensorflow/lite/kernels\kernel_util.h **** //   TF_LITE_ENSURE(context, my_tensor != nullptr);
  68:C:/Renesas/e2studio_2021_01_workspace_RZA2M_ANPR/ANPR_RZA2M_GR_MANGO/src/tensorflow_lite/tensorflow/lite/kernels\kernel_util.h **** //
  69:C:/Renesas/e2studio_2021_01_workspace_RZA2M_ANPR/ANPR_RZA2M_GR_MANGO/src/tensorflow_lite/tensorflow/lite/kernels\kernel_util.h **** // This is because the index might point to the optional tensor constant
  70:C:/Renesas/e2studio_2021_01_workspace_RZA2M_ANPR/ANPR_RZA2M_GR_MANGO/src/tensorflow_lite/tensorflow/lite/kernels\kernel_util.h **** // (kTfLiteOptionalTensor) in which case there is no tensor to return.
  71:C:/Renesas/e2studio_2021_01_workspace_RZA2M_ANPR/ANPR_RZA2M_GR_MANGO/src/tensorflow_lite/tensorflow/lite/kernels\kernel_util.h **** TfLiteTensor* GetOutput(TfLiteContext* context, const TfLiteNode* node,
  72:C:/Renesas/e2studio_2021_01_workspace_RZA2M_ANPR/ANPR_RZA2M_GR_MANGO/src/tensorflow_lite/tensorflow/lite/kernels\kernel_util.h ****                         int index);
  73:C:/Renesas/e2studio_2021_01_workspace_RZA2M_ANPR/ANPR_RZA2M_GR_MANGO/src/tensorflow_lite/tensorflow/lite/kernels\kernel_util.h **** 
  74:C:/Renesas/e2studio_2021_01_workspace_RZA2M_ANPR/ANPR_RZA2M_GR_MANGO/src/tensorflow_lite/tensorflow/lite/kernels\kernel_util.h **** // Same as `GetOutput` but returns boolean and uses output argument for tensor.
  75:C:/Renesas/e2studio_2021_01_workspace_RZA2M_ANPR/ANPR_RZA2M_GR_MANGO/src/tensorflow_lite/tensorflow/lite/kernels\kernel_util.h **** //
  76:C:/Renesas/e2studio_2021_01_workspace_RZA2M_ANPR/ANPR_RZA2M_GR_MANGO/src/tensorflow_lite/tensorflow/lite/kernels\kernel_util.h **** //   TfLiteTensor* my_tensor;
  77:C:/Renesas/e2studio_2021_01_workspace_RZA2M_ANPR/ANPR_RZA2M_GR_MANGO/src/tensorflow_lite/tensorflow/lite/kernels\kernel_util.h **** //   TF_LITE_ENSURE_OK(context,
  78:C:/Renesas/e2studio_2021_01_workspace_RZA2M_ANPR/ANPR_RZA2M_GR_MANGO/src/tensorflow_lite/tensorflow/lite/kernels\kernel_util.h **** //                     GetOutputSafe(context, node, kMyTensorIdx, &my_tensor));
  79:C:/Renesas/e2studio_2021_01_workspace_RZA2M_ANPR/ANPR_RZA2M_GR_MANGO/src/tensorflow_lite/tensorflow/lite/kernels\kernel_util.h **** //   // can use my_tensor directly from here onwards, it is not nullptr
  80:C:/Renesas/e2studio_2021_01_workspace_RZA2M_ANPR/ANPR_RZA2M_GR_MANGO/src/tensorflow_lite/tensorflow/lite/kernels\kernel_util.h **** //
  81:C:/Renesas/e2studio_2021_01_workspace_RZA2M_ANPR/ANPR_RZA2M_GR_MANGO/src/tensorflow_lite/tensorflow/lite/kernels\kernel_util.h **** // Should be used in cases where the binary size is too large.
  82:C:/Renesas/e2studio_2021_01_workspace_RZA2M_ANPR/ANPR_RZA2M_GR_MANGO/src/tensorflow_lite/tensorflow/lite/kernels\kernel_util.h **** TfLiteStatus GetOutputSafe(const TfLiteContext* context, const TfLiteNode* node,
  83:C:/Renesas/e2studio_2021_01_workspace_RZA2M_ANPR/ANPR_RZA2M_GR_MANGO/src/tensorflow_lite/tensorflow/lite/kernels\kernel_util.h ****                            int index, TfLiteTensor** tensor);
  84:C:/Renesas/e2studio_2021_01_workspace_RZA2M_ANPR/ANPR_RZA2M_GR_MANGO/src/tensorflow_lite/tensorflow/lite/kernels\kernel_util.h **** 
  85:C:/Renesas/e2studio_2021_01_workspace_RZA2M_ANPR/ANPR_RZA2M_GR_MANGO/src/tensorflow_lite/tensorflow/lite/kernels\kernel_util.h **** // Note: You must check if result is not null:
  86:C:/Renesas/e2studio_2021_01_workspace_RZA2M_ANPR/ANPR_RZA2M_GR_MANGO/src/tensorflow_lite/tensorflow/lite/kernels\kernel_util.h **** //
  87:C:/Renesas/e2studio_2021_01_workspace_RZA2M_ANPR/ANPR_RZA2M_GR_MANGO/src/tensorflow_lite/tensorflow/lite/kernels\kernel_util.h **** //   TfLiteTensor* my_tensor = GetOptionalInputTensor(context, node, kIdx);
  88:C:/Renesas/e2studio_2021_01_workspace_RZA2M_ANPR/ANPR_RZA2M_GR_MANGO/src/tensorflow_lite/tensorflow/lite/kernels\kernel_util.h **** //   TF_LITE_ENSURE(context, my_tensor != nullptr);
  89:C:/Renesas/e2studio_2021_01_workspace_RZA2M_ANPR/ANPR_RZA2M_GR_MANGO/src/tensorflow_lite/tensorflow/lite/kernels\kernel_util.h **** //
  90:C:/Renesas/e2studio_2021_01_workspace_RZA2M_ANPR/ANPR_RZA2M_GR_MANGO/src/tensorflow_lite/tensorflow/lite/kernels\kernel_util.h **** // This is because the index might point to the optional tensor constant
  91:C:/Renesas/e2studio_2021_01_workspace_RZA2M_ANPR/ANPR_RZA2M_GR_MANGO/src/tensorflow_lite/tensorflow/lite/kernels\kernel_util.h **** // (kTfLiteOptionalTensor) in which case there is no tensor to return.
  92:C:/Renesas/e2studio_2021_01_workspace_RZA2M_ANPR/ANPR_RZA2M_GR_MANGO/src/tensorflow_lite/tensorflow/lite/kernels\kernel_util.h **** //
  93:C:/Renesas/e2studio_2021_01_workspace_RZA2M_ANPR/ANPR_RZA2M_GR_MANGO/src/tensorflow_lite/tensorflow/lite/kernels\kernel_util.h **** // Deprecated. GetInput has the same functionality.
  94:C:/Renesas/e2studio_2021_01_workspace_RZA2M_ANPR/ANPR_RZA2M_GR_MANGO/src/tensorflow_lite/tensorflow/lite/kernels\kernel_util.h **** const TfLiteTensor* GetOptionalInputTensor(const TfLiteContext* context,
  95:C:/Renesas/e2studio_2021_01_workspace_RZA2M_ANPR/ANPR_RZA2M_GR_MANGO/src/tensorflow_lite/tensorflow/lite/kernels\kernel_util.h ****                                            const TfLiteNode* node, int index);
  96:C:/Renesas/e2studio_2021_01_workspace_RZA2M_ANPR/ANPR_RZA2M_GR_MANGO/src/tensorflow_lite/tensorflow/lite/kernels\kernel_util.h **** 
  97:C:/Renesas/e2studio_2021_01_workspace_RZA2M_ANPR/ANPR_RZA2M_GR_MANGO/src/tensorflow_lite/tensorflow/lite/kernels\kernel_util.h **** #ifndef TF_LITE_STATIC_MEMORY
  98:C:/Renesas/e2studio_2021_01_workspace_RZA2M_ANPR/ANPR_RZA2M_GR_MANGO/src/tensorflow_lite/tensorflow/lite/kernels\kernel_util.h **** // Note: You must check if result is not null:
  99:C:/Renesas/e2studio_2021_01_workspace_RZA2M_ANPR/ANPR_RZA2M_GR_MANGO/src/tensorflow_lite/tensorflow/lite/kernels\kernel_util.h **** //
 100:C:/Renesas/e2studio_2021_01_workspace_RZA2M_ANPR/ANPR_RZA2M_GR_MANGO/src/tensorflow_lite/tensorflow/lite/kernels\kernel_util.h **** //   TfLiteTensor* my_tensor = GetTemporary(context, node, kMyTensorIdx);
 101:C:/Renesas/e2studio_2021_01_workspace_RZA2M_ANPR/ANPR_RZA2M_GR_MANGO/src/tensorflow_lite/tensorflow/lite/kernels\kernel_util.h **** //   TF_LITE_ENSURE(context, my_tensor != nullptr);
 102:C:/Renesas/e2studio_2021_01_workspace_RZA2M_ANPR/ANPR_RZA2M_GR_MANGO/src/tensorflow_lite/tensorflow/lite/kernels\kernel_util.h **** //
 103:C:/Renesas/e2studio_2021_01_workspace_RZA2M_ANPR/ANPR_RZA2M_GR_MANGO/src/tensorflow_lite/tensorflow/lite/kernels\kernel_util.h **** // This is because the index might point to the optional tensor constant
 104:C:/Renesas/e2studio_2021_01_workspace_RZA2M_ANPR/ANPR_RZA2M_GR_MANGO/src/tensorflow_lite/tensorflow/lite/kernels\kernel_util.h **** // (kTfLiteOptionalTensor) in which case there is no tensor to return.
 105:C:/Renesas/e2studio_2021_01_workspace_RZA2M_ANPR/ANPR_RZA2M_GR_MANGO/src/tensorflow_lite/tensorflow/lite/kernels\kernel_util.h **** TfLiteTensor* GetTemporary(TfLiteContext* context, const TfLiteNode* node,
 106:C:/Renesas/e2studio_2021_01_workspace_RZA2M_ANPR/ANPR_RZA2M_GR_MANGO/src/tensorflow_lite/tensorflow/lite/kernels\kernel_util.h ****                            int index);
 107:C:/Renesas/e2studio_2021_01_workspace_RZA2M_ANPR/ANPR_RZA2M_GR_MANGO/src/tensorflow_lite/tensorflow/lite/kernels\kernel_util.h **** 
 108:C:/Renesas/e2studio_2021_01_workspace_RZA2M_ANPR/ANPR_RZA2M_GR_MANGO/src/tensorflow_lite/tensorflow/lite/kernels\kernel_util.h **** // Same as `GetTemporary` but returns boolean and uses output argument for
 109:C:/Renesas/e2studio_2021_01_workspace_RZA2M_ANPR/ANPR_RZA2M_GR_MANGO/src/tensorflow_lite/tensorflow/lite/kernels\kernel_util.h **** // tensor.
 110:C:/Renesas/e2studio_2021_01_workspace_RZA2M_ANPR/ANPR_RZA2M_GR_MANGO/src/tensorflow_lite/tensorflow/lite/kernels\kernel_util.h **** //
 111:C:/Renesas/e2studio_2021_01_workspace_RZA2M_ANPR/ANPR_RZA2M_GR_MANGO/src/tensorflow_lite/tensorflow/lite/kernels\kernel_util.h **** //   TfLiteTensor* my_tensor;
 112:C:/Renesas/e2studio_2021_01_workspace_RZA2M_ANPR/ANPR_RZA2M_GR_MANGO/src/tensorflow_lite/tensorflow/lite/kernels\kernel_util.h **** //   TF_LITE_ENSURE_OK(context,
 113:C:/Renesas/e2studio_2021_01_workspace_RZA2M_ANPR/ANPR_RZA2M_GR_MANGO/src/tensorflow_lite/tensorflow/lite/kernels\kernel_util.h **** //                     GetTemporarySafe(context, node, kMyTensorIdx,
 114:C:/Renesas/e2studio_2021_01_workspace_RZA2M_ANPR/ANPR_RZA2M_GR_MANGO/src/tensorflow_lite/tensorflow/lite/kernels\kernel_util.h **** //                     &my_tensor));
 115:C:/Renesas/e2studio_2021_01_workspace_RZA2M_ANPR/ANPR_RZA2M_GR_MANGO/src/tensorflow_lite/tensorflow/lite/kernels\kernel_util.h **** //   // can use my_tensor directly from here onwards, it is not nullptr
 116:C:/Renesas/e2studio_2021_01_workspace_RZA2M_ANPR/ANPR_RZA2M_GR_MANGO/src/tensorflow_lite/tensorflow/lite/kernels\kernel_util.h **** //
 117:C:/Renesas/e2studio_2021_01_workspace_RZA2M_ANPR/ANPR_RZA2M_GR_MANGO/src/tensorflow_lite/tensorflow/lite/kernels\kernel_util.h **** // Should be used in cases where the binary size is too large.
 118:C:/Renesas/e2studio_2021_01_workspace_RZA2M_ANPR/ANPR_RZA2M_GR_MANGO/src/tensorflow_lite/tensorflow/lite/kernels\kernel_util.h **** TfLiteStatus GetTemporarySafe(const TfLiteContext* context,
 119:C:/Renesas/e2studio_2021_01_workspace_RZA2M_ANPR/ANPR_RZA2M_GR_MANGO/src/tensorflow_lite/tensorflow/lite/kernels\kernel_util.h ****                               const TfLiteNode* node, int index,
 120:C:/Renesas/e2studio_2021_01_workspace_RZA2M_ANPR/ANPR_RZA2M_GR_MANGO/src/tensorflow_lite/tensorflow/lite/kernels\kernel_util.h ****                               TfLiteTensor** tensor);
 121:C:/Renesas/e2studio_2021_01_workspace_RZA2M_ANPR/ANPR_RZA2M_GR_MANGO/src/tensorflow_lite/tensorflow/lite/kernels\kernel_util.h **** 
 122:C:/Renesas/e2studio_2021_01_workspace_RZA2M_ANPR/ANPR_RZA2M_GR_MANGO/src/tensorflow_lite/tensorflow/lite/kernels\kernel_util.h **** // Note: You must check if result is not null:
 123:C:/Renesas/e2studio_2021_01_workspace_RZA2M_ANPR/ANPR_RZA2M_GR_MANGO/src/tensorflow_lite/tensorflow/lite/kernels\kernel_util.h **** //
 124:C:/Renesas/e2studio_2021_01_workspace_RZA2M_ANPR/ANPR_RZA2M_GR_MANGO/src/tensorflow_lite/tensorflow/lite/kernels\kernel_util.h **** //   TfLiteTensor* my_tensor = GetIntermediates(context, node, kMyTensorIdx);
 125:C:/Renesas/e2studio_2021_01_workspace_RZA2M_ANPR/ANPR_RZA2M_GR_MANGO/src/tensorflow_lite/tensorflow/lite/kernels\kernel_util.h **** //   TF_LITE_ENSURE(context, my_tensor != nullptr);
 126:C:/Renesas/e2studio_2021_01_workspace_RZA2M_ANPR/ANPR_RZA2M_GR_MANGO/src/tensorflow_lite/tensorflow/lite/kernels\kernel_util.h **** //
 127:C:/Renesas/e2studio_2021_01_workspace_RZA2M_ANPR/ANPR_RZA2M_GR_MANGO/src/tensorflow_lite/tensorflow/lite/kernels\kernel_util.h **** // This is because the index might point to the optional tensor constant
 128:C:/Renesas/e2studio_2021_01_workspace_RZA2M_ANPR/ANPR_RZA2M_GR_MANGO/src/tensorflow_lite/tensorflow/lite/kernels\kernel_util.h **** // (kTfLiteOptionalTensor) in which case there is no tensor to return.
 129:C:/Renesas/e2studio_2021_01_workspace_RZA2M_ANPR/ANPR_RZA2M_GR_MANGO/src/tensorflow_lite/tensorflow/lite/kernels\kernel_util.h **** const TfLiteTensor* GetIntermediates(TfLiteContext* context,
 130:C:/Renesas/e2studio_2021_01_workspace_RZA2M_ANPR/ANPR_RZA2M_GR_MANGO/src/tensorflow_lite/tensorflow/lite/kernels\kernel_util.h ****                                      const TfLiteNode* node, int index);
 131:C:/Renesas/e2studio_2021_01_workspace_RZA2M_ANPR/ANPR_RZA2M_GR_MANGO/src/tensorflow_lite/tensorflow/lite/kernels\kernel_util.h **** 
 132:C:/Renesas/e2studio_2021_01_workspace_RZA2M_ANPR/ANPR_RZA2M_GR_MANGO/src/tensorflow_lite/tensorflow/lite/kernels\kernel_util.h **** // Same as `GetIntermediates` but returns boolean and uses output argument for
 133:C:/Renesas/e2studio_2021_01_workspace_RZA2M_ANPR/ANPR_RZA2M_GR_MANGO/src/tensorflow_lite/tensorflow/lite/kernels\kernel_util.h **** // tensor.
 134:C:/Renesas/e2studio_2021_01_workspace_RZA2M_ANPR/ANPR_RZA2M_GR_MANGO/src/tensorflow_lite/tensorflow/lite/kernels\kernel_util.h **** //
 135:C:/Renesas/e2studio_2021_01_workspace_RZA2M_ANPR/ANPR_RZA2M_GR_MANGO/src/tensorflow_lite/tensorflow/lite/kernels\kernel_util.h **** //   TfLiteTensor* my_tensor;
 136:C:/Renesas/e2studio_2021_01_workspace_RZA2M_ANPR/ANPR_RZA2M_GR_MANGO/src/tensorflow_lite/tensorflow/lite/kernels\kernel_util.h **** //   TF_LITE_ENSURE_OK(context,
 137:C:/Renesas/e2studio_2021_01_workspace_RZA2M_ANPR/ANPR_RZA2M_GR_MANGO/src/tensorflow_lite/tensorflow/lite/kernels\kernel_util.h **** //                     GetIntermediatesSafe(context, node, kMyTensorIdx,
 138:C:/Renesas/e2studio_2021_01_workspace_RZA2M_ANPR/ANPR_RZA2M_GR_MANGO/src/tensorflow_lite/tensorflow/lite/kernels\kernel_util.h **** //                     &my_tensor));
 139:C:/Renesas/e2studio_2021_01_workspace_RZA2M_ANPR/ANPR_RZA2M_GR_MANGO/src/tensorflow_lite/tensorflow/lite/kernels\kernel_util.h **** //   // can use my_tensor directly from here onwards, it is not nullptr
 140:C:/Renesas/e2studio_2021_01_workspace_RZA2M_ANPR/ANPR_RZA2M_GR_MANGO/src/tensorflow_lite/tensorflow/lite/kernels\kernel_util.h **** //
 141:C:/Renesas/e2studio_2021_01_workspace_RZA2M_ANPR/ANPR_RZA2M_GR_MANGO/src/tensorflow_lite/tensorflow/lite/kernels\kernel_util.h **** // Should be used in cases where the binary size is too large.
 142:C:/Renesas/e2studio_2021_01_workspace_RZA2M_ANPR/ANPR_RZA2M_GR_MANGO/src/tensorflow_lite/tensorflow/lite/kernels\kernel_util.h **** TfLiteStatus GetIntermediatesSafe(const TfLiteContext* context,
 143:C:/Renesas/e2studio_2021_01_workspace_RZA2M_ANPR/ANPR_RZA2M_GR_MANGO/src/tensorflow_lite/tensorflow/lite/kernels\kernel_util.h ****                                   const TfLiteNode* node, int index,
 144:C:/Renesas/e2studio_2021_01_workspace_RZA2M_ANPR/ANPR_RZA2M_GR_MANGO/src/tensorflow_lite/tensorflow/lite/kernels\kernel_util.h ****                                   TfLiteTensor** tensor);
 145:C:/Renesas/e2studio_2021_01_workspace_RZA2M_ANPR/ANPR_RZA2M_GR_MANGO/src/tensorflow_lite/tensorflow/lite/kernels\kernel_util.h **** #endif  // TF_LITE_STATIC_MEMORY
 146:C:/Renesas/e2studio_2021_01_workspace_RZA2M_ANPR/ANPR_RZA2M_GR_MANGO/src/tensorflow_lite/tensorflow/lite/kernels\kernel_util.h **** 
 147:C:/Renesas/e2studio_2021_01_workspace_RZA2M_ANPR/ANPR_RZA2M_GR_MANGO/src/tensorflow_lite/tensorflow/lite/kernels\kernel_util.h **** inline int NumDimensions(const TfLiteTensor* t) { return t->dims->size; }
 177              		.loc 2 147 0
 178 00c4 000093E5 		ldr	r0, [r3]
 179              	.LBE163:
 180              	.LBE162:
 322:../src/tensorflow_lite/tensorflow/lite/micro/kernels/cmsis_nn/svdf.cc ****                  input->type == kTfLiteFloat32 || input->type == kTfLiteInt8);
 323:../src/tensorflow_lite/tensorflow/lite/micro/kernels/cmsis_nn/svdf.cc ****   TF_LITE_ENSURE_EQ(context, NumDimensions(input), 2);
 181              		.loc 1 323 0
 182 00c8 020050E3 		cmp	r0, #2
 183 00cc 9800001A 		bne	.L79
 324:../src/tensorflow_lite/tensorflow/lite/micro/kernels/cmsis_nn/svdf.cc **** 
 325:../src/tensorflow_lite/tensorflow/lite/micro/kernels/cmsis_nn/svdf.cc ****   // Validate Tensor Output:
 326:../src/tensorflow_lite/tensorflow/lite/micro/kernels/cmsis_nn/svdf.cc ****   // [0] = float/int8, {2, batch_size, num_units}
 327:../src/tensorflow_lite/tensorflow/lite/micro/kernels/cmsis_nn/svdf.cc ****   TF_LITE_ENSURE_EQ(context, node->outputs->size, 1);
 184              		.loc 1 327 0
 185 00d0 042095E5 		ldr	r2, [r5, #4]
 186 00d4 000092E5 		ldr	r0, [r2]
 187 00d8 010050E3 		cmp	r0, #1
 188 00dc 2200000A 		beq	.L18
 189              		.loc 1 327 0 is_stmt 0 discriminator 1
 190 00e0 00C000E3 		movw	ip, #:lower16:.LC13
 191 00e4 003000E3 		movw	r3, #:lower16:.LC14
 192 00e8 00C040E3 		movt	ip, #:upper16:.LC13
 193 00ec 003040E3 		movt	r3, #:upper16:.LC14
 194 00f0 002000E3 		movw	r2, #:lower16:.LC1
 195 00f4 001000E3 		movw	r1, #:lower16:.LC7
 196 00f8 08008DE5 		str	r0, [sp, #8]
 197              	.LVL23:
 198 00fc 002040E3 		movt	r2, #:upper16:.LC1
 199 0100 0400A0E1 		mov	r0, r4
 200 0104 00308DE5 		str	r3, [sp]
 201 0108 0C608DE5 		str	r6, [sp, #12]
 202 010c 001040E3 		movt	r1, #:upper16:.LC7
 203 0110 04C08DE5 		str	ip, [sp, #4]
 204 0114 473100E3 		movw	r3, #327
 205 0118 144094E5 		ldr	r4, [r4, #20]
 206              	.LVL24:
 207 011c 34FF2FE1 		blx	r4
 208              	.LVL25:
 209 0120 0600A0E1 		mov	r0, r6
 210              	.LVL26:
 211              	.L11:
 328:../src/tensorflow_lite/tensorflow/lite/micro/kernels/cmsis_nn/svdf.cc ****   TfLiteTensor* output = GetOutput(context, node, kOutputTensor);
 329:../src/tensorflow_lite/tensorflow/lite/micro/kernels/cmsis_nn/svdf.cc ****   TF_LITE_ENSURE_EQ(context, NumDimensions(output), 2);
 330:../src/tensorflow_lite/tensorflow/lite/micro/kernels/cmsis_nn/svdf.cc ****   TF_LITE_ENSURE_EQ(context, output->dims->data[0], batch_size);
 331:../src/tensorflow_lite/tensorflow/lite/micro/kernels/cmsis_nn/svdf.cc ****   TF_LITE_ENSURE_EQ(context, output->dims->data[1], num_units);
 332:../src/tensorflow_lite/tensorflow/lite/micro/kernels/cmsis_nn/svdf.cc **** 
 333:../src/tensorflow_lite/tensorflow/lite/micro/kernels/cmsis_nn/svdf.cc ****   // Validate Weights Feature Input Tensor:
 334:../src/tensorflow_lite/tensorflow/lite/micro/kernels/cmsis_nn/svdf.cc ****   TF_LITE_ENSURE_EQ(context, NumDimensions(weights_feature), 2);
 335:../src/tensorflow_lite/tensorflow/lite/micro/kernels/cmsis_nn/svdf.cc ****   TF_LITE_ENSURE_EQ(context, weights_feature->dims->data[1], input_size);
 336:../src/tensorflow_lite/tensorflow/lite/micro/kernels/cmsis_nn/svdf.cc **** 
 337:../src/tensorflow_lite/tensorflow/lite/micro/kernels/cmsis_nn/svdf.cc ****   // Validate Weights Time Input Tensor:
 338:../src/tensorflow_lite/tensorflow/lite/micro/kernels/cmsis_nn/svdf.cc ****   TF_LITE_ENSURE_EQ(context, NumDimensions(weights_time), 2);
 339:../src/tensorflow_lite/tensorflow/lite/micro/kernels/cmsis_nn/svdf.cc ****   TF_LITE_ENSURE_EQ(context, weights_time->dims->data[0], num_filters);
 340:../src/tensorflow_lite/tensorflow/lite/micro/kernels/cmsis_nn/svdf.cc ****   TF_LITE_ENSURE_EQ(context, weights_time->dims->data[1], memory_size);
 341:../src/tensorflow_lite/tensorflow/lite/micro/kernels/cmsis_nn/svdf.cc **** 
 342:../src/tensorflow_lite/tensorflow/lite/micro/kernels/cmsis_nn/svdf.cc ****   // Validate Optional Bias Input Tensor:
 343:../src/tensorflow_lite/tensorflow/lite/micro/kernels/cmsis_nn/svdf.cc ****   if (bias != nullptr) {
 344:../src/tensorflow_lite/tensorflow/lite/micro/kernels/cmsis_nn/svdf.cc ****     TF_LITE_ENSURE_EQ(context, bias->dims->data[0], num_units);
 345:../src/tensorflow_lite/tensorflow/lite/micro/kernels/cmsis_nn/svdf.cc ****   }
 346:../src/tensorflow_lite/tensorflow/lite/micro/kernels/cmsis_nn/svdf.cc **** 
 347:../src/tensorflow_lite/tensorflow/lite/micro/kernels/cmsis_nn/svdf.cc ****   // Validate Activation State Input Tensor:
 348:../src/tensorflow_lite/tensorflow/lite/micro/kernels/cmsis_nn/svdf.cc ****   TF_LITE_ENSURE_EQ(context, NumDimensions(activation_state), 2);
 349:../src/tensorflow_lite/tensorflow/lite/micro/kernels/cmsis_nn/svdf.cc ****   TF_LITE_ENSURE_EQ(context, activation_state->dims->data[0], batch_size);
 350:../src/tensorflow_lite/tensorflow/lite/micro/kernels/cmsis_nn/svdf.cc ****   TF_LITE_ENSURE_EQ(context, activation_state->dims->data[1],
 351:../src/tensorflow_lite/tensorflow/lite/micro/kernels/cmsis_nn/svdf.cc ****                     memory_size * num_filters);
 352:../src/tensorflow_lite/tensorflow/lite/micro/kernels/cmsis_nn/svdf.cc ****   // Since is_variable is not part of TFLiteEvalTensor, check is_variable here.
 353:../src/tensorflow_lite/tensorflow/lite/micro/kernels/cmsis_nn/svdf.cc ****   TF_LITE_ENSURE_EQ(context, activation_state->is_variable, true);
 354:../src/tensorflow_lite/tensorflow/lite/micro/kernels/cmsis_nn/svdf.cc **** 
 355:../src/tensorflow_lite/tensorflow/lite/micro/kernels/cmsis_nn/svdf.cc ****   TF_LITE_ENSURE_EQ(context, node->inputs->size, 5);
 356:../src/tensorflow_lite/tensorflow/lite/micro/kernels/cmsis_nn/svdf.cc **** 
 357:../src/tensorflow_lite/tensorflow/lite/micro/kernels/cmsis_nn/svdf.cc ****   TFLITE_DCHECK(node->user_data != nullptr);
 358:../src/tensorflow_lite/tensorflow/lite/micro/kernels/cmsis_nn/svdf.cc ****   OpData* data = static_cast<OpData*>(node->user_data);
 359:../src/tensorflow_lite/tensorflow/lite/micro/kernels/cmsis_nn/svdf.cc **** 
 360:../src/tensorflow_lite/tensorflow/lite/micro/kernels/cmsis_nn/svdf.cc ****   if (input->type == kTfLiteInt8) {
 361:../src/tensorflow_lite/tensorflow/lite/micro/kernels/cmsis_nn/svdf.cc ****     TF_LITE_ENSURE_EQ(context, weights_feature->type, kTfLiteInt8);
 362:../src/tensorflow_lite/tensorflow/lite/micro/kernels/cmsis_nn/svdf.cc ****     TF_LITE_ENSURE_EQ(context, weights_time->type, kTfLiteInt16);
 363:../src/tensorflow_lite/tensorflow/lite/micro/kernels/cmsis_nn/svdf.cc ****     TF_LITE_ENSURE_EQ(context, activation_state->type, kTfLiteInt16);
 364:../src/tensorflow_lite/tensorflow/lite/micro/kernels/cmsis_nn/svdf.cc ****     if (bias != nullptr) {
 365:../src/tensorflow_lite/tensorflow/lite/micro/kernels/cmsis_nn/svdf.cc ****       TF_LITE_ENSURE_EQ(context, bias->type, kTfLiteInt32);
 366:../src/tensorflow_lite/tensorflow/lite/micro/kernels/cmsis_nn/svdf.cc ****     }
 367:../src/tensorflow_lite/tensorflow/lite/micro/kernels/cmsis_nn/svdf.cc **** 
 368:../src/tensorflow_lite/tensorflow/lite/micro/kernels/cmsis_nn/svdf.cc ****     TF_LITE_ENSURE_TYPES_EQ(context, output->type, kTfLiteInt8);
 369:../src/tensorflow_lite/tensorflow/lite/micro/kernels/cmsis_nn/svdf.cc **** 
 370:../src/tensorflow_lite/tensorflow/lite/micro/kernels/cmsis_nn/svdf.cc ****     const double effective_scale_1 = static_cast<double>(
 371:../src/tensorflow_lite/tensorflow/lite/micro/kernels/cmsis_nn/svdf.cc ****         input->params.scale * weights_feature->params.scale /
 372:../src/tensorflow_lite/tensorflow/lite/micro/kernels/cmsis_nn/svdf.cc ****         activation_state->params.scale);
 373:../src/tensorflow_lite/tensorflow/lite/micro/kernels/cmsis_nn/svdf.cc ****     const double effective_scale_2 =
 374:../src/tensorflow_lite/tensorflow/lite/micro/kernels/cmsis_nn/svdf.cc ****         static_cast<double>(activation_state->params.scale *
 375:../src/tensorflow_lite/tensorflow/lite/micro/kernels/cmsis_nn/svdf.cc ****                             weights_time->params.scale / output->params.scale);
 376:../src/tensorflow_lite/tensorflow/lite/micro/kernels/cmsis_nn/svdf.cc **** 
 377:../src/tensorflow_lite/tensorflow/lite/micro/kernels/cmsis_nn/svdf.cc ****     // TODO(b/162018098): Use TF_LITE_ENSURE_NEAR when it is ready.
 378:../src/tensorflow_lite/tensorflow/lite/micro/kernels/cmsis_nn/svdf.cc ****     TF_LITE_ENSURE(
 379:../src/tensorflow_lite/tensorflow/lite/micro/kernels/cmsis_nn/svdf.cc ****         context,
 380:../src/tensorflow_lite/tensorflow/lite/micro/kernels/cmsis_nn/svdf.cc ****         std::abs(static_cast<double>(bias->params.scale) -
 381:../src/tensorflow_lite/tensorflow/lite/micro/kernels/cmsis_nn/svdf.cc ****                  static_cast<double>(activation_state->params.scale *
 382:../src/tensorflow_lite/tensorflow/lite/micro/kernels/cmsis_nn/svdf.cc ****                                      weights_time->params.scale)) < 1e-5);
 383:../src/tensorflow_lite/tensorflow/lite/micro/kernels/cmsis_nn/svdf.cc **** 
 384:../src/tensorflow_lite/tensorflow/lite/micro/kernels/cmsis_nn/svdf.cc ****     QuantizeMultiplier(effective_scale_1, &(data->effective_scale_1_a),
 385:../src/tensorflow_lite/tensorflow/lite/micro/kernels/cmsis_nn/svdf.cc ****                        &(data->effective_scale_1_b));
 386:../src/tensorflow_lite/tensorflow/lite/micro/kernels/cmsis_nn/svdf.cc ****     QuantizeMultiplier(effective_scale_2, &(data->effective_scale_2_a),
 387:../src/tensorflow_lite/tensorflow/lite/micro/kernels/cmsis_nn/svdf.cc ****                        &(data->effective_scale_2_b));
 388:../src/tensorflow_lite/tensorflow/lite/micro/kernels/cmsis_nn/svdf.cc **** 
 389:../src/tensorflow_lite/tensorflow/lite/micro/kernels/cmsis_nn/svdf.cc ****     data->input_zero_point = input->params.zero_point;
 390:../src/tensorflow_lite/tensorflow/lite/micro/kernels/cmsis_nn/svdf.cc ****     data->output_zero_point = output->params.zero_point;
 391:../src/tensorflow_lite/tensorflow/lite/micro/kernels/cmsis_nn/svdf.cc **** 
 392:../src/tensorflow_lite/tensorflow/lite/micro/kernels/cmsis_nn/svdf.cc ****     TFLITE_DCHECK(context->RequestScratchBufferInArena != nullptr);
 393:../src/tensorflow_lite/tensorflow/lite/micro/kernels/cmsis_nn/svdf.cc **** 
 394:../src/tensorflow_lite/tensorflow/lite/micro/kernels/cmsis_nn/svdf.cc ****     const TfLiteStatus scratch_status = context->RequestScratchBufferInArena(
 395:../src/tensorflow_lite/tensorflow/lite/micro/kernels/cmsis_nn/svdf.cc ****         context, batch_size * num_filters * sizeof(int32_t),
 396:../src/tensorflow_lite/tensorflow/lite/micro/kernels/cmsis_nn/svdf.cc ****         &(data->scratch_tensor_index));
 397:../src/tensorflow_lite/tensorflow/lite/micro/kernels/cmsis_nn/svdf.cc ****     TF_LITE_ENSURE_OK(context, scratch_status);
 398:../src/tensorflow_lite/tensorflow/lite/micro/kernels/cmsis_nn/svdf.cc **** 
 399:../src/tensorflow_lite/tensorflow/lite/micro/kernels/cmsis_nn/svdf.cc ****     const TfLiteStatus scratch_output_status =
 400:../src/tensorflow_lite/tensorflow/lite/micro/kernels/cmsis_nn/svdf.cc ****         context->RequestScratchBufferInArena(
 401:../src/tensorflow_lite/tensorflow/lite/micro/kernels/cmsis_nn/svdf.cc ****             context, batch_size * num_units * sizeof(int32_t),
 402:../src/tensorflow_lite/tensorflow/lite/micro/kernels/cmsis_nn/svdf.cc ****             &(data->scratch_output_tensor_index));
 403:../src/tensorflow_lite/tensorflow/lite/micro/kernels/cmsis_nn/svdf.cc ****     TF_LITE_ENSURE_OK(context, scratch_output_status);
 404:../src/tensorflow_lite/tensorflow/lite/micro/kernels/cmsis_nn/svdf.cc ****   } else {
 405:../src/tensorflow_lite/tensorflow/lite/micro/kernels/cmsis_nn/svdf.cc ****     TF_LITE_ENSURE_EQ(context, weights_feature->type, kTfLiteFloat32);
 406:../src/tensorflow_lite/tensorflow/lite/micro/kernels/cmsis_nn/svdf.cc ****     TF_LITE_ENSURE_EQ(context, weights_time->type, kTfLiteFloat32);
 407:../src/tensorflow_lite/tensorflow/lite/micro/kernels/cmsis_nn/svdf.cc ****     TF_LITE_ENSURE_EQ(context, activation_state->type, kTfLiteFloat32);
 408:../src/tensorflow_lite/tensorflow/lite/micro/kernels/cmsis_nn/svdf.cc ****     if (bias != nullptr) {
 409:../src/tensorflow_lite/tensorflow/lite/micro/kernels/cmsis_nn/svdf.cc ****       TF_LITE_ENSURE_EQ(context, bias->type, kTfLiteFloat32);
 410:../src/tensorflow_lite/tensorflow/lite/micro/kernels/cmsis_nn/svdf.cc ****     }
 411:../src/tensorflow_lite/tensorflow/lite/micro/kernels/cmsis_nn/svdf.cc ****     TF_LITE_ENSURE_TYPES_EQ(context, output->type, kTfLiteFloat32);
 412:../src/tensorflow_lite/tensorflow/lite/micro/kernels/cmsis_nn/svdf.cc **** 
 413:../src/tensorflow_lite/tensorflow/lite/micro/kernels/cmsis_nn/svdf.cc ****     TFLITE_DCHECK(context->RequestScratchBufferInArena != nullptr);
 414:../src/tensorflow_lite/tensorflow/lite/micro/kernels/cmsis_nn/svdf.cc ****     const TfLiteStatus scratch_status = context->RequestScratchBufferInArena(
 415:../src/tensorflow_lite/tensorflow/lite/micro/kernels/cmsis_nn/svdf.cc ****         context, batch_size * num_filters * sizeof(float),
 416:../src/tensorflow_lite/tensorflow/lite/micro/kernels/cmsis_nn/svdf.cc ****         &(data->scratch_tensor_index));
 417:../src/tensorflow_lite/tensorflow/lite/micro/kernels/cmsis_nn/svdf.cc ****     TF_LITE_ENSURE_OK(context, scratch_status);
 418:../src/tensorflow_lite/tensorflow/lite/micro/kernels/cmsis_nn/svdf.cc ****   }
 419:../src/tensorflow_lite/tensorflow/lite/micro/kernels/cmsis_nn/svdf.cc **** 
 420:../src/tensorflow_lite/tensorflow/lite/micro/kernels/cmsis_nn/svdf.cc ****   return kTfLiteOk;
 421:../src/tensorflow_lite/tensorflow/lite/micro/kernels/cmsis_nn/svdf.cc **** }
 212              		.loc 1 421 0 is_stmt 1
 213 0124 2CD08DE2 		add	sp, sp, #44
 214              		.cfi_remember_state
 215              		.cfi_def_cfa_offset 44
 216              		@ sp needed
 217 0128 028BBDEC 		vldm	sp!, {d8}
 218              		.cfi_restore 80
 219              		.cfi_restore 81
 220              		.cfi_def_cfa_offset 36
 221 012c F08FBDE8 		pop	{r4, r5, r6, r7, r8, r9, r10, fp, pc}
 222              	.LVL27:
 223              	.L78:
 224              		.cfi_restore_state
 321:../src/tensorflow_lite/tensorflow/lite/micro/kernels/cmsis_nn/svdf.cc ****                  input->type == kTfLiteFloat32 || input->type == kTfLiteInt8);
 225              		.loc 1 321 0 discriminator 1
 226 0130 003000E3 		movw	r3, #:lower16:.LC10
 227 0134 002000E3 		movw	r2, #:lower16:.LC1
 228 0138 003040E3 		movt	r3, #:upper16:.LC10
 229 013c 001000E3 		movw	r1, #:lower16:.LC2
 230 0140 00308DE5 		str	r3, [sp]
 231              	.LVL28:
 232 0144 0400A0E1 		mov	r0, r4
 233 0148 002040E3 		movt	r2, #:upper16:.LC1
 234 014c 001040E3 		movt	r1, #:upper16:.LC2
 235 0150 145094E5 		ldr	r5, [r4, #20]
 236              	.LVL29:
 237 0154 423100E3 		movw	r3, #322
 238 0158 35FF2FE1 		blx	r5
 239              	.LVL30:
 240 015c 0100A0E3 		mov	r0, #1
 241              		.loc 1 421 0 discriminator 1
 242 0160 2CD08DE2 		add	sp, sp, #44
 243              		.cfi_remember_state
 244              		.cfi_def_cfa_offset 44
 245              		@ sp needed
 246 0164 028BBDEC 		vldm	sp!, {d8}
 247              		.cfi_restore 80
 248              		.cfi_restore 81
 249              		.cfi_def_cfa_offset 36
 250 0168 F08FBDE8 		pop	{r4, r5, r6, r7, r8, r9, r10, fp, pc}
 251              	.LVL31:
 252              	.L18:
 253              		.cfi_restore_state
 318:../src/tensorflow_lite/tensorflow/lite/micro/kernels/cmsis_nn/svdf.cc **** 
 254              		.loc 1 318 0
 255 016c 08E09BE5 		ldr	lr, [fp, #8]
 328:../src/tensorflow_lite/tensorflow/lite/micro/kernels/cmsis_nn/svdf.cc ****   TfLiteTensor* output = GetOutput(context, node, kOutputTensor);
 256              		.loc 1 328 0
 257 0170 0C20A0E1 		mov	r2, ip
 313:../src/tensorflow_lite/tensorflow/lite/micro/kernels/cmsis_nn/svdf.cc ****   const int batch_size = input->dims->data[0];
 258              		.loc 1 313 0
 259 0174 08C093E5 		ldr	ip, [r3, #8]
 328:../src/tensorflow_lite/tensorflow/lite/micro/kernels/cmsis_nn/svdf.cc ****   TF_LITE_ENSURE_EQ(context, NumDimensions(output), 2);
 260              		.loc 1 328 0
 261 0178 0510A0E1 		mov	r1, r5
 314:../src/tensorflow_lite/tensorflow/lite/micro/kernels/cmsis_nn/svdf.cc ****   const int num_filters = weights_feature->dims->data[0];
 262              		.loc 1 314 0
 263 017c 043093E5 		ldr	r3, [r3, #4]
 328:../src/tensorflow_lite/tensorflow/lite/micro/kernels/cmsis_nn/svdf.cc ****   TF_LITE_ENSURE_EQ(context, NumDimensions(output), 2);
 264              		.loc 1 328 0
 265 0180 0400A0E1 		mov	r0, r4
 313:../src/tensorflow_lite/tensorflow/lite/micro/kernels/cmsis_nn/svdf.cc ****   const int batch_size = input->dims->data[0];
 266              		.loc 1 313 0
 267 0184 1CC08DE5 		str	ip, [sp, #28]
 318:../src/tensorflow_lite/tensorflow/lite/micro/kernels/cmsis_nn/svdf.cc **** 
 268              		.loc 1 318 0
 269 0188 08C09EE5 		ldr	ip, [lr, #8]
 314:../src/tensorflow_lite/tensorflow/lite/micro/kernels/cmsis_nn/svdf.cc ****   const int num_filters = weights_feature->dims->data[0];
 270              		.loc 1 314 0
 271 018c 18308DE5 		str	r3, [sp, #24]
 318:../src/tensorflow_lite/tensorflow/lite/micro/kernels/cmsis_nn/svdf.cc **** 
 272              		.loc 1 318 0
 273 0190 20C08DE5 		str	ip, [sp, #32]
 328:../src/tensorflow_lite/tensorflow/lite/micro/kernels/cmsis_nn/svdf.cc ****   TF_LITE_ENSURE_EQ(context, NumDimensions(output), 2);
 274              		.loc 1 328 0
 275 0194 FEFFFFEB 		bl	_ZN6tflite9GetOutputEP13TfLiteContextPK10TfLiteNodei
 276              	.LVL32:
 277 0198 086090E5 		ldr	r6, [r0, #8]
 278 019c 0030A0E1 		mov	r3, r0
 279              	.LVL33:
 280              	.LBB164:
 281              	.LBB165:
 282              		.loc 2 147 0
 283 01a0 000096E5 		ldr	r0, [r6]
 284              	.LVL34:
 285              	.LBE165:
 286              	.LBE164:
 329:../src/tensorflow_lite/tensorflow/lite/micro/kernels/cmsis_nn/svdf.cc ****   TF_LITE_ENSURE_EQ(context, output->dims->data[0], batch_size);
 287              		.loc 1 329 0
 288 01a4 020050E3 		cmp	r0, #2
 289 01a8 C500001A 		bne	.L80
 330:../src/tensorflow_lite/tensorflow/lite/micro/kernels/cmsis_nn/svdf.cc ****   TF_LITE_ENSURE_EQ(context, output->dims->data[1], num_units);
 290              		.loc 1 330 0
 291 01ac 040096E5 		ldr	r0, [r6, #4]
 292 01b0 18E09DE5 		ldr	lr, [sp, #24]
 293 01b4 00005EE1 		cmp	lr, r0
 294 01b8 AF00001A 		bne	.L81
 317:../src/tensorflow_lite/tensorflow/lite/micro/kernels/cmsis_nn/svdf.cc ****   const int memory_size = weights_time->dims->data[1];
 295              		.loc 1 317 0
 296 01bc 0A10A0E1 		mov	r1, r10
 297 01c0 0900A0E1 		mov	r0, r9
 298 01c4 24308DE5 		str	r3, [sp, #36]
 299 01c8 FEFFFFEB 		bl	__aeabi_idiv
 300              	.LVL35:
 301 01cc 00A0A0E1 		mov	r10, r0
 302              	.LVL36:
 331:../src/tensorflow_lite/tensorflow/lite/micro/kernels/cmsis_nn/svdf.cc **** 
 303              		.loc 1 331 0
 304 01d0 080096E5 		ldr	r0, [r6, #8]
 305 01d4 24309DE5 		ldr	r3, [sp, #36]
 306 01d8 00005AE1 		cmp	r10, r0
 307 01dc D800001A 		bne	.L82
 308 01e0 082098E5 		ldr	r2, [r8, #8]
 309              	.LVL37:
 310              	.LBB166:
 311              	.LBB167:
 312              		.loc 2 147 0
 313 01e4 000092E5 		ldr	r0, [r2]
 314              	.LBE167:
 315              	.LBE166:
 334:../src/tensorflow_lite/tensorflow/lite/micro/kernels/cmsis_nn/svdf.cc ****   TF_LITE_ENSURE_EQ(context, weights_feature->dims->data[1], input_size);
 316              		.loc 1 334 0
 317 01e8 020050E3 		cmp	r0, #2
 318 01ec E600001A 		bne	.L83
 335:../src/tensorflow_lite/tensorflow/lite/micro/kernels/cmsis_nn/svdf.cc **** 
 319              		.loc 1 335 0
 320 01f0 08C092E5 		ldr	ip, [r2, #8]
 321 01f4 1CE09DE5 		ldr	lr, [sp, #28]
 322 01f8 0C005EE1 		cmp	lr, ip
 323 01fc F500001A 		bne	.L84
 324 0200 08209BE5 		ldr	r2, [fp, #8]
 325              	.LVL38:
 326              	.LBB168:
 327              	.LBB169:
 328              		.loc 2 147 0
 329 0204 00C092E5 		ldr	ip, [r2]
 330              	.LBE169:
 331              	.LBE168:
 338:../src/tensorflow_lite/tensorflow/lite/micro/kernels/cmsis_nn/svdf.cc ****   TF_LITE_ENSURE_EQ(context, weights_time->dims->data[0], num_filters);
 332              		.loc 1 338 0
 333 0208 02005CE3 		cmp	ip, #2
 334 020c 0301001A 		bne	.L85
 339:../src/tensorflow_lite/tensorflow/lite/micro/kernels/cmsis_nn/svdf.cc ****   TF_LITE_ENSURE_EQ(context, weights_time->dims->data[1], memory_size);
 335              		.loc 1 339 0
 336 0210 040092E5 		ldr	r0, [r2, #4]
 337 0214 000059E1 		cmp	r9, r0
 338 0218 1201001A 		bne	.L86
 340:../src/tensorflow_lite/tensorflow/lite/micro/kernels/cmsis_nn/svdf.cc **** 
 339              		.loc 1 340 0
 340 021c 080092E5 		ldr	r0, [r2, #8]
 341 0220 20E09DE5 		ldr	lr, [sp, #32]
 342 0224 00005EE1 		cmp	lr, r0
 343 0228 2001001A 		bne	.L87
 343:../src/tensorflow_lite/tensorflow/lite/micro/kernels/cmsis_nn/svdf.cc ****     TF_LITE_ENSURE_EQ(context, bias->dims->data[0], num_units);
 344              		.loc 1 343 0
 345 022c 14209DE5 		ldr	r2, [sp, #20]
 346 0230 000052E3 		cmp	r2, #0
 347 0234 0300000A 		beq	.L27
 344:../src/tensorflow_lite/tensorflow/lite/micro/kernels/cmsis_nn/svdf.cc ****   }
 348              		.loc 1 344 0
 349 0238 082092E5 		ldr	r2, [r2, #8]
 350 023c 040092E5 		ldr	r0, [r2, #4]
 351 0240 00005AE1 		cmp	r10, r0
 352 0244 2B01001A 		bne	.L88
 353              	.L27:
 354 0248 10209DE5 		ldr	r2, [sp, #16]
 355 024c 082092E5 		ldr	r2, [r2, #8]
 356              	.LVL39:
 357              	.LBB170:
 358              	.LBB171:
 359              		.loc 2 147 0
 360 0250 000092E5 		ldr	r0, [r2]
 361              	.LBE171:
 362              	.LBE170:
 348:../src/tensorflow_lite/tensorflow/lite/micro/kernels/cmsis_nn/svdf.cc ****   TF_LITE_ENSURE_EQ(context, activation_state->dims->data[0], batch_size);
 363              		.loc 1 348 0
 364 0254 020050E3 		cmp	r0, #2
 365 0258 3801001A 		bne	.L89
 349:../src/tensorflow_lite/tensorflow/lite/micro/kernels/cmsis_nn/svdf.cc ****   TF_LITE_ENSURE_EQ(context, activation_state->dims->data[1],
 366              		.loc 1 349 0
 367 025c 040092E5 		ldr	r0, [r2, #4]
 368 0260 18E09DE5 		ldr	lr, [sp, #24]
 369 0264 00005EE1 		cmp	lr, r0
 370 0268 4801001A 		bne	.L90
 350:../src/tensorflow_lite/tensorflow/lite/micro/kernels/cmsis_nn/svdf.cc ****                     memory_size * num_filters);
 371              		.loc 1 350 0
 372 026c 20109DE5 		ldr	r1, [sp, #32]
 373 0270 080092E5 		ldr	r0, [r2, #8]
 374 0274 91090CE0 		mul	ip, r1, r9
 375 0278 0C0050E1 		cmp	r0, ip
 376 027c 5501001A 		bne	.L91
 353:../src/tensorflow_lite/tensorflow/lite/micro/kernels/cmsis_nn/svdf.cc **** 
 377              		.loc 1 353 0
 378 0280 10209DE5 		ldr	r2, [sp, #16]
 379 0284 2D00D2E5 		ldrb	r0, [r2, #45]	@ zero_extendqisi2
 380 0288 000050E3 		cmp	r0, #0
 381 028c 5F02000A 		beq	.L92
 355:../src/tensorflow_lite/tensorflow/lite/micro/kernels/cmsis_nn/svdf.cc **** 
 382              		.loc 1 355 0
 383 0290 002095E5 		ldr	r2, [r5]
 384 0294 000092E5 		ldr	r0, [r2]
 385 0298 050050E3 		cmp	r0, #5
 386 029c 5F01001A 		bne	.L93
 357:../src/tensorflow_lite/tensorflow/lite/micro/kernels/cmsis_nn/svdf.cc ****   OpData* data = static_cast<OpData*>(node->user_data);
 387              		.loc 1 357 0
 388 02a0 105095E5 		ldr	r5, [r5, #16]
 389              	.LVL40:
 390 02a4 000055E3 		cmp	r5, #0
 391 02a8 3701000A 		beq	.L33
 392              	.LVL41:
 393              	.LBB172:
 360:../src/tensorflow_lite/tensorflow/lite/micro/kernels/cmsis_nn/svdf.cc ****     TF_LITE_ENSURE_EQ(context, weights_feature->type, kTfLiteInt8);
 394              		.loc 1 360 0
 395 02ac 00C0D7E5 		ldrb	ip, [r7]	@ zero_extendqisi2
 396 02b0 09005CE3 		cmp	ip, #9
 397 02b4 6C01000A 		beq	.L94
 398              	.LBB173:
 405:../src/tensorflow_lite/tensorflow/lite/micro/kernels/cmsis_nn/svdf.cc ****     TF_LITE_ENSURE_EQ(context, weights_time->type, kTfLiteFloat32);
 399              		.loc 1 405 0
 400 02b8 0060D8E5 		ldrb	r6, [r8]	@ zero_extendqisi2
 401 02bc 010056E3 		cmp	r6, #1
 402 02c0 2E02001A 		bne	.L95
 406:../src/tensorflow_lite/tensorflow/lite/micro/kernels/cmsis_nn/svdf.cc ****     TF_LITE_ENSURE_EQ(context, activation_state->type, kTfLiteFloat32);
 403              		.loc 1 406 0
 404 02c4 00C0DBE5 		ldrb	ip, [fp]	@ zero_extendqisi2
 405 02c8 01005CE3 		cmp	ip, #1
 406 02cc 1902001A 		bne	.L96
 407:../src/tensorflow_lite/tensorflow/lite/micro/kernels/cmsis_nn/svdf.cc ****     if (bias != nullptr) {
 407              		.loc 1 407 0
 408 02d0 10209DE5 		ldr	r2, [sp, #16]
 409 02d4 00C0D2E5 		ldrb	ip, [r2]	@ zero_extendqisi2
 410 02d8 01005CE3 		cmp	ip, #1
 411 02dc 5E02001A 		bne	.L97
 408:../src/tensorflow_lite/tensorflow/lite/micro/kernels/cmsis_nn/svdf.cc ****       TF_LITE_ENSURE_EQ(context, bias->type, kTfLiteFloat32);
 412              		.loc 1 408 0
 413 02e0 14209DE5 		ldr	r2, [sp, #20]
 414 02e4 000052E3 		cmp	r2, #0
 415 02e8 0200000A 		beq	.L44
 409:../src/tensorflow_lite/tensorflow/lite/micro/kernels/cmsis_nn/svdf.cc ****     }
 416              		.loc 1 409 0
 417 02ec 00C0D2E5 		ldrb	ip, [r2]	@ zero_extendqisi2
 418 02f0 01005CE3 		cmp	ip, #1
 419 02f4 3302001A 		bne	.L98
 420              	.L44:
 411:../src/tensorflow_lite/tensorflow/lite/micro/kernels/cmsis_nn/svdf.cc **** 
 421              		.loc 1 411 0
 422 02f8 0000D3E5 		ldrb	r0, [r3]	@ zero_extendqisi2
 423 02fc 010050E3 		cmp	r0, #1
 424 0300 6A02001A 		bne	.L99
 413:../src/tensorflow_lite/tensorflow/lite/micro/kernels/cmsis_nn/svdf.cc ****     const TfLiteStatus scratch_status = context->RequestScratchBufferInArena(
 425              		.loc 1 413 0
 426 0304 403094E5 		ldr	r3, [r4, #64]
 427 0308 000053E3 		cmp	r3, #0
 428 030c 1E01000A 		beq	.L33
 415:../src/tensorflow_lite/tensorflow/lite/micro/kernels/cmsis_nn/svdf.cc ****         &(data->scratch_tensor_index));
 429              		.loc 1 415 0
 430 0310 18209DE5 		ldr	r2, [sp, #24]
 431 0314 990201E0 		mul	r1, r9, r2
 416:../src/tensorflow_lite/tensorflow/lite/micro/kernels/cmsis_nn/svdf.cc ****     TF_LITE_ENSURE_OK(context, scratch_status);
 432              		.loc 1 416 0
 433 0318 102085E2 		add	r2, r5, #16
 434              	.LVL42:
 435              	.L72:
 436 031c 0400A0E1 		mov	r0, r4
 437 0320 0111A0E1 		lsl	r1, r1, #2
 438              	.LBE173:
 439              	.LBE172:
 440              		.loc 1 421 0
 441 0324 2CD08DE2 		add	sp, sp, #44
 442              		.cfi_remember_state
 443              		.cfi_def_cfa_offset 44
 444              		@ sp needed
 445 0328 028BBDEC 		vldm	sp!, {d8}
 446              		.cfi_restore 80
 447              		.cfi_restore 81
 448              		.cfi_def_cfa_offset 36
 449 032c F04FBDE8 		pop	{r4, r5, r6, r7, r8, r9, r10, fp, lr}
 450              		.cfi_restore 14
 451              		.cfi_restore 11
 452              		.cfi_restore 10
 453              		.cfi_restore 9
 454              		.cfi_restore 8
 455              		.cfi_restore 7
 456              		.cfi_restore 6
 457              		.cfi_restore 5
 458              		.cfi_restore 4
 459              		.cfi_def_cfa_offset 0
 460              	.LVL43:
 461              	.LBB181:
 462              	.LBB174:
 416:../src/tensorflow_lite/tensorflow/lite/micro/kernels/cmsis_nn/svdf.cc ****     TF_LITE_ENSURE_OK(context, scratch_status);
 463              		.loc 1 416 0
 464 0330 13FF2FE1 		bx	r3
 465              	.LVL44:
 466              	.L79:
 467              		.cfi_restore_state
 468              	.LBE174:
 469              	.LBE181:
 323:../src/tensorflow_lite/tensorflow/lite/micro/kernels/cmsis_nn/svdf.cc **** 
 470              		.loc 1 323 0 discriminator 1
 471 0334 00C000E3 		movw	ip, #:lower16:.LC11
 472 0338 003000E3 		movw	r3, #:lower16:.LC12
 473 033c 00C040E3 		movt	ip, #:upper16:.LC11
 474 0340 02E0A0E3 		mov	lr, #2
 475 0344 003040E3 		movt	r3, #:upper16:.LC12
 476 0348 002000E3 		movw	r2, #:lower16:.LC1
 477 034c 001000E3 		movw	r1, #:lower16:.LC7
 478 0350 08008DE5 		str	r0, [sp, #8]
 479              	.LVL45:
 480 0354 00308DE5 		str	r3, [sp]
 481 0358 0400A0E1 		mov	r0, r4
 482 035c 04C08DE5 		str	ip, [sp, #4]
 483 0360 002040E3 		movt	r2, #:upper16:.LC1
 484 0364 0CE08DE5 		str	lr, [sp, #12]
 485 0368 001040E3 		movt	r1, #:upper16:.LC7
 486 036c 144094E5 		ldr	r4, [r4, #20]
 487              	.LVL46:
 488 0370 433100E3 		movw	r3, #323
 489 0374 34FF2FE1 		blx	r4
 490              	.LVL47:
 491 0378 0600A0E1 		mov	r0, r6
 492              		.loc 1 421 0 discriminator 1
 493 037c 2CD08DE2 		add	sp, sp, #44
 494              		.cfi_remember_state
 495              		.cfi_def_cfa_offset 44
 496              		@ sp needed
 497 0380 028BBDEC 		vldm	sp!, {d8}
 498              		.cfi_restore 80
 499              		.cfi_restore 81
 500              		.cfi_def_cfa_offset 36
 501 0384 F08FBDE8 		pop	{r4, r5, r6, r7, r8, r9, r10, fp, pc}
 502              	.LVL48:
 503              	.L77:
 504              		.cfi_restore_state
 316:../src/tensorflow_lite/tensorflow/lite/micro/kernels/cmsis_nn/svdf.cc ****   const int num_units = num_filters / rank;
 505              		.loc 1 316 0 discriminator 1
 506 0388 000000E3 		movw	r0, #:lower16:.LC8
 507 038c 003000E3 		movw	r3, #:lower16:.LC9
 508 0390 00E0A0E3 		mov	lr, #0
 509 0394 000040E3 		movt	r0, #:upper16:.LC8
 510 0398 003040E3 		movt	r3, #:upper16:.LC9
 511 039c 002000E3 		movw	r2, #:lower16:.LC1
 512 03a0 001000E3 		movw	r1, #:lower16:.LC7
 513 03a4 01108DE9 		stmib	sp, {r0, ip}
 514 03a8 00308DE5 		str	r3, [sp]
 515 03ac 0400A0E1 		mov	r0, r4
 516 03b0 0CE08DE5 		str	lr, [sp, #12]
 517 03b4 002040E3 		movt	r2, #:upper16:.LC1
 518 03b8 001040E3 		movt	r1, #:upper16:.LC7
 519 03bc 144094E5 		ldr	r4, [r4, #20]
 520              	.LVL49:
 521 03c0 4F3FA0E3 		mov	r3, #316
 522 03c4 34FF2FE1 		blx	r4
 523              	.LVL50:
 524 03c8 0100A0E3 		mov	r0, #1
 525              		.loc 1 421 0 discriminator 1
 526 03cc 2CD08DE2 		add	sp, sp, #44
 527              		.cfi_remember_state
 528              		.cfi_def_cfa_offset 44
 529              		@ sp needed
 530 03d0 028BBDEC 		vldm	sp!, {d8}
 531              		.cfi_restore 80
 532              		.cfi_restore 81
 533              		.cfi_def_cfa_offset 36
 534 03d4 F08FBDE8 		pop	{r4, r5, r6, r7, r8, r9, r10, fp, pc}
 535              	.LVL51:
 536              	.L73:
 537              		.cfi_restore_state
 299:../src/tensorflow_lite/tensorflow/lite/micro/kernels/cmsis_nn/svdf.cc ****   const TfLiteTensor* weights_feature =
 538              		.loc 1 299 0 discriminator 1
 539 03d8 003000E3 		movw	r3, #:lower16:.LC3
 540 03dc 002000E3 		movw	r2, #:lower16:.LC1
 541 03e0 003040E3 		movt	r3, #:upper16:.LC3
 542 03e4 001000E3 		movw	r1, #:lower16:.LC2
 543 03e8 00308DE5 		str	r3, [sp]
 544 03ec 0400A0E1 		mov	r0, r4
 545              	.LVL52:
 546 03f0 002040E3 		movt	r2, #:upper16:.LC1
 547 03f4 001040E3 		movt	r1, #:upper16:.LC2
 548 03f8 145094E5 		ldr	r5, [r4, #20]
 549              	.LVL53:
 550 03fc 2B3100E3 		movw	r3, #299
 551 0400 35FF2FE1 		blx	r5
 552              	.LVL54:
 553 0404 0100A0E3 		mov	r0, #1
 554              		.loc 1 421 0 discriminator 1
 555 0408 2CD08DE2 		add	sp, sp, #44
 556              		.cfi_remember_state
 557              		.cfi_def_cfa_offset 44
 558              		@ sp needed
 559 040c 028BBDEC 		vldm	sp!, {d8}
 560              		.cfi_restore 80
 561              		.cfi_restore 81
 562              		.cfi_def_cfa_offset 36
 563 0410 F08FBDE8 		pop	{r4, r5, r6, r7, r8, r9, r10, fp, pc}
 564              	.LVL55:
 565              	.L74:
 566              		.cfi_restore_state
 302:../src/tensorflow_lite/tensorflow/lite/micro/kernels/cmsis_nn/svdf.cc ****   const TfLiteTensor* weights_time =
 567              		.loc 1 302 0 discriminator 1
 568 0414 003000E3 		movw	r3, #:lower16:.LC4
 569 0418 002000E3 		movw	r2, #:lower16:.LC1
 570 041c 003040E3 		movt	r3, #:upper16:.LC4
 571 0420 001000E3 		movw	r1, #:lower16:.LC2
 572 0424 00308DE5 		str	r3, [sp]
 573 0428 0400A0E1 		mov	r0, r4
 574              	.LVL56:
 575 042c 002040E3 		movt	r2, #:upper16:.LC1
 576 0430 001040E3 		movt	r1, #:upper16:.LC2
 577 0434 145094E5 		ldr	r5, [r4, #20]
 578              	.LVL57:
 579 0438 2E3100E3 		movw	r3, #302
 580 043c 35FF2FE1 		blx	r5
 581              	.LVL58:
 582 0440 0100A0E3 		mov	r0, #1
 583 0444 36FFFFEA 		b	.L11
 584              	.LVL59:
 585              	.L75:
 305:../src/tensorflow_lite/tensorflow/lite/micro/kernels/cmsis_nn/svdf.cc ****   const TfLiteTensor* bias = GetOptionalInputTensor(context, node, kBiasTensor);
 586              		.loc 1 305 0 discriminator 1
 587 0448 003000E3 		movw	r3, #:lower16:.LC5
 588 044c 002000E3 		movw	r2, #:lower16:.LC1
 589 0450 003040E3 		movt	r3, #:upper16:.LC5
 590 0454 001000E3 		movw	r1, #:lower16:.LC2
 591 0458 00308DE5 		str	r3, [sp]
 592 045c 0400A0E1 		mov	r0, r4
 593              	.LVL60:
 594 0460 002040E3 		movt	r2, #:upper16:.LC1
 595 0464 001040E3 		movt	r1, #:upper16:.LC2
 596 0468 145094E5 		ldr	r5, [r4, #20]
 597              	.LVL61:
 598 046c 313100E3 		movw	r3, #305
 599 0470 35FF2FE1 		blx	r5
 600              	.LVL62:
 601 0474 0100A0E3 		mov	r0, #1
 602 0478 29FFFFEA 		b	.L11
 603              	.LVL63:
 604              	.L81:
 330:../src/tensorflow_lite/tensorflow/lite/micro/kernels/cmsis_nn/svdf.cc ****   TF_LITE_ENSURE_EQ(context, output->dims->data[1], num_units);
 605              		.loc 1 330 0 discriminator 1
 606 047c 00C000E3 		movw	ip, #:lower16:.LC16
 607 0480 003000E3 		movw	r3, #:lower16:.LC17
 608              	.LVL64:
 609 0484 00C040E3 		movt	ip, #:upper16:.LC16
 610 0488 003040E3 		movt	r3, #:upper16:.LC17
 611 048c 002000E3 		movw	r2, #:lower16:.LC1
 612 0490 001000E3 		movw	r1, #:lower16:.LC7
 613 0494 08008DE5 		str	r0, [sp, #8]
 614 0498 002040E3 		movt	r2, #:upper16:.LC1
 615 049c 0400A0E1 		mov	r0, r4
 616 04a0 00308DE5 		str	r3, [sp]
 617 04a4 0CE08DE5 		str	lr, [sp, #12]
 618 04a8 001040E3 		movt	r1, #:upper16:.LC7
 619 04ac 04C08DE5 		str	ip, [sp, #4]
 620 04b0 4A3100E3 		movw	r3, #330
 621 04b4 144094E5 		ldr	r4, [r4, #20]
 622              	.LVL65:
 623 04b8 34FF2FE1 		blx	r4
 624              	.LVL66:
 625 04bc 0100A0E3 		mov	r0, #1
 626 04c0 17FFFFEA 		b	.L11
 627              	.LVL67:
 628              	.L80:
 329:../src/tensorflow_lite/tensorflow/lite/micro/kernels/cmsis_nn/svdf.cc ****   TF_LITE_ENSURE_EQ(context, output->dims->data[0], batch_size);
 629              		.loc 1 329 0 discriminator 1
 630 04c4 00C000E3 		movw	ip, #:lower16:.LC11
 631 04c8 003000E3 		movw	r3, #:lower16:.LC15
 632              	.LVL68:
 633 04cc 00C040E3 		movt	ip, #:upper16:.LC11
 634 04d0 003040E3 		movt	r3, #:upper16:.LC15
 635 04d4 02E0A0E3 		mov	lr, #2
 636 04d8 002000E3 		movw	r2, #:lower16:.LC1
 637 04dc 001000E3 		movw	r1, #:lower16:.LC7
 638 04e0 08008DE5 		str	r0, [sp, #8]
 639 04e4 00308DE5 		str	r3, [sp]
 640 04e8 0400A0E1 		mov	r0, r4
 641 04ec 04C08DE5 		str	ip, [sp, #4]
 642 04f0 002040E3 		movt	r2, #:upper16:.LC1
 643 04f4 0CE08DE5 		str	lr, [sp, #12]
 644 04f8 001040E3 		movt	r1, #:upper16:.LC7
 645 04fc 144094E5 		ldr	r4, [r4, #20]
 646              	.LVL69:
 647 0500 493100E3 		movw	r3, #329
 648 0504 34FF2FE1 		blx	r4
 649              	.LVL70:
 650 0508 0100A0E3 		mov	r0, #1
 651 050c 04FFFFEA 		b	.L11
 652              	.LVL71:
 653              	.L76:
 309:../src/tensorflow_lite/tensorflow/lite/micro/kernels/cmsis_nn/svdf.cc **** 
 654              		.loc 1 309 0 discriminator 1
 655 0510 003000E3 		movw	r3, #:lower16:.LC6
 656 0514 002000E3 		movw	r2, #:lower16:.LC1
 657 0518 003040E3 		movt	r3, #:upper16:.LC6
 658 051c 001000E3 		movw	r1, #:lower16:.LC2
 659 0520 00308DE5 		str	r3, [sp]
 660 0524 0400A0E1 		mov	r0, r4
 661              	.LVL72:
 662 0528 002040E3 		movt	r2, #:upper16:.LC1
 663 052c 001040E3 		movt	r1, #:upper16:.LC2
 664 0530 145094E5 		ldr	r5, [r4, #20]
 665              	.LVL73:
 666 0534 353100E3 		movw	r3, #309
 667 0538 35FF2FE1 		blx	r5
 668              	.LVL74:
 669 053c 0100A0E3 		mov	r0, #1
 670 0540 F7FEFFEA 		b	.L11
 671              	.LVL75:
 672              	.L82:
 331:../src/tensorflow_lite/tensorflow/lite/micro/kernels/cmsis_nn/svdf.cc **** 
 673              		.loc 1 331 0 discriminator 1
 674 0544 00C000E3 		movw	ip, #:lower16:.LC18
 675 0548 003000E3 		movw	r3, #:lower16:.LC19
 676              	.LVL76:
 677 054c 00C040E3 		movt	ip, #:upper16:.LC18
 678 0550 003040E3 		movt	r3, #:upper16:.LC19
 679 0554 002000E3 		movw	r2, #:lower16:.LC1
 680 0558 001000E3 		movw	r1, #:lower16:.LC7
 681 055c 08008DE5 		str	r0, [sp, #8]
 682 0560 002040E3 		movt	r2, #:upper16:.LC1
 683 0564 0400A0E1 		mov	r0, r4
 684 0568 00308DE5 		str	r3, [sp]
 685 056c 0CA08DE5 		str	r10, [sp, #12]
 686 0570 001040E3 		movt	r1, #:upper16:.LC7
 687 0574 04C08DE5 		str	ip, [sp, #4]
 688 0578 4B3100E3 		movw	r3, #331
 689 057c 144094E5 		ldr	r4, [r4, #20]
 690              	.LVL77:
 691 0580 34FF2FE1 		blx	r4
 692              	.LVL78:
 693 0584 0100A0E3 		mov	r0, #1
 694 0588 E5FEFFEA 		b	.L11
 695              	.LVL79:
 696              	.L83:
 334:../src/tensorflow_lite/tensorflow/lite/micro/kernels/cmsis_nn/svdf.cc ****   TF_LITE_ENSURE_EQ(context, weights_feature->dims->data[1], input_size);
 697              		.loc 1 334 0 discriminator 1
 698 058c 00C000E3 		movw	ip, #:lower16:.LC11
 699 0590 003000E3 		movw	r3, #:lower16:.LC20
 700              	.LVL80:
 701 0594 00C040E3 		movt	ip, #:upper16:.LC11
 702 0598 003040E3 		movt	r3, #:upper16:.LC20
 703 059c 02E0A0E3 		mov	lr, #2
 704 05a0 002000E3 		movw	r2, #:lower16:.LC1
 705 05a4 001000E3 		movw	r1, #:lower16:.LC7
 706 05a8 08008DE5 		str	r0, [sp, #8]
 707 05ac 00308DE5 		str	r3, [sp]
 708 05b0 0400A0E1 		mov	r0, r4
 709 05b4 04C08DE5 		str	ip, [sp, #4]
 710 05b8 002040E3 		movt	r2, #:upper16:.LC1
 711 05bc 0CE08DE5 		str	lr, [sp, #12]
 712 05c0 001040E3 		movt	r1, #:upper16:.LC7
 713 05c4 144094E5 		ldr	r4, [r4, #20]
 714              	.LVL81:
 715 05c8 4E3100E3 		movw	r3, #334
 716 05cc 34FF2FE1 		blx	r4
 717              	.LVL82:
 718 05d0 0100A0E3 		mov	r0, #1
 719 05d4 D2FEFFEA 		b	.L11
 720              	.LVL83:
 721              	.L84:
 335:../src/tensorflow_lite/tensorflow/lite/micro/kernels/cmsis_nn/svdf.cc **** 
 722              		.loc 1 335 0 discriminator 1
 723 05d8 000000E3 		movw	r0, #:lower16:.LC21
 724 05dc 003000E3 		movw	r3, #:lower16:.LC22
 725              	.LVL84:
 726 05e0 000040E3 		movt	r0, #:upper16:.LC21
 727 05e4 003040E3 		movt	r3, #:upper16:.LC22
 728 05e8 002000E3 		movw	r2, #:lower16:.LC1
 729 05ec 001000E3 		movw	r1, #:lower16:.LC7
 730 05f0 04008DE5 		str	r0, [sp, #4]
 731 05f4 002040E3 		movt	r2, #:upper16:.LC1
 732 05f8 0400A0E1 		mov	r0, r4
 733 05fc 00308DE5 		str	r3, [sp]
 734 0600 0CE08DE5 		str	lr, [sp, #12]
 735 0604 001040E3 		movt	r1, #:upper16:.LC7
 736 0608 08C08DE5 		str	ip, [sp, #8]
 737 060c 4F3100E3 		movw	r3, #335
 738 0610 144094E5 		ldr	r4, [r4, #20]
 739              	.LVL85:
 740 0614 34FF2FE1 		blx	r4
 741              	.LVL86:
 742 0618 0100A0E3 		mov	r0, #1
 743 061c C0FEFFEA 		b	.L11
 744              	.LVL87:
 745              	.L85:
 338:../src/tensorflow_lite/tensorflow/lite/micro/kernels/cmsis_nn/svdf.cc ****   TF_LITE_ENSURE_EQ(context, weights_time->dims->data[0], num_filters);
 746              		.loc 1 338 0 discriminator 1
 747 0620 00E000E3 		movw	lr, #:lower16:.LC11
 748 0624 003000E3 		movw	r3, #:lower16:.LC23
 749              	.LVL88:
 750 0628 00E040E3 		movt	lr, #:upper16:.LC11
 751 062c 003040E3 		movt	r3, #:upper16:.LC23
 752 0630 002000E3 		movw	r2, #:lower16:.LC1
 753 0634 001000E3 		movw	r1, #:lower16:.LC7
 754 0638 0C008DE5 		str	r0, [sp, #12]
 755 063c 002040E3 		movt	r2, #:upper16:.LC1
 756 0640 0400A0E1 		mov	r0, r4
 757 0644 00308DE5 		str	r3, [sp]
 758 0648 08C08DE5 		str	ip, [sp, #8]
 759 064c 001040E3 		movt	r1, #:upper16:.LC7
 760 0650 04E08DE5 		str	lr, [sp, #4]
 761 0654 523100E3 		movw	r3, #338
 762 0658 144094E5 		ldr	r4, [r4, #20]
 763              	.LVL89:
 764 065c 34FF2FE1 		blx	r4
 765              	.LVL90:
 766 0660 0100A0E3 		mov	r0, #1
 767 0664 AEFEFFEA 		b	.L11
 768              	.LVL91:
 769              	.L86:
 339:../src/tensorflow_lite/tensorflow/lite/micro/kernels/cmsis_nn/svdf.cc ****   TF_LITE_ENSURE_EQ(context, weights_time->dims->data[1], memory_size);
 770              		.loc 1 339 0 discriminator 1
 771 0668 00C000E3 		movw	ip, #:lower16:.LC24
 772 066c 003000E3 		movw	r3, #:lower16:.LC25
 773              	.LVL92:
 774 0670 00C040E3 		movt	ip, #:upper16:.LC24
 775 0674 003040E3 		movt	r3, #:upper16:.LC25
 776 0678 002000E3 		movw	r2, #:lower16:.LC1
 777 067c 001000E3 		movw	r1, #:lower16:.LC7
 778 0680 08008DE5 		str	r0, [sp, #8]
 779 0684 002040E3 		movt	r2, #:upper16:.LC1
 780 0688 0400A0E1 		mov	r0, r4
 781 068c 00308DE5 		str	r3, [sp]
 782 0690 0C908DE5 		str	r9, [sp, #12]
 783 0694 001040E3 		movt	r1, #:upper16:.LC7
 784 0698 04C08DE5 		str	ip, [sp, #4]
 785 069c 533100E3 		movw	r3, #339
 786 06a0 144094E5 		ldr	r4, [r4, #20]
 787              	.LVL93:
 788 06a4 34FF2FE1 		blx	r4
 789              	.LVL94:
 790 06a8 0100A0E3 		mov	r0, #1
 791 06ac 9CFEFFEA 		b	.L11
 792              	.LVL95:
 793              	.L87:
 340:../src/tensorflow_lite/tensorflow/lite/micro/kernels/cmsis_nn/svdf.cc **** 
 794              		.loc 1 340 0 discriminator 1
 795 06b0 00C000E3 		movw	ip, #:lower16:.LC26
 796 06b4 003000E3 		movw	r3, #:lower16:.LC27
 797              	.LVL96:
 798 06b8 00C040E3 		movt	ip, #:upper16:.LC26
 799 06bc 003040E3 		movt	r3, #:upper16:.LC27
 800 06c0 002000E3 		movw	r2, #:lower16:.LC1
 801 06c4 001000E3 		movw	r1, #:lower16:.LC7
 802 06c8 08008DE5 		str	r0, [sp, #8]
 803 06cc 002040E3 		movt	r2, #:upper16:.LC1
 804 06d0 0400A0E1 		mov	r0, r4
 805 06d4 00308DE5 		str	r3, [sp]
 806 06d8 0CE08DE5 		str	lr, [sp, #12]
 807 06dc 001040E3 		movt	r1, #:upper16:.LC7
 808 06e0 04C08DE5 		str	ip, [sp, #4]
 809 06e4 553FA0E3 		mov	r3, #340
 810 06e8 144094E5 		ldr	r4, [r4, #20]
 811              	.LVL97:
 812 06ec 34FF2FE1 		blx	r4
 813              	.LVL98:
 814 06f0 0100A0E3 		mov	r0, #1
 815 06f4 8AFEFFEA 		b	.L11
 816              	.LVL99:
 817              	.L88:
 344:../src/tensorflow_lite/tensorflow/lite/micro/kernels/cmsis_nn/svdf.cc ****   }
 818              		.loc 1 344 0 discriminator 1
 819 06f8 00C000E3 		movw	ip, #:lower16:.LC18
 820 06fc 003000E3 		movw	r3, #:lower16:.LC28
 821              	.LVL100:
 822 0700 00C040E3 		movt	ip, #:upper16:.LC18
 823 0704 003040E3 		movt	r3, #:upper16:.LC28
 824 0708 002000E3 		movw	r2, #:lower16:.LC1
 825 070c 001000E3 		movw	r1, #:lower16:.LC7
 826 0710 08008DE5 		str	r0, [sp, #8]
 827 0714 002040E3 		movt	r2, #:upper16:.LC1
 828 0718 0400A0E1 		mov	r0, r4
 829 071c 00308DE5 		str	r3, [sp]
 830 0720 0CA08DE5 		str	r10, [sp, #12]
 831 0724 001040E3 		movt	r1, #:upper16:.LC7
 832 0728 04C08DE5 		str	ip, [sp, #4]
 833 072c 563FA0E3 		mov	r3, #344
 834 0730 144094E5 		ldr	r4, [r4, #20]
 835              	.LVL101:
 836 0734 34FF2FE1 		blx	r4
 837              	.LVL102:
 838 0738 0100A0E3 		mov	r0, #1
 839 073c 78FEFFEA 		b	.L11
 840              	.LVL103:
 841              	.L89:
 348:../src/tensorflow_lite/tensorflow/lite/micro/kernels/cmsis_nn/svdf.cc ****   TF_LITE_ENSURE_EQ(context, activation_state->dims->data[0], batch_size);
 842              		.loc 1 348 0 discriminator 1
 843 0740 00C000E3 		movw	ip, #:lower16:.LC11
 844 0744 003000E3 		movw	r3, #:lower16:.LC29
 845              	.LVL104:
 846 0748 00C040E3 		movt	ip, #:upper16:.LC11
 847 074c 003040E3 		movt	r3, #:upper16:.LC29
 848 0750 02E0A0E3 		mov	lr, #2
 849 0754 002000E3 		movw	r2, #:lower16:.LC1
 850 0758 001000E3 		movw	r1, #:lower16:.LC7
 851 075c 08008DE5 		str	r0, [sp, #8]
 852 0760 00308DE5 		str	r3, [sp]
 853 0764 0400A0E1 		mov	r0, r4
 854 0768 04C08DE5 		str	ip, [sp, #4]
 855 076c 002040E3 		movt	r2, #:upper16:.LC1
 856 0770 0CE08DE5 		str	lr, [sp, #12]
 857 0774 001040E3 		movt	r1, #:upper16:.LC7
 858 0778 144094E5 		ldr	r4, [r4, #20]
 859              	.LVL105:
 860 077c 573FA0E3 		mov	r3, #348
 861 0780 34FF2FE1 		blx	r4
 862              	.LVL106:
 863 0784 0100A0E3 		mov	r0, #1
 864 0788 65FEFFEA 		b	.L11
 865              	.LVL107:
 866              	.L33:
 287:../src/tensorflow_lite/tensorflow/lite/micro/kernels/cmsis_nn/svdf.cc **** 
 867              		.loc 1 287 0 discriminator 1
 868 078c FEFFFFEB 		bl	abort
 869              	.LVL108:
 870              	.L90:
 349:../src/tensorflow_lite/tensorflow/lite/micro/kernels/cmsis_nn/svdf.cc ****   TF_LITE_ENSURE_EQ(context, activation_state->dims->data[1],
 871              		.loc 1 349 0 discriminator 1
 872 0790 00C000E3 		movw	ip, #:lower16:.LC16
 873 0794 003000E3 		movw	r3, #:lower16:.LC30
 874              	.LVL109:
 875 0798 00C040E3 		movt	ip, #:upper16:.LC16
 876 079c 003040E3 		movt	r3, #:upper16:.LC30
 877 07a0 002000E3 		movw	r2, #:lower16:.LC1
 878 07a4 001000E3 		movw	r1, #:lower16:.LC7
 879 07a8 08008DE5 		str	r0, [sp, #8]
 880 07ac 002040E3 		movt	r2, #:upper16:.LC1
 881 07b0 0400A0E1 		mov	r0, r4
 882 07b4 00308DE5 		str	r3, [sp]
 883 07b8 0CE08DE5 		str	lr, [sp, #12]
 884 07bc 001040E3 		movt	r1, #:upper16:.LC7
 885 07c0 04C08DE5 		str	ip, [sp, #4]
 886 07c4 5D3100E3 		movw	r3, #349
 887 07c8 144094E5 		ldr	r4, [r4, #20]
 888              	.LVL110:
 889 07cc 34FF2FE1 		blx	r4
 890              	.LVL111:
 891 07d0 0100A0E3 		mov	r0, #1
 892 07d4 52FEFFEA 		b	.L11
 893              	.LVL112:
 894              	.L91:
 350:../src/tensorflow_lite/tensorflow/lite/micro/kernels/cmsis_nn/svdf.cc ****                     memory_size * num_filters);
 895              		.loc 1 350 0 discriminator 1
 896 07d8 00E000E3 		movw	lr, #:lower16:.LC31
 897 07dc 003000E3 		movw	r3, #:lower16:.LC32
 898              	.LVL113:
 899 07e0 00E040E3 		movt	lr, #:upper16:.LC31
 900 07e4 003040E3 		movt	r3, #:upper16:.LC32
 901 07e8 002000E3 		movw	r2, #:lower16:.LC1
 902 07ec 001000E3 		movw	r1, #:lower16:.LC7
 903 07f0 08008DE5 		str	r0, [sp, #8]
 904 07f4 002040E3 		movt	r2, #:upper16:.LC1
 905 07f8 0400A0E1 		mov	r0, r4
 906 07fc 00308DE5 		str	r3, [sp]
 907 0800 0CC08DE5 		str	ip, [sp, #12]
 908 0804 001040E3 		movt	r1, #:upper16:.LC7
 909 0808 04E08DE5 		str	lr, [sp, #4]
 910 080c 5F3100E3 		movw	r3, #351
 911 0810 144094E5 		ldr	r4, [r4, #20]
 912              	.LVL114:
 913 0814 34FF2FE1 		blx	r4
 914              	.LVL115:
 915 0818 0100A0E3 		mov	r0, #1
 916 081c 40FEFFEA 		b	.L11
 917              	.LVL116:
 918              	.L93:
 355:../src/tensorflow_lite/tensorflow/lite/micro/kernels/cmsis_nn/svdf.cc **** 
 919              		.loc 1 355 0 discriminator 1
 920 0820 00C000E3 		movw	ip, #:lower16:.LC35
 921 0824 003000E3 		movw	r3, #:lower16:.LC36
 922              	.LVL117:
 923 0828 00C040E3 		movt	ip, #:upper16:.LC35
 924 082c 003040E3 		movt	r3, #:upper16:.LC36
 925 0830 05E0A0E3 		mov	lr, #5
 926 0834 002000E3 		movw	r2, #:lower16:.LC1
 927 0838 001000E3 		movw	r1, #:lower16:.LC7
 928 083c 08008DE5 		str	r0, [sp, #8]
 929 0840 00308DE5 		str	r3, [sp]
 930 0844 0400A0E1 		mov	r0, r4
 931 0848 04C08DE5 		str	ip, [sp, #4]
 932 084c 002040E3 		movt	r2, #:upper16:.LC1
 933 0850 0CE08DE5 		str	lr, [sp, #12]
 934 0854 001040E3 		movt	r1, #:upper16:.LC7
 935 0858 144094E5 		ldr	r4, [r4, #20]
 936              	.LVL118:
 937 085c 633100E3 		movw	r3, #355
 938 0860 34FF2FE1 		blx	r4
 939              	.LVL119:
 940 0864 0100A0E3 		mov	r0, #1
 941 0868 2DFEFFEA 		b	.L11
 942              	.LVL120:
 943              	.L94:
 944              	.LBB182:
 945              	.LBB175:
 361:../src/tensorflow_lite/tensorflow/lite/micro/kernels/cmsis_nn/svdf.cc ****     TF_LITE_ENSURE_EQ(context, weights_time->type, kTfLiteInt16);
 946              		.loc 1 361 0
 947 086c 0000D8E5 		ldrb	r0, [r8]	@ zero_extendqisi2
 948 0870 090050E3 		cmp	r0, #9
 949 0874 8A00001A 		bne	.L100
 362:../src/tensorflow_lite/tensorflow/lite/micro/kernels/cmsis_nn/svdf.cc ****     TF_LITE_ENSURE_EQ(context, activation_state->type, kTfLiteInt16);
 950              		.loc 1 362 0
 951 0878 0000DBE5 		ldrb	r0, [fp]	@ zero_extendqisi2
 952 087c 070050E3 		cmp	r0, #7
 953 0880 5200001A 		bne	.L101
 363:../src/tensorflow_lite/tensorflow/lite/micro/kernels/cmsis_nn/svdf.cc ****     if (bias != nullptr) {
 954              		.loc 1 363 0
 955 0884 10209DE5 		ldr	r2, [sp, #16]
 956 0888 0000D2E5 		ldrb	r0, [r2]	@ zero_extendqisi2
 957 088c 070050E3 		cmp	r0, #7
 958 0890 3B00001A 		bne	.L102
 364:../src/tensorflow_lite/tensorflow/lite/micro/kernels/cmsis_nn/svdf.cc ****       TF_LITE_ENSURE_EQ(context, bias->type, kTfLiteInt32);
 959              		.loc 1 364 0
 960 0894 14209DE5 		ldr	r2, [sp, #20]
 961 0898 000052E3 		cmp	r2, #0
 962 089c 0200000A 		beq	.L38
 365:../src/tensorflow_lite/tensorflow/lite/micro/kernels/cmsis_nn/svdf.cc ****     }
 963              		.loc 1 365 0
 964 08a0 0000D2E5 		ldrb	r0, [r2]	@ zero_extendqisi2
 965 08a4 020050E3 		cmp	r0, #2
 966 08a8 8F00001A 		bne	.L103
 967              	.L38:
 368:../src/tensorflow_lite/tensorflow/lite/micro/kernels/cmsis_nn/svdf.cc **** 
 968              		.loc 1 368 0
 969 08ac 0000D3E5 		ldrb	r0, [r3]	@ zero_extendqisi2
 970 08b0 090050E3 		cmp	r0, #9
 971 08b4 6500001A 		bne	.L104
 372:../src/tensorflow_lite/tensorflow/lite/micro/kernels/cmsis_nn/svdf.cc ****     const double effective_scale_2 =
 972              		.loc 1 372 0
 973 08b8 10209DE5 		ldr	r2, [sp, #16]
 374:../src/tensorflow_lite/tensorflow/lite/micro/kernels/cmsis_nn/svdf.cc ****                             weights_time->params.scale / output->params.scale);
 974              		.loc 1 374 0
 975 08bc 037A9BED 		vldr.32	s14, [fp, #12]
 371:../src/tensorflow_lite/tensorflow/lite/micro/kernels/cmsis_nn/svdf.cc ****         activation_state->params.scale);
 976              		.loc 1 371 0
 977 08c0 036AD7ED 		vldr.32	s13, [r7, #12]
 372:../src/tensorflow_lite/tensorflow/lite/micro/kernels/cmsis_nn/svdf.cc ****     const double effective_scale_2 =
 978              		.loc 1 372 0
 979 08c4 036A92ED 		vldr.32	s12, [r2, #12]
 371:../src/tensorflow_lite/tensorflow/lite/micro/kernels/cmsis_nn/svdf.cc ****         activation_state->params.scale);
 980              		.loc 1 371 0
 981 08c8 035A98ED 		vldr.32	s10, [r8, #12]
 375:../src/tensorflow_lite/tensorflow/lite/micro/kernels/cmsis_nn/svdf.cc **** 
 982              		.loc 1 375 0
 983 08cc 035AD3ED 		vldr.32	s11, [r3, #12]
 378:../src/tensorflow_lite/tensorflow/lite/micro/kernels/cmsis_nn/svdf.cc ****         context,
 984              		.loc 1 378 0
 985 08d0 14209DE5 		ldr	r2, [sp, #20]
 374:../src/tensorflow_lite/tensorflow/lite/micro/kernels/cmsis_nn/svdf.cc ****                             weights_time->params.scale / output->params.scale);
 986              		.loc 1 374 0
 987 08d4 077A26EE 		vmul.f32	s14, s12, s14
 371:../src/tensorflow_lite/tensorflow/lite/micro/kernels/cmsis_nn/svdf.cc ****         activation_state->params.scale);
 988              		.loc 1 371 0
 989 08d8 856A66EE 		vmul.f32	s13, s13, s10
 378:../src/tensorflow_lite/tensorflow/lite/micro/kernels/cmsis_nn/svdf.cc ****         context,
 990              		.loc 1 378 0
 991 08dc 037AD2ED 		vldr.32	s15, [r2, #12]
 992 08e0 F02BDFED 		vldr.64	d18, .L106
 375:../src/tensorflow_lite/tensorflow/lite/micro/kernels/cmsis_nn/svdf.cc **** 
 993              		.loc 1 375 0
 994 08e4 258A87EE 		vdiv.f32	s16, s14, s11
 371:../src/tensorflow_lite/tensorflow/lite/micro/kernels/cmsis_nn/svdf.cc ****         activation_state->params.scale);
 995              		.loc 1 371 0
 996 08e8 860A86EE 		vdiv.f32	s0, s13, s12
 378:../src/tensorflow_lite/tensorflow/lite/micro/kernels/cmsis_nn/svdf.cc ****         context,
 997              		.loc 1 378 0
 998 08ec C71AF7EE 		vcvt.f64.f32	d17, s14
 999 08f0 E70AF7EE 		vcvt.f64.f32	d16, s15
 1000 08f4 E10B70EE 		vsub.f64	d16, d16, d17
 1001              	.LBB176:
 1002              	.LBB177:
 1003              		.file 3 "c:\\program files (x86)\\gnu tools arm embedded\\6 2017-q2-update\\arm-none-eabi\\include
   1:c:\program files (x86)\gnu tools arm embedded\6 2017-q2-update\arm-none-eabi\include\c++\6.3.1\cmath **** // -*- C++ -*- C forwarding header.
   2:c:\program files (x86)\gnu tools arm embedded\6 2017-q2-update\arm-none-eabi\include\c++\6.3.1\cmath **** 
   3:c:\program files (x86)\gnu tools arm embedded\6 2017-q2-update\arm-none-eabi\include\c++\6.3.1\cmath **** // Copyright (C) 1997-2016 Free Software Foundation, Inc.
   4:c:\program files (x86)\gnu tools arm embedded\6 2017-q2-update\arm-none-eabi\include\c++\6.3.1\cmath **** //
   5:c:\program files (x86)\gnu tools arm embedded\6 2017-q2-update\arm-none-eabi\include\c++\6.3.1\cmath **** // This file is part of the GNU ISO C++ Library.  This library is free
   6:c:\program files (x86)\gnu tools arm embedded\6 2017-q2-update\arm-none-eabi\include\c++\6.3.1\cmath **** // software; you can redistribute it and/or modify it under the
   7:c:\program files (x86)\gnu tools arm embedded\6 2017-q2-update\arm-none-eabi\include\c++\6.3.1\cmath **** // terms of the GNU General Public License as published by the
   8:c:\program files (x86)\gnu tools arm embedded\6 2017-q2-update\arm-none-eabi\include\c++\6.3.1\cmath **** // Free Software Foundation; either version 3, or (at your option)
   9:c:\program files (x86)\gnu tools arm embedded\6 2017-q2-update\arm-none-eabi\include\c++\6.3.1\cmath **** // any later version.
  10:c:\program files (x86)\gnu tools arm embedded\6 2017-q2-update\arm-none-eabi\include\c++\6.3.1\cmath **** 
  11:c:\program files (x86)\gnu tools arm embedded\6 2017-q2-update\arm-none-eabi\include\c++\6.3.1\cmath **** // This library is distributed in the hope that it will be useful,
  12:c:\program files (x86)\gnu tools arm embedded\6 2017-q2-update\arm-none-eabi\include\c++\6.3.1\cmath **** // but WITHOUT ANY WARRANTY; without even the implied warranty of
  13:c:\program files (x86)\gnu tools arm embedded\6 2017-q2-update\arm-none-eabi\include\c++\6.3.1\cmath **** // MERCHANTABILITY or FITNESS FOR A PARTICULAR PURPOSE.  See the
  14:c:\program files (x86)\gnu tools arm embedded\6 2017-q2-update\arm-none-eabi\include\c++\6.3.1\cmath **** // GNU General Public License for more details.
  15:c:\program files (x86)\gnu tools arm embedded\6 2017-q2-update\arm-none-eabi\include\c++\6.3.1\cmath **** 
  16:c:\program files (x86)\gnu tools arm embedded\6 2017-q2-update\arm-none-eabi\include\c++\6.3.1\cmath **** // Under Section 7 of GPL version 3, you are granted additional
  17:c:\program files (x86)\gnu tools arm embedded\6 2017-q2-update\arm-none-eabi\include\c++\6.3.1\cmath **** // permissions described in the GCC Runtime Library Exception, version
  18:c:\program files (x86)\gnu tools arm embedded\6 2017-q2-update\arm-none-eabi\include\c++\6.3.1\cmath **** // 3.1, as published by the Free Software Foundation.
  19:c:\program files (x86)\gnu tools arm embedded\6 2017-q2-update\arm-none-eabi\include\c++\6.3.1\cmath **** 
  20:c:\program files (x86)\gnu tools arm embedded\6 2017-q2-update\arm-none-eabi\include\c++\6.3.1\cmath **** // You should have received a copy of the GNU General Public License and
  21:c:\program files (x86)\gnu tools arm embedded\6 2017-q2-update\arm-none-eabi\include\c++\6.3.1\cmath **** // a copy of the GCC Runtime Library Exception along with this program;
  22:c:\program files (x86)\gnu tools arm embedded\6 2017-q2-update\arm-none-eabi\include\c++\6.3.1\cmath **** // see the files COPYING3 and COPYING.RUNTIME respectively.  If not, see
  23:c:\program files (x86)\gnu tools arm embedded\6 2017-q2-update\arm-none-eabi\include\c++\6.3.1\cmath **** // <http://www.gnu.org/licenses/>.
  24:c:\program files (x86)\gnu tools arm embedded\6 2017-q2-update\arm-none-eabi\include\c++\6.3.1\cmath **** 
  25:c:\program files (x86)\gnu tools arm embedded\6 2017-q2-update\arm-none-eabi\include\c++\6.3.1\cmath **** /** @file include/cmath
  26:c:\program files (x86)\gnu tools arm embedded\6 2017-q2-update\arm-none-eabi\include\c++\6.3.1\cmath ****  *  This is a Standard C++ Library file.  You should @c \#include this file
  27:c:\program files (x86)\gnu tools arm embedded\6 2017-q2-update\arm-none-eabi\include\c++\6.3.1\cmath ****  *  in your programs, rather than any of the @a *.h implementation files.
  28:c:\program files (x86)\gnu tools arm embedded\6 2017-q2-update\arm-none-eabi\include\c++\6.3.1\cmath ****  *
  29:c:\program files (x86)\gnu tools arm embedded\6 2017-q2-update\arm-none-eabi\include\c++\6.3.1\cmath ****  *  This is the C++ version of the Standard C Library header @c math.h,
  30:c:\program files (x86)\gnu tools arm embedded\6 2017-q2-update\arm-none-eabi\include\c++\6.3.1\cmath ****  *  and its contents are (mostly) the same as that header, but are all
  31:c:\program files (x86)\gnu tools arm embedded\6 2017-q2-update\arm-none-eabi\include\c++\6.3.1\cmath ****  *  contained in the namespace @c std (except for names which are defined
  32:c:\program files (x86)\gnu tools arm embedded\6 2017-q2-update\arm-none-eabi\include\c++\6.3.1\cmath ****  *  as macros in C).
  33:c:\program files (x86)\gnu tools arm embedded\6 2017-q2-update\arm-none-eabi\include\c++\6.3.1\cmath ****  */
  34:c:\program files (x86)\gnu tools arm embedded\6 2017-q2-update\arm-none-eabi\include\c++\6.3.1\cmath **** 
  35:c:\program files (x86)\gnu tools arm embedded\6 2017-q2-update\arm-none-eabi\include\c++\6.3.1\cmath **** //
  36:c:\program files (x86)\gnu tools arm embedded\6 2017-q2-update\arm-none-eabi\include\c++\6.3.1\cmath **** // ISO C++ 14882: 26.5  C library
  37:c:\program files (x86)\gnu tools arm embedded\6 2017-q2-update\arm-none-eabi\include\c++\6.3.1\cmath **** //
  38:c:\program files (x86)\gnu tools arm embedded\6 2017-q2-update\arm-none-eabi\include\c++\6.3.1\cmath **** 
  39:c:\program files (x86)\gnu tools arm embedded\6 2017-q2-update\arm-none-eabi\include\c++\6.3.1\cmath **** #pragma GCC system_header
  40:c:\program files (x86)\gnu tools arm embedded\6 2017-q2-update\arm-none-eabi\include\c++\6.3.1\cmath **** 
  41:c:\program files (x86)\gnu tools arm embedded\6 2017-q2-update\arm-none-eabi\include\c++\6.3.1\cmath **** #include <bits/c++config.h>
  42:c:\program files (x86)\gnu tools arm embedded\6 2017-q2-update\arm-none-eabi\include\c++\6.3.1\cmath **** #include <bits/cpp_type_traits.h>
  43:c:\program files (x86)\gnu tools arm embedded\6 2017-q2-update\arm-none-eabi\include\c++\6.3.1\cmath **** #include <ext/type_traits.h>
  44:c:\program files (x86)\gnu tools arm embedded\6 2017-q2-update\arm-none-eabi\include\c++\6.3.1\cmath **** #define _GLIBCXX_INCLUDE_NEXT_C_HEADERS
  45:c:\program files (x86)\gnu tools arm embedded\6 2017-q2-update\arm-none-eabi\include\c++\6.3.1\cmath **** #include_next <math.h>
  46:c:\program files (x86)\gnu tools arm embedded\6 2017-q2-update\arm-none-eabi\include\c++\6.3.1\cmath **** #undef _GLIBCXX_INCLUDE_NEXT_C_HEADERS
  47:c:\program files (x86)\gnu tools arm embedded\6 2017-q2-update\arm-none-eabi\include\c++\6.3.1\cmath **** 
  48:c:\program files (x86)\gnu tools arm embedded\6 2017-q2-update\arm-none-eabi\include\c++\6.3.1\cmath **** #ifndef _GLIBCXX_CMATH
  49:c:\program files (x86)\gnu tools arm embedded\6 2017-q2-update\arm-none-eabi\include\c++\6.3.1\cmath **** #define _GLIBCXX_CMATH 1
  50:c:\program files (x86)\gnu tools arm embedded\6 2017-q2-update\arm-none-eabi\include\c++\6.3.1\cmath **** 
  51:c:\program files (x86)\gnu tools arm embedded\6 2017-q2-update\arm-none-eabi\include\c++\6.3.1\cmath **** // Get rid of those macros defined in <math.h> in lieu of real functions.
  52:c:\program files (x86)\gnu tools arm embedded\6 2017-q2-update\arm-none-eabi\include\c++\6.3.1\cmath **** #undef abs
  53:c:\program files (x86)\gnu tools arm embedded\6 2017-q2-update\arm-none-eabi\include\c++\6.3.1\cmath **** #undef div
  54:c:\program files (x86)\gnu tools arm embedded\6 2017-q2-update\arm-none-eabi\include\c++\6.3.1\cmath **** #undef acos
  55:c:\program files (x86)\gnu tools arm embedded\6 2017-q2-update\arm-none-eabi\include\c++\6.3.1\cmath **** #undef asin
  56:c:\program files (x86)\gnu tools arm embedded\6 2017-q2-update\arm-none-eabi\include\c++\6.3.1\cmath **** #undef atan
  57:c:\program files (x86)\gnu tools arm embedded\6 2017-q2-update\arm-none-eabi\include\c++\6.3.1\cmath **** #undef atan2
  58:c:\program files (x86)\gnu tools arm embedded\6 2017-q2-update\arm-none-eabi\include\c++\6.3.1\cmath **** #undef ceil
  59:c:\program files (x86)\gnu tools arm embedded\6 2017-q2-update\arm-none-eabi\include\c++\6.3.1\cmath **** #undef cos
  60:c:\program files (x86)\gnu tools arm embedded\6 2017-q2-update\arm-none-eabi\include\c++\6.3.1\cmath **** #undef cosh
  61:c:\program files (x86)\gnu tools arm embedded\6 2017-q2-update\arm-none-eabi\include\c++\6.3.1\cmath **** #undef exp
  62:c:\program files (x86)\gnu tools arm embedded\6 2017-q2-update\arm-none-eabi\include\c++\6.3.1\cmath **** #undef fabs
  63:c:\program files (x86)\gnu tools arm embedded\6 2017-q2-update\arm-none-eabi\include\c++\6.3.1\cmath **** #undef floor
  64:c:\program files (x86)\gnu tools arm embedded\6 2017-q2-update\arm-none-eabi\include\c++\6.3.1\cmath **** #undef fmod
  65:c:\program files (x86)\gnu tools arm embedded\6 2017-q2-update\arm-none-eabi\include\c++\6.3.1\cmath **** #undef frexp
  66:c:\program files (x86)\gnu tools arm embedded\6 2017-q2-update\arm-none-eabi\include\c++\6.3.1\cmath **** #undef ldexp
  67:c:\program files (x86)\gnu tools arm embedded\6 2017-q2-update\arm-none-eabi\include\c++\6.3.1\cmath **** #undef log
  68:c:\program files (x86)\gnu tools arm embedded\6 2017-q2-update\arm-none-eabi\include\c++\6.3.1\cmath **** #undef log10
  69:c:\program files (x86)\gnu tools arm embedded\6 2017-q2-update\arm-none-eabi\include\c++\6.3.1\cmath **** #undef modf
  70:c:\program files (x86)\gnu tools arm embedded\6 2017-q2-update\arm-none-eabi\include\c++\6.3.1\cmath **** #undef pow
  71:c:\program files (x86)\gnu tools arm embedded\6 2017-q2-update\arm-none-eabi\include\c++\6.3.1\cmath **** #undef sin
  72:c:\program files (x86)\gnu tools arm embedded\6 2017-q2-update\arm-none-eabi\include\c++\6.3.1\cmath **** #undef sinh
  73:c:\program files (x86)\gnu tools arm embedded\6 2017-q2-update\arm-none-eabi\include\c++\6.3.1\cmath **** #undef sqrt
  74:c:\program files (x86)\gnu tools arm embedded\6 2017-q2-update\arm-none-eabi\include\c++\6.3.1\cmath **** #undef tan
  75:c:\program files (x86)\gnu tools arm embedded\6 2017-q2-update\arm-none-eabi\include\c++\6.3.1\cmath **** #undef tanh
  76:c:\program files (x86)\gnu tools arm embedded\6 2017-q2-update\arm-none-eabi\include\c++\6.3.1\cmath **** 
  77:c:\program files (x86)\gnu tools arm embedded\6 2017-q2-update\arm-none-eabi\include\c++\6.3.1\cmath **** extern "C++"
  78:c:\program files (x86)\gnu tools arm embedded\6 2017-q2-update\arm-none-eabi\include\c++\6.3.1\cmath **** {
  79:c:\program files (x86)\gnu tools arm embedded\6 2017-q2-update\arm-none-eabi\include\c++\6.3.1\cmath **** namespace std _GLIBCXX_VISIBILITY(default)
  80:c:\program files (x86)\gnu tools arm embedded\6 2017-q2-update\arm-none-eabi\include\c++\6.3.1\cmath **** {
  81:c:\program files (x86)\gnu tools arm embedded\6 2017-q2-update\arm-none-eabi\include\c++\6.3.1\cmath **** _GLIBCXX_BEGIN_NAMESPACE_VERSION
  82:c:\program files (x86)\gnu tools arm embedded\6 2017-q2-update\arm-none-eabi\include\c++\6.3.1\cmath **** 
  83:c:\program files (x86)\gnu tools arm embedded\6 2017-q2-update\arm-none-eabi\include\c++\6.3.1\cmath **** #ifndef __CORRECT_ISO_CPP_MATH_H_PROTO
  84:c:\program files (x86)\gnu tools arm embedded\6 2017-q2-update\arm-none-eabi\include\c++\6.3.1\cmath ****   inline _GLIBCXX_CONSTEXPR double
  85:c:\program files (x86)\gnu tools arm embedded\6 2017-q2-update\arm-none-eabi\include\c++\6.3.1\cmath ****   abs(double __x)
  86:c:\program files (x86)\gnu tools arm embedded\6 2017-q2-update\arm-none-eabi\include\c++\6.3.1\cmath ****   { return __builtin_fabs(__x); }
 1004              		.loc 3 86 0
 1005 08f8 E00BF0EE 		vabs.f64	d16, d16
 1006              	.LBE177:
 1007              	.LBE176:
 378:../src/tensorflow_lite/tensorflow/lite/micro/kernels/cmsis_nn/svdf.cc ****         context,
 1008              		.loc 1 378 0
 1009 08fc E20BF4EE 		vcmpe.f64	d16, d18
 1010 0900 10FAF1EE 		vmrs	APSR_nzcv, FPSCR
 375:../src/tensorflow_lite/tensorflow/lite/micro/kernels/cmsis_nn/svdf.cc **** 
 1011              		.loc 1 375 0
 1012 0904 C88AB7EE 		vcvt.f64.f32	d8, s16
 372:../src/tensorflow_lite/tensorflow/lite/micro/kernels/cmsis_nn/svdf.cc ****     const double effective_scale_2 =
 1013              		.loc 1 372 0
 1014 0908 C00AB7EE 		vcvt.f64.f32	d0, s0
 1015              	.LVL121:
 378:../src/tensorflow_lite/tensorflow/lite/micro/kernels/cmsis_nn/svdf.cc ****         context,
 1016              		.loc 1 378 0
 1017 090c 4200005A 		bpl	.L105
 385:../src/tensorflow_lite/tensorflow/lite/micro/kernels/cmsis_nn/svdf.cc ****     QuantizeMultiplier(effective_scale_2, &(data->effective_scale_2_a),
 1018              		.loc 1 385 0
 1019 0910 081085E2 		add	r1, r5, #8
 1020 0914 0500A0E1 		mov	r0, r5
 1021 0918 10308DE5 		str	r3, [sp, #16]
 1022              	.LVL122:
 1023 091c FEFFFFEB 		bl	_ZN6tflite18QuantizeMultiplierEdPlPi
 1024              	.LVL123:
 387:../src/tensorflow_lite/tensorflow/lite/micro/kernels/cmsis_nn/svdf.cc **** 
 1025              		.loc 1 387 0
 1026 0920 480BB0EE 		vmov.f64	d0, d8
 1027 0924 0C1085E2 		add	r1, r5, #12
 1028 0928 040085E2 		add	r0, r5, #4
 1029 092c FEFFFFEB 		bl	_ZN6tflite18QuantizeMultiplierEdPlPi
 1030              	.LVL124:
 390:../src/tensorflow_lite/tensorflow/lite/micro/kernels/cmsis_nn/svdf.cc **** 
 1031              		.loc 1 390 0
 1032 0930 10309DE5 		ldr	r3, [sp, #16]
 392:../src/tensorflow_lite/tensorflow/lite/micro/kernels/cmsis_nn/svdf.cc **** 
 1033              		.loc 1 392 0
 1034 0934 406094E5 		ldr	r6, [r4, #64]
 389:../src/tensorflow_lite/tensorflow/lite/micro/kernels/cmsis_nn/svdf.cc ****     data->output_zero_point = output->params.zero_point;
 1035              		.loc 1 389 0
 1036 0938 102097E5 		ldr	r2, [r7, #16]
 390:../src/tensorflow_lite/tensorflow/lite/micro/kernels/cmsis_nn/svdf.cc **** 
 1037              		.loc 1 390 0
 1038 093c 103093E5 		ldr	r3, [r3, #16]
 392:../src/tensorflow_lite/tensorflow/lite/micro/kernels/cmsis_nn/svdf.cc **** 
 1039              		.loc 1 392 0
 1040 0940 000056E3 		cmp	r6, #0
 389:../src/tensorflow_lite/tensorflow/lite/micro/kernels/cmsis_nn/svdf.cc ****     data->output_zero_point = output->params.zero_point;
 1041              		.loc 1 389 0
 1042 0944 182085E5 		str	r2, [r5, #24]
 390:../src/tensorflow_lite/tensorflow/lite/micro/kernels/cmsis_nn/svdf.cc **** 
 1043              		.loc 1 390 0
 1044 0948 1C3085E5 		str	r3, [r5, #28]
 392:../src/tensorflow_lite/tensorflow/lite/micro/kernels/cmsis_nn/svdf.cc **** 
 1045              		.loc 1 392 0
 1046 094c 8EFFFF0A 		beq	.L33
 1047              	.LVL125:
 395:../src/tensorflow_lite/tensorflow/lite/micro/kernels/cmsis_nn/svdf.cc ****         &(data->scratch_tensor_index));
 1048              		.loc 1 395 0
 1049 0950 18309DE5 		ldr	r3, [sp, #24]
 396:../src/tensorflow_lite/tensorflow/lite/micro/kernels/cmsis_nn/svdf.cc ****     TF_LITE_ENSURE_OK(context, scratch_status);
 1050              		.loc 1 396 0
 1051 0954 102085E2 		add	r2, r5, #16
 1052 0958 0400A0E1 		mov	r0, r4
 395:../src/tensorflow_lite/tensorflow/lite/micro/kernels/cmsis_nn/svdf.cc ****         &(data->scratch_tensor_index));
 1053              		.loc 1 395 0
 1054 095c 990301E0 		mul	r1, r9, r3
 396:../src/tensorflow_lite/tensorflow/lite/micro/kernels/cmsis_nn/svdf.cc ****     TF_LITE_ENSURE_OK(context, scratch_status);
 1055              		.loc 1 396 0
 1056 0960 0111A0E1 		lsl	r1, r1, #2
 1057 0964 36FF2FE1 		blx	r6
 1058              	.LVL126:
 1059              	.LBB178:
 397:../src/tensorflow_lite/tensorflow/lite/micro/kernels/cmsis_nn/svdf.cc **** 
 1060              		.loc 1 397 0
 1061 0968 000050E3 		cmp	r0, #0
 1062              	.LVL127:
 1063 096c ECFDFF1A 		bne	.L11
 1064              	.LBE178:
 401:../src/tensorflow_lite/tensorflow/lite/micro/kernels/cmsis_nn/svdf.cc ****             &(data->scratch_output_tensor_index));
 1065              		.loc 1 401 0
 1066 0970 18309DE5 		ldr	r3, [sp, #24]
 402:../src/tensorflow_lite/tensorflow/lite/micro/kernels/cmsis_nn/svdf.cc ****     TF_LITE_ENSURE_OK(context, scratch_output_status);
 1067              		.loc 1 402 0
 1068 0974 142085E2 		add	r2, r5, #20
 401:../src/tensorflow_lite/tensorflow/lite/micro/kernels/cmsis_nn/svdf.cc ****             &(data->scratch_output_tensor_index));
 1069              		.loc 1 401 0
 1070 0978 9A0301E0 		mul	r1, r10, r3
 402:../src/tensorflow_lite/tensorflow/lite/micro/kernels/cmsis_nn/svdf.cc ****     TF_LITE_ENSURE_OK(context, scratch_output_status);
 1071              		.loc 1 402 0
 1072 097c 403094E5 		ldr	r3, [r4, #64]
 1073 0980 65FEFFEA 		b	.L72
 1074              	.LVL128:
 1075              	.L102:
 363:../src/tensorflow_lite/tensorflow/lite/micro/kernels/cmsis_nn/svdf.cc ****     if (bias != nullptr) {
 1076              		.loc 1 363 0 discriminator 1
 1077 0984 00C000E3 		movw	ip, #:lower16:.LC39
 1078 0988 003000E3 		movw	r3, #:lower16:.LC41
 1079              	.LVL129:
 1080 098c 00C040E3 		movt	ip, #:upper16:.LC39
 1081 0990 003040E3 		movt	r3, #:upper16:.LC41
 1082 0994 07E0A0E3 		mov	lr, #7
 1083 0998 002000E3 		movw	r2, #:lower16:.LC1
 1084 099c 001000E3 		movw	r1, #:lower16:.LC7
 1085 09a0 08008DE5 		str	r0, [sp, #8]
 1086 09a4 00308DE5 		str	r3, [sp]
 1087 09a8 0400A0E1 		mov	r0, r4
 1088 09ac 04C08DE5 		str	ip, [sp, #4]
 1089 09b0 002040E3 		movt	r2, #:upper16:.LC1
 1090 09b4 0CE08DE5 		str	lr, [sp, #12]
 1091 09b8 001040E3 		movt	r1, #:upper16:.LC7
 1092 09bc 144094E5 		ldr	r4, [r4, #20]
 1093              	.LVL130:
 1094 09c0 6B3100E3 		movw	r3, #363
 1095 09c4 34FF2FE1 		blx	r4
 1096              	.LVL131:
 1097 09c8 0100A0E3 		mov	r0, #1
 1098 09cc D4FDFFEA 		b	.L11
 1099              	.LVL132:
 1100              	.L101:
 362:../src/tensorflow_lite/tensorflow/lite/micro/kernels/cmsis_nn/svdf.cc ****     TF_LITE_ENSURE_EQ(context, activation_state->type, kTfLiteInt16);
 1101              		.loc 1 362 0 discriminator 1
 1102 09d0 00C000E3 		movw	ip, #:lower16:.LC39
 1103 09d4 003000E3 		movw	r3, #:lower16:.LC40
 1104              	.LVL133:
 1105 09d8 00C040E3 		movt	ip, #:upper16:.LC39
 1106 09dc 003040E3 		movt	r3, #:upper16:.LC40
 1107 09e0 07E0A0E3 		mov	lr, #7
 1108 09e4 002000E3 		movw	r2, #:lower16:.LC1
 1109 09e8 001000E3 		movw	r1, #:lower16:.LC7
 1110 09ec 08008DE5 		str	r0, [sp, #8]
 1111 09f0 00308DE5 		str	r3, [sp]
 1112 09f4 0400A0E1 		mov	r0, r4
 1113 09f8 04C08DE5 		str	ip, [sp, #4]
 1114 09fc 002040E3 		movt	r2, #:upper16:.LC1
 1115 0a00 0CE08DE5 		str	lr, [sp, #12]
 1116 0a04 001040E3 		movt	r1, #:upper16:.LC7
 1117 0a08 144094E5 		ldr	r4, [r4, #20]
 1118              	.LVL134:
 1119 0a0c 6A3100E3 		movw	r3, #362
 1120 0a10 34FF2FE1 		blx	r4
 1121              	.LVL135:
 1122 0a14 0100A0E3 		mov	r0, #1
 1123 0a18 C1FDFFEA 		b	.L11
 1124              	.LVL136:
 1125              	.L105:
 378:../src/tensorflow_lite/tensorflow/lite/micro/kernels/cmsis_nn/svdf.cc ****         context,
 1126              		.loc 1 378 0 discriminator 1
 1127 0a1c 003000E3 		movw	r3, #:lower16:.LC46
 1128              	.LVL137:
 1129 0a20 002000E3 		movw	r2, #:lower16:.LC1
 1130 0a24 003040E3 		movt	r3, #:upper16:.LC46
 1131 0a28 001000E3 		movw	r1, #:lower16:.LC2
 1132 0a2c 00308DE5 		str	r3, [sp]
 1133 0a30 0400A0E1 		mov	r0, r4
 1134 0a34 002040E3 		movt	r2, #:upper16:.LC1
 1135 0a38 001040E3 		movt	r1, #:upper16:.LC2
 1136 0a3c 145094E5 		ldr	r5, [r4, #20]
 1137              	.LVL138:
 1138 0a40 7E3100E3 		movw	r3, #382
 1139 0a44 35FF2FE1 		blx	r5
 1140              	.LVL139:
 1141 0a48 0100A0E3 		mov	r0, #1
 1142 0a4c B4FDFFEA 		b	.L11
 1143              	.LVL140:
 1144              	.L104:
 368:../src/tensorflow_lite/tensorflow/lite/micro/kernels/cmsis_nn/svdf.cc **** 
 1145              		.loc 1 368 0 discriminator 1
 1146 0a50 145094E5 		ldr	r5, [r4, #20]
 1147              	.LVL141:
 1148 0a54 FEFFFFEB 		bl	TfLiteTypeGetName
 1149              	.LVL142:
 1150 0a58 0060A0E1 		mov	r6, r0
 1151 0a5c 0900A0E3 		mov	r0, #9
 1152 0a60 FEFFFFEB 		bl	TfLiteTypeGetName
 1153              	.LVL143:
 1154 0a64 00C000E3 		movw	ip, #:lower16:.LC37
 1155 0a68 003000E3 		movw	r3, #:lower16:.LC45
 1156 0a6c 00C040E3 		movt	ip, #:upper16:.LC37
 1157 0a70 003040E3 		movt	r3, #:upper16:.LC45
 1158 0a74 002000E3 		movw	r2, #:lower16:.LC1
 1159 0a78 001000E3 		movw	r1, #:lower16:.LC44
 1160 0a7c 0C008DE5 		str	r0, [sp, #12]
 1161 0a80 002040E3 		movt	r2, #:upper16:.LC1
 1162 0a84 0400A0E1 		mov	r0, r4
 1163 0a88 08108DE8 		stm	sp, {r3, ip}
 1164 0a8c 08608DE5 		str	r6, [sp, #8]
 1165 0a90 001040E3 		movt	r1, #:upper16:.LC44
 1166 0a94 173EA0E3 		mov	r3, #368
 1167 0a98 35FF2FE1 		blx	r5
 1168              	.LVL144:
 1169 0a9c 0100A0E3 		mov	r0, #1
 1170 0aa0 9FFDFFEA 		b	.L11
 1171              	.LVL145:
 1172              	.L100:
 361:../src/tensorflow_lite/tensorflow/lite/micro/kernels/cmsis_nn/svdf.cc ****     TF_LITE_ENSURE_EQ(context, weights_time->type, kTfLiteInt16);
 1173              		.loc 1 361 0 discriminator 1
 1174 0aa4 00E000E3 		movw	lr, #:lower16:.LC37
 1175 0aa8 003000E3 		movw	r3, #:lower16:.LC38
 1176              	.LVL146:
 1177 0aac 00E040E3 		movt	lr, #:upper16:.LC37
 1178 0ab0 003040E3 		movt	r3, #:upper16:.LC38
 1179 0ab4 002000E3 		movw	r2, #:lower16:.LC1
 1180 0ab8 001000E3 		movw	r1, #:lower16:.LC7
 1181 0abc 08008DE5 		str	r0, [sp, #8]
 1182 0ac0 002040E3 		movt	r2, #:upper16:.LC1
 1183 0ac4 0400A0E1 		mov	r0, r4
 1184 0ac8 00308DE5 		str	r3, [sp]
 1185 0acc 0CC08DE5 		str	ip, [sp, #12]
 1186 0ad0 001040E3 		movt	r1, #:upper16:.LC7
 1187 0ad4 04E08DE5 		str	lr, [sp, #4]
 1188 0ad8 693100E3 		movw	r3, #361
 1189 0adc 144094E5 		ldr	r4, [r4, #20]
 1190              	.LVL147:
 1191 0ae0 34FF2FE1 		blx	r4
 1192              	.LVL148:
 1193 0ae4 0100A0E3 		mov	r0, #1
 1194 0ae8 8DFDFFEA 		b	.L11
 1195              	.LVL149:
 1196              	.L103:
 365:../src/tensorflow_lite/tensorflow/lite/micro/kernels/cmsis_nn/svdf.cc ****     }
 1197              		.loc 1 365 0 discriminator 1
 1198 0aec 00C000E3 		movw	ip, #:lower16:.LC42
 1199 0af0 003000E3 		movw	r3, #:lower16:.LC43
 1200              	.LVL150:
 1201 0af4 00C040E3 		movt	ip, #:upper16:.LC42
 1202 0af8 003040E3 		movt	r3, #:upper16:.LC43
 1203 0afc 02E0A0E3 		mov	lr, #2
 1204 0b00 002000E3 		movw	r2, #:lower16:.LC1
 1205 0b04 001000E3 		movw	r1, #:lower16:.LC7
 1206 0b08 08008DE5 		str	r0, [sp, #8]
 1207 0b0c 00308DE5 		str	r3, [sp]
 1208 0b10 0400A0E1 		mov	r0, r4
 1209 0b14 04C08DE5 		str	ip, [sp, #4]
 1210 0b18 002040E3 		movt	r2, #:upper16:.LC1
 1211 0b1c 0CE08DE5 		str	lr, [sp, #12]
 1212 0b20 001040E3 		movt	r1, #:upper16:.LC7
 1213 0b24 144094E5 		ldr	r4, [r4, #20]
 1214              	.LVL151:
 1215 0b28 6D3100E3 		movw	r3, #365
 1216 0b2c 34FF2FE1 		blx	r4
 1217              	.LVL152:
 1218 0b30 0100A0E3 		mov	r0, #1
 1219 0b34 7AFDFFEA 		b	.L11
 1220              	.LVL153:
 1221              	.L96:
 1222              	.LBE175:
 1223              	.LBB179:
 406:../src/tensorflow_lite/tensorflow/lite/micro/kernels/cmsis_nn/svdf.cc ****     TF_LITE_ENSURE_EQ(context, activation_state->type, kTfLiteFloat32);
 1224              		.loc 1 406 0 discriminator 1
 1225 0b38 000000E3 		movw	r0, #:lower16:.LC47
 1226 0b3c 003000E3 		movw	r3, #:lower16:.LC40
 1227              	.LVL154:
 1228 0b40 000040E3 		movt	r0, #:upper16:.LC47
 1229 0b44 003040E3 		movt	r3, #:upper16:.LC40
 1230 0b48 002000E3 		movw	r2, #:lower16:.LC1
 1231 0b4c 001000E3 		movw	r1, #:lower16:.LC7
 1232 0b50 04008DE5 		str	r0, [sp, #4]
 1233 0b54 002040E3 		movt	r2, #:upper16:.LC1
 1234 0b58 0400A0E1 		mov	r0, r4
 1235 0b5c 00308DE5 		str	r3, [sp]
 1236 0b60 0C608DE5 		str	r6, [sp, #12]
 1237 0b64 001040E3 		movt	r1, #:upper16:.LC7
 1238 0b68 08C08DE5 		str	ip, [sp, #8]
 1239 0b6c 963100E3 		movw	r3, #406
 1240 0b70 144094E5 		ldr	r4, [r4, #20]
 1241              	.LVL155:
 1242 0b74 34FF2FE1 		blx	r4
 1243              	.LVL156:
 1244 0b78 0600A0E1 		mov	r0, r6
 1245 0b7c 68FDFFEA 		b	.L11
 1246              	.LVL157:
 1247              	.L95:
 405:../src/tensorflow_lite/tensorflow/lite/micro/kernels/cmsis_nn/svdf.cc ****     TF_LITE_ENSURE_EQ(context, weights_time->type, kTfLiteFloat32);
 1248              		.loc 1 405 0 discriminator 1
 1249 0b80 000000E3 		movw	r0, #:lower16:.LC47
 1250 0b84 003000E3 		movw	r3, #:lower16:.LC38
 1251              	.LVL158:
 1252 0b88 000040E3 		movt	r0, #:upper16:.LC47
 1253 0b8c 003040E3 		movt	r3, #:upper16:.LC38
 1254 0b90 0150A0E3 		mov	r5, #1
 1255              	.LVL159:
 1256 0b94 002000E3 		movw	r2, #:lower16:.LC1
 1257 0b98 001000E3 		movw	r1, #:lower16:.LC7
 1258 0b9c 41008DE9 		stmib	sp, {r0, r6}
 1259              	.LVL160:
 1260 0ba0 00308DE5 		str	r3, [sp]
 1261 0ba4 0400A0E1 		mov	r0, r4
 1262 0ba8 0C508DE5 		str	r5, [sp, #12]
 1263 0bac 002040E3 		movt	r2, #:upper16:.LC1
 1264 0bb0 001040E3 		movt	r1, #:upper16:.LC7
 1265 0bb4 144094E5 		ldr	r4, [r4, #20]
 1266              	.LVL161:
 1267 0bb8 953100E3 		movw	r3, #405
 1268 0bbc 34FF2FE1 		blx	r4
 1269              	.LVL162:
 1270 0bc0 0500A0E1 		mov	r0, r5
 1271 0bc4 56FDFFEA 		b	.L11
 1272              	.LVL163:
 1273              	.L98:
 409:../src/tensorflow_lite/tensorflow/lite/micro/kernels/cmsis_nn/svdf.cc ****     }
 1274              		.loc 1 409 0 discriminator 1
 1275 0bc8 000000E3 		movw	r0, #:lower16:.LC47
 1276 0bcc 003000E3 		movw	r3, #:lower16:.LC43
 1277              	.LVL164:
 1278 0bd0 000040E3 		movt	r0, #:upper16:.LC47
 1279 0bd4 003040E3 		movt	r3, #:upper16:.LC43
 1280 0bd8 0160A0E3 		mov	r6, #1
 1281 0bdc 002000E3 		movw	r2, #:lower16:.LC1
 1282 0be0 001000E3 		movw	r1, #:lower16:.LC7
 1283 0be4 01108DE9 		stmib	sp, {r0, ip}
 1284 0be8 00308DE5 		str	r3, [sp]
 1285 0bec 0400A0E1 		mov	r0, r4
 1286 0bf0 0C608DE5 		str	r6, [sp, #12]
 1287 0bf4 002040E3 		movt	r2, #:upper16:.LC1
 1288 0bf8 001040E3 		movt	r1, #:upper16:.LC7
 1289 0bfc 144094E5 		ldr	r4, [r4, #20]
 1290              	.LVL165:
 1291 0c00 993100E3 		movw	r3, #409
 1292 0c04 34FF2FE1 		blx	r4
 1293              	.LVL166:
 1294 0c08 0600A0E1 		mov	r0, r6
 1295 0c0c 44FDFFEA 		b	.L11
 1296              	.LVL167:
 1297              	.L92:
 1298              	.LBE179:
 1299              	.LBE182:
 353:../src/tensorflow_lite/tensorflow/lite/micro/kernels/cmsis_nn/svdf.cc **** 
 1300              		.loc 1 353 0 discriminator 1
 1301 0c10 00C000E3 		movw	ip, #:lower16:.LC33
 1302 0c14 003000E3 		movw	r3, #:lower16:.LC34
 1303              	.LVL168:
 1304 0c18 00C040E3 		movt	ip, #:upper16:.LC33
 1305 0c1c 003040E3 		movt	r3, #:upper16:.LC34
 1306 0c20 0160A0E3 		mov	r6, #1
 1307 0c24 002000E3 		movw	r2, #:lower16:.LC1
 1308 0c28 001000E3 		movw	r1, #:lower16:.LC7
 1309 0c2c 08008DE5 		str	r0, [sp, #8]
 1310 0c30 00308DE5 		str	r3, [sp]
 1311 0c34 0400A0E1 		mov	r0, r4
 1312 0c38 04C08DE5 		str	ip, [sp, #4]
 1313 0c3c 002040E3 		movt	r2, #:upper16:.LC1
 1314 0c40 0C608DE5 		str	r6, [sp, #12]
 1315 0c44 001040E3 		movt	r1, #:upper16:.LC7
 1316 0c48 144094E5 		ldr	r4, [r4, #20]
 1317              	.LVL169:
 1318 0c4c 613100E3 		movw	r3, #353
 1319 0c50 34FF2FE1 		blx	r4
 1320              	.LVL170:
 1321 0c54 0600A0E1 		mov	r0, r6
 1322 0c58 31FDFFEA 		b	.L11
 1323              	.LVL171:
 1324              	.L97:
 1325              	.LBB183:
 1326              	.LBB180:
 407:../src/tensorflow_lite/tensorflow/lite/micro/kernels/cmsis_nn/svdf.cc ****     if (bias != nullptr) {
 1327              		.loc 1 407 0 discriminator 1
 1328 0c5c 000000E3 		movw	r0, #:lower16:.LC47
 1329 0c60 003000E3 		movw	r3, #:lower16:.LC41
 1330              	.LVL172:
 1331 0c64 000040E3 		movt	r0, #:upper16:.LC47
 1332 0c68 003040E3 		movt	r3, #:upper16:.LC41
 1333 0c6c 0160A0E3 		mov	r6, #1
 1334 0c70 002000E3 		movw	r2, #:lower16:.LC1
 1335 0c74 001000E3 		movw	r1, #:lower16:.LC7
 1336 0c78 01108DE9 		stmib	sp, {r0, ip}
 1337 0c7c 00308DE5 		str	r3, [sp]
 1338 0c80 0400A0E1 		mov	r0, r4
 1339 0c84 0C608DE5 		str	r6, [sp, #12]
 1340 0c88 002040E3 		movt	r2, #:upper16:.LC1
 1341 0c8c 001040E3 		movt	r1, #:upper16:.LC7
 1342 0c90 144094E5 		ldr	r4, [r4, #20]
 1343              	.LVL173:
 1344 0c94 973100E3 		movw	r3, #407
 1345 0c98 34FF2FE1 		blx	r4
 1346              	.LVL174:
 1347 0c9c 0600A0E1 		mov	r0, r6
 1348 0ca0 1FFDFFEA 		b	.L11
 1349              	.L107:
 1350 0ca4 00F020E3 		.align	3
 1351              	.L106:
 1352 0ca8 F168E388 		.word	-1998362383
 1353 0cac B5F8E43E 		.word	1055193269
 1354              	.LVL175:
 1355              	.L99:
 411:../src/tensorflow_lite/tensorflow/lite/micro/kernels/cmsis_nn/svdf.cc **** 
 1356              		.loc 1 411 0 discriminator 1
 1357 0cb0 145094E5 		ldr	r5, [r4, #20]
 1358              	.LVL176:
 1359 0cb4 FEFFFFEB 		bl	TfLiteTypeGetName
 1360              	.LVL177:
 1361 0cb8 0060A0E1 		mov	r6, r0
 1362 0cbc 0100A0E3 		mov	r0, #1
 1363 0cc0 FEFFFFEB 		bl	TfLiteTypeGetName
 1364              	.LVL178:
 1365 0cc4 00C000E3 		movw	ip, #:lower16:.LC47
 1366 0cc8 003000E3 		movw	r3, #:lower16:.LC45
 1367 0ccc 00C040E3 		movt	ip, #:upper16:.LC47
 1368 0cd0 003040E3 		movt	r3, #:upper16:.LC45
 1369 0cd4 002000E3 		movw	r2, #:lower16:.LC1
 1370 0cd8 001000E3 		movw	r1, #:lower16:.LC44
 1371 0cdc 0C008DE5 		str	r0, [sp, #12]
 1372 0ce0 002040E3 		movt	r2, #:upper16:.LC1
 1373 0ce4 0400A0E1 		mov	r0, r4
 1374 0ce8 08108DE8 		stm	sp, {r3, ip}
 1375 0cec 08608DE5 		str	r6, [sp, #8]
 1376 0cf0 001040E3 		movt	r1, #:upper16:.LC44
 1377 0cf4 9B3100E3 		movw	r3, #411
 1378 0cf8 35FF2FE1 		blx	r5
 1379              	.LVL179:
 1380 0cfc 0100A0E3 		mov	r0, #1
 1381 0d00 07FDFFEA 		b	.L11
 1382              	.LBE180:
 1383              	.LBE183:
 1384              		.cfi_endproc
 1385              	.LFE4268:
 1386              		.fnend
 1388              		.section	.text._ZN6tflite12_GLOBAL__N_14EvalEP13TfLiteContextP10TfLiteNode,"ax",%progbits
 1389              		.align	2
 1390              		.syntax unified
 1391              		.arm
 1392              		.fpu neon
 1394              	_ZN6tflite12_GLOBAL__N_14EvalEP13TfLiteContextP10TfLiteNode:
 1395              		.fnstart
 1396              	.LFB4269:
 422:../src/tensorflow_lite/tensorflow/lite/micro/kernels/cmsis_nn/svdf.cc **** 
 423:../src/tensorflow_lite/tensorflow/lite/micro/kernels/cmsis_nn/svdf.cc **** TfLiteStatus Eval(TfLiteContext* context, TfLiteNode* node) {
 1397              		.loc 1 423 0
 1398              		.cfi_startproc
 1399              		@ args = 0, pretend = 0, frame = 224
 1400              		@ frame_needed = 0, uses_anonymous_args = 0
 1401              	.LVL180:
 1402 0000 F04F2DE9 		push	{r4, r5, r6, r7, r8, r9, r10, fp, lr}
 1403              		.save {r4, r5, r6, r7, r8, r9, r10, fp, lr}
 1404              		.cfi_def_cfa_offset 36
 1405              		.cfi_offset 4, -36
 1406              		.cfi_offset 5, -32
 1407              		.cfi_offset 6, -28
 1408              		.cfi_offset 7, -24
 1409              		.cfi_offset 8, -20
 1410              		.cfi_offset 9, -16
 1411              		.cfi_offset 10, -12
 1412              		.cfi_offset 11, -8
 1413              		.cfi_offset 14, -4
 424:../src/tensorflow_lite/tensorflow/lite/micro/kernels/cmsis_nn/svdf.cc ****   auto* params = reinterpret_cast<TfLiteSVDFParams*>(node->builtin_data);
 425:../src/tensorflow_lite/tensorflow/lite/micro/kernels/cmsis_nn/svdf.cc ****   TFLITE_DCHECK(node->user_data != nullptr);
 1414              		.loc 1 425 0
 1415 0004 106091E5 		ldr	r6, [r1, #16]
 424:../src/tensorflow_lite/tensorflow/lite/micro/kernels/cmsis_nn/svdf.cc ****   auto* params = reinterpret_cast<TfLiteSVDFParams*>(node->builtin_data);
 1416              		.loc 1 424 0
 1417 0008 143091E5 		ldr	r3, [r1, #20]
 1418              		.loc 1 425 0
 1419 000c 000056E3 		cmp	r6, #0
 423:../src/tensorflow_lite/tensorflow/lite/micro/kernels/cmsis_nn/svdf.cc ****   auto* params = reinterpret_cast<TfLiteSVDFParams*>(node->builtin_data);
 1420              		.loc 1 423 0
 1421 0010 048B2DED 		vpush.64	{d8, d9}
 1422              		.vsave {d8, d9}
 1423              		.cfi_def_cfa_offset 52
 1424              		.cfi_offset 80, -52
 1425              		.cfi_offset 81, -48
 1426              		.cfi_offset 82, -44
 1427              		.cfi_offset 83, -40
 1428              		.pad #284
 1429 0014 47DF4DE2 		sub	sp, sp, #284
 1430              		.cfi_def_cfa_offset 336
 424:../src/tensorflow_lite/tensorflow/lite/micro/kernels/cmsis_nn/svdf.cc ****   auto* params = reinterpret_cast<TfLiteSVDFParams*>(node->builtin_data);
 1431              		.loc 1 424 0
 1432 0018 54308DE5 		str	r3, [sp, #84]
 1433              	.LVL181:
 1434              		.loc 1 425 0
 1435 001c 5802000A 		beq	.L110
 1436              	.LBB306:
 1437              	.LBB307:
 1438              	.LBB308:
 1439              		.file 4 "C:/Renesas/e2studio_2021_01_workspace_RZA2M_ANPR/ANPR_RZA2M_GR_MANGO/src/tensorflow_lite/
   1:C:/Renesas/e2studio_2021_01_workspace_RZA2M_ANPR/ANPR_RZA2M_GR_MANGO/src/tensorflow_lite/tensorflow/lite/micro/kernels\kernel_util.h **** /* Copyright 2020 The TensorFlow Authors. All Rights Reserved.
   2:C:/Renesas/e2studio_2021_01_workspace_RZA2M_ANPR/ANPR_RZA2M_GR_MANGO/src/tensorflow_lite/tensorflow/lite/micro/kernels\kernel_util.h **** 
   3:C:/Renesas/e2studio_2021_01_workspace_RZA2M_ANPR/ANPR_RZA2M_GR_MANGO/src/tensorflow_lite/tensorflow/lite/micro/kernels\kernel_util.h **** Licensed under the Apache License, Version 2.0 (the "License");
   4:C:/Renesas/e2studio_2021_01_workspace_RZA2M_ANPR/ANPR_RZA2M_GR_MANGO/src/tensorflow_lite/tensorflow/lite/micro/kernels\kernel_util.h **** you may not use this file except in compliance with the License.
   5:C:/Renesas/e2studio_2021_01_workspace_RZA2M_ANPR/ANPR_RZA2M_GR_MANGO/src/tensorflow_lite/tensorflow/lite/micro/kernels\kernel_util.h **** You may obtain a copy of the License at
   6:C:/Renesas/e2studio_2021_01_workspace_RZA2M_ANPR/ANPR_RZA2M_GR_MANGO/src/tensorflow_lite/tensorflow/lite/micro/kernels\kernel_util.h **** 
   7:C:/Renesas/e2studio_2021_01_workspace_RZA2M_ANPR/ANPR_RZA2M_GR_MANGO/src/tensorflow_lite/tensorflow/lite/micro/kernels\kernel_util.h ****     http://www.apache.org/licenses/LICENSE-2.0
   8:C:/Renesas/e2studio_2021_01_workspace_RZA2M_ANPR/ANPR_RZA2M_GR_MANGO/src/tensorflow_lite/tensorflow/lite/micro/kernels\kernel_util.h **** 
   9:C:/Renesas/e2studio_2021_01_workspace_RZA2M_ANPR/ANPR_RZA2M_GR_MANGO/src/tensorflow_lite/tensorflow/lite/micro/kernels\kernel_util.h **** Unless required by applicable law or agreed to in writing, software
  10:C:/Renesas/e2studio_2021_01_workspace_RZA2M_ANPR/ANPR_RZA2M_GR_MANGO/src/tensorflow_lite/tensorflow/lite/micro/kernels\kernel_util.h **** distributed under the License is distributed on an "AS IS" BASIS,
  11:C:/Renesas/e2studio_2021_01_workspace_RZA2M_ANPR/ANPR_RZA2M_GR_MANGO/src/tensorflow_lite/tensorflow/lite/micro/kernels\kernel_util.h **** WITHOUT WARRANTIES OR CONDITIONS OF ANY KIND, either express or implied.
  12:C:/Renesas/e2studio_2021_01_workspace_RZA2M_ANPR/ANPR_RZA2M_GR_MANGO/src/tensorflow_lite/tensorflow/lite/micro/kernels\kernel_util.h **** See the License for the specific language governing permissions and
  13:C:/Renesas/e2studio_2021_01_workspace_RZA2M_ANPR/ANPR_RZA2M_GR_MANGO/src/tensorflow_lite/tensorflow/lite/micro/kernels\kernel_util.h **** limitations under the License.
  14:C:/Renesas/e2studio_2021_01_workspace_RZA2M_ANPR/ANPR_RZA2M_GR_MANGO/src/tensorflow_lite/tensorflow/lite/micro/kernels\kernel_util.h **** ==============================================================================*/
  15:C:/Renesas/e2studio_2021_01_workspace_RZA2M_ANPR/ANPR_RZA2M_GR_MANGO/src/tensorflow_lite/tensorflow/lite/micro/kernels\kernel_util.h **** 
  16:C:/Renesas/e2studio_2021_01_workspace_RZA2M_ANPR/ANPR_RZA2M_GR_MANGO/src/tensorflow_lite/tensorflow/lite/micro/kernels\kernel_util.h **** #ifndef TENSORFLOW_LITE_MICRO_KERNELS_KERNEL_UTIL_H_
  17:C:/Renesas/e2studio_2021_01_workspace_RZA2M_ANPR/ANPR_RZA2M_GR_MANGO/src/tensorflow_lite/tensorflow/lite/micro/kernels\kernel_util.h **** #define TENSORFLOW_LITE_MICRO_KERNELS_KERNEL_UTIL_H_
  18:C:/Renesas/e2studio_2021_01_workspace_RZA2M_ANPR/ANPR_RZA2M_GR_MANGO/src/tensorflow_lite/tensorflow/lite/micro/kernels\kernel_util.h **** 
  19:C:/Renesas/e2studio_2021_01_workspace_RZA2M_ANPR/ANPR_RZA2M_GR_MANGO/src/tensorflow_lite/tensorflow/lite/micro/kernels\kernel_util.h **** #include <cstdint>
  20:C:/Renesas/e2studio_2021_01_workspace_RZA2M_ANPR/ANPR_RZA2M_GR_MANGO/src/tensorflow_lite/tensorflow/lite/micro/kernels\kernel_util.h **** 
  21:C:/Renesas/e2studio_2021_01_workspace_RZA2M_ANPR/ANPR_RZA2M_GR_MANGO/src/tensorflow_lite/tensorflow/lite/micro/kernels\kernel_util.h **** #include "tensorflow/lite/c/builtin_op_data.h"
  22:C:/Renesas/e2studio_2021_01_workspace_RZA2M_ANPR/ANPR_RZA2M_GR_MANGO/src/tensorflow_lite/tensorflow/lite/micro/kernels\kernel_util.h **** #include "tensorflow/lite/c/common.h"
  23:C:/Renesas/e2studio_2021_01_workspace_RZA2M_ANPR/ANPR_RZA2M_GR_MANGO/src/tensorflow_lite/tensorflow/lite/micro/kernels\kernel_util.h **** #include "tensorflow/lite/kernels/internal/compatibility.h"
  24:C:/Renesas/e2studio_2021_01_workspace_RZA2M_ANPR/ANPR_RZA2M_GR_MANGO/src/tensorflow_lite/tensorflow/lite/micro/kernels\kernel_util.h **** #include "tensorflow/lite/kernels/internal/types.h"
  25:C:/Renesas/e2studio_2021_01_workspace_RZA2M_ANPR/ANPR_RZA2M_GR_MANGO/src/tensorflow_lite/tensorflow/lite/micro/kernels\kernel_util.h **** 
  26:C:/Renesas/e2studio_2021_01_workspace_RZA2M_ANPR/ANPR_RZA2M_GR_MANGO/src/tensorflow_lite/tensorflow/lite/micro/kernels\kernel_util.h **** namespace tflite {
  27:C:/Renesas/e2studio_2021_01_workspace_RZA2M_ANPR/ANPR_RZA2M_GR_MANGO/src/tensorflow_lite/tensorflow/lite/micro/kernels\kernel_util.h **** namespace micro {
  28:C:/Renesas/e2studio_2021_01_workspace_RZA2M_ANPR/ANPR_RZA2M_GR_MANGO/src/tensorflow_lite/tensorflow/lite/micro/kernels\kernel_util.h **** 
  29:C:/Renesas/e2studio_2021_01_workspace_RZA2M_ANPR/ANPR_RZA2M_GR_MANGO/src/tensorflow_lite/tensorflow/lite/micro/kernels\kernel_util.h **** // Returns a mutable tensor for a given input index. is_variable must be checked
  30:C:/Renesas/e2studio_2021_01_workspace_RZA2M_ANPR/ANPR_RZA2M_GR_MANGO/src/tensorflow_lite/tensorflow/lite/micro/kernels\kernel_util.h **** // during prepare when the full TfLiteTensor is available.
  31:C:/Renesas/e2studio_2021_01_workspace_RZA2M_ANPR/ANPR_RZA2M_GR_MANGO/src/tensorflow_lite/tensorflow/lite/micro/kernels\kernel_util.h **** inline TfLiteEvalTensor* GetMutableEvalInput(const TfLiteContext* context,
  32:C:/Renesas/e2studio_2021_01_workspace_RZA2M_ANPR/ANPR_RZA2M_GR_MANGO/src/tensorflow_lite/tensorflow/lite/micro/kernels\kernel_util.h ****                                              const TfLiteNode* node,
  33:C:/Renesas/e2studio_2021_01_workspace_RZA2M_ANPR/ANPR_RZA2M_GR_MANGO/src/tensorflow_lite/tensorflow/lite/micro/kernels\kernel_util.h ****                                              int index) {
  34:C:/Renesas/e2studio_2021_01_workspace_RZA2M_ANPR/ANPR_RZA2M_GR_MANGO/src/tensorflow_lite/tensorflow/lite/micro/kernels\kernel_util.h ****   TFLITE_DCHECK(context != nullptr);
 1440              		.loc 4 34 0
 1441 0020 000050E3 		cmp	r0, #0
 1442 0024 0070A0E1 		mov	r7, r0
 1443              	.LVL182:
 1444 0028 5502000A 		beq	.L110
  35:C:/Renesas/e2studio_2021_01_workspace_RZA2M_ANPR/ANPR_RZA2M_GR_MANGO/src/tensorflow_lite/tensorflow/lite/micro/kernels\kernel_util.h ****   TFLITE_DCHECK(node != nullptr);
  36:C:/Renesas/e2studio_2021_01_workspace_RZA2M_ANPR/ANPR_RZA2M_GR_MANGO/src/tensorflow_lite/tensorflow/lite/micro/kernels\kernel_util.h ****   return context->GetEvalTensor(context, node->inputs->data[index]);
 1445              		.loc 4 36 0
 1446 002c 002091E5 		ldr	r2, [r1]
 1447 0030 0150A0E1 		mov	r5, r1
 1448 0034 543090E5 		ldr	r3, [r0, #84]
 1449 0038 041092E5 		ldr	r1, [r2, #4]
 1450              	.LVL183:
 1451 003c 33FF2FE1 		blx	r3
 1452              	.LVL184:
 1453              	.LBE308:
 1454              	.LBE307:
 1455              	.LBE306:
 1456              	.LBB311:
 1457              	.LBB312:
 1458              	.LBB313:
 1459 0040 002095E5 		ldr	r2, [r5]
 1460              	.LBE313:
 1461              	.LBE312:
 1462              	.LBE311:
 1463              	.LBB318:
 1464              	.LBB310:
 1465              	.LBB309:
 1466 0044 0080A0E1 		mov	r8, r0
 1467              	.LVL185:
 1468              	.LBE309:
 1469              	.LBE310:
 1470              	.LBE318:
 1471              	.LBB319:
 1472              	.LBB316:
 1473              	.LBB314:
 1474 0048 543097E5 		ldr	r3, [r7, #84]
 1475 004c 0700A0E1 		mov	r0, r7
 1476 0050 081092E5 		ldr	r1, [r2, #8]
 1477 0054 33FF2FE1 		blx	r3
 1478              	.LVL186:
 1479              	.LBE314:
 1480              	.LBE316:
 1481              	.LBE319:
 1482              	.LBB320:
 1483              	.LBB321:
 1484              	.LBB322:
 1485 0058 002095E5 		ldr	r2, [r5]
 1486              	.LBE322:
 1487              	.LBE321:
 1488              	.LBE320:
 1489              	.LBB325:
 1490              	.LBB317:
 1491              	.LBB315:
 1492 005c 0040A0E1 		mov	r4, r0
 1493              	.LVL187:
 1494              	.LBE315:
 1495              	.LBE317:
 1496              	.LBE325:
 1497              	.LBB326:
 1498              	.LBB324:
 1499              	.LBB323:
 1500 0060 543097E5 		ldr	r3, [r7, #84]
 1501 0064 0700A0E1 		mov	r0, r7
 1502 0068 0C1092E5 		ldr	r1, [r2, #12]
 1503 006c 33FF2FE1 		blx	r3
 1504              	.LVL188:
 1505 0070 003095E5 		ldr	r3, [r5]
 1506 0074 0090A0E1 		mov	r9, r0
 1507              	.LVL189:
 1508              	.LBE323:
 1509              	.LBE324:
 1510              	.LBE326:
 426:../src/tensorflow_lite/tensorflow/lite/micro/kernels/cmsis_nn/svdf.cc ****   const OpData& data = *(static_cast<const OpData*>(node->user_data));
 427:../src/tensorflow_lite/tensorflow/lite/micro/kernels/cmsis_nn/svdf.cc **** 
 428:../src/tensorflow_lite/tensorflow/lite/micro/kernels/cmsis_nn/svdf.cc ****   const TfLiteEvalTensor* input =
 429:../src/tensorflow_lite/tensorflow/lite/micro/kernels/cmsis_nn/svdf.cc ****       tflite::micro::GetEvalInput(context, node, kInputTensor);
 430:../src/tensorflow_lite/tensorflow/lite/micro/kernels/cmsis_nn/svdf.cc ****   const TfLiteEvalTensor* weights_feature =
 431:../src/tensorflow_lite/tensorflow/lite/micro/kernels/cmsis_nn/svdf.cc ****       tflite::micro::GetEvalInput(context, node, kWeightsFeatureTensor);
 432:../src/tensorflow_lite/tensorflow/lite/micro/kernels/cmsis_nn/svdf.cc ****   const TfLiteEvalTensor* weights_time =
 433:../src/tensorflow_lite/tensorflow/lite/micro/kernels/cmsis_nn/svdf.cc ****       tflite::micro::GetEvalInput(context, node, kWeightsTimeTensor);
 434:../src/tensorflow_lite/tensorflow/lite/micro/kernels/cmsis_nn/svdf.cc ****   const TfLiteEvalTensor* bias =
 435:../src/tensorflow_lite/tensorflow/lite/micro/kernels/cmsis_nn/svdf.cc ****       (NumInputs(node) == 5)
 436:../src/tensorflow_lite/tensorflow/lite/micro/kernels/cmsis_nn/svdf.cc ****           ? tflite::micro::GetEvalInput(context, node, kBiasTensor)
 1511              		.loc 1 436 0
 1512 0078 002093E5 		ldr	r2, [r3]
 1513 007c 050052E3 		cmp	r2, #5
 1514 0080 00A0A013 		movne	r10, #0
 1515 0084 1402000A 		beq	.L217
 1516              	.L111:
 1517              	.LVL190:
 1518              	.LBB327:
 1519              	.LBB328:
 1520              		.loc 4 36 0
 1521 0088 141093E5 		ldr	r1, [r3, #20]
 1522 008c 0700A0E1 		mov	r0, r7
 1523 0090 543097E5 		ldr	r3, [r7, #84]
 1524 0094 33FF2FE1 		blx	r3
 1525              	.LVL191:
 1526              	.LBE328:
 1527              	.LBE327:
 1528              	.LBB330:
 1529              	.LBB331:
  37:C:/Renesas/e2studio_2021_01_workspace_RZA2M_ANPR/ANPR_RZA2M_GR_MANGO/src/tensorflow_lite/tensorflow/lite/micro/kernels\kernel_util.h **** }
  38:C:/Renesas/e2studio_2021_01_workspace_RZA2M_ANPR/ANPR_RZA2M_GR_MANGO/src/tensorflow_lite/tensorflow/lite/micro/kernels\kernel_util.h **** 
  39:C:/Renesas/e2studio_2021_01_workspace_RZA2M_ANPR/ANPR_RZA2M_GR_MANGO/src/tensorflow_lite/tensorflow/lite/micro/kernels\kernel_util.h **** // Returns the TfLiteEvalTensor struct for a given input index in a node.
  40:C:/Renesas/e2studio_2021_01_workspace_RZA2M_ANPR/ANPR_RZA2M_GR_MANGO/src/tensorflow_lite/tensorflow/lite/micro/kernels\kernel_util.h **** inline const TfLiteEvalTensor* GetEvalInput(const TfLiteContext* context,
  41:C:/Renesas/e2studio_2021_01_workspace_RZA2M_ANPR/ANPR_RZA2M_GR_MANGO/src/tensorflow_lite/tensorflow/lite/micro/kernels\kernel_util.h ****                                             const TfLiteNode* node, int index) {
  42:C:/Renesas/e2studio_2021_01_workspace_RZA2M_ANPR/ANPR_RZA2M_GR_MANGO/src/tensorflow_lite/tensorflow/lite/micro/kernels\kernel_util.h ****   return GetMutableEvalInput(context, node, index);
  43:C:/Renesas/e2studio_2021_01_workspace_RZA2M_ANPR/ANPR_RZA2M_GR_MANGO/src/tensorflow_lite/tensorflow/lite/micro/kernels\kernel_util.h **** }
  44:C:/Renesas/e2studio_2021_01_workspace_RZA2M_ANPR/ANPR_RZA2M_GR_MANGO/src/tensorflow_lite/tensorflow/lite/micro/kernels\kernel_util.h **** 
  45:C:/Renesas/e2studio_2021_01_workspace_RZA2M_ANPR/ANPR_RZA2M_GR_MANGO/src/tensorflow_lite/tensorflow/lite/micro/kernels\kernel_util.h **** // Returns the TfLiteEvalTensor struct for a given output index in a node.
  46:C:/Renesas/e2studio_2021_01_workspace_RZA2M_ANPR/ANPR_RZA2M_GR_MANGO/src/tensorflow_lite/tensorflow/lite/micro/kernels\kernel_util.h **** inline TfLiteEvalTensor* GetEvalOutput(const TfLiteContext* context,
  47:C:/Renesas/e2studio_2021_01_workspace_RZA2M_ANPR/ANPR_RZA2M_GR_MANGO/src/tensorflow_lite/tensorflow/lite/micro/kernels\kernel_util.h ****                                        const TfLiteNode* node, int index) {
  48:C:/Renesas/e2studio_2021_01_workspace_RZA2M_ANPR/ANPR_RZA2M_GR_MANGO/src/tensorflow_lite/tensorflow/lite/micro/kernels\kernel_util.h ****   TFLITE_DCHECK(context != nullptr);
  49:C:/Renesas/e2studio_2021_01_workspace_RZA2M_ANPR/ANPR_RZA2M_GR_MANGO/src/tensorflow_lite/tensorflow/lite/micro/kernels\kernel_util.h ****   TFLITE_DCHECK(node != nullptr);
  50:C:/Renesas/e2studio_2021_01_workspace_RZA2M_ANPR/ANPR_RZA2M_GR_MANGO/src/tensorflow_lite/tensorflow/lite/micro/kernels\kernel_util.h ****   return context->GetEvalTensor(context, node->outputs->data[index]);
 1530              		.loc 4 50 0
 1531 0098 042095E5 		ldr	r2, [r5, #4]
 1532              	.LBE331:
 1533              	.LBE330:
 1534              	.LBB333:
 1535              	.LBB329:
  36:C:/Renesas/e2studio_2021_01_workspace_RZA2M_ANPR/ANPR_RZA2M_GR_MANGO/src/tensorflow_lite/tensorflow/lite/micro/kernels\kernel_util.h **** }
 1536              		.loc 4 36 0
 1537 009c 00B0A0E1 		mov	fp, r0
 1538              	.LVL192:
 1539              	.LBE329:
 1540              	.LBE333:
 1541              	.LBB334:
 1542              	.LBB332:
 1543              		.loc 4 50 0
 1544 00a0 543097E5 		ldr	r3, [r7, #84]
 1545 00a4 0700A0E1 		mov	r0, r7
 1546 00a8 041092E5 		ldr	r1, [r2, #4]
 1547 00ac 33FF2FE1 		blx	r3
 1548              	.LVL193:
 1549 00b0 0030A0E1 		mov	r3, r0
 1550              	.LVL194:
 1551              	.LBE332:
 1552              	.LBE334:
 437:../src/tensorflow_lite/tensorflow/lite/micro/kernels/cmsis_nn/svdf.cc ****           : nullptr;
 438:../src/tensorflow_lite/tensorflow/lite/micro/kernels/cmsis_nn/svdf.cc ****   TfLiteEvalTensor* activation_state = tflite::micro::GetMutableEvalInput(
 439:../src/tensorflow_lite/tensorflow/lite/micro/kernels/cmsis_nn/svdf.cc ****       context, node, kInputActivationStateTensor);
 440:../src/tensorflow_lite/tensorflow/lite/micro/kernels/cmsis_nn/svdf.cc ****   TfLiteEvalTensor* output =
 441:../src/tensorflow_lite/tensorflow/lite/micro/kernels/cmsis_nn/svdf.cc ****       tflite::micro::GetEvalOutput(context, node, kOutputTensor);
 442:../src/tensorflow_lite/tensorflow/lite/micro/kernels/cmsis_nn/svdf.cc **** 
 443:../src/tensorflow_lite/tensorflow/lite/micro/kernels/cmsis_nn/svdf.cc ****   switch (weights_feature->type) {
 1553              		.loc 1 443 0
 1554 00b4 0800D4E5 		ldrb	r0, [r4, #8]	@ zero_extendqisi2
 1555 00b8 010050E3 		cmp	r0, #1
 1556 00bc 6C00000A 		beq	.L113
 1557 00c0 090050E3 		cmp	r0, #9
 1558 00c4 5F00001A 		bne	.L218
 1559 00c8 54109DE5 		ldr	r1, [sp, #84]
 1560              	.LBB335:
 1561              	.LBB336:
 242:../src/tensorflow_lite/tensorflow/lite/micro/kernels/cmsis_nn/svdf.cc ****   svdf_params.input_activation.max = INT16_MAX;
 1562              		.loc 1 242 0
 1563 00cc 0229A0E3 		mov	r2, #32768
 215:../src/tensorflow_lite/tensorflow/lite/micro/kernels/cmsis_nn/svdf.cc ****   input_dims.h = input_tensor->dims->data[1];
 1564              		.loc 1 215 0
 1565 00d0 04E098E5 		ldr	lr, [r8, #4]
 242:../src/tensorflow_lite/tensorflow/lite/micro/kernels/cmsis_nn/svdf.cc ****   svdf_params.input_activation.max = INT16_MAX;
 1566              		.loc 1 242 0
 1567 00d4 FF2F4FE3 		movt	r2, 65535
 219:../src/tensorflow_lite/tensorflow/lite/micro/kernels/cmsis_nn/svdf.cc ****   weights_feature_dims.h = weights_feature_tensor->dims->data[1];
 1568              		.loc 1 219 0
 1569 00d8 04C094E5 		ldr	ip, [r4, #4]
 1570 00dc 001091E5 		ldr	r1, [r1]
 234:../src/tensorflow_lite/tensorflow/lite/micro/kernels/cmsis_nn/svdf.cc ****   output_dims.h = output_tensor->dims->data[1];
 1571              		.loc 1 234 0
 1572 00e0 3C308DE5 		str	r3, [sp, #60]
 223:../src/tensorflow_lite/tensorflow/lite/micro/kernels/cmsis_nn/svdf.cc ****   weights_time_dims.h = weights_time_tensor->dims->data[1];
 1573              		.loc 1 223 0
 1574 00e4 040099E5 		ldr	r0, [r9, #4]
 1575 00e8 FC108DE5 		str	r1, [sp, #252]
 1576              	.LVL195:
 234:../src/tensorflow_lite/tensorflow/lite/micro/kernels/cmsis_nn/svdf.cc ****   output_dims.h = output_tensor->dims->data[1];
 1577              		.loc 1 234 0
 1578 00ec 041093E5 		ldr	r1, [r3, #4]
 215:../src/tensorflow_lite/tensorflow/lite/micro/kernels/cmsis_nn/svdf.cc ****   input_dims.h = input_tensor->dims->data[1];
 1579              		.loc 1 215 0
 1580 00f0 04309EE5 		ldr	r3, [lr, #4]
 1581              	.LVL196:
 216:../src/tensorflow_lite/tensorflow/lite/micro/kernels/cmsis_nn/svdf.cc **** 
 1582              		.loc 1 216 0
 1583 00f4 08E09EE5 		ldr	lr, [lr, #8]
 227:../src/tensorflow_lite/tensorflow/lite/micro/kernels/cmsis_nn/svdf.cc **** 
 1584              		.loc 1 227 0
 1585 00f8 04509AE5 		ldr	r5, [r10, #4]
 1586              	.LVL197:
 215:../src/tensorflow_lite/tensorflow/lite/micro/kernels/cmsis_nn/svdf.cc ****   input_dims.h = input_tensor->dims->data[1];
 1587              		.loc 1 215 0
 1588 00fc 9C308DE5 		str	r3, [sp, #156]
 216:../src/tensorflow_lite/tensorflow/lite/micro/kernels/cmsis_nn/svdf.cc **** 
 1589              		.loc 1 216 0
 1590 0100 A0E08DE5 		str	lr, [sp, #160]
 219:../src/tensorflow_lite/tensorflow/lite/micro/kernels/cmsis_nn/svdf.cc ****   weights_feature_dims.h = weights_feature_tensor->dims->data[1];
 1591              		.loc 1 219 0
 1592 0104 04E09CE5 		ldr	lr, [ip, #4]
 220:../src/tensorflow_lite/tensorflow/lite/micro/kernels/cmsis_nn/svdf.cc **** 
 1593              		.loc 1 220 0
 1594 0108 08C09CE5 		ldr	ip, [ip, #8]
 219:../src/tensorflow_lite/tensorflow/lite/micro/kernels/cmsis_nn/svdf.cc ****   weights_feature_dims.h = weights_feature_tensor->dims->data[1];
 1595              		.loc 1 219 0
 1596 010c ACE08DE5 		str	lr, [sp, #172]
 220:../src/tensorflow_lite/tensorflow/lite/micro/kernels/cmsis_nn/svdf.cc **** 
 1597              		.loc 1 220 0
 1598 0110 B0C08DE5 		str	ip, [sp, #176]
 224:../src/tensorflow_lite/tensorflow/lite/micro/kernels/cmsis_nn/svdf.cc **** 
 1599              		.loc 1 224 0
 1600 0114 005090E9 		ldmib	r0, {ip, lr}
 231:../src/tensorflow_lite/tensorflow/lite/micro/kernels/cmsis_nn/svdf.cc **** 
 1601              		.loc 1 231 0
 1602 0118 210095E9 		ldmib	r5, {r0, r5}
 223:../src/tensorflow_lite/tensorflow/lite/micro/kernels/cmsis_nn/svdf.cc ****   weights_time_dims.h = weights_time_tensor->dims->data[1];
 1603              		.loc 1 223 0
 1604 011c BCC08DE5 		str	ip, [sp, #188]
 227:../src/tensorflow_lite/tensorflow/lite/micro/kernels/cmsis_nn/svdf.cc **** 
 1605              		.loc 1 227 0
 1606 0120 CC008DE5 		str	r0, [sp, #204]
 230:../src/tensorflow_lite/tensorflow/lite/micro/kernels/cmsis_nn/svdf.cc ****   state_dims.h = bias_tensor->dims->data[1];
 1607              		.loc 1 230 0
 1608 0124 DC008DE5 		str	r0, [sp, #220]
 235:../src/tensorflow_lite/tensorflow/lite/micro/kernels/cmsis_nn/svdf.cc **** 
 1609              		.loc 1 235 0
 1610 0128 011091E9 		ldmib	r1, {r0, ip}
 239:../src/tensorflow_lite/tensorflow/lite/micro/kernels/cmsis_nn/svdf.cc ****   svdf_params.output_offset = data.output_zero_point;
 1611              		.loc 1 239 0
 1612 012c 181096E5 		ldr	r1, [r6, #24]
 224:../src/tensorflow_lite/tensorflow/lite/micro/kernels/cmsis_nn/svdf.cc **** 
 1613              		.loc 1 224 0
 1614 0130 C0E08DE5 		str	lr, [sp, #192]
 234:../src/tensorflow_lite/tensorflow/lite/micro/kernels/cmsis_nn/svdf.cc ****   output_dims.h = output_tensor->dims->data[1];
 1615              		.loc 1 234 0
 1616 0134 EC008DE5 		str	r0, [sp, #236]
 240:../src/tensorflow_lite/tensorflow/lite/micro/kernels/cmsis_nn/svdf.cc **** 
 1617              		.loc 1 240 0
 1618 0138 1C0096E5 		ldr	r0, [r6, #28]
 235:../src/tensorflow_lite/tensorflow/lite/micro/kernels/cmsis_nn/svdf.cc **** 
 1619              		.loc 1 235 0
 1620 013c F0C08DE5 		str	ip, [sp, #240]
 245:../src/tensorflow_lite/tensorflow/lite/micro/kernels/cmsis_nn/svdf.cc ****   svdf_params.output_activation.max = INT8_MAX;
 1621              		.loc 1 245 0
 1622 0140 7FC0E0E3 		mvn	ip, #127
 231:../src/tensorflow_lite/tensorflow/lite/micro/kernels/cmsis_nn/svdf.cc **** 
 1623              		.loc 1 231 0
 1624 0144 E0508DE5 		str	r5, [sp, #224]
 239:../src/tensorflow_lite/tensorflow/lite/micro/kernels/cmsis_nn/svdf.cc ****   svdf_params.output_offset = data.output_zero_point;
 1625              		.loc 1 239 0
 1626 0148 00118DE5 		str	r1, [sp, #256]
 243:../src/tensorflow_lite/tensorflow/lite/micro/kernels/cmsis_nn/svdf.cc **** 
 1627              		.loc 1 243 0
 1628 014c FF1F07E3 		movw	r1, #32767
 240:../src/tensorflow_lite/tensorflow/lite/micro/kernels/cmsis_nn/svdf.cc **** 
 1629              		.loc 1 240 0
 1630 0150 04018DE5 		str	r0, [sp, #260]
 249:../src/tensorflow_lite/tensorflow/lite/micro/kernels/cmsis_nn/svdf.cc ****   in_quant_params.shift = data.effective_scale_1_b;
 1631              		.loc 1 249 0
 1632 0154 000096E5 		ldr	r0, [r6]
 243:../src/tensorflow_lite/tensorflow/lite/micro/kernels/cmsis_nn/svdf.cc **** 
 1633              		.loc 1 243 0
 1634 0158 0C118DE5 		str	r1, [sp, #268]
 250:../src/tensorflow_lite/tensorflow/lite/micro/kernels/cmsis_nn/svdf.cc **** 
 1635              		.loc 1 250 0
 1636 015c 081096E5 		ldr	r1, [r6, #8]
 242:../src/tensorflow_lite/tensorflow/lite/micro/kernels/cmsis_nn/svdf.cc ****   svdf_params.input_activation.max = INT16_MAX;
 1637              		.loc 1 242 0
 1638 0160 08218DE5 		str	r2, [sp, #264]
 257:../src/tensorflow_lite/tensorflow/lite/micro/kernels/cmsis_nn/svdf.cc **** 
 1639              		.loc 1 257 0
 1640 0164 442097E5 		ldr	r2, [r7, #68]
 245:../src/tensorflow_lite/tensorflow/lite/micro/kernels/cmsis_nn/svdf.cc ****   svdf_params.output_activation.max = INT8_MAX;
 1641              		.loc 1 245 0
 1642 0168 10C18DE5 		str	ip, [sp, #272]
 253:../src/tensorflow_lite/tensorflow/lite/micro/kernels/cmsis_nn/svdf.cc ****   out_quant_params.shift = data.effective_scale_2_b;
 1643              		.loc 1 253 0
 1644 016c 04C096E5 		ldr	ip, [r6, #4]
 250:../src/tensorflow_lite/tensorflow/lite/micro/kernels/cmsis_nn/svdf.cc **** 
 1645              		.loc 1 250 0
 1646 0170 80108DE5 		str	r1, [sp, #128]
 257:../src/tensorflow_lite/tensorflow/lite/micro/kernels/cmsis_nn/svdf.cc **** 
 1647              		.loc 1 257 0
 1648 0174 000052E3 		cmp	r2, #0
 254:../src/tensorflow_lite/tensorflow/lite/micro/kernels/cmsis_nn/svdf.cc **** 
 1649              		.loc 1 254 0
 1650 0178 0C1096E5 		ldr	r1, [r6, #12]
 249:../src/tensorflow_lite/tensorflow/lite/micro/kernels/cmsis_nn/svdf.cc ****   in_quant_params.shift = data.effective_scale_1_b;
 1651              		.loc 1 249 0
 1652 017c 7C008DE5 		str	r0, [sp, #124]
 246:../src/tensorflow_lite/tensorflow/lite/micro/kernels/cmsis_nn/svdf.cc **** 
 1653              		.loc 1 246 0
 1654 0180 7F00A0E3 		mov	r0, #127
 253:../src/tensorflow_lite/tensorflow/lite/micro/kernels/cmsis_nn/svdf.cc ****   out_quant_params.shift = data.effective_scale_2_b;
 1655              		.loc 1 253 0
 1656 0184 84C08DE5 		str	ip, [sp, #132]
 246:../src/tensorflow_lite/tensorflow/lite/micro/kernels/cmsis_nn/svdf.cc **** 
 1657              		.loc 1 246 0
 1658 0188 14018DE5 		str	r0, [sp, #276]
 254:../src/tensorflow_lite/tensorflow/lite/micro/kernels/cmsis_nn/svdf.cc **** 
 1659              		.loc 1 254 0
 1660 018c 88108DE5 		str	r1, [sp, #136]
 257:../src/tensorflow_lite/tensorflow/lite/micro/kernels/cmsis_nn/svdf.cc **** 
 1661              		.loc 1 257 0
 1662 0190 FB01000A 		beq	.L110
 261:../src/tensorflow_lite/tensorflow/lite/micro/kernels/cmsis_nn/svdf.cc **** 
 1663              		.loc 1 261 0
 1664 0194 101096E5 		ldr	r1, [r6, #16]
 1665 0198 0700A0E1 		mov	r0, r7
 1666 019c 32FF2FE1 		blx	r2
 1667              	.LVL198:
 265:../src/tensorflow_lite/tensorflow/lite/micro/kernels/cmsis_nn/svdf.cc **** 
 1668              		.loc 1 265 0
 1669 01a0 141096E5 		ldr	r1, [r6, #20]
 278:../src/tensorflow_lite/tensorflow/lite/micro/kernels/cmsis_nn/svdf.cc **** }
 1670              		.loc 1 278 0
 1671 01a4 DC508DE2 		add	r5, sp, #220
 260:../src/tensorflow_lite/tensorflow/lite/micro/kernels/cmsis_nn/svdf.cc ****       context->GetScratchBuffer(context, data.scratch_tensor_index));
 1672              		.loc 1 260 0
 1673 01a8 8C008DE5 		str	r0, [sp, #140]
 265:../src/tensorflow_lite/tensorflow/lite/micro/kernels/cmsis_nn/svdf.cc **** 
 1674              		.loc 1 265 0
 1675 01ac 0700A0E1 		mov	r0, r7
 1676 01b0 442097E5 		ldr	r2, [r7, #68]
 278:../src/tensorflow_lite/tensorflow/lite/micro/kernels/cmsis_nn/svdf.cc **** }
 1677              		.loc 1 278 0
 1678 01b4 AC608DE2 		add	r6, sp, #172
 1679              	.LVL199:
 265:../src/tensorflow_lite/tensorflow/lite/micro/kernels/cmsis_nn/svdf.cc **** 
 1680              		.loc 1 265 0
 1681 01b8 32FF2FE1 		blx	r2
 1682              	.LVL200:
 1683              	.LBB337:
 1684              	.LBB338:
  51:C:/Renesas/e2studio_2021_01_workspace_RZA2M_ANPR/ANPR_RZA2M_GR_MANGO/src/tensorflow_lite/tensorflow/lite/micro/kernels\kernel_util.h **** }
  52:C:/Renesas/e2studio_2021_01_workspace_RZA2M_ANPR/ANPR_RZA2M_GR_MANGO/src/tensorflow_lite/tensorflow/lite/micro/kernels\kernel_util.h **** 
  53:C:/Renesas/e2studio_2021_01_workspace_RZA2M_ANPR/ANPR_RZA2M_GR_MANGO/src/tensorflow_lite/tensorflow/lite/micro/kernels\kernel_util.h **** // Returns data for a TfLiteEvalTensor struct.
  54:C:/Renesas/e2studio_2021_01_workspace_RZA2M_ANPR/ANPR_RZA2M_GR_MANGO/src/tensorflow_lite/tensorflow/lite/micro/kernels\kernel_util.h **** template <typename T>
  55:C:/Renesas/e2studio_2021_01_workspace_RZA2M_ANPR/ANPR_RZA2M_GR_MANGO/src/tensorflow_lite/tensorflow/lite/micro/kernels\kernel_util.h **** T* GetTensorData(TfLiteEvalTensor* tensor) {
  56:C:/Renesas/e2studio_2021_01_workspace_RZA2M_ANPR/ANPR_RZA2M_GR_MANGO/src/tensorflow_lite/tensorflow/lite/micro/kernels\kernel_util.h ****   return tensor != nullptr ? reinterpret_cast<T*>(tensor->data.raw) : nullptr;
 1685              		.loc 4 56 0
 1686 01bc 3C309DE5 		ldr	r3, [sp, #60]
 1687              	.LBE338:
 1688              	.LBE337:
 1689              	.LBB340:
 1690              	.LBB341:
 1691 01c0 00005BE3 		cmp	fp, #0
 1692              	.LBE341:
 1693              	.LBE340:
 264:../src/tensorflow_lite/tensorflow/lite/micro/kernels/cmsis_nn/svdf.cc ****       context->GetScratchBuffer(context, data.scratch_output_tensor_index));
 1694              		.loc 1 264 0
 1695 01c4 94008DE5 		str	r0, [sp, #148]
 1696              	.LVL201:
 278:../src/tensorflow_lite/tensorflow/lite/micro/kernels/cmsis_nn/svdf.cc **** }
 1697              		.loc 1 278 0
 1698 01c8 CC008DE2 		add	r0, sp, #204
 1699              	.LBB343:
 1700              	.LBB344:
  57:C:/Renesas/e2studio_2021_01_workspace_RZA2M_ANPR/ANPR_RZA2M_GR_MANGO/src/tensorflow_lite/tensorflow/lite/micro/kernels\kernel_util.h **** }
  58:C:/Renesas/e2studio_2021_01_workspace_RZA2M_ANPR/ANPR_RZA2M_GR_MANGO/src/tensorflow_lite/tensorflow/lite/micro/kernels\kernel_util.h **** 
  59:C:/Renesas/e2studio_2021_01_workspace_RZA2M_ANPR/ANPR_RZA2M_GR_MANGO/src/tensorflow_lite/tensorflow/lite/micro/kernels\kernel_util.h **** // Returns const data for a TfLiteEvalTensor struct.
  60:C:/Renesas/e2studio_2021_01_workspace_RZA2M_ANPR/ANPR_RZA2M_GR_MANGO/src/tensorflow_lite/tensorflow/lite/micro/kernels\kernel_util.h **** template <typename T>
  61:C:/Renesas/e2studio_2021_01_workspace_RZA2M_ANPR/ANPR_RZA2M_GR_MANGO/src/tensorflow_lite/tensorflow/lite/micro/kernels\kernel_util.h **** const T* GetTensorData(const TfLiteEvalTensor* tensor) {
  62:C:/Renesas/e2studio_2021_01_workspace_RZA2M_ANPR/ANPR_RZA2M_GR_MANGO/src/tensorflow_lite/tensorflow/lite/micro/kernels\kernel_util.h ****   TFLITE_DCHECK(tensor != nullptr);
  63:C:/Renesas/e2studio_2021_01_workspace_RZA2M_ANPR/ANPR_RZA2M_GR_MANGO/src/tensorflow_lite/tensorflow/lite/micro/kernels\kernel_util.h ****   return reinterpret_cast<const T*>(tensor->data.raw);
 1701              		.loc 4 63 0
 1702 01cc 001098E5 		ldr	r1, [r8]
 1703              	.LBE344:
 1704              	.LBE343:
 278:../src/tensorflow_lite/tensorflow/lite/micro/kernels/cmsis_nn/svdf.cc **** }
 1705              		.loc 1 278 0
 1706 01d0 9CE08DE2 		add	lr, sp, #156
 1707              	.LBB345:
 1708              	.LBB339:
  56:C:/Renesas/e2studio_2021_01_workspace_RZA2M_ANPR/ANPR_RZA2M_GR_MANGO/src/tensorflow_lite/tensorflow/lite/micro/kernels\kernel_util.h **** }
 1709              		.loc 4 56 0
 1710 01d4 002093E5 		ldr	r2, [r3]
 1711              	.LVL202:
 1712              	.LBE339:
 1713              	.LBE345:
 278:../src/tensorflow_lite/tensorflow/lite/micro/kernels/cmsis_nn/svdf.cc **** }
 1714              		.loc 1 278 0
 1715 01d8 EC308DE2 		add	r3, sp, #236
 1716              	.LBB346:
 1717              	.LBB342:
  56:C:/Renesas/e2studio_2021_01_workspace_RZA2M_ANPR/ANPR_RZA2M_GR_MANGO/src/tensorflow_lite/tensorflow/lite/micro/kernels\kernel_util.h **** }
 1718              		.loc 4 56 0
 1719 01dc 00B09B15 		ldrne	fp, [fp]
 1720              	.LVL203:
 1721              	.LBE342:
 1722              	.LBE346:
 278:../src/tensorflow_lite/tensorflow/lite/micro/kernels/cmsis_nn/svdf.cc **** }
 1723              		.loc 1 278 0
 1724 01e0 84C08DE2 		add	ip, sp, #132
 1725 01e4 2C308DE5 		str	r3, [sp, #44]
 1726 01e8 30208DE5 		str	r2, [sp, #48]
 1727 01ec BC208DE2 		add	r2, sp, #188
 1728 01f0 00309AE5 		ldr	r3, [r10]
 1729 01f4 24008DE5 		str	r0, [sp, #36]
 1730 01f8 28308DE5 		str	r3, [sp, #40]
 1731 01fc 003099E5 		ldr	r3, [r9]
 1732 0200 1C208DE5 		str	r2, [sp, #28]
 1733 0204 FC208DE2 		add	r2, sp, #252
 1734 0208 20308DE5 		str	r3, [sp, #32]
 1735 020c 7C308DE2 		add	r3, sp, #124
 1736 0210 000094E5 		ldr	r0, [r4]
 1737 0214 08108DE5 		str	r1, [sp, #8]
 1738 0218 94108DE2 		add	r1, sp, #148
 1739 021c 10B08DE5 		str	fp, [sp, #16]
 1740 0220 18008DE5 		str	r0, [sp, #24]
 1741 0224 8C008DE2 		add	r0, sp, #140
 1742 0228 14608DE5 		str	r6, [sp, #20]
 1743 022c 0C508DE5 		str	r5, [sp, #12]
 1744 0230 00508DE8 		stm	sp, {ip, lr}
 1745 0234 FEFFFFEB 		bl	arm_svdf_s8
 1746              	.LVL204:
 1747              	.L206:
 1748              	.LBE336:
 1749              	.LBE335:
 444:../src/tensorflow_lite/tensorflow/lite/micro/kernels/cmsis_nn/svdf.cc ****     case kTfLiteFloat32: {
 445:../src/tensorflow_lite/tensorflow/lite/micro/kernels/cmsis_nn/svdf.cc ****       EvalFloatSVDF(context, node, input, weights_feature, weights_time, bias,
 446:../src/tensorflow_lite/tensorflow/lite/micro/kernels/cmsis_nn/svdf.cc ****                     params, data.scratch_tensor_index, activation_state,
 447:../src/tensorflow_lite/tensorflow/lite/micro/kernels/cmsis_nn/svdf.cc ****                     output);
 448:../src/tensorflow_lite/tensorflow/lite/micro/kernels/cmsis_nn/svdf.cc ****       return kTfLiteOk;
 449:../src/tensorflow_lite/tensorflow/lite/micro/kernels/cmsis_nn/svdf.cc ****       break;
 450:../src/tensorflow_lite/tensorflow/lite/micro/kernels/cmsis_nn/svdf.cc ****     }
 451:../src/tensorflow_lite/tensorflow/lite/micro/kernels/cmsis_nn/svdf.cc **** 
 452:../src/tensorflow_lite/tensorflow/lite/micro/kernels/cmsis_nn/svdf.cc ****     case kTfLiteInt8: {
 453:../src/tensorflow_lite/tensorflow/lite/micro/kernels/cmsis_nn/svdf.cc ****       EvalIntegerSVDF(context, node, input, weights_feature, weights_time, bias,
 454:../src/tensorflow_lite/tensorflow/lite/micro/kernels/cmsis_nn/svdf.cc ****                       params, activation_state, output, data);
 455:../src/tensorflow_lite/tensorflow/lite/micro/kernels/cmsis_nn/svdf.cc ****       return kTfLiteOk;
 1750              		.loc 1 455 0
 1751 0238 0000A0E3 		mov	r0, #0
 456:../src/tensorflow_lite/tensorflow/lite/micro/kernels/cmsis_nn/svdf.cc ****       break;
 457:../src/tensorflow_lite/tensorflow/lite/micro/kernels/cmsis_nn/svdf.cc ****     }
 458:../src/tensorflow_lite/tensorflow/lite/micro/kernels/cmsis_nn/svdf.cc **** 
 459:../src/tensorflow_lite/tensorflow/lite/micro/kernels/cmsis_nn/svdf.cc ****     default:
 460:../src/tensorflow_lite/tensorflow/lite/micro/kernels/cmsis_nn/svdf.cc ****       TF_LITE_KERNEL_LOG(context, "Type %s not currently supported.",
 461:../src/tensorflow_lite/tensorflow/lite/micro/kernels/cmsis_nn/svdf.cc ****                          TfLiteTypeGetName(weights_feature->type));
 462:../src/tensorflow_lite/tensorflow/lite/micro/kernels/cmsis_nn/svdf.cc ****       return kTfLiteError;
 463:../src/tensorflow_lite/tensorflow/lite/micro/kernels/cmsis_nn/svdf.cc ****   }
 464:../src/tensorflow_lite/tensorflow/lite/micro/kernels/cmsis_nn/svdf.cc ****   return kTfLiteOk;
 465:../src/tensorflow_lite/tensorflow/lite/micro/kernels/cmsis_nn/svdf.cc **** }
 1752              		.loc 1 465 0
 1753 023c 47DF8DE2 		add	sp, sp, #284
 1754              		.cfi_remember_state
 1755              		.cfi_def_cfa_offset 52
 1756              		@ sp needed
 1757 0240 048BBDEC 		vldm	sp!, {d8-d9}
 1758              		.cfi_restore 80
 1759              		.cfi_restore 81
 1760              		.cfi_restore 82
 1761              		.cfi_restore 83
 1762              		.cfi_def_cfa_offset 36
 1763 0244 F08FBDE8 		pop	{r4, r5, r6, r7, r8, r9, r10, fp, pc}
 1764              	.LVL205:
 1765              	.L218:
 1766              		.cfi_restore_state
 460:../src/tensorflow_lite/tensorflow/lite/micro/kernels/cmsis_nn/svdf.cc ****                          TfLiteTypeGetName(weights_feature->type));
 1767              		.loc 1 460 0
 1768 0248 144097E5 		ldr	r4, [r7, #20]
 1769 024c FEFFFFEB 		bl	TfLiteTypeGetName
 1770              	.LVL206:
 1771 0250 001000E3 		movw	r1, #:lower16:.LC48
 1772 0254 0020A0E1 		mov	r2, r0
 1773 0258 001040E3 		movt	r1, #:upper16:.LC48
 1774 025c 0700A0E1 		mov	r0, r7
 1775 0260 34FF2FE1 		blx	r4
 1776              	.LVL207:
 462:../src/tensorflow_lite/tensorflow/lite/micro/kernels/cmsis_nn/svdf.cc ****   }
 1777              		.loc 1 462 0
 1778 0264 0100A0E3 		mov	r0, #1
 1779              		.loc 1 465 0
 1780 0268 47DF8DE2 		add	sp, sp, #284
 1781              		.cfi_remember_state
 1782              		.cfi_def_cfa_offset 52
 1783              		@ sp needed
 1784 026c 048BBDEC 		vldm	sp!, {d8-d9}
 1785              		.cfi_restore 82
 1786              		.cfi_restore 83
 1787              		.cfi_restore 80
 1788              		.cfi_restore 81
 1789              		.cfi_def_cfa_offset 36
 1790 0270 F08FBDE8 		pop	{r4, r5, r6, r7, r8, r9, r10, fp, pc}
 1791              	.LVL208:
 1792              	.L113:
 1793              		.cfi_restore_state
 1794              	.LBB347:
 1795              	.LBB348:
 140:../src/tensorflow_lite/tensorflow/lite/micro/kernels/cmsis_nn/svdf.cc ****   const int input_size = input->dims->data[1];
 1796              		.loc 1 140 0
 1797 0274 042098E5 		ldr	r2, [r8, #4]
 142:../src/tensorflow_lite/tensorflow/lite/micro/kernels/cmsis_nn/svdf.cc ****   const int num_units = num_filters / rank;
 1798              		.loc 1 142 0
 1799 0278 041094E5 		ldr	r1, [r4, #4]
 1800              	.LBE348:
 1801              	.LBE347:
 446:../src/tensorflow_lite/tensorflow/lite/micro/kernels/cmsis_nn/svdf.cc ****                     output);
 1802              		.loc 1 446 0
 1803 027c 100096E5 		ldr	r0, [r6, #16]
 1804 0280 44308DE5 		str	r3, [sp, #68]
 1805              	.LBB522:
 1806              	.LBB519:
 139:../src/tensorflow_lite/tensorflow/lite/micro/kernels/cmsis_nn/svdf.cc ****   const int batch_size = input->dims->data[0];
 1807              		.loc 1 139 0
 1808 0284 54309DE5 		ldr	r3, [sp, #84]
 1809              	.LBE519:
 1810              	.LBE522:
 446:../src/tensorflow_lite/tensorflow/lite/micro/kernels/cmsis_nn/svdf.cc ****                     output);
 1811              		.loc 1 446 0
 1812 0288 40008DE5 		str	r0, [sp, #64]
 1813              	.LVL209:
 1814              	.LBB523:
 1815              	.LBB520:
 140:../src/tensorflow_lite/tensorflow/lite/micro/kernels/cmsis_nn/svdf.cc ****   const int input_size = input->dims->data[1];
 1816              		.loc 1 140 0
 1817 028c 040092E5 		ldr	r0, [r2, #4]
 1818              	.LVL210:
 139:../src/tensorflow_lite/tensorflow/lite/micro/kernels/cmsis_nn/svdf.cc ****   const int batch_size = input->dims->data[0];
 1819              		.loc 1 139 0
 1820 0290 005093E5 		ldr	r5, [r3]
 1821              	.LVL211:
 142:../src/tensorflow_lite/tensorflow/lite/micro/kernels/cmsis_nn/svdf.cc ****   const int num_units = num_filters / rank;
 1822              		.loc 1 142 0
 1823 0294 043091E5 		ldr	r3, [r1, #4]
 140:../src/tensorflow_lite/tensorflow/lite/micro/kernels/cmsis_nn/svdf.cc ****   const int input_size = input->dims->data[1];
 1824              		.loc 1 140 0
 1825 0298 3C008DE5 		str	r0, [sp, #60]
 1826              	.LVL212:
 143:../src/tensorflow_lite/tensorflow/lite/micro/kernels/cmsis_nn/svdf.cc ****   const int memory_size = weights_time->dims->data[1];
 1827              		.loc 1 143 0
 1828 029c 0510A0E1 		mov	r1, r5
 141:../src/tensorflow_lite/tensorflow/lite/micro/kernels/cmsis_nn/svdf.cc ****   const int num_filters = weights_feature->dims->data[0];
 1829              		.loc 1 141 0
 1830 02a0 086092E5 		ldr	r6, [r2, #8]
 1831              	.LVL213:
 143:../src/tensorflow_lite/tensorflow/lite/micro/kernels/cmsis_nn/svdf.cc ****   const int memory_size = weights_time->dims->data[1];
 1832              		.loc 1 143 0
 1833 02a4 0300A0E1 		mov	r0, r3
 1834              	.LVL214:
 142:../src/tensorflow_lite/tensorflow/lite/micro/kernels/cmsis_nn/svdf.cc ****   const int num_units = num_filters / rank;
 1835              		.loc 1 142 0
 1836 02a8 64308DE5 		str	r3, [sp, #100]
 1837              	.LVL215:
 143:../src/tensorflow_lite/tensorflow/lite/micro/kernels/cmsis_nn/svdf.cc ****   const int memory_size = weights_time->dims->data[1];
 1838              		.loc 1 143 0
 1839 02ac FEFFFFEB 		bl	__aeabi_idiv
 1840              	.LVL216:
 1841              	.LBB349:
 1842              	.LBB350:
 1843              		.loc 4 63 0
 1844 02b0 003094E5 		ldr	r3, [r4]
 1845              	.LBE350:
 1846              	.LBE349:
 1847              	.LBB352:
 1848              	.LBB353:
  62:C:/Renesas/e2studio_2021_01_workspace_RZA2M_ANPR/ANPR_RZA2M_GR_MANGO/src/tensorflow_lite/tensorflow/lite/micro/kernels\kernel_util.h ****   return reinterpret_cast<const T*>(tensor->data.raw);
 1849              		.loc 4 62 0
 1850 02b4 00005AE3 		cmp	r10, #0
 1851              	.LBE353:
 1852              	.LBE352:
 144:../src/tensorflow_lite/tensorflow/lite/micro/kernels/cmsis_nn/svdf.cc **** 
 1853              		.loc 1 144 0
 1854 02b8 042099E5 		ldr	r2, [r9, #4]
 143:../src/tensorflow_lite/tensorflow/lite/micro/kernels/cmsis_nn/svdf.cc ****   const int memory_size = weights_time->dims->data[1];
 1855              		.loc 1 143 0
 1856 02bc 58008DE5 		str	r0, [sp, #88]
 1857              	.LVL217:
 1858              	.LBB357:
 1859              	.LBB351:
 1860              		.loc 4 63 0
 1861 02c0 48308DE5 		str	r3, [sp, #72]
 1862              	.LBE351:
 1863              	.LBE357:
 1864              	.LBB358:
 1865              	.LBB359:
 1866 02c4 003099E5 		ldr	r3, [r9]
 1867              	.LBE359:
 1868              	.LBE358:
 144:../src/tensorflow_lite/tensorflow/lite/micro/kernels/cmsis_nn/svdf.cc **** 
 1869              		.loc 1 144 0
 1870 02c8 084092E5 		ldr	r4, [r2, #8]
 1871              	.LVL218:
 1872              	.LBB361:
 1873              	.LBB360:
 1874              		.loc 4 63 0
 1875 02cc 4C308DE5 		str	r3, [sp, #76]
 1876              	.LBE360:
 1877              	.LBE361:
 1878              	.LBB362:
 1879              	.LBB354:
  62:C:/Renesas/e2studio_2021_01_workspace_RZA2M_ANPR/ANPR_RZA2M_GR_MANGO/src/tensorflow_lite/tensorflow/lite/micro/kernels\kernel_util.h ****   return reinterpret_cast<const T*>(tensor->data.raw);
 1880              		.loc 4 62 0
 1881 02d0 AB01000A 		beq	.L110
 1882              	.LBE354:
 1883              	.LBE362:
 1884              	.LBB363:
 1885              	.LBB364:
  56:C:/Renesas/e2studio_2021_01_workspace_RZA2M_ANPR/ANPR_RZA2M_GR_MANGO/src/tensorflow_lite/tensorflow/lite/micro/kernels\kernel_util.h **** }
 1886              		.loc 4 56 0
 1887 02d4 00005BE3 		cmp	fp, #0
 1888              	.LBE364:
 1889              	.LBE363:
 1890              	.LBB368:
 1891              	.LBB355:
 1892              		.loc 4 63 0
 1893 02d8 00309AE5 		ldr	r3, [r10]
 1894              	.LBE355:
 1895              	.LBE368:
 1896              	.LBB369:
 1897              	.LBB365:
  56:C:/Renesas/e2studio_2021_01_workspace_RZA2M_ANPR/ANPR_RZA2M_GR_MANGO/src/tensorflow_lite/tensorflow/lite/micro/kernels\kernel_util.h **** }
 1898              		.loc 4 56 0
 1899 02dc 00209B15 		ldrne	r2, [fp]
 1900 02e0 5CB08D05 		streq	fp, [sp, #92]
 1901              	.LBE365:
 1902              	.LBE369:
 1903              	.LBB370:
 1904              	.LBB356:
 1905              		.loc 4 63 0
 1906 02e4 68308DE5 		str	r3, [sp, #104]
 1907              	.LVL219:
 1908              	.LBE356:
 1909              	.LBE370:
 1910              	.LBB371:
 1911              	.LBB366:
  56:C:/Renesas/e2studio_2021_01_workspace_RZA2M_ANPR/ANPR_RZA2M_GR_MANGO/src/tensorflow_lite/tensorflow/lite/micro/kernels\kernel_util.h **** }
 1912              		.loc 4 56 0
 1913 02e8 5C208D15 		strne	r2, [sp, #92]
 1914              	.LBE366:
 1915              	.LBE371:
 156:../src/tensorflow_lite/tensorflow/lite/micro/kernels/cmsis_nn/svdf.cc **** 
 1916              		.loc 1 156 0
 1917 02ec 442097E5 		ldr	r2, [r7, #68]
 1918              	.LBB372:
 1919              	.LBB367:
  56:C:/Renesas/e2studio_2021_01_workspace_RZA2M_ANPR/ANPR_RZA2M_GR_MANGO/src/tensorflow_lite/tensorflow/lite/micro/kernels\kernel_util.h **** }
 1920              		.loc 4 56 0
 1921 02f0 44309DE5 		ldr	r3, [sp, #68]
 1922              	.LVL220:
 1923              	.LBE367:
 1924              	.LBE372:
 1925              	.LBB373:
 1926              	.LBB374:
 1927              		.loc 4 63 0
 1928 02f4 008098E5 		ldr	r8, [r8]
 1929              	.LVL221:
 1930              	.LBE374:
 1931              	.LBE373:
 156:../src/tensorflow_lite/tensorflow/lite/micro/kernels/cmsis_nn/svdf.cc **** 
 1932              		.loc 1 156 0
 1933 02f8 000052E3 		cmp	r2, #0
 1934 02fc 44308DE5 		str	r3, [sp, #68]
 1935              	.LVL222:
 1936 0300 9F01000A 		beq	.L110
 159:../src/tensorflow_lite/tensorflow/lite/micro/kernels/cmsis_nn/svdf.cc **** 
 1937              		.loc 1 159 0
 1938 0304 40109DE5 		ldr	r1, [sp, #64]
 1939 0308 0700A0E1 		mov	r0, r7
 1940              	.LVL223:
 1941 030c 32FF2FE1 		blx	r2
 1942              	.LVL224:
 1943              	.LBB375:
 1944              	.LBB376:
  56:C:/Renesas/e2studio_2021_01_workspace_RZA2M_ANPR/ANPR_RZA2M_GR_MANGO/src/tensorflow_lite/tensorflow/lite/micro/kernels\kernel_util.h **** }
 1945              		.loc 4 56 0
 1946 0310 44309DE5 		ldr	r3, [sp, #68]
 1947              	.LBE376:
 1948              	.LBE375:
 1949              	.LBB378:
 168:../src/tensorflow_lite/tensorflow/lite/micro/kernels/cmsis_nn/svdf.cc ****     while (old_state_start != old_state_end) {
 1950              		.loc 1 168 0
 1951 0314 3C209DE5 		ldr	r2, [sp, #60]
 1952              	.LBE378:
 159:../src/tensorflow_lite/tensorflow/lite/micro/kernels/cmsis_nn/svdf.cc **** 
 1953              		.loc 1 159 0
 1954 0318 70008DE5 		str	r0, [sp, #112]
 1955              	.LVL225:
 1956              	.LBB379:
 1957              	.LBB377:
  56:C:/Renesas/e2studio_2021_01_workspace_RZA2M_ANPR/ANPR_RZA2M_GR_MANGO/src/tensorflow_lite/tensorflow/lite/micro/kernels\kernel_util.h **** }
 1958              		.loc 4 56 0
 1959 031c 000053E3 		cmp	r3, #0
 1960 0320 00309315 		ldrne	r3, [r3]
 1961              	.LVL226:
 1962 0324 60308DE5 		str	r3, [sp, #96]
 1963              	.LVL227:
 1964              	.LBE377:
 1965              	.LBE379:
 1966              	.LBB380:
 168:../src/tensorflow_lite/tensorflow/lite/micro/kernels/cmsis_nn/svdf.cc ****     while (old_state_start != old_state_end) {
 1967              		.loc 1 168 0
 1968 0328 64309DE5 		ldr	r3, [sp, #100]
 1969 032c 930202E0 		mul	r2, r3, r2
 166:../src/tensorflow_lite/tensorflow/lite/micro/kernels/cmsis_nn/svdf.cc ****     const float* old_state_end =
 1970              		.loc 1 166 0
 1971 0330 5C309DE5 		ldr	r3, [sp, #92]
 1972 0334 041083E2 		add	r1, r3, #4
 1973              	.LVL228:
 168:../src/tensorflow_lite/tensorflow/lite/micro/kernels/cmsis_nn/svdf.cc ****     while (old_state_start != old_state_end) {
 1974              		.loc 1 168 0
 1975 0338 940202E0 		mul	r2, r4, r2
 1976 033c 0221A0E1 		lsl	r2, r2, #2
 1977              	.LVL229:
 1978 0340 023083E0 		add	r3, r3, r2
 169:../src/tensorflow_lite/tensorflow/lite/micro/kernels/cmsis_nn/svdf.cc ****       *new_state_start++ = *old_state_start++;
 1979              		.loc 1 169 0
 1980 0344 030051E1 		cmp	r1, r3
 1981 0348 0200000A 		beq	.L120
 1982 034c 042042E2 		sub	r2, r2, #4
 1983              	.LVL230:
 1984 0350 5C009DE5 		ldr	r0, [sp, #92]
 1985              	.LVL231:
 1986 0354 FEFFFFEB 		bl	memmove
 1987              	.LVL232:
 1988              	.L120:
 1989              	.LBE380:
 1990              	.LBB381:
 1991              	.LBB382:
 187:../src/tensorflow_lite/tensorflow/lite/micro/kernels/cmsis_nn/svdf.cc ****       const float* matrix_ptr = matrix;
 1992              		.loc 1 187 0
 1993 0358 3C309DE5 		ldr	r3, [sp, #60]
 1994              	.LBE382:
 185:../src/tensorflow_lite/tensorflow/lite/micro/kernels/cmsis_nn/svdf.cc ****     float* result_in_batch = result;
 1995              		.loc 1 185 0
 1996 035c 079144E2 		sub	r9, r4, #-1073741823
 1997              	.LVL233:
 1998 0360 0991A0E1 		lsl	r9, r9, #2
 1999              	.LBB394:
 187:../src/tensorflow_lite/tensorflow/lite/micro/kernels/cmsis_nn/svdf.cc ****       const float* matrix_ptr = matrix;
 2000              		.loc 1 187 0
 2001 0364 000053E3 		cmp	r3, #0
 2002              	.LBE394:
 185:../src/tensorflow_lite/tensorflow/lite/micro/kernels/cmsis_nn/svdf.cc ****     float* result_in_batch = result;
 2003              		.loc 1 185 0
 2004 0368 5C309DE5 		ldr	r3, [sp, #92]
 2005 036c 093083E0 		add	r3, r3, r9
 2006 0370 40308DE5 		str	r3, [sp, #64]
 2007              	.LVL234:
 2008              	.LBB395:
 187:../src/tensorflow_lite/tensorflow/lite/micro/kernels/cmsis_nn/svdf.cc ****       const float* matrix_ptr = matrix;
 2009              		.loc 1 187 0
 2010 0374 700100DA 		ble	.L219
 2011 0378 64309DE5 		ldr	r3, [sp, #100]
 2012              	.LVL235:
 2013 037c 049089E2 		add	r9, r9, #4
 2014 0380 000053E3 		cmp	r3, #0
 2015 0384 780100DA 		ble	.L121
 2016 0388 990302E0 		mul	r2, r9, r3
 2017 038c 09E046E2 		sub	lr, r6, #9
 2018 0390 07E0CEE3 		bic	lr, lr, #7
 2019 0394 08B0A0E1 		mov	fp, r8
 2020              	.LVL236:
 2021 0398 08E08EE2 		add	lr, lr, #8
 2022 039c 6C508DE5 		str	r5, [sp, #108]
 2023 03a0 0380A0E1 		mov	r8, r3
 2024              	.LVL237:
 2025 03a4 0010A0E3 		mov	r1, #0
 2026 03a8 50208DE5 		str	r2, [sp, #80]
 2027 03ac 0621A0E1 		lsl	r2, r6, #2
 2028 03b0 44108DE5 		str	r1, [sp, #68]
 2029              	.LVL238:
 2030 03b4 02A0A0E1 		mov	r10, r2
 2031              	.LVL239:
 2032 03b8 74408DE5 		str	r4, [sp, #116]
 2033              	.LVL240:
 2034              	.L129:
 2035 03bc 48709DE5 		ldr	r7, [sp, #72]
 2036 03c0 0040A0E3 		mov	r4, #0
 2037 03c4 40509DE5 		ldr	r5, [sp, #64]
 2038              	.LVL241:
 2039              	.L127:
 2040              	.LBB383:
 2041              	.LBB384:
 2042              	.LBB385:
 2043              	.LBB386:
 192:../src/tensorflow_lite/tensorflow/lite/micro/kernels/cmsis_nn/svdf.cc ****           dot_prod += *matrix_ptr++ * *vector_in_batch++;
 2044              		.loc 1 192 0
 2045 03c8 000056E3 		cmp	r6, #0
 2046              	.LBE386:
 190:../src/tensorflow_lite/tensorflow/lite/micro/kernels/cmsis_nn/svdf.cc ****         const float* vector_in_batch = vector + i * input_size;
 2047              		.loc 1 190 0
 2048 03cc FB7ADFED 		vldr.32	s15, .L222
 2049              	.LBB387:
 192:../src/tensorflow_lite/tensorflow/lite/micro/kernels/cmsis_nn/svdf.cc ****           dot_prod += *matrix_ptr++ * *vector_in_batch++;
 2050              		.loc 1 192 0
 2051 03d0 2D0000DA 		ble	.L122
 2052 03d4 080056E3 		cmp	r6, #8
 2053 03d8 3B0100DA 		ble	.L174
 2054 03dc 203087E2 		add	r3, r7, #32
 2055 03e0 20208BE2 		add	r2, fp, #32
 2056 03e4 0010A0E3 		mov	r1, #0
 2057              	.LVL242:
 2058              	.L124:
 193:../src/tensorflow_lite/tensorflow/lite/micro/kernels/cmsis_nn/svdf.cc ****         }
 2059              		.loc 1 193 0
 2060 03e8 085A53ED 		vldr.32	s11, [r3, #-32]
 2061 03ec 081081E2 		add	r1, r1, #8
 2062              	.LVL243:
 2063 03f0 086A12ED 		vldr.32	s12, [r2, #-32]
 2064 03f4 0E0051E1 		cmp	r1, lr
 2065 03f8 076A53ED 		vldr.32	s13, [r3, #-28]
 2066 03fc 0300A0E1 		mov	r0, r3
 2067 0400 077A12ED 		vldr.32	s14, [r2, #-28]
 2068 0404 02C0A0E1 		mov	ip, r2
 2069 0408 061A53ED 		vldr.32	s3, [r3, #-24]
 2070 040c 202082E2 		add	r2, r2, #32
 2071 0410 867A45EE 		vmla.f32	s15, s11, s12
 2072              	.LVL244:
 2073 0414 0E2A12ED 		vldr.32	s4, [r2, #-56]
 2074 0418 052A53ED 		vldr.32	s5, [r3, #-20]
 2075 041c 0D3A12ED 		vldr.32	s6, [r2, #-52]
 2076 0420 043A53ED 		vldr.32	s7, [r3, #-16]
 2077 0424 0C4A12ED 		vldr.32	s8, [r2, #-48]
 2078 0428 034A53ED 		vldr.32	s9, [r3, #-12]
 2079 042c 877A46EE 		vmla.f32	s15, s13, s14
 2080              	.LVL245:
 2081 0430 0B5A12ED 		vldr.32	s10, [r2, #-44]
 2082 0434 025A53ED 		vldr.32	s11, [r3, #-8]
 2083 0438 0A6A12ED 		vldr.32	s12, [r2, #-40]
 2084 043c 016A53ED 		vldr.32	s13, [r3, #-4]
 2085 0440 097A12ED 		vldr.32	s14, [r2, #-36]
 2086 0444 3CF0D3F5 		pld	[r3, #60]
 2087 0448 203083E2 		add	r3, r3, #32
 2088              	.LVL246:
 2089 044c 827A41EE 		vmla.f32	s15, s3, s4
 2090              	.LVL247:
 2091 0450 837A42EE 		vmla.f32	s15, s5, s6
 2092              	.LVL248:
 2093 0454 847A43EE 		vmla.f32	s15, s7, s8
 2094              	.LVL249:
 2095 0458 857A44EE 		vmla.f32	s15, s9, s10
 2096              	.LVL250:
 2097 045c 867A45EE 		vmla.f32	s15, s11, s12
 2098              	.LVL251:
 2099 0460 877A46EE 		vmla.f32	s15, s13, s14
 2100              	.LVL252:
 2101 0464 DFFFFF1A 		bne	.L124
 2102 0468 0C20A0E1 		mov	r2, ip
 2103 046c 0030A0E1 		mov	r3, r0
 2104              	.LVL253:
 2105              	.L126:
 2106 0470 016AF3EC 		vldmia.32	r3!, {s13}
 2107              	.LVL254:
 192:../src/tensorflow_lite/tensorflow/lite/micro/kernels/cmsis_nn/svdf.cc ****           dot_prod += *matrix_ptr++ * *vector_in_batch++;
 2108              		.loc 1 192 0
 2109 0474 011081E2 		add	r1, r1, #1
 2110              	.LVL255:
 193:../src/tensorflow_lite/tensorflow/lite/micro/kernels/cmsis_nn/svdf.cc ****         }
 2111              		.loc 1 193 0
 2112 0478 017AB2EC 		vldmia.32	r2!, {s14}
 2113              	.LVL256:
 192:../src/tensorflow_lite/tensorflow/lite/micro/kernels/cmsis_nn/svdf.cc ****           dot_prod += *matrix_ptr++ * *vector_in_batch++;
 2114              		.loc 1 192 0
 2115 047c 010056E1 		cmp	r6, r1
 193:../src/tensorflow_lite/tensorflow/lite/micro/kernels/cmsis_nn/svdf.cc ****         }
 2116              		.loc 1 193 0
 2117 0480 877A46EE 		vmla.f32	s15, s13, s14
 2118              	.LVL257:
 192:../src/tensorflow_lite/tensorflow/lite/micro/kernels/cmsis_nn/svdf.cc ****           dot_prod += *matrix_ptr++ * *vector_in_batch++;
 2119              		.loc 1 192 0
 2120 0484 F9FFFFCA 		bgt	.L126
 2121 0488 0A7087E0 		add	r7, r7, r10
 2122              	.LVL258:
 2123              	.L122:
 2124              	.LBE387:
 2125              	.LBE385:
 189:../src/tensorflow_lite/tensorflow/lite/micro/kernels/cmsis_nn/svdf.cc ****         float dot_prod = 0.0f;
 2126              		.loc 1 189 0
 2127 048c 014084E2 		add	r4, r4, #1
 2128              	.LVL259:
 2129              	.LBB389:
 195:../src/tensorflow_lite/tensorflow/lite/micro/kernels/cmsis_nn/svdf.cc ****         result_in_batch += memory_size;
 2130              		.loc 1 195 0
 2131 0490 007AC5ED 		vstr.32	s15, [r5]
 2132              	.LBE389:
 189:../src/tensorflow_lite/tensorflow/lite/micro/kernels/cmsis_nn/svdf.cc ****         float dot_prod = 0.0f;
 2133              		.loc 1 189 0
 2134 0494 040058E1 		cmp	r8, r4
 2135              	.LBB390:
 196:../src/tensorflow_lite/tensorflow/lite/micro/kernels/cmsis_nn/svdf.cc ****       }
 2136              		.loc 1 196 0
 2137 0498 095085E0 		add	r5, r5, r9
 2138              	.LVL260:
 2139              	.LBE390:
 189:../src/tensorflow_lite/tensorflow/lite/micro/kernels/cmsis_nn/svdf.cc ****         float dot_prod = 0.0f;
 2140              		.loc 1 189 0
 2141 049c C9FFFF1A 		bne	.L127
 2142 04a0 40209DE5 		ldr	r2, [sp, #64]
 2143 04a4 0AB08BE0 		add	fp, fp, r10
 2144 04a8 50109DE5 		ldr	r1, [sp, #80]
 2145              	.LBE384:
 2146              	.LBE383:
 187:../src/tensorflow_lite/tensorflow/lite/micro/kernels/cmsis_nn/svdf.cc ****       const float* matrix_ptr = matrix;
 2147              		.loc 1 187 0
 2148 04ac 44309DE5 		ldr	r3, [sp, #68]
 2149 04b0 012082E0 		add	r2, r2, r1
 2150 04b4 40208DE5 		str	r2, [sp, #64]
 2151 04b8 013083E2 		add	r3, r3, #1
 2152 04bc 3C209DE5 		ldr	r2, [sp, #60]
 2153 04c0 44308DE5 		str	r3, [sp, #68]
 2154              	.LVL261:
 2155 04c4 030052E1 		cmp	r2, r3
 2156 04c8 BBFFFF1A 		bne	.L129
 2157 04cc 74409DE5 		ldr	r4, [sp, #116]
 2158              	.LVL262:
 2159              	.LBE395:
 2160              	.LBE381:
 2161              	.LBB397:
 2162              	.LBB398:
 2163              	.LBB399:
 2164              	.LBB400:
 2165              	.LBB401:
  84:../src/tensorflow_lite/tensorflow/lite/micro/kernels/cmsis_nn/svdf.cc ****       for (int j = 0; j < memory_size; ++j) {
 2166              		.loc 1 84 0
 2167 04d0 00B0A0E3 		mov	fp, #0
 2168 04d4 64A09DE5 		ldr	r10, [sp, #100]
 2169              	.LBE401:
 2170              	.LBE400:
 2171              	.LBE399:
 2172              	.LBE398:
 2173              	.LBE397:
 203:../src/tensorflow_lite/tensorflow/lite/micro/kernels/cmsis_nn/svdf.cc **** }
 2174              		.loc 1 203 0
 2175 04d8 54109DE5 		ldr	r1, [sp, #84]
 2176 04dc 09E044E2 		sub	lr, r4, #9
 2177 04e0 6C509DE5 		ldr	r5, [sp, #108]
 2178 04e4 07E0CEE3 		bic	lr, lr, #7
 2179 04e8 940A03E0 		mul	r3, r4, r10
 2180              	.LVL263:
 2181 04ec 0410D1E5 		ldrb	r1, [r1, #4]	@ zero_extendqisi2
 2182 04f0 0A21A0E1 		lsl	r2, r10, #2
 2183 04f4 08E08EE2 		add	lr, lr, #8
 2184 04f8 6C108DE5 		str	r1, [sp, #108]
 2185              	.LVL264:
 2186 04fc 0331A0E1 		lsl	r3, r3, #2
 2187 0500 5C109DE5 		ldr	r1, [sp, #92]
 2188 0504 50208DE5 		str	r2, [sp, #80]
 2189 0508 54308DE5 		str	r3, [sp, #84]
 2190 050c 70309DE5 		ldr	r3, [sp, #112]
 2191 0510 40108DE5 		str	r1, [sp, #64]
 2192              	.LVL265:
 2193 0514 5C508DE5 		str	r5, [sp, #92]
 2194              	.LVL266:
 2195 0518 44308DE5 		str	r3, [sp, #68]
 2196              	.LVL267:
 2197 051c 0030A0E3 		mov	r3, #0
 2198 0520 48308DE5 		str	r3, [sp, #72]
 2199              	.LVL268:
 2200              	.L132:
 2201              	.LBB513:
 2202              	.LBB412:
 2203              	.LBB410:
  80:../src/tensorflow_lite/tensorflow/lite/micro/kernels/cmsis_nn/svdf.cc ****     const float* vector1_ptr = weights_time_ptr;
 2204              		.loc 1 80 0
 2205 0524 44509DE5 		ldr	r5, [sp, #68]
 2206              	.LVL269:
  82:../src/tensorflow_lite/tensorflow/lite/micro/kernels/cmsis_nn/svdf.cc ****     for (int i = 0; i < num_filters; ++i) {
 2207              		.loc 1 82 0
 2208 0528 0060A0E3 		mov	r6, #0
 2209 052c 40809DE5 		ldr	r8, [sp, #64]
 2210              	.LVL270:
 2211 0530 4C709DE5 		ldr	r7, [sp, #76]
 2212              	.LVL271:
 2213              	.L130:
 2214              	.LBB408:
 2215              	.LBB405:
 2216              	.LBB402:
  85:../src/tensorflow_lite/tensorflow/lite/micro/kernels/cmsis_nn/svdf.cc ****         *scratch_ptr_batch += *vector1_ptr++ * *vector2_ptr++;
 2217              		.loc 1 85 0
 2218 0534 000054E3 		cmp	r4, #0
 2219              	.LBE402:
  84:../src/tensorflow_lite/tensorflow/lite/micro/kernels/cmsis_nn/svdf.cc ****       for (int j = 0; j < memory_size; ++j) {
 2220              		.loc 1 84 0
 2221 0538 00B085E5 		str	fp, [r5]	@ float
 2222              	.LVL272:
 2223              	.LBB403:
  85:../src/tensorflow_lite/tensorflow/lite/micro/kernels/cmsis_nn/svdf.cc ****         *scratch_ptr_batch += *vector1_ptr++ * *vector2_ptr++;
 2224              		.loc 1 85 0
 2225 053c 300000DA 		ble	.L133
 2226 0540 080054E3 		cmp	r4, #8
 2227 0544 9D7ADFED 		vldr.32	s15, .L222
 2228 0548 DB0000DA 		ble	.L175
 2229 054c 203087E2 		add	r3, r7, #32
 2230 0550 202088E2 		add	r2, r8, #32
 2231 0554 0010A0E3 		mov	r1, #0
 2232              	.LVL273:
 2233              	.L135:
  86:../src/tensorflow_lite/tensorflow/lite/micro/kernels/cmsis_nn/svdf.cc ****       }
 2234              		.loc 1 86 0
 2235 0558 085A53ED 		vldr.32	s11, [r3, #-32]
 2236 055c 081081E2 		add	r1, r1, #8
 2237              	.LVL274:
 2238 0560 086A12ED 		vldr.32	s12, [r2, #-32]
 2239 0564 0E0051E1 		cmp	r1, lr
 2240 0568 076A52ED 		vldr.32	s13, [r2, #-28]
 2241 056c 0300A0E1 		mov	r0, r3
 2242 0570 077A13ED 		vldr.32	s14, [r3, #-28]
 2243 0574 02C0A0E1 		mov	ip, r2
 2244              	.LVL275:
 2245 0578 061A53ED 		vldr.32	s3, [r3, #-24]
 2246 057c 202082E2 		add	r2, r2, #32
 2247              	.LVL276:
 2248 0580 867A45EE 		vmla.f32	s15, s11, s12
 2249 0584 0E2A12ED 		vldr.32	s4, [r2, #-56]
 2250 0588 052A53ED 		vldr.32	s5, [r3, #-20]
 2251 058c 0D3A12ED 		vldr.32	s6, [r2, #-52]
 2252 0590 043A53ED 		vldr.32	s7, [r3, #-16]
 2253 0594 0C4A12ED 		vldr.32	s8, [r2, #-48]
 2254 0598 034A53ED 		vldr.32	s9, [r3, #-12]
 2255 059c 877A46EE 		vmla.f32	s15, s13, s14
 2256 05a0 0B5A12ED 		vldr.32	s10, [r2, #-44]
 2257 05a4 025A53ED 		vldr.32	s11, [r3, #-8]
 2258 05a8 0A6A12ED 		vldr.32	s12, [r2, #-40]
 2259 05ac 016A53ED 		vldr.32	s13, [r3, #-4]
 2260 05b0 097A12ED 		vldr.32	s14, [r2, #-36]
 2261 05b4 3CF0D3F5 		pld	[r3, #60]
 2262 05b8 203083E2 		add	r3, r3, #32
 2263              	.LVL277:
 2264 05bc 827A41EE 		vmla.f32	s15, s3, s4
 2265 05c0 837A42EE 		vmla.f32	s15, s5, s6
 2266 05c4 847A43EE 		vmla.f32	s15, s7, s8
 2267 05c8 857A44EE 		vmla.f32	s15, s9, s10
 2268 05cc 867A45EE 		vmla.f32	s15, s11, s12
 2269 05d0 877A46EE 		vmla.f32	s15, s13, s14
 2270 05d4 DFFFFF1A 		bne	.L135
 2271 05d8 0C20A0E1 		mov	r2, ip
 2272 05dc 0030A0E1 		mov	r3, r0
 2273              	.LVL278:
 2274              	.L137:
 2275 05e0 016AF2EC 		vldmia.32	r2!, {s13}
 2276              	.LVL279:
  85:../src/tensorflow_lite/tensorflow/lite/micro/kernels/cmsis_nn/svdf.cc ****         *scratch_ptr_batch += *vector1_ptr++ * *vector2_ptr++;
 2277              		.loc 1 85 0
 2278 05e4 011081E2 		add	r1, r1, #1
 2279              	.LVL280:
  86:../src/tensorflow_lite/tensorflow/lite/micro/kernels/cmsis_nn/svdf.cc ****       }
 2280              		.loc 1 86 0
 2281 05e8 017AB3EC 		vldmia.32	r3!, {s14}
 2282              	.LVL281:
  85:../src/tensorflow_lite/tensorflow/lite/micro/kernels/cmsis_nn/svdf.cc ****         *scratch_ptr_batch += *vector1_ptr++ * *vector2_ptr++;
 2283              		.loc 1 85 0
 2284 05ec 010054E1 		cmp	r4, r1
  86:../src/tensorflow_lite/tensorflow/lite/micro/kernels/cmsis_nn/svdf.cc ****       }
 2285              		.loc 1 86 0
 2286 05f0 877A46EE 		vmla.f32	s15, s13, s14
  85:../src/tensorflow_lite/tensorflow/lite/micro/kernels/cmsis_nn/svdf.cc ****         *scratch_ptr_batch += *vector1_ptr++ * *vector2_ptr++;
 2287              		.loc 1 85 0
 2288 05f4 F9FFFFCA 		bgt	.L137
 2289 05f8 097087E0 		add	r7, r7, r9
 2290 05fc 098088E0 		add	r8, r8, r9
 2291 0600 007AC5ED 		vstr.32	s15, [r5]
 2292              	.LVL282:
 2293              	.L133:
 2294              	.LBE403:
 2295              	.LBE405:
  83:../src/tensorflow_lite/tensorflow/lite/micro/kernels/cmsis_nn/svdf.cc ****       *scratch_ptr_batch = 0.f;
 2296              		.loc 1 83 0
 2297 0604 016086E2 		add	r6, r6, #1
 2298              	.LVL283:
 2299              	.LBB406:
  88:../src/tensorflow_lite/tensorflow/lite/micro/kernels/cmsis_nn/svdf.cc ****     }
 2300              		.loc 1 88 0
 2301 0608 045085E2 		add	r5, r5, #4
 2302              	.LVL284:
 2303              	.LBE406:
  83:../src/tensorflow_lite/tensorflow/lite/micro/kernels/cmsis_nn/svdf.cc ****       *scratch_ptr_batch = 0.f;
 2304              		.loc 1 83 0
 2305 060c 06005AE1 		cmp	r10, r6
 2306 0610 C7FFFF1A 		bne	.L130
 2307 0614 44209DE5 		ldr	r2, [sp, #68]
 2308 0618 50109DE5 		ldr	r1, [sp, #80]
 2309              	.LBE408:
 2310              	.LBE410:
  78:../src/tensorflow_lite/tensorflow/lite/micro/kernels/cmsis_nn/svdf.cc ****     // Perform batched vector dot product:
 2311              		.loc 1 78 0
 2312 061c 48309DE5 		ldr	r3, [sp, #72]
 2313 0620 012082E0 		add	r2, r2, r1
 2314 0624 44208DE5 		str	r2, [sp, #68]
 2315 0628 013083E2 		add	r3, r3, #1
 2316 062c 3C209DE5 		ldr	r2, [sp, #60]
 2317 0630 48308DE5 		str	r3, [sp, #72]
 2318              	.LVL285:
 2319 0634 030052E1 		cmp	r2, r3
 2320 0638 40309DE5 		ldr	r3, [sp, #64]
 2321              	.LVL286:
 2322 063c 54209DE5 		ldr	r2, [sp, #84]
 2323 0640 023083E0 		add	r3, r3, r2
 2324 0644 40308DE5 		str	r3, [sp, #64]
 2325 0648 B5FFFF1A 		bne	.L132
 2326 064c 5C509DE5 		ldr	r5, [sp, #92]
 2327              	.LVL287:
 2328              	.L131:
 2329              	.LBE412:
 2330              	.LBB413:
  93:../src/tensorflow_lite/tensorflow/lite/micro/kernels/cmsis_nn/svdf.cc ****     // VectorBatchVectorAssign
 2331              		.loc 1 93 0
 2332 0650 68309DE5 		ldr	r3, [sp, #104]
 2333 0654 000053E3 		cmp	r3, #0
 2334 0658 A600000A 		beq	.L220
 2335              	.LVL288:
 2336 065c 58309DE5 		ldr	r3, [sp, #88]
 2337 0660 000053E3 		cmp	r3, #0
 2338 0664 F3FEFFDA 		ble	.L206
 2339 0668 0341A0E1 		lsl	r4, r3, #2
 2340 066c 3C709DE5 		ldr	r7, [sp, #60]
 2341 0670 60309DE5 		ldr	r3, [sp, #96]
 2342 0674 0060A0E3 		mov	r6, #0
 2343 0678 68809DE5 		ldr	r8, [sp, #104]
 2344              	.LVL289:
 2345              	.L144:
 2346 067c 0300A0E1 		mov	r0, r3
 2347              	.LBB414:
  95:../src/tensorflow_lite/tensorflow/lite/micro/kernels/cmsis_nn/svdf.cc ****       float* output_data = output_ptr + i * num_units;
 2348              		.loc 1 95 0
 2349 0680 016086E2 		add	r6, r6, #1
 2350              	.LVL290:
 2351 0684 0420A0E1 		mov	r2, r4
 2352 0688 0810A0E1 		mov	r1, r8
 2353 068c FEFFFFEB 		bl	memmove
 2354              	.LVL291:
 2355 0690 060057E1 		cmp	r7, r6
 2356 0694 043080E0 		add	r3, r0, r4
 2357 0698 F7FFFF1A 		bne	.L144
 2358              	.LVL292:
 2359              	.L143:
 2360 069c 64309DE5 		ldr	r3, [sp, #100]
 2361 06a0 090045E2 		sub	r0, r5, #9
 2362 06a4 70909DE5 		ldr	r9, [sp, #112]
 2363 06a8 0700C0E3 		bic	r0, r0, #7
 2364 06ac 60A09DE5 		ldr	r10, [sp, #96]
 2365 06b0 0571A0E1 		lsl	r7, r5, #2
 2366 06b4 080080E2 		add	r0, r0, #8
 2367 06b8 03B1A0E1 		lsl	fp, r3, #2
 2368              	.LBE414:
  93:../src/tensorflow_lite/tensorflow/lite/micro/kernels/cmsis_nn/svdf.cc ****     // VectorBatchVectorAssign
 2369              		.loc 1 93 0
 2370 06bc 0080A0E3 		mov	r8, #0
 2371 06c0 40B08DE5 		str	fp, [sp, #64]
 2372 06c4 58B09DE5 		ldr	fp, [sp, #88]
 2373              	.LVL293:
 2374              	.L147:
 2375              	.LBE413:
 2376              	.LBB423:
 2377              	.LBB424:
 112:../src/tensorflow_lite/tensorflow/lite/micro/kernels/cmsis_nn/svdf.cc **** 
 2378              		.loc 1 112 0
 2379 06c8 0960A0E1 		mov	r6, r9
 2380              	.LVL294:
 2381 06cc 0AC0A0E1 		mov	ip, r10
 2382 06d0 00E0A0E3 		mov	lr, #0
 2383              	.LVL295:
 2384              	.L145:
 2385              	.LBB425:
 2386              	.LBB426:
 116:../src/tensorflow_lite/tensorflow/lite/micro/kernels/cmsis_nn/svdf.cc ****         output_ptr_batch[i] += *scratch_ptr_batch++;
 2387              		.loc 1 116 0
 2388 06d4 000055E3 		cmp	r5, #0
 2389 06d8 220000DA 		ble	.L148
 2390 06dc 080055E3 		cmp	r5, #8
 2391 06e0 007ADCED 		vldr.32	s15, [ip]
 2392 06e4 710000DA 		ble	.L176
 2393 06e8 203086E2 		add	r3, r6, #32
 2394 06ec 0020A0E3 		mov	r2, #0
 2395              	.LVL296:
 2396              	.L150:
 117:../src/tensorflow_lite/tensorflow/lite/micro/kernels/cmsis_nn/svdf.cc ****       }
 2397              		.loc 1 117 0
 2398 06f0 086A53ED 		vldr.32	s13, [r3, #-32]
 2399 06f4 082082E2 		add	r2, r2, #8
 2400              	.LVL297:
 2401 06f8 077A13ED 		vldr.32	s14, [r3, #-28]
 2402 06fc 000052E1 		cmp	r2, r0
 2403 0700 064A53ED 		vldr.32	s9, [r3, #-24]
 2404 0704 0310A0E1 		mov	r1, r3
 2405              	.LVL298:
 2406 0708 055A13ED 		vldr.32	s10, [r3, #-20]
 2407 070c A67A77EE 		vadd.f32	s15, s15, s13
 2408 0710 045A53ED 		vldr.32	s11, [r3, #-16]
 2409 0714 036A13ED 		vldr.32	s12, [r3, #-12]
 2410 0718 026A53ED 		vldr.32	s13, [r3, #-8]
 2411 071c 877A77EE 		vadd.f32	s15, s15, s14
 2412 0720 017A13ED 		vldr.32	s14, [r3, #-4]
 2413 0724 68F0D3F5 		pld	[r3, #104]
 2414 0728 203083E2 		add	r3, r3, #32
 2415              	.LVL299:
 2416 072c A47A77EE 		vadd.f32	s15, s15, s9
 2417 0730 857A77EE 		vadd.f32	s15, s15, s10
 2418 0734 A57A77EE 		vadd.f32	s15, s15, s11
 2419 0738 867A77EE 		vadd.f32	s15, s15, s12
 2420 073c A67A77EE 		vadd.f32	s15, s15, s13
 2421 0740 877A77EE 		vadd.f32	s15, s15, s14
 2422 0744 E9FFFF1A 		bne	.L150
 2423 0748 0130A0E1 		mov	r3, r1
 2424              	.LVL300:
 2425              	.L152:
 2426 074c 017AB3EC 		vldmia.32	r3!, {s14}
 2427              	.LVL301:
 116:../src/tensorflow_lite/tensorflow/lite/micro/kernels/cmsis_nn/svdf.cc ****         output_ptr_batch[i] += *scratch_ptr_batch++;
 2428              		.loc 1 116 0
 2429 0750 012082E2 		add	r2, r2, #1
 2430              	.LVL302:
 2431 0754 020055E1 		cmp	r5, r2
 117:../src/tensorflow_lite/tensorflow/lite/micro/kernels/cmsis_nn/svdf.cc ****       }
 2432              		.loc 1 117 0
 2433 0758 877A77EE 		vadd.f32	s15, s15, s14
 116:../src/tensorflow_lite/tensorflow/lite/micro/kernels/cmsis_nn/svdf.cc ****         output_ptr_batch[i] += *scratch_ptr_batch++;
 2434              		.loc 1 116 0
 2435 075c FAFFFFCA 		bgt	.L152
 2436 0760 076086E0 		add	r6, r6, r7
 2437 0764 007ACCED 		vstr.32	s15, [ip]
 2438              	.LVL303:
 2439              	.L148:
 2440              	.LBE426:
 115:../src/tensorflow_lite/tensorflow/lite/micro/kernels/cmsis_nn/svdf.cc ****       for (int j = 0; j < rank; j++) {
 2441              		.loc 1 115 0
 2442 0768 01E08EE2 		add	lr, lr, #1
 2443              	.LVL304:
 2444 076c 04C08CE2 		add	ip, ip, #4
 2445 0770 0E005BE1 		cmp	fp, lr
 2446 0774 D6FFFF1A 		bne	.L145
 2447 0778 40309DE5 		ldr	r3, [sp, #64]
 2448              	.LBE425:
 2449              	.LBE424:
 110:../src/tensorflow_lite/tensorflow/lite/micro/kernels/cmsis_nn/svdf.cc ****     float* output_ptr_batch = output_ptr + b * num_units;
 2450              		.loc 1 110 0
 2451 077c 018088E2 		add	r8, r8, #1
 2452              	.LVL305:
 2453 0780 04A08AE0 		add	r10, r10, r4
 2454 0784 039089E0 		add	r9, r9, r3
 2455 0788 3C309DE5 		ldr	r3, [sp, #60]
 2456 078c 080053E1 		cmp	r3, r8
 2457 0790 CCFFFFCA 		bgt	.L147
 2458 0794 60609DE5 		ldr	r6, [sp, #96]
 2459              	.LVL306:
 2460 0798 03B0A0E1 		mov	fp, r3
 2461              	.LVL307:
 2462              	.LBE423:
 2463              	.LBB430:
 2464              	.LBB431:
 2465              	.LBB432:
 2466              	.LBB433:
 2467              	.LBB434:
 2468              		.file 5 "C:/Renesas/e2studio_2021_01_workspace_RZA2M_ANPR/ANPR_RZA2M_GR_MANGO/src/tensorflow_lite/
   1:C:/Renesas/e2studio_2021_01_workspace_RZA2M_ANPR/ANPR_RZA2M_GR_MANGO/src/tensorflow_lite/tensorflow/lite/micro/kernels\activation_utils.h **** /* Copyright 2019 The TensorFlow Authors. All Rights Reserved.
   2:C:/Renesas/e2studio_2021_01_workspace_RZA2M_ANPR/ANPR_RZA2M_GR_MANGO/src/tensorflow_lite/tensorflow/lite/micro/kernels\activation_utils.h **** 
   3:C:/Renesas/e2studio_2021_01_workspace_RZA2M_ANPR/ANPR_RZA2M_GR_MANGO/src/tensorflow_lite/tensorflow/lite/micro/kernels\activation_utils.h **** Licensed under the Apache License, Version 2.0 (the "License");
   4:C:/Renesas/e2studio_2021_01_workspace_RZA2M_ANPR/ANPR_RZA2M_GR_MANGO/src/tensorflow_lite/tensorflow/lite/micro/kernels\activation_utils.h **** you may not use this file except in compliance with the License.
   5:C:/Renesas/e2studio_2021_01_workspace_RZA2M_ANPR/ANPR_RZA2M_GR_MANGO/src/tensorflow_lite/tensorflow/lite/micro/kernels\activation_utils.h **** You may obtain a copy of the License at
   6:C:/Renesas/e2studio_2021_01_workspace_RZA2M_ANPR/ANPR_RZA2M_GR_MANGO/src/tensorflow_lite/tensorflow/lite/micro/kernels\activation_utils.h **** 
   7:C:/Renesas/e2studio_2021_01_workspace_RZA2M_ANPR/ANPR_RZA2M_GR_MANGO/src/tensorflow_lite/tensorflow/lite/micro/kernels\activation_utils.h ****     http://www.apache.org/licenses/LICENSE-2.0
   8:C:/Renesas/e2studio_2021_01_workspace_RZA2M_ANPR/ANPR_RZA2M_GR_MANGO/src/tensorflow_lite/tensorflow/lite/micro/kernels\activation_utils.h **** 
   9:C:/Renesas/e2studio_2021_01_workspace_RZA2M_ANPR/ANPR_RZA2M_GR_MANGO/src/tensorflow_lite/tensorflow/lite/micro/kernels\activation_utils.h **** Unless required by applicable law or agreed to in writing, software
  10:C:/Renesas/e2studio_2021_01_workspace_RZA2M_ANPR/ANPR_RZA2M_GR_MANGO/src/tensorflow_lite/tensorflow/lite/micro/kernels\activation_utils.h **** distributed under the License is distributed on an "AS IS" BASIS,
  11:C:/Renesas/e2studio_2021_01_workspace_RZA2M_ANPR/ANPR_RZA2M_GR_MANGO/src/tensorflow_lite/tensorflow/lite/micro/kernels\activation_utils.h **** WITHOUT WARRANTIES OR CONDITIONS OF ANY KIND, either express or implied.
  12:C:/Renesas/e2studio_2021_01_workspace_RZA2M_ANPR/ANPR_RZA2M_GR_MANGO/src/tensorflow_lite/tensorflow/lite/micro/kernels\activation_utils.h **** See the License for the specific language governing permissions and
  13:C:/Renesas/e2studio_2021_01_workspace_RZA2M_ANPR/ANPR_RZA2M_GR_MANGO/src/tensorflow_lite/tensorflow/lite/micro/kernels\activation_utils.h **** limitations under the License.
  14:C:/Renesas/e2studio_2021_01_workspace_RZA2M_ANPR/ANPR_RZA2M_GR_MANGO/src/tensorflow_lite/tensorflow/lite/micro/kernels\activation_utils.h **** ==============================================================================*/
  15:C:/Renesas/e2studio_2021_01_workspace_RZA2M_ANPR/ANPR_RZA2M_GR_MANGO/src/tensorflow_lite/tensorflow/lite/micro/kernels\activation_utils.h **** 
  16:C:/Renesas/e2studio_2021_01_workspace_RZA2M_ANPR/ANPR_RZA2M_GR_MANGO/src/tensorflow_lite/tensorflow/lite/micro/kernels\activation_utils.h **** #ifndef TENSORFLOW_LITE_MICRO_KERNELS_ACTIVATION_UTILS_H_
  17:C:/Renesas/e2studio_2021_01_workspace_RZA2M_ANPR/ANPR_RZA2M_GR_MANGO/src/tensorflow_lite/tensorflow/lite/micro/kernels\activation_utils.h **** #define TENSORFLOW_LITE_MICRO_KERNELS_ACTIVATION_UTILS_H_
  18:C:/Renesas/e2studio_2021_01_workspace_RZA2M_ANPR/ANPR_RZA2M_GR_MANGO/src/tensorflow_lite/tensorflow/lite/micro/kernels\activation_utils.h **** 
  19:C:/Renesas/e2studio_2021_01_workspace_RZA2M_ANPR/ANPR_RZA2M_GR_MANGO/src/tensorflow_lite/tensorflow/lite/micro/kernels\activation_utils.h **** #include <algorithm>
  20:C:/Renesas/e2studio_2021_01_workspace_RZA2M_ANPR/ANPR_RZA2M_GR_MANGO/src/tensorflow_lite/tensorflow/lite/micro/kernels\activation_utils.h **** #include <cmath>
  21:C:/Renesas/e2studio_2021_01_workspace_RZA2M_ANPR/ANPR_RZA2M_GR_MANGO/src/tensorflow_lite/tensorflow/lite/micro/kernels\activation_utils.h **** 
  22:C:/Renesas/e2studio_2021_01_workspace_RZA2M_ANPR/ANPR_RZA2M_GR_MANGO/src/tensorflow_lite/tensorflow/lite/micro/kernels\activation_utils.h **** #include "tensorflow/lite/c/builtin_op_data.h"
  23:C:/Renesas/e2studio_2021_01_workspace_RZA2M_ANPR/ANPR_RZA2M_GR_MANGO/src/tensorflow_lite/tensorflow/lite/micro/kernels\activation_utils.h **** #include "tensorflow/lite/kernels/internal/cppmath.h"
  24:C:/Renesas/e2studio_2021_01_workspace_RZA2M_ANPR/ANPR_RZA2M_GR_MANGO/src/tensorflow_lite/tensorflow/lite/micro/kernels\activation_utils.h **** #include "tensorflow/lite/kernels/internal/max.h"
  25:C:/Renesas/e2studio_2021_01_workspace_RZA2M_ANPR/ANPR_RZA2M_GR_MANGO/src/tensorflow_lite/tensorflow/lite/micro/kernels\activation_utils.h **** #include "tensorflow/lite/kernels/internal/min.h"
  26:C:/Renesas/e2studio_2021_01_workspace_RZA2M_ANPR/ANPR_RZA2M_GR_MANGO/src/tensorflow_lite/tensorflow/lite/micro/kernels\activation_utils.h **** 
  27:C:/Renesas/e2studio_2021_01_workspace_RZA2M_ANPR/ANPR_RZA2M_GR_MANGO/src/tensorflow_lite/tensorflow/lite/micro/kernels\activation_utils.h **** namespace tflite {
  28:C:/Renesas/e2studio_2021_01_workspace_RZA2M_ANPR/ANPR_RZA2M_GR_MANGO/src/tensorflow_lite/tensorflow/lite/micro/kernels\activation_utils.h **** namespace ops {
  29:C:/Renesas/e2studio_2021_01_workspace_RZA2M_ANPR/ANPR_RZA2M_GR_MANGO/src/tensorflow_lite/tensorflow/lite/micro/kernels\activation_utils.h **** namespace micro {
  30:C:/Renesas/e2studio_2021_01_workspace_RZA2M_ANPR/ANPR_RZA2M_GR_MANGO/src/tensorflow_lite/tensorflow/lite/micro/kernels\activation_utils.h **** 
  31:C:/Renesas/e2studio_2021_01_workspace_RZA2M_ANPR/ANPR_RZA2M_GR_MANGO/src/tensorflow_lite/tensorflow/lite/micro/kernels\activation_utils.h **** // Returns the floating point value for a fused activation:
  32:C:/Renesas/e2studio_2021_01_workspace_RZA2M_ANPR/ANPR_RZA2M_GR_MANGO/src/tensorflow_lite/tensorflow/lite/micro/kernels\activation_utils.h **** inline float ActivationValFloat(TfLiteFusedActivation act, float a) {
  33:C:/Renesas/e2studio_2021_01_workspace_RZA2M_ANPR/ANPR_RZA2M_GR_MANGO/src/tensorflow_lite/tensorflow/lite/micro/kernels\activation_utils.h ****   switch (act) {
  34:C:/Renesas/e2studio_2021_01_workspace_RZA2M_ANPR/ANPR_RZA2M_GR_MANGO/src/tensorflow_lite/tensorflow/lite/micro/kernels\activation_utils.h ****     case kTfLiteActNone:
  35:C:/Renesas/e2studio_2021_01_workspace_RZA2M_ANPR/ANPR_RZA2M_GR_MANGO/src/tensorflow_lite/tensorflow/lite/micro/kernels\activation_utils.h ****       return a;
  36:C:/Renesas/e2studio_2021_01_workspace_RZA2M_ANPR/ANPR_RZA2M_GR_MANGO/src/tensorflow_lite/tensorflow/lite/micro/kernels\activation_utils.h ****     case kTfLiteActRelu:
  37:C:/Renesas/e2studio_2021_01_workspace_RZA2M_ANPR/ANPR_RZA2M_GR_MANGO/src/tensorflow_lite/tensorflow/lite/micro/kernels\activation_utils.h ****       return TfLiteMax(0.0f, a);
  38:C:/Renesas/e2studio_2021_01_workspace_RZA2M_ANPR/ANPR_RZA2M_GR_MANGO/src/tensorflow_lite/tensorflow/lite/micro/kernels\activation_utils.h ****     case kTfLiteActReluN1To1:
  39:C:/Renesas/e2studio_2021_01_workspace_RZA2M_ANPR/ANPR_RZA2M_GR_MANGO/src/tensorflow_lite/tensorflow/lite/micro/kernels\activation_utils.h ****       return TfLiteMax(-1.0f, TfLiteMin(a, 1.0f));
  40:C:/Renesas/e2studio_2021_01_workspace_RZA2M_ANPR/ANPR_RZA2M_GR_MANGO/src/tensorflow_lite/tensorflow/lite/micro/kernels\activation_utils.h ****     case kTfLiteActRelu6:
  41:C:/Renesas/e2studio_2021_01_workspace_RZA2M_ANPR/ANPR_RZA2M_GR_MANGO/src/tensorflow_lite/tensorflow/lite/micro/kernels\activation_utils.h ****       return TfLiteMax(0.0f, TfLiteMin(a, 6.0f));
  42:C:/Renesas/e2studio_2021_01_workspace_RZA2M_ANPR/ANPR_RZA2M_GR_MANGO/src/tensorflow_lite/tensorflow/lite/micro/kernels\activation_utils.h ****     case kTfLiteActTanh:
  43:C:/Renesas/e2studio_2021_01_workspace_RZA2M_ANPR/ANPR_RZA2M_GR_MANGO/src/tensorflow_lite/tensorflow/lite/micro/kernels\activation_utils.h ****       return std::tanh(a);
  44:C:/Renesas/e2studio_2021_01_workspace_RZA2M_ANPR/ANPR_RZA2M_GR_MANGO/src/tensorflow_lite/tensorflow/lite/micro/kernels\activation_utils.h ****     case kTfLiteActSignBit:
  45:C:/Renesas/e2studio_2021_01_workspace_RZA2M_ANPR/ANPR_RZA2M_GR_MANGO/src/tensorflow_lite/tensorflow/lite/micro/kernels\activation_utils.h ****       return std::signbit(a);
  46:C:/Renesas/e2studio_2021_01_workspace_RZA2M_ANPR/ANPR_RZA2M_GR_MANGO/src/tensorflow_lite/tensorflow/lite/micro/kernels\activation_utils.h ****     case kTfLiteActSigmoid:
  47:C:/Renesas/e2studio_2021_01_workspace_RZA2M_ANPR/ANPR_RZA2M_GR_MANGO/src/tensorflow_lite/tensorflow/lite/micro/kernels\activation_utils.h ****       return 1.0f / (1.0f + std::exp(-a));
  48:C:/Renesas/e2studio_2021_01_workspace_RZA2M_ANPR/ANPR_RZA2M_GR_MANGO/src/tensorflow_lite/tensorflow/lite/micro/kernels\activation_utils.h ****   }
  49:C:/Renesas/e2studio_2021_01_workspace_RZA2M_ANPR/ANPR_RZA2M_GR_MANGO/src/tensorflow_lite/tensorflow/lite/micro/kernels\activation_utils.h ****   return 0.0f;  // To indicate an unsupported activation (i.e. when a new fused
 2469              		.loc 5 49 0
 2470 079c 078ADFED 		vldr.32	s17, .L222
 2471              	.LBE434:
 2472              	.LBE433:
 2473              	.LBE432:
 2474              	.LBE431:
 2475              	.LBE430:
 2476              	.LBB503:
 110:../src/tensorflow_lite/tensorflow/lite/micro/kernels/cmsis_nn/svdf.cc ****     float* output_ptr_batch = output_ptr + b * num_units;
 2477              		.loc 1 110 0
 2478 07a0 0050A0E3 		mov	r5, #0
 2479 07a4 58A09DE5 		ldr	r10, [sp, #88]
 2480 07a8 6C909DE5 		ldr	r9, [sp, #108]
 2481              	.LBE503:
 2482              	.LBB504:
 2483              	.LBB500:
 2484              	.LBB496:
 2485              	.LBB482:
 2486              	.LBB468:
  47:C:/Renesas/e2studio_2021_01_workspace_RZA2M_ANPR/ANPR_RZA2M_GR_MANGO/src/tensorflow_lite/tensorflow/lite/micro/kernels\activation_utils.h ****   }
 2487              		.loc 5 47 0
 2488 07ac 008AB7EE 		vmov.f32	s16, #1.0e+0
 2489              	.LVL308:
 2490              	.L155:
 2491              	.LBE468:
 2492              	.LBE482:
 2493              	.LBE496:
 124:../src/tensorflow_lite/tensorflow/lite/micro/kernels/cmsis_nn/svdf.cc ****     for (int i = 0; i < num_units; ++i) {
 2494              		.loc 1 124 0
 2495 07b0 0680A0E1 		mov	r8, r6
 2496              	.LVL309:
 2497 07b4 0070A0E3 		mov	r7, #0
 2498              	.LBB497:
 2499              	.LBB483:
 2500              	.LBB469:
 2501              	.LBB435:
 2502              	.LBB436:
 2503              	.LBB437:
  87:c:\program files (x86)\gnu tools arm embedded\6 2017-q2-update\arm-none-eabi\include\c++\6.3.1\cmath **** #endif
  88:c:\program files (x86)\gnu tools arm embedded\6 2017-q2-update\arm-none-eabi\include\c++\6.3.1\cmath **** 
  89:c:\program files (x86)\gnu tools arm embedded\6 2017-q2-update\arm-none-eabi\include\c++\6.3.1\cmath **** #ifndef __CORRECT_ISO_CPP_MATH_H_PROTO
  90:c:\program files (x86)\gnu tools arm embedded\6 2017-q2-update\arm-none-eabi\include\c++\6.3.1\cmath ****   inline _GLIBCXX_CONSTEXPR float
  91:c:\program files (x86)\gnu tools arm embedded\6 2017-q2-update\arm-none-eabi\include\c++\6.3.1\cmath ****   abs(float __x)
  92:c:\program files (x86)\gnu tools arm embedded\6 2017-q2-update\arm-none-eabi\include\c++\6.3.1\cmath ****   { return __builtin_fabsf(__x); }
  93:c:\program files (x86)\gnu tools arm embedded\6 2017-q2-update\arm-none-eabi\include\c++\6.3.1\cmath **** 
  94:c:\program files (x86)\gnu tools arm embedded\6 2017-q2-update\arm-none-eabi\include\c++\6.3.1\cmath ****   inline _GLIBCXX_CONSTEXPR long double
  95:c:\program files (x86)\gnu tools arm embedded\6 2017-q2-update\arm-none-eabi\include\c++\6.3.1\cmath ****   abs(long double __x)
  96:c:\program files (x86)\gnu tools arm embedded\6 2017-q2-update\arm-none-eabi\include\c++\6.3.1\cmath ****   { return __builtin_fabsl(__x); }
  97:c:\program files (x86)\gnu tools arm embedded\6 2017-q2-update\arm-none-eabi\include\c++\6.3.1\cmath **** #endif
  98:c:\program files (x86)\gnu tools arm embedded\6 2017-q2-update\arm-none-eabi\include\c++\6.3.1\cmath **** 
  99:c:\program files (x86)\gnu tools arm embedded\6 2017-q2-update\arm-none-eabi\include\c++\6.3.1\cmath ****   template<typename _Tp>
 100:c:\program files (x86)\gnu tools arm embedded\6 2017-q2-update\arm-none-eabi\include\c++\6.3.1\cmath ****     inline _GLIBCXX_CONSTEXPR
 101:c:\program files (x86)\gnu tools arm embedded\6 2017-q2-update\arm-none-eabi\include\c++\6.3.1\cmath ****     typename __gnu_cxx::__enable_if<__is_integer<_Tp>::__value,
 102:c:\program files (x86)\gnu tools arm embedded\6 2017-q2-update\arm-none-eabi\include\c++\6.3.1\cmath ****                                     double>::__type
 103:c:\program files (x86)\gnu tools arm embedded\6 2017-q2-update\arm-none-eabi\include\c++\6.3.1\cmath ****     abs(_Tp __x)
 104:c:\program files (x86)\gnu tools arm embedded\6 2017-q2-update\arm-none-eabi\include\c++\6.3.1\cmath ****     { return __builtin_fabs(__x); }
 105:c:\program files (x86)\gnu tools arm embedded\6 2017-q2-update\arm-none-eabi\include\c++\6.3.1\cmath **** 
 106:c:\program files (x86)\gnu tools arm embedded\6 2017-q2-update\arm-none-eabi\include\c++\6.3.1\cmath ****   using ::acos;
 107:c:\program files (x86)\gnu tools arm embedded\6 2017-q2-update\arm-none-eabi\include\c++\6.3.1\cmath **** 
 108:c:\program files (x86)\gnu tools arm embedded\6 2017-q2-update\arm-none-eabi\include\c++\6.3.1\cmath **** #ifndef __CORRECT_ISO_CPP_MATH_H_PROTO
 109:c:\program files (x86)\gnu tools arm embedded\6 2017-q2-update\arm-none-eabi\include\c++\6.3.1\cmath ****   inline _GLIBCXX_CONSTEXPR float
 110:c:\program files (x86)\gnu tools arm embedded\6 2017-q2-update\arm-none-eabi\include\c++\6.3.1\cmath ****   acos(float __x)
 111:c:\program files (x86)\gnu tools arm embedded\6 2017-q2-update\arm-none-eabi\include\c++\6.3.1\cmath ****   { return __builtin_acosf(__x); }
 112:c:\program files (x86)\gnu tools arm embedded\6 2017-q2-update\arm-none-eabi\include\c++\6.3.1\cmath **** 
 113:c:\program files (x86)\gnu tools arm embedded\6 2017-q2-update\arm-none-eabi\include\c++\6.3.1\cmath ****   inline _GLIBCXX_CONSTEXPR long double
 114:c:\program files (x86)\gnu tools arm embedded\6 2017-q2-update\arm-none-eabi\include\c++\6.3.1\cmath ****   acos(long double __x)
 115:c:\program files (x86)\gnu tools arm embedded\6 2017-q2-update\arm-none-eabi\include\c++\6.3.1\cmath ****   { return __builtin_acosl(__x); }
 116:c:\program files (x86)\gnu tools arm embedded\6 2017-q2-update\arm-none-eabi\include\c++\6.3.1\cmath **** #endif
 117:c:\program files (x86)\gnu tools arm embedded\6 2017-q2-update\arm-none-eabi\include\c++\6.3.1\cmath **** 
 118:c:\program files (x86)\gnu tools arm embedded\6 2017-q2-update\arm-none-eabi\include\c++\6.3.1\cmath ****   template<typename _Tp>
 119:c:\program files (x86)\gnu tools arm embedded\6 2017-q2-update\arm-none-eabi\include\c++\6.3.1\cmath ****     inline _GLIBCXX_CONSTEXPR
 120:c:\program files (x86)\gnu tools arm embedded\6 2017-q2-update\arm-none-eabi\include\c++\6.3.1\cmath ****     typename __gnu_cxx::__enable_if<__is_integer<_Tp>::__value, 
 121:c:\program files (x86)\gnu tools arm embedded\6 2017-q2-update\arm-none-eabi\include\c++\6.3.1\cmath ****                                     double>::__type
 122:c:\program files (x86)\gnu tools arm embedded\6 2017-q2-update\arm-none-eabi\include\c++\6.3.1\cmath ****     acos(_Tp __x)
 123:c:\program files (x86)\gnu tools arm embedded\6 2017-q2-update\arm-none-eabi\include\c++\6.3.1\cmath ****     { return __builtin_acos(__x); }
 124:c:\program files (x86)\gnu tools arm embedded\6 2017-q2-update\arm-none-eabi\include\c++\6.3.1\cmath **** 
 125:c:\program files (x86)\gnu tools arm embedded\6 2017-q2-update\arm-none-eabi\include\c++\6.3.1\cmath ****   using ::asin;
 126:c:\program files (x86)\gnu tools arm embedded\6 2017-q2-update\arm-none-eabi\include\c++\6.3.1\cmath **** 
 127:c:\program files (x86)\gnu tools arm embedded\6 2017-q2-update\arm-none-eabi\include\c++\6.3.1\cmath **** #ifndef __CORRECT_ISO_CPP_MATH_H_PROTO
 128:c:\program files (x86)\gnu tools arm embedded\6 2017-q2-update\arm-none-eabi\include\c++\6.3.1\cmath ****   inline _GLIBCXX_CONSTEXPR float
 129:c:\program files (x86)\gnu tools arm embedded\6 2017-q2-update\arm-none-eabi\include\c++\6.3.1\cmath ****   asin(float __x)
 130:c:\program files (x86)\gnu tools arm embedded\6 2017-q2-update\arm-none-eabi\include\c++\6.3.1\cmath ****   { return __builtin_asinf(__x); }
 131:c:\program files (x86)\gnu tools arm embedded\6 2017-q2-update\arm-none-eabi\include\c++\6.3.1\cmath **** 
 132:c:\program files (x86)\gnu tools arm embedded\6 2017-q2-update\arm-none-eabi\include\c++\6.3.1\cmath ****   inline _GLIBCXX_CONSTEXPR long double
 133:c:\program files (x86)\gnu tools arm embedded\6 2017-q2-update\arm-none-eabi\include\c++\6.3.1\cmath ****   asin(long double __x)
 134:c:\program files (x86)\gnu tools arm embedded\6 2017-q2-update\arm-none-eabi\include\c++\6.3.1\cmath ****   { return __builtin_asinl(__x); }
 135:c:\program files (x86)\gnu tools arm embedded\6 2017-q2-update\arm-none-eabi\include\c++\6.3.1\cmath **** #endif
 136:c:\program files (x86)\gnu tools arm embedded\6 2017-q2-update\arm-none-eabi\include\c++\6.3.1\cmath **** 
 137:c:\program files (x86)\gnu tools arm embedded\6 2017-q2-update\arm-none-eabi\include\c++\6.3.1\cmath ****   template<typename _Tp>
 138:c:\program files (x86)\gnu tools arm embedded\6 2017-q2-update\arm-none-eabi\include\c++\6.3.1\cmath ****     inline _GLIBCXX_CONSTEXPR
 139:c:\program files (x86)\gnu tools arm embedded\6 2017-q2-update\arm-none-eabi\include\c++\6.3.1\cmath ****     typename __gnu_cxx::__enable_if<__is_integer<_Tp>::__value,
 140:c:\program files (x86)\gnu tools arm embedded\6 2017-q2-update\arm-none-eabi\include\c++\6.3.1\cmath ****                                     double>::__type
 141:c:\program files (x86)\gnu tools arm embedded\6 2017-q2-update\arm-none-eabi\include\c++\6.3.1\cmath ****     asin(_Tp __x)
 142:c:\program files (x86)\gnu tools arm embedded\6 2017-q2-update\arm-none-eabi\include\c++\6.3.1\cmath ****     { return __builtin_asin(__x); }
 143:c:\program files (x86)\gnu tools arm embedded\6 2017-q2-update\arm-none-eabi\include\c++\6.3.1\cmath **** 
 144:c:\program files (x86)\gnu tools arm embedded\6 2017-q2-update\arm-none-eabi\include\c++\6.3.1\cmath ****   using ::atan;
 145:c:\program files (x86)\gnu tools arm embedded\6 2017-q2-update\arm-none-eabi\include\c++\6.3.1\cmath **** 
 146:c:\program files (x86)\gnu tools arm embedded\6 2017-q2-update\arm-none-eabi\include\c++\6.3.1\cmath **** #ifndef __CORRECT_ISO_CPP_MATH_H_PROTO
 147:c:\program files (x86)\gnu tools arm embedded\6 2017-q2-update\arm-none-eabi\include\c++\6.3.1\cmath ****   inline _GLIBCXX_CONSTEXPR float
 148:c:\program files (x86)\gnu tools arm embedded\6 2017-q2-update\arm-none-eabi\include\c++\6.3.1\cmath ****   atan(float __x)
 149:c:\program files (x86)\gnu tools arm embedded\6 2017-q2-update\arm-none-eabi\include\c++\6.3.1\cmath ****   { return __builtin_atanf(__x); }
 150:c:\program files (x86)\gnu tools arm embedded\6 2017-q2-update\arm-none-eabi\include\c++\6.3.1\cmath **** 
 151:c:\program files (x86)\gnu tools arm embedded\6 2017-q2-update\arm-none-eabi\include\c++\6.3.1\cmath ****   inline _GLIBCXX_CONSTEXPR long double
 152:c:\program files (x86)\gnu tools arm embedded\6 2017-q2-update\arm-none-eabi\include\c++\6.3.1\cmath ****   atan(long double __x)
 153:c:\program files (x86)\gnu tools arm embedded\6 2017-q2-update\arm-none-eabi\include\c++\6.3.1\cmath ****   { return __builtin_atanl(__x); }
 154:c:\program files (x86)\gnu tools arm embedded\6 2017-q2-update\arm-none-eabi\include\c++\6.3.1\cmath **** #endif
 155:c:\program files (x86)\gnu tools arm embedded\6 2017-q2-update\arm-none-eabi\include\c++\6.3.1\cmath **** 
 156:c:\program files (x86)\gnu tools arm embedded\6 2017-q2-update\arm-none-eabi\include\c++\6.3.1\cmath ****   template<typename _Tp>
 157:c:\program files (x86)\gnu tools arm embedded\6 2017-q2-update\arm-none-eabi\include\c++\6.3.1\cmath ****     inline _GLIBCXX_CONSTEXPR
 158:c:\program files (x86)\gnu tools arm embedded\6 2017-q2-update\arm-none-eabi\include\c++\6.3.1\cmath ****     typename __gnu_cxx::__enable_if<__is_integer<_Tp>::__value,
 159:c:\program files (x86)\gnu tools arm embedded\6 2017-q2-update\arm-none-eabi\include\c++\6.3.1\cmath ****                                     double>::__type
 160:c:\program files (x86)\gnu tools arm embedded\6 2017-q2-update\arm-none-eabi\include\c++\6.3.1\cmath ****     atan(_Tp __x)
 161:c:\program files (x86)\gnu tools arm embedded\6 2017-q2-update\arm-none-eabi\include\c++\6.3.1\cmath ****     { return __builtin_atan(__x); }
 162:c:\program files (x86)\gnu tools arm embedded\6 2017-q2-update\arm-none-eabi\include\c++\6.3.1\cmath **** 
 163:c:\program files (x86)\gnu tools arm embedded\6 2017-q2-update\arm-none-eabi\include\c++\6.3.1\cmath ****   using ::atan2;
 164:c:\program files (x86)\gnu tools arm embedded\6 2017-q2-update\arm-none-eabi\include\c++\6.3.1\cmath **** 
 165:c:\program files (x86)\gnu tools arm embedded\6 2017-q2-update\arm-none-eabi\include\c++\6.3.1\cmath **** #ifndef __CORRECT_ISO_CPP_MATH_H_PROTO
 166:c:\program files (x86)\gnu tools arm embedded\6 2017-q2-update\arm-none-eabi\include\c++\6.3.1\cmath ****   inline _GLIBCXX_CONSTEXPR float
 167:c:\program files (x86)\gnu tools arm embedded\6 2017-q2-update\arm-none-eabi\include\c++\6.3.1\cmath ****   atan2(float __y, float __x)
 168:c:\program files (x86)\gnu tools arm embedded\6 2017-q2-update\arm-none-eabi\include\c++\6.3.1\cmath ****   { return __builtin_atan2f(__y, __x); }
 169:c:\program files (x86)\gnu tools arm embedded\6 2017-q2-update\arm-none-eabi\include\c++\6.3.1\cmath **** 
 170:c:\program files (x86)\gnu tools arm embedded\6 2017-q2-update\arm-none-eabi\include\c++\6.3.1\cmath ****   inline _GLIBCXX_CONSTEXPR long double
 171:c:\program files (x86)\gnu tools arm embedded\6 2017-q2-update\arm-none-eabi\include\c++\6.3.1\cmath ****   atan2(long double __y, long double __x)
 172:c:\program files (x86)\gnu tools arm embedded\6 2017-q2-update\arm-none-eabi\include\c++\6.3.1\cmath ****   { return __builtin_atan2l(__y, __x); }
 173:c:\program files (x86)\gnu tools arm embedded\6 2017-q2-update\arm-none-eabi\include\c++\6.3.1\cmath **** #endif
 174:c:\program files (x86)\gnu tools arm embedded\6 2017-q2-update\arm-none-eabi\include\c++\6.3.1\cmath **** 
 175:c:\program files (x86)\gnu tools arm embedded\6 2017-q2-update\arm-none-eabi\include\c++\6.3.1\cmath ****   template<typename _Tp, typename _Up>
 176:c:\program files (x86)\gnu tools arm embedded\6 2017-q2-update\arm-none-eabi\include\c++\6.3.1\cmath ****     inline _GLIBCXX_CONSTEXPR
 177:c:\program files (x86)\gnu tools arm embedded\6 2017-q2-update\arm-none-eabi\include\c++\6.3.1\cmath ****     typename __gnu_cxx::__promote_2<_Tp, _Up>::__type
 178:c:\program files (x86)\gnu tools arm embedded\6 2017-q2-update\arm-none-eabi\include\c++\6.3.1\cmath ****     atan2(_Tp __y, _Up __x)
 179:c:\program files (x86)\gnu tools arm embedded\6 2017-q2-update\arm-none-eabi\include\c++\6.3.1\cmath ****     {
 180:c:\program files (x86)\gnu tools arm embedded\6 2017-q2-update\arm-none-eabi\include\c++\6.3.1\cmath ****       typedef typename __gnu_cxx::__promote_2<_Tp, _Up>::__type __type;
 181:c:\program files (x86)\gnu tools arm embedded\6 2017-q2-update\arm-none-eabi\include\c++\6.3.1\cmath ****       return atan2(__type(__y), __type(__x));
 182:c:\program files (x86)\gnu tools arm embedded\6 2017-q2-update\arm-none-eabi\include\c++\6.3.1\cmath ****     }
 183:c:\program files (x86)\gnu tools arm embedded\6 2017-q2-update\arm-none-eabi\include\c++\6.3.1\cmath **** 
 184:c:\program files (x86)\gnu tools arm embedded\6 2017-q2-update\arm-none-eabi\include\c++\6.3.1\cmath ****   using ::ceil;
 185:c:\program files (x86)\gnu tools arm embedded\6 2017-q2-update\arm-none-eabi\include\c++\6.3.1\cmath **** 
 186:c:\program files (x86)\gnu tools arm embedded\6 2017-q2-update\arm-none-eabi\include\c++\6.3.1\cmath **** #ifndef __CORRECT_ISO_CPP_MATH_H_PROTO
 187:c:\program files (x86)\gnu tools arm embedded\6 2017-q2-update\arm-none-eabi\include\c++\6.3.1\cmath ****   inline _GLIBCXX_CONSTEXPR float
 188:c:\program files (x86)\gnu tools arm embedded\6 2017-q2-update\arm-none-eabi\include\c++\6.3.1\cmath ****   ceil(float __x)
 189:c:\program files (x86)\gnu tools arm embedded\6 2017-q2-update\arm-none-eabi\include\c++\6.3.1\cmath ****   { return __builtin_ceilf(__x); }
 190:c:\program files (x86)\gnu tools arm embedded\6 2017-q2-update\arm-none-eabi\include\c++\6.3.1\cmath **** 
 191:c:\program files (x86)\gnu tools arm embedded\6 2017-q2-update\arm-none-eabi\include\c++\6.3.1\cmath ****   inline _GLIBCXX_CONSTEXPR long double
 192:c:\program files (x86)\gnu tools arm embedded\6 2017-q2-update\arm-none-eabi\include\c++\6.3.1\cmath ****   ceil(long double __x)
 193:c:\program files (x86)\gnu tools arm embedded\6 2017-q2-update\arm-none-eabi\include\c++\6.3.1\cmath ****   { return __builtin_ceill(__x); }
 194:c:\program files (x86)\gnu tools arm embedded\6 2017-q2-update\arm-none-eabi\include\c++\6.3.1\cmath **** #endif
 195:c:\program files (x86)\gnu tools arm embedded\6 2017-q2-update\arm-none-eabi\include\c++\6.3.1\cmath **** 
 196:c:\program files (x86)\gnu tools arm embedded\6 2017-q2-update\arm-none-eabi\include\c++\6.3.1\cmath ****   template<typename _Tp>
 197:c:\program files (x86)\gnu tools arm embedded\6 2017-q2-update\arm-none-eabi\include\c++\6.3.1\cmath ****     inline _GLIBCXX_CONSTEXPR
 198:c:\program files (x86)\gnu tools arm embedded\6 2017-q2-update\arm-none-eabi\include\c++\6.3.1\cmath ****     typename __gnu_cxx::__enable_if<__is_integer<_Tp>::__value, 
 199:c:\program files (x86)\gnu tools arm embedded\6 2017-q2-update\arm-none-eabi\include\c++\6.3.1\cmath ****                                     double>::__type
 200:c:\program files (x86)\gnu tools arm embedded\6 2017-q2-update\arm-none-eabi\include\c++\6.3.1\cmath ****     ceil(_Tp __x)
 201:c:\program files (x86)\gnu tools arm embedded\6 2017-q2-update\arm-none-eabi\include\c++\6.3.1\cmath ****     { return __builtin_ceil(__x); }
 202:c:\program files (x86)\gnu tools arm embedded\6 2017-q2-update\arm-none-eabi\include\c++\6.3.1\cmath **** 
 203:c:\program files (x86)\gnu tools arm embedded\6 2017-q2-update\arm-none-eabi\include\c++\6.3.1\cmath ****   using ::cos;
 204:c:\program files (x86)\gnu tools arm embedded\6 2017-q2-update\arm-none-eabi\include\c++\6.3.1\cmath **** 
 205:c:\program files (x86)\gnu tools arm embedded\6 2017-q2-update\arm-none-eabi\include\c++\6.3.1\cmath **** #ifndef __CORRECT_ISO_CPP_MATH_H_PROTO
 206:c:\program files (x86)\gnu tools arm embedded\6 2017-q2-update\arm-none-eabi\include\c++\6.3.1\cmath ****   inline _GLIBCXX_CONSTEXPR float
 207:c:\program files (x86)\gnu tools arm embedded\6 2017-q2-update\arm-none-eabi\include\c++\6.3.1\cmath ****   cos(float __x)
 208:c:\program files (x86)\gnu tools arm embedded\6 2017-q2-update\arm-none-eabi\include\c++\6.3.1\cmath ****   { return __builtin_cosf(__x); }
 209:c:\program files (x86)\gnu tools arm embedded\6 2017-q2-update\arm-none-eabi\include\c++\6.3.1\cmath **** 
 210:c:\program files (x86)\gnu tools arm embedded\6 2017-q2-update\arm-none-eabi\include\c++\6.3.1\cmath ****   inline _GLIBCXX_CONSTEXPR long double
 211:c:\program files (x86)\gnu tools arm embedded\6 2017-q2-update\arm-none-eabi\include\c++\6.3.1\cmath ****   cos(long double __x)
 212:c:\program files (x86)\gnu tools arm embedded\6 2017-q2-update\arm-none-eabi\include\c++\6.3.1\cmath ****   { return __builtin_cosl(__x); }
 213:c:\program files (x86)\gnu tools arm embedded\6 2017-q2-update\arm-none-eabi\include\c++\6.3.1\cmath **** #endif
 214:c:\program files (x86)\gnu tools arm embedded\6 2017-q2-update\arm-none-eabi\include\c++\6.3.1\cmath **** 
 215:c:\program files (x86)\gnu tools arm embedded\6 2017-q2-update\arm-none-eabi\include\c++\6.3.1\cmath ****   template<typename _Tp>
 216:c:\program files (x86)\gnu tools arm embedded\6 2017-q2-update\arm-none-eabi\include\c++\6.3.1\cmath ****     inline _GLIBCXX_CONSTEXPR
 217:c:\program files (x86)\gnu tools arm embedded\6 2017-q2-update\arm-none-eabi\include\c++\6.3.1\cmath ****     typename __gnu_cxx::__enable_if<__is_integer<_Tp>::__value,
 218:c:\program files (x86)\gnu tools arm embedded\6 2017-q2-update\arm-none-eabi\include\c++\6.3.1\cmath ****                                     double>::__type
 219:c:\program files (x86)\gnu tools arm embedded\6 2017-q2-update\arm-none-eabi\include\c++\6.3.1\cmath ****     cos(_Tp __x)
 220:c:\program files (x86)\gnu tools arm embedded\6 2017-q2-update\arm-none-eabi\include\c++\6.3.1\cmath ****     { return __builtin_cos(__x); }
 221:c:\program files (x86)\gnu tools arm embedded\6 2017-q2-update\arm-none-eabi\include\c++\6.3.1\cmath **** 
 222:c:\program files (x86)\gnu tools arm embedded\6 2017-q2-update\arm-none-eabi\include\c++\6.3.1\cmath ****   using ::cosh;
 223:c:\program files (x86)\gnu tools arm embedded\6 2017-q2-update\arm-none-eabi\include\c++\6.3.1\cmath **** 
 224:c:\program files (x86)\gnu tools arm embedded\6 2017-q2-update\arm-none-eabi\include\c++\6.3.1\cmath **** #ifndef __CORRECT_ISO_CPP_MATH_H_PROTO
 225:c:\program files (x86)\gnu tools arm embedded\6 2017-q2-update\arm-none-eabi\include\c++\6.3.1\cmath ****   inline _GLIBCXX_CONSTEXPR float
 226:c:\program files (x86)\gnu tools arm embedded\6 2017-q2-update\arm-none-eabi\include\c++\6.3.1\cmath ****   cosh(float __x)
 227:c:\program files (x86)\gnu tools arm embedded\6 2017-q2-update\arm-none-eabi\include\c++\6.3.1\cmath ****   { return __builtin_coshf(__x); }
 228:c:\program files (x86)\gnu tools arm embedded\6 2017-q2-update\arm-none-eabi\include\c++\6.3.1\cmath **** 
 229:c:\program files (x86)\gnu tools arm embedded\6 2017-q2-update\arm-none-eabi\include\c++\6.3.1\cmath ****   inline _GLIBCXX_CONSTEXPR long double
 230:c:\program files (x86)\gnu tools arm embedded\6 2017-q2-update\arm-none-eabi\include\c++\6.3.1\cmath ****   cosh(long double __x)
 231:c:\program files (x86)\gnu tools arm embedded\6 2017-q2-update\arm-none-eabi\include\c++\6.3.1\cmath ****   { return __builtin_coshl(__x); }
 232:c:\program files (x86)\gnu tools arm embedded\6 2017-q2-update\arm-none-eabi\include\c++\6.3.1\cmath **** #endif
 233:c:\program files (x86)\gnu tools arm embedded\6 2017-q2-update\arm-none-eabi\include\c++\6.3.1\cmath **** 
 234:c:\program files (x86)\gnu tools arm embedded\6 2017-q2-update\arm-none-eabi\include\c++\6.3.1\cmath ****   template<typename _Tp>
 235:c:\program files (x86)\gnu tools arm embedded\6 2017-q2-update\arm-none-eabi\include\c++\6.3.1\cmath ****     inline _GLIBCXX_CONSTEXPR
 236:c:\program files (x86)\gnu tools arm embedded\6 2017-q2-update\arm-none-eabi\include\c++\6.3.1\cmath ****     typename __gnu_cxx::__enable_if<__is_integer<_Tp>::__value,
 237:c:\program files (x86)\gnu tools arm embedded\6 2017-q2-update\arm-none-eabi\include\c++\6.3.1\cmath ****                                     double>::__type
 238:c:\program files (x86)\gnu tools arm embedded\6 2017-q2-update\arm-none-eabi\include\c++\6.3.1\cmath ****     cosh(_Tp __x)
 239:c:\program files (x86)\gnu tools arm embedded\6 2017-q2-update\arm-none-eabi\include\c++\6.3.1\cmath ****     { return __builtin_cosh(__x); }
 240:c:\program files (x86)\gnu tools arm embedded\6 2017-q2-update\arm-none-eabi\include\c++\6.3.1\cmath **** 
 241:c:\program files (x86)\gnu tools arm embedded\6 2017-q2-update\arm-none-eabi\include\c++\6.3.1\cmath ****   using ::exp;
 242:c:\program files (x86)\gnu tools arm embedded\6 2017-q2-update\arm-none-eabi\include\c++\6.3.1\cmath **** 
 243:c:\program files (x86)\gnu tools arm embedded\6 2017-q2-update\arm-none-eabi\include\c++\6.3.1\cmath **** #ifndef __CORRECT_ISO_CPP_MATH_H_PROTO
 244:c:\program files (x86)\gnu tools arm embedded\6 2017-q2-update\arm-none-eabi\include\c++\6.3.1\cmath ****   inline _GLIBCXX_CONSTEXPR float
 245:c:\program files (x86)\gnu tools arm embedded\6 2017-q2-update\arm-none-eabi\include\c++\6.3.1\cmath ****   exp(float __x)
 246:c:\program files (x86)\gnu tools arm embedded\6 2017-q2-update\arm-none-eabi\include\c++\6.3.1\cmath ****   { return __builtin_expf(__x); }
 247:c:\program files (x86)\gnu tools arm embedded\6 2017-q2-update\arm-none-eabi\include\c++\6.3.1\cmath **** 
 248:c:\program files (x86)\gnu tools arm embedded\6 2017-q2-update\arm-none-eabi\include\c++\6.3.1\cmath ****   inline _GLIBCXX_CONSTEXPR long double
 249:c:\program files (x86)\gnu tools arm embedded\6 2017-q2-update\arm-none-eabi\include\c++\6.3.1\cmath ****   exp(long double __x)
 250:c:\program files (x86)\gnu tools arm embedded\6 2017-q2-update\arm-none-eabi\include\c++\6.3.1\cmath ****   { return __builtin_expl(__x); }
 251:c:\program files (x86)\gnu tools arm embedded\6 2017-q2-update\arm-none-eabi\include\c++\6.3.1\cmath **** #endif
 252:c:\program files (x86)\gnu tools arm embedded\6 2017-q2-update\arm-none-eabi\include\c++\6.3.1\cmath **** 
 253:c:\program files (x86)\gnu tools arm embedded\6 2017-q2-update\arm-none-eabi\include\c++\6.3.1\cmath ****   template<typename _Tp>
 254:c:\program files (x86)\gnu tools arm embedded\6 2017-q2-update\arm-none-eabi\include\c++\6.3.1\cmath ****     inline _GLIBCXX_CONSTEXPR
 255:c:\program files (x86)\gnu tools arm embedded\6 2017-q2-update\arm-none-eabi\include\c++\6.3.1\cmath ****     typename __gnu_cxx::__enable_if<__is_integer<_Tp>::__value,
 256:c:\program files (x86)\gnu tools arm embedded\6 2017-q2-update\arm-none-eabi\include\c++\6.3.1\cmath ****                                     double>::__type
 257:c:\program files (x86)\gnu tools arm embedded\6 2017-q2-update\arm-none-eabi\include\c++\6.3.1\cmath ****     exp(_Tp __x)
 258:c:\program files (x86)\gnu tools arm embedded\6 2017-q2-update\arm-none-eabi\include\c++\6.3.1\cmath ****     { return __builtin_exp(__x); }
 259:c:\program files (x86)\gnu tools arm embedded\6 2017-q2-update\arm-none-eabi\include\c++\6.3.1\cmath **** 
 260:c:\program files (x86)\gnu tools arm embedded\6 2017-q2-update\arm-none-eabi\include\c++\6.3.1\cmath ****   using ::fabs;
 261:c:\program files (x86)\gnu tools arm embedded\6 2017-q2-update\arm-none-eabi\include\c++\6.3.1\cmath **** 
 262:c:\program files (x86)\gnu tools arm embedded\6 2017-q2-update\arm-none-eabi\include\c++\6.3.1\cmath **** #ifndef __CORRECT_ISO_CPP_MATH_H_PROTO
 263:c:\program files (x86)\gnu tools arm embedded\6 2017-q2-update\arm-none-eabi\include\c++\6.3.1\cmath ****   inline _GLIBCXX_CONSTEXPR float
 264:c:\program files (x86)\gnu tools arm embedded\6 2017-q2-update\arm-none-eabi\include\c++\6.3.1\cmath ****   fabs(float __x)
 265:c:\program files (x86)\gnu tools arm embedded\6 2017-q2-update\arm-none-eabi\include\c++\6.3.1\cmath ****   { return __builtin_fabsf(__x); }
 266:c:\program files (x86)\gnu tools arm embedded\6 2017-q2-update\arm-none-eabi\include\c++\6.3.1\cmath **** 
 267:c:\program files (x86)\gnu tools arm embedded\6 2017-q2-update\arm-none-eabi\include\c++\6.3.1\cmath ****   inline _GLIBCXX_CONSTEXPR long double
 268:c:\program files (x86)\gnu tools arm embedded\6 2017-q2-update\arm-none-eabi\include\c++\6.3.1\cmath ****   fabs(long double __x)
 269:c:\program files (x86)\gnu tools arm embedded\6 2017-q2-update\arm-none-eabi\include\c++\6.3.1\cmath ****   { return __builtin_fabsl(__x); }
 270:c:\program files (x86)\gnu tools arm embedded\6 2017-q2-update\arm-none-eabi\include\c++\6.3.1\cmath **** #endif
 271:c:\program files (x86)\gnu tools arm embedded\6 2017-q2-update\arm-none-eabi\include\c++\6.3.1\cmath **** 
 272:c:\program files (x86)\gnu tools arm embedded\6 2017-q2-update\arm-none-eabi\include\c++\6.3.1\cmath ****   template<typename _Tp>
 273:c:\program files (x86)\gnu tools arm embedded\6 2017-q2-update\arm-none-eabi\include\c++\6.3.1\cmath ****     inline _GLIBCXX_CONSTEXPR
 274:c:\program files (x86)\gnu tools arm embedded\6 2017-q2-update\arm-none-eabi\include\c++\6.3.1\cmath ****     typename __gnu_cxx::__enable_if<__is_integer<_Tp>::__value,
 275:c:\program files (x86)\gnu tools arm embedded\6 2017-q2-update\arm-none-eabi\include\c++\6.3.1\cmath ****                                     double>::__type
 276:c:\program files (x86)\gnu tools arm embedded\6 2017-q2-update\arm-none-eabi\include\c++\6.3.1\cmath ****     fabs(_Tp __x)
 277:c:\program files (x86)\gnu tools arm embedded\6 2017-q2-update\arm-none-eabi\include\c++\6.3.1\cmath ****     { return __builtin_fabs(__x); }
 278:c:\program files (x86)\gnu tools arm embedded\6 2017-q2-update\arm-none-eabi\include\c++\6.3.1\cmath **** 
 279:c:\program files (x86)\gnu tools arm embedded\6 2017-q2-update\arm-none-eabi\include\c++\6.3.1\cmath ****   using ::floor;
 280:c:\program files (x86)\gnu tools arm embedded\6 2017-q2-update\arm-none-eabi\include\c++\6.3.1\cmath **** 
 281:c:\program files (x86)\gnu tools arm embedded\6 2017-q2-update\arm-none-eabi\include\c++\6.3.1\cmath **** #ifndef __CORRECT_ISO_CPP_MATH_H_PROTO
 282:c:\program files (x86)\gnu tools arm embedded\6 2017-q2-update\arm-none-eabi\include\c++\6.3.1\cmath ****   inline _GLIBCXX_CONSTEXPR float
 283:c:\program files (x86)\gnu tools arm embedded\6 2017-q2-update\arm-none-eabi\include\c++\6.3.1\cmath ****   floor(float __x)
 284:c:\program files (x86)\gnu tools arm embedded\6 2017-q2-update\arm-none-eabi\include\c++\6.3.1\cmath ****   { return __builtin_floorf(__x); }
 285:c:\program files (x86)\gnu tools arm embedded\6 2017-q2-update\arm-none-eabi\include\c++\6.3.1\cmath **** 
 286:c:\program files (x86)\gnu tools arm embedded\6 2017-q2-update\arm-none-eabi\include\c++\6.3.1\cmath ****   inline _GLIBCXX_CONSTEXPR long double
 287:c:\program files (x86)\gnu tools arm embedded\6 2017-q2-update\arm-none-eabi\include\c++\6.3.1\cmath ****   floor(long double __x)
 288:c:\program files (x86)\gnu tools arm embedded\6 2017-q2-update\arm-none-eabi\include\c++\6.3.1\cmath ****   { return __builtin_floorl(__x); }
 289:c:\program files (x86)\gnu tools arm embedded\6 2017-q2-update\arm-none-eabi\include\c++\6.3.1\cmath **** #endif
 290:c:\program files (x86)\gnu tools arm embedded\6 2017-q2-update\arm-none-eabi\include\c++\6.3.1\cmath **** 
 291:c:\program files (x86)\gnu tools arm embedded\6 2017-q2-update\arm-none-eabi\include\c++\6.3.1\cmath ****   template<typename _Tp>
 292:c:\program files (x86)\gnu tools arm embedded\6 2017-q2-update\arm-none-eabi\include\c++\6.3.1\cmath ****     inline _GLIBCXX_CONSTEXPR
 293:c:\program files (x86)\gnu tools arm embedded\6 2017-q2-update\arm-none-eabi\include\c++\6.3.1\cmath ****     typename __gnu_cxx::__enable_if<__is_integer<_Tp>::__value,
 294:c:\program files (x86)\gnu tools arm embedded\6 2017-q2-update\arm-none-eabi\include\c++\6.3.1\cmath ****                                     double>::__type
 295:c:\program files (x86)\gnu tools arm embedded\6 2017-q2-update\arm-none-eabi\include\c++\6.3.1\cmath ****     floor(_Tp __x)
 296:c:\program files (x86)\gnu tools arm embedded\6 2017-q2-update\arm-none-eabi\include\c++\6.3.1\cmath ****     { return __builtin_floor(__x); }
 297:c:\program files (x86)\gnu tools arm embedded\6 2017-q2-update\arm-none-eabi\include\c++\6.3.1\cmath **** 
 298:c:\program files (x86)\gnu tools arm embedded\6 2017-q2-update\arm-none-eabi\include\c++\6.3.1\cmath ****   using ::fmod;
 299:c:\program files (x86)\gnu tools arm embedded\6 2017-q2-update\arm-none-eabi\include\c++\6.3.1\cmath **** 
 300:c:\program files (x86)\gnu tools arm embedded\6 2017-q2-update\arm-none-eabi\include\c++\6.3.1\cmath **** #ifndef __CORRECT_ISO_CPP_MATH_H_PROTO
 301:c:\program files (x86)\gnu tools arm embedded\6 2017-q2-update\arm-none-eabi\include\c++\6.3.1\cmath ****   inline _GLIBCXX_CONSTEXPR float
 302:c:\program files (x86)\gnu tools arm embedded\6 2017-q2-update\arm-none-eabi\include\c++\6.3.1\cmath ****   fmod(float __x, float __y)
 303:c:\program files (x86)\gnu tools arm embedded\6 2017-q2-update\arm-none-eabi\include\c++\6.3.1\cmath ****   { return __builtin_fmodf(__x, __y); }
 304:c:\program files (x86)\gnu tools arm embedded\6 2017-q2-update\arm-none-eabi\include\c++\6.3.1\cmath **** 
 305:c:\program files (x86)\gnu tools arm embedded\6 2017-q2-update\arm-none-eabi\include\c++\6.3.1\cmath ****   inline _GLIBCXX_CONSTEXPR long double
 306:c:\program files (x86)\gnu tools arm embedded\6 2017-q2-update\arm-none-eabi\include\c++\6.3.1\cmath ****   fmod(long double __x, long double __y)
 307:c:\program files (x86)\gnu tools arm embedded\6 2017-q2-update\arm-none-eabi\include\c++\6.3.1\cmath ****   { return __builtin_fmodl(__x, __y); }
 308:c:\program files (x86)\gnu tools arm embedded\6 2017-q2-update\arm-none-eabi\include\c++\6.3.1\cmath **** #endif
 309:c:\program files (x86)\gnu tools arm embedded\6 2017-q2-update\arm-none-eabi\include\c++\6.3.1\cmath **** 
 310:c:\program files (x86)\gnu tools arm embedded\6 2017-q2-update\arm-none-eabi\include\c++\6.3.1\cmath ****   template<typename _Tp, typename _Up>
 311:c:\program files (x86)\gnu tools arm embedded\6 2017-q2-update\arm-none-eabi\include\c++\6.3.1\cmath ****     inline _GLIBCXX_CONSTEXPR
 312:c:\program files (x86)\gnu tools arm embedded\6 2017-q2-update\arm-none-eabi\include\c++\6.3.1\cmath ****     typename __gnu_cxx::__promote_2<_Tp, _Up>::__type
 313:c:\program files (x86)\gnu tools arm embedded\6 2017-q2-update\arm-none-eabi\include\c++\6.3.1\cmath ****     fmod(_Tp __x, _Up __y)
 314:c:\program files (x86)\gnu tools arm embedded\6 2017-q2-update\arm-none-eabi\include\c++\6.3.1\cmath ****     {
 315:c:\program files (x86)\gnu tools arm embedded\6 2017-q2-update\arm-none-eabi\include\c++\6.3.1\cmath ****       typedef typename __gnu_cxx::__promote_2<_Tp, _Up>::__type __type;
 316:c:\program files (x86)\gnu tools arm embedded\6 2017-q2-update\arm-none-eabi\include\c++\6.3.1\cmath ****       return fmod(__type(__x), __type(__y));
 317:c:\program files (x86)\gnu tools arm embedded\6 2017-q2-update\arm-none-eabi\include\c++\6.3.1\cmath ****     }
 318:c:\program files (x86)\gnu tools arm embedded\6 2017-q2-update\arm-none-eabi\include\c++\6.3.1\cmath **** 
 319:c:\program files (x86)\gnu tools arm embedded\6 2017-q2-update\arm-none-eabi\include\c++\6.3.1\cmath ****   using ::frexp;
 320:c:\program files (x86)\gnu tools arm embedded\6 2017-q2-update\arm-none-eabi\include\c++\6.3.1\cmath **** 
 321:c:\program files (x86)\gnu tools arm embedded\6 2017-q2-update\arm-none-eabi\include\c++\6.3.1\cmath **** #ifndef __CORRECT_ISO_CPP_MATH_H_PROTO
 322:c:\program files (x86)\gnu tools arm embedded\6 2017-q2-update\arm-none-eabi\include\c++\6.3.1\cmath ****   inline float
 323:c:\program files (x86)\gnu tools arm embedded\6 2017-q2-update\arm-none-eabi\include\c++\6.3.1\cmath ****   frexp(float __x, int* __exp)
 324:c:\program files (x86)\gnu tools arm embedded\6 2017-q2-update\arm-none-eabi\include\c++\6.3.1\cmath ****   { return __builtin_frexpf(__x, __exp); }
 325:c:\program files (x86)\gnu tools arm embedded\6 2017-q2-update\arm-none-eabi\include\c++\6.3.1\cmath **** 
 326:c:\program files (x86)\gnu tools arm embedded\6 2017-q2-update\arm-none-eabi\include\c++\6.3.1\cmath ****   inline long double
 327:c:\program files (x86)\gnu tools arm embedded\6 2017-q2-update\arm-none-eabi\include\c++\6.3.1\cmath ****   frexp(long double __x, int* __exp)
 328:c:\program files (x86)\gnu tools arm embedded\6 2017-q2-update\arm-none-eabi\include\c++\6.3.1\cmath ****   { return __builtin_frexpl(__x, __exp); }
 329:c:\program files (x86)\gnu tools arm embedded\6 2017-q2-update\arm-none-eabi\include\c++\6.3.1\cmath **** #endif
 330:c:\program files (x86)\gnu tools arm embedded\6 2017-q2-update\arm-none-eabi\include\c++\6.3.1\cmath **** 
 331:c:\program files (x86)\gnu tools arm embedded\6 2017-q2-update\arm-none-eabi\include\c++\6.3.1\cmath ****   template<typename _Tp>
 332:c:\program files (x86)\gnu tools arm embedded\6 2017-q2-update\arm-none-eabi\include\c++\6.3.1\cmath ****     inline _GLIBCXX_CONSTEXPR
 333:c:\program files (x86)\gnu tools arm embedded\6 2017-q2-update\arm-none-eabi\include\c++\6.3.1\cmath ****     typename __gnu_cxx::__enable_if<__is_integer<_Tp>::__value, 
 334:c:\program files (x86)\gnu tools arm embedded\6 2017-q2-update\arm-none-eabi\include\c++\6.3.1\cmath ****                                     double>::__type
 335:c:\program files (x86)\gnu tools arm embedded\6 2017-q2-update\arm-none-eabi\include\c++\6.3.1\cmath ****     frexp(_Tp __x, int* __exp)
 336:c:\program files (x86)\gnu tools arm embedded\6 2017-q2-update\arm-none-eabi\include\c++\6.3.1\cmath ****     { return __builtin_frexp(__x, __exp); }
 337:c:\program files (x86)\gnu tools arm embedded\6 2017-q2-update\arm-none-eabi\include\c++\6.3.1\cmath **** 
 338:c:\program files (x86)\gnu tools arm embedded\6 2017-q2-update\arm-none-eabi\include\c++\6.3.1\cmath ****   using ::ldexp;
 339:c:\program files (x86)\gnu tools arm embedded\6 2017-q2-update\arm-none-eabi\include\c++\6.3.1\cmath **** 
 340:c:\program files (x86)\gnu tools arm embedded\6 2017-q2-update\arm-none-eabi\include\c++\6.3.1\cmath **** #ifndef __CORRECT_ISO_CPP_MATH_H_PROTO
 341:c:\program files (x86)\gnu tools arm embedded\6 2017-q2-update\arm-none-eabi\include\c++\6.3.1\cmath ****   inline _GLIBCXX_CONSTEXPR float
 342:c:\program files (x86)\gnu tools arm embedded\6 2017-q2-update\arm-none-eabi\include\c++\6.3.1\cmath ****   ldexp(float __x, int __exp)
 343:c:\program files (x86)\gnu tools arm embedded\6 2017-q2-update\arm-none-eabi\include\c++\6.3.1\cmath ****   { return __builtin_ldexpf(__x, __exp); }
 344:c:\program files (x86)\gnu tools arm embedded\6 2017-q2-update\arm-none-eabi\include\c++\6.3.1\cmath **** 
 345:c:\program files (x86)\gnu tools arm embedded\6 2017-q2-update\arm-none-eabi\include\c++\6.3.1\cmath ****   inline _GLIBCXX_CONSTEXPR long double
 346:c:\program files (x86)\gnu tools arm embedded\6 2017-q2-update\arm-none-eabi\include\c++\6.3.1\cmath ****   ldexp(long double __x, int __exp)
 347:c:\program files (x86)\gnu tools arm embedded\6 2017-q2-update\arm-none-eabi\include\c++\6.3.1\cmath ****   { return __builtin_ldexpl(__x, __exp); }
 348:c:\program files (x86)\gnu tools arm embedded\6 2017-q2-update\arm-none-eabi\include\c++\6.3.1\cmath **** #endif
 349:c:\program files (x86)\gnu tools arm embedded\6 2017-q2-update\arm-none-eabi\include\c++\6.3.1\cmath **** 
 350:c:\program files (x86)\gnu tools arm embedded\6 2017-q2-update\arm-none-eabi\include\c++\6.3.1\cmath ****   template<typename _Tp>
 351:c:\program files (x86)\gnu tools arm embedded\6 2017-q2-update\arm-none-eabi\include\c++\6.3.1\cmath ****     inline _GLIBCXX_CONSTEXPR
 352:c:\program files (x86)\gnu tools arm embedded\6 2017-q2-update\arm-none-eabi\include\c++\6.3.1\cmath ****     typename __gnu_cxx::__enable_if<__is_integer<_Tp>::__value, 
 353:c:\program files (x86)\gnu tools arm embedded\6 2017-q2-update\arm-none-eabi\include\c++\6.3.1\cmath ****                                     double>::__type
 354:c:\program files (x86)\gnu tools arm embedded\6 2017-q2-update\arm-none-eabi\include\c++\6.3.1\cmath ****     ldexp(_Tp __x, int __exp)
 355:c:\program files (x86)\gnu tools arm embedded\6 2017-q2-update\arm-none-eabi\include\c++\6.3.1\cmath ****     { return __builtin_ldexp(__x, __exp); }
 356:c:\program files (x86)\gnu tools arm embedded\6 2017-q2-update\arm-none-eabi\include\c++\6.3.1\cmath **** 
 357:c:\program files (x86)\gnu tools arm embedded\6 2017-q2-update\arm-none-eabi\include\c++\6.3.1\cmath ****   using ::log;
 358:c:\program files (x86)\gnu tools arm embedded\6 2017-q2-update\arm-none-eabi\include\c++\6.3.1\cmath **** 
 359:c:\program files (x86)\gnu tools arm embedded\6 2017-q2-update\arm-none-eabi\include\c++\6.3.1\cmath **** #ifndef __CORRECT_ISO_CPP_MATH_H_PROTO
 360:c:\program files (x86)\gnu tools arm embedded\6 2017-q2-update\arm-none-eabi\include\c++\6.3.1\cmath ****   inline _GLIBCXX_CONSTEXPR float
 361:c:\program files (x86)\gnu tools arm embedded\6 2017-q2-update\arm-none-eabi\include\c++\6.3.1\cmath ****   log(float __x)
 362:c:\program files (x86)\gnu tools arm embedded\6 2017-q2-update\arm-none-eabi\include\c++\6.3.1\cmath ****   { return __builtin_logf(__x); }
 363:c:\program files (x86)\gnu tools arm embedded\6 2017-q2-update\arm-none-eabi\include\c++\6.3.1\cmath **** 
 364:c:\program files (x86)\gnu tools arm embedded\6 2017-q2-update\arm-none-eabi\include\c++\6.3.1\cmath ****   inline _GLIBCXX_CONSTEXPR long double
 365:c:\program files (x86)\gnu tools arm embedded\6 2017-q2-update\arm-none-eabi\include\c++\6.3.1\cmath ****   log(long double __x)
 366:c:\program files (x86)\gnu tools arm embedded\6 2017-q2-update\arm-none-eabi\include\c++\6.3.1\cmath ****   { return __builtin_logl(__x); }
 367:c:\program files (x86)\gnu tools arm embedded\6 2017-q2-update\arm-none-eabi\include\c++\6.3.1\cmath **** #endif
 368:c:\program files (x86)\gnu tools arm embedded\6 2017-q2-update\arm-none-eabi\include\c++\6.3.1\cmath **** 
 369:c:\program files (x86)\gnu tools arm embedded\6 2017-q2-update\arm-none-eabi\include\c++\6.3.1\cmath ****   template<typename _Tp>
 370:c:\program files (x86)\gnu tools arm embedded\6 2017-q2-update\arm-none-eabi\include\c++\6.3.1\cmath ****     inline _GLIBCXX_CONSTEXPR
 371:c:\program files (x86)\gnu tools arm embedded\6 2017-q2-update\arm-none-eabi\include\c++\6.3.1\cmath ****     typename __gnu_cxx::__enable_if<__is_integer<_Tp>::__value, 
 372:c:\program files (x86)\gnu tools arm embedded\6 2017-q2-update\arm-none-eabi\include\c++\6.3.1\cmath ****                                     double>::__type
 373:c:\program files (x86)\gnu tools arm embedded\6 2017-q2-update\arm-none-eabi\include\c++\6.3.1\cmath ****     log(_Tp __x)
 374:c:\program files (x86)\gnu tools arm embedded\6 2017-q2-update\arm-none-eabi\include\c++\6.3.1\cmath ****     { return __builtin_log(__x); }
 375:c:\program files (x86)\gnu tools arm embedded\6 2017-q2-update\arm-none-eabi\include\c++\6.3.1\cmath **** 
 376:c:\program files (x86)\gnu tools arm embedded\6 2017-q2-update\arm-none-eabi\include\c++\6.3.1\cmath ****   using ::log10;
 377:c:\program files (x86)\gnu tools arm embedded\6 2017-q2-update\arm-none-eabi\include\c++\6.3.1\cmath **** 
 378:c:\program files (x86)\gnu tools arm embedded\6 2017-q2-update\arm-none-eabi\include\c++\6.3.1\cmath **** #ifndef __CORRECT_ISO_CPP_MATH_H_PROTO
 379:c:\program files (x86)\gnu tools arm embedded\6 2017-q2-update\arm-none-eabi\include\c++\6.3.1\cmath ****   inline _GLIBCXX_CONSTEXPR float
 380:c:\program files (x86)\gnu tools arm embedded\6 2017-q2-update\arm-none-eabi\include\c++\6.3.1\cmath ****   log10(float __x)
 381:c:\program files (x86)\gnu tools arm embedded\6 2017-q2-update\arm-none-eabi\include\c++\6.3.1\cmath ****   { return __builtin_log10f(__x); }
 382:c:\program files (x86)\gnu tools arm embedded\6 2017-q2-update\arm-none-eabi\include\c++\6.3.1\cmath **** 
 383:c:\program files (x86)\gnu tools arm embedded\6 2017-q2-update\arm-none-eabi\include\c++\6.3.1\cmath ****   inline _GLIBCXX_CONSTEXPR long double
 384:c:\program files (x86)\gnu tools arm embedded\6 2017-q2-update\arm-none-eabi\include\c++\6.3.1\cmath ****   log10(long double __x)
 385:c:\program files (x86)\gnu tools arm embedded\6 2017-q2-update\arm-none-eabi\include\c++\6.3.1\cmath ****   { return __builtin_log10l(__x); }
 386:c:\program files (x86)\gnu tools arm embedded\6 2017-q2-update\arm-none-eabi\include\c++\6.3.1\cmath **** #endif
 387:c:\program files (x86)\gnu tools arm embedded\6 2017-q2-update\arm-none-eabi\include\c++\6.3.1\cmath **** 
 388:c:\program files (x86)\gnu tools arm embedded\6 2017-q2-update\arm-none-eabi\include\c++\6.3.1\cmath ****   template<typename _Tp>
 389:c:\program files (x86)\gnu tools arm embedded\6 2017-q2-update\arm-none-eabi\include\c++\6.3.1\cmath ****     inline _GLIBCXX_CONSTEXPR
 390:c:\program files (x86)\gnu tools arm embedded\6 2017-q2-update\arm-none-eabi\include\c++\6.3.1\cmath ****     typename __gnu_cxx::__enable_if<__is_integer<_Tp>::__value,
 391:c:\program files (x86)\gnu tools arm embedded\6 2017-q2-update\arm-none-eabi\include\c++\6.3.1\cmath ****                                     double>::__type
 392:c:\program files (x86)\gnu tools arm embedded\6 2017-q2-update\arm-none-eabi\include\c++\6.3.1\cmath ****     log10(_Tp __x)
 393:c:\program files (x86)\gnu tools arm embedded\6 2017-q2-update\arm-none-eabi\include\c++\6.3.1\cmath ****     { return __builtin_log10(__x); }
 394:c:\program files (x86)\gnu tools arm embedded\6 2017-q2-update\arm-none-eabi\include\c++\6.3.1\cmath **** 
 395:c:\program files (x86)\gnu tools arm embedded\6 2017-q2-update\arm-none-eabi\include\c++\6.3.1\cmath ****   using ::modf;
 396:c:\program files (x86)\gnu tools arm embedded\6 2017-q2-update\arm-none-eabi\include\c++\6.3.1\cmath **** 
 397:c:\program files (x86)\gnu tools arm embedded\6 2017-q2-update\arm-none-eabi\include\c++\6.3.1\cmath **** #ifndef __CORRECT_ISO_CPP_MATH_H_PROTO
 398:c:\program files (x86)\gnu tools arm embedded\6 2017-q2-update\arm-none-eabi\include\c++\6.3.1\cmath ****   inline float
 399:c:\program files (x86)\gnu tools arm embedded\6 2017-q2-update\arm-none-eabi\include\c++\6.3.1\cmath ****   modf(float __x, float* __iptr)
 400:c:\program files (x86)\gnu tools arm embedded\6 2017-q2-update\arm-none-eabi\include\c++\6.3.1\cmath ****   { return __builtin_modff(__x, __iptr); }
 401:c:\program files (x86)\gnu tools arm embedded\6 2017-q2-update\arm-none-eabi\include\c++\6.3.1\cmath **** 
 402:c:\program files (x86)\gnu tools arm embedded\6 2017-q2-update\arm-none-eabi\include\c++\6.3.1\cmath ****   inline long double
 403:c:\program files (x86)\gnu tools arm embedded\6 2017-q2-update\arm-none-eabi\include\c++\6.3.1\cmath ****   modf(long double __x, long double* __iptr)
 404:c:\program files (x86)\gnu tools arm embedded\6 2017-q2-update\arm-none-eabi\include\c++\6.3.1\cmath ****   { return __builtin_modfl(__x, __iptr); }
 405:c:\program files (x86)\gnu tools arm embedded\6 2017-q2-update\arm-none-eabi\include\c++\6.3.1\cmath **** #endif
 406:c:\program files (x86)\gnu tools arm embedded\6 2017-q2-update\arm-none-eabi\include\c++\6.3.1\cmath **** 
 407:c:\program files (x86)\gnu tools arm embedded\6 2017-q2-update\arm-none-eabi\include\c++\6.3.1\cmath ****   using ::pow;
 408:c:\program files (x86)\gnu tools arm embedded\6 2017-q2-update\arm-none-eabi\include\c++\6.3.1\cmath **** 
 409:c:\program files (x86)\gnu tools arm embedded\6 2017-q2-update\arm-none-eabi\include\c++\6.3.1\cmath **** #ifndef __CORRECT_ISO_CPP_MATH_H_PROTO
 410:c:\program files (x86)\gnu tools arm embedded\6 2017-q2-update\arm-none-eabi\include\c++\6.3.1\cmath ****   inline _GLIBCXX_CONSTEXPR float
 411:c:\program files (x86)\gnu tools arm embedded\6 2017-q2-update\arm-none-eabi\include\c++\6.3.1\cmath ****   pow(float __x, float __y)
 412:c:\program files (x86)\gnu tools arm embedded\6 2017-q2-update\arm-none-eabi\include\c++\6.3.1\cmath ****   { return __builtin_powf(__x, __y); }
 413:c:\program files (x86)\gnu tools arm embedded\6 2017-q2-update\arm-none-eabi\include\c++\6.3.1\cmath **** 
 414:c:\program files (x86)\gnu tools arm embedded\6 2017-q2-update\arm-none-eabi\include\c++\6.3.1\cmath ****   inline _GLIBCXX_CONSTEXPR long double
 415:c:\program files (x86)\gnu tools arm embedded\6 2017-q2-update\arm-none-eabi\include\c++\6.3.1\cmath ****   pow(long double __x, long double __y)
 416:c:\program files (x86)\gnu tools arm embedded\6 2017-q2-update\arm-none-eabi\include\c++\6.3.1\cmath ****   { return __builtin_powl(__x, __y); }
 417:c:\program files (x86)\gnu tools arm embedded\6 2017-q2-update\arm-none-eabi\include\c++\6.3.1\cmath **** 
 418:c:\program files (x86)\gnu tools arm embedded\6 2017-q2-update\arm-none-eabi\include\c++\6.3.1\cmath **** #if __cplusplus < 201103L
 419:c:\program files (x86)\gnu tools arm embedded\6 2017-q2-update\arm-none-eabi\include\c++\6.3.1\cmath ****   // _GLIBCXX_RESOLVE_LIB_DEFECTS
 420:c:\program files (x86)\gnu tools arm embedded\6 2017-q2-update\arm-none-eabi\include\c++\6.3.1\cmath ****   // DR 550. What should the return type of pow(float,int) be?
 421:c:\program files (x86)\gnu tools arm embedded\6 2017-q2-update\arm-none-eabi\include\c++\6.3.1\cmath ****   inline double
 422:c:\program files (x86)\gnu tools arm embedded\6 2017-q2-update\arm-none-eabi\include\c++\6.3.1\cmath ****   pow(double __x, int __i)
 423:c:\program files (x86)\gnu tools arm embedded\6 2017-q2-update\arm-none-eabi\include\c++\6.3.1\cmath ****   { return __builtin_powi(__x, __i); }
 424:c:\program files (x86)\gnu tools arm embedded\6 2017-q2-update\arm-none-eabi\include\c++\6.3.1\cmath **** 
 425:c:\program files (x86)\gnu tools arm embedded\6 2017-q2-update\arm-none-eabi\include\c++\6.3.1\cmath ****   inline float
 426:c:\program files (x86)\gnu tools arm embedded\6 2017-q2-update\arm-none-eabi\include\c++\6.3.1\cmath ****   pow(float __x, int __n)
 427:c:\program files (x86)\gnu tools arm embedded\6 2017-q2-update\arm-none-eabi\include\c++\6.3.1\cmath ****   { return __builtin_powif(__x, __n); }
 428:c:\program files (x86)\gnu tools arm embedded\6 2017-q2-update\arm-none-eabi\include\c++\6.3.1\cmath **** 
 429:c:\program files (x86)\gnu tools arm embedded\6 2017-q2-update\arm-none-eabi\include\c++\6.3.1\cmath ****   inline long double
 430:c:\program files (x86)\gnu tools arm embedded\6 2017-q2-update\arm-none-eabi\include\c++\6.3.1\cmath ****   pow(long double __x, int __n)
 431:c:\program files (x86)\gnu tools arm embedded\6 2017-q2-update\arm-none-eabi\include\c++\6.3.1\cmath ****   { return __builtin_powil(__x, __n); }
 432:c:\program files (x86)\gnu tools arm embedded\6 2017-q2-update\arm-none-eabi\include\c++\6.3.1\cmath **** #endif
 433:c:\program files (x86)\gnu tools arm embedded\6 2017-q2-update\arm-none-eabi\include\c++\6.3.1\cmath **** #endif
 434:c:\program files (x86)\gnu tools arm embedded\6 2017-q2-update\arm-none-eabi\include\c++\6.3.1\cmath **** 
 435:c:\program files (x86)\gnu tools arm embedded\6 2017-q2-update\arm-none-eabi\include\c++\6.3.1\cmath ****   template<typename _Tp, typename _Up>
 436:c:\program files (x86)\gnu tools arm embedded\6 2017-q2-update\arm-none-eabi\include\c++\6.3.1\cmath ****     inline _GLIBCXX_CONSTEXPR
 437:c:\program files (x86)\gnu tools arm embedded\6 2017-q2-update\arm-none-eabi\include\c++\6.3.1\cmath ****     typename __gnu_cxx::__promote_2<_Tp, _Up>::__type
 438:c:\program files (x86)\gnu tools arm embedded\6 2017-q2-update\arm-none-eabi\include\c++\6.3.1\cmath ****     pow(_Tp __x, _Up __y)
 439:c:\program files (x86)\gnu tools arm embedded\6 2017-q2-update\arm-none-eabi\include\c++\6.3.1\cmath ****     {
 440:c:\program files (x86)\gnu tools arm embedded\6 2017-q2-update\arm-none-eabi\include\c++\6.3.1\cmath ****       typedef typename __gnu_cxx::__promote_2<_Tp, _Up>::__type __type;
 441:c:\program files (x86)\gnu tools arm embedded\6 2017-q2-update\arm-none-eabi\include\c++\6.3.1\cmath ****       return pow(__type(__x), __type(__y));
 442:c:\program files (x86)\gnu tools arm embedded\6 2017-q2-update\arm-none-eabi\include\c++\6.3.1\cmath ****     }
 443:c:\program files (x86)\gnu tools arm embedded\6 2017-q2-update\arm-none-eabi\include\c++\6.3.1\cmath **** 
 444:c:\program files (x86)\gnu tools arm embedded\6 2017-q2-update\arm-none-eabi\include\c++\6.3.1\cmath ****   using ::sin;
 445:c:\program files (x86)\gnu tools arm embedded\6 2017-q2-update\arm-none-eabi\include\c++\6.3.1\cmath **** 
 446:c:\program files (x86)\gnu tools arm embedded\6 2017-q2-update\arm-none-eabi\include\c++\6.3.1\cmath **** #ifndef __CORRECT_ISO_CPP_MATH_H_PROTO
 447:c:\program files (x86)\gnu tools arm embedded\6 2017-q2-update\arm-none-eabi\include\c++\6.3.1\cmath ****   inline _GLIBCXX_CONSTEXPR float
 448:c:\program files (x86)\gnu tools arm embedded\6 2017-q2-update\arm-none-eabi\include\c++\6.3.1\cmath ****   sin(float __x)
 449:c:\program files (x86)\gnu tools arm embedded\6 2017-q2-update\arm-none-eabi\include\c++\6.3.1\cmath ****   { return __builtin_sinf(__x); }
 450:c:\program files (x86)\gnu tools arm embedded\6 2017-q2-update\arm-none-eabi\include\c++\6.3.1\cmath **** 
 451:c:\program files (x86)\gnu tools arm embedded\6 2017-q2-update\arm-none-eabi\include\c++\6.3.1\cmath ****   inline _GLIBCXX_CONSTEXPR long double
 452:c:\program files (x86)\gnu tools arm embedded\6 2017-q2-update\arm-none-eabi\include\c++\6.3.1\cmath ****   sin(long double __x)
 453:c:\program files (x86)\gnu tools arm embedded\6 2017-q2-update\arm-none-eabi\include\c++\6.3.1\cmath ****   { return __builtin_sinl(__x); }
 454:c:\program files (x86)\gnu tools arm embedded\6 2017-q2-update\arm-none-eabi\include\c++\6.3.1\cmath **** #endif
 455:c:\program files (x86)\gnu tools arm embedded\6 2017-q2-update\arm-none-eabi\include\c++\6.3.1\cmath **** 
 456:c:\program files (x86)\gnu tools arm embedded\6 2017-q2-update\arm-none-eabi\include\c++\6.3.1\cmath ****   template<typename _Tp>
 457:c:\program files (x86)\gnu tools arm embedded\6 2017-q2-update\arm-none-eabi\include\c++\6.3.1\cmath ****     inline _GLIBCXX_CONSTEXPR
 458:c:\program files (x86)\gnu tools arm embedded\6 2017-q2-update\arm-none-eabi\include\c++\6.3.1\cmath ****     typename __gnu_cxx::__enable_if<__is_integer<_Tp>::__value, 
 459:c:\program files (x86)\gnu tools arm embedded\6 2017-q2-update\arm-none-eabi\include\c++\6.3.1\cmath ****                                     double>::__type
 460:c:\program files (x86)\gnu tools arm embedded\6 2017-q2-update\arm-none-eabi\include\c++\6.3.1\cmath ****     sin(_Tp __x)
 461:c:\program files (x86)\gnu tools arm embedded\6 2017-q2-update\arm-none-eabi\include\c++\6.3.1\cmath ****     { return __builtin_sin(__x); }
 462:c:\program files (x86)\gnu tools arm embedded\6 2017-q2-update\arm-none-eabi\include\c++\6.3.1\cmath **** 
 463:c:\program files (x86)\gnu tools arm embedded\6 2017-q2-update\arm-none-eabi\include\c++\6.3.1\cmath ****   using ::sinh;
 464:c:\program files (x86)\gnu tools arm embedded\6 2017-q2-update\arm-none-eabi\include\c++\6.3.1\cmath **** 
 465:c:\program files (x86)\gnu tools arm embedded\6 2017-q2-update\arm-none-eabi\include\c++\6.3.1\cmath **** #ifndef __CORRECT_ISO_CPP_MATH_H_PROTO
 466:c:\program files (x86)\gnu tools arm embedded\6 2017-q2-update\arm-none-eabi\include\c++\6.3.1\cmath ****   inline _GLIBCXX_CONSTEXPR float
 467:c:\program files (x86)\gnu tools arm embedded\6 2017-q2-update\arm-none-eabi\include\c++\6.3.1\cmath ****   sinh(float __x)
 468:c:\program files (x86)\gnu tools arm embedded\6 2017-q2-update\arm-none-eabi\include\c++\6.3.1\cmath ****   { return __builtin_sinhf(__x); }
 469:c:\program files (x86)\gnu tools arm embedded\6 2017-q2-update\arm-none-eabi\include\c++\6.3.1\cmath **** 
 470:c:\program files (x86)\gnu tools arm embedded\6 2017-q2-update\arm-none-eabi\include\c++\6.3.1\cmath ****   inline _GLIBCXX_CONSTEXPR long double
 471:c:\program files (x86)\gnu tools arm embedded\6 2017-q2-update\arm-none-eabi\include\c++\6.3.1\cmath ****   sinh(long double __x)
 472:c:\program files (x86)\gnu tools arm embedded\6 2017-q2-update\arm-none-eabi\include\c++\6.3.1\cmath ****   { return __builtin_sinhl(__x); }
 473:c:\program files (x86)\gnu tools arm embedded\6 2017-q2-update\arm-none-eabi\include\c++\6.3.1\cmath **** #endif
 474:c:\program files (x86)\gnu tools arm embedded\6 2017-q2-update\arm-none-eabi\include\c++\6.3.1\cmath **** 
 475:c:\program files (x86)\gnu tools arm embedded\6 2017-q2-update\arm-none-eabi\include\c++\6.3.1\cmath ****   template<typename _Tp>
 476:c:\program files (x86)\gnu tools arm embedded\6 2017-q2-update\arm-none-eabi\include\c++\6.3.1\cmath ****     inline _GLIBCXX_CONSTEXPR
 477:c:\program files (x86)\gnu tools arm embedded\6 2017-q2-update\arm-none-eabi\include\c++\6.3.1\cmath ****     typename __gnu_cxx::__enable_if<__is_integer<_Tp>::__value, 
 478:c:\program files (x86)\gnu tools arm embedded\6 2017-q2-update\arm-none-eabi\include\c++\6.3.1\cmath ****                                     double>::__type
 479:c:\program files (x86)\gnu tools arm embedded\6 2017-q2-update\arm-none-eabi\include\c++\6.3.1\cmath ****     sinh(_Tp __x)
 480:c:\program files (x86)\gnu tools arm embedded\6 2017-q2-update\arm-none-eabi\include\c++\6.3.1\cmath ****     { return __builtin_sinh(__x); }
 481:c:\program files (x86)\gnu tools arm embedded\6 2017-q2-update\arm-none-eabi\include\c++\6.3.1\cmath **** 
 482:c:\program files (x86)\gnu tools arm embedded\6 2017-q2-update\arm-none-eabi\include\c++\6.3.1\cmath ****   using ::sqrt;
 483:c:\program files (x86)\gnu tools arm embedded\6 2017-q2-update\arm-none-eabi\include\c++\6.3.1\cmath **** 
 484:c:\program files (x86)\gnu tools arm embedded\6 2017-q2-update\arm-none-eabi\include\c++\6.3.1\cmath **** #ifndef __CORRECT_ISO_CPP_MATH_H_PROTO
 485:c:\program files (x86)\gnu tools arm embedded\6 2017-q2-update\arm-none-eabi\include\c++\6.3.1\cmath ****   inline _GLIBCXX_CONSTEXPR float
 486:c:\program files (x86)\gnu tools arm embedded\6 2017-q2-update\arm-none-eabi\include\c++\6.3.1\cmath ****   sqrt(float __x)
 487:c:\program files (x86)\gnu tools arm embedded\6 2017-q2-update\arm-none-eabi\include\c++\6.3.1\cmath ****   { return __builtin_sqrtf(__x); }
 488:c:\program files (x86)\gnu tools arm embedded\6 2017-q2-update\arm-none-eabi\include\c++\6.3.1\cmath **** 
 489:c:\program files (x86)\gnu tools arm embedded\6 2017-q2-update\arm-none-eabi\include\c++\6.3.1\cmath ****   inline _GLIBCXX_CONSTEXPR long double
 490:c:\program files (x86)\gnu tools arm embedded\6 2017-q2-update\arm-none-eabi\include\c++\6.3.1\cmath ****   sqrt(long double __x)
 491:c:\program files (x86)\gnu tools arm embedded\6 2017-q2-update\arm-none-eabi\include\c++\6.3.1\cmath ****   { return __builtin_sqrtl(__x); }
 492:c:\program files (x86)\gnu tools arm embedded\6 2017-q2-update\arm-none-eabi\include\c++\6.3.1\cmath **** #endif
 493:c:\program files (x86)\gnu tools arm embedded\6 2017-q2-update\arm-none-eabi\include\c++\6.3.1\cmath **** 
 494:c:\program files (x86)\gnu tools arm embedded\6 2017-q2-update\arm-none-eabi\include\c++\6.3.1\cmath ****   template<typename _Tp>
 495:c:\program files (x86)\gnu tools arm embedded\6 2017-q2-update\arm-none-eabi\include\c++\6.3.1\cmath ****     inline _GLIBCXX_CONSTEXPR
 496:c:\program files (x86)\gnu tools arm embedded\6 2017-q2-update\arm-none-eabi\include\c++\6.3.1\cmath ****     typename __gnu_cxx::__enable_if<__is_integer<_Tp>::__value, 
 497:c:\program files (x86)\gnu tools arm embedded\6 2017-q2-update\arm-none-eabi\include\c++\6.3.1\cmath ****                                     double>::__type
 498:c:\program files (x86)\gnu tools arm embedded\6 2017-q2-update\arm-none-eabi\include\c++\6.3.1\cmath ****     sqrt(_Tp __x)
 499:c:\program files (x86)\gnu tools arm embedded\6 2017-q2-update\arm-none-eabi\include\c++\6.3.1\cmath ****     { return __builtin_sqrt(__x); }
 500:c:\program files (x86)\gnu tools arm embedded\6 2017-q2-update\arm-none-eabi\include\c++\6.3.1\cmath **** 
 501:c:\program files (x86)\gnu tools arm embedded\6 2017-q2-update\arm-none-eabi\include\c++\6.3.1\cmath ****   using ::tan;
 502:c:\program files (x86)\gnu tools arm embedded\6 2017-q2-update\arm-none-eabi\include\c++\6.3.1\cmath **** 
 503:c:\program files (x86)\gnu tools arm embedded\6 2017-q2-update\arm-none-eabi\include\c++\6.3.1\cmath **** #ifndef __CORRECT_ISO_CPP_MATH_H_PROTO
 504:c:\program files (x86)\gnu tools arm embedded\6 2017-q2-update\arm-none-eabi\include\c++\6.3.1\cmath ****   inline _GLIBCXX_CONSTEXPR float
 505:c:\program files (x86)\gnu tools arm embedded\6 2017-q2-update\arm-none-eabi\include\c++\6.3.1\cmath ****   tan(float __x)
 506:c:\program files (x86)\gnu tools arm embedded\6 2017-q2-update\arm-none-eabi\include\c++\6.3.1\cmath ****   { return __builtin_tanf(__x); }
 507:c:\program files (x86)\gnu tools arm embedded\6 2017-q2-update\arm-none-eabi\include\c++\6.3.1\cmath **** 
 508:c:\program files (x86)\gnu tools arm embedded\6 2017-q2-update\arm-none-eabi\include\c++\6.3.1\cmath ****   inline _GLIBCXX_CONSTEXPR long double
 509:c:\program files (x86)\gnu tools arm embedded\6 2017-q2-update\arm-none-eabi\include\c++\6.3.1\cmath ****   tan(long double __x)
 510:c:\program files (x86)\gnu tools arm embedded\6 2017-q2-update\arm-none-eabi\include\c++\6.3.1\cmath ****   { return __builtin_tanl(__x); }
 511:c:\program files (x86)\gnu tools arm embedded\6 2017-q2-update\arm-none-eabi\include\c++\6.3.1\cmath **** #endif
 512:c:\program files (x86)\gnu tools arm embedded\6 2017-q2-update\arm-none-eabi\include\c++\6.3.1\cmath **** 
 513:c:\program files (x86)\gnu tools arm embedded\6 2017-q2-update\arm-none-eabi\include\c++\6.3.1\cmath ****   template<typename _Tp>
 514:c:\program files (x86)\gnu tools arm embedded\6 2017-q2-update\arm-none-eabi\include\c++\6.3.1\cmath ****     inline _GLIBCXX_CONSTEXPR
 515:c:\program files (x86)\gnu tools arm embedded\6 2017-q2-update\arm-none-eabi\include\c++\6.3.1\cmath ****     typename __gnu_cxx::__enable_if<__is_integer<_Tp>::__value, 
 516:c:\program files (x86)\gnu tools arm embedded\6 2017-q2-update\arm-none-eabi\include\c++\6.3.1\cmath ****                                     double>::__type
 517:c:\program files (x86)\gnu tools arm embedded\6 2017-q2-update\arm-none-eabi\include\c++\6.3.1\cmath ****     tan(_Tp __x)
 518:c:\program files (x86)\gnu tools arm embedded\6 2017-q2-update\arm-none-eabi\include\c++\6.3.1\cmath ****     { return __builtin_tan(__x); }
 519:c:\program files (x86)\gnu tools arm embedded\6 2017-q2-update\arm-none-eabi\include\c++\6.3.1\cmath **** 
 520:c:\program files (x86)\gnu tools arm embedded\6 2017-q2-update\arm-none-eabi\include\c++\6.3.1\cmath ****   using ::tanh;
 521:c:\program files (x86)\gnu tools arm embedded\6 2017-q2-update\arm-none-eabi\include\c++\6.3.1\cmath **** 
 522:c:\program files (x86)\gnu tools arm embedded\6 2017-q2-update\arm-none-eabi\include\c++\6.3.1\cmath **** #ifndef __CORRECT_ISO_CPP_MATH_H_PROTO
 523:c:\program files (x86)\gnu tools arm embedded\6 2017-q2-update\arm-none-eabi\include\c++\6.3.1\cmath ****   inline _GLIBCXX_CONSTEXPR float
 524:c:\program files (x86)\gnu tools arm embedded\6 2017-q2-update\arm-none-eabi\include\c++\6.3.1\cmath ****   tanh(float __x)
 525:c:\program files (x86)\gnu tools arm embedded\6 2017-q2-update\arm-none-eabi\include\c++\6.3.1\cmath ****   { return __builtin_tanhf(__x); }
 526:c:\program files (x86)\gnu tools arm embedded\6 2017-q2-update\arm-none-eabi\include\c++\6.3.1\cmath **** 
 527:c:\program files (x86)\gnu tools arm embedded\6 2017-q2-update\arm-none-eabi\include\c++\6.3.1\cmath ****   inline _GLIBCXX_CONSTEXPR long double
 528:c:\program files (x86)\gnu tools arm embedded\6 2017-q2-update\arm-none-eabi\include\c++\6.3.1\cmath ****   tanh(long double __x)
 529:c:\program files (x86)\gnu tools arm embedded\6 2017-q2-update\arm-none-eabi\include\c++\6.3.1\cmath ****   { return __builtin_tanhl(__x); }
 530:c:\program files (x86)\gnu tools arm embedded\6 2017-q2-update\arm-none-eabi\include\c++\6.3.1\cmath **** #endif
 531:c:\program files (x86)\gnu tools arm embedded\6 2017-q2-update\arm-none-eabi\include\c++\6.3.1\cmath **** 
 532:c:\program files (x86)\gnu tools arm embedded\6 2017-q2-update\arm-none-eabi\include\c++\6.3.1\cmath ****   template<typename _Tp>
 533:c:\program files (x86)\gnu tools arm embedded\6 2017-q2-update\arm-none-eabi\include\c++\6.3.1\cmath ****     inline _GLIBCXX_CONSTEXPR
 534:c:\program files (x86)\gnu tools arm embedded\6 2017-q2-update\arm-none-eabi\include\c++\6.3.1\cmath ****     typename __gnu_cxx::__enable_if<__is_integer<_Tp>::__value, 
 535:c:\program files (x86)\gnu tools arm embedded\6 2017-q2-update\arm-none-eabi\include\c++\6.3.1\cmath ****                                     double>::__type
 536:c:\program files (x86)\gnu tools arm embedded\6 2017-q2-update\arm-none-eabi\include\c++\6.3.1\cmath ****     tanh(_Tp __x)
 537:c:\program files (x86)\gnu tools arm embedded\6 2017-q2-update\arm-none-eabi\include\c++\6.3.1\cmath ****     { return __builtin_tanh(__x); }
 538:c:\program files (x86)\gnu tools arm embedded\6 2017-q2-update\arm-none-eabi\include\c++\6.3.1\cmath **** 
 539:c:\program files (x86)\gnu tools arm embedded\6 2017-q2-update\arm-none-eabi\include\c++\6.3.1\cmath **** _GLIBCXX_END_NAMESPACE_VERSION
 540:c:\program files (x86)\gnu tools arm embedded\6 2017-q2-update\arm-none-eabi\include\c++\6.3.1\cmath **** } // namespace
 541:c:\program files (x86)\gnu tools arm embedded\6 2017-q2-update\arm-none-eabi\include\c++\6.3.1\cmath **** 
 542:c:\program files (x86)\gnu tools arm embedded\6 2017-q2-update\arm-none-eabi\include\c++\6.3.1\cmath **** #if _GLIBCXX_USE_C99_MATH
 543:c:\program files (x86)\gnu tools arm embedded\6 2017-q2-update\arm-none-eabi\include\c++\6.3.1\cmath **** #if !_GLIBCXX_USE_C99_FP_MACROS_DYNAMIC
 544:c:\program files (x86)\gnu tools arm embedded\6 2017-q2-update\arm-none-eabi\include\c++\6.3.1\cmath **** 
 545:c:\program files (x86)\gnu tools arm embedded\6 2017-q2-update\arm-none-eabi\include\c++\6.3.1\cmath **** // These are possible macros imported from C99-land.
 546:c:\program files (x86)\gnu tools arm embedded\6 2017-q2-update\arm-none-eabi\include\c++\6.3.1\cmath **** #undef fpclassify
 547:c:\program files (x86)\gnu tools arm embedded\6 2017-q2-update\arm-none-eabi\include\c++\6.3.1\cmath **** #undef isfinite
 548:c:\program files (x86)\gnu tools arm embedded\6 2017-q2-update\arm-none-eabi\include\c++\6.3.1\cmath **** #undef isinf
 549:c:\program files (x86)\gnu tools arm embedded\6 2017-q2-update\arm-none-eabi\include\c++\6.3.1\cmath **** #undef isnan
 550:c:\program files (x86)\gnu tools arm embedded\6 2017-q2-update\arm-none-eabi\include\c++\6.3.1\cmath **** #undef isnormal
 551:c:\program files (x86)\gnu tools arm embedded\6 2017-q2-update\arm-none-eabi\include\c++\6.3.1\cmath **** #undef signbit
 552:c:\program files (x86)\gnu tools arm embedded\6 2017-q2-update\arm-none-eabi\include\c++\6.3.1\cmath **** #undef isgreater
 553:c:\program files (x86)\gnu tools arm embedded\6 2017-q2-update\arm-none-eabi\include\c++\6.3.1\cmath **** #undef isgreaterequal
 554:c:\program files (x86)\gnu tools arm embedded\6 2017-q2-update\arm-none-eabi\include\c++\6.3.1\cmath **** #undef isless
 555:c:\program files (x86)\gnu tools arm embedded\6 2017-q2-update\arm-none-eabi\include\c++\6.3.1\cmath **** #undef islessequal
 556:c:\program files (x86)\gnu tools arm embedded\6 2017-q2-update\arm-none-eabi\include\c++\6.3.1\cmath **** #undef islessgreater
 557:c:\program files (x86)\gnu tools arm embedded\6 2017-q2-update\arm-none-eabi\include\c++\6.3.1\cmath **** #undef isunordered
 558:c:\program files (x86)\gnu tools arm embedded\6 2017-q2-update\arm-none-eabi\include\c++\6.3.1\cmath **** 
 559:c:\program files (x86)\gnu tools arm embedded\6 2017-q2-update\arm-none-eabi\include\c++\6.3.1\cmath **** namespace std _GLIBCXX_VISIBILITY(default)
 560:c:\program files (x86)\gnu tools arm embedded\6 2017-q2-update\arm-none-eabi\include\c++\6.3.1\cmath **** {
 561:c:\program files (x86)\gnu tools arm embedded\6 2017-q2-update\arm-none-eabi\include\c++\6.3.1\cmath **** _GLIBCXX_BEGIN_NAMESPACE_VERSION
 562:c:\program files (x86)\gnu tools arm embedded\6 2017-q2-update\arm-none-eabi\include\c++\6.3.1\cmath **** 
 563:c:\program files (x86)\gnu tools arm embedded\6 2017-q2-update\arm-none-eabi\include\c++\6.3.1\cmath **** #if __cplusplus >= 201103L
 564:c:\program files (x86)\gnu tools arm embedded\6 2017-q2-update\arm-none-eabi\include\c++\6.3.1\cmath **** 
 565:c:\program files (x86)\gnu tools arm embedded\6 2017-q2-update\arm-none-eabi\include\c++\6.3.1\cmath **** #ifndef __CORRECT_ISO_CPP11_MATH_H_PROTO_FP
 566:c:\program files (x86)\gnu tools arm embedded\6 2017-q2-update\arm-none-eabi\include\c++\6.3.1\cmath ****   constexpr int
 567:c:\program files (x86)\gnu tools arm embedded\6 2017-q2-update\arm-none-eabi\include\c++\6.3.1\cmath ****   fpclassify(float __x)
 568:c:\program files (x86)\gnu tools arm embedded\6 2017-q2-update\arm-none-eabi\include\c++\6.3.1\cmath ****   { return __builtin_fpclassify(FP_NAN, FP_INFINITE, FP_NORMAL,
 569:c:\program files (x86)\gnu tools arm embedded\6 2017-q2-update\arm-none-eabi\include\c++\6.3.1\cmath **** 				FP_SUBNORMAL, FP_ZERO, __x); }
 570:c:\program files (x86)\gnu tools arm embedded\6 2017-q2-update\arm-none-eabi\include\c++\6.3.1\cmath **** 
 571:c:\program files (x86)\gnu tools arm embedded\6 2017-q2-update\arm-none-eabi\include\c++\6.3.1\cmath ****   constexpr int
 572:c:\program files (x86)\gnu tools arm embedded\6 2017-q2-update\arm-none-eabi\include\c++\6.3.1\cmath ****   fpclassify(double __x)
 573:c:\program files (x86)\gnu tools arm embedded\6 2017-q2-update\arm-none-eabi\include\c++\6.3.1\cmath ****   { return __builtin_fpclassify(FP_NAN, FP_INFINITE, FP_NORMAL,
 574:c:\program files (x86)\gnu tools arm embedded\6 2017-q2-update\arm-none-eabi\include\c++\6.3.1\cmath **** 				FP_SUBNORMAL, FP_ZERO, __x); }
 575:c:\program files (x86)\gnu tools arm embedded\6 2017-q2-update\arm-none-eabi\include\c++\6.3.1\cmath **** 
 576:c:\program files (x86)\gnu tools arm embedded\6 2017-q2-update\arm-none-eabi\include\c++\6.3.1\cmath ****   constexpr int
 577:c:\program files (x86)\gnu tools arm embedded\6 2017-q2-update\arm-none-eabi\include\c++\6.3.1\cmath ****   fpclassify(long double __x)
 578:c:\program files (x86)\gnu tools arm embedded\6 2017-q2-update\arm-none-eabi\include\c++\6.3.1\cmath ****   { return __builtin_fpclassify(FP_NAN, FP_INFINITE, FP_NORMAL,
 579:c:\program files (x86)\gnu tools arm embedded\6 2017-q2-update\arm-none-eabi\include\c++\6.3.1\cmath **** 				FP_SUBNORMAL, FP_ZERO, __x); }
 580:c:\program files (x86)\gnu tools arm embedded\6 2017-q2-update\arm-none-eabi\include\c++\6.3.1\cmath **** #endif
 581:c:\program files (x86)\gnu tools arm embedded\6 2017-q2-update\arm-none-eabi\include\c++\6.3.1\cmath **** 
 582:c:\program files (x86)\gnu tools arm embedded\6 2017-q2-update\arm-none-eabi\include\c++\6.3.1\cmath **** #ifndef __CORRECT_ISO_CPP11_MATH_H_PROTO_INT
 583:c:\program files (x86)\gnu tools arm embedded\6 2017-q2-update\arm-none-eabi\include\c++\6.3.1\cmath ****   template<typename _Tp>
 584:c:\program files (x86)\gnu tools arm embedded\6 2017-q2-update\arm-none-eabi\include\c++\6.3.1\cmath ****     constexpr typename __gnu_cxx::__enable_if<__is_integer<_Tp>::__value,
 585:c:\program files (x86)\gnu tools arm embedded\6 2017-q2-update\arm-none-eabi\include\c++\6.3.1\cmath ****                                               int>::__type
 586:c:\program files (x86)\gnu tools arm embedded\6 2017-q2-update\arm-none-eabi\include\c++\6.3.1\cmath ****     fpclassify(_Tp __x)
 587:c:\program files (x86)\gnu tools arm embedded\6 2017-q2-update\arm-none-eabi\include\c++\6.3.1\cmath ****     { return __x != 0 ? FP_NORMAL : FP_ZERO; }
 588:c:\program files (x86)\gnu tools arm embedded\6 2017-q2-update\arm-none-eabi\include\c++\6.3.1\cmath **** #endif
 589:c:\program files (x86)\gnu tools arm embedded\6 2017-q2-update\arm-none-eabi\include\c++\6.3.1\cmath **** 
 590:c:\program files (x86)\gnu tools arm embedded\6 2017-q2-update\arm-none-eabi\include\c++\6.3.1\cmath **** #ifndef __CORRECT_ISO_CPP11_MATH_H_PROTO_FP
 591:c:\program files (x86)\gnu tools arm embedded\6 2017-q2-update\arm-none-eabi\include\c++\6.3.1\cmath ****   constexpr bool
 592:c:\program files (x86)\gnu tools arm embedded\6 2017-q2-update\arm-none-eabi\include\c++\6.3.1\cmath ****   isfinite(float __x)
 593:c:\program files (x86)\gnu tools arm embedded\6 2017-q2-update\arm-none-eabi\include\c++\6.3.1\cmath ****   { return __builtin_isfinite(__x); }
 594:c:\program files (x86)\gnu tools arm embedded\6 2017-q2-update\arm-none-eabi\include\c++\6.3.1\cmath **** 
 595:c:\program files (x86)\gnu tools arm embedded\6 2017-q2-update\arm-none-eabi\include\c++\6.3.1\cmath ****   constexpr bool
 596:c:\program files (x86)\gnu tools arm embedded\6 2017-q2-update\arm-none-eabi\include\c++\6.3.1\cmath ****   isfinite(double __x)
 597:c:\program files (x86)\gnu tools arm embedded\6 2017-q2-update\arm-none-eabi\include\c++\6.3.1\cmath ****   { return __builtin_isfinite(__x); }
 598:c:\program files (x86)\gnu tools arm embedded\6 2017-q2-update\arm-none-eabi\include\c++\6.3.1\cmath **** 
 599:c:\program files (x86)\gnu tools arm embedded\6 2017-q2-update\arm-none-eabi\include\c++\6.3.1\cmath ****   constexpr bool
 600:c:\program files (x86)\gnu tools arm embedded\6 2017-q2-update\arm-none-eabi\include\c++\6.3.1\cmath ****   isfinite(long double __x)
 601:c:\program files (x86)\gnu tools arm embedded\6 2017-q2-update\arm-none-eabi\include\c++\6.3.1\cmath ****   { return __builtin_isfinite(__x); }
 602:c:\program files (x86)\gnu tools arm embedded\6 2017-q2-update\arm-none-eabi\include\c++\6.3.1\cmath **** #endif
 603:c:\program files (x86)\gnu tools arm embedded\6 2017-q2-update\arm-none-eabi\include\c++\6.3.1\cmath **** 
 604:c:\program files (x86)\gnu tools arm embedded\6 2017-q2-update\arm-none-eabi\include\c++\6.3.1\cmath **** #ifndef __CORRECT_ISO_CPP11_MATH_H_PROTO_INT
 605:c:\program files (x86)\gnu tools arm embedded\6 2017-q2-update\arm-none-eabi\include\c++\6.3.1\cmath ****   template<typename _Tp>
 606:c:\program files (x86)\gnu tools arm embedded\6 2017-q2-update\arm-none-eabi\include\c++\6.3.1\cmath ****     constexpr typename __gnu_cxx::__enable_if<__is_integer<_Tp>::__value,
 607:c:\program files (x86)\gnu tools arm embedded\6 2017-q2-update\arm-none-eabi\include\c++\6.3.1\cmath ****                                               bool>::__type
 608:c:\program files (x86)\gnu tools arm embedded\6 2017-q2-update\arm-none-eabi\include\c++\6.3.1\cmath ****     isfinite(_Tp __x)
 609:c:\program files (x86)\gnu tools arm embedded\6 2017-q2-update\arm-none-eabi\include\c++\6.3.1\cmath ****     { return true; }
 610:c:\program files (x86)\gnu tools arm embedded\6 2017-q2-update\arm-none-eabi\include\c++\6.3.1\cmath **** #endif
 611:c:\program files (x86)\gnu tools arm embedded\6 2017-q2-update\arm-none-eabi\include\c++\6.3.1\cmath **** 
 612:c:\program files (x86)\gnu tools arm embedded\6 2017-q2-update\arm-none-eabi\include\c++\6.3.1\cmath **** #ifndef __CORRECT_ISO_CPP11_MATH_H_PROTO_FP
 613:c:\program files (x86)\gnu tools arm embedded\6 2017-q2-update\arm-none-eabi\include\c++\6.3.1\cmath ****   constexpr bool
 614:c:\program files (x86)\gnu tools arm embedded\6 2017-q2-update\arm-none-eabi\include\c++\6.3.1\cmath ****   isinf(float __x)
 615:c:\program files (x86)\gnu tools arm embedded\6 2017-q2-update\arm-none-eabi\include\c++\6.3.1\cmath ****   { return __builtin_isinf(__x); }
 616:c:\program files (x86)\gnu tools arm embedded\6 2017-q2-update\arm-none-eabi\include\c++\6.3.1\cmath **** 
 617:c:\program files (x86)\gnu tools arm embedded\6 2017-q2-update\arm-none-eabi\include\c++\6.3.1\cmath **** #if _GLIBCXX_HAVE_OBSOLETE_ISINF \
 618:c:\program files (x86)\gnu tools arm embedded\6 2017-q2-update\arm-none-eabi\include\c++\6.3.1\cmath ****   && !_GLIBCXX_NO_OBSOLETE_ISINF_ISNAN_DYNAMIC
 619:c:\program files (x86)\gnu tools arm embedded\6 2017-q2-update\arm-none-eabi\include\c++\6.3.1\cmath ****   using ::isinf;
 620:c:\program files (x86)\gnu tools arm embedded\6 2017-q2-update\arm-none-eabi\include\c++\6.3.1\cmath **** #else
 621:c:\program files (x86)\gnu tools arm embedded\6 2017-q2-update\arm-none-eabi\include\c++\6.3.1\cmath ****   constexpr bool
 622:c:\program files (x86)\gnu tools arm embedded\6 2017-q2-update\arm-none-eabi\include\c++\6.3.1\cmath ****   isinf(double __x)
 623:c:\program files (x86)\gnu tools arm embedded\6 2017-q2-update\arm-none-eabi\include\c++\6.3.1\cmath ****   { return __builtin_isinf(__x); }
 624:c:\program files (x86)\gnu tools arm embedded\6 2017-q2-update\arm-none-eabi\include\c++\6.3.1\cmath **** #endif
 625:c:\program files (x86)\gnu tools arm embedded\6 2017-q2-update\arm-none-eabi\include\c++\6.3.1\cmath **** 
 626:c:\program files (x86)\gnu tools arm embedded\6 2017-q2-update\arm-none-eabi\include\c++\6.3.1\cmath ****   constexpr bool
 627:c:\program files (x86)\gnu tools arm embedded\6 2017-q2-update\arm-none-eabi\include\c++\6.3.1\cmath ****   isinf(long double __x)
 628:c:\program files (x86)\gnu tools arm embedded\6 2017-q2-update\arm-none-eabi\include\c++\6.3.1\cmath ****   { return __builtin_isinf(__x); }
 629:c:\program files (x86)\gnu tools arm embedded\6 2017-q2-update\arm-none-eabi\include\c++\6.3.1\cmath **** #endif
 630:c:\program files (x86)\gnu tools arm embedded\6 2017-q2-update\arm-none-eabi\include\c++\6.3.1\cmath **** 
 631:c:\program files (x86)\gnu tools arm embedded\6 2017-q2-update\arm-none-eabi\include\c++\6.3.1\cmath **** #ifndef __CORRECT_ISO_CPP11_MATH_H_PROTO_INT
 632:c:\program files (x86)\gnu tools arm embedded\6 2017-q2-update\arm-none-eabi\include\c++\6.3.1\cmath ****   template<typename _Tp>
 633:c:\program files (x86)\gnu tools arm embedded\6 2017-q2-update\arm-none-eabi\include\c++\6.3.1\cmath ****     constexpr typename __gnu_cxx::__enable_if<__is_integer<_Tp>::__value,
 634:c:\program files (x86)\gnu tools arm embedded\6 2017-q2-update\arm-none-eabi\include\c++\6.3.1\cmath ****                                               bool>::__type
 635:c:\program files (x86)\gnu tools arm embedded\6 2017-q2-update\arm-none-eabi\include\c++\6.3.1\cmath ****     isinf(_Tp __x)
 636:c:\program files (x86)\gnu tools arm embedded\6 2017-q2-update\arm-none-eabi\include\c++\6.3.1\cmath ****     { return false; }
 637:c:\program files (x86)\gnu tools arm embedded\6 2017-q2-update\arm-none-eabi\include\c++\6.3.1\cmath **** #endif
 638:c:\program files (x86)\gnu tools arm embedded\6 2017-q2-update\arm-none-eabi\include\c++\6.3.1\cmath **** 
 639:c:\program files (x86)\gnu tools arm embedded\6 2017-q2-update\arm-none-eabi\include\c++\6.3.1\cmath **** #ifndef __CORRECT_ISO_CPP11_MATH_H_PROTO_FP
 640:c:\program files (x86)\gnu tools arm embedded\6 2017-q2-update\arm-none-eabi\include\c++\6.3.1\cmath ****   constexpr bool
 641:c:\program files (x86)\gnu tools arm embedded\6 2017-q2-update\arm-none-eabi\include\c++\6.3.1\cmath ****   isnan(float __x)
 642:c:\program files (x86)\gnu tools arm embedded\6 2017-q2-update\arm-none-eabi\include\c++\6.3.1\cmath ****   { return __builtin_isnan(__x); }
 643:c:\program files (x86)\gnu tools arm embedded\6 2017-q2-update\arm-none-eabi\include\c++\6.3.1\cmath **** 
 644:c:\program files (x86)\gnu tools arm embedded\6 2017-q2-update\arm-none-eabi\include\c++\6.3.1\cmath **** #if _GLIBCXX_HAVE_OBSOLETE_ISNAN \
 645:c:\program files (x86)\gnu tools arm embedded\6 2017-q2-update\arm-none-eabi\include\c++\6.3.1\cmath ****   && !_GLIBCXX_NO_OBSOLETE_ISINF_ISNAN_DYNAMIC
 646:c:\program files (x86)\gnu tools arm embedded\6 2017-q2-update\arm-none-eabi\include\c++\6.3.1\cmath ****   using ::isnan;
 647:c:\program files (x86)\gnu tools arm embedded\6 2017-q2-update\arm-none-eabi\include\c++\6.3.1\cmath **** #else
 648:c:\program files (x86)\gnu tools arm embedded\6 2017-q2-update\arm-none-eabi\include\c++\6.3.1\cmath ****   constexpr bool
 649:c:\program files (x86)\gnu tools arm embedded\6 2017-q2-update\arm-none-eabi\include\c++\6.3.1\cmath ****   isnan(double __x)
 650:c:\program files (x86)\gnu tools arm embedded\6 2017-q2-update\arm-none-eabi\include\c++\6.3.1\cmath ****   { return __builtin_isnan(__x); }
 651:c:\program files (x86)\gnu tools arm embedded\6 2017-q2-update\arm-none-eabi\include\c++\6.3.1\cmath **** #endif
 652:c:\program files (x86)\gnu tools arm embedded\6 2017-q2-update\arm-none-eabi\include\c++\6.3.1\cmath **** 
 653:c:\program files (x86)\gnu tools arm embedded\6 2017-q2-update\arm-none-eabi\include\c++\6.3.1\cmath ****   constexpr bool
 654:c:\program files (x86)\gnu tools arm embedded\6 2017-q2-update\arm-none-eabi\include\c++\6.3.1\cmath ****   isnan(long double __x)
 655:c:\program files (x86)\gnu tools arm embedded\6 2017-q2-update\arm-none-eabi\include\c++\6.3.1\cmath ****   { return __builtin_isnan(__x); }
 656:c:\program files (x86)\gnu tools arm embedded\6 2017-q2-update\arm-none-eabi\include\c++\6.3.1\cmath **** #endif
 657:c:\program files (x86)\gnu tools arm embedded\6 2017-q2-update\arm-none-eabi\include\c++\6.3.1\cmath **** 
 658:c:\program files (x86)\gnu tools arm embedded\6 2017-q2-update\arm-none-eabi\include\c++\6.3.1\cmath **** #ifndef __CORRECT_ISO_CPP11_MATH_H_PROTO_INT
 659:c:\program files (x86)\gnu tools arm embedded\6 2017-q2-update\arm-none-eabi\include\c++\6.3.1\cmath ****   template<typename _Tp>
 660:c:\program files (x86)\gnu tools arm embedded\6 2017-q2-update\arm-none-eabi\include\c++\6.3.1\cmath ****     constexpr typename __gnu_cxx::__enable_if<__is_integer<_Tp>::__value,
 661:c:\program files (x86)\gnu tools arm embedded\6 2017-q2-update\arm-none-eabi\include\c++\6.3.1\cmath ****                                               bool>::__type
 662:c:\program files (x86)\gnu tools arm embedded\6 2017-q2-update\arm-none-eabi\include\c++\6.3.1\cmath ****     isnan(_Tp __x)
 663:c:\program files (x86)\gnu tools arm embedded\6 2017-q2-update\arm-none-eabi\include\c++\6.3.1\cmath ****     { return false; }
 664:c:\program files (x86)\gnu tools arm embedded\6 2017-q2-update\arm-none-eabi\include\c++\6.3.1\cmath **** #endif
 665:c:\program files (x86)\gnu tools arm embedded\6 2017-q2-update\arm-none-eabi\include\c++\6.3.1\cmath **** 
 666:c:\program files (x86)\gnu tools arm embedded\6 2017-q2-update\arm-none-eabi\include\c++\6.3.1\cmath **** #ifndef __CORRECT_ISO_CPP11_MATH_H_PROTO_FP
 667:c:\program files (x86)\gnu tools arm embedded\6 2017-q2-update\arm-none-eabi\include\c++\6.3.1\cmath ****   constexpr bool
 668:c:\program files (x86)\gnu tools arm embedded\6 2017-q2-update\arm-none-eabi\include\c++\6.3.1\cmath ****   isnormal(float __x)
 669:c:\program files (x86)\gnu tools arm embedded\6 2017-q2-update\arm-none-eabi\include\c++\6.3.1\cmath ****   { return __builtin_isnormal(__x); }
 670:c:\program files (x86)\gnu tools arm embedded\6 2017-q2-update\arm-none-eabi\include\c++\6.3.1\cmath **** 
 671:c:\program files (x86)\gnu tools arm embedded\6 2017-q2-update\arm-none-eabi\include\c++\6.3.1\cmath ****   constexpr bool
 672:c:\program files (x86)\gnu tools arm embedded\6 2017-q2-update\arm-none-eabi\include\c++\6.3.1\cmath ****   isnormal(double __x)
 673:c:\program files (x86)\gnu tools arm embedded\6 2017-q2-update\arm-none-eabi\include\c++\6.3.1\cmath ****   { return __builtin_isnormal(__x); }
 674:c:\program files (x86)\gnu tools arm embedded\6 2017-q2-update\arm-none-eabi\include\c++\6.3.1\cmath **** 
 675:c:\program files (x86)\gnu tools arm embedded\6 2017-q2-update\arm-none-eabi\include\c++\6.3.1\cmath ****   constexpr bool
 676:c:\program files (x86)\gnu tools arm embedded\6 2017-q2-update\arm-none-eabi\include\c++\6.3.1\cmath ****   isnormal(long double __x)
 677:c:\program files (x86)\gnu tools arm embedded\6 2017-q2-update\arm-none-eabi\include\c++\6.3.1\cmath ****   { return __builtin_isnormal(__x); }
 678:c:\program files (x86)\gnu tools arm embedded\6 2017-q2-update\arm-none-eabi\include\c++\6.3.1\cmath **** #endif
 679:c:\program files (x86)\gnu tools arm embedded\6 2017-q2-update\arm-none-eabi\include\c++\6.3.1\cmath **** 
 680:c:\program files (x86)\gnu tools arm embedded\6 2017-q2-update\arm-none-eabi\include\c++\6.3.1\cmath **** #ifndef __CORRECT_ISO_CPP11_MATH_H_PROTO_INT
 681:c:\program files (x86)\gnu tools arm embedded\6 2017-q2-update\arm-none-eabi\include\c++\6.3.1\cmath ****   template<typename _Tp>
 682:c:\program files (x86)\gnu tools arm embedded\6 2017-q2-update\arm-none-eabi\include\c++\6.3.1\cmath ****     constexpr typename __gnu_cxx::__enable_if<__is_integer<_Tp>::__value,
 683:c:\program files (x86)\gnu tools arm embedded\6 2017-q2-update\arm-none-eabi\include\c++\6.3.1\cmath ****                                               bool>::__type
 684:c:\program files (x86)\gnu tools arm embedded\6 2017-q2-update\arm-none-eabi\include\c++\6.3.1\cmath ****     isnormal(_Tp __x)
 685:c:\program files (x86)\gnu tools arm embedded\6 2017-q2-update\arm-none-eabi\include\c++\6.3.1\cmath ****     { return __x != 0 ? true : false; }
 686:c:\program files (x86)\gnu tools arm embedded\6 2017-q2-update\arm-none-eabi\include\c++\6.3.1\cmath **** #endif
 687:c:\program files (x86)\gnu tools arm embedded\6 2017-q2-update\arm-none-eabi\include\c++\6.3.1\cmath **** 
 688:c:\program files (x86)\gnu tools arm embedded\6 2017-q2-update\arm-none-eabi\include\c++\6.3.1\cmath **** #ifndef __CORRECT_ISO_CPP11_MATH_H_PROTO_FP
 689:c:\program files (x86)\gnu tools arm embedded\6 2017-q2-update\arm-none-eabi\include\c++\6.3.1\cmath ****   // Note: middle-end/36757 is fixed, __builtin_signbit is type-generic.
 690:c:\program files (x86)\gnu tools arm embedded\6 2017-q2-update\arm-none-eabi\include\c++\6.3.1\cmath ****   constexpr bool
 691:c:\program files (x86)\gnu tools arm embedded\6 2017-q2-update\arm-none-eabi\include\c++\6.3.1\cmath ****   signbit(float __x)
 692:c:\program files (x86)\gnu tools arm embedded\6 2017-q2-update\arm-none-eabi\include\c++\6.3.1\cmath ****   { return __builtin_signbit(__x); }
 693:c:\program files (x86)\gnu tools arm embedded\6 2017-q2-update\arm-none-eabi\include\c++\6.3.1\cmath **** 
 694:c:\program files (x86)\gnu tools arm embedded\6 2017-q2-update\arm-none-eabi\include\c++\6.3.1\cmath ****   constexpr bool
 695:c:\program files (x86)\gnu tools arm embedded\6 2017-q2-update\arm-none-eabi\include\c++\6.3.1\cmath ****   signbit(double __x)
 696:c:\program files (x86)\gnu tools arm embedded\6 2017-q2-update\arm-none-eabi\include\c++\6.3.1\cmath ****   { return __builtin_signbit(__x); }
 697:c:\program files (x86)\gnu tools arm embedded\6 2017-q2-update\arm-none-eabi\include\c++\6.3.1\cmath **** 
 698:c:\program files (x86)\gnu tools arm embedded\6 2017-q2-update\arm-none-eabi\include\c++\6.3.1\cmath ****   constexpr bool
 699:c:\program files (x86)\gnu tools arm embedded\6 2017-q2-update\arm-none-eabi\include\c++\6.3.1\cmath ****   signbit(long double __x)
 700:c:\program files (x86)\gnu tools arm embedded\6 2017-q2-update\arm-none-eabi\include\c++\6.3.1\cmath ****   { return __builtin_signbit(__x); }
 701:c:\program files (x86)\gnu tools arm embedded\6 2017-q2-update\arm-none-eabi\include\c++\6.3.1\cmath **** #endif
 702:c:\program files (x86)\gnu tools arm embedded\6 2017-q2-update\arm-none-eabi\include\c++\6.3.1\cmath **** 
 703:c:\program files (x86)\gnu tools arm embedded\6 2017-q2-update\arm-none-eabi\include\c++\6.3.1\cmath **** #ifndef __CORRECT_ISO_CPP11_MATH_H_PROTO_INT
 704:c:\program files (x86)\gnu tools arm embedded\6 2017-q2-update\arm-none-eabi\include\c++\6.3.1\cmath ****   template<typename _Tp>
 705:c:\program files (x86)\gnu tools arm embedded\6 2017-q2-update\arm-none-eabi\include\c++\6.3.1\cmath ****     constexpr typename __gnu_cxx::__enable_if<__is_integer<_Tp>::__value,
 706:c:\program files (x86)\gnu tools arm embedded\6 2017-q2-update\arm-none-eabi\include\c++\6.3.1\cmath ****                                               bool>::__type
 707:c:\program files (x86)\gnu tools arm embedded\6 2017-q2-update\arm-none-eabi\include\c++\6.3.1\cmath ****     signbit(_Tp __x)
 708:c:\program files (x86)\gnu tools arm embedded\6 2017-q2-update\arm-none-eabi\include\c++\6.3.1\cmath ****     { return __x < 0 ? true : false; }
 709:c:\program files (x86)\gnu tools arm embedded\6 2017-q2-update\arm-none-eabi\include\c++\6.3.1\cmath **** #endif
 710:c:\program files (x86)\gnu tools arm embedded\6 2017-q2-update\arm-none-eabi\include\c++\6.3.1\cmath **** 
 711:c:\program files (x86)\gnu tools arm embedded\6 2017-q2-update\arm-none-eabi\include\c++\6.3.1\cmath **** #ifndef __CORRECT_ISO_CPP11_MATH_H_PROTO_FP
 712:c:\program files (x86)\gnu tools arm embedded\6 2017-q2-update\arm-none-eabi\include\c++\6.3.1\cmath ****   constexpr bool
 713:c:\program files (x86)\gnu tools arm embedded\6 2017-q2-update\arm-none-eabi\include\c++\6.3.1\cmath ****   isgreater(float __x, float __y)
 714:c:\program files (x86)\gnu tools arm embedded\6 2017-q2-update\arm-none-eabi\include\c++\6.3.1\cmath ****   { return __builtin_isgreater(__x, __y); }
 715:c:\program files (x86)\gnu tools arm embedded\6 2017-q2-update\arm-none-eabi\include\c++\6.3.1\cmath **** 
 716:c:\program files (x86)\gnu tools arm embedded\6 2017-q2-update\arm-none-eabi\include\c++\6.3.1\cmath ****   constexpr bool
 717:c:\program files (x86)\gnu tools arm embedded\6 2017-q2-update\arm-none-eabi\include\c++\6.3.1\cmath ****   isgreater(double __x, double __y)
 718:c:\program files (x86)\gnu tools arm embedded\6 2017-q2-update\arm-none-eabi\include\c++\6.3.1\cmath ****   { return __builtin_isgreater(__x, __y); }
 719:c:\program files (x86)\gnu tools arm embedded\6 2017-q2-update\arm-none-eabi\include\c++\6.3.1\cmath **** 
 720:c:\program files (x86)\gnu tools arm embedded\6 2017-q2-update\arm-none-eabi\include\c++\6.3.1\cmath ****   constexpr bool
 721:c:\program files (x86)\gnu tools arm embedded\6 2017-q2-update\arm-none-eabi\include\c++\6.3.1\cmath ****   isgreater(long double __x, long double __y)
 722:c:\program files (x86)\gnu tools arm embedded\6 2017-q2-update\arm-none-eabi\include\c++\6.3.1\cmath ****   { return __builtin_isgreater(__x, __y); }
 723:c:\program files (x86)\gnu tools arm embedded\6 2017-q2-update\arm-none-eabi\include\c++\6.3.1\cmath **** #endif
 724:c:\program files (x86)\gnu tools arm embedded\6 2017-q2-update\arm-none-eabi\include\c++\6.3.1\cmath **** 
 725:c:\program files (x86)\gnu tools arm embedded\6 2017-q2-update\arm-none-eabi\include\c++\6.3.1\cmath **** #ifndef __CORRECT_ISO_CPP11_MATH_H_PROTO_INT
 726:c:\program files (x86)\gnu tools arm embedded\6 2017-q2-update\arm-none-eabi\include\c++\6.3.1\cmath ****   template<typename _Tp, typename _Up>
 727:c:\program files (x86)\gnu tools arm embedded\6 2017-q2-update\arm-none-eabi\include\c++\6.3.1\cmath ****     constexpr typename
 728:c:\program files (x86)\gnu tools arm embedded\6 2017-q2-update\arm-none-eabi\include\c++\6.3.1\cmath ****     __gnu_cxx::__enable_if<(__is_arithmetic<_Tp>::__value
 729:c:\program files (x86)\gnu tools arm embedded\6 2017-q2-update\arm-none-eabi\include\c++\6.3.1\cmath **** 			    && __is_arithmetic<_Up>::__value), bool>::__type
 730:c:\program files (x86)\gnu tools arm embedded\6 2017-q2-update\arm-none-eabi\include\c++\6.3.1\cmath ****     isgreater(_Tp __x, _Up __y)
 731:c:\program files (x86)\gnu tools arm embedded\6 2017-q2-update\arm-none-eabi\include\c++\6.3.1\cmath ****     {
 732:c:\program files (x86)\gnu tools arm embedded\6 2017-q2-update\arm-none-eabi\include\c++\6.3.1\cmath ****       typedef typename __gnu_cxx::__promote_2<_Tp, _Up>::__type __type;
 733:c:\program files (x86)\gnu tools arm embedded\6 2017-q2-update\arm-none-eabi\include\c++\6.3.1\cmath ****       return __builtin_isgreater(__type(__x), __type(__y));
 734:c:\program files (x86)\gnu tools arm embedded\6 2017-q2-update\arm-none-eabi\include\c++\6.3.1\cmath ****     }
 735:c:\program files (x86)\gnu tools arm embedded\6 2017-q2-update\arm-none-eabi\include\c++\6.3.1\cmath **** #endif
 736:c:\program files (x86)\gnu tools arm embedded\6 2017-q2-update\arm-none-eabi\include\c++\6.3.1\cmath **** 
 737:c:\program files (x86)\gnu tools arm embedded\6 2017-q2-update\arm-none-eabi\include\c++\6.3.1\cmath **** #ifndef __CORRECT_ISO_CPP11_MATH_H_PROTO_FP
 738:c:\program files (x86)\gnu tools arm embedded\6 2017-q2-update\arm-none-eabi\include\c++\6.3.1\cmath ****   constexpr bool
 739:c:\program files (x86)\gnu tools arm embedded\6 2017-q2-update\arm-none-eabi\include\c++\6.3.1\cmath ****   isgreaterequal(float __x, float __y)
 740:c:\program files (x86)\gnu tools arm embedded\6 2017-q2-update\arm-none-eabi\include\c++\6.3.1\cmath ****   { return __builtin_isgreaterequal(__x, __y); }
 741:c:\program files (x86)\gnu tools arm embedded\6 2017-q2-update\arm-none-eabi\include\c++\6.3.1\cmath **** 
 742:c:\program files (x86)\gnu tools arm embedded\6 2017-q2-update\arm-none-eabi\include\c++\6.3.1\cmath ****   constexpr bool
 743:c:\program files (x86)\gnu tools arm embedded\6 2017-q2-update\arm-none-eabi\include\c++\6.3.1\cmath ****   isgreaterequal(double __x, double __y)
 744:c:\program files (x86)\gnu tools arm embedded\6 2017-q2-update\arm-none-eabi\include\c++\6.3.1\cmath ****   { return __builtin_isgreaterequal(__x, __y); }
 745:c:\program files (x86)\gnu tools arm embedded\6 2017-q2-update\arm-none-eabi\include\c++\6.3.1\cmath **** 
 746:c:\program files (x86)\gnu tools arm embedded\6 2017-q2-update\arm-none-eabi\include\c++\6.3.1\cmath ****   constexpr bool
 747:c:\program files (x86)\gnu tools arm embedded\6 2017-q2-update\arm-none-eabi\include\c++\6.3.1\cmath ****   isgreaterequal(long double __x, long double __y)
 748:c:\program files (x86)\gnu tools arm embedded\6 2017-q2-update\arm-none-eabi\include\c++\6.3.1\cmath ****   { return __builtin_isgreaterequal(__x, __y); }
 749:c:\program files (x86)\gnu tools arm embedded\6 2017-q2-update\arm-none-eabi\include\c++\6.3.1\cmath **** #endif
 750:c:\program files (x86)\gnu tools arm embedded\6 2017-q2-update\arm-none-eabi\include\c++\6.3.1\cmath **** 
 751:c:\program files (x86)\gnu tools arm embedded\6 2017-q2-update\arm-none-eabi\include\c++\6.3.1\cmath **** #ifndef __CORRECT_ISO_CPP11_MATH_H_PROTO_INT
 752:c:\program files (x86)\gnu tools arm embedded\6 2017-q2-update\arm-none-eabi\include\c++\6.3.1\cmath ****   template<typename _Tp, typename _Up>
 753:c:\program files (x86)\gnu tools arm embedded\6 2017-q2-update\arm-none-eabi\include\c++\6.3.1\cmath ****     constexpr typename
 754:c:\program files (x86)\gnu tools arm embedded\6 2017-q2-update\arm-none-eabi\include\c++\6.3.1\cmath ****     __gnu_cxx::__enable_if<(__is_arithmetic<_Tp>::__value
 755:c:\program files (x86)\gnu tools arm embedded\6 2017-q2-update\arm-none-eabi\include\c++\6.3.1\cmath **** 			    && __is_arithmetic<_Up>::__value), bool>::__type
 756:c:\program files (x86)\gnu tools arm embedded\6 2017-q2-update\arm-none-eabi\include\c++\6.3.1\cmath ****     isgreaterequal(_Tp __x, _Up __y)
 757:c:\program files (x86)\gnu tools arm embedded\6 2017-q2-update\arm-none-eabi\include\c++\6.3.1\cmath ****     {
 758:c:\program files (x86)\gnu tools arm embedded\6 2017-q2-update\arm-none-eabi\include\c++\6.3.1\cmath ****       typedef typename __gnu_cxx::__promote_2<_Tp, _Up>::__type __type;
 759:c:\program files (x86)\gnu tools arm embedded\6 2017-q2-update\arm-none-eabi\include\c++\6.3.1\cmath ****       return __builtin_isgreaterequal(__type(__x), __type(__y));
 760:c:\program files (x86)\gnu tools arm embedded\6 2017-q2-update\arm-none-eabi\include\c++\6.3.1\cmath ****     }
 761:c:\program files (x86)\gnu tools arm embedded\6 2017-q2-update\arm-none-eabi\include\c++\6.3.1\cmath **** #endif
 762:c:\program files (x86)\gnu tools arm embedded\6 2017-q2-update\arm-none-eabi\include\c++\6.3.1\cmath **** 
 763:c:\program files (x86)\gnu tools arm embedded\6 2017-q2-update\arm-none-eabi\include\c++\6.3.1\cmath **** #ifndef __CORRECT_ISO_CPP11_MATH_H_PROTO_FP
 764:c:\program files (x86)\gnu tools arm embedded\6 2017-q2-update\arm-none-eabi\include\c++\6.3.1\cmath ****   constexpr bool
 765:c:\program files (x86)\gnu tools arm embedded\6 2017-q2-update\arm-none-eabi\include\c++\6.3.1\cmath ****   isless(float __x, float __y)
 766:c:\program files (x86)\gnu tools arm embedded\6 2017-q2-update\arm-none-eabi\include\c++\6.3.1\cmath ****   { return __builtin_isless(__x, __y); }
 767:c:\program files (x86)\gnu tools arm embedded\6 2017-q2-update\arm-none-eabi\include\c++\6.3.1\cmath **** 
 768:c:\program files (x86)\gnu tools arm embedded\6 2017-q2-update\arm-none-eabi\include\c++\6.3.1\cmath ****   constexpr bool
 769:c:\program files (x86)\gnu tools arm embedded\6 2017-q2-update\arm-none-eabi\include\c++\6.3.1\cmath ****   isless(double __x, double __y)
 770:c:\program files (x86)\gnu tools arm embedded\6 2017-q2-update\arm-none-eabi\include\c++\6.3.1\cmath ****   { return __builtin_isless(__x, __y); }
 771:c:\program files (x86)\gnu tools arm embedded\6 2017-q2-update\arm-none-eabi\include\c++\6.3.1\cmath **** 
 772:c:\program files (x86)\gnu tools arm embedded\6 2017-q2-update\arm-none-eabi\include\c++\6.3.1\cmath ****   constexpr bool
 773:c:\program files (x86)\gnu tools arm embedded\6 2017-q2-update\arm-none-eabi\include\c++\6.3.1\cmath ****   isless(long double __x, long double __y)
 774:c:\program files (x86)\gnu tools arm embedded\6 2017-q2-update\arm-none-eabi\include\c++\6.3.1\cmath ****   { return __builtin_isless(__x, __y); }
 775:c:\program files (x86)\gnu tools arm embedded\6 2017-q2-update\arm-none-eabi\include\c++\6.3.1\cmath **** #endif
 776:c:\program files (x86)\gnu tools arm embedded\6 2017-q2-update\arm-none-eabi\include\c++\6.3.1\cmath **** 
 777:c:\program files (x86)\gnu tools arm embedded\6 2017-q2-update\arm-none-eabi\include\c++\6.3.1\cmath **** #ifndef __CORRECT_ISO_CPP11_MATH_H_PROTO_INT
 778:c:\program files (x86)\gnu tools arm embedded\6 2017-q2-update\arm-none-eabi\include\c++\6.3.1\cmath ****   template<typename _Tp, typename _Up>
 779:c:\program files (x86)\gnu tools arm embedded\6 2017-q2-update\arm-none-eabi\include\c++\6.3.1\cmath ****     constexpr typename
 780:c:\program files (x86)\gnu tools arm embedded\6 2017-q2-update\arm-none-eabi\include\c++\6.3.1\cmath ****     __gnu_cxx::__enable_if<(__is_arithmetic<_Tp>::__value
 781:c:\program files (x86)\gnu tools arm embedded\6 2017-q2-update\arm-none-eabi\include\c++\6.3.1\cmath **** 			    && __is_arithmetic<_Up>::__value), bool>::__type
 782:c:\program files (x86)\gnu tools arm embedded\6 2017-q2-update\arm-none-eabi\include\c++\6.3.1\cmath ****     isless(_Tp __x, _Up __y)
 783:c:\program files (x86)\gnu tools arm embedded\6 2017-q2-update\arm-none-eabi\include\c++\6.3.1\cmath ****     {
 784:c:\program files (x86)\gnu tools arm embedded\6 2017-q2-update\arm-none-eabi\include\c++\6.3.1\cmath ****       typedef typename __gnu_cxx::__promote_2<_Tp, _Up>::__type __type;
 785:c:\program files (x86)\gnu tools arm embedded\6 2017-q2-update\arm-none-eabi\include\c++\6.3.1\cmath ****       return __builtin_isless(__type(__x), __type(__y));
 786:c:\program files (x86)\gnu tools arm embedded\6 2017-q2-update\arm-none-eabi\include\c++\6.3.1\cmath ****     }
 787:c:\program files (x86)\gnu tools arm embedded\6 2017-q2-update\arm-none-eabi\include\c++\6.3.1\cmath **** #endif
 788:c:\program files (x86)\gnu tools arm embedded\6 2017-q2-update\arm-none-eabi\include\c++\6.3.1\cmath **** 
 789:c:\program files (x86)\gnu tools arm embedded\6 2017-q2-update\arm-none-eabi\include\c++\6.3.1\cmath **** #ifndef __CORRECT_ISO_CPP11_MATH_H_PROTO_FP
 790:c:\program files (x86)\gnu tools arm embedded\6 2017-q2-update\arm-none-eabi\include\c++\6.3.1\cmath ****   constexpr bool
 791:c:\program files (x86)\gnu tools arm embedded\6 2017-q2-update\arm-none-eabi\include\c++\6.3.1\cmath ****   islessequal(float __x, float __y)
 792:c:\program files (x86)\gnu tools arm embedded\6 2017-q2-update\arm-none-eabi\include\c++\6.3.1\cmath ****   { return __builtin_islessequal(__x, __y); }
 793:c:\program files (x86)\gnu tools arm embedded\6 2017-q2-update\arm-none-eabi\include\c++\6.3.1\cmath **** 
 794:c:\program files (x86)\gnu tools arm embedded\6 2017-q2-update\arm-none-eabi\include\c++\6.3.1\cmath ****   constexpr bool
 795:c:\program files (x86)\gnu tools arm embedded\6 2017-q2-update\arm-none-eabi\include\c++\6.3.1\cmath ****   islessequal(double __x, double __y)
 796:c:\program files (x86)\gnu tools arm embedded\6 2017-q2-update\arm-none-eabi\include\c++\6.3.1\cmath ****   { return __builtin_islessequal(__x, __y); }
 797:c:\program files (x86)\gnu tools arm embedded\6 2017-q2-update\arm-none-eabi\include\c++\6.3.1\cmath **** 
 798:c:\program files (x86)\gnu tools arm embedded\6 2017-q2-update\arm-none-eabi\include\c++\6.3.1\cmath ****   constexpr bool
 799:c:\program files (x86)\gnu tools arm embedded\6 2017-q2-update\arm-none-eabi\include\c++\6.3.1\cmath ****   islessequal(long double __x, long double __y)
 800:c:\program files (x86)\gnu tools arm embedded\6 2017-q2-update\arm-none-eabi\include\c++\6.3.1\cmath ****   { return __builtin_islessequal(__x, __y); }
 801:c:\program files (x86)\gnu tools arm embedded\6 2017-q2-update\arm-none-eabi\include\c++\6.3.1\cmath **** #endif
 802:c:\program files (x86)\gnu tools arm embedded\6 2017-q2-update\arm-none-eabi\include\c++\6.3.1\cmath **** 
 803:c:\program files (x86)\gnu tools arm embedded\6 2017-q2-update\arm-none-eabi\include\c++\6.3.1\cmath **** #ifndef __CORRECT_ISO_CPP11_MATH_H_PROTO_INT
 804:c:\program files (x86)\gnu tools arm embedded\6 2017-q2-update\arm-none-eabi\include\c++\6.3.1\cmath ****   template<typename _Tp, typename _Up>
 805:c:\program files (x86)\gnu tools arm embedded\6 2017-q2-update\arm-none-eabi\include\c++\6.3.1\cmath ****     constexpr typename
 806:c:\program files (x86)\gnu tools arm embedded\6 2017-q2-update\arm-none-eabi\include\c++\6.3.1\cmath ****     __gnu_cxx::__enable_if<(__is_arithmetic<_Tp>::__value
 807:c:\program files (x86)\gnu tools arm embedded\6 2017-q2-update\arm-none-eabi\include\c++\6.3.1\cmath **** 			    && __is_arithmetic<_Up>::__value), bool>::__type
 808:c:\program files (x86)\gnu tools arm embedded\6 2017-q2-update\arm-none-eabi\include\c++\6.3.1\cmath ****     islessequal(_Tp __x, _Up __y)
 809:c:\program files (x86)\gnu tools arm embedded\6 2017-q2-update\arm-none-eabi\include\c++\6.3.1\cmath ****     {
 810:c:\program files (x86)\gnu tools arm embedded\6 2017-q2-update\arm-none-eabi\include\c++\6.3.1\cmath ****       typedef typename __gnu_cxx::__promote_2<_Tp, _Up>::__type __type;
 811:c:\program files (x86)\gnu tools arm embedded\6 2017-q2-update\arm-none-eabi\include\c++\6.3.1\cmath ****       return __builtin_islessequal(__type(__x), __type(__y));
 812:c:\program files (x86)\gnu tools arm embedded\6 2017-q2-update\arm-none-eabi\include\c++\6.3.1\cmath ****     }
 813:c:\program files (x86)\gnu tools arm embedded\6 2017-q2-update\arm-none-eabi\include\c++\6.3.1\cmath **** #endif
 814:c:\program files (x86)\gnu tools arm embedded\6 2017-q2-update\arm-none-eabi\include\c++\6.3.1\cmath **** 
 815:c:\program files (x86)\gnu tools arm embedded\6 2017-q2-update\arm-none-eabi\include\c++\6.3.1\cmath **** #ifndef __CORRECT_ISO_CPP11_MATH_H_PROTO_FP
 816:c:\program files (x86)\gnu tools arm embedded\6 2017-q2-update\arm-none-eabi\include\c++\6.3.1\cmath ****   constexpr bool
 817:c:\program files (x86)\gnu tools arm embedded\6 2017-q2-update\arm-none-eabi\include\c++\6.3.1\cmath ****   islessgreater(float __x, float __y)
 818:c:\program files (x86)\gnu tools arm embedded\6 2017-q2-update\arm-none-eabi\include\c++\6.3.1\cmath ****   { return __builtin_islessgreater(__x, __y); }
 819:c:\program files (x86)\gnu tools arm embedded\6 2017-q2-update\arm-none-eabi\include\c++\6.3.1\cmath **** 
 820:c:\program files (x86)\gnu tools arm embedded\6 2017-q2-update\arm-none-eabi\include\c++\6.3.1\cmath ****   constexpr bool
 821:c:\program files (x86)\gnu tools arm embedded\6 2017-q2-update\arm-none-eabi\include\c++\6.3.1\cmath ****   islessgreater(double __x, double __y)
 822:c:\program files (x86)\gnu tools arm embedded\6 2017-q2-update\arm-none-eabi\include\c++\6.3.1\cmath ****   { return __builtin_islessgreater(__x, __y); }
 823:c:\program files (x86)\gnu tools arm embedded\6 2017-q2-update\arm-none-eabi\include\c++\6.3.1\cmath **** 
 824:c:\program files (x86)\gnu tools arm embedded\6 2017-q2-update\arm-none-eabi\include\c++\6.3.1\cmath ****   constexpr bool
 825:c:\program files (x86)\gnu tools arm embedded\6 2017-q2-update\arm-none-eabi\include\c++\6.3.1\cmath ****   islessgreater(long double __x, long double __y)
 826:c:\program files (x86)\gnu tools arm embedded\6 2017-q2-update\arm-none-eabi\include\c++\6.3.1\cmath ****   { return __builtin_islessgreater(__x, __y); }
 827:c:\program files (x86)\gnu tools arm embedded\6 2017-q2-update\arm-none-eabi\include\c++\6.3.1\cmath **** #endif
 828:c:\program files (x86)\gnu tools arm embedded\6 2017-q2-update\arm-none-eabi\include\c++\6.3.1\cmath **** 
 829:c:\program files (x86)\gnu tools arm embedded\6 2017-q2-update\arm-none-eabi\include\c++\6.3.1\cmath **** #ifndef __CORRECT_ISO_CPP11_MATH_H_PROTO_INT
 830:c:\program files (x86)\gnu tools arm embedded\6 2017-q2-update\arm-none-eabi\include\c++\6.3.1\cmath ****   template<typename _Tp, typename _Up>
 831:c:\program files (x86)\gnu tools arm embedded\6 2017-q2-update\arm-none-eabi\include\c++\6.3.1\cmath ****     constexpr typename
 832:c:\program files (x86)\gnu tools arm embedded\6 2017-q2-update\arm-none-eabi\include\c++\6.3.1\cmath ****     __gnu_cxx::__enable_if<(__is_arithmetic<_Tp>::__value
 833:c:\program files (x86)\gnu tools arm embedded\6 2017-q2-update\arm-none-eabi\include\c++\6.3.1\cmath **** 			    && __is_arithmetic<_Up>::__value), bool>::__type
 834:c:\program files (x86)\gnu tools arm embedded\6 2017-q2-update\arm-none-eabi\include\c++\6.3.1\cmath ****     islessgreater(_Tp __x, _Up __y)
 835:c:\program files (x86)\gnu tools arm embedded\6 2017-q2-update\arm-none-eabi\include\c++\6.3.1\cmath ****     {
 836:c:\program files (x86)\gnu tools arm embedded\6 2017-q2-update\arm-none-eabi\include\c++\6.3.1\cmath ****       typedef typename __gnu_cxx::__promote_2<_Tp, _Up>::__type __type;
 837:c:\program files (x86)\gnu tools arm embedded\6 2017-q2-update\arm-none-eabi\include\c++\6.3.1\cmath ****       return __builtin_islessgreater(__type(__x), __type(__y));
 838:c:\program files (x86)\gnu tools arm embedded\6 2017-q2-update\arm-none-eabi\include\c++\6.3.1\cmath ****     }
 839:c:\program files (x86)\gnu tools arm embedded\6 2017-q2-update\arm-none-eabi\include\c++\6.3.1\cmath **** #endif
 840:c:\program files (x86)\gnu tools arm embedded\6 2017-q2-update\arm-none-eabi\include\c++\6.3.1\cmath **** 
 841:c:\program files (x86)\gnu tools arm embedded\6 2017-q2-update\arm-none-eabi\include\c++\6.3.1\cmath **** #ifndef __CORRECT_ISO_CPP11_MATH_H_PROTO_FP
 842:c:\program files (x86)\gnu tools arm embedded\6 2017-q2-update\arm-none-eabi\include\c++\6.3.1\cmath ****   constexpr bool
 843:c:\program files (x86)\gnu tools arm embedded\6 2017-q2-update\arm-none-eabi\include\c++\6.3.1\cmath ****   isunordered(float __x, float __y)
 844:c:\program files (x86)\gnu tools arm embedded\6 2017-q2-update\arm-none-eabi\include\c++\6.3.1\cmath ****   { return __builtin_isunordered(__x, __y); }
 845:c:\program files (x86)\gnu tools arm embedded\6 2017-q2-update\arm-none-eabi\include\c++\6.3.1\cmath **** 
 846:c:\program files (x86)\gnu tools arm embedded\6 2017-q2-update\arm-none-eabi\include\c++\6.3.1\cmath ****   constexpr bool
 847:c:\program files (x86)\gnu tools arm embedded\6 2017-q2-update\arm-none-eabi\include\c++\6.3.1\cmath ****   isunordered(double __x, double __y)
 848:c:\program files (x86)\gnu tools arm embedded\6 2017-q2-update\arm-none-eabi\include\c++\6.3.1\cmath ****   { return __builtin_isunordered(__x, __y); }
 849:c:\program files (x86)\gnu tools arm embedded\6 2017-q2-update\arm-none-eabi\include\c++\6.3.1\cmath **** 
 850:c:\program files (x86)\gnu tools arm embedded\6 2017-q2-update\arm-none-eabi\include\c++\6.3.1\cmath ****   constexpr bool
 851:c:\program files (x86)\gnu tools arm embedded\6 2017-q2-update\arm-none-eabi\include\c++\6.3.1\cmath ****   isunordered(long double __x, long double __y)
 852:c:\program files (x86)\gnu tools arm embedded\6 2017-q2-update\arm-none-eabi\include\c++\6.3.1\cmath ****   { return __builtin_isunordered(__x, __y); }
 853:c:\program files (x86)\gnu tools arm embedded\6 2017-q2-update\arm-none-eabi\include\c++\6.3.1\cmath **** #endif
 854:c:\program files (x86)\gnu tools arm embedded\6 2017-q2-update\arm-none-eabi\include\c++\6.3.1\cmath **** 
 855:c:\program files (x86)\gnu tools arm embedded\6 2017-q2-update\arm-none-eabi\include\c++\6.3.1\cmath **** #ifndef __CORRECT_ISO_CPP11_MATH_H_PROTO_INT
 856:c:\program files (x86)\gnu tools arm embedded\6 2017-q2-update\arm-none-eabi\include\c++\6.3.1\cmath ****   template<typename _Tp, typename _Up>
 857:c:\program files (x86)\gnu tools arm embedded\6 2017-q2-update\arm-none-eabi\include\c++\6.3.1\cmath ****     constexpr typename
 858:c:\program files (x86)\gnu tools arm embedded\6 2017-q2-update\arm-none-eabi\include\c++\6.3.1\cmath ****     __gnu_cxx::__enable_if<(__is_arithmetic<_Tp>::__value
 859:c:\program files (x86)\gnu tools arm embedded\6 2017-q2-update\arm-none-eabi\include\c++\6.3.1\cmath **** 			    && __is_arithmetic<_Up>::__value), bool>::__type
 860:c:\program files (x86)\gnu tools arm embedded\6 2017-q2-update\arm-none-eabi\include\c++\6.3.1\cmath ****     isunordered(_Tp __x, _Up __y)
 861:c:\program files (x86)\gnu tools arm embedded\6 2017-q2-update\arm-none-eabi\include\c++\6.3.1\cmath ****     {
 862:c:\program files (x86)\gnu tools arm embedded\6 2017-q2-update\arm-none-eabi\include\c++\6.3.1\cmath ****       typedef typename __gnu_cxx::__promote_2<_Tp, _Up>::__type __type;
 863:c:\program files (x86)\gnu tools arm embedded\6 2017-q2-update\arm-none-eabi\include\c++\6.3.1\cmath ****       return __builtin_isunordered(__type(__x), __type(__y));
 864:c:\program files (x86)\gnu tools arm embedded\6 2017-q2-update\arm-none-eabi\include\c++\6.3.1\cmath ****     }
 865:c:\program files (x86)\gnu tools arm embedded\6 2017-q2-update\arm-none-eabi\include\c++\6.3.1\cmath **** #endif
 866:c:\program files (x86)\gnu tools arm embedded\6 2017-q2-update\arm-none-eabi\include\c++\6.3.1\cmath **** 
 867:c:\program files (x86)\gnu tools arm embedded\6 2017-q2-update\arm-none-eabi\include\c++\6.3.1\cmath **** #else
 868:c:\program files (x86)\gnu tools arm embedded\6 2017-q2-update\arm-none-eabi\include\c++\6.3.1\cmath **** 
 869:c:\program files (x86)\gnu tools arm embedded\6 2017-q2-update\arm-none-eabi\include\c++\6.3.1\cmath ****   template<typename _Tp>
 870:c:\program files (x86)\gnu tools arm embedded\6 2017-q2-update\arm-none-eabi\include\c++\6.3.1\cmath ****     inline typename __gnu_cxx::__enable_if<__is_arithmetic<_Tp>::__value,
 871:c:\program files (x86)\gnu tools arm embedded\6 2017-q2-update\arm-none-eabi\include\c++\6.3.1\cmath **** 					   int>::__type
 872:c:\program files (x86)\gnu tools arm embedded\6 2017-q2-update\arm-none-eabi\include\c++\6.3.1\cmath ****     fpclassify(_Tp __f)
 873:c:\program files (x86)\gnu tools arm embedded\6 2017-q2-update\arm-none-eabi\include\c++\6.3.1\cmath ****     {
 874:c:\program files (x86)\gnu tools arm embedded\6 2017-q2-update\arm-none-eabi\include\c++\6.3.1\cmath ****       typedef typename __gnu_cxx::__promote<_Tp>::__type __type;
 875:c:\program files (x86)\gnu tools arm embedded\6 2017-q2-update\arm-none-eabi\include\c++\6.3.1\cmath ****       return __builtin_fpclassify(FP_NAN, FP_INFINITE, FP_NORMAL,
 876:c:\program files (x86)\gnu tools arm embedded\6 2017-q2-update\arm-none-eabi\include\c++\6.3.1\cmath **** 				  FP_SUBNORMAL, FP_ZERO, __type(__f));
 877:c:\program files (x86)\gnu tools arm embedded\6 2017-q2-update\arm-none-eabi\include\c++\6.3.1\cmath ****     }
 878:c:\program files (x86)\gnu tools arm embedded\6 2017-q2-update\arm-none-eabi\include\c++\6.3.1\cmath **** 
 879:c:\program files (x86)\gnu tools arm embedded\6 2017-q2-update\arm-none-eabi\include\c++\6.3.1\cmath ****   template<typename _Tp>
 880:c:\program files (x86)\gnu tools arm embedded\6 2017-q2-update\arm-none-eabi\include\c++\6.3.1\cmath ****     inline typename __gnu_cxx::__enable_if<__is_arithmetic<_Tp>::__value,
 881:c:\program files (x86)\gnu tools arm embedded\6 2017-q2-update\arm-none-eabi\include\c++\6.3.1\cmath **** 					   int>::__type
 882:c:\program files (x86)\gnu tools arm embedded\6 2017-q2-update\arm-none-eabi\include\c++\6.3.1\cmath ****     isfinite(_Tp __f)
 883:c:\program files (x86)\gnu tools arm embedded\6 2017-q2-update\arm-none-eabi\include\c++\6.3.1\cmath ****     {
 884:c:\program files (x86)\gnu tools arm embedded\6 2017-q2-update\arm-none-eabi\include\c++\6.3.1\cmath ****       typedef typename __gnu_cxx::__promote<_Tp>::__type __type;
 885:c:\program files (x86)\gnu tools arm embedded\6 2017-q2-update\arm-none-eabi\include\c++\6.3.1\cmath ****       return __builtin_isfinite(__type(__f));
 886:c:\program files (x86)\gnu tools arm embedded\6 2017-q2-update\arm-none-eabi\include\c++\6.3.1\cmath ****     }
 887:c:\program files (x86)\gnu tools arm embedded\6 2017-q2-update\arm-none-eabi\include\c++\6.3.1\cmath **** 
 888:c:\program files (x86)\gnu tools arm embedded\6 2017-q2-update\arm-none-eabi\include\c++\6.3.1\cmath ****   template<typename _Tp>
 889:c:\program files (x86)\gnu tools arm embedded\6 2017-q2-update\arm-none-eabi\include\c++\6.3.1\cmath ****     inline typename __gnu_cxx::__enable_if<__is_arithmetic<_Tp>::__value,
 890:c:\program files (x86)\gnu tools arm embedded\6 2017-q2-update\arm-none-eabi\include\c++\6.3.1\cmath **** 					   int>::__type
 891:c:\program files (x86)\gnu tools arm embedded\6 2017-q2-update\arm-none-eabi\include\c++\6.3.1\cmath ****     isinf(_Tp __f)
 892:c:\program files (x86)\gnu tools arm embedded\6 2017-q2-update\arm-none-eabi\include\c++\6.3.1\cmath ****     {
 893:c:\program files (x86)\gnu tools arm embedded\6 2017-q2-update\arm-none-eabi\include\c++\6.3.1\cmath ****       typedef typename __gnu_cxx::__promote<_Tp>::__type __type;
 894:c:\program files (x86)\gnu tools arm embedded\6 2017-q2-update\arm-none-eabi\include\c++\6.3.1\cmath ****       return __builtin_isinf(__type(__f));
 895:c:\program files (x86)\gnu tools arm embedded\6 2017-q2-update\arm-none-eabi\include\c++\6.3.1\cmath ****     }
 896:c:\program files (x86)\gnu tools arm embedded\6 2017-q2-update\arm-none-eabi\include\c++\6.3.1\cmath **** 
 897:c:\program files (x86)\gnu tools arm embedded\6 2017-q2-update\arm-none-eabi\include\c++\6.3.1\cmath ****   template<typename _Tp>
 898:c:\program files (x86)\gnu tools arm embedded\6 2017-q2-update\arm-none-eabi\include\c++\6.3.1\cmath ****     inline typename __gnu_cxx::__enable_if<__is_arithmetic<_Tp>::__value,
 899:c:\program files (x86)\gnu tools arm embedded\6 2017-q2-update\arm-none-eabi\include\c++\6.3.1\cmath **** 					   int>::__type
 900:c:\program files (x86)\gnu tools arm embedded\6 2017-q2-update\arm-none-eabi\include\c++\6.3.1\cmath ****     isnan(_Tp __f)
 901:c:\program files (x86)\gnu tools arm embedded\6 2017-q2-update\arm-none-eabi\include\c++\6.3.1\cmath ****     {
 902:c:\program files (x86)\gnu tools arm embedded\6 2017-q2-update\arm-none-eabi\include\c++\6.3.1\cmath ****       typedef typename __gnu_cxx::__promote<_Tp>::__type __type;
 903:c:\program files (x86)\gnu tools arm embedded\6 2017-q2-update\arm-none-eabi\include\c++\6.3.1\cmath ****       return __builtin_isnan(__type(__f));
 904:c:\program files (x86)\gnu tools arm embedded\6 2017-q2-update\arm-none-eabi\include\c++\6.3.1\cmath ****     }
 905:c:\program files (x86)\gnu tools arm embedded\6 2017-q2-update\arm-none-eabi\include\c++\6.3.1\cmath **** 
 906:c:\program files (x86)\gnu tools arm embedded\6 2017-q2-update\arm-none-eabi\include\c++\6.3.1\cmath ****   template<typename _Tp>
 907:c:\program files (x86)\gnu tools arm embedded\6 2017-q2-update\arm-none-eabi\include\c++\6.3.1\cmath ****     inline typename __gnu_cxx::__enable_if<__is_arithmetic<_Tp>::__value,
 908:c:\program files (x86)\gnu tools arm embedded\6 2017-q2-update\arm-none-eabi\include\c++\6.3.1\cmath **** 					   int>::__type
 909:c:\program files (x86)\gnu tools arm embedded\6 2017-q2-update\arm-none-eabi\include\c++\6.3.1\cmath ****     isnormal(_Tp __f)
 910:c:\program files (x86)\gnu tools arm embedded\6 2017-q2-update\arm-none-eabi\include\c++\6.3.1\cmath ****     {
 911:c:\program files (x86)\gnu tools arm embedded\6 2017-q2-update\arm-none-eabi\include\c++\6.3.1\cmath ****       typedef typename __gnu_cxx::__promote<_Tp>::__type __type;
 912:c:\program files (x86)\gnu tools arm embedded\6 2017-q2-update\arm-none-eabi\include\c++\6.3.1\cmath ****       return __builtin_isnormal(__type(__f));
 913:c:\program files (x86)\gnu tools arm embedded\6 2017-q2-update\arm-none-eabi\include\c++\6.3.1\cmath ****     }
 914:c:\program files (x86)\gnu tools arm embedded\6 2017-q2-update\arm-none-eabi\include\c++\6.3.1\cmath **** 
 915:c:\program files (x86)\gnu tools arm embedded\6 2017-q2-update\arm-none-eabi\include\c++\6.3.1\cmath ****   template<typename _Tp>
 916:c:\program files (x86)\gnu tools arm embedded\6 2017-q2-update\arm-none-eabi\include\c++\6.3.1\cmath ****     inline typename __gnu_cxx::__enable_if<__is_arithmetic<_Tp>::__value,
 917:c:\program files (x86)\gnu tools arm embedded\6 2017-q2-update\arm-none-eabi\include\c++\6.3.1\cmath **** 					   int>::__type
 918:c:\program files (x86)\gnu tools arm embedded\6 2017-q2-update\arm-none-eabi\include\c++\6.3.1\cmath ****     signbit(_Tp __f)
 919:c:\program files (x86)\gnu tools arm embedded\6 2017-q2-update\arm-none-eabi\include\c++\6.3.1\cmath ****     {
 920:c:\program files (x86)\gnu tools arm embedded\6 2017-q2-update\arm-none-eabi\include\c++\6.3.1\cmath ****       typedef typename __gnu_cxx::__promote<_Tp>::__type __type;
 921:c:\program files (x86)\gnu tools arm embedded\6 2017-q2-update\arm-none-eabi\include\c++\6.3.1\cmath ****       return __builtin_signbit(__type(__f));
 922:c:\program files (x86)\gnu tools arm embedded\6 2017-q2-update\arm-none-eabi\include\c++\6.3.1\cmath ****     }
 923:c:\program files (x86)\gnu tools arm embedded\6 2017-q2-update\arm-none-eabi\include\c++\6.3.1\cmath **** 
 924:c:\program files (x86)\gnu tools arm embedded\6 2017-q2-update\arm-none-eabi\include\c++\6.3.1\cmath ****   template<typename _Tp>
 925:c:\program files (x86)\gnu tools arm embedded\6 2017-q2-update\arm-none-eabi\include\c++\6.3.1\cmath ****     inline typename __gnu_cxx::__enable_if<__is_arithmetic<_Tp>::__value,
 926:c:\program files (x86)\gnu tools arm embedded\6 2017-q2-update\arm-none-eabi\include\c++\6.3.1\cmath **** 					   int>::__type
 927:c:\program files (x86)\gnu tools arm embedded\6 2017-q2-update\arm-none-eabi\include\c++\6.3.1\cmath ****     isgreater(_Tp __f1, _Tp __f2)
 928:c:\program files (x86)\gnu tools arm embedded\6 2017-q2-update\arm-none-eabi\include\c++\6.3.1\cmath ****     {
 929:c:\program files (x86)\gnu tools arm embedded\6 2017-q2-update\arm-none-eabi\include\c++\6.3.1\cmath ****       typedef typename __gnu_cxx::__promote<_Tp>::__type __type;
 930:c:\program files (x86)\gnu tools arm embedded\6 2017-q2-update\arm-none-eabi\include\c++\6.3.1\cmath ****       return __builtin_isgreater(__type(__f1), __type(__f2));
 931:c:\program files (x86)\gnu tools arm embedded\6 2017-q2-update\arm-none-eabi\include\c++\6.3.1\cmath ****     }
 932:c:\program files (x86)\gnu tools arm embedded\6 2017-q2-update\arm-none-eabi\include\c++\6.3.1\cmath **** 
 933:c:\program files (x86)\gnu tools arm embedded\6 2017-q2-update\arm-none-eabi\include\c++\6.3.1\cmath ****   template<typename _Tp>
 934:c:\program files (x86)\gnu tools arm embedded\6 2017-q2-update\arm-none-eabi\include\c++\6.3.1\cmath ****     inline typename __gnu_cxx::__enable_if<__is_arithmetic<_Tp>::__value,
 935:c:\program files (x86)\gnu tools arm embedded\6 2017-q2-update\arm-none-eabi\include\c++\6.3.1\cmath **** 					   int>::__type
 936:c:\program files (x86)\gnu tools arm embedded\6 2017-q2-update\arm-none-eabi\include\c++\6.3.1\cmath ****     isgreaterequal(_Tp __f1, _Tp __f2)
 937:c:\program files (x86)\gnu tools arm embedded\6 2017-q2-update\arm-none-eabi\include\c++\6.3.1\cmath ****     {
 938:c:\program files (x86)\gnu tools arm embedded\6 2017-q2-update\arm-none-eabi\include\c++\6.3.1\cmath ****       typedef typename __gnu_cxx::__promote<_Tp>::__type __type;
 939:c:\program files (x86)\gnu tools arm embedded\6 2017-q2-update\arm-none-eabi\include\c++\6.3.1\cmath ****       return __builtin_isgreaterequal(__type(__f1), __type(__f2));
 940:c:\program files (x86)\gnu tools arm embedded\6 2017-q2-update\arm-none-eabi\include\c++\6.3.1\cmath ****     }
 941:c:\program files (x86)\gnu tools arm embedded\6 2017-q2-update\arm-none-eabi\include\c++\6.3.1\cmath **** 
 942:c:\program files (x86)\gnu tools arm embedded\6 2017-q2-update\arm-none-eabi\include\c++\6.3.1\cmath ****   template<typename _Tp>
 943:c:\program files (x86)\gnu tools arm embedded\6 2017-q2-update\arm-none-eabi\include\c++\6.3.1\cmath ****     inline typename __gnu_cxx::__enable_if<__is_arithmetic<_Tp>::__value,
 944:c:\program files (x86)\gnu tools arm embedded\6 2017-q2-update\arm-none-eabi\include\c++\6.3.1\cmath **** 					   int>::__type
 945:c:\program files (x86)\gnu tools arm embedded\6 2017-q2-update\arm-none-eabi\include\c++\6.3.1\cmath ****     isless(_Tp __f1, _Tp __f2)
 946:c:\program files (x86)\gnu tools arm embedded\6 2017-q2-update\arm-none-eabi\include\c++\6.3.1\cmath ****     {
 947:c:\program files (x86)\gnu tools arm embedded\6 2017-q2-update\arm-none-eabi\include\c++\6.3.1\cmath ****       typedef typename __gnu_cxx::__promote<_Tp>::__type __type;
 948:c:\program files (x86)\gnu tools arm embedded\6 2017-q2-update\arm-none-eabi\include\c++\6.3.1\cmath ****       return __builtin_isless(__type(__f1), __type(__f2));
 949:c:\program files (x86)\gnu tools arm embedded\6 2017-q2-update\arm-none-eabi\include\c++\6.3.1\cmath ****     }
 950:c:\program files (x86)\gnu tools arm embedded\6 2017-q2-update\arm-none-eabi\include\c++\6.3.1\cmath **** 
 951:c:\program files (x86)\gnu tools arm embedded\6 2017-q2-update\arm-none-eabi\include\c++\6.3.1\cmath ****   template<typename _Tp>
 952:c:\program files (x86)\gnu tools arm embedded\6 2017-q2-update\arm-none-eabi\include\c++\6.3.1\cmath ****     inline typename __gnu_cxx::__enable_if<__is_arithmetic<_Tp>::__value,
 953:c:\program files (x86)\gnu tools arm embedded\6 2017-q2-update\arm-none-eabi\include\c++\6.3.1\cmath **** 					   int>::__type
 954:c:\program files (x86)\gnu tools arm embedded\6 2017-q2-update\arm-none-eabi\include\c++\6.3.1\cmath ****     islessequal(_Tp __f1, _Tp __f2)
 955:c:\program files (x86)\gnu tools arm embedded\6 2017-q2-update\arm-none-eabi\include\c++\6.3.1\cmath ****     {
 956:c:\program files (x86)\gnu tools arm embedded\6 2017-q2-update\arm-none-eabi\include\c++\6.3.1\cmath ****       typedef typename __gnu_cxx::__promote<_Tp>::__type __type;
 957:c:\program files (x86)\gnu tools arm embedded\6 2017-q2-update\arm-none-eabi\include\c++\6.3.1\cmath ****       return __builtin_islessequal(__type(__f1), __type(__f2));
 958:c:\program files (x86)\gnu tools arm embedded\6 2017-q2-update\arm-none-eabi\include\c++\6.3.1\cmath ****     }
 959:c:\program files (x86)\gnu tools arm embedded\6 2017-q2-update\arm-none-eabi\include\c++\6.3.1\cmath **** 
 960:c:\program files (x86)\gnu tools arm embedded\6 2017-q2-update\arm-none-eabi\include\c++\6.3.1\cmath ****   template<typename _Tp>
 961:c:\program files (x86)\gnu tools arm embedded\6 2017-q2-update\arm-none-eabi\include\c++\6.3.1\cmath ****     inline typename __gnu_cxx::__enable_if<__is_arithmetic<_Tp>::__value,
 962:c:\program files (x86)\gnu tools arm embedded\6 2017-q2-update\arm-none-eabi\include\c++\6.3.1\cmath **** 					   int>::__type
 963:c:\program files (x86)\gnu tools arm embedded\6 2017-q2-update\arm-none-eabi\include\c++\6.3.1\cmath ****     islessgreater(_Tp __f1, _Tp __f2)
 964:c:\program files (x86)\gnu tools arm embedded\6 2017-q2-update\arm-none-eabi\include\c++\6.3.1\cmath ****     {
 965:c:\program files (x86)\gnu tools arm embedded\6 2017-q2-update\arm-none-eabi\include\c++\6.3.1\cmath ****       typedef typename __gnu_cxx::__promote<_Tp>::__type __type;
 966:c:\program files (x86)\gnu tools arm embedded\6 2017-q2-update\arm-none-eabi\include\c++\6.3.1\cmath ****       return __builtin_islessgreater(__type(__f1), __type(__f2));
 967:c:\program files (x86)\gnu tools arm embedded\6 2017-q2-update\arm-none-eabi\include\c++\6.3.1\cmath ****     }
 968:c:\program files (x86)\gnu tools arm embedded\6 2017-q2-update\arm-none-eabi\include\c++\6.3.1\cmath **** 
 969:c:\program files (x86)\gnu tools arm embedded\6 2017-q2-update\arm-none-eabi\include\c++\6.3.1\cmath ****   template<typename _Tp>
 970:c:\program files (x86)\gnu tools arm embedded\6 2017-q2-update\arm-none-eabi\include\c++\6.3.1\cmath ****     inline typename __gnu_cxx::__enable_if<__is_arithmetic<_Tp>::__value,
 971:c:\program files (x86)\gnu tools arm embedded\6 2017-q2-update\arm-none-eabi\include\c++\6.3.1\cmath **** 					   int>::__type
 972:c:\program files (x86)\gnu tools arm embedded\6 2017-q2-update\arm-none-eabi\include\c++\6.3.1\cmath ****     isunordered(_Tp __f1, _Tp __f2)
 973:c:\program files (x86)\gnu tools arm embedded\6 2017-q2-update\arm-none-eabi\include\c++\6.3.1\cmath ****     {
 974:c:\program files (x86)\gnu tools arm embedded\6 2017-q2-update\arm-none-eabi\include\c++\6.3.1\cmath ****       typedef typename __gnu_cxx::__promote<_Tp>::__type __type;
 975:c:\program files (x86)\gnu tools arm embedded\6 2017-q2-update\arm-none-eabi\include\c++\6.3.1\cmath ****       return __builtin_isunordered(__type(__f1), __type(__f2));
 976:c:\program files (x86)\gnu tools arm embedded\6 2017-q2-update\arm-none-eabi\include\c++\6.3.1\cmath ****     }
 977:c:\program files (x86)\gnu tools arm embedded\6 2017-q2-update\arm-none-eabi\include\c++\6.3.1\cmath **** 
 978:c:\program files (x86)\gnu tools arm embedded\6 2017-q2-update\arm-none-eabi\include\c++\6.3.1\cmath **** #endif
 979:c:\program files (x86)\gnu tools arm embedded\6 2017-q2-update\arm-none-eabi\include\c++\6.3.1\cmath **** 
 980:c:\program files (x86)\gnu tools arm embedded\6 2017-q2-update\arm-none-eabi\include\c++\6.3.1\cmath **** _GLIBCXX_END_NAMESPACE_VERSION
 981:c:\program files (x86)\gnu tools arm embedded\6 2017-q2-update\arm-none-eabi\include\c++\6.3.1\cmath **** } // namespace
 982:c:\program files (x86)\gnu tools arm embedded\6 2017-q2-update\arm-none-eabi\include\c++\6.3.1\cmath **** 
 983:c:\program files (x86)\gnu tools arm embedded\6 2017-q2-update\arm-none-eabi\include\c++\6.3.1\cmath **** #endif /* _GLIBCXX_USE_C99_FP_MACROS_DYNAMIC */
 984:c:\program files (x86)\gnu tools arm embedded\6 2017-q2-update\arm-none-eabi\include\c++\6.3.1\cmath **** #endif
 985:c:\program files (x86)\gnu tools arm embedded\6 2017-q2-update\arm-none-eabi\include\c++\6.3.1\cmath **** 
 986:c:\program files (x86)\gnu tools arm embedded\6 2017-q2-update\arm-none-eabi\include\c++\6.3.1\cmath **** #if __cplusplus >= 201103L
 987:c:\program files (x86)\gnu tools arm embedded\6 2017-q2-update\arm-none-eabi\include\c++\6.3.1\cmath **** 
 988:c:\program files (x86)\gnu tools arm embedded\6 2017-q2-update\arm-none-eabi\include\c++\6.3.1\cmath **** #ifdef _GLIBCXX_USE_C99_MATH_TR1
 989:c:\program files (x86)\gnu tools arm embedded\6 2017-q2-update\arm-none-eabi\include\c++\6.3.1\cmath **** 
 990:c:\program files (x86)\gnu tools arm embedded\6 2017-q2-update\arm-none-eabi\include\c++\6.3.1\cmath **** #undef acosh
 991:c:\program files (x86)\gnu tools arm embedded\6 2017-q2-update\arm-none-eabi\include\c++\6.3.1\cmath **** #undef acoshf
 992:c:\program files (x86)\gnu tools arm embedded\6 2017-q2-update\arm-none-eabi\include\c++\6.3.1\cmath **** #undef acoshl
 993:c:\program files (x86)\gnu tools arm embedded\6 2017-q2-update\arm-none-eabi\include\c++\6.3.1\cmath **** #undef asinh
 994:c:\program files (x86)\gnu tools arm embedded\6 2017-q2-update\arm-none-eabi\include\c++\6.3.1\cmath **** #undef asinhf
 995:c:\program files (x86)\gnu tools arm embedded\6 2017-q2-update\arm-none-eabi\include\c++\6.3.1\cmath **** #undef asinhl
 996:c:\program files (x86)\gnu tools arm embedded\6 2017-q2-update\arm-none-eabi\include\c++\6.3.1\cmath **** #undef atanh
 997:c:\program files (x86)\gnu tools arm embedded\6 2017-q2-update\arm-none-eabi\include\c++\6.3.1\cmath **** #undef atanhf
 998:c:\program files (x86)\gnu tools arm embedded\6 2017-q2-update\arm-none-eabi\include\c++\6.3.1\cmath **** #undef atanhl
 999:c:\program files (x86)\gnu tools arm embedded\6 2017-q2-update\arm-none-eabi\include\c++\6.3.1\cmath **** #undef cbrt
1000:c:\program files (x86)\gnu tools arm embedded\6 2017-q2-update\arm-none-eabi\include\c++\6.3.1\cmath **** #undef cbrtf
1001:c:\program files (x86)\gnu tools arm embedded\6 2017-q2-update\arm-none-eabi\include\c++\6.3.1\cmath **** #undef cbrtl
1002:c:\program files (x86)\gnu tools arm embedded\6 2017-q2-update\arm-none-eabi\include\c++\6.3.1\cmath **** #undef copysign
1003:c:\program files (x86)\gnu tools arm embedded\6 2017-q2-update\arm-none-eabi\include\c++\6.3.1\cmath **** #undef copysignf
1004:c:\program files (x86)\gnu tools arm embedded\6 2017-q2-update\arm-none-eabi\include\c++\6.3.1\cmath **** #undef copysignl
1005:c:\program files (x86)\gnu tools arm embedded\6 2017-q2-update\arm-none-eabi\include\c++\6.3.1\cmath **** #undef erf
1006:c:\program files (x86)\gnu tools arm embedded\6 2017-q2-update\arm-none-eabi\include\c++\6.3.1\cmath **** #undef erff
1007:c:\program files (x86)\gnu tools arm embedded\6 2017-q2-update\arm-none-eabi\include\c++\6.3.1\cmath **** #undef erfl
1008:c:\program files (x86)\gnu tools arm embedded\6 2017-q2-update\arm-none-eabi\include\c++\6.3.1\cmath **** #undef erfc
1009:c:\program files (x86)\gnu tools arm embedded\6 2017-q2-update\arm-none-eabi\include\c++\6.3.1\cmath **** #undef erfcf
1010:c:\program files (x86)\gnu tools arm embedded\6 2017-q2-update\arm-none-eabi\include\c++\6.3.1\cmath **** #undef erfcl
1011:c:\program files (x86)\gnu tools arm embedded\6 2017-q2-update\arm-none-eabi\include\c++\6.3.1\cmath **** #undef exp2
1012:c:\program files (x86)\gnu tools arm embedded\6 2017-q2-update\arm-none-eabi\include\c++\6.3.1\cmath **** #undef exp2f
1013:c:\program files (x86)\gnu tools arm embedded\6 2017-q2-update\arm-none-eabi\include\c++\6.3.1\cmath **** #undef exp2l
1014:c:\program files (x86)\gnu tools arm embedded\6 2017-q2-update\arm-none-eabi\include\c++\6.3.1\cmath **** #undef expm1
1015:c:\program files (x86)\gnu tools arm embedded\6 2017-q2-update\arm-none-eabi\include\c++\6.3.1\cmath **** #undef expm1f
1016:c:\program files (x86)\gnu tools arm embedded\6 2017-q2-update\arm-none-eabi\include\c++\6.3.1\cmath **** #undef expm1l
1017:c:\program files (x86)\gnu tools arm embedded\6 2017-q2-update\arm-none-eabi\include\c++\6.3.1\cmath **** #undef fdim
1018:c:\program files (x86)\gnu tools arm embedded\6 2017-q2-update\arm-none-eabi\include\c++\6.3.1\cmath **** #undef fdimf
1019:c:\program files (x86)\gnu tools arm embedded\6 2017-q2-update\arm-none-eabi\include\c++\6.3.1\cmath **** #undef fdiml
1020:c:\program files (x86)\gnu tools arm embedded\6 2017-q2-update\arm-none-eabi\include\c++\6.3.1\cmath **** #undef fma
1021:c:\program files (x86)\gnu tools arm embedded\6 2017-q2-update\arm-none-eabi\include\c++\6.3.1\cmath **** #undef fmaf
1022:c:\program files (x86)\gnu tools arm embedded\6 2017-q2-update\arm-none-eabi\include\c++\6.3.1\cmath **** #undef fmal
1023:c:\program files (x86)\gnu tools arm embedded\6 2017-q2-update\arm-none-eabi\include\c++\6.3.1\cmath **** #undef fmax
1024:c:\program files (x86)\gnu tools arm embedded\6 2017-q2-update\arm-none-eabi\include\c++\6.3.1\cmath **** #undef fmaxf
1025:c:\program files (x86)\gnu tools arm embedded\6 2017-q2-update\arm-none-eabi\include\c++\6.3.1\cmath **** #undef fmaxl
1026:c:\program files (x86)\gnu tools arm embedded\6 2017-q2-update\arm-none-eabi\include\c++\6.3.1\cmath **** #undef fmin
1027:c:\program files (x86)\gnu tools arm embedded\6 2017-q2-update\arm-none-eabi\include\c++\6.3.1\cmath **** #undef fminf
1028:c:\program files (x86)\gnu tools arm embedded\6 2017-q2-update\arm-none-eabi\include\c++\6.3.1\cmath **** #undef fminl
1029:c:\program files (x86)\gnu tools arm embedded\6 2017-q2-update\arm-none-eabi\include\c++\6.3.1\cmath **** #undef hypot
1030:c:\program files (x86)\gnu tools arm embedded\6 2017-q2-update\arm-none-eabi\include\c++\6.3.1\cmath **** #undef hypotf
1031:c:\program files (x86)\gnu tools arm embedded\6 2017-q2-update\arm-none-eabi\include\c++\6.3.1\cmath **** #undef hypotl
1032:c:\program files (x86)\gnu tools arm embedded\6 2017-q2-update\arm-none-eabi\include\c++\6.3.1\cmath **** #undef ilogb
1033:c:\program files (x86)\gnu tools arm embedded\6 2017-q2-update\arm-none-eabi\include\c++\6.3.1\cmath **** #undef ilogbf
1034:c:\program files (x86)\gnu tools arm embedded\6 2017-q2-update\arm-none-eabi\include\c++\6.3.1\cmath **** #undef ilogbl
1035:c:\program files (x86)\gnu tools arm embedded\6 2017-q2-update\arm-none-eabi\include\c++\6.3.1\cmath **** #undef lgamma
1036:c:\program files (x86)\gnu tools arm embedded\6 2017-q2-update\arm-none-eabi\include\c++\6.3.1\cmath **** #undef lgammaf
1037:c:\program files (x86)\gnu tools arm embedded\6 2017-q2-update\arm-none-eabi\include\c++\6.3.1\cmath **** #undef lgammal
1038:c:\program files (x86)\gnu tools arm embedded\6 2017-q2-update\arm-none-eabi\include\c++\6.3.1\cmath **** #undef llrint
1039:c:\program files (x86)\gnu tools arm embedded\6 2017-q2-update\arm-none-eabi\include\c++\6.3.1\cmath **** #undef llrintf
1040:c:\program files (x86)\gnu tools arm embedded\6 2017-q2-update\arm-none-eabi\include\c++\6.3.1\cmath **** #undef llrintl
1041:c:\program files (x86)\gnu tools arm embedded\6 2017-q2-update\arm-none-eabi\include\c++\6.3.1\cmath **** #undef llround
1042:c:\program files (x86)\gnu tools arm embedded\6 2017-q2-update\arm-none-eabi\include\c++\6.3.1\cmath **** #undef llroundf
1043:c:\program files (x86)\gnu tools arm embedded\6 2017-q2-update\arm-none-eabi\include\c++\6.3.1\cmath **** #undef llroundl
1044:c:\program files (x86)\gnu tools arm embedded\6 2017-q2-update\arm-none-eabi\include\c++\6.3.1\cmath **** #undef log1p
1045:c:\program files (x86)\gnu tools arm embedded\6 2017-q2-update\arm-none-eabi\include\c++\6.3.1\cmath **** #undef log1pf
1046:c:\program files (x86)\gnu tools arm embedded\6 2017-q2-update\arm-none-eabi\include\c++\6.3.1\cmath **** #undef log1pl
1047:c:\program files (x86)\gnu tools arm embedded\6 2017-q2-update\arm-none-eabi\include\c++\6.3.1\cmath **** #undef log2
1048:c:\program files (x86)\gnu tools arm embedded\6 2017-q2-update\arm-none-eabi\include\c++\6.3.1\cmath **** #undef log2f
1049:c:\program files (x86)\gnu tools arm embedded\6 2017-q2-update\arm-none-eabi\include\c++\6.3.1\cmath **** #undef log2l
1050:c:\program files (x86)\gnu tools arm embedded\6 2017-q2-update\arm-none-eabi\include\c++\6.3.1\cmath **** #undef logb
1051:c:\program files (x86)\gnu tools arm embedded\6 2017-q2-update\arm-none-eabi\include\c++\6.3.1\cmath **** #undef logbf
1052:c:\program files (x86)\gnu tools arm embedded\6 2017-q2-update\arm-none-eabi\include\c++\6.3.1\cmath **** #undef logbl
1053:c:\program files (x86)\gnu tools arm embedded\6 2017-q2-update\arm-none-eabi\include\c++\6.3.1\cmath **** #undef lrint
1054:c:\program files (x86)\gnu tools arm embedded\6 2017-q2-update\arm-none-eabi\include\c++\6.3.1\cmath **** #undef lrintf
1055:c:\program files (x86)\gnu tools arm embedded\6 2017-q2-update\arm-none-eabi\include\c++\6.3.1\cmath **** #undef lrintl
1056:c:\program files (x86)\gnu tools arm embedded\6 2017-q2-update\arm-none-eabi\include\c++\6.3.1\cmath **** #undef lround
1057:c:\program files (x86)\gnu tools arm embedded\6 2017-q2-update\arm-none-eabi\include\c++\6.3.1\cmath **** #undef lroundf
1058:c:\program files (x86)\gnu tools arm embedded\6 2017-q2-update\arm-none-eabi\include\c++\6.3.1\cmath **** #undef lroundl
1059:c:\program files (x86)\gnu tools arm embedded\6 2017-q2-update\arm-none-eabi\include\c++\6.3.1\cmath **** #undef nan
1060:c:\program files (x86)\gnu tools arm embedded\6 2017-q2-update\arm-none-eabi\include\c++\6.3.1\cmath **** #undef nanf
1061:c:\program files (x86)\gnu tools arm embedded\6 2017-q2-update\arm-none-eabi\include\c++\6.3.1\cmath **** #undef nanl
1062:c:\program files (x86)\gnu tools arm embedded\6 2017-q2-update\arm-none-eabi\include\c++\6.3.1\cmath **** #undef nearbyint
1063:c:\program files (x86)\gnu tools arm embedded\6 2017-q2-update\arm-none-eabi\include\c++\6.3.1\cmath **** #undef nearbyintf
1064:c:\program files (x86)\gnu tools arm embedded\6 2017-q2-update\arm-none-eabi\include\c++\6.3.1\cmath **** #undef nearbyintl
1065:c:\program files (x86)\gnu tools arm embedded\6 2017-q2-update\arm-none-eabi\include\c++\6.3.1\cmath **** #undef nextafter
1066:c:\program files (x86)\gnu tools arm embedded\6 2017-q2-update\arm-none-eabi\include\c++\6.3.1\cmath **** #undef nextafterf
1067:c:\program files (x86)\gnu tools arm embedded\6 2017-q2-update\arm-none-eabi\include\c++\6.3.1\cmath **** #undef nextafterl
1068:c:\program files (x86)\gnu tools arm embedded\6 2017-q2-update\arm-none-eabi\include\c++\6.3.1\cmath **** #undef nexttoward
1069:c:\program files (x86)\gnu tools arm embedded\6 2017-q2-update\arm-none-eabi\include\c++\6.3.1\cmath **** #undef nexttowardf
1070:c:\program files (x86)\gnu tools arm embedded\6 2017-q2-update\arm-none-eabi\include\c++\6.3.1\cmath **** #undef nexttowardl
1071:c:\program files (x86)\gnu tools arm embedded\6 2017-q2-update\arm-none-eabi\include\c++\6.3.1\cmath **** #undef remainder
1072:c:\program files (x86)\gnu tools arm embedded\6 2017-q2-update\arm-none-eabi\include\c++\6.3.1\cmath **** #undef remainderf
1073:c:\program files (x86)\gnu tools arm embedded\6 2017-q2-update\arm-none-eabi\include\c++\6.3.1\cmath **** #undef remainderl
1074:c:\program files (x86)\gnu tools arm embedded\6 2017-q2-update\arm-none-eabi\include\c++\6.3.1\cmath **** #undef remquo
1075:c:\program files (x86)\gnu tools arm embedded\6 2017-q2-update\arm-none-eabi\include\c++\6.3.1\cmath **** #undef remquof
1076:c:\program files (x86)\gnu tools arm embedded\6 2017-q2-update\arm-none-eabi\include\c++\6.3.1\cmath **** #undef remquol
1077:c:\program files (x86)\gnu tools arm embedded\6 2017-q2-update\arm-none-eabi\include\c++\6.3.1\cmath **** #undef rint
1078:c:\program files (x86)\gnu tools arm embedded\6 2017-q2-update\arm-none-eabi\include\c++\6.3.1\cmath **** #undef rintf
1079:c:\program files (x86)\gnu tools arm embedded\6 2017-q2-update\arm-none-eabi\include\c++\6.3.1\cmath **** #undef rintl
1080:c:\program files (x86)\gnu tools arm embedded\6 2017-q2-update\arm-none-eabi\include\c++\6.3.1\cmath **** #undef round
1081:c:\program files (x86)\gnu tools arm embedded\6 2017-q2-update\arm-none-eabi\include\c++\6.3.1\cmath **** #undef roundf
1082:c:\program files (x86)\gnu tools arm embedded\6 2017-q2-update\arm-none-eabi\include\c++\6.3.1\cmath **** #undef roundl
1083:c:\program files (x86)\gnu tools arm embedded\6 2017-q2-update\arm-none-eabi\include\c++\6.3.1\cmath **** #undef scalbln
1084:c:\program files (x86)\gnu tools arm embedded\6 2017-q2-update\arm-none-eabi\include\c++\6.3.1\cmath **** #undef scalblnf
1085:c:\program files (x86)\gnu tools arm embedded\6 2017-q2-update\arm-none-eabi\include\c++\6.3.1\cmath **** #undef scalblnl
1086:c:\program files (x86)\gnu tools arm embedded\6 2017-q2-update\arm-none-eabi\include\c++\6.3.1\cmath **** #undef scalbn
1087:c:\program files (x86)\gnu tools arm embedded\6 2017-q2-update\arm-none-eabi\include\c++\6.3.1\cmath **** #undef scalbnf
1088:c:\program files (x86)\gnu tools arm embedded\6 2017-q2-update\arm-none-eabi\include\c++\6.3.1\cmath **** #undef scalbnl
1089:c:\program files (x86)\gnu tools arm embedded\6 2017-q2-update\arm-none-eabi\include\c++\6.3.1\cmath **** #undef tgamma
1090:c:\program files (x86)\gnu tools arm embedded\6 2017-q2-update\arm-none-eabi\include\c++\6.3.1\cmath **** #undef tgammaf
1091:c:\program files (x86)\gnu tools arm embedded\6 2017-q2-update\arm-none-eabi\include\c++\6.3.1\cmath **** #undef tgammal
1092:c:\program files (x86)\gnu tools arm embedded\6 2017-q2-update\arm-none-eabi\include\c++\6.3.1\cmath **** #undef trunc
1093:c:\program files (x86)\gnu tools arm embedded\6 2017-q2-update\arm-none-eabi\include\c++\6.3.1\cmath **** #undef truncf
1094:c:\program files (x86)\gnu tools arm embedded\6 2017-q2-update\arm-none-eabi\include\c++\6.3.1\cmath **** #undef truncl
1095:c:\program files (x86)\gnu tools arm embedded\6 2017-q2-update\arm-none-eabi\include\c++\6.3.1\cmath **** 
1096:c:\program files (x86)\gnu tools arm embedded\6 2017-q2-update\arm-none-eabi\include\c++\6.3.1\cmath **** namespace std _GLIBCXX_VISIBILITY(default)
1097:c:\program files (x86)\gnu tools arm embedded\6 2017-q2-update\arm-none-eabi\include\c++\6.3.1\cmath **** {
1098:c:\program files (x86)\gnu tools arm embedded\6 2017-q2-update\arm-none-eabi\include\c++\6.3.1\cmath **** _GLIBCXX_BEGIN_NAMESPACE_VERSION
1099:c:\program files (x86)\gnu tools arm embedded\6 2017-q2-update\arm-none-eabi\include\c++\6.3.1\cmath **** 
1100:c:\program files (x86)\gnu tools arm embedded\6 2017-q2-update\arm-none-eabi\include\c++\6.3.1\cmath ****   // types
1101:c:\program files (x86)\gnu tools arm embedded\6 2017-q2-update\arm-none-eabi\include\c++\6.3.1\cmath ****   using ::double_t;
1102:c:\program files (x86)\gnu tools arm embedded\6 2017-q2-update\arm-none-eabi\include\c++\6.3.1\cmath ****   using ::float_t;
1103:c:\program files (x86)\gnu tools arm embedded\6 2017-q2-update\arm-none-eabi\include\c++\6.3.1\cmath **** 
1104:c:\program files (x86)\gnu tools arm embedded\6 2017-q2-update\arm-none-eabi\include\c++\6.3.1\cmath ****   // functions
1105:c:\program files (x86)\gnu tools arm embedded\6 2017-q2-update\arm-none-eabi\include\c++\6.3.1\cmath ****   using ::acosh;
1106:c:\program files (x86)\gnu tools arm embedded\6 2017-q2-update\arm-none-eabi\include\c++\6.3.1\cmath ****   using ::acoshf;
1107:c:\program files (x86)\gnu tools arm embedded\6 2017-q2-update\arm-none-eabi\include\c++\6.3.1\cmath ****   using ::acoshl;
1108:c:\program files (x86)\gnu tools arm embedded\6 2017-q2-update\arm-none-eabi\include\c++\6.3.1\cmath **** 
1109:c:\program files (x86)\gnu tools arm embedded\6 2017-q2-update\arm-none-eabi\include\c++\6.3.1\cmath ****   using ::asinh;
1110:c:\program files (x86)\gnu tools arm embedded\6 2017-q2-update\arm-none-eabi\include\c++\6.3.1\cmath ****   using ::asinhf;
1111:c:\program files (x86)\gnu tools arm embedded\6 2017-q2-update\arm-none-eabi\include\c++\6.3.1\cmath ****   using ::asinhl;
1112:c:\program files (x86)\gnu tools arm embedded\6 2017-q2-update\arm-none-eabi\include\c++\6.3.1\cmath **** 
1113:c:\program files (x86)\gnu tools arm embedded\6 2017-q2-update\arm-none-eabi\include\c++\6.3.1\cmath ****   using ::atanh;
1114:c:\program files (x86)\gnu tools arm embedded\6 2017-q2-update\arm-none-eabi\include\c++\6.3.1\cmath ****   using ::atanhf;
1115:c:\program files (x86)\gnu tools arm embedded\6 2017-q2-update\arm-none-eabi\include\c++\6.3.1\cmath ****   using ::atanhl;
1116:c:\program files (x86)\gnu tools arm embedded\6 2017-q2-update\arm-none-eabi\include\c++\6.3.1\cmath **** 
1117:c:\program files (x86)\gnu tools arm embedded\6 2017-q2-update\arm-none-eabi\include\c++\6.3.1\cmath ****   using ::cbrt;
1118:c:\program files (x86)\gnu tools arm embedded\6 2017-q2-update\arm-none-eabi\include\c++\6.3.1\cmath ****   using ::cbrtf;
1119:c:\program files (x86)\gnu tools arm embedded\6 2017-q2-update\arm-none-eabi\include\c++\6.3.1\cmath ****   using ::cbrtl;
1120:c:\program files (x86)\gnu tools arm embedded\6 2017-q2-update\arm-none-eabi\include\c++\6.3.1\cmath **** 
1121:c:\program files (x86)\gnu tools arm embedded\6 2017-q2-update\arm-none-eabi\include\c++\6.3.1\cmath ****   using ::copysign;
1122:c:\program files (x86)\gnu tools arm embedded\6 2017-q2-update\arm-none-eabi\include\c++\6.3.1\cmath ****   using ::copysignf;
1123:c:\program files (x86)\gnu tools arm embedded\6 2017-q2-update\arm-none-eabi\include\c++\6.3.1\cmath ****   using ::copysignl;
1124:c:\program files (x86)\gnu tools arm embedded\6 2017-q2-update\arm-none-eabi\include\c++\6.3.1\cmath **** 
1125:c:\program files (x86)\gnu tools arm embedded\6 2017-q2-update\arm-none-eabi\include\c++\6.3.1\cmath ****   using ::erf;
1126:c:\program files (x86)\gnu tools arm embedded\6 2017-q2-update\arm-none-eabi\include\c++\6.3.1\cmath ****   using ::erff;
1127:c:\program files (x86)\gnu tools arm embedded\6 2017-q2-update\arm-none-eabi\include\c++\6.3.1\cmath ****   using ::erfl;
1128:c:\program files (x86)\gnu tools arm embedded\6 2017-q2-update\arm-none-eabi\include\c++\6.3.1\cmath **** 
1129:c:\program files (x86)\gnu tools arm embedded\6 2017-q2-update\arm-none-eabi\include\c++\6.3.1\cmath ****   using ::erfc;
1130:c:\program files (x86)\gnu tools arm embedded\6 2017-q2-update\arm-none-eabi\include\c++\6.3.1\cmath ****   using ::erfcf;
1131:c:\program files (x86)\gnu tools arm embedded\6 2017-q2-update\arm-none-eabi\include\c++\6.3.1\cmath ****   using ::erfcl;
1132:c:\program files (x86)\gnu tools arm embedded\6 2017-q2-update\arm-none-eabi\include\c++\6.3.1\cmath **** 
1133:c:\program files (x86)\gnu tools arm embedded\6 2017-q2-update\arm-none-eabi\include\c++\6.3.1\cmath ****   using ::exp2;
1134:c:\program files (x86)\gnu tools arm embedded\6 2017-q2-update\arm-none-eabi\include\c++\6.3.1\cmath ****   using ::exp2f;
1135:c:\program files (x86)\gnu tools arm embedded\6 2017-q2-update\arm-none-eabi\include\c++\6.3.1\cmath ****   using ::exp2l;
1136:c:\program files (x86)\gnu tools arm embedded\6 2017-q2-update\arm-none-eabi\include\c++\6.3.1\cmath **** 
1137:c:\program files (x86)\gnu tools arm embedded\6 2017-q2-update\arm-none-eabi\include\c++\6.3.1\cmath ****   using ::expm1;
1138:c:\program files (x86)\gnu tools arm embedded\6 2017-q2-update\arm-none-eabi\include\c++\6.3.1\cmath ****   using ::expm1f;
1139:c:\program files (x86)\gnu tools arm embedded\6 2017-q2-update\arm-none-eabi\include\c++\6.3.1\cmath ****   using ::expm1l;
1140:c:\program files (x86)\gnu tools arm embedded\6 2017-q2-update\arm-none-eabi\include\c++\6.3.1\cmath **** 
1141:c:\program files (x86)\gnu tools arm embedded\6 2017-q2-update\arm-none-eabi\include\c++\6.3.1\cmath ****   using ::fdim;
1142:c:\program files (x86)\gnu tools arm embedded\6 2017-q2-update\arm-none-eabi\include\c++\6.3.1\cmath ****   using ::fdimf;
1143:c:\program files (x86)\gnu tools arm embedded\6 2017-q2-update\arm-none-eabi\include\c++\6.3.1\cmath ****   using ::fdiml;
1144:c:\program files (x86)\gnu tools arm embedded\6 2017-q2-update\arm-none-eabi\include\c++\6.3.1\cmath **** 
1145:c:\program files (x86)\gnu tools arm embedded\6 2017-q2-update\arm-none-eabi\include\c++\6.3.1\cmath ****   using ::fma;
1146:c:\program files (x86)\gnu tools arm embedded\6 2017-q2-update\arm-none-eabi\include\c++\6.3.1\cmath ****   using ::fmaf;
1147:c:\program files (x86)\gnu tools arm embedded\6 2017-q2-update\arm-none-eabi\include\c++\6.3.1\cmath ****   using ::fmal;
1148:c:\program files (x86)\gnu tools arm embedded\6 2017-q2-update\arm-none-eabi\include\c++\6.3.1\cmath **** 
1149:c:\program files (x86)\gnu tools arm embedded\6 2017-q2-update\arm-none-eabi\include\c++\6.3.1\cmath ****   using ::fmax;
1150:c:\program files (x86)\gnu tools arm embedded\6 2017-q2-update\arm-none-eabi\include\c++\6.3.1\cmath ****   using ::fmaxf;
1151:c:\program files (x86)\gnu tools arm embedded\6 2017-q2-update\arm-none-eabi\include\c++\6.3.1\cmath ****   using ::fmaxl;
1152:c:\program files (x86)\gnu tools arm embedded\6 2017-q2-update\arm-none-eabi\include\c++\6.3.1\cmath **** 
1153:c:\program files (x86)\gnu tools arm embedded\6 2017-q2-update\arm-none-eabi\include\c++\6.3.1\cmath ****   using ::fmin;
1154:c:\program files (x86)\gnu tools arm embedded\6 2017-q2-update\arm-none-eabi\include\c++\6.3.1\cmath ****   using ::fminf;
1155:c:\program files (x86)\gnu tools arm embedded\6 2017-q2-update\arm-none-eabi\include\c++\6.3.1\cmath ****   using ::fminl;
1156:c:\program files (x86)\gnu tools arm embedded\6 2017-q2-update\arm-none-eabi\include\c++\6.3.1\cmath **** 
1157:c:\program files (x86)\gnu tools arm embedded\6 2017-q2-update\arm-none-eabi\include\c++\6.3.1\cmath ****   using ::hypot;
1158:c:\program files (x86)\gnu tools arm embedded\6 2017-q2-update\arm-none-eabi\include\c++\6.3.1\cmath ****   using ::hypotf;
1159:c:\program files (x86)\gnu tools arm embedded\6 2017-q2-update\arm-none-eabi\include\c++\6.3.1\cmath ****   using ::hypotl;
1160:c:\program files (x86)\gnu tools arm embedded\6 2017-q2-update\arm-none-eabi\include\c++\6.3.1\cmath **** 
1161:c:\program files (x86)\gnu tools arm embedded\6 2017-q2-update\arm-none-eabi\include\c++\6.3.1\cmath ****   using ::ilogb;
1162:c:\program files (x86)\gnu tools arm embedded\6 2017-q2-update\arm-none-eabi\include\c++\6.3.1\cmath ****   using ::ilogbf;
1163:c:\program files (x86)\gnu tools arm embedded\6 2017-q2-update\arm-none-eabi\include\c++\6.3.1\cmath ****   using ::ilogbl;
1164:c:\program files (x86)\gnu tools arm embedded\6 2017-q2-update\arm-none-eabi\include\c++\6.3.1\cmath **** 
1165:c:\program files (x86)\gnu tools arm embedded\6 2017-q2-update\arm-none-eabi\include\c++\6.3.1\cmath ****   using ::lgamma;
1166:c:\program files (x86)\gnu tools arm embedded\6 2017-q2-update\arm-none-eabi\include\c++\6.3.1\cmath ****   using ::lgammaf;
1167:c:\program files (x86)\gnu tools arm embedded\6 2017-q2-update\arm-none-eabi\include\c++\6.3.1\cmath ****   using ::lgammal;
1168:c:\program files (x86)\gnu tools arm embedded\6 2017-q2-update\arm-none-eabi\include\c++\6.3.1\cmath **** 
1169:c:\program files (x86)\gnu tools arm embedded\6 2017-q2-update\arm-none-eabi\include\c++\6.3.1\cmath ****   using ::llrint;
1170:c:\program files (x86)\gnu tools arm embedded\6 2017-q2-update\arm-none-eabi\include\c++\6.3.1\cmath ****   using ::llrintf;
1171:c:\program files (x86)\gnu tools arm embedded\6 2017-q2-update\arm-none-eabi\include\c++\6.3.1\cmath ****   using ::llrintl;
1172:c:\program files (x86)\gnu tools arm embedded\6 2017-q2-update\arm-none-eabi\include\c++\6.3.1\cmath **** 
1173:c:\program files (x86)\gnu tools arm embedded\6 2017-q2-update\arm-none-eabi\include\c++\6.3.1\cmath ****   using ::llround;
1174:c:\program files (x86)\gnu tools arm embedded\6 2017-q2-update\arm-none-eabi\include\c++\6.3.1\cmath ****   using ::llroundf;
1175:c:\program files (x86)\gnu tools arm embedded\6 2017-q2-update\arm-none-eabi\include\c++\6.3.1\cmath ****   using ::llroundl;
1176:c:\program files (x86)\gnu tools arm embedded\6 2017-q2-update\arm-none-eabi\include\c++\6.3.1\cmath **** 
1177:c:\program files (x86)\gnu tools arm embedded\6 2017-q2-update\arm-none-eabi\include\c++\6.3.1\cmath ****   using ::log1p;
1178:c:\program files (x86)\gnu tools arm embedded\6 2017-q2-update\arm-none-eabi\include\c++\6.3.1\cmath ****   using ::log1pf;
1179:c:\program files (x86)\gnu tools arm embedded\6 2017-q2-update\arm-none-eabi\include\c++\6.3.1\cmath ****   using ::log1pl;
1180:c:\program files (x86)\gnu tools arm embedded\6 2017-q2-update\arm-none-eabi\include\c++\6.3.1\cmath **** 
1181:c:\program files (x86)\gnu tools arm embedded\6 2017-q2-update\arm-none-eabi\include\c++\6.3.1\cmath ****   using ::log2;
1182:c:\program files (x86)\gnu tools arm embedded\6 2017-q2-update\arm-none-eabi\include\c++\6.3.1\cmath ****   using ::log2f;
1183:c:\program files (x86)\gnu tools arm embedded\6 2017-q2-update\arm-none-eabi\include\c++\6.3.1\cmath ****   using ::log2l;
1184:c:\program files (x86)\gnu tools arm embedded\6 2017-q2-update\arm-none-eabi\include\c++\6.3.1\cmath **** 
1185:c:\program files (x86)\gnu tools arm embedded\6 2017-q2-update\arm-none-eabi\include\c++\6.3.1\cmath ****   using ::logb;
1186:c:\program files (x86)\gnu tools arm embedded\6 2017-q2-update\arm-none-eabi\include\c++\6.3.1\cmath ****   using ::logbf;
1187:c:\program files (x86)\gnu tools arm embedded\6 2017-q2-update\arm-none-eabi\include\c++\6.3.1\cmath ****   using ::logbl;
1188:c:\program files (x86)\gnu tools arm embedded\6 2017-q2-update\arm-none-eabi\include\c++\6.3.1\cmath **** 
1189:c:\program files (x86)\gnu tools arm embedded\6 2017-q2-update\arm-none-eabi\include\c++\6.3.1\cmath ****   using ::lrint;
1190:c:\program files (x86)\gnu tools arm embedded\6 2017-q2-update\arm-none-eabi\include\c++\6.3.1\cmath ****   using ::lrintf;
1191:c:\program files (x86)\gnu tools arm embedded\6 2017-q2-update\arm-none-eabi\include\c++\6.3.1\cmath ****   using ::lrintl;
1192:c:\program files (x86)\gnu tools arm embedded\6 2017-q2-update\arm-none-eabi\include\c++\6.3.1\cmath **** 
1193:c:\program files (x86)\gnu tools arm embedded\6 2017-q2-update\arm-none-eabi\include\c++\6.3.1\cmath ****   using ::lround;
1194:c:\program files (x86)\gnu tools arm embedded\6 2017-q2-update\arm-none-eabi\include\c++\6.3.1\cmath ****   using ::lroundf;
1195:c:\program files (x86)\gnu tools arm embedded\6 2017-q2-update\arm-none-eabi\include\c++\6.3.1\cmath ****   using ::lroundl;
1196:c:\program files (x86)\gnu tools arm embedded\6 2017-q2-update\arm-none-eabi\include\c++\6.3.1\cmath **** 
1197:c:\program files (x86)\gnu tools arm embedded\6 2017-q2-update\arm-none-eabi\include\c++\6.3.1\cmath ****   using ::nan;
1198:c:\program files (x86)\gnu tools arm embedded\6 2017-q2-update\arm-none-eabi\include\c++\6.3.1\cmath ****   using ::nanf;
1199:c:\program files (x86)\gnu tools arm embedded\6 2017-q2-update\arm-none-eabi\include\c++\6.3.1\cmath ****   using ::nanl;
1200:c:\program files (x86)\gnu tools arm embedded\6 2017-q2-update\arm-none-eabi\include\c++\6.3.1\cmath **** 
1201:c:\program files (x86)\gnu tools arm embedded\6 2017-q2-update\arm-none-eabi\include\c++\6.3.1\cmath ****   using ::nearbyint;
1202:c:\program files (x86)\gnu tools arm embedded\6 2017-q2-update\arm-none-eabi\include\c++\6.3.1\cmath ****   using ::nearbyintf;
1203:c:\program files (x86)\gnu tools arm embedded\6 2017-q2-update\arm-none-eabi\include\c++\6.3.1\cmath ****   using ::nearbyintl;
1204:c:\program files (x86)\gnu tools arm embedded\6 2017-q2-update\arm-none-eabi\include\c++\6.3.1\cmath **** 
1205:c:\program files (x86)\gnu tools arm embedded\6 2017-q2-update\arm-none-eabi\include\c++\6.3.1\cmath ****   using ::nextafter;
1206:c:\program files (x86)\gnu tools arm embedded\6 2017-q2-update\arm-none-eabi\include\c++\6.3.1\cmath ****   using ::nextafterf;
1207:c:\program files (x86)\gnu tools arm embedded\6 2017-q2-update\arm-none-eabi\include\c++\6.3.1\cmath ****   using ::nextafterl;
1208:c:\program files (x86)\gnu tools arm embedded\6 2017-q2-update\arm-none-eabi\include\c++\6.3.1\cmath **** 
1209:c:\program files (x86)\gnu tools arm embedded\6 2017-q2-update\arm-none-eabi\include\c++\6.3.1\cmath ****   using ::nexttoward;
1210:c:\program files (x86)\gnu tools arm embedded\6 2017-q2-update\arm-none-eabi\include\c++\6.3.1\cmath ****   using ::nexttowardf;
1211:c:\program files (x86)\gnu tools arm embedded\6 2017-q2-update\arm-none-eabi\include\c++\6.3.1\cmath ****   using ::nexttowardl;
1212:c:\program files (x86)\gnu tools arm embedded\6 2017-q2-update\arm-none-eabi\include\c++\6.3.1\cmath **** 
1213:c:\program files (x86)\gnu tools arm embedded\6 2017-q2-update\arm-none-eabi\include\c++\6.3.1\cmath ****   using ::remainder;
1214:c:\program files (x86)\gnu tools arm embedded\6 2017-q2-update\arm-none-eabi\include\c++\6.3.1\cmath ****   using ::remainderf;
1215:c:\program files (x86)\gnu tools arm embedded\6 2017-q2-update\arm-none-eabi\include\c++\6.3.1\cmath ****   using ::remainderl;
1216:c:\program files (x86)\gnu tools arm embedded\6 2017-q2-update\arm-none-eabi\include\c++\6.3.1\cmath **** 
1217:c:\program files (x86)\gnu tools arm embedded\6 2017-q2-update\arm-none-eabi\include\c++\6.3.1\cmath ****   using ::remquo;
1218:c:\program files (x86)\gnu tools arm embedded\6 2017-q2-update\arm-none-eabi\include\c++\6.3.1\cmath ****   using ::remquof;
1219:c:\program files (x86)\gnu tools arm embedded\6 2017-q2-update\arm-none-eabi\include\c++\6.3.1\cmath ****   using ::remquol;
1220:c:\program files (x86)\gnu tools arm embedded\6 2017-q2-update\arm-none-eabi\include\c++\6.3.1\cmath **** 
1221:c:\program files (x86)\gnu tools arm embedded\6 2017-q2-update\arm-none-eabi\include\c++\6.3.1\cmath ****   using ::rint;
1222:c:\program files (x86)\gnu tools arm embedded\6 2017-q2-update\arm-none-eabi\include\c++\6.3.1\cmath ****   using ::rintf;
1223:c:\program files (x86)\gnu tools arm embedded\6 2017-q2-update\arm-none-eabi\include\c++\6.3.1\cmath ****   using ::rintl;
1224:c:\program files (x86)\gnu tools arm embedded\6 2017-q2-update\arm-none-eabi\include\c++\6.3.1\cmath **** 
1225:c:\program files (x86)\gnu tools arm embedded\6 2017-q2-update\arm-none-eabi\include\c++\6.3.1\cmath ****   using ::round;
1226:c:\program files (x86)\gnu tools arm embedded\6 2017-q2-update\arm-none-eabi\include\c++\6.3.1\cmath ****   using ::roundf;
1227:c:\program files (x86)\gnu tools arm embedded\6 2017-q2-update\arm-none-eabi\include\c++\6.3.1\cmath ****   using ::roundl;
1228:c:\program files (x86)\gnu tools arm embedded\6 2017-q2-update\arm-none-eabi\include\c++\6.3.1\cmath **** 
1229:c:\program files (x86)\gnu tools arm embedded\6 2017-q2-update\arm-none-eabi\include\c++\6.3.1\cmath ****   using ::scalbln;
1230:c:\program files (x86)\gnu tools arm embedded\6 2017-q2-update\arm-none-eabi\include\c++\6.3.1\cmath ****   using ::scalblnf;
1231:c:\program files (x86)\gnu tools arm embedded\6 2017-q2-update\arm-none-eabi\include\c++\6.3.1\cmath ****   using ::scalblnl;
1232:c:\program files (x86)\gnu tools arm embedded\6 2017-q2-update\arm-none-eabi\include\c++\6.3.1\cmath **** 
1233:c:\program files (x86)\gnu tools arm embedded\6 2017-q2-update\arm-none-eabi\include\c++\6.3.1\cmath ****   using ::scalbn;
1234:c:\program files (x86)\gnu tools arm embedded\6 2017-q2-update\arm-none-eabi\include\c++\6.3.1\cmath ****   using ::scalbnf;
1235:c:\program files (x86)\gnu tools arm embedded\6 2017-q2-update\arm-none-eabi\include\c++\6.3.1\cmath ****   using ::scalbnl;
1236:c:\program files (x86)\gnu tools arm embedded\6 2017-q2-update\arm-none-eabi\include\c++\6.3.1\cmath **** 
1237:c:\program files (x86)\gnu tools arm embedded\6 2017-q2-update\arm-none-eabi\include\c++\6.3.1\cmath ****   using ::tgamma;
1238:c:\program files (x86)\gnu tools arm embedded\6 2017-q2-update\arm-none-eabi\include\c++\6.3.1\cmath ****   using ::tgammaf;
1239:c:\program files (x86)\gnu tools arm embedded\6 2017-q2-update\arm-none-eabi\include\c++\6.3.1\cmath ****   using ::tgammal;
1240:c:\program files (x86)\gnu tools arm embedded\6 2017-q2-update\arm-none-eabi\include\c++\6.3.1\cmath **** 
1241:c:\program files (x86)\gnu tools arm embedded\6 2017-q2-update\arm-none-eabi\include\c++\6.3.1\cmath ****   using ::trunc;
1242:c:\program files (x86)\gnu tools arm embedded\6 2017-q2-update\arm-none-eabi\include\c++\6.3.1\cmath ****   using ::truncf;
1243:c:\program files (x86)\gnu tools arm embedded\6 2017-q2-update\arm-none-eabi\include\c++\6.3.1\cmath ****   using ::truncl;
1244:c:\program files (x86)\gnu tools arm embedded\6 2017-q2-update\arm-none-eabi\include\c++\6.3.1\cmath **** 
1245:c:\program files (x86)\gnu tools arm embedded\6 2017-q2-update\arm-none-eabi\include\c++\6.3.1\cmath ****   /// Additional overloads.
1246:c:\program files (x86)\gnu tools arm embedded\6 2017-q2-update\arm-none-eabi\include\c++\6.3.1\cmath **** #ifndef __CORRECT_ISO_CPP11_MATH_H_PROTO_FP
1247:c:\program files (x86)\gnu tools arm embedded\6 2017-q2-update\arm-none-eabi\include\c++\6.3.1\cmath ****   constexpr float
1248:c:\program files (x86)\gnu tools arm embedded\6 2017-q2-update\arm-none-eabi\include\c++\6.3.1\cmath ****   acosh(float __x)
1249:c:\program files (x86)\gnu tools arm embedded\6 2017-q2-update\arm-none-eabi\include\c++\6.3.1\cmath ****   { return __builtin_acoshf(__x); }
1250:c:\program files (x86)\gnu tools arm embedded\6 2017-q2-update\arm-none-eabi\include\c++\6.3.1\cmath **** 
1251:c:\program files (x86)\gnu tools arm embedded\6 2017-q2-update\arm-none-eabi\include\c++\6.3.1\cmath ****   constexpr long double
1252:c:\program files (x86)\gnu tools arm embedded\6 2017-q2-update\arm-none-eabi\include\c++\6.3.1\cmath ****   acosh(long double __x)
1253:c:\program files (x86)\gnu tools arm embedded\6 2017-q2-update\arm-none-eabi\include\c++\6.3.1\cmath ****   { return __builtin_acoshl(__x); }
1254:c:\program files (x86)\gnu tools arm embedded\6 2017-q2-update\arm-none-eabi\include\c++\6.3.1\cmath **** #endif
1255:c:\program files (x86)\gnu tools arm embedded\6 2017-q2-update\arm-none-eabi\include\c++\6.3.1\cmath **** 
1256:c:\program files (x86)\gnu tools arm embedded\6 2017-q2-update\arm-none-eabi\include\c++\6.3.1\cmath **** #ifndef __CORRECT_ISO_CPP11_MATH_H_PROTO_INT
1257:c:\program files (x86)\gnu tools arm embedded\6 2017-q2-update\arm-none-eabi\include\c++\6.3.1\cmath ****   template<typename _Tp>
1258:c:\program files (x86)\gnu tools arm embedded\6 2017-q2-update\arm-none-eabi\include\c++\6.3.1\cmath ****     constexpr typename __gnu_cxx::__enable_if<__is_integer<_Tp>::__value, 
1259:c:\program files (x86)\gnu tools arm embedded\6 2017-q2-update\arm-none-eabi\include\c++\6.3.1\cmath ****                                               double>::__type
1260:c:\program files (x86)\gnu tools arm embedded\6 2017-q2-update\arm-none-eabi\include\c++\6.3.1\cmath ****     acosh(_Tp __x)
1261:c:\program files (x86)\gnu tools arm embedded\6 2017-q2-update\arm-none-eabi\include\c++\6.3.1\cmath ****     { return __builtin_acosh(__x); }
1262:c:\program files (x86)\gnu tools arm embedded\6 2017-q2-update\arm-none-eabi\include\c++\6.3.1\cmath **** #endif
1263:c:\program files (x86)\gnu tools arm embedded\6 2017-q2-update\arm-none-eabi\include\c++\6.3.1\cmath **** 
1264:c:\program files (x86)\gnu tools arm embedded\6 2017-q2-update\arm-none-eabi\include\c++\6.3.1\cmath **** #ifndef __CORRECT_ISO_CPP11_MATH_H_PROTO_FP
1265:c:\program files (x86)\gnu tools arm embedded\6 2017-q2-update\arm-none-eabi\include\c++\6.3.1\cmath ****   constexpr float
1266:c:\program files (x86)\gnu tools arm embedded\6 2017-q2-update\arm-none-eabi\include\c++\6.3.1\cmath ****   asinh(float __x)
1267:c:\program files (x86)\gnu tools arm embedded\6 2017-q2-update\arm-none-eabi\include\c++\6.3.1\cmath ****   { return __builtin_asinhf(__x); }
1268:c:\program files (x86)\gnu tools arm embedded\6 2017-q2-update\arm-none-eabi\include\c++\6.3.1\cmath **** 
1269:c:\program files (x86)\gnu tools arm embedded\6 2017-q2-update\arm-none-eabi\include\c++\6.3.1\cmath ****   constexpr long double
1270:c:\program files (x86)\gnu tools arm embedded\6 2017-q2-update\arm-none-eabi\include\c++\6.3.1\cmath ****   asinh(long double __x)
1271:c:\program files (x86)\gnu tools arm embedded\6 2017-q2-update\arm-none-eabi\include\c++\6.3.1\cmath ****   { return __builtin_asinhl(__x); }
1272:c:\program files (x86)\gnu tools arm embedded\6 2017-q2-update\arm-none-eabi\include\c++\6.3.1\cmath **** #endif
1273:c:\program files (x86)\gnu tools arm embedded\6 2017-q2-update\arm-none-eabi\include\c++\6.3.1\cmath **** 
1274:c:\program files (x86)\gnu tools arm embedded\6 2017-q2-update\arm-none-eabi\include\c++\6.3.1\cmath **** #ifndef __CORRECT_ISO_CPP11_MATH_H_PROTO_INT
1275:c:\program files (x86)\gnu tools arm embedded\6 2017-q2-update\arm-none-eabi\include\c++\6.3.1\cmath ****   template<typename _Tp>
1276:c:\program files (x86)\gnu tools arm embedded\6 2017-q2-update\arm-none-eabi\include\c++\6.3.1\cmath ****     constexpr typename __gnu_cxx::__enable_if<__is_integer<_Tp>::__value, 
1277:c:\program files (x86)\gnu tools arm embedded\6 2017-q2-update\arm-none-eabi\include\c++\6.3.1\cmath ****                                               double>::__type
1278:c:\program files (x86)\gnu tools arm embedded\6 2017-q2-update\arm-none-eabi\include\c++\6.3.1\cmath ****     asinh(_Tp __x)
1279:c:\program files (x86)\gnu tools arm embedded\6 2017-q2-update\arm-none-eabi\include\c++\6.3.1\cmath ****     { return __builtin_asinh(__x); }
1280:c:\program files (x86)\gnu tools arm embedded\6 2017-q2-update\arm-none-eabi\include\c++\6.3.1\cmath **** #endif
1281:c:\program files (x86)\gnu tools arm embedded\6 2017-q2-update\arm-none-eabi\include\c++\6.3.1\cmath **** 
1282:c:\program files (x86)\gnu tools arm embedded\6 2017-q2-update\arm-none-eabi\include\c++\6.3.1\cmath **** #ifndef __CORRECT_ISO_CPP11_MATH_H_PROTO_FP
1283:c:\program files (x86)\gnu tools arm embedded\6 2017-q2-update\arm-none-eabi\include\c++\6.3.1\cmath ****   constexpr float
1284:c:\program files (x86)\gnu tools arm embedded\6 2017-q2-update\arm-none-eabi\include\c++\6.3.1\cmath ****   atanh(float __x)
1285:c:\program files (x86)\gnu tools arm embedded\6 2017-q2-update\arm-none-eabi\include\c++\6.3.1\cmath ****   { return __builtin_atanhf(__x); }
1286:c:\program files (x86)\gnu tools arm embedded\6 2017-q2-update\arm-none-eabi\include\c++\6.3.1\cmath **** 
1287:c:\program files (x86)\gnu tools arm embedded\6 2017-q2-update\arm-none-eabi\include\c++\6.3.1\cmath ****   constexpr long double
1288:c:\program files (x86)\gnu tools arm embedded\6 2017-q2-update\arm-none-eabi\include\c++\6.3.1\cmath ****   atanh(long double __x)
1289:c:\program files (x86)\gnu tools arm embedded\6 2017-q2-update\arm-none-eabi\include\c++\6.3.1\cmath ****   { return __builtin_atanhl(__x); }
1290:c:\program files (x86)\gnu tools arm embedded\6 2017-q2-update\arm-none-eabi\include\c++\6.3.1\cmath **** #endif
1291:c:\program files (x86)\gnu tools arm embedded\6 2017-q2-update\arm-none-eabi\include\c++\6.3.1\cmath **** 
1292:c:\program files (x86)\gnu tools arm embedded\6 2017-q2-update\arm-none-eabi\include\c++\6.3.1\cmath **** #ifndef __CORRECT_ISO_CPP11_MATH_H_PROTO_INT
1293:c:\program files (x86)\gnu tools arm embedded\6 2017-q2-update\arm-none-eabi\include\c++\6.3.1\cmath ****   template<typename _Tp>
1294:c:\program files (x86)\gnu tools arm embedded\6 2017-q2-update\arm-none-eabi\include\c++\6.3.1\cmath ****     constexpr typename __gnu_cxx::__enable_if<__is_integer<_Tp>::__value, 
1295:c:\program files (x86)\gnu tools arm embedded\6 2017-q2-update\arm-none-eabi\include\c++\6.3.1\cmath ****                                               double>::__type
1296:c:\program files (x86)\gnu tools arm embedded\6 2017-q2-update\arm-none-eabi\include\c++\6.3.1\cmath ****     atanh(_Tp __x)
1297:c:\program files (x86)\gnu tools arm embedded\6 2017-q2-update\arm-none-eabi\include\c++\6.3.1\cmath ****     { return __builtin_atanh(__x); }
1298:c:\program files (x86)\gnu tools arm embedded\6 2017-q2-update\arm-none-eabi\include\c++\6.3.1\cmath **** #endif
1299:c:\program files (x86)\gnu tools arm embedded\6 2017-q2-update\arm-none-eabi\include\c++\6.3.1\cmath **** 
1300:c:\program files (x86)\gnu tools arm embedded\6 2017-q2-update\arm-none-eabi\include\c++\6.3.1\cmath **** #ifndef __CORRECT_ISO_CPP11_MATH_H_PROTO_FP
1301:c:\program files (x86)\gnu tools arm embedded\6 2017-q2-update\arm-none-eabi\include\c++\6.3.1\cmath ****   constexpr float
1302:c:\program files (x86)\gnu tools arm embedded\6 2017-q2-update\arm-none-eabi\include\c++\6.3.1\cmath ****   cbrt(float __x)
1303:c:\program files (x86)\gnu tools arm embedded\6 2017-q2-update\arm-none-eabi\include\c++\6.3.1\cmath ****   { return __builtin_cbrtf(__x); }
1304:c:\program files (x86)\gnu tools arm embedded\6 2017-q2-update\arm-none-eabi\include\c++\6.3.1\cmath **** 
1305:c:\program files (x86)\gnu tools arm embedded\6 2017-q2-update\arm-none-eabi\include\c++\6.3.1\cmath ****   constexpr long double
1306:c:\program files (x86)\gnu tools arm embedded\6 2017-q2-update\arm-none-eabi\include\c++\6.3.1\cmath ****   cbrt(long double __x)
1307:c:\program files (x86)\gnu tools arm embedded\6 2017-q2-update\arm-none-eabi\include\c++\6.3.1\cmath ****   { return __builtin_cbrtl(__x); }
1308:c:\program files (x86)\gnu tools arm embedded\6 2017-q2-update\arm-none-eabi\include\c++\6.3.1\cmath **** #endif
1309:c:\program files (x86)\gnu tools arm embedded\6 2017-q2-update\arm-none-eabi\include\c++\6.3.1\cmath **** 
1310:c:\program files (x86)\gnu tools arm embedded\6 2017-q2-update\arm-none-eabi\include\c++\6.3.1\cmath **** #ifndef __CORRECT_ISO_CPP11_MATH_H_PROTO_INT
1311:c:\program files (x86)\gnu tools arm embedded\6 2017-q2-update\arm-none-eabi\include\c++\6.3.1\cmath ****   template<typename _Tp>
1312:c:\program files (x86)\gnu tools arm embedded\6 2017-q2-update\arm-none-eabi\include\c++\6.3.1\cmath ****     constexpr typename __gnu_cxx::__enable_if<__is_integer<_Tp>::__value, 
1313:c:\program files (x86)\gnu tools arm embedded\6 2017-q2-update\arm-none-eabi\include\c++\6.3.1\cmath ****                                               double>::__type
1314:c:\program files (x86)\gnu tools arm embedded\6 2017-q2-update\arm-none-eabi\include\c++\6.3.1\cmath ****     cbrt(_Tp __x)
1315:c:\program files (x86)\gnu tools arm embedded\6 2017-q2-update\arm-none-eabi\include\c++\6.3.1\cmath ****     { return __builtin_cbrt(__x); }
1316:c:\program files (x86)\gnu tools arm embedded\6 2017-q2-update\arm-none-eabi\include\c++\6.3.1\cmath **** #endif
1317:c:\program files (x86)\gnu tools arm embedded\6 2017-q2-update\arm-none-eabi\include\c++\6.3.1\cmath **** 
1318:c:\program files (x86)\gnu tools arm embedded\6 2017-q2-update\arm-none-eabi\include\c++\6.3.1\cmath **** #ifndef __CORRECT_ISO_CPP11_MATH_H_PROTO_FP
1319:c:\program files (x86)\gnu tools arm embedded\6 2017-q2-update\arm-none-eabi\include\c++\6.3.1\cmath ****   constexpr float
1320:c:\program files (x86)\gnu tools arm embedded\6 2017-q2-update\arm-none-eabi\include\c++\6.3.1\cmath ****   copysign(float __x, float __y)
1321:c:\program files (x86)\gnu tools arm embedded\6 2017-q2-update\arm-none-eabi\include\c++\6.3.1\cmath ****   { return __builtin_copysignf(__x, __y); }
1322:c:\program files (x86)\gnu tools arm embedded\6 2017-q2-update\arm-none-eabi\include\c++\6.3.1\cmath **** 
1323:c:\program files (x86)\gnu tools arm embedded\6 2017-q2-update\arm-none-eabi\include\c++\6.3.1\cmath ****   constexpr long double
1324:c:\program files (x86)\gnu tools arm embedded\6 2017-q2-update\arm-none-eabi\include\c++\6.3.1\cmath ****   copysign(long double __x, long double __y)
1325:c:\program files (x86)\gnu tools arm embedded\6 2017-q2-update\arm-none-eabi\include\c++\6.3.1\cmath ****   { return __builtin_copysignl(__x, __y); }
1326:c:\program files (x86)\gnu tools arm embedded\6 2017-q2-update\arm-none-eabi\include\c++\6.3.1\cmath **** #endif
1327:c:\program files (x86)\gnu tools arm embedded\6 2017-q2-update\arm-none-eabi\include\c++\6.3.1\cmath **** 
1328:c:\program files (x86)\gnu tools arm embedded\6 2017-q2-update\arm-none-eabi\include\c++\6.3.1\cmath **** #ifndef __CORRECT_ISO_CPP11_MATH_H_PROTO_INT
1329:c:\program files (x86)\gnu tools arm embedded\6 2017-q2-update\arm-none-eabi\include\c++\6.3.1\cmath ****   template<typename _Tp, typename _Up>
1330:c:\program files (x86)\gnu tools arm embedded\6 2017-q2-update\arm-none-eabi\include\c++\6.3.1\cmath ****     constexpr typename __gnu_cxx::__promote_2<_Tp, _Up>::__type
1331:c:\program files (x86)\gnu tools arm embedded\6 2017-q2-update\arm-none-eabi\include\c++\6.3.1\cmath ****     copysign(_Tp __x, _Up __y)
1332:c:\program files (x86)\gnu tools arm embedded\6 2017-q2-update\arm-none-eabi\include\c++\6.3.1\cmath ****     {
1333:c:\program files (x86)\gnu tools arm embedded\6 2017-q2-update\arm-none-eabi\include\c++\6.3.1\cmath ****       typedef typename __gnu_cxx::__promote_2<_Tp, _Up>::__type __type;
1334:c:\program files (x86)\gnu tools arm embedded\6 2017-q2-update\arm-none-eabi\include\c++\6.3.1\cmath ****       return copysign(__type(__x), __type(__y));
1335:c:\program files (x86)\gnu tools arm embedded\6 2017-q2-update\arm-none-eabi\include\c++\6.3.1\cmath ****     }
1336:c:\program files (x86)\gnu tools arm embedded\6 2017-q2-update\arm-none-eabi\include\c++\6.3.1\cmath **** #endif
1337:c:\program files (x86)\gnu tools arm embedded\6 2017-q2-update\arm-none-eabi\include\c++\6.3.1\cmath **** 
1338:c:\program files (x86)\gnu tools arm embedded\6 2017-q2-update\arm-none-eabi\include\c++\6.3.1\cmath **** #ifndef __CORRECT_ISO_CPP11_MATH_H_PROTO_FP
1339:c:\program files (x86)\gnu tools arm embedded\6 2017-q2-update\arm-none-eabi\include\c++\6.3.1\cmath ****   constexpr float
1340:c:\program files (x86)\gnu tools arm embedded\6 2017-q2-update\arm-none-eabi\include\c++\6.3.1\cmath ****   erf(float __x)
1341:c:\program files (x86)\gnu tools arm embedded\6 2017-q2-update\arm-none-eabi\include\c++\6.3.1\cmath ****   { return __builtin_erff(__x); }
1342:c:\program files (x86)\gnu tools arm embedded\6 2017-q2-update\arm-none-eabi\include\c++\6.3.1\cmath **** 
1343:c:\program files (x86)\gnu tools arm embedded\6 2017-q2-update\arm-none-eabi\include\c++\6.3.1\cmath ****   constexpr long double
1344:c:\program files (x86)\gnu tools arm embedded\6 2017-q2-update\arm-none-eabi\include\c++\6.3.1\cmath ****   erf(long double __x)
1345:c:\program files (x86)\gnu tools arm embedded\6 2017-q2-update\arm-none-eabi\include\c++\6.3.1\cmath ****   { return __builtin_erfl(__x); }
1346:c:\program files (x86)\gnu tools arm embedded\6 2017-q2-update\arm-none-eabi\include\c++\6.3.1\cmath **** #endif
1347:c:\program files (x86)\gnu tools arm embedded\6 2017-q2-update\arm-none-eabi\include\c++\6.3.1\cmath **** 
1348:c:\program files (x86)\gnu tools arm embedded\6 2017-q2-update\arm-none-eabi\include\c++\6.3.1\cmath **** #ifndef __CORRECT_ISO_CPP11_MATH_H_PROTO_INT
1349:c:\program files (x86)\gnu tools arm embedded\6 2017-q2-update\arm-none-eabi\include\c++\6.3.1\cmath ****   template<typename _Tp>
1350:c:\program files (x86)\gnu tools arm embedded\6 2017-q2-update\arm-none-eabi\include\c++\6.3.1\cmath ****     constexpr typename __gnu_cxx::__enable_if<__is_integer<_Tp>::__value, 
1351:c:\program files (x86)\gnu tools arm embedded\6 2017-q2-update\arm-none-eabi\include\c++\6.3.1\cmath ****                                               double>::__type
1352:c:\program files (x86)\gnu tools arm embedded\6 2017-q2-update\arm-none-eabi\include\c++\6.3.1\cmath ****     erf(_Tp __x)
1353:c:\program files (x86)\gnu tools arm embedded\6 2017-q2-update\arm-none-eabi\include\c++\6.3.1\cmath ****     { return __builtin_erf(__x); }
1354:c:\program files (x86)\gnu tools arm embedded\6 2017-q2-update\arm-none-eabi\include\c++\6.3.1\cmath **** #endif
1355:c:\program files (x86)\gnu tools arm embedded\6 2017-q2-update\arm-none-eabi\include\c++\6.3.1\cmath **** 
1356:c:\program files (x86)\gnu tools arm embedded\6 2017-q2-update\arm-none-eabi\include\c++\6.3.1\cmath **** #ifndef __CORRECT_ISO_CPP11_MATH_H_PROTO_FP
1357:c:\program files (x86)\gnu tools arm embedded\6 2017-q2-update\arm-none-eabi\include\c++\6.3.1\cmath ****   constexpr float
1358:c:\program files (x86)\gnu tools arm embedded\6 2017-q2-update\arm-none-eabi\include\c++\6.3.1\cmath ****   erfc(float __x)
1359:c:\program files (x86)\gnu tools arm embedded\6 2017-q2-update\arm-none-eabi\include\c++\6.3.1\cmath ****   { return __builtin_erfcf(__x); }
1360:c:\program files (x86)\gnu tools arm embedded\6 2017-q2-update\arm-none-eabi\include\c++\6.3.1\cmath **** 
1361:c:\program files (x86)\gnu tools arm embedded\6 2017-q2-update\arm-none-eabi\include\c++\6.3.1\cmath ****   constexpr long double
1362:c:\program files (x86)\gnu tools arm embedded\6 2017-q2-update\arm-none-eabi\include\c++\6.3.1\cmath ****   erfc(long double __x)
1363:c:\program files (x86)\gnu tools arm embedded\6 2017-q2-update\arm-none-eabi\include\c++\6.3.1\cmath ****   { return __builtin_erfcl(__x); }
1364:c:\program files (x86)\gnu tools arm embedded\6 2017-q2-update\arm-none-eabi\include\c++\6.3.1\cmath **** #endif
1365:c:\program files (x86)\gnu tools arm embedded\6 2017-q2-update\arm-none-eabi\include\c++\6.3.1\cmath **** 
1366:c:\program files (x86)\gnu tools arm embedded\6 2017-q2-update\arm-none-eabi\include\c++\6.3.1\cmath **** #ifndef __CORRECT_ISO_CPP11_MATH_H_PROTO_INT
1367:c:\program files (x86)\gnu tools arm embedded\6 2017-q2-update\arm-none-eabi\include\c++\6.3.1\cmath ****   template<typename _Tp>
1368:c:\program files (x86)\gnu tools arm embedded\6 2017-q2-update\arm-none-eabi\include\c++\6.3.1\cmath ****     constexpr typename __gnu_cxx::__enable_if<__is_integer<_Tp>::__value, 
1369:c:\program files (x86)\gnu tools arm embedded\6 2017-q2-update\arm-none-eabi\include\c++\6.3.1\cmath ****                                               double>::__type
1370:c:\program files (x86)\gnu tools arm embedded\6 2017-q2-update\arm-none-eabi\include\c++\6.3.1\cmath ****     erfc(_Tp __x)
1371:c:\program files (x86)\gnu tools arm embedded\6 2017-q2-update\arm-none-eabi\include\c++\6.3.1\cmath ****     { return __builtin_erfc(__x); }
1372:c:\program files (x86)\gnu tools arm embedded\6 2017-q2-update\arm-none-eabi\include\c++\6.3.1\cmath **** #endif
1373:c:\program files (x86)\gnu tools arm embedded\6 2017-q2-update\arm-none-eabi\include\c++\6.3.1\cmath **** 
1374:c:\program files (x86)\gnu tools arm embedded\6 2017-q2-update\arm-none-eabi\include\c++\6.3.1\cmath **** #ifndef __CORRECT_ISO_CPP11_MATH_H_PROTO_FP
1375:c:\program files (x86)\gnu tools arm embedded\6 2017-q2-update\arm-none-eabi\include\c++\6.3.1\cmath ****   constexpr float
1376:c:\program files (x86)\gnu tools arm embedded\6 2017-q2-update\arm-none-eabi\include\c++\6.3.1\cmath ****   exp2(float __x)
1377:c:\program files (x86)\gnu tools arm embedded\6 2017-q2-update\arm-none-eabi\include\c++\6.3.1\cmath ****   { return __builtin_exp2f(__x); }
1378:c:\program files (x86)\gnu tools arm embedded\6 2017-q2-update\arm-none-eabi\include\c++\6.3.1\cmath **** 
1379:c:\program files (x86)\gnu tools arm embedded\6 2017-q2-update\arm-none-eabi\include\c++\6.3.1\cmath ****   constexpr long double
1380:c:\program files (x86)\gnu tools arm embedded\6 2017-q2-update\arm-none-eabi\include\c++\6.3.1\cmath ****   exp2(long double __x)
1381:c:\program files (x86)\gnu tools arm embedded\6 2017-q2-update\arm-none-eabi\include\c++\6.3.1\cmath ****   { return __builtin_exp2l(__x); }
1382:c:\program files (x86)\gnu tools arm embedded\6 2017-q2-update\arm-none-eabi\include\c++\6.3.1\cmath **** #endif
1383:c:\program files (x86)\gnu tools arm embedded\6 2017-q2-update\arm-none-eabi\include\c++\6.3.1\cmath **** 
1384:c:\program files (x86)\gnu tools arm embedded\6 2017-q2-update\arm-none-eabi\include\c++\6.3.1\cmath **** #ifndef __CORRECT_ISO_CPP11_MATH_H_PROTO_INT
1385:c:\program files (x86)\gnu tools arm embedded\6 2017-q2-update\arm-none-eabi\include\c++\6.3.1\cmath ****   template<typename _Tp>
1386:c:\program files (x86)\gnu tools arm embedded\6 2017-q2-update\arm-none-eabi\include\c++\6.3.1\cmath ****     constexpr typename __gnu_cxx::__enable_if<__is_integer<_Tp>::__value, 
1387:c:\program files (x86)\gnu tools arm embedded\6 2017-q2-update\arm-none-eabi\include\c++\6.3.1\cmath ****                                               double>::__type
1388:c:\program files (x86)\gnu tools arm embedded\6 2017-q2-update\arm-none-eabi\include\c++\6.3.1\cmath ****     exp2(_Tp __x)
1389:c:\program files (x86)\gnu tools arm embedded\6 2017-q2-update\arm-none-eabi\include\c++\6.3.1\cmath ****     { return __builtin_exp2(__x); }
1390:c:\program files (x86)\gnu tools arm embedded\6 2017-q2-update\arm-none-eabi\include\c++\6.3.1\cmath **** #endif
1391:c:\program files (x86)\gnu tools arm embedded\6 2017-q2-update\arm-none-eabi\include\c++\6.3.1\cmath **** 
1392:c:\program files (x86)\gnu tools arm embedded\6 2017-q2-update\arm-none-eabi\include\c++\6.3.1\cmath **** #ifndef __CORRECT_ISO_CPP11_MATH_H_PROTO_FP
1393:c:\program files (x86)\gnu tools arm embedded\6 2017-q2-update\arm-none-eabi\include\c++\6.3.1\cmath ****   constexpr float
1394:c:\program files (x86)\gnu tools arm embedded\6 2017-q2-update\arm-none-eabi\include\c++\6.3.1\cmath ****   expm1(float __x)
1395:c:\program files (x86)\gnu tools arm embedded\6 2017-q2-update\arm-none-eabi\include\c++\6.3.1\cmath ****   { return __builtin_expm1f(__x); }
1396:c:\program files (x86)\gnu tools arm embedded\6 2017-q2-update\arm-none-eabi\include\c++\6.3.1\cmath **** 
1397:c:\program files (x86)\gnu tools arm embedded\6 2017-q2-update\arm-none-eabi\include\c++\6.3.1\cmath ****   constexpr long double
1398:c:\program files (x86)\gnu tools arm embedded\6 2017-q2-update\arm-none-eabi\include\c++\6.3.1\cmath ****   expm1(long double __x)
1399:c:\program files (x86)\gnu tools arm embedded\6 2017-q2-update\arm-none-eabi\include\c++\6.3.1\cmath ****   { return __builtin_expm1l(__x); }
1400:c:\program files (x86)\gnu tools arm embedded\6 2017-q2-update\arm-none-eabi\include\c++\6.3.1\cmath **** #endif
1401:c:\program files (x86)\gnu tools arm embedded\6 2017-q2-update\arm-none-eabi\include\c++\6.3.1\cmath **** 
1402:c:\program files (x86)\gnu tools arm embedded\6 2017-q2-update\arm-none-eabi\include\c++\6.3.1\cmath **** #ifndef __CORRECT_ISO_CPP11_MATH_H_PROTO_INT
1403:c:\program files (x86)\gnu tools arm embedded\6 2017-q2-update\arm-none-eabi\include\c++\6.3.1\cmath ****   template<typename _Tp>
1404:c:\program files (x86)\gnu tools arm embedded\6 2017-q2-update\arm-none-eabi\include\c++\6.3.1\cmath ****     constexpr typename __gnu_cxx::__enable_if<__is_integer<_Tp>::__value, 
1405:c:\program files (x86)\gnu tools arm embedded\6 2017-q2-update\arm-none-eabi\include\c++\6.3.1\cmath ****                                               double>::__type
1406:c:\program files (x86)\gnu tools arm embedded\6 2017-q2-update\arm-none-eabi\include\c++\6.3.1\cmath ****     expm1(_Tp __x)
1407:c:\program files (x86)\gnu tools arm embedded\6 2017-q2-update\arm-none-eabi\include\c++\6.3.1\cmath ****     { return __builtin_expm1(__x); }
1408:c:\program files (x86)\gnu tools arm embedded\6 2017-q2-update\arm-none-eabi\include\c++\6.3.1\cmath **** #endif
1409:c:\program files (x86)\gnu tools arm embedded\6 2017-q2-update\arm-none-eabi\include\c++\6.3.1\cmath **** 
1410:c:\program files (x86)\gnu tools arm embedded\6 2017-q2-update\arm-none-eabi\include\c++\6.3.1\cmath **** #ifndef __CORRECT_ISO_CPP11_MATH_H_PROTO_FP
1411:c:\program files (x86)\gnu tools arm embedded\6 2017-q2-update\arm-none-eabi\include\c++\6.3.1\cmath ****   constexpr float
1412:c:\program files (x86)\gnu tools arm embedded\6 2017-q2-update\arm-none-eabi\include\c++\6.3.1\cmath ****   fdim(float __x, float __y)
1413:c:\program files (x86)\gnu tools arm embedded\6 2017-q2-update\arm-none-eabi\include\c++\6.3.1\cmath ****   { return __builtin_fdimf(__x, __y); }
1414:c:\program files (x86)\gnu tools arm embedded\6 2017-q2-update\arm-none-eabi\include\c++\6.3.1\cmath **** 
1415:c:\program files (x86)\gnu tools arm embedded\6 2017-q2-update\arm-none-eabi\include\c++\6.3.1\cmath ****   constexpr long double
1416:c:\program files (x86)\gnu tools arm embedded\6 2017-q2-update\arm-none-eabi\include\c++\6.3.1\cmath ****   fdim(long double __x, long double __y)
1417:c:\program files (x86)\gnu tools arm embedded\6 2017-q2-update\arm-none-eabi\include\c++\6.3.1\cmath ****   { return __builtin_fdiml(__x, __y); }
1418:c:\program files (x86)\gnu tools arm embedded\6 2017-q2-update\arm-none-eabi\include\c++\6.3.1\cmath **** #endif
1419:c:\program files (x86)\gnu tools arm embedded\6 2017-q2-update\arm-none-eabi\include\c++\6.3.1\cmath **** 
1420:c:\program files (x86)\gnu tools arm embedded\6 2017-q2-update\arm-none-eabi\include\c++\6.3.1\cmath **** #ifndef __CORRECT_ISO_CPP11_MATH_H_PROTO_INT
1421:c:\program files (x86)\gnu tools arm embedded\6 2017-q2-update\arm-none-eabi\include\c++\6.3.1\cmath ****   template<typename _Tp, typename _Up>
1422:c:\program files (x86)\gnu tools arm embedded\6 2017-q2-update\arm-none-eabi\include\c++\6.3.1\cmath ****     constexpr typename __gnu_cxx::__promote_2<_Tp, _Up>::__type
1423:c:\program files (x86)\gnu tools arm embedded\6 2017-q2-update\arm-none-eabi\include\c++\6.3.1\cmath ****     fdim(_Tp __x, _Up __y)
1424:c:\program files (x86)\gnu tools arm embedded\6 2017-q2-update\arm-none-eabi\include\c++\6.3.1\cmath ****     {
1425:c:\program files (x86)\gnu tools arm embedded\6 2017-q2-update\arm-none-eabi\include\c++\6.3.1\cmath ****       typedef typename __gnu_cxx::__promote_2<_Tp, _Up>::__type __type;
1426:c:\program files (x86)\gnu tools arm embedded\6 2017-q2-update\arm-none-eabi\include\c++\6.3.1\cmath ****       return fdim(__type(__x), __type(__y));
1427:c:\program files (x86)\gnu tools arm embedded\6 2017-q2-update\arm-none-eabi\include\c++\6.3.1\cmath ****     }
1428:c:\program files (x86)\gnu tools arm embedded\6 2017-q2-update\arm-none-eabi\include\c++\6.3.1\cmath **** #endif
1429:c:\program files (x86)\gnu tools arm embedded\6 2017-q2-update\arm-none-eabi\include\c++\6.3.1\cmath **** 
1430:c:\program files (x86)\gnu tools arm embedded\6 2017-q2-update\arm-none-eabi\include\c++\6.3.1\cmath **** #ifndef __CORRECT_ISO_CPP11_MATH_H_PROTO_FP
1431:c:\program files (x86)\gnu tools arm embedded\6 2017-q2-update\arm-none-eabi\include\c++\6.3.1\cmath ****   constexpr float
1432:c:\program files (x86)\gnu tools arm embedded\6 2017-q2-update\arm-none-eabi\include\c++\6.3.1\cmath ****   fma(float __x, float __y, float __z)
1433:c:\program files (x86)\gnu tools arm embedded\6 2017-q2-update\arm-none-eabi\include\c++\6.3.1\cmath ****   { return __builtin_fmaf(__x, __y, __z); }
1434:c:\program files (x86)\gnu tools arm embedded\6 2017-q2-update\arm-none-eabi\include\c++\6.3.1\cmath **** 
1435:c:\program files (x86)\gnu tools arm embedded\6 2017-q2-update\arm-none-eabi\include\c++\6.3.1\cmath ****   constexpr long double
1436:c:\program files (x86)\gnu tools arm embedded\6 2017-q2-update\arm-none-eabi\include\c++\6.3.1\cmath ****   fma(long double __x, long double __y, long double __z)
1437:c:\program files (x86)\gnu tools arm embedded\6 2017-q2-update\arm-none-eabi\include\c++\6.3.1\cmath ****   { return __builtin_fmal(__x, __y, __z); }
1438:c:\program files (x86)\gnu tools arm embedded\6 2017-q2-update\arm-none-eabi\include\c++\6.3.1\cmath **** #endif
1439:c:\program files (x86)\gnu tools arm embedded\6 2017-q2-update\arm-none-eabi\include\c++\6.3.1\cmath **** 
1440:c:\program files (x86)\gnu tools arm embedded\6 2017-q2-update\arm-none-eabi\include\c++\6.3.1\cmath **** #ifndef __CORRECT_ISO_CPP11_MATH_H_PROTO_INT
1441:c:\program files (x86)\gnu tools arm embedded\6 2017-q2-update\arm-none-eabi\include\c++\6.3.1\cmath ****   template<typename _Tp, typename _Up, typename _Vp>
1442:c:\program files (x86)\gnu tools arm embedded\6 2017-q2-update\arm-none-eabi\include\c++\6.3.1\cmath ****     constexpr typename __gnu_cxx::__promote_3<_Tp, _Up, _Vp>::__type
1443:c:\program files (x86)\gnu tools arm embedded\6 2017-q2-update\arm-none-eabi\include\c++\6.3.1\cmath ****     fma(_Tp __x, _Up __y, _Vp __z)
1444:c:\program files (x86)\gnu tools arm embedded\6 2017-q2-update\arm-none-eabi\include\c++\6.3.1\cmath ****     {
1445:c:\program files (x86)\gnu tools arm embedded\6 2017-q2-update\arm-none-eabi\include\c++\6.3.1\cmath ****       typedef typename __gnu_cxx::__promote_3<_Tp, _Up, _Vp>::__type __type;
1446:c:\program files (x86)\gnu tools arm embedded\6 2017-q2-update\arm-none-eabi\include\c++\6.3.1\cmath ****       return fma(__type(__x), __type(__y), __type(__z));
1447:c:\program files (x86)\gnu tools arm embedded\6 2017-q2-update\arm-none-eabi\include\c++\6.3.1\cmath ****     }
1448:c:\program files (x86)\gnu tools arm embedded\6 2017-q2-update\arm-none-eabi\include\c++\6.3.1\cmath **** #endif
1449:c:\program files (x86)\gnu tools arm embedded\6 2017-q2-update\arm-none-eabi\include\c++\6.3.1\cmath **** 
1450:c:\program files (x86)\gnu tools arm embedded\6 2017-q2-update\arm-none-eabi\include\c++\6.3.1\cmath **** #ifndef __CORRECT_ISO_CPP11_MATH_H_PROTO_FP
1451:c:\program files (x86)\gnu tools arm embedded\6 2017-q2-update\arm-none-eabi\include\c++\6.3.1\cmath ****   constexpr float
1452:c:\program files (x86)\gnu tools arm embedded\6 2017-q2-update\arm-none-eabi\include\c++\6.3.1\cmath ****   fmax(float __x, float __y)
1453:c:\program files (x86)\gnu tools arm embedded\6 2017-q2-update\arm-none-eabi\include\c++\6.3.1\cmath ****   { return __builtin_fmaxf(__x, __y); }
1454:c:\program files (x86)\gnu tools arm embedded\6 2017-q2-update\arm-none-eabi\include\c++\6.3.1\cmath **** 
1455:c:\program files (x86)\gnu tools arm embedded\6 2017-q2-update\arm-none-eabi\include\c++\6.3.1\cmath ****   constexpr long double
1456:c:\program files (x86)\gnu tools arm embedded\6 2017-q2-update\arm-none-eabi\include\c++\6.3.1\cmath ****   fmax(long double __x, long double __y)
1457:c:\program files (x86)\gnu tools arm embedded\6 2017-q2-update\arm-none-eabi\include\c++\6.3.1\cmath ****   { return __builtin_fmaxl(__x, __y); }
1458:c:\program files (x86)\gnu tools arm embedded\6 2017-q2-update\arm-none-eabi\include\c++\6.3.1\cmath **** #endif
1459:c:\program files (x86)\gnu tools arm embedded\6 2017-q2-update\arm-none-eabi\include\c++\6.3.1\cmath **** 
1460:c:\program files (x86)\gnu tools arm embedded\6 2017-q2-update\arm-none-eabi\include\c++\6.3.1\cmath **** #ifndef __CORRECT_ISO_CPP11_MATH_H_PROTO_INT
1461:c:\program files (x86)\gnu tools arm embedded\6 2017-q2-update\arm-none-eabi\include\c++\6.3.1\cmath ****   template<typename _Tp, typename _Up>
1462:c:\program files (x86)\gnu tools arm embedded\6 2017-q2-update\arm-none-eabi\include\c++\6.3.1\cmath ****     constexpr typename __gnu_cxx::__promote_2<_Tp, _Up>::__type
1463:c:\program files (x86)\gnu tools arm embedded\6 2017-q2-update\arm-none-eabi\include\c++\6.3.1\cmath ****     fmax(_Tp __x, _Up __y)
1464:c:\program files (x86)\gnu tools arm embedded\6 2017-q2-update\arm-none-eabi\include\c++\6.3.1\cmath ****     {
1465:c:\program files (x86)\gnu tools arm embedded\6 2017-q2-update\arm-none-eabi\include\c++\6.3.1\cmath ****       typedef typename __gnu_cxx::__promote_2<_Tp, _Up>::__type __type;
1466:c:\program files (x86)\gnu tools arm embedded\6 2017-q2-update\arm-none-eabi\include\c++\6.3.1\cmath ****       return fmax(__type(__x), __type(__y));
1467:c:\program files (x86)\gnu tools arm embedded\6 2017-q2-update\arm-none-eabi\include\c++\6.3.1\cmath ****     }
1468:c:\program files (x86)\gnu tools arm embedded\6 2017-q2-update\arm-none-eabi\include\c++\6.3.1\cmath **** #endif
1469:c:\program files (x86)\gnu tools arm embedded\6 2017-q2-update\arm-none-eabi\include\c++\6.3.1\cmath **** 
1470:c:\program files (x86)\gnu tools arm embedded\6 2017-q2-update\arm-none-eabi\include\c++\6.3.1\cmath **** #ifndef __CORRECT_ISO_CPP11_MATH_H_PROTO_FP
1471:c:\program files (x86)\gnu tools arm embedded\6 2017-q2-update\arm-none-eabi\include\c++\6.3.1\cmath ****   constexpr float
1472:c:\program files (x86)\gnu tools arm embedded\6 2017-q2-update\arm-none-eabi\include\c++\6.3.1\cmath ****   fmin(float __x, float __y)
1473:c:\program files (x86)\gnu tools arm embedded\6 2017-q2-update\arm-none-eabi\include\c++\6.3.1\cmath ****   { return __builtin_fminf(__x, __y); }
 2504              		.loc 3 1473 0
 2505 07b8 089AB1EE 		vmov.f32	s18, #6.0e+0
 2506 07bc 000000EA 		b	.L223
 2507              	.L224:
 2508              		.align	2
 2509              	.L222:
 2510 07c0 00000000 		.word	0
 2511              	.L223:
 2512              	.LVL310:
 2513              	.L154:
 2514              	.LBE437:
 2515              	.LBE436:
 2516              	.LBE435:
 2517              	.LBE469:
 2518              	.LBE483:
 127:../src/tensorflow_lite/tensorflow/lite/micro/kernels/cmsis_nn/svdf.cc ****       ++output_ptr_batch;
 2519              		.loc 1 127 0
 2520 07c4 000A98ED 		vldr.32	s0, [r8]
 2521              	.LVL311:
 2522              	.LBB484:
 2523              	.LBB470:
  33:C:/Renesas/e2studio_2021_01_workspace_RZA2M_ANPR/ANPR_RZA2M_GR_MANGO/src/tensorflow_lite/tensorflow/lite/micro/kernels\activation_utils.h ****     case kTfLiteActNone:
 2524              		.loc 5 33 0
 2525 07c8 060059E3 		cmp	r9, #6
 2526 07cc 09F19F97 		ldrls	pc, [pc, r9, asl #2]
 2527 07d0 690000EA 		b	.L177
 2528              	.L158:
 2529 07d4 F4070000 		.word	.L156
 2530 07d8 20080000 		.word	.L205
 2531 07dc 88080000 		.word	.L160
 2532 07e0 18080000 		.word	.L161
 2533 07e4 F0070000 		.word	.L162
 2534 07e8 64080000 		.word	.L163
 2535 07ec 40080000 		.word	.L164
 2536              	.L162:
 2537              	.LVL312:
 2538              	.LBB440:
 2539              	.LBB441:
 525:c:\program files (x86)\gnu tools arm embedded\6 2017-q2-update\arm-none-eabi\include\c++\6.3.1\cmath **** 
 2540              		.loc 3 525 0
 2541 07f0 FEFFFFEB 		bl	tanhf
 2542              	.LVL313:
 2543              	.L156:
 2544              	.LBE441:
 2545              	.LBE440:
 2546              	.LBE470:
 2547              	.LBE484:
 125:../src/tensorflow_lite/tensorflow/lite/micro/kernels/cmsis_nn/svdf.cc ****       *output_ptr_batch =
 2548              		.loc 1 125 0
 2549 07f4 017087E2 		add	r7, r7, #1
 2550              	.LVL314:
 126:../src/tensorflow_lite/tensorflow/lite/micro/kernels/cmsis_nn/svdf.cc ****           tflite::ops::micro::ActivationValFloat(activation, *output_ptr_batch);
 2551              		.loc 1 126 0
 2552 07f8 010AA8EC 		vstmia.32	r8!, {s0}
 2553              	.LVL315:
 125:../src/tensorflow_lite/tensorflow/lite/micro/kernels/cmsis_nn/svdf.cc ****       *output_ptr_batch =
 2554              		.loc 1 125 0
 2555 07fc 07005AE1 		cmp	r10, r7
 2556 0800 EFFFFF1A 		bne	.L154
 2557              	.L221:
 2558              	.LBE497:
 2559              	.LBE500:
 123:../src/tensorflow_lite/tensorflow/lite/micro/kernels/cmsis_nn/svdf.cc ****     float* output_ptr_batch = output_ptr + b * num_units;
 2560              		.loc 1 123 0
 2561 0804 015085E2 		add	r5, r5, #1
 2562              	.LVL316:
 2563 0808 046086E0 		add	r6, r6, r4
 2564 080c 05005BE1 		cmp	fp, r5
 2565 0810 E6FFFFCA 		bgt	.L155
 2566 0814 87FEFFEA 		b	.L206
 2567              	.LVL317:
 2568              	.L161:
 2569              	.LBB501:
 2570              	.LBB498:
 2571              	.LBB485:
 2572              	.LBB471:
 2573              	.LBB442:
 2574              	.LBB439:
 2575              	.LBB438:
 2576              		.loc 3 1473 0
 2577 0818 490AF0EE 		vmov.f32	s1, s18
 2578 081c FEFFFFEB 		bl	fminf
 2579              	.LVL318:
 2580              	.L205:
 2581              	.LBE438:
 2582              	.LBE439:
 2583              	.LBE442:
 2584              	.LBB443:
 2585              	.LBB444:
 2586              	.LBB445:
1453:c:\program files (x86)\gnu tools arm embedded\6 2017-q2-update\arm-none-eabi\include\c++\6.3.1\cmath **** 
 2587              		.loc 3 1453 0
 2588 0820 400AF0EE 		vmov.f32	s1, s0
 2589              	.LBE445:
 2590              	.LBE444:
 2591              	.LBE443:
 2592              	.LBE471:
 2593              	.LBE485:
 125:../src/tensorflow_lite/tensorflow/lite/micro/kernels/cmsis_nn/svdf.cc ****       *output_ptr_batch =
 2594              		.loc 1 125 0
 2595 0824 017087E2 		add	r7, r7, #1
 2596              	.LVL319:
 2597              	.LBB486:
 2598              	.LBB472:
 2599              	.LBB448:
 2600              	.LBB447:
 2601              	.LBB446:
1453:c:\program files (x86)\gnu tools arm embedded\6 2017-q2-update\arm-none-eabi\include\c++\6.3.1\cmath **** 
 2602              		.loc 3 1453 0
 2603 0828 680AB0EE 		vmov.f32	s0, s17
 2604              	.LVL320:
 2605 082c FEFFFFEB 		bl	fmaxf
 2606              	.LVL321:
 2607              	.LBE446:
 2608              	.LBE447:
 2609              	.LBE448:
 2610              	.LBE472:
 2611              	.LBE486:
 125:../src/tensorflow_lite/tensorflow/lite/micro/kernels/cmsis_nn/svdf.cc ****       *output_ptr_batch =
 2612              		.loc 1 125 0
 2613 0830 07005AE1 		cmp	r10, r7
 126:../src/tensorflow_lite/tensorflow/lite/micro/kernels/cmsis_nn/svdf.cc ****           tflite::ops::micro::ActivationValFloat(activation, *output_ptr_batch);
 2614              		.loc 1 126 0
 2615 0834 010AA8EC 		vstmia.32	r8!, {s0}
 2616              	.LVL322:
 125:../src/tensorflow_lite/tensorflow/lite/micro/kernels/cmsis_nn/svdf.cc ****       *output_ptr_batch =
 2617              		.loc 1 125 0
 2618 0838 E1FFFF1A 		bne	.L154
 2619 083c F0FFFFEA 		b	.L221
 2620              	.LVL323:
 2621              	.L164:
 2622              	.LBB487:
 2623              	.LBB473:
 2624              	.LBB449:
 2625              	.LBB450:
 246:c:\program files (x86)\gnu tools arm embedded\6 2017-q2-update\arm-none-eabi\include\c++\6.3.1\cmath **** 
 2626              		.loc 3 246 0
 2627 0840 400AB1EE 		vneg.f32	s0, s0
 2628              	.LVL324:
 2629              	.LBE450:
 2630              	.LBE449:
 2631              	.LBE473:
 2632              	.LBE487:
 125:../src/tensorflow_lite/tensorflow/lite/micro/kernels/cmsis_nn/svdf.cc ****       *output_ptr_batch =
 2633              		.loc 1 125 0
 2634 0844 017087E2 		add	r7, r7, #1
 2635              	.LVL325:
 2636              	.LBB488:
 2637              	.LBB474:
 2638              	.LBB452:
 2639              	.LBB451:
 246:c:\program files (x86)\gnu tools arm embedded\6 2017-q2-update\arm-none-eabi\include\c++\6.3.1\cmath **** 
 2640              		.loc 3 246 0
 2641 0848 FEFFFFEB 		bl	expf
 2642              	.LVL326:
 2643              	.LBE451:
 2644              	.LBE452:
  47:C:/Renesas/e2studio_2021_01_workspace_RZA2M_ANPR/ANPR_RZA2M_GR_MANGO/src/tensorflow_lite/tensorflow/lite/micro/kernels\activation_utils.h ****   }
 2645              		.loc 5 47 0
 2646 084c 087A70EE 		vadd.f32	s15, s0, s16
 2647              	.LBE474:
 2648              	.LBE488:
 125:../src/tensorflow_lite/tensorflow/lite/micro/kernels/cmsis_nn/svdf.cc ****       *output_ptr_batch =
 2649              		.loc 1 125 0
 2650 0850 07005AE1 		cmp	r10, r7
 2651              	.LBB489:
 2652              	.LBB475:
  47:C:/Renesas/e2studio_2021_01_workspace_RZA2M_ANPR/ANPR_RZA2M_GR_MANGO/src/tensorflow_lite/tensorflow/lite/micro/kernels\activation_utils.h ****   }
 2653              		.loc 5 47 0
 2654 0854 270A88EE 		vdiv.f32	s0, s16, s15
 2655              	.LVL327:
 2656              	.LBE475:
 2657              	.LBE489:
 126:../src/tensorflow_lite/tensorflow/lite/micro/kernels/cmsis_nn/svdf.cc ****           tflite::ops::micro::ActivationValFloat(activation, *output_ptr_batch);
 2658              		.loc 1 126 0
 2659 0858 010AA8EC 		vstmia.32	r8!, {s0}
 2660              	.LVL328:
 125:../src/tensorflow_lite/tensorflow/lite/micro/kernels/cmsis_nn/svdf.cc ****       *output_ptr_batch =
 2661              		.loc 1 125 0
 2662 085c D8FFFF1A 		bne	.L154
 2663 0860 E7FFFFEA 		b	.L221
 2664              	.LVL329:
 2665              	.L163:
 2666              	.LBB490:
 2667              	.LBB476:
 2668              	.LBB453:
 2669              	.LBB454:
 692:c:\program files (x86)\gnu tools arm embedded\6 2017-q2-update\arm-none-eabi\include\c++\6.3.1\cmath **** 
 2670              		.loc 3 692 0
 2671 0864 103A10EE 		vmov	r3, s0	@ int
 2672              	.LBE454:
 2673              	.LBE453:
 2674              	.LBE476:
 2675              	.LBE490:
 125:../src/tensorflow_lite/tensorflow/lite/micro/kernels/cmsis_nn/svdf.cc ****       *output_ptr_batch =
 2676              		.loc 1 125 0
 2677 0868 017087E2 		add	r7, r7, #1
 2678              	.LVL330:
 2679              	.LBB491:
 2680              	.LBB477:
  45:C:/Renesas/e2studio_2021_01_workspace_RZA2M_ANPR/ANPR_RZA2M_GR_MANGO/src/tensorflow_lite/tensorflow/lite/micro/kernels\activation_utils.h ****     case kTfLiteActSigmoid:
 2681              		.loc 5 45 0
 2682 086c A33FA0E1 		lsr	r3, r3, #31
 2683              	.LBE477:
 2684              	.LBE491:
 125:../src/tensorflow_lite/tensorflow/lite/micro/kernels/cmsis_nn/svdf.cc ****       *output_ptr_batch =
 2685              		.loc 1 125 0
 2686 0870 07005AE1 		cmp	r10, r7
 2687              	.LBB492:
 2688              	.LBB478:
  45:C:/Renesas/e2studio_2021_01_workspace_RZA2M_ANPR/ANPR_RZA2M_GR_MANGO/src/tensorflow_lite/tensorflow/lite/micro/kernels\activation_utils.h ****     case kTfLiteActSigmoid:
 2689              		.loc 5 45 0
 2690 0874 903A07EE 		vmov	s15, r3	@ int
 2691 0878 670AB8EE 		vcvt.f32.u32	s0, s15
 2692              	.LVL331:
 2693              	.LBE478:
 2694              	.LBE492:
 126:../src/tensorflow_lite/tensorflow/lite/micro/kernels/cmsis_nn/svdf.cc ****           tflite::ops::micro::ActivationValFloat(activation, *output_ptr_batch);
 2695              		.loc 1 126 0
 2696 087c 010AA8EC 		vstmia.32	r8!, {s0}
 2697              	.LVL332:
 125:../src/tensorflow_lite/tensorflow/lite/micro/kernels/cmsis_nn/svdf.cc ****       *output_ptr_batch =
 2698              		.loc 1 125 0
 2699 0880 CFFFFF1A 		bne	.L154
 2700 0884 DEFFFFEA 		b	.L221
 2701              	.LVL333:
 2702              	.L160:
 2703              	.LBB493:
 2704              	.LBB479:
 2705              	.LBB455:
 2706              	.LBB456:
 2707              	.LBB457:
 2708              	.LBB458:
 2709              	.LBB459:
 2710              		.loc 3 1473 0
 2711 0888 480AF0EE 		vmov.f32	s1, s16
 2712              	.LBE459:
 2713              	.LBE458:
 2714              	.LBE457:
 2715              	.LBE456:
 2716              	.LBE455:
 2717              	.LBE479:
 2718              	.LBE493:
 125:../src/tensorflow_lite/tensorflow/lite/micro/kernels/cmsis_nn/svdf.cc ****       *output_ptr_batch =
 2719              		.loc 1 125 0
 2720 088c 017087E2 		add	r7, r7, #1
 2721              	.LVL334:
 2722              	.LBB494:
 2723              	.LBB480:
 2724              	.LBB467:
 2725              	.LBB466:
 2726              	.LBB462:
 2727              	.LBB461:
 2728              	.LBB460:
 2729              		.loc 3 1473 0
 2730 0890 FEFFFFEB 		bl	fminf
 2731              	.LVL335:
 2732              	.LBE460:
 2733              	.LBE461:
 2734              	.LBE462:
 2735              	.LBB463:
 2736              	.LBB464:
 2737              	.LBB465:
1453:c:\program files (x86)\gnu tools arm embedded\6 2017-q2-update\arm-none-eabi\include\c++\6.3.1\cmath **** 
 2738              		.loc 3 1453 0
 2739 0894 400AF0EE 		vmov.f32	s1, s0
 2740 0898 000ABFEE 		vmov.f32	s0, #-1.0e+0
 2741              	.LVL336:
 2742 089c FEFFFFEB 		bl	fmaxf
 2743              	.LVL337:
 2744              	.LBE465:
 2745              	.LBE464:
 2746              	.LBE463:
 2747              	.LBE466:
 2748              	.LBE467:
 2749              	.LBE480:
 2750              	.LBE494:
 125:../src/tensorflow_lite/tensorflow/lite/micro/kernels/cmsis_nn/svdf.cc ****       *output_ptr_batch =
 2751              		.loc 1 125 0
 2752 08a0 07005AE1 		cmp	r10, r7
 126:../src/tensorflow_lite/tensorflow/lite/micro/kernels/cmsis_nn/svdf.cc ****           tflite::ops::micro::ActivationValFloat(activation, *output_ptr_batch);
 2753              		.loc 1 126 0
 2754 08a4 010AA8EC 		vstmia.32	r8!, {s0}
 2755              	.LVL338:
 125:../src/tensorflow_lite/tensorflow/lite/micro/kernels/cmsis_nn/svdf.cc ****       *output_ptr_batch =
 2756              		.loc 1 125 0
 2757 08a8 C5FFFF1A 		bne	.L154
 2758 08ac D4FFFFEA 		b	.L221
 2759              	.LVL339:
 2760              	.L176:
 2761              	.LBE498:
 2762              	.LBE501:
 2763              	.LBE504:
 2764              	.LBB505:
 2765              	.LBB429:
 2766              	.LBB428:
 2767              	.LBB427:
 116:../src/tensorflow_lite/tensorflow/lite/micro/kernels/cmsis_nn/svdf.cc ****         output_ptr_batch[i] += *scratch_ptr_batch++;
 2768              		.loc 1 116 0
 2769 08b0 0630A0E1 		mov	r3, r6
 2770 08b4 0020A0E3 		mov	r2, #0
 2771 08b8 A3FFFFEA 		b	.L152
 2772              	.LVL340:
 2773              	.L175:
 2774              	.LBE427:
 2775              	.LBE428:
 2776              	.LBE429:
 2777              	.LBE505:
 2778              	.LBB506:
 2779              	.LBB411:
 2780              	.LBB409:
 2781              	.LBB407:
 2782              	.LBB404:
  85:../src/tensorflow_lite/tensorflow/lite/micro/kernels/cmsis_nn/svdf.cc ****         *scratch_ptr_batch += *vector1_ptr++ * *vector2_ptr++;
 2783              		.loc 1 85 0
 2784 08bc 0820A0E1 		mov	r2, r8
 2785 08c0 0730A0E1 		mov	r3, r7
 2786 08c4 0010A0E3 		mov	r1, #0
 2787 08c8 44FFFFEA 		b	.L137
 2788              	.LVL341:
 2789              	.L174:
 2790              	.LBE404:
 2791              	.LBE407:
 2792              	.LBE409:
 2793              	.LBE411:
 2794              	.LBE506:
 2795              	.LBE513:
 2796              	.LBB514:
 2797              	.LBB396:
 2798              	.LBB393:
 2799              	.LBB392:
 2800              	.LBB391:
 2801              	.LBB388:
 192:../src/tensorflow_lite/tensorflow/lite/micro/kernels/cmsis_nn/svdf.cc ****           dot_prod += *matrix_ptr++ * *vector_in_batch++;
 2802              		.loc 1 192 0
 2803 08cc 0B20A0E1 		mov	r2, fp
 2804 08d0 0730A0E1 		mov	r3, r7
 2805 08d4 0010A0E3 		mov	r1, #0
 2806 08d8 E4FEFFEA 		b	.L126
 2807              	.LVL342:
 2808              	.L217:
 2809              	.LBE388:
 2810              	.LBE391:
 2811              	.LBE392:
 2812              	.LBE393:
 2813              	.LBE396:
 2814              	.LBE514:
 2815              	.LBE520:
 2816              	.LBE523:
 2817              	.LBB524:
 2818              	.LBB525:
 2819              	.LBB526:
  36:C:/Renesas/e2studio_2021_01_workspace_RZA2M_ANPR/ANPR_RZA2M_GR_MANGO/src/tensorflow_lite/tensorflow/lite/micro/kernels\kernel_util.h **** }
 2820              		.loc 4 36 0
 2821 08dc 101093E5 		ldr	r1, [r3, #16]
 2822 08e0 0700A0E1 		mov	r0, r7
 2823 08e4 543097E5 		ldr	r3, [r7, #84]
 2824 08e8 33FF2FE1 		blx	r3
 2825              	.LVL343:
 2826 08ec 003095E5 		ldr	r3, [r5]
 2827              	.LBE526:
 2828              	.LBE525:
 2829              	.LBE524:
 436:../src/tensorflow_lite/tensorflow/lite/micro/kernels/cmsis_nn/svdf.cc ****           : nullptr;
 2830              		.loc 1 436 0
 2831 08f0 00A0A0E1 		mov	r10, r0
 2832 08f4 E3FDFFEA 		b	.L111
 2833              	.LVL344:
 2834              	.L220:
 2835              	.LBB527:
 2836              	.LBB521:
 2837              	.LBB515:
 2838              	.LBB507:
 2839              	.LBB415:
 2840              	.LBB416:
 104:../src/tensorflow_lite/tensorflow/lite/micro/kernels/cmsis_nn/svdf.cc ****       *output_data++ = 0.0f;
 2841              		.loc 1 104 0
 2842 08f8 58309DE5 		ldr	r3, [sp, #88]
 2843 08fc 3C209DE5 		ldr	r2, [sp, #60]
 2844 0900 930202E0 		mul	r2, r3, r2
 2845 0904 000052E3 		cmp	r2, #0
 2846 0908 060000DA 		ble	.L141
 2847              	.LVL345:
 2848              	.L140:
 2849 090c 0221A0E1 		lsl	r2, r2, #2
 2850 0910 0010A0E3 		mov	r1, #0
 2851 0914 60009DE5 		ldr	r0, [sp, #96]
 2852 0918 FEFFFFEB 		bl	memset
 2853              	.LVL346:
 2854              	.LBE416:
 2855              	.LBE415:
 2856              	.LBE507:
 2857              	.LBB508:
 110:../src/tensorflow_lite/tensorflow/lite/micro/kernels/cmsis_nn/svdf.cc ****     float* output_ptr_batch = output_ptr + b * num_units;
 2858              		.loc 1 110 0
 2859 091c 3C309DE5 		ldr	r3, [sp, #60]
 2860 0920 000053E3 		cmp	r3, #0
 2861 0924 43FEFFDA 		ble	.L206
 2862              	.LVL347:
 2863              	.L141:
 2864 0928 58309DE5 		ldr	r3, [sp, #88]
 2865 092c 000053E3 		cmp	r3, #0
 2866 0930 40FEFFDA 		ble	.L206
 2867 0934 0341A0E1 		lsl	r4, r3, #2
 2868 0938 57FFFFEA 		b	.L143
 2869              	.LVL348:
 2870              	.L219:
 2871              	.LBE508:
 2872              	.LBB509:
  93:../src/tensorflow_lite/tensorflow/lite/micro/kernels/cmsis_nn/svdf.cc ****     // VectorBatchVectorAssign
 2873              		.loc 1 93 0
 2874 093c 68309DE5 		ldr	r3, [sp, #104]
 2875              	.LVL349:
 2876 0940 000053E3 		cmp	r3, #0
 2877 0944 3BFEFF1A 		bne	.L206
 2878              	.LBB420:
 2879              	.LBB417:
 104:../src/tensorflow_lite/tensorflow/lite/micro/kernels/cmsis_nn/svdf.cc ****       *output_data++ = 0.0f;
 2880              		.loc 1 104 0
 2881 0948 58309DE5 		ldr	r3, [sp, #88]
 2882 094c 3C209DE5 		ldr	r2, [sp, #60]
 2883 0950 930202E0 		mul	r2, r3, r2
 2884              	.LBE417:
 2885              	.LBE420:
 2886              	.LBE509:
 2887              	.LBE515:
 203:../src/tensorflow_lite/tensorflow/lite/micro/kernels/cmsis_nn/svdf.cc **** }
 2888              		.loc 1 203 0
 2889 0954 54309DE5 		ldr	r3, [sp, #84]
 2890 0958 0430D3E5 		ldrb	r3, [r3, #4]	@ zero_extendqisi2
 2891              	.LBB516:
 2892              	.LBB510:
 2893              	.LBB421:
 2894              	.LBB418:
 104:../src/tensorflow_lite/tensorflow/lite/micro/kernels/cmsis_nn/svdf.cc ****       *output_data++ = 0.0f;
 2895              		.loc 1 104 0
 2896 095c 000052E3 		cmp	r2, #0
 2897              	.LBE418:
 2898              	.LBE421:
 2899              	.LBE510:
 2900              	.LBE516:
 203:../src/tensorflow_lite/tensorflow/lite/micro/kernels/cmsis_nn/svdf.cc **** }
 2901              		.loc 1 203 0
 2902 0960 6C308DE5 		str	r3, [sp, #108]
 2903              	.LVL350:
 2904              	.LBB517:
 2905              	.LBB511:
 2906              	.LBB422:
 2907              	.LBB419:
 104:../src/tensorflow_lite/tensorflow/lite/micro/kernels/cmsis_nn/svdf.cc ****       *output_data++ = 0.0f;
 2908              		.loc 1 104 0
 2909 0964 E8FFFFCA 		bgt	.L140
 2910 0968 32FEFFEA 		b	.L206
 2911              	.LVL351:
 2912              	.L121:
 2913              	.LBE419:
 2914              	.LBE422:
 2915              	.LBE511:
 2916              	.LBE517:
 203:../src/tensorflow_lite/tensorflow/lite/micro/kernels/cmsis_nn/svdf.cc **** }
 2917              		.loc 1 203 0
 2918 096c 54309DE5 		ldr	r3, [sp, #84]
 2919 0970 0430D3E5 		ldrb	r3, [r3, #4]	@ zero_extendqisi2
 2920 0974 6C308DE5 		str	r3, [sp, #108]
 2921              	.LVL352:
 2922 0978 34FFFFEA 		b	.L131
 2923              	.LVL353:
 2924              	.L177:
 2925              	.LBB518:
 2926              	.LBB512:
 2927              	.LBB502:
 2928              	.LBB499:
 2929              	.LBB495:
 2930              	.LBB481:
 2931              		.loc 5 49 0
 2932 097c 680AB0EE 		vmov.f32	s0, s17
 2933              	.LVL354:
 2934 0980 9BFFFFEA 		b	.L156
 2935              	.LVL355:
 2936              	.L110:
 2937              	.LBE481:
 2938              	.LBE495:
 2939              	.LBE499:
 2940              	.LBE502:
 2941              	.LBE512:
 2942              	.LBE518:
 2943              	.LBE521:
 2944              	.LBE527:
 425:../src/tensorflow_lite/tensorflow/lite/micro/kernels/cmsis_nn/svdf.cc ****   const OpData& data = *(static_cast<const OpData*>(node->user_data));
 2945              		.loc 1 425 0 discriminator 1
 2946 0984 FEFFFFEB 		bl	abort
 2947              	.LVL356:
 2948              		.cfi_endproc
 2949              	.LFE4269:
 2950              		.fnend
 2952              		.section	.text._ZN6tflite13Register_SVDFEv,"ax",%progbits
 2953              		.align	2
 2954              		.global	_ZN6tflite13Register_SVDFEv
 2955              		.syntax unified
 2956              		.arm
 2957              		.fpu neon
 2959              	_ZN6tflite13Register_SVDFEv:
 2960              		.fnstart
 2961              	.LFB4270:
 466:../src/tensorflow_lite/tensorflow/lite/micro/kernels/cmsis_nn/svdf.cc **** 
 467:../src/tensorflow_lite/tensorflow/lite/micro/kernels/cmsis_nn/svdf.cc **** }  // namespace
 468:../src/tensorflow_lite/tensorflow/lite/micro/kernels/cmsis_nn/svdf.cc **** 
 469:../src/tensorflow_lite/tensorflow/lite/micro/kernels/cmsis_nn/svdf.cc **** TfLiteRegistration Register_SVDF() {
 2962              		.loc 1 469 0
 2963              		.cfi_startproc
 2964              		@ args = 0, pretend = 0, frame = 0
 2965              		@ frame_needed = 0, uses_anonymous_args = 0
 2966              	.LVL357:
 470:../src/tensorflow_lite/tensorflow/lite/micro/kernels/cmsis_nn/svdf.cc ****   return {/*init=*/Init,
 471:../src/tensorflow_lite/tensorflow/lite/micro/kernels/cmsis_nn/svdf.cc ****           /*free=*/nullptr,
 472:../src/tensorflow_lite/tensorflow/lite/micro/kernels/cmsis_nn/svdf.cc ****           /*prepare=*/Prepare,
 473:../src/tensorflow_lite/tensorflow/lite/micro/kernels/cmsis_nn/svdf.cc ****           /*invoke=*/Eval,
 474:../src/tensorflow_lite/tensorflow/lite/micro/kernels/cmsis_nn/svdf.cc ****           /*profiling_string=*/nullptr,
 475:../src/tensorflow_lite/tensorflow/lite/micro/kernels/cmsis_nn/svdf.cc ****           /*builtin_code=*/0,
 476:../src/tensorflow_lite/tensorflow/lite/micro/kernels/cmsis_nn/svdf.cc ****           /*custom_name=*/nullptr,
 477:../src/tensorflow_lite/tensorflow/lite/micro/kernels/cmsis_nn/svdf.cc ****           /*version=*/0};
 2967              		.loc 1 477 0
 2968 0000 00C000E3 		movw	ip, #:lower16:.LANCHOR0
 469:../src/tensorflow_lite/tensorflow/lite/micro/kernels/cmsis_nn/svdf.cc ****   return {/*init=*/Init,
 2969              		.loc 1 469 0
 2970 0004 10402DE9 		push	{r4, lr}
 2971              		.cfi_def_cfa_offset 8
 2972              		.cfi_offset 4, -8
 2973              		.cfi_offset 14, -4
 2974              		.loc 1 477 0
 2975 0008 00C040E3 		movt	ip, #:upper16:.LANCHOR0
 469:../src/tensorflow_lite/tensorflow/lite/micro/kernels/cmsis_nn/svdf.cc ****   return {/*init=*/Init,
 2976              		.loc 1 469 0
 2977 000c 0040A0E1 		mov	r4, r0
 2978              		.loc 1 477 0
 2979 0010 00E0A0E1 		mov	lr, r0
 2980 0014 0F00BCE8 		ldmia	ip!, {r0, r1, r2, r3}
 2981              	.LVL358:
 2982 0018 0F00AEE8 		stmia	lr!, {r0, r1, r2, r3}
 2983 001c 0F009CE8 		ldm	ip, {r0, r1, r2, r3}
 2984 0020 0F008EE8 		stm	lr, {r0, r1, r2, r3}
 478:../src/tensorflow_lite/tensorflow/lite/micro/kernels/cmsis_nn/svdf.cc **** }
 2985              		.loc 1 478 0
 2986 0024 0400A0E1 		mov	r0, r4
 2987 0028 1080BDE8 		pop	{r4, pc}
 2988              		.cfi_endproc
 2989              	.LFE4270:
 2990              		.cantunwind
 2991              		.fnend
 2993              		.section	.rodata
 2994              		.align	2
 2995              		.set	.LANCHOR0,. + 0
 2996              	.LC0:
 2997 0000 00000000 		.word	_ZN6tflite12_GLOBAL__N_14InitEP13TfLiteContextPKcj
 2998 0004 00000000 		.word	0
 2999 0008 00000000 		.word	_ZN6tflite12_GLOBAL__N_17PrepareEP13TfLiteContextP10TfLiteNode
 3000 000c 00000000 		.word	_ZN6tflite12_GLOBAL__N_14EvalEP13TfLiteContextP10TfLiteNode
 3001 0010 00000000 		.word	0
 3002 0014 00000000 		.word	0
 3003 0018 00000000 		.word	0
 3004 001c 00000000 		.word	0
 3005              		.section	.rodata._ZN6tflite12_GLOBAL__N_14EvalEP13TfLiteContextP10TfLiteNode.str1.4,"aMS",%progbit
 3006              		.align	2
 3007              	.LC48:
 3008 0000 54797065 		.ascii	"Type %s not currently supported.\000"
 3008      20257320 
 3008      6E6F7420 
 3008      63757272 
 3008      656E746C 
 3009              		.section	.rodata._ZN6tflite12_GLOBAL__N_17PrepareEP13TfLiteContextP10TfLiteNode.str1.4,"aMS",%prog
 3010              		.align	2
 3011              	.LC1:
 3012 0000 2E2E2F73 		.ascii	"../src/tensorflow_lite/tensorflow/lite/micro/kernel"
 3012      72632F74 
 3012      656E736F 
 3012      72666C6F 
 3012      775F6C69 
 3013 0033 732F636D 		.ascii	"s/cmsis_nn/svdf.cc\000"
 3013      7369735F 
 3013      6E6E2F73 
 3013      7664662E 
 3013      636300
 3014 0046 0000     		.space	2
 3015              	.LC2:
 3016 0048 25733A25 		.ascii	"%s:%d %s was not true.\000"
 3016      64202573 
 3016      20776173 
 3016      206E6F74 
 3016      20747275 
 3017 005f 00       		.space	1
 3018              	.LC3:
 3019 0060 696E7075 		.ascii	"input != nullptr\000"
 3019      7420213D 
 3019      206E756C 
 3019      6C707472 
 3019      00
 3020 0071 000000   		.space	3
 3021              	.LC4:
 3022 0074 77656967 		.ascii	"weights_feature != nullptr\000"
 3022      6874735F 
 3022      66656174 
 3022      75726520 
 3022      213D206E 
 3023 008f 00       		.space	1
 3024              	.LC5:
 3025 0090 77656967 		.ascii	"weights_time != nullptr\000"
 3025      6874735F 
 3025      74696D65 
 3025      20213D20 
 3025      6E756C6C 
 3026              	.LC6:
 3027 00a8 61637469 		.ascii	"activation_state != nullptr\000"
 3027      76617469 
 3027      6F6E5F73 
 3027      74617465 
 3027      20213D20 
 3028              	.LC7:
 3029 00c4 25733A25 		.ascii	"%s:%d %s != %s (%d != %d)\000"
 3029      64202573 
 3029      20213D20 
 3029      25732028 
 3029      25642021 
 3030 00de 0000     		.space	2
 3031              	.LC8:
 3032 00e0 3000     		.ascii	"0\000"
 3033 00e2 0000     		.space	2
 3034              	.LC9:
 3035 00e4 6E756D5F 		.ascii	"num_filters % rank\000"
 3035      66696C74 
 3035      65727320 
 3035      25207261 
 3035      6E6B00
 3036 00f7 00       		.space	1
 3037              	.LC10:
 3038 00f8 696E7075 		.ascii	"input->type == kTfLiteFloat32 || input->type == kTf"
 3038      742D3E74 
 3038      79706520 
 3038      3D3D206B 
 3038      54664C69 
 3039 012b 4C697465 		.ascii	"LiteInt8\000"
 3039      496E7438 
 3039      00
 3040              	.LC11:
 3041 0134 3200     		.ascii	"2\000"
 3042 0136 0000     		.space	2
 3043              	.LC12:
 3044 0138 4E756D44 		.ascii	"NumDimensions(input)\000"
 3044      696D656E 
 3044      73696F6E 
 3044      7328696E 
 3044      70757429 
 3045 014d 000000   		.space	3
 3046              	.LC13:
 3047 0150 3100     		.ascii	"1\000"
 3048 0152 0000     		.space	2
 3049              	.LC14:
 3050 0154 6E6F6465 		.ascii	"node->outputs->size\000"
 3050      2D3E6F75 
 3050      74707574 
 3050      732D3E73 
 3050      697A6500 
 3051              	.LC15:
 3052 0168 4E756D44 		.ascii	"NumDimensions(output)\000"
 3052      696D656E 
 3052      73696F6E 
 3052      73286F75 
 3052      74707574 
 3053 017e 0000     		.space	2
 3054              	.LC16:
 3055 0180 62617463 		.ascii	"batch_size\000"
 3055      685F7369 
 3055      7A6500
 3056 018b 00       		.space	1
 3057              	.LC17:
 3058 018c 6F757470 		.ascii	"output->dims->data[0]\000"
 3058      75742D3E 
 3058      64696D73 
 3058      2D3E6461 
 3058      74615B30 
 3059 01a2 0000     		.space	2
 3060              	.LC18:
 3061 01a4 6E756D5F 		.ascii	"num_units\000"
 3061      756E6974 
 3061      7300
 3062 01ae 0000     		.space	2
 3063              	.LC19:
 3064 01b0 6F757470 		.ascii	"output->dims->data[1]\000"
 3064      75742D3E 
 3064      64696D73 
 3064      2D3E6461 
 3064      74615B31 
 3065 01c6 0000     		.space	2
 3066              	.LC20:
 3067 01c8 4E756D44 		.ascii	"NumDimensions(weights_feature)\000"
 3067      696D656E 
 3067      73696F6E 
 3067      73287765 
 3067      69676874 
 3068 01e7 00       		.space	1
 3069              	.LC21:
 3070 01e8 696E7075 		.ascii	"input_size\000"
 3070      745F7369 
 3070      7A6500
 3071 01f3 00       		.space	1
 3072              	.LC22:
 3073 01f4 77656967 		.ascii	"weights_feature->dims->data[1]\000"
 3073      6874735F 
 3073      66656174 
 3073      7572652D 
 3073      3E64696D 
 3074 0213 00       		.space	1
 3075              	.LC23:
 3076 0214 4E756D44 		.ascii	"NumDimensions(weights_time)\000"
 3076      696D656E 
 3076      73696F6E 
 3076      73287765 
 3076      69676874 
 3077              	.LC24:
 3078 0230 6E756D5F 		.ascii	"num_filters\000"
 3078      66696C74 
 3078      65727300 
 3079              	.LC25:
 3080 023c 77656967 		.ascii	"weights_time->dims->data[0]\000"
 3080      6874735F 
 3080      74696D65 
 3080      2D3E6469 
 3080      6D732D3E 
 3081              	.LC26:
 3082 0258 6D656D6F 		.ascii	"memory_size\000"
 3082      72795F73 
 3082      697A6500 
 3083              	.LC27:
 3084 0264 77656967 		.ascii	"weights_time->dims->data[1]\000"
 3084      6874735F 
 3084      74696D65 
 3084      2D3E6469 
 3084      6D732D3E 
 3085              	.LC28:
 3086 0280 62696173 		.ascii	"bias->dims->data[0]\000"
 3086      2D3E6469 
 3086      6D732D3E 
 3086      64617461 
 3086      5B305D00 
 3087              	.LC29:
 3088 0294 4E756D44 		.ascii	"NumDimensions(activation_state)\000"
 3088      696D656E 
 3088      73696F6E 
 3088      73286163 
 3088      74697661 
 3089              	.LC30:
 3090 02b4 61637469 		.ascii	"activation_state->dims->data[0]\000"
 3090      76617469 
 3090      6F6E5F73 
 3090      74617465 
 3090      2D3E6469 
 3091              	.LC31:
 3092 02d4 6D656D6F 		.ascii	"memory_size * num_filters\000"
 3092      72795F73 
 3092      697A6520 
 3092      2A206E75 
 3092      6D5F6669 
 3093 02ee 0000     		.space	2
 3094              	.LC32:
 3095 02f0 61637469 		.ascii	"activation_state->dims->data[1]\000"
 3095      76617469 
 3095      6F6E5F73 
 3095      74617465 
 3095      2D3E6469 
 3096              	.LC33:
 3097 0310 74727565 		.ascii	"true\000"
 3097      00
 3098 0315 000000   		.space	3
 3099              	.LC34:
 3100 0318 61637469 		.ascii	"activation_state->is_variable\000"
 3100      76617469 
 3100      6F6E5F73 
 3100      74617465 
 3100      2D3E6973 
 3101 0336 0000     		.space	2
 3102              	.LC35:
 3103 0338 3500     		.ascii	"5\000"
 3104 033a 0000     		.space	2
 3105              	.LC36:
 3106 033c 6E6F6465 		.ascii	"node->inputs->size\000"
 3106      2D3E696E 
 3106      70757473 
 3106      2D3E7369 
 3106      7A6500
 3107 034f 00       		.space	1
 3108              	.LC37:
 3109 0350 6B54664C 		.ascii	"kTfLiteInt8\000"
 3109      69746549 
 3109      6E743800 
 3110              	.LC38:
 3111 035c 77656967 		.ascii	"weights_feature->type\000"
 3111      6874735F 
 3111      66656174 
 3111      7572652D 
 3111      3E747970 
 3112 0372 0000     		.space	2
 3113              	.LC39:
 3114 0374 6B54664C 		.ascii	"kTfLiteInt16\000"
 3114      69746549 
 3114      6E743136 
 3114      00
 3115 0381 000000   		.space	3
 3116              	.LC40:
 3117 0384 77656967 		.ascii	"weights_time->type\000"
 3117      6874735F 
 3117      74696D65 
 3117      2D3E7479 
 3117      706500
 3118 0397 00       		.space	1
 3119              	.LC41:
 3120 0398 61637469 		.ascii	"activation_state->type\000"
 3120      76617469 
 3120      6F6E5F73 
 3120      74617465 
 3120      2D3E7479 
 3121 03af 00       		.space	1
 3122              	.LC42:
 3123 03b0 6B54664C 		.ascii	"kTfLiteInt32\000"
 3123      69746549 
 3123      6E743332 
 3123      00
 3124 03bd 000000   		.space	3
 3125              	.LC43:
 3126 03c0 62696173 		.ascii	"bias->type\000"
 3126      2D3E7479 
 3126      706500
 3127 03cb 00       		.space	1
 3128              	.LC44:
 3129 03cc 25733A25 		.ascii	"%s:%d %s != %s (%s != %s)\000"
 3129      64202573 
 3129      20213D20 
 3129      25732028 
 3129      25732021 
 3130 03e6 0000     		.space	2
 3131              	.LC45:
 3132 03e8 6F757470 		.ascii	"output->type\000"
 3132      75742D3E 
 3132      74797065 
 3132      00
 3133 03f5 000000   		.space	3
 3134              	.LC46:
 3135 03f8 7374643A 		.ascii	"std::abs(static_cast<double>(bias->params.scale) - "
 3135      3A616273 
 3135      28737461 
 3135      7469635F 
 3135      63617374 
 3136 042b 73746174 		.ascii	"static_cast<double>(activation_state->params.scale "
 3136      69635F63 
 3136      6173743C 
 3136      646F7562 
 3136      6C653E28 
 3137 045e 2A207765 		.ascii	"* weights_time->params.scale)) < 1e-5\000"
 3137      69676874 
 3137      735F7469 
 3137      6D652D3E 
 3137      70617261 
 3138              	.LC47:
 3139 0484 6B54664C 		.ascii	"kTfLiteFloat32\000"
 3139      69746546 
 3139      6C6F6174 
 3139      333200
 3140              		.text
 3141              	.Letext0:
 3142              		.file 6 "c:\\program files (x86)\\gnu tools arm embedded\\6 2017-q2-update\\arm-none-eabi\\include
 3143              		.file 7 "c:\\program files (x86)\\gnu tools arm embedded\\6 2017-q2-update\\arm-none-eabi\\include
 3144              		.file 8 "c:\\program files (x86)\\gnu tools arm embedded\\6 2017-q2-update\\arm-none-eabi\\include
 3145              		.file 9 "c:\\program files (x86)\\gnu tools arm embedded\\6 2017-q2-update\\arm-none-eabi\\include
 3146              		.file 10 "c:\\program files (x86)\\gnu tools arm embedded\\6 2017-q2-update\\arm-none-eabi\\includ
 3147              		.file 11 "c:\\program files (x86)\\gnu tools arm embedded\\6 2017-q2-update\\arm-none-eabi\\includ
 3148              		.file 12 "c:\\program files (x86)\\gnu tools arm embedded\\6 2017-q2-update\\arm-none-eabi\\includ
 3149              		.file 13 "c:\\program files (x86)\\gnu tools arm embedded\\6 2017-q2-update\\arm-none-eabi\\includ
 3150              		.file 14 "c:\\program files (x86)\\gnu tools arm embedded\\6 2017-q2-update\\arm-none-eabi\\includ
 3151              		.file 15 "c:\\program files (x86)\\gnu tools arm embedded\\6 2017-q2-update\\arm-none-eabi\\includ
 3152              		.file 16 "c:\\program files (x86)\\gnu tools arm embedded\\6 2017-q2-update\\arm-none-eabi\\includ
 3153              		.file 17 "c:\\program files (x86)\\gnu tools arm embedded\\6 2017-q2-update\\arm-none-eabi\\includ
 3154              		.file 18 "c:\\program files (x86)\\gnu tools arm embedded\\6 2017-q2-update\\arm-none-eabi\\includ
 3155              		.file 19 "c:\\program files (x86)\\gnu tools arm embedded\\6 2017-q2-update\\arm-none-eabi\\includ
 3156              		.file 20 "c:\\program files (x86)\\gnu tools arm embedded\\6 2017-q2-update\\arm-none-eabi\\includ
 3157              		.file 21 "c:\\program files (x86)\\gnu tools arm embedded\\6 2017-q2-update\\arm-none-eabi\\includ
 3158              		.file 22 "c:\\program files (x86)\\gnu tools arm embedded\\6 2017-q2-update\\arm-none-eabi\\includ
 3159              		.file 23 "c:\\program files (x86)\\gnu tools arm embedded\\6 2017-q2-update\\arm-none-eabi\\includ
 3160              		.file 24 "c:\\program files (x86)\\gnu tools arm embedded\\6 2017-q2-update\\arm-none-eabi\\includ
 3161              		.file 25 "c:\\program files (x86)\\gnu tools arm embedded\\6 2017-q2-update\\arm-none-eabi\\includ
 3162              		.file 26 "c:\\program files (x86)\\gnu tools arm embedded\\6 2017-q2-update\\lib\\gcc\\arm-none-ea
 3163              		.file 27 "c:\\program files (x86)\\gnu tools arm embedded\\6 2017-q2-update\\arm-none-eabi\\includ
 3164              		.file 28 "c:\\program files (x86)\\gnu tools arm embedded\\6 2017-q2-update\\arm-none-eabi\\includ
 3165              		.file 29 "c:\\program files (x86)\\gnu tools arm embedded\\6 2017-q2-update\\arm-none-eabi\\includ
 3166              		.file 30 "c:\\program files (x86)\\gnu tools arm embedded\\6 2017-q2-update\\arm-none-eabi\\includ
 3167              		.file 31 "c:\\program files (x86)\\gnu tools arm embedded\\6 2017-q2-update\\arm-none-eabi\\includ
 3168              		.file 32 "c:\\program files (x86)\\gnu tools arm embedded\\6 2017-q2-update\\arm-none-eabi\\includ
 3169              		.file 33 "c:\\program files (x86)\\gnu tools arm embedded\\6 2017-q2-update\\arm-none-eabi\\includ
 3170              		.file 34 "C:/Renesas/e2studio_2021_01_workspace_RZA2M_ANPR/ANPR_RZA2M_GR_MANGO/src/tensorflow_lite
 3171              		.file 35 "c:\\program files (x86)\\gnu tools arm embedded\\6 2017-q2-update\\arm-none-eabi\\includ
 3172              		.file 36 "C:/Renesas/e2studio_2021_01_workspace_RZA2M_ANPR/ANPR_RZA2M_GR_MANGO/src/tensorflow_lite
 3173              		.file 37 "C:/Renesas/e2studio_2021_01_workspace_RZA2M_ANPR/ANPR_RZA2M_GR_MANGO/src/tensorflow_lite
 3174              		.file 38 "C:/Renesas/e2studio_2021_01_workspace_RZA2M_ANPR/ANPR_RZA2M_GR_MANGO/src/tensorflow_lite
 3175              		.file 39 "c:\\program files (x86)\\gnu tools arm embedded\\6 2017-q2-update\\lib\\gcc\\arm-none-ea
 3176              		.file 40 "<built-in>"
 3177              		.file 41 "c:\\program files (x86)\\gnu tools arm embedded\\6 2017-q2-update\\arm-none-eabi\\includ
 3178              		.file 42 "c:\\program files (x86)\\gnu tools arm embedded\\6 2017-q2-update\\arm-none-eabi\\includ
 3179              		.file 43 "c:\\program files (x86)\\gnu tools arm embedded\\6 2017-q2-update\\arm-none-eabi\\includ
 3180              		.file 44 "c:\\program files (x86)\\gnu tools arm embedded\\6 2017-q2-update\\arm-none-eabi\\includ
 3181              		.file 45 "c:\\program files (x86)\\gnu tools arm embedded\\6 2017-q2-update\\arm-none-eabi\\includ
 3182              		.file 46 "c:\\program files (x86)\\gnu tools arm embedded\\6 2017-q2-update\\arm-none-eabi\\includ
 3183              		.file 47 "C:/Renesas/e2studio_2021_01_workspace_RZA2M_ANPR/ANPR_RZA2M_GR_MANGO/src/tensorflow_lite
 3184              		.file 48 "c:\\program files (x86)\\gnu tools arm embedded\\6 2017-q2-update\\arm-none-eabi\\includ
 3185              		.file 49 "C:/Renesas/e2studio_2021_01_workspace_RZA2M_ANPR/ANPR_RZA2M_GR_MANGO/src/tensorflow_lite
 3186              		.file 50 "C:/Renesas/e2studio_2021_01_workspace_RZA2M_ANPR/ANPR_RZA2M_GR_MANGO/src/tensorflow_lite
 3187              		.file 51 "C:/Renesas/e2studio_2021_01_workspace_RZA2M_ANPR/ANPR_RZA2M_GR_MANGO/src/tensorflow_lite
 3188              		.file 52 "C:/Renesas/e2studio_2021_01_workspace_RZA2M_ANPR/ANPR_RZA2M_GR_MANGO/src/tensorflow_lite
 3189              		.file 53 "C:/Renesas/e2studio_2021_01_workspace_RZA2M_ANPR/ANPR_RZA2M_GR_MANGO/src/tensorflow_lite
 3190              		.file 54 "C:/Renesas/e2studio_2021_01_workspace_RZA2M_ANPR/ANPR_RZA2M_GR_MANGO/src/tensorflow_lite
DEFINED SYMBOLS
                            *ABS*:00000000 svdf.cc
C:\Users\a5050395\AppData\Local\Temp\ccekUbn0.s:17     .text._ZN6tflite12_GLOBAL__N_14InitEP13TfLiteContextPKcj:00000000 $a
C:\Users\a5050395\AppData\Local\Temp\ccekUbn0.s:22     .text._ZN6tflite12_GLOBAL__N_14InitEP13TfLiteContextPKcj:00000000 _ZN6tflite12_GLOBAL__N_14InitEP13TfLiteContextPKcj
.ARM.exidx.text._ZN6tflite12_GLOBAL__N_14InitEP13TfLiteContextPKcj:00000000 $d
C:\Users\a5050395\AppData\Local\Temp\ccekUbn0.s:57     .text._ZN6tflite12_GLOBAL__N_17PrepareEP13TfLiteContextP10TfLiteNode:00000000 $a
C:\Users\a5050395\AppData\Local\Temp\ccekUbn0.s:62     .text._ZN6tflite12_GLOBAL__N_17PrepareEP13TfLiteContextP10TfLiteNode:00000000 _ZN6tflite12_GLOBAL__N_17PrepareEP13TfLiteContextP10TfLiteNode
C:\Users\a5050395\AppData\Local\Temp\ccekUbn0.s:3046   .rodata._ZN6tflite12_GLOBAL__N_17PrepareEP13TfLiteContextP10TfLiteNode.str1.4:00000150 .LC13
C:\Users\a5050395\AppData\Local\Temp\ccekUbn0.s:3049   .rodata._ZN6tflite12_GLOBAL__N_17PrepareEP13TfLiteContextP10TfLiteNode.str1.4:00000154 .LC14
C:\Users\a5050395\AppData\Local\Temp\ccekUbn0.s:3011   .rodata._ZN6tflite12_GLOBAL__N_17PrepareEP13TfLiteContextP10TfLiteNode.str1.4:00000000 .LC1
C:\Users\a5050395\AppData\Local\Temp\ccekUbn0.s:3028   .rodata._ZN6tflite12_GLOBAL__N_17PrepareEP13TfLiteContextP10TfLiteNode.str1.4:000000c4 .LC7
C:\Users\a5050395\AppData\Local\Temp\ccekUbn0.s:3037   .rodata._ZN6tflite12_GLOBAL__N_17PrepareEP13TfLiteContextP10TfLiteNode.str1.4:000000f8 .LC10
C:\Users\a5050395\AppData\Local\Temp\ccekUbn0.s:3015   .rodata._ZN6tflite12_GLOBAL__N_17PrepareEP13TfLiteContextP10TfLiteNode.str1.4:00000048 .LC2
C:\Users\a5050395\AppData\Local\Temp\ccekUbn0.s:3040   .rodata._ZN6tflite12_GLOBAL__N_17PrepareEP13TfLiteContextP10TfLiteNode.str1.4:00000134 .LC11
C:\Users\a5050395\AppData\Local\Temp\ccekUbn0.s:3043   .rodata._ZN6tflite12_GLOBAL__N_17PrepareEP13TfLiteContextP10TfLiteNode.str1.4:00000138 .LC12
C:\Users\a5050395\AppData\Local\Temp\ccekUbn0.s:3031   .rodata._ZN6tflite12_GLOBAL__N_17PrepareEP13TfLiteContextP10TfLiteNode.str1.4:000000e0 .LC8
C:\Users\a5050395\AppData\Local\Temp\ccekUbn0.s:3034   .rodata._ZN6tflite12_GLOBAL__N_17PrepareEP13TfLiteContextP10TfLiteNode.str1.4:000000e4 .LC9
C:\Users\a5050395\AppData\Local\Temp\ccekUbn0.s:3018   .rodata._ZN6tflite12_GLOBAL__N_17PrepareEP13TfLiteContextP10TfLiteNode.str1.4:00000060 .LC3
C:\Users\a5050395\AppData\Local\Temp\ccekUbn0.s:3021   .rodata._ZN6tflite12_GLOBAL__N_17PrepareEP13TfLiteContextP10TfLiteNode.str1.4:00000074 .LC4
C:\Users\a5050395\AppData\Local\Temp\ccekUbn0.s:3024   .rodata._ZN6tflite12_GLOBAL__N_17PrepareEP13TfLiteContextP10TfLiteNode.str1.4:00000090 .LC5
C:\Users\a5050395\AppData\Local\Temp\ccekUbn0.s:3054   .rodata._ZN6tflite12_GLOBAL__N_17PrepareEP13TfLiteContextP10TfLiteNode.str1.4:00000180 .LC16
C:\Users\a5050395\AppData\Local\Temp\ccekUbn0.s:3057   .rodata._ZN6tflite12_GLOBAL__N_17PrepareEP13TfLiteContextP10TfLiteNode.str1.4:0000018c .LC17
C:\Users\a5050395\AppData\Local\Temp\ccekUbn0.s:3051   .rodata._ZN6tflite12_GLOBAL__N_17PrepareEP13TfLiteContextP10TfLiteNode.str1.4:00000168 .LC15
C:\Users\a5050395\AppData\Local\Temp\ccekUbn0.s:3026   .rodata._ZN6tflite12_GLOBAL__N_17PrepareEP13TfLiteContextP10TfLiteNode.str1.4:000000a8 .LC6
C:\Users\a5050395\AppData\Local\Temp\ccekUbn0.s:3060   .rodata._ZN6tflite12_GLOBAL__N_17PrepareEP13TfLiteContextP10TfLiteNode.str1.4:000001a4 .LC18
C:\Users\a5050395\AppData\Local\Temp\ccekUbn0.s:3063   .rodata._ZN6tflite12_GLOBAL__N_17PrepareEP13TfLiteContextP10TfLiteNode.str1.4:000001b0 .LC19
C:\Users\a5050395\AppData\Local\Temp\ccekUbn0.s:3066   .rodata._ZN6tflite12_GLOBAL__N_17PrepareEP13TfLiteContextP10TfLiteNode.str1.4:000001c8 .LC20
C:\Users\a5050395\AppData\Local\Temp\ccekUbn0.s:3069   .rodata._ZN6tflite12_GLOBAL__N_17PrepareEP13TfLiteContextP10TfLiteNode.str1.4:000001e8 .LC21
C:\Users\a5050395\AppData\Local\Temp\ccekUbn0.s:3072   .rodata._ZN6tflite12_GLOBAL__N_17PrepareEP13TfLiteContextP10TfLiteNode.str1.4:000001f4 .LC22
C:\Users\a5050395\AppData\Local\Temp\ccekUbn0.s:3075   .rodata._ZN6tflite12_GLOBAL__N_17PrepareEP13TfLiteContextP10TfLiteNode.str1.4:00000214 .LC23
C:\Users\a5050395\AppData\Local\Temp\ccekUbn0.s:3077   .rodata._ZN6tflite12_GLOBAL__N_17PrepareEP13TfLiteContextP10TfLiteNode.str1.4:00000230 .LC24
C:\Users\a5050395\AppData\Local\Temp\ccekUbn0.s:3079   .rodata._ZN6tflite12_GLOBAL__N_17PrepareEP13TfLiteContextP10TfLiteNode.str1.4:0000023c .LC25
C:\Users\a5050395\AppData\Local\Temp\ccekUbn0.s:3081   .rodata._ZN6tflite12_GLOBAL__N_17PrepareEP13TfLiteContextP10TfLiteNode.str1.4:00000258 .LC26
C:\Users\a5050395\AppData\Local\Temp\ccekUbn0.s:3083   .rodata._ZN6tflite12_GLOBAL__N_17PrepareEP13TfLiteContextP10TfLiteNode.str1.4:00000264 .LC27
C:\Users\a5050395\AppData\Local\Temp\ccekUbn0.s:3085   .rodata._ZN6tflite12_GLOBAL__N_17PrepareEP13TfLiteContextP10TfLiteNode.str1.4:00000280 .LC28
C:\Users\a5050395\AppData\Local\Temp\ccekUbn0.s:3087   .rodata._ZN6tflite12_GLOBAL__N_17PrepareEP13TfLiteContextP10TfLiteNode.str1.4:00000294 .LC29
C:\Users\a5050395\AppData\Local\Temp\ccekUbn0.s:3089   .rodata._ZN6tflite12_GLOBAL__N_17PrepareEP13TfLiteContextP10TfLiteNode.str1.4:000002b4 .LC30
C:\Users\a5050395\AppData\Local\Temp\ccekUbn0.s:3091   .rodata._ZN6tflite12_GLOBAL__N_17PrepareEP13TfLiteContextP10TfLiteNode.str1.4:000002d4 .LC31
C:\Users\a5050395\AppData\Local\Temp\ccekUbn0.s:3094   .rodata._ZN6tflite12_GLOBAL__N_17PrepareEP13TfLiteContextP10TfLiteNode.str1.4:000002f0 .LC32
C:\Users\a5050395\AppData\Local\Temp\ccekUbn0.s:3102   .rodata._ZN6tflite12_GLOBAL__N_17PrepareEP13TfLiteContextP10TfLiteNode.str1.4:00000338 .LC35
C:\Users\a5050395\AppData\Local\Temp\ccekUbn0.s:3105   .rodata._ZN6tflite12_GLOBAL__N_17PrepareEP13TfLiteContextP10TfLiteNode.str1.4:0000033c .LC36
C:\Users\a5050395\AppData\Local\Temp\ccekUbn0.s:3113   .rodata._ZN6tflite12_GLOBAL__N_17PrepareEP13TfLiteContextP10TfLiteNode.str1.4:00000374 .LC39
C:\Users\a5050395\AppData\Local\Temp\ccekUbn0.s:3119   .rodata._ZN6tflite12_GLOBAL__N_17PrepareEP13TfLiteContextP10TfLiteNode.str1.4:00000398 .LC41
C:\Users\a5050395\AppData\Local\Temp\ccekUbn0.s:3116   .rodata._ZN6tflite12_GLOBAL__N_17PrepareEP13TfLiteContextP10TfLiteNode.str1.4:00000384 .LC40
C:\Users\a5050395\AppData\Local\Temp\ccekUbn0.s:3134   .rodata._ZN6tflite12_GLOBAL__N_17PrepareEP13TfLiteContextP10TfLiteNode.str1.4:000003f8 .LC46
C:\Users\a5050395\AppData\Local\Temp\ccekUbn0.s:3108   .rodata._ZN6tflite12_GLOBAL__N_17PrepareEP13TfLiteContextP10TfLiteNode.str1.4:00000350 .LC37
C:\Users\a5050395\AppData\Local\Temp\ccekUbn0.s:3131   .rodata._ZN6tflite12_GLOBAL__N_17PrepareEP13TfLiteContextP10TfLiteNode.str1.4:000003e8 .LC45
C:\Users\a5050395\AppData\Local\Temp\ccekUbn0.s:3128   .rodata._ZN6tflite12_GLOBAL__N_17PrepareEP13TfLiteContextP10TfLiteNode.str1.4:000003cc .LC44
C:\Users\a5050395\AppData\Local\Temp\ccekUbn0.s:3110   .rodata._ZN6tflite12_GLOBAL__N_17PrepareEP13TfLiteContextP10TfLiteNode.str1.4:0000035c .LC38
C:\Users\a5050395\AppData\Local\Temp\ccekUbn0.s:3122   .rodata._ZN6tflite12_GLOBAL__N_17PrepareEP13TfLiteContextP10TfLiteNode.str1.4:000003b0 .LC42
C:\Users\a5050395\AppData\Local\Temp\ccekUbn0.s:3125   .rodata._ZN6tflite12_GLOBAL__N_17PrepareEP13TfLiteContextP10TfLiteNode.str1.4:000003c0 .LC43
C:\Users\a5050395\AppData\Local\Temp\ccekUbn0.s:3138   .rodata._ZN6tflite12_GLOBAL__N_17PrepareEP13TfLiteContextP10TfLiteNode.str1.4:00000484 .LC47
C:\Users\a5050395\AppData\Local\Temp\ccekUbn0.s:3096   .rodata._ZN6tflite12_GLOBAL__N_17PrepareEP13TfLiteContextP10TfLiteNode.str1.4:00000310 .LC33
C:\Users\a5050395\AppData\Local\Temp\ccekUbn0.s:3099   .rodata._ZN6tflite12_GLOBAL__N_17PrepareEP13TfLiteContextP10TfLiteNode.str1.4:00000318 .LC34
C:\Users\a5050395\AppData\Local\Temp\ccekUbn0.s:1352   .text._ZN6tflite12_GLOBAL__N_17PrepareEP13TfLiteContextP10TfLiteNode:00000ca8 $d
C:\Users\a5050395\AppData\Local\Temp\ccekUbn0.s:1357   .text._ZN6tflite12_GLOBAL__N_17PrepareEP13TfLiteContextP10TfLiteNode:00000cb0 $a
.ARM.extab.text._ZN6tflite12_GLOBAL__N_17PrepareEP13TfLiteContextP10TfLiteNode:00000000 $d
.ARM.exidx.text._ZN6tflite12_GLOBAL__N_17PrepareEP13TfLiteContextP10TfLiteNode:00000000 $d
C:\Users\a5050395\AppData\Local\Temp\ccekUbn0.s:1389   .text._ZN6tflite12_GLOBAL__N_14EvalEP13TfLiteContextP10TfLiteNode:00000000 $a
C:\Users\a5050395\AppData\Local\Temp\ccekUbn0.s:1394   .text._ZN6tflite12_GLOBAL__N_14EvalEP13TfLiteContextP10TfLiteNode:00000000 _ZN6tflite12_GLOBAL__N_14EvalEP13TfLiteContextP10TfLiteNode
C:\Users\a5050395\AppData\Local\Temp\ccekUbn0.s:3007   .rodata._ZN6tflite12_GLOBAL__N_14EvalEP13TfLiteContextP10TfLiteNode.str1.4:00000000 .LC48
C:\Users\a5050395\AppData\Local\Temp\ccekUbn0.s:2510   .text._ZN6tflite12_GLOBAL__N_14EvalEP13TfLiteContextP10TfLiteNode:000007c0 $d
C:\Users\a5050395\AppData\Local\Temp\ccekUbn0.s:2520   .text._ZN6tflite12_GLOBAL__N_14EvalEP13TfLiteContextP10TfLiteNode:000007c4 $a
C:\Users\a5050395\AppData\Local\Temp\ccekUbn0.s:2529   .text._ZN6tflite12_GLOBAL__N_14EvalEP13TfLiteContextP10TfLiteNode:000007d4 $d
C:\Users\a5050395\AppData\Local\Temp\ccekUbn0.s:2541   .text._ZN6tflite12_GLOBAL__N_14EvalEP13TfLiteContextP10TfLiteNode:000007f0 $a
.ARM.extab.text._ZN6tflite12_GLOBAL__N_14EvalEP13TfLiteContextP10TfLiteNode:00000000 $d
.ARM.exidx.text._ZN6tflite12_GLOBAL__N_14EvalEP13TfLiteContextP10TfLiteNode:00000000 $d
C:\Users\a5050395\AppData\Local\Temp\ccekUbn0.s:2953   .text._ZN6tflite13Register_SVDFEv:00000000 $a
C:\Users\a5050395\AppData\Local\Temp\ccekUbn0.s:2959   .text._ZN6tflite13Register_SVDFEv:00000000 _ZN6tflite13Register_SVDFEv
C:\Users\a5050395\AppData\Local\Temp\ccekUbn0.s:2995   .rodata:00000000 .LANCHOR0
.ARM.exidx.text._ZN6tflite13Register_SVDFEv:00000000 $d
C:\Users\a5050395\AppData\Local\Temp\ccekUbn0.s:2994   .rodata:00000000 $d
C:\Users\a5050395\AppData\Local\Temp\ccekUbn0.s:3006   .rodata._ZN6tflite12_GLOBAL__N_14EvalEP13TfLiteContextP10TfLiteNode.str1.4:00000000 $d
C:\Users\a5050395\AppData\Local\Temp\ccekUbn0.s:3010   .rodata._ZN6tflite12_GLOBAL__N_17PrepareEP13TfLiteContextP10TfLiteNode.str1.4:00000000 $d
                     .debug_frame:00000010 $d
                           .group:00000000 wm4.0.3e1481985cce1e923928453d8be0a65b
                           .group:00000000 wm4.cconfig.h.31.1472b8c7bd4952a63a52f3f4f718f872
                           .group:00000000 wm4.cpu_defines.h.31.54d44f9d3e7c42875c5a7fd49795eb93
                           .group:00000000 wm4.cconfig.h.515.5e729db314ae74226e291b4ae081e353
                           .group:00000000 wm4.cpp_type_traits.h.33.9f2bfd8c4471a9a299f6da3ec24c745c
                           .group:00000000 wm4._newlib_version.h.4.3572908597b70d672d181fc7fc501c19
                           .group:00000000 wm4.newlib.h.21.59901f4bf241ab46c63694665baa7297
                           .group:00000000 wm4.features.h.22.37852b648068a281464730a5a4cc748e
                           .group:00000000 wm4.config.h.219.65a553ab5bef5482f0d7880b0d33015e
                           .group:00000000 wm4._ansi.h.23.1ee1144430bedaab1a14c7b57a6c8384
                           .group:00000000 wm4.stddef.h.39.fa2e86d241f4df50b9327c72832885e1
                           .group:00000000 wm4._default_types.h.6.959254cf5f09734ea7516c89e8bb21bd
                           .group:00000000 wm4.lock.h.2.1461d1fff82dffe8bfddc23307f6484f
                           .group:00000000 wm4._types.h.125.5cf8a495f1f7ef36777ad868a1e32068
                           .group:00000000 wm4.stddef.h.161.7e98c9c86da0ed2d27af2ef92af7d013
                           .group:00000000 wm4._types.h.183.c226d164ceca1f2ecb9ae9360c54a098
                           .group:00000000 wm4.reent.h.17.23b059516345f8f5abfa01ddc379570f
                           .group:00000000 wm4.cdefs.h.47.9bc8274c84fddbf05edd550eb0bf48cd
                           .group:00000000 wm4.math.h.13.e7cbdea54f4da98ab8f7fad4d23502b2
                           .group:00000000 wm4.cmath.46.d6e5b776115d39075860ed881d18f087
                           .group:00000000 wm4.stdint.h.4.659be5aa44c4ab4eb7c7cc2b24d8ceee
                           .group:00000000 wm4._intsup.h.10.cce27fed8484c08a33f522034c30d2b5
                           .group:00000000 wm4._stdint.h.10.c24fa3af3bc1706662bb5593a907e841
                           .group:00000000 wm4.stdint.h.23.d53047a68f4a85177f80b422d52785ed
                           .group:00000000 wm4.cmsis_gcc.h.26.46d66de85d0f338d1a08c5c2dee519c6
                           .group:00000000 wm4.string.h.8.c4b8571ce60dff2817f43fec8b86aecd
                           .group:00000000 wm4.stddef.h.161.38688f2eb958a8ed58fdb61ffe554c94
                           .group:00000000 wm4.cmath.44.b3bcbb5fe53ec6617dec8aa8eb7b03cc
                           .group:00000000 wm4.float.h.29.86c3142490a28bd085b605be3afde6ca
                           .group:00000000 wm4.limits.h.2.a76e572559edc4d4305b1cf624158ea8
                           .group:00000000 wm4.limits.h.60.d6dc41bd25b93fde4707e6decaa3afd7
                           .group:00000000 wm4.arm_math_types.h.86.d234ffd9523de96a34ed4dd0f785756f
                           .group:00000000 wm4.stdbool.h.29.01580e438512fc255c0619569742ffd3
                           .group:00000000 wm4.c_api_types.h.20.9b09175981ed746180e205cc0b4b2bfd
                           .group:00000000 wm4.common.h.77.124de099ec0ac4f95ebf1618a5f42cf6
                           .group:00000000 wm4.atomic_lockfree_defines.h.31.d5c6334fb1e95c9462b052951f1411df
                           .group:00000000 wm4.exception_defines.h.31.ca6841b9be3287386aafc5c717935b2e
                           .group:00000000 wm4.concept_check.h.31.f19605d278e56917c68a56d378be308c
                           .group:00000000 wm4.type_traits.30.2c7323a483bcd7601e8b71d2546ae284
                           .group:00000000 wm4.move.h.152.41d7b9e6779674d169b7813982cfa003
                           .group:00000000 wm4.numeric_traits.h.30.aa01a98564b7e55086aad9e53c7e5c53
                           .group:00000000 wm4.assertions.h.30.51d443923f0d242550e04246a7819b39
                           .group:00000000 wm4.stl_iterator.h.1250.45f349a262f1b0d836d8edbc4b7b98ff
                           .group:00000000 wm4.debug.h.30.5c1f223b12199e851d4d42805b788ccf
                           .group:00000000 wm4.stl_algobase.h.491.aa250b69c90aafa2a0a62b8c58cd5f30
                           .group:00000000 wm4.wchar.h.2.f837619576d797e948eb58c44fac4678
                           .group:00000000 wm4.stddef.h.161.9f48187563b2a85291a91832aa425498
                           .group:00000000 wm4.stdarg.h.34.3a23a216c0c293b3d2ea2e89281481e6
                           .group:00000000 wm4.wchar.h.41.2307b469886c2ca55d92707971ac50ce
                           .group:00000000 wm4.cwchar.48.c4e882638bf84f6da89479dda6fe8e17
                           .group:00000000 wm4.allocator.h.52.0ceafb36dc1b82dbfa6b05003082e3f5
                           .group:00000000 wm4.locale.h.8.27d0fe4c0abbb6f8893a1fa7c1799fd9
                           .group:00000000 wm4.locale.h.16.524572cf3c2ed9856516685acdc598fe
                           .group:00000000 wm4.clocale.45.c36d2d5b631a875aa5273176b54fdf0f
                           .group:00000000 wm4.ctype.h.2.da310d2ad165ccf8b86542f76fdb938d
                           .group:00000000 wm4.cctype.45.0da5714876b0be7f2d816b53d9670403
                           .group:00000000 wm4.gthr.h.27.ceb1c66b926f052afcba57e8784df0d4
                           .group:00000000 wm4.gthrdefault.h.27.edc94d4398c0534988962be77dc3c2e1
                           .group:00000000 wm4.atomic_word.h.30.9e0ac69fd462d5e650933e05133b4afa
                           .group:00000000 wm4.alloc_traits.h.31.c41c7c4789404962122a4e991dfa3abf
                           .group:00000000 wm4.cstdlib.44.52c5efdfb0f3c176bd11e611a0b94959
                           .group:00000000 wm4.stdlib.h.13.4ed386f5c1a80d71e72172885d946ef2
                           .group:00000000 wm4.stdlib.h.56.b4ddaf162082f284ba35b4444af99a9a
                           .group:00000000 wm4.cstdlib.76.ae666499c8f9b0ace1b4b23fe143da2c
                           .group:00000000 wm4.stdio.h.27.3fc80220048df77954e38daec3bb9670
                           .group:00000000 wm4.types.h.40.e8c16e7ec36ba55f133d0616070e25fc
                           .group:00000000 wm4.types.h.114.fb65732f4f5f288a036a25898de2c91f
                           .group:00000000 wm4.stdio.h.2.4aa87247282eca6c8f36f9de33d8df1a
                           .group:00000000 wm4.stdio.h.81.c3e9cb15e5af2807c4650345134c1a8a
                           .group:00000000 wm4.cstdio.45.ba8d321feb18bfc8923454067605c368
                           .group:00000000 wm4.errno.h.2.ba016d646105af6cad23be83630b6a3f
                           .group:00000000 wm4.errno.h.9.1ecd7b1049497a0ab61da0f6cbd4b0c6
                           .group:00000000 wm4.functional_hash.h.31.bccc014fee6fc3f930045d809df6f486
                           .group:00000000 wm4.functional.549.0bc5b448cf999863d3841495cd6fe920
                           .group:00000000 wm4.limits.38.55aefcf041805b6211ca3649dd2ab1b5
                           .group:00000000 wm4.assert.h.11.a5d97ca77559a42890313c4941c01fd9
                           .group:00000000 wm4.detect_platform.h.19.a1891273c0cad215067ddb8219400136
                           .group:00000000 wm4.fixedpoint.h.567.8a6371d9452be19811601bace78b0abc
                           .group:00000000 wm4.cppmath.h.27.51580d700716589df4b364298e2ef577
                           .group:00000000 wm4.neon_check.h.16.79a4dcb572cbeac06c4924f1f20cb68d
                           .group:00000000 wm4.cstring.45.6ab09de7fb97b576e744347688ddc8d7
                           .group:00000000 wm4.op_macros.h.42.7b718cb416a067e7bb07e7699647769b
                           .group:00000000 wm4.compatibility.h.23.702d6356326ea59aded8ef5c6c4626d5

UNDEFINED SYMBOLS
abort
__aeabi_unwind_cpp_pr0
__aeabi_idivmod
__aeabi_idiv
_ZN6tflite8GetInputEPK13TfLiteContextPK10TfLiteNodei
_ZN6tflite22GetOptionalInputTensorEPK13TfLiteContextPK10TfLiteNodei
_ZN6tflite9GetOutputEP13TfLiteContextPK10TfLiteNodei
_ZN6tflite18QuantizeMultiplierEdPlPi
TfLiteTypeGetName
__aeabi_unwind_cpp_pr1
arm_svdf_s8
memmove
tanhf
fminf
fmaxf
expf
memset
