   1              		.cpu cortex-a9
   2              		.eabi_attribute 28, 1
   3              		.eabi_attribute 20, 1
   4              		.eabi_attribute 21, 1
   5              		.eabi_attribute 23, 3
   6              		.eabi_attribute 24, 1
   7              		.eabi_attribute 25, 1
   8              		.eabi_attribute 26, 1
   9              		.eabi_attribute 30, 2
  10              		.eabi_attribute 34, 0
  11              		.eabi_attribute 18, 4
  12              		.file	"svdf.cc"
  13              		.text
  14              	.Ltext0:
  15              		.cfi_sections	.debug_frame
  16              		.section	.text._ZN6tflite12_GLOBAL__N_14InitEP13TfLiteContextPKcj,"ax",%progbits
  17              		.align	2
  18              		.syntax unified
  19              		.arm
  20              		.fpu neon
  22              	_ZN6tflite12_GLOBAL__N_14InitEP13TfLiteContextPKcj:
  23              		.fnstart
  24              	.LFB4267:
  25              		.file 1 "../src/tensorflow_lite/tensorflow/lite/micro/kernels/cmsis_nn/svdf.cc"
   1:../src/tensorflow_lite/tensorflow/lite/micro/kernels/cmsis_nn/svdf.cc **** /* Copyright 2020 The TensorFlow Authors. All Rights Reserved.
   2:../src/tensorflow_lite/tensorflow/lite/micro/kernels/cmsis_nn/svdf.cc **** 
   3:../src/tensorflow_lite/tensorflow/lite/micro/kernels/cmsis_nn/svdf.cc **** Licensed under the Apache License, Version 2.0 (the "License");
   4:../src/tensorflow_lite/tensorflow/lite/micro/kernels/cmsis_nn/svdf.cc **** you may not use this file except in compliance with the License.
   5:../src/tensorflow_lite/tensorflow/lite/micro/kernels/cmsis_nn/svdf.cc **** You may obtain a copy of the License at
   6:../src/tensorflow_lite/tensorflow/lite/micro/kernels/cmsis_nn/svdf.cc **** 
   7:../src/tensorflow_lite/tensorflow/lite/micro/kernels/cmsis_nn/svdf.cc ****     http://www.apache.org/licenses/LICENSE-2.0
   8:../src/tensorflow_lite/tensorflow/lite/micro/kernels/cmsis_nn/svdf.cc **** 
   9:../src/tensorflow_lite/tensorflow/lite/micro/kernels/cmsis_nn/svdf.cc **** Unless required by applicable law or agreed to in writing, software
  10:../src/tensorflow_lite/tensorflow/lite/micro/kernels/cmsis_nn/svdf.cc **** distributed under the License is distributed on an "AS IS" BASIS,
  11:../src/tensorflow_lite/tensorflow/lite/micro/kernels/cmsis_nn/svdf.cc **** WITHOUT WARRANTIES OR CONDITIONS OF ANY KIND, either express or implied.
  12:../src/tensorflow_lite/tensorflow/lite/micro/kernels/cmsis_nn/svdf.cc **** See the License for the specific language governing permissions and
  13:../src/tensorflow_lite/tensorflow/lite/micro/kernels/cmsis_nn/svdf.cc **** limitations under the License.
  14:../src/tensorflow_lite/tensorflow/lite/micro/kernels/cmsis_nn/svdf.cc **** ==============================================================================*/
  15:../src/tensorflow_lite/tensorflow/lite/micro/kernels/cmsis_nn/svdf.cc **** 
  16:../src/tensorflow_lite/tensorflow/lite/micro/kernels/cmsis_nn/svdf.cc **** #include <cmath>
  17:../src/tensorflow_lite/tensorflow/lite/micro/kernels/cmsis_nn/svdf.cc **** #include <cstdint>
  18:../src/tensorflow_lite/tensorflow/lite/micro/kernels/cmsis_nn/svdf.cc **** 
  19:../src/tensorflow_lite/tensorflow/lite/micro/kernels/cmsis_nn/svdf.cc **** #include "CMSIS/NN/Include/arm_nn_types.h"
  20:../src/tensorflow_lite/tensorflow/lite/micro/kernels/cmsis_nn/svdf.cc **** #include "CMSIS/NN/Include/arm_nnfunctions.h"
  21:../src/tensorflow_lite/tensorflow/lite/micro/kernels/cmsis_nn/svdf.cc **** #include "tensorflow/lite/c/builtin_op_data.h"
  22:../src/tensorflow_lite/tensorflow/lite/micro/kernels/cmsis_nn/svdf.cc **** #include "tensorflow/lite/c/common.h"
  23:../src/tensorflow_lite/tensorflow/lite/micro/kernels/cmsis_nn/svdf.cc **** #include "tensorflow/lite/kernels/internal/common.h"
  24:../src/tensorflow_lite/tensorflow/lite/micro/kernels/cmsis_nn/svdf.cc **** #include "tensorflow/lite/kernels/internal/quantization_util.h"
  25:../src/tensorflow_lite/tensorflow/lite/micro/kernels/cmsis_nn/svdf.cc **** #include "tensorflow/lite/kernels/internal/tensor_ctypes.h"
  26:../src/tensorflow_lite/tensorflow/lite/micro/kernels/cmsis_nn/svdf.cc **** #include "tensorflow/lite/kernels/kernel_util.h"
  27:../src/tensorflow_lite/tensorflow/lite/micro/kernels/cmsis_nn/svdf.cc **** #include "tensorflow/lite/kernels/op_macros.h"
  28:../src/tensorflow_lite/tensorflow/lite/micro/kernels/cmsis_nn/svdf.cc **** #include "tensorflow/lite/micro/kernels/activation_utils.h"
  29:../src/tensorflow_lite/tensorflow/lite/micro/kernels/cmsis_nn/svdf.cc **** #include "tensorflow/lite/micro/kernels/kernel_util.h"
  30:../src/tensorflow_lite/tensorflow/lite/micro/kernels/cmsis_nn/svdf.cc **** #include "tensorflow/lite/micro/micro_utils.h"
  31:../src/tensorflow_lite/tensorflow/lite/micro/kernels/cmsis_nn/svdf.cc **** 
  32:../src/tensorflow_lite/tensorflow/lite/micro/kernels/cmsis_nn/svdf.cc **** namespace tflite {
  33:../src/tensorflow_lite/tensorflow/lite/micro/kernels/cmsis_nn/svdf.cc **** namespace {
  34:../src/tensorflow_lite/tensorflow/lite/micro/kernels/cmsis_nn/svdf.cc **** 
  35:../src/tensorflow_lite/tensorflow/lite/micro/kernels/cmsis_nn/svdf.cc **** struct OpData {
  36:../src/tensorflow_lite/tensorflow/lite/micro/kernels/cmsis_nn/svdf.cc ****   int32_t effective_scale_1_a;
  37:../src/tensorflow_lite/tensorflow/lite/micro/kernels/cmsis_nn/svdf.cc ****   int32_t effective_scale_2_a;
  38:../src/tensorflow_lite/tensorflow/lite/micro/kernels/cmsis_nn/svdf.cc ****   // b versions of each scale are kept at int since the numbers are just the
  39:../src/tensorflow_lite/tensorflow/lite/micro/kernels/cmsis_nn/svdf.cc ****   // shift value - typically between [-32, 32].
  40:../src/tensorflow_lite/tensorflow/lite/micro/kernels/cmsis_nn/svdf.cc ****   int effective_scale_1_b;
  41:../src/tensorflow_lite/tensorflow/lite/micro/kernels/cmsis_nn/svdf.cc ****   int effective_scale_2_b;
  42:../src/tensorflow_lite/tensorflow/lite/micro/kernels/cmsis_nn/svdf.cc ****   int scratch_tensor_index;
  43:../src/tensorflow_lite/tensorflow/lite/micro/kernels/cmsis_nn/svdf.cc ****   int scratch_output_tensor_index;
  44:../src/tensorflow_lite/tensorflow/lite/micro/kernels/cmsis_nn/svdf.cc **** 
  45:../src/tensorflow_lite/tensorflow/lite/micro/kernels/cmsis_nn/svdf.cc ****   // Cached tensor zero point values for quantized operations.
  46:../src/tensorflow_lite/tensorflow/lite/micro/kernels/cmsis_nn/svdf.cc ****   int input_zero_point;
  47:../src/tensorflow_lite/tensorflow/lite/micro/kernels/cmsis_nn/svdf.cc ****   int output_zero_point;
  48:../src/tensorflow_lite/tensorflow/lite/micro/kernels/cmsis_nn/svdf.cc **** };
  49:../src/tensorflow_lite/tensorflow/lite/micro/kernels/cmsis_nn/svdf.cc **** 
  50:../src/tensorflow_lite/tensorflow/lite/micro/kernels/cmsis_nn/svdf.cc **** // Input tensors.
  51:../src/tensorflow_lite/tensorflow/lite/micro/kernels/cmsis_nn/svdf.cc **** constexpr int kInputTensor = 0;
  52:../src/tensorflow_lite/tensorflow/lite/micro/kernels/cmsis_nn/svdf.cc **** constexpr int kWeightsFeatureTensor = 1;
  53:../src/tensorflow_lite/tensorflow/lite/micro/kernels/cmsis_nn/svdf.cc **** constexpr int kWeightsTimeTensor = 2;
  54:../src/tensorflow_lite/tensorflow/lite/micro/kernels/cmsis_nn/svdf.cc **** constexpr int kBiasTensor = 3;
  55:../src/tensorflow_lite/tensorflow/lite/micro/kernels/cmsis_nn/svdf.cc **** // This is a variable tensor, and will be modified by this op.
  56:../src/tensorflow_lite/tensorflow/lite/micro/kernels/cmsis_nn/svdf.cc **** constexpr int kInputActivationStateTensor = 4;
  57:../src/tensorflow_lite/tensorflow/lite/micro/kernels/cmsis_nn/svdf.cc **** 
  58:../src/tensorflow_lite/tensorflow/lite/micro/kernels/cmsis_nn/svdf.cc **** // Output tensor.
  59:../src/tensorflow_lite/tensorflow/lite/micro/kernels/cmsis_nn/svdf.cc **** constexpr int kOutputTensor = 0;
  60:../src/tensorflow_lite/tensorflow/lite/micro/kernels/cmsis_nn/svdf.cc **** 
  61:../src/tensorflow_lite/tensorflow/lite/micro/kernels/cmsis_nn/svdf.cc **** /**
  62:../src/tensorflow_lite/tensorflow/lite/micro/kernels/cmsis_nn/svdf.cc ****  * This version of SVDF is specific to TFLite Micro. It contains the following
  63:../src/tensorflow_lite/tensorflow/lite/micro/kernels/cmsis_nn/svdf.cc ****  * differences between the TFLite version:
  64:../src/tensorflow_lite/tensorflow/lite/micro/kernels/cmsis_nn/svdf.cc ****  *
  65:../src/tensorflow_lite/tensorflow/lite/micro/kernels/cmsis_nn/svdf.cc ****  * 1.) Scratch tensor allocation - scratch tensors must be known ahead of time
  66:../src/tensorflow_lite/tensorflow/lite/micro/kernels/cmsis_nn/svdf.cc ****  * for the Micro interpreter.
  67:../src/tensorflow_lite/tensorflow/lite/micro/kernels/cmsis_nn/svdf.cc ****  * 2.) Output dimensions - the TFLite version determines output size and runtime
  68:../src/tensorflow_lite/tensorflow/lite/micro/kernels/cmsis_nn/svdf.cc ****  * and resizes the output tensor. Micro runtime does not support tensor
  69:../src/tensorflow_lite/tensorflow/lite/micro/kernels/cmsis_nn/svdf.cc ****  * resizing.
  70:../src/tensorflow_lite/tensorflow/lite/micro/kernels/cmsis_nn/svdf.cc ****  */
  71:../src/tensorflow_lite/tensorflow/lite/micro/kernels/cmsis_nn/svdf.cc **** static inline void ApplyTimeWeightsBiasAndActivation(
  72:../src/tensorflow_lite/tensorflow/lite/micro/kernels/cmsis_nn/svdf.cc ****     int batch_size, int memory_size, int num_filters, int num_units, int rank,
  73:../src/tensorflow_lite/tensorflow/lite/micro/kernels/cmsis_nn/svdf.cc ****     const float* const __restrict__ weights_time_ptr,
  74:../src/tensorflow_lite/tensorflow/lite/micro/kernels/cmsis_nn/svdf.cc ****     const float* const __restrict__ bias_ptr, TfLiteFusedActivation activation,
  75:../src/tensorflow_lite/tensorflow/lite/micro/kernels/cmsis_nn/svdf.cc ****     float* const __restrict__ state_ptr, float* const __restrict__ scratch_ptr,
  76:../src/tensorflow_lite/tensorflow/lite/micro/kernels/cmsis_nn/svdf.cc ****     float* const __restrict__ output_ptr) {
  77:../src/tensorflow_lite/tensorflow/lite/micro/kernels/cmsis_nn/svdf.cc ****   // Compute matmul(activation_state, weights_time).
  78:../src/tensorflow_lite/tensorflow/lite/micro/kernels/cmsis_nn/svdf.cc ****   for (int b = 0; b < batch_size; ++b) {
  79:../src/tensorflow_lite/tensorflow/lite/micro/kernels/cmsis_nn/svdf.cc ****     // Perform batched vector dot product:
  80:../src/tensorflow_lite/tensorflow/lite/micro/kernels/cmsis_nn/svdf.cc ****     float* scratch_ptr_batch = scratch_ptr + b * num_filters;
  81:../src/tensorflow_lite/tensorflow/lite/micro/kernels/cmsis_nn/svdf.cc ****     const float* vector1_ptr = weights_time_ptr;
  82:../src/tensorflow_lite/tensorflow/lite/micro/kernels/cmsis_nn/svdf.cc ****     const float* vector2_ptr = state_ptr + b * memory_size * num_filters;
  83:../src/tensorflow_lite/tensorflow/lite/micro/kernels/cmsis_nn/svdf.cc ****     for (int i = 0; i < num_filters; ++i) {
  84:../src/tensorflow_lite/tensorflow/lite/micro/kernels/cmsis_nn/svdf.cc ****       *scratch_ptr_batch = 0.f;
  85:../src/tensorflow_lite/tensorflow/lite/micro/kernels/cmsis_nn/svdf.cc ****       for (int j = 0; j < memory_size; ++j) {
  86:../src/tensorflow_lite/tensorflow/lite/micro/kernels/cmsis_nn/svdf.cc ****         *scratch_ptr_batch += *vector1_ptr++ * *vector2_ptr++;
  87:../src/tensorflow_lite/tensorflow/lite/micro/kernels/cmsis_nn/svdf.cc ****       }
  88:../src/tensorflow_lite/tensorflow/lite/micro/kernels/cmsis_nn/svdf.cc ****       scratch_ptr_batch++;
  89:../src/tensorflow_lite/tensorflow/lite/micro/kernels/cmsis_nn/svdf.cc ****     }
  90:../src/tensorflow_lite/tensorflow/lite/micro/kernels/cmsis_nn/svdf.cc ****   }
  91:../src/tensorflow_lite/tensorflow/lite/micro/kernels/cmsis_nn/svdf.cc **** 
  92:../src/tensorflow_lite/tensorflow/lite/micro/kernels/cmsis_nn/svdf.cc ****   // Initialize output with bias if provided.
  93:../src/tensorflow_lite/tensorflow/lite/micro/kernels/cmsis_nn/svdf.cc ****   if (bias_ptr) {
  94:../src/tensorflow_lite/tensorflow/lite/micro/kernels/cmsis_nn/svdf.cc ****     // VectorBatchVectorAssign
  95:../src/tensorflow_lite/tensorflow/lite/micro/kernels/cmsis_nn/svdf.cc ****     for (int i = 0; i < batch_size; ++i) {
  96:../src/tensorflow_lite/tensorflow/lite/micro/kernels/cmsis_nn/svdf.cc ****       float* output_data = output_ptr + i * num_units;
  97:../src/tensorflow_lite/tensorflow/lite/micro/kernels/cmsis_nn/svdf.cc ****       const float* bias_data = bias_ptr;
  98:../src/tensorflow_lite/tensorflow/lite/micro/kernels/cmsis_nn/svdf.cc ****       for (int j = 0; j < num_units; ++j) {
  99:../src/tensorflow_lite/tensorflow/lite/micro/kernels/cmsis_nn/svdf.cc ****         *output_data++ = *bias_data++;
 100:../src/tensorflow_lite/tensorflow/lite/micro/kernels/cmsis_nn/svdf.cc ****       }
 101:../src/tensorflow_lite/tensorflow/lite/micro/kernels/cmsis_nn/svdf.cc ****     }
 102:../src/tensorflow_lite/tensorflow/lite/micro/kernels/cmsis_nn/svdf.cc ****   } else {
 103:../src/tensorflow_lite/tensorflow/lite/micro/kernels/cmsis_nn/svdf.cc ****     float* output_data = output_ptr;
 104:../src/tensorflow_lite/tensorflow/lite/micro/kernels/cmsis_nn/svdf.cc ****     for (int i = 0; i < batch_size * num_units; ++i) {
 105:../src/tensorflow_lite/tensorflow/lite/micro/kernels/cmsis_nn/svdf.cc ****       *output_data++ = 0.0f;
 106:../src/tensorflow_lite/tensorflow/lite/micro/kernels/cmsis_nn/svdf.cc ****     }
 107:../src/tensorflow_lite/tensorflow/lite/micro/kernels/cmsis_nn/svdf.cc ****   }
 108:../src/tensorflow_lite/tensorflow/lite/micro/kernels/cmsis_nn/svdf.cc **** 
 109:../src/tensorflow_lite/tensorflow/lite/micro/kernels/cmsis_nn/svdf.cc ****   // Reduction sum.
 110:../src/tensorflow_lite/tensorflow/lite/micro/kernels/cmsis_nn/svdf.cc ****   for (int b = 0; b < batch_size; ++b) {
 111:../src/tensorflow_lite/tensorflow/lite/micro/kernels/cmsis_nn/svdf.cc ****     float* output_ptr_batch = output_ptr + b * num_units;
 112:../src/tensorflow_lite/tensorflow/lite/micro/kernels/cmsis_nn/svdf.cc ****     float* scratch_ptr_batch = scratch_ptr + b * num_filters;
 113:../src/tensorflow_lite/tensorflow/lite/micro/kernels/cmsis_nn/svdf.cc **** 
 114:../src/tensorflow_lite/tensorflow/lite/micro/kernels/cmsis_nn/svdf.cc ****     // Reduction sum vector
 115:../src/tensorflow_lite/tensorflow/lite/micro/kernels/cmsis_nn/svdf.cc ****     for (int i = 0; i < num_units; ++i) {
 116:../src/tensorflow_lite/tensorflow/lite/micro/kernels/cmsis_nn/svdf.cc ****       for (int j = 0; j < rank; j++) {
 117:../src/tensorflow_lite/tensorflow/lite/micro/kernels/cmsis_nn/svdf.cc ****         output_ptr_batch[i] += *scratch_ptr_batch++;
 118:../src/tensorflow_lite/tensorflow/lite/micro/kernels/cmsis_nn/svdf.cc ****       }
 119:../src/tensorflow_lite/tensorflow/lite/micro/kernels/cmsis_nn/svdf.cc ****     }
 120:../src/tensorflow_lite/tensorflow/lite/micro/kernels/cmsis_nn/svdf.cc ****   }
 121:../src/tensorflow_lite/tensorflow/lite/micro/kernels/cmsis_nn/svdf.cc **** 
 122:../src/tensorflow_lite/tensorflow/lite/micro/kernels/cmsis_nn/svdf.cc ****   // Apply activation.
 123:../src/tensorflow_lite/tensorflow/lite/micro/kernels/cmsis_nn/svdf.cc ****   for (int b = 0; b < batch_size; ++b) {
 124:../src/tensorflow_lite/tensorflow/lite/micro/kernels/cmsis_nn/svdf.cc ****     float* output_ptr_batch = output_ptr + b * num_units;
 125:../src/tensorflow_lite/tensorflow/lite/micro/kernels/cmsis_nn/svdf.cc ****     for (int i = 0; i < num_units; ++i) {
 126:../src/tensorflow_lite/tensorflow/lite/micro/kernels/cmsis_nn/svdf.cc ****       *output_ptr_batch =
 127:../src/tensorflow_lite/tensorflow/lite/micro/kernels/cmsis_nn/svdf.cc ****           tflite::ops::micro::ActivationValFloat(activation, *output_ptr_batch);
 128:../src/tensorflow_lite/tensorflow/lite/micro/kernels/cmsis_nn/svdf.cc ****       ++output_ptr_batch;
 129:../src/tensorflow_lite/tensorflow/lite/micro/kernels/cmsis_nn/svdf.cc ****     }
 130:../src/tensorflow_lite/tensorflow/lite/micro/kernels/cmsis_nn/svdf.cc ****   }
 131:../src/tensorflow_lite/tensorflow/lite/micro/kernels/cmsis_nn/svdf.cc **** }
 132:../src/tensorflow_lite/tensorflow/lite/micro/kernels/cmsis_nn/svdf.cc **** 
 133:../src/tensorflow_lite/tensorflow/lite/micro/kernels/cmsis_nn/svdf.cc **** inline void EvalFloatSVDF(
 134:../src/tensorflow_lite/tensorflow/lite/micro/kernels/cmsis_nn/svdf.cc ****     TfLiteContext* context, TfLiteNode* node, const TfLiteEvalTensor* input,
 135:../src/tensorflow_lite/tensorflow/lite/micro/kernels/cmsis_nn/svdf.cc ****     const TfLiteEvalTensor* weights_feature,
 136:../src/tensorflow_lite/tensorflow/lite/micro/kernels/cmsis_nn/svdf.cc ****     const TfLiteEvalTensor* weights_time, const TfLiteEvalTensor* bias,
 137:../src/tensorflow_lite/tensorflow/lite/micro/kernels/cmsis_nn/svdf.cc ****     const TfLiteSVDFParams* params, int scratch_tensor_index,
 138:../src/tensorflow_lite/tensorflow/lite/micro/kernels/cmsis_nn/svdf.cc ****     TfLiteEvalTensor* activation_state, TfLiteEvalTensor* output) {
 139:../src/tensorflow_lite/tensorflow/lite/micro/kernels/cmsis_nn/svdf.cc ****   const int rank = params->rank;
 140:../src/tensorflow_lite/tensorflow/lite/micro/kernels/cmsis_nn/svdf.cc ****   const int batch_size = input->dims->data[0];
 141:../src/tensorflow_lite/tensorflow/lite/micro/kernels/cmsis_nn/svdf.cc ****   const int input_size = input->dims->data[1];
 142:../src/tensorflow_lite/tensorflow/lite/micro/kernels/cmsis_nn/svdf.cc ****   const int num_filters = weights_feature->dims->data[0];
 143:../src/tensorflow_lite/tensorflow/lite/micro/kernels/cmsis_nn/svdf.cc ****   const int num_units = num_filters / rank;
 144:../src/tensorflow_lite/tensorflow/lite/micro/kernels/cmsis_nn/svdf.cc ****   const int memory_size = weights_time->dims->data[1];
 145:../src/tensorflow_lite/tensorflow/lite/micro/kernels/cmsis_nn/svdf.cc **** 
 146:../src/tensorflow_lite/tensorflow/lite/micro/kernels/cmsis_nn/svdf.cc ****   const float* weights_feature_ptr =
 147:../src/tensorflow_lite/tensorflow/lite/micro/kernels/cmsis_nn/svdf.cc ****       tflite::micro::GetTensorData<float>(weights_feature);
 148:../src/tensorflow_lite/tensorflow/lite/micro/kernels/cmsis_nn/svdf.cc ****   const float* weights_time_ptr =
 149:../src/tensorflow_lite/tensorflow/lite/micro/kernels/cmsis_nn/svdf.cc ****       tflite::micro::GetTensorData<float>(weights_time);
 150:../src/tensorflow_lite/tensorflow/lite/micro/kernels/cmsis_nn/svdf.cc ****   const float* bias_ptr = tflite::micro::GetTensorData<float>(bias);
 151:../src/tensorflow_lite/tensorflow/lite/micro/kernels/cmsis_nn/svdf.cc ****   const float* input_ptr = tflite::micro::GetTensorData<float>(input);
 152:../src/tensorflow_lite/tensorflow/lite/micro/kernels/cmsis_nn/svdf.cc **** 
 153:../src/tensorflow_lite/tensorflow/lite/micro/kernels/cmsis_nn/svdf.cc ****   float* state_ptr = tflite::micro::GetTensorData<float>(activation_state);
 154:../src/tensorflow_lite/tensorflow/lite/micro/kernels/cmsis_nn/svdf.cc **** 
 155:../src/tensorflow_lite/tensorflow/lite/micro/kernels/cmsis_nn/svdf.cc ****   TFLITE_DCHECK(context != nullptr);
 156:../src/tensorflow_lite/tensorflow/lite/micro/kernels/cmsis_nn/svdf.cc ****   TFLITE_DCHECK(context->GetScratchBuffer != nullptr);
 157:../src/tensorflow_lite/tensorflow/lite/micro/kernels/cmsis_nn/svdf.cc **** 
 158:../src/tensorflow_lite/tensorflow/lite/micro/kernels/cmsis_nn/svdf.cc ****   float* scratch_ptr = static_cast<float*>(
 159:../src/tensorflow_lite/tensorflow/lite/micro/kernels/cmsis_nn/svdf.cc ****       context->GetScratchBuffer(context, scratch_tensor_index));
 160:../src/tensorflow_lite/tensorflow/lite/micro/kernels/cmsis_nn/svdf.cc **** 
 161:../src/tensorflow_lite/tensorflow/lite/micro/kernels/cmsis_nn/svdf.cc ****   float* output_ptr = tflite::micro::GetTensorData<float>(output);
 162:../src/tensorflow_lite/tensorflow/lite/micro/kernels/cmsis_nn/svdf.cc **** 
 163:../src/tensorflow_lite/tensorflow/lite/micro/kernels/cmsis_nn/svdf.cc ****   // Left shift the activation_state.
 164:../src/tensorflow_lite/tensorflow/lite/micro/kernels/cmsis_nn/svdf.cc ****   {
 165:../src/tensorflow_lite/tensorflow/lite/micro/kernels/cmsis_nn/svdf.cc ****     float* new_state_start = state_ptr;
 166:../src/tensorflow_lite/tensorflow/lite/micro/kernels/cmsis_nn/svdf.cc ****     const float* old_state_start = state_ptr + 1;
 167:../src/tensorflow_lite/tensorflow/lite/micro/kernels/cmsis_nn/svdf.cc ****     const float* old_state_end =
 168:../src/tensorflow_lite/tensorflow/lite/micro/kernels/cmsis_nn/svdf.cc ****         state_ptr + batch_size * num_filters * memory_size;
 169:../src/tensorflow_lite/tensorflow/lite/micro/kernels/cmsis_nn/svdf.cc ****     while (old_state_start != old_state_end) {
 170:../src/tensorflow_lite/tensorflow/lite/micro/kernels/cmsis_nn/svdf.cc ****       *new_state_start++ = *old_state_start++;
 171:../src/tensorflow_lite/tensorflow/lite/micro/kernels/cmsis_nn/svdf.cc ****     }
 172:../src/tensorflow_lite/tensorflow/lite/micro/kernels/cmsis_nn/svdf.cc ****   }
 173:../src/tensorflow_lite/tensorflow/lite/micro/kernels/cmsis_nn/svdf.cc **** 
 174:../src/tensorflow_lite/tensorflow/lite/micro/kernels/cmsis_nn/svdf.cc ****   // Note: no need to clear the latest activation, matmul is not accumulative.
 175:../src/tensorflow_lite/tensorflow/lite/micro/kernels/cmsis_nn/svdf.cc **** 
 176:../src/tensorflow_lite/tensorflow/lite/micro/kernels/cmsis_nn/svdf.cc ****   // Compute conv1d(inputs, weights_feature).
 177:../src/tensorflow_lite/tensorflow/lite/micro/kernels/cmsis_nn/svdf.cc ****   // The activation_state's rightmost column is used to save current cycle
 178:../src/tensorflow_lite/tensorflow/lite/micro/kernels/cmsis_nn/svdf.cc ****   // activation. This is achieved by starting at state_ptr[memory_size - 1] and
 179:../src/tensorflow_lite/tensorflow/lite/micro/kernels/cmsis_nn/svdf.cc ****   // having the stride equal to memory_size.
 180:../src/tensorflow_lite/tensorflow/lite/micro/kernels/cmsis_nn/svdf.cc **** 
 181:../src/tensorflow_lite/tensorflow/lite/micro/kernels/cmsis_nn/svdf.cc ****   // Perform batched matrix vector multiply operation:
 182:../src/tensorflow_lite/tensorflow/lite/micro/kernels/cmsis_nn/svdf.cc ****   {
 183:../src/tensorflow_lite/tensorflow/lite/micro/kernels/cmsis_nn/svdf.cc ****     const float* matrix = weights_feature_ptr;
 184:../src/tensorflow_lite/tensorflow/lite/micro/kernels/cmsis_nn/svdf.cc ****     const float* vector = input_ptr;
 185:../src/tensorflow_lite/tensorflow/lite/micro/kernels/cmsis_nn/svdf.cc ****     float* result = &state_ptr[memory_size - 1];
 186:../src/tensorflow_lite/tensorflow/lite/micro/kernels/cmsis_nn/svdf.cc ****     float* result_in_batch = result;
 187:../src/tensorflow_lite/tensorflow/lite/micro/kernels/cmsis_nn/svdf.cc ****     for (int i = 0; i < batch_size; ++i) {
 188:../src/tensorflow_lite/tensorflow/lite/micro/kernels/cmsis_nn/svdf.cc ****       const float* matrix_ptr = matrix;
 189:../src/tensorflow_lite/tensorflow/lite/micro/kernels/cmsis_nn/svdf.cc ****       for (int j = 0; j < num_filters; ++j) {
 190:../src/tensorflow_lite/tensorflow/lite/micro/kernels/cmsis_nn/svdf.cc ****         float dot_prod = 0.0f;
 191:../src/tensorflow_lite/tensorflow/lite/micro/kernels/cmsis_nn/svdf.cc ****         const float* vector_in_batch = vector + i * input_size;
 192:../src/tensorflow_lite/tensorflow/lite/micro/kernels/cmsis_nn/svdf.cc ****         for (int k = 0; k < input_size; ++k) {
 193:../src/tensorflow_lite/tensorflow/lite/micro/kernels/cmsis_nn/svdf.cc ****           dot_prod += *matrix_ptr++ * *vector_in_batch++;
 194:../src/tensorflow_lite/tensorflow/lite/micro/kernels/cmsis_nn/svdf.cc ****         }
 195:../src/tensorflow_lite/tensorflow/lite/micro/kernels/cmsis_nn/svdf.cc ****         *result_in_batch = dot_prod;
 196:../src/tensorflow_lite/tensorflow/lite/micro/kernels/cmsis_nn/svdf.cc ****         result_in_batch += memory_size;
 197:../src/tensorflow_lite/tensorflow/lite/micro/kernels/cmsis_nn/svdf.cc ****       }
 198:../src/tensorflow_lite/tensorflow/lite/micro/kernels/cmsis_nn/svdf.cc ****     }
 199:../src/tensorflow_lite/tensorflow/lite/micro/kernels/cmsis_nn/svdf.cc ****   }
 200:../src/tensorflow_lite/tensorflow/lite/micro/kernels/cmsis_nn/svdf.cc **** 
 201:../src/tensorflow_lite/tensorflow/lite/micro/kernels/cmsis_nn/svdf.cc ****   ApplyTimeWeightsBiasAndActivation(
 202:../src/tensorflow_lite/tensorflow/lite/micro/kernels/cmsis_nn/svdf.cc ****       batch_size, memory_size, num_filters, num_units, rank, weights_time_ptr,
 203:../src/tensorflow_lite/tensorflow/lite/micro/kernels/cmsis_nn/svdf.cc ****       bias_ptr, params->activation, state_ptr, scratch_ptr, output_ptr);
 204:../src/tensorflow_lite/tensorflow/lite/micro/kernels/cmsis_nn/svdf.cc **** }
 205:../src/tensorflow_lite/tensorflow/lite/micro/kernels/cmsis_nn/svdf.cc **** 
 206:../src/tensorflow_lite/tensorflow/lite/micro/kernels/cmsis_nn/svdf.cc **** void EvalIntegerSVDF(TfLiteContext* context, TfLiteNode* node,
 207:../src/tensorflow_lite/tensorflow/lite/micro/kernels/cmsis_nn/svdf.cc ****                      const TfLiteEvalTensor* input_tensor,
 208:../src/tensorflow_lite/tensorflow/lite/micro/kernels/cmsis_nn/svdf.cc ****                      const TfLiteEvalTensor* weights_feature_tensor,
 209:../src/tensorflow_lite/tensorflow/lite/micro/kernels/cmsis_nn/svdf.cc ****                      const TfLiteEvalTensor* weights_time_tensor,
 210:../src/tensorflow_lite/tensorflow/lite/micro/kernels/cmsis_nn/svdf.cc ****                      const TfLiteEvalTensor* bias_tensor,
 211:../src/tensorflow_lite/tensorflow/lite/micro/kernels/cmsis_nn/svdf.cc ****                      const TfLiteSVDFParams* params,
 212:../src/tensorflow_lite/tensorflow/lite/micro/kernels/cmsis_nn/svdf.cc ****                      TfLiteEvalTensor* activation_state_tensor,
 213:../src/tensorflow_lite/tensorflow/lite/micro/kernels/cmsis_nn/svdf.cc ****                      TfLiteEvalTensor* output_tensor, const OpData& data) {
 214:../src/tensorflow_lite/tensorflow/lite/micro/kernels/cmsis_nn/svdf.cc ****   cmsis_nn_dims input_dims;
 215:../src/tensorflow_lite/tensorflow/lite/micro/kernels/cmsis_nn/svdf.cc ****   input_dims.n = input_tensor->dims->data[0];
 216:../src/tensorflow_lite/tensorflow/lite/micro/kernels/cmsis_nn/svdf.cc ****   input_dims.h = input_tensor->dims->data[1];
 217:../src/tensorflow_lite/tensorflow/lite/micro/kernels/cmsis_nn/svdf.cc **** 
 218:../src/tensorflow_lite/tensorflow/lite/micro/kernels/cmsis_nn/svdf.cc ****   cmsis_nn_dims weights_feature_dims;
 219:../src/tensorflow_lite/tensorflow/lite/micro/kernels/cmsis_nn/svdf.cc ****   weights_feature_dims.n = weights_feature_tensor->dims->data[0];
 220:../src/tensorflow_lite/tensorflow/lite/micro/kernels/cmsis_nn/svdf.cc ****   weights_feature_dims.h = weights_feature_tensor->dims->data[1];
 221:../src/tensorflow_lite/tensorflow/lite/micro/kernels/cmsis_nn/svdf.cc **** 
 222:../src/tensorflow_lite/tensorflow/lite/micro/kernels/cmsis_nn/svdf.cc ****   cmsis_nn_dims weights_time_dims;
 223:../src/tensorflow_lite/tensorflow/lite/micro/kernels/cmsis_nn/svdf.cc ****   weights_time_dims.n = weights_time_tensor->dims->data[0];
 224:../src/tensorflow_lite/tensorflow/lite/micro/kernels/cmsis_nn/svdf.cc ****   weights_time_dims.h = weights_time_tensor->dims->data[1];
 225:../src/tensorflow_lite/tensorflow/lite/micro/kernels/cmsis_nn/svdf.cc **** 
 226:../src/tensorflow_lite/tensorflow/lite/micro/kernels/cmsis_nn/svdf.cc ****   cmsis_nn_dims bias_dims;
 227:../src/tensorflow_lite/tensorflow/lite/micro/kernels/cmsis_nn/svdf.cc ****   bias_dims.n = bias_tensor->dims->data[0];
 228:../src/tensorflow_lite/tensorflow/lite/micro/kernels/cmsis_nn/svdf.cc **** 
 229:../src/tensorflow_lite/tensorflow/lite/micro/kernels/cmsis_nn/svdf.cc ****   cmsis_nn_dims state_dims;
 230:../src/tensorflow_lite/tensorflow/lite/micro/kernels/cmsis_nn/svdf.cc ****   state_dims.n = bias_tensor->dims->data[0];
 231:../src/tensorflow_lite/tensorflow/lite/micro/kernels/cmsis_nn/svdf.cc ****   state_dims.h = bias_tensor->dims->data[1];
 232:../src/tensorflow_lite/tensorflow/lite/micro/kernels/cmsis_nn/svdf.cc **** 
 233:../src/tensorflow_lite/tensorflow/lite/micro/kernels/cmsis_nn/svdf.cc ****   cmsis_nn_dims output_dims;
 234:../src/tensorflow_lite/tensorflow/lite/micro/kernels/cmsis_nn/svdf.cc ****   output_dims.n = output_tensor->dims->data[0];
 235:../src/tensorflow_lite/tensorflow/lite/micro/kernels/cmsis_nn/svdf.cc ****   output_dims.h = output_tensor->dims->data[1];
 236:../src/tensorflow_lite/tensorflow/lite/micro/kernels/cmsis_nn/svdf.cc **** 
 237:../src/tensorflow_lite/tensorflow/lite/micro/kernels/cmsis_nn/svdf.cc ****   cmsis_nn_svdf_params svdf_params;
 238:../src/tensorflow_lite/tensorflow/lite/micro/kernels/cmsis_nn/svdf.cc ****   svdf_params.rank = params->rank;
 239:../src/tensorflow_lite/tensorflow/lite/micro/kernels/cmsis_nn/svdf.cc ****   svdf_params.input_offset = data.input_zero_point;
 240:../src/tensorflow_lite/tensorflow/lite/micro/kernels/cmsis_nn/svdf.cc ****   svdf_params.output_offset = data.output_zero_point;
 241:../src/tensorflow_lite/tensorflow/lite/micro/kernels/cmsis_nn/svdf.cc **** 
 242:../src/tensorflow_lite/tensorflow/lite/micro/kernels/cmsis_nn/svdf.cc ****   svdf_params.input_activation.min = INT16_MIN;
 243:../src/tensorflow_lite/tensorflow/lite/micro/kernels/cmsis_nn/svdf.cc ****   svdf_params.input_activation.max = INT16_MAX;
 244:../src/tensorflow_lite/tensorflow/lite/micro/kernels/cmsis_nn/svdf.cc **** 
 245:../src/tensorflow_lite/tensorflow/lite/micro/kernels/cmsis_nn/svdf.cc ****   svdf_params.output_activation.min = INT8_MIN;
 246:../src/tensorflow_lite/tensorflow/lite/micro/kernels/cmsis_nn/svdf.cc ****   svdf_params.output_activation.max = INT8_MAX;
 247:../src/tensorflow_lite/tensorflow/lite/micro/kernels/cmsis_nn/svdf.cc **** 
 248:../src/tensorflow_lite/tensorflow/lite/micro/kernels/cmsis_nn/svdf.cc ****   cmsis_nn_per_tensor_quant_params in_quant_params;
 249:../src/tensorflow_lite/tensorflow/lite/micro/kernels/cmsis_nn/svdf.cc ****   in_quant_params.multiplier = data.effective_scale_1_a;
 250:../src/tensorflow_lite/tensorflow/lite/micro/kernels/cmsis_nn/svdf.cc ****   in_quant_params.shift = data.effective_scale_1_b;
 251:../src/tensorflow_lite/tensorflow/lite/micro/kernels/cmsis_nn/svdf.cc **** 
 252:../src/tensorflow_lite/tensorflow/lite/micro/kernels/cmsis_nn/svdf.cc ****   cmsis_nn_per_tensor_quant_params out_quant_params;
 253:../src/tensorflow_lite/tensorflow/lite/micro/kernels/cmsis_nn/svdf.cc ****   out_quant_params.multiplier = data.effective_scale_2_a;
 254:../src/tensorflow_lite/tensorflow/lite/micro/kernels/cmsis_nn/svdf.cc ****   out_quant_params.shift = data.effective_scale_2_b;
 255:../src/tensorflow_lite/tensorflow/lite/micro/kernels/cmsis_nn/svdf.cc **** 
 256:../src/tensorflow_lite/tensorflow/lite/micro/kernels/cmsis_nn/svdf.cc ****   TFLITE_DCHECK(context != nullptr);
 257:../src/tensorflow_lite/tensorflow/lite/micro/kernels/cmsis_nn/svdf.cc ****   TFLITE_DCHECK(context->GetScratchBuffer != nullptr);
 258:../src/tensorflow_lite/tensorflow/lite/micro/kernels/cmsis_nn/svdf.cc **** 
 259:../src/tensorflow_lite/tensorflow/lite/micro/kernels/cmsis_nn/svdf.cc ****   cmsis_nn_context scratch_ctx;
 260:../src/tensorflow_lite/tensorflow/lite/micro/kernels/cmsis_nn/svdf.cc ****   scratch_ctx.buf = static_cast<int32_t*>(
 261:../src/tensorflow_lite/tensorflow/lite/micro/kernels/cmsis_nn/svdf.cc ****       context->GetScratchBuffer(context, data.scratch_tensor_index));
 262:../src/tensorflow_lite/tensorflow/lite/micro/kernels/cmsis_nn/svdf.cc **** 
 263:../src/tensorflow_lite/tensorflow/lite/micro/kernels/cmsis_nn/svdf.cc ****   cmsis_nn_context scratch_output_ctx;
 264:../src/tensorflow_lite/tensorflow/lite/micro/kernels/cmsis_nn/svdf.cc ****   scratch_output_ctx.buf = static_cast<int32_t*>(
 265:../src/tensorflow_lite/tensorflow/lite/micro/kernels/cmsis_nn/svdf.cc ****       context->GetScratchBuffer(context, data.scratch_output_tensor_index));
 266:../src/tensorflow_lite/tensorflow/lite/micro/kernels/cmsis_nn/svdf.cc **** 
 267:../src/tensorflow_lite/tensorflow/lite/micro/kernels/cmsis_nn/svdf.cc ****   int8_t* output_data = tflite::micro::GetTensorData<int8_t>(output_tensor);
 268:../src/tensorflow_lite/tensorflow/lite/micro/kernels/cmsis_nn/svdf.cc ****   arm_svdf_s8(
 269:../src/tensorflow_lite/tensorflow/lite/micro/kernels/cmsis_nn/svdf.cc ****       &scratch_ctx, &scratch_output_ctx, &svdf_params, &in_quant_params,
 270:../src/tensorflow_lite/tensorflow/lite/micro/kernels/cmsis_nn/svdf.cc ****       &out_quant_params, &input_dims,
 271:../src/tensorflow_lite/tensorflow/lite/micro/kernels/cmsis_nn/svdf.cc ****       (int8_t*)tflite::micro::GetTensorData<int8_t>(input_tensor), &state_dims,
 272:../src/tensorflow_lite/tensorflow/lite/micro/kernels/cmsis_nn/svdf.cc ****       (int16_t*)tflite::micro::GetTensorData<int16_t>(activation_state_tensor),
 273:../src/tensorflow_lite/tensorflow/lite/micro/kernels/cmsis_nn/svdf.cc ****       &weights_feature_dims,
 274:../src/tensorflow_lite/tensorflow/lite/micro/kernels/cmsis_nn/svdf.cc ****       (int8_t*)tflite::micro::GetTensorData<int8_t>(weights_feature_tensor),
 275:../src/tensorflow_lite/tensorflow/lite/micro/kernels/cmsis_nn/svdf.cc ****       &weights_time_dims,
 276:../src/tensorflow_lite/tensorflow/lite/micro/kernels/cmsis_nn/svdf.cc ****       (int16_t*)tflite::micro::GetTensorData<int16_t>(weights_time_tensor),
 277:../src/tensorflow_lite/tensorflow/lite/micro/kernels/cmsis_nn/svdf.cc ****       &bias_dims, (int32_t*)tflite::micro::GetTensorData<int32_t>(bias_tensor),
 278:../src/tensorflow_lite/tensorflow/lite/micro/kernels/cmsis_nn/svdf.cc ****       &output_dims, output_data);
 279:../src/tensorflow_lite/tensorflow/lite/micro/kernels/cmsis_nn/svdf.cc **** }
 280:../src/tensorflow_lite/tensorflow/lite/micro/kernels/cmsis_nn/svdf.cc **** 
 281:../src/tensorflow_lite/tensorflow/lite/micro/kernels/cmsis_nn/svdf.cc **** void* Init(TfLiteContext* context, const char* buffer, size_t length) {
  26              		.loc 1 281 0
  27              		.cfi_startproc
  28              		@ args = 0, pretend = 0, frame = 0
  29              		@ frame_needed = 0, uses_anonymous_args = 0
  30              	.LVL0:
 282:../src/tensorflow_lite/tensorflow/lite/micro/kernels/cmsis_nn/svdf.cc ****   TFLITE_DCHECK(context->AllocatePersistentBuffer != nullptr);
  31              		.loc 1 282 0
  32 0000 383090E5 		ldr	r3, [r0, #56]
  33 0004 000053E3 		cmp	r3, #0
  34 0008 0100000A 		beq	.L7
 283:../src/tensorflow_lite/tensorflow/lite/micro/kernels/cmsis_nn/svdf.cc ****   return context->AllocatePersistentBuffer(context, sizeof(OpData));
  35              		.loc 1 283 0
  36 000c 2010A0E3 		mov	r1, #32
  37              	.LVL1:
  38 0010 13FF2FE1 		bx	r3
  39              	.LVL2:
  40              	.L7:
 281:../src/tensorflow_lite/tensorflow/lite/micro/kernels/cmsis_nn/svdf.cc ****   TFLITE_DCHECK(context->AllocatePersistentBuffer != nullptr);
  41              		.loc 1 281 0 discriminator 1
  42 0014 10402DE9 		push	{r4, lr}
  43              		.save {r4, lr}
  44              		.cfi_def_cfa_offset 8
  45              		.cfi_offset 4, -8
  46              		.cfi_offset 14, -4
 282:../src/tensorflow_lite/tensorflow/lite/micro/kernels/cmsis_nn/svdf.cc ****   TFLITE_DCHECK(context->AllocatePersistentBuffer != nullptr);
  47              		.loc 1 282 0 discriminator 1
  48 0018 FEFFFFEB 		bl	abort
  49              	.LVL3:
  50              		.cfi_endproc
  51              	.LFE4267:
  52              		.fnend
  54              		.global	__aeabi_idivmod
  55              		.global	__aeabi_idiv
  56              		.section	.text._ZN6tflite12_GLOBAL__N_17PrepareEP13TfLiteContextP10TfLiteNode,"ax",%progbits
  57              		.align	2
  58              		.syntax unified
  59              		.arm
  60              		.fpu neon
  62              	_ZN6tflite12_GLOBAL__N_17PrepareEP13TfLiteContextP10TfLiteNode:
  63              		.fnstart
  64              	.LFB4268:
 284:../src/tensorflow_lite/tensorflow/lite/micro/kernels/cmsis_nn/svdf.cc **** }
 285:../src/tensorflow_lite/tensorflow/lite/micro/kernels/cmsis_nn/svdf.cc **** 
 286:../src/tensorflow_lite/tensorflow/lite/micro/kernels/cmsis_nn/svdf.cc **** TfLiteStatus Prepare(TfLiteContext* context, TfLiteNode* node) {
  65              		.loc 1 286 0
  66              		.cfi_startproc
  67              		@ args = 0, pretend = 0, frame = 24
  68              		@ frame_needed = 0, uses_anonymous_args = 0
  69              	.LVL4:
  70 0000 F04F2DE9 		push	{r4, r5, r6, r7, r8, r9, r10, fp, lr}
  71              		.save {r4, r5, r6, r7, r8, r9, r10, fp, lr}
  72              		.cfi_def_cfa_offset 36
  73              		.cfi_offset 4, -36
  74              		.cfi_offset 5, -32
  75              		.cfi_offset 6, -28
  76              		.cfi_offset 7, -24
  77              		.cfi_offset 8, -20
  78              		.cfi_offset 9, -16
  79              		.cfi_offset 10, -12
  80              		.cfi_offset 11, -8
  81              		.cfi_offset 14, -4
 287:../src/tensorflow_lite/tensorflow/lite/micro/kernels/cmsis_nn/svdf.cc ****   TFLITE_DCHECK(node->builtin_data != nullptr);
  82              		.loc 1 287 0
  83 0004 146091E5 		ldr	r6, [r1, #20]
 286:../src/tensorflow_lite/tensorflow/lite/micro/kernels/cmsis_nn/svdf.cc ****   TFLITE_DCHECK(node->builtin_data != nullptr);
  84              		.loc 1 286 0
  85 0008 028B2DED 		vpush.64	{d8}
  86              		.vsave {d8}
  87              		.cfi_def_cfa_offset 44
  88              		.cfi_offset 80, -44
  89              		.cfi_offset 81, -40
  90              		.pad #44
  91 000c 2CD04DE2 		sub	sp, sp, #44
  92              		.cfi_def_cfa_offset 88
  93              		.loc 1 287 0
  94 0010 000056E3 		cmp	r6, #0
  95 0014 DC01000A 		beq	.L33
  96              	.LVL5:
 288:../src/tensorflow_lite/tensorflow/lite/micro/kernels/cmsis_nn/svdf.cc **** 
 289:../src/tensorflow_lite/tensorflow/lite/micro/kernels/cmsis_nn/svdf.cc ****   const auto* params = static_cast<const TfLiteSVDFParams*>(node->builtin_data);
 290:../src/tensorflow_lite/tensorflow/lite/micro/kernels/cmsis_nn/svdf.cc **** 
 291:../src/tensorflow_lite/tensorflow/lite/micro/kernels/cmsis_nn/svdf.cc ****   // Validate Tensor Inputs (dtype depends on quantization):
 292:../src/tensorflow_lite/tensorflow/lite/micro/kernels/cmsis_nn/svdf.cc ****   // [0] = Input, {2, batch_size, input_size}
 293:../src/tensorflow_lite/tensorflow/lite/micro/kernels/cmsis_nn/svdf.cc ****   // [1] = Weights Feature, {2, num_filters, input_size}
 294:../src/tensorflow_lite/tensorflow/lite/micro/kernels/cmsis_nn/svdf.cc ****   // [2] = Weights Time, {2, num_filters, memory_size}
 295:../src/tensorflow_lite/tensorflow/lite/micro/kernels/cmsis_nn/svdf.cc ****   // [3] = Bias (optional), {1, num_units}
 296:../src/tensorflow_lite/tensorflow/lite/micro/kernels/cmsis_nn/svdf.cc ****   // [4] = Activation State (variable),
 297:../src/tensorflow_lite/tensorflow/lite/micro/kernels/cmsis_nn/svdf.cc ****   //         {2, batch_size, memory_size * num_filters}
 298:../src/tensorflow_lite/tensorflow/lite/micro/kernels/cmsis_nn/svdf.cc ****   const TfLiteTensor* input = GetInput(context, node, kInputTensor);
  97              		.loc 1 298 0
  98 0018 0020A0E3 		mov	r2, #0
  99 001c 0150A0E1 		mov	r5, r1
 100 0020 0040A0E1 		mov	r4, r0
 101 0024 FEFFFFEB 		bl	_ZN6tflite8GetInputEPK13TfLiteContextPK10TfLiteNodei
 102              	.LVL6:
 299:../src/tensorflow_lite/tensorflow/lite/micro/kernels/cmsis_nn/svdf.cc ****   TF_LITE_ENSURE(context, input != nullptr);
 103              		.loc 1 299 0
 104 0028 007050E2 		subs	r7, r0, #0
 105 002c E900000A 		beq	.L73
 300:../src/tensorflow_lite/tensorflow/lite/micro/kernels/cmsis_nn/svdf.cc ****   const TfLiteTensor* weights_feature =
 301:../src/tensorflow_lite/tensorflow/lite/micro/kernels/cmsis_nn/svdf.cc ****       GetInput(context, node, kWeightsFeatureTensor);
 106              		.loc 1 301 0
 107 0030 0120A0E3 		mov	r2, #1
 108 0034 0510A0E1 		mov	r1, r5
 109 0038 0400A0E1 		mov	r0, r4
 110              	.LVL7:
 111 003c FEFFFFEB 		bl	_ZN6tflite8GetInputEPK13TfLiteContextPK10TfLiteNodei
 112              	.LVL8:
 302:../src/tensorflow_lite/tensorflow/lite/micro/kernels/cmsis_nn/svdf.cc ****   TF_LITE_ENSURE(context, weights_feature != nullptr);
 113              		.loc 1 302 0
 114 0040 008050E2 		subs	r8, r0, #0
 115 0044 F200000A 		beq	.L74
 303:../src/tensorflow_lite/tensorflow/lite/micro/kernels/cmsis_nn/svdf.cc ****   const TfLiteTensor* weights_time =
 304:../src/tensorflow_lite/tensorflow/lite/micro/kernels/cmsis_nn/svdf.cc ****       GetInput(context, node, kWeightsTimeTensor);
 116              		.loc 1 304 0
 117 0048 0220A0E3 		mov	r2, #2
 118 004c 0510A0E1 		mov	r1, r5
 119 0050 0400A0E1 		mov	r0, r4
 120              	.LVL9:
 121 0054 FEFFFFEB 		bl	_ZN6tflite8GetInputEPK13TfLiteContextPK10TfLiteNodei
 122              	.LVL10:
 305:../src/tensorflow_lite/tensorflow/lite/micro/kernels/cmsis_nn/svdf.cc ****   TF_LITE_ENSURE(context, weights_time != nullptr);
 123              		.loc 1 305 0
 124 0058 00B050E2 		subs	fp, r0, #0
 125 005c F900000A 		beq	.L75
 306:../src/tensorflow_lite/tensorflow/lite/micro/kernels/cmsis_nn/svdf.cc ****   const TfLiteTensor* bias = GetOptionalInputTensor(context, node, kBiasTensor);
 126              		.loc 1 306 0
 127 0060 0320A0E3 		mov	r2, #3
 128 0064 0510A0E1 		mov	r1, r5
 129 0068 0400A0E1 		mov	r0, r4
 130              	.LVL11:
 131 006c FEFFFFEB 		bl	_ZN6tflite22GetOptionalInputTensorEPK13TfLiteContextPK10TfLiteNodei
 132              	.LVL12:
 307:../src/tensorflow_lite/tensorflow/lite/micro/kernels/cmsis_nn/svdf.cc ****   const TfLiteTensor* activation_state =
 308:../src/tensorflow_lite/tensorflow/lite/micro/kernels/cmsis_nn/svdf.cc ****       GetInput(context, node, kInputActivationStateTensor);
 133              		.loc 1 308 0
 134 0070 0420A0E3 		mov	r2, #4
 306:../src/tensorflow_lite/tensorflow/lite/micro/kernels/cmsis_nn/svdf.cc ****   const TfLiteTensor* bias = GetOptionalInputTensor(context, node, kBiasTensor);
 135              		.loc 1 306 0
 136 0074 14008DE5 		str	r0, [sp, #20]
 137              	.LVL13:
 138              		.loc 1 308 0
 139 0078 0510A0E1 		mov	r1, r5
 140 007c 0400A0E1 		mov	r0, r4
 141              	.LVL14:
 142 0080 FEFFFFEB 		bl	_ZN6tflite8GetInputEPK13TfLiteContextPK10TfLiteNodei
 143              	.LVL15:
 309:../src/tensorflow_lite/tensorflow/lite/micro/kernels/cmsis_nn/svdf.cc ****   TF_LITE_ENSURE(context, activation_state != nullptr);
 144              		.loc 1 309 0
 145 0084 003050E2 		subs	r3, r0, #0
 146 0088 10308DE5 		str	r3, [sp, #16]
 147 008c 1F01000A 		beq	.L76
 310:../src/tensorflow_lite/tensorflow/lite/micro/kernels/cmsis_nn/svdf.cc **** 
 311:../src/tensorflow_lite/tensorflow/lite/micro/kernels/cmsis_nn/svdf.cc ****   // Define input constants based on input tensor definition above:
 312:../src/tensorflow_lite/tensorflow/lite/micro/kernels/cmsis_nn/svdf.cc ****   const int rank = params->rank;
 313:../src/tensorflow_lite/tensorflow/lite/micro/kernels/cmsis_nn/svdf.cc ****   const int input_size = input->dims->data[1];
 314:../src/tensorflow_lite/tensorflow/lite/micro/kernels/cmsis_nn/svdf.cc ****   const int batch_size = input->dims->data[0];
 315:../src/tensorflow_lite/tensorflow/lite/micro/kernels/cmsis_nn/svdf.cc ****   const int num_filters = weights_feature->dims->data[0];
 148              		.loc 1 315 0
 149 0090 083098E5 		ldr	r3, [r8, #8]
 312:../src/tensorflow_lite/tensorflow/lite/micro/kernels/cmsis_nn/svdf.cc ****   const int input_size = input->dims->data[1];
 150              		.loc 1 312 0
 151 0094 00A096E5 		ldr	r10, [r6]
 152              	.LVL16:
 153              		.loc 1 315 0
 154 0098 049093E5 		ldr	r9, [r3, #4]
 155              	.LVL17:
 316:../src/tensorflow_lite/tensorflow/lite/micro/kernels/cmsis_nn/svdf.cc ****   TF_LITE_ENSURE_EQ(context, num_filters % rank, 0);
 156              		.loc 1 316 0
 157 009c 0A10A0E1 		mov	r1, r10
 158 00a0 0900A0E1 		mov	r0, r9
 159              	.LVL18:
 160 00a4 FEFFFFEB 		bl	__aeabi_idivmod
 161              	.LVL19:
 162 00a8 00C051E2 		subs	ip, r1, #0
 163 00ac B500001A 		bne	.L77
 164              	.LVL20:
 317:../src/tensorflow_lite/tensorflow/lite/micro/kernels/cmsis_nn/svdf.cc ****   const int num_units = num_filters / rank;
 318:../src/tensorflow_lite/tensorflow/lite/micro/kernels/cmsis_nn/svdf.cc ****   const int memory_size = weights_time->dims->data[1];
 319:../src/tensorflow_lite/tensorflow/lite/micro/kernels/cmsis_nn/svdf.cc **** 
 320:../src/tensorflow_lite/tensorflow/lite/micro/kernels/cmsis_nn/svdf.cc ****   // Validate Input Tensor:
 321:../src/tensorflow_lite/tensorflow/lite/micro/kernels/cmsis_nn/svdf.cc ****   TF_LITE_ENSURE(context,
 165              		.loc 1 321 0
 166 00b0 0060D7E5 		ldrb	r6, [r7]	@ zero_extendqisi2
 167              	.LVL21:
 168 00b4 F76006E2 		and	r6, r6, #247
 169 00b8 010056E3 		cmp	r6, #1
 170 00bc 1B00001A 		bne	.L78
 313:../src/tensorflow_lite/tensorflow/lite/micro/kernels/cmsis_nn/svdf.cc ****   const int batch_size = input->dims->data[0];
 171              		.loc 1 313 0
 172 00c0 083097E5 		ldr	r3, [r7, #8]
 173              	.LVL22:
 174              	.LBB162:
 175              	.LBB163:
 176              		.file 2 "C:/Renesas/e2studio_2021_01_workspace_RZA2M_ANPR/ANPR_RZA2M_GR_MANGO/src/tensorflow_lite/
   1:C:/Renesas/e2studio_2021_01_workspace_RZA2M_ANPR/ANPR_RZA2M_GR_MANGO/src/tensorflow_lite/tensorflow/lite/kernels\kernel_util.h **** /* Copyright 2017 The TensorFlow Authors. All Rights Reserved.
   2:C:/Renesas/e2studio_2021_01_workspace_RZA2M_ANPR/ANPR_RZA2M_GR_MANGO/src/tensorflow_lite/tensorflow/lite/kernels\kernel_util.h **** 
   3:C:/Renesas/e2studio_2021_01_workspace_RZA2M_ANPR/ANPR_RZA2M_GR_MANGO/src/tensorflow_lite/tensorflow/lite/kernels\kernel_util.h **** Licensed under the Apache License, Version 2.0 (the "License");
   4:C:/Renesas/e2studio_2021_01_workspace_RZA2M_ANPR/ANPR_RZA2M_GR_MANGO/src/tensorflow_lite/tensorflow/lite/kernels\kernel_util.h **** you may not use this file except in compliance with the License.
   5:C:/Renesas/e2studio_2021_01_workspace_RZA2M_ANPR/ANPR_RZA2M_GR_MANGO/src/tensorflow_lite/tensorflow/lite/kernels\kernel_util.h **** You may obtain a copy of the License at
   6:C:/Renesas/e2studio_2021_01_workspace_RZA2M_ANPR/ANPR_RZA2M_GR_MANGO/src/tensorflow_lite/tensorflow/lite/kernels\kernel_util.h **** 
   7:C:/Renesas/e2studio_2021_01_workspace_RZA2M_ANPR/ANPR_RZA2M_GR_MANGO/src/tensorflow_lite/tensorflow/lite/kernels\kernel_util.h ****     http://www.apache.org/licenses/LICENSE-2.0
   8:C:/Renesas/e2studio_2021_01_workspace_RZA2M_ANPR/ANPR_RZA2M_GR_MANGO/src/tensorflow_lite/tensorflow/lite/kernels\kernel_util.h **** 
   9:C:/Renesas/e2studio_2021_01_workspace_RZA2M_ANPR/ANPR_RZA2M_GR_MANGO/src/tensorflow_lite/tensorflow/lite/kernels\kernel_util.h **** Unless required by applicable law or agreed to in writing, software
  10:C:/Renesas/e2studio_2021_01_workspace_RZA2M_ANPR/ANPR_RZA2M_GR_MANGO/src/tensorflow_lite/tensorflow/lite/kernels\kernel_util.h **** distributed under the License is distributed on an "AS IS" BASIS,
  11:C:/Renesas/e2studio_2021_01_workspace_RZA2M_ANPR/ANPR_RZA2M_GR_MANGO/src/tensorflow_lite/tensorflow/lite/kernels\kernel_util.h **** WITHOUT WARRANTIES OR CONDITIONS OF ANY KIND, either express or implied.
  12:C:/Renesas/e2studio_2021_01_workspace_RZA2M_ANPR/ANPR_RZA2M_GR_MANGO/src/tensorflow_lite/tensorflow/lite/kernels\kernel_util.h **** See the License for the specific language governing permissions and
  13:C:/Renesas/e2studio_2021_01_workspace_RZA2M_ANPR/ANPR_RZA2M_GR_MANGO/src/tensorflow_lite/tensorflow/lite/kernels\kernel_util.h **** limitations under the License.
  14:C:/Renesas/e2studio_2021_01_workspace_RZA2M_ANPR/ANPR_RZA2M_GR_MANGO/src/tensorflow_lite/tensorflow/lite/kernels\kernel_util.h **** ==============================================================================*/
  15:C:/Renesas/e2studio_2021_01_workspace_RZA2M_ANPR/ANPR_RZA2M_GR_MANGO/src/tensorflow_lite/tensorflow/lite/kernels\kernel_util.h **** #ifndef TENSORFLOW_LITE_KERNELS_KERNEL_UTIL_H_
  16:C:/Renesas/e2studio_2021_01_workspace_RZA2M_ANPR/ANPR_RZA2M_GR_MANGO/src/tensorflow_lite/tensorflow/lite/kernels\kernel_util.h **** #define TENSORFLOW_LITE_KERNELS_KERNEL_UTIL_H_
  17:C:/Renesas/e2studio_2021_01_workspace_RZA2M_ANPR/ANPR_RZA2M_GR_MANGO/src/tensorflow_lite/tensorflow/lite/kernels\kernel_util.h **** 
  18:C:/Renesas/e2studio_2021_01_workspace_RZA2M_ANPR/ANPR_RZA2M_GR_MANGO/src/tensorflow_lite/tensorflow/lite/kernels\kernel_util.h **** #include <stdint.h>
  19:C:/Renesas/e2studio_2021_01_workspace_RZA2M_ANPR/ANPR_RZA2M_GR_MANGO/src/tensorflow_lite/tensorflow/lite/kernels\kernel_util.h **** 
  20:C:/Renesas/e2studio_2021_01_workspace_RZA2M_ANPR/ANPR_RZA2M_GR_MANGO/src/tensorflow_lite/tensorflow/lite/kernels\kernel_util.h **** #include <limits>
  21:C:/Renesas/e2studio_2021_01_workspace_RZA2M_ANPR/ANPR_RZA2M_GR_MANGO/src/tensorflow_lite/tensorflow/lite/kernels\kernel_util.h **** 
  22:C:/Renesas/e2studio_2021_01_workspace_RZA2M_ANPR/ANPR_RZA2M_GR_MANGO/src/tensorflow_lite/tensorflow/lite/kernels\kernel_util.h **** #include "tensorflow/lite/c/builtin_op_data.h"
  23:C:/Renesas/e2studio_2021_01_workspace_RZA2M_ANPR/ANPR_RZA2M_GR_MANGO/src/tensorflow_lite/tensorflow/lite/kernels\kernel_util.h **** #include "tensorflow/lite/c/common.h"
  24:C:/Renesas/e2studio_2021_01_workspace_RZA2M_ANPR/ANPR_RZA2M_GR_MANGO/src/tensorflow_lite/tensorflow/lite/kernels\kernel_util.h **** 
  25:C:/Renesas/e2studio_2021_01_workspace_RZA2M_ANPR/ANPR_RZA2M_GR_MANGO/src/tensorflow_lite/tensorflow/lite/kernels\kernel_util.h **** namespace tflite {
  26:C:/Renesas/e2studio_2021_01_workspace_RZA2M_ANPR/ANPR_RZA2M_GR_MANGO/src/tensorflow_lite/tensorflow/lite/kernels\kernel_util.h **** 
  27:C:/Renesas/e2studio_2021_01_workspace_RZA2M_ANPR/ANPR_RZA2M_GR_MANGO/src/tensorflow_lite/tensorflow/lite/kernels\kernel_util.h **** // A fair number of functions in this header have historically been inline.
  28:C:/Renesas/e2studio_2021_01_workspace_RZA2M_ANPR/ANPR_RZA2M_GR_MANGO/src/tensorflow_lite/tensorflow/lite/kernels\kernel_util.h **** // It is ok to change functions to not be inline if the latency with
  29:C:/Renesas/e2studio_2021_01_workspace_RZA2M_ANPR/ANPR_RZA2M_GR_MANGO/src/tensorflow_lite/tensorflow/lite/kernels\kernel_util.h **** // benchmark_model for MobileNet + MobileBERT is unaffected. If such a change is
  30:C:/Renesas/e2studio_2021_01_workspace_RZA2M_ANPR/ANPR_RZA2M_GR_MANGO/src/tensorflow_lite/tensorflow/lite/kernels\kernel_util.h **** // made, move the newly non-inlined function declarations to the top of this
  31:C:/Renesas/e2studio_2021_01_workspace_RZA2M_ANPR/ANPR_RZA2M_GR_MANGO/src/tensorflow_lite/tensorflow/lite/kernels\kernel_util.h **** // header file.
  32:C:/Renesas/e2studio_2021_01_workspace_RZA2M_ANPR/ANPR_RZA2M_GR_MANGO/src/tensorflow_lite/tensorflow/lite/kernels\kernel_util.h **** 
  33:C:/Renesas/e2studio_2021_01_workspace_RZA2M_ANPR/ANPR_RZA2M_GR_MANGO/src/tensorflow_lite/tensorflow/lite/kernels\kernel_util.h **** // Note: You must check if result is not null:
  34:C:/Renesas/e2studio_2021_01_workspace_RZA2M_ANPR/ANPR_RZA2M_GR_MANGO/src/tensorflow_lite/tensorflow/lite/kernels\kernel_util.h **** //
  35:C:/Renesas/e2studio_2021_01_workspace_RZA2M_ANPR/ANPR_RZA2M_GR_MANGO/src/tensorflow_lite/tensorflow/lite/kernels\kernel_util.h **** //   TfLiteTensor* my_tensor = GetInput(context, node, kMyTensorIdx);
  36:C:/Renesas/e2studio_2021_01_workspace_RZA2M_ANPR/ANPR_RZA2M_GR_MANGO/src/tensorflow_lite/tensorflow/lite/kernels\kernel_util.h **** //   TF_LITE_ENSURE(context, my_tensor != nullptr);
  37:C:/Renesas/e2studio_2021_01_workspace_RZA2M_ANPR/ANPR_RZA2M_GR_MANGO/src/tensorflow_lite/tensorflow/lite/kernels\kernel_util.h **** //
  38:C:/Renesas/e2studio_2021_01_workspace_RZA2M_ANPR/ANPR_RZA2M_GR_MANGO/src/tensorflow_lite/tensorflow/lite/kernels\kernel_util.h **** // This is because the index might point to the optional tensor constant
  39:C:/Renesas/e2studio_2021_01_workspace_RZA2M_ANPR/ANPR_RZA2M_GR_MANGO/src/tensorflow_lite/tensorflow/lite/kernels\kernel_util.h **** // (kTfLiteOptionalTensor) in which case there is no tensor to return.
  40:C:/Renesas/e2studio_2021_01_workspace_RZA2M_ANPR/ANPR_RZA2M_GR_MANGO/src/tensorflow_lite/tensorflow/lite/kernels\kernel_util.h **** const TfLiteTensor* GetInput(const TfLiteContext* context,
  41:C:/Renesas/e2studio_2021_01_workspace_RZA2M_ANPR/ANPR_RZA2M_GR_MANGO/src/tensorflow_lite/tensorflow/lite/kernels\kernel_util.h ****                              const TfLiteNode* node, int index);
  42:C:/Renesas/e2studio_2021_01_workspace_RZA2M_ANPR/ANPR_RZA2M_GR_MANGO/src/tensorflow_lite/tensorflow/lite/kernels\kernel_util.h **** 
  43:C:/Renesas/e2studio_2021_01_workspace_RZA2M_ANPR/ANPR_RZA2M_GR_MANGO/src/tensorflow_lite/tensorflow/lite/kernels\kernel_util.h **** // Same as `GetInput` but returns boolean and uses output argument for tensor.
  44:C:/Renesas/e2studio_2021_01_workspace_RZA2M_ANPR/ANPR_RZA2M_GR_MANGO/src/tensorflow_lite/tensorflow/lite/kernels\kernel_util.h **** //
  45:C:/Renesas/e2studio_2021_01_workspace_RZA2M_ANPR/ANPR_RZA2M_GR_MANGO/src/tensorflow_lite/tensorflow/lite/kernels\kernel_util.h **** //   TfLiteTensor* my_tensor;
  46:C:/Renesas/e2studio_2021_01_workspace_RZA2M_ANPR/ANPR_RZA2M_GR_MANGO/src/tensorflow_lite/tensorflow/lite/kernels\kernel_util.h **** //   TF_LITE_ENSURE_OK(context,
  47:C:/Renesas/e2studio_2021_01_workspace_RZA2M_ANPR/ANPR_RZA2M_GR_MANGO/src/tensorflow_lite/tensorflow/lite/kernels\kernel_util.h **** //                     GetInputSafe(context, node, kMyTensorIdx, &my_tensor));
  48:C:/Renesas/e2studio_2021_01_workspace_RZA2M_ANPR/ANPR_RZA2M_GR_MANGO/src/tensorflow_lite/tensorflow/lite/kernels\kernel_util.h **** //   // can use my_tensor directly from here onwards, it is not nullptr
  49:C:/Renesas/e2studio_2021_01_workspace_RZA2M_ANPR/ANPR_RZA2M_GR_MANGO/src/tensorflow_lite/tensorflow/lite/kernels\kernel_util.h **** //
  50:C:/Renesas/e2studio_2021_01_workspace_RZA2M_ANPR/ANPR_RZA2M_GR_MANGO/src/tensorflow_lite/tensorflow/lite/kernels\kernel_util.h **** // Should be used in cases where the binary size is too large.
  51:C:/Renesas/e2studio_2021_01_workspace_RZA2M_ANPR/ANPR_RZA2M_GR_MANGO/src/tensorflow_lite/tensorflow/lite/kernels\kernel_util.h **** TfLiteStatus GetInputSafe(const TfLiteContext* context, const TfLiteNode* node,
  52:C:/Renesas/e2studio_2021_01_workspace_RZA2M_ANPR/ANPR_RZA2M_GR_MANGO/src/tensorflow_lite/tensorflow/lite/kernels\kernel_util.h ****                           int index, const TfLiteTensor** tensor);
  53:C:/Renesas/e2studio_2021_01_workspace_RZA2M_ANPR/ANPR_RZA2M_GR_MANGO/src/tensorflow_lite/tensorflow/lite/kernels\kernel_util.h **** 
  54:C:/Renesas/e2studio_2021_01_workspace_RZA2M_ANPR/ANPR_RZA2M_GR_MANGO/src/tensorflow_lite/tensorflow/lite/kernels\kernel_util.h **** // Note: You must check if result is not null:
  55:C:/Renesas/e2studio_2021_01_workspace_RZA2M_ANPR/ANPR_RZA2M_GR_MANGO/src/tensorflow_lite/tensorflow/lite/kernels\kernel_util.h **** //
  56:C:/Renesas/e2studio_2021_01_workspace_RZA2M_ANPR/ANPR_RZA2M_GR_MANGO/src/tensorflow_lite/tensorflow/lite/kernels\kernel_util.h **** //   TfLiteTensor* my_tensor = GetVariableInput(context, node, kMyTensorIdx);
  57:C:/Renesas/e2studio_2021_01_workspace_RZA2M_ANPR/ANPR_RZA2M_GR_MANGO/src/tensorflow_lite/tensorflow/lite/kernels\kernel_util.h **** //   TF_LITE_ENSURE(context, my_tensor != nullptr);
  58:C:/Renesas/e2studio_2021_01_workspace_RZA2M_ANPR/ANPR_RZA2M_GR_MANGO/src/tensorflow_lite/tensorflow/lite/kernels\kernel_util.h **** //
  59:C:/Renesas/e2studio_2021_01_workspace_RZA2M_ANPR/ANPR_RZA2M_GR_MANGO/src/tensorflow_lite/tensorflow/lite/kernels\kernel_util.h **** // This is because the index might point to the optional tensor constant
  60:C:/Renesas/e2studio_2021_01_workspace_RZA2M_ANPR/ANPR_RZA2M_GR_MANGO/src/tensorflow_lite/tensorflow/lite/kernels\kernel_util.h **** // (kTfLiteOptionalTensor) in which case there is no tensor to return.
  61:C:/Renesas/e2studio_2021_01_workspace_RZA2M_ANPR/ANPR_RZA2M_GR_MANGO/src/tensorflow_lite/tensorflow/lite/kernels\kernel_util.h **** TfLiteTensor* GetVariableInput(TfLiteContext* context, const TfLiteNode* node,
  62:C:/Renesas/e2studio_2021_01_workspace_RZA2M_ANPR/ANPR_RZA2M_GR_MANGO/src/tensorflow_lite/tensorflow/lite/kernels\kernel_util.h ****                                int index);
  63:C:/Renesas/e2studio_2021_01_workspace_RZA2M_ANPR/ANPR_RZA2M_GR_MANGO/src/tensorflow_lite/tensorflow/lite/kernels\kernel_util.h **** 
  64:C:/Renesas/e2studio_2021_01_workspace_RZA2M_ANPR/ANPR_RZA2M_GR_MANGO/src/tensorflow_lite/tensorflow/lite/kernels\kernel_util.h **** // Note: You must check if result is not null:
  65:C:/Renesas/e2studio_2021_01_workspace_RZA2M_ANPR/ANPR_RZA2M_GR_MANGO/src/tensorflow_lite/tensorflow/lite/kernels\kernel_util.h **** //
  66:C:/Renesas/e2studio_2021_01_workspace_RZA2M_ANPR/ANPR_RZA2M_GR_MANGO/src/tensorflow_lite/tensorflow/lite/kernels\kernel_util.h **** //   TfLiteTensor* my_tensor = GetOutput(context, node, kMyTensorIdx);
  67:C:/Renesas/e2studio_2021_01_workspace_RZA2M_ANPR/ANPR_RZA2M_GR_MANGO/src/tensorflow_lite/tensorflow/lite/kernels\kernel_util.h **** //   TF_LITE_ENSURE(context, my_tensor != nullptr);
  68:C:/Renesas/e2studio_2021_01_workspace_RZA2M_ANPR/ANPR_RZA2M_GR_MANGO/src/tensorflow_lite/tensorflow/lite/kernels\kernel_util.h **** //
  69:C:/Renesas/e2studio_2021_01_workspace_RZA2M_ANPR/ANPR_RZA2M_GR_MANGO/src/tensorflow_lite/tensorflow/lite/kernels\kernel_util.h **** // This is because the index might point to the optional tensor constant
  70:C:/Renesas/e2studio_2021_01_workspace_RZA2M_ANPR/ANPR_RZA2M_GR_MANGO/src/tensorflow_lite/tensorflow/lite/kernels\kernel_util.h **** // (kTfLiteOptionalTensor) in which case there is no tensor to return.
  71:C:/Renesas/e2studio_2021_01_workspace_RZA2M_ANPR/ANPR_RZA2M_GR_MANGO/src/tensorflow_lite/tensorflow/lite/kernels\kernel_util.h **** TfLiteTensor* GetOutput(TfLiteContext* context, const TfLiteNode* node,
  72:C:/Renesas/e2studio_2021_01_workspace_RZA2M_ANPR/ANPR_RZA2M_GR_MANGO/src/tensorflow_lite/tensorflow/lite/kernels\kernel_util.h ****                         int index);
  73:C:/Renesas/e2studio_2021_01_workspace_RZA2M_ANPR/ANPR_RZA2M_GR_MANGO/src/tensorflow_lite/tensorflow/lite/kernels\kernel_util.h **** 
  74:C:/Renesas/e2studio_2021_01_workspace_RZA2M_ANPR/ANPR_RZA2M_GR_MANGO/src/tensorflow_lite/tensorflow/lite/kernels\kernel_util.h **** // Same as `GetOutput` but returns boolean and uses output argument for tensor.
  75:C:/Renesas/e2studio_2021_01_workspace_RZA2M_ANPR/ANPR_RZA2M_GR_MANGO/src/tensorflow_lite/tensorflow/lite/kernels\kernel_util.h **** //
  76:C:/Renesas/e2studio_2021_01_workspace_RZA2M_ANPR/ANPR_RZA2M_GR_MANGO/src/tensorflow_lite/tensorflow/lite/kernels\kernel_util.h **** //   TfLiteTensor* my_tensor;
  77:C:/Renesas/e2studio_2021_01_workspace_RZA2M_ANPR/ANPR_RZA2M_GR_MANGO/src/tensorflow_lite/tensorflow/lite/kernels\kernel_util.h **** //   TF_LITE_ENSURE_OK(context,
  78:C:/Renesas/e2studio_2021_01_workspace_RZA2M_ANPR/ANPR_RZA2M_GR_MANGO/src/tensorflow_lite/tensorflow/lite/kernels\kernel_util.h **** //                     GetOutputSafe(context, node, kMyTensorIdx, &my_tensor));
  79:C:/Renesas/e2studio_2021_01_workspace_RZA2M_ANPR/ANPR_RZA2M_GR_MANGO/src/tensorflow_lite/tensorflow/lite/kernels\kernel_util.h **** //   // can use my_tensor directly from here onwards, it is not nullptr
  80:C:/Renesas/e2studio_2021_01_workspace_RZA2M_ANPR/ANPR_RZA2M_GR_MANGO/src/tensorflow_lite/tensorflow/lite/kernels\kernel_util.h **** //
  81:C:/Renesas/e2studio_2021_01_workspace_RZA2M_ANPR/ANPR_RZA2M_GR_MANGO/src/tensorflow_lite/tensorflow/lite/kernels\kernel_util.h **** // Should be used in cases where the binary size is too large.
  82:C:/Renesas/e2studio_2021_01_workspace_RZA2M_ANPR/ANPR_RZA2M_GR_MANGO/src/tensorflow_lite/tensorflow/lite/kernels\kernel_util.h **** TfLiteStatus GetOutputSafe(const TfLiteContext* context, const TfLiteNode* node,
  83:C:/Renesas/e2studio_2021_01_workspace_RZA2M_ANPR/ANPR_RZA2M_GR_MANGO/src/tensorflow_lite/tensorflow/lite/kernels\kernel_util.h ****                            int index, TfLiteTensor** tensor);
  84:C:/Renesas/e2studio_2021_01_workspace_RZA2M_ANPR/ANPR_RZA2M_GR_MANGO/src/tensorflow_lite/tensorflow/lite/kernels\kernel_util.h **** 
  85:C:/Renesas/e2studio_2021_01_workspace_RZA2M_ANPR/ANPR_RZA2M_GR_MANGO/src/tensorflow_lite/tensorflow/lite/kernels\kernel_util.h **** // Note: You must check if result is not null:
  86:C:/Renesas/e2studio_2021_01_workspace_RZA2M_ANPR/ANPR_RZA2M_GR_MANGO/src/tensorflow_lite/tensorflow/lite/kernels\kernel_util.h **** //
  87:C:/Renesas/e2studio_2021_01_workspace_RZA2M_ANPR/ANPR_RZA2M_GR_MANGO/src/tensorflow_lite/tensorflow/lite/kernels\kernel_util.h **** //   TfLiteTensor* my_tensor = GetOptionalInputTensor(context, node, kIdx);
  88:C:/Renesas/e2studio_2021_01_workspace_RZA2M_ANPR/ANPR_RZA2M_GR_MANGO/src/tensorflow_lite/tensorflow/lite/kernels\kernel_util.h **** //   TF_LITE_ENSURE(context, my_tensor != nullptr);
  89:C:/Renesas/e2studio_2021_01_workspace_RZA2M_ANPR/ANPR_RZA2M_GR_MANGO/src/tensorflow_lite/tensorflow/lite/kernels\kernel_util.h **** //
  90:C:/Renesas/e2studio_2021_01_workspace_RZA2M_ANPR/ANPR_RZA2M_GR_MANGO/src/tensorflow_lite/tensorflow/lite/kernels\kernel_util.h **** // This is because the index might point to the optional tensor constant
  91:C:/Renesas/e2studio_2021_01_workspace_RZA2M_ANPR/ANPR_RZA2M_GR_MANGO/src/tensorflow_lite/tensorflow/lite/kernels\kernel_util.h **** // (kTfLiteOptionalTensor) in which case there is no tensor to return.
  92:C:/Renesas/e2studio_2021_01_workspace_RZA2M_ANPR/ANPR_RZA2M_GR_MANGO/src/tensorflow_lite/tensorflow/lite/kernels\kernel_util.h **** //
  93:C:/Renesas/e2studio_2021_01_workspace_RZA2M_ANPR/ANPR_RZA2M_GR_MANGO/src/tensorflow_lite/tensorflow/lite/kernels\kernel_util.h **** // Deprecated. GetInput has the same functionality.
  94:C:/Renesas/e2studio_2021_01_workspace_RZA2M_ANPR/ANPR_RZA2M_GR_MANGO/src/tensorflow_lite/tensorflow/lite/kernels\kernel_util.h **** const TfLiteTensor* GetOptionalInputTensor(const TfLiteContext* context,
  95:C:/Renesas/e2studio_2021_01_workspace_RZA2M_ANPR/ANPR_RZA2M_GR_MANGO/src/tensorflow_lite/tensorflow/lite/kernels\kernel_util.h ****                                            const TfLiteNode* node, int index);
  96:C:/Renesas/e2studio_2021_01_workspace_RZA2M_ANPR/ANPR_RZA2M_GR_MANGO/src/tensorflow_lite/tensorflow/lite/kernels\kernel_util.h **** 
  97:C:/Renesas/e2studio_2021_01_workspace_RZA2M_ANPR/ANPR_RZA2M_GR_MANGO/src/tensorflow_lite/tensorflow/lite/kernels\kernel_util.h **** #ifndef TF_LITE_STATIC_MEMORY
  98:C:/Renesas/e2studio_2021_01_workspace_RZA2M_ANPR/ANPR_RZA2M_GR_MANGO/src/tensorflow_lite/tensorflow/lite/kernels\kernel_util.h **** // Note: You must check if result is not null:
  99:C:/Renesas/e2studio_2021_01_workspace_RZA2M_ANPR/ANPR_RZA2M_GR_MANGO/src/tensorflow_lite/tensorflow/lite/kernels\kernel_util.h **** //
 100:C:/Renesas/e2studio_2021_01_workspace_RZA2M_ANPR/ANPR_RZA2M_GR_MANGO/src/tensorflow_lite/tensorflow/lite/kernels\kernel_util.h **** //   TfLiteTensor* my_tensor = GetTemporary(context, node, kMyTensorIdx);
 101:C:/Renesas/e2studio_2021_01_workspace_RZA2M_ANPR/ANPR_RZA2M_GR_MANGO/src/tensorflow_lite/tensorflow/lite/kernels\kernel_util.h **** //   TF_LITE_ENSURE(context, my_tensor != nullptr);
 102:C:/Renesas/e2studio_2021_01_workspace_RZA2M_ANPR/ANPR_RZA2M_GR_MANGO/src/tensorflow_lite/tensorflow/lite/kernels\kernel_util.h **** //
 103:C:/Renesas/e2studio_2021_01_workspace_RZA2M_ANPR/ANPR_RZA2M_GR_MANGO/src/tensorflow_lite/tensorflow/lite/kernels\kernel_util.h **** // This is because the index might point to the optional tensor constant
 104:C:/Renesas/e2studio_2021_01_workspace_RZA2M_ANPR/ANPR_RZA2M_GR_MANGO/src/tensorflow_lite/tensorflow/lite/kernels\kernel_util.h **** // (kTfLiteOptionalTensor) in which case there is no tensor to return.
 105:C:/Renesas/e2studio_2021_01_workspace_RZA2M_ANPR/ANPR_RZA2M_GR_MANGO/src/tensorflow_lite/tensorflow/lite/kernels\kernel_util.h **** TfLiteTensor* GetTemporary(TfLiteContext* context, const TfLiteNode* node,
 106:C:/Renesas/e2studio_2021_01_workspace_RZA2M_ANPR/ANPR_RZA2M_GR_MANGO/src/tensorflow_lite/tensorflow/lite/kernels\kernel_util.h ****                            int index);
 107:C:/Renesas/e2studio_2021_01_workspace_RZA2M_ANPR/ANPR_RZA2M_GR_MANGO/src/tensorflow_lite/tensorflow/lite/kernels\kernel_util.h **** 
 108:C:/Renesas/e2studio_2021_01_workspace_RZA2M_ANPR/ANPR_RZA2M_GR_MANGO/src/tensorflow_lite/tensorflow/lite/kernels\kernel_util.h **** // Same as `GetTemporary` but returns boolean and uses output argument for
 109:C:/Renesas/e2studio_2021_01_workspace_RZA2M_ANPR/ANPR_RZA2M_GR_MANGO/src/tensorflow_lite/tensorflow/lite/kernels\kernel_util.h **** // tensor.
 110:C:/Renesas/e2studio_2021_01_workspace_RZA2M_ANPR/ANPR_RZA2M_GR_MANGO/src/tensorflow_lite/tensorflow/lite/kernels\kernel_util.h **** //
 111:C:/Renesas/e2studio_2021_01_workspace_RZA2M_ANPR/ANPR_RZA2M_GR_MANGO/src/tensorflow_lite/tensorflow/lite/kernels\kernel_util.h **** //   TfLiteTensor* my_tensor;
 112:C:/Renesas/e2studio_2021_01_workspace_RZA2M_ANPR/ANPR_RZA2M_GR_MANGO/src/tensorflow_lite/tensorflow/lite/kernels\kernel_util.h **** //   TF_LITE_ENSURE_OK(context,
 113:C:/Renesas/e2studio_2021_01_workspace_RZA2M_ANPR/ANPR_RZA2M_GR_MANGO/src/tensorflow_lite/tensorflow/lite/kernels\kernel_util.h **** //                     GetTemporarySafe(context, node, kMyTensorIdx,
 114:C:/Renesas/e2studio_2021_01_workspace_RZA2M_ANPR/ANPR_RZA2M_GR_MANGO/src/tensorflow_lite/tensorflow/lite/kernels\kernel_util.h **** //                     &my_tensor));
 115:C:/Renesas/e2studio_2021_01_workspace_RZA2M_ANPR/ANPR_RZA2M_GR_MANGO/src/tensorflow_lite/tensorflow/lite/kernels\kernel_util.h **** //   // can use my_tensor directly from here onwards, it is not nullptr
 116:C:/Renesas/e2studio_2021_01_workspace_RZA2M_ANPR/ANPR_RZA2M_GR_MANGO/src/tensorflow_lite/tensorflow/lite/kernels\kernel_util.h **** //
 117:C:/Renesas/e2studio_2021_01_workspace_RZA2M_ANPR/ANPR_RZA2M_GR_MANGO/src/tensorflow_lite/tensorflow/lite/kernels\kernel_util.h **** // Should be used in cases where the binary size is too large.
 118:C:/Renesas/e2studio_2021_01_workspace_RZA2M_ANPR/ANPR_RZA2M_GR_MANGO/src/tensorflow_lite/tensorflow/lite/kernels\kernel_util.h **** TfLiteStatus GetTemporarySafe(const TfLiteContext* context,
 119:C:/Renesas/e2studio_2021_01_workspace_RZA2M_ANPR/ANPR_RZA2M_GR_MANGO/src/tensorflow_lite/tensorflow/lite/kernels\kernel_util.h ****                               const TfLiteNode* node, int index,
 120:C:/Renesas/e2studio_2021_01_workspace_RZA2M_ANPR/ANPR_RZA2M_GR_MANGO/src/tensorflow_lite/tensorflow/lite/kernels\kernel_util.h ****                               TfLiteTensor** tensor);
 121:C:/Renesas/e2studio_2021_01_workspace_RZA2M_ANPR/ANPR_RZA2M_GR_MANGO/src/tensorflow_lite/tensorflow/lite/kernels\kernel_util.h **** 
 122:C:/Renesas/e2studio_2021_01_workspace_RZA2M_ANPR/ANPR_RZA2M_GR_MANGO/src/tensorflow_lite/tensorflow/lite/kernels\kernel_util.h **** // Note: You must check if result is not null:
 123:C:/Renesas/e2studio_2021_01_workspace_RZA2M_ANPR/ANPR_RZA2M_GR_MANGO/src/tensorflow_lite/tensorflow/lite/kernels\kernel_util.h **** //
 124:C:/Renesas/e2studio_2021_01_workspace_RZA2M_ANPR/ANPR_RZA2M_GR_MANGO/src/tensorflow_lite/tensorflow/lite/kernels\kernel_util.h **** //   TfLiteTensor* my_tensor = GetIntermediates(context, node, kMyTensorIdx);
 125:C:/Renesas/e2studio_2021_01_workspace_RZA2M_ANPR/ANPR_RZA2M_GR_MANGO/src/tensorflow_lite/tensorflow/lite/kernels\kernel_util.h **** //   TF_LITE_ENSURE(context, my_tensor != nullptr);
 126:C:/Renesas/e2studio_2021_01_workspace_RZA2M_ANPR/ANPR_RZA2M_GR_MANGO/src/tensorflow_lite/tensorflow/lite/kernels\kernel_util.h **** //
 127:C:/Renesas/e2studio_2021_01_workspace_RZA2M_ANPR/ANPR_RZA2M_GR_MANGO/src/tensorflow_lite/tensorflow/lite/kernels\kernel_util.h **** // This is because the index might point to the optional tensor constant
 128:C:/Renesas/e2studio_2021_01_workspace_RZA2M_ANPR/ANPR_RZA2M_GR_MANGO/src/tensorflow_lite/tensorflow/lite/kernels\kernel_util.h **** // (kTfLiteOptionalTensor) in which case there is no tensor to return.
 129:C:/Renesas/e2studio_2021_01_workspace_RZA2M_ANPR/ANPR_RZA2M_GR_MANGO/src/tensorflow_lite/tensorflow/lite/kernels\kernel_util.h **** const TfLiteTensor* GetIntermediates(TfLiteContext* context,
 130:C:/Renesas/e2studio_2021_01_workspace_RZA2M_ANPR/ANPR_RZA2M_GR_MANGO/src/tensorflow_lite/tensorflow/lite/kernels\kernel_util.h ****                                      const TfLiteNode* node, int index);
 131:C:/Renesas/e2studio_2021_01_workspace_RZA2M_ANPR/ANPR_RZA2M_GR_MANGO/src/tensorflow_lite/tensorflow/lite/kernels\kernel_util.h **** 
 132:C:/Renesas/e2studio_2021_01_workspace_RZA2M_ANPR/ANPR_RZA2M_GR_MANGO/src/tensorflow_lite/tensorflow/lite/kernels\kernel_util.h **** // Same as `GetIntermediates` but returns boolean and uses output argument for
 133:C:/Renesas/e2studio_2021_01_workspace_RZA2M_ANPR/ANPR_RZA2M_GR_MANGO/src/tensorflow_lite/tensorflow/lite/kernels\kernel_util.h **** // tensor.
 134:C:/Renesas/e2studio_2021_01_workspace_RZA2M_ANPR/ANPR_RZA2M_GR_MANGO/src/tensorflow_lite/tensorflow/lite/kernels\kernel_util.h **** //
 135:C:/Renesas/e2studio_2021_01_workspace_RZA2M_ANPR/ANPR_RZA2M_GR_MANGO/src/tensorflow_lite/tensorflow/lite/kernels\kernel_util.h **** //   TfLiteTensor* my_tensor;
 136:C:/Renesas/e2studio_2021_01_workspace_RZA2M_ANPR/ANPR_RZA2M_GR_MANGO/src/tensorflow_lite/tensorflow/lite/kernels\kernel_util.h **** //   TF_LITE_ENSURE_OK(context,
 137:C:/Renesas/e2studio_2021_01_workspace_RZA2M_ANPR/ANPR_RZA2M_GR_MANGO/src/tensorflow_lite/tensorflow/lite/kernels\kernel_util.h **** //                     GetIntermediatesSafe(context, node, kMyTensorIdx,
 138:C:/Renesas/e2studio_2021_01_workspace_RZA2M_ANPR/ANPR_RZA2M_GR_MANGO/src/tensorflow_lite/tensorflow/lite/kernels\kernel_util.h **** //                     &my_tensor));
 139:C:/Renesas/e2studio_2021_01_workspace_RZA2M_ANPR/ANPR_RZA2M_GR_MANGO/src/tensorflow_lite/tensorflow/lite/kernels\kernel_util.h **** //   // can use my_tensor directly from here onwards, it is not nullptr
 140:C:/Renesas/e2studio_2021_01_workspace_RZA2M_ANPR/ANPR_RZA2M_GR_MANGO/src/tensorflow_lite/tensorflow/lite/kernels\kernel_util.h **** //
 141:C:/Renesas/e2studio_2021_01_workspace_RZA2M_ANPR/ANPR_RZA2M_GR_MANGO/src/tensorflow_lite/tensorflow/lite/kernels\kernel_util.h **** // Should be used in cases where the binary size is too large.
 142:C:/Renesas/e2studio_2021_01_workspace_RZA2M_ANPR/ANPR_RZA2M_GR_MANGO/src/tensorflow_lite/tensorflow/lite/kernels\kernel_util.h **** TfLiteStatus GetIntermediatesSafe(const TfLiteContext* context,
 143:C:/Renesas/e2studio_2021_01_workspace_RZA2M_ANPR/ANPR_RZA2M_GR_MANGO/src/tensorflow_lite/tensorflow/lite/kernels\kernel_util.h ****                                   const TfLiteNode* node, int index,
 144:C:/Renesas/e2studio_2021_01_workspace_RZA2M_ANPR/ANPR_RZA2M_GR_MANGO/src/tensorflow_lite/tensorflow/lite/kernels\kernel_util.h ****                                   TfLiteTensor** tensor);
 145:C:/Renesas/e2studio_2021_01_workspace_RZA2M_ANPR/ANPR_RZA2M_GR_MANGO/src/tensorflow_lite/tensorflow/lite/kernels\kernel_util.h **** #endif  // TF_LITE_STATIC_MEMORY
 146:C:/Renesas/e2studio_2021_01_workspace_RZA2M_ANPR/ANPR_RZA2M_GR_MANGO/src/tensorflow_lite/tensorflow/lite/kernels\kernel_util.h **** 
 147:C:/Renesas/e2studio_2021_01_workspace_RZA2M_ANPR/ANPR_RZA2M_GR_MANGO/src/tensorflow_lite/tensorflow/lite/kernels\kernel_util.h **** inline int NumDimensions(const TfLiteTensor* t) { return t->dims->size; }
 177              		.loc 2 147 0
 178 00c4 000093E5 		ldr	r0, [r3]
 179              	.LBE163:
 180              	.LBE162:
 322:../src/tensorflow_lite/tensorflow/lite/micro/kernels/cmsis_nn/svdf.cc ****                  input->type == kTfLiteFloat32 || input->type == kTfLiteInt8);
 323:../src/tensorflow_lite/tensorflow/lite/micro/kernels/cmsis_nn/svdf.cc ****   TF_LITE_ENSURE_EQ(context, NumDimensions(input), 2);
 181              		.loc 1 323 0
 182 00c8 020050E3 		cmp	r0, #2
 183 00cc 9800001A 		bne	.L79
 324:../src/tensorflow_lite/tensorflow/lite/micro/kernels/cmsis_nn/svdf.cc **** 
 325:../src/tensorflow_lite/tensorflow/lite/micro/kernels/cmsis_nn/svdf.cc ****   // Validate Tensor Output:
 326:../src/tensorflow_lite/tensorflow/lite/micro/kernels/cmsis_nn/svdf.cc ****   // [0] = float/int8, {2, batch_size, num_units}
 327:../src/tensorflow_lite/tensorflow/lite/micro/kernels/cmsis_nn/svdf.cc ****   TF_LITE_ENSURE_EQ(context, node->outputs->size, 1);
 184              		.loc 1 327 0
 185 00d0 042095E5 		ldr	r2, [r5, #4]
 186 00d4 000092E5 		ldr	r0, [r2]
 187 00d8 010050E3 		cmp	r0, #1
 188 00dc 2200000A 		beq	.L18
 189              		.loc 1 327 0 is_stmt 0 discriminator 1
 190 00e0 00C000E3 		movw	ip, #:lower16:.LC13
 191 00e4 003000E3 		movw	r3, #:lower16:.LC14
 192 00e8 00C040E3 		movt	ip, #:upper16:.LC13
 193 00ec 003040E3 		movt	r3, #:upper16:.LC14
 194 00f0 002000E3 		movw	r2, #:lower16:.LC1
 195 00f4 001000E3 		movw	r1, #:lower16:.LC7
 196 00f8 08008DE5 		str	r0, [sp, #8]
 197              	.LVL23:
 198 00fc 002040E3 		movt	r2, #:upper16:.LC1
 199 0100 0400A0E1 		mov	r0, r4
 200 0104 00308DE5 		str	r3, [sp]
 201 0108 0C608DE5 		str	r6, [sp, #12]
 202 010c 001040E3 		movt	r1, #:upper16:.LC7
 203 0110 04C08DE5 		str	ip, [sp, #4]
 204 0114 473100E3 		movw	r3, #327
 205 0118 144094E5 		ldr	r4, [r4, #20]
 206              	.LVL24:
 207 011c 34FF2FE1 		blx	r4
 208              	.LVL25:
 209 0120 0600A0E1 		mov	r0, r6
 210              	.LVL26:
 211              	.L11:
 328:../src/tensorflow_lite/tensorflow/lite/micro/kernels/cmsis_nn/svdf.cc ****   TfLiteTensor* output = GetOutput(context, node, kOutputTensor);
 329:../src/tensorflow_lite/tensorflow/lite/micro/kernels/cmsis_nn/svdf.cc ****   TF_LITE_ENSURE_EQ(context, NumDimensions(output), 2);
 330:../src/tensorflow_lite/tensorflow/lite/micro/kernels/cmsis_nn/svdf.cc ****   TF_LITE_ENSURE_EQ(context, output->dims->data[0], batch_size);
 331:../src/tensorflow_lite/tensorflow/lite/micro/kernels/cmsis_nn/svdf.cc ****   TF_LITE_ENSURE_EQ(context, output->dims->data[1], num_units);
 332:../src/tensorflow_lite/tensorflow/lite/micro/kernels/cmsis_nn/svdf.cc **** 
 333:../src/tensorflow_lite/tensorflow/lite/micro/kernels/cmsis_nn/svdf.cc ****   // Validate Weights Feature Input Tensor:
 334:../src/tensorflow_lite/tensorflow/lite/micro/kernels/cmsis_nn/svdf.cc ****   TF_LITE_ENSURE_EQ(context, NumDimensions(weights_feature), 2);
 335:../src/tensorflow_lite/tensorflow/lite/micro/kernels/cmsis_nn/svdf.cc ****   TF_LITE_ENSURE_EQ(context, weights_feature->dims->data[1], input_size);
 336:../src/tensorflow_lite/tensorflow/lite/micro/kernels/cmsis_nn/svdf.cc **** 
 337:../src/tensorflow_lite/tensorflow/lite/micro/kernels/cmsis_nn/svdf.cc ****   // Validate Weights Time Input Tensor:
 338:../src/tensorflow_lite/tensorflow/lite/micro/kernels/cmsis_nn/svdf.cc ****   TF_LITE_ENSURE_EQ(context, NumDimensions(weights_time), 2);
 339:../src/tensorflow_lite/tensorflow/lite/micro/kernels/cmsis_nn/svdf.cc ****   TF_LITE_ENSURE_EQ(context, weights_time->dims->data[0], num_filters);
 340:../src/tensorflow_lite/tensorflow/lite/micro/kernels/cmsis_nn/svdf.cc ****   TF_LITE_ENSURE_EQ(context, weights_time->dims->data[1], memory_size);
 341:../src/tensorflow_lite/tensorflow/lite/micro/kernels/cmsis_nn/svdf.cc **** 
 342:../src/tensorflow_lite/tensorflow/lite/micro/kernels/cmsis_nn/svdf.cc ****   // Validate Optional Bias Input Tensor:
 343:../src/tensorflow_lite/tensorflow/lite/micro/kernels/cmsis_nn/svdf.cc ****   if (bias != nullptr) {
 344:../src/tensorflow_lite/tensorflow/lite/micro/kernels/cmsis_nn/svdf.cc ****     TF_LITE_ENSURE_EQ(context, bias->dims->data[0], num_units);
 345:../src/tensorflow_lite/tensorflow/lite/micro/kernels/cmsis_nn/svdf.cc ****   }
 346:../src/tensorflow_lite/tensorflow/lite/micro/kernels/cmsis_nn/svdf.cc **** 
 347:../src/tensorflow_lite/tensorflow/lite/micro/kernels/cmsis_nn/svdf.cc ****   // Validate Activation State Input Tensor:
 348:../src/tensorflow_lite/tensorflow/lite/micro/kernels/cmsis_nn/svdf.cc ****   TF_LITE_ENSURE_EQ(context, NumDimensions(activation_state), 2);
 349:../src/tensorflow_lite/tensorflow/lite/micro/kernels/cmsis_nn/svdf.cc ****   TF_LITE_ENSURE_EQ(context, activation_state->dims->data[0], batch_size);
 350:../src/tensorflow_lite/tensorflow/lite/micro/kernels/cmsis_nn/svdf.cc ****   TF_LITE_ENSURE_EQ(context, activation_state->dims->data[1],
 351:../src/tensorflow_lite/tensorflow/lite/micro/kernels/cmsis_nn/svdf.cc ****                     memory_size * num_filters);
 352:../src/tensorflow_lite/tensorflow/lite/micro/kernels/cmsis_nn/svdf.cc ****   // Since is_variable is not part of TFLiteEvalTensor, check is_variable here.
 353:../src/tensorflow_lite/tensorflow/lite/micro/kernels/cmsis_nn/svdf.cc ****   TF_LITE_ENSURE_EQ(context, activation_state->is_variable, true);
 354:../src/tensorflow_lite/tensorflow/lite/micro/kernels/cmsis_nn/svdf.cc **** 
 355:../src/tensorflow_lite/tensorflow/lite/micro/kernels/cmsis_nn/svdf.cc ****   TF_LITE_ENSURE_EQ(context, node->inputs->size, 5);
 356:../src/tensorflow_lite/tensorflow/lite/micro/kernels/cmsis_nn/svdf.cc **** 
 357:../src/tensorflow_lite/tensorflow/lite/micro/kernels/cmsis_nn/svdf.cc ****   TFLITE_DCHECK(node->user_data != nullptr);
 358:../src/tensorflow_lite/tensorflow/lite/micro/kernels/cmsis_nn/svdf.cc ****   OpData* data = static_cast<OpData*>(node->user_data);
 359:../src/tensorflow_lite/tensorflow/lite/micro/kernels/cmsis_nn/svdf.cc **** 
 360:../src/tensorflow_lite/tensorflow/lite/micro/kernels/cmsis_nn/svdf.cc ****   if (input->type == kTfLiteInt8) {
 361:../src/tensorflow_lite/tensorflow/lite/micro/kernels/cmsis_nn/svdf.cc ****     TF_LITE_ENSURE_EQ(context, weights_feature->type, kTfLiteInt8);
 362:../src/tensorflow_lite/tensorflow/lite/micro/kernels/cmsis_nn/svdf.cc ****     TF_LITE_ENSURE_EQ(context, weights_time->type, kTfLiteInt16);
 363:../src/tensorflow_lite/tensorflow/lite/micro/kernels/cmsis_nn/svdf.cc ****     TF_LITE_ENSURE_EQ(context, activation_state->type, kTfLiteInt16);
 364:../src/tensorflow_lite/tensorflow/lite/micro/kernels/cmsis_nn/svdf.cc ****     if (bias != nullptr) {
 365:../src/tensorflow_lite/tensorflow/lite/micro/kernels/cmsis_nn/svdf.cc ****       TF_LITE_ENSURE_EQ(context, bias->type, kTfLiteInt32);
 366:../src/tensorflow_lite/tensorflow/lite/micro/kernels/cmsis_nn/svdf.cc ****     }
 367:../src/tensorflow_lite/tensorflow/lite/micro/kernels/cmsis_nn/svdf.cc **** 
 368:../src/tensorflow_lite/tensorflow/lite/micro/kernels/cmsis_nn/svdf.cc ****     TF_LITE_ENSURE_TYPES_EQ(context, output->type, kTfLiteInt8);
 369:../src/tensorflow_lite/tensorflow/lite/micro/kernels/cmsis_nn/svdf.cc **** 
 370:../src/tensorflow_lite/tensorflow/lite/micro/kernels/cmsis_nn/svdf.cc ****     const double effective_scale_1 = static_cast<double>(
 371:../src/tensorflow_lite/tensorflow/lite/micro/kernels/cmsis_nn/svdf.cc ****         input->params.scale * weights_feature->params.scale /
 372:../src/tensorflow_lite/tensorflow/lite/micro/kernels/cmsis_nn/svdf.cc ****         activation_state->params.scale);
 373:../src/tensorflow_lite/tensorflow/lite/micro/kernels/cmsis_nn/svdf.cc ****     const double effective_scale_2 =
 374:../src/tensorflow_lite/tensorflow/lite/micro/kernels/cmsis_nn/svdf.cc ****         static_cast<double>(activation_state->params.scale *
 375:../src/tensorflow_lite/tensorflow/lite/micro/kernels/cmsis_nn/svdf.cc ****                             weights_time->params.scale / output->params.scale);
 376:../src/tensorflow_lite/tensorflow/lite/micro/kernels/cmsis_nn/svdf.cc **** 
 377:../src/tensorflow_lite/tensorflow/lite/micro/kernels/cmsis_nn/svdf.cc ****     // TODO(b/162018098): Use TF_LITE_ENSURE_NEAR when it is ready.
 378:../src/tensorflow_lite/tensorflow/lite/micro/kernels/cmsis_nn/svdf.cc ****     TF_LITE_ENSURE(
 379:../src/tensorflow_lite/tensorflow/lite/micro/kernels/cmsis_nn/svdf.cc ****         context,
 380:../src/tensorflow_lite/tensorflow/lite/micro/kernels/cmsis_nn/svdf.cc ****         std::abs(static_cast<double>(bias->params.scale) -
 381:../src/tensorflow_lite/tensorflow/lite/micro/kernels/cmsis_nn/svdf.cc ****                  static_cast<double>(activation_state->params.scale *
 382:../src/tensorflow_lite/tensorflow/lite/micro/kernels/cmsis_nn/svdf.cc ****                                      weights_time->params.scale)) < 1e-5);
 383:../src/tensorflow_lite/tensorflow/lite/micro/kernels/cmsis_nn/svdf.cc **** 
 384:../src/tensorflow_lite/tensorflow/lite/micro/kernels/cmsis_nn/svdf.cc ****     QuantizeMultiplier(effective_scale_1, &(data->effective_scale_1_a),
 385:../src/tensorflow_lite/tensorflow/lite/micro/kernels/cmsis_nn/svdf.cc ****                        &(data->effective_scale_1_b));
 386:../src/tensorflow_lite/tensorflow/lite/micro/kernels/cmsis_nn/svdf.cc ****     QuantizeMultiplier(effective_scale_2, &(data->effective_scale_2_a),
 387:../src/tensorflow_lite/tensorflow/lite/micro/kernels/cmsis_nn/svdf.cc ****                        &(data->effective_scale_2_b));
 388:../src/tensorflow_lite/tensorflow/lite/micro/kernels/cmsis_nn/svdf.cc **** 
 389:../src/tensorflow_lite/tensorflow/lite/micro/kernels/cmsis_nn/svdf.cc ****     data->input_zero_point = input->params.zero_point;
 390:../src/tensorflow_lite/tensorflow/lite/micro/kernels/cmsis_nn/svdf.cc ****     data->output_zero_point = output->params.zero_point;
 391:../src/tensorflow_lite/tensorflow/lite/micro/kernels/cmsis_nn/svdf.cc **** 
 392:../src/tensorflow_lite/tensorflow/lite/micro/kernels/cmsis_nn/svdf.cc ****     TFLITE_DCHECK(context->RequestScratchBufferInArena != nullptr);
 393:../src/tensorflow_lite/tensorflow/lite/micro/kernels/cmsis_nn/svdf.cc **** 
 394:../src/tensorflow_lite/tensorflow/lite/micro/kernels/cmsis_nn/svdf.cc ****     const TfLiteStatus scratch_status = context->RequestScratchBufferInArena(
 395:../src/tensorflow_lite/tensorflow/lite/micro/kernels/cmsis_nn/svdf.cc ****         context, batch_size * num_filters * sizeof(int32_t),
 396:../src/tensorflow_lite/tensorflow/lite/micro/kernels/cmsis_nn/svdf.cc ****         &(data->scratch_tensor_index));
 397:../src/tensorflow_lite/tensorflow/lite/micro/kernels/cmsis_nn/svdf.cc ****     TF_LITE_ENSURE_OK(context, scratch_status);
 398:../src/tensorflow_lite/tensorflow/lite/micro/kernels/cmsis_nn/svdf.cc **** 
 399:../src/tensorflow_lite/tensorflow/lite/micro/kernels/cmsis_nn/svdf.cc ****     const TfLiteStatus scratch_output_status =
 400:../src/tensorflow_lite/tensorflow/lite/micro/kernels/cmsis_nn/svdf.cc ****         context->RequestScratchBufferInArena(
 401:../src/tensorflow_lite/tensorflow/lite/micro/kernels/cmsis_nn/svdf.cc ****             context, batch_size * num_units * sizeof(int32_t),
 402:../src/tensorflow_lite/tensorflow/lite/micro/kernels/cmsis_nn/svdf.cc ****             &(data->scratch_output_tensor_index));
 403:../src/tensorflow_lite/tensorflow/lite/micro/kernels/cmsis_nn/svdf.cc ****     TF_LITE_ENSURE_OK(context, scratch_output_status);
 404:../src/tensorflow_lite/tensorflow/lite/micro/kernels/cmsis_nn/svdf.cc ****   } else {
 405:../src/tensorflow_lite/tensorflow/lite/micro/kernels/cmsis_nn/svdf.cc ****     TF_LITE_ENSURE_EQ(context, weights_feature->type, kTfLiteFloat32);
 406:../src/tensorflow_lite/tensorflow/lite/micro/kernels/cmsis_nn/svdf.cc ****     TF_LITE_ENSURE_EQ(context, weights_time->type, kTfLiteFloat32);
 407:../src/tensorflow_lite/tensorflow/lite/micro/kernels/cmsis_nn/svdf.cc ****     TF_LITE_ENSURE_EQ(context, activation_state->type, kTfLiteFloat32);
 408:../src/tensorflow_lite/tensorflow/lite/micro/kernels/cmsis_nn/svdf.cc ****     if (bias != nullptr) {
 409:../src/tensorflow_lite/tensorflow/lite/micro/kernels/cmsis_nn/svdf.cc ****       TF_LITE_ENSURE_EQ(context, bias->type, kTfLiteFloat32);
 410:../src/tensorflow_lite/tensorflow/lite/micro/kernels/cmsis_nn/svdf.cc ****     }
 411:../src/tensorflow_lite/tensorflow/lite/micro/kernels/cmsis_nn/svdf.cc ****     TF_LITE_ENSURE_TYPES_EQ(context, output->type, kTfLiteFloat32);
 412:../src/tensorflow_lite/tensorflow/lite/micro/kernels/cmsis_nn/svdf.cc **** 
 413:../src/tensorflow_lite/tensorflow/lite/micro/kernels/cmsis_nn/svdf.cc ****     TFLITE_DCHECK(context->RequestScratchBufferInArena != nullptr);
 414:../src/tensorflow_lite/tensorflow/lite/micro/kernels/cmsis_nn/svdf.cc ****     const TfLiteStatus scratch_status = context->RequestScratchBufferInArena(
 415:../src/tensorflow_lite/tensorflow/lite/micro/kernels/cmsis_nn/svdf.cc ****         context, batch_size * num_filters * sizeof(float),
 416:../src/tensorflow_lite/tensorflow/lite/micro/kernels/cmsis_nn/svdf.cc ****         &(data->scratch_tensor_index));
 417:../src/tensorflow_lite/tensorflow/lite/micro/kernels/cmsis_nn/svdf.cc ****     TF_LITE_ENSURE_OK(context, scratch_status);
 418:../src/tensorflow_lite/tensorflow/lite/micro/kernels/cmsis_nn/svdf.cc ****   }
 419:../src/tensorflow_lite/tensorflow/lite/micro/kernels/cmsis_nn/svdf.cc **** 
 420:../src/tensorflow_lite/tensorflow/lite/micro/kernels/cmsis_nn/svdf.cc ****   return kTfLiteOk;
 421:../src/tensorflow_lite/tensorflow/lite/micro/kernels/cmsis_nn/svdf.cc **** }
 212              		.loc 1 421 0 is_stmt 1
 213 0124 2CD08DE2 		add	sp, sp, #44
 214              		.cfi_remember_state
 215              		.cfi_def_cfa_offset 44
 216              		@ sp needed
 217 0128 028BBDEC 		vldm	sp!, {d8}
 218              		.cfi_restore 80
 219              		.cfi_restore 81
 220              		.cfi_def_cfa_offset 36
 221 012c F08FBDE8 		pop	{r4, r5, r6, r7, r8, r9, r10, fp, pc}
 222              	.LVL27:
 223              	.L78:
 224              		.cfi_restore_state
 321:../src/tensorflow_lite/tensorflow/lite/micro/kernels/cmsis_nn/svdf.cc ****                  input->type == kTfLiteFloat32 || input->type == kTfLiteInt8);
 225              		.loc 1 321 0 discriminator 1
 226 0130 003000E3 		movw	r3, #:lower16:.LC10
 227 0134 002000E3 		movw	r2, #:lower16:.LC1
 228 0138 003040E3 		movt	r3, #:upper16:.LC10
 229 013c 001000E3 		movw	r1, #:lower16:.LC2
 230 0140 00308DE5 		str	r3, [sp]
 231              	.LVL28:
 232 0144 0400A0E1 		mov	r0, r4
 233 0148 002040E3 		movt	r2, #:upper16:.LC1
 234 014c 001040E3 		movt	r1, #:upper16:.LC2
 235 0150 145094E5 		ldr	r5, [r4, #20]
 236              	.LVL29:
 237 0154 423100E3 		movw	r3, #322
 238 0158 35FF2FE1 		blx	r5
 239              	.LVL30:
 240 015c 0100A0E3 		mov	r0, #1
 241              		.loc 1 421 0 discriminator 1
 242 0160 2CD08DE2 		add	sp, sp, #44
 243              		.cfi_remember_state
 244              		.cfi_def_cfa_offset 44
 245              		@ sp needed
 246 0164 028BBDEC 		vldm	sp!, {d8}
 247              		.cfi_restore 80
 248              		.cfi_restore 81
 249              		.cfi_def_cfa_offset 36
 250 0168 F08FBDE8 		pop	{r4, r5, r6, r7, r8, r9, r10, fp, pc}
 251              	.LVL31:
 252              	.L18:
 253              		.cfi_restore_state
 318:../src/tensorflow_lite/tensorflow/lite/micro/kernels/cmsis_nn/svdf.cc **** 
 254              		.loc 1 318 0
 255 016c 08E09BE5 		ldr	lr, [fp, #8]
 328:../src/tensorflow_lite/tensorflow/lite/micro/kernels/cmsis_nn/svdf.cc ****   TfLiteTensor* output = GetOutput(context, node, kOutputTensor);
 256              		.loc 1 328 0
 257 0170 0C20A0E1 		mov	r2, ip
 313:../src/tensorflow_lite/tensorflow/lite/micro/kernels/cmsis_nn/svdf.cc ****   const int batch_size = input->dims->data[0];
 258              		.loc 1 313 0
 259 0174 08C093E5 		ldr	ip, [r3, #8]
 328:../src/tensorflow_lite/tensorflow/lite/micro/kernels/cmsis_nn/svdf.cc ****   TF_LITE_ENSURE_EQ(context, NumDimensions(output), 2);
 260              		.loc 1 328 0
 261 0178 0510A0E1 		mov	r1, r5
 314:../src/tensorflow_lite/tensorflow/lite/micro/kernels/cmsis_nn/svdf.cc ****   const int num_filters = weights_feature->dims->data[0];
 262              		.loc 1 314 0
 263 017c 043093E5 		ldr	r3, [r3, #4]
 328:../src/tensorflow_lite/tensorflow/lite/micro/kernels/cmsis_nn/svdf.cc ****   TF_LITE_ENSURE_EQ(context, NumDimensions(output), 2);
 264              		.loc 1 328 0
 265 0180 0400A0E1 		mov	r0, r4
 313:../src/tensorflow_lite/tensorflow/lite/micro/kernels/cmsis_nn/svdf.cc ****   const int batch_size = input->dims->data[0];
 266              		.loc 1 313 0
 267 0184 1CC08DE5 		str	ip, [sp, #28]
 318:../src/tensorflow_lite/tensorflow/lite/micro/kernels/cmsis_nn/svdf.cc **** 
 268              		.loc 1 318 0
 269 0188 08C09EE5 		ldr	ip, [lr, #8]
 314:../src/tensorflow_lite/tensorflow/lite/micro/kernels/cmsis_nn/svdf.cc ****   const int num_filters = weights_feature->dims->data[0];
 270              		.loc 1 314 0
 271 018c 18308DE5 		str	r3, [sp, #24]
 318:../src/tensorflow_lite/tensorflow/lite/micro/kernels/cmsis_nn/svdf.cc **** 
 272              		.loc 1 318 0
 273 0190 20C08DE5 		str	ip, [sp, #32]
 328:../src/tensorflow_lite/tensorflow/lite/micro/kernels/cmsis_nn/svdf.cc ****   TF_LITE_ENSURE_EQ(context, NumDimensions(output), 2);
 274              		.loc 1 328 0
 275 0194 FEFFFFEB 		bl	_ZN6tflite9GetOutputEP13TfLiteContextPK10TfLiteNodei
 276              	.LVL32:
 277 0198 086090E5 		ldr	r6, [r0, #8]
 278 019c 0030A0E1 		mov	r3, r0
 279              	.LVL33:
 280              	.LBB164:
 281              	.LBB165:
 282              		.loc 2 147 0
 283 01a0 000096E5 		ldr	r0, [r6]
 284              	.LVL34:
 285              	.LBE165:
 286              	.LBE164:
 329:../src/tensorflow_lite/tensorflow/lite/micro/kernels/cmsis_nn/svdf.cc ****   TF_LITE_ENSURE_EQ(context, output->dims->data[0], batch_size);
 287              		.loc 1 329 0
 288 01a4 020050E3 		cmp	r0, #2
 289 01a8 C500001A 		bne	.L80
 330:../src/tensorflow_lite/tensorflow/lite/micro/kernels/cmsis_nn/svdf.cc ****   TF_LITE_ENSURE_EQ(context, output->dims->data[1], num_units);
 290              		.loc 1 330 0
 291 01ac 040096E5 		ldr	r0, [r6, #4]
 292 01b0 18E09DE5 		ldr	lr, [sp, #24]
 293 01b4 00005EE1 		cmp	lr, r0
 294 01b8 AF00001A 		bne	.L81
 317:../src/tensorflow_lite/tensorflow/lite/micro/kernels/cmsis_nn/svdf.cc ****   const int memory_size = weights_time->dims->data[1];
 295              		.loc 1 317 0
 296 01bc 0A10A0E1 		mov	r1, r10
 297 01c0 0900A0E1 		mov	r0, r9
 298 01c4 24308DE5 		str	r3, [sp, #36]
 299 01c8 FEFFFFEB 		bl	__aeabi_idiv
 300              	.LVL35:
 301 01cc 00A0A0E1 		mov	r10, r0
 302              	.LVL36:
 331:../src/tensorflow_lite/tensorflow/lite/micro/kernels/cmsis_nn/svdf.cc **** 
 303              		.loc 1 331 0
 304 01d0 080096E5 		ldr	r0, [r6, #8]
 305 01d4 24309DE5 		ldr	r3, [sp, #36]
 306 01d8 00005AE1 		cmp	r10, r0
 307 01dc D800001A 		bne	.L82
 308 01e0 082098E5 		ldr	r2, [r8, #8]
 309              	.LVL37:
 310              	.LBB166:
 311              	.LBB167:
 312              		.loc 2 147 0
 313 01e4 000092E5 		ldr	r0, [r2]
 314              	.LBE167:
 315              	.LBE166:
 334:../src/tensorflow_lite/tensorflow/lite/micro/kernels/cmsis_nn/svdf.cc ****   TF_LITE_ENSURE_EQ(context, weights_feature->dims->data[1], input_size);
 316              		.loc 1 334 0
 317 01e8 020050E3 		cmp	r0, #2
 318 01ec E600001A 		bne	.L83
 335:../src/tensorflow_lite/tensorflow/lite/micro/kernels/cmsis_nn/svdf.cc **** 
 319              		.loc 1 335 0
 320 01f0 08C092E5 		ldr	ip, [r2, #8]
 321 01f4 1CE09DE5 		ldr	lr, [sp, #28]
 322 01f8 0C005EE1 		cmp	lr, ip
 323 01fc F500001A 		bne	.L84
 324 0200 08209BE5 		ldr	r2, [fp, #8]
 325              	.LVL38:
 326              	.LBB168:
 327              	.LBB169:
 328              		.loc 2 147 0
 329 0204 00C092E5 		ldr	ip, [r2]
 330              	.LBE169:
 331              	.LBE168:
 338:../src/tensorflow_lite/tensorflow/lite/micro/kernels/cmsis_nn/svdf.cc ****   TF_LITE_ENSURE_EQ(context, weights_time->dims->data[0], num_filters);
 332              		.loc 1 338 0
 333 0208 02005CE3 		cmp	ip, #2
 334 020c 0301001A 		bne	.L85
 339:../src/tensorflow_lite/tensorflow/lite/micro/kernels/cmsis_nn/svdf.cc ****   TF_LITE_ENSURE_EQ(context, weights_time->dims->data[1], memory_size);
 335              		.loc 1 339 0
 336 0210 040092E5 		ldr	r0, [r2, #4]
 337 0214 000059E1 		cmp	r9, r0
 338 0218 1201001A 		bne	.L86
 340:../src/tensorflow_lite/tensorflow/lite/micro/kernels/cmsis_nn/svdf.cc **** 
 339              		.loc 1 340 0
 340 021c 080092E5 		ldr	r0, [r2, #8]
 341 0220 20E09DE5 		ldr	lr, [sp, #32]
 342 0224 00005EE1 		cmp	lr, r0
 343 0228 2001001A 		bne	.L87
 343:../src/tensorflow_lite/tensorflow/lite/micro/kernels/cmsis_nn/svdf.cc ****     TF_LITE_ENSURE_EQ(context, bias->dims->data[0], num_units);
 344              		.loc 1 343 0
 345 022c 14209DE5 		ldr	r2, [sp, #20]
 346 0230 000052E3 		cmp	r2, #0
 347 0234 0300000A 		beq	.L27
 344:../src/tensorflow_lite/tensorflow/lite/micro/kernels/cmsis_nn/svdf.cc ****   }
 348              		.loc 1 344 0
 349 0238 082092E5 		ldr	r2, [r2, #8]
 350 023c 040092E5 		ldr	r0, [r2, #4]
 351 0240 00005AE1 		cmp	r10, r0
 352 0244 2B01001A 		bne	.L88
 353              	.L27:
 354 0248 10209DE5 		ldr	r2, [sp, #16]
 355 024c 082092E5 		ldr	r2, [r2, #8]
 356              	.LVL39:
 357              	.LBB170:
 358              	.LBB171:
 359              		.loc 2 147 0
 360 0250 000092E5 		ldr	r0, [r2]
 361              	.LBE171:
 362              	.LBE170:
 348:../src/tensorflow_lite/tensorflow/lite/micro/kernels/cmsis_nn/svdf.cc ****   TF_LITE_ENSURE_EQ(context, activation_state->dims->data[0], batch_size);
 363              		.loc 1 348 0
 364 0254 020050E3 		cmp	r0, #2
 365 0258 3801001A 		bne	.L89
 349:../src/tensorflow_lite/tensorflow/lite/micro/kernels/cmsis_nn/svdf.cc ****   TF_LITE_ENSURE_EQ(context, activation_state->dims->data[1],
 366              		.loc 1 349 0
 367 025c 040092E5 		ldr	r0, [r2, #4]
 368 0260 18E09DE5 		ldr	lr, [sp, #24]
 369 0264 00005EE1 		cmp	lr, r0
 370 0268 4801001A 		bne	.L90
 350:../src/tensorflow_lite/tensorflow/lite/micro/kernels/cmsis_nn/svdf.cc ****                     memory_size * num_filters);
 371              		.loc 1 350 0
 372 026c 20109DE5 		ldr	r1, [sp, #32]
 373 0270 080092E5 		ldr	r0, [r2, #8]
 374 0274 91090CE0 		mul	ip, r1, r9
 375 0278 0C0050E1 		cmp	r0, ip
 376 027c 5501001A 		bne	.L91
 353:../src/tensorflow_lite/tensorflow/lite/micro/kernels/cmsis_nn/svdf.cc **** 
 377              		.loc 1 353 0
 378 0280 10209DE5 		ldr	r2, [sp, #16]
 379 0284 2D00D2E5 		ldrb	r0, [r2, #45]	@ zero_extendqisi2
 380 0288 000050E3 		cmp	r0, #0
 381 028c 5F02000A 		beq	.L92
 355:../src/tensorflow_lite/tensorflow/lite/micro/kernels/cmsis_nn/svdf.cc **** 
 382              		.loc 1 355 0
 383 0290 002095E5 		ldr	r2, [r5]
 384 0294 000092E5 		ldr	r0, [r2]
 385 0298 050050E3 		cmp	r0, #5
 386 029c 5F01001A 		bne	.L93
 357:../src/tensorflow_lite/tensorflow/lite/micro/kernels/cmsis_nn/svdf.cc ****   OpData* data = static_cast<OpData*>(node->user_data);
 387              		.loc 1 357 0
 388 02a0 105095E5 		ldr	r5, [r5, #16]
 389              	.LVL40:
 390 02a4 000055E3 		cmp	r5, #0
 391 02a8 3701000A 		beq	.L33
 392              	.LVL41:
 393              	.LBB172:
 360:../src/tensorflow_lite/tensorflow/lite/micro/kernels/cmsis_nn/svdf.cc ****     TF_LITE_ENSURE_EQ(context, weights_feature->type, kTfLiteInt8);
 394              		.loc 1 360 0
 395 02ac 00C0D7E5 		ldrb	ip, [r7]	@ zero_extendqisi2
 396 02b0 09005CE3 		cmp	ip, #9
 397 02b4 6C01000A 		beq	.L94
 398              	.LBB173:
 405:../src/tensorflow_lite/tensorflow/lite/micro/kernels/cmsis_nn/svdf.cc ****     TF_LITE_ENSURE_EQ(context, weights_time->type, kTfLiteFloat32);
 399              		.loc 1 405 0
 400 02b8 0060D8E5 		ldrb	r6, [r8]	@ zero_extendqisi2
 401 02bc 010056E3 		cmp	r6, #1
 402 02c0 2E02001A 		bne	.L95
 406:../src/tensorflow_lite/tensorflow/lite/micro/kernels/cmsis_nn/svdf.cc ****     TF_LITE_ENSURE_EQ(context, activation_state->type, kTfLiteFloat32);
 403              		.loc 1 406 0
 404 02c4 00C0DBE5 		ldrb	ip, [fp]	@ zero_extendqisi2
 405 02c8 01005CE3 		cmp	ip, #1
 406 02cc 1902001A 		bne	.L96
 407:../src/tensorflow_lite/tensorflow/lite/micro/kernels/cmsis_nn/svdf.cc ****     if (bias != nullptr) {
 407              		.loc 1 407 0
 408 02d0 10209DE5 		ldr	r2, [sp, #16]
 409 02d4 00C0D2E5 		ldrb	ip, [r2]	@ zero_extendqisi2
 410 02d8 01005CE3 		cmp	ip, #1
 411 02dc 5E02001A 		bne	.L97
 408:../src/tensorflow_lite/tensorflow/lite/micro/kernels/cmsis_nn/svdf.cc ****       TF_LITE_ENSURE_EQ(context, bias->type, kTfLiteFloat32);
 412              		.loc 1 408 0
 413 02e0 14209DE5 		ldr	r2, [sp, #20]
 414 02e4 000052E3 		cmp	r2, #0
 415 02e8 0200000A 		beq	.L44
 409:../src/tensorflow_lite/tensorflow/lite/micro/kernels/cmsis_nn/svdf.cc ****     }
 416              		.loc 1 409 0
 417 02ec 00C0D2E5 		ldrb	ip, [r2]	@ zero_extendqisi2
 418 02f0 01005CE3 		cmp	ip, #1
 419 02f4 3302001A 		bne	.L98
 420              	.L44:
 411:../src/tensorflow_lite/tensorflow/lite/micro/kernels/cmsis_nn/svdf.cc **** 
 421              		.loc 1 411 0
 422 02f8 0000D3E5 		ldrb	r0, [r3]	@ zero_extendqisi2
 423 02fc 010050E3 		cmp	r0, #1
 424 0300 6A02001A 		bne	.L99
 413:../src/tensorflow_lite/tensorflow/lite/micro/kernels/cmsis_nn/svdf.cc ****     const TfLiteStatus scratch_status = context->RequestScratchBufferInArena(
 425              		.loc 1 413 0
 426 0304 403094E5 		ldr	r3, [r4, #64]
 427 0308 000053E3 		cmp	r3, #0
 428 030c 1E01000A 		beq	.L33
 415:../src/tensorflow_lite/tensorflow/lite/micro/kernels/cmsis_nn/svdf.cc ****         &(data->scratch_tensor_index));
 429              		.loc 1 415 0
 430 0310 18209DE5 		ldr	r2, [sp, #24]
 431 0314 990201E0 		mul	r1, r9, r2
 416:../src/tensorflow_lite/tensorflow/lite/micro/kernels/cmsis_nn/svdf.cc ****     TF_LITE_ENSURE_OK(context, scratch_status);
 432              		.loc 1 416 0
 433 0318 102085E2 		add	r2, r5, #16
 434              	.LVL42:
 435              	.L72:
 436 031c 0400A0E1 		mov	r0, r4
 437 0320 0111A0E1 		lsl	r1, r1, #2
 438              	.LBE173:
 439              	.LBE172:
 440              		.loc 1 421 0
 441 0324 2CD08DE2 		add	sp, sp, #44
 442              		.cfi_remember_state
 443              		.cfi_def_cfa_offset 44
 444              		@ sp needed
 445 0328 028BBDEC 		vldm	sp!, {d8}
 446              		.cfi_restore 80
 447              		.cfi_restore 81
 448              		.cfi_def_cfa_offset 36
 449 032c F04FBDE8 		pop	{r4, r5, r6, r7, r8, r9, r10, fp, lr}
 450              		.cfi_restore 14
 451              		.cfi_restore 11
 452              		.cfi_restore 10
 453              		.cfi_restore 9
 454              		.cfi_restore 8
 455              		.cfi_restore 7
 456              		.cfi_restore 6
 457              		.cfi_restore 5
 458              		.cfi_restore 4
 459              		.cfi_def_cfa_offset 0
 460              	.LVL43:
 461              	.LBB181:
 462              	.LBB174:
 416:../src/tensorflow_lite/tensorflow/lite/micro/kernels/cmsis_nn/svdf.cc ****     TF_LITE_ENSURE_OK(context, scratch_status);
 463              		.loc 1 416 0
 464 0330 13FF2FE1 		bx	r3
 465              	.LVL44:
 466              	.L79:
 467              		.cfi_restore_state
 468              	.LBE174:
 469              	.LBE181:
 323:../src/tensorflow_lite/tensorflow/lite/micro/kernels/cmsis_nn/svdf.cc **** 
 470              		.loc 1 323 0 discriminator 1
 471 0334 00C000E3 		movw	ip, #:lower16:.LC11
 472 0338 003000E3 		movw	r3, #:lower16:.LC12
 473 033c 00C040E3 		movt	ip, #:upper16:.LC11
 474 0340 02E0A0E3 		mov	lr, #2
 475 0344 003040E3 		movt	r3, #:upper16:.LC12
 476 0348 002000E3 		movw	r2, #:lower16:.LC1
 477 034c 001000E3 		movw	r1, #:lower16:.LC7
 478 0350 08008DE5 		str	r0, [sp, #8]
 479              	.LVL45:
 480 0354 00308DE5 		str	r3, [sp]
 481 0358 0400A0E1 		mov	r0, r4
 482 035c 04C08DE5 		str	ip, [sp, #4]
 483 0360 002040E3 		movt	r2, #:upper16:.LC1
 484 0364 0CE08DE5 		str	lr, [sp, #12]
 485 0368 001040E3 		movt	r1, #:upper16:.LC7
 486 036c 144094E5 		ldr	r4, [r4, #20]
 487              	.LVL46:
 488 0370 433100E3 		movw	r3, #323
 489 0374 34FF2FE1 		blx	r4
 490              	.LVL47:
 491 0378 0600A0E1 		mov	r0, r6
 492              		.loc 1 421 0 discriminator 1
 493 037c 2CD08DE2 		add	sp, sp, #44
 494              		.cfi_remember_state
 495              		.cfi_def_cfa_offset 44
 496              		@ sp needed
 497 0380 028BBDEC 		vldm	sp!, {d8}
 498              		.cfi_restore 80
 499              		.cfi_restore 81
 500              		.cfi_def_cfa_offset 36
 501 0384 F08FBDE8 		pop	{r4, r5, r6, r7, r8, r9, r10, fp, pc}
 502              	.LVL48:
 503              	.L77:
 504              		.cfi_restore_state
 316:../src/tensorflow_lite/tensorflow/lite/micro/kernels/cmsis_nn/svdf.cc ****   const int num_units = num_filters / rank;
 505              		.loc 1 316 0 discriminator 1
 506 0388 000000E3 		movw	r0, #:lower16:.LC8
 507 038c 003000E3 		movw	r3, #:lower16:.LC9
 508 0390 00E0A0E3 		mov	lr, #0
 509 0394 000040E3 		movt	r0, #:upper16:.LC8
 510 0398 003040E3 		movt	r3, #:upper16:.LC9
 511 039c 002000E3 		movw	r2, #:lower16:.LC1
 512 03a0 001000E3 		movw	r1, #:lower16:.LC7
 513 03a4 01108DE9 		stmib	sp, {r0, ip}
 514 03a8 00308DE5 		str	r3, [sp]
 515 03ac 0400A0E1 		mov	r0, r4
 516 03b0 0CE08DE5 		str	lr, [sp, #12]
 517 03b4 002040E3 		movt	r2, #:upper16:.LC1
 518 03b8 001040E3 		movt	r1, #:upper16:.LC7
 519 03bc 144094E5 		ldr	r4, [r4, #20]
 520              	.LVL49:
 521 03c0 4F3FA0E3 		mov	r3, #316
 522 03c4 34FF2FE1 		blx	r4
 523              	.LVL50:
 524 03c8 0100A0E3 		mov	r0, #1
 525              		.loc 1 421 0 discriminator 1
 526 03cc 2CD08DE2 		add	sp, sp, #44
 527              		.cfi_remember_state
 528              		.cfi_def_cfa_offset 44
 529              		@ sp needed
 530 03d0 028BBDEC 		vldm	sp!, {d8}
 531              		.cfi_restore 80
 532              		.cfi_restore 81
 533              		.cfi_def_cfa_offset 36
 534 03d4 F08FBDE8 		pop	{r4, r5, r6, r7, r8, r9, r10, fp, pc}
 535              	.LVL51:
 536              	.L73:
 537              		.cfi_restore_state
 299:../src/tensorflow_lite/tensorflow/lite/micro/kernels/cmsis_nn/svdf.cc ****   const TfLiteTensor* weights_feature =
 538              		.loc 1 299 0 discriminator 1
 539 03d8 003000E3 		movw	r3, #:lower16:.LC3
 540 03dc 002000E3 		movw	r2, #:lower16:.LC1
 541 03e0 003040E3 		movt	r3, #:upper16:.LC3
 542 03e4 001000E3 		movw	r1, #:lower16:.LC2
 543 03e8 00308DE5 		str	r3, [sp]
 544 03ec 0400A0E1 		mov	r0, r4
 545              	.LVL52:
 546 03f0 002040E3 		movt	r2, #:upper16:.LC1
 547 03f4 001040E3 		movt	r1, #:upper16:.LC2
 548 03f8 145094E5 		ldr	r5, [r4, #20]
 549              	.LVL53:
 550 03fc 2B3100E3 		movw	r3, #299
 551 0400 35FF2FE1 		blx	r5
 552              	.LVL54:
 553 0404 0100A0E3 		mov	r0, #1
 554              		.loc 1 421 0 discriminator 1
 555 0408 2CD08DE2 		add	sp, sp, #44
 556              		.cfi_remember_state
 557              		.cfi_def_cfa_offset 44
 558              		@ sp needed
 559 040c 028BBDEC 		vldm	sp!, {d8}
 560              		.cfi_restore 80
 561              		.cfi_restore 81
 562              		.cfi_def_cfa_offset 36
 563 0410 F08FBDE8 		pop	{r4, r5, r6, r7, r8, r9, r10, fp, pc}
 564              	.LVL55:
 565              	.L74:
 566              		.cfi_restore_state
 302:../src/tensorflow_lite/tensorflow/lite/micro/kernels/cmsis_nn/svdf.cc ****   const TfLiteTensor* weights_time =
 567              		.loc 1 302 0 discriminator 1
 568 0414 003000E3 		movw	r3, #:lower16:.LC4
 569 0418 002000E3 		movw	r2, #:lower16:.LC1
 570 041c 003040E3 		movt	r3, #:upper16:.LC4
 571 0420 001000E3 		movw	r1, #:lower16:.LC2
 572 0424 00308DE5 		str	r3, [sp]
 573 0428 0400A0E1 		mov	r0, r4
 574              	.LVL56:
 575 042c 002040E3 		movt	r2, #:upper16:.LC1
 576 0430 001040E3 		movt	r1, #:upper16:.LC2
 577 0434 145094E5 		ldr	r5, [r4, #20]
 578              	.LVL57:
 579 0438 2E3100E3 		movw	r3, #302
 580 043c 35FF2FE1 		blx	r5
 581              	.LVL58:
 582 0440 0100A0E3 		mov	r0, #1
 583 0444 36FFFFEA 		b	.L11
 584              	.LVL59:
 585              	.L75:
 305:../src/tensorflow_lite/tensorflow/lite/micro/kernels/cmsis_nn/svdf.cc ****   const TfLiteTensor* bias = GetOptionalInputTensor(context, node, kBiasTensor);
 586              		.loc 1 305 0 discriminator 1
 587 0448 003000E3 		movw	r3, #:lower16:.LC5
 588 044c 002000E3 		movw	r2, #:lower16:.LC1
 589 0450 003040E3 		movt	r3, #:upper16:.LC5
 590 0454 001000E3 		movw	r1, #:lower16:.LC2
 591 0458 00308DE5 		str	r3, [sp]
 592 045c 0400A0E1 		mov	r0, r4
 593              	.LVL60:
 594 0460 002040E3 		movt	r2, #:upper16:.LC1
 595 0464 001040E3 		movt	r1, #:upper16:.LC2
 596 0468 145094E5 		ldr	r5, [r4, #20]
 597              	.LVL61:
 598 046c 313100E3 		movw	r3, #305
 599 0470 35FF2FE1 		blx	r5
 600              	.LVL62:
 601 0474 0100A0E3 		mov	r0, #1
 602 0478 29FFFFEA 		b	.L11
 603              	.LVL63:
 604              	.L81:
 330:../src/tensorflow_lite/tensorflow/lite/micro/kernels/cmsis_nn/svdf.cc ****   TF_LITE_ENSURE_EQ(context, output->dims->data[1], num_units);
 605              		.loc 1 330 0 discriminator 1
 606 047c 00C000E3 		movw	ip, #:lower16:.LC16
 607 0480 003000E3 		movw	r3, #:lower16:.LC17
 608              	.LVL64:
 609 0484 00C040E3 		movt	ip, #:upper16:.LC16
 610 0488 003040E3 		movt	r3, #:upper16:.LC17
 611 048c 002000E3 		movw	r2, #:lower16:.LC1
 612 0490 001000E3 		movw	r1, #:lower16:.LC7
 613 0494 08008DE5 		str	r0, [sp, #8]
 614 0498 002040E3 		movt	r2, #:upper16:.LC1
 615 049c 0400A0E1 		mov	r0, r4
 616 04a0 00308DE5 		str	r3, [sp]
 617 04a4 0CE08DE5 		str	lr, [sp, #12]
 618 04a8 001040E3 		movt	r1, #:upper16:.LC7
 619 04ac 04C08DE5 		str	ip, [sp, #4]
 620 04b0 4A3100E3 		movw	r3, #330
 621 04b4 144094E5 		ldr	r4, [r4, #20]
 622              	.LVL65:
 623 04b8 34FF2FE1 		blx	r4
 624              	.LVL66:
 625 04bc 0100A0E3 		mov	r0, #1
 626 04c0 17FFFFEA 		b	.L11
 627              	.LVL67:
 628              	.L80:
 329:../src/tensorflow_lite/tensorflow/lite/micro/kernels/cmsis_nn/svdf.cc ****   TF_LITE_ENSURE_EQ(context, output->dims->data[0], batch_size);
 629              		.loc 1 329 0 discriminator 1
 630 04c4 00C000E3 		movw	ip, #:lower16:.LC11
 631 04c8 003000E3 		movw	r3, #:lower16:.LC15
 632              	.LVL68:
 633 04cc 00C040E3 		movt	ip, #:upper16:.LC11
 634 04d0 003040E3 		movt	r3, #:upper16:.LC15
 635 04d4 02E0A0E3 		mov	lr, #2
 636 04d8 002000E3 		movw	r2, #:lower16:.LC1
 637 04dc 001000E3 		movw	r1, #:lower16:.LC7
 638 04e0 08008DE5 		str	r0, [sp, #8]
 639 04e4 00308DE5 		str	r3, [sp]
 640 04e8 0400A0E1 		mov	r0, r4
 641 04ec 04C08DE5 		str	ip, [sp, #4]
 642 04f0 002040E3 		movt	r2, #:upper16:.LC1
 643 04f4 0CE08DE5 		str	lr, [sp, #12]
 644 04f8 001040E3 		movt	r1, #:upper16:.LC7
 645 04fc 144094E5 		ldr	r4, [r4, #20]
 646              	.LVL69:
 647 0500 493100E3 		movw	r3, #329
 648 0504 34FF2FE1 		blx	r4
 649              	.LVL70:
 650 0508 0100A0E3 		mov	r0, #1
 651 050c 04FFFFEA 		b	.L11
 652              	.LVL71:
 653              	.L76:
 309:../src/tensorflow_lite/tensorflow/lite/micro/kernels/cmsis_nn/svdf.cc **** 
 654              		.loc 1 309 0 discriminator 1
 655 0510 003000E3 		movw	r3, #:lower16:.LC6
 656 0514 002000E3 		movw	r2, #:lower16:.LC1
 657 0518 003040E3 		movt	r3, #:upper16:.LC6
 658 051c 001000E3 		movw	r1, #:lower16:.LC2
 659 0520 00308DE5 		str	r3, [sp]
 660 0524 0400A0E1 		mov	r0, r4
 661              	.LVL72:
 662 0528 002040E3 		movt	r2, #:upper16:.LC1
 663 052c 001040E3 		movt	r1, #:upper16:.LC2
 664 0530 145094E5 		ldr	r5, [r4, #20]
 665              	.LVL73:
 666 0534 353100E3 		movw	r3, #309
 667 0538 35FF2FE1 		blx	r5
 668              	.LVL74:
 669 053c 0100A0E3 		mov	r0, #1
 670 0540 F7FEFFEA 		b	.L11
 671              	.LVL75:
 672              	.L82:
 331:../src/tensorflow_lite/tensorflow/lite/micro/kernels/cmsis_nn/svdf.cc **** 
 673              		.loc 1 331 0 discriminator 1
 674 0544 00C000E3 		movw	ip, #:lower16:.LC18
 675 0548 003000E3 		movw	r3, #:lower16:.LC19
 676              	.LVL76:
 677 054c 00C040E3 		movt	ip, #:upper16:.LC18
 678 0550 003040E3 		movt	r3, #:upper16:.LC19
 679 0554 002000E3 		movw	r2, #:lower16:.LC1
 680 0558 001000E3 		movw	r1, #:lower16:.LC7
 681 055c 08008DE5 		str	r0, [sp, #8]
 682 0560 002040E3 		movt	r2, #:upper16:.LC1
 683 0564 0400A0E1 		mov	r0, r4
 684 0568 00308DE5 		str	r3, [sp]
 685 056c 0CA08DE5 		str	r10, [sp, #12]
 686 0570 001040E3 		movt	r1, #:upper16:.LC7
 687 0574 04C08DE5 		str	ip, [sp, #4]
 688 0578 4B3100E3 		movw	r3, #331
 689 057c 144094E5 		ldr	r4, [r4, #20]
 690              	.LVL77:
 691 0580 34FF2FE1 		blx	r4
 692              	.LVL78:
 693 0584 0100A0E3 		mov	r0, #1
 694 0588 E5FEFFEA 		b	.L11
 695              	.LVL79:
 696              	.L83:
 334:../src/tensorflow_lite/tensorflow/lite/micro/kernels/cmsis_nn/svdf.cc ****   TF_LITE_ENSURE_EQ(context, weights_feature->dims->data[1], input_size);
 697              		.loc 1 334 0 discriminator 1
 698 058c 00C000E3 		movw	ip, #:lower16:.LC11
 699 0590 003000E3 		movw	r3, #:lower16:.LC20
 700              	.LVL80:
 701 0594 00C040E3 		movt	ip, #:upper16:.LC11
 702 0598 003040E3 		movt	r3, #:upper16:.LC20
 703 059c 02E0A0E3 		mov	lr, #2
 704 05a0 002000E3 		movw	r2, #:lower16:.LC1
 705 05a4 001000E3 		movw	r1, #:lower16:.LC7
 706 05a8 08008DE5 		str	r0, [sp, #8]
 707 05ac 00308DE5 		str	r3, [sp]
 708 05b0 0400A0E1 		mov	r0, r4
 709 05b4 04C08DE5 		str	ip, [sp, #4]
 710 05b8 002040E3 		movt	r2, #:upper16:.LC1
 711 05bc 0CE08DE5 		str	lr, [sp, #12]
 712 05c0 001040E3 		movt	r1, #:upper16:.LC7
 713 05c4 144094E5 		ldr	r4, [r4, #20]
 714              	.LVL81:
 715 05c8 4E3100E3 		movw	r3, #334
 716 05cc 34FF2FE1 		blx	r4
 717              	.LVL82:
 718 05d0 0100A0E3 		mov	r0, #1
 719 05d4 D2FEFFEA 		b	.L11
 720              	.LVL83:
 721              	.L84:
 335:../src/tensorflow_lite/tensorflow/lite/micro/kernels/cmsis_nn/svdf.cc **** 
 722              		.loc 1 335 0 discriminator 1
 723 05d8 000000E3 		movw	r0, #:lower16:.LC21
 724 05dc 003000E3 		movw	r3, #:lower16:.LC22
 725              	.LVL84:
 726 05e0 000040E3 		movt	r0, #:upper16:.LC21
 727 05e4 003040E3 		movt	r3, #:upper16:.LC22
 728 05e8 002000E3 		movw	r2, #:lower16:.LC1
 729 05ec 001000E3 		movw	r1, #:lower16:.LC7
 730 05f0 04008DE5 		str	r0, [sp, #4]
 731 05f4 002040E3 		movt	r2, #:upper16:.LC1
 732 05f8 0400A0E1 		mov	r0, r4
 733 05fc 00308DE5 		str	r3, [sp]
 734 0600 0CE08DE5 		str	lr, [sp, #12]
 735 0604 001040E3 		movt	r1, #:upper16:.LC7
 736 0608 08C08DE5 		str	ip, [sp, #8]
 737 060c 4F3100E3 		movw	r3, #335
 738 0610 144094E5 		ldr	r4, [r4, #20]
 739              	.LVL85:
 740 0614 34FF2FE1 		blx	r4
 741              	.LVL86:
 742 0618 0100A0E3 		mov	r0, #1
 743 061c C0FEFFEA 		b	.L11
 744              	.LVL87:
 745              	.L85:
 338:../src/tensorflow_lite/tensorflow/lite/micro/kernels/cmsis_nn/svdf.cc ****   TF_LITE_ENSURE_EQ(context, weights_time->dims->data[0], num_filters);
 746              		.loc 1 338 0 discriminator 1
 747 0620 00E000E3 		movw	lr, #:lower16:.LC11
 748 0624 003000E3 		movw	r3, #:lower16:.LC23
 749              	.LVL88:
 750 0628 00E040E3 		movt	lr, #:upper16:.LC11
 751 062c 003040E3 		movt	r3, #:upper16:.LC23
 752 0630 002000E3 		movw	r2, #:lower16:.LC1
 753 0634 001000E3 		movw	r1, #:lower16:.LC7
 754 0638 0C008DE5 		str	r0, [sp, #12]
 755 063c 002040E3 		movt	r2, #:upper16:.LC1
 756 0640 0400A0E1 		mov	r0, r4
 757 0644 00308DE5 		str	r3, [sp]
 758 0648 08C08DE5 		str	ip, [sp, #8]
 759 064c 001040E3 		movt	r1, #:upper16:.LC7
 760 0650 04E08DE5 		str	lr, [sp, #4]
 761 0654 523100E3 		movw	r3, #338
 762 0658 144094E5 		ldr	r4, [r4, #20]
 763              	.LVL89:
 764 065c 34FF2FE1 		blx	r4
 765              	.LVL90:
 766 0660 0100A0E3 		mov	r0, #1
 767 0664 AEFEFFEA 		b	.L11
 768              	.LVL91:
 769              	.L86:
 339:../src/tensorflow_lite/tensorflow/lite/micro/kernels/cmsis_nn/svdf.cc ****   TF_LITE_ENSURE_EQ(context, weights_time->dims->data[1], memory_size);
 770              		.loc 1 339 0 discriminator 1
 771 0668 00C000E3 		movw	ip, #:lower16:.LC24
 772 066c 003000E3 		movw	r3, #:lower16:.LC25
 773              	.LVL92:
 774 0670 00C040E3 		movt	ip, #:upper16:.LC24
 775 0674 003040E3 		movt	r3, #:upper16:.LC25
 776 0678 002000E3 		movw	r2, #:lower16:.LC1
 777 067c 001000E3 		movw	r1, #:lower16:.LC7
 778 0680 08008DE5 		str	r0, [sp, #8]
 779 0684 002040E3 		movt	r2, #:upper16:.LC1
 780 0688 0400A0E1 		mov	r0, r4
 781 068c 00308DE5 		str	r3, [sp]
 782 0690 0C908DE5 		str	r9, [sp, #12]
 783 0694 001040E3 		movt	r1, #:upper16:.LC7
 784 0698 04C08DE5 		str	ip, [sp, #4]
 785 069c 533100E3 		movw	r3, #339
 786 06a0 144094E5 		ldr	r4, [r4, #20]
 787              	.LVL93:
 788 06a4 34FF2FE1 		blx	r4
 789              	.LVL94:
 790 06a8 0100A0E3 		mov	r0, #1
 791 06ac 9CFEFFEA 		b	.L11
 792              	.LVL95:
 793              	.L87:
 340:../src/tensorflow_lite/tensorflow/lite/micro/kernels/cmsis_nn/svdf.cc **** 
 794              		.loc 1 340 0 discriminator 1
 795 06b0 00C000E3 		movw	ip, #:lower16:.LC26
 796 06b4 003000E3 		movw	r3, #:lower16:.LC27
 797              	.LVL96:
 798 06b8 00C040E3 		movt	ip, #:upper16:.LC26
 799 06bc 003040E3 		movt	r3, #:upper16:.LC27
 800 06c0 002000E3 		movw	r2, #:lower16:.LC1
 801 06c4 001000E3 		movw	r1, #:lower16:.LC7
 802 06c8 08008DE5 		str	r0, [sp, #8]
 803 06cc 002040E3 		movt	r2, #:upper16:.LC1
 804 06d0 0400A0E1 		mov	r0, r4
 805 06d4 00308DE5 		str	r3, [sp]
 806 06d8 0CE08DE5 		str	lr, [sp, #12]
 807 06dc 001040E3 		movt	r1, #:upper16:.LC7
 808 06e0 04C08DE5 		str	ip, [sp, #4]
 809 06e4 553FA0E3 		mov	r3, #340
 810 06e8 144094E5 		ldr	r4, [r4, #20]
 811              	.LVL97:
 812 06ec 34FF2FE1 		blx	r4
 813              	.LVL98:
 814 06f0 0100A0E3 		mov	r0, #1
 815 06f4 8AFEFFEA 		b	.L11
 816              	.LVL99:
 817              	.L88:
 344:../src/tensorflow_lite/tensorflow/lite/micro/kernels/cmsis_nn/svdf.cc ****   }
 818              		.loc 1 344 0 discriminator 1
 819 06f8 00C000E3 		movw	ip, #:lower16:.LC18
 820 06fc 003000E3 		movw	r3, #:lower16:.LC28
 821              	.LVL100:
 822 0700 00C040E3 		movt	ip, #:upper16:.LC18
 823 0704 003040E3 		movt	r3, #:upper16:.LC28
 824 0708 002000E3 		movw	r2, #:lower16:.LC1
 825 070c 001000E3 		movw	r1, #:lower16:.LC7
 826 0710 08008DE5 		str	r0, [sp, #8]
 827 0714 002040E3 		movt	r2, #:upper16:.LC1
 828 0718 0400A0E1 		mov	r0, r4
 829 071c 00308DE5 		str	r3, [sp]
 830 0720 0CA08DE5 		str	r10, [sp, #12]
 831 0724 001040E3 		movt	r1, #:upper16:.LC7
 832 0728 04C08DE5 		str	ip, [sp, #4]
 833 072c 563FA0E3 		mov	r3, #344
 834 0730 144094E5 		ldr	r4, [r4, #20]
 835              	.LVL101:
 836 0734 34FF2FE1 		blx	r4
 837              	.LVL102:
 838 0738 0100A0E3 		mov	r0, #1
 839 073c 78FEFFEA 		b	.L11
 840              	.LVL103:
 841              	.L89:
 348:../src/tensorflow_lite/tensorflow/lite/micro/kernels/cmsis_nn/svdf.cc ****   TF_LITE_ENSURE_EQ(context, activation_state->dims->data[0], batch_size);
 842              		.loc 1 348 0 discriminator 1
 843 0740 00C000E3 		movw	ip, #:lower16:.LC11
 844 0744 003000E3 		movw	r3, #:lower16:.LC29
 845              	.LVL104:
 846 0748 00C040E3 		movt	ip, #:upper16:.LC11
 847 074c 003040E3 		movt	r3, #:upper16:.LC29
 848 0750 02E0A0E3 		mov	lr, #2
 849 0754 002000E3 		movw	r2, #:lower16:.LC1
 850 0758 001000E3 		movw	r1, #:lower16:.LC7
 851 075c 08008DE5 		str	r0, [sp, #8]
 852 0760 00308DE5 		str	r3, [sp]
 853 0764 0400A0E1 		mov	r0, r4
 854 0768 04C08DE5 		str	ip, [sp, #4]
 855 076c 002040E3 		movt	r2, #:upper16:.LC1
 856 0770 0CE08DE5 		str	lr, [sp, #12]
 857 0774 001040E3 		movt	r1, #:upper16:.LC7
 858 0778 144094E5 		ldr	r4, [r4, #20]
 859              	.LVL105:
 860 077c 573FA0E3 		mov	r3, #348
 861 0780 34FF2FE1 		blx	r4
 862              	.LVL106:
 863 0784 0100A0E3 		mov	r0, #1
 864 0788 65FEFFEA 		b	.L11
 865              	.LVL107:
 866              	.L33:
 287:../src/tensorflow_lite/tensorflow/lite/micro/kernels/cmsis_nn/svdf.cc **** 
 867              		.loc 1 287 0 discriminator 1
 868 078c FEFFFFEB 		bl	abort
 869              	.LVL108:
 870              	.L90:
 349:../src/tensorflow_lite/tensorflow/lite/micro/kernels/cmsis_nn/svdf.cc ****   TF_LITE_ENSURE_EQ(context, activation_state->dims->data[1],
 871              		.loc 1 349 0 discriminator 1
 872 0790 00C000E3 		movw	ip, #:lower16:.LC16
 873 0794 003000E3 		movw	r3, #:lower16:.LC30
 874              	.LVL109:
 875 0798 00C040E3 		movt	ip, #:upper16:.LC16
 876 079c 003040E3 		movt	r3, #:upper16:.LC30
 877 07a0 002000E3 		movw	r2, #:lower16:.LC1
 878 07a4 001000E3 		movw	r1, #:lower16:.LC7
 879 07a8 08008DE5 		str	r0, [sp, #8]
 880 07ac 002040E3 		movt	r2, #:upper16:.LC1
 881 07b0 0400A0E1 		mov	r0, r4
 882 07b4 00308DE5 		str	r3, [sp]
 883 07b8 0CE08DE5 		str	lr, [sp, #12]
 884 07bc 001040E3 		movt	r1, #:upper16:.LC7
 885 07c0 04C08DE5 		str	ip, [sp, #4]
 886 07c4 5D3100E3 		movw	r3, #349
 887 07c8 144094E5 		ldr	r4, [r4, #20]
 888              	.LVL110:
 889 07cc 34FF2FE1 		blx	r4
 890              	.LVL111:
 891 07d0 0100A0E3 		mov	r0, #1
 892 07d4 52FEFFEA 		b	.L11
 893              	.LVL112:
 894              	.L91:
 350:../src/tensorflow_lite/tensorflow/lite/micro/kernels/cmsis_nn/svdf.cc ****                     memory_size * num_filters);
 895              		.loc 1 350 0 discriminator 1
 896 07d8 00E000E3 		movw	lr, #:lower16:.LC31
 897 07dc 003000E3 		movw	r3, #:lower16:.LC32
 898              	.LVL113:
 899 07e0 00E040E3 		movt	lr, #:upper16:.LC31
 900 07e4 003040E3 		movt	r3, #:upper16:.LC32
 901 07e8 002000E3 		movw	r2, #:lower16:.LC1
 902 07ec 001000E3 		movw	r1, #:lower16:.LC7
 903 07f0 08008DE5 		str	r0, [sp, #8]
 904 07f4 002040E3 		movt	r2, #:upper16:.LC1
 905 07f8 0400A0E1 		mov	r0, r4
 906 07fc 00308DE5 		str	r3, [sp]
 907 0800 0CC08DE5 		str	ip, [sp, #12]
 908 0804 001040E3 		movt	r1, #:upper16:.LC7
 909 0808 04E08DE5 		str	lr, [sp, #4]
 910 080c 5F3100E3 		movw	r3, #351
 911 0810 144094E5 		ldr	r4, [r4, #20]
 912              	.LVL114:
 913 0814 34FF2FE1 		blx	r4
 914              	.LVL115:
 915 0818 0100A0E3 		mov	r0, #1
 916 081c 40FEFFEA 		b	.L11
 917              	.LVL116:
 918              	.L93:
 355:../src/tensorflow_lite/tensorflow/lite/micro/kernels/cmsis_nn/svdf.cc **** 
 919              		.loc 1 355 0 discriminator 1
 920 0820 00C000E3 		movw	ip, #:lower16:.LC35
 921 0824 003000E3 		movw	r3, #:lower16:.LC36
 922              	.LVL117:
 923 0828 00C040E3 		movt	ip, #:upper16:.LC35
 924 082c 003040E3 		movt	r3, #:upper16:.LC36
 925 0830 05E0A0E3 		mov	lr, #5
 926 0834 002000E3 		movw	r2, #:lower16:.LC1
 927 0838 001000E3 		movw	r1, #:lower16:.LC7
 928 083c 08008DE5 		str	r0, [sp, #8]
 929 0840 00308DE5 		str	r3, [sp]
 930 0844 0400A0E1 		mov	r0, r4
 931 0848 04C08DE5 		str	ip, [sp, #4]
 932 084c 002040E3 		movt	r2, #:upper16:.LC1
 933 0850 0CE08DE5 		str	lr, [sp, #12]
 934 0854 001040E3 		movt	r1, #:upper16:.LC7
 935 0858 144094E5 		ldr	r4, [r4, #20]
 936              	.LVL118:
 937 085c 633100E3 		movw	r3, #355
 938 0860 34FF2FE1 		blx	r4
 939              	.LVL119:
 940 0864 0100A0E3 		mov	r0, #1
 941 0868 2DFEFFEA 		b	.L11
 942              	.LVL120:
 943              	.L94:
 944              	.LBB182:
 945              	.LBB175:
 361:../src/tensorflow_lite/tensorflow/lite/micro/kernels/cmsis_nn/svdf.cc ****     TF_LITE_ENSURE_EQ(context, weights_time->type, kTfLiteInt16);
 946              		.loc 1 361 0
 947 086c 0000D8E5 		ldrb	r0, [r8]	@ zero_extendqisi2
 948 0870 090050E3 		cmp	r0, #9
 949 0874 8A00001A 		bne	.L100
 362:../src/tensorflow_lite/tensorflow/lite/micro/kernels/cmsis_nn/svdf.cc ****     TF_LITE_ENSURE_EQ(context, activation_state->type, kTfLiteInt16);
 950              		.loc 1 362 0
 951 0878 0000DBE5 		ldrb	r0, [fp]	@ zero_extendqisi2
 952 087c 070050E3 		cmp	r0, #7
 953 0880 5200001A 		bne	.L101
 363:../src/tensorflow_lite/tensorflow/lite/micro/kernels/cmsis_nn/svdf.cc ****     if (bias != nullptr) {
 954              		.loc 1 363 0
 955 0884 10209DE5 		ldr	r2, [sp, #16]
 956 0888 0000D2E5 		ldrb	r0, [r2]	@ zero_extendqisi2
 957 088c 070050E3 		cmp	r0, #7
 958 0890 3B00001A 		bne	.L102
 364:../src/tensorflow_lite/tensorflow/lite/micro/kernels/cmsis_nn/svdf.cc ****       TF_LITE_ENSURE_EQ(context, bias->type, kTfLiteInt32);
 959              		.loc 1 364 0
 960 0894 14209DE5 		ldr	r2, [sp, #20]
 961 0898 000052E3 		cmp	r2, #0
 962 089c 0200000A 		beq	.L38
 365:../src/tensorflow_lite/tensorflow/lite/micro/kernels/cmsis_nn/svdf.cc ****     }
 963              		.loc 1 365 0
 964 08a0 0000D2E5 		ldrb	r0, [r2]	@ zero_extendqisi2
 965 08a4 020050E3 		cmp	r0, #2
 966 08a8 8F00001A 		bne	.L103
 967              	.L38:
 368:../src/tensorflow_lite/tensorflow/lite/micro/kernels/cmsis_nn/svdf.cc **** 
 968              		.loc 1 368 0
 969 08ac 0000D3E5 		ldrb	r0, [r3]	@ zero_extendqisi2
 970 08b0 090050E3 		cmp	r0, #9
 971 08b4 6500001A 		bne	.L104
 372:../src/tensorflow_lite/tensorflow/lite/micro/kernels/cmsis_nn/svdf.cc ****     const double effective_scale_2 =
 972              		.loc 1 372 0
 973 08b8 10209DE5 		ldr	r2, [sp, #16]
 374:../src/tensorflow_lite/tensorflow/lite/micro/kernels/cmsis_nn/svdf.cc ****                             weights_time->params.scale / output->params.scale);
 974              		.loc 1 374 0
 975 08bc 037A9BED 		vldr.32	s14, [fp, #12]
 371:../src/tensorflow_lite/tensorflow/lite/micro/kernels/cmsis_nn/svdf.cc ****         activation_state->params.scale);
 976              		.loc 1 371 0
 977 08c0 036AD7ED 		vldr.32	s13, [r7, #12]
 372:../src/tensorflow_lite/tensorflow/lite/micro/kernels/cmsis_nn/svdf.cc ****     const double effective_scale_2 =
 978              		.loc 1 372 0
 979 08c4 036A92ED 		vldr.32	s12, [r2, #12]
 371:../src/tensorflow_lite/tensorflow/lite/micro/kernels/cmsis_nn/svdf.cc ****         activation_state->params.scale);
 980              		.loc 1 371 0
 981 08c8 035A98ED 		vldr.32	s10, [r8, #12]
 375:../src/tensorflow_lite/tensorflow/lite/micro/kernels/cmsis_nn/svdf.cc **** 
 982              		.loc 1 375 0
 983 08cc 035AD3ED 		vldr.32	s11, [r3, #12]
 378:../src/tensorflow_lite/tensorflow/lite/micro/kernels/cmsis_nn/svdf.cc ****         context,
 984              		.loc 1 378 0
 985 08d0 14209DE5 		ldr	r2, [sp, #20]
 374:../src/tensorflow_lite/tensorflow/lite/micro/kernels/cmsis_nn/svdf.cc ****                             weights_time->params.scale / output->params.scale);
 986              		.loc 1 374 0
 987 08d4 077A26EE 		vmul.f32	s14, s12, s14
 371:../src/tensorflow_lite/tensorflow/lite/micro/kernels/cmsis_nn/svdf.cc ****         activation_state->params.scale);
 988              		.loc 1 371 0
 989 08d8 856A66EE 		vmul.f32	s13, s13, s10
 378:../src/tensorflow_lite/tensorflow/lite/micro/kernels/cmsis_nn/svdf.cc ****         context,
 990              		.loc 1 378 0
 991 08dc 037AD2ED 		vldr.32	s15, [r2, #12]
 992 08e0 F02BDFED 		vldr.64	d18, .L106
 375:../src/tensorflow_lite/tensorflow/lite/micro/kernels/cmsis_nn/svdf.cc **** 
 993              		.loc 1 375 0
 994 08e4 258A87EE 		vdiv.f32	s16, s14, s11
 371:../src/tensorflow_lite/tensorflow/lite/micro/kernels/cmsis_nn/svdf.cc ****         activation_state->params.scale);
 995              		.loc 1 371 0
 996 08e8 860A86EE 		vdiv.f32	s0, s13, s12
 378:../src/tensorflow_lite/tensorflow/lite/micro/kernels/cmsis_nn/svdf.cc ****         context,
 997              		.loc 1 378 0
 998 08ec C71AF7EE 		vcvt.f64.f32	d17, s14
 999 08f0 E70AF7EE 		vcvt.f64.f32	d16, s15
 1000 08f4 E10B70EE 		vsub.f64	d16, d16, d17
 1001              	.LBB176:
 1002              	.LBB177:
 1003              		.file 3 "c:\\program files (x86)\\gnu tools arm embedded\\6 2017-q2-update\\arm-none-eabi\\include
   1:c:\program files (x86)\gnu tools arm embedded\6 2017-q2-update\arm-none-eabi\include\c++\6.3.1\cmath **** // -*- C++ -*- C forwarding header.
   2:c:\program files (x86)\gnu tools arm embedded\6 2017-q2-update\arm-none-eabi\include\c++\6.3.1\cmath **** 
   3:c:\program files (x86)\gnu tools arm embedded\6 2017-q2-update\arm-none-eabi\include\c++\6.3.1\cmath **** // Copyright (C) 1997-2016 Free Software Foundation, Inc.
   4:c:\program files (x86)\gnu tools arm embedded\6 2017-q2-update\arm-none-eabi\include\c++\6.3.1\cmath **** //
   5:c:\program files (x86)\gnu tools arm embedded\6 2017-q2-update\arm-none-eabi\include\c++\6.3.1\cmath **** // This file is part of the GNU ISO C++ Library.  This library is free
   6:c:\program files (x86)\gnu tools arm embedded\6 2017-q2-update\arm-none-eabi\include\c++\6.3.1\cmath **** // software; you can redistribute it and/or modify it under the
   7:c:\program files (x86)\gnu tools arm embedded\6 2017-q2-update\arm-none-eabi\include\c++\6.3.1\cmath **** // terms of the GNU General Public License as published by the
   8:c:\program files (x86)\gnu tools arm embedded\6 2017-q2-update\arm-none-eabi\include\c++\6.3.1\cmath **** // Free Software Foundation; either version 3, or (at your option)
   9:c:\program files (x86)\gnu tools arm embedded\6 2017-q2-update\arm-none-eabi\include\c++\6.3.1\cmath **** // any later version.
  10:c:\program files (x86)\gnu tools arm embedded\6 2017-q2-update\arm-none-eabi\include\c++\6.3.1\cmath **** 
  11:c:\program files (x86)\gnu tools arm embedded\6 2017-q2-update\arm-none-eabi\include\c++\6.3.1\cmath **** // This library is distributed in the hope that it will be useful,
  12:c:\program files (x86)\gnu tools arm embedded\6 2017-q2-update\arm-none-eabi\include\c++\6.3.1\cmath **** // but WITHOUT ANY WARRANTY; without even the implied warranty of
  13:c:\program files (x86)\gnu tools arm embedded\6 2017-q2-update\arm-none-eabi\include\c++\6.3.1\cmath **** // MERCHANTABILITY or FITNESS FOR A PARTICULAR PURPOSE.  See the
  14:c:\program files (x86)\gnu tools arm embedded\6 2017-q2-update\arm-none-eabi\include\c++\6.3.1\cmath **** // GNU General Public License for more details.
  15:c:\program files (x86)\gnu tools arm embedded\6 2017-q2-update\arm-none-eabi\include\c++\6.3.1\cmath **** 
  16:c:\program files (x86)\gnu tools arm embedded\6 2017-q2-update\arm-none-eabi\include\c++\6.3.1\cmath **** // Under Section 7 of GPL version 3, you are granted additional
  17:c:\program files (x86)\gnu tools arm embedded\6 2017-q2-update\arm-none-eabi\include\c++\6.3.1\cmath **** // permissions described in the GCC Runtime Library Exception, version
  18:c:\program files (x86)\gnu tools arm embedded\6 2017-q2-update\arm-none-eabi\include\c++\6.3.1\cmath **** // 3.1, as published by the Free Software Foundation.
  19:c:\program files (x86)\gnu tools arm embedded\6 2017-q2-update\arm-none-eabi\include\c++\6.3.1\cmath **** 
  20:c:\program files (x86)\gnu tools arm embedded\6 2017-q2-update\arm-none-eabi\include\c++\6.3.1\cmath **** // You should have received a copy of the GNU General Public License and
  21:c:\program files (x86)\gnu tools arm embedded\6 2017-q2-update\arm-none-eabi\include\c++\6.3.1\cmath **** // a copy of the GCC Runtime Library Exception along with this program;
  22:c:\program files (x86)\gnu tools arm embedded\6 2017-q2-update\arm-none-eabi\include\c++\6.3.1\cmath **** // see the files COPYING3 and COPYING.RUNTIME respectively.  If not, see
  23:c:\program files (x86)\gnu tools arm embedded\6 2017-q2-update\arm-none-eabi\include\c++\6.3.1\cmath **** // <http://www.gnu.org/licenses/>.
  24:c:\program files (x86)\gnu tools arm embedded\6 2017-q2-update\arm-none-eabi\include\c++\6.3.1\cmath **** 
  25:c:\program files (x86)\gnu tools arm embedded\6 2017-q2-update\arm-none-eabi\include\c++\6.3.1\cmath **** /** @file include/cmath
  26:c:\program files (x86)\gnu tools arm embedded\6 2017-q2-update\arm-none-eabi\include\c++\6.3.1\cmath ****  *  This is a Standard C++ Library file.  You should @c \#include this file
  27:c:\program files (x86)\gnu tools arm embedded\6 2017-q2-update\arm-none-eabi\include\c++\6.3.1\cmath ****  *  in your programs, rather than any of the @a *.h implementation files.
  28:c:\program files (x86)\gnu tools arm embedded\6 2017-q2-update\arm-none-eabi\include\c++\6.3.1\cmath ****  *
  29:c:\program files (x86)\gnu tools arm embedded\6 2017-q2-update\arm-none-eabi\include\c++\6.3.1\cmath ****  *  This is the C++ version of the Standard C Library header @c math.h,
  30:c:\program files (x86)\gnu tools arm embedded\6 2017-q2-update\arm-none-eabi\include\c++\6.3.1\cmath ****  *  and its contents are (mostly) the same as that header, but are all
  31:c:\program files (x86)\gnu tools arm embedded\6 2017-q2-update\arm-none-eabi\include\c++\6.3.1\cmath ****  *  contained in the namespace @c std (except for names which are defined
  32:c:\program files (x86)\gnu tools arm embedded\6 2017-q2-update\arm-none-eabi\include\c++\6.3.1\cmath ****  *  as macros in C).
  33:c:\program files (x86)\gnu tools arm embedded\6 2017-q2-update\arm-none-eabi\include\c++\6.3.1\cmath ****  */
  34:c:\program files (x86)\gnu tools arm embedded\6 2017-q2-update\arm-none-eabi\include\c++\6.3.1\cmath **** 
  35:c:\program files (x86)\gnu tools arm embedded\6 2017-q2-update\arm-none-eabi\include\c++\6.3.1\cmath **** //
  36:c:\program files (x86)\gnu tools arm embedded\6 2017-q2-update\arm-none-eabi\include\c++\6.3.1\cmath **** // ISO C++ 14882: 26.5  C library
  37:c:\program files (x86)\gnu tools arm embedded\6 2017-q2-update\arm-none-eabi\include\c++\6.3.1\cmath **** //
  38:c:\program files (x86)\gnu tools arm embedded\6 2017-q2-update\arm-none-eabi\include\c++\6.3.1\cmath **** 
  39:c:\program files (x86)\gnu tools arm embedded\6 2017-q2-update\arm-none-eabi\include\c++\6.3.1\cmath **** #pragma GCC system_header
  40:c:\program files (x86)\gnu tools arm embedded\6 2017-q2-update\arm-none-eabi\include\c++\6.3.1\cmath **** 
  41:c:\program files (x86)\gnu tools arm embedded\6 2017-q2-update\arm-none-eabi\include\c++\6.3.1\cmath **** #include <bits/c++config.h>
  42:c:\program files (x86)\gnu tools arm embedded\6 2017-q2-update\arm-none-eabi\include\c++\6.3.1\cmath **** #include <bits/cpp_type_traits.h>
  43:c:\program files (x86)\gnu tools arm embedded\6 2017-q2-update\arm-none-eabi\include\c++\6.3.1\cmath **** #include <ext/type_traits.h>
  44:c:\program files (x86)\gnu tools arm embedded\6 2017-q2-update\arm-none-eabi\include\c++\6.3.1\cmath **** #define _GLIBCXX_INCLUDE_NEXT_C_HEADERS
  45:c:\program files (x86)\gnu tools arm embedded\6 2017-q2-update\arm-none-eabi\include\c++\6.3.1\cmath **** #include_next <math.h>
  46:c:\program files (x86)\gnu tools arm embedded\6 2017-q2-update\arm-none-eabi\include\c++\6.3.1\cmath **** #undef _GLIBCXX_INCLUDE_NEXT_C_HEADERS
  47:c:\program files (x86)\gnu tools arm embedded\6 2017-q2-update\arm-none-eabi\include\c++\6.3.1\cmath **** 
  48:c:\program files (x86)\gnu tools arm embedded\6 2017-q2-update\arm-none-eabi\include\c++\6.3.1\cmath **** #ifndef _GLIBCXX_CMATH
  49:c:\program files (x86)\gnu tools arm embedded\6 2017-q2-update\arm-none-eabi\include\c++\6.3.1\cmath **** #define _GLIBCXX_CMATH 1
  50:c:\program files (x86)\gnu tools arm embedded\6 2017-q2-update\arm-none-eabi\include\c++\6.3.1\cmath **** 
  51:c:\program files (x86)\gnu tools arm embedded\6 2017-q2-update\arm-none-eabi\include\c++\6.3.1\cmath **** // Get rid of those macros defined in <math.h> in lieu of real functions.
  52:c:\program files (x86)\gnu tools arm embedded\6 2017-q2-update\arm-none-eabi\include\c++\6.3.1\cmath **** #undef abs
  53:c:\program files (x86)\gnu tools arm embedded\6 2017-q2-update\arm-none-eabi\include\c++\6.3.1\cmath **** #undef div
  54:c:\program files (x86)\gnu tools arm embedded\6 2017-q2-update\arm-none-eabi\include\c++\6.3.1\cmath **** #undef acos
  55:c:\program files (x86)\gnu tools arm embedded\6 2017-q2-update\arm-none-eabi\include\c++\6.3.1\cmath **** #undef asin
  56:c:\program files (x86)\gnu tools arm embedded\6 2017-q2-update\arm-none-eabi\include\c++\6.3.1\cmath **** #undef atan
  57:c:\program files (x86)\gnu tools arm embedded\6 2017-q2-update\arm-none-eabi\include\c++\6.3.1\cmath **** #undef atan2
  58:c:\program files (x86)\gnu tools arm embedded\6 2017-q2-update\arm-none-eabi\include\c++\6.3.1\cmath **** #undef ceil
  59:c:\program files (x86)\gnu tools arm embedded\6 2017-q2-update\arm-none-eabi\include\c++\6.3.1\cmath **** #undef cos
  60:c:\program files (x86)\gnu tools arm embedded\6 2017-q2-update\arm-none-eabi\include\c++\6.3.1\cmath **** #undef cosh
  61:c:\program files (x86)\gnu tools arm embedded\6 2017-q2-update\arm-none-eabi\include\c++\6.3.1\cmath **** #undef exp
  62:c:\program files (x86)\gnu tools arm embedded\6 2017-q2-update\arm-none-eabi\include\c++\6.3.1\cmath **** #undef fabs
  63:c:\program files (x86)\gnu tools arm embedded\6 2017-q2-update\arm-none-eabi\include\c++\6.3.1\cmath **** #undef floor
  64:c:\program files (x86)\gnu tools arm embedded\6 2017-q2-update\arm-none-eabi\include\c++\6.3.1\cmath **** #undef fmod
  65:c:\program files (x86)\gnu tools arm embedded\6 2017-q2-update\arm-none-eabi\include\c++\6.3.1\cmath **** #undef frexp
  66:c:\program files (x86)\gnu tools arm embedded\6 2017-q2-update\arm-none-eabi\include\c++\6.3.1\cmath **** #undef ldexp
  67:c:\program files (x86)\gnu tools arm embedded\6 2017-q2-update\arm-none-eabi\include\c++\6.3.1\cmath **** #undef log
  68:c:\program files (x86)\gnu tools arm embedded\6 2017-q2-update\arm-none-eabi\include\c++\6.3.1\cmath **** #undef log10
  69:c:\program files (x86)\gnu tools arm embedded\6 2017-q2-update\arm-none-eabi\include\c++\6.3.1\cmath **** #undef modf
  70:c:\program files (x86)\gnu tools arm embedded\6 2017-q2-update\arm-none-eabi\include\c++\6.3.1\cmath **** #undef pow
  71:c:\program files (x86)\gnu tools arm embedded\6 2017-q2-update\arm-none-eabi\include\c++\6.3.1\cmath **** #undef sin
  72:c:\program files (x86)\gnu tools arm embedded\6 2017-q2-update\arm-none-eabi\include\c++\6.3.1\cmath **** #undef sinh
  73:c:\program files (x86)\gnu tools arm embedded\6 2017-q2-update\arm-none-eabi\include\c++\6.3.1\cmath **** #undef sqrt
  74:c:\program files (x86)\gnu tools arm embedded\6 2017-q2-update\arm-none-eabi\include\c++\6.3.1\cmath **** #undef tan
  75:c:\program files (x86)\gnu tools arm embedded\6 2017-q2-update\arm-none-eabi\include\c++\6.3.1\cmath **** #undef tanh
  76:c:\program files (x86)\gnu tools arm embedded\6 2017-q2-update\arm-none-eabi\include\c++\6.3.1\cmath **** 
  77:c:\program files (x86)\gnu tools arm embedded\6 2017-q2-update\arm-none-eabi\include\c++\6.3.1\cmath **** extern "C++"
  78:c:\program files (x86)\gnu tools arm embedded\6 2017-q2-update\arm-none-eabi\include\c++\6.3.1\cmath **** {
  79:c:\program files (x86)\gnu tools arm embedded\6 2017-q2-update\arm-none-eabi\include\c++\6.3.1\cmath **** namespace std _GLIBCXX_VISIBILITY(default)
  80:c:\program files (x86)\gnu tools arm embedded\6 2017-q2-update\arm-none-eabi\include\c++\6.3.1\cmath **** {
  81:c:\program files (x86)\gnu tools arm embedded\6 2017-q2-update\arm-none-eabi\include\c++\6.3.1\cmath **** _GLIBCXX_BEGIN_NAMESPACE_VERSION
  82:c:\program files (x86)\gnu tools arm embedded\6 2017-q2-update\arm-none-eabi\include\c++\6.3.1\cmath **** 
  83:c:\program files (x86)\gnu tools arm embedded\6 2017-q2-update\arm-none-eabi\include\c++\6.3.1\cmath **** #ifndef __CORRECT_ISO_CPP_MATH_H_PROTO
  84:c:\program files (x86)\gnu tools arm embedded\6 2017-q2-update\arm-none-eabi\include\c++\6.3.1\cmath ****   inline _GLIBCXX_CONSTEXPR double
  85:c:\program files (x86)\gnu tools arm embedded\6 2017-q2-update\arm-none-eabi\include\c++\6.3.1\cmath ****   abs(double __x)
  86:c:\program files (x86)\gnu tools arm embedded\6 2017-q2-update\arm-none-eabi\include\c++\6.3.1\cmath ****   { return __builtin_fabs(__x); }
 1004              		.loc 3 86 0
 1005 08f8 E00BF0EE 		vabs.f64	d16, d16
 1006              	.LBE177:
 1007              	.LBE176:
 378:../src/tensorflow_lite/tensorflow/lite/micro/kernels/cmsis_nn/svdf.cc ****         context,
 1008              		.loc 1 378 0
 1009 08fc E20BF4EE 		vcmpe.f64	d16, d18
 1010 0900 10FAF1EE 		vmrs	APSR_nzcv, FPSCR
 375:../src/tensorflow_lite/tensorflow/lite/micro/kernels/cmsis_nn/svdf.cc **** 
 1011              		.loc 1 375 0
 1012 0904 C88AB7EE 		vcvt.f64.f32	d8, s16
 372:../src/tensorflow_lite/tensorflow/lite/micro/kernels/cmsis_nn/svdf.cc ****     const double effective_scale_2 =
 1013              		.loc 1 372 0
 1014 0908 C00AB7EE 		vcvt.f64.f32	d0, s0
 1015              	.LVL121:
 378:../src/tensorflow_lite/tensorflow/lite/micro/kernels/cmsis_nn/svdf.cc ****         context,
 1016              		.loc 1 378 0
 1017 090c 4200005A 		bpl	.L105
 385:../src/tensorflow_lite/tensorflow/lite/micro/kernels/cmsis_nn/svdf.cc ****     QuantizeMultiplier(effective_scale_2, &(data->effective_scale_2_a),
 1018              		.loc 1 385 0
 1019 0910 081085E2 		add	r1, r5, #8
 1020 0914 0500A0E1 		mov	r0, r5
 1021 0918 10308DE5 		str	r3, [sp, #16]
 1022              	.LVL122:
 1023 091c FEFFFFEB 		bl	_ZN6tflite18QuantizeMultiplierEdPlPi
 1024              	.LVL123:
 387:../src/tensorflow_lite/tensorflow/lite/micro/kernels/cmsis_nn/svdf.cc **** 
 1025              		.loc 1 387 0
 1026 0920 480BB0EE 		vmov.f64	d0, d8
 1027 0924 0C1085E2 		add	r1, r5, #12
 1028 0928 040085E2 		add	r0, r5, #4
 1029 092c FEFFFFEB 		bl	_ZN6tflite18QuantizeMultiplierEdPlPi
 1030              	.LVL124:
 390:../src/tensorflow_lite/tensorflow/lite/micro/kernels/cmsis_nn/svdf.cc **** 
 1031              		.loc 1 390 0
 1032 0930 10309DE5 		ldr	r3, [sp, #16]
 392:../src/tensorflow_lite/tensorflow/lite/micro/kernels/cmsis_nn/svdf.cc **** 
 1033              		.loc 1 392 0
 1034 0934 406094E5 		ldr	r6, [r4, #64]
 389:../src/tensorflow_lite/tensorflow/lite/micro/kernels/cmsis_nn/svdf.cc ****     data->output_zero_point = output->params.zero_point;
 1035              		.loc 1 389 0
 1036 0938 102097E5 		ldr	r2, [r7, #16]
 390:../src/tensorflow_lite/tensorflow/lite/micro/kernels/cmsis_nn/svdf.cc **** 
 1037              		.loc 1 390 0
 1038 093c 103093E5 		ldr	r3, [r3, #16]
 392:../src/tensorflow_lite/tensorflow/lite/micro/kernels/cmsis_nn/svdf.cc **** 
 1039              		.loc 1 392 0
 1040 0940 000056E3 		cmp	r6, #0
 389:../src/tensorflow_lite/tensorflow/lite/micro/kernels/cmsis_nn/svdf.cc ****     data->output_zero_point = output->params.zero_point;
 1041              		.loc 1 389 0
 1042 0944 182085E5 		str	r2, [r5, #24]
 390:../src/tensorflow_lite/tensorflow/lite/micro/kernels/cmsis_nn/svdf.cc **** 
 1043              		.loc 1 390 0
 1044 0948 1C3085E5 		str	r3, [r5, #28]
 392:../src/tensorflow_lite/tensorflow/lite/micro/kernels/cmsis_nn/svdf.cc **** 
 1045              		.loc 1 392 0
 1046 094c 8EFFFF0A 		beq	.L33
 1047              	.LVL125:
 395:../src/tensorflow_lite/tensorflow/lite/micro/kernels/cmsis_nn/svdf.cc ****         &(data->scratch_tensor_index));
 1048              		.loc 1 395 0
 1049 0950 18309DE5 		ldr	r3, [sp, #24]
 396:../src/tensorflow_lite/tensorflow/lite/micro/kernels/cmsis_nn/svdf.cc ****     TF_LITE_ENSURE_OK(context, scratch_status);
 1050              		.loc 1 396 0
 1051 0954 102085E2 		add	r2, r5, #16
 1052 0958 0400A0E1 		mov	r0, r4
 395:../src/tensorflow_lite/tensorflow/lite/micro/kernels/cmsis_nn/svdf.cc ****         &(data->scratch_tensor_index));
 1053              		.loc 1 395 0
 1054 095c 990301E0 		mul	r1, r9, r3
 396:../src/tensorflow_lite/tensorflow/lite/micro/kernels/cmsis_nn/svdf.cc ****     TF_LITE_ENSURE_OK(context, scratch_status);
 1055              		.loc 1 396 0
 1056 0960 0111A0E1 		lsl	r1, r1, #2
 1057 0964 36FF2FE1 		blx	r6
 1058              	.LVL126:
 1059              	.LBB178:
 397:../src/tensorflow_lite/tensorflow/lite/micro/kernels/cmsis_nn/svdf.cc **** 
 1060              		.loc 1 397 0
 1061 0968 000050E3 		cmp	r0, #0
 1062              	.LVL127:
 1063 096c ECFDFF1A 		bne	.L11
 1064              	.LBE178:
 401:../src/tensorflow_lite/tensorflow/lite/micro/kernels/cmsis_nn/svdf.cc ****             &(data->scratch_output_tensor_index));
 1065              		.loc 1 401 0
 1066 0970 18309DE5 		ldr	r3, [sp, #24]
 402:../src/tensorflow_lite/tensorflow/lite/micro/kernels/cmsis_nn/svdf.cc ****     TF_LITE_ENSURE_OK(context, scratch_output_status);
 1067              		.loc 1 402 0
 1068 0974 142085E2 		add	r2, r5, #20
 401:../src/tensorflow_lite/tensorflow/lite/micro/kernels/cmsis_nn/svdf.cc ****             &(data->scratch_output_tensor_index));
 1069              		.loc 1 401 0
 1070 0978 9A0301E0 		mul	r1, r10, r3
 402:../src/tensorflow_lite/tensorflow/lite/micro/kernels/cmsis_nn/svdf.cc ****     TF_LITE_ENSURE_OK(context, scratch_output_status);
 1071              		.loc 1 402 0
 1072 097c 403094E5 		ldr	r3, [r4, #64]
 1073 0980 65FEFFEA 		b	.L72
 1074              	.LVL128:
 1075              	.L102:
 363:../src/tensorflow_lite/tensorflow/lite/micro/kernels/cmsis_nn/svdf.cc ****     if (bias != nullptr) {
 1076              		.loc 1 363 0 discriminator 1
 1077 0984 00C000E3 		movw	ip, #:lower16:.LC39
 1078 0988 003000E3 		movw	r3, #:lower16:.LC41
 1079              	.LVL129:
 1080 098c 00C040E3 		movt	ip, #:upper16:.LC39
 1081 0990 003040E3 		movt	r3, #:upper16:.LC41
 1082 0994 07E0A0E3 		mov	lr, #7
 1083 0998 002000E3 		movw	r2, #:lower16:.LC1
 1084 099c 001000E3 		movw	r1, #:lower16:.LC7
 1085 09a0 08008DE5 		str	r0, [sp, #8]
 1086 09a4 00308DE5 		str	r3, [sp]
 1087 09a8 0400A0E1 		mov	r0, r4
 1088 09ac 04C08DE5 		str	ip, [sp, #4]
 1089 09b0 002040E3 		movt	r2, #:upper16:.LC1
 1090 09b4 0CE08DE5 		str	lr, [sp, #12]
 1091 09b8 001040E3 		movt	r1, #:upper16:.LC7
 1092 09bc 144094E5 		ldr	r4, [r4, #20]
 1093              	.LVL130:
 1094 09c0 6B3100E3 		movw	r3, #363
 1095 09c4 34FF2FE1 		blx	r4
 1096              	.LVL131:
 1097 09c8 0100A0E3 		mov	r0, #1
 1098 09cc D4FDFFEA 		b	.L11
 1099              	.LVL132:
 1100              	.L101:
 362:../src/tensorflow_lite/tensorflow/lite/micro/kernels/cmsis_nn/svdf.cc ****     TF_LITE_ENSURE_EQ(context, activation_state->type, kTfLiteInt16);
 1101              		.loc 1 362 0 discriminator 1
 1102 09d0 00C000E3 		movw	ip, #:lower16:.LC39
 1103 09d4 003000E3 		movw	r3, #:lower16:.LC40
 1104              	.LVL133:
 1105 09d8 00C040E3 		movt	ip, #:upper16:.LC39
 1106 09dc 003040E3 		movt	r3, #:upper16:.LC40
 1107 09e0 07E0A0E3 		mov	lr, #7
 1108 09e4 002000E3 		movw	r2, #:lower16:.LC1
 1109 09e8 001000E3 		movw	r1, #:lower16:.LC7
 1110 09ec 08008DE5 		str	r0, [sp, #8]
 1111 09f0 00308DE5 		str	r3, [sp]
 1112 09f4 0400A0E1 		mov	r0, r4
 1113 09f8 04C08DE5 		str	ip, [sp, #4]
 1114 09fc 002040E3 		movt	r2, #:upper16:.LC1
 1115 0a00 0CE08DE5 		str	lr, [sp, #12]
 1116 0a04 001040E3 		movt	r1, #:upper16:.LC7
 1117 0a08 144094E5 		ldr	r4, [r4, #20]
 1118              	.LVL134:
 1119 0a0c 6A3100E3 		movw	r3, #362
 1120 0a10 34FF2FE1 		blx	r4
 1121              	.LVL135:
 1122 0a14 0100A0E3 		mov	r0, #1
 1123 0a18 C1FDFFEA 		b	.L11
 1124              	.LVL136:
 1125              	.L105:
 378:../src/tensorflow_lite/tensorflow/lite/micro/kernels/cmsis_nn/svdf.cc ****         context,
 1126              		.loc 1 378 0 discriminator 1
 1127 0a1c 003000E3 		movw	r3, #:lower16:.LC46
 1128              	.LVL137:
 1129 0a20 002000E3 		movw	r2, #:lower16:.LC1
 1130 0a24 003040E3 		movt	r3, #:upper16:.LC46
 1131 0a28 001000E3 		movw	r1, #:lower16:.LC2
 1132 0a2c 00308DE5 		str	r3, [sp]
 1133 0a30 0400A0E1 		mov	r0, r4
 1134 0a34 002040E3 		movt	r2, #:upper16:.LC1
 1135 0a38 001040E3 		movt	r1, #:upper16:.LC2
 1136 0a3c 145094E5 		ldr	r5, [r4, #20]
 1137              	.LVL138:
 1138 0a40 7E3100E3 		movw	r3, #382
 1139 0a44 35FF2FE1 		blx	r5
 1140              	.LVL139:
 1141 0a48 0100A0E3 		mov	r0, #1
 1142 0a4c B4FDFFEA 		b	.L11
 1143              	.LVL140:
 1144              	.L104:
 368:../src/tensorflow_lite/tensorflow/lite/micro/kernels/cmsis_nn/svdf.cc **** 
 1145              		.loc 1 368 0 discriminator 1
 1146 0a50 145094E5 		ldr	r5, [r4, #20]
 1147              	.LVL141:
 1148 0a54 FEFFFFEB 		bl	TfLiteTypeGetName
 1149              	.LVL142:
 1150 0a58 0060A0E1 		mov	r6, r0
 1151 0a5c 0900A0E3 		mov	r0, #9
 1152 0a60 FEFFFFEB 		bl	TfLiteTypeGetName
 1153              	.LVL143:
 1154 0a64 00C000E3 		movw	ip, #:lower16:.LC37
 1155 0a68 003000E3 		movw	r3, #:lower16:.LC45
 1156 0a6c 00C040E3 		movt	ip, #:upper16:.LC37
 1157 0a70 003040E3 		movt	r3, #:upper16:.LC45
 1158 0a74 002000E3 		movw	r2, #:lower16:.LC1
 1159 0a78 001000E3 		movw	r1, #:lower16:.LC44
 1160 0a7c 0C008DE5 		str	r0, [sp, #12]
 1161 0a80 002040E3 		movt	r2, #:upper16:.LC1
 1162 0a84 0400A0E1 		mov	r0, r4
 1163 0a88 08108DE8 		stm	sp, {r3, ip}
 1164 0a8c 08608DE5 		str	r6, [sp, #8]
 1165 0a90 001040E3 		movt	r1, #:upper16:.LC44
 1166 0a94 173EA0E3 		mov	r3, #368
 1167 0a98 35FF2FE1 		blx	r5
 1168              	.LVL144:
 1169 0a9c 0100A0E3 		mov	r0, #1
 1170 0aa0 9FFDFFEA 		b	.L11
 1171              	.LVL145:
 1172              	.L100:
 361:../src/tensorflow_lite/tensorflow/lite/micro/kernels/cmsis_nn/svdf.cc ****     TF_LITE_ENSURE_EQ(context, weights_time->type, kTfLiteInt16);
 1173              		.loc 1 361 0 discriminator 1
 1174 0aa4 00E000E3 		movw	lr, #:lower16:.LC37
 1175 0aa8 003000E3 		movw	r3, #:lower16:.LC38
 1176              	.LVL146:
 1177 0aac 00E040E3 		movt	lr, #:upper16:.LC37
 1178 0ab0 003040E3 		movt	r3, #:upper16:.LC38
 1179 0ab4 002000E3 		movw	r2, #:lower16:.LC1
 1180 0ab8 001000E3 		movw	r1, #:lower16:.LC7
 1181 0abc 08008DE5 		str	r0, [sp, #8]
 1182 0ac0 002040E3 		movt	r2, #:upper16:.LC1
 1183 0ac4 0400A0E1 		mov	r0, r4
 1184 0ac8 00308DE5 		str	r3, [sp]
 1185 0acc 0CC08DE5 		str	ip, [sp, #12]
 1186 0ad0 001040E3 		movt	r1, #:upper16:.LC7
 1187 0ad4 04E08DE5 		str	lr, [sp, #4]
 1188 0ad8 693100E3 		movw	r3, #361
 1189 0adc 144094E5 		ldr	r4, [r4, #20]
 1190              	.LVL147:
 1191 0ae0 34FF2FE1 		blx	r4
 1192              	.LVL148:
 1193 0ae4 0100A0E3 		mov	r0, #1
 1194 0ae8 8DFDFFEA 		b	.L11
 1195              	.LVL149:
 1196              	.L103:
 365:../src/tensorflow_lite/tensorflow/lite/micro/kernels/cmsis_nn/svdf.cc ****     }
 1197              		.loc 1 365 0 discriminator 1
 1198 0aec 00C000E3 		movw	ip, #:lower16:.LC42
 1199 0af0 003000E3 		movw	r3, #:lower16:.LC43
 1200              	.LVL150:
 1201 0af4 00C040E3 		movt	ip, #:upper16:.LC42
 1202 0af8 003040E3 		movt	r3, #:upper16:.LC43
 1203 0afc 02E0A0E3 		mov	lr, #2
 1204 0b00 002000E3 		movw	r2, #:lower16:.LC1
 1205 0b04 001000E3 		movw	r1, #:lower16:.LC7
 1206 0b08 08008DE5 		str	r0, [sp, #8]
 1207 0b0c 00308DE5 		str	r3, [sp]
 1208 0b10 0400A0E1 		mov	r0, r4
 1209 0b14 04C08DE5 		str	ip, [sp, #4]
 1210 0b18 002040E3 		movt	r2, #:upper16:.LC1
 1211 0b1c 0CE08DE5 		str	lr, [sp, #12]
 1212 0b20 001040E3 		movt	r1, #:upper16:.LC7
 1213 0b24 144094E5 		ldr	r4, [r4, #20]
 1214              	.LVL151:
 1215 0b28 6D3100E3 		movw	r3, #365
 1216 0b2c 34FF2FE1 		blx	r4
 1217              	.LVL152:
 1218 0b30 0100A0E3 		mov	r0, #1
 1219 0b34 7AFDFFEA 		b	.L11
 1220              	.LVL153:
 1221              	.L96:
 1222              	.LBE175:
 1223              	.LBB179:
 406:../src/tensorflow_lite/tensorflow/lite/micro/kernels/cmsis_nn/svdf.cc ****     TF_LITE_ENSURE_EQ(context, activation_state->type, kTfLiteFloat32);
 1224              		.loc 1 406 0 discriminator 1
 1225 0b38 000000E3 		movw	r0, #:lower16:.LC47
 1226 0b3c 003000E3 		movw	r3, #:lower16:.LC40
 1227              	.LVL154:
 1228 0b40 000040E3 		movt	r0, #:upper16:.LC47
 1229 0b44 003040E3 		movt	r3, #:upper16:.LC40
 1230 0b48 002000E3 		movw	r2, #:lower16:.LC1
 1231 0b4c 001000E3 		movw	r1, #:lower16:.LC7
 1232 0b50 04008DE5 		str	r0, [sp, #4]
 1233 0b54 002040E3 		movt	r2, #:upper16:.LC1
 1234 0b58 0400A0E1 		mov	r0, r4
 1235 0b5c 00308DE5 		str	r3, [sp]
 1236 0b60 0C608DE5 		str	r6, [sp, #12]
 1237 0b64 001040E3 		movt	r1, #:upper16:.LC7
 1238 0b68 08C08DE5 		str	ip, [sp, #8]
 1239 0b6c 963100E3 		movw	r3, #406
 1240 0b70 144094E5 		ldr	r4, [r4, #20]
 1241              	.LVL155:
 1242 0b74 34FF2FE1 		blx	r4
 1243              	.LVL156:
 1244 0b78 0600A0E1 		mov	r0, r6
 1245 0b7c 68FDFFEA 		b	.L11
 1246              	.LVL157:
 1247              	.L95:
 405:../src/tensorflow_lite/tensorflow/lite/micro/kernels/cmsis_nn/svdf.cc ****     TF_LITE_ENSURE_EQ(context, weights_time->type, kTfLiteFloat32);
 1248              		.loc 1 405 0 discriminator 1
 1249 0b80 000000E3 		movw	r0, #:lower16:.LC47
 1250 0b84 003000E3 		movw	r3, #:lower16:.LC38
 1251              	.LVL158:
 1252 0b88 000040E3 		movt	r0, #:upper16:.LC47
 1253 0b8c 003040E3 		movt	r3, #:upper16:.LC38
 1254 0b90 0150A0E3 		mov	r5, #1
 1255              	.LVL159:
 1256 0b94 002000E3 		movw	r2, #:lower16:.LC1
 1257 0b98 001000E3 		movw	r1, #:lower16:.LC7
 1258 0b9c 41008DE9 		stmib	sp, {r0, r6}
 1259              	.LVL160:
 1260 0ba0 00308DE5 		str	r3, [sp]
 1261 0ba4 0400A0E1 		mov	r0, r4
 1262 0ba8 0C508DE5 		str	r5, [sp, #12]
 1263 0bac 002040E3 		movt	r2, #:upper16:.LC1
 1264 0bb0 001040E3 		movt	r1, #:upper16:.LC7
 1265 0bb4 144094E5 		ldr	r4, [r4, #20]
 1266              	.LVL161:
 1267 0bb8 953100E3 		movw	r3, #405
 1268 0bbc 34FF2FE1 		blx	r4
 1269              	.LVL162:
 1270 0bc0 0500A0E1 		mov	r0, r5
 1271 0bc4 56FDFFEA 		b	.L11
 1272              	.LVL163:
 1273              	.L98:
 409:../src/tensorflow_lite/tensorflow/lite/micro/kernels/cmsis_nn/svdf.cc ****     }
 1274              		.loc 1 409 0 discriminator 1
 1275 0bc8 000000E3 		movw	r0, #:lower16:.LC47
 1276 0bcc 003000E3 		movw	r3, #:lower16:.LC43
 1277              	.LVL164:
 1278 0bd0 000040E3 		movt	r0, #:upper16:.LC47
 1279 0bd4 003040E3 		movt	r3, #:upper16:.LC43
 1280 0bd8 0160A0E3 		mov	r6, #1
 1281 0bdc 002000E3 		movw	r2, #:lower16:.LC1
 1282 0be0 001000E3 		movw	r1, #:lower16:.LC7
 1283 0be4 01108DE9 		stmib	sp, {r0, ip}
 1284 0be8 00308DE5 		str	r3, [sp]
 1285 0bec 0400A0E1 		mov	r0, r4
 1286 0bf0 0C608DE5 		str	r6, [sp, #12]
 1287 0bf4 002040E3 		movt	r2, #:upper16:.LC1
 1288 0bf8 001040E3 		movt	r1, #:upper16:.LC7
 1289 0bfc 144094E5 		ldr	r4, [r4, #20]
 1290              	.LVL165:
 1291 0c00 993100E3 		movw	r3, #409
 1292 0c04 34FF2FE1 		blx	r4
 1293              	.LVL166:
 1294 0c08 0600A0E1 		mov	r0, r6
 1295 0c0c 44FDFFEA 		b	.L11
 1296              	.LVL167:
 1297              	.L92:
 1298              	.LBE179:
 1299              	.LBE182:
 353:../src/tensorflow_lite/tensorflow/lite/micro/kernels/cmsis_nn/svdf.cc **** 
 1300              		.loc 1 353 0 discriminator 1
 1301 0c10 00C000E3 		movw	ip, #:lower16:.LC33
 1302 0c14 003000E3 		movw	r3, #:lower16:.LC34
 1303              	.LVL168:
 1304 0c18 00C040E3 		movt	ip, #:upper16:.LC33
 1305 0c1c 003040E3 		movt	r3, #:upper16:.LC34
 1306 0c20 0160A0E3 		mov	r6, #1
 1307 0c24 002000E3 		movw	r2, #:lower16:.LC1
 1308 0c28 001000E3 		movw	r1, #:lower16:.LC7
 1309 0c2c 08008DE5 		str	r0, [sp, #8]
 1310 0c30 00308DE5 		str	r3, [sp]
 1311 0c34 0400A0E1 		mov	r0, r4
 1312 0c38 04C08DE5 		str	ip, [sp, #4]
 1313 0c3c 002040E3 		movt	r2, #:upper16:.LC1
 1314 0c40 0C608DE5 		str	r6, [sp, #12]
 1315 0c44 001040E3 		movt	r1, #:upper16:.LC7
 1316 0c48 144094E5 		ldr	r4, [r4, #20]
 1317              	.LVL169:
 1318 0c4c 613100E3 		movw	r3, #353
 1319 0c50 34FF2FE1 		blx	r4
 1320              	.LVL170:
 1321 0c54 0600A0E1 		mov	r0, r6
 1322 0c58 31FDFFEA 		b	.L11
 1323              	.LVL171:
 1324              	.L97:
 1325              	.LBB183:
 1326              	.LBB180:
 407:../src/tensorflow_lite/tensorflow/lite/micro/kernels/cmsis_nn/svdf.cc ****     if (bias != nullptr) {
 1327              		.loc 1 407 0 discriminator 1
 1328 0c5c 000000E3 		movw	r0, #:lower16:.LC47
 1329 0c60 003000E3 		movw	r3, #:lower16:.LC41
 1330              	.LVL172:
 1331 0c64 000040E3 		movt	r0, #:upper16:.LC47
 1332 0c68 003040E3 		movt	r3, #:upper16:.LC41
 1333 0c6c 0160A0E3 		mov	r6, #1
 1334 0c70 002000E3 		movw	r2, #:lower16:.LC1
 1335 0c74 001000E3 		movw	r1, #:lower16:.LC7
 1336 0c78 01108DE9 		stmib	sp, {r0, ip}
 1337 0c7c 00308DE5 		str	r3, [sp]
 1338 0c80 0400A0E1 		mov	r0, r4
 1339 0c84 0C608DE5 		str	r6, [sp, #12]
 1340 0c88 002040E3 		movt	r2, #:upper16:.LC1
 1341 0c8c 001040E3 		movt	r1, #:upper16:.LC7
 1342 0c90 144094E5 		ldr	r4, [r4, #20]
 1343              	.LVL173:
 1344 0c94 973100E3 		movw	r3, #407
 1345 0c98 34FF2FE1 		blx	r4
 1346              	.LVL174:
 1347 0c9c 0600A0E1 		mov	r0, r6
 1348 0ca0 1FFDFFEA 		b	.L11
 1349              	.L107:
 1350 0ca4 00F020E3 		.align	3
 1351              	.L106:
 1352 0ca8 F168E388 		.word	-1998362383
 1353 0cac B5F8E43E 		.word	1055193269
 1354              	.LVL175:
 1355              	.L99:
 411:../src/tensorflow_lite/tensorflow/lite/micro/kernels/cmsis_nn/svdf.cc **** 
 1356              		.loc 1 411 0 discriminator 1
 1357 0cb0 145094E5 		ldr	r5, [r4, #20]
 1358              	.LVL176:
 1359 0cb4 FEFFFFEB 		bl	TfLiteTypeGetName
 1360              	.LVL177:
 1361 0cb8 0060A0E1 		mov	r6, r0
 1362 0cbc 0100A0E3 		mov	r0, #1
 1363 0cc0 FEFFFFEB 		bl	TfLiteTypeGetName
 1364              	.LVL178:
 1365 0cc4 00C000E3 		movw	ip, #:lower16:.LC47
 1366 0cc8 003000E3 		movw	r3, #:lower16:.LC45
 1367 0ccc 00C040E3 		movt	ip, #:upper16:.LC47
 1368 0cd0 003040E3 		movt	r3, #:upper16:.LC45
 1369 0cd4 002000E3 		movw	r2, #:lower16:.LC1
 1370 0cd8 001000E3 		movw	r1, #:lower16:.LC44
 1371 0cdc 0C008DE5 		str	r0, [sp, #12]
 1372 0ce0 002040E3 		movt	r2, #:upper16:.LC1
 1373 0ce4 0400A0E1 		mov	r0, r4
 1374 0ce8 08108DE8 		stm	sp, {r3, ip}
 1375 0cec 08608DE5 		str	r6, [sp, #8]
 1376 0cf0 001040E3 		movt	r1, #:upper16:.LC44
 1377 0cf4 9B3100E3 		movw	r3, #411
 1378 0cf8 35FF2FE1 		blx	r5
 1379              	.LVL179:
 1380 0cfc 0100A0E3 		mov	r0, #1
 1381 0d00 07FDFFEA 		b	.L11
 1382              	.LBE180:
 1383              	.LBE183:
 1384              		.cfi_endproc
 1385              	.LFE4268:
 1386              		.fnend
 1388              		.section	.text._ZN6tflite12_GLOBAL__N_14EvalEP13TfLiteContextP10TfLiteNode,"ax",%progbits
 1389              		.align	2
 1390              		.syntax unified
 1391              		.arm
 1392              		.fpu neon
 1394              	_ZN6tflite12_GLOBAL__N_14EvalEP13TfLiteContextP10TfLiteNode:
 1395              		.fnstart
 1396              	.LFB4269:
 422:../src/tensorflow_lite/tensorflow/lite/micro/kernels/cmsis_nn/svdf.cc **** 
 423:../src/tensorflow_lite/tensorflow/lite/micro/kernels/cmsis_nn/svdf.cc **** TfLiteStatus Eval(TfLiteContext* context, TfLiteNode* node) {
 1397              		.loc 1 423 0
 1398              		.cfi_startproc
 1399              		@ args = 0, pretend = 0, frame = 224
 1400              		@ frame_needed = 0, uses_anonymous_args = 0
 1401              	.LVL180:
 1402 0000 F04F2DE9 		push	{r4, r5, r6, r7, r8, r9, r10, fp, lr}
 1403              		.save {r4, r5, r6, r7, r8, r9, r10, fp, lr}
 1404              		.cfi_def_cfa_offset 36
 1405              		.cfi_offset 4, -36
 1406              		.cfi_offset 5, -32
 1407              		.cfi_offset 6, -28
 1408              		.cfi_offset 7, -24
 1409              		.cfi_offset 8, -20
 1410              		.cfi_offset 9, -16
 1411              		.cfi_offset 10, -12
 1412              		.cfi_offset 11, -8
 1413              		.cfi_offset 14, -4
 424:../src/tensorflow_lite/tensorflow/lite/micro/kernels/cmsis_nn/svdf.cc ****   auto* params = reinterpret_cast<TfLiteSVDFParams*>(node->builtin_data);
 425:../src/tensorflow_lite/tensorflow/lite/micro/kernels/cmsis_nn/svdf.cc ****   TFLITE_DCHECK(node->user_data != nullptr);
 1414              		.loc 1 425 0
 1415 0004 106091E5 		ldr	r6, [r1, #16]
 424:../src/tensorflow_lite/tensorflow/lite/micro/kernels/cmsis_nn/svdf.cc ****   auto* params = reinterpret_cast<TfLiteSVDFParams*>(node->builtin_data);
 1416              		.loc 1 424 0
 1417 0008 143091E5 		ldr	r3, [r1, #20]
 1418              		.loc 1 425 0
 1419 000c 000056E3 		cmp	r6, #0
 423:../src/tensorflow_lite/tensorflow/lite/micro/kernels/cmsis_nn/svdf.cc ****   auto* params = reinterpret_cast<TfLiteSVDFParams*>(node->builtin_data);
 1420              		.loc 1 423 0
 1421 0010 048B2DED 		vpush.64	{d8, d9}
 1422              		.vsave {d8, d9}
 1423              		.cfi_def_cfa_offset 52
 1424              		.cfi_offset 80, -52
 1425              		.cfi_offset 81, -48
 1426              		.cfi_offset 82, -44
 1427              		.cfi_offset 83, -40
 1428              		.pad #284
 1429 0014 47DF4DE2 		sub	sp, sp, #284
 1430              		.cfi_def_cfa_offset 336
 424:../src/tensorflow_lite/tensorflow/lite/micro/kernels/cmsis_nn/svdf.cc ****   auto* params = reinterpret_cast<TfLiteSVDFParams*>(node->builtin_data);
 1431              		.loc 1 424 0
 1432 0018 54308DE5 		str	r3, [sp, #84]
 1433              	.LVL181:
 1434              		.loc 1 425 0
 1435 001c 5802000A 		beq	.L110
 1436              	.LBB306:
 1437              	.LBB307:
 1438              	.LBB308:
 1439              		.file 4 "C:/Renesas/e2studio_2021_01_workspace_RZA2M_ANPR/ANPR_RZA2M_GR_MANGO/src/tensorflow_lite/
   1:C:/Renesas/e2studio_2021_01_workspace_RZA2M_ANPR/ANPR_RZA2M_GR_MANGO/src/tensorflow_lite/tensorflow/lite/micro/kernels\kernel_util.h **** /* Copyright 2020 The TensorFlow Authors. All Rights Reserved.
   2:C:/Renesas/e2studio_2021_01_workspace_RZA2M_ANPR/ANPR_RZA2M_GR_MANGO/src/tensorflow_lite/tensorflow/lite/micro/kernels\kernel_util.h **** 
   3:C:/Renesas/e2studio_2021_01_workspace_RZA2M_ANPR/ANPR_RZA2M_GR_MANGO/src/tensorflow_lite/tensorflow/lite/micro/kernels\kernel_util.h **** Licensed under the Apache License, Version 2.0 (the "License");
   4:C:/Renesas/e2studio_2021_01_workspace_RZA2M_ANPR/ANPR_RZA2M_GR_MANGO/src/tensorflow_lite/tensorflow/lite/micro/kernels\kernel_util.h **** you may not use this file except in compliance with the License.
   5:C:/Renesas/e2studio_2021_01_workspace_RZA2M_ANPR/ANPR_RZA2M_GR_MANGO/src/tensorflow_lite/tensorflow/lite/micro/kernels\kernel_util.h **** You may obtain a copy of the License at
   6:C:/Renesas/e2studio_2021_01_workspace_RZA2M_ANPR/ANPR_RZA2M_GR_MANGO/src/tensorflow_lite/tensorflow/lite/micro/kernels\kernel_util.h **** 
   7:C:/Renesas/e2studio_2021_01_workspace_RZA2M_ANPR/ANPR_RZA2M_GR_MANGO/src/tensorflow_lite/tensorflow/lite/micro/kernels\kernel_util.h ****     http://www.apache.org/licenses/LICENSE-2.0
   8:C:/Renesas/e2studio_2021_01_workspace_RZA2M_ANPR/ANPR_RZA2M_GR_MANGO/src/tensorflow_lite/tensorflow/lite/micro/kernels\kernel_util.h **** 
   9:C:/Renesas/e2studio_2021_01_workspace_RZA2M_ANPR/ANPR_RZA2M_GR_MANGO/src/tensorflow_lite/tensorflow/lite/micro/kernels\kernel_util.h **** Unless required by applicable law or agreed to in writing, software
  10:C:/Renesas/e2studio_2021_01_workspace_RZA2M_ANPR/ANPR_RZA2M_GR_MANGO/src/tensorflow_lite/tensorflow/lite/micro/kernels\kernel_util.h **** distributed under the License is distributed on an "AS IS" BASIS,
  11:C:/Renesas/e2studio_2021_01_workspace_RZA2M_ANPR/ANPR_RZA2M_GR_MANGO/src/tensorflow_lite/tensorflow/lite/micro/kernels\kernel_util.h **** WITHOUT WARRANTIES OR CONDITIONS OF ANY KIND, either express or implied.
  12:C:/Renesas/e2studio_2021_01_workspace_RZA2M_ANPR/ANPR_RZA2M_GR_MANGO/src/tensorflow_lite/tensorflow/lite/micro/kernels\kernel_util.h **** See the License for the specific language governing permissions and
  13:C:/Renesas/e2studio_2021_01_workspace_RZA2M_ANPR/ANPR_RZA2M_GR_MANGO/src/tensorflow_lite/tensorflow/lite/micro/kernels\kernel_util.h **** limitations under the License.
  14:C:/Renesas/e2studio_2021_01_workspace_RZA2M_ANPR/ANPR_RZA2M_GR_MANGO/src/tensorflow_lite/tensorflow/lite/micro/kernels\kernel_util.h **** ==============================================================================*/
  15:C:/Renesas/e2studio_2021_01_workspace_RZA2M_ANPR/ANPR_RZA2M_GR_MANGO/src/tensorflow_lite/tensorflow/lite/micro/kernels\kernel_util.h **** 
  16:C:/Renesas/e2studio_2021_01_workspace_RZA2M_ANPR/ANPR_RZA2M_GR_MANGO/src/tensorflow_lite/tensorflow/lite/micro/kernels\kernel_util.h **** #ifndef TENSORFLOW_LITE_MICRO_KERNELS_KERNEL_UTIL_H_
  17:C:/Renesas/e2studio_2021_01_workspace_RZA2M_ANPR/ANPR_RZA2M_GR_MANGO/src/tensorflow_lite/tensorflow/lite/micro/kernels\kernel_util.h **** #define TENSORFLOW_LITE_MICRO_KERNELS_KERNEL_UTIL_H_
  18:C:/Renesas/e2studio_2021_01_workspace_RZA2M_ANPR/ANPR_RZA2M_GR_MANGO/src/tensorflow_lite/tensorflow/lite/micro/kernels\kernel_util.h **** 
  19:C:/Renesas/e2studio_2021_01_workspace_RZA2M_ANPR/ANPR_RZA2M_GR_MANGO/src/tensorflow_lite/tensorflow/lite/micro/kernels\kernel_util.h **** #include <cstdint>
  20:C:/Renesas/e2studio_2021_01_workspace_RZA2M_ANPR/ANPR_RZA2M_GR_MANGO/src/tensorflow_lite/tensorflow/lite/micro/kernels\kernel_util.h **** 
  21:C:/Renesas/e2studio_2021_01_workspace_RZA2M_ANPR/ANPR_RZA2M_GR_MANGO/src/tensorflow_lite/tensorflow/lite/micro/kernels\kernel_util.h **** #include "tensorflow/lite/c/builtin_op_data.h"
  22:C:/Renesas/e2studio_2021_01_workspace_RZA2M_ANPR/ANPR_RZA2M_GR_MANGO/src/tensorflow_lite/tensorflow/lite/micro/kernels\kernel_util.h **** #include "tensorflow/lite/c/common.h"
  23:C:/Renesas/e2studio_2021_01_workspace_RZA2M_ANPR/ANPR_RZA2M_GR_MANGO/src/tensorflow_lite/tensorflow/lite/micro/kernels\kernel_util.h **** #include "tensorflow/lite/kernels/internal/compatibility.h"
  24:C:/Renesas/e2studio_2021_01_workspace_RZA2M_ANPR/ANPR_RZA2M_GR_MANGO/src/tensorflow_lite/tensorflow/lite/micro/kernels\kernel_util.h **** #include "tensorflow/lite/kernels/internal/types.h"
  25:C:/Renesas/e2studio_2021_01_workspace_RZA2M_ANPR/ANPR_RZA2M_GR_MANGO/src/tensorflow_lite/tensorflow/lite/micro/kernels\kernel_util.h **** 
  26:C:/Renesas/e2studio_2021_01_workspace_RZA2M_ANPR/ANPR_RZA2M_GR_MANGO/src/tensorflow_lite/tensorflow/lite/micro/kernels\kernel_util.h **** namespace tflite {
  27:C:/Renesas/e2studio_2021_01_workspace_RZA2M_ANPR/ANPR_RZA2M_GR_MANGO/src/tensorflow_lite/tensorflow/lite/micro/kernels\kernel_util.h **** namespace micro {
  28:C:/Renesas/e2studio_2021_01_workspace_RZA2M_ANPR/ANPR_RZA2M_GR_MANGO/src/tensorflow_lite/tensorflow/lite/micro/kernels\kernel_util.h **** 
  29:C:/Renesas/e2studio_2021_01_workspace_RZA2M_ANPR/ANPR_RZA2M_GR_MANGO/src/tensorflow_lite/tensorflow/lite/micro/kernels\kernel_util.h **** // Returns a mutable tensor for a given input index. is_variable must be checked
  30:C:/Renesas/e2studio_2021_01_workspace_RZA2M_ANPR/ANPR_RZA2M_GR_MANGO/src/tensorflow_lite/tensorflow/lite/micro/kernels\kernel_util.h **** // during prepare when the full TfLiteTensor is available.
  31:C:/Renesas/e2studio_2021_01_workspace_RZA2M_ANPR/ANPR_RZA2M_GR_MANGO/src/tensorflow_lite/tensorflow/lite/micro/kernels\kernel_util.h **** inline TfLiteEvalTensor* GetMutableEvalInput(const TfLiteContext* context,
  32:C:/Renesas/e2studio_2021_01_workspace_RZA2M_ANPR/ANPR_RZA2M_GR_MANGO/src/tensorflow_lite/tensorflow/lite/micro/kernels\kernel_util.h ****                                              const TfLiteNode* node,
  33:C:/Renesas/e2studio_2021_01_workspace_RZA2M_ANPR/ANPR_RZA2M_GR_MANGO/src/tensorflow_lite/tensorflow/lite/micro/kernels\kernel_util.h ****                                              int index) {
  34:C:/Renesas/e2studio_2021_01_workspace_RZA2M_ANPR/ANPR_RZA2M_GR_MANGO/src/tensorflow_lite/tensorflow/lite/micro/kernels\kernel_util.h ****   TFLITE_DCHECK(context != nullptr);
 1440              		.loc 4 34 0
 1441 0020 000050E3 		cmp	r0, #0
 1442 0024 0070A0E1 		mov	r7, r0
 1443              	.LVL182:
 1444 0028 5502000A 		beq	.L110
  35:C:/Renesas/e2studio_2021_01_workspace_RZA2M_ANPR/ANPR_RZA2M_GR_MANGO/src/tensorflow_lite/tensorflow/lite/micro/kernels\kernel_util.h ****   TFLITE_DCHECK(node != nullptr);
  36:C:/Renesas/e2studio_2021_01_workspace_RZA2M_ANPR/ANPR_RZA2M_GR_MANGO/src/tensorflow_lite/tensorflow/lite/micro/kernels\kernel_util.h ****   return context->GetEvalTensor(context, node->inputs->data[index]);
 1445              		.loc 4 36 0
 1446 002c 002091E5 		ldr	r2, [r1]
 1447 0030 0150A0E1 		mov	r5, r1
 1448 0034 543090E5 		ldr	r3, [r0, #84]
 1449 0038 041092E5 		ldr	r1, [r2, #4]
 1450              	.LVL183:
 1451 003c 33FF2FE1 		blx	r3
 1452              	.LVL184:
 1453              	.LBE308:
 1454              	.LBE307:
 1455              	.LBE306:
 1456              	.LBB311:
 1457              	.LBB312:
 1458              	.LBB313:
 1459 0040 002095E5 		ldr	r2, [r5]
 1460              	.LBE313:
 1461              	.LBE312:
 1462              	.LBE311:
 1463              	.LBB318:
 1464              	.LBB310:
 1465              	.LBB309:
 1466 0044 0080A0E1 		mov	r8, r0
 1467              	.LVL185:
 1468              	.LBE309:
 1469              	.LBE310:
 1470              	.LBE318:
 1471              	.LBB319:
 1472              	.LBB316:
 1473              	.LBB314:
 1474 0048 543097E5 		ldr	r3, [r7, #84]
 1475 004c 0700A0E1 		mov	r0, r7
 1476 0050 081092E5 		ldr	r1, [r2, #8]
 1477 0054 33FF2FE1 		blx	r3
 1478              	.LVL186:
 1479              	.LBE314:
 1480              	.LBE316:
 1481              	.LBE319:
 1482              	.LBB320:
 1483              	.LBB321:
 1484              	.LBB322:
 1485 0058 002095E5 		ldr	r2, [r5]
 1486              	.LBE322:
 1487              	.LBE321:
 1488              	.LBE320:
 1489              	.LBB325:
 1490              	.LBB317:
 1491              	.LBB315:
 1492 005c 0040A0E1 		mov	r4, r0
 1493              	.LVL187:
 1494              	.LBE315:
 1495              	.LBE317:
 1496              	.LBE325:
 1497              	.LBB326:
 1498              	.LBB324:
 1499              	.LBB323:
 1500 0060 543097E5 		ldr	r3, [r7, #84]
 1501 0064 0700A0E1 		mov	r0, r7
 1502 0068 0C1092E5 		ldr	r1, [r2, #12]
 1503 006c 33FF2FE1 		blx	r3
 1504              	.LVL188:
 1505 0070 003095E5 		ldr	r3, [r5]
 1506 0074 0090A0E1 		mov	r9, r0
 1507              	.LVL189:
 1508              	.LBE323:
 1509              	.LBE324:
 1510              	.LBE326:
 426:../src/tensorflow_lite/tensorflow/lite/micro/kernels/cmsis_nn/svdf.cc ****   const OpData& data = *(static_cast<const OpData*>(node->user_data));
 427:../src/tensorflow_lite/tensorflow/lite/micro/kernels/cmsis_nn/svdf.cc **** 
 428:../src/tensorflow_lite/tensorflow/lite/micro/kernels/cmsis_nn/svdf.cc ****   const TfLiteEvalTensor* input =
 429:../src/tensorflow_lite/tensorflow/lite/micro/kernels/cmsis_nn/svdf.cc ****       tflite::micro::GetEvalInput(context, node, kInputTensor);
 430:../src/tensorflow_lite/tensorflow/lite/micro/kernels/cmsis_nn/svdf.cc ****   const TfLiteEvalTensor* weights_feature =
 431:../src/tensorflow_lite/tensorflow/lite/micro/kernels/cmsis_nn/svdf.cc ****       tflite::micro::GetEvalInput(context, node, kWeightsFeatureTensor);
 432:../src/tensorflow_lite/tensorflow/lite/micro/kernels/cmsis_nn/svdf.cc ****   const TfLiteEvalTensor* weights_time =
 433:../src/tensorflow_lite/tensorflow/lite/micro/kernels/cmsis_nn/svdf.cc ****       tflite::micro::GetEvalInput(context, node, kWeightsTimeTensor);
 434:../src/tensorflow_lite/tensorflow/lite/micro/kernels/cmsis_nn/svdf.cc ****   const TfLiteEvalTensor* bias =
 435:../src/tensorflow_lite/tensorflow/lite/micro/kernels/cmsis_nn/svdf.cc ****       (NumInputs(node) == 5)
 436:../src/tensorflow_lite/tensorflow/lite/micro/kernels/cmsis_nn/svdf.cc ****           ? tflite::micro::GetEvalInput(context, node, kBiasTensor)
 1511              		.loc 1 436 0
 1512 0078 002093E5 		ldr	r2, [r3]
 1513 007c 050052E3 		cmp	r2, #5
 1514 0080 00A0A013 		movne	r10, #0
 1515 0084 1402000A 		beq	.L217
 1516              	.L111:
 1517              	.LVL190:
 1518              	.LBB327:
 1519              	.LBB328:
 1520              		.loc 4 36 0
 1521 0088 141093E5 		ldr	r1, [r3, #20]
 1522 008c 0700A0E1 		mov	r0, r7
 1523 0090 543097E5 		ldr	r3, [r7, #84]
 1524 0094 33FF2FE1 		blx	r3
 1525              	.LVL191:
 1526              	.LBE328:
 1527              	.LBE327:
 1528              	.LBB330:
 1529              	.LBB331:
  37:C:/Renesas/e2studio_2021_01_workspace_RZA2M_ANPR/ANPR_RZA2M_GR_MANGO/src/tensorflow_lite/tensorflow/lite/micro/kernels\kernel_util.h **** }
  38:C:/Renesas/e2studio_2021_01_workspace_RZA2M_ANPR/ANPR_RZA2M_GR_MANGO/src/tensorflow_lite/tensorflow/lite/micro/kernels\kernel_util.h **** 
  39:C:/Renesas/e2studio_2021_01_workspace_RZA2M_ANPR/ANPR_RZA2M_GR_MANGO/src/tensorflow_lite/tensorflow/lite/micro/kernels\kernel_util.h **** // Returns the TfLiteEvalTensor struct for a given input index in a node.
  40:C:/Renesas/e2studio_2021_01_workspace_RZA2M_ANPR/ANPR_RZA2M_GR_MANGO/src/tensorflow_lite/tensorflow/lite/micro/kernels\kernel_util.h **** inline const TfLiteEvalTensor* GetEvalInput(const TfLiteContext* context,
  41:C:/Renesas/e2studio_2021_01_workspace_RZA2M_ANPR/ANPR_RZA2M_GR_MANGO/src/tensorflow_lite/tensorflow/lite/micro/kernels\kernel_util.h ****                                             const TfLiteNode* node, int index) {
  42:C:/Renesas/e2studio_2021_01_workspace_RZA2M_ANPR/ANPR_RZA2M_GR_MANGO/src/tensorflow_lite/tensorflow/lite/micro/kernels\kernel_util.h ****   return GetMutableEvalInput(context, node, index);
  43:C:/Renesas/e2studio_2021_01_workspace_RZA2M_ANPR/ANPR_RZA2M_GR_MANGO/src/tensorflow_lite/tensorflow/lite/micro/kernels\kernel_util.h **** }
  44:C:/Renesas/e2studio_2021_01_workspace_RZA2M_ANPR/ANPR_RZA2M_GR_MANGO/src/tensorflow_lite/tensorflow/lite/micro/kernels\kernel_util.h **** 
  45:C:/Renesas/e2studio_2021_01_workspace_RZA2M_ANPR/ANPR_RZA2M_GR_MANGO/src/tensorflow_lite/tensorflow/lite/micro/kernels\kernel_util.h **** // Returns the TfLiteEvalTensor struct for a given output index in a node.
  46:C:/Renesas/e2studio_2021_01_workspace_RZA2M_ANPR/ANPR_RZA2M_GR_MANGO/src/tensorflow_lite/tensorflow/lite/micro/kernels\kernel_util.h **** inline TfLiteEvalTensor* GetEvalOutput(const TfLiteContext* context,
  47:C:/Renesas/e2studio_2021_01_workspace_RZA2M_ANPR/ANPR_RZA2M_GR_MANGO/src/tensorflow_lite/tensorflow/lite/micro/kernels\kernel_util.h ****                                        const TfLiteNode* node, int index) {
  48:C:/Renesas/e2studio_2021_01_workspace_RZA2M_ANPR/ANPR_RZA2M_GR_MANGO/src/tensorflow_lite/tensorflow/lite/micro/kernels\kernel_util.h ****   TFLITE_DCHECK(context != nullptr);
  49:C:/Renesas/e2studio_2021_01_workspace_RZA2M_ANPR/ANPR_RZA2M_GR_MANGO/src/tensorflow_lite/tensorflow/lite/micro/kernels\kernel_util.h ****   TFLITE_DCHECK(node != nullptr);
  50:C:/Renesas/e2studio_2021_01_workspace_RZA2M_ANPR/ANPR_RZA2M_GR_MANGO/src/tensorflow_lite/tensorflow/lite/micro/kernels\kernel_util.h ****   return context->GetEvalTensor(context, node->outputs->data[index]);
 1530              		.loc 4 50 0
 1531 0098 042095E5 		ldr	r2, [r5, #4]
 1532              	.LBE331:
 1533              	.LBE330:
 1534              	.LBB333:
 1535              	.LBB329:
  36:C:/Renesas/e2studio_2021_01_workspace_RZA2M_ANPR/ANPR_RZA2M_GR_MANGO/src/tensorflow_lite/tensorflow/lite/micro/kernels\kernel_util.h **** }
 1536              		.loc 4 36 0
 1537 009c 00B0A0E1 		mov	fp, r0
 1538              	.LVL192:
 1539              	.LBE329:
 1540              	.LBE333:
 1541              	.LBB334:
 1542              	.LBB332:
 1543              		.loc 4 50 0
 1544 00a0 543097E5 		ldr	r3, [r7, #84]
 1545 00a4 0700A0E1 		mov	r0, r7
 1546 00a8 041092E5 		ldr	r1, [r2, #4]
 1547 00ac 33FF2FE1 		blx	r3
 1548              	.LVL193:
 1549 00b0 0030A0E1 		mov	r3, r0
 1550              	.LVL194:
 1551              	.LBE332:
 1552              	.LBE334:
 437:../src/tensorflow_lite/tensorflow/lite/micro/kernels/cmsis_nn/svdf.cc ****           : nullptr;
 438:../src/tensorflow_lite/tensorflow/lite/micro/kernels/cmsis_nn/svdf.cc ****   TfLiteEvalTensor* activation_state = tflite::micro::GetMutableEvalInput(
 439:../src/tensorflow_lite/tensorflow/lite/micro/kernels/cmsis_nn/svdf.cc ****       context, node, kInputActivationStateTensor);
 440:../src/tensorflow_lite/tensorflow/lite/micro/kernels/cmsis_nn/svdf.cc ****   TfLiteEvalTensor* output =
 441:../src/tensorflow_lite/tensorflow/lite/micro/kernels/cmsis_nn/svdf.cc ****       tflite::micro::GetEvalOutput(context, node, kOutputTensor);
 442:../src/tensorflow_lite/tensorflow/lite/micro/kernels/cmsis_nn/svdf.cc **** 
 443:../src/tensorflow_lite/tensorflow/lite/micro/kernels/cmsis_nn/svdf.cc ****   switch (weights_feature->type) {
 1553              		.loc 1 443 0
 1554 00b4 0800D4E5 		ldrb	r0, [r4, #8]	@ zero_extendqisi2
 1555 00b8 010050E3 		cmp	r0, #1
 1556 00bc 6C00000A 		beq	.L113
 1557 00c0 090050E3 		cmp	r0, #9
 1558 00c4 5F00001A 		bne	.L218
 1559 00c8 54109DE5 		ldr	r1, [sp, #84]
 1560              	.LBB335:
 1561              	.LBB336:
 242:../src/tensorflow_lite/tensorflow/lite/micro/kernels/cmsis_nn/svdf.cc ****   svdf_params.input_activation.max = INT16_MAX;
 1562              		.loc 1 242 0
 1563 00cc 0229A0E3 		mov	r2, #32768
 215:../src/tensorflow_lite/tensorflow/lite/micro/kernels/cmsis_nn/svdf.cc ****   input_dims.h = input_tensor->dims->data[1];
 1564              		.loc 1 215 0
 1565 00d0 04E098E5 		ldr	lr, [r8, #4]
 242:../src/tensorflow_lite/tensorflow/lite/micro/kernels/cmsis_nn/svdf.cc ****   svdf_params.input_activation.max = INT16_MAX;
 1566              		.loc 1 242 0
 1567 00d4 FF2F4FE3 		movt	r2, 65535
 219:../src/tensorflow_lite/tensorflow/lite/micro/kernels/cmsis_nn/svdf.cc ****   weights_feature_dims.h = weights_feature_tensor->dims->data[1];
 1568              		.loc 1 219 0
 1569 00d8 04C094E5 		ldr	ip, [r4, #4]
 1570 00dc 001091E5 		ldr	r1, [r1]
 234:../src/tensorflow_lite/tensorflow/lite/micro/kernels/cmsis_nn/svdf.cc ****   output_dims.h = output_tensor->dims->data[1];
 1571              		.loc 1 234 0
 1572 00e0 3C308DE5 		str	r3, [sp, #60]
 223:../src/tensorflow_lite/tensorflow/lite/micro/kernels/cmsis_nn/svdf.cc ****   weights_time_dims.h = weights_time_tensor->dims->data[1];
 1573              		.loc 1 223 0
 1574 00e4 040099E5 		ldr	r0, [r9, #4]
 1575 00e8 FC108DE5 		str	r1, [sp, #252]
 1576              	.LVL195:
 234:../src/tensorflow_lite/tensorflow/lite/micro/kernels/cmsis_nn/svdf.cc ****   output_dims.h = output_tensor->dims->data[1];
 1577              		.loc 1 234 0
 1578 00ec 041093E5 		ldr	r1, [r3, #4]
 215:../src/tensorflow_lite/tensorflow/lite/micro/kernels/cmsis_nn/svdf.cc ****   input_dims.h = input_tensor->dims->data[1];
 1579              		.loc 1 215 0
 1580 00f0 04309EE5 		ldr	r3, [lr, #4]
 1581              	.LVL196:
 216:../src/tensorflow_lite/tensorflow/lite/micro/kernels/cmsis_nn/svdf.cc **** 
 1582              		.loc 1 216 0
 1583 00f4 08E09EE5 		ldr	lr, [lr, #8]
 227:../src/tensorflow_lite/tensorflow/lite/micro/kernels/cmsis_nn/svdf.cc **** 
 1584              		.loc 1 227 0
 1585 00f8 04509AE5 		ldr	r5, [r10, #4]
 1586              	.LVL197:
 215:../src/tensorflow_lite/tensorflow/lite/micro/kernels/cmsis_nn/svdf.cc ****   input_dims.h = input_tensor->dims->data[1];
 1587              		.loc 1 215 0
 1588 00fc 9C308DE5 		str	r3, [sp, #156]
 216:../src/tensorflow_lite/tensorflow/lite/micro/kernels/cmsis_nn/svdf.cc **** 
 1589              		.loc 1 216 0
 1590 0100 A0E08DE5 		str	lr, [sp, #160]
 219:../src/tensorflow_lite/tensorflow/lite/micro/kernels/cmsis_nn/svdf.cc ****   weights_feature_dims.h = weights_feature_tensor->dims->data[1];
 1591              		.loc 1 219 0
 1592 0104 04E09CE5 		ldr	lr, [ip, #4]
 220:../src/tensorflow_lite/tensorflow/lite/micro/kernels/cmsis_nn/svdf.cc **** 
 1593              		.loc 1 220 0
 1594 0108 08C09CE5 		ldr	ip, [ip, #8]
 219:../src/tensorflow_lite/tensorflow/lite/micro/kernels/cmsis_nn/svdf.cc ****   weights_feature_dims.h = weights_feature_tensor->dims->data[1];
 1595              		.loc 1 219 0
 1596 010c ACE08DE5 		str	lr, [sp, #172]
 220:../src/tensorflow_lite/tensorflow/lite/micro/kernels/cmsis_nn/svdf.cc **** 
 1597              		.loc 1 220 0
 1598 0110 B0C08DE5 		str	ip, [sp, #176]
 224:../src/tensorflow_lite/tensorflow/lite/micro/kernels/cmsis_nn/svdf.cc **** 
 1599              		.loc 1 224 0
 1600 0114 005090E9 		ldmib	r0, {ip, lr}
 231:../src/tensorflow_lite/tensorflow/lite/micro/kernels/cmsis_nn/svdf.cc **** 
 1601              		.loc 1 231 0
 1602 0118 210095E9 		ldmib	r5, {r0, r5}
 223:../src/tensorflow_lite/tensorflow/lite/micro/kernels/cmsis_nn/svdf.cc ****   weights_time_dims.h = weights_time_tensor->dims->data[1];
 1603              		.loc 1 223 0
 1604 011c BCC08DE5 		str	ip, [sp, #188]
 227:../src/tensorflow_lite/tensorflow/lite/micro/kernels/cmsis_nn/svdf.cc **** 
 1605              		.loc 1 227 0
 1606 0120 CC008DE5 		str	r0, [sp, #204]
 230:../src/tensorflow_lite/tensorflow/lite/micro/kernels/cmsis_nn/svdf.cc ****   state_dims.h = bias_tensor->dims->data[1];
 1607              		.loc 1 230 0
 1608 0124 DC008DE5 		str	r0, [sp, #220]
 235:../src/tensorflow_lite/tensorflow/lite/micro/kernels/cmsis_nn/svdf.cc **** 
 1609              		.loc 1 235 0
 1610 0128 011091E9 		ldmib	r1, {r0, ip}
 239:../src/tensorflow_lite/tensorflow/lite/micro/kernels/cmsis_nn/svdf.cc ****   svdf_params.output_offset = data.output_zero_point;
 1611              		.loc 1 239 0
 1612 012c 181096E5 		ldr	r1, [r6, #24]
 224:../src/tensorflow_lite/tensorflow/lite/micro/kernels/cmsis_nn/svdf.cc **** 
 1613              		.loc 1 224 0
 1614 0130 C0E08DE5 		str	lr, [sp, #192]
 234:../src/tensorflow_lite/tensorflow/lite/micro/kernels/cmsis_nn/svdf.cc ****   output_dims.h = output_tensor->dims->data[1];
 1615              		.loc 1 234 0
 1616 0134 EC008DE5 		str	r0, [sp, #236]
 240:../src/tensorflow_lite/tensorflow/lite/micro/kernels/cmsis_nn/svdf.cc **** 
 1617              		.loc 1 240 0
 1618 0138 1C0096E5 		ldr	r0, [r6, #28]
 235:../src/tensorflow_lite/tensorflow/lite/micro/kernels/cmsis_nn/svdf.cc **** 
 1619              		.loc 1 235 0
 1620 013c F0C08DE5 		str	ip, [sp, #240]
 245:../src/tensorflow_lite/tensorflow/lite/micro/kernels/cmsis_nn/svdf.cc ****   svdf_params.output_activation.max = INT8_MAX;
 1621              		.loc 1 245 0
 1622 0140 7FC0E0E3 		mvn	ip, #127
 231:../src/tensorflow_lite/tensorflow/lite/micro/kernels/cmsis_nn/svdf.cc **** 
 1623              		.loc 1 231 0
 1624 0144 E0508DE5 		str	r5, [sp, #224]
 239:../src/tensorflow_lite/tensorflow/lite/micro/kernels/cmsis_nn/svdf.cc ****   svdf_params.output_offset = data.output_zero_point;
 1625              		.loc 1 239 0
 1626 0148 00118DE5 		str	r1, [sp, #256]
 243:../src/tensorflow_lite/tensorflow/lite/micro/kernels/cmsis_nn/svdf.cc **** 
 1627              		.loc 1 243 0
 1628 014c FF1F07E3 		movw	r1, #32767
 240:../src/tensorflow_lite/tensorflow/lite/micro/kernels/cmsis_nn/svdf.cc **** 
 1629              		.loc 1 240 0
 1630 0150 04018DE5 		str	r0, [sp, #260]
 249:../src/tensorflow_lite/tensorflow/lite/micro/kernels/cmsis_nn/svdf.cc ****   in_quant_params.shift = data.effective_scale_1_b;
 1631              		.loc 1 249 0
 1632 0154 000096E5 		ldr	r0, [r6]
 243:../src/tensorflow_lite/tensorflow/lite/micro/kernels/cmsis_nn/svdf.cc **** 
 1633              		.loc 1 243 0
 1634 0158 0C118DE5 		str	r1, [sp, #268]
 250:../src/tensorflow_lite/tensorflow/lite/micro/kernels/cmsis_nn/svdf.cc **** 
 1635              		.loc 1 250 0
 1636 015c 081096E5 		ldr	r1, [r6, #8]
 242:../src/tensorflow_lite/tensorflow/lite/micro/kernels/cmsis_nn/svdf.cc ****   svdf_params.input_activation.max = INT16_MAX;
 1637              		.loc 1 242 0
 1638 0160 08218DE5 		str	r2, [sp, #264]
 257:../src/tensorflow_lite/tensorflow/lite/micro/kernels/cmsis_nn/svdf.cc **** 
 1639              		.loc 1 257 0
 1640 0164 442097E5 		ldr	r2, [r7, #68]
 245:../src/tensorflow_lite/tensorflow/lite/micro/kernels/cmsis_nn/svdf.cc ****   svdf_params.output_activation.max = INT8_MAX;
 1641              		.loc 1 245 0
 1642 0168 10C18DE5 		str	ip, [sp, #272]
 253:../src/tensorflow_lite/tensorflow/lite/micro/kernels/cmsis_nn/svdf.cc ****   out_quant_params.shift = data.effective_scale_2_b;
 1643              		.loc 1 253 0
 1644 016c 04C096E5 		ldr	ip, [r6, #4]
 250:../src/tensorflow_lite/tensorflow/lite/micro/kernels/cmsis_nn/svdf.cc **** 
 1645              		.loc 1 250 0
 1646 0170 80108DE5 		str	r1, [sp, #128]
 257:../src/tensorflow_lite/tensorflow/lite/micro/kernels/cmsis_nn/svdf.cc **** 
 1647              		.loc 1 257 0
 1648 0174 000052E3 		cmp	r2, #0
 254:../src/tensorflow_lite/tensorflow/lite/micro/kernels/cmsis_nn/svdf.cc **** 
 1649              		.loc 1 254 0
 1650 0178 0C1096E5 		ldr	r1, [r6, #12]
 249:../src/tensorflow_lite/tensorflow/lite/micro/kernels/cmsis_nn/svdf.cc ****   in_quant_params.shift = data.effective_scale_1_b;
 1651              		.loc 1 249 0
 1652 017c 7C008DE5 		str	r0, [sp, #124]
 246:../src/tensorflow_lite/tensorflow/lite/micro/kernels/cmsis_nn/svdf.cc **** 
 1653              		.loc 1 246 0
 1654 0180 7F00A0E3 		mov	r0, #127
 253:../src/tensorflow_lite/tensorflow/lite/micro/kernels/cmsis_nn/svdf.cc ****   out_quant_params.shift = data.effective_scale_2_b;
 1655              		.loc 1 253 0
 1656 0184 84C08DE5 		str	ip, [sp, #132]
 246:../src/tensorflow_lite/tensorflow/lite/micro/kernels/cmsis_nn/svdf.cc **** 
 1657              		.loc 1 246 0
 1658 0188 14018DE5 		str	r0, [sp, #276]
 254:../src/tensorflow_lite/tensorflow/lite/micro/kernels/cmsis_nn/svdf.cc **** 
 1659              		.loc 1 254 0
 1660 018c 88108DE5 		str	r1, [sp, #136]
 257:../src/tensorflow_lite/tensorflow/lite/micro/kernels/cmsis_nn/svdf.cc **** 
 1661              		.loc 1 257 0
 1662 0190 FB01000A 		beq	.L110
 261:../src/tensorflow_lite/tensorflow/lite/micro/kernels/cmsis_nn/svdf.cc **** 
 1663              		.loc 1 261 0
 1664 0194 101096E5 		ldr	r1, [r6, #16]
 1665 0198 0700A0E1 		mov	r0, r7
 1666 019c 32FF2FE1 		blx	r2
 1667              	.LVL198:
 265:../src/tensorflow_lite/tensorflow/lite/micro/kernels/cmsis_nn/svdf.cc **** 
 1668              		.loc 1 265 0
 1669 01a0 141096E5 		ldr	r1, [r6, #20]
 278:../src/tensorflow_lite/tensorflow/lite/micro/kernels/cmsis_nn/svdf.cc **** }
 1670              		.loc 1 278 0
 1671 01a4 DC508DE2 		add	r5, sp, #220
 260:../src/tensorflow_lite/tensorflow/lite/micro/kernels/cmsis_nn/svdf.cc ****       context->GetScratchBuffer(context, data.scratch_tensor_index));
 1672              		.loc 1 260 0
 1673 01a8 8C008DE5 		str	r0, [sp, #140]
 265:../src/tensorflow_lite/tensorflow/lite/micro/kernels/cmsis_nn/svdf.cc **** 
 1674              		.loc 1 265 0
 1675 01ac 0700A0E1 		mov	r0, r7
 1676 01b0 442097E5 		ldr	r2, [r7, #68]
 278:../src/tensorflow_lite/tensorflow/lite/micro/kernels/cmsis_nn/svdf.cc **** }
 1677              		.loc 1 278 0
 1678 01b4 AC608DE2 		add	r6, sp, #172
 1679              	.LVL199:
 265:../src/tensorflow_lite/tensorflow/lite/micro/kernels/cmsis_nn/svdf.cc **** 
 1680              		.loc 1 265 0
 1681 01b8 32FF2FE1 		blx	r2
 1682              	.LVL200:
 1683              	.LBB337:
 1684              	.LBB338:
  51:C:/Renesas/e2studio_2021_01_workspace_RZA2M_ANPR/ANPR_RZA2M_GR_MANGO/src/tensorflow_lite/tensorflow/lite/micro/kernels\kernel_util.h **** }
  52:C:/Renesas/e2studio_2021_01_workspace_RZA2M_ANPR/ANPR_RZA2M_GR_MANGO/src/tensorflow_lite/tensorflow/lite/micro/kernels\kernel_util.h **** 
  53:C:/Renesas/e2studio_2021_01_workspace_RZA2M_ANPR/ANPR_RZA2M_GR_MANGO/src/tensorflow_lite/tensorflow/lite/micro/kernels\kernel_util.h **** // Returns data for a TfLiteEvalTensor struct.
  54:C:/Renesas/e2studio_2021_01_workspace_RZA2M_ANPR/ANPR_RZA2M_GR_MANGO/src/tensorflow_lite/tensorflow/lite/micro/kernels\kernel_util.h **** template <typename T>
  55:C:/Renesas/e2studio_2021_01_workspace_RZA2M_ANPR/ANPR_RZA2M_GR_MANGO/src/tensorflow_lite/tensorflow/lite/micro/kernels\kernel_util.h **** T* GetTensorData(TfLiteEvalTensor* tensor) {
  56:C:/Renesas/e2studio_2021_01_workspace_RZA2M_ANPR/ANPR_RZA2M_GR_MANGO/src/tensorflow_lite/tensorflow/lite/micro/kernels\kernel_util.h ****   return tensor != nullptr ? reinterpret_cast<T*>(tensor->data.raw) : nullptr;
 1685              		.loc 4 56 0
 1686 01bc 3C309DE5 		ldr	r3, [sp, #60]
 1687              	.LBE338:
 1688              	.LBE337:
 1689              	.LBB340:
 1690              	.LBB341:
 1691 01c0 00005BE3 		cmp	fp, #0
 1692              	.LBE341:
 1693              	.LBE340:
 264:../src/tensorflow_lite/tensorflow/lite/micro/kernels/cmsis_nn/svdf.cc ****       context->GetScratchBuffer(context, data.scratch_output_tensor_index));
 1694              		.loc 1 264 0
 1695 01c4 94008DE5 		str	r0, [sp, #148]
 1696              	.LVL201:
 278:../src/tensorflow_lite/tensorflow/lite/micro/kernels/cmsis_nn/svdf.cc **** }
 1697              		.loc 1 278 0
 1698 01c8 CC008DE2 		add	r0, sp, #204
 1699              	.LBB343:
 1700              	.LBB344:
  57:C:/Renesas/e2studio_2021_01_workspace_RZA2M_ANPR/ANPR_RZA2M_GR_MANGO/src/tensorflow_lite/tensorflow/lite/micro/kernels\kernel_util.h **** }
  58:C:/Renesas/e2studio_2021_01_workspace_RZA2M_ANPR/ANPR_RZA2M_GR_MANGO/src/tensorflow_lite/tensorflow/lite/micro/kernels\kernel_util.h **** 
  59:C:/Renesas/e2studio_2021_01_workspace_RZA2M_ANPR/ANPR_RZA2M_GR_MANGO/src/tensorflow_lite/tensorflow/lite/micro/kernels\kernel_util.h **** // Returns const data for a TfLiteEvalTensor struct.
  60:C:/Renesas/e2studio_2021_01_workspace_RZA2M_ANPR/ANPR_RZA2M_GR_MANGO/src/tensorflow_lite/tensorflow/lite/micro/kernels\kernel_util.h **** template <typename T>
  61:C:/Renesas/e2studio_2021_01_workspace_RZA2M_ANPR/ANPR_RZA2M_GR_MANGO/src/tensorflow_lite/tensorflow/lite/micro/kernels\kernel_util.h **** const T* GetTensorData(const TfLiteEvalTensor* tensor) {
  62:C:/Renesas/e2studio_2021_01_workspace_RZA2M_ANPR/ANPR_RZA2M_GR_MANGO/src/tensorflow_lite/tensorflow/lite/micro/kernels\kernel_util.h ****   TFLITE_DCHECK(tensor != nullptr);
  63:C:/Renesas/e2studio_2021_01_workspace_RZA2M_ANPR/ANPR_RZA2M_GR_MANGO/src/tensorflow_lite/tensorflow/lite/micro/kernels\kernel_util.h ****   return reinterpret_cast<const T*>(tensor->data.raw);
 1701              		.loc 4 63 0
 1702 01cc 001098E5 		ldr	r1, [r8]
 1703              	.LBE344:
 1704              	.LBE343:
 278:../src/tensorflow_lite/tensorflow/lite/micro/kernels/cmsis_nn/svdf.cc **** }
 1705              		.loc 1 278 0
 1706 01d0 9CE08DE2 		add	lr, sp, #156
 1707              	.LBB345:
 1708              	.LBB339:
  56:C:/Renesas/e2studio_2021_01_workspace_RZA2M_ANPR/ANPR_RZA2M_GR_MANGO/src/tensorflow_lite/tensorflow/lite/micro/kernels\kernel_util.h **** }
 1709              		.loc 4 56 0
 1710 01d4 002093E5 		ldr	r2, [r3]
 1711              	.LVL202:
 1712              	.LBE339:
 1713              	.LBE345:
 278:../src/tensorflow_lite/tensorflow/lite/micro/kernels/cmsis_nn/svdf.cc **** }
 1714              		.loc 1 278 0
 1715 01d8 EC308DE2 		add	r3, sp, #236
 1716              	.LBB346:
 1717              	.LBB342:
  56:C:/Renesas/e2studio_2021_01_workspace_RZA2M_ANPR/ANPR_RZA2M_GR_MANGO/src/tensorflow_lite/tensorflow/lite/micro/kernels\kernel_util.h **** }
 1718              		.loc 4 56 0
 1719 01dc 00B09B15 		ldrne	fp, [fp]
 1720              	.LVL203:
 1721              	.LBE342:
 1722              	.LBE346:
 278:../src/tensorflow_lite/tensorflow/lite/micro/kernels/cmsis_nn/svdf.cc **** }
 1723              		.loc 1 278 0
 1724 01e0 84C08DE2 		add	ip, sp, #132
 1725 01e4 2C308DE5 		str	r3, [sp, #44]
 1726 01e8 30208DE5 		str	r2, [sp, #48]
 1727 01ec BC208DE2 		add	r2, sp, #188
 1728 01f0 00309AE5 		ldr	r3, [r10]
 1729 01f4 24008DE5 		str	r0, [sp, #36]
 1730 01f8 28308DE5 		str	r3, [sp, #40]
 1731 01fc 003099E5 		ldr	r3, [r9]
 1732 0200 1C208DE5 		str	r2, [sp, #28]
 1733 0204 FC208DE2 		add	r2, sp, #252
 1734 0208 20308DE5 		str	r3, [sp, #32]
 1735 020c 7C308DE2 		add	r3, sp, #124
 1736 0210 000094E5 		ldr	r0, [r4]
 1737 0214 08108DE5 		str	r1, [sp, #8]
 1738 0218 94108DE2 		add	r1, sp, #148
 1739 021c 10B08DE5 		str	fp, [sp, #16]
 1740 0220 18008DE5 		str	r0, [sp, #24]
 1741 0224 8C008DE2 		add	r0, sp, #140
 1742 0228 14608DE5 		str	r6, [sp, #20]
 1743 022c 0C508DE5 		str	r5, [sp, #12]
 1744 0230 00508DE8 		stm	sp, {ip, lr}
 1745 0234 FEFFFFEB 		bl	arm_svdf_s8
 1746              	.LVL204:
 1747              	.L206:
 1748              	.LBE336:
 1749              	.LBE335:
 444:../src/tensorflow_lite/tensorflow/lite/micro/kernels/cmsis_nn/svdf.cc ****     case kTfLiteFloat32: {
 445:../src/tensorflow_lite/tensorflow/lite/micro/kernels/cmsis_nn/svdf.cc ****       EvalFloatSVDF(context, node, input, weights_feature, weights_time, bias,
 446:../src/tensorflow_lite/tensorflow/lite/micro/kernels/cmsis_nn/svdf.cc ****                     params, data.scratch_tensor_index, activation_state,
 447:../src/tensorflow_lite/tensorflow/lite/micro/kernels/cmsis_nn/svdf.cc ****                     output);
 448:../src/tensorflow_lite/tensorflow/lite/micro/kernels/cmsis_nn/svdf.cc ****       return kTfLiteOk;
 449:../src/tensorflow_lite/tensorflow/lite/micro/kernels/cmsis_nn/svdf.cc ****       break;
 450:../src/tensorflow_lite/tensorflow/lite/micro/kernels/cmsis_nn/svdf.cc ****     }
 451:../src/tensorflow_lite/tensorflow/lite/micro/kernels/cmsis_nn/svdf.cc **** 
 452:../src/tensorflow_lite/tensorflow/lite/micro/kernels/cmsis_nn/svdf.cc ****     case kTfLiteInt8: {
 453:../src/tensorflow_lite/tensorflow/lite/micro/kernels/cmsis_nn/svdf.cc ****       EvalIntegerSVDF(context, node, input, weights_feature, weights_time, bias,
 454:../src/tensorflow_lite/tensorflow/lite/micro/kernels/cmsis_nn/svdf.cc ****                       params, activation_state, output, data);
 455:../src/tensorflow_lite/tensorflow/lite/micro/kernels/cmsis_nn/svdf.cc ****       return kTfLiteOk;
 1750              		.loc 1 455 0
 1751 0238 0000A0E3 		mov	r0, #0
 456:../src/tensorflow_lite/tensorflow/lite/micro/kernels/cmsis_nn/svdf.cc ****       break;
 457:../src/tensorflow_lite/tensorflow/lite/micro/kernels/cmsis_nn/svdf.cc ****     }
 458:../src/tensorflow_lite/tensorflow/lite/micro/kernels/cmsis_nn/svdf.cc **** 
 459:../src/tensorflow_lite/tensorflow/lite/micro/kernels/cmsis_nn/svdf.cc ****     default:
 460:../src/tensorflow_lite/tensorflow/lite/micro/kernels/cmsis_nn/svdf.cc ****       TF_LITE_KERNEL_LOG(context, "Type %s not currently supported.",
 461:../src/tensorflow_lite/tensorflow/lite/micro/kernels/cmsis_nn/svdf.cc ****                          TfLiteTypeGetName(weights_feature->type));
 462:../src/tensorflow_lite/tensorflow/lite/micro/kernels/cmsis_nn/svdf.cc ****       return kTfLiteError;
 463:../src/tensorflow_lite/tensorflow/lite/micro/kernels/cmsis_nn/svdf.cc ****   }
 464:../src/tensorflow_lite/tensorflow/lite/micro/kernels/cmsis_nn/svdf.cc ****   return kTfLiteOk;
 465:../src/tensorflow_lite/tensorflow/lite/micro/kernels/cmsis_nn/svdf.cc **** }
 1752              		.loc 1 465 0
 1753 023c 47DF8DE2 		add	sp, sp, #284
 1754              		.cfi_remember_state
 1755              		.cfi_def_cfa_offset 52
 1756              		@ sp needed
 1757 0240 048BBDEC 		vldm	sp!, {d8-d9}
 1758              		.cfi_restore 80
 1759              		.cfi_restore 81
 1760              		.cfi_restore 82
 1761              		.cfi_restore 83
 1762              		.cfi_def_cfa_offset 36
 1763 0244 F08FBDE8 		pop	{r4, r5, r6, r7, r8, r9, r10, fp, pc}
 1764              	.LVL205:
 1765              	.L218:
 1766              		.cfi_restore_state
 460:../src/tensorflow_lite/tensorflow/lite/micro/kernels/cmsis_nn/svdf.cc ****                          TfLiteTypeGetName(weights_feature->type));
 1767              		.loc 1 460 0
 1768 0248 144097E5 		ldr	r4, [r7, #20]
 1769 024c FEFFFFEB 		bl	TfLiteTypeGetName
 1770              	.LVL206:
 1771 0250 001000E3 		movw	r1, #:lower16:.LC48
 1772 0254 0020A0E1 		mov	r2, r0
 1773 0258 001040E3 		movt	r1, #:upper16:.LC48
 1774 025c 0700A0E1 		mov	r0, r7
 1775 0260 34FF2FE1 		blx	r4
 1776              	.LVL207:
 462:../src/tensorflow_lite/tensorflow/lite/micro/kernels/cmsis_nn/svdf.cc ****   }
 1777              		.loc 1 462 0
 1778 0264 0100A0E3 		mov	r0, #1
 1779              		.loc 1 465 0
 1780 0268 47DF8DE2 		add	sp, sp, #284
 1781              		.cfi_remember_state
 1782              		.cfi_def_cfa_offset 52
 1783              		@ sp needed
 1784 026c 048BBDEC 		vldm	sp!, {d8-d9}
 1785              		.cfi_restore 82
 1786              		.cfi_restore 83
 1787              		.cfi_restore 80
 1788              		.cfi_restore 81
 1789              		.cfi_def_cfa_offset 36
 1790 0270 F08FBDE8 		pop	{r4, r5, r6, r7, r8, r9, r10, fp, pc}
 1791              	.LVL208:
 1792              	.L113:
 1793              		.cfi_restore_state
 1794              	.LBB347:
 1795              	.LBB348:
 140:../src/tensorflow_lite/tensorflow/lite/micro/kernels/cmsis_nn/svdf.cc ****   const int input_size = input->dims->data[1];
 1796              		.loc 1 140 0
 1797 0274 042098E5 		ldr	r2, [r8, #4]
 142:../src/tensorflow_lite/tensorflow/lite/micro/kernels/cmsis_nn/svdf.cc ****   const int num_units = num_filters / rank;
 1798              		.loc 1 142 0
 1799 0278 041094E5 		ldr	r1, [r4, #4]
 1800              	.LBE348:
 1801              	.LBE347:
 446:../src/tensorflow_lite/tensorflow/lite/micro/kernels/cmsis_nn/svdf.cc ****                     output);
 1802              		.loc 1 446 0
 1803 027c 100096E5 		ldr	r0, [r6, #16]
 1804 0280 44308DE5 		str	r3, [sp, #68]
 1805              	.LBB522:
 1806              	.LBB519:
 139:../src/tensorflow_lite/tensorflow/lite/micro/kernels/cmsis_nn/svdf.cc ****   const int batch_size = input->dims->data[0];
 1807              		.loc 1 139 0
 1808 0284 54309DE5 		ldr	r3, [sp, #84]
 1809              	.LBE519:
 1810              	.LBE522:
 446:../src/tensorflow_lite/tensorflow/lite/micro/kernels/cmsis_nn/svdf.cc ****                     output);
 1811              		.loc 1 446 0
 1812 0288 40008DE5 		str	r0, [sp, #64]
 1813              	.LVL209:
 1814              	.LBB523:
 1815              	.LBB520:
 140:../src/tensorflow_lite/tensorflow/lite/micro/kernels/cmsis_nn/svdf.cc ****   const int input_size = input->dims->data[1];
 1816              		.loc 1 140 0
 1817 028c 040092E5 		ldr	r0, [r2, #4]
 1818              	.LVL210:
 139:../src/tensorflow_lite/tensorflow/lite/micro/kernels/cmsis_nn/svdf.cc ****   const int batch_size = input->dims->data[0];
 1819              		.loc 1 139 0
 1820 0290 005093E5 		ldr	r5, [r3]
 1821              	.LVL211:
 142:../src/tensorflow_lite/tensorflow/lite/micro/kernels/cmsis_nn/svdf.cc ****   const int num_units = num_filters / rank;
 1822              		.loc 1 142 0
 1823 0294 043091E5 		ldr	r3, [r1, #4]
 140:../src/tensorflow_lite/tensorflow/lite/micro/kernels/cmsis_nn/svdf.cc ****   const int input_size = input->dims->data[1];
 1824              		.loc 1 140 0
 1825 0298 3C008DE5 		str	r0, [sp, #60]
 1826              	.LVL212:
 143:../src/tensorflow_lite/tensorflow/lite/micro/kernels/cmsis_nn/svdf.cc ****   const int memory_size = weights_time->dims->data[1];
 1827              		.loc 1 143 0
 1828 029c 0510A0E1 		mov	r1, r5
 141:../src/tensorflow_lite/tensorflow/lite/micro/kernels/cmsis_nn/svdf.cc ****   const int num_filters = weights_feature->dims->data[0];
 1829              		.loc 1 141 0
 1830 02a0 086092E5 		ldr	r6, [r2, #8]
 1831              	.LVL213:
 143:../src/tensorflow_lite/tensorflow/lite/micro/kernels/cmsis_nn/svdf.cc ****   const int memory_size = weights_time->dims->data[1];
 1832              		.loc 1 143 0
 1833 02a4 0300A0E1 		mov	r0, r3
 1834              	.LVL214:
 142:../src/tensorflow_lite/tensorflow/lite/micro/kernels/cmsis_nn/svdf.cc ****   const int num_units = num_filters / rank;
 1835              		.loc 1 142 0
 1836 02a8 64308DE5 		str	r3, [sp, #100]
 1837              	.LVL215:
 143:../src/tensorflow_lite/tensorflow/lite/micro/kernels/cmsis_nn/svdf.cc ****   const int memory_size = weights_time->dims->data[1];
 1838              		.loc 1 143 0
 1839 02ac FEFFFFEB 		bl	__aeabi_idiv
 1840              	.LVL216:
 1841              	.LBB349:
 1842              	.LBB350:
 1843              		.loc 4 63 0
 1844 02b0 003094E5 		ldr	r3, [r4]
 1845              	.LBE350:
 1846              	.LBE349:
 1847              	.LBB352:
 1848              	.LBB353:
  62:C:/Renesas/e2studio_2021_01_workspace_RZA2M_ANPR/ANPR_RZA2M_GR_MANGO/src/tensorflow_lite/tensorflow/lite/micro/kernels\kernel_util.h ****   return reinterpret_cast<const T*>(tensor->data.raw);
 1849              		.loc 4 62 0
 1850 02b4 00005AE3 		cmp	r10, #0
 1851              	.LBE353:
 1852              	.LBE352:
 144:../src/tensorflow_lite/tensorflow/lite/micro/kernels/cmsis_nn/svdf.cc **** 
 1853              		.loc 1 144 0
 1854 02b8 042099E5 		ldr	r2, [r9, #4]
 143:../src/tensorflow_lite/tensorflow/lite/micro/kernels/cmsis_nn/svdf.cc ****   const int memory_size = weights_time->dims->data[1];
 1855              		.loc 1 143 0
 1856 02bc 58008DE5 		str	r0, [sp, #88]
 1857              	.LVL217:
 1858              	.LBB357:
 1859              	.LBB351:
 1860              		.loc 4 63 0
 1861 02c0 48308DE5 		str	r3, [sp, #72]
 1862              	.LBE351:
 1863              	.LBE357:
 1864              	.LBB358:
 1865              	.LBB359:
 1866 02c4 003099E5 		ldr	r3, [r9]
 1867              	.LBE359:
 1868              	.LBE358:
 144:../src/tensorflow_lite/tensorflow/lite/micro/kernels/cmsis_nn/svdf.cc **** 
 1869              		.loc 1 144 0
 1870 02c8 084092E5 		ldr	r4, [r2, #8]
 1871              	.LVL218:
 1872              	.LBB361:
 1873              	.LBB360:
 1874              		.loc 4 63 0
 1875 02cc 4C308DE5 		str	r3, [sp, #76]
 1876              	.LBE360:
 1877              	.LBE361:
 1878              	.LBB362:
 1879              	.LBB354:
  62:C:/Renesas/e2studio_2021_01_workspace_RZA2M_ANPR/ANPR_RZA2M_GR_MANGO/src/tensorflow_lite/tensorflow/lite/micro/kernels\kernel_util.h ****   return reinterpret_cast<const T*>(tensor->data.raw);
 1880              		.loc 4 62 0
 1881 02d0 AB01000A 		beq	.L110
 1882              	.LBE354:
 1883              	.LBE362:
 1884              	.LBB363:
 1885              	.LBB364:
  56:C:/Renesas/e2studio_2021_01_workspace_RZA2M_ANPR/ANPR_RZA2M_GR_MANGO/src/tensorflow_lite/tensorflow/lite/micro/kernels\kernel_util.h **** }
 1886              		.loc 4 56 0
 1887 02d4 00005BE3 		cmp	fp, #0
 1888              	.LBE364:
 1889              	.LBE363:
 1890              	.LBB368:
 1891              	.LBB355:
 1892              		.loc 4 63 0
 1893 02d8 00309AE5 		ldr	r3, [r10]
 1894              	.LBE355:
 1895              	.LBE368:
 1896              	.LBB369:
 1897              	.LBB365:
  56:C:/Renesas/e2studio_2021_01_workspace_RZA2M_ANPR/ANPR_RZA2M_GR_MANGO/src/tensorflow_lite/tensorflow/lite/micro/kernels\kernel_util.h **** }
 1898              		.loc 4 56 0
 1899 02dc 00209B15 		ldrne	r2, [fp]
 1900 02e0 5CB08D05 		streq	fp, [sp, #92]
 1901              	.LBE365:
 1902              	.LBE369:
 1903              	.LBB370:
 1904              	.LBB356:
 1905              		.loc 4 63 0
 1906 02e4 68308DE5 		str	r3, [sp, #104]
 1907              	.LVL219:
 1908              	.LBE356:
 1909              	.LBE370:
 1910              	.LBB371:
 1911              	.LBB366:
  56:C:/Renesas/e2studio_2021_01_workspace_RZA2M_ANPR/ANPR_RZA2M_GR_MANGO/src/tensorflow_lite/tensorflow/lite/micro/kernels\kernel_util.h **** }
 1912              		.loc 4 56 0
 1913 02e8 5C208D15 		strne	r2, [sp, #92]
 1914              	.LBE366:
 1915              	.LBE371:
 156:../src/tensorflow_lite/tensorflow/lite/micro/kernels/cmsis_nn/svdf.cc **** 
 1916              		.loc 1 156 0
 1917 02ec 442097E5 		ldr	r2, [r7, #68]
 1918              	.LBB372:
 1919              	.LBB367:
  56:C:/Renesas/e2studio_2021_01_workspace_RZA2M_ANPR/ANPR_RZA2M_GR_MANGO/src/tensorflow_lite/tensorflow/lite/micro/kernels\kernel_util.h **** }
 1920              		.loc 4 56 0
 1921 02f0 44309DE5 		ldr	r3, [sp, #68]
 1922              	.LVL220:
 1923              	.LBE367:
 1924              	.LBE372:
 1925              	.LBB373:
 1926              	.LBB374:
 1927              		.loc 4 63 0
 1928 02f4 008098E5 		ldr	r8, [r8]
 1929              	.LVL221:
 1930              	.LBE374:
 1931              	.LBE373:
 156:../src/tensorflow_lite/tensorflow/lite/micro/kernels/cmsis_nn/svdf.cc **** 
 1932              		.loc 1 156 0
 1933 02f8 000052E3 		cmp	r2, #0
 1934 02fc 44308DE5 		str	r3, [sp, #68]
 1935              	.LVL222:
 1936 0300 9F01000A 		beq	.L110
 159:../src/tensorflow_lite/tensorflow/lite/micro/kernels/cmsis_nn/svdf.cc **** 
 1937              		.loc 1 159 0
 1938 0304 40109DE5 		ldr	r1, [sp, #64]
 1939 0308 0700A0E1 		mov	r0, r7
 1940              	.LVL223:
 1941 030c 32FF2FE1 		blx	r2
 1942              	.LVL224:
 1943              	.LBB375:
 1944              	.LBB376:
  56:C:/Renesas/e2studio_2021_01_workspace_RZA2M_ANPR/ANPR_RZA2M_GR_MANGO/src/tensorflow_lite/tensorflow/lite/micro/kernels\kernel_util.h **** }
 1945              		.loc 4 56 0
 1946 0310 44309DE5 		ldr	r3, [sp, #68]
 1947              	.LBE376:
 1948              	.LBE375:
 1949              	.LBB378:
 168:../src/tensorflow_lite/tensorflow/lite/micro/kernels/cmsis_nn/svdf.cc ****     while (old_state_start != old_state_end) {
 1950              		.loc 1 168 0
 1951 0314 3C209DE5 		ldr	r2, [sp, #60]
 1952              	.LBE378:
 159:../src/tensorflow_lite/tensorflow/lite/micro/kernels/cmsis_nn/svdf.cc **** 
 1953              		.loc 1 159 0
 1954 0318 70008DE5 		str	r0, [sp, #112]
 1955              	.LVL225:
 1956              	.LBB379:
 1957              	.LBB377:
  56:C:/Renesas/e2studio_2021_01_workspace_RZA2M_ANPR/ANPR_RZA2M_GR_MANGO/src/tensorflow_lite/tensorflow/lite/micro/kernels\kernel_util.h **** }
 1958              		.loc 4 56 0
 1959 031c 000053E3 		cmp	r3, #0
 1960 0320 00309315 		ldrne	r3, [r3]
 1961              	.LVL226:
 1962 0324 60308DE5 		str	r3, [sp, #96]
 1963              	.LVL227:
 1964              	.LBE377:
 1965              	.LBE379:
 1966              	.LBB380:
 168:../src/tensorflow_lite/tensorflow/lite/micro/kernels/cmsis_nn/svdf.cc ****     while (old_state_start != old_state_end) {
 1967              		.loc 1 168 0
 1968 0328 64309DE5 		ldr	r3, [sp, #100]
 1969 032c 930202E0 		mul	r2, r3, r2
 166:../src/tensorflow_lite/tensorflow/lite/micro/kernels/cmsis_nn/svdf.cc ****     const float* old_state_end =
 1970              		.loc 1 166 0
 1971 0330 5C309DE5 		ldr	r3, [sp, #92]
 1972 0334 041083E2 		add	r1, r3, #4
 1973              	.LVL228:
 168:../src/tensorflow_lite/tensorflow/lite/micro/kernels/cmsis_nn/svdf.cc ****     while (old_state_start != old_state_end) {
 1974              		.loc 1 168 0
 1975 0338 940202E0 		mul	r2, r4, r2
 1976 033c 0221A0E1 		lsl	r2, r2, #2
 1977              	.LVL229:
 1978 0340 023083E0 		add	r3, r3, r2
 169:../src/tensorflow_lite/tensorflow/lite/micro/kernels/cmsis_nn/svdf.cc ****       *new_state_start++ = *old_state_start++;
 1979              		.loc 1 169 0
 1980 0344 030051E1 		cmp	r1, r3
 1981 0348 0200000A 		beq	.L120
 1982 034c 042042E2 		sub	r2, r2, #4
 1983              	.LVL230:
 1984 0350 5C009DE5 		ldr	r0, [sp, #92]
 1985              	.LVL231:
 1986 0354 FEFFFFEB 		bl	memmove
 1987              	.LVL232:
 1988              	.L120:
 1989              	.LBE380:
 1990              	.LBB381:
 1991              	.LBB382:
 187:../src/tensorflow_lite/tensorflow/lite/micro/kernels/cmsis_nn/svdf.cc ****       const float* matrix_ptr = matrix;
 1992              		.loc 1 187 0
 1993 0358 3C309DE5 		ldr	r3, [sp, #60]
 1994              	.LBE382:
 185:../src/tensorflow_lite/tensorflow/lite/micro/kernels/cmsis_nn/svdf.cc ****     float* result_in_batch = result;
 1995              		.loc 1 185 0
 1996 035c 079144E2 		sub	r9, r4, #-1073741823
 1997              	.LVL233:
 1998 0360 0991A0E1 		lsl	r9, r9, #2
 1999              	.LBB394:
 187:../src/tensorflow_lite/tensorflow/lite/micro/kernels/cmsis_nn/svdf.cc ****       const float* matrix_ptr = matrix;
 2000              		.loc 1 187 0
 2001 0364 000053E3 		cmp	r3, #0
 2002              	.LBE394:
 185:../src/tensorflow_lite/tensorflow/lite/micro/kernels/cmsis_nn/svdf.cc ****     float* result_in_batch = result;
 2003              		.loc 1 185 0
 2004 0368 5C309DE5 		ldr	r3, [sp, #92]
 2005 036c 093083E0 		add	r3, r3, r9
 2006 0370 40308DE5 		str	r3, [sp, #64]
 2007              	.LVL234:
 2008              	.LBB395:
 187:../src/tensorflow_lite/tensorflow/lite/micro/kernels/cmsis_nn/svdf.cc ****       const float* matrix_ptr = matrix;
 2009              		.loc 1 187 0
 2010 0374 700100DA 		ble	.L219
 2011 0378 64309DE5 		ldr	r3, [sp, #100]
 2012              	.LVL235:
 2013 037c 049089E2 		add	r9, r9, #4
 2014 0380 000053E3 		cmp	r3, #0
 2015 0384 780100DA 		ble	.L121
 2016 0388 990302E0 		mul	r2, r9, r3
 2017 038c 09E046E2 		sub	lr, r6, #9
 2018 0390 07E0CEE3 		bic	lr, lr, #7
 2019 0394 08B0A0E1 		mov	fp, r8
 2020              	.LVL236:
 2021 0398 08E08EE2 		add	lr, lr, #8
 2022 039c 6C508DE5 		str	r5, [sp, #108]
 2023 03a0 0380A0E1 		mov	r8, r3
 2024              	.LVL237:
 2025 03a4 0010A0E3 		mov	r1, #0
 2026 03a8 50208DE5 		str	r2, [sp, #80]
 2027 03ac 0621A0E1 		lsl	r2, r6, #2
 2028 03b0 44108DE5 		str	r1, [sp, #68]
 2029              	.LVL238:
 2030 03b4 02A0A0E1 		mov	r10, r2
 2031              	.LVL239:
 2032 03b8 74408DE5 		str	r4, [sp, #116]
 2033              	.LVL240:
 2034              	.L129:
 2035 03bc 48709DE5 		ldr	r7, [sp, #72]
 2036 03c0 0040A0E3 		mov	r4, #0
 2037 03c4 40509DE5 		ldr	r5, [sp, #64]
 2038              	.LVL241:
 2039              	.L127:
 2040              	.LBB383:
 2041              	.LBB384:
 2042              	.LBB385:
 2043              	.LBB386:
 192:../src/tensorflow_lite/tensorflow/lite/micro/kernels/cmsis_nn/svdf.cc ****           dot_prod += *matrix_ptr++ * *vector_in_batch++;
 2044              		.loc 1 192 0
 2045 03c8 000056E3 		cmp	r6, #0
 2046              	.LBE386:
 190:../src/tensorflow_lite/tensorflow/lite/micro/kernels/cmsis_nn/svdf.cc ****         const float* vector_in_batch = vector + i * input_size;
 2047              		.loc 1 190 0
 2048 03cc FB7ADFED 		vldr.32	s15, .L222
 2049              	.LBB387:
 192:../src/tensorflow_lite/tensorflow/lite/micro/kernels/cmsis_nn/svdf.cc ****           dot_prod += *matrix_ptr++ * *vector_in_batch++;
 2050              		.loc 1 192 0
 2051 03d0 2D0000DA 		ble	.L122
 2052 03d4 080056E3 		cmp	r6, #8
 2053 03d8 3B0100DA 		ble	.L174
 2054 03dc 203087E2 		add	r3, r7, #32
 2055 03e0 20208BE2 		add	r2, fp, #32
 2056 03e4 0010A0E3 		mov	r1, #0
 2057              	.LVL242:
 2058              	.L124:
 193:../src/tensorflow_lite/tensorflow/lite/micro/kernels/cmsis_nn/svdf.cc ****         }
 2059              		.loc 1 193 0
 2060 03e8 085A53ED 		vldr.32	s11, [r3, #-32]
 2061 03ec 081081E2 		add	r1, r1, #8
 2062              	.LVL243:
 2063 03f0 086A12ED 		vldr.32	s12, [r2, #-32]
 2064 03f4 0E0051E1 		cmp	r1, lr
 2065 03f8 076A53ED 		vldr.32	s13, [r3, #-28]
 2066 03fc 0300A0E1 		mov	r0, r3
 2067 0400 077A12ED 		vldr.32	s14, [r2, #-28]
 2068 0404 02C0A0E1 		mov	ip, r2
 2069 0408 061A53ED 		vldr.32	s3, [r3, #-24]
 2070 040c 202082E2 		add	r2, r2, #32
 2071 0410 867A45EE 		vmla.f32	s15, s11, s12
 2072              	.LVL244:
 2073 0414 0E2A12ED 		vldr.32	s4, [r2, #-56]
 2074 0418 052A53ED 		vldr.32	s5, [r3, #-20]
 2075 041c 0D3A12ED 		vldr.32	s6, [r2, #-52]
 2076 0420 043A53ED 		vldr.32	s7, [r3, #-16]
 2077 0424 0C4A12ED 		vldr.32	s8, [r2, #-48]
 2078 0428 034A53ED 		vldr.32	s9, [r3, #-12]
 2079 042c 877A46EE 		vmla.f32	s15, s13, s14
 2080              	.LVL245:
 2081 0430 0B5A12ED 		vldr.32	s10, [r2, #-44]
 2082 0434 025A53ED 		vldr.32	s11, [r3, #-8]
 2083 0438 0A6A12ED 		vldr.32	s12, [r2, #-40]
 2084 043c 016A53ED 		vldr.32	s13, [r3, #-4]
 2085 0440 097A12ED 		vldr.32	s14, [r2, #-36]
 2086 0444 3CF0D3F5 		pld	[r3, #60]
 2087 0448 203083E2 		add	r3, r3, #32
 2088              	.LVL246:
 2089 044c 827A41EE 		vmla.f32	s15, s3, s4
 2090              	.LVL247:
 2091 0450 837A42EE 		vmla.f32	s15, s5, s6
 2092              	.LVL248:
 2093 0454 847A43EE 		vmla.f32	s15, s7, s8
 2094              	.LVL249:
 2095 0458 857A44EE 		vmla.f32	s15, s9, s10
 2096              	.LVL250:
 2097 045c 867A45EE 		vmla.f32	s15, s11, s12
 2098              	.LVL251:
 2099 0460 877A46EE 		vmla.f32	s15, s13, s14
 2100              	.LVL252:
 2101 0464 DFFFFF1A 		bne	.L124
 2102 0468 0C20A0E1 		mov	r2, ip
 2103 046c 0030A0E1 		mov	r3, r0
 2104              	.LVL253:
 2105              	.L126:
 2106 0470 016AF3EC 		vldmia.32	r3!, {s13}
 2107              	.LVL254:
 192:../src/tensorflow_lite/tensorflow/lite/micro/kernels/cmsis_nn/svdf.cc ****           dot_prod += *matrix_ptr++ * *vector_in_batch++;
 2108              		.loc 1 192 0
 2109 0474 011081E2 		add	r1, r1, #1
 2110              	.LVL255:
 193:../src/tensorflow_lite/tensorflow/lite/micro/kernels/cmsis_nn/svdf.cc ****         }
 2111              		.loc 1 193 0
 2112 0478 017AB2EC 		vldmia.32	r2!, {s14}
 2113              	.LVL256:
 192:../src/tensorflow_lite/tensorflow/lite/micro/kernels/cmsis_nn/svdf.cc ****           dot_prod += *matrix_ptr++ * *vector_in_batch++;
 2114              		.loc 1 192 0
 2115 047c 010056E1 		cmp	r6, r1
 193:../src/tensorflow_lite/tensorflow/lite/micro/kernels/cmsis_nn/svdf.cc ****         }
 2116              		.loc 1 193 0
 2117 0480 877A46EE 		vmla.f32	s15, s13, s14
 2118              	.LVL257:
 192:../src/tensorflow_lite/tensorflow/lite/micro/kernels/cmsis_nn/svdf.cc ****           dot_prod += *matrix_ptr++ * *vector_in_batch++;
 2119              		.loc 1 192 0
 2120 0484 F9FFFFCA 		bgt	.L126
 2121 0488 0A7087E0 		add	r7, r7, r10
 2122              	.LVL258:
 2123              	.L122:
 2124              	.LBE387:
 2125              	.LBE385:
 189:../src/tensorflow_lite/tensorflow/lite/micro/kernels/cmsis_nn/svdf.cc ****         float dot_prod = 0.0f;
 2126              		.loc 1 189 0
 2127 048c 014084E2 		add	r4, r4, #1
 2128              	.LVL259:
 2129              	.LBB389:
 195:../src/tensorflow_lite/tensorflow/lite/micro/kernels/cmsis_nn/svdf.cc ****         result_in_batch += memory_size;
 2130              		.loc 1 195 0
 2131 0490 007AC5ED 		vstr.32	s15, [r5]
 2132              	.LBE389:
 189:../src/tensorflow_lite/tensorflow/lite/micro/kernels/cmsis_nn/svdf.cc ****         float dot_prod = 0.0f;
 2133              		.loc 1 189 0
 2134 0494 040058E1 		cmp	r8, r4
 2135              	.LBB390:
 196:../src/tensorflow_lite/tensorflow/lite/micro/kernels/cmsis_nn/svdf.cc ****       }
 2136              		.loc 1 196 0
 2137 0498 095085E0 		add	r5, r5, r9
 2138              	.LVL260:
 2139              	.LBE390:
 189:../src/tensorflow_lite/tensorflow/lite/micro/kernels/cmsis_nn/svdf.cc ****         float dot_prod = 0.0f;
 2140              		.loc 1 189 0
 2141 049c C9FFFF1A 		bne	.L127
 2142 04a0 40209DE5 		ldr	r2, [sp, #64]
 2143 04a4 0AB08BE0 		add	fp, fp, r10
 2144 04a8 50109DE5 		ldr	r1, [sp, #80]
 2145              	.LBE384:
 2146              	.LBE383:
 187:../src/tensorflow_lite/tensorflow/lite/micro/kernels/cmsis_nn/svdf.cc ****       const float* matrix_ptr = matrix;
 2147              		.loc 1 187 0
 2148 04ac 44309DE5 		ldr	r3, [sp, #68]
 2149 04b0 012082E0 		add	r2, r2, r1
 2150 04b4 40208DE5 		str	r2, [sp, #64]
 2151 04b8 013083E2 		add	r3, r3, #1
 2152 04bc 3C209DE5 		ldr	r2, [sp, #60]
 2153 04c0 44308DE5 		str	r3, [sp, #68]
 2154              	.LVL261:
 2155 04c4 030052E1 		cmp	r2, r3
 2156 04c8 BBFFFF1A 		bne	.L129
 2157 04cc 74409DE5 		ldr	r4, [sp, #116]
 2158              	.LVL262:
 2159              	.LBE395:
 2160              	.LBE381:
 2161              	.LBB397:
 2162              	.LBB398:
 2163              	.LBB399:
 2164              	.LBB400:
 2165              	.LBB401:
  84:../src/tensorflow_lite/tensorflow/lite/micro/kernels/cmsis_nn/svdf.cc ****       for (int j = 0; j < memory_size; ++j) {
 2166              		.loc 1 84 0
 2167 04d0 00B0A0E3 		mov	fp, #0
 2168 04d4 64A09DE5 		ldr	r10, [sp, #100]
 2169              	.LBE401:
 2170              	.LBE400:
 2171              	.LBE399:
 2172              	.LBE398:
 2173              	.LBE397:
 203:../src/tensorflow_lite/tensorflow/lite/micro/kernels/cmsis_nn/svdf.cc **** }
 2174              		.loc 1 203 0
 2175 04d8 54109DE5 		ldr	r1, [sp, #84]
 2176 04dc 09E044E2 		sub	lr, r4, #9
 2177 04e0 6C509DE5 		ldr	r5, [sp, #108]
 2178 04e4 07E0CEE3 		bic	lr, lr, #7
 2179 04e8 940A03E0 		mul	r3, r4, r10
 2180              	.LVL263:
 2181 04ec 0410D1E5 		ldrb	r1, [r1, #4]	@ zero_extendqisi2
 2182 04f0 0A21A0E1 		lsl	r2, r10, #2
 2183 04f4 08E08EE2 		add	lr, lr, #8
 2184 04f8 6C108DE5 		str	r1, [sp, #108]
 2185              	.LVL264:
 2186 04fc 0331A0E1 		lsl	r3, r3, #2
 2187 0500 5C109DE5 		ldr	r1, [sp, #92]
 2188 0504 50208DE5 		str	r2, [sp, #80]
 2189 0508 54308DE5 		str	r3, [sp, #84]
 2190 050c 70309DE5 		ldr	r3, [sp, #112]
 2191 0510 40108DE5 		str	r1, [sp, #64]
 2192              	.LVL265:
 2193 0514 5C508DE5 		str	r5, [sp, #92]
 2194              	.LVL266:
 2195 0518 44308DE5 		str	r3, [sp, #68]
 2196              	.LVL267:
 2197 051c 0030A0E3 		mov	r3, #0
 2198 0520 48308DE5 		str	r3, [sp, #72]
 2199              	.LVL268:
 2200              	.L132:
 2201              	.LBB513:
 2202              	.LBB412:
 2203              	.LBB410:
  80:../src/tensorflow_lite/tensorflow/lite/micro/kernels/cmsis_nn/svdf.cc ****     const float* vector1_ptr = weights_time_ptr;
 2204              		.loc 1 80 0
 2205 0524 44509DE5 		ldr	r5, [sp, #68]
 2206              	.LVL269:
  82:../src/tensorflow_lite/tensorflow/lite/micro/kernels/cmsis_nn/svdf.cc ****     for (int i = 0; i < num_filters; ++i) {
 2207              		.loc 1 82 0
 2208 0528 0060A0E3 		mov	r6, #0
 2209 052c 40809DE5 		ldr	r8, [sp, #64]
 2210              	.LVL270:
 2211 0530 4C709DE5 		ldr	r7, [sp, #76]
 2212              	.LVL271:
 2213              	.L130:
 2214              	.LBB408:
 2215              	.LBB405:
 2216              	.LBB402:
  85:../src/tensorflow_lite/tensorflow/lite/micro/kernels/cmsis_nn/svdf.cc ****         *scratch_ptr_batch += *vector1_ptr++ * *vector2_ptr++;
 2217              		.loc 1 85 0
 2218 0534 000054E3 		cmp	r4, #0
 2219              	.LBE402:
  84:../src/tensorflow_lite/tensorflow/lite/micro/kernels/cmsis_nn/svdf.cc ****       for (int j = 0; j < memory_size; ++j) {
 2220              		.loc 1 84 0
 2221 0538 00B085E5 		str	fp, [r5]	@ float
 2222              	.LVL272:
 2223              	.LBB403:
  85:../src/tensorflow_lite/tensorflow/lite/micro/kernels/cmsis_nn/svdf.cc ****         *scratch_ptr_batch += *vector1_ptr++ * *vector2_ptr++;
 2224              		.loc 1 85 0
 2225 053c 300000DA 		ble	.L133
 2226 0540 080054E3 		cmp	r4, #8
 2227 0544 9D7ADFED 		vldr.32	s15, .L222
 2228 0548 DB0000DA 		ble	.L175
 2229 054c 203087E2 		add	r3, r7, #32
 2230 0550 202088E2 		add	r2, r8, #32
 2231 0554 0010A0E3 		mov	r1, #0
 2232              	.LVL273:
 2233              	.L135:
  86:../src/tensorflow_lite/tensorflow/lite/micro/kernels/cmsis_nn/svdf.cc ****       }
 2234              		.loc 1 86 0
 2235 0558 085A53ED 		vldr.32	s11, [r3, #-32]
 2236 055c 081081E2 		add	r1, r1, #8
 2237              	.LVL274:
 2238 0560 086A12ED 		vldr.32	s12, [r2, #-32]
 2239 0564 0E0051E1 		cmp	r1, lr
 2240 0568 076A52ED 		vldr.32	s13, [r2, #-28]
 2241 056c 0300A0E1 		mov	r0, r3
 2242 0570 077A13ED 		vldr.32	s14, [r3, #-28]
 2243 0574 02C0A0E1 		mov	ip, r2
 2244              	.LVL275:
 2245 0578 061A53ED 		vldr.32	s3, [r3, #-24]
 2246 057c 202082E2 		add	r2, r2, #32
 2247              	.LVL276:
 2248 0580 867A45EE 		vmla.f32	s15, s11, s12
 2249 0584 0E2A12ED 		vldr.32	s4, [r2, #-56]
 2250 0588 052A53ED 		vldr.32	s5, [r3, #-20]
 2251 058c 0D3A12ED 		vldr.32	s6, [r2, #-52]
 2252 0590 043A53ED 		vldr.32	s7, [r3, #-16]
 2253 0594 0C4A12ED 		vldr.32	s8, [r2, #-48]
 2254 0598 034A53ED 		vldr.32	s9, [r3, #-12]
 2255 059c 877A46EE 		vmla.f32	s15, s13, s14
 2256 05a0 0B5A12ED 		vldr.32	s10, [r2, #-44]
 2257 05a4 025A53ED 		vldr.32	s11, [r3, #-8]
 2258 05a8 0A6A12ED 		vldr.32	s12, [r2, #-40]
 2259 05ac 016A53ED 		vldr.32	s13, [r3, #-4]
 2260 05b0 097A12ED 		vldr.32	s14, [r2, #-36]
 2261 05b4 3CF0D3F5 		pld	[r3, #60]
 2262 05b8 203083E2 		add	r3, r3, #32
 2263              	.LVL277:
 2264 05bc 827A41EE 		vmla.f32	s15, s3, s4
 2265 05c0 837A42EE 		vmla.f32	s15, s5, s6
 2266 05c4 847A43EE 		vmla.f32	s15, s7, s8
 2267 05c8 857A44EE 		vmla.f32	s15, s9, s10
 2268 05cc 867A45EE 		vmla.f32	s15, s11, s12
 2269 05d0 877A46EE 		vmla.f32	s15, s13, s14
 2270 05d4 DFFFFF1A 		bne	.L135
 2271 05d8 0C20A0E1 		mov	r2, ip
 2272 05dc 0030A0E1 		mov	r3, r0
 2273              	.LVL278:
 2274              	.L137:
 2275 05e0 016AF2EC 		vldmia.32	r2!, {s13}
 2276              	.LVL279:
  85:../src/tensorflow_lite/tensorflow/lite/micro/kernels/cmsis_nn/svdf.cc ****         *scratch_ptr_batch += *vector1_ptr++ * *vector2_ptr++;
 2277              		.loc 1 85 0
 2278 05e4 011081E2 		add	r1, r1, #1
 2279              	.LVL280:
  86:../src/tensorflow_lite/tensorflow/lite/micro/kernels/cmsis_nn/svdf.cc ****       }
 2280              		.loc 1 86 0
 2281 05e8 017AB3EC 		vldmia.32	r3!, {s14}
 2282              	.LVL281:
  85:../src/tensorflow_lite/tensorflow/lite/micro/kernels/cmsis_nn/svdf.cc ****         *scratch_ptr_batch += *vector1_ptr++ * *vector2_ptr++;
 2283              		.loc 1 85 0
 2284 05ec 010054E1 		cmp	r4, r1
  86:../src/tensorflow_lite/tensorflow/lite/micro/kernels/cmsis_nn/svdf.cc ****       }
 2285              		.loc 1 86 0
 2286 05f0 877A46EE 		vmla.f32	s15, s13, s14
  85:../src/tensorflow_lite/tensorflow/lite/micro/kernels/cmsis_nn/svdf.cc ****         *scratch_ptr_batch += *vector1_ptr++ * *vector2_ptr++;
 2287              		.loc 1 85 0
 2288 05f4 F9FFFFCA 		bgt	.L137
 2289 05f8 097087E0 		add	r7, r7, r9
 2290 05fc 098088E0 		add	r8, r8, r9
 2291 0600 007AC5ED 		vstr.32	s15, [r5]
 2292              	.LVL282:
 2293              	.L133:
 2294              	.LBE403:
 2295              	.LBE405:
  83:../src/tensorflow_lite/tensorflow/lite/micro/kernels/cmsis_nn/svdf.cc ****       *scratch_ptr_batch = 0.f;
 2296              		.loc 1 83 0
 2297 0604 016086E2 		add	r6, r6, #1
 2298              	.LVL283:
 2299              	.LBB406:
  88:../src/tensorflow_lite/tensorflow/lite/micro/kernels/cmsis_nn/svdf.cc ****     }
 2300              		.loc 1 88 0
 2301 0608 045085E2 		add	r5, r5, #4
 2302              	.LVL284:
 2303              	.LBE406:
  83:../src/tensorflow_lite/tensorflow/lite/micro/kernels/cmsis_nn/svdf.cc ****       *scratch_ptr_batch = 0.f;
 2304              		.loc 1 83 0
 2305 060c 06005AE1 		cmp	r10, r6
 2306 0610 C7FFFF1A 		bne	.L130
 2307 0614 44209DE5 		ldr	r2, [sp, #68]
 2308 0618 50109DE5 		ldr	r1, [sp, #80]
 2309              	.LBE408:
 2310              	.LBE410:
  78:../src/tensorflow_lite/tensorflow/lite/micro/kernels/cmsis_nn/svdf.cc ****     // Perform batched vector dot product:
 2311              		.loc 1 78 0
 2312 061c 48309DE5 		ldr	r3, [sp, #72]
 2313 0620 012082E0 		add	r2, r2, r1
 2314 0624 44208DE5 		str	r2, [sp, #68]
 2315 0628 013083E2 		add	r3, r3, #1
 2316 062c 3C209DE5 		ldr	r2, [sp, #60]
 2317 0630 48308DE5 		str	r3, [sp, #72]
 2318              	.LVL285:
 2319 0634 030052E1 		cmp	r2, r3
 2320 0638 40309DE5 		ldr	r3, [sp, #64]
 2321              	.LVL286:
 2322 063c 54209DE5 		ldr	r2, [sp, #84]
 2323 0640 023083E0 		add	r3, r3, r2
 2324 0644 40308DE5 		str	r3, [sp, #64]
 2325 0648 B5FFFF1A 		bne	.L132
 2326 064c 5C509DE5 		ldr	r5, [sp, #92]
 2327              	.LVL287:
 2328              	.L131:
 2329              	.LBE412:
 2330              	.LBB413:
  93:../src/tensorflow_lite/tensorflow/lite/micro/kernels/cmsis_nn/svdf.cc ****     // VectorBatchVectorAssign
 2331              		.loc 1 93 0
 2332 0650 68309DE5 		ldr	r3, [sp, #104]
 2333 0654 000053E3 		cmp	r3, #0
 2334 0658 A600000A 		beq	.L220
 2335              	.LVL288:
 2336 065c 58309DE5 		ldr	r3, [sp, #88]
 2337 0660 000053E3 		cmp	r3, #0
 2338 0664 F3FEFFDA 		ble	.L206
 2339 0668 0341A0E1 		lsl	r4, r3, #2
 2340 066c 3C709DE5 		ldr	r7, [sp, #60]
 2341 0670 60309DE5 		ldr	r3, [sp, #96]
 2342 0674 0060A0E3 		mov	r6, #0
 2343 0678 68809DE5 		ldr	r8, [sp, #104]
 2344              	.LVL289:
 2345              	.L144:
 2346 067c 0300A0E1 		mov	r0, r3
 2347              	.LBB414:
  95:../src/tensorflow_lite/tensorflow/lite/micro/kernels/cmsis_nn/svdf.cc ****       float* output_data = output_ptr + i * num_units;
 2348              		.loc 1 95 0
 2349 0680 016086E2 		add	r6, r6, #1
 2350              	.LVL290:
 2351 0684 0420A0E1 		mov	r2, r4
 2352 0688 0810A0E1 		mov	r1, r8
 2353 068c FEFFFFEB 		bl	memmove
 2354              	.LVL291:
 2355 0690 060057E1 		cmp	r7, r6
 2356 0694 043080E0 		add	r3, r0, r4
 2357 0698 F7FFFF1A 		bne	.L144
 2358              	.LVL292:
 2359              	.L143:
 2360 069c 64309DE5 		ldr	r3, [sp, #100]
 2361 06a0 090045E2 		sub	r0, r5, #9
 2362 06a4 70909DE5 		ldr	r9, [sp, #112]
 2363 06a8 0700C0E3 		bic	r0, r0, #7
 2364 06ac 60A09DE5 		ldr	r10, [sp, #96]
 2365 06b0 0571A0E1 		lsl	r7, r5, #2
 2366 06b4 080080E2 		add	r0, r0, #8
 2367 06b8 03B1A0E1 		lsl	fp, r3, #2
 2368              	.LBE414:
  93:../src/tensorflow_lite/tensorflow/lite/micro/kernels/cmsis_nn/svdf.cc ****     // VectorBatchVectorAssign
 2369              		.loc 1 93 0
 2370 06bc 0080A0E3 		mov	r8, #0
 2371 06c0 40B08DE5 		str	fp, [sp, #64]
 2372 06c4 58B09DE5 		ldr	fp, [sp, #88]
 2373              	.LVL293:
 2374              	.L147:
 2375              	.LBE413:
 2376              	.LBB423:
 2377              	.LBB424:
 112:../src/tensorflow_lite/tensorflow/lite/micro/kernels/cmsis_nn/svdf.cc **** 
 2378              		.loc 1 112 0
 2379 06c8 0960A0E1 		mov	r6, r9
 2380              	.LVL294:
 2381 06cc 0AC0A0E1 		mov	ip, r10
 2382 06d0 00E0A0E3 		mov	lr, #0
 2383              	.LVL295:
 2384              	.L145:
 2385              	.LBB425:
 2386              	.LBB426:
 116:../src/tensorflow_lite/tensorflow/lite/micro/kernels/cmsis_nn/svdf.cc ****         output_ptr_batch[i] += *scratch_ptr_batch++;
 2387              		.loc 1 116 0
 2388 06d4 000055E3 		cmp	r5, #0
 2389 06d8 220000DA 		ble	.L148
 2390 06dc 080055E3 		cmp	r5, #8
 2391 06e0 007ADCED 		vldr.32	s15, [ip]
 2392 06e4 710000DA 		ble	.L176
 2393 06e8 203086E2 		add	r3, r6, #32
 2394 06ec 0020A0E3 		mov	r2, #0
 2395              	.LVL296:
 2396              	.L150:
 117:../src/tensorflow_lite/tensorflow/lite/micro/kernels/cmsis_nn/svdf.cc ****       }
 2397              		.loc 1 117 0
 2398 06f0 086A53ED 		vldr.32	s13, [r3, #-32]
 2399 06f4 082082E2 		add	r2, r2, #8
 2400              	.LVL297:
 2401 06f8 077A13ED 		vldr.32	s14, [r3, #-28]
 2402 06fc 000052E1 		cmp	r2, r0
 2403 0700 064A53ED 		vldr.32	s9, [r3, #-24]
 2404 0704 0310A0E1 		mov	r1, r3
 2405              	.LVL298:
 2406 0708 055A13ED 		vldr.32	s10, [r3, #-20]
 2407 070c A67A77EE 		vadd.f32	s15, s15, s13
 2408 0710 045A53ED 		vldr.32	s11, [r3, #-16]
 2409 0714 036A13ED 		vldr.32	s12, [r3, #-12]
 2410 0718 026A53ED 		vldr.32	s13, [r3, #-8]
 2411 071c 877A77EE 		vadd.f32	s15, s15, s14
 2412 0720 017A13ED 		vldr.32	s14, [r3, #-4]
 2413 0724 68F0D3F5 		pld	[r3, #104]
 2414 0728 203083E2 		add	r3, r3, #32
 2415              	.LVL299:
 2416 072c A47A77EE 		vadd.f32	s15, s15, s9
 2417 0730 857A77EE 		vadd.f32	s15, s15, s10
 2418 0734 A57A77EE 		vadd.f32	s15, s15, s11
 2419 0738 867A77EE 		vadd.f32	s15, s15, s12
 2420 073c A67A77EE 		vadd.f32	s15, s15, s13
 2421 0740 877A77EE 		vadd.f32	s15, s15, s14
 2422 0744 E9FFFF1A 		bne	.L150
 2423 0748 0130A0E1 		mov	r3, r1
 2424              	.LVL300:
 2425              	.L152:
 2426 074c 017AB3EC 		vldmia.32	r3!, {s14}
 2427              	.LVL301:
 116:../src/tensorflow_lite/tensorflow/lite/micro/kernels/cmsis_nn/svdf.cc ****         output_ptr_batch[i] += *scratch_ptr_batch++;
 2428              		.loc 1 116 0
 2429 0750 012082E2 		add	r2, r2, #1
 2430              	.LVL302:
 2431 0754 020055E1 		cmp	r5, r2
 117:../src/tensorflow_lite/tensorflow/lite/micro/kernels/cmsis_nn/svdf.cc ****       }
 2432              		.loc 1 117 0
 2433 0758 877A77EE 		vadd.f32	s15, s15, s14
 116:../src/tensorflow_lite/tensorflow/lite/micro/kernels/cmsis_nn/svdf.cc ****         output_ptr_batch[i] += *scratch_ptr_batch++;
 2434              		.loc 1 116 0
 2435 075c FAFFFFCA 		bgt	.L152
 2436 0760 076086E0 		add	r6, r6, r7
 2437 0764 007ACCED 		vstr.32	s15, [ip]
 2438              	.LVL303:
 2439              	.L148:
 2440              	.LBE426:
 115:../src/tensorflow_lite/tensorflow/lite/micro/kernels/cmsis_nn/svdf.cc ****       for (int j = 0; j < rank; j++) {
 2441              		.loc 1 115 0
 2442 0768 01E08EE2 		add	lr, lr, #1
 2443              	.LVL304:
 2444 076c 04C08CE2 		add	ip, ip, #4
 2445 0770 0E005BE1 		cmp	fp, lr
 2446 0774 D6FFFF1A 		bne	.L145
 2447 0778 40309DE5 		ldr	r3, [sp, #64]
 2448              	.LBE425:
 2449              	.LBE424:
 110:../src/tensorflow_lite/tensorflow/lite/micro/kernels/cmsis_nn/svdf.cc ****     float* output_ptr_batch = output_ptr + b * num_units;
 2450              		.loc 1 110 0
 2451 077c 018088E2 		add	r8, r8, #1
 2452              	.LVL305:
 2453 0780 04A08AE0 		add	r10, r10, r4
 2454 0784 039089E0 		add	r9, r9, r3
 2455 0788 3C309DE5 		ldr	r3, [sp, #60]
 2456 078c 080053E1 		cmp	r3, r8
 2457 0790 CCFFFFCA 		bgt	.L147
 2458 0794 60609DE5 		ldr	r6, [sp, #96]
 2459              	.LVL306:
 2460 0798 03B0A0E1 		mov	fp, r3
 2461              	.LVL307:
 2462              	.LBE423:
 2463              	.LBB430:
 2464              	.LBB431:
 2465              	.LBB432:
 2466              	.LBB433:
 2467              	.LBB434:
 2468              		.file 5 "C:/Renesas/e2studio_2021_01_workspace_RZA2M_ANPR/ANPR_RZA2M_GR_MANGO/src/tensorflow_lite/
   1:C:/Renesas/e2studio_2021_01_workspace_RZA2M_ANPR/ANPR_RZA2M_GR_MANGO/src/tensorflow_lite/tensorflow/lite/micro/kernels\activation_utils.h **** /* Copyright 2019 The TensorFlow Authors. All Rights Reserved.
   2:C:/Renesas/e2studio_2021_01_workspace_RZA2M_ANPR/ANPR_RZA2M_GR_MANGO/src/tensorflow_lite/tensorflow/lite/micro/kernels\activation_utils.h **** 
   3:C:/Renesas/e2studio_2021_01_workspace_RZA2M_ANPR/ANPR_RZA2M_GR_MANGO/src/tensorflow_lite/tensorflow/lite/micro/kernels\activation_utils.h **** Licensed under the Apache License, Version 2.0 (the "License");
   4:C:/Renesas/e2studio_2021_01_workspace_RZA2M_ANPR/ANPR_RZA2M_GR_MANGO/src/tensorflow_lite/tensorflow/lite/micro/kernels\activation_utils.h **** you may not use this file except in compliance with the License.
   5:C:/Renesas/e2studio_2021_01_workspace_RZA2M_ANPR/ANPR_RZA2M_GR_MANGO/src/tensorflow_lite/tensorflow/lite/micro/kernels\activation_utils.h **** You may obtain a copy of the License at
   6:C:/Renesas/e2studio_2021_01_workspace_RZA2M_ANPR/ANPR_RZA2M_GR_MANGO/src/tensorflow_lite/tensorflow/lite/micro/kernels\activation_utils.h **** 
   7:C:/Renesas/e2studio_2021_01_workspace_RZA2M_ANPR/ANPR_RZA2M_GR_MANGO/src/tensorflow_lite/tensorflow/lite/micro/kernels\activation_utils.h ****     http://www.apache.org/licenses/LICENSE-2.0
   8:C:/Renesas/e2studio_2021_01_workspace_RZA2M_ANPR/ANPR_RZA2M_GR_MANGO/src/tensorflow_lite/tensorflow/lite/micro/kernels\activation_utils.h **** 
   9:C:/Renesas/e2studio_2021_01_workspace_RZA2M_ANPR/ANPR_RZA2M_GR_MANGO/src/tensorflow_lite/tensorflow/lite/micro/kernels\activation_utils.h **** Unless required by applicable law or agreed to in writing, software
  10:C:/Renesas/e2studio_2021_01_workspace_RZA2M_ANPR/ANPR_RZA2M_GR_MANGO/src/tensorflow_lite/tensorflow/lite/micro/kernels\activation_utils.h **** distributed under the License is distributed on an "AS IS" BASIS,
  11:C:/Renesas/e2studio_2021_01_workspace_RZA2M_ANPR/ANPR_RZA2M_GR_MANGO/src/tensorflow_lite/tensorflow/lite/micro/kernels\activation_utils.h **** WITHOUT WARRANTIES OR CONDITIONS OF ANY KIND, either express or implied.
  12:C:/Renesas/e2studio_2021_01_workspace_RZA2M_ANPR/ANPR_RZA2M_GR_MANGO/src/tensorflow_lite/tensorflow/lite/micro/kernels\activation_utils.h **** See the License for the specific language governing permissions and
  13:C:/Renesas/e2studio_2021_01_workspace_RZA2M_ANPR/ANPR_RZA2M_GR_MANGO/src/tensorflow_lite/tensorflow/lite/micro/kernels\activation_utils.h **** limitations under the License.
  14:C:/Renesas/e2studio_2021_01_workspace_RZA2M_ANPR/ANPR_RZA2M_GR_MANGO/src/tensorflow_lite/tensorflow/lite/micro/kernels\activation_utils.h **** ==============================================================================*/
  15:C:/Renesas/e2studio_2021_01_workspace_RZA2M_ANPR/ANPR_RZA2M_GR_MANGO/src/tensorflow_lite/tensorflow/lite/micro/kernels\activation_utils.h **** 
  16:C:/Renesas/e2studio_2021_01_workspace_RZA2M_ANPR/ANPR_RZA2M_GR_MANGO/src/tensorflow_lite/tensorflow/lite/micro/kernels\activation_utils.h **** #ifndef TENSORFLOW_LITE_MICRO_KERNELS_ACTIVATION_UTILS_H_
  17:C:/Renesas/e2studio_2021_01_workspace_RZA2M_ANPR/ANPR_RZA2M_GR_MANGO/src/tensorflow_lite/tensorflow/lite/micro/kernels\activation_utils.h **** #define TENSORFLOW_LITE_MICRO_KERNELS_ACTIVATION_UTILS_H_
  18:C:/Renesas/e2studio_2021_01_workspace_RZA2M_ANPR/ANPR_RZA2M_GR_MANGO/src/tensorflow_lite/tensorflow/lite/micro/kernels\activation_utils.h **** 
  19:C:/Renesas/e2studio_2021_01_workspace_RZA2M_ANPR/ANPR_RZA2M_GR_MANGO/src/tensorflow_lite/tensorflow/lite/micro/kernels\activation_utils.h **** #include <algorithm>
  20:C:/Renesas/e2studio_2021_01_workspace_RZA2M_ANPR/ANPR_RZA2M_GR_MANGO/src/tensorflow_lite/tensorflow/lite/micro/kernels\activation_utils.h **** #include <cmath>
  21:C:/Renesas/e2studio_2021_01_workspace_RZA2M_ANPR/ANPR_RZA2M_GR_MANGO/src/tensorflow_lite/tensorflow/lite/micro/kernels\activation_utils.h **** 
  22:C:/Renesas/e2studio_2021_01_workspace_RZA2M_ANPR/ANPR_RZA2M_GR_MANGO/src/tensorflow_lite/tensorflow/lite/micro/kernels\activation_utils.h **** #include "tensorflow/lite/c/builtin_op_data.h"
  23:C:/Renesas/e2studio_2021_01_workspace_RZA2M_ANPR/ANPR_RZA2M_GR_MANGO/src/tensorflow_lite/tensorflow/lite/micro/kernels\activation_utils.h **** #include "tensorflow/lite/kernels/internal/cppmath.h"
  24:C:/Renesas/e2studio_2021_01_workspace_RZA2M_ANPR/ANPR_RZA2M_GR_MANGO/src/tensorflow_lite/tensorflow/lite/micro/kernels\activation_utils.h **** #include "tensorflow/lite/kernels/internal/max.h"
  25:C:/Renesas/e2studio_2021_01_workspace_RZA2M_ANPR/ANPR_RZA2M_GR_MANGO/src/tensorflow_lite/tensorflow/lite/micro/kernels\activation_utils.h **** #include "tensorflow/lite/kernels/internal/min.h"
  26:C:/Renesas/e2studio_2021_01_workspace_RZA2M_ANPR/ANPR_RZA2M_GR_MANGO/src/tensorflow_lite/tensorflow/lite/micro/kernels\activation_utils.h **** 
  27:C:/Renesas/e2studio_2021_01_workspace_RZA2M_ANPR/ANPR_RZA2M_GR_MANGO/src/tensorflow_lite/tensorflow/lite/micro/kernels\activation_utils.h **** namespace tflite {
  28:C:/Renesas/e2studio_2021_01_workspace_RZA2M_ANPR/ANPR_RZA2M_GR_MANGO/src/tensorflow_lite/tensorflow/lite/micro/kernels\activation_utils.h **** namespace ops {
  29:C:/Renesas/e2studio_2021_01_workspace_RZA2M_ANPR/ANPR_RZA2M_GR_MANGO/src/tensorflow_lite/tensorflow/lite/micro/kernels\activation_utils.h **** namespace micro {
  30:C:/Renesas/e2studio_2021_01_workspace_RZA2M_ANPR/ANPR_RZA2M_GR_MANGO/src/tensorflow_lite/tensorflow/lite/micro/kernels\activation_utils.h **** 
  31:C:/Renesas/e2studio_2021_01_workspace_RZA2M_ANPR/ANPR_RZA2M_GR_MANGO/src/tensorflow_lite/tensorflow/lite/micro/kernels\activation_utils.h **** // Returns the floating point value for a fused activation:
  32:C:/Renesas/e2studio_2021_01_workspace_RZA2M_ANPR/ANPR_RZA2M_GR_MANGO/src/tensorflow_lite/tensorflow/lite/micro/kernels\activation_utils.h **** inline float ActivationValFloat(TfLiteFusedActivation act, float a) {
  33:C:/Renesas/e2studio_2021_01_workspace_RZA2M_ANPR/ANPR_RZA2M_GR_MANGO/src/tensorflow_lite/tensorflow/lite/micro/kernels\activation_utils.h ****   switch (act) {
  34:C:/Renesas/e2studio_2021_01_workspace_RZA2M_ANPR/ANPR_RZA2M_GR_MANGO/src/tensorflow_lite/tensorflow/lite/micro/kernels\activation_utils.h ****     case kTfLiteActNone:
  35:C:/Renesas/e2studio_2021_01_workspace_RZA2M_ANPR/ANPR_RZA2M_GR_MANGO/src/tensorflow_lite/tensorflow/lite/micro/kernels\activation_utils.h ****       return a;
  36:C:/Renesas/e2studio_2021_01_workspace_RZA2M_ANPR/ANPR_RZA2M_GR_MANGO/src/tensorflow_lite/tensorflow/lite/micro/kernels\activation_utils.h ****     case kTfLiteActRelu:
  37:C:/Renesas/e2studio_2021_01_workspace_RZA2M_ANPR/ANPR_RZA2M_GR_MANGO/src/tensorflow_lite/tensorflow/lite/micro/kernels\activation_utils.h ****       return TfLiteMax(0.0f, a);
  38:C:/Renesas/e2studio_2021_01_workspace_RZA2M_ANPR/ANPR_RZA2M_GR_MANGO/src/tensorflow_lite/tensorflow/lite/micro/kernels\activation_utils.h ****     case kTfLiteActReluN1To1:
  39:C:/Renesas/e2studio_2021_01_workspace_RZA2M_ANPR/ANPR_RZA2M_GR_MANGO/src/tensorflow_lite/tensorflow/lite/micro/kernels\activation_utils.h ****       return TfLiteMax(-1.0f, TfLiteMin(a, 1.0f));
  40:C:/Renesas/e2studio_2021_01_workspace_RZA2M_ANPR/ANPR_RZA2M_GR_MANGO/src/tensorflow_lite/tensorflow/lite/micro/kernels\activation_utils.h ****     case kTfLiteActRelu6:
  41:C:/Renesas/e2studio_2021_01_workspace_RZA2M_ANPR/ANPR_RZA2M_GR_MANGO/src/tensorflow_lite/tensorflow/lite/micro/kernels\activation_utils.h ****       return TfLiteMax(0.0f, TfLiteMin(a, 6.0f));
  42:C:/Renesas/e2studio_2021_01_workspace_RZA2M_ANPR/ANPR_RZA2M_GR_MANGO/src/tensorflow_lite/tensorflow/lite/micro/kernels\activation_utils.h ****     case kTfLiteActTanh:
  43:C:/Renesas/e2studio_2021_01_workspace_RZA2M_ANPR/ANPR_RZA2M_GR_MANGO/src/tensorflow_lite/tensorflow/lite/micro/kernels\activation_utils.h ****       return std::tanh(a);
  44:C:/Renesas/e2studio_2021_01_workspace_RZA2M_ANPR/ANPR_RZA2M_GR_MANGO/src/tensorflow_lite/tensorflow/lite/micro/kernels\activation_utils.h ****     case kTfLiteActSignBit:
  45:C:/Renesas/e2studio_2021_01_workspace_RZA2M_ANPR/ANPR_RZA2M_GR_MANGO/src/tensorflow_lite/tensorflow/lite/micro/kernels\activation_utils.h ****       return std::signbit(a);
  46:C:/Renesas/e2studio_2021_01_workspace_RZA2M_ANPR/ANPR_RZA2M_GR_MANGO/src/tensorflow_lite/tensorflow/lite/micro/kernels\activation_utils.h ****     case kTfLiteActSigmoid:
  47:C:/Renesas/e2studio_2021_01_workspace_RZA2M_ANPR/ANPR_RZA2M_GR_MANGO/src/tensorflow_lite/tensorflow/lite/micro/kernels\activation_utils.h ****       return 1.0f / (1.0f + std::exp(-a));
  48:C:/Renesas/e2studio_2021_01_workspace_RZA2M_ANPR/ANPR_RZA2M_GR_MANGO/src/tensorflow_lite/tensorflow/lite/micro/kernels\activation_utils.h ****   }
  49:C:/Renesas/e2studio_2021_01_workspace_RZA2M_ANPR/ANPR_RZA2M_GR_MANGO/src/tensorflow_lite/tensorflow/lite/micro/kernels\activation_utils.h ****   return 0.0f;  // To indicate an unsupported activation (i.e. when a new fused
 2469              		.loc 5 49 0
 2470 079c 078ADFED 		vldr.32	s17, .L222
 2471              	.LBE434:
 2472              	.LBE433:
 2473              	.LBE432:
 2474              	.LBE431:
 2475              	.LBE430:
 2476              	.LBB503:
 110:../src/tensorflow_lite/tensorflow/lite/micro/kernels/cmsis_nn/svdf.cc ****     float* output_ptr_batch = output_ptr + b * num_units;
 2477              		.loc 1 110 0
 2478 07a0 0050A0E3 		mov	r5, #0
 2479 07a4 58A09DE5 		ldr	r10, [sp, #88]
 2480 07a8 6C909DE5 		ldr	r9, [sp, #108]
 2481              	.LBE503:
 2482              	.LBB504:
 2483              	.LBB500:
 2484              	.LBB496:
 2485              	.LBB482:
 2486              	.LBB468:
  47:C:/Renesas/e2studio_2021_01_workspace_RZA2M_ANPR/ANPR_RZA2M_GR_MANGO/src/tensorflow_lite/tensorflow/lite/micro/kernels\activation_utils.h ****   }
 2487              		.loc 5 47 0
 2488 07ac 008AB7EE 		vmov.f32	s16, #1.0e+0
 2489              	.LVL308:
 2490              	.L155:
 2491              	.LBE468:
 2492              	.LBE482:
 2493              	.LBE496:
 124:../src/tensorflow_lite/tensorflow/lite/micro/kernels/cmsis_nn/svdf.cc ****     for (int i = 0; i < num_units; ++i) {
 2494              		.loc 1 124 0
 2495 07b0 0680A0E1 		mov	r8, r6
 2496              	.LVL309:
 2497 07b4 0070A0E3 		mov	r7, #0
 2498              	.LBB497:
 2499              	.LBB483:
 2500              	.LBB469:
 2501              	.LBB435:
 2502              	.LBB436:
 2503              	.LBB437:
  87:c:\program files (x86)\gnu tools arm embedded\6 2017-q2-update\arm-none-eabi\include\c++\6.3.1\cmath **** #endif
  88:c:\program files (x86)\gnu tools arm embedded\6 2017-q2-update\arm-none-eabi\include\c++\6.3.1\cmath **** 
  89:c:\program files (x86)\gnu tools arm embedded\6 2017-q2-update\arm-none-eabi\include\c++\6.3.1\cmath **** #ifndef __CORRECT_ISO_CPP_MATH_H_PROTO
  90:c:\program files (x86)\gnu tools arm embedded\6 2017-q2-update\arm-none-eabi\include\c++\6.3.1\cmath ****   inline _GLIBCXX_CONSTEXPR float
  91:c:\program files (x86)\gnu tools arm embedded\6 2017-q2-update\arm-none-eabi\include\c++\6.3.1\cmath ****   abs(float __x)
  92:c:\program files (x86)\gnu tools arm embedded\6 2017-q2-update\arm-none-eabi\include\c++\6.3.1\cmath ****   { return __builtin_fabsf(__x); }
  93:c:\program files (x86)\gnu tools arm embedded\6 2017-q2-update\arm-none-eabi\include\c++\6.3.1\cmath **** 
  94:c:\program files (x86)\gnu tools arm embedded\6 2017-q2-update\arm-none-eabi\include\c++\6.3.1\cmath ****   inline _GLIBCXX_CONSTEXPR long double
  95:c:\program files (x86)\gnu tools arm embedded\6 2017-q2-update\arm-none-eabi\include\c++\6.3.1\cmath ****   abs(long double __x)
  96:c:\program files (x86)\gnu tools arm embedded\6 2017-q2-update\arm-none-eabi\include\c++\6.3.1\cmath ****   { return __builtin_fabsl(__x); }
  97:c:\program files (x86)\gnu tools arm embedded\6 2017-q2-update\arm-none-eabi\include\c++\6.3.1\cmath **** #endif
  98:c:\program files (x86)\gnu tools arm embedded\6 2017-q2-update\arm-none-eabi\include\c++\6.3.1\cmath **** 
  99:c:\program files (x86)\gnu tools arm embedded\6 2017-q2-update\arm-none-eabi\include\c++\6.3.1\cmath ****   template<typename _Tp>
 100:c:\program files (x86)\gnu tools arm embedded\6 2017-q2-update\arm-none-eabi\include\c++\6.3.1\cmath ****     inline _GLIBCXX_CONSTEXPR
 101:c:\program files (x86)\gnu tools arm embedded\6 2017-q2-update\arm-none-eabi\include\c++\6.3.1\cmath ****     typename __gnu_cxx::__enable_if<__is_integer<_Tp>::__value,
 102:c:\program files (x86)\gnu tools arm embedded\6 2017-q2-update\arm-none-eabi\include\c++\6.3.1\cmath ****                                     double>::__type
 103:c:\program files (x86)\gnu tools arm embedded\6 2017-q2-update\arm-none-eabi\include\c++\6.3.1\cmath ****     abs(_Tp __x)
 104:c:\program files (x86)\gnu tools arm embedded\6 2017-q2-update\arm-none-eabi\include\c++\6.3.1\cmath ****     { return __builtin_fabs(__x); }
 105:c:\program files (x86)\gnu tools arm embedded\6 2017-q2-update\arm-none-eabi\include\c++\6.3.1\cmath **** 
 106:c:\program files (x86)\gnu tools arm embedded\6 2017-q2-update\arm-none-eabi\include\c++\6.3.1\cmath ****   using ::acos;
 107:c:\program files (x86)\gnu tools arm embedded\6 2017-q2-update\arm-none-eabi\include\c++\6.3.1\cmath **** 
 108:c:\program files (x86)\gnu tools arm embedded\6 2017-q2-update\arm-none-eabi\include\c++\6.3.1\cmath **** #ifndef __CORRECT_ISO_CPP_MATH_H_PROTO
 109:c:\program files (x86)\gnu tools arm embedded\6 2017-q2-update\arm-none-eabi\include\c++\6.3.1\cmath ****   inline _GLIBCXX_CONSTEXPR float
 110:c:\program files (x86)\gnu tools arm embedded\6 2017-q2-update\arm-none-eabi\include\c++\6.3.1\cmath ****   acos(float __x)
 111:c:\program files (x86)\gnu tools arm embedded\6 2017-q2-update\arm-none-eabi\include\c++\6.3.1\cmath ****   { return __builtin_acosf(__x); }
 112:c:\program files (x86)\gnu tools arm embedded\6 2017-q2-update\arm-none-eabi\include\c++\6.3.1\cmath **** 
 113:c:\program files (x86)\gnu tools arm embedded\6 2017-q2-update\arm-none-eabi\include\c++\6.3.1\cmath ****   inline _GLIBCXX_CONSTEXPR long double
 114:c:\program files (x86)\gnu tools arm embedded\6 2017-q2-update\arm-none-eabi\include\c++\6.3.1\cmath ****   acos(long double __x)
 115:c:\program files (x86)\gnu tools arm embedded\6 2017-q2-update\arm-none-eabi\include\c++\6.3.1\cmath ****   { return __builtin_acosl(__x); }
 116:c:\program files (x86)\gnu tools arm embedded\6 2017-q2-update\arm-none-eabi\include\c++\6.3.1\cmath **** #endif
 117:c:\program files (x86)\gnu tools arm embedded\6 2017-q2-update\arm-none-eabi\include\c++\6.3.1\cmath **** 
 118:c:\program files (x86)\gnu tools arm embedded\6 2017-q2-update\arm-none-eabi\include\c++\6.3.1\cmath ****   template<typename _Tp>
 119:c:\program files (x86)\gnu tools arm embedded\6 2017-q2-update\arm-none-eabi\include\c++\6.3.1\cmath ****     inline _GLIBCXX_CONSTEXPR
 120:c:\program files (x86)\gnu tools arm embedded\6 2017-q2-update\arm-none-eabi\include\c++\6.3.1\cmath ****     typename __gnu_cxx::__enable_if<__is_integer<_Tp>::__value, 
 121:c:\program files (x86)\gnu tools arm embedded\6 2017-q2-update\arm-none-eabi\include\c++\6.3.1\cmath ****                                     double>::__type
 122:c:\program files (x86)\gnu tools arm embedded\6 2017-q2-update\arm-none-eabi\include\c++\6.3.1\cmath ****     acos(_Tp __x)
 123:c:\program files (x86)\gnu tools arm embedded\6 2017-q2-update\arm-none-eabi\include\c++\6.3.1\cmath ****     { return __builtin_acos(__x); }
 124:c:\program files (x86)\gnu tools arm embedded\6 2017-q2-update\arm-none-eabi\include\c++\6.3.1\cmath **** 
 125:c:\program files (x86)\gnu tools arm embedded\6 2017-q2-update\arm-none-eabi\include\c++\6.3.1\cmath ****   using ::asin;
 126:c:\program files (x86)\gnu tools arm embedded\6 2017-q2-update\arm-none-eabi\include\c++\6.3.1\cmath **** 
 127:c:\program files (x86)\gnu tools arm embedded\6 2017-q2-update\arm-none-eabi\include\c++\6.3.1\cmath **** #ifndef __CORRECT_ISO_CPP_MATH_H_PROTO
 128:c:\program files (x86)\gnu tools arm embedded\6 2017-q2-update\arm-none-eabi\include\c++\6.3.1\cmath ****   inline _GLIBCXX_CONSTEXPR float
 129:c:\program files (x86)\gnu tools arm embedded\6 2017-q2-update\arm-none-eabi\include\c++\6.3.1\cmath ****   asin(float __x)
 130:c:\program files (x86)\gnu tools arm embedded\6 2017-q2-update\arm-none-eabi\include\c++\6.3.1\cmath ****   { return __builtin_asinf(__x); }
 131:c:\program files (x86)\gnu tools arm embedded\6 2017-q2-update\arm-none-eabi\include\c++\6.3.1\cmath **** 
 132:c:\program files (x86)\gnu tools arm embedded\6 2017-q2-update\arm-none-eabi\include\c++\6.3.1\cmath ****   inline _GLIBCXX_CONSTEXPR long double
 133:c:\program files (x86)\gnu tools arm embedded\6 2017-q2-update\arm-none-eabi\include\c++\6.3.1\cmath ****   asin(long double __x)
 134:c:\program files (x86)\gnu tools arm embedded\6 2017-q2-update\arm-none-eabi\include\c++\6.3.1\cmath ****   { return __builtin_asinl(__x); }
 135:c:\program files (x86)\gnu tools arm embedded\6 2017-q2-update\arm-none-eabi\include\c++\6.3.1\cmath **** #endif
 136:c:\program files (x86)\gnu tools arm embedded\6 2017-q2-update\arm-none-eabi\include\c++\6.3.1\cmath **** 
 137:c:\program files (x86)\gnu tools arm embedded\6 2017-q2-update\arm-none-eabi\include\c++\6.3.1\cmath ****   template<typename _Tp>
 138:c:\program files (x86)\gnu tools arm embedded\6 2017-q2-update\arm-none-eabi\include\c++\6.3.1\cmath ****     inline _GLIBCXX_CONSTEXPR
 139:c:\program files (x86)\gnu tools arm embedded\6 2017-q2-update\arm-none-eabi\include\c++\6.3.1\cmath ****     typename __gnu_cxx::__enable_if<__is_integer<_Tp>::__value,
 140:c:\program files (x86)\gnu tools arm embedded\6 2017-q2-update\arm-none-eabi\include\c++\6.3.1\cmath ****                                     double>::__type
 141:c:\program files (x86)\gnu tools arm embedded\6 2017-q2-update\arm-none-eabi\include\c++\6.3.1\cmath ****     asin(_Tp __x)
 142:c:\program files (x86)\gnu tools arm embedded\6 2017-q2-update\arm-none-eabi\include\c++\6.3.1\cmath ****     { return __builtin_asin(__x); }
 143:c:\program files (x86)\gnu tools arm embedded\6 2017-q2-update\arm-none-eabi\include\c++\6.3.1\cmath **** 
 144:c:\program files (x86)\gnu tools arm embedded\6 2017-q2-update\arm-none-eabi\include\c++\6.3.1\cmath ****   using ::atan;
 145:c:\program files (x86)\gnu tools arm embedded\6 2017-q2-update\arm-none-eabi\include\c++\6.3.1\cmath **** 
 146:c:\program files (x86)\gnu tools arm embedded\6 2017-q2-update\arm-none-eabi\include\c++\6.3.1\cmath **** #ifndef __CORRECT_ISO_CPP_MATH_H_PROTO
 147:c:\program files (x86)\gnu tools arm embedded\6 2017-q2-update\arm-none-eabi\include\c++\6.3.1\cmath ****   inline _GLIBCXX_CONSTEXPR float
 148:c:\program files (x86)\gnu tools arm embedded\6 2017-q2-update\arm-none-eabi\include\c++\6.3.1\cmath ****   atan(float __x)
 149:c:\program files (x86)\gnu tools arm embedded\6 2017-q2-update\arm-none-eabi\include\c++\6.3.1\cmath ****   { return __builtin_atanf(__x); }
 150:c:\program files (x86)\gnu tools arm embedded\6 2017-q2-update\arm-none-eabi\include\c++\6.3.1\cmath **** 
 151:c:\program files (x86)\gnu tools arm embedded\6 2017-q2-update\arm-none-eabi\include\c++\6.3.1\cmath ****   inline _GLIBCXX_CONSTEXPR long double
 152:c:\program files (x86)\gnu tools arm embedded\6 2017-q2-update\arm-none-eabi\include\c++\6.3.1\cmath ****   atan(long double __x)
 153:c:\program files (x86)\gnu tools arm embedded\6 2017-q2-update\arm-none-eabi\include\c++\6.3.1\cmath ****   { return __builtin_atanl(__x); }
 154:c:\program files (x86)\gnu tools arm embedded\6 2017-q2-update\arm-none-eabi\include\c++\6.3.1\cmath **** #endif
 155:c:\program files (x86)\gnu tools arm embedded\6 2017-q2-update\arm-none-eabi\include\c++\6.3.1\cmath **** 
 156:c:\program files (x86)\gnu tools arm embedded\6 2017-q2-update\arm-none-eabi\include\c++\6.3.1\cmath ****   template<typename _Tp>
 157:c:\program files (x86)\gnu tools arm embedded\6 2017-q2-update\arm-none-eabi\include\c++\6.3.1\cmath ****     inline _GLIBCXX_CONSTEXPR
 158:c:\program files (x86)\gnu tools arm embedded\6 2017-q2-update\arm-none-eabi\include\c++\6.3.1\cmath ****     typename __gnu_cxx::__enable_if<__is_integer<_Tp>::__value,
 159:c:\program files (x86)\gnu tools arm embedded\6 2017-q2-update\arm-none-eabi\include\c++\6.3.1\cmath ****                                     double>::__type
 160:c:\program files (x86)\gnu tools arm embedded\6 2017-q2-update\arm-none-eabi\include\c++\6.3.1\cmath ****     atan(_Tp __x)
 161:c:\program files (x86)\gnu tools arm embedded\6 2017-q2-update\arm-none-eabi\include\c++\6.3.1\cmath ****     { return __builtin_atan(__x); }
 162:c:\program files (x86)\gnu tools arm embedded\6 2017-q2-update\arm-none-eabi\include\c++\6.3.1\cmath **** 
