   1              		.cpu cortex-a9
   2              		.eabi_attribute 28, 1
   3              		.eabi_attribute 20, 1
   4              		.eabi_attribute 21, 1
   5              		.eabi_attribute 23, 3
   6              		.eabi_attribute 24, 1
   7              		.eabi_attribute 25, 1
   8              		.eabi_attribute 26, 1
   9              		.eabi_attribute 30, 2
  10              		.eabi_attribute 34, 0
  11              		.eabi_attribute 18, 4
  12              		.file	"r_stb_lld_rza2m.c"
  13              		.section	.text.R_STB_RequestModuleStart,"ax",%progbits
  14              		.align	2
  15              		.global	R_STB_RequestModuleStart
  16              		.syntax unified
  17              		.arm
  18              		.fpu neon
  20              	R_STB_RequestModuleStart:
  21              		@ args = 0, pretend = 0, frame = 0
  22              		@ frame_needed = 0, uses_anonymous_args = 0
  23 0000 010050E3 		cmp	r0, #1
  24 0004 70402DE9 		push	{r4, r5, r6, lr}
  25 0008 5E00000A 		beq	.L7
  26 000c 110050E3 		cmp	r0, #17
  27 0010 5E00000A 		beq	.L8
  28 0014 140050E3 		cmp	r0, #20
  29 0018 6000000A 		beq	.L9
  30 001c 150050E3 		cmp	r0, #21
  31 0020 6400000A 		beq	.L10
  32 0024 160050E3 		cmp	r0, #22
  33 0028 6600000A 		beq	.L11
  34 002c 170050E3 		cmp	r0, #23
  35 0030 6600000A 		beq	.L12
  36 0034 180050E3 		cmp	r0, #24
  37 0038 6800000A 		beq	.L13
  38 003c 190050E3 		cmp	r0, #25
  39 0040 6A00000A 		beq	.L14
  40 0044 1A0050E3 		cmp	r0, #26
  41 0048 6C00000A 		beq	.L15
  42 004c 250050E3 		cmp	r0, #37
  43 0050 6E00000A 		beq	.L16
  44 0054 2C0050E3 		cmp	r0, #44
  45 0058 7000000A 		beq	.L17
  46 005c 2E0050E3 		cmp	r0, #46
  47 0060 7200000A 		beq	.L18
  48 0064 2F0050E3 		cmp	r0, #47
  49 0068 2000000A 		beq	.L19
  50 006c 300050E3 		cmp	r0, #48
  51 0070 0D40A003 		moveq	r4, #13
  52 0074 1E00000A 		beq	.L2
  53 0078 0040A0E3 		mov	r4, #0
  54              	.L3:
  55 007c 110050E3 		cmp	r0, #17
  56 0080 4400000A 		beq	.L22
  57 0084 140050E3 		cmp	r0, #20
  58 0088 4600000A 		beq	.L23
  59 008c 150050E3 		cmp	r0, #21
  60 0090 4600000A 		beq	.L24
  61 0094 160050E3 		cmp	r0, #22
  62 0098 4800000A 		beq	.L25
  63 009c 170050E3 		cmp	r0, #23
  64 00a0 4C00000A 		beq	.L26
  65 00a4 180050E3 		cmp	r0, #24
  66 00a8 4E00000A 		beq	.L27
  67 00ac 190050E3 		cmp	r0, #25
  68 00b0 5000000A 		beq	.L28
  69 00b4 1A0050E3 		cmp	r0, #26
  70 00b8 5200000A 		beq	.L29
  71 00bc 250050E3 		cmp	r0, #37
  72 00c0 5400000A 		beq	.L30
  73 00c4 2C0050E3 		cmp	r0, #44
  74 00c8 5600000A 		beq	.L31
  75 00cc 2E0050E3 		cmp	r0, #46
  76 00d0 5800000A 		beq	.L32
  77 00d4 2F0050E3 		cmp	r0, #47
  78 00d8 5800000A 		beq	.L33
  79 00dc 300050E3 		cmp	r0, #48
  80 00e0 0D60A003 		moveq	r6, #13
  81 00e4 0900000A 		beq	.L4
  82              	.L35:
  83 00e8 0000E0E3 		mvn	r0, #0
  84 00ec 7080BDE8 		pop	{r4, r5, r6, pc}
  85              	.L19:
  86 00f0 0C40A0E3 		mov	r4, #12
  87              	.L2:
  88 00f4 843084E0 		add	r3, r4, r4, lsl #1
  89 00f8 010050E3 		cmp	r0, #1
  90 00fc 004000E3 		movw	r4, #:lower16:.LANCHOR0
  91 0100 004040E3 		movt	r4, #:upper16:.LANCHOR0
  92 0104 034184E0 		add	r4, r4, r3, lsl #2
  93 0108 DBFFFF1A 		bne	.L3
  94 010c 0060A0E3 		mov	r6, #0
  95              	.L4:
  96 0110 000054E3 		cmp	r4, #0
  97 0114 F3FFFF0A 		beq	.L35
  98 0118 003000E3 		movw	r3, #:lower16:.LANCHOR1
  99 011c 003040E3 		movt	r3, #:upper16:.LANCHOR1
 100 0120 0050D3E7 		ldrb	r5, [r3, r0]	@ zero_extendqisi2
 101 0124 000055E3 		cmp	r5, #0
 102 0128 0100000A 		beq	.L6
 103 012c 0200E0E3 		mvn	r0, #2
 104 0130 7080BDE8 		pop	{r4, r5, r6, pc}
 105              	.L6:
 106 0134 0830D4E5 		ldrb	r3, [r4, #8]	@ zero_extendqisi2
 107 0138 0520A0E1 		mov	r2, r5
 108 013c 0510A0E1 		mov	r1, r5
 109 0140 040094E5 		ldr	r0, [r4, #4]
 110 0144 FEFFFFEB 		bl	RZA_IO_RegWrite_8
 111 0148 0510A0E1 		mov	r1, r5
 112 014c 040094E5 		ldr	r0, [r4, #4]
 113 0150 0020E0E3 		mvn	r2, #0
 114 0154 866086E0 		add	r6, r6, r6, lsl #1
 115 0158 FEFFFFEB 		bl	RZA_IO_RegRead_8
 116 015c 003000E3 		movw	r3, #:lower16:.LANCHOR2
 117 0160 0510A0E1 		mov	r1, r5
 118 0164 003040E3 		movt	r3, #:upper16:.LANCHOR2
 119 0168 063183E0 		add	r3, r3, r6, lsl #2
 120 016c 0820D3E5 		ldrb	r2, [r3, #8]	@ zero_extendqisi2
 121 0170 040093E5 		ldr	r0, [r3, #4]
 122 0174 FEFFFFEB 		bl	RZA_IO_RegRead_8
 123 0178 000050E3 		cmp	r0, #0
 124 017c 0000A003 		moveq	r0, #0
 125 0180 0100E013 		mvnne	r0, #1
 126 0184 7080BDE8 		pop	{r4, r5, r6, pc}
 127              	.L7:
 128 0188 0040A0E3 		mov	r4, #0
 129 018c D8FFFFEA 		b	.L2
 130              	.L8:
 131 0190 0140A0E3 		mov	r4, #1
 132 0194 D6FFFFEA 		b	.L2
 133              	.L22:
 134 0198 0160A0E3 		mov	r6, #1
 135 019c DBFFFFEA 		b	.L4
 136              	.L9:
 137 01a0 0240A0E3 		mov	r4, #2
 138 01a4 D2FFFFEA 		b	.L2
 139              	.L23:
 140 01a8 0260A0E3 		mov	r6, #2
 141 01ac D7FFFFEA 		b	.L4
 142              	.L24:
 143 01b0 0360A0E3 		mov	r6, #3
 144 01b4 D5FFFFEA 		b	.L4
 145              	.L10:
 146 01b8 0340A0E3 		mov	r4, #3
 147 01bc CCFFFFEA 		b	.L2
 148              	.L25:
 149 01c0 0460A0E3 		mov	r6, #4
 150 01c4 D1FFFFEA 		b	.L4
 151              	.L11:
 152 01c8 0440A0E3 		mov	r4, #4
 153 01cc C8FFFFEA 		b	.L2
 154              	.L12:
 155 01d0 0540A0E3 		mov	r4, #5
 156 01d4 C6FFFFEA 		b	.L2
 157              	.L26:
 158 01d8 0560A0E3 		mov	r6, #5
 159 01dc CBFFFFEA 		b	.L4
 160              	.L13:
 161 01e0 0640A0E3 		mov	r4, #6
 162 01e4 C2FFFFEA 		b	.L2
 163              	.L27:
 164 01e8 0660A0E3 		mov	r6, #6
 165 01ec C7FFFFEA 		b	.L4
 166              	.L14:
 167 01f0 0740A0E3 		mov	r4, #7
 168 01f4 BEFFFFEA 		b	.L2
 169              	.L28:
 170 01f8 0760A0E3 		mov	r6, #7
 171 01fc C3FFFFEA 		b	.L4
 172              	.L15:
 173 0200 0840A0E3 		mov	r4, #8
 174 0204 BAFFFFEA 		b	.L2
 175              	.L29:
 176 0208 0860A0E3 		mov	r6, #8
 177 020c BFFFFFEA 		b	.L4
 178              	.L16:
 179 0210 0940A0E3 		mov	r4, #9
 180 0214 B6FFFFEA 		b	.L2
 181              	.L30:
 182 0218 0960A0E3 		mov	r6, #9
 183 021c BBFFFFEA 		b	.L4
 184              	.L17:
 185 0220 0A40A0E3 		mov	r4, #10
 186 0224 B2FFFFEA 		b	.L2
 187              	.L31:
 188 0228 0A60A0E3 		mov	r6, #10
 189 022c B7FFFFEA 		b	.L4
 190              	.L18:
 191 0230 0B40A0E3 		mov	r4, #11
 192 0234 AEFFFFEA 		b	.L2
 193              	.L32:
 194 0238 0B60A0E3 		mov	r6, #11
 195 023c B3FFFFEA 		b	.L4
 196              	.L33:
 197 0240 0C60A0E3 		mov	r6, #12
 198 0244 B1FFFFEA 		b	.L4
 200              		.section	.text.R_STB_RequestModuleStop,"ax",%progbits
 201              		.align	2
 202              		.global	R_STB_RequestModuleStop
 203              		.syntax unified
 204              		.arm
 205              		.fpu neon
 207              	R_STB_RequestModuleStop:
 208              		@ args = 0, pretend = 0, frame = 0
 209              		@ frame_needed = 0, uses_anonymous_args = 0
 210 0000 010050E3 		cmp	r0, #1
 211 0004 70402DE9 		push	{r4, r5, r6, lr}
 212 0008 5F00000A 		beq	.L47
 213 000c 110050E3 		cmp	r0, #17
 214 0010 5F00000A 		beq	.L48
 215 0014 140050E3 		cmp	r0, #20
 216 0018 6100000A 		beq	.L49
 217 001c 150050E3 		cmp	r0, #21
 218 0020 6500000A 		beq	.L50
 219 0024 160050E3 		cmp	r0, #22
 220 0028 6700000A 		beq	.L51
 221 002c 170050E3 		cmp	r0, #23
 222 0030 6700000A 		beq	.L52
 223 0034 180050E3 		cmp	r0, #24
 224 0038 6900000A 		beq	.L53
 225 003c 190050E3 		cmp	r0, #25
 226 0040 6B00000A 		beq	.L54
 227 0044 1A0050E3 		cmp	r0, #26
 228 0048 6D00000A 		beq	.L55
 229 004c 250050E3 		cmp	r0, #37
 230 0050 6F00000A 		beq	.L56
 231 0054 2C0050E3 		cmp	r0, #44
 232 0058 7100000A 		beq	.L57
 233 005c 2E0050E3 		cmp	r0, #46
 234 0060 7300000A 		beq	.L58
 235 0064 2F0050E3 		cmp	r0, #47
 236 0068 2000000A 		beq	.L59
 237 006c 300050E3 		cmp	r0, #48
 238 0070 0D40A003 		moveq	r4, #13
 239 0074 1E00000A 		beq	.L42
 240 0078 0040A0E3 		mov	r4, #0
 241              	.L43:
 242 007c 110050E3 		cmp	r0, #17
 243 0080 4500000A 		beq	.L62
 244 0084 140050E3 		cmp	r0, #20
 245 0088 4700000A 		beq	.L63
 246 008c 150050E3 		cmp	r0, #21
 247 0090 4700000A 		beq	.L64
 248 0094 160050E3 		cmp	r0, #22
 249 0098 4900000A 		beq	.L65
 250 009c 170050E3 		cmp	r0, #23
 251 00a0 4D00000A 		beq	.L66
 252 00a4 180050E3 		cmp	r0, #24
 253 00a8 4F00000A 		beq	.L67
 254 00ac 190050E3 		cmp	r0, #25
 255 00b0 5100000A 		beq	.L68
 256 00b4 1A0050E3 		cmp	r0, #26
 257 00b8 5300000A 		beq	.L69
 258 00bc 250050E3 		cmp	r0, #37
 259 00c0 5500000A 		beq	.L70
 260 00c4 2C0050E3 		cmp	r0, #44
 261 00c8 5700000A 		beq	.L71
 262 00cc 2E0050E3 		cmp	r0, #46
 263 00d0 5900000A 		beq	.L72
 264 00d4 2F0050E3 		cmp	r0, #47
 265 00d8 5900000A 		beq	.L73
 266 00dc 300050E3 		cmp	r0, #48
 267 00e0 0D60A003 		moveq	r6, #13
 268 00e4 0900000A 		beq	.L44
 269              	.L75:
 270 00e8 0000E0E3 		mvn	r0, #0
 271 00ec 7080BDE8 		pop	{r4, r5, r6, pc}
 272              	.L59:
 273 00f0 0C40A0E3 		mov	r4, #12
 274              	.L42:
 275 00f4 843084E0 		add	r3, r4, r4, lsl #1
 276 00f8 010050E3 		cmp	r0, #1
 277 00fc 004000E3 		movw	r4, #:lower16:.LANCHOR0
 278 0100 004040E3 		movt	r4, #:upper16:.LANCHOR0
 279 0104 034184E0 		add	r4, r4, r3, lsl #2
 280 0108 DBFFFF1A 		bne	.L43
 281 010c 0060A0E3 		mov	r6, #0
 282              	.L44:
 283 0110 000054E3 		cmp	r4, #0
 284 0114 F3FFFF0A 		beq	.L75
 285 0118 003000E3 		movw	r3, #:lower16:.LANCHOR1
 286 011c 003040E3 		movt	r3, #:upper16:.LANCHOR1
 287 0120 0050D3E7 		ldrb	r5, [r3, r0]	@ zero_extendqisi2
 288 0124 000055E3 		cmp	r5, #0
 289 0128 0100000A 		beq	.L46
 290 012c 0200E0E3 		mvn	r0, #2
 291 0130 7080BDE8 		pop	{r4, r5, r6, pc}
 292              	.L46:
 293 0134 0830D4E5 		ldrb	r3, [r4, #8]	@ zero_extendqisi2
 294 0138 0520A0E1 		mov	r2, r5
 295 013c 040094E5 		ldr	r0, [r4, #4]
 296 0140 866086E0 		add	r6, r6, r6, lsl #1
 297 0144 0310A0E1 		mov	r1, r3
 298 0148 FEFFFFEB 		bl	RZA_IO_RegWrite_8
 299 014c 0510A0E1 		mov	r1, r5
 300 0150 040094E5 		ldr	r0, [r4, #4]
 301 0154 0020E0E3 		mvn	r2, #0
 302 0158 FEFFFFEB 		bl	RZA_IO_RegRead_8
 303 015c 003000E3 		movw	r3, #:lower16:.LANCHOR2
 304 0160 0510A0E1 		mov	r1, r5
 305 0164 003040E3 		movt	r3, #:upper16:.LANCHOR2
 306 0168 063183E0 		add	r3, r3, r6, lsl #2
 307 016c 0840D3E5 		ldrb	r4, [r3, #8]	@ zero_extendqisi2
 308 0170 040093E5 		ldr	r0, [r3, #4]
 309 0174 0420A0E1 		mov	r2, r4
 310 0178 FEFFFFEB 		bl	RZA_IO_RegRead_8
 311 017c 000054E1 		cmp	r4, r0
 312 0180 0100E013 		mvnne	r0, #1
 313 0184 0000A003 		moveq	r0, #0
 314 0188 7080BDE8 		pop	{r4, r5, r6, pc}
 315              	.L47:
 316 018c 0040A0E3 		mov	r4, #0
 317 0190 D7FFFFEA 		b	.L42
 318              	.L48:
 319 0194 0140A0E3 		mov	r4, #1
 320 0198 D5FFFFEA 		b	.L42
 321              	.L62:
 322 019c 0160A0E3 		mov	r6, #1
 323 01a0 DAFFFFEA 		b	.L44
 324              	.L49:
 325 01a4 0240A0E3 		mov	r4, #2
 326 01a8 D1FFFFEA 		b	.L42
 327              	.L63:
 328 01ac 0260A0E3 		mov	r6, #2
 329 01b0 D6FFFFEA 		b	.L44
 330              	.L64:
 331 01b4 0360A0E3 		mov	r6, #3
 332 01b8 D4FFFFEA 		b	.L44
 333              	.L50:
 334 01bc 0340A0E3 		mov	r4, #3
 335 01c0 CBFFFFEA 		b	.L42
 336              	.L65:
 337 01c4 0460A0E3 		mov	r6, #4
 338 01c8 D0FFFFEA 		b	.L44
 339              	.L51:
 340 01cc 0440A0E3 		mov	r4, #4
 341 01d0 C7FFFFEA 		b	.L42
 342              	.L52:
 343 01d4 0540A0E3 		mov	r4, #5
 344 01d8 C5FFFFEA 		b	.L42
 345              	.L66:
 346 01dc 0560A0E3 		mov	r6, #5
 347 01e0 CAFFFFEA 		b	.L44
 348              	.L53:
 349 01e4 0640A0E3 		mov	r4, #6
 350 01e8 C1FFFFEA 		b	.L42
 351              	.L67:
 352 01ec 0660A0E3 		mov	r6, #6
 353 01f0 C6FFFFEA 		b	.L44
 354              	.L54:
 355 01f4 0740A0E3 		mov	r4, #7
 356 01f8 BDFFFFEA 		b	.L42
 357              	.L68:
 358 01fc 0760A0E3 		mov	r6, #7
 359 0200 C2FFFFEA 		b	.L44
 360              	.L55:
 361 0204 0840A0E3 		mov	r4, #8
 362 0208 B9FFFFEA 		b	.L42
 363              	.L69:
 364 020c 0860A0E3 		mov	r6, #8
 365 0210 BEFFFFEA 		b	.L44
 366              	.L56:
 367 0214 0940A0E3 		mov	r4, #9
 368 0218 B5FFFFEA 		b	.L42
 369              	.L70:
 370 021c 0960A0E3 		mov	r6, #9
 371 0220 BAFFFFEA 		b	.L44
 372              	.L57:
 373 0224 0A40A0E3 		mov	r4, #10
 374 0228 B1FFFFEA 		b	.L42
 375              	.L71:
 376 022c 0A60A0E3 		mov	r6, #10
 377 0230 B6FFFFEA 		b	.L44
 378              	.L58:
 379 0234 0B40A0E3 		mov	r4, #11
 380 0238 ADFFFFEA 		b	.L42
 381              	.L72:
 382 023c 0B60A0E3 		mov	r6, #11
 383 0240 B2FFFFEA 		b	.L44
 384              	.L73:
 385 0244 0C60A0E3 		mov	r6, #12
 386 0248 B0FFFFEA 		b	.L44
 388              		.section	.text.R_STB_StopModule,"ax",%progbits
 389              		.align	2
 390              		.global	R_STB_StopModule
 391              		.syntax unified
 392              		.arm
 393              		.fpu neon
 395              	R_STB_StopModule:
 396              		@ args = 0, pretend = 0, frame = 0
 397              		@ frame_needed = 0, uses_anonymous_args = 0
 398 0000 0010A0E3 		mov	r1, #0
 399 0004 00C000E3 		movw	ip, #:lower16:.LANCHOR3
 400 0008 0120A0E1 		mov	r2, r1
 401 000c 00C040E3 		movt	ip, #:upper16:.LANCHOR3
 402 0010 020000EA 		b	.L83
 403              	.L81:
 404 0014 012082E2 		add	r2, r2, #1
 405 0018 300052E3 		cmp	r2, #48
 406 001c 1700000A 		beq	.L89
 407              	.L83:
 408 0020 0130DCE7 		ldrb	r3, [ip, r1]	@ zero_extendqisi2
 409 0024 0C1081E2 		add	r1, r1, #12
 410 0028 000053E1 		cmp	r3, r0
 411 002c F8FFFF1A 		bne	.L81
 412 0030 823082E0 		add	r3, r2, r2, lsl #1
 413 0034 70402DE9 		push	{r4, r5, r6, lr}
 414 0038 0020A0E3 		mov	r2, #0
 415 003c 03318CE0 		add	r3, ip, r3, lsl #2
 416 0040 0040A0E1 		mov	r4, r0
 417 0044 045093E5 		ldr	r5, [r3, #4]
 418 0048 0830D3E5 		ldrb	r3, [r3, #8]	@ zero_extendqisi2
 419 004c 0500A0E1 		mov	r0, r5
 420 0050 0310A0E1 		mov	r1, r3
 421 0054 FEFFFFEB 		bl	RZA_IO_RegWrite_8
 422 0058 0500A0E1 		mov	r0, r5
 423 005c 0020E0E3 		mvn	r2, #0
 424 0060 0010A0E3 		mov	r1, #0
 425 0064 FEFFFFEB 		bl	RZA_IO_RegRead_8
 426 0068 003000E3 		movw	r3, #:lower16:.LANCHOR1
 427 006c 0120A0E3 		mov	r2, #1
 428 0070 003040E3 		movt	r3, #:upper16:.LANCHOR1
 429 0074 0000A0E3 		mov	r0, #0
 430 0078 0420C3E7 		strb	r2, [r3, r4]
 431 007c 7080BDE8 		pop	{r4, r5, r6, pc}
 432              	.L89:
 433 0080 0000E0E3 		mvn	r0, #0
 434 0084 1EFF2FE1 		bx	lr
 436              		.section	.text.R_STB_StartModule,"ax",%progbits
 437              		.align	2
 438              		.global	R_STB_StartModule
 439              		.syntax unified
 440              		.arm
 441              		.fpu neon
 443              	R_STB_StartModule:
 444              		@ args = 0, pretend = 0, frame = 0
 445              		@ frame_needed = 0, uses_anonymous_args = 0
 446 0000 0010A0E3 		mov	r1, #0
 447 0004 00C000E3 		movw	ip, #:lower16:.LANCHOR3
 448 0008 0120A0E1 		mov	r2, r1
 449 000c 00C040E3 		movt	ip, #:upper16:.LANCHOR3
 450 0010 020000EA 		b	.L93
 451              	.L91:
 452 0014 012082E2 		add	r2, r2, #1
 453 0018 300052E3 		cmp	r2, #48
 454 001c 1700000A 		beq	.L99
 455              	.L93:
 456 0020 0130DCE7 		ldrb	r3, [ip, r1]	@ zero_extendqisi2
 457 0024 0C1081E2 		add	r1, r1, #12
 458 0028 000053E1 		cmp	r3, r0
 459 002c F8FFFF1A 		bne	.L91
 460 0030 823082E0 		add	r3, r2, r2, lsl #1
 461 0034 70402DE9 		push	{r4, r5, r6, lr}
 462 0038 0020A0E3 		mov	r2, #0
 463 003c 03318CE0 		add	r3, ip, r3, lsl #2
 464 0040 0040A0E1 		mov	r4, r0
 465 0044 0210A0E1 		mov	r1, r2
 466 0048 045093E5 		ldr	r5, [r3, #4]
 467 004c 0830D3E5 		ldrb	r3, [r3, #8]	@ zero_extendqisi2
 468 0050 0500A0E1 		mov	r0, r5
 469 0054 FEFFFFEB 		bl	RZA_IO_RegWrite_8
 470 0058 0500A0E1 		mov	r0, r5
 471 005c 0020E0E3 		mvn	r2, #0
 472 0060 0010A0E3 		mov	r1, #0
 473 0064 FEFFFFEB 		bl	RZA_IO_RegRead_8
 474 0068 003000E3 		movw	r3, #:lower16:.LANCHOR1
 475 006c 0020A0E3 		mov	r2, #0
 476 0070 003040E3 		movt	r3, #:upper16:.LANCHOR1
 477 0074 0200A0E1 		mov	r0, r2
 478 0078 0420C3E7 		strb	r2, [r3, r4]
 479 007c 7080BDE8 		pop	{r4, r5, r6, pc}
 480              	.L99:
 481 0080 0000E0E3 		mvn	r0, #0
 482 0084 1EFF2FE1 		bx	lr
 484              		.section	.text.R_STB_SetModuleResetState,"ax",%progbits
 485              		.align	2
 486              		.global	R_STB_SetModuleResetState
 487              		.syntax unified
 488              		.arm
 489              		.fpu neon
 491              	R_STB_SetModuleResetState:
 492              		@ args = 0, pretend = 0, frame = 0
 493              		@ frame_needed = 0, uses_anonymous_args = 0
 494 0000 110050E3 		cmp	r0, #17
 495 0004 70402DE9 		push	{r4, r5, r6, lr}
 496 0008 4C00000A 		beq	.L109
 497 000c 140050E3 		cmp	r0, #20
 498 0010 4C00000A 		beq	.L110
 499 0014 150050E3 		cmp	r0, #21
 500 0018 4C00000A 		beq	.L111
 501 001c 190050E3 		cmp	r0, #25
 502 0020 4C00000A 		beq	.L112
 503 0024 1A0050E3 		cmp	r0, #26
 504 0028 4C00000A 		beq	.L113
 505 002c 1B0050E3 		cmp	r0, #27
 506 0030 4C00000A 		beq	.L114
 507 0034 240050E3 		cmp	r0, #36
 508 0038 4C00000A 		beq	.L115
 509 003c 250050E3 		cmp	r0, #37
 510 0040 4C00000A 		beq	.L116
 511 0044 2D0050E3 		cmp	r0, #45
 512 0048 0500000A 		beq	.L117
 513 004c 2E0050E3 		cmp	r0, #46
 514 0050 0960A003 		moveq	r6, #9
 515 0054 0300000A 		beq	.L101
 516 0058 0050E0E3 		mvn	r5, #0
 517              	.L126:
 518 005c 0500A0E1 		mov	r0, r5
 519 0060 7080BDE8 		pop	{r4, r5, r6, pc}
 520              	.L117:
 521 0064 0860A0E3 		mov	r6, #8
 522              	.L101:
 523 0068 003000E3 		movw	r3, #:lower16:.LANCHOR1
 524 006c 003040E3 		movt	r3, #:upper16:.LANCHOR1
 525 0070 0020D3E7 		ldrb	r2, [r3, r0]	@ zero_extendqisi2
 526 0074 000052E3 		cmp	r2, #0
 527 0078 0250E013 		mvnne	r5, #2
 528 007c F6FFFF1A 		bne	.L126
 529 0080 000051E3 		cmp	r1, #0
 530 0084 0040A0E1 		mov	r4, r0
 531 0088 1300001A 		bne	.L130
 532              	.L104:
 533 008c 0400A0E1 		mov	r0, r4
 534 0090 FEFFFFEB 		bl	R_STB_RequestModuleStop
 535 0094 020070E3 		cmn	r0, #2
 536 0098 0050A0E1 		mov	r5, r0
 537 009c FAFFFF0A 		beq	.L104
 538 00a0 013080E2 		add	r3, r0, #1
 539 00a4 866086E0 		add	r6, r6, r6, lsl #1
 540 00a8 7330EFE6 		uxtb	r3, r3
 541 00ac 010053E3 		cmp	r3, #1
 542 00b0 003000E3 		movw	r3, #:lower16:.LANCHOR4
 543 00b4 003040E3 		movt	r3, #:upper16:.LANCHOR4
 544 00b8 063183E0 		add	r3, r3, r6, lsl #2
 545 00bc 1700009A 		bls	.L105
 546 00c0 046093E5 		ldr	r6, [r3, #4]
 547              	.L106:
 548 00c4 0600A0E1 		mov	r0, r6
 549 00c8 0020E0E3 		mvn	r2, #0
 550 00cc 0010A0E3 		mov	r1, #0
 551 00d0 FEFFFFEB 		bl	RZA_IO_RegRead_8
 552 00d4 0500A0E1 		mov	r0, r5
 553 00d8 7080BDE8 		pop	{r4, r5, r6, pc}
 554              	.L130:
 555 00dc 866086E0 		add	r6, r6, r6, lsl #1
 556 00e0 003000E3 		movw	r3, #:lower16:.LANCHOR4
 557 00e4 003040E3 		movt	r3, #:upper16:.LANCHOR4
 558 00e8 063183E0 		add	r3, r3, r6, lsl #2
 559 00ec 0210A0E1 		mov	r1, r2
 560 00f0 046093E5 		ldr	r6, [r3, #4]
 561 00f4 0830D3E5 		ldrb	r3, [r3, #8]	@ zero_extendqisi2
 562 00f8 0600A0E1 		mov	r0, r6
 563 00fc FEFFFFEB 		bl	RZA_IO_RegWrite_8
 564              	.L107:
 565 0100 0400A0E1 		mov	r0, r4
 566 0104 FEFFFFEB 		bl	R_STB_RequestModuleStart
 567 0108 020070E3 		cmn	r0, #2
 568 010c 0050A0E1 		mov	r5, r0
 569 0110 FAFFFF0A 		beq	.L107
 570 0114 010070E3 		cmn	r0, #1
 571 0118 0050A003 		moveq	r5, #0
 572 011c E8FFFFEA 		b	.L106
 573              	.L105:
 574 0120 046093E5 		ldr	r6, [r3, #4]
 575 0124 0020A0E3 		mov	r2, #0
 576 0128 0830D3E5 		ldrb	r3, [r3, #8]	@ zero_extendqisi2
 577 012c 0250A0E1 		mov	r5, r2
 578 0130 0600A0E1 		mov	r0, r6
 579 0134 0310A0E1 		mov	r1, r3
 580 0138 FEFFFFEB 		bl	RZA_IO_RegWrite_8
 581 013c E0FFFFEA 		b	.L106
 582              	.L109:
 583 0140 0060A0E3 		mov	r6, #0
 584 0144 C7FFFFEA 		b	.L101
 585              	.L110:
 586 0148 0160A0E3 		mov	r6, #1
 587 014c C5FFFFEA 		b	.L101
 588              	.L111:
 589 0150 0260A0E3 		mov	r6, #2
 590 0154 C3FFFFEA 		b	.L101
 591              	.L112:
 592 0158 0360A0E3 		mov	r6, #3
 593 015c C1FFFFEA 		b	.L101
 594              	.L113:
 595 0160 0460A0E3 		mov	r6, #4
 596 0164 BFFFFFEA 		b	.L101
 597              	.L114:
 598 0168 0560A0E3 		mov	r6, #5
 599 016c BDFFFFEA 		b	.L101
 600              	.L115:
 601 0170 0660A0E3 		mov	r6, #6
 602 0174 BBFFFFEA 		b	.L101
 603              	.L116:
 604 0178 0760A0E3 		mov	r6, #7
 605 017c B9FFFFEA 		b	.L101
 607              		.section	.text.R_STB_GetModuleResetState,"ax",%progbits
 608              		.align	2
 609              		.global	R_STB_GetModuleResetState
 610              		.syntax unified
 611              		.arm
 612              		.fpu neon
 614              	R_STB_GetModuleResetState:
 615              		@ args = 0, pretend = 0, frame = 0
 616              		@ frame_needed = 0, uses_anonymous_args = 0
 617 0000 110050E3 		cmp	r0, #17
 618 0004 2E00000A 		beq	.L137
 619 0008 140050E3 		cmp	r0, #20
 620 000c 2E00000A 		beq	.L138
 621 0010 150050E3 		cmp	r0, #21
 622 0014 2E00000A 		beq	.L139
 623 0018 190050E3 		cmp	r0, #25
 624 001c 2E00000A 		beq	.L140
 625 0020 1A0050E3 		cmp	r0, #26
 626 0024 2E00000A 		beq	.L141
 627 0028 1B0050E3 		cmp	r0, #27
 628 002c 2E00000A 		beq	.L142
 629 0030 240050E3 		cmp	r0, #36
 630 0034 2E00000A 		beq	.L143
 631 0038 250050E3 		cmp	r0, #37
 632 003c 2E00000A 		beq	.L144
 633 0040 2D0050E3 		cmp	r0, #45
 634 0044 0400000A 		beq	.L145
 635 0048 2E0050E3 		cmp	r0, #46
 636 004c 0920A003 		moveq	r2, #9
 637 0050 0200000A 		beq	.L132
 638 0054 0000E0E3 		mvn	r0, #0
 639 0058 1EFF2FE1 		bx	lr
 640              	.L145:
 641 005c 0820A0E3 		mov	r2, #8
 642              	.L132:
 643 0060 003000E3 		movw	r3, #:lower16:.LANCHOR1
 644 0064 70402DE9 		push	{r4, r5, r6, lr}
 645 0068 003040E3 		movt	r3, #:upper16:.LANCHOR1
 646 006c 0040D3E7 		ldrb	r4, [r3, r0]	@ zero_extendqisi2
 647 0070 000054E3 		cmp	r4, #0
 648 0074 0D00001A 		bne	.L153
 649 0078 822082E0 		add	r2, r2, r2, lsl #1
 650 007c 003000E3 		movw	r3, #:lower16:.LANCHOR4
 651 0080 003040E3 		movt	r3, #:upper16:.LANCHOR4
 652 0084 023183E0 		add	r3, r3, r2, lsl #2
 653 0088 0150A0E1 		mov	r5, r1
 654 008c 0410A0E1 		mov	r1, r4
 655 0090 0820D3E5 		ldrb	r2, [r3, #8]	@ zero_extendqisi2
 656 0094 040093E5 		ldr	r0, [r3, #4]
 657 0098 FEFFFFEB 		bl	RZA_IO_RegRead_8
 658 009c 000050E3 		cmp	r0, #0
 659 00a0 0400000A 		beq	.L154
 660 00a4 0040C5E5 		strb	r4, [r5]
 661 00a8 0400A0E1 		mov	r0, r4
 662 00ac 7080BDE8 		pop	{r4, r5, r6, pc}
 663              	.L153:
 664 00b0 0200E0E3 		mvn	r0, #2
 665 00b4 7080BDE8 		pop	{r4, r5, r6, pc}
 666              	.L154:
 667 00b8 0130A0E3 		mov	r3, #1
 668 00bc 0030C5E5 		strb	r3, [r5]
 669 00c0 7080BDE8 		pop	{r4, r5, r6, pc}
 670              	.L137:
 671 00c4 0020A0E3 		mov	r2, #0
 672 00c8 E4FFFFEA 		b	.L132
 673              	.L138:
 674 00cc 0120A0E3 		mov	r2, #1
 675 00d0 E2FFFFEA 		b	.L132
 676              	.L139:
 677 00d4 0220A0E3 		mov	r2, #2
 678 00d8 E0FFFFEA 		b	.L132
 679              	.L140:
 680 00dc 0320A0E3 		mov	r2, #3
 681 00e0 DEFFFFEA 		b	.L132
 682              	.L141:
 683 00e4 0420A0E3 		mov	r2, #4
 684 00e8 DCFFFFEA 		b	.L132
 685              	.L142:
 686 00ec 0520A0E3 		mov	r2, #5
 687 00f0 DAFFFFEA 		b	.L132
 688              	.L143:
 689 00f4 0620A0E3 		mov	r2, #6
 690 00f8 D8FFFFEA 		b	.L132
 691              	.L144:
 692 00fc 0720A0E3 		mov	r2, #7
 693 0100 D6FFFFEA 		b	.L132
 695              		.section	.text.R_STB_GetVersion,"ax",%progbits
 696              		.align	2
 697              		.global	R_STB_GetVersion
 698              		.syntax unified
 699              		.arm
 700              		.fpu neon
 702              	R_STB_GetVersion:
 703              		@ args = 0, pretend = 0, frame = 0
 704              		@ frame_needed = 0, uses_anonymous_args = 0
 705 0000 002000E3 		movw	r2, #:lower16:.LC0
 706 0004 04E02DE5 		str	lr, [sp, #-4]!
 707 0008 0030A0E1 		mov	r3, r0
 708 000c 0010A0E3 		mov	r1, #0
 709 0010 002040E3 		movt	r2, #:upper16:.LC0
 710 0014 01E0A0E3 		mov	lr, #1
 711 0018 04C0A0E3 		mov	ip, #4
 712 001c 142080E5 		str	r2, [r0, #20]
 713 0020 0100A0E1 		mov	r0, r1
 714 0024 BEE0C3E1 		strh	lr, [r3, #14]	@ movhi
 715 0028 BCC0C3E1 		strh	ip, [r3, #12]	@ movhi
 716 002c 101083E5 		str	r1, [r3, #16]
 717 0030 04F09DE4 		ldr	pc, [sp], #4
 719              		.section	.text.R_STB_SetClockInitStatus,"ax",%progbits
 720              		.align	2
 721              		.global	R_STB_SetClockInitStatus
 722              		.syntax unified
 723              		.arm
 724              		.fpu neon
 726              	R_STB_SetClockInitStatus:
 727              		@ args = 0, pretend = 0, frame = 0
 728              		@ frame_needed = 0, uses_anonymous_args = 0
 729              		@ link register save eliminated.
 730 0000 00C000E3 		movw	ip, #:lower16:.LANCHOR3
 731 0004 0030A0E3 		mov	r3, #0
 732 0008 00C040E3 		movt	ip, #:upper16:.LANCHOR3
 733 000c 010000EA 		b	.L159
 734              	.L164:
 735 0010 090D53E3 		cmp	r3, #576
 736 0014 0E00000A 		beq	.L163
 737              	.L159:
 738 0018 0320DCE7 		ldrb	r2, [ip, r3]	@ zero_extendqisi2
 739 001c 0C3083E2 		add	r3, r3, #12
 740 0020 000052E1 		cmp	r2, r0
 741 0024 F9FFFF1A 		bne	.L164
 742 0028 010051E3 		cmp	r1, #1
 743 002c 0200009A 		bls	.L161
 744 0030 0230E0E3 		mvn	r3, #2
 745 0034 0300A0E1 		mov	r0, r3
 746 0038 1EFF2FE1 		bx	lr
 747              	.L161:
 748 003c 002000E3 		movw	r2, #:lower16:.LANCHOR1
 749 0040 0030A0E3 		mov	r3, #0
 750 0044 002040E3 		movt	r2, #:upper16:.LANCHOR1
 751 0048 0010C2E7 		strb	r1, [r2, r0]
 752 004c 0300A0E1 		mov	r0, r3
 753 0050 1EFF2FE1 		bx	lr
 754              	.L163:
 755 0054 0030E0E3 		mvn	r3, #0
 756 0058 0300A0E1 		mov	r0, r3
 757 005c 1EFF2FE1 		bx	lr
 759              		.section	.data.g_clk_state,"aw",%progbits
 760              		.align	3
 761              		.set	.LANCHOR1,. + 0
 764              	g_clk_state:
 765 0000 01       		.byte	1
 766 0001 00       		.byte	0
 767 0002 01       		.byte	1
 768 0003 01       		.byte	1
 769 0004 01       		.byte	1
 770 0005 01       		.byte	1
 771 0006 01       		.byte	1
 772 0007 01       		.byte	1
 773 0008 01       		.byte	1
 774 0009 01       		.byte	1
 775 000a 01       		.byte	1
 776 000b 01       		.byte	1
 777 000c 01       		.byte	1
 778 000d 01       		.byte	1
 779 000e 01       		.byte	1
 780 000f 01       		.byte	1
 781 0010 01       		.byte	1
 782 0011 01       		.byte	1
 783 0012 00       		.byte	0
 784 0013 00       		.byte	0
 785 0014 01       		.byte	1
 786 0015 01       		.byte	1
 787 0016 01       		.byte	1
 788 0017 01       		.byte	1
 789 0018 01       		.byte	1
 790 0019 01       		.byte	1
 791 001a 01       		.byte	1
 792 001b 01       		.byte	1
 793 001c 01       		.byte	1
 794 001d 01       		.byte	1
 795 001e 01       		.byte	1
 796 001f 01       		.byte	1
 797 0020 01       		.byte	1
 798 0021 01       		.byte	1
 799 0022 01       		.byte	1
 800 0023 01       		.byte	1
 801 0024 00       		.byte	0
 802 0025 01       		.byte	1
 803 0026 01       		.byte	1
 804 0027 01       		.byte	1
 805 0028 01       		.byte	1
 806 0029 01       		.byte	1
 807 002a 01       		.byte	1
 808 002b 01       		.byte	1
 809 002c 01       		.byte	1
 810 002d 01       		.byte	1
 811 002e 01       		.byte	1
 812 002f 01       		.byte	1
 813 0030 01       		.byte	1
 814              		.section	.rodata.R_STB_GetVersion.str1.4,"aMS",%progbits,1
 815              		.align	2
 816              	.LC0:
 817 0000 4C4C4420 		.ascii	"LLD EBK_RZA2M STB\000"
 817      45424B5F 
 817      525A4132 
 817      4D205354 
 817      4200
 818              		.section	.rodata.gs_stback,"a",%progbits
 819              		.align	2
 820              		.set	.LANCHOR2,. + 0
 823              	gs_stback:
 824 0000 01       		.byte	1
 825 0001 000000   		.space	3
 826 0004 4000FEFC 		.word	-50462656
 827 0008 20       		.byte	32
 828 0009 000000   		.space	3
 829 000c 11       		.byte	17
 830 000d 000000   		.space	3
 831 0010 4000FEFC 		.word	-50462656
 832 0014 01       		.byte	1
 833 0015 000000   		.space	3
 834 0018 14       		.byte	20
 835 0019 000000   		.space	3
 836 001c 4000FEFC 		.word	-50462656
 837 0020 08       		.byte	8
 838 0021 000000   		.space	3
 839 0024 15       		.byte	21
 840 0025 000000   		.space	3
 841 0028 4400FEFC 		.word	-50462652
 842 002c 80       		.byte	-128
 843 002d 000000   		.space	3
 844 0030 16       		.byte	22
 845 0031 000000   		.space	3
 846 0034 4400FEFC 		.word	-50462652
 847 0038 40       		.byte	64
 848 0039 000000   		.space	3
 849 003c 17       		.byte	23
 850 003d 000000   		.space	3
 851 0040 4800FEFC 		.word	-50462648
 852 0044 03       		.byte	3
 853 0045 000000   		.space	3
 854 0048 18       		.byte	24
 855 0049 000000   		.space	3
 856 004c 4800FEFC 		.word	-50462648
 857 0050 0C       		.byte	12
 858 0051 000000   		.space	3
 859 0054 19       		.byte	25
 860 0055 000000   		.space	3
 861 0058 4400FEFC 		.word	-50462652
 862 005c 08       		.byte	8
 863 005d 000000   		.space	3
 864 0060 1A       		.byte	26
 865 0061 000000   		.space	3
 866 0064 4400FEFC 		.word	-50462652
 867 0068 03       		.byte	3
 868 0069 000000   		.space	3
 869 006c 25       		.byte	37
 870 006d 000000   		.space	3
 871 0070 4400FEFC 		.word	-50462652
 872 0074 20       		.byte	32
 873 0075 000000   		.space	3
 874 0078 2C       		.byte	44
 875 0079 000000   		.space	3
 876 007c 4400FEFC 		.word	-50462652
 877 0080 10       		.byte	16
 878 0081 000000   		.space	3
 879 0084 2E       		.byte	46
 880 0085 000000   		.space	3
 881 0088 4400FEFC 		.word	-50462652
 882 008c 04       		.byte	4
 883 008d 000000   		.space	3
 884 0090 2F       		.byte	47
 885 0091 000000   		.space	3
 886 0094 4000FEFC 		.word	-50462656
 887 0098 04       		.byte	4
 888 0099 000000   		.space	3
 889 009c 30       		.byte	48
 890 009d 000000   		.space	3
 891 00a0 4000FEFC 		.word	-50462656
 892 00a4 02       		.byte	2
 893 00a5 000000   		.space	3
 894              		.section	.rodata.gs_stbcr,"a",%progbits
 895              		.align	2
 896              		.set	.LANCHOR3,. + 0
 899              	gs_stbcr:
 900 0000 01       		.byte	1
 901 0001 000000   		.space	3
 902 0004 2400FEFC 		.word	-50462684
 903 0008 01       		.byte	1
 904 0009 000000   		.space	3
 905 000c 02       		.byte	2
 906 000d 000000   		.space	3
 907 0010 2004FEFC 		.word	-50461664
 908 0014 40       		.byte	64
 909 0015 000000   		.space	3
 910 0018 03       		.byte	3
 911 0019 000000   		.space	3
 912 001c 2004FEFC 		.word	-50461664
 913 0020 20       		.byte	32
 914 0021 000000   		.space	3
 915 0024 04       		.byte	4
 916 0025 000000   		.space	3
 917 0028 2004FEFC 		.word	-50461664
 918 002c 10       		.byte	16
 919 002d 000000   		.space	3
 920 0030 05       		.byte	5
 921 0031 000000   		.space	3
 922 0034 2004FEFC 		.word	-50461664
 923 0038 08       		.byte	8
 924 0039 000000   		.space	3
 925 003c 06       		.byte	6
 926 003d 000000   		.space	3
 927 0040 2004FEFC 		.word	-50461664
 928 0044 04       		.byte	4
 929 0045 000000   		.space	3
 930 0048 07       		.byte	7
 931 0049 000000   		.space	3
 932 004c 2804FEFC 		.word	-50461656
 933 0050 80       		.byte	-128
 934 0051 000000   		.space	3
 935 0054 08       		.byte	8
 936 0055 000000   		.space	3
 937 0058 2004FEFC 		.word	-50461664
 938 005c 01       		.byte	1
 939 005d 000000   		.space	3
 940 0060 09       		.byte	9
 941 0061 000000   		.space	3
 942 0064 2404FEFC 		.word	-50461660
 943 0068 80       		.byte	-128
 944 0069 000000   		.space	3
 945 006c 0A       		.byte	10
 946 006d 000000   		.space	3
 947 0070 2404FEFC 		.word	-50461660
 948 0074 40       		.byte	64
 949 0075 000000   		.space	3
 950 0078 0B       		.byte	11
 951 0079 000000   		.space	3
 952 007c 2404FEFC 		.word	-50461660
 953 0080 20       		.byte	32
 954 0081 000000   		.space	3
 955 0084 0C       		.byte	12
 956 0085 000000   		.space	3
 957 0088 2404FEFC 		.word	-50461660
 958 008c 10       		.byte	16
 959 008d 000000   		.space	3
 960 0090 0D       		.byte	13
 961 0091 000000   		.space	3
 962 0094 2404FEFC 		.word	-50461660
 963 0098 08       		.byte	8
 964 0099 000000   		.space	3
 965 009c 0E       		.byte	14
 966 009d 000000   		.space	3
 967 00a0 2404FEFC 		.word	-50461660
 968 00a4 04       		.byte	4
 969 00a5 000000   		.space	3
 970 00a8 0F       		.byte	15
 971 00a9 000000   		.space	3
 972 00ac 2404FEFC 		.word	-50461660
 973 00b0 02       		.byte	2
 974 00b1 000000   		.space	3
 975 00b4 10       		.byte	16
 976 00b5 000000   		.space	3
 977 00b8 2404FEFC 		.word	-50461660
 978 00bc 01       		.byte	1
 979 00bd 000000   		.space	3
 980 00c0 11       		.byte	17
 981 00c1 000000   		.space	3
 982 00c4 2804FEFC 		.word	-50461656
 983 00c8 40       		.byte	64
 984 00c9 000000   		.space	3
 985 00cc 12       		.byte	18
 986 00cd 000000   		.space	3
 987 00d0 2804FEFC 		.word	-50461656
 988 00d4 08       		.byte	8
 989 00d5 000000   		.space	3
 990 00d8 13       		.byte	19
 991 00d9 000000   		.space	3
 992 00dc 2804FEFC 		.word	-50461656
 993 00e0 04       		.byte	4
 994 00e1 000000   		.space	3
 995 00e4 14       		.byte	20
 996 00e5 000000   		.space	3
 997 00e8 2804FEFC 		.word	-50461656
 998 00ec 02       		.byte	2
 999 00ed 000000   		.space	3
 1000 00f0 15       		.byte	21
 1001 00f1 000000   		.space	3
 1002 00f4 2C04FEFC 		.word	-50461652
 1003 00f8 40       		.byte	64
 1004 00f9 000000   		.space	3
 1005 00fc 16       		.byte	22
 1006 00fd 000000   		.space	3
 1007 0100 2C04FEFC 		.word	-50461652
 1008 0104 3C       		.byte	60
 1009 0105 000000   		.space	3
 1010 0108 17       		.byte	23
 1011 0109 000000   		.space	3
 1012 010c 2C04FEFC 		.word	-50461652
 1013 0110 02       		.byte	2
 1014 0111 000000   		.space	3
 1015 0114 18       		.byte	24
 1016 0115 000000   		.space	3
 1017 0118 2C04FEFC 		.word	-50461652
 1018 011c 01       		.byte	1
 1019 011d 000000   		.space	3
 1020 0120 19       		.byte	25
 1021 0121 000000   		.space	3
 1022 0124 3004FEFC 		.word	-50461648
 1023 0128 80       		.byte	-128
 1024 0129 000000   		.space	3
 1025 012c 1A       		.byte	26
 1026 012d 000000   		.space	3
 1027 0130 3004FEFC 		.word	-50461648
 1028 0134 40       		.byte	64
 1029 0135 000000   		.space	3
 1030 0138 1B       		.byte	27
 1031 0139 000000   		.space	3
 1032 013c 3004FEFC 		.word	-50461648
 1033 0140 20       		.byte	32
 1034 0141 000000   		.space	3
 1035 0144 1C       		.byte	28
 1036 0145 000000   		.space	3
 1037 0148 3004FEFC 		.word	-50461648
 1038 014c 08       		.byte	8
 1039 014d 000000   		.space	3
 1040 0150 1D       		.byte	29
 1041 0151 000000   		.space	3
 1042 0154 3004FEFC 		.word	-50461648
 1043 0158 04       		.byte	4
 1044 0159 000000   		.space	3
 1045 015c 1E       		.byte	30
 1046 015d 000000   		.space	3
 1047 0160 3004FEFC 		.word	-50461648
 1048 0164 02       		.byte	2
 1049 0165 000000   		.space	3
 1050 0168 1F       		.byte	31
 1051 0169 000000   		.space	3
 1052 016c 3004FEFC 		.word	-50461648
 1053 0170 01       		.byte	1
 1054 0171 000000   		.space	3
 1055 0174 20       		.byte	32
 1056 0175 000000   		.space	3
 1057 0178 3404FEFC 		.word	-50461644
 1058 017c 80       		.byte	-128
 1059 017d 000000   		.space	3
 1060 0180 21       		.byte	33
 1061 0181 000000   		.space	3
 1062 0184 3404FEFC 		.word	-50461644
 1063 0188 40       		.byte	64
 1064 0189 000000   		.space	3
 1065 018c 22       		.byte	34
 1066 018d 000000   		.space	3
 1067 0190 3404FEFC 		.word	-50461644
 1068 0194 20       		.byte	32
 1069 0195 000000   		.space	3
 1070 0198 23       		.byte	35
 1071 0199 000000   		.space	3
 1072 019c 3404FEFC 		.word	-50461644
 1073 01a0 10       		.byte	16
 1074 01a1 000000   		.space	3
 1075 01a4 24       		.byte	36
 1076 01a5 000000   		.space	3
 1077 01a8 3404FEFC 		.word	-50461644
 1078 01ac 08       		.byte	8
 1079 01ad 000000   		.space	3
 1080 01b0 25       		.byte	37
 1081 01b1 000000   		.space	3
 1082 01b4 3404FEFC 		.word	-50461644
 1083 01b8 02       		.byte	2
 1084 01b9 000000   		.space	3
 1085 01bc 26       		.byte	38
 1086 01bd 000000   		.space	3
 1087 01c0 3804FEFC 		.word	-50461640
 1088 01c4 80       		.byte	-128
 1089 01c5 000000   		.space	3
 1090 01c8 27       		.byte	39
 1091 01c9 000000   		.space	3
 1092 01cc 3804FEFC 		.word	-50461640
 1093 01d0 40       		.byte	64
 1094 01d1 000000   		.space	3
 1095 01d4 28       		.byte	40
 1096 01d5 000000   		.space	3
 1097 01d8 3804FEFC 		.word	-50461640
 1098 01dc 20       		.byte	32
 1099 01dd 000000   		.space	3
 1100 01e0 29       		.byte	41
 1101 01e1 000000   		.space	3
 1102 01e4 3804FEFC 		.word	-50461640
 1103 01e8 08       		.byte	8
 1104 01e9 000000   		.space	3
 1105 01ec 2A       		.byte	42
 1106 01ed 000000   		.space	3
 1107 01f0 3804FEFC 		.word	-50461640
 1108 01f4 04       		.byte	4
 1109 01f5 000000   		.space	3
 1110 01f8 2B       		.byte	43
 1111 01f9 000000   		.space	3
 1112 01fc 3804FEFC 		.word	-50461640
 1113 0200 02       		.byte	2
 1114 0201 000000   		.space	3
 1115 0204 2C       		.byte	44
 1116 0205 000000   		.space	3
 1117 0208 3804FEFC 		.word	-50461640
 1118 020c 01       		.byte	1
 1119 020d 000000   		.space	3
 1120 0210 2D       		.byte	45
 1121 0211 000000   		.space	3
 1122 0214 3C04FEFC 		.word	-50461636
 1123 0218 80       		.byte	-128
 1124 0219 000000   		.space	3
 1125 021c 2E       		.byte	46
 1126 021d 000000   		.space	3
 1127 0220 3C04FEFC 		.word	-50461636
 1128 0224 10       		.byte	16
 1129 0225 000000   		.space	3
 1130 0228 2F       		.byte	47
 1131 0229 000000   		.space	3
 1132 022c 3C04FEFC 		.word	-50461636
 1133 0230 0C       		.byte	12
 1134 0231 000000   		.space	3
 1135 0234 30       		.byte	48
 1136 0235 000000   		.space	3
 1137 0238 3C04FEFC 		.word	-50461636
 1138 023c 03       		.byte	3
 1139 023d 000000   		.space	3
 1140              		.section	.rodata.gs_stbreq,"a",%progbits
 1141              		.align	2
 1142              		.set	.LANCHOR0,. + 0
 1145              	gs_stbreq:
 1146 0000 01       		.byte	1
 1147 0001 000000   		.space	3
 1148 0004 3000FEFC 		.word	-50462672
 1149 0008 20       		.byte	32
 1150 0009 000000   		.space	3
 1151 000c 11       		.byte	17
 1152 000d 000000   		.space	3
 1153 0010 3000FEFC 		.word	-50462672
 1154 0014 01       		.byte	1
 1155 0015 000000   		.space	3
 1156 0018 14       		.byte	20
 1157 0019 000000   		.space	3
 1158 001c 3000FEFC 		.word	-50462672
 1159 0020 08       		.byte	8
 1160 0021 000000   		.space	3
 1161 0024 15       		.byte	21
 1162 0025 000000   		.space	3
 1163 0028 3400FEFC 		.word	-50462668
 1164 002c 80       		.byte	-128
 1165 002d 000000   		.space	3
 1166 0030 16       		.byte	22
 1167 0031 000000   		.space	3
 1168 0034 3400FEFC 		.word	-50462668
 1169 0038 40       		.byte	64
 1170 0039 000000   		.space	3
 1171 003c 17       		.byte	23
 1172 003d 000000   		.space	3
 1173 0040 3800FEFC 		.word	-50462664
 1174 0044 03       		.byte	3
 1175 0045 000000   		.space	3
 1176 0048 18       		.byte	24
 1177 0049 000000   		.space	3
 1178 004c 3800FEFC 		.word	-50462664
 1179 0050 0C       		.byte	12
 1180 0051 000000   		.space	3
 1181 0054 19       		.byte	25
 1182 0055 000000   		.space	3
 1183 0058 3400FEFC 		.word	-50462668
 1184 005c 08       		.byte	8
 1185 005d 000000   		.space	3
 1186 0060 1A       		.byte	26
 1187 0061 000000   		.space	3
 1188 0064 3400FEFC 		.word	-50462668
 1189 0068 03       		.byte	3
 1190 0069 000000   		.space	3
 1191 006c 25       		.byte	37
 1192 006d 000000   		.space	3
 1193 0070 3400FEFC 		.word	-50462668
 1194 0074 20       		.byte	32
 1195 0075 000000   		.space	3
 1196 0078 2C       		.byte	44
 1197 0079 000000   		.space	3
 1198 007c 3400FEFC 		.word	-50462668
 1199 0080 10       		.byte	16
 1200 0081 000000   		.space	3
 1201 0084 2E       		.byte	46
 1202 0085 000000   		.space	3
 1203 0088 3400FEFC 		.word	-50462668
 1204 008c 04       		.byte	4
 1205 008d 000000   		.space	3
 1206 0090 2F       		.byte	47
 1207 0091 000000   		.space	3
 1208 0094 3000FEFC 		.word	-50462672
 1209 0098 04       		.byte	4
 1210 0099 000000   		.space	3
 1211 009c 30       		.byte	48
 1212 009d 000000   		.space	3
 1213 00a0 3000FEFC 		.word	-50462672
 1214 00a4 02       		.byte	2
 1215 00a5 000000   		.space	3
 1216              		.section	.rodata.gs_swrstcr,"a",%progbits
 1217              		.align	2
 1218              		.set	.LANCHOR4,. + 0
 1221              	gs_swrstcr:
 1222 0000 11       		.byte	17
 1223 0001 000000   		.space	3
 1224 0004 6404FEFC 		.word	-50461596
 1225 0008 02       		.byte	2
 1226 0009 000000   		.space	3
 1227 000c 14       		.byte	20
 1228 000d 000000   		.space	3
 1229 0010 6004FEFC 		.word	-50461600
 1230 0014 02       		.byte	2
 1231 0015 000000   		.space	3
 1232 0018 15       		.byte	21
 1233 0019 000000   		.space	3
 1234 001c 6404FEFC 		.word	-50461596
 1235 0020 20       		.byte	32
 1236 0021 000000   		.space	3
 1237 0024 19       		.byte	25
 1238 0025 000000   		.space	3
 1239 0028 6404FEFC 		.word	-50461596
 1240 002c 10       		.byte	16
 1241 002d 000000   		.space	3
 1242 0030 1A       		.byte	26
 1243 0031 000000   		.space	3
 1244 0034 6404FEFC 		.word	-50461596
 1245 0038 04       		.byte	4
 1246 0039 000000   		.space	3
 1247 003c 1B       		.byte	27
 1248 003d 000000   		.space	3
 1249 0040 6404FEFC 		.word	-50461596
 1250 0044 08       		.byte	8
 1251 0045 000000   		.space	3
 1252 0048 24       		.byte	36
 1253 0049 000000   		.space	3
 1254 004c 6004FEFC 		.word	-50461600
 1255 0050 01       		.byte	1
 1256 0051 000000   		.space	3
 1257 0054 25       		.byte	37
 1258 0055 000000   		.space	3
 1259 0058 6004FEFC 		.word	-50461600
 1260 005c 08       		.byte	8
 1261 005d 000000   		.space	3
 1262 0060 2D       		.byte	45
 1263 0061 000000   		.space	3
 1264 0064 6004FEFC 		.word	-50461600
 1265 0068 04       		.byte	4
 1266 0069 000000   		.space	3
 1267 006c 2E       		.byte	46
 1268 006d 000000   		.space	3
 1269 0070 6404FEFC 		.word	-50461596
 1270 0074 40       		.byte	64
 1271 0075 000000   		.space	3
 1272              		.ident	"GCC: (GNU Tools for ARM Embedded Processors 6-2017-q2-update) 6.3.1 20170620 (release) [AR