   1              		.cpu cortex-a9
   2              		.eabi_attribute 28, 1
   3              		.eabi_attribute 20, 1
   4              		.eabi_attribute 21, 1
   5              		.eabi_attribute 23, 3
   6              		.eabi_attribute 24, 1
   7              		.eabi_attribute 25, 1
   8              		.eabi_attribute 26, 1
   9              		.eabi_attribute 30, 2
  10              		.eabi_attribute 34, 0
  11              		.eabi_attribute 18, 4
  12              		.file	"micro_allocator.cpp"
  13              		.text
  14              	.Ltext0:
  15              		.cfi_sections	.debug_frame
  16              		.section	.text._ZN6tflite12_GLOBAL__N_125MicroBuiltinDataAllocator8AllocateEjj,"ax",%progbits
  17              		.align	2
  18              		.syntax unified
  19              		.arm
  20              		.fpu neon
  22              	_ZN6tflite12_GLOBAL__N_125MicroBuiltinDataAllocator8AllocateEjj:
  23              		.fnstart
  24              	.LFB6467:
  25              		.file 1 "../src/tensorflow_lite/src/tensorflow/lite/micro/micro_allocator.cpp"
   1:../src/tensorflow_lite/src/tensorflow/lite/micro/micro_allocator.cpp **** /* Copyright 2020 The TensorFlow Authors. All Rights Reserved.
   2:../src/tensorflow_lite/src/tensorflow/lite/micro/micro_allocator.cpp **** 
   3:../src/tensorflow_lite/src/tensorflow/lite/micro/micro_allocator.cpp **** Licensed under the Apache License, Version 2.0 (the "License");
   4:../src/tensorflow_lite/src/tensorflow/lite/micro/micro_allocator.cpp **** you may not use this file except in compliance with the License.
   5:../src/tensorflow_lite/src/tensorflow/lite/micro/micro_allocator.cpp **** You may obtain a copy of the License at
   6:../src/tensorflow_lite/src/tensorflow/lite/micro/micro_allocator.cpp **** 
   7:../src/tensorflow_lite/src/tensorflow/lite/micro/micro_allocator.cpp ****     http://www.apache.org/licenses/LICENSE-2.0
   8:../src/tensorflow_lite/src/tensorflow/lite/micro/micro_allocator.cpp **** 
   9:../src/tensorflow_lite/src/tensorflow/lite/micro/micro_allocator.cpp **** Unless required by applicable law or agreed to in writing, software
  10:../src/tensorflow_lite/src/tensorflow/lite/micro/micro_allocator.cpp **** distributed under the License is distributed on an "AS IS" BASIS,
  11:../src/tensorflow_lite/src/tensorflow/lite/micro/micro_allocator.cpp **** WITHOUT WARRANTIES OR CONDITIONS OF ANY KIND, either express or implied.
  12:../src/tensorflow_lite/src/tensorflow/lite/micro/micro_allocator.cpp **** See the License for the specific language governing permissions and
  13:../src/tensorflow_lite/src/tensorflow/lite/micro/micro_allocator.cpp **** limitations under the License.
  14:../src/tensorflow_lite/src/tensorflow/lite/micro/micro_allocator.cpp **** ==============================================================================*/
  15:../src/tensorflow_lite/src/tensorflow/lite/micro/micro_allocator.cpp **** 
  16:../src/tensorflow_lite/src/tensorflow/lite/micro/micro_allocator.cpp **** #include "tensorflow/lite/micro/micro_allocator.h"
  17:../src/tensorflow_lite/src/tensorflow/lite/micro/micro_allocator.cpp **** 
  18:../src/tensorflow_lite/src/tensorflow/lite/micro/micro_allocator.cpp **** #include <cstddef>
  19:../src/tensorflow_lite/src/tensorflow/lite/micro/micro_allocator.cpp **** #include <cstdint>
  20:../src/tensorflow_lite/src/tensorflow/lite/micro/micro_allocator.cpp **** 
  21:../src/tensorflow_lite/src/tensorflow/lite/micro/micro_allocator.cpp **** #include "third_party/flatbuffers/include/flatbuffers/flatbuffers.h"
  22:../src/tensorflow_lite/src/tensorflow/lite/micro/micro_allocator.cpp **** #include "tensorflow/lite/c/common.h"
  23:../src/tensorflow_lite/src/tensorflow/lite/micro/micro_allocator.cpp **** #include "tensorflow/lite/core/api/error_reporter.h"
  24:../src/tensorflow_lite/src/tensorflow/lite/micro/micro_allocator.cpp **** #include "tensorflow/lite/core/api/flatbuffer_conversions.h"
  25:../src/tensorflow_lite/src/tensorflow/lite/micro/micro_allocator.cpp **** #include "tensorflow/lite/core/api/op_resolver.h"
  26:../src/tensorflow_lite/src/tensorflow/lite/micro/micro_allocator.cpp **** #include "tensorflow/lite/core/api/tensor_utils.h"
  27:../src/tensorflow_lite/src/tensorflow/lite/micro/micro_allocator.cpp **** #include "tensorflow/lite/kernels/internal/compatibility.h"
  28:../src/tensorflow_lite/src/tensorflow/lite/micro/micro_allocator.cpp **** #include "tensorflow/lite/micro/compatibility.h"
  29:../src/tensorflow_lite/src/tensorflow/lite/micro/micro_allocator.cpp **** #include "tensorflow/lite/micro/memory_helpers.h"
  30:../src/tensorflow_lite/src/tensorflow/lite/micro/micro_allocator.cpp **** #include "tensorflow/lite/micro/memory_planner/greedy_memory_planner.h"
  31:../src/tensorflow_lite/src/tensorflow/lite/micro/micro_allocator.cpp **** #include "tensorflow/lite/micro/memory_planner/memory_planner.h"
  32:../src/tensorflow_lite/src/tensorflow/lite/micro/micro_allocator.cpp **** #include "tensorflow/lite/micro/micro_error_reporter.h"
  33:../src/tensorflow_lite/src/tensorflow/lite/micro/micro_allocator.cpp **** #include "tensorflow/lite/micro/simple_memory_allocator.h"
  34:../src/tensorflow_lite/src/tensorflow/lite/micro/micro_allocator.cpp **** #include "tensorflow/lite/schema/schema_generated.h"
  35:../src/tensorflow_lite/src/tensorflow/lite/micro/micro_allocator.cpp **** #include "tensorflow/lite/schema/schema_utils.h"
  36:../src/tensorflow_lite/src/tensorflow/lite/micro/micro_allocator.cpp **** 
  37:../src/tensorflow_lite/src/tensorflow/lite/micro/micro_allocator.cpp **** namespace tflite {
  38:../src/tensorflow_lite/src/tensorflow/lite/micro/micro_allocator.cpp **** 
  39:../src/tensorflow_lite/src/tensorflow/lite/micro/micro_allocator.cpp **** namespace {
  40:../src/tensorflow_lite/src/tensorflow/lite/micro/micro_allocator.cpp **** 
  41:../src/tensorflow_lite/src/tensorflow/lite/micro/micro_allocator.cpp **** // Maximum number of scratch buffer requests per operator. Operator kernels that
  42:../src/tensorflow_lite/src/tensorflow/lite/micro/micro_allocator.cpp **** // request more than this value will receive an exception.
  43:../src/tensorflow_lite/src/tensorflow/lite/micro/micro_allocator.cpp **** constexpr size_t kMaxScratchBuffersPerOp = 12;
  44:../src/tensorflow_lite/src/tensorflow/lite/micro/micro_allocator.cpp **** 
  45:../src/tensorflow_lite/src/tensorflow/lite/micro/micro_allocator.cpp **** // Sentinel value used as a placeholder to mark a ScratchBufferRequest request
  46:../src/tensorflow_lite/src/tensorflow/lite/micro/micro_allocator.cpp **** // needs a node id assignment.
  47:../src/tensorflow_lite/src/tensorflow/lite/micro/micro_allocator.cpp **** constexpr int kUnassignedScratchBufferRequestIndex = -1;
  48:../src/tensorflow_lite/src/tensorflow/lite/micro/micro_allocator.cpp **** 
  49:../src/tensorflow_lite/src/tensorflow/lite/micro/micro_allocator.cpp **** // Used to hold information used during allocation calculations.
  50:../src/tensorflow_lite/src/tensorflow/lite/micro/micro_allocator.cpp **** struct AllocationInfo {
  51:../src/tensorflow_lite/src/tensorflow/lite/micro/micro_allocator.cpp ****   size_t bytes;
  52:../src/tensorflow_lite/src/tensorflow/lite/micro/micro_allocator.cpp ****   void** output_ptr;
  53:../src/tensorflow_lite/src/tensorflow/lite/micro/micro_allocator.cpp ****   int first_created;
  54:../src/tensorflow_lite/src/tensorflow/lite/micro/micro_allocator.cpp ****   int last_used;
  55:../src/tensorflow_lite/src/tensorflow/lite/micro/micro_allocator.cpp ****   int32_t offline_offset;
  56:../src/tensorflow_lite/src/tensorflow/lite/micro/micro_allocator.cpp ****   bool needs_allocating;
  57:../src/tensorflow_lite/src/tensorflow/lite/micro/micro_allocator.cpp **** };
  58:../src/tensorflow_lite/src/tensorflow/lite/micro/micro_allocator.cpp **** 
  59:../src/tensorflow_lite/src/tensorflow/lite/micro/micro_allocator.cpp **** // We align tensor buffers to 16-byte boundaries, since this is a common
  60:../src/tensorflow_lite/src/tensorflow/lite/micro/micro_allocator.cpp **** // requirement for SIMD extensions.
  61:../src/tensorflow_lite/src/tensorflow/lite/micro/micro_allocator.cpp **** constexpr int kBufferAlignment = 16;
  62:../src/tensorflow_lite/src/tensorflow/lite/micro/micro_allocator.cpp **** constexpr char kOfflineMemAllocMetadata[] = "OfflineMemoryAllocation";
  63:../src/tensorflow_lite/src/tensorflow/lite/micro/micro_allocator.cpp **** const TfLiteIntArray kZeroLengthIntArray = {};
  64:../src/tensorflow_lite/src/tensorflow/lite/micro/micro_allocator.cpp **** 
  65:../src/tensorflow_lite/src/tensorflow/lite/micro/micro_allocator.cpp **** class MicroBuiltinDataAllocator : public BuiltinDataAllocator {
  66:../src/tensorflow_lite/src/tensorflow/lite/micro/micro_allocator.cpp ****  public:
  67:../src/tensorflow_lite/src/tensorflow/lite/micro/micro_allocator.cpp ****   explicit MicroBuiltinDataAllocator(SimpleMemoryAllocator* memory_allocator)
  68:../src/tensorflow_lite/src/tensorflow/lite/micro/micro_allocator.cpp ****       : memory_allocator_(memory_allocator) {}
  69:../src/tensorflow_lite/src/tensorflow/lite/micro/micro_allocator.cpp **** 
  70:../src/tensorflow_lite/src/tensorflow/lite/micro/micro_allocator.cpp ****   void* Allocate(size_t size, size_t alignment_hint) override {
  26              		.loc 1 70 0
  27              		.cfi_startproc
  28              		@ args = 0, pretend = 0, frame = 0
  29              		@ frame_needed = 0, uses_anonymous_args = 0
  30              		@ link register save eliminated.
  31              	.LVL0:
  71:../src/tensorflow_lite/src/tensorflow/lite/micro/micro_allocator.cpp ****     return memory_allocator_->AllocateFromTail(size, alignment_hint);
  32              		.loc 1 71 0
  33 0000 040090E5 		ldr	r0, [r0, #4]
  34              	.LVL1:
  35 0004 003090E5 		ldr	r3, [r0]
  36 0008 0C3093E5 		ldr	r3, [r3, #12]
  37 000c 13FF2FE1 		bx	r3
  38              	.LVL2:
  39              		.cfi_endproc
  40              	.LFE6467:
  41              		.cantunwind
  42              		.fnend
  44              		.section	.text._ZN6tflite12_GLOBAL__N_125MicroBuiltinDataAllocator10DeallocateEPv,"ax",%progbits
  45              		.align	2
  46              		.syntax unified
  47              		.arm
  48              		.fpu neon
  50              	_ZN6tflite12_GLOBAL__N_125MicroBuiltinDataAllocator10DeallocateEPv:
  51              		.fnstart
  52              	.LFB6468:
  72:../src/tensorflow_lite/src/tensorflow/lite/micro/micro_allocator.cpp ****   }
  73:../src/tensorflow_lite/src/tensorflow/lite/micro/micro_allocator.cpp ****   void Deallocate(void* data) override {
  53              		.loc 1 73 0
  54              		.cfi_startproc
  55              		@ args = 0, pretend = 0, frame = 0
  56              		@ frame_needed = 0, uses_anonymous_args = 0
  57              		@ link register save eliminated.
  58              	.LVL3:
  59 0000 1EFF2FE1 		bx	lr
  60              		.cfi_endproc
  61              	.LFE6468:
  62              		.cantunwind
  63              		.fnend
  65              		.section	.text._ZN6tflite14MicroAllocatorD2Ev,"ax",%progbits
  66              		.align	2
  67              		.global	_ZN6tflite14MicroAllocatorD2Ev
  68              		.syntax unified
  69              		.arm
  70              		.fpu neon
  72              	_ZN6tflite14MicroAllocatorD2Ev:
  73              		.fnstart
  74              	.LFB6487:
  74:../src/tensorflow_lite/src/tensorflow/lite/micro/micro_allocator.cpp ****     // Do not deallocate, builtin data needs to be available for the life time
  75:../src/tensorflow_lite/src/tensorflow/lite/micro/micro_allocator.cpp ****     // of the model.
  76:../src/tensorflow_lite/src/tensorflow/lite/micro/micro_allocator.cpp ****   }
  77:../src/tensorflow_lite/src/tensorflow/lite/micro/micro_allocator.cpp **** 
  78:../src/tensorflow_lite/src/tensorflow/lite/micro/micro_allocator.cpp ****  private:
  79:../src/tensorflow_lite/src/tensorflow/lite/micro/micro_allocator.cpp ****   SimpleMemoryAllocator* memory_allocator_;
  80:../src/tensorflow_lite/src/tensorflow/lite/micro/micro_allocator.cpp **** 
  81:../src/tensorflow_lite/src/tensorflow/lite/micro/micro_allocator.cpp ****   TF_LITE_REMOVE_VIRTUAL_DELETE
  82:../src/tensorflow_lite/src/tensorflow/lite/micro/micro_allocator.cpp **** };
  83:../src/tensorflow_lite/src/tensorflow/lite/micro/micro_allocator.cpp **** 
  84:../src/tensorflow_lite/src/tensorflow/lite/micro/micro_allocator.cpp **** #if !defined(__clang__)
  85:../src/tensorflow_lite/src/tensorflow/lite/micro/micro_allocator.cpp **** // Helper function to check flatbuffer metadata correctness. This function is
  86:../src/tensorflow_lite/src/tensorflow/lite/micro/micro_allocator.cpp **** // not called by default. Hence it's not linked in to the final binary code.
  87:../src/tensorflow_lite/src/tensorflow/lite/micro/micro_allocator.cpp **** TfLiteStatus CheckOfflinePlannedOffsets(const Model* model,
  88:../src/tensorflow_lite/src/tensorflow/lite/micro/micro_allocator.cpp ****                                         ErrorReporter* error_reporter) {
  89:../src/tensorflow_lite/src/tensorflow/lite/micro/micro_allocator.cpp ****   // Suppress compile warning for unused function
  90:../src/tensorflow_lite/src/tensorflow/lite/micro/micro_allocator.cpp ****   (void)CheckOfflinePlannedOffsets;
  91:../src/tensorflow_lite/src/tensorflow/lite/micro/micro_allocator.cpp **** 
  92:../src/tensorflow_lite/src/tensorflow/lite/micro/micro_allocator.cpp ****   if (model->metadata()) {
  93:../src/tensorflow_lite/src/tensorflow/lite/micro/micro_allocator.cpp ****     for (size_t i = 0; i < model->metadata()->size(); ++i) {
  94:../src/tensorflow_lite/src/tensorflow/lite/micro/micro_allocator.cpp ****       auto metadata = model->metadata()->Get(i);
  95:../src/tensorflow_lite/src/tensorflow/lite/micro/micro_allocator.cpp ****       if (strncmp(metadata->name()->c_str(), kOfflineMemAllocMetadata,
  96:../src/tensorflow_lite/src/tensorflow/lite/micro/micro_allocator.cpp ****                   strlen(kOfflineMemAllocMetadata)) == 0) {
  97:../src/tensorflow_lite/src/tensorflow/lite/micro/micro_allocator.cpp ****         auto* subgraphs = model->subgraphs();
  98:../src/tensorflow_lite/src/tensorflow/lite/micro/micro_allocator.cpp ****         const SubGraph* subgraph = (*subgraphs)[0];
  99:../src/tensorflow_lite/src/tensorflow/lite/micro/micro_allocator.cpp ****         const flatbuffers::Vector<flatbuffers::Offset<Tensor>>* tensors =
 100:../src/tensorflow_lite/src/tensorflow/lite/micro/micro_allocator.cpp ****             subgraph->tensors();
 101:../src/tensorflow_lite/src/tensorflow/lite/micro/micro_allocator.cpp ****         const flatbuffers::Vector<flatbuffers::Offset<Buffer>>* buffers =
 102:../src/tensorflow_lite/src/tensorflow/lite/micro/micro_allocator.cpp ****             model->buffers();
 103:../src/tensorflow_lite/src/tensorflow/lite/micro/micro_allocator.cpp ****         int nbr_tflite_tensors = tensors->size();
 104:../src/tensorflow_lite/src/tensorflow/lite/micro/micro_allocator.cpp ****         auto* buffer = (*buffers)[metadata->buffer()];
 105:../src/tensorflow_lite/src/tensorflow/lite/micro/micro_allocator.cpp ****         auto* array = buffer->data();
 106:../src/tensorflow_lite/src/tensorflow/lite/micro/micro_allocator.cpp ****         const uint32_t* metadata_buffer = (uint32_t*)array->data();
 107:../src/tensorflow_lite/src/tensorflow/lite/micro/micro_allocator.cpp ****         int version = metadata_buffer[0];
 108:../src/tensorflow_lite/src/tensorflow/lite/micro/micro_allocator.cpp ****         int subgraph_idx = metadata_buffer[1];
 109:../src/tensorflow_lite/src/tensorflow/lite/micro/micro_allocator.cpp ****         const int nbr_offline_offsets = metadata_buffer[2];
 110:../src/tensorflow_lite/src/tensorflow/lite/micro/micro_allocator.cpp **** #ifndef TF_LITE_STRIP_ERROR_STRINGS
 111:../src/tensorflow_lite/src/tensorflow/lite/micro/micro_allocator.cpp ****         int* offline_planner_offsets = (int*)&metadata_buffer[3];
 112:../src/tensorflow_lite/src/tensorflow/lite/micro/micro_allocator.cpp **** #endif
 113:../src/tensorflow_lite/src/tensorflow/lite/micro/micro_allocator.cpp **** 
 114:../src/tensorflow_lite/src/tensorflow/lite/micro/micro_allocator.cpp ****         TF_LITE_REPORT_ERROR(error_reporter, "==== Model metadata info: =====");
 115:../src/tensorflow_lite/src/tensorflow/lite/micro/micro_allocator.cpp ****         TF_LITE_REPORT_ERROR(error_reporter,
 116:../src/tensorflow_lite/src/tensorflow/lite/micro/micro_allocator.cpp ****                              "Offline planner metadata found, version %d, "
 117:../src/tensorflow_lite/src/tensorflow/lite/micro/micro_allocator.cpp ****                              "subgraph %d, nbr offline offsets %d",
 118:../src/tensorflow_lite/src/tensorflow/lite/micro/micro_allocator.cpp ****                              version, subgraph_idx, nbr_offline_offsets);
 119:../src/tensorflow_lite/src/tensorflow/lite/micro/micro_allocator.cpp ****         for (int j = 0; j < nbr_offline_offsets; ++j) {
 120:../src/tensorflow_lite/src/tensorflow/lite/micro/micro_allocator.cpp ****           TF_LITE_REPORT_ERROR(
 121:../src/tensorflow_lite/src/tensorflow/lite/micro/micro_allocator.cpp ****               error_reporter,
 122:../src/tensorflow_lite/src/tensorflow/lite/micro/micro_allocator.cpp ****               "Offline planner tensor index %d, offline offset: %d", j,
 123:../src/tensorflow_lite/src/tensorflow/lite/micro/micro_allocator.cpp ****               offline_planner_offsets[j]);
 124:../src/tensorflow_lite/src/tensorflow/lite/micro/micro_allocator.cpp ****         }
 125:../src/tensorflow_lite/src/tensorflow/lite/micro/micro_allocator.cpp **** 
 126:../src/tensorflow_lite/src/tensorflow/lite/micro/micro_allocator.cpp ****         if (version != 1) {
 127:../src/tensorflow_lite/src/tensorflow/lite/micro/micro_allocator.cpp ****           TF_LITE_REPORT_ERROR(error_reporter, "Version not supported! (%d)\n",
 128:../src/tensorflow_lite/src/tensorflow/lite/micro/micro_allocator.cpp ****                                version);
 129:../src/tensorflow_lite/src/tensorflow/lite/micro/micro_allocator.cpp ****           return kTfLiteError;
 130:../src/tensorflow_lite/src/tensorflow/lite/micro/micro_allocator.cpp ****         }
 131:../src/tensorflow_lite/src/tensorflow/lite/micro/micro_allocator.cpp ****         if (subgraph_idx != 0) {
 132:../src/tensorflow_lite/src/tensorflow/lite/micro/micro_allocator.cpp ****           TF_LITE_REPORT_ERROR(error_reporter,
 133:../src/tensorflow_lite/src/tensorflow/lite/micro/micro_allocator.cpp ****                                "Only 1 subgraph supported! Subgraph idx (%d)\n",
 134:../src/tensorflow_lite/src/tensorflow/lite/micro/micro_allocator.cpp ****                                subgraph_idx);
 135:../src/tensorflow_lite/src/tensorflow/lite/micro/micro_allocator.cpp ****           return kTfLiteError;
 136:../src/tensorflow_lite/src/tensorflow/lite/micro/micro_allocator.cpp ****         }
 137:../src/tensorflow_lite/src/tensorflow/lite/micro/micro_allocator.cpp ****         if (nbr_tflite_tensors != nbr_offline_offsets) {
 138:../src/tensorflow_lite/src/tensorflow/lite/micro/micro_allocator.cpp ****           TF_LITE_REPORT_ERROR(error_reporter,
 139:../src/tensorflow_lite/src/tensorflow/lite/micro/micro_allocator.cpp ****                                "Nbr of offline buffer offsets (%d) in metadata "
 140:../src/tensorflow_lite/src/tensorflow/lite/micro/micro_allocator.cpp ****                                "not equal nbr tensors (%d)\n",
 141:../src/tensorflow_lite/src/tensorflow/lite/micro/micro_allocator.cpp ****                                nbr_offline_offsets, nbr_tflite_tensors);
 142:../src/tensorflow_lite/src/tensorflow/lite/micro/micro_allocator.cpp ****           return kTfLiteError;
 143:../src/tensorflow_lite/src/tensorflow/lite/micro/micro_allocator.cpp ****         }
 144:../src/tensorflow_lite/src/tensorflow/lite/micro/micro_allocator.cpp ****       }
 145:../src/tensorflow_lite/src/tensorflow/lite/micro/micro_allocator.cpp ****     }
 146:../src/tensorflow_lite/src/tensorflow/lite/micro/micro_allocator.cpp ****   }
 147:../src/tensorflow_lite/src/tensorflow/lite/micro/micro_allocator.cpp ****   return kTfLiteOk;
 148:../src/tensorflow_lite/src/tensorflow/lite/micro/micro_allocator.cpp **** }
 149:../src/tensorflow_lite/src/tensorflow/lite/micro/micro_allocator.cpp **** #endif
 150:../src/tensorflow_lite/src/tensorflow/lite/micro/micro_allocator.cpp **** 
 151:../src/tensorflow_lite/src/tensorflow/lite/micro/micro_allocator.cpp **** // A helper class to construct AllocationInfo array. This array contains the
 152:../src/tensorflow_lite/src/tensorflow/lite/micro/micro_allocator.cpp **** // lifetime of tensors / scratch_buffer and will be used to calculate the memory
 153:../src/tensorflow_lite/src/tensorflow/lite/micro/micro_allocator.cpp **** // plan. Methods need to be called in order from `Init`, `Add*`, to `Finish`.
 154:../src/tensorflow_lite/src/tensorflow/lite/micro/micro_allocator.cpp **** class AllocationInfoBuilder {
 155:../src/tensorflow_lite/src/tensorflow/lite/micro/micro_allocator.cpp ****  public:
 156:../src/tensorflow_lite/src/tensorflow/lite/micro/micro_allocator.cpp ****   AllocationInfoBuilder(AllocationInfo* info, size_t tensor_count,
 157:../src/tensorflow_lite/src/tensorflow/lite/micro/micro_allocator.cpp ****                         size_t scratch_buffer_count, ErrorReporter* reporter)
 158:../src/tensorflow_lite/src/tensorflow/lite/micro/micro_allocator.cpp ****       : info_(info),
 159:../src/tensorflow_lite/src/tensorflow/lite/micro/micro_allocator.cpp ****         tensor_count_(tensor_count),
 160:../src/tensorflow_lite/src/tensorflow/lite/micro/micro_allocator.cpp ****         buffer_count_(scratch_buffer_count),
 161:../src/tensorflow_lite/src/tensorflow/lite/micro/micro_allocator.cpp ****         reporter_(reporter) {}
 162:../src/tensorflow_lite/src/tensorflow/lite/micro/micro_allocator.cpp **** 
 163:../src/tensorflow_lite/src/tensorflow/lite/micro/micro_allocator.cpp ****   // Check if model contains offline planned buffer offsets.
 164:../src/tensorflow_lite/src/tensorflow/lite/micro/micro_allocator.cpp ****   //  - If there's no metadata available, offline_planner_offsets is not set
 165:../src/tensorflow_lite/src/tensorflow/lite/micro/micro_allocator.cpp ****   //  - If there's metadata available, offline_planner_offsets will point to the
 166:../src/tensorflow_lite/src/tensorflow/lite/micro/micro_allocator.cpp ****   //    first offset in the metadata buffer list.
 167:../src/tensorflow_lite/src/tensorflow/lite/micro/micro_allocator.cpp ****   TfLiteStatus GetOfflinePlannedOffsets(
 168:../src/tensorflow_lite/src/tensorflow/lite/micro/micro_allocator.cpp ****       const Model* model, const int32_t** offline_planner_offsets);
 169:../src/tensorflow_lite/src/tensorflow/lite/micro/micro_allocator.cpp **** 
 170:../src/tensorflow_lite/src/tensorflow/lite/micro/micro_allocator.cpp ****   // Add allocaiton information for the tensors.
 171:../src/tensorflow_lite/src/tensorflow/lite/micro/micro_allocator.cpp ****   TfLiteStatus AddTensors(const SubGraph* subgraph,
 172:../src/tensorflow_lite/src/tensorflow/lite/micro/micro_allocator.cpp ****                           const int32_t* offline_offsets,
 173:../src/tensorflow_lite/src/tensorflow/lite/micro/micro_allocator.cpp ****                           TfLiteEvalTensor* eval_tensors);
 174:../src/tensorflow_lite/src/tensorflow/lite/micro/micro_allocator.cpp **** 
 175:../src/tensorflow_lite/src/tensorflow/lite/micro/micro_allocator.cpp ****   // Add allocation information for the scratch buffers.
 176:../src/tensorflow_lite/src/tensorflow/lite/micro/micro_allocator.cpp ****   TfLiteStatus AddScratchBuffers(
 177:../src/tensorflow_lite/src/tensorflow/lite/micro/micro_allocator.cpp ****       internal::ScratchBufferRequest* scratch_buffer_requests,
 178:../src/tensorflow_lite/src/tensorflow/lite/micro/micro_allocator.cpp ****       ScratchBufferHandle* scratch_buffer_handles);
 179:../src/tensorflow_lite/src/tensorflow/lite/micro/micro_allocator.cpp **** 
 180:../src/tensorflow_lite/src/tensorflow/lite/micro/micro_allocator.cpp ****   // Returns a pointer to the built AllocationInfo array.
 181:../src/tensorflow_lite/src/tensorflow/lite/micro/micro_allocator.cpp ****   const AllocationInfo* Finish() const { return info_; }
 182:../src/tensorflow_lite/src/tensorflow/lite/micro/micro_allocator.cpp **** 
 183:../src/tensorflow_lite/src/tensorflow/lite/micro/micro_allocator.cpp ****  private:
 184:../src/tensorflow_lite/src/tensorflow/lite/micro/micro_allocator.cpp ****   AllocationInfo* info_ = nullptr;
 185:../src/tensorflow_lite/src/tensorflow/lite/micro/micro_allocator.cpp ****   size_t tensor_count_ = 0;
 186:../src/tensorflow_lite/src/tensorflow/lite/micro/micro_allocator.cpp ****   size_t buffer_count_ = 0;
 187:../src/tensorflow_lite/src/tensorflow/lite/micro/micro_allocator.cpp ****   ErrorReporter* reporter_ = nullptr;
 188:../src/tensorflow_lite/src/tensorflow/lite/micro/micro_allocator.cpp **** };
 189:../src/tensorflow_lite/src/tensorflow/lite/micro/micro_allocator.cpp **** 
 190:../src/tensorflow_lite/src/tensorflow/lite/micro/micro_allocator.cpp **** TfLiteStatus AllocationInfoBuilder::AddTensors(const SubGraph* subgraph,
 191:../src/tensorflow_lite/src/tensorflow/lite/micro/micro_allocator.cpp ****                                                const int32_t* offline_offsets,
 192:../src/tensorflow_lite/src/tensorflow/lite/micro/micro_allocator.cpp ****                                                TfLiteEvalTensor* eval_tensors) {
 193:../src/tensorflow_lite/src/tensorflow/lite/micro/micro_allocator.cpp ****   TFLITE_DCHECK(eval_tensors != nullptr);
 194:../src/tensorflow_lite/src/tensorflow/lite/micro/micro_allocator.cpp **** 
 195:../src/tensorflow_lite/src/tensorflow/lite/micro/micro_allocator.cpp ****   // Set up allocation info for all tensors.
 196:../src/tensorflow_lite/src/tensorflow/lite/micro/micro_allocator.cpp ****   for (size_t i = 0; i < tensor_count_; ++i) {
 197:../src/tensorflow_lite/src/tensorflow/lite/micro/micro_allocator.cpp ****     AllocationInfo* current = &info_[i];
 198:../src/tensorflow_lite/src/tensorflow/lite/micro/micro_allocator.cpp ****     current->output_ptr = &(eval_tensors[i].data.data);
 199:../src/tensorflow_lite/src/tensorflow/lite/micro/micro_allocator.cpp **** 
 200:../src/tensorflow_lite/src/tensorflow/lite/micro/micro_allocator.cpp ****     TF_LITE_ENSURE_STATUS(
 201:../src/tensorflow_lite/src/tensorflow/lite/micro/micro_allocator.cpp ****         TfLiteEvalTensorByteLength(&eval_tensors[i], &current->bytes));
 202:../src/tensorflow_lite/src/tensorflow/lite/micro/micro_allocator.cpp **** 
 203:../src/tensorflow_lite/src/tensorflow/lite/micro/micro_allocator.cpp ****     current->first_created = -1;
 204:../src/tensorflow_lite/src/tensorflow/lite/micro/micro_allocator.cpp ****     current->last_used = -1;
 205:../src/tensorflow_lite/src/tensorflow/lite/micro/micro_allocator.cpp ****     current->needs_allocating = (eval_tensors[i].data.data == nullptr) &&
 206:../src/tensorflow_lite/src/tensorflow/lite/micro/micro_allocator.cpp ****                                 (!subgraph->tensors()->Get(i)->is_variable());
 207:../src/tensorflow_lite/src/tensorflow/lite/micro/micro_allocator.cpp ****     if (offline_offsets) {
 208:../src/tensorflow_lite/src/tensorflow/lite/micro/micro_allocator.cpp ****       current->offline_offset = offline_offsets[i];
 209:../src/tensorflow_lite/src/tensorflow/lite/micro/micro_allocator.cpp ****     } else {
 210:../src/tensorflow_lite/src/tensorflow/lite/micro/micro_allocator.cpp ****       current->offline_offset = kOnlinePlannedBuffer;
 211:../src/tensorflow_lite/src/tensorflow/lite/micro/micro_allocator.cpp ****     }
 212:../src/tensorflow_lite/src/tensorflow/lite/micro/micro_allocator.cpp ****   }
 213:../src/tensorflow_lite/src/tensorflow/lite/micro/micro_allocator.cpp **** 
 214:../src/tensorflow_lite/src/tensorflow/lite/micro/micro_allocator.cpp ****   for (size_t i = 0; i < subgraph->inputs()->size(); ++i) {
 215:../src/tensorflow_lite/src/tensorflow/lite/micro/micro_allocator.cpp ****     const int tensor_index = subgraph->inputs()->Get(i);
 216:../src/tensorflow_lite/src/tensorflow/lite/micro/micro_allocator.cpp ****     AllocationInfo* current = &info_[tensor_index];
 217:../src/tensorflow_lite/src/tensorflow/lite/micro/micro_allocator.cpp ****     current->first_created = 0;
 218:../src/tensorflow_lite/src/tensorflow/lite/micro/micro_allocator.cpp ****   }
 219:../src/tensorflow_lite/src/tensorflow/lite/micro/micro_allocator.cpp **** 
 220:../src/tensorflow_lite/src/tensorflow/lite/micro/micro_allocator.cpp ****   // Mark all outputs as persistent to the end of the invocation.
 221:../src/tensorflow_lite/src/tensorflow/lite/micro/micro_allocator.cpp ****   for (size_t i = 0; i < subgraph->outputs()->size(); ++i) {
 222:../src/tensorflow_lite/src/tensorflow/lite/micro/micro_allocator.cpp ****     const int tensor_index = subgraph->outputs()->Get(i);
 223:../src/tensorflow_lite/src/tensorflow/lite/micro/micro_allocator.cpp ****     AllocationInfo* current = &info_[tensor_index];
 224:../src/tensorflow_lite/src/tensorflow/lite/micro/micro_allocator.cpp ****     current->last_used = subgraph->operators()->size() - 1;
 225:../src/tensorflow_lite/src/tensorflow/lite/micro/micro_allocator.cpp ****   }
 226:../src/tensorflow_lite/src/tensorflow/lite/micro/micro_allocator.cpp **** 
 227:../src/tensorflow_lite/src/tensorflow/lite/micro/micro_allocator.cpp ****   // Figure out when the first and last use of each tensor is.
 228:../src/tensorflow_lite/src/tensorflow/lite/micro/micro_allocator.cpp ****   for (int i = (subgraph->operators()->size() - 1); i >= 0; --i) {
 229:../src/tensorflow_lite/src/tensorflow/lite/micro/micro_allocator.cpp ****     const auto* op = subgraph->operators()->Get(i);
 230:../src/tensorflow_lite/src/tensorflow/lite/micro/micro_allocator.cpp ****     for (size_t n = 0; n < op->inputs()->size(); ++n) {
 231:../src/tensorflow_lite/src/tensorflow/lite/micro/micro_allocator.cpp ****       const int tensor_index = op->inputs()->Get(n);
 232:../src/tensorflow_lite/src/tensorflow/lite/micro/micro_allocator.cpp ****       AllocationInfo* current = &info_[tensor_index];
 233:../src/tensorflow_lite/src/tensorflow/lite/micro/micro_allocator.cpp ****       if (((current->last_used == -1) || (current->last_used < i))) {
 234:../src/tensorflow_lite/src/tensorflow/lite/micro/micro_allocator.cpp ****         current->last_used = i;
 235:../src/tensorflow_lite/src/tensorflow/lite/micro/micro_allocator.cpp ****       }
 236:../src/tensorflow_lite/src/tensorflow/lite/micro/micro_allocator.cpp ****     }
 237:../src/tensorflow_lite/src/tensorflow/lite/micro/micro_allocator.cpp ****     for (size_t n = 0; n < op->outputs()->size(); ++n) {
 238:../src/tensorflow_lite/src/tensorflow/lite/micro/micro_allocator.cpp ****       const int tensor_index = op->outputs()->Get(n);
 239:../src/tensorflow_lite/src/tensorflow/lite/micro/micro_allocator.cpp ****       AllocationInfo* current = &info_[tensor_index];
 240:../src/tensorflow_lite/src/tensorflow/lite/micro/micro_allocator.cpp ****       if ((current->first_created == -1) || (current->first_created > i)) {
 241:../src/tensorflow_lite/src/tensorflow/lite/micro/micro_allocator.cpp ****         current->first_created = i;
 242:../src/tensorflow_lite/src/tensorflow/lite/micro/micro_allocator.cpp ****       }
 243:../src/tensorflow_lite/src/tensorflow/lite/micro/micro_allocator.cpp ****     }
 244:../src/tensorflow_lite/src/tensorflow/lite/micro/micro_allocator.cpp ****   }
 245:../src/tensorflow_lite/src/tensorflow/lite/micro/micro_allocator.cpp ****   return kTfLiteOk;
 246:../src/tensorflow_lite/src/tensorflow/lite/micro/micro_allocator.cpp **** }
 247:../src/tensorflow_lite/src/tensorflow/lite/micro/micro_allocator.cpp **** 
 248:../src/tensorflow_lite/src/tensorflow/lite/micro/micro_allocator.cpp **** // Get offline tensors allocation plan. See
 249:../src/tensorflow_lite/src/tensorflow/lite/micro/micro_allocator.cpp **** // micro/docs/memory_management.md for more info.
 250:../src/tensorflow_lite/src/tensorflow/lite/micro/micro_allocator.cpp **** TfLiteStatus AllocationInfoBuilder::GetOfflinePlannedOffsets(
 251:../src/tensorflow_lite/src/tensorflow/lite/micro/micro_allocator.cpp ****     const Model* model, const int32_t** offline_planner_offsets) {
 252:../src/tensorflow_lite/src/tensorflow/lite/micro/micro_allocator.cpp ****   if (model->metadata()) {
 253:../src/tensorflow_lite/src/tensorflow/lite/micro/micro_allocator.cpp ****     for (size_t i = 0; i < model->metadata()->size(); ++i) {
 254:../src/tensorflow_lite/src/tensorflow/lite/micro/micro_allocator.cpp ****       auto metadata = model->metadata()->Get(i);
 255:../src/tensorflow_lite/src/tensorflow/lite/micro/micro_allocator.cpp ****       if (strncmp(metadata->name()->c_str(), kOfflineMemAllocMetadata,
 256:../src/tensorflow_lite/src/tensorflow/lite/micro/micro_allocator.cpp ****                   strlen(kOfflineMemAllocMetadata)) == 0) {
 257:../src/tensorflow_lite/src/tensorflow/lite/micro/micro_allocator.cpp ****         const flatbuffers::Vector<flatbuffers::Offset<Buffer>>* buffers =
 258:../src/tensorflow_lite/src/tensorflow/lite/micro/micro_allocator.cpp ****             model->buffers();
 259:../src/tensorflow_lite/src/tensorflow/lite/micro/micro_allocator.cpp ****         auto* buffer = (*buffers)[metadata->buffer()];
 260:../src/tensorflow_lite/src/tensorflow/lite/micro/micro_allocator.cpp ****         auto* array = buffer->data();
 261:../src/tensorflow_lite/src/tensorflow/lite/micro/micro_allocator.cpp ****         const uint32_t* metadata_buffer =
 262:../src/tensorflow_lite/src/tensorflow/lite/micro/micro_allocator.cpp ****             reinterpret_cast<const uint32_t*>(array->data());
 263:../src/tensorflow_lite/src/tensorflow/lite/micro/micro_allocator.cpp ****         const size_t nbr_tensors = static_cast<size_t>(metadata_buffer[2]);
 264:../src/tensorflow_lite/src/tensorflow/lite/micro/micro_allocator.cpp ****         *offline_planner_offsets =
 265:../src/tensorflow_lite/src/tensorflow/lite/micro/micro_allocator.cpp ****             reinterpret_cast<const int32_t*>(&metadata_buffer[3]);
 266:../src/tensorflow_lite/src/tensorflow/lite/micro/micro_allocator.cpp **** 
 267:../src/tensorflow_lite/src/tensorflow/lite/micro/micro_allocator.cpp ****         if (tensor_count_ != nbr_tensors) {
 268:../src/tensorflow_lite/src/tensorflow/lite/micro/micro_allocator.cpp ****           TF_LITE_REPORT_ERROR(reporter_,
 269:../src/tensorflow_lite/src/tensorflow/lite/micro/micro_allocator.cpp ****                                "Nbr of offline buffer offsets (%d) in metadata "
 270:../src/tensorflow_lite/src/tensorflow/lite/micro/micro_allocator.cpp ****                                "not equal nbr tensors (%d)\n",
 271:../src/tensorflow_lite/src/tensorflow/lite/micro/micro_allocator.cpp ****                                nbr_tensors, tensor_count_);
 272:../src/tensorflow_lite/src/tensorflow/lite/micro/micro_allocator.cpp ****           return kTfLiteError;
 273:../src/tensorflow_lite/src/tensorflow/lite/micro/micro_allocator.cpp ****         }
 274:../src/tensorflow_lite/src/tensorflow/lite/micro/micro_allocator.cpp ****       }
 275:../src/tensorflow_lite/src/tensorflow/lite/micro/micro_allocator.cpp ****     }
 276:../src/tensorflow_lite/src/tensorflow/lite/micro/micro_allocator.cpp ****   }
 277:../src/tensorflow_lite/src/tensorflow/lite/micro/micro_allocator.cpp ****   return kTfLiteOk;
 278:../src/tensorflow_lite/src/tensorflow/lite/micro/micro_allocator.cpp **** }
 279:../src/tensorflow_lite/src/tensorflow/lite/micro/micro_allocator.cpp **** 
 280:../src/tensorflow_lite/src/tensorflow/lite/micro/micro_allocator.cpp **** TfLiteStatus AllocationInfoBuilder::AddScratchBuffers(
 281:../src/tensorflow_lite/src/tensorflow/lite/micro/micro_allocator.cpp ****     internal::ScratchBufferRequest* scratch_buffer_requests,
 282:../src/tensorflow_lite/src/tensorflow/lite/micro/micro_allocator.cpp ****     ScratchBufferHandle* scratch_buffer_handles) {
 283:../src/tensorflow_lite/src/tensorflow/lite/micro/micro_allocator.cpp ****   // Set up allocation info for buffers.
 284:../src/tensorflow_lite/src/tensorflow/lite/micro/micro_allocator.cpp ****   for (size_t i = tensor_count_; i < tensor_count_ + buffer_count_; ++i) {
 285:../src/tensorflow_lite/src/tensorflow/lite/micro/micro_allocator.cpp ****     internal::ScratchBufferRequest* current_request =
 286:../src/tensorflow_lite/src/tensorflow/lite/micro/micro_allocator.cpp ****         &(scratch_buffer_requests[i - tensor_count_]);
 287:../src/tensorflow_lite/src/tensorflow/lite/micro/micro_allocator.cpp ****     ScratchBufferHandle* current_handle =
 288:../src/tensorflow_lite/src/tensorflow/lite/micro/micro_allocator.cpp ****         &(scratch_buffer_handles[i - tensor_count_]);
 289:../src/tensorflow_lite/src/tensorflow/lite/micro/micro_allocator.cpp **** 
 290:../src/tensorflow_lite/src/tensorflow/lite/micro/micro_allocator.cpp ****     AllocationInfo* current = &info_[i];
 291:../src/tensorflow_lite/src/tensorflow/lite/micro/micro_allocator.cpp ****     current->output_ptr = reinterpret_cast<void**>(&current_handle->data);
 292:../src/tensorflow_lite/src/tensorflow/lite/micro/micro_allocator.cpp ****     current->bytes = current_request->bytes;
 293:../src/tensorflow_lite/src/tensorflow/lite/micro/micro_allocator.cpp ****     current->first_created = current_request->node_idx;
 294:../src/tensorflow_lite/src/tensorflow/lite/micro/micro_allocator.cpp ****     current->last_used = current_request->node_idx;
 295:../src/tensorflow_lite/src/tensorflow/lite/micro/micro_allocator.cpp ****     current->offline_offset = kOnlinePlannedBuffer;
 296:../src/tensorflow_lite/src/tensorflow/lite/micro/micro_allocator.cpp ****     current->needs_allocating = true;
 297:../src/tensorflow_lite/src/tensorflow/lite/micro/micro_allocator.cpp ****   }
 298:../src/tensorflow_lite/src/tensorflow/lite/micro/micro_allocator.cpp ****   return kTfLiteOk;
 299:../src/tensorflow_lite/src/tensorflow/lite/micro/micro_allocator.cpp **** }
 300:../src/tensorflow_lite/src/tensorflow/lite/micro/micro_allocator.cpp **** 
 301:../src/tensorflow_lite/src/tensorflow/lite/micro/micro_allocator.cpp **** TfLiteStatus CreatePlan(ErrorReporter* error_reporter,
 302:../src/tensorflow_lite/src/tensorflow/lite/micro/micro_allocator.cpp ****                         GreedyMemoryPlanner* planner,
 303:../src/tensorflow_lite/src/tensorflow/lite/micro/micro_allocator.cpp ****                         const AllocationInfo* allocation_info,
 304:../src/tensorflow_lite/src/tensorflow/lite/micro/micro_allocator.cpp ****                         size_t allocation_info_size) {
 305:../src/tensorflow_lite/src/tensorflow/lite/micro/micro_allocator.cpp ****   // Add the tensors to our allocation plan.
 306:../src/tensorflow_lite/src/tensorflow/lite/micro/micro_allocator.cpp ****   for (size_t i = 0; i < allocation_info_size; ++i) {
 307:../src/tensorflow_lite/src/tensorflow/lite/micro/micro_allocator.cpp ****     const AllocationInfo* current = &allocation_info[i];
 308:../src/tensorflow_lite/src/tensorflow/lite/micro/micro_allocator.cpp ****     if (current->needs_allocating) {
 309:../src/tensorflow_lite/src/tensorflow/lite/micro/micro_allocator.cpp ****       size_t aligned_bytes_required =
 310:../src/tensorflow_lite/src/tensorflow/lite/micro/micro_allocator.cpp ****           AlignSizeUp(current->bytes, kBufferAlignment);
 311:../src/tensorflow_lite/src/tensorflow/lite/micro/micro_allocator.cpp ****       if (current->offline_offset == kOnlinePlannedBuffer) {
 312:../src/tensorflow_lite/src/tensorflow/lite/micro/micro_allocator.cpp ****         TF_LITE_ENSURE_STATUS(
 313:../src/tensorflow_lite/src/tensorflow/lite/micro/micro_allocator.cpp ****             planner->AddBuffer(error_reporter, aligned_bytes_required,
 314:../src/tensorflow_lite/src/tensorflow/lite/micro/micro_allocator.cpp ****                                current->first_created, current->last_used));
 315:../src/tensorflow_lite/src/tensorflow/lite/micro/micro_allocator.cpp ****       } else {
 316:../src/tensorflow_lite/src/tensorflow/lite/micro/micro_allocator.cpp ****         TF_LITE_ENSURE_STATUS(planner->AddBuffer(
 317:../src/tensorflow_lite/src/tensorflow/lite/micro/micro_allocator.cpp ****             error_reporter, aligned_bytes_required, current->first_created,
 318:../src/tensorflow_lite/src/tensorflow/lite/micro/micro_allocator.cpp ****             current->last_used, current->offline_offset));
 319:../src/tensorflow_lite/src/tensorflow/lite/micro/micro_allocator.cpp ****       }
 320:../src/tensorflow_lite/src/tensorflow/lite/micro/micro_allocator.cpp ****     }
 321:../src/tensorflow_lite/src/tensorflow/lite/micro/micro_allocator.cpp ****   }
 322:../src/tensorflow_lite/src/tensorflow/lite/micro/micro_allocator.cpp ****   return kTfLiteOk;
 323:../src/tensorflow_lite/src/tensorflow/lite/micro/micro_allocator.cpp **** }
 324:../src/tensorflow_lite/src/tensorflow/lite/micro/micro_allocator.cpp **** 
 325:../src/tensorflow_lite/src/tensorflow/lite/micro/micro_allocator.cpp **** TfLiteStatus CommitPlan(ErrorReporter* error_reporter, MemoryPlanner* planner,
 326:../src/tensorflow_lite/src/tensorflow/lite/micro/micro_allocator.cpp ****                         uint8_t* starting_point,
 327:../src/tensorflow_lite/src/tensorflow/lite/micro/micro_allocator.cpp ****                         const AllocationInfo* allocation_info,
 328:../src/tensorflow_lite/src/tensorflow/lite/micro/micro_allocator.cpp ****                         size_t allocation_info_size) {
 329:../src/tensorflow_lite/src/tensorflow/lite/micro/micro_allocator.cpp ****   // Figure out the actual memory addresses for each buffer, based on the plan.
 330:../src/tensorflow_lite/src/tensorflow/lite/micro/micro_allocator.cpp ****   int planner_index = 0;
 331:../src/tensorflow_lite/src/tensorflow/lite/micro/micro_allocator.cpp ****   for (size_t i = 0; i < allocation_info_size; ++i) {
 332:../src/tensorflow_lite/src/tensorflow/lite/micro/micro_allocator.cpp ****     const AllocationInfo* current = &allocation_info[i];
 333:../src/tensorflow_lite/src/tensorflow/lite/micro/micro_allocator.cpp ****     if (current->needs_allocating) {
 334:../src/tensorflow_lite/src/tensorflow/lite/micro/micro_allocator.cpp ****       int offset = -1;
 335:../src/tensorflow_lite/src/tensorflow/lite/micro/micro_allocator.cpp ****       TF_LITE_ENSURE_STATUS(
 336:../src/tensorflow_lite/src/tensorflow/lite/micro/micro_allocator.cpp ****           planner->GetOffsetForBuffer(error_reporter, planner_index, &offset));
 337:../src/tensorflow_lite/src/tensorflow/lite/micro/micro_allocator.cpp ****       *current->output_ptr = reinterpret_cast<void*>(starting_point + offset);
 338:../src/tensorflow_lite/src/tensorflow/lite/micro/micro_allocator.cpp ****       ++planner_index;
 339:../src/tensorflow_lite/src/tensorflow/lite/micro/micro_allocator.cpp ****     }
 340:../src/tensorflow_lite/src/tensorflow/lite/micro/micro_allocator.cpp ****   }
 341:../src/tensorflow_lite/src/tensorflow/lite/micro/micro_allocator.cpp ****   return kTfLiteOk;
 342:../src/tensorflow_lite/src/tensorflow/lite/micro/micro_allocator.cpp **** }
 343:../src/tensorflow_lite/src/tensorflow/lite/micro/micro_allocator.cpp **** }  // namespace
 344:../src/tensorflow_lite/src/tensorflow/lite/micro/micro_allocator.cpp **** 
 345:../src/tensorflow_lite/src/tensorflow/lite/micro/micro_allocator.cpp **** namespace internal {
 346:../src/tensorflow_lite/src/tensorflow/lite/micro/micro_allocator.cpp **** 
 347:../src/tensorflow_lite/src/tensorflow/lite/micro/micro_allocator.cpp **** // Handles architecture safe mapping of flatbuffer vectors to a TfLite*Array
 348:../src/tensorflow_lite/src/tensorflow/lite/micro/micro_allocator.cpp **** // struct. Matching types are required (e.g. float and TfLiteFloatArray).
 349:../src/tensorflow_lite/src/tensorflow/lite/micro/micro_allocator.cpp **** // Big-endian systems will always allocate dimension array data in the tail
 350:../src/tensorflow_lite/src/tensorflow/lite/micro/micro_allocator.cpp **** // (persistent) section.
 351:../src/tensorflow_lite/src/tensorflow/lite/micro/micro_allocator.cpp **** template <typename kFlatBufferVectorType, typename kTfLiteArrayType>
 352:../src/tensorflow_lite/src/tensorflow/lite/micro/micro_allocator.cpp **** TfLiteStatus FlatBufferVectorToTfLiteTypeArray(
 353:../src/tensorflow_lite/src/tensorflow/lite/micro/micro_allocator.cpp ****     SimpleMemoryAllocator* allocator, ErrorReporter* error_reporter,
 354:../src/tensorflow_lite/src/tensorflow/lite/micro/micro_allocator.cpp ****     const flatbuffers::Vector<kFlatBufferVectorType>* flatbuffer_array,
 355:../src/tensorflow_lite/src/tensorflow/lite/micro/micro_allocator.cpp ****     kTfLiteArrayType** result) {
 356:../src/tensorflow_lite/src/tensorflow/lite/micro/micro_allocator.cpp ****   TFLITE_DCHECK(error_reporter != nullptr);
 357:../src/tensorflow_lite/src/tensorflow/lite/micro/micro_allocator.cpp ****   TFLITE_DCHECK(flatbuffer_array != nullptr);
 358:../src/tensorflow_lite/src/tensorflow/lite/micro/micro_allocator.cpp ****   // TODO(b/159668691): Consider adding type assertion or breaking this function
 359:../src/tensorflow_lite/src/tensorflow/lite/micro/micro_allocator.cpp ****   // into multiple functions for each type. std::is_same is c++11 and has a
 360:../src/tensorflow_lite/src/tensorflow/lite/micro/micro_allocator.cpp ****   // special updated constructor in c++17 that requires a string argument.
 361:../src/tensorflow_lite/src/tensorflow/lite/micro/micro_allocator.cpp ****   if (FLATBUFFERS_LITTLEENDIAN) {
 362:../src/tensorflow_lite/src/tensorflow/lite/micro/micro_allocator.cpp ****     // On little-endian machines, TfLite*Array happens to have the same memory
 363:../src/tensorflow_lite/src/tensorflow/lite/micro/micro_allocator.cpp ****     // layout as flatbuffers:Vector<kFlatBufferVectorType>, so we can
 364:../src/tensorflow_lite/src/tensorflow/lite/micro/micro_allocator.cpp ****     // reinterpret_cast the flatbuffer vector and avoid a copy and malloc.
 365:../src/tensorflow_lite/src/tensorflow/lite/micro/micro_allocator.cpp ****     *result = const_cast<kTfLiteArrayType*>(
 366:../src/tensorflow_lite/src/tensorflow/lite/micro/micro_allocator.cpp ****         reinterpret_cast<const kTfLiteArrayType*>(flatbuffer_array));
 367:../src/tensorflow_lite/src/tensorflow/lite/micro/micro_allocator.cpp ****   } else {
 368:../src/tensorflow_lite/src/tensorflow/lite/micro/micro_allocator.cpp ****     // Big-endian architecture can not use the same memory layout as
 369:../src/tensorflow_lite/src/tensorflow/lite/micro/micro_allocator.cpp ****     // flatbuffers::Vector<kFlatBufferVectorType>. Allocate from the tail and
 370:../src/tensorflow_lite/src/tensorflow/lite/micro/micro_allocator.cpp ****     // copy values from the flatbuffer into the newly allocated chunk.
 371:../src/tensorflow_lite/src/tensorflow/lite/micro/micro_allocator.cpp ****     kTfLiteArrayType* array =
 372:../src/tensorflow_lite/src/tensorflow/lite/micro/micro_allocator.cpp ****         reinterpret_cast<kTfLiteArrayType*>(allocator->AllocateFromTail(
 373:../src/tensorflow_lite/src/tensorflow/lite/micro/micro_allocator.cpp ****             TfLiteIntArrayGetSizeInBytes(flatbuffer_array->Length()),
 374:../src/tensorflow_lite/src/tensorflow/lite/micro/micro_allocator.cpp ****             alignof(kTfLiteArrayType)));
 375:../src/tensorflow_lite/src/tensorflow/lite/micro/micro_allocator.cpp ****     if (array == nullptr) {
 376:../src/tensorflow_lite/src/tensorflow/lite/micro/micro_allocator.cpp ****       TF_LITE_REPORT_ERROR(
 377:../src/tensorflow_lite/src/tensorflow/lite/micro/micro_allocator.cpp ****           error_reporter,
 378:../src/tensorflow_lite/src/tensorflow/lite/micro/micro_allocator.cpp ****           "Failed to allocate %d bytes of memory to copy an array.",
 379:../src/tensorflow_lite/src/tensorflow/lite/micro/micro_allocator.cpp ****           TfLiteIntArrayGetSizeInBytes(flatbuffer_array->Length()));
 380:../src/tensorflow_lite/src/tensorflow/lite/micro/micro_allocator.cpp ****       return kTfLiteError;
 381:../src/tensorflow_lite/src/tensorflow/lite/micro/micro_allocator.cpp ****     }
 382:../src/tensorflow_lite/src/tensorflow/lite/micro/micro_allocator.cpp ****     array->size = flatbuffer_array->Length();
 383:../src/tensorflow_lite/src/tensorflow/lite/micro/micro_allocator.cpp ****     for (int i = 0; i < array->size; ++i) {
 384:../src/tensorflow_lite/src/tensorflow/lite/micro/micro_allocator.cpp ****       array->data[i] = flatbuffer_array->Get(i);
 385:../src/tensorflow_lite/src/tensorflow/lite/micro/micro_allocator.cpp ****     }
 386:../src/tensorflow_lite/src/tensorflow/lite/micro/micro_allocator.cpp ****     *result = array;
 387:../src/tensorflow_lite/src/tensorflow/lite/micro/micro_allocator.cpp ****   }
 388:../src/tensorflow_lite/src/tensorflow/lite/micro/micro_allocator.cpp ****   return kTfLiteOk;
 389:../src/tensorflow_lite/src/tensorflow/lite/micro/micro_allocator.cpp **** }
 390:../src/tensorflow_lite/src/tensorflow/lite/micro/micro_allocator.cpp **** 
 391:../src/tensorflow_lite/src/tensorflow/lite/micro/micro_allocator.cpp **** // Returns a pointer to any buffer associated with the flatbuffer tensor. Can
 392:../src/tensorflow_lite/src/tensorflow/lite/micro/micro_allocator.cpp **** // return nullptr if no buffer is found.
 393:../src/tensorflow_lite/src/tensorflow/lite/micro/micro_allocator.cpp **** void* GetFlatbufferTensorBuffer(
 394:../src/tensorflow_lite/src/tensorflow/lite/micro/micro_allocator.cpp ****     const tflite::Tensor& flatbuffer_tensor,
 395:../src/tensorflow_lite/src/tensorflow/lite/micro/micro_allocator.cpp ****     const flatbuffers::Vector<flatbuffers::Offset<Buffer>>* buffers) {
 396:../src/tensorflow_lite/src/tensorflow/lite/micro/micro_allocator.cpp ****   // We need to figure out where the actual contents of this tensor are stored
 397:../src/tensorflow_lite/src/tensorflow/lite/micro/micro_allocator.cpp ****   // in memory. We'll check to see if there's a serialized buffer (pretty much
 398:../src/tensorflow_lite/src/tensorflow/lite/micro/micro_allocator.cpp ****   // the same as a constant op in TensorFlow) associated with this tensor first,
 399:../src/tensorflow_lite/src/tensorflow/lite/micro/micro_allocator.cpp ****   // and if there is update the runtime structure to point to its location in
 400:../src/tensorflow_lite/src/tensorflow/lite/micro/micro_allocator.cpp ****   // memory.
 401:../src/tensorflow_lite/src/tensorflow/lite/micro/micro_allocator.cpp ****   // First see if there's any buffer information in the serialized tensor.
 402:../src/tensorflow_lite/src/tensorflow/lite/micro/micro_allocator.cpp ****   // TODO(b/170379532): Add better unit tests to validate flatbuffer values.
 403:../src/tensorflow_lite/src/tensorflow/lite/micro/micro_allocator.cpp ****   void* out_buffer = nullptr;
 404:../src/tensorflow_lite/src/tensorflow/lite/micro/micro_allocator.cpp ****   if (auto* buffer = (*buffers)[flatbuffer_tensor.buffer()]) {
 405:../src/tensorflow_lite/src/tensorflow/lite/micro/micro_allocator.cpp ****     // If we've found a buffer, does it have any data?
 406:../src/tensorflow_lite/src/tensorflow/lite/micro/micro_allocator.cpp ****     if (auto* array = buffer->data()) {
 407:../src/tensorflow_lite/src/tensorflow/lite/micro/micro_allocator.cpp ****       // If it has any data, is the data size larger than zero?
 408:../src/tensorflow_lite/src/tensorflow/lite/micro/micro_allocator.cpp ****       if (array->size()) {
 409:../src/tensorflow_lite/src/tensorflow/lite/micro/micro_allocator.cpp ****         // We've found a buffer with valid data, so update the runtime tensor
 410:../src/tensorflow_lite/src/tensorflow/lite/micro/micro_allocator.cpp ****         // data structure to point to it.
 411:../src/tensorflow_lite/src/tensorflow/lite/micro/micro_allocator.cpp ****         out_buffer = const_cast<void*>(static_cast<const void*>(array->data()));
 412:../src/tensorflow_lite/src/tensorflow/lite/micro/micro_allocator.cpp ****       }
 413:../src/tensorflow_lite/src/tensorflow/lite/micro/micro_allocator.cpp ****     }
 414:../src/tensorflow_lite/src/tensorflow/lite/micro/micro_allocator.cpp ****     // TODO(petewarden): It's not clear in what circumstances we could have a
 415:../src/tensorflow_lite/src/tensorflow/lite/micro/micro_allocator.cpp ****     // buffer in the serialized tensor, but it doesn't have any data in it. Is
 416:../src/tensorflow_lite/src/tensorflow/lite/micro/micro_allocator.cpp ****     // that a validly-generated file, and if so what does it mean, or is it an
 417:../src/tensorflow_lite/src/tensorflow/lite/micro/micro_allocator.cpp ****     // error condition? It would be good to tighten up the specification to make
 418:../src/tensorflow_lite/src/tensorflow/lite/micro/micro_allocator.cpp ****     // it less ambiguous.
 419:../src/tensorflow_lite/src/tensorflow/lite/micro/micro_allocator.cpp ****   }
 420:../src/tensorflow_lite/src/tensorflow/lite/micro/micro_allocator.cpp ****   return out_buffer;
 421:../src/tensorflow_lite/src/tensorflow/lite/micro/micro_allocator.cpp **** }
 422:../src/tensorflow_lite/src/tensorflow/lite/micro/micro_allocator.cpp **** 
 423:../src/tensorflow_lite/src/tensorflow/lite/micro/micro_allocator.cpp **** TfLiteStatus InitializeTfLiteTensorFromFlatbuffer(
 424:../src/tensorflow_lite/src/tensorflow/lite/micro/micro_allocator.cpp ****     SimpleMemoryAllocator* allocator, bool allocate_temp,
 425:../src/tensorflow_lite/src/tensorflow/lite/micro/micro_allocator.cpp ****     const tflite::Tensor& flatbuffer_tensor,
 426:../src/tensorflow_lite/src/tensorflow/lite/micro/micro_allocator.cpp ****     const flatbuffers::Vector<flatbuffers::Offset<Buffer>>* buffers,
 427:../src/tensorflow_lite/src/tensorflow/lite/micro/micro_allocator.cpp ****     ErrorReporter* error_reporter, TfLiteTensor* result) {
 428:../src/tensorflow_lite/src/tensorflow/lite/micro/micro_allocator.cpp ****   TFLITE_DCHECK(result != nullptr);
 429:../src/tensorflow_lite/src/tensorflow/lite/micro/micro_allocator.cpp **** 
 430:../src/tensorflow_lite/src/tensorflow/lite/micro/micro_allocator.cpp ****   *result = {};
 431:../src/tensorflow_lite/src/tensorflow/lite/micro/micro_allocator.cpp ****   // Make sure the serialized type is one we know how to deal with, and convert
 432:../src/tensorflow_lite/src/tensorflow/lite/micro/micro_allocator.cpp ****   // it from a flatbuffer enum into a constant used by the kernel C API.
 433:../src/tensorflow_lite/src/tensorflow/lite/micro/micro_allocator.cpp ****   TF_LITE_ENSURE_STATUS(ConvertTensorType(flatbuffer_tensor.type(),
 434:../src/tensorflow_lite/src/tensorflow/lite/micro/micro_allocator.cpp ****                                           &result->type, error_reporter));
 435:../src/tensorflow_lite/src/tensorflow/lite/micro/micro_allocator.cpp ****   // Make sure we remember if the serialized tensor is designated as a variable.
 436:../src/tensorflow_lite/src/tensorflow/lite/micro/micro_allocator.cpp ****   result->is_variable = flatbuffer_tensor.is_variable();
 437:../src/tensorflow_lite/src/tensorflow/lite/micro/micro_allocator.cpp **** 
 438:../src/tensorflow_lite/src/tensorflow/lite/micro/micro_allocator.cpp ****   result->data.data = GetFlatbufferTensorBuffer(flatbuffer_tensor, buffers);
 439:../src/tensorflow_lite/src/tensorflow/lite/micro/micro_allocator.cpp **** 
 440:../src/tensorflow_lite/src/tensorflow/lite/micro/micro_allocator.cpp ****   // TODO(petewarden): Some of these paths aren't getting enough testing
 441:../src/tensorflow_lite/src/tensorflow/lite/micro/micro_allocator.cpp ****   // coverage, so we should figure out some tests that exercise them.
 442:../src/tensorflow_lite/src/tensorflow/lite/micro/micro_allocator.cpp ****   if (result->data.data == nullptr) {
 443:../src/tensorflow_lite/src/tensorflow/lite/micro/micro_allocator.cpp ****     // The tensor contents haven't been set from a serialized buffer, so
 444:../src/tensorflow_lite/src/tensorflow/lite/micro/micro_allocator.cpp ****     // make a note that they will be allocated from memory. The actual
 445:../src/tensorflow_lite/src/tensorflow/lite/micro/micro_allocator.cpp ****     // allocation won't happen until later.
 446:../src/tensorflow_lite/src/tensorflow/lite/micro/micro_allocator.cpp ****     result->allocation_type = kTfLiteArenaRw;
 447:../src/tensorflow_lite/src/tensorflow/lite/micro/micro_allocator.cpp ****   } else {
 448:../src/tensorflow_lite/src/tensorflow/lite/micro/micro_allocator.cpp ****     // We set the data from a serialized buffer, so record tha.
 449:../src/tensorflow_lite/src/tensorflow/lite/micro/micro_allocator.cpp ****     result->allocation_type = kTfLiteMmapRo;
 450:../src/tensorflow_lite/src/tensorflow/lite/micro/micro_allocator.cpp ****   }
 451:../src/tensorflow_lite/src/tensorflow/lite/micro/micro_allocator.cpp **** 
 452:../src/tensorflow_lite/src/tensorflow/lite/micro/micro_allocator.cpp ****   // Figure out what the size in bytes of the buffer is and store it.
 453:../src/tensorflow_lite/src/tensorflow/lite/micro/micro_allocator.cpp ****   size_t type_size;
 454:../src/tensorflow_lite/src/tensorflow/lite/micro/micro_allocator.cpp ****   TF_LITE_ENSURE_STATUS(BytesRequiredForTensor(
 455:../src/tensorflow_lite/src/tensorflow/lite/micro/micro_allocator.cpp ****       flatbuffer_tensor, &result->bytes, &type_size, error_reporter));
 456:../src/tensorflow_lite/src/tensorflow/lite/micro/micro_allocator.cpp **** 
 457:../src/tensorflow_lite/src/tensorflow/lite/micro/micro_allocator.cpp ****   if (flatbuffer_tensor.shape() == nullptr) {
 458:../src/tensorflow_lite/src/tensorflow/lite/micro/micro_allocator.cpp ****     // flatbuffer_tensor.shape() can return a nullptr in the case of a scalar
 459:../src/tensorflow_lite/src/tensorflow/lite/micro/micro_allocator.cpp ****     // tensor.
 460:../src/tensorflow_lite/src/tensorflow/lite/micro/micro_allocator.cpp ****     result->dims = const_cast<TfLiteIntArray*>(&kZeroLengthIntArray);
 461:../src/tensorflow_lite/src/tensorflow/lite/micro/micro_allocator.cpp ****   } else {
 462:../src/tensorflow_lite/src/tensorflow/lite/micro/micro_allocator.cpp ****     // TFLM doesn't allow reshaping the tensor which requires dynamic memory
 463:../src/tensorflow_lite/src/tensorflow/lite/micro/micro_allocator.cpp ****     // allocation so it is safe to drop the const qualifier. In the future, if
 464:../src/tensorflow_lite/src/tensorflow/lite/micro/micro_allocator.cpp ****     // we really want to update the tensor shape, we can always pass in a new
 465:../src/tensorflow_lite/src/tensorflow/lite/micro/micro_allocator.cpp ****     // TfLiteIntArray - especially we have to do so if the dimension is
 466:../src/tensorflow_lite/src/tensorflow/lite/micro/micro_allocator.cpp ****     TF_LITE_ENSURE_STATUS(FlatBufferVectorToTfLiteTypeArray(
 467:../src/tensorflow_lite/src/tensorflow/lite/micro/micro_allocator.cpp ****         allocator, error_reporter, flatbuffer_tensor.shape(), &(result->dims)));
 468:../src/tensorflow_lite/src/tensorflow/lite/micro/micro_allocator.cpp ****   }
 469:../src/tensorflow_lite/src/tensorflow/lite/micro/micro_allocator.cpp **** 
 470:../src/tensorflow_lite/src/tensorflow/lite/micro/micro_allocator.cpp ****   // Copy the quantization information from the serialized data.
 471:../src/tensorflow_lite/src/tensorflow/lite/micro/micro_allocator.cpp ****   const auto* src_quantization = flatbuffer_tensor.quantization();
 472:../src/tensorflow_lite/src/tensorflow/lite/micro/micro_allocator.cpp ****   if (src_quantization && src_quantization->scale() &&
 473:../src/tensorflow_lite/src/tensorflow/lite/micro/micro_allocator.cpp ****       (src_quantization->scale()->size() > 0) &&
 474:../src/tensorflow_lite/src/tensorflow/lite/micro/micro_allocator.cpp ****       src_quantization->zero_point() &&
 475:../src/tensorflow_lite/src/tensorflow/lite/micro/micro_allocator.cpp ****       (src_quantization->zero_point()->size() > 0)) {
 476:../src/tensorflow_lite/src/tensorflow/lite/micro/micro_allocator.cpp ****     // Always populate the TfLiteTensor.params field, even if there are
 477:../src/tensorflow_lite/src/tensorflow/lite/micro/micro_allocator.cpp ****     // per-channel quantization parameters.
 478:../src/tensorflow_lite/src/tensorflow/lite/micro/micro_allocator.cpp ****     result->params.scale = src_quantization->scale()->Get(0);
 479:../src/tensorflow_lite/src/tensorflow/lite/micro/micro_allocator.cpp ****     // Note that the zero_point field in the FlatBuffers schema is a 64-bit
 480:../src/tensorflow_lite/src/tensorflow/lite/micro/micro_allocator.cpp ****     // integer, but the zero_point field in the TfLiteQuantizationParams struct
 481:../src/tensorflow_lite/src/tensorflow/lite/micro/micro_allocator.cpp ****     // is a 32-bit integer.
 482:../src/tensorflow_lite/src/tensorflow/lite/micro/micro_allocator.cpp ****     result->params.zero_point =
 483:../src/tensorflow_lite/src/tensorflow/lite/micro/micro_allocator.cpp ****         static_cast<int32_t>(src_quantization->zero_point()->Get(0));
 484:../src/tensorflow_lite/src/tensorflow/lite/micro/micro_allocator.cpp **** 
 485:../src/tensorflow_lite/src/tensorflow/lite/micro/micro_allocator.cpp ****     // Populate per-channel quantization params.
 486:../src/tensorflow_lite/src/tensorflow/lite/micro/micro_allocator.cpp ****     int channels = src_quantization->scale()->size();
 487:../src/tensorflow_lite/src/tensorflow/lite/micro/micro_allocator.cpp ****     TfLiteAffineQuantization* quantization =
 488:../src/tensorflow_lite/src/tensorflow/lite/micro/micro_allocator.cpp ****         allocate_temp
 489:../src/tensorflow_lite/src/tensorflow/lite/micro/micro_allocator.cpp ****             ? reinterpret_cast<TfLiteAffineQuantization*>(
 490:../src/tensorflow_lite/src/tensorflow/lite/micro/micro_allocator.cpp ****                   allocator->AllocateTemp(sizeof(TfLiteAffineQuantization),
 491:../src/tensorflow_lite/src/tensorflow/lite/micro/micro_allocator.cpp ****                                           alignof(TfLiteAffineQuantization)))
 492:../src/tensorflow_lite/src/tensorflow/lite/micro/micro_allocator.cpp ****             : reinterpret_cast<TfLiteAffineQuantization*>(
 493:../src/tensorflow_lite/src/tensorflow/lite/micro/micro_allocator.cpp ****                   allocator->AllocateFromTail(
 494:../src/tensorflow_lite/src/tensorflow/lite/micro/micro_allocator.cpp ****                       sizeof(TfLiteAffineQuantization),
 495:../src/tensorflow_lite/src/tensorflow/lite/micro/micro_allocator.cpp ****                       alignof(TfLiteAffineQuantization)));
 496:../src/tensorflow_lite/src/tensorflow/lite/micro/micro_allocator.cpp ****     if (quantization == nullptr) {
 497:../src/tensorflow_lite/src/tensorflow/lite/micro/micro_allocator.cpp ****       TF_LITE_REPORT_ERROR(error_reporter,
 498:../src/tensorflow_lite/src/tensorflow/lite/micro/micro_allocator.cpp ****                            "Unable to allocate TfLiteAffineQuantization.\n");
 499:../src/tensorflow_lite/src/tensorflow/lite/micro/micro_allocator.cpp ****       return kTfLiteError;
 500:../src/tensorflow_lite/src/tensorflow/lite/micro/micro_allocator.cpp ****     }
 501:../src/tensorflow_lite/src/tensorflow/lite/micro/micro_allocator.cpp **** 
 502:../src/tensorflow_lite/src/tensorflow/lite/micro/micro_allocator.cpp ****     // TODO(b/153688719): Reduce tail allocation by using a global zero-point
 503:../src/tensorflow_lite/src/tensorflow/lite/micro/micro_allocator.cpp ****     // buffer. This value can not be reused from the flatbuffer since the
 504:../src/tensorflow_lite/src/tensorflow/lite/micro/micro_allocator.cpp ****     // zero_point is stored as a int64_t.
 505:../src/tensorflow_lite/src/tensorflow/lite/micro/micro_allocator.cpp ****     quantization->zero_point =
 506:../src/tensorflow_lite/src/tensorflow/lite/micro/micro_allocator.cpp ****         allocate_temp
 507:../src/tensorflow_lite/src/tensorflow/lite/micro/micro_allocator.cpp ****             ? reinterpret_cast<TfLiteIntArray*>(allocator->AllocateTemp(
 508:../src/tensorflow_lite/src/tensorflow/lite/micro/micro_allocator.cpp ****                   TfLiteIntArrayGetSizeInBytes(channels),
 509:../src/tensorflow_lite/src/tensorflow/lite/micro/micro_allocator.cpp ****                   alignof(TfLiteIntArray)))
 510:../src/tensorflow_lite/src/tensorflow/lite/micro/micro_allocator.cpp ****             : reinterpret_cast<TfLiteIntArray*>(allocator->AllocateFromTail(
 511:../src/tensorflow_lite/src/tensorflow/lite/micro/micro_allocator.cpp ****                   TfLiteIntArrayGetSizeInBytes(channels),
 512:../src/tensorflow_lite/src/tensorflow/lite/micro/micro_allocator.cpp ****                   alignof(TfLiteIntArray)));
 513:../src/tensorflow_lite/src/tensorflow/lite/micro/micro_allocator.cpp ****     if (quantization->zero_point == nullptr) {
 514:../src/tensorflow_lite/src/tensorflow/lite/micro/micro_allocator.cpp ****       TF_LITE_REPORT_ERROR(error_reporter,
 515:../src/tensorflow_lite/src/tensorflow/lite/micro/micro_allocator.cpp ****                            "Unable to allocate quantization->zero_point.\n");
 516:../src/tensorflow_lite/src/tensorflow/lite/micro/micro_allocator.cpp ****       return kTfLiteError;
 517:../src/tensorflow_lite/src/tensorflow/lite/micro/micro_allocator.cpp ****     }
 518:../src/tensorflow_lite/src/tensorflow/lite/micro/micro_allocator.cpp **** 
 519:../src/tensorflow_lite/src/tensorflow/lite/micro/micro_allocator.cpp ****     TF_LITE_ENSURE_STATUS(FlatBufferVectorToTfLiteTypeArray(
 520:../src/tensorflow_lite/src/tensorflow/lite/micro/micro_allocator.cpp ****         allocator, error_reporter, src_quantization->scale(),
 521:../src/tensorflow_lite/src/tensorflow/lite/micro/micro_allocator.cpp ****         &quantization->scale));
 522:../src/tensorflow_lite/src/tensorflow/lite/micro/micro_allocator.cpp **** 
 523:../src/tensorflow_lite/src/tensorflow/lite/micro/micro_allocator.cpp ****     quantization->zero_point->size = channels;
 524:../src/tensorflow_lite/src/tensorflow/lite/micro/micro_allocator.cpp ****     int* zero_point_data = quantization->zero_point->data;
 525:../src/tensorflow_lite/src/tensorflow/lite/micro/micro_allocator.cpp ****     for (int i = 0; i < channels; i++) {
 526:../src/tensorflow_lite/src/tensorflow/lite/micro/micro_allocator.cpp ****       zero_point_data[i] = src_quantization->zero_point()->Get(i);
 527:../src/tensorflow_lite/src/tensorflow/lite/micro/micro_allocator.cpp ****     }
 528:../src/tensorflow_lite/src/tensorflow/lite/micro/micro_allocator.cpp ****     // TODO(rocky): Need to add a micro_allocator test case that fails when
 529:../src/tensorflow_lite/src/tensorflow/lite/micro/micro_allocator.cpp ****     // this is not copied:
 530:../src/tensorflow_lite/src/tensorflow/lite/micro/micro_allocator.cpp ****     quantization->quantized_dimension = src_quantization->quantized_dimension();
 531:../src/tensorflow_lite/src/tensorflow/lite/micro/micro_allocator.cpp **** 
 532:../src/tensorflow_lite/src/tensorflow/lite/micro/micro_allocator.cpp ****     result->quantization = {kTfLiteAffineQuantization, quantization};
 533:../src/tensorflow_lite/src/tensorflow/lite/micro/micro_allocator.cpp ****   }
 534:../src/tensorflow_lite/src/tensorflow/lite/micro/micro_allocator.cpp ****   return kTfLiteOk;
 535:../src/tensorflow_lite/src/tensorflow/lite/micro/micro_allocator.cpp **** }
 536:../src/tensorflow_lite/src/tensorflow/lite/micro/micro_allocator.cpp **** 
 537:../src/tensorflow_lite/src/tensorflow/lite/micro/micro_allocator.cpp **** TfLiteStatus InitializeTfLiteEvalTensorFromFlatbuffer(
 538:../src/tensorflow_lite/src/tensorflow/lite/micro/micro_allocator.cpp ****     SimpleMemoryAllocator* allocator, const tflite::Tensor& flatbuffer_tensor,
 539:../src/tensorflow_lite/src/tensorflow/lite/micro/micro_allocator.cpp ****     const flatbuffers::Vector<flatbuffers::Offset<Buffer>>* buffers,
 540:../src/tensorflow_lite/src/tensorflow/lite/micro/micro_allocator.cpp ****     ErrorReporter* error_reporter, TfLiteEvalTensor* result) {
 541:../src/tensorflow_lite/src/tensorflow/lite/micro/micro_allocator.cpp ****   *result = {};
 542:../src/tensorflow_lite/src/tensorflow/lite/micro/micro_allocator.cpp ****   // Make sure the serialized type is one we know how to deal with, and convert
 543:../src/tensorflow_lite/src/tensorflow/lite/micro/micro_allocator.cpp ****   // it from a flatbuffer enum into a constant used by the kernel C API.
 544:../src/tensorflow_lite/src/tensorflow/lite/micro/micro_allocator.cpp ****   TF_LITE_ENSURE_STATUS(ConvertTensorType(flatbuffer_tensor.type(),
 545:../src/tensorflow_lite/src/tensorflow/lite/micro/micro_allocator.cpp ****                                           &result->type, error_reporter));
 546:../src/tensorflow_lite/src/tensorflow/lite/micro/micro_allocator.cpp **** 
 547:../src/tensorflow_lite/src/tensorflow/lite/micro/micro_allocator.cpp ****   result->data.data = GetFlatbufferTensorBuffer(flatbuffer_tensor, buffers);
 548:../src/tensorflow_lite/src/tensorflow/lite/micro/micro_allocator.cpp **** 
 549:../src/tensorflow_lite/src/tensorflow/lite/micro/micro_allocator.cpp ****   if (flatbuffer_tensor.shape() == nullptr) {
 550:../src/tensorflow_lite/src/tensorflow/lite/micro/micro_allocator.cpp ****     // flatbuffer_tensor.shape() can return a nullptr in the case of a scalar
 551:../src/tensorflow_lite/src/tensorflow/lite/micro/micro_allocator.cpp ****     // tensor.
 552:../src/tensorflow_lite/src/tensorflow/lite/micro/micro_allocator.cpp ****     result->dims = const_cast<TfLiteIntArray*>(&kZeroLengthIntArray);
 553:../src/tensorflow_lite/src/tensorflow/lite/micro/micro_allocator.cpp ****   } else {
 554:../src/tensorflow_lite/src/tensorflow/lite/micro/micro_allocator.cpp ****     TF_LITE_ENSURE_STATUS(FlatBufferVectorToTfLiteTypeArray(
 555:../src/tensorflow_lite/src/tensorflow/lite/micro/micro_allocator.cpp ****         allocator, error_reporter, flatbuffer_tensor.shape(), &(result->dims)));
 556:../src/tensorflow_lite/src/tensorflow/lite/micro/micro_allocator.cpp ****   }
 557:../src/tensorflow_lite/src/tensorflow/lite/micro/micro_allocator.cpp ****   return kTfLiteOk;
 558:../src/tensorflow_lite/src/tensorflow/lite/micro/micro_allocator.cpp **** }
 559:../src/tensorflow_lite/src/tensorflow/lite/micro/micro_allocator.cpp **** 
 560:../src/tensorflow_lite/src/tensorflow/lite/micro/micro_allocator.cpp **** }  // namespace internal
 561:../src/tensorflow_lite/src/tensorflow/lite/micro/micro_allocator.cpp **** 
 562:../src/tensorflow_lite/src/tensorflow/lite/micro/micro_allocator.cpp **** MicroAllocator::MicroAllocator(SimpleMemoryAllocator* memory_allocator,
 563:../src/tensorflow_lite/src/tensorflow/lite/micro/micro_allocator.cpp ****                                ErrorReporter* error_reporter)
 564:../src/tensorflow_lite/src/tensorflow/lite/micro/micro_allocator.cpp ****     : memory_allocator_(memory_allocator),
 565:../src/tensorflow_lite/src/tensorflow/lite/micro/micro_allocator.cpp ****       error_reporter_(error_reporter),
 566:../src/tensorflow_lite/src/tensorflow/lite/micro/micro_allocator.cpp ****       model_is_allocating_(false) {}
 567:../src/tensorflow_lite/src/tensorflow/lite/micro/micro_allocator.cpp **** 
 568:../src/tensorflow_lite/src/tensorflow/lite/micro/micro_allocator.cpp **** MicroAllocator::~MicroAllocator() {}
  75              		.loc 1 568 0
  76              		.cfi_startproc
  77              		@ args = 0, pretend = 0, frame = 0
  78              		@ frame_needed = 0, uses_anonymous_args = 0
  79              		@ link register save eliminated.
  80              	.LVL4:
  81              		.loc 1 568 0
  82 0000 1EFF2FE1 		bx	lr
  83              		.cfi_endproc
  84              	.LFE6487:
  85              		.cantunwind
  86              		.fnend
  88              		.global	_ZN6tflite14MicroAllocatorD1Ev
  89              		.set	_ZN6tflite14MicroAllocatorD1Ev,_ZN6tflite14MicroAllocatorD2Ev
  90              		.section	.text._ZN6tflite14MicroAllocator24AllocatePersistentBufferEj,"ax",%progbits
  91              		.align	2
  92              		.global	_ZN6tflite14MicroAllocator24AllocatePersistentBufferEj
  93              		.syntax unified
  94              		.arm
  95              		.fpu neon
  97              	_ZN6tflite14MicroAllocator24AllocatePersistentBufferEj:
  98              		.fnstart
  99              	.LFB6494:
 569:../src/tensorflow_lite/src/tensorflow/lite/micro/micro_allocator.cpp **** 
 570:../src/tensorflow_lite/src/tensorflow/lite/micro/micro_allocator.cpp **** MicroAllocator* MicroAllocator::Create(uint8_t* tensor_arena, size_t arena_size,
 571:../src/tensorflow_lite/src/tensorflow/lite/micro/micro_allocator.cpp ****                                        ErrorReporter* error_reporter) {
 572:../src/tensorflow_lite/src/tensorflow/lite/micro/micro_allocator.cpp ****   uint8_t* aligned_arena = AlignPointerUp(tensor_arena, kBufferAlignment);
 573:../src/tensorflow_lite/src/tensorflow/lite/micro/micro_allocator.cpp ****   size_t aligned_arena_size = tensor_arena + arena_size - aligned_arena;
 574:../src/tensorflow_lite/src/tensorflow/lite/micro/micro_allocator.cpp ****   return Create(SimpleMemoryAllocator::Create(error_reporter, aligned_arena,
 575:../src/tensorflow_lite/src/tensorflow/lite/micro/micro_allocator.cpp ****                                               aligned_arena_size),
 576:../src/tensorflow_lite/src/tensorflow/lite/micro/micro_allocator.cpp ****                 error_reporter);
 577:../src/tensorflow_lite/src/tensorflow/lite/micro/micro_allocator.cpp **** }
 578:../src/tensorflow_lite/src/tensorflow/lite/micro/micro_allocator.cpp **** 
 579:../src/tensorflow_lite/src/tensorflow/lite/micro/micro_allocator.cpp **** MicroAllocator* MicroAllocator::Create(SimpleMemoryAllocator* memory_allocator,
 580:../src/tensorflow_lite/src/tensorflow/lite/micro/micro_allocator.cpp ****                                        ErrorReporter* error_reporter) {
 581:../src/tensorflow_lite/src/tensorflow/lite/micro/micro_allocator.cpp ****   TFLITE_DCHECK(memory_allocator != nullptr);
 582:../src/tensorflow_lite/src/tensorflow/lite/micro/micro_allocator.cpp ****   TFLITE_DCHECK(error_reporter != nullptr);
 583:../src/tensorflow_lite/src/tensorflow/lite/micro/micro_allocator.cpp **** 
 584:../src/tensorflow_lite/src/tensorflow/lite/micro/micro_allocator.cpp ****   uint8_t* allocator_buffer = memory_allocator->AllocateFromTail(
 585:../src/tensorflow_lite/src/tensorflow/lite/micro/micro_allocator.cpp ****       sizeof(MicroAllocator), alignof(MicroAllocator));
 586:../src/tensorflow_lite/src/tensorflow/lite/micro/micro_allocator.cpp ****   MicroAllocator* allocator =
 587:../src/tensorflow_lite/src/tensorflow/lite/micro/micro_allocator.cpp ****       new (allocator_buffer) MicroAllocator(memory_allocator, error_reporter);
 588:../src/tensorflow_lite/src/tensorflow/lite/micro/micro_allocator.cpp ****   return allocator;
 589:../src/tensorflow_lite/src/tensorflow/lite/micro/micro_allocator.cpp **** }
 590:../src/tensorflow_lite/src/tensorflow/lite/micro/micro_allocator.cpp **** 
 591:../src/tensorflow_lite/src/tensorflow/lite/micro/micro_allocator.cpp **** SubgraphAllocations* MicroAllocator::StartModelAllocation(const Model* model) {
 592:../src/tensorflow_lite/src/tensorflow/lite/micro/micro_allocator.cpp ****   TFLITE_DCHECK(model != nullptr);
 593:../src/tensorflow_lite/src/tensorflow/lite/micro/micro_allocator.cpp **** 
 594:../src/tensorflow_lite/src/tensorflow/lite/micro/micro_allocator.cpp ****   if (model_is_allocating_) {
 595:../src/tensorflow_lite/src/tensorflow/lite/micro/micro_allocator.cpp ****     TF_LITE_REPORT_ERROR(error_reporter_,
 596:../src/tensorflow_lite/src/tensorflow/lite/micro/micro_allocator.cpp ****                          "MicroAllocator: Model allocation started before "
 597:../src/tensorflow_lite/src/tensorflow/lite/micro/micro_allocator.cpp ****                          "finishing previously allocated model");
 598:../src/tensorflow_lite/src/tensorflow/lite/micro/micro_allocator.cpp ****     return nullptr;
 599:../src/tensorflow_lite/src/tensorflow/lite/micro/micro_allocator.cpp ****   }
 600:../src/tensorflow_lite/src/tensorflow/lite/micro/micro_allocator.cpp **** 
 601:../src/tensorflow_lite/src/tensorflow/lite/micro/micro_allocator.cpp ****   model_is_allocating_ = true;
 602:../src/tensorflow_lite/src/tensorflow/lite/micro/micro_allocator.cpp **** 
 603:../src/tensorflow_lite/src/tensorflow/lite/micro/micro_allocator.cpp ****   uint8_t* data_allocator_buffer = memory_allocator_->AllocateFromTail(
 604:../src/tensorflow_lite/src/tensorflow/lite/micro/micro_allocator.cpp ****       sizeof(MicroBuiltinDataAllocator), alignof(MicroBuiltinDataAllocator));
 605:../src/tensorflow_lite/src/tensorflow/lite/micro/micro_allocator.cpp ****   builtin_data_allocator_ =
 606:../src/tensorflow_lite/src/tensorflow/lite/micro/micro_allocator.cpp ****       new (data_allocator_buffer) MicroBuiltinDataAllocator(memory_allocator_);
 607:../src/tensorflow_lite/src/tensorflow/lite/micro/micro_allocator.cpp **** 
 608:../src/tensorflow_lite/src/tensorflow/lite/micro/micro_allocator.cpp ****   if (InitScratchBufferData() != kTfLiteOk) {
 609:../src/tensorflow_lite/src/tensorflow/lite/micro/micro_allocator.cpp ****     return nullptr;
 610:../src/tensorflow_lite/src/tensorflow/lite/micro/micro_allocator.cpp ****   }
 611:../src/tensorflow_lite/src/tensorflow/lite/micro/micro_allocator.cpp **** 
 612:../src/tensorflow_lite/src/tensorflow/lite/micro/micro_allocator.cpp ****   // Allocate struct to store eval tensors, nodes and registrations.
 613:../src/tensorflow_lite/src/tensorflow/lite/micro/micro_allocator.cpp ****   SubgraphAllocations* output = reinterpret_cast<SubgraphAllocations*>(
 614:../src/tensorflow_lite/src/tensorflow/lite/micro/micro_allocator.cpp ****       memory_allocator_->AllocateFromTail(
 615:../src/tensorflow_lite/src/tensorflow/lite/micro/micro_allocator.cpp ****           sizeof(SubgraphAllocations) * model->subgraphs()->size(),
 616:../src/tensorflow_lite/src/tensorflow/lite/micro/micro_allocator.cpp ****           alignof(SubgraphAllocations)));
 617:../src/tensorflow_lite/src/tensorflow/lite/micro/micro_allocator.cpp ****   if (output == nullptr) {
 618:../src/tensorflow_lite/src/tensorflow/lite/micro/micro_allocator.cpp ****     MicroPrintf("Failed to allocate memory for model metadata.");
 619:../src/tensorflow_lite/src/tensorflow/lite/micro/micro_allocator.cpp ****     return nullptr;
 620:../src/tensorflow_lite/src/tensorflow/lite/micro/micro_allocator.cpp ****   }
 621:../src/tensorflow_lite/src/tensorflow/lite/micro/micro_allocator.cpp **** 
 622:../src/tensorflow_lite/src/tensorflow/lite/micro/micro_allocator.cpp ****   if (AllocateTfLiteEvalTensors(model, output) != kTfLiteOk ||
 623:../src/tensorflow_lite/src/tensorflow/lite/micro/micro_allocator.cpp ****       AllocateNodeAndRegistrations(model, output) != kTfLiteOk) {
 624:../src/tensorflow_lite/src/tensorflow/lite/micro/micro_allocator.cpp ****     return nullptr;
 625:../src/tensorflow_lite/src/tensorflow/lite/micro/micro_allocator.cpp ****   }
 626:../src/tensorflow_lite/src/tensorflow/lite/micro/micro_allocator.cpp ****   return output;
 627:../src/tensorflow_lite/src/tensorflow/lite/micro/micro_allocator.cpp **** }
 628:../src/tensorflow_lite/src/tensorflow/lite/micro/micro_allocator.cpp **** 
 629:../src/tensorflow_lite/src/tensorflow/lite/micro/micro_allocator.cpp **** TfLiteStatus MicroAllocator::FinishModelAllocation(
 630:../src/tensorflow_lite/src/tensorflow/lite/micro/micro_allocator.cpp ****     const Model* model, SubgraphAllocations* subgraph_allocations,
 631:../src/tensorflow_lite/src/tensorflow/lite/micro/micro_allocator.cpp ****     ScratchBufferHandle** scratch_buffer_handles) {
 632:../src/tensorflow_lite/src/tensorflow/lite/micro/micro_allocator.cpp ****   if (!model_is_allocating_) {
 633:../src/tensorflow_lite/src/tensorflow/lite/micro/micro_allocator.cpp ****     TF_LITE_REPORT_ERROR(error_reporter_,
 634:../src/tensorflow_lite/src/tensorflow/lite/micro/micro_allocator.cpp ****                          "MicroAllocator: Model allocation finished before "
 635:../src/tensorflow_lite/src/tensorflow/lite/micro/micro_allocator.cpp ****                          "starting allocating model");
 636:../src/tensorflow_lite/src/tensorflow/lite/micro/micro_allocator.cpp ****     return kTfLiteError;
 637:../src/tensorflow_lite/src/tensorflow/lite/micro/micro_allocator.cpp ****   }
 638:../src/tensorflow_lite/src/tensorflow/lite/micro/micro_allocator.cpp **** 
 639:../src/tensorflow_lite/src/tensorflow/lite/micro/micro_allocator.cpp ****   // TODO(b/187993197): Track scratch buffers for each subgraph.
 640:../src/tensorflow_lite/src/tensorflow/lite/micro/micro_allocator.cpp ****   for (size_t subgraph_idx = 0; subgraph_idx < model->subgraphs()->size();
 641:../src/tensorflow_lite/src/tensorflow/lite/micro/micro_allocator.cpp ****        subgraph_idx++) {
 642:../src/tensorflow_lite/src/tensorflow/lite/micro/micro_allocator.cpp ****     const SubGraph* subgraph = model->subgraphs()->Get(subgraph_idx);
 643:../src/tensorflow_lite/src/tensorflow/lite/micro/micro_allocator.cpp ****     TFLITE_DCHECK(subgraph != nullptr);
 644:../src/tensorflow_lite/src/tensorflow/lite/micro/micro_allocator.cpp **** 
 645:../src/tensorflow_lite/src/tensorflow/lite/micro/micro_allocator.cpp ****     TF_LITE_ENSURE_STATUS(AllocateScratchBufferHandles(
 646:../src/tensorflow_lite/src/tensorflow/lite/micro/micro_allocator.cpp ****         scratch_buffer_handles, scratch_buffer_request_count_));
 647:../src/tensorflow_lite/src/tensorflow/lite/micro/micro_allocator.cpp ****     TF_LITE_ENSURE_STATUS(CommitStaticMemoryPlan(
 648:../src/tensorflow_lite/src/tensorflow/lite/micro/micro_allocator.cpp ****         model, subgraph_allocations[subgraph_idx].tensors,
 649:../src/tensorflow_lite/src/tensorflow/lite/micro/micro_allocator.cpp ****         *scratch_buffer_handles, subgraph_idx));
 650:../src/tensorflow_lite/src/tensorflow/lite/micro/micro_allocator.cpp ****     TF_LITE_ENSURE_STATUS(AllocateVariables(
 651:../src/tensorflow_lite/src/tensorflow/lite/micro/micro_allocator.cpp ****         subgraph, subgraph_allocations[subgraph_idx].tensors));
 652:../src/tensorflow_lite/src/tensorflow/lite/micro/micro_allocator.cpp ****   }
 653:../src/tensorflow_lite/src/tensorflow/lite/micro/micro_allocator.cpp ****   model_is_allocating_ = false;
 654:../src/tensorflow_lite/src/tensorflow/lite/micro/micro_allocator.cpp ****   return kTfLiteOk;
 655:../src/tensorflow_lite/src/tensorflow/lite/micro/micro_allocator.cpp **** }
 656:../src/tensorflow_lite/src/tensorflow/lite/micro/micro_allocator.cpp **** 
 657:../src/tensorflow_lite/src/tensorflow/lite/micro/micro_allocator.cpp **** void* MicroAllocator::AllocatePersistentBuffer(size_t bytes) {
 100              		.loc 1 657 0
 101              		.cfi_startproc
 102              		@ args = 0, pretend = 0, frame = 0
 103              		@ frame_needed = 0, uses_anonymous_args = 0
 104              		@ link register save eliminated.
 105              	.LVL5:
 658:../src/tensorflow_lite/src/tensorflow/lite/micro/micro_allocator.cpp ****   return memory_allocator_->AllocateFromTail(bytes, kBufferAlignment);
 106              		.loc 1 658 0
 107 0000 040090E5 		ldr	r0, [r0, #4]
 108              	.LVL6:
 109 0004 1020A0E3 		mov	r2, #16
 110 0008 003090E5 		ldr	r3, [r0]
 111 000c 0C3093E5 		ldr	r3, [r3, #12]
 112 0010 13FF2FE1 		bx	r3
 113              	.LVL7:
 114              		.cfi_endproc
 115              	.LFE6494:
 116              		.cantunwind
 117              		.fnend
 119              		.section	.text._ZN6tflite14MicroAllocator20ResetTempAllocationsEv,"ax",%progbits
 120              		.align	2
 121              		.global	_ZN6tflite14MicroAllocator20ResetTempAllocationsEv
 122              		.syntax unified
 123              		.arm
 124              		.fpu neon
 126              	_ZN6tflite14MicroAllocator20ResetTempAllocationsEv:
 127              		.fnstart
 128              	.LFB6501:
 659:../src/tensorflow_lite/src/tensorflow/lite/micro/micro_allocator.cpp **** }
 660:../src/tensorflow_lite/src/tensorflow/lite/micro/micro_allocator.cpp **** 
 661:../src/tensorflow_lite/src/tensorflow/lite/micro/micro_allocator.cpp **** TfLiteStatus MicroAllocator::RequestScratchBufferInArena(size_t bytes,
 662:../src/tensorflow_lite/src/tensorflow/lite/micro/micro_allocator.cpp ****                                                          int subgraph_idx,
 663:../src/tensorflow_lite/src/tensorflow/lite/micro/micro_allocator.cpp ****                                                          int* buffer_idx) {
 664:../src/tensorflow_lite/src/tensorflow/lite/micro/micro_allocator.cpp ****   // All scratch buffer requests are stored in the head section of the arena
 665:../src/tensorflow_lite/src/tensorflow/lite/micro/micro_allocator.cpp ****   // when a model is in the prepare phase. First align a scratch buffer request
 666:../src/tensorflow_lite/src/tensorflow/lite/micro/micro_allocator.cpp ****   // pointer to the start of the head:
 667:../src/tensorflow_lite/src/tensorflow/lite/micro/micro_allocator.cpp ****   internal::ScratchBufferRequest* requests = GetScratchBufferRequests();
 668:../src/tensorflow_lite/src/tensorflow/lite/micro/micro_allocator.cpp **** 
 669:../src/tensorflow_lite/src/tensorflow/lite/micro/micro_allocator.cpp ****   // Count the number of requested scratch buffers for the current node:
 670:../src/tensorflow_lite/src/tensorflow/lite/micro/micro_allocator.cpp ****   size_t current_node_request_count = 0;
 671:../src/tensorflow_lite/src/tensorflow/lite/micro/micro_allocator.cpp ****   for (size_t i = 0; i < scratch_buffer_request_count_; ++i) {
 672:../src/tensorflow_lite/src/tensorflow/lite/micro/micro_allocator.cpp ****     if (requests[i].node_idx == kUnassignedScratchBufferRequestIndex) {
 673:../src/tensorflow_lite/src/tensorflow/lite/micro/micro_allocator.cpp ****       ++current_node_request_count;
 674:../src/tensorflow_lite/src/tensorflow/lite/micro/micro_allocator.cpp ****     }
 675:../src/tensorflow_lite/src/tensorflow/lite/micro/micro_allocator.cpp ****   }
 676:../src/tensorflow_lite/src/tensorflow/lite/micro/micro_allocator.cpp **** 
 677:../src/tensorflow_lite/src/tensorflow/lite/micro/micro_allocator.cpp ****   // First, ensure that the per-kernel request has not exceeded the limit:
 678:../src/tensorflow_lite/src/tensorflow/lite/micro/micro_allocator.cpp ****   if (current_node_request_count >= kMaxScratchBuffersPerOp) {
 679:../src/tensorflow_lite/src/tensorflow/lite/micro/micro_allocator.cpp ****     TF_LITE_REPORT_ERROR(
 680:../src/tensorflow_lite/src/tensorflow/lite/micro/micro_allocator.cpp ****         error_reporter_,
 681:../src/tensorflow_lite/src/tensorflow/lite/micro/micro_allocator.cpp ****         "Scratch buffer request exeeds limit per operator (%d)",
 682:../src/tensorflow_lite/src/tensorflow/lite/micro/micro_allocator.cpp ****         kMaxScratchBuffersPerOp);
 683:../src/tensorflow_lite/src/tensorflow/lite/micro/micro_allocator.cpp ****     return kTfLiteError;
 684:../src/tensorflow_lite/src/tensorflow/lite/micro/micro_allocator.cpp ****   }
 685:../src/tensorflow_lite/src/tensorflow/lite/micro/micro_allocator.cpp **** 
 686:../src/tensorflow_lite/src/tensorflow/lite/micro/micro_allocator.cpp ****   // Initialize and assign values for the request at the current index:
 687:../src/tensorflow_lite/src/tensorflow/lite/micro/micro_allocator.cpp ****   internal::ScratchBufferRequest* current_request =
 688:../src/tensorflow_lite/src/tensorflow/lite/micro/micro_allocator.cpp ****       &requests[scratch_buffer_request_count_];
 689:../src/tensorflow_lite/src/tensorflow/lite/micro/micro_allocator.cpp ****   *current_request = {};
 690:../src/tensorflow_lite/src/tensorflow/lite/micro/micro_allocator.cpp ****   // Assign -1 as a sentinel value that will be updated when the node finishes
 691:../src/tensorflow_lite/src/tensorflow/lite/micro/micro_allocator.cpp ****   // allocating:
 692:../src/tensorflow_lite/src/tensorflow/lite/micro/micro_allocator.cpp ****   current_request->bytes = bytes;
 693:../src/tensorflow_lite/src/tensorflow/lite/micro/micro_allocator.cpp ****   current_request->node_idx = kUnassignedScratchBufferRequestIndex;
 694:../src/tensorflow_lite/src/tensorflow/lite/micro/micro_allocator.cpp **** 
 695:../src/tensorflow_lite/src/tensorflow/lite/micro/micro_allocator.cpp ****   // Assign the current request index to the out-param:
 696:../src/tensorflow_lite/src/tensorflow/lite/micro/micro_allocator.cpp ****   *buffer_idx = scratch_buffer_request_count_;
 697:../src/tensorflow_lite/src/tensorflow/lite/micro/micro_allocator.cpp **** 
 698:../src/tensorflow_lite/src/tensorflow/lite/micro/micro_allocator.cpp ****   // Bump the request count to prepare for the next request:
 699:../src/tensorflow_lite/src/tensorflow/lite/micro/micro_allocator.cpp ****   ++scratch_buffer_request_count_;
 700:../src/tensorflow_lite/src/tensorflow/lite/micro/micro_allocator.cpp ****   return kTfLiteOk;
 701:../src/tensorflow_lite/src/tensorflow/lite/micro/micro_allocator.cpp **** }
 702:../src/tensorflow_lite/src/tensorflow/lite/micro/micro_allocator.cpp **** 
 703:../src/tensorflow_lite/src/tensorflow/lite/micro/micro_allocator.cpp **** TfLiteStatus MicroAllocator::FinishPrepareNodeAllocations(int node_id) {
 704:../src/tensorflow_lite/src/tensorflow/lite/micro/micro_allocator.cpp ****   // When a node has finished preparing, all temp allocations performed by the
 705:../src/tensorflow_lite/src/tensorflow/lite/micro/micro_allocator.cpp ****   // kernel should be cleaned up:
 706:../src/tensorflow_lite/src/tensorflow/lite/micro/micro_allocator.cpp ****   ResetTempAllocations();
 707:../src/tensorflow_lite/src/tensorflow/lite/micro/micro_allocator.cpp **** 
 708:../src/tensorflow_lite/src/tensorflow/lite/micro/micro_allocator.cpp ****   // Find and update any new scratch buffer requests for the current node:
 709:../src/tensorflow_lite/src/tensorflow/lite/micro/micro_allocator.cpp ****   internal::ScratchBufferRequest* requests = GetScratchBufferRequests();
 710:../src/tensorflow_lite/src/tensorflow/lite/micro/micro_allocator.cpp **** 
 711:../src/tensorflow_lite/src/tensorflow/lite/micro/micro_allocator.cpp ****   for (size_t i = 0; i < scratch_buffer_request_count_; ++i) {
 712:../src/tensorflow_lite/src/tensorflow/lite/micro/micro_allocator.cpp ****     // A request with a node_idx of -1 is a sentinel value used to indicate this
 713:../src/tensorflow_lite/src/tensorflow/lite/micro/micro_allocator.cpp ****     // was a new request for the current node. The allocator finally knows the
 714:../src/tensorflow_lite/src/tensorflow/lite/micro/micro_allocator.cpp ****     // node index at this point. Assign the value and update the list of new
 715:../src/tensorflow_lite/src/tensorflow/lite/micro/micro_allocator.cpp ****     // requests so the head section can be adjusted to allow for the next kernel
 716:../src/tensorflow_lite/src/tensorflow/lite/micro/micro_allocator.cpp ****     // to allocate at most kMaxScratchBuffersPerOp requests:
 717:../src/tensorflow_lite/src/tensorflow/lite/micro/micro_allocator.cpp ****     if (requests[i].node_idx == kUnassignedScratchBufferRequestIndex) {
 718:../src/tensorflow_lite/src/tensorflow/lite/micro/micro_allocator.cpp ****       requests[i].node_idx = node_id;
 719:../src/tensorflow_lite/src/tensorflow/lite/micro/micro_allocator.cpp ****     }
 720:../src/tensorflow_lite/src/tensorflow/lite/micro/micro_allocator.cpp ****   }
 721:../src/tensorflow_lite/src/tensorflow/lite/micro/micro_allocator.cpp **** 
 722:../src/tensorflow_lite/src/tensorflow/lite/micro/micro_allocator.cpp ****   // Ensure that the head is re-adjusted to allow for another at-most
 723:../src/tensorflow_lite/src/tensorflow/lite/micro/micro_allocator.cpp ****   // kMaxScratchBuffersPerOp scratch buffer requests in the next operator:
 724:../src/tensorflow_lite/src/tensorflow/lite/micro/micro_allocator.cpp ****   TF_LITE_ENSURE_STATUS(memory_allocator_->SetHeadBufferSize(
 725:../src/tensorflow_lite/src/tensorflow/lite/micro/micro_allocator.cpp ****       sizeof(internal::ScratchBufferRequest) *
 726:../src/tensorflow_lite/src/tensorflow/lite/micro/micro_allocator.cpp ****           (scratch_buffer_request_count_ + kMaxScratchBuffersPerOp),
 727:../src/tensorflow_lite/src/tensorflow/lite/micro/micro_allocator.cpp ****       alignof(internal::ScratchBufferRequest)));
 728:../src/tensorflow_lite/src/tensorflow/lite/micro/micro_allocator.cpp **** 
 729:../src/tensorflow_lite/src/tensorflow/lite/micro/micro_allocator.cpp ****   return kTfLiteOk;
 730:../src/tensorflow_lite/src/tensorflow/lite/micro/micro_allocator.cpp **** }
 731:../src/tensorflow_lite/src/tensorflow/lite/micro/micro_allocator.cpp **** 
 732:../src/tensorflow_lite/src/tensorflow/lite/micro/micro_allocator.cpp **** size_t MicroAllocator::used_bytes() const {
 733:../src/tensorflow_lite/src/tensorflow/lite/micro/micro_allocator.cpp ****   return memory_allocator_->GetUsedBytes();
 734:../src/tensorflow_lite/src/tensorflow/lite/micro/micro_allocator.cpp **** }
 735:../src/tensorflow_lite/src/tensorflow/lite/micro/micro_allocator.cpp **** 
 736:../src/tensorflow_lite/src/tensorflow/lite/micro/micro_allocator.cpp **** TfLiteStatus MicroAllocator::AllocateNodeAndRegistrations(
 737:../src/tensorflow_lite/src/tensorflow/lite/micro/micro_allocator.cpp ****     const Model* model, SubgraphAllocations* subgraph_allocations) {
 738:../src/tensorflow_lite/src/tensorflow/lite/micro/micro_allocator.cpp ****   TFLITE_DCHECK(subgraph_allocations != nullptr);
 739:../src/tensorflow_lite/src/tensorflow/lite/micro/micro_allocator.cpp **** 
 740:../src/tensorflow_lite/src/tensorflow/lite/micro/micro_allocator.cpp ****   for (size_t subgraph_idx = 0; subgraph_idx < model->subgraphs()->size();
 741:../src/tensorflow_lite/src/tensorflow/lite/micro/micro_allocator.cpp ****        subgraph_idx++) {
 742:../src/tensorflow_lite/src/tensorflow/lite/micro/micro_allocator.cpp ****     const SubGraph* subgraph = model->subgraphs()->Get(subgraph_idx);
 743:../src/tensorflow_lite/src/tensorflow/lite/micro/micro_allocator.cpp ****     TFLITE_DCHECK(subgraph != nullptr);
 744:../src/tensorflow_lite/src/tensorflow/lite/micro/micro_allocator.cpp **** 
 745:../src/tensorflow_lite/src/tensorflow/lite/micro/micro_allocator.cpp ****     // Initialize NodeAndRegistrations for the subgraph.
 746:../src/tensorflow_lite/src/tensorflow/lite/micro/micro_allocator.cpp ****     NodeAndRegistration* output = reinterpret_cast<NodeAndRegistration*>(
 747:../src/tensorflow_lite/src/tensorflow/lite/micro/micro_allocator.cpp ****         memory_allocator_->AllocateFromTail(
 748:../src/tensorflow_lite/src/tensorflow/lite/micro/micro_allocator.cpp ****             sizeof(NodeAndRegistration) * subgraph->operators()->size(),
 749:../src/tensorflow_lite/src/tensorflow/lite/micro/micro_allocator.cpp ****             alignof(NodeAndRegistration)));
 750:../src/tensorflow_lite/src/tensorflow/lite/micro/micro_allocator.cpp ****     if (output == nullptr) {
 751:../src/tensorflow_lite/src/tensorflow/lite/micro/micro_allocator.cpp ****       TF_LITE_REPORT_ERROR(
 752:../src/tensorflow_lite/src/tensorflow/lite/micro/micro_allocator.cpp ****           error_reporter_,
 753:../src/tensorflow_lite/src/tensorflow/lite/micro/micro_allocator.cpp ****           "Failed to allocate memory for node_and_registrations.");
 754:../src/tensorflow_lite/src/tensorflow/lite/micro/micro_allocator.cpp ****       return kTfLiteError;
 755:../src/tensorflow_lite/src/tensorflow/lite/micro/micro_allocator.cpp ****     }
 756:../src/tensorflow_lite/src/tensorflow/lite/micro/micro_allocator.cpp ****     subgraph_allocations[subgraph_idx].node_and_registrations = output;
 757:../src/tensorflow_lite/src/tensorflow/lite/micro/micro_allocator.cpp ****   }
 758:../src/tensorflow_lite/src/tensorflow/lite/micro/micro_allocator.cpp ****   return kTfLiteOk;
 759:../src/tensorflow_lite/src/tensorflow/lite/micro/micro_allocator.cpp **** }
 760:../src/tensorflow_lite/src/tensorflow/lite/micro/micro_allocator.cpp **** TfLiteTensor* MicroAllocator::AllocatePersistentTfLiteTensor(
 761:../src/tensorflow_lite/src/tensorflow/lite/micro/micro_allocator.cpp ****     const Model* model, const SubgraphAllocations* subgraph_allocations,
 762:../src/tensorflow_lite/src/tensorflow/lite/micro/micro_allocator.cpp ****     int tensor_index, int subgraph_index) {
 763:../src/tensorflow_lite/src/tensorflow/lite/micro/micro_allocator.cpp ****   const SubGraph* subgraph = model->subgraphs()->Get(subgraph_index);
 764:../src/tensorflow_lite/src/tensorflow/lite/micro/micro_allocator.cpp ****   TFLITE_DCHECK(subgraph != nullptr);
 765:../src/tensorflow_lite/src/tensorflow/lite/micro/micro_allocator.cpp **** 
 766:../src/tensorflow_lite/src/tensorflow/lite/micro/micro_allocator.cpp ****   // This value is allocated from persistent arena space. It is guaranteed to be
 767:../src/tensorflow_lite/src/tensorflow/lite/micro/micro_allocator.cpp ****   // around for the lifetime of the application.
 768:../src/tensorflow_lite/src/tensorflow/lite/micro/micro_allocator.cpp ****   TfLiteTensor* tensor = AllocatePersistentTfLiteTensorInternal();
 769:../src/tensorflow_lite/src/tensorflow/lite/micro/micro_allocator.cpp **** 
 770:../src/tensorflow_lite/src/tensorflow/lite/micro/micro_allocator.cpp ****   // Populate any fields from the flatbuffer, since this TfLiteTensor struct is
 771:../src/tensorflow_lite/src/tensorflow/lite/micro/micro_allocator.cpp ****   // allocated in the persistent section of the arena, ensure that additional
 772:../src/tensorflow_lite/src/tensorflow/lite/micro/micro_allocator.cpp ****   // allocations also take place in that section of the arena.
 773:../src/tensorflow_lite/src/tensorflow/lite/micro/micro_allocator.cpp ****   if (PopulateTfLiteTensorFromFlatbuffer(
 774:../src/tensorflow_lite/src/tensorflow/lite/micro/micro_allocator.cpp ****           model, tensor, tensor_index, subgraph_index,
 775:../src/tensorflow_lite/src/tensorflow/lite/micro/micro_allocator.cpp ****           /*allocate_temp=*/false) != kTfLiteOk) {
 776:../src/tensorflow_lite/src/tensorflow/lite/micro/micro_allocator.cpp ****     TF_LITE_REPORT_ERROR(error_reporter_,
 777:../src/tensorflow_lite/src/tensorflow/lite/micro/micro_allocator.cpp ****                          "Failed to populate a persistent TfLiteTensor struct "
 778:../src/tensorflow_lite/src/tensorflow/lite/micro/micro_allocator.cpp ****                          "from flatbuffer data!");
 779:../src/tensorflow_lite/src/tensorflow/lite/micro/micro_allocator.cpp ****     return nullptr;
 780:../src/tensorflow_lite/src/tensorflow/lite/micro/micro_allocator.cpp ****   }
 781:../src/tensorflow_lite/src/tensorflow/lite/micro/micro_allocator.cpp **** 
 782:../src/tensorflow_lite/src/tensorflow/lite/micro/micro_allocator.cpp ****   if (subgraph_allocations != nullptr) {
 783:../src/tensorflow_lite/src/tensorflow/lite/micro/micro_allocator.cpp ****     // Tensor buffers that are allocated at runtime (e.g. non-weight buffers)
 784:../src/tensorflow_lite/src/tensorflow/lite/micro/micro_allocator.cpp ****     // and not located in the flatbuffer are stored on the pre-allocated list of
 785:../src/tensorflow_lite/src/tensorflow/lite/micro/micro_allocator.cpp ****     // TfLiteEvalTensors structs. These structs are the source of truth, simply
 786:../src/tensorflow_lite/src/tensorflow/lite/micro/micro_allocator.cpp ****     // point the corresponding buffer to the new TfLiteTensor data value.
 787:../src/tensorflow_lite/src/tensorflow/lite/micro/micro_allocator.cpp ****     tensor->data.data =
 788:../src/tensorflow_lite/src/tensorflow/lite/micro/micro_allocator.cpp ****         subgraph_allocations[subgraph_index].tensors[tensor_index].data.data;
 789:../src/tensorflow_lite/src/tensorflow/lite/micro/micro_allocator.cpp ****     // TfLiteEvalTensor structs must also be the source of truth for the
 790:../src/tensorflow_lite/src/tensorflow/lite/micro/micro_allocator.cpp ****     // TfLiteTensor dims.
 791:../src/tensorflow_lite/src/tensorflow/lite/micro/micro_allocator.cpp ****     tensor->dims =
 792:../src/tensorflow_lite/src/tensorflow/lite/micro/micro_allocator.cpp ****         subgraph_allocations[subgraph_index].tensors[tensor_index].dims;
 793:../src/tensorflow_lite/src/tensorflow/lite/micro/micro_allocator.cpp ****   }
 794:../src/tensorflow_lite/src/tensorflow/lite/micro/micro_allocator.cpp ****   return tensor;
 795:../src/tensorflow_lite/src/tensorflow/lite/micro/micro_allocator.cpp **** }
 796:../src/tensorflow_lite/src/tensorflow/lite/micro/micro_allocator.cpp **** 
 797:../src/tensorflow_lite/src/tensorflow/lite/micro/micro_allocator.cpp **** TfLiteTensor* MicroAllocator::AllocateTempTfLiteTensor(
 798:../src/tensorflow_lite/src/tensorflow/lite/micro/micro_allocator.cpp ****     const Model* model, const SubgraphAllocations* subgraph_allocations,
 799:../src/tensorflow_lite/src/tensorflow/lite/micro/micro_allocator.cpp ****     int tensor_index, int subgraph_index) {
 800:../src/tensorflow_lite/src/tensorflow/lite/micro/micro_allocator.cpp ****   const SubGraph* subgraph = model->subgraphs()->Get(subgraph_index);
 801:../src/tensorflow_lite/src/tensorflow/lite/micro/micro_allocator.cpp ****   TFLITE_DCHECK(subgraph != nullptr);
 802:../src/tensorflow_lite/src/tensorflow/lite/micro/micro_allocator.cpp **** 
 803:../src/tensorflow_lite/src/tensorflow/lite/micro/micro_allocator.cpp ****   // This value is allocated from temporary arena space. It is guaranteed to be
 804:../src/tensorflow_lite/src/tensorflow/lite/micro/micro_allocator.cpp ****   // around for at least the scope of the calling function. Since this struct
 805:../src/tensorflow_lite/src/tensorflow/lite/micro/micro_allocator.cpp ****   // allocation takes place in temp space, no need to own or cleanup.
 806:../src/tensorflow_lite/src/tensorflow/lite/micro/micro_allocator.cpp ****   TfLiteTensor* tensor =
 807:../src/tensorflow_lite/src/tensorflow/lite/micro/micro_allocator.cpp ****       reinterpret_cast<TfLiteTensor*>(memory_allocator_->AllocateTemp(
 808:../src/tensorflow_lite/src/tensorflow/lite/micro/micro_allocator.cpp ****           sizeof(TfLiteTensor), alignof(TfLiteTensor)));
 809:../src/tensorflow_lite/src/tensorflow/lite/micro/micro_allocator.cpp **** 
 810:../src/tensorflow_lite/src/tensorflow/lite/micro/micro_allocator.cpp ****   // Populate any fields from the flatbuffer, since this TfLiteTensor struct is
 811:../src/tensorflow_lite/src/tensorflow/lite/micro/micro_allocator.cpp ****   // allocated in the temp section of the arena, ensure that additional
 812:../src/tensorflow_lite/src/tensorflow/lite/micro/micro_allocator.cpp ****   // allocations also take place in that section of the arena.
 813:../src/tensorflow_lite/src/tensorflow/lite/micro/micro_allocator.cpp ****   if (PopulateTfLiteTensorFromFlatbuffer(model, tensor, tensor_index,
 814:../src/tensorflow_lite/src/tensorflow/lite/micro/micro_allocator.cpp ****                                          subgraph_index,
 815:../src/tensorflow_lite/src/tensorflow/lite/micro/micro_allocator.cpp ****                                          /*allocate_temp=*/true) != kTfLiteOk) {
 816:../src/tensorflow_lite/src/tensorflow/lite/micro/micro_allocator.cpp ****     TF_LITE_REPORT_ERROR(
 817:../src/tensorflow_lite/src/tensorflow/lite/micro/micro_allocator.cpp ****         error_reporter_,
 818:../src/tensorflow_lite/src/tensorflow/lite/micro/micro_allocator.cpp ****         "Failed to populate a temp TfLiteTensor struct from flatbuffer data!");
 819:../src/tensorflow_lite/src/tensorflow/lite/micro/micro_allocator.cpp ****     return nullptr;
 820:../src/tensorflow_lite/src/tensorflow/lite/micro/micro_allocator.cpp ****   }
 821:../src/tensorflow_lite/src/tensorflow/lite/micro/micro_allocator.cpp **** 
 822:../src/tensorflow_lite/src/tensorflow/lite/micro/micro_allocator.cpp ****   if (subgraph_allocations != nullptr) {
 823:../src/tensorflow_lite/src/tensorflow/lite/micro/micro_allocator.cpp ****     // Tensor buffers that are allocated at runtime (e.g. non-weight buffers)
 824:../src/tensorflow_lite/src/tensorflow/lite/micro/micro_allocator.cpp ****     // and not located in the flatbuffer are stored on the pre-allocated list of
 825:../src/tensorflow_lite/src/tensorflow/lite/micro/micro_allocator.cpp ****     // TfLiteEvalTensors structs. These structs are the source of truth, simply
 826:../src/tensorflow_lite/src/tensorflow/lite/micro/micro_allocator.cpp ****     // point the corresponding buffer to the new TfLiteTensor data value.
 827:../src/tensorflow_lite/src/tensorflow/lite/micro/micro_allocator.cpp ****     tensor->data.data =
 828:../src/tensorflow_lite/src/tensorflow/lite/micro/micro_allocator.cpp ****         subgraph_allocations[subgraph_index].tensors[tensor_index].data.data;
 829:../src/tensorflow_lite/src/tensorflow/lite/micro/micro_allocator.cpp ****     // TfLiteEvalTensor structs must also be the source of truth for the
 830:../src/tensorflow_lite/src/tensorflow/lite/micro/micro_allocator.cpp ****     // TfLiteTensor dims.
 831:../src/tensorflow_lite/src/tensorflow/lite/micro/micro_allocator.cpp ****     tensor->dims =
 832:../src/tensorflow_lite/src/tensorflow/lite/micro/micro_allocator.cpp ****         subgraph_allocations[subgraph_index].tensors[tensor_index].dims;
 833:../src/tensorflow_lite/src/tensorflow/lite/micro/micro_allocator.cpp ****   }
 834:../src/tensorflow_lite/src/tensorflow/lite/micro/micro_allocator.cpp ****   return tensor;
 835:../src/tensorflow_lite/src/tensorflow/lite/micro/micro_allocator.cpp **** }
 836:../src/tensorflow_lite/src/tensorflow/lite/micro/micro_allocator.cpp **** 
 837:../src/tensorflow_lite/src/tensorflow/lite/micro/micro_allocator.cpp **** void MicroAllocator::ResetTempAllocations() {
 129              		.loc 1 837 0
 130              		.cfi_startproc
 131              		@ args = 0, pretend = 0, frame = 0
 132              		@ frame_needed = 0, uses_anonymous_args = 0
 133              		@ link register save eliminated.
 134              	.LVL8:
 838:../src/tensorflow_lite/src/tensorflow/lite/micro/micro_allocator.cpp ****   memory_allocator_->ResetTempAllocations();
 135              		.loc 1 838 0
 136 0000 040090E5 		ldr	r0, [r0, #4]
 137              	.LVL9:
 138 0004 003090E5 		ldr	r3, [r0]
 139 0008 143093E5 		ldr	r3, [r3, #20]
 140 000c 13FF2FE1 		bx	r3	@ indirect register sibling call
 141              	.LVL10:
 142              		.cfi_endproc
 143              	.LFE6501:
 144              		.cantunwind
 145              		.fnend
 147              		.section	.text._ZN6tflite14MicroAllocator38AllocatePersistentTfLiteTensorInternalEv,"ax",%progbits
 148              		.align	2
 149              		.global	_ZN6tflite14MicroAllocator38AllocatePersistentTfLiteTensorInternalEv
 150              		.syntax unified
 151              		.arm
 152              		.fpu neon
 154              	_ZN6tflite14MicroAllocator38AllocatePersistentTfLiteTensorInternalEv:
 155              		.fnstart
 156              	.LFB6504:
 839:../src/tensorflow_lite/src/tensorflow/lite/micro/micro_allocator.cpp **** }
 840:../src/tensorflow_lite/src/tensorflow/lite/micro/micro_allocator.cpp **** 
 841:../src/tensorflow_lite/src/tensorflow/lite/micro/micro_allocator.cpp **** TfLiteStatus MicroAllocator::AllocateTfLiteEvalTensors(
 842:../src/tensorflow_lite/src/tensorflow/lite/micro/micro_allocator.cpp ****     const Model* model, SubgraphAllocations* subgraph_allocations) {
 843:../src/tensorflow_lite/src/tensorflow/lite/micro/micro_allocator.cpp ****   TFLITE_DCHECK(subgraph_allocations != nullptr);
 844:../src/tensorflow_lite/src/tensorflow/lite/micro/micro_allocator.cpp **** 
 845:../src/tensorflow_lite/src/tensorflow/lite/micro/micro_allocator.cpp ****   for (size_t subgraph_idx = 0; subgraph_idx < model->subgraphs()->size();
 846:../src/tensorflow_lite/src/tensorflow/lite/micro/micro_allocator.cpp ****        subgraph_idx++) {
 847:../src/tensorflow_lite/src/tensorflow/lite/micro/micro_allocator.cpp ****     const SubGraph* subgraph = model->subgraphs()->Get(subgraph_idx);
 848:../src/tensorflow_lite/src/tensorflow/lite/micro/micro_allocator.cpp ****     TFLITE_DCHECK(subgraph != nullptr);
 849:../src/tensorflow_lite/src/tensorflow/lite/micro/micro_allocator.cpp **** 
 850:../src/tensorflow_lite/src/tensorflow/lite/micro/micro_allocator.cpp ****     size_t alloc_count = subgraph->tensors()->size();
 851:../src/tensorflow_lite/src/tensorflow/lite/micro/micro_allocator.cpp ****     TfLiteEvalTensor* tensors =
 852:../src/tensorflow_lite/src/tensorflow/lite/micro/micro_allocator.cpp ****         reinterpret_cast<TfLiteEvalTensor*>(memory_allocator_->AllocateFromTail(
 853:../src/tensorflow_lite/src/tensorflow/lite/micro/micro_allocator.cpp ****             sizeof(TfLiteEvalTensor) * alloc_count, alignof(TfLiteEvalTensor)));
 854:../src/tensorflow_lite/src/tensorflow/lite/micro/micro_allocator.cpp ****     if (tensors == nullptr) {
 855:../src/tensorflow_lite/src/tensorflow/lite/micro/micro_allocator.cpp ****       TF_LITE_REPORT_ERROR(
 856:../src/tensorflow_lite/src/tensorflow/lite/micro/micro_allocator.cpp ****           error_reporter_,
 857:../src/tensorflow_lite/src/tensorflow/lite/micro/micro_allocator.cpp ****           "Failed to allocate memory for context->eval_tensors, "
 858:../src/tensorflow_lite/src/tensorflow/lite/micro/micro_allocator.cpp ****           "%d bytes required",
 859:../src/tensorflow_lite/src/tensorflow/lite/micro/micro_allocator.cpp ****           sizeof(TfLiteEvalTensor) * alloc_count);
 860:../src/tensorflow_lite/src/tensorflow/lite/micro/micro_allocator.cpp ****       return kTfLiteError;
 861:../src/tensorflow_lite/src/tensorflow/lite/micro/micro_allocator.cpp ****     }
 862:../src/tensorflow_lite/src/tensorflow/lite/micro/micro_allocator.cpp **** 
 863:../src/tensorflow_lite/src/tensorflow/lite/micro/micro_allocator.cpp ****     for (size_t i = 0; i < alloc_count; ++i) {
 864:../src/tensorflow_lite/src/tensorflow/lite/micro/micro_allocator.cpp ****       TfLiteStatus status = internal::InitializeTfLiteEvalTensorFromFlatbuffer(
 865:../src/tensorflow_lite/src/tensorflow/lite/micro/micro_allocator.cpp ****           memory_allocator_, *subgraph->tensors()->Get(i), model->buffers(),
 866:../src/tensorflow_lite/src/tensorflow/lite/micro/micro_allocator.cpp ****           error_reporter_, &tensors[i]);
 867:../src/tensorflow_lite/src/tensorflow/lite/micro/micro_allocator.cpp ****       if (status != kTfLiteOk) {
 868:../src/tensorflow_lite/src/tensorflow/lite/micro/micro_allocator.cpp ****         TF_LITE_REPORT_ERROR(error_reporter_, "Failed to initialize tensor %d",
 869:../src/tensorflow_lite/src/tensorflow/lite/micro/micro_allocator.cpp ****                              i);
 870:../src/tensorflow_lite/src/tensorflow/lite/micro/micro_allocator.cpp ****         return kTfLiteError;
 871:../src/tensorflow_lite/src/tensorflow/lite/micro/micro_allocator.cpp ****       }
 872:../src/tensorflow_lite/src/tensorflow/lite/micro/micro_allocator.cpp ****     }
 873:../src/tensorflow_lite/src/tensorflow/lite/micro/micro_allocator.cpp ****     subgraph_allocations[subgraph_idx].tensors = tensors;
 874:../src/tensorflow_lite/src/tensorflow/lite/micro/micro_allocator.cpp ****   }
 875:../src/tensorflow_lite/src/tensorflow/lite/micro/micro_allocator.cpp ****   return kTfLiteOk;
 876:../src/tensorflow_lite/src/tensorflow/lite/micro/micro_allocator.cpp **** }
 877:../src/tensorflow_lite/src/tensorflow/lite/micro/micro_allocator.cpp **** TfLiteStatus MicroAllocator::AllocateVariables(const SubGraph* subgraph,
 878:../src/tensorflow_lite/src/tensorflow/lite/micro/micro_allocator.cpp ****                                                TfLiteEvalTensor* eval_tensors) {
 879:../src/tensorflow_lite/src/tensorflow/lite/micro/micro_allocator.cpp ****   for (size_t i = 0; i < subgraph->tensors()->size(); ++i) {
 880:../src/tensorflow_lite/src/tensorflow/lite/micro/micro_allocator.cpp ****     auto* tensor = subgraph->tensors()->Get(i);
 881:../src/tensorflow_lite/src/tensorflow/lite/micro/micro_allocator.cpp ****     if (tensor->is_variable()) {
 882:../src/tensorflow_lite/src/tensorflow/lite/micro/micro_allocator.cpp ****       size_t buffer_size;
 883:../src/tensorflow_lite/src/tensorflow/lite/micro/micro_allocator.cpp ****       TF_LITE_ENSURE_STATUS(
 884:../src/tensorflow_lite/src/tensorflow/lite/micro/micro_allocator.cpp ****           TfLiteEvalTensorByteLength(&eval_tensors[i], &buffer_size));
 885:../src/tensorflow_lite/src/tensorflow/lite/micro/micro_allocator.cpp **** 
 886:../src/tensorflow_lite/src/tensorflow/lite/micro/micro_allocator.cpp ****       eval_tensors[i].data.data =
 887:../src/tensorflow_lite/src/tensorflow/lite/micro/micro_allocator.cpp ****           memory_allocator_->AllocateFromTail(buffer_size, kBufferAlignment);
 888:../src/tensorflow_lite/src/tensorflow/lite/micro/micro_allocator.cpp **** 
 889:../src/tensorflow_lite/src/tensorflow/lite/micro/micro_allocator.cpp ****       if (eval_tensors[i].data.data == nullptr) {
 890:../src/tensorflow_lite/src/tensorflow/lite/micro/micro_allocator.cpp ****         TF_LITE_REPORT_ERROR(error_reporter_,
 891:../src/tensorflow_lite/src/tensorflow/lite/micro/micro_allocator.cpp ****                              "Failed to allocate variable tensor of size %d",
 892:../src/tensorflow_lite/src/tensorflow/lite/micro/micro_allocator.cpp ****                              buffer_size);
 893:../src/tensorflow_lite/src/tensorflow/lite/micro/micro_allocator.cpp ****         return kTfLiteError;
 894:../src/tensorflow_lite/src/tensorflow/lite/micro/micro_allocator.cpp ****       }
 895:../src/tensorflow_lite/src/tensorflow/lite/micro/micro_allocator.cpp ****     }
 896:../src/tensorflow_lite/src/tensorflow/lite/micro/micro_allocator.cpp ****   }
 897:../src/tensorflow_lite/src/tensorflow/lite/micro/micro_allocator.cpp ****   return kTfLiteOk;
 898:../src/tensorflow_lite/src/tensorflow/lite/micro/micro_allocator.cpp **** }
 899:../src/tensorflow_lite/src/tensorflow/lite/micro/micro_allocator.cpp **** 
 900:../src/tensorflow_lite/src/tensorflow/lite/micro/micro_allocator.cpp **** TfLiteTensor* MicroAllocator::AllocatePersistentTfLiteTensorInternal() {
 157              		.loc 1 900 0
 158              		.cfi_startproc
 159              		@ args = 0, pretend = 0, frame = 0
 160              		@ frame_needed = 0, uses_anonymous_args = 0
 161              		@ link register save eliminated.
 162              	.LVL11:
 901:../src/tensorflow_lite/src/tensorflow/lite/micro/micro_allocator.cpp ****   return reinterpret_cast<TfLiteTensor*>(memory_allocator_->AllocateFromTail(
 163              		.loc 1 901 0
 164 0000 040090E5 		ldr	r0, [r0, #4]
 165              	.LVL12:
 902:../src/tensorflow_lite/src/tensorflow/lite/micro/micro_allocator.cpp ****       sizeof(TfLiteTensor), alignof(TfLiteTensor)));
 166              		.loc 1 902 0
 167 0004 0420A0E3 		mov	r2, #4
 168 0008 4010A0E3 		mov	r1, #64
 169 000c 003090E5 		ldr	r3, [r0]
 170 0010 0C3093E5 		ldr	r3, [r3, #12]
 171 0014 13FF2FE1 		bx	r3
 172              	.LVL13:
 173              		.cfi_endproc
 174              	.LFE6504:
 175              		.cantunwind
 176              		.fnend
 178              		.section	.text._ZN6tflite12_GLOBAL__N_125MicroBuiltinDataAllocatorD2Ev,"ax",%progbits
 179              		.align	2
 180              		.syntax unified
 181              		.arm
 182              		.fpu neon
 184              	_ZN6tflite12_GLOBAL__N_125MicroBuiltinDataAllocatorD2Ev:
 185              		.fnstart
 186              	.LFB10803:
  65:../src/tensorflow_lite/src/tensorflow/lite/micro/micro_allocator.cpp ****  public:
 187              		.loc 1 65 0
 188              		.cfi_startproc
 189              		@ args = 0, pretend = 0, frame = 0
 190              		@ frame_needed = 0, uses_anonymous_args = 0
 191              		@ link register save eliminated.
 192              	.LVL14:
  65:../src/tensorflow_lite/src/tensorflow/lite/micro/micro_allocator.cpp ****  public:
 193              		.loc 1 65 0
 194 0000 1EFF2FE1 		bx	lr
 195              		.cfi_endproc
 196              	.LFE10803:
 197              		.cantunwind
 198              		.fnend
 200              		.set	_ZN6tflite12_GLOBAL__N_125MicroBuiltinDataAllocatorD1Ev,_ZN6tflite12_GLOBAL__N_125MicroBuilti
 201              		.section	.text._ZN6tflite14MicroAllocatorD0Ev,"ax",%progbits
 202              		.align	2
 203              		.global	_ZN6tflite14MicroAllocatorD0Ev
 204              		.syntax unified
 205              		.arm
 206              		.fpu neon
 208              	_ZN6tflite14MicroAllocatorD0Ev:
 209              		.fnstart
 210              	.LFB6489:
 568:../src/tensorflow_lite/src/tensorflow/lite/micro/micro_allocator.cpp **** 
 211              		.loc 1 568 0
 212              		.cfi_startproc
 213              		@ args = 0, pretend = 0, frame = 0
 214              		@ frame_needed = 0, uses_anonymous_args = 0
 215              	.LVL15:
 216 0000 10402DE9 		push	{r4, lr}
 217              		.cfi_def_cfa_offset 8
 218              		.cfi_offset 4, -8
 219              		.cfi_offset 14, -4
 568:../src/tensorflow_lite/src/tensorflow/lite/micro/micro_allocator.cpp **** 
 220              		.loc 1 568 0
 221 0004 0040A0E1 		mov	r4, r0
 222 0008 FEFFFFEB 		bl	_ZdlPv
 223              	.LVL16:
 224 000c 0400A0E1 		mov	r0, r4
 225 0010 1080BDE8 		pop	{r4, pc}
 226              		.cfi_endproc
 227              	.LFE6489:
 228              		.cantunwind
 229              		.fnend
 231              		.section	.text._ZN6tflite12_GLOBAL__N_125MicroBuiltinDataAllocatorD0Ev,"ax",%progbits
 232              		.align	2
 233              		.syntax unified
 234              		.arm
 235              		.fpu neon
 237              	_ZN6tflite12_GLOBAL__N_125MicroBuiltinDataAllocatorD0Ev:
 238              		.fnstart
 239              	.LFB10805:
  65:../src/tensorflow_lite/src/tensorflow/lite/micro/micro_allocator.cpp ****  public:
 240              		.loc 1 65 0
 241              		.cfi_startproc
 242              		@ args = 0, pretend = 0, frame = 0
 243              		@ frame_needed = 0, uses_anonymous_args = 0
 244              	.LVL17:
 245 0000 10402DE9 		push	{r4, lr}
 246              		.cfi_def_cfa_offset 8
 247              		.cfi_offset 4, -8
 248              		.cfi_offset 14, -4
  65:../src/tensorflow_lite/src/tensorflow/lite/micro/micro_allocator.cpp ****  public:
 249              		.loc 1 65 0
 250 0004 0040A0E1 		mov	r4, r0
 251 0008 FEFFFFEB 		bl	_ZdlPv
 252              	.LVL18:
 253 000c 0400A0E1 		mov	r0, r4
 254 0010 1080BDE8 		pop	{r4, pc}
 255              		.cfi_endproc
 256              	.LFE10805:
 257              		.cantunwind
 258              		.fnend
 260              		.section	.text._ZN6tflite14MicroAllocator28AllocateScratchBufferHandlesEPPNS_19ScratchBufferHandle
 261              		.align	2
 262              		.global	_ZN6tflite14MicroAllocator28AllocateScratchBufferHandlesEPPNS_19ScratchBufferHandleEj
 263              		.syntax unified
 264              		.arm
 265              		.fpu neon
 267              	_ZN6tflite14MicroAllocator28AllocateScratchBufferHandlesEPPNS_19ScratchBufferHandleEj:
 268              		.fnstart
 269              	.LFB6508:
 903:../src/tensorflow_lite/src/tensorflow/lite/micro/micro_allocator.cpp **** }
 904:../src/tensorflow_lite/src/tensorflow/lite/micro/micro_allocator.cpp **** 
 905:../src/tensorflow_lite/src/tensorflow/lite/micro/micro_allocator.cpp **** TfLiteStatus MicroAllocator::PopulateTfLiteTensorFromFlatbuffer(
 906:../src/tensorflow_lite/src/tensorflow/lite/micro/micro_allocator.cpp ****     const Model* model, TfLiteTensor* tensor, int tensor_index,
 907:../src/tensorflow_lite/src/tensorflow/lite/micro/micro_allocator.cpp ****     int subgraph_idx, bool allocate_temp) {
 908:../src/tensorflow_lite/src/tensorflow/lite/micro/micro_allocator.cpp ****   // TODO(b/162311891): This method serves as a stub to ensure quantized
 909:../src/tensorflow_lite/src/tensorflow/lite/micro/micro_allocator.cpp ****   // allocations in the tail can be recorded. Once the interpreter has APIs for
 910:../src/tensorflow_lite/src/tensorflow/lite/micro/micro_allocator.cpp ****   // accessing buffers on TfLiteEvalTensor this method can be dropped.
 911:../src/tensorflow_lite/src/tensorflow/lite/micro/micro_allocator.cpp ****   return internal::InitializeTfLiteTensorFromFlatbuffer(
 912:../src/tensorflow_lite/src/tensorflow/lite/micro/micro_allocator.cpp ****       memory_allocator_, allocate_temp,
 913:../src/tensorflow_lite/src/tensorflow/lite/micro/micro_allocator.cpp ****       *model->subgraphs()->Get(subgraph_idx)->tensors()->Get(tensor_index),
 914:../src/tensorflow_lite/src/tensorflow/lite/micro/micro_allocator.cpp ****       model->buffers(), error_reporter_, tensor);
 915:../src/tensorflow_lite/src/tensorflow/lite/micro/micro_allocator.cpp **** }
 916:../src/tensorflow_lite/src/tensorflow/lite/micro/micro_allocator.cpp **** 
 917:../src/tensorflow_lite/src/tensorflow/lite/micro/micro_allocator.cpp **** ErrorReporter* MicroAllocator::error_reporter() const {
 918:../src/tensorflow_lite/src/tensorflow/lite/micro/micro_allocator.cpp ****   return error_reporter_;
 919:../src/tensorflow_lite/src/tensorflow/lite/micro/micro_allocator.cpp **** }
 920:../src/tensorflow_lite/src/tensorflow/lite/micro/micro_allocator.cpp **** 
 921:../src/tensorflow_lite/src/tensorflow/lite/micro/micro_allocator.cpp **** TfLiteStatus MicroAllocator::CommitStaticMemoryPlan(
 922:../src/tensorflow_lite/src/tensorflow/lite/micro/micro_allocator.cpp ****     const Model* model, TfLiteEvalTensor* eval_tensors,
 923:../src/tensorflow_lite/src/tensorflow/lite/micro/micro_allocator.cpp ****     ScratchBufferHandle* scratch_buffer_handles, int subgraph_idx) {
 924:../src/tensorflow_lite/src/tensorflow/lite/micro/micro_allocator.cpp ****   size_t head_usage = 0;
 925:../src/tensorflow_lite/src/tensorflow/lite/micro/micro_allocator.cpp ****   // Create static memory plan
 926:../src/tensorflow_lite/src/tensorflow/lite/micro/micro_allocator.cpp ****   // 1. Calculate AllocationInfo to know the lifetime of each tensor/buffer.
 927:../src/tensorflow_lite/src/tensorflow/lite/micro/micro_allocator.cpp ****   // 2. Add them into the planner (such as the GreedyMemoryPlanner).
 928:../src/tensorflow_lite/src/tensorflow/lite/micro/micro_allocator.cpp ****   // 3. Static memory planning using the planner.
 929:../src/tensorflow_lite/src/tensorflow/lite/micro/micro_allocator.cpp ****   // 4. Set tensor/buffer pointers based on the offsets from the previous step.
 930:../src/tensorflow_lite/src/tensorflow/lite/micro/micro_allocator.cpp ****   //
 931:../src/tensorflow_lite/src/tensorflow/lite/micro/micro_allocator.cpp ****   // Note that AllocationInfo is only needed for creating the plan. It will be
 932:../src/tensorflow_lite/src/tensorflow/lite/micro/micro_allocator.cpp ****   // allocated from the temp section and cleaned up at the bottom of this
 933:../src/tensorflow_lite/src/tensorflow/lite/micro/micro_allocator.cpp ****   // function.
 934:../src/tensorflow_lite/src/tensorflow/lite/micro/micro_allocator.cpp **** 
 935:../src/tensorflow_lite/src/tensorflow/lite/micro/micro_allocator.cpp ****   const SubGraph* subgraph = model->subgraphs()->Get(subgraph_idx);
 936:../src/tensorflow_lite/src/tensorflow/lite/micro/micro_allocator.cpp ****   size_t allocation_info_count =
 937:../src/tensorflow_lite/src/tensorflow/lite/micro/micro_allocator.cpp ****       subgraph->tensors()->size() + scratch_buffer_request_count_;
 938:../src/tensorflow_lite/src/tensorflow/lite/micro/micro_allocator.cpp ****   size_t bytes = sizeof(AllocationInfo) * allocation_info_count;
 939:../src/tensorflow_lite/src/tensorflow/lite/micro/micro_allocator.cpp **** 
 940:../src/tensorflow_lite/src/tensorflow/lite/micro/micro_allocator.cpp ****   // Allocate an array of AllocationInfo structs from the temp section. This
 941:../src/tensorflow_lite/src/tensorflow/lite/micro/micro_allocator.cpp ****   // struct will be used by AllocationInfoBuilder to find buffer usage.
 942:../src/tensorflow_lite/src/tensorflow/lite/micro/micro_allocator.cpp ****   AllocationInfo* allocation_info = reinterpret_cast<AllocationInfo*>(
 943:../src/tensorflow_lite/src/tensorflow/lite/micro/micro_allocator.cpp ****       memory_allocator_->AllocateTemp(bytes, alignof(AllocationInfo)));
 944:../src/tensorflow_lite/src/tensorflow/lite/micro/micro_allocator.cpp ****   if (allocation_info == nullptr) {
 945:../src/tensorflow_lite/src/tensorflow/lite/micro/micro_allocator.cpp ****     TF_LITE_REPORT_ERROR(
 946:../src/tensorflow_lite/src/tensorflow/lite/micro/micro_allocator.cpp ****         error_reporter_,
 947:../src/tensorflow_lite/src/tensorflow/lite/micro/micro_allocator.cpp ****         "Failed to allocate memory for allocation_info, %d bytes required",
 948:../src/tensorflow_lite/src/tensorflow/lite/micro/micro_allocator.cpp ****         bytes);
 949:../src/tensorflow_lite/src/tensorflow/lite/micro/micro_allocator.cpp ****     return kTfLiteError;
 950:../src/tensorflow_lite/src/tensorflow/lite/micro/micro_allocator.cpp ****   }
 951:../src/tensorflow_lite/src/tensorflow/lite/micro/micro_allocator.cpp **** 
 952:../src/tensorflow_lite/src/tensorflow/lite/micro/micro_allocator.cpp ****   // Use the AllocationInfoBuilder class to help determine where buffers are
 953:../src/tensorflow_lite/src/tensorflow/lite/micro/micro_allocator.cpp ****   // used in the subgraph.
 954:../src/tensorflow_lite/src/tensorflow/lite/micro/micro_allocator.cpp ****   AllocationInfoBuilder builder(allocation_info, subgraph->tensors()->size(),
 955:../src/tensorflow_lite/src/tensorflow/lite/micro/micro_allocator.cpp ****                                 scratch_buffer_request_count_, error_reporter_);
 956:../src/tensorflow_lite/src/tensorflow/lite/micro/micro_allocator.cpp **** 
 957:../src/tensorflow_lite/src/tensorflow/lite/micro/micro_allocator.cpp ****   const int32_t* offline_planner_offsets = nullptr;
 958:../src/tensorflow_lite/src/tensorflow/lite/micro/micro_allocator.cpp ****   TF_LITE_ENSURE_STATUS(
 959:../src/tensorflow_lite/src/tensorflow/lite/micro/micro_allocator.cpp ****       builder.GetOfflinePlannedOffsets(model, &offline_planner_offsets));
 960:../src/tensorflow_lite/src/tensorflow/lite/micro/micro_allocator.cpp ****   TF_LITE_ENSURE_STATUS(
 961:../src/tensorflow_lite/src/tensorflow/lite/micro/micro_allocator.cpp ****       builder.AddTensors(subgraph, offline_planner_offsets, eval_tensors));
 962:../src/tensorflow_lite/src/tensorflow/lite/micro/micro_allocator.cpp **** 
 963:../src/tensorflow_lite/src/tensorflow/lite/micro/micro_allocator.cpp ****   internal::ScratchBufferRequest* scratch_buffer_requests =
 964:../src/tensorflow_lite/src/tensorflow/lite/micro/micro_allocator.cpp ****       GetScratchBufferRequests();
 965:../src/tensorflow_lite/src/tensorflow/lite/micro/micro_allocator.cpp **** 
 966:../src/tensorflow_lite/src/tensorflow/lite/micro/micro_allocator.cpp ****   TF_LITE_ENSURE_STATUS(builder.AddScratchBuffers(scratch_buffer_requests,
 967:../src/tensorflow_lite/src/tensorflow/lite/micro/micro_allocator.cpp ****                                                   scratch_buffer_handles));
 968:../src/tensorflow_lite/src/tensorflow/lite/micro/micro_allocator.cpp **** 
 969:../src/tensorflow_lite/src/tensorflow/lite/micro/micro_allocator.cpp ****   // Remaining arena size that memory planner can use for calculating offsets.
 970:../src/tensorflow_lite/src/tensorflow/lite/micro/micro_allocator.cpp ****   size_t remaining_arena_size =
 971:../src/tensorflow_lite/src/tensorflow/lite/micro/micro_allocator.cpp ****       memory_allocator_->GetAvailableMemory(kBufferAlignment);
 972:../src/tensorflow_lite/src/tensorflow/lite/micro/micro_allocator.cpp ****   uint8_t* planner_arena =
 973:../src/tensorflow_lite/src/tensorflow/lite/micro/micro_allocator.cpp ****       memory_allocator_->AllocateTemp(remaining_arena_size, kBufferAlignment);
 974:../src/tensorflow_lite/src/tensorflow/lite/micro/micro_allocator.cpp ****   TF_LITE_ENSURE(error_reporter_, planner_arena != nullptr);
 975:../src/tensorflow_lite/src/tensorflow/lite/micro/micro_allocator.cpp ****   GreedyMemoryPlanner planner(planner_arena, remaining_arena_size);
 976:../src/tensorflow_lite/src/tensorflow/lite/micro/micro_allocator.cpp ****   TF_LITE_ENSURE_STATUS(CreatePlan(error_reporter_, &planner, allocation_info,
 977:../src/tensorflow_lite/src/tensorflow/lite/micro/micro_allocator.cpp ****                                    allocation_info_count));
 978:../src/tensorflow_lite/src/tensorflow/lite/micro/micro_allocator.cpp **** 
 979:../src/tensorflow_lite/src/tensorflow/lite/micro/micro_allocator.cpp ****   // Reset all temp allocations used above:
 980:../src/tensorflow_lite/src/tensorflow/lite/micro/micro_allocator.cpp ****   memory_allocator_->ResetTempAllocations();
 981:../src/tensorflow_lite/src/tensorflow/lite/micro/micro_allocator.cpp **** 
 982:../src/tensorflow_lite/src/tensorflow/lite/micro/micro_allocator.cpp ****   size_t actual_available_arena_size =
 983:../src/tensorflow_lite/src/tensorflow/lite/micro/micro_allocator.cpp ****       memory_allocator_->GetAvailableMemory(kBufferAlignment);
 984:../src/tensorflow_lite/src/tensorflow/lite/micro/micro_allocator.cpp **** 
 985:../src/tensorflow_lite/src/tensorflow/lite/micro/micro_allocator.cpp ****   // Make sure we have enough arena size.
 986:../src/tensorflow_lite/src/tensorflow/lite/micro/micro_allocator.cpp ****   if (planner.GetMaximumMemorySize() > actual_available_arena_size) {
 987:../src/tensorflow_lite/src/tensorflow/lite/micro/micro_allocator.cpp ****     TF_LITE_REPORT_ERROR(
 988:../src/tensorflow_lite/src/tensorflow/lite/micro/micro_allocator.cpp ****         error_reporter_,
 989:../src/tensorflow_lite/src/tensorflow/lite/micro/micro_allocator.cpp ****         "Arena size is too small for all buffers. Needed %u but only "
 990:../src/tensorflow_lite/src/tensorflow/lite/micro/micro_allocator.cpp ****         "%u was available.",
 991:../src/tensorflow_lite/src/tensorflow/lite/micro/micro_allocator.cpp ****         planner.GetMaximumMemorySize(), actual_available_arena_size);
 992:../src/tensorflow_lite/src/tensorflow/lite/micro/micro_allocator.cpp ****     return kTfLiteError;
 993:../src/tensorflow_lite/src/tensorflow/lite/micro/micro_allocator.cpp ****   }
 994:../src/tensorflow_lite/src/tensorflow/lite/micro/micro_allocator.cpp ****   // Commit the plan.
 995:../src/tensorflow_lite/src/tensorflow/lite/micro/micro_allocator.cpp ****   TF_LITE_ENSURE_STATUS(CommitPlan(error_reporter_, &planner,
 996:../src/tensorflow_lite/src/tensorflow/lite/micro/micro_allocator.cpp ****                                    memory_allocator_->GetHeadBuffer(),
 997:../src/tensorflow_lite/src/tensorflow/lite/micro/micro_allocator.cpp ****                                    allocation_info, allocation_info_count));
 998:../src/tensorflow_lite/src/tensorflow/lite/micro/micro_allocator.cpp **** #ifdef TF_LITE_SHOW_MEMORY_USE
 999:../src/tensorflow_lite/src/tensorflow/lite/micro/micro_allocator.cpp ****   planner.PrintMemoryPlan();
1000:../src/tensorflow_lite/src/tensorflow/lite/micro/micro_allocator.cpp **** #endif
1001:../src/tensorflow_lite/src/tensorflow/lite/micro/micro_allocator.cpp ****   head_usage = planner.GetMaximumMemorySize();
1002:../src/tensorflow_lite/src/tensorflow/lite/micro/micro_allocator.cpp **** 
1003:../src/tensorflow_lite/src/tensorflow/lite/micro/micro_allocator.cpp ****   // The head is used to store memory plans for one model at a time during the
1004:../src/tensorflow_lite/src/tensorflow/lite/micro/micro_allocator.cpp ****   // model preparation stage, and is re-purposed to store scratch buffer handles
1005:../src/tensorflow_lite/src/tensorflow/lite/micro/micro_allocator.cpp ****   // during model invocation. The head must be as large as the greater of the
1006:../src/tensorflow_lite/src/tensorflow/lite/micro/micro_allocator.cpp ****   // largest model memory plan's size and the total space required for all
1007:../src/tensorflow_lite/src/tensorflow/lite/micro/micro_allocator.cpp ****   // scratch buffer handles.
1008:../src/tensorflow_lite/src/tensorflow/lite/micro/micro_allocator.cpp ****   if (max_head_buffer_usage_ < head_usage) {
1009:../src/tensorflow_lite/src/tensorflow/lite/micro/micro_allocator.cpp ****     max_head_buffer_usage_ = head_usage;
1010:../src/tensorflow_lite/src/tensorflow/lite/micro/micro_allocator.cpp ****   }
1011:../src/tensorflow_lite/src/tensorflow/lite/micro/micro_allocator.cpp **** 
1012:../src/tensorflow_lite/src/tensorflow/lite/micro/micro_allocator.cpp ****   // The head is used for storing scratch buffer allocations before finalizing a
1013:../src/tensorflow_lite/src/tensorflow/lite/micro/micro_allocator.cpp ****   // memory plan in this function. Ensure that the head is set to the largest
1014:../src/tensorflow_lite/src/tensorflow/lite/micro/micro_allocator.cpp ****   // memory plan sent through the allocator:
1015:../src/tensorflow_lite/src/tensorflow/lite/micro/micro_allocator.cpp ****   TF_LITE_ENSURE_STATUS(memory_allocator_->SetHeadBufferSize(
1016:../src/tensorflow_lite/src/tensorflow/lite/micro/micro_allocator.cpp ****       max_head_buffer_usage_, kBufferAlignment));
1017:../src/tensorflow_lite/src/tensorflow/lite/micro/micro_allocator.cpp ****   return kTfLiteOk;
1018:../src/tensorflow_lite/src/tensorflow/lite/micro/micro_allocator.cpp **** }
1019:../src/tensorflow_lite/src/tensorflow/lite/micro/micro_allocator.cpp **** 
1020:../src/tensorflow_lite/src/tensorflow/lite/micro/micro_allocator.cpp **** TfLiteStatus MicroAllocator::AllocateScratchBufferHandles(
1021:../src/tensorflow_lite/src/tensorflow/lite/micro/micro_allocator.cpp ****     ScratchBufferHandle** scratch_buffer_handles, size_t handle_count) {
 270              		.loc 1 1021 0
 271              		.cfi_startproc
 272              		@ args = 0, pretend = 0, frame = 0
 273              		@ frame_needed = 0, uses_anonymous_args = 0
 274              	.LVL19:
 275 0000 10402DE9 		push	{r4, lr}
 276              		.save {r4, lr}
 277              		.cfi_def_cfa_offset 8
 278              		.cfi_offset 4, -8
 279              		.cfi_offset 14, -4
1022:../src/tensorflow_lite/src/tensorflow/lite/micro/micro_allocator.cpp ****   TFLITE_DCHECK(scratch_buffer_handles != nullptr);
 280              		.loc 1 1022 0
 281 0004 004051E2 		subs	r4, r1, #0
 282 0008 0B00000A 		beq	.L20
1023:../src/tensorflow_lite/src/tensorflow/lite/micro/micro_allocator.cpp **** 
1024:../src/tensorflow_lite/src/tensorflow/lite/micro/micro_allocator.cpp ****   if (scratch_buffer_request_count_ == 0) {
 283              		.loc 1 1024 0
 284 000c 143090E5 		ldr	r3, [r0, #20]
 285 0010 000053E3 		cmp	r3, #0
 286 0014 0600000A 		beq	.L14
 287              	.LVL20:
 288              	.LBB2538:
 289              	.LBB2539:
1025:../src/tensorflow_lite/src/tensorflow/lite/micro/micro_allocator.cpp ****     // No scratch buffer requests were requested during model allocation.
1026:../src/tensorflow_lite/src/tensorflow/lite/micro/micro_allocator.cpp ****     return kTfLiteOk;
1027:../src/tensorflow_lite/src/tensorflow/lite/micro/micro_allocator.cpp ****   }
1028:../src/tensorflow_lite/src/tensorflow/lite/micro/micro_allocator.cpp **** 
1029:../src/tensorflow_lite/src/tensorflow/lite/micro/micro_allocator.cpp ****   // Allocate a consecutive block of memory store the scratch buffer handles.
1030:../src/tensorflow_lite/src/tensorflow/lite/micro/micro_allocator.cpp ****   // This alignment ensures quick lookup during inference time for the model:
1031:../src/tensorflow_lite/src/tensorflow/lite/micro/micro_allocator.cpp ****   *scratch_buffer_handles = reinterpret_cast<ScratchBufferHandle*>(
1032:../src/tensorflow_lite/src/tensorflow/lite/micro/micro_allocator.cpp ****       memory_allocator_->AllocateFromTail(
 290              		.loc 1 1032 0
 291 0018 040090E5 		ldr	r0, [r0, #4]
 292              	.LVL21:
 293 001c 0211A0E1 		lsl	r1, r2, #2
 294              	.LVL22:
 295 0020 0420A0E3 		mov	r2, #4
 296              	.LVL23:
1033:../src/tensorflow_lite/src/tensorflow/lite/micro/micro_allocator.cpp ****           sizeof(ScratchBufferHandle) * handle_count,
1034:../src/tensorflow_lite/src/tensorflow/lite/micro/micro_allocator.cpp ****           alignof(ScratchBufferHandle)));
 297              		.loc 1 1034 0
 298 0024 003090E5 		ldr	r3, [r0]
1032:../src/tensorflow_lite/src/tensorflow/lite/micro/micro_allocator.cpp ****           sizeof(ScratchBufferHandle) * handle_count,
 299              		.loc 1 1032 0
 300 0028 0C3093E5 		ldr	r3, [r3, #12]
 301 002c 33FF2FE1 		blx	r3
 302              	.LVL24:
1031:../src/tensorflow_lite/src/tensorflow/lite/micro/micro_allocator.cpp ****       memory_allocator_->AllocateFromTail(
 303              		.loc 1 1031 0
 304 0030 000084E5 		str	r0, [r4]
 305              	.LVL25:
 306              	.L14:
 307              	.LBE2539:
 308              	.LBE2538:
1035:../src/tensorflow_lite/src/tensorflow/lite/micro/micro_allocator.cpp **** 
1036:../src/tensorflow_lite/src/tensorflow/lite/micro/micro_allocator.cpp ****   return kTfLiteOk;
1037:../src/tensorflow_lite/src/tensorflow/lite/micro/micro_allocator.cpp **** }
 309              		.loc 1 1037 0
 310 0034 0000A0E3 		mov	r0, #0
 311 0038 1080BDE8 		pop	{r4, pc}
 312              	.LVL26:
 313              	.L20:
1022:../src/tensorflow_lite/src/tensorflow/lite/micro/micro_allocator.cpp **** 
 314              		.loc 1 1022 0 discriminator 1
 315 003c FEFFFFEB 		bl	abort
 316              	.LVL27:
 317              		.cfi_endproc
 318              	.LFE6508:
 319              		.fnend
 321              		.section	.text._ZN6tflite14MicroAllocator17AllocateVariablesEPKNS_8SubGraphEP16TfLiteEvalTensor,"a
 322              		.align	2
 323              		.global	_ZN6tflite14MicroAllocator17AllocateVariablesEPKNS_8SubGraphEP16TfLiteEvalTensor
 324              		.syntax unified
 325              		.arm
 326              		.fpu neon
 328              	_ZN6tflite14MicroAllocator17AllocateVariablesEPKNS_8SubGraphEP16TfLiteEvalTensor:
 329              		.fnstart
 330              	.LFB6503:
 878:../src/tensorflow_lite/src/tensorflow/lite/micro/micro_allocator.cpp ****   for (size_t i = 0; i < subgraph->tensors()->size(); ++i) {
 331              		.loc 1 878 0
 332              		.cfi_startproc
 333              		@ args = 0, pretend = 0, frame = 8
 334              		@ frame_needed = 0, uses_anonymous_args = 0
 335              	.LVL28:
 336 0000 F0402DE9 		push	{r4, r5, r6, r7, lr}
 337              		.save {r4, r5, r6, r7, lr}
 338              		.cfi_def_cfa_offset 20
 339              		.cfi_offset 4, -20
 340              		.cfi_offset 5, -16
 341              		.cfi_offset 6, -12
 342              		.cfi_offset 7, -8
 343              		.cfi_offset 14, -4
 344 0004 0170A0E1 		mov	r7, r1
 345 0008 001091E5 		ldr	r1, [r1]
 346              	.LVL29:
 347 000c 0060A0E1 		mov	r6, r0
 348              		.pad #12
 349 0010 0CD04DE2 		sub	sp, sp, #12
 350              		.cfi_def_cfa_offset 32
 351 0014 245082E2 		add	r5, r2, #36
 352              	.LBB2598:
 879:../src/tensorflow_lite/src/tensorflow/lite/micro/micro_allocator.cpp ****     auto* tensor = subgraph->tensors()->Get(i);
 353              		.loc 1 879 0
 354 0018 0040A0E3 		mov	r4, #0
 355 001c 011047E0 		sub	r1, r7, r1
 356 0020 B000D1E1 		ldrh	r0, [r1]
 357              	.LVL30:
 358 0024 2B0000EA 		b	.L27
 359              	.LVL31:
 360              	.L42:
 361              	.LBB2599:
 362              	.LBB2600:
 363              	.LBB2601:
 364              	.LBB2602:
 365              	.LBB2603:
 366              	.LBB2604:
 367              	.LBB2605:
 368              	.LBB2606:
 369              		.file 2 "C:/Renesas/e2studio_2021_01_workspace_RZA2M_ANPR/ANPR_RZA2M_GR_MANGO/src/tensorflow_lite/
   1:C:/Renesas/e2studio_2021_01_workspace_RZA2M_ANPR/ANPR_RZA2M_GR_MANGO/src/tensorflow_lite/src/third_party/flatbuffers/include/flatbuffers\base.h **** #ifndef FLATBUFFERS_BASE_H_
   2:C:/Renesas/e2studio_2021_01_workspace_RZA2M_ANPR/ANPR_RZA2M_GR_MANGO/src/tensorflow_lite/src/third_party/flatbuffers/include/flatbuffers\base.h **** #define FLATBUFFERS_BASE_H_
   3:C:/Renesas/e2studio_2021_01_workspace_RZA2M_ANPR/ANPR_RZA2M_GR_MANGO/src/tensorflow_lite/src/third_party/flatbuffers/include/flatbuffers\base.h **** 
   4:C:/Renesas/e2studio_2021_01_workspace_RZA2M_ANPR/ANPR_RZA2M_GR_MANGO/src/tensorflow_lite/src/third_party/flatbuffers/include/flatbuffers\base.h **** // clang-format off
   5:C:/Renesas/e2studio_2021_01_workspace_RZA2M_ANPR/ANPR_RZA2M_GR_MANGO/src/tensorflow_lite/src/third_party/flatbuffers/include/flatbuffers\base.h **** 
   6:C:/Renesas/e2studio_2021_01_workspace_RZA2M_ANPR/ANPR_RZA2M_GR_MANGO/src/tensorflow_lite/src/third_party/flatbuffers/include/flatbuffers\base.h **** // If activate should be declared and included first.
   7:C:/Renesas/e2studio_2021_01_workspace_RZA2M_ANPR/ANPR_RZA2M_GR_MANGO/src/tensorflow_lite/src/third_party/flatbuffers/include/flatbuffers\base.h **** #if defined(FLATBUFFERS_MEMORY_LEAK_TRACKING) && \
   8:C:/Renesas/e2studio_2021_01_workspace_RZA2M_ANPR/ANPR_RZA2M_GR_MANGO/src/tensorflow_lite/src/third_party/flatbuffers/include/flatbuffers\base.h ****     defined(_MSC_VER) && defined(_DEBUG)
   9:C:/Renesas/e2studio_2021_01_workspace_RZA2M_ANPR/ANPR_RZA2M_GR_MANGO/src/tensorflow_lite/src/third_party/flatbuffers/include/flatbuffers\base.h ****   // The _CRTDBG_MAP_ALLOC inside <crtdbg.h> will replace
  10:C:/Renesas/e2studio_2021_01_workspace_RZA2M_ANPR/ANPR_RZA2M_GR_MANGO/src/tensorflow_lite/src/third_party/flatbuffers/include/flatbuffers\base.h ****   // calloc/free (etc) to its debug version using #define directives.
  11:C:/Renesas/e2studio_2021_01_workspace_RZA2M_ANPR/ANPR_RZA2M_GR_MANGO/src/tensorflow_lite/src/third_party/flatbuffers/include/flatbuffers\base.h ****   #define _CRTDBG_MAP_ALLOC
  12:C:/Renesas/e2studio_2021_01_workspace_RZA2M_ANPR/ANPR_RZA2M_GR_MANGO/src/tensorflow_lite/src/third_party/flatbuffers/include/flatbuffers\base.h ****   #include <stdlib.h>
  13:C:/Renesas/e2studio_2021_01_workspace_RZA2M_ANPR/ANPR_RZA2M_GR_MANGO/src/tensorflow_lite/src/third_party/flatbuffers/include/flatbuffers\base.h ****   #include <crtdbg.h>
  14:C:/Renesas/e2studio_2021_01_workspace_RZA2M_ANPR/ANPR_RZA2M_GR_MANGO/src/tensorflow_lite/src/third_party/flatbuffers/include/flatbuffers\base.h ****   // Replace operator new by trace-enabled version.
  15:C:/Renesas/e2studio_2021_01_workspace_RZA2M_ANPR/ANPR_RZA2M_GR_MANGO/src/tensorflow_lite/src/third_party/flatbuffers/include/flatbuffers\base.h ****   #define DEBUG_NEW new(_NORMAL_BLOCK, __FILE__, __LINE__)
  16:C:/Renesas/e2studio_2021_01_workspace_RZA2M_ANPR/ANPR_RZA2M_GR_MANGO/src/tensorflow_lite/src/third_party/flatbuffers/include/flatbuffers\base.h ****   #define new DEBUG_NEW
  17:C:/Renesas/e2studio_2021_01_workspace_RZA2M_ANPR/ANPR_RZA2M_GR_MANGO/src/tensorflow_lite/src/third_party/flatbuffers/include/flatbuffers\base.h **** #endif
  18:C:/Renesas/e2studio_2021_01_workspace_RZA2M_ANPR/ANPR_RZA2M_GR_MANGO/src/tensorflow_lite/src/third_party/flatbuffers/include/flatbuffers\base.h **** 
  19:C:/Renesas/e2studio_2021_01_workspace_RZA2M_ANPR/ANPR_RZA2M_GR_MANGO/src/tensorflow_lite/src/third_party/flatbuffers/include/flatbuffers\base.h **** #if !defined(FLATBUFFERS_ASSERT)
  20:C:/Renesas/e2studio_2021_01_workspace_RZA2M_ANPR/ANPR_RZA2M_GR_MANGO/src/tensorflow_lite/src/third_party/flatbuffers/include/flatbuffers\base.h **** #include <assert.h>
  21:C:/Renesas/e2studio_2021_01_workspace_RZA2M_ANPR/ANPR_RZA2M_GR_MANGO/src/tensorflow_lite/src/third_party/flatbuffers/include/flatbuffers\base.h **** #define FLATBUFFERS_ASSERT assert
  22:C:/Renesas/e2studio_2021_01_workspace_RZA2M_ANPR/ANPR_RZA2M_GR_MANGO/src/tensorflow_lite/src/third_party/flatbuffers/include/flatbuffers\base.h **** #elif defined(FLATBUFFERS_ASSERT_INCLUDE)
  23:C:/Renesas/e2studio_2021_01_workspace_RZA2M_ANPR/ANPR_RZA2M_GR_MANGO/src/tensorflow_lite/src/third_party/flatbuffers/include/flatbuffers\base.h **** // Include file with forward declaration
  24:C:/Renesas/e2studio_2021_01_workspace_RZA2M_ANPR/ANPR_RZA2M_GR_MANGO/src/tensorflow_lite/src/third_party/flatbuffers/include/flatbuffers\base.h **** #include FLATBUFFERS_ASSERT_INCLUDE
  25:C:/Renesas/e2studio_2021_01_workspace_RZA2M_ANPR/ANPR_RZA2M_GR_MANGO/src/tensorflow_lite/src/third_party/flatbuffers/include/flatbuffers\base.h **** #endif
  26:C:/Renesas/e2studio_2021_01_workspace_RZA2M_ANPR/ANPR_RZA2M_GR_MANGO/src/tensorflow_lite/src/third_party/flatbuffers/include/flatbuffers\base.h **** 
  27:C:/Renesas/e2studio_2021_01_workspace_RZA2M_ANPR/ANPR_RZA2M_GR_MANGO/src/tensorflow_lite/src/third_party/flatbuffers/include/flatbuffers\base.h **** #ifndef ARDUINO
  28:C:/Renesas/e2studio_2021_01_workspace_RZA2M_ANPR/ANPR_RZA2M_GR_MANGO/src/tensorflow_lite/src/third_party/flatbuffers/include/flatbuffers\base.h **** #include <cstdint>
  29:C:/Renesas/e2studio_2021_01_workspace_RZA2M_ANPR/ANPR_RZA2M_GR_MANGO/src/tensorflow_lite/src/third_party/flatbuffers/include/flatbuffers\base.h **** #endif
  30:C:/Renesas/e2studio_2021_01_workspace_RZA2M_ANPR/ANPR_RZA2M_GR_MANGO/src/tensorflow_lite/src/third_party/flatbuffers/include/flatbuffers\base.h **** 
  31:C:/Renesas/e2studio_2021_01_workspace_RZA2M_ANPR/ANPR_RZA2M_GR_MANGO/src/tensorflow_lite/src/third_party/flatbuffers/include/flatbuffers\base.h **** #include <cstddef>
  32:C:/Renesas/e2studio_2021_01_workspace_RZA2M_ANPR/ANPR_RZA2M_GR_MANGO/src/tensorflow_lite/src/third_party/flatbuffers/include/flatbuffers\base.h **** #include <cstdlib>
  33:C:/Renesas/e2studio_2021_01_workspace_RZA2M_ANPR/ANPR_RZA2M_GR_MANGO/src/tensorflow_lite/src/third_party/flatbuffers/include/flatbuffers\base.h **** #include <cstring>
  34:C:/Renesas/e2studio_2021_01_workspace_RZA2M_ANPR/ANPR_RZA2M_GR_MANGO/src/tensorflow_lite/src/third_party/flatbuffers/include/flatbuffers\base.h **** 
  35:C:/Renesas/e2studio_2021_01_workspace_RZA2M_ANPR/ANPR_RZA2M_GR_MANGO/src/tensorflow_lite/src/third_party/flatbuffers/include/flatbuffers\base.h **** #if defined(ARDUINO) && !defined(ARDUINOSTL_M_H)
  36:C:/Renesas/e2studio_2021_01_workspace_RZA2M_ANPR/ANPR_RZA2M_GR_MANGO/src/tensorflow_lite/src/third_party/flatbuffers/include/flatbuffers\base.h ****   #include <utility>
  37:C:/Renesas/e2studio_2021_01_workspace_RZA2M_ANPR/ANPR_RZA2M_GR_MANGO/src/tensorflow_lite/src/third_party/flatbuffers/include/flatbuffers\base.h **** #else
  38:C:/Renesas/e2studio_2021_01_workspace_RZA2M_ANPR/ANPR_RZA2M_GR_MANGO/src/tensorflow_lite/src/third_party/flatbuffers/include/flatbuffers\base.h ****   #include <utility>
  39:C:/Renesas/e2studio_2021_01_workspace_RZA2M_ANPR/ANPR_RZA2M_GR_MANGO/src/tensorflow_lite/src/third_party/flatbuffers/include/flatbuffers\base.h **** #endif
  40:C:/Renesas/e2studio_2021_01_workspace_RZA2M_ANPR/ANPR_RZA2M_GR_MANGO/src/tensorflow_lite/src/third_party/flatbuffers/include/flatbuffers\base.h **** 
  41:C:/Renesas/e2studio_2021_01_workspace_RZA2M_ANPR/ANPR_RZA2M_GR_MANGO/src/tensorflow_lite/src/third_party/flatbuffers/include/flatbuffers\base.h **** #include <string>
  42:C:/Renesas/e2studio_2021_01_workspace_RZA2M_ANPR/ANPR_RZA2M_GR_MANGO/src/tensorflow_lite/src/third_party/flatbuffers/include/flatbuffers\base.h **** #include <type_traits>
  43:C:/Renesas/e2studio_2021_01_workspace_RZA2M_ANPR/ANPR_RZA2M_GR_MANGO/src/tensorflow_lite/src/third_party/flatbuffers/include/flatbuffers\base.h **** #include <vector>
  44:C:/Renesas/e2studio_2021_01_workspace_RZA2M_ANPR/ANPR_RZA2M_GR_MANGO/src/tensorflow_lite/src/third_party/flatbuffers/include/flatbuffers\base.h **** #include <set>
  45:C:/Renesas/e2studio_2021_01_workspace_RZA2M_ANPR/ANPR_RZA2M_GR_MANGO/src/tensorflow_lite/src/third_party/flatbuffers/include/flatbuffers\base.h **** #include <algorithm>
  46:C:/Renesas/e2studio_2021_01_workspace_RZA2M_ANPR/ANPR_RZA2M_GR_MANGO/src/tensorflow_lite/src/third_party/flatbuffers/include/flatbuffers\base.h **** #include <iterator>
  47:C:/Renesas/e2studio_2021_01_workspace_RZA2M_ANPR/ANPR_RZA2M_GR_MANGO/src/tensorflow_lite/src/third_party/flatbuffers/include/flatbuffers\base.h **** #include <memory>
  48:C:/Renesas/e2studio_2021_01_workspace_RZA2M_ANPR/ANPR_RZA2M_GR_MANGO/src/tensorflow_lite/src/third_party/flatbuffers/include/flatbuffers\base.h **** 
  49:C:/Renesas/e2studio_2021_01_workspace_RZA2M_ANPR/ANPR_RZA2M_GR_MANGO/src/tensorflow_lite/src/third_party/flatbuffers/include/flatbuffers\base.h **** #if defined(__unix__) && !defined(FLATBUFFERS_LOCALE_INDEPENDENT)
  50:C:/Renesas/e2studio_2021_01_workspace_RZA2M_ANPR/ANPR_RZA2M_GR_MANGO/src/tensorflow_lite/src/third_party/flatbuffers/include/flatbuffers\base.h ****   #include <unistd.h>
  51:C:/Renesas/e2studio_2021_01_workspace_RZA2M_ANPR/ANPR_RZA2M_GR_MANGO/src/tensorflow_lite/src/third_party/flatbuffers/include/flatbuffers\base.h **** #endif
  52:C:/Renesas/e2studio_2021_01_workspace_RZA2M_ANPR/ANPR_RZA2M_GR_MANGO/src/tensorflow_lite/src/third_party/flatbuffers/include/flatbuffers\base.h **** 
  53:C:/Renesas/e2studio_2021_01_workspace_RZA2M_ANPR/ANPR_RZA2M_GR_MANGO/src/tensorflow_lite/src/third_party/flatbuffers/include/flatbuffers\base.h **** #ifdef _STLPORT_VERSION
  54:C:/Renesas/e2studio_2021_01_workspace_RZA2M_ANPR/ANPR_RZA2M_GR_MANGO/src/tensorflow_lite/src/third_party/flatbuffers/include/flatbuffers\base.h ****   #define FLATBUFFERS_CPP98_STL
  55:C:/Renesas/e2studio_2021_01_workspace_RZA2M_ANPR/ANPR_RZA2M_GR_MANGO/src/tensorflow_lite/src/third_party/flatbuffers/include/flatbuffers\base.h **** #endif
  56:C:/Renesas/e2studio_2021_01_workspace_RZA2M_ANPR/ANPR_RZA2M_GR_MANGO/src/tensorflow_lite/src/third_party/flatbuffers/include/flatbuffers\base.h **** 
  57:C:/Renesas/e2studio_2021_01_workspace_RZA2M_ANPR/ANPR_RZA2M_GR_MANGO/src/tensorflow_lite/src/third_party/flatbuffers/include/flatbuffers\base.h **** #ifdef __ANDROID__
  58:C:/Renesas/e2studio_2021_01_workspace_RZA2M_ANPR/ANPR_RZA2M_GR_MANGO/src/tensorflow_lite/src/third_party/flatbuffers/include/flatbuffers\base.h ****   #include <android/api-level.h>
  59:C:/Renesas/e2studio_2021_01_workspace_RZA2M_ANPR/ANPR_RZA2M_GR_MANGO/src/tensorflow_lite/src/third_party/flatbuffers/include/flatbuffers\base.h **** #endif
  60:C:/Renesas/e2studio_2021_01_workspace_RZA2M_ANPR/ANPR_RZA2M_GR_MANGO/src/tensorflow_lite/src/third_party/flatbuffers/include/flatbuffers\base.h **** 
  61:C:/Renesas/e2studio_2021_01_workspace_RZA2M_ANPR/ANPR_RZA2M_GR_MANGO/src/tensorflow_lite/src/third_party/flatbuffers/include/flatbuffers\base.h **** #if defined(__ICCARM__)
  62:C:/Renesas/e2studio_2021_01_workspace_RZA2M_ANPR/ANPR_RZA2M_GR_MANGO/src/tensorflow_lite/src/third_party/flatbuffers/include/flatbuffers\base.h **** #include <intrinsics.h>
  63:C:/Renesas/e2studio_2021_01_workspace_RZA2M_ANPR/ANPR_RZA2M_GR_MANGO/src/tensorflow_lite/src/third_party/flatbuffers/include/flatbuffers\base.h **** #endif
  64:C:/Renesas/e2studio_2021_01_workspace_RZA2M_ANPR/ANPR_RZA2M_GR_MANGO/src/tensorflow_lite/src/third_party/flatbuffers/include/flatbuffers\base.h **** 
  65:C:/Renesas/e2studio_2021_01_workspace_RZA2M_ANPR/ANPR_RZA2M_GR_MANGO/src/tensorflow_lite/src/third_party/flatbuffers/include/flatbuffers\base.h **** // Note the __clang__ check is needed, because clang presents itself
  66:C:/Renesas/e2studio_2021_01_workspace_RZA2M_ANPR/ANPR_RZA2M_GR_MANGO/src/tensorflow_lite/src/third_party/flatbuffers/include/flatbuffers\base.h **** // as an older GNUC compiler (4.2).
  67:C:/Renesas/e2studio_2021_01_workspace_RZA2M_ANPR/ANPR_RZA2M_GR_MANGO/src/tensorflow_lite/src/third_party/flatbuffers/include/flatbuffers\base.h **** // Clang 3.3 and later implement all of the ISO C++ 2011 standard.
  68:C:/Renesas/e2studio_2021_01_workspace_RZA2M_ANPR/ANPR_RZA2M_GR_MANGO/src/tensorflow_lite/src/third_party/flatbuffers/include/flatbuffers\base.h **** // Clang 3.4 and later implement all of the ISO C++ 2014 standard.
  69:C:/Renesas/e2studio_2021_01_workspace_RZA2M_ANPR/ANPR_RZA2M_GR_MANGO/src/tensorflow_lite/src/third_party/flatbuffers/include/flatbuffers\base.h **** // http://clang.llvm.org/cxx_status.html
  70:C:/Renesas/e2studio_2021_01_workspace_RZA2M_ANPR/ANPR_RZA2M_GR_MANGO/src/tensorflow_lite/src/third_party/flatbuffers/include/flatbuffers\base.h **** 
  71:C:/Renesas/e2studio_2021_01_workspace_RZA2M_ANPR/ANPR_RZA2M_GR_MANGO/src/tensorflow_lite/src/third_party/flatbuffers/include/flatbuffers\base.h **** // Note the MSVC value '__cplusplus' may be incorrect:
  72:C:/Renesas/e2studio_2021_01_workspace_RZA2M_ANPR/ANPR_RZA2M_GR_MANGO/src/tensorflow_lite/src/third_party/flatbuffers/include/flatbuffers\base.h **** // The '__cplusplus' predefined macro in the MSVC stuck at the value 199711L,
  73:C:/Renesas/e2studio_2021_01_workspace_RZA2M_ANPR/ANPR_RZA2M_GR_MANGO/src/tensorflow_lite/src/third_party/flatbuffers/include/flatbuffers\base.h **** // indicating (erroneously!) that the compiler conformed to the C++98 Standard.
  74:C:/Renesas/e2studio_2021_01_workspace_RZA2M_ANPR/ANPR_RZA2M_GR_MANGO/src/tensorflow_lite/src/third_party/flatbuffers/include/flatbuffers\base.h **** // This value should be correct starting from MSVC2017-15.7-Preview-3.
  75:C:/Renesas/e2studio_2021_01_workspace_RZA2M_ANPR/ANPR_RZA2M_GR_MANGO/src/tensorflow_lite/src/third_party/flatbuffers/include/flatbuffers\base.h **** // The '__cplusplus' will be valid only if MSVC2017-15.7-P3 and the `/Zc:__cplusplus` switch is set
  76:C:/Renesas/e2studio_2021_01_workspace_RZA2M_ANPR/ANPR_RZA2M_GR_MANGO/src/tensorflow_lite/src/third_party/flatbuffers/include/flatbuffers\base.h **** // Workaround (for details see MSDN):
  77:C:/Renesas/e2studio_2021_01_workspace_RZA2M_ANPR/ANPR_RZA2M_GR_MANGO/src/tensorflow_lite/src/third_party/flatbuffers/include/flatbuffers\base.h **** // Use the _MSC_VER and _MSVC_LANG definition instead of the __cplusplus  for compatibility.
  78:C:/Renesas/e2studio_2021_01_workspace_RZA2M_ANPR/ANPR_RZA2M_GR_MANGO/src/tensorflow_lite/src/third_party/flatbuffers/include/flatbuffers\base.h **** // The _MSVC_LANG macro reports the Standard version regardless of the '/Zc:__cplusplus' switch.
  79:C:/Renesas/e2studio_2021_01_workspace_RZA2M_ANPR/ANPR_RZA2M_GR_MANGO/src/tensorflow_lite/src/third_party/flatbuffers/include/flatbuffers\base.h **** 
  80:C:/Renesas/e2studio_2021_01_workspace_RZA2M_ANPR/ANPR_RZA2M_GR_MANGO/src/tensorflow_lite/src/third_party/flatbuffers/include/flatbuffers\base.h **** #if defined(__GNUC__) && !defined(__clang__)
  81:C:/Renesas/e2studio_2021_01_workspace_RZA2M_ANPR/ANPR_RZA2M_GR_MANGO/src/tensorflow_lite/src/third_party/flatbuffers/include/flatbuffers\base.h ****   #define FLATBUFFERS_GCC (__GNUC__ * 10000 + __GNUC_MINOR__ * 100 + __GNUC_PATCHLEVEL__)
  82:C:/Renesas/e2studio_2021_01_workspace_RZA2M_ANPR/ANPR_RZA2M_GR_MANGO/src/tensorflow_lite/src/third_party/flatbuffers/include/flatbuffers\base.h **** #else
  83:C:/Renesas/e2studio_2021_01_workspace_RZA2M_ANPR/ANPR_RZA2M_GR_MANGO/src/tensorflow_lite/src/third_party/flatbuffers/include/flatbuffers\base.h ****   #define FLATBUFFERS_GCC 0
  84:C:/Renesas/e2studio_2021_01_workspace_RZA2M_ANPR/ANPR_RZA2M_GR_MANGO/src/tensorflow_lite/src/third_party/flatbuffers/include/flatbuffers\base.h **** #endif
  85:C:/Renesas/e2studio_2021_01_workspace_RZA2M_ANPR/ANPR_RZA2M_GR_MANGO/src/tensorflow_lite/src/third_party/flatbuffers/include/flatbuffers\base.h **** 
  86:C:/Renesas/e2studio_2021_01_workspace_RZA2M_ANPR/ANPR_RZA2M_GR_MANGO/src/tensorflow_lite/src/third_party/flatbuffers/include/flatbuffers\base.h **** #if defined(__clang__)
  87:C:/Renesas/e2studio_2021_01_workspace_RZA2M_ANPR/ANPR_RZA2M_GR_MANGO/src/tensorflow_lite/src/third_party/flatbuffers/include/flatbuffers\base.h ****   #define FLATBUFFERS_CLANG (__clang_major__ * 10000 + __clang_minor__ * 100 + __clang_patchlevel__
  88:C:/Renesas/e2studio_2021_01_workspace_RZA2M_ANPR/ANPR_RZA2M_GR_MANGO/src/tensorflow_lite/src/third_party/flatbuffers/include/flatbuffers\base.h **** #else
  89:C:/Renesas/e2studio_2021_01_workspace_RZA2M_ANPR/ANPR_RZA2M_GR_MANGO/src/tensorflow_lite/src/third_party/flatbuffers/include/flatbuffers\base.h ****   #define FLATBUFFERS_CLANG 0
  90:C:/Renesas/e2studio_2021_01_workspace_RZA2M_ANPR/ANPR_RZA2M_GR_MANGO/src/tensorflow_lite/src/third_party/flatbuffers/include/flatbuffers\base.h **** #endif
  91:C:/Renesas/e2studio_2021_01_workspace_RZA2M_ANPR/ANPR_RZA2M_GR_MANGO/src/tensorflow_lite/src/third_party/flatbuffers/include/flatbuffers\base.h **** 
  92:C:/Renesas/e2studio_2021_01_workspace_RZA2M_ANPR/ANPR_RZA2M_GR_MANGO/src/tensorflow_lite/src/third_party/flatbuffers/include/flatbuffers\base.h **** /// @cond FLATBUFFERS_INTERNAL
  93:C:/Renesas/e2studio_2021_01_workspace_RZA2M_ANPR/ANPR_RZA2M_GR_MANGO/src/tensorflow_lite/src/third_party/flatbuffers/include/flatbuffers\base.h **** #if __cplusplus <= 199711L && \
  94:C:/Renesas/e2studio_2021_01_workspace_RZA2M_ANPR/ANPR_RZA2M_GR_MANGO/src/tensorflow_lite/src/third_party/flatbuffers/include/flatbuffers\base.h ****     (!defined(_MSC_VER) || _MSC_VER < 1600) && \
  95:C:/Renesas/e2studio_2021_01_workspace_RZA2M_ANPR/ANPR_RZA2M_GR_MANGO/src/tensorflow_lite/src/third_party/flatbuffers/include/flatbuffers\base.h ****     (!defined(__GNUC__) || \
  96:C:/Renesas/e2studio_2021_01_workspace_RZA2M_ANPR/ANPR_RZA2M_GR_MANGO/src/tensorflow_lite/src/third_party/flatbuffers/include/flatbuffers\base.h ****       (__GNUC__ * 10000 + __GNUC_MINOR__ * 100 + __GNUC_PATCHLEVEL__ < 40400))
  97:C:/Renesas/e2studio_2021_01_workspace_RZA2M_ANPR/ANPR_RZA2M_GR_MANGO/src/tensorflow_lite/src/third_party/flatbuffers/include/flatbuffers\base.h ****   #error A C++11 compatible compiler with support for the auto typing is \
  98:C:/Renesas/e2studio_2021_01_workspace_RZA2M_ANPR/ANPR_RZA2M_GR_MANGO/src/tensorflow_lite/src/third_party/flatbuffers/include/flatbuffers\base.h ****          required for FlatBuffers.
  99:C:/Renesas/e2studio_2021_01_workspace_RZA2M_ANPR/ANPR_RZA2M_GR_MANGO/src/tensorflow_lite/src/third_party/flatbuffers/include/flatbuffers\base.h ****   #error __cplusplus _MSC_VER __GNUC__  __GNUC_MINOR__  __GNUC_PATCHLEVEL__
 100:C:/Renesas/e2studio_2021_01_workspace_RZA2M_ANPR/ANPR_RZA2M_GR_MANGO/src/tensorflow_lite/src/third_party/flatbuffers/include/flatbuffers\base.h **** #endif
 101:C:/Renesas/e2studio_2021_01_workspace_RZA2M_ANPR/ANPR_RZA2M_GR_MANGO/src/tensorflow_lite/src/third_party/flatbuffers/include/flatbuffers\base.h **** 
 102:C:/Renesas/e2studio_2021_01_workspace_RZA2M_ANPR/ANPR_RZA2M_GR_MANGO/src/tensorflow_lite/src/third_party/flatbuffers/include/flatbuffers\base.h **** #if !defined(__clang__) && \
 103:C:/Renesas/e2studio_2021_01_workspace_RZA2M_ANPR/ANPR_RZA2M_GR_MANGO/src/tensorflow_lite/src/third_party/flatbuffers/include/flatbuffers\base.h ****     defined(__GNUC__) && \
 104:C:/Renesas/e2studio_2021_01_workspace_RZA2M_ANPR/ANPR_RZA2M_GR_MANGO/src/tensorflow_lite/src/third_party/flatbuffers/include/flatbuffers\base.h ****     (__GNUC__ * 10000 + __GNUC_MINOR__ * 100 + __GNUC_PATCHLEVEL__ < 40600)
 105:C:/Renesas/e2studio_2021_01_workspace_RZA2M_ANPR/ANPR_RZA2M_GR_MANGO/src/tensorflow_lite/src/third_party/flatbuffers/include/flatbuffers\base.h ****   // Backwards compatibility for g++ 4.4, and 4.5 which don't have the nullptr
 106:C:/Renesas/e2studio_2021_01_workspace_RZA2M_ANPR/ANPR_RZA2M_GR_MANGO/src/tensorflow_lite/src/third_party/flatbuffers/include/flatbuffers\base.h ****   // and constexpr keywords. Note the __clang__ check is needed, because clang
 107:C:/Renesas/e2studio_2021_01_workspace_RZA2M_ANPR/ANPR_RZA2M_GR_MANGO/src/tensorflow_lite/src/third_party/flatbuffers/include/flatbuffers\base.h ****   // presents itself as an older GNUC compiler.
 108:C:/Renesas/e2studio_2021_01_workspace_RZA2M_ANPR/ANPR_RZA2M_GR_MANGO/src/tensorflow_lite/src/third_party/flatbuffers/include/flatbuffers\base.h ****   #ifndef nullptr_t
 109:C:/Renesas/e2studio_2021_01_workspace_RZA2M_ANPR/ANPR_RZA2M_GR_MANGO/src/tensorflow_lite/src/third_party/flatbuffers/include/flatbuffers\base.h ****     const class nullptr_t {
 110:C:/Renesas/e2studio_2021_01_workspace_RZA2M_ANPR/ANPR_RZA2M_GR_MANGO/src/tensorflow_lite/src/third_party/flatbuffers/include/flatbuffers\base.h ****     public:
 111:C:/Renesas/e2studio_2021_01_workspace_RZA2M_ANPR/ANPR_RZA2M_GR_MANGO/src/tensorflow_lite/src/third_party/flatbuffers/include/flatbuffers\base.h ****       template<class T> inline operator T*() const { return 0; }
 112:C:/Renesas/e2studio_2021_01_workspace_RZA2M_ANPR/ANPR_RZA2M_GR_MANGO/src/tensorflow_lite/src/third_party/flatbuffers/include/flatbuffers\base.h ****     private:
 113:C:/Renesas/e2studio_2021_01_workspace_RZA2M_ANPR/ANPR_RZA2M_GR_MANGO/src/tensorflow_lite/src/third_party/flatbuffers/include/flatbuffers\base.h ****       void operator&() const;
 114:C:/Renesas/e2studio_2021_01_workspace_RZA2M_ANPR/ANPR_RZA2M_GR_MANGO/src/tensorflow_lite/src/third_party/flatbuffers/include/flatbuffers\base.h ****     } nullptr = {};
 115:C:/Renesas/e2studio_2021_01_workspace_RZA2M_ANPR/ANPR_RZA2M_GR_MANGO/src/tensorflow_lite/src/third_party/flatbuffers/include/flatbuffers\base.h ****   #endif
 116:C:/Renesas/e2studio_2021_01_workspace_RZA2M_ANPR/ANPR_RZA2M_GR_MANGO/src/tensorflow_lite/src/third_party/flatbuffers/include/flatbuffers\base.h ****   #ifndef constexpr
 117:C:/Renesas/e2studio_2021_01_workspace_RZA2M_ANPR/ANPR_RZA2M_GR_MANGO/src/tensorflow_lite/src/third_party/flatbuffers/include/flatbuffers\base.h ****     #define constexpr const
 118:C:/Renesas/e2studio_2021_01_workspace_RZA2M_ANPR/ANPR_RZA2M_GR_MANGO/src/tensorflow_lite/src/third_party/flatbuffers/include/flatbuffers\base.h ****   #endif
 119:C:/Renesas/e2studio_2021_01_workspace_RZA2M_ANPR/ANPR_RZA2M_GR_MANGO/src/tensorflow_lite/src/third_party/flatbuffers/include/flatbuffers\base.h **** #endif
 120:C:/Renesas/e2studio_2021_01_workspace_RZA2M_ANPR/ANPR_RZA2M_GR_MANGO/src/tensorflow_lite/src/third_party/flatbuffers/include/flatbuffers\base.h **** 
 121:C:/Renesas/e2studio_2021_01_workspace_RZA2M_ANPR/ANPR_RZA2M_GR_MANGO/src/tensorflow_lite/src/third_party/flatbuffers/include/flatbuffers\base.h **** // The wire format uses a little endian encoding (since that's efficient for
 122:C:/Renesas/e2studio_2021_01_workspace_RZA2M_ANPR/ANPR_RZA2M_GR_MANGO/src/tensorflow_lite/src/third_party/flatbuffers/include/flatbuffers\base.h **** // the common platforms).
 123:C:/Renesas/e2studio_2021_01_workspace_RZA2M_ANPR/ANPR_RZA2M_GR_MANGO/src/tensorflow_lite/src/third_party/flatbuffers/include/flatbuffers\base.h **** #if defined(__s390x__)
 124:C:/Renesas/e2studio_2021_01_workspace_RZA2M_ANPR/ANPR_RZA2M_GR_MANGO/src/tensorflow_lite/src/third_party/flatbuffers/include/flatbuffers\base.h ****   #define FLATBUFFERS_LITTLEENDIAN 0
 125:C:/Renesas/e2studio_2021_01_workspace_RZA2M_ANPR/ANPR_RZA2M_GR_MANGO/src/tensorflow_lite/src/third_party/flatbuffers/include/flatbuffers\base.h **** #endif // __s390x__
 126:C:/Renesas/e2studio_2021_01_workspace_RZA2M_ANPR/ANPR_RZA2M_GR_MANGO/src/tensorflow_lite/src/third_party/flatbuffers/include/flatbuffers\base.h **** #if !defined(FLATBUFFERS_LITTLEENDIAN)
 127:C:/Renesas/e2studio_2021_01_workspace_RZA2M_ANPR/ANPR_RZA2M_GR_MANGO/src/tensorflow_lite/src/third_party/flatbuffers/include/flatbuffers\base.h ****   #if defined(__GNUC__) || defined(__clang__) || defined(__ICCARM__)
 128:C:/Renesas/e2studio_2021_01_workspace_RZA2M_ANPR/ANPR_RZA2M_GR_MANGO/src/tensorflow_lite/src/third_party/flatbuffers/include/flatbuffers\base.h ****     #if (defined(__BIG_ENDIAN__) || \
 129:C:/Renesas/e2studio_2021_01_workspace_RZA2M_ANPR/ANPR_RZA2M_GR_MANGO/src/tensorflow_lite/src/third_party/flatbuffers/include/flatbuffers\base.h ****          (defined(__BYTE_ORDER__) && __BYTE_ORDER__ == __ORDER_BIG_ENDIAN__))
 130:C:/Renesas/e2studio_2021_01_workspace_RZA2M_ANPR/ANPR_RZA2M_GR_MANGO/src/tensorflow_lite/src/third_party/flatbuffers/include/flatbuffers\base.h ****       #define FLATBUFFERS_LITTLEENDIAN 0
 131:C:/Renesas/e2studio_2021_01_workspace_RZA2M_ANPR/ANPR_RZA2M_GR_MANGO/src/tensorflow_lite/src/third_party/flatbuffers/include/flatbuffers\base.h ****     #else
 132:C:/Renesas/e2studio_2021_01_workspace_RZA2M_ANPR/ANPR_RZA2M_GR_MANGO/src/tensorflow_lite/src/third_party/flatbuffers/include/flatbuffers\base.h ****       #define FLATBUFFERS_LITTLEENDIAN 1
 133:C:/Renesas/e2studio_2021_01_workspace_RZA2M_ANPR/ANPR_RZA2M_GR_MANGO/src/tensorflow_lite/src/third_party/flatbuffers/include/flatbuffers\base.h ****     #endif // __BIG_ENDIAN__
 134:C:/Renesas/e2studio_2021_01_workspace_RZA2M_ANPR/ANPR_RZA2M_GR_MANGO/src/tensorflow_lite/src/third_party/flatbuffers/include/flatbuffers\base.h ****   #elif defined(_MSC_VER)
 135:C:/Renesas/e2studio_2021_01_workspace_RZA2M_ANPR/ANPR_RZA2M_GR_MANGO/src/tensorflow_lite/src/third_party/flatbuffers/include/flatbuffers\base.h ****     #if defined(_M_PPC)
 136:C:/Renesas/e2studio_2021_01_workspace_RZA2M_ANPR/ANPR_RZA2M_GR_MANGO/src/tensorflow_lite/src/third_party/flatbuffers/include/flatbuffers\base.h ****       #define FLATBUFFERS_LITTLEENDIAN 0
 137:C:/Renesas/e2studio_2021_01_workspace_RZA2M_ANPR/ANPR_RZA2M_GR_MANGO/src/tensorflow_lite/src/third_party/flatbuffers/include/flatbuffers\base.h ****     #else
 138:C:/Renesas/e2studio_2021_01_workspace_RZA2M_ANPR/ANPR_RZA2M_GR_MANGO/src/tensorflow_lite/src/third_party/flatbuffers/include/flatbuffers\base.h ****       #define FLATBUFFERS_LITTLEENDIAN 1
 139:C:/Renesas/e2studio_2021_01_workspace_RZA2M_ANPR/ANPR_RZA2M_GR_MANGO/src/tensorflow_lite/src/third_party/flatbuffers/include/flatbuffers\base.h ****     #endif
 140:C:/Renesas/e2studio_2021_01_workspace_RZA2M_ANPR/ANPR_RZA2M_GR_MANGO/src/tensorflow_lite/src/third_party/flatbuffers/include/flatbuffers\base.h ****   #else
 141:C:/Renesas/e2studio_2021_01_workspace_RZA2M_ANPR/ANPR_RZA2M_GR_MANGO/src/tensorflow_lite/src/third_party/flatbuffers/include/flatbuffers\base.h ****     #error Unable to determine endianness, define FLATBUFFERS_LITTLEENDIAN.
 142:C:/Renesas/e2studio_2021_01_workspace_RZA2M_ANPR/ANPR_RZA2M_GR_MANGO/src/tensorflow_lite/src/third_party/flatbuffers/include/flatbuffers\base.h ****   #endif
 143:C:/Renesas/e2studio_2021_01_workspace_RZA2M_ANPR/ANPR_RZA2M_GR_MANGO/src/tensorflow_lite/src/third_party/flatbuffers/include/flatbuffers\base.h **** #endif // !defined(FLATBUFFERS_LITTLEENDIAN)
 144:C:/Renesas/e2studio_2021_01_workspace_RZA2M_ANPR/ANPR_RZA2M_GR_MANGO/src/tensorflow_lite/src/third_party/flatbuffers/include/flatbuffers\base.h **** 
 145:C:/Renesas/e2studio_2021_01_workspace_RZA2M_ANPR/ANPR_RZA2M_GR_MANGO/src/tensorflow_lite/src/third_party/flatbuffers/include/flatbuffers\base.h **** #define FLATBUFFERS_VERSION_MAJOR 1
 146:C:/Renesas/e2studio_2021_01_workspace_RZA2M_ANPR/ANPR_RZA2M_GR_MANGO/src/tensorflow_lite/src/third_party/flatbuffers/include/flatbuffers\base.h **** #define FLATBUFFERS_VERSION_MINOR 12
 147:C:/Renesas/e2studio_2021_01_workspace_RZA2M_ANPR/ANPR_RZA2M_GR_MANGO/src/tensorflow_lite/src/third_party/flatbuffers/include/flatbuffers\base.h **** #define FLATBUFFERS_VERSION_REVISION 0
 148:C:/Renesas/e2studio_2021_01_workspace_RZA2M_ANPR/ANPR_RZA2M_GR_MANGO/src/tensorflow_lite/src/third_party/flatbuffers/include/flatbuffers\base.h **** #define FLATBUFFERS_STRING_EXPAND(X) #X
 149:C:/Renesas/e2studio_2021_01_workspace_RZA2M_ANPR/ANPR_RZA2M_GR_MANGO/src/tensorflow_lite/src/third_party/flatbuffers/include/flatbuffers\base.h **** #define FLATBUFFERS_STRING(X) FLATBUFFERS_STRING_EXPAND(X)
 150:C:/Renesas/e2studio_2021_01_workspace_RZA2M_ANPR/ANPR_RZA2M_GR_MANGO/src/tensorflow_lite/src/third_party/flatbuffers/include/flatbuffers\base.h **** namespace flatbuffers {
 151:C:/Renesas/e2studio_2021_01_workspace_RZA2M_ANPR/ANPR_RZA2M_GR_MANGO/src/tensorflow_lite/src/third_party/flatbuffers/include/flatbuffers\base.h ****   // Returns version as string  "MAJOR.MINOR.REVISION".
 152:C:/Renesas/e2studio_2021_01_workspace_RZA2M_ANPR/ANPR_RZA2M_GR_MANGO/src/tensorflow_lite/src/third_party/flatbuffers/include/flatbuffers\base.h ****   const char* FLATBUFFERS_VERSION();
 153:C:/Renesas/e2studio_2021_01_workspace_RZA2M_ANPR/ANPR_RZA2M_GR_MANGO/src/tensorflow_lite/src/third_party/flatbuffers/include/flatbuffers\base.h **** }
 154:C:/Renesas/e2studio_2021_01_workspace_RZA2M_ANPR/ANPR_RZA2M_GR_MANGO/src/tensorflow_lite/src/third_party/flatbuffers/include/flatbuffers\base.h **** 
 155:C:/Renesas/e2studio_2021_01_workspace_RZA2M_ANPR/ANPR_RZA2M_GR_MANGO/src/tensorflow_lite/src/third_party/flatbuffers/include/flatbuffers\base.h **** #if (!defined(_MSC_VER) || _MSC_VER > 1600) && \
 156:C:/Renesas/e2studio_2021_01_workspace_RZA2M_ANPR/ANPR_RZA2M_GR_MANGO/src/tensorflow_lite/src/third_party/flatbuffers/include/flatbuffers\base.h ****     (!defined(__GNUC__) || (__GNUC__ * 100 + __GNUC_MINOR__ >= 407)) || \
 157:C:/Renesas/e2studio_2021_01_workspace_RZA2M_ANPR/ANPR_RZA2M_GR_MANGO/src/tensorflow_lite/src/third_party/flatbuffers/include/flatbuffers\base.h ****     defined(__clang__)
 158:C:/Renesas/e2studio_2021_01_workspace_RZA2M_ANPR/ANPR_RZA2M_GR_MANGO/src/tensorflow_lite/src/third_party/flatbuffers/include/flatbuffers\base.h ****   #define FLATBUFFERS_FINAL_CLASS final
 159:C:/Renesas/e2studio_2021_01_workspace_RZA2M_ANPR/ANPR_RZA2M_GR_MANGO/src/tensorflow_lite/src/third_party/flatbuffers/include/flatbuffers\base.h ****   #define FLATBUFFERS_OVERRIDE override
 160:C:/Renesas/e2studio_2021_01_workspace_RZA2M_ANPR/ANPR_RZA2M_GR_MANGO/src/tensorflow_lite/src/third_party/flatbuffers/include/flatbuffers\base.h ****   #define FLATBUFFERS_EXPLICIT_CPP11 explicit
 161:C:/Renesas/e2studio_2021_01_workspace_RZA2M_ANPR/ANPR_RZA2M_GR_MANGO/src/tensorflow_lite/src/third_party/flatbuffers/include/flatbuffers\base.h ****   #define FLATBUFFERS_VTABLE_UNDERLYING_TYPE : flatbuffers::voffset_t
 162:C:/Renesas/e2studio_2021_01_workspace_RZA2M_ANPR/ANPR_RZA2M_GR_MANGO/src/tensorflow_lite/src/third_party/flatbuffers/include/flatbuffers\base.h **** #else
 163:C:/Renesas/e2studio_2021_01_workspace_RZA2M_ANPR/ANPR_RZA2M_GR_MANGO/src/tensorflow_lite/src/third_party/flatbuffers/include/flatbuffers\base.h ****   #define FLATBUFFERS_FINAL_CLASS
 164:C:/Renesas/e2studio_2021_01_workspace_RZA2M_ANPR/ANPR_RZA2M_GR_MANGO/src/tensorflow_lite/src/third_party/flatbuffers/include/flatbuffers\base.h ****   #define FLATBUFFERS_OVERRIDE
 165:C:/Renesas/e2studio_2021_01_workspace_RZA2M_ANPR/ANPR_RZA2M_GR_MANGO/src/tensorflow_lite/src/third_party/flatbuffers/include/flatbuffers\base.h ****   #define FLATBUFFERS_EXPLICIT_CPP11
 166:C:/Renesas/e2studio_2021_01_workspace_RZA2M_ANPR/ANPR_RZA2M_GR_MANGO/src/tensorflow_lite/src/third_party/flatbuffers/include/flatbuffers\base.h ****   #define FLATBUFFERS_VTABLE_UNDERLYING_TYPE
 167:C:/Renesas/e2studio_2021_01_workspace_RZA2M_ANPR/ANPR_RZA2M_GR_MANGO/src/tensorflow_lite/src/third_party/flatbuffers/include/flatbuffers\base.h **** #endif
 168:C:/Renesas/e2studio_2021_01_workspace_RZA2M_ANPR/ANPR_RZA2M_GR_MANGO/src/tensorflow_lite/src/third_party/flatbuffers/include/flatbuffers\base.h **** 
 169:C:/Renesas/e2studio_2021_01_workspace_RZA2M_ANPR/ANPR_RZA2M_GR_MANGO/src/tensorflow_lite/src/third_party/flatbuffers/include/flatbuffers\base.h **** #if (!defined(_MSC_VER) || _MSC_VER >= 1900) && \
 170:C:/Renesas/e2studio_2021_01_workspace_RZA2M_ANPR/ANPR_RZA2M_GR_MANGO/src/tensorflow_lite/src/third_party/flatbuffers/include/flatbuffers\base.h ****     (!defined(__GNUC__) || (__GNUC__ * 100 + __GNUC_MINOR__ >= 406)) || \
 171:C:/Renesas/e2studio_2021_01_workspace_RZA2M_ANPR/ANPR_RZA2M_GR_MANGO/src/tensorflow_lite/src/third_party/flatbuffers/include/flatbuffers\base.h ****     (defined(__cpp_constexpr) && __cpp_constexpr >= 200704)
 172:C:/Renesas/e2studio_2021_01_workspace_RZA2M_ANPR/ANPR_RZA2M_GR_MANGO/src/tensorflow_lite/src/third_party/flatbuffers/include/flatbuffers\base.h ****   #define FLATBUFFERS_CONSTEXPR constexpr
 173:C:/Renesas/e2studio_2021_01_workspace_RZA2M_ANPR/ANPR_RZA2M_GR_MANGO/src/tensorflow_lite/src/third_party/flatbuffers/include/flatbuffers\base.h ****   #define FLATBUFFERS_CONSTEXPR_CPP11 constexpr
 174:C:/Renesas/e2studio_2021_01_workspace_RZA2M_ANPR/ANPR_RZA2M_GR_MANGO/src/tensorflow_lite/src/third_party/flatbuffers/include/flatbuffers\base.h ****   #define FLATBUFFERS_CONSTEXPR_DEFINED
 175:C:/Renesas/e2studio_2021_01_workspace_RZA2M_ANPR/ANPR_RZA2M_GR_MANGO/src/tensorflow_lite/src/third_party/flatbuffers/include/flatbuffers\base.h **** #else
 176:C:/Renesas/e2studio_2021_01_workspace_RZA2M_ANPR/ANPR_RZA2M_GR_MANGO/src/tensorflow_lite/src/third_party/flatbuffers/include/flatbuffers\base.h ****   #define FLATBUFFERS_CONSTEXPR const
 177:C:/Renesas/e2studio_2021_01_workspace_RZA2M_ANPR/ANPR_RZA2M_GR_MANGO/src/tensorflow_lite/src/third_party/flatbuffers/include/flatbuffers\base.h ****   #define FLATBUFFERS_CONSTEXPR_CPP11
 178:C:/Renesas/e2studio_2021_01_workspace_RZA2M_ANPR/ANPR_RZA2M_GR_MANGO/src/tensorflow_lite/src/third_party/flatbuffers/include/flatbuffers\base.h **** #endif
 179:C:/Renesas/e2studio_2021_01_workspace_RZA2M_ANPR/ANPR_RZA2M_GR_MANGO/src/tensorflow_lite/src/third_party/flatbuffers/include/flatbuffers\base.h **** 
 180:C:/Renesas/e2studio_2021_01_workspace_RZA2M_ANPR/ANPR_RZA2M_GR_MANGO/src/tensorflow_lite/src/third_party/flatbuffers/include/flatbuffers\base.h **** // This macro is never used in code!
 181:C:/Renesas/e2studio_2021_01_workspace_RZA2M_ANPR/ANPR_RZA2M_GR_MANGO/src/tensorflow_lite/src/third_party/flatbuffers/include/flatbuffers\base.h **** #if (defined(__cplusplus) && __cplusplus >= 201402L) || \
 182:C:/Renesas/e2studio_2021_01_workspace_RZA2M_ANPR/ANPR_RZA2M_GR_MANGO/src/tensorflow_lite/src/third_party/flatbuffers/include/flatbuffers\base.h ****     (defined(__cpp_constexpr) && __cpp_constexpr >= 201304)
 183:C:/Renesas/e2studio_2021_01_workspace_RZA2M_ANPR/ANPR_RZA2M_GR_MANGO/src/tensorflow_lite/src/third_party/flatbuffers/include/flatbuffers\base.h ****   #define FLATBUFFERS_CONSTEXPR_CPP14 FLATBUFFERS_CONSTEXPR
 184:C:/Renesas/e2studio_2021_01_workspace_RZA2M_ANPR/ANPR_RZA2M_GR_MANGO/src/tensorflow_lite/src/third_party/flatbuffers/include/flatbuffers\base.h **** #else
 185:C:/Renesas/e2studio_2021_01_workspace_RZA2M_ANPR/ANPR_RZA2M_GR_MANGO/src/tensorflow_lite/src/third_party/flatbuffers/include/flatbuffers\base.h ****   #define FLATBUFFERS_CONSTEXPR_CPP14
 186:C:/Renesas/e2studio_2021_01_workspace_RZA2M_ANPR/ANPR_RZA2M_GR_MANGO/src/tensorflow_lite/src/third_party/flatbuffers/include/flatbuffers\base.h **** #endif
 187:C:/Renesas/e2studio_2021_01_workspace_RZA2M_ANPR/ANPR_RZA2M_GR_MANGO/src/tensorflow_lite/src/third_party/flatbuffers/include/flatbuffers\base.h **** 
 188:C:/Renesas/e2studio_2021_01_workspace_RZA2M_ANPR/ANPR_RZA2M_GR_MANGO/src/tensorflow_lite/src/third_party/flatbuffers/include/flatbuffers\base.h **** #if (defined(__GXX_EXPERIMENTAL_CXX0X__) && (__GNUC__ * 100 + __GNUC_MINOR__ >= 406)) || \
 189:C:/Renesas/e2studio_2021_01_workspace_RZA2M_ANPR/ANPR_RZA2M_GR_MANGO/src/tensorflow_lite/src/third_party/flatbuffers/include/flatbuffers\base.h ****     (defined(_MSC_FULL_VER) && (_MSC_FULL_VER >= 190023026)) || \
 190:C:/Renesas/e2studio_2021_01_workspace_RZA2M_ANPR/ANPR_RZA2M_GR_MANGO/src/tensorflow_lite/src/third_party/flatbuffers/include/flatbuffers\base.h ****     defined(__clang__)
 191:C:/Renesas/e2studio_2021_01_workspace_RZA2M_ANPR/ANPR_RZA2M_GR_MANGO/src/tensorflow_lite/src/third_party/flatbuffers/include/flatbuffers\base.h ****   #define FLATBUFFERS_NOEXCEPT noexcept
 192:C:/Renesas/e2studio_2021_01_workspace_RZA2M_ANPR/ANPR_RZA2M_GR_MANGO/src/tensorflow_lite/src/third_party/flatbuffers/include/flatbuffers\base.h **** #else
 193:C:/Renesas/e2studio_2021_01_workspace_RZA2M_ANPR/ANPR_RZA2M_GR_MANGO/src/tensorflow_lite/src/third_party/flatbuffers/include/flatbuffers\base.h ****   #define FLATBUFFERS_NOEXCEPT
 194:C:/Renesas/e2studio_2021_01_workspace_RZA2M_ANPR/ANPR_RZA2M_GR_MANGO/src/tensorflow_lite/src/third_party/flatbuffers/include/flatbuffers\base.h **** #endif
 195:C:/Renesas/e2studio_2021_01_workspace_RZA2M_ANPR/ANPR_RZA2M_GR_MANGO/src/tensorflow_lite/src/third_party/flatbuffers/include/flatbuffers\base.h **** 
 196:C:/Renesas/e2studio_2021_01_workspace_RZA2M_ANPR/ANPR_RZA2M_GR_MANGO/src/tensorflow_lite/src/third_party/flatbuffers/include/flatbuffers\base.h **** // NOTE: the FLATBUFFERS_DELETE_FUNC macro may change the access mode to
 197:C:/Renesas/e2studio_2021_01_workspace_RZA2M_ANPR/ANPR_RZA2M_GR_MANGO/src/tensorflow_lite/src/third_party/flatbuffers/include/flatbuffers\base.h **** // private, so be sure to put it at the end or reset access mode explicitly.
 198:C:/Renesas/e2studio_2021_01_workspace_RZA2M_ANPR/ANPR_RZA2M_GR_MANGO/src/tensorflow_lite/src/third_party/flatbuffers/include/flatbuffers\base.h **** #if (!defined(_MSC_VER) || _MSC_FULL_VER >= 180020827) && \
 199:C:/Renesas/e2studio_2021_01_workspace_RZA2M_ANPR/ANPR_RZA2M_GR_MANGO/src/tensorflow_lite/src/third_party/flatbuffers/include/flatbuffers\base.h ****     (!defined(__GNUC__) || (__GNUC__ * 100 + __GNUC_MINOR__ >= 404)) || \
 200:C:/Renesas/e2studio_2021_01_workspace_RZA2M_ANPR/ANPR_RZA2M_GR_MANGO/src/tensorflow_lite/src/third_party/flatbuffers/include/flatbuffers\base.h ****     defined(__clang__)
 201:C:/Renesas/e2studio_2021_01_workspace_RZA2M_ANPR/ANPR_RZA2M_GR_MANGO/src/tensorflow_lite/src/third_party/flatbuffers/include/flatbuffers\base.h ****   #define FLATBUFFERS_DELETE_FUNC(func) func = delete;
 202:C:/Renesas/e2studio_2021_01_workspace_RZA2M_ANPR/ANPR_RZA2M_GR_MANGO/src/tensorflow_lite/src/third_party/flatbuffers/include/flatbuffers\base.h **** #else
 203:C:/Renesas/e2studio_2021_01_workspace_RZA2M_ANPR/ANPR_RZA2M_GR_MANGO/src/tensorflow_lite/src/third_party/flatbuffers/include/flatbuffers\base.h ****   #define FLATBUFFERS_DELETE_FUNC(func) private: func;
 204:C:/Renesas/e2studio_2021_01_workspace_RZA2M_ANPR/ANPR_RZA2M_GR_MANGO/src/tensorflow_lite/src/third_party/flatbuffers/include/flatbuffers\base.h **** #endif
 205:C:/Renesas/e2studio_2021_01_workspace_RZA2M_ANPR/ANPR_RZA2M_GR_MANGO/src/tensorflow_lite/src/third_party/flatbuffers/include/flatbuffers\base.h **** 
 206:C:/Renesas/e2studio_2021_01_workspace_RZA2M_ANPR/ANPR_RZA2M_GR_MANGO/src/tensorflow_lite/src/third_party/flatbuffers/include/flatbuffers\base.h **** // Check if we can use template aliases
 207:C:/Renesas/e2studio_2021_01_workspace_RZA2M_ANPR/ANPR_RZA2M_GR_MANGO/src/tensorflow_lite/src/third_party/flatbuffers/include/flatbuffers\base.h **** // Not possible if Microsoft Compiler before 2012
 208:C:/Renesas/e2studio_2021_01_workspace_RZA2M_ANPR/ANPR_RZA2M_GR_MANGO/src/tensorflow_lite/src/third_party/flatbuffers/include/flatbuffers\base.h **** // Possible is the language feature __cpp_alias_templates is defined well
 209:C:/Renesas/e2studio_2021_01_workspace_RZA2M_ANPR/ANPR_RZA2M_GR_MANGO/src/tensorflow_lite/src/third_party/flatbuffers/include/flatbuffers\base.h **** // Or possible if the C++ std is C+11 or newer
 210:C:/Renesas/e2studio_2021_01_workspace_RZA2M_ANPR/ANPR_RZA2M_GR_MANGO/src/tensorflow_lite/src/third_party/flatbuffers/include/flatbuffers\base.h **** #if (defined(_MSC_VER) && _MSC_VER > 1700 /* MSVC2012 */) \
 211:C:/Renesas/e2studio_2021_01_workspace_RZA2M_ANPR/ANPR_RZA2M_GR_MANGO/src/tensorflow_lite/src/third_party/flatbuffers/include/flatbuffers\base.h ****     || (defined(__cpp_alias_templates) && __cpp_alias_templates >= 200704) \
 212:C:/Renesas/e2studio_2021_01_workspace_RZA2M_ANPR/ANPR_RZA2M_GR_MANGO/src/tensorflow_lite/src/third_party/flatbuffers/include/flatbuffers\base.h ****     || (defined(__cplusplus) && __cplusplus >= 201103L)
 213:C:/Renesas/e2studio_2021_01_workspace_RZA2M_ANPR/ANPR_RZA2M_GR_MANGO/src/tensorflow_lite/src/third_party/flatbuffers/include/flatbuffers\base.h ****   #define FLATBUFFERS_TEMPLATES_ALIASES
 214:C:/Renesas/e2studio_2021_01_workspace_RZA2M_ANPR/ANPR_RZA2M_GR_MANGO/src/tensorflow_lite/src/third_party/flatbuffers/include/flatbuffers\base.h **** #endif
 215:C:/Renesas/e2studio_2021_01_workspace_RZA2M_ANPR/ANPR_RZA2M_GR_MANGO/src/tensorflow_lite/src/third_party/flatbuffers/include/flatbuffers\base.h **** 
 216:C:/Renesas/e2studio_2021_01_workspace_RZA2M_ANPR/ANPR_RZA2M_GR_MANGO/src/tensorflow_lite/src/third_party/flatbuffers/include/flatbuffers\base.h **** #ifndef FLATBUFFERS_HAS_STRING_VIEW
 217:C:/Renesas/e2studio_2021_01_workspace_RZA2M_ANPR/ANPR_RZA2M_GR_MANGO/src/tensorflow_lite/src/third_party/flatbuffers/include/flatbuffers\base.h ****   // Only provide flatbuffers::string_view if __has_include can be used
 218:C:/Renesas/e2studio_2021_01_workspace_RZA2M_ANPR/ANPR_RZA2M_GR_MANGO/src/tensorflow_lite/src/third_party/flatbuffers/include/flatbuffers\base.h ****   // to detect a header that provides an implementation
 219:C:/Renesas/e2studio_2021_01_workspace_RZA2M_ANPR/ANPR_RZA2M_GR_MANGO/src/tensorflow_lite/src/third_party/flatbuffers/include/flatbuffers\base.h ****   #if defined(__has_include)
 220:C:/Renesas/e2studio_2021_01_workspace_RZA2M_ANPR/ANPR_RZA2M_GR_MANGO/src/tensorflow_lite/src/third_party/flatbuffers/include/flatbuffers\base.h ****     // Check for std::string_view (in c++17)
 221:C:/Renesas/e2studio_2021_01_workspace_RZA2M_ANPR/ANPR_RZA2M_GR_MANGO/src/tensorflow_lite/src/third_party/flatbuffers/include/flatbuffers\base.h ****     #if __has_include(<string_view>) && (__cplusplus >= 201606 || (defined(_HAS_CXX17) && _HAS_CXX1
 222:C:/Renesas/e2studio_2021_01_workspace_RZA2M_ANPR/ANPR_RZA2M_GR_MANGO/src/tensorflow_lite/src/third_party/flatbuffers/include/flatbuffers\base.h ****       #include <string_view>
 223:C:/Renesas/e2studio_2021_01_workspace_RZA2M_ANPR/ANPR_RZA2M_GR_MANGO/src/tensorflow_lite/src/third_party/flatbuffers/include/flatbuffers\base.h ****       namespace flatbuffers {
 224:C:/Renesas/e2studio_2021_01_workspace_RZA2M_ANPR/ANPR_RZA2M_GR_MANGO/src/tensorflow_lite/src/third_party/flatbuffers/include/flatbuffers\base.h ****         typedef std::string_view string_view;
 225:C:/Renesas/e2studio_2021_01_workspace_RZA2M_ANPR/ANPR_RZA2M_GR_MANGO/src/tensorflow_lite/src/third_party/flatbuffers/include/flatbuffers\base.h ****       }
 226:C:/Renesas/e2studio_2021_01_workspace_RZA2M_ANPR/ANPR_RZA2M_GR_MANGO/src/tensorflow_lite/src/third_party/flatbuffers/include/flatbuffers\base.h ****       #define FLATBUFFERS_HAS_STRING_VIEW 1
 227:C:/Renesas/e2studio_2021_01_workspace_RZA2M_ANPR/ANPR_RZA2M_GR_MANGO/src/tensorflow_lite/src/third_party/flatbuffers/include/flatbuffers\base.h ****     // Check for std::experimental::string_view (in c++14, compiler-dependent)
 228:C:/Renesas/e2studio_2021_01_workspace_RZA2M_ANPR/ANPR_RZA2M_GR_MANGO/src/tensorflow_lite/src/third_party/flatbuffers/include/flatbuffers\base.h ****     #elif __has_include(<experimental/string_view>) && (__cplusplus >= 201411)
 229:C:/Renesas/e2studio_2021_01_workspace_RZA2M_ANPR/ANPR_RZA2M_GR_MANGO/src/tensorflow_lite/src/third_party/flatbuffers/include/flatbuffers\base.h ****       #include <experimental/string_view>
 230:C:/Renesas/e2studio_2021_01_workspace_RZA2M_ANPR/ANPR_RZA2M_GR_MANGO/src/tensorflow_lite/src/third_party/flatbuffers/include/flatbuffers\base.h ****       namespace flatbuffers {
 231:C:/Renesas/e2studio_2021_01_workspace_RZA2M_ANPR/ANPR_RZA2M_GR_MANGO/src/tensorflow_lite/src/third_party/flatbuffers/include/flatbuffers\base.h ****         typedef std::experimental::string_view string_view;
 232:C:/Renesas/e2studio_2021_01_workspace_RZA2M_ANPR/ANPR_RZA2M_GR_MANGO/src/tensorflow_lite/src/third_party/flatbuffers/include/flatbuffers\base.h ****       }
 233:C:/Renesas/e2studio_2021_01_workspace_RZA2M_ANPR/ANPR_RZA2M_GR_MANGO/src/tensorflow_lite/src/third_party/flatbuffers/include/flatbuffers\base.h ****       #define FLATBUFFERS_HAS_STRING_VIEW 1
 234:C:/Renesas/e2studio_2021_01_workspace_RZA2M_ANPR/ANPR_RZA2M_GR_MANGO/src/tensorflow_lite/src/third_party/flatbuffers/include/flatbuffers\base.h ****     // Check for absl::string_view
 235:C:/Renesas/e2studio_2021_01_workspace_RZA2M_ANPR/ANPR_RZA2M_GR_MANGO/src/tensorflow_lite/src/third_party/flatbuffers/include/flatbuffers\base.h ****     #elif __has_include("absl/strings/string_view.h")
 236:C:/Renesas/e2studio_2021_01_workspace_RZA2M_ANPR/ANPR_RZA2M_GR_MANGO/src/tensorflow_lite/src/third_party/flatbuffers/include/flatbuffers\base.h ****       #include "absl/strings/string_view.h"
 237:C:/Renesas/e2studio_2021_01_workspace_RZA2M_ANPR/ANPR_RZA2M_GR_MANGO/src/tensorflow_lite/src/third_party/flatbuffers/include/flatbuffers\base.h ****       namespace flatbuffers {
 238:C:/Renesas/e2studio_2021_01_workspace_RZA2M_ANPR/ANPR_RZA2M_GR_MANGO/src/tensorflow_lite/src/third_party/flatbuffers/include/flatbuffers\base.h ****         typedef absl::string_view string_view;
 239:C:/Renesas/e2studio_2021_01_workspace_RZA2M_ANPR/ANPR_RZA2M_GR_MANGO/src/tensorflow_lite/src/third_party/flatbuffers/include/flatbuffers\base.h ****       }
 240:C:/Renesas/e2studio_2021_01_workspace_RZA2M_ANPR/ANPR_RZA2M_GR_MANGO/src/tensorflow_lite/src/third_party/flatbuffers/include/flatbuffers\base.h ****       #define FLATBUFFERS_HAS_STRING_VIEW 1
 241:C:/Renesas/e2studio_2021_01_workspace_RZA2M_ANPR/ANPR_RZA2M_GR_MANGO/src/tensorflow_lite/src/third_party/flatbuffers/include/flatbuffers\base.h ****     #endif
 242:C:/Renesas/e2studio_2021_01_workspace_RZA2M_ANPR/ANPR_RZA2M_GR_MANGO/src/tensorflow_lite/src/third_party/flatbuffers/include/flatbuffers\base.h ****   #endif // __has_include
 243:C:/Renesas/e2studio_2021_01_workspace_RZA2M_ANPR/ANPR_RZA2M_GR_MANGO/src/tensorflow_lite/src/third_party/flatbuffers/include/flatbuffers\base.h **** #endif // !FLATBUFFERS_HAS_STRING_VIEW
 244:C:/Renesas/e2studio_2021_01_workspace_RZA2M_ANPR/ANPR_RZA2M_GR_MANGO/src/tensorflow_lite/src/third_party/flatbuffers/include/flatbuffers\base.h **** 
 245:C:/Renesas/e2studio_2021_01_workspace_RZA2M_ANPR/ANPR_RZA2M_GR_MANGO/src/tensorflow_lite/src/third_party/flatbuffers/include/flatbuffers\base.h **** #ifndef FLATBUFFERS_HAS_NEW_STRTOD
 246:C:/Renesas/e2studio_2021_01_workspace_RZA2M_ANPR/ANPR_RZA2M_GR_MANGO/src/tensorflow_lite/src/third_party/flatbuffers/include/flatbuffers\base.h ****   // Modern (C++11) strtod and strtof functions are available for use.
 247:C:/Renesas/e2studio_2021_01_workspace_RZA2M_ANPR/ANPR_RZA2M_GR_MANGO/src/tensorflow_lite/src/third_party/flatbuffers/include/flatbuffers\base.h ****   // 1) nan/inf strings as argument of strtod;
 248:C:/Renesas/e2studio_2021_01_workspace_RZA2M_ANPR/ANPR_RZA2M_GR_MANGO/src/tensorflow_lite/src/third_party/flatbuffers/include/flatbuffers\base.h ****   // 2) hex-float  as argument of  strtod/strtof.
 249:C:/Renesas/e2studio_2021_01_workspace_RZA2M_ANPR/ANPR_RZA2M_GR_MANGO/src/tensorflow_lite/src/third_party/flatbuffers/include/flatbuffers\base.h ****   #if (defined(_MSC_VER) && _MSC_VER >= 1900) || \
 250:C:/Renesas/e2studio_2021_01_workspace_RZA2M_ANPR/ANPR_RZA2M_GR_MANGO/src/tensorflow_lite/src/third_party/flatbuffers/include/flatbuffers\base.h ****       (defined(__GNUC__) && (__GNUC__ * 100 + __GNUC_MINOR__ >= 409)) || \
 251:C:/Renesas/e2studio_2021_01_workspace_RZA2M_ANPR/ANPR_RZA2M_GR_MANGO/src/tensorflow_lite/src/third_party/flatbuffers/include/flatbuffers\base.h ****       (defined(__clang__))
 252:C:/Renesas/e2studio_2021_01_workspace_RZA2M_ANPR/ANPR_RZA2M_GR_MANGO/src/tensorflow_lite/src/third_party/flatbuffers/include/flatbuffers\base.h ****     #define FLATBUFFERS_HAS_NEW_STRTOD 1
 253:C:/Renesas/e2studio_2021_01_workspace_RZA2M_ANPR/ANPR_RZA2M_GR_MANGO/src/tensorflow_lite/src/third_party/flatbuffers/include/flatbuffers\base.h ****   #endif
 254:C:/Renesas/e2studio_2021_01_workspace_RZA2M_ANPR/ANPR_RZA2M_GR_MANGO/src/tensorflow_lite/src/third_party/flatbuffers/include/flatbuffers\base.h **** #endif // !FLATBUFFERS_HAS_NEW_STRTOD
 255:C:/Renesas/e2studio_2021_01_workspace_RZA2M_ANPR/ANPR_RZA2M_GR_MANGO/src/tensorflow_lite/src/third_party/flatbuffers/include/flatbuffers\base.h **** 
 256:C:/Renesas/e2studio_2021_01_workspace_RZA2M_ANPR/ANPR_RZA2M_GR_MANGO/src/tensorflow_lite/src/third_party/flatbuffers/include/flatbuffers\base.h **** #ifndef FLATBUFFERS_LOCALE_INDEPENDENT
 257:C:/Renesas/e2studio_2021_01_workspace_RZA2M_ANPR/ANPR_RZA2M_GR_MANGO/src/tensorflow_lite/src/third_party/flatbuffers/include/flatbuffers\base.h ****   // Enable locale independent functions {strtof_l, strtod_l,strtoll_l, strtoull_l}.
 258:C:/Renesas/e2studio_2021_01_workspace_RZA2M_ANPR/ANPR_RZA2M_GR_MANGO/src/tensorflow_lite/src/third_party/flatbuffers/include/flatbuffers\base.h ****   #if ((defined(_MSC_VER) && _MSC_VER >= 1800)            || \
 259:C:/Renesas/e2studio_2021_01_workspace_RZA2M_ANPR/ANPR_RZA2M_GR_MANGO/src/tensorflow_lite/src/third_party/flatbuffers/include/flatbuffers\base.h ****        (defined(_XOPEN_VERSION) && (_XOPEN_VERSION>=700)) && (!defined(__ANDROID_API__) || (defined
 260:C:/Renesas/e2studio_2021_01_workspace_RZA2M_ANPR/ANPR_RZA2M_GR_MANGO/src/tensorflow_lite/src/third_party/flatbuffers/include/flatbuffers\base.h ****     #define FLATBUFFERS_LOCALE_INDEPENDENT 1
 261:C:/Renesas/e2studio_2021_01_workspace_RZA2M_ANPR/ANPR_RZA2M_GR_MANGO/src/tensorflow_lite/src/third_party/flatbuffers/include/flatbuffers\base.h ****   #else
 262:C:/Renesas/e2studio_2021_01_workspace_RZA2M_ANPR/ANPR_RZA2M_GR_MANGO/src/tensorflow_lite/src/third_party/flatbuffers/include/flatbuffers\base.h ****     #define FLATBUFFERS_LOCALE_INDEPENDENT 0
 263:C:/Renesas/e2studio_2021_01_workspace_RZA2M_ANPR/ANPR_RZA2M_GR_MANGO/src/tensorflow_lite/src/third_party/flatbuffers/include/flatbuffers\base.h ****   #endif
 264:C:/Renesas/e2studio_2021_01_workspace_RZA2M_ANPR/ANPR_RZA2M_GR_MANGO/src/tensorflow_lite/src/third_party/flatbuffers/include/flatbuffers\base.h **** #endif  // !FLATBUFFERS_LOCALE_INDEPENDENT
 265:C:/Renesas/e2studio_2021_01_workspace_RZA2M_ANPR/ANPR_RZA2M_GR_MANGO/src/tensorflow_lite/src/third_party/flatbuffers/include/flatbuffers\base.h **** 
 266:C:/Renesas/e2studio_2021_01_workspace_RZA2M_ANPR/ANPR_RZA2M_GR_MANGO/src/tensorflow_lite/src/third_party/flatbuffers/include/flatbuffers\base.h **** // Suppress Undefined Behavior Sanitizer (recoverable only). Usage:
 267:C:/Renesas/e2studio_2021_01_workspace_RZA2M_ANPR/ANPR_RZA2M_GR_MANGO/src/tensorflow_lite/src/third_party/flatbuffers/include/flatbuffers\base.h **** // - __supress_ubsan__("undefined")
 268:C:/Renesas/e2studio_2021_01_workspace_RZA2M_ANPR/ANPR_RZA2M_GR_MANGO/src/tensorflow_lite/src/third_party/flatbuffers/include/flatbuffers\base.h **** // - __supress_ubsan__("signed-integer-overflow")
 269:C:/Renesas/e2studio_2021_01_workspace_RZA2M_ANPR/ANPR_RZA2M_GR_MANGO/src/tensorflow_lite/src/third_party/flatbuffers/include/flatbuffers\base.h **** #if defined(__clang__) && (__clang_major__ > 3 || (__clang_major__ == 3 && __clang_minor__ >=7))
 270:C:/Renesas/e2studio_2021_01_workspace_RZA2M_ANPR/ANPR_RZA2M_GR_MANGO/src/tensorflow_lite/src/third_party/flatbuffers/include/flatbuffers\base.h ****   #define __supress_ubsan__(type) __attribute__((no_sanitize(type)))
 271:C:/Renesas/e2studio_2021_01_workspace_RZA2M_ANPR/ANPR_RZA2M_GR_MANGO/src/tensorflow_lite/src/third_party/flatbuffers/include/flatbuffers\base.h **** #elif defined(__GNUC__) && (__GNUC__ * 100 + __GNUC_MINOR__ >= 409)
 272:C:/Renesas/e2studio_2021_01_workspace_RZA2M_ANPR/ANPR_RZA2M_GR_MANGO/src/tensorflow_lite/src/third_party/flatbuffers/include/flatbuffers\base.h ****   #define __supress_ubsan__(type) __attribute__((no_sanitize_undefined))
 273:C:/Renesas/e2studio_2021_01_workspace_RZA2M_ANPR/ANPR_RZA2M_GR_MANGO/src/tensorflow_lite/src/third_party/flatbuffers/include/flatbuffers\base.h **** #else
 274:C:/Renesas/e2studio_2021_01_workspace_RZA2M_ANPR/ANPR_RZA2M_GR_MANGO/src/tensorflow_lite/src/third_party/flatbuffers/include/flatbuffers\base.h ****   #define __supress_ubsan__(type)
 275:C:/Renesas/e2studio_2021_01_workspace_RZA2M_ANPR/ANPR_RZA2M_GR_MANGO/src/tensorflow_lite/src/third_party/flatbuffers/include/flatbuffers\base.h **** #endif
 276:C:/Renesas/e2studio_2021_01_workspace_RZA2M_ANPR/ANPR_RZA2M_GR_MANGO/src/tensorflow_lite/src/third_party/flatbuffers/include/flatbuffers\base.h **** 
 277:C:/Renesas/e2studio_2021_01_workspace_RZA2M_ANPR/ANPR_RZA2M_GR_MANGO/src/tensorflow_lite/src/third_party/flatbuffers/include/flatbuffers\base.h **** // This is constexpr function used for checking compile-time constants.
 278:C:/Renesas/e2studio_2021_01_workspace_RZA2M_ANPR/ANPR_RZA2M_GR_MANGO/src/tensorflow_lite/src/third_party/flatbuffers/include/flatbuffers\base.h **** // Avoid `#pragma warning(disable: 4127) // C4127: expression is constant`.
 279:C:/Renesas/e2studio_2021_01_workspace_RZA2M_ANPR/ANPR_RZA2M_GR_MANGO/src/tensorflow_lite/src/third_party/flatbuffers/include/flatbuffers\base.h **** template<typename T> FLATBUFFERS_CONSTEXPR inline bool IsConstTrue(T t) {
 280:C:/Renesas/e2studio_2021_01_workspace_RZA2M_ANPR/ANPR_RZA2M_GR_MANGO/src/tensorflow_lite/src/third_party/flatbuffers/include/flatbuffers\base.h ****   return !!t;
 281:C:/Renesas/e2studio_2021_01_workspace_RZA2M_ANPR/ANPR_RZA2M_GR_MANGO/src/tensorflow_lite/src/third_party/flatbuffers/include/flatbuffers\base.h **** }
 282:C:/Renesas/e2studio_2021_01_workspace_RZA2M_ANPR/ANPR_RZA2M_GR_MANGO/src/tensorflow_lite/src/third_party/flatbuffers/include/flatbuffers\base.h **** 
 283:C:/Renesas/e2studio_2021_01_workspace_RZA2M_ANPR/ANPR_RZA2M_GR_MANGO/src/tensorflow_lite/src/third_party/flatbuffers/include/flatbuffers\base.h **** // Enable C++ attribute [[]] if std:c++17 or higher.
 284:C:/Renesas/e2studio_2021_01_workspace_RZA2M_ANPR/ANPR_RZA2M_GR_MANGO/src/tensorflow_lite/src/third_party/flatbuffers/include/flatbuffers\base.h **** #if ((__cplusplus >= 201703L) \
 285:C:/Renesas/e2studio_2021_01_workspace_RZA2M_ANPR/ANPR_RZA2M_GR_MANGO/src/tensorflow_lite/src/third_party/flatbuffers/include/flatbuffers\base.h ****     || (defined(_MSVC_LANG) &&  (_MSVC_LANG >= 201703L)))
 286:C:/Renesas/e2studio_2021_01_workspace_RZA2M_ANPR/ANPR_RZA2M_GR_MANGO/src/tensorflow_lite/src/third_party/flatbuffers/include/flatbuffers\base.h ****   // All attributes unknown to an implementation are ignored without causing an error.
 287:C:/Renesas/e2studio_2021_01_workspace_RZA2M_ANPR/ANPR_RZA2M_GR_MANGO/src/tensorflow_lite/src/third_party/flatbuffers/include/flatbuffers\base.h ****   #define FLATBUFFERS_ATTRIBUTE(attr) [[attr]]
 288:C:/Renesas/e2studio_2021_01_workspace_RZA2M_ANPR/ANPR_RZA2M_GR_MANGO/src/tensorflow_lite/src/third_party/flatbuffers/include/flatbuffers\base.h **** 
 289:C:/Renesas/e2studio_2021_01_workspace_RZA2M_ANPR/ANPR_RZA2M_GR_MANGO/src/tensorflow_lite/src/third_party/flatbuffers/include/flatbuffers\base.h ****   #define FLATBUFFERS_FALLTHROUGH() [[fallthrough]]
 290:C:/Renesas/e2studio_2021_01_workspace_RZA2M_ANPR/ANPR_RZA2M_GR_MANGO/src/tensorflow_lite/src/third_party/flatbuffers/include/flatbuffers\base.h **** #else
 291:C:/Renesas/e2studio_2021_01_workspace_RZA2M_ANPR/ANPR_RZA2M_GR_MANGO/src/tensorflow_lite/src/third_party/flatbuffers/include/flatbuffers\base.h ****   #define FLATBUFFERS_ATTRIBUTE(attr)
 292:C:/Renesas/e2studio_2021_01_workspace_RZA2M_ANPR/ANPR_RZA2M_GR_MANGO/src/tensorflow_lite/src/third_party/flatbuffers/include/flatbuffers\base.h **** 
 293:C:/Renesas/e2studio_2021_01_workspace_RZA2M_ANPR/ANPR_RZA2M_GR_MANGO/src/tensorflow_lite/src/third_party/flatbuffers/include/flatbuffers\base.h ****   #if FLATBUFFERS_CLANG >= 30800
 294:C:/Renesas/e2studio_2021_01_workspace_RZA2M_ANPR/ANPR_RZA2M_GR_MANGO/src/tensorflow_lite/src/third_party/flatbuffers/include/flatbuffers\base.h ****     #define FLATBUFFERS_FALLTHROUGH() [[clang::fallthrough]]
 295:C:/Renesas/e2studio_2021_01_workspace_RZA2M_ANPR/ANPR_RZA2M_GR_MANGO/src/tensorflow_lite/src/third_party/flatbuffers/include/flatbuffers\base.h ****   #elif FLATBUFFERS_GCC >= 70300
 296:C:/Renesas/e2studio_2021_01_workspace_RZA2M_ANPR/ANPR_RZA2M_GR_MANGO/src/tensorflow_lite/src/third_party/flatbuffers/include/flatbuffers\base.h ****     #define FLATBUFFERS_FALLTHROUGH() [[gnu::fallthrough]]
 297:C:/Renesas/e2studio_2021_01_workspace_RZA2M_ANPR/ANPR_RZA2M_GR_MANGO/src/tensorflow_lite/src/third_party/flatbuffers/include/flatbuffers\base.h ****   #else
 298:C:/Renesas/e2studio_2021_01_workspace_RZA2M_ANPR/ANPR_RZA2M_GR_MANGO/src/tensorflow_lite/src/third_party/flatbuffers/include/flatbuffers\base.h ****     #define FLATBUFFERS_FALLTHROUGH()
 299:C:/Renesas/e2studio_2021_01_workspace_RZA2M_ANPR/ANPR_RZA2M_GR_MANGO/src/tensorflow_lite/src/third_party/flatbuffers/include/flatbuffers\base.h ****   #endif
 300:C:/Renesas/e2studio_2021_01_workspace_RZA2M_ANPR/ANPR_RZA2M_GR_MANGO/src/tensorflow_lite/src/third_party/flatbuffers/include/flatbuffers\base.h **** #endif
 301:C:/Renesas/e2studio_2021_01_workspace_RZA2M_ANPR/ANPR_RZA2M_GR_MANGO/src/tensorflow_lite/src/third_party/flatbuffers/include/flatbuffers\base.h **** 
 302:C:/Renesas/e2studio_2021_01_workspace_RZA2M_ANPR/ANPR_RZA2M_GR_MANGO/src/tensorflow_lite/src/third_party/flatbuffers/include/flatbuffers\base.h **** /// @endcond
 303:C:/Renesas/e2studio_2021_01_workspace_RZA2M_ANPR/ANPR_RZA2M_GR_MANGO/src/tensorflow_lite/src/third_party/flatbuffers/include/flatbuffers\base.h **** 
 304:C:/Renesas/e2studio_2021_01_workspace_RZA2M_ANPR/ANPR_RZA2M_GR_MANGO/src/tensorflow_lite/src/third_party/flatbuffers/include/flatbuffers\base.h **** /// @file
 305:C:/Renesas/e2studio_2021_01_workspace_RZA2M_ANPR/ANPR_RZA2M_GR_MANGO/src/tensorflow_lite/src/third_party/flatbuffers/include/flatbuffers\base.h **** namespace flatbuffers {
 306:C:/Renesas/e2studio_2021_01_workspace_RZA2M_ANPR/ANPR_RZA2M_GR_MANGO/src/tensorflow_lite/src/third_party/flatbuffers/include/flatbuffers\base.h **** 
 307:C:/Renesas/e2studio_2021_01_workspace_RZA2M_ANPR/ANPR_RZA2M_GR_MANGO/src/tensorflow_lite/src/third_party/flatbuffers/include/flatbuffers\base.h **** /// @cond FLATBUFFERS_INTERNAL
 308:C:/Renesas/e2studio_2021_01_workspace_RZA2M_ANPR/ANPR_RZA2M_GR_MANGO/src/tensorflow_lite/src/third_party/flatbuffers/include/flatbuffers\base.h **** // Our default offset / size type, 32bit on purpose on 64bit systems.
 309:C:/Renesas/e2studio_2021_01_workspace_RZA2M_ANPR/ANPR_RZA2M_GR_MANGO/src/tensorflow_lite/src/third_party/flatbuffers/include/flatbuffers\base.h **** // Also, using a consistent offset type maintains compatibility of serialized
 310:C:/Renesas/e2studio_2021_01_workspace_RZA2M_ANPR/ANPR_RZA2M_GR_MANGO/src/tensorflow_lite/src/third_party/flatbuffers/include/flatbuffers\base.h **** // offset values between 32bit and 64bit systems.
 311:C:/Renesas/e2studio_2021_01_workspace_RZA2M_ANPR/ANPR_RZA2M_GR_MANGO/src/tensorflow_lite/src/third_party/flatbuffers/include/flatbuffers\base.h **** typedef uint32_t uoffset_t;
 312:C:/Renesas/e2studio_2021_01_workspace_RZA2M_ANPR/ANPR_RZA2M_GR_MANGO/src/tensorflow_lite/src/third_party/flatbuffers/include/flatbuffers\base.h **** 
 313:C:/Renesas/e2studio_2021_01_workspace_RZA2M_ANPR/ANPR_RZA2M_GR_MANGO/src/tensorflow_lite/src/third_party/flatbuffers/include/flatbuffers\base.h **** // Signed offsets for references that can go in both directions.
 314:C:/Renesas/e2studio_2021_01_workspace_RZA2M_ANPR/ANPR_RZA2M_GR_MANGO/src/tensorflow_lite/src/third_party/flatbuffers/include/flatbuffers\base.h **** typedef int32_t soffset_t;
 315:C:/Renesas/e2studio_2021_01_workspace_RZA2M_ANPR/ANPR_RZA2M_GR_MANGO/src/tensorflow_lite/src/third_party/flatbuffers/include/flatbuffers\base.h **** 
 316:C:/Renesas/e2studio_2021_01_workspace_RZA2M_ANPR/ANPR_RZA2M_GR_MANGO/src/tensorflow_lite/src/third_party/flatbuffers/include/flatbuffers\base.h **** // Offset/index used in v-tables, can be changed to uint8_t in
 317:C:/Renesas/e2studio_2021_01_workspace_RZA2M_ANPR/ANPR_RZA2M_GR_MANGO/src/tensorflow_lite/src/third_party/flatbuffers/include/flatbuffers\base.h **** // format forks to save a bit of space if desired.
 318:C:/Renesas/e2studio_2021_01_workspace_RZA2M_ANPR/ANPR_RZA2M_GR_MANGO/src/tensorflow_lite/src/third_party/flatbuffers/include/flatbuffers\base.h **** typedef uint16_t voffset_t;
 319:C:/Renesas/e2studio_2021_01_workspace_RZA2M_ANPR/ANPR_RZA2M_GR_MANGO/src/tensorflow_lite/src/third_party/flatbuffers/include/flatbuffers\base.h **** 
 320:C:/Renesas/e2studio_2021_01_workspace_RZA2M_ANPR/ANPR_RZA2M_GR_MANGO/src/tensorflow_lite/src/third_party/flatbuffers/include/flatbuffers\base.h **** typedef uintmax_t largest_scalar_t;
 321:C:/Renesas/e2studio_2021_01_workspace_RZA2M_ANPR/ANPR_RZA2M_GR_MANGO/src/tensorflow_lite/src/third_party/flatbuffers/include/flatbuffers\base.h **** 
 322:C:/Renesas/e2studio_2021_01_workspace_RZA2M_ANPR/ANPR_RZA2M_GR_MANGO/src/tensorflow_lite/src/third_party/flatbuffers/include/flatbuffers\base.h **** // In 32bits, this evaluates to 2GB - 1
 323:C:/Renesas/e2studio_2021_01_workspace_RZA2M_ANPR/ANPR_RZA2M_GR_MANGO/src/tensorflow_lite/src/third_party/flatbuffers/include/flatbuffers\base.h **** #define FLATBUFFERS_MAX_BUFFER_SIZE ((1ULL << (sizeof(::flatbuffers::soffset_t) * 8 - 1)) - 1)
 324:C:/Renesas/e2studio_2021_01_workspace_RZA2M_ANPR/ANPR_RZA2M_GR_MANGO/src/tensorflow_lite/src/third_party/flatbuffers/include/flatbuffers\base.h **** 
 325:C:/Renesas/e2studio_2021_01_workspace_RZA2M_ANPR/ANPR_RZA2M_GR_MANGO/src/tensorflow_lite/src/third_party/flatbuffers/include/flatbuffers\base.h **** // We support aligning the contents of buffers up to this size.
 326:C:/Renesas/e2studio_2021_01_workspace_RZA2M_ANPR/ANPR_RZA2M_GR_MANGO/src/tensorflow_lite/src/third_party/flatbuffers/include/flatbuffers\base.h **** #define FLATBUFFERS_MAX_ALIGNMENT 16
 327:C:/Renesas/e2studio_2021_01_workspace_RZA2M_ANPR/ANPR_RZA2M_GR_MANGO/src/tensorflow_lite/src/third_party/flatbuffers/include/flatbuffers\base.h **** 
 328:C:/Renesas/e2studio_2021_01_workspace_RZA2M_ANPR/ANPR_RZA2M_GR_MANGO/src/tensorflow_lite/src/third_party/flatbuffers/include/flatbuffers\base.h **** #if defined(_MSC_VER)
 329:C:/Renesas/e2studio_2021_01_workspace_RZA2M_ANPR/ANPR_RZA2M_GR_MANGO/src/tensorflow_lite/src/third_party/flatbuffers/include/flatbuffers\base.h ****   #pragma warning(disable: 4351) // C4351: new behavior: elements of array ... will be default init
 330:C:/Renesas/e2studio_2021_01_workspace_RZA2M_ANPR/ANPR_RZA2M_GR_MANGO/src/tensorflow_lite/src/third_party/flatbuffers/include/flatbuffers\base.h ****   #pragma warning(push)
 331:C:/Renesas/e2studio_2021_01_workspace_RZA2M_ANPR/ANPR_RZA2M_GR_MANGO/src/tensorflow_lite/src/third_party/flatbuffers/include/flatbuffers\base.h ****   #pragma warning(disable: 4127) // C4127: conditional expression is constant
 332:C:/Renesas/e2studio_2021_01_workspace_RZA2M_ANPR/ANPR_RZA2M_GR_MANGO/src/tensorflow_lite/src/third_party/flatbuffers/include/flatbuffers\base.h **** #endif
 333:C:/Renesas/e2studio_2021_01_workspace_RZA2M_ANPR/ANPR_RZA2M_GR_MANGO/src/tensorflow_lite/src/third_party/flatbuffers/include/flatbuffers\base.h **** 
 334:C:/Renesas/e2studio_2021_01_workspace_RZA2M_ANPR/ANPR_RZA2M_GR_MANGO/src/tensorflow_lite/src/third_party/flatbuffers/include/flatbuffers\base.h **** template<typename T> T EndianSwap(T t) {
 335:C:/Renesas/e2studio_2021_01_workspace_RZA2M_ANPR/ANPR_RZA2M_GR_MANGO/src/tensorflow_lite/src/third_party/flatbuffers/include/flatbuffers\base.h ****   #if defined(_MSC_VER)
 336:C:/Renesas/e2studio_2021_01_workspace_RZA2M_ANPR/ANPR_RZA2M_GR_MANGO/src/tensorflow_lite/src/third_party/flatbuffers/include/flatbuffers\base.h ****     #define FLATBUFFERS_BYTESWAP16 _byteswap_ushort
 337:C:/Renesas/e2studio_2021_01_workspace_RZA2M_ANPR/ANPR_RZA2M_GR_MANGO/src/tensorflow_lite/src/third_party/flatbuffers/include/flatbuffers\base.h ****     #define FLATBUFFERS_BYTESWAP32 _byteswap_ulong
 338:C:/Renesas/e2studio_2021_01_workspace_RZA2M_ANPR/ANPR_RZA2M_GR_MANGO/src/tensorflow_lite/src/third_party/flatbuffers/include/flatbuffers\base.h ****     #define FLATBUFFERS_BYTESWAP64 _byteswap_uint64
 339:C:/Renesas/e2studio_2021_01_workspace_RZA2M_ANPR/ANPR_RZA2M_GR_MANGO/src/tensorflow_lite/src/third_party/flatbuffers/include/flatbuffers\base.h ****   #elif defined(__ICCARM__)
 340:C:/Renesas/e2studio_2021_01_workspace_RZA2M_ANPR/ANPR_RZA2M_GR_MANGO/src/tensorflow_lite/src/third_party/flatbuffers/include/flatbuffers\base.h ****     #define FLATBUFFERS_BYTESWAP16 __REV16
 341:C:/Renesas/e2studio_2021_01_workspace_RZA2M_ANPR/ANPR_RZA2M_GR_MANGO/src/tensorflow_lite/src/third_party/flatbuffers/include/flatbuffers\base.h ****     #define FLATBUFFERS_BYTESWAP32 __REV
 342:C:/Renesas/e2studio_2021_01_workspace_RZA2M_ANPR/ANPR_RZA2M_GR_MANGO/src/tensorflow_lite/src/third_party/flatbuffers/include/flatbuffers\base.h ****     #define FLATBUFFERS_BYTESWAP64(x) \
 343:C:/Renesas/e2studio_2021_01_workspace_RZA2M_ANPR/ANPR_RZA2M_GR_MANGO/src/tensorflow_lite/src/third_party/flatbuffers/include/flatbuffers\base.h ****        ((__REV(static_cast<uint32_t>(x >> 32U))) | (static_cast<uint64_t>(__REV(static_cast<uint32_
 344:C:/Renesas/e2studio_2021_01_workspace_RZA2M_ANPR/ANPR_RZA2M_GR_MANGO/src/tensorflow_lite/src/third_party/flatbuffers/include/flatbuffers\base.h ****   #else
 345:C:/Renesas/e2studio_2021_01_workspace_RZA2M_ANPR/ANPR_RZA2M_GR_MANGO/src/tensorflow_lite/src/third_party/flatbuffers/include/flatbuffers\base.h ****     #if defined(__GNUC__) && __GNUC__ * 100 + __GNUC_MINOR__ < 408 && !defined(__clang__)
 346:C:/Renesas/e2studio_2021_01_workspace_RZA2M_ANPR/ANPR_RZA2M_GR_MANGO/src/tensorflow_lite/src/third_party/flatbuffers/include/flatbuffers\base.h ****       // __builtin_bswap16 was missing prior to GCC 4.8.
 347:C:/Renesas/e2studio_2021_01_workspace_RZA2M_ANPR/ANPR_RZA2M_GR_MANGO/src/tensorflow_lite/src/third_party/flatbuffers/include/flatbuffers\base.h ****       #define FLATBUFFERS_BYTESWAP16(x) \
 348:C:/Renesas/e2studio_2021_01_workspace_RZA2M_ANPR/ANPR_RZA2M_GR_MANGO/src/tensorflow_lite/src/third_party/flatbuffers/include/flatbuffers\base.h ****         static_cast<uint16_t>(__builtin_bswap32(static_cast<uint32_t>(x) << 16))
 349:C:/Renesas/e2studio_2021_01_workspace_RZA2M_ANPR/ANPR_RZA2M_GR_MANGO/src/tensorflow_lite/src/third_party/flatbuffers/include/flatbuffers\base.h ****     #else
 350:C:/Renesas/e2studio_2021_01_workspace_RZA2M_ANPR/ANPR_RZA2M_GR_MANGO/src/tensorflow_lite/src/third_party/flatbuffers/include/flatbuffers\base.h ****       #define FLATBUFFERS_BYTESWAP16 __builtin_bswap16
 351:C:/Renesas/e2studio_2021_01_workspace_RZA2M_ANPR/ANPR_RZA2M_GR_MANGO/src/tensorflow_lite/src/third_party/flatbuffers/include/flatbuffers\base.h ****     #endif
 352:C:/Renesas/e2studio_2021_01_workspace_RZA2M_ANPR/ANPR_RZA2M_GR_MANGO/src/tensorflow_lite/src/third_party/flatbuffers/include/flatbuffers\base.h ****     #define FLATBUFFERS_BYTESWAP32 __builtin_bswap32
 353:C:/Renesas/e2studio_2021_01_workspace_RZA2M_ANPR/ANPR_RZA2M_GR_MANGO/src/tensorflow_lite/src/third_party/flatbuffers/include/flatbuffers\base.h ****     #define FLATBUFFERS_BYTESWAP64 __builtin_bswap64
 354:C:/Renesas/e2studio_2021_01_workspace_RZA2M_ANPR/ANPR_RZA2M_GR_MANGO/src/tensorflow_lite/src/third_party/flatbuffers/include/flatbuffers\base.h ****   #endif
 355:C:/Renesas/e2studio_2021_01_workspace_RZA2M_ANPR/ANPR_RZA2M_GR_MANGO/src/tensorflow_lite/src/third_party/flatbuffers/include/flatbuffers\base.h ****   if (sizeof(T) == 1) {   // Compile-time if-then's.
 356:C:/Renesas/e2studio_2021_01_workspace_RZA2M_ANPR/ANPR_RZA2M_GR_MANGO/src/tensorflow_lite/src/third_party/flatbuffers/include/flatbuffers\base.h ****     return t;
 357:C:/Renesas/e2studio_2021_01_workspace_RZA2M_ANPR/ANPR_RZA2M_GR_MANGO/src/tensorflow_lite/src/third_party/flatbuffers/include/flatbuffers\base.h ****   } else if (sizeof(T) == 2) {
 358:C:/Renesas/e2studio_2021_01_workspace_RZA2M_ANPR/ANPR_RZA2M_GR_MANGO/src/tensorflow_lite/src/third_party/flatbuffers/include/flatbuffers\base.h ****     union { T t; uint16_t i; } u = { t };
 359:C:/Renesas/e2studio_2021_01_workspace_RZA2M_ANPR/ANPR_RZA2M_GR_MANGO/src/tensorflow_lite/src/third_party/flatbuffers/include/flatbuffers\base.h ****     u.i = FLATBUFFERS_BYTESWAP16(u.i);
 360:C:/Renesas/e2studio_2021_01_workspace_RZA2M_ANPR/ANPR_RZA2M_GR_MANGO/src/tensorflow_lite/src/third_party/flatbuffers/include/flatbuffers\base.h ****     return u.t;
 361:C:/Renesas/e2studio_2021_01_workspace_RZA2M_ANPR/ANPR_RZA2M_GR_MANGO/src/tensorflow_lite/src/third_party/flatbuffers/include/flatbuffers\base.h ****   } else if (sizeof(T) == 4) {
 362:C:/Renesas/e2studio_2021_01_workspace_RZA2M_ANPR/ANPR_RZA2M_GR_MANGO/src/tensorflow_lite/src/third_party/flatbuffers/include/flatbuffers\base.h ****     union { T t; uint32_t i; } u = { t };
 363:C:/Renesas/e2studio_2021_01_workspace_RZA2M_ANPR/ANPR_RZA2M_GR_MANGO/src/tensorflow_lite/src/third_party/flatbuffers/include/flatbuffers\base.h ****     u.i = FLATBUFFERS_BYTESWAP32(u.i);
 364:C:/Renesas/e2studio_2021_01_workspace_RZA2M_ANPR/ANPR_RZA2M_GR_MANGO/src/tensorflow_lite/src/third_party/flatbuffers/include/flatbuffers\base.h ****     return u.t;
 365:C:/Renesas/e2studio_2021_01_workspace_RZA2M_ANPR/ANPR_RZA2M_GR_MANGO/src/tensorflow_lite/src/third_party/flatbuffers/include/flatbuffers\base.h ****   } else if (sizeof(T) == 8) {
 366:C:/Renesas/e2studio_2021_01_workspace_RZA2M_ANPR/ANPR_RZA2M_GR_MANGO/src/tensorflow_lite/src/third_party/flatbuffers/include/flatbuffers\base.h ****     union { T t; uint64_t i; } u = { t };
 367:C:/Renesas/e2studio_2021_01_workspace_RZA2M_ANPR/ANPR_RZA2M_GR_MANGO/src/tensorflow_lite/src/third_party/flatbuffers/include/flatbuffers\base.h ****     u.i = FLATBUFFERS_BYTESWAP64(u.i);
 368:C:/Renesas/e2studio_2021_01_workspace_RZA2M_ANPR/ANPR_RZA2M_GR_MANGO/src/tensorflow_lite/src/third_party/flatbuffers/include/flatbuffers\base.h ****     return u.t;
 369:C:/Renesas/e2studio_2021_01_workspace_RZA2M_ANPR/ANPR_RZA2M_GR_MANGO/src/tensorflow_lite/src/third_party/flatbuffers/include/flatbuffers\base.h ****   } else {
 370:C:/Renesas/e2studio_2021_01_workspace_RZA2M_ANPR/ANPR_RZA2M_GR_MANGO/src/tensorflow_lite/src/third_party/flatbuffers/include/flatbuffers\base.h ****     FLATBUFFERS_ASSERT(0);
 371:C:/Renesas/e2studio_2021_01_workspace_RZA2M_ANPR/ANPR_RZA2M_GR_MANGO/src/tensorflow_lite/src/third_party/flatbuffers/include/flatbuffers\base.h ****     return t;
 372:C:/Renesas/e2studio_2021_01_workspace_RZA2M_ANPR/ANPR_RZA2M_GR_MANGO/src/tensorflow_lite/src/third_party/flatbuffers/include/flatbuffers\base.h ****   }
 373:C:/Renesas/e2studio_2021_01_workspace_RZA2M_ANPR/ANPR_RZA2M_GR_MANGO/src/tensorflow_lite/src/third_party/flatbuffers/include/flatbuffers\base.h **** }
 374:C:/Renesas/e2studio_2021_01_workspace_RZA2M_ANPR/ANPR_RZA2M_GR_MANGO/src/tensorflow_lite/src/third_party/flatbuffers/include/flatbuffers\base.h **** 
 375:C:/Renesas/e2studio_2021_01_workspace_RZA2M_ANPR/ANPR_RZA2M_GR_MANGO/src/tensorflow_lite/src/third_party/flatbuffers/include/flatbuffers\base.h **** #if defined(_MSC_VER)
 376:C:/Renesas/e2studio_2021_01_workspace_RZA2M_ANPR/ANPR_RZA2M_GR_MANGO/src/tensorflow_lite/src/third_party/flatbuffers/include/flatbuffers\base.h ****   #pragma warning(pop)
 377:C:/Renesas/e2studio_2021_01_workspace_RZA2M_ANPR/ANPR_RZA2M_GR_MANGO/src/tensorflow_lite/src/third_party/flatbuffers/include/flatbuffers\base.h **** #endif
 378:C:/Renesas/e2studio_2021_01_workspace_RZA2M_ANPR/ANPR_RZA2M_GR_MANGO/src/tensorflow_lite/src/third_party/flatbuffers/include/flatbuffers\base.h **** 
 379:C:/Renesas/e2studio_2021_01_workspace_RZA2M_ANPR/ANPR_RZA2M_GR_MANGO/src/tensorflow_lite/src/third_party/flatbuffers/include/flatbuffers\base.h **** 
 380:C:/Renesas/e2studio_2021_01_workspace_RZA2M_ANPR/ANPR_RZA2M_GR_MANGO/src/tensorflow_lite/src/third_party/flatbuffers/include/flatbuffers\base.h **** template<typename T> T EndianScalar(T t) {
 381:C:/Renesas/e2studio_2021_01_workspace_RZA2M_ANPR/ANPR_RZA2M_GR_MANGO/src/tensorflow_lite/src/third_party/flatbuffers/include/flatbuffers\base.h ****   #if FLATBUFFERS_LITTLEENDIAN
 382:C:/Renesas/e2studio_2021_01_workspace_RZA2M_ANPR/ANPR_RZA2M_GR_MANGO/src/tensorflow_lite/src/third_party/flatbuffers/include/flatbuffers\base.h ****     return t;
 383:C:/Renesas/e2studio_2021_01_workspace_RZA2M_ANPR/ANPR_RZA2M_GR_MANGO/src/tensorflow_lite/src/third_party/flatbuffers/include/flatbuffers\base.h ****   #else
 384:C:/Renesas/e2studio_2021_01_workspace_RZA2M_ANPR/ANPR_RZA2M_GR_MANGO/src/tensorflow_lite/src/third_party/flatbuffers/include/flatbuffers\base.h ****     return EndianSwap(t);
 385:C:/Renesas/e2studio_2021_01_workspace_RZA2M_ANPR/ANPR_RZA2M_GR_MANGO/src/tensorflow_lite/src/third_party/flatbuffers/include/flatbuffers\base.h ****   #endif
 386:C:/Renesas/e2studio_2021_01_workspace_RZA2M_ANPR/ANPR_RZA2M_GR_MANGO/src/tensorflow_lite/src/third_party/flatbuffers/include/flatbuffers\base.h **** }
 387:C:/Renesas/e2studio_2021_01_workspace_RZA2M_ANPR/ANPR_RZA2M_GR_MANGO/src/tensorflow_lite/src/third_party/flatbuffers/include/flatbuffers\base.h **** 
 388:C:/Renesas/e2studio_2021_01_workspace_RZA2M_ANPR/ANPR_RZA2M_GR_MANGO/src/tensorflow_lite/src/third_party/flatbuffers/include/flatbuffers\base.h **** template<typename T>
 389:C:/Renesas/e2studio_2021_01_workspace_RZA2M_ANPR/ANPR_RZA2M_GR_MANGO/src/tensorflow_lite/src/third_party/flatbuffers/include/flatbuffers\base.h **** // UBSAN: C++ aliasing type rules, see std::bit_cast<> for details.
 390:C:/Renesas/e2studio_2021_01_workspace_RZA2M_ANPR/ANPR_RZA2M_GR_MANGO/src/tensorflow_lite/src/third_party/flatbuffers/include/flatbuffers\base.h **** __supress_ubsan__("alignment")
 391:C:/Renesas/e2studio_2021_01_workspace_RZA2M_ANPR/ANPR_RZA2M_GR_MANGO/src/tensorflow_lite/src/third_party/flatbuffers/include/flatbuffers\base.h **** T ReadScalar(const void *p) {
 392:C:/Renesas/e2studio_2021_01_workspace_RZA2M_ANPR/ANPR_RZA2M_GR_MANGO/src/tensorflow_lite/src/third_party/flatbuffers/include/flatbuffers\base.h ****   return EndianScalar(*reinterpret_cast<const T *>(p));
 370              		.loc 2 392 0
 371 0028 B420D1E1 		ldrh	r2, [r1, #4]
 372              	.LVL32:
 373              	.LBE2606:
 374              	.LBE2605:
 375              	.LBE2604:
 376              	.LBE2603:
 377              		.file 3 "C:/Renesas/e2studio_2021_01_workspace_RZA2M_ANPR/ANPR_RZA2M_GR_MANGO/src/tensorflow_lite/
   1:C:/Renesas/e2studio_2021_01_workspace_RZA2M_ANPR/ANPR_RZA2M_GR_MANGO/src/tensorflow_lite/src/third_party/flatbuffers/include/flatbuffers\flatbuffers.h **** /*
   2:C:/Renesas/e2studio_2021_01_workspace_RZA2M_ANPR/ANPR_RZA2M_GR_MANGO/src/tensorflow_lite/src/third_party/flatbuffers/include/flatbuffers\flatbuffers.h ****  * Copyright 2014 Google Inc. All rights reserved.
   3:C:/Renesas/e2studio_2021_01_workspace_RZA2M_ANPR/ANPR_RZA2M_GR_MANGO/src/tensorflow_lite/src/third_party/flatbuffers/include/flatbuffers\flatbuffers.h ****  *
   4:C:/Renesas/e2studio_2021_01_workspace_RZA2M_ANPR/ANPR_RZA2M_GR_MANGO/src/tensorflow_lite/src/third_party/flatbuffers/include/flatbuffers\flatbuffers.h ****  * Licensed under the Apache License, Version 2.0 (the "License");
   5:C:/Renesas/e2studio_2021_01_workspace_RZA2M_ANPR/ANPR_RZA2M_GR_MANGO/src/tensorflow_lite/src/third_party/flatbuffers/include/flatbuffers\flatbuffers.h ****  * you may not use this file except in compliance with the License.
   6:C:/Renesas/e2studio_2021_01_workspace_RZA2M_ANPR/ANPR_RZA2M_GR_MANGO/src/tensorflow_lite/src/third_party/flatbuffers/include/flatbuffers\flatbuffers.h ****  * You may obtain a copy of the License at
   7:C:/Renesas/e2studio_2021_01_workspace_RZA2M_ANPR/ANPR_RZA2M_GR_MANGO/src/tensorflow_lite/src/third_party/flatbuffers/include/flatbuffers\flatbuffers.h ****  *
   8:C:/Renesas/e2studio_2021_01_workspace_RZA2M_ANPR/ANPR_RZA2M_GR_MANGO/src/tensorflow_lite/src/third_party/flatbuffers/include/flatbuffers\flatbuffers.h ****  *     http://www.apache.org/licenses/LICENSE-2.0
   9:C:/Renesas/e2studio_2021_01_workspace_RZA2M_ANPR/ANPR_RZA2M_GR_MANGO/src/tensorflow_lite/src/third_party/flatbuffers/include/flatbuffers\flatbuffers.h ****  *
  10:C:/Renesas/e2studio_2021_01_workspace_RZA2M_ANPR/ANPR_RZA2M_GR_MANGO/src/tensorflow_lite/src/third_party/flatbuffers/include/flatbuffers\flatbuffers.h ****  * Unless required by applicable law or agreed to in writing, software
  11:C:/Renesas/e2studio_2021_01_workspace_RZA2M_ANPR/ANPR_RZA2M_GR_MANGO/src/tensorflow_lite/src/third_party/flatbuffers/include/flatbuffers\flatbuffers.h ****  * distributed under the License is distributed on an "AS IS" BASIS,
  12:C:/Renesas/e2studio_2021_01_workspace_RZA2M_ANPR/ANPR_RZA2M_GR_MANGO/src/tensorflow_lite/src/third_party/flatbuffers/include/flatbuffers\flatbuffers.h ****  * WITHOUT WARRANTIES OR CONDITIONS OF ANY KIND, either express or implied.
  13:C:/Renesas/e2studio_2021_01_workspace_RZA2M_ANPR/ANPR_RZA2M_GR_MANGO/src/tensorflow_lite/src/third_party/flatbuffers/include/flatbuffers\flatbuffers.h ****  * See the License for the specific language governing permissions and
  14:C:/Renesas/e2studio_2021_01_workspace_RZA2M_ANPR/ANPR_RZA2M_GR_MANGO/src/tensorflow_lite/src/third_party/flatbuffers/include/flatbuffers\flatbuffers.h ****  * limitations under the License.
  15:C:/Renesas/e2studio_2021_01_workspace_RZA2M_ANPR/ANPR_RZA2M_GR_MANGO/src/tensorflow_lite/src/third_party/flatbuffers/include/flatbuffers\flatbuffers.h ****  */
  16:C:/Renesas/e2studio_2021_01_workspace_RZA2M_ANPR/ANPR_RZA2M_GR_MANGO/src/tensorflow_lite/src/third_party/flatbuffers/include/flatbuffers\flatbuffers.h **** 
  17:C:/Renesas/e2studio_2021_01_workspace_RZA2M_ANPR/ANPR_RZA2M_GR_MANGO/src/tensorflow_lite/src/third_party/flatbuffers/include/flatbuffers\flatbuffers.h **** #ifndef FLATBUFFERS_H_
  18:C:/Renesas/e2studio_2021_01_workspace_RZA2M_ANPR/ANPR_RZA2M_GR_MANGO/src/tensorflow_lite/src/third_party/flatbuffers/include/flatbuffers\flatbuffers.h **** #define FLATBUFFERS_H_
  19:C:/Renesas/e2studio_2021_01_workspace_RZA2M_ANPR/ANPR_RZA2M_GR_MANGO/src/tensorflow_lite/src/third_party/flatbuffers/include/flatbuffers\flatbuffers.h **** 
  20:C:/Renesas/e2studio_2021_01_workspace_RZA2M_ANPR/ANPR_RZA2M_GR_MANGO/src/tensorflow_lite/src/third_party/flatbuffers/include/flatbuffers\flatbuffers.h **** #include "third_party/flatbuffers/include/flatbuffers/base.h"
  21:C:/Renesas/e2studio_2021_01_workspace_RZA2M_ANPR/ANPR_RZA2M_GR_MANGO/src/tensorflow_lite/src/third_party/flatbuffers/include/flatbuffers\flatbuffers.h **** #include "third_party/flatbuffers/include/flatbuffers/stl_emulation.h"
  22:C:/Renesas/e2studio_2021_01_workspace_RZA2M_ANPR/ANPR_RZA2M_GR_MANGO/src/tensorflow_lite/src/third_party/flatbuffers/include/flatbuffers\flatbuffers.h **** 
  23:C:/Renesas/e2studio_2021_01_workspace_RZA2M_ANPR/ANPR_RZA2M_GR_MANGO/src/tensorflow_lite/src/third_party/flatbuffers/include/flatbuffers\flatbuffers.h **** #ifndef FLATBUFFERS_CPP98_STL
  24:C:/Renesas/e2studio_2021_01_workspace_RZA2M_ANPR/ANPR_RZA2M_GR_MANGO/src/tensorflow_lite/src/third_party/flatbuffers/include/flatbuffers\flatbuffers.h ****   #include <functional>
  25:C:/Renesas/e2studio_2021_01_workspace_RZA2M_ANPR/ANPR_RZA2M_GR_MANGO/src/tensorflow_lite/src/third_party/flatbuffers/include/flatbuffers\flatbuffers.h **** #endif
  26:C:/Renesas/e2studio_2021_01_workspace_RZA2M_ANPR/ANPR_RZA2M_GR_MANGO/src/tensorflow_lite/src/third_party/flatbuffers/include/flatbuffers\flatbuffers.h **** 
  27:C:/Renesas/e2studio_2021_01_workspace_RZA2M_ANPR/ANPR_RZA2M_GR_MANGO/src/tensorflow_lite/src/third_party/flatbuffers/include/flatbuffers\flatbuffers.h **** #if defined(FLATBUFFERS_NAN_DEFAULTS)
  28:C:/Renesas/e2studio_2021_01_workspace_RZA2M_ANPR/ANPR_RZA2M_GR_MANGO/src/tensorflow_lite/src/third_party/flatbuffers/include/flatbuffers\flatbuffers.h **** #  include <cmath>
  29:C:/Renesas/e2studio_2021_01_workspace_RZA2M_ANPR/ANPR_RZA2M_GR_MANGO/src/tensorflow_lite/src/third_party/flatbuffers/include/flatbuffers\flatbuffers.h **** #endif
  30:C:/Renesas/e2studio_2021_01_workspace_RZA2M_ANPR/ANPR_RZA2M_GR_MANGO/src/tensorflow_lite/src/third_party/flatbuffers/include/flatbuffers\flatbuffers.h **** 
  31:C:/Renesas/e2studio_2021_01_workspace_RZA2M_ANPR/ANPR_RZA2M_GR_MANGO/src/tensorflow_lite/src/third_party/flatbuffers/include/flatbuffers\flatbuffers.h **** namespace flatbuffers {
  32:C:/Renesas/e2studio_2021_01_workspace_RZA2M_ANPR/ANPR_RZA2M_GR_MANGO/src/tensorflow_lite/src/third_party/flatbuffers/include/flatbuffers\flatbuffers.h **** // Generic 'operator==' with conditional specialisations.
  33:C:/Renesas/e2studio_2021_01_workspace_RZA2M_ANPR/ANPR_RZA2M_GR_MANGO/src/tensorflow_lite/src/third_party/flatbuffers/include/flatbuffers\flatbuffers.h **** // T e - new value of a scalar field.
  34:C:/Renesas/e2studio_2021_01_workspace_RZA2M_ANPR/ANPR_RZA2M_GR_MANGO/src/tensorflow_lite/src/third_party/flatbuffers/include/flatbuffers\flatbuffers.h **** // T def - default of scalar (is known at compile-time).
  35:C:/Renesas/e2studio_2021_01_workspace_RZA2M_ANPR/ANPR_RZA2M_GR_MANGO/src/tensorflow_lite/src/third_party/flatbuffers/include/flatbuffers\flatbuffers.h **** template<typename T> inline bool IsTheSameAs(T e, T def) { return e == def; }
  36:C:/Renesas/e2studio_2021_01_workspace_RZA2M_ANPR/ANPR_RZA2M_GR_MANGO/src/tensorflow_lite/src/third_party/flatbuffers/include/flatbuffers\flatbuffers.h **** 
  37:C:/Renesas/e2studio_2021_01_workspace_RZA2M_ANPR/ANPR_RZA2M_GR_MANGO/src/tensorflow_lite/src/third_party/flatbuffers/include/flatbuffers\flatbuffers.h **** #if defined(FLATBUFFERS_NAN_DEFAULTS) && \
  38:C:/Renesas/e2studio_2021_01_workspace_RZA2M_ANPR/ANPR_RZA2M_GR_MANGO/src/tensorflow_lite/src/third_party/flatbuffers/include/flatbuffers\flatbuffers.h ****     defined(FLATBUFFERS_HAS_NEW_STRTOD) && (FLATBUFFERS_HAS_NEW_STRTOD > 0)
  39:C:/Renesas/e2studio_2021_01_workspace_RZA2M_ANPR/ANPR_RZA2M_GR_MANGO/src/tensorflow_lite/src/third_party/flatbuffers/include/flatbuffers\flatbuffers.h **** // Like `operator==(e, def)` with weak NaN if T=(float|double).
  40:C:/Renesas/e2studio_2021_01_workspace_RZA2M_ANPR/ANPR_RZA2M_GR_MANGO/src/tensorflow_lite/src/third_party/flatbuffers/include/flatbuffers\flatbuffers.h **** template<typename T> inline bool IsFloatTheSameAs(T e, T def) {
  41:C:/Renesas/e2studio_2021_01_workspace_RZA2M_ANPR/ANPR_RZA2M_GR_MANGO/src/tensorflow_lite/src/third_party/flatbuffers/include/flatbuffers\flatbuffers.h ****   return (e == def) || ((def != def) && (e != e));
  42:C:/Renesas/e2studio_2021_01_workspace_RZA2M_ANPR/ANPR_RZA2M_GR_MANGO/src/tensorflow_lite/src/third_party/flatbuffers/include/flatbuffers\flatbuffers.h **** }
  43:C:/Renesas/e2studio_2021_01_workspace_RZA2M_ANPR/ANPR_RZA2M_GR_MANGO/src/tensorflow_lite/src/third_party/flatbuffers/include/flatbuffers\flatbuffers.h **** template<> inline bool IsTheSameAs<float>(float e, float def) {
  44:C:/Renesas/e2studio_2021_01_workspace_RZA2M_ANPR/ANPR_RZA2M_GR_MANGO/src/tensorflow_lite/src/third_party/flatbuffers/include/flatbuffers\flatbuffers.h ****   return IsFloatTheSameAs(e, def);
  45:C:/Renesas/e2studio_2021_01_workspace_RZA2M_ANPR/ANPR_RZA2M_GR_MANGO/src/tensorflow_lite/src/third_party/flatbuffers/include/flatbuffers\flatbuffers.h **** }
  46:C:/Renesas/e2studio_2021_01_workspace_RZA2M_ANPR/ANPR_RZA2M_GR_MANGO/src/tensorflow_lite/src/third_party/flatbuffers/include/flatbuffers\flatbuffers.h **** template<> inline bool IsTheSameAs<double>(double e, double def) {
  47:C:/Renesas/e2studio_2021_01_workspace_RZA2M_ANPR/ANPR_RZA2M_GR_MANGO/src/tensorflow_lite/src/third_party/flatbuffers/include/flatbuffers\flatbuffers.h ****   return IsFloatTheSameAs(e, def);
  48:C:/Renesas/e2studio_2021_01_workspace_RZA2M_ANPR/ANPR_RZA2M_GR_MANGO/src/tensorflow_lite/src/third_party/flatbuffers/include/flatbuffers\flatbuffers.h **** }
  49:C:/Renesas/e2studio_2021_01_workspace_RZA2M_ANPR/ANPR_RZA2M_GR_MANGO/src/tensorflow_lite/src/third_party/flatbuffers/include/flatbuffers\flatbuffers.h **** #endif
  50:C:/Renesas/e2studio_2021_01_workspace_RZA2M_ANPR/ANPR_RZA2M_GR_MANGO/src/tensorflow_lite/src/third_party/flatbuffers/include/flatbuffers\flatbuffers.h **** 
  51:C:/Renesas/e2studio_2021_01_workspace_RZA2M_ANPR/ANPR_RZA2M_GR_MANGO/src/tensorflow_lite/src/third_party/flatbuffers/include/flatbuffers\flatbuffers.h **** // Check 'v' is out of closed range [low; high].
  52:C:/Renesas/e2studio_2021_01_workspace_RZA2M_ANPR/ANPR_RZA2M_GR_MANGO/src/tensorflow_lite/src/third_party/flatbuffers/include/flatbuffers\flatbuffers.h **** // Workaround for GCC warning [-Werror=type-limits]:
  53:C:/Renesas/e2studio_2021_01_workspace_RZA2M_ANPR/ANPR_RZA2M_GR_MANGO/src/tensorflow_lite/src/third_party/flatbuffers/include/flatbuffers\flatbuffers.h **** // comparison is always true due to limited range of data type.
  54:C:/Renesas/e2studio_2021_01_workspace_RZA2M_ANPR/ANPR_RZA2M_GR_MANGO/src/tensorflow_lite/src/third_party/flatbuffers/include/flatbuffers\flatbuffers.h **** template<typename T>
  55:C:/Renesas/e2studio_2021_01_workspace_RZA2M_ANPR/ANPR_RZA2M_GR_MANGO/src/tensorflow_lite/src/third_party/flatbuffers/include/flatbuffers\flatbuffers.h **** inline bool IsOutRange(const T &v, const T &low, const T &high) {
  56:C:/Renesas/e2studio_2021_01_workspace_RZA2M_ANPR/ANPR_RZA2M_GR_MANGO/src/tensorflow_lite/src/third_party/flatbuffers/include/flatbuffers\flatbuffers.h ****   return (v < low) || (high < v);
  57:C:/Renesas/e2studio_2021_01_workspace_RZA2M_ANPR/ANPR_RZA2M_GR_MANGO/src/tensorflow_lite/src/third_party/flatbuffers/include/flatbuffers\flatbuffers.h **** }
  58:C:/Renesas/e2studio_2021_01_workspace_RZA2M_ANPR/ANPR_RZA2M_GR_MANGO/src/tensorflow_lite/src/third_party/flatbuffers/include/flatbuffers\flatbuffers.h **** 
  59:C:/Renesas/e2studio_2021_01_workspace_RZA2M_ANPR/ANPR_RZA2M_GR_MANGO/src/tensorflow_lite/src/third_party/flatbuffers/include/flatbuffers\flatbuffers.h **** // Check 'v' is in closed range [low; high].
  60:C:/Renesas/e2studio_2021_01_workspace_RZA2M_ANPR/ANPR_RZA2M_GR_MANGO/src/tensorflow_lite/src/third_party/flatbuffers/include/flatbuffers\flatbuffers.h **** template<typename T>
  61:C:/Renesas/e2studio_2021_01_workspace_RZA2M_ANPR/ANPR_RZA2M_GR_MANGO/src/tensorflow_lite/src/third_party/flatbuffers/include/flatbuffers\flatbuffers.h **** inline bool IsInRange(const T &v, const T &low, const T &high) {
  62:C:/Renesas/e2studio_2021_01_workspace_RZA2M_ANPR/ANPR_RZA2M_GR_MANGO/src/tensorflow_lite/src/third_party/flatbuffers/include/flatbuffers\flatbuffers.h ****   return !IsOutRange(v, low, high);
  63:C:/Renesas/e2studio_2021_01_workspace_RZA2M_ANPR/ANPR_RZA2M_GR_MANGO/src/tensorflow_lite/src/third_party/flatbuffers/include/flatbuffers\flatbuffers.h **** }
  64:C:/Renesas/e2studio_2021_01_workspace_RZA2M_ANPR/ANPR_RZA2M_GR_MANGO/src/tensorflow_lite/src/third_party/flatbuffers/include/flatbuffers\flatbuffers.h **** 
  65:C:/Renesas/e2studio_2021_01_workspace_RZA2M_ANPR/ANPR_RZA2M_GR_MANGO/src/tensorflow_lite/src/third_party/flatbuffers/include/flatbuffers\flatbuffers.h **** // Wrapper for uoffset_t to allow safe template specialization.
  66:C:/Renesas/e2studio_2021_01_workspace_RZA2M_ANPR/ANPR_RZA2M_GR_MANGO/src/tensorflow_lite/src/third_party/flatbuffers/include/flatbuffers\flatbuffers.h **** // Value is allowed to be 0 to indicate a null object (see e.g. AddOffset).
  67:C:/Renesas/e2studio_2021_01_workspace_RZA2M_ANPR/ANPR_RZA2M_GR_MANGO/src/tensorflow_lite/src/third_party/flatbuffers/include/flatbuffers\flatbuffers.h **** template<typename T> struct Offset {
  68:C:/Renesas/e2studio_2021_01_workspace_RZA2M_ANPR/ANPR_RZA2M_GR_MANGO/src/tensorflow_lite/src/third_party/flatbuffers/include/flatbuffers\flatbuffers.h ****   uoffset_t o;
  69:C:/Renesas/e2studio_2021_01_workspace_RZA2M_ANPR/ANPR_RZA2M_GR_MANGO/src/tensorflow_lite/src/third_party/flatbuffers/include/flatbuffers\flatbuffers.h ****   Offset() : o(0) {}
  70:C:/Renesas/e2studio_2021_01_workspace_RZA2M_ANPR/ANPR_RZA2M_GR_MANGO/src/tensorflow_lite/src/third_party/flatbuffers/include/flatbuffers\flatbuffers.h ****   Offset(uoffset_t _o) : o(_o) {}
  71:C:/Renesas/e2studio_2021_01_workspace_RZA2M_ANPR/ANPR_RZA2M_GR_MANGO/src/tensorflow_lite/src/third_party/flatbuffers/include/flatbuffers\flatbuffers.h ****   Offset<void> Union() const { return Offset<void>(o); }
  72:C:/Renesas/e2studio_2021_01_workspace_RZA2M_ANPR/ANPR_RZA2M_GR_MANGO/src/tensorflow_lite/src/third_party/flatbuffers/include/flatbuffers\flatbuffers.h ****   bool IsNull() const { return !o; }
  73:C:/Renesas/e2studio_2021_01_workspace_RZA2M_ANPR/ANPR_RZA2M_GR_MANGO/src/tensorflow_lite/src/third_party/flatbuffers/include/flatbuffers\flatbuffers.h **** };
  74:C:/Renesas/e2studio_2021_01_workspace_RZA2M_ANPR/ANPR_RZA2M_GR_MANGO/src/tensorflow_lite/src/third_party/flatbuffers/include/flatbuffers\flatbuffers.h **** 
  75:C:/Renesas/e2studio_2021_01_workspace_RZA2M_ANPR/ANPR_RZA2M_GR_MANGO/src/tensorflow_lite/src/third_party/flatbuffers/include/flatbuffers\flatbuffers.h **** inline void EndianCheck() {
  76:C:/Renesas/e2studio_2021_01_workspace_RZA2M_ANPR/ANPR_RZA2M_GR_MANGO/src/tensorflow_lite/src/third_party/flatbuffers/include/flatbuffers\flatbuffers.h ****   int endiantest = 1;
  77:C:/Renesas/e2studio_2021_01_workspace_RZA2M_ANPR/ANPR_RZA2M_GR_MANGO/src/tensorflow_lite/src/third_party/flatbuffers/include/flatbuffers\flatbuffers.h ****   // If this fails, see FLATBUFFERS_LITTLEENDIAN above.
  78:C:/Renesas/e2studio_2021_01_workspace_RZA2M_ANPR/ANPR_RZA2M_GR_MANGO/src/tensorflow_lite/src/third_party/flatbuffers/include/flatbuffers\flatbuffers.h ****   FLATBUFFERS_ASSERT(*reinterpret_cast<char *>(&endiantest) ==
  79:C:/Renesas/e2studio_2021_01_workspace_RZA2M_ANPR/ANPR_RZA2M_GR_MANGO/src/tensorflow_lite/src/third_party/flatbuffers/include/flatbuffers\flatbuffers.h ****                      FLATBUFFERS_LITTLEENDIAN);
  80:C:/Renesas/e2studio_2021_01_workspace_RZA2M_ANPR/ANPR_RZA2M_GR_MANGO/src/tensorflow_lite/src/third_party/flatbuffers/include/flatbuffers\flatbuffers.h ****   (void)endiantest;
  81:C:/Renesas/e2studio_2021_01_workspace_RZA2M_ANPR/ANPR_RZA2M_GR_MANGO/src/tensorflow_lite/src/third_party/flatbuffers/include/flatbuffers\flatbuffers.h **** }
  82:C:/Renesas/e2studio_2021_01_workspace_RZA2M_ANPR/ANPR_RZA2M_GR_MANGO/src/tensorflow_lite/src/third_party/flatbuffers/include/flatbuffers\flatbuffers.h **** 
  83:C:/Renesas/e2studio_2021_01_workspace_RZA2M_ANPR/ANPR_RZA2M_GR_MANGO/src/tensorflow_lite/src/third_party/flatbuffers/include/flatbuffers\flatbuffers.h **** template<typename T> FLATBUFFERS_CONSTEXPR size_t AlignOf() {
  84:C:/Renesas/e2studio_2021_01_workspace_RZA2M_ANPR/ANPR_RZA2M_GR_MANGO/src/tensorflow_lite/src/third_party/flatbuffers/include/flatbuffers\flatbuffers.h ****   // clang-format off
  85:C:/Renesas/e2studio_2021_01_workspace_RZA2M_ANPR/ANPR_RZA2M_GR_MANGO/src/tensorflow_lite/src/third_party/flatbuffers/include/flatbuffers\flatbuffers.h ****   #ifdef _MSC_VER
  86:C:/Renesas/e2studio_2021_01_workspace_RZA2M_ANPR/ANPR_RZA2M_GR_MANGO/src/tensorflow_lite/src/third_party/flatbuffers/include/flatbuffers\flatbuffers.h ****     return __alignof(T);
  87:C:/Renesas/e2studio_2021_01_workspace_RZA2M_ANPR/ANPR_RZA2M_GR_MANGO/src/tensorflow_lite/src/third_party/flatbuffers/include/flatbuffers\flatbuffers.h ****   #else
  88:C:/Renesas/e2studio_2021_01_workspace_RZA2M_ANPR/ANPR_RZA2M_GR_MANGO/src/tensorflow_lite/src/third_party/flatbuffers/include/flatbuffers\flatbuffers.h ****     #ifndef alignof
  89:C:/Renesas/e2studio_2021_01_workspace_RZA2M_ANPR/ANPR_RZA2M_GR_MANGO/src/tensorflow_lite/src/third_party/flatbuffers/include/flatbuffers\flatbuffers.h ****       return __alignof__(T);
  90:C:/Renesas/e2studio_2021_01_workspace_RZA2M_ANPR/ANPR_RZA2M_GR_MANGO/src/tensorflow_lite/src/third_party/flatbuffers/include/flatbuffers\flatbuffers.h ****     #else
  91:C:/Renesas/e2studio_2021_01_workspace_RZA2M_ANPR/ANPR_RZA2M_GR_MANGO/src/tensorflow_lite/src/third_party/flatbuffers/include/flatbuffers\flatbuffers.h ****       return alignof(T);
  92:C:/Renesas/e2studio_2021_01_workspace_RZA2M_ANPR/ANPR_RZA2M_GR_MANGO/src/tensorflow_lite/src/third_party/flatbuffers/include/flatbuffers\flatbuffers.h ****     #endif
  93:C:/Renesas/e2studio_2021_01_workspace_RZA2M_ANPR/ANPR_RZA2M_GR_MANGO/src/tensorflow_lite/src/third_party/flatbuffers/include/flatbuffers\flatbuffers.h ****   #endif
  94:C:/Renesas/e2studio_2021_01_workspace_RZA2M_ANPR/ANPR_RZA2M_GR_MANGO/src/tensorflow_lite/src/third_party/flatbuffers/include/flatbuffers\flatbuffers.h ****   // clang-format on
  95:C:/Renesas/e2studio_2021_01_workspace_RZA2M_ANPR/ANPR_RZA2M_GR_MANGO/src/tensorflow_lite/src/third_party/flatbuffers/include/flatbuffers\flatbuffers.h **** }
  96:C:/Renesas/e2studio_2021_01_workspace_RZA2M_ANPR/ANPR_RZA2M_GR_MANGO/src/tensorflow_lite/src/third_party/flatbuffers/include/flatbuffers\flatbuffers.h **** 
  97:C:/Renesas/e2studio_2021_01_workspace_RZA2M_ANPR/ANPR_RZA2M_GR_MANGO/src/tensorflow_lite/src/third_party/flatbuffers/include/flatbuffers\flatbuffers.h **** // When we read serialized data from memory, in the case of most scalars,
  98:C:/Renesas/e2studio_2021_01_workspace_RZA2M_ANPR/ANPR_RZA2M_GR_MANGO/src/tensorflow_lite/src/third_party/flatbuffers/include/flatbuffers\flatbuffers.h **** // we want to just read T, but in the case of Offset, we want to actually
  99:C:/Renesas/e2studio_2021_01_workspace_RZA2M_ANPR/ANPR_RZA2M_GR_MANGO/src/tensorflow_lite/src/third_party/flatbuffers/include/flatbuffers\flatbuffers.h **** // perform the indirection and return a pointer.
 100:C:/Renesas/e2studio_2021_01_workspace_RZA2M_ANPR/ANPR_RZA2M_GR_MANGO/src/tensorflow_lite/src/third_party/flatbuffers/include/flatbuffers\flatbuffers.h **** // The template specialization below does just that.
 101:C:/Renesas/e2studio_2021_01_workspace_RZA2M_ANPR/ANPR_RZA2M_GR_MANGO/src/tensorflow_lite/src/third_party/flatbuffers/include/flatbuffers\flatbuffers.h **** // It is wrapped in a struct since function templates can't overload on the
 102:C:/Renesas/e2studio_2021_01_workspace_RZA2M_ANPR/ANPR_RZA2M_GR_MANGO/src/tensorflow_lite/src/third_party/flatbuffers/include/flatbuffers\flatbuffers.h **** // return type like this.
 103:C:/Renesas/e2studio_2021_01_workspace_RZA2M_ANPR/ANPR_RZA2M_GR_MANGO/src/tensorflow_lite/src/third_party/flatbuffers/include/flatbuffers\flatbuffers.h **** // The typedef is for the convenience of callers of this function
 104:C:/Renesas/e2studio_2021_01_workspace_RZA2M_ANPR/ANPR_RZA2M_GR_MANGO/src/tensorflow_lite/src/third_party/flatbuffers/include/flatbuffers\flatbuffers.h **** // (avoiding the need for a trailing return decltype)
 105:C:/Renesas/e2studio_2021_01_workspace_RZA2M_ANPR/ANPR_RZA2M_GR_MANGO/src/tensorflow_lite/src/third_party/flatbuffers/include/flatbuffers\flatbuffers.h **** template<typename T> struct IndirectHelper {
 106:C:/Renesas/e2studio_2021_01_workspace_RZA2M_ANPR/ANPR_RZA2M_GR_MANGO/src/tensorflow_lite/src/third_party/flatbuffers/include/flatbuffers\flatbuffers.h ****   typedef T return_type;
 107:C:/Renesas/e2studio_2021_01_workspace_RZA2M_ANPR/ANPR_RZA2M_GR_MANGO/src/tensorflow_lite/src/third_party/flatbuffers/include/flatbuffers\flatbuffers.h ****   typedef T mutable_return_type;
 108:C:/Renesas/e2studio_2021_01_workspace_RZA2M_ANPR/ANPR_RZA2M_GR_MANGO/src/tensorflow_lite/src/third_party/flatbuffers/include/flatbuffers\flatbuffers.h ****   static const size_t element_stride = sizeof(T);
 109:C:/Renesas/e2studio_2021_01_workspace_RZA2M_ANPR/ANPR_RZA2M_GR_MANGO/src/tensorflow_lite/src/third_party/flatbuffers/include/flatbuffers\flatbuffers.h ****   static return_type Read(const uint8_t *p, uoffset_t i) {
 110:C:/Renesas/e2studio_2021_01_workspace_RZA2M_ANPR/ANPR_RZA2M_GR_MANGO/src/tensorflow_lite/src/third_party/flatbuffers/include/flatbuffers\flatbuffers.h ****     return EndianScalar((reinterpret_cast<const T *>(p))[i]);
 111:C:/Renesas/e2studio_2021_01_workspace_RZA2M_ANPR/ANPR_RZA2M_GR_MANGO/src/tensorflow_lite/src/third_party/flatbuffers/include/flatbuffers\flatbuffers.h ****   }
 112:C:/Renesas/e2studio_2021_01_workspace_RZA2M_ANPR/ANPR_RZA2M_GR_MANGO/src/tensorflow_lite/src/third_party/flatbuffers/include/flatbuffers\flatbuffers.h **** };
 113:C:/Renesas/e2studio_2021_01_workspace_RZA2M_ANPR/ANPR_RZA2M_GR_MANGO/src/tensorflow_lite/src/third_party/flatbuffers/include/flatbuffers\flatbuffers.h **** template<typename T> struct IndirectHelper<Offset<T>> {
 114:C:/Renesas/e2studio_2021_01_workspace_RZA2M_ANPR/ANPR_RZA2M_GR_MANGO/src/tensorflow_lite/src/third_party/flatbuffers/include/flatbuffers\flatbuffers.h ****   typedef const T *return_type;
 115:C:/Renesas/e2studio_2021_01_workspace_RZA2M_ANPR/ANPR_RZA2M_GR_MANGO/src/tensorflow_lite/src/third_party/flatbuffers/include/flatbuffers\flatbuffers.h ****   typedef T *mutable_return_type;
 116:C:/Renesas/e2studio_2021_01_workspace_RZA2M_ANPR/ANPR_RZA2M_GR_MANGO/src/tensorflow_lite/src/third_party/flatbuffers/include/flatbuffers\flatbuffers.h ****   static const size_t element_stride = sizeof(uoffset_t);
 117:C:/Renesas/e2studio_2021_01_workspace_RZA2M_ANPR/ANPR_RZA2M_GR_MANGO/src/tensorflow_lite/src/third_party/flatbuffers/include/flatbuffers\flatbuffers.h ****   static return_type Read(const uint8_t *p, uoffset_t i) {
 118:C:/Renesas/e2studio_2021_01_workspace_RZA2M_ANPR/ANPR_RZA2M_GR_MANGO/src/tensorflow_lite/src/third_party/flatbuffers/include/flatbuffers\flatbuffers.h ****     p += i * sizeof(uoffset_t);
 119:C:/Renesas/e2studio_2021_01_workspace_RZA2M_ANPR/ANPR_RZA2M_GR_MANGO/src/tensorflow_lite/src/third_party/flatbuffers/include/flatbuffers\flatbuffers.h ****     return reinterpret_cast<return_type>(p + ReadScalar<uoffset_t>(p));
 120:C:/Renesas/e2studio_2021_01_workspace_RZA2M_ANPR/ANPR_RZA2M_GR_MANGO/src/tensorflow_lite/src/third_party/flatbuffers/include/flatbuffers\flatbuffers.h ****   }
 121:C:/Renesas/e2studio_2021_01_workspace_RZA2M_ANPR/ANPR_RZA2M_GR_MANGO/src/tensorflow_lite/src/third_party/flatbuffers/include/flatbuffers\flatbuffers.h **** };
 122:C:/Renesas/e2studio_2021_01_workspace_RZA2M_ANPR/ANPR_RZA2M_GR_MANGO/src/tensorflow_lite/src/third_party/flatbuffers/include/flatbuffers\flatbuffers.h **** template<typename T> struct IndirectHelper<const T *> {
 123:C:/Renesas/e2studio_2021_01_workspace_RZA2M_ANPR/ANPR_RZA2M_GR_MANGO/src/tensorflow_lite/src/third_party/flatbuffers/include/flatbuffers\flatbuffers.h ****   typedef const T *return_type;
 124:C:/Renesas/e2studio_2021_01_workspace_RZA2M_ANPR/ANPR_RZA2M_GR_MANGO/src/tensorflow_lite/src/third_party/flatbuffers/include/flatbuffers\flatbuffers.h ****   typedef T *mutable_return_type;
 125:C:/Renesas/e2studio_2021_01_workspace_RZA2M_ANPR/ANPR_RZA2M_GR_MANGO/src/tensorflow_lite/src/third_party/flatbuffers/include/flatbuffers\flatbuffers.h ****   static const size_t element_stride = sizeof(T);
 126:C:/Renesas/e2studio_2021_01_workspace_RZA2M_ANPR/ANPR_RZA2M_GR_MANGO/src/tensorflow_lite/src/third_party/flatbuffers/include/flatbuffers\flatbuffers.h ****   static return_type Read(const uint8_t *p, uoffset_t i) {
 127:C:/Renesas/e2studio_2021_01_workspace_RZA2M_ANPR/ANPR_RZA2M_GR_MANGO/src/tensorflow_lite/src/third_party/flatbuffers/include/flatbuffers\flatbuffers.h ****     return reinterpret_cast<const T *>(p + i * sizeof(T));
 128:C:/Renesas/e2studio_2021_01_workspace_RZA2M_ANPR/ANPR_RZA2M_GR_MANGO/src/tensorflow_lite/src/third_party/flatbuffers/include/flatbuffers\flatbuffers.h ****   }
 129:C:/Renesas/e2studio_2021_01_workspace_RZA2M_ANPR/ANPR_RZA2M_GR_MANGO/src/tensorflow_lite/src/third_party/flatbuffers/include/flatbuffers\flatbuffers.h **** };
 130:C:/Renesas/e2studio_2021_01_workspace_RZA2M_ANPR/ANPR_RZA2M_GR_MANGO/src/tensorflow_lite/src/third_party/flatbuffers/include/flatbuffers\flatbuffers.h **** 
 131:C:/Renesas/e2studio_2021_01_workspace_RZA2M_ANPR/ANPR_RZA2M_GR_MANGO/src/tensorflow_lite/src/third_party/flatbuffers/include/flatbuffers\flatbuffers.h **** // An STL compatible iterator implementation for Vector below, effectively
 132:C:/Renesas/e2studio_2021_01_workspace_RZA2M_ANPR/ANPR_RZA2M_GR_MANGO/src/tensorflow_lite/src/third_party/flatbuffers/include/flatbuffers\flatbuffers.h **** // calling Get() for every element.
 133:C:/Renesas/e2studio_2021_01_workspace_RZA2M_ANPR/ANPR_RZA2M_GR_MANGO/src/tensorflow_lite/src/third_party/flatbuffers/include/flatbuffers\flatbuffers.h **** template<typename T, typename IT> struct VectorIterator {
 134:C:/Renesas/e2studio_2021_01_workspace_RZA2M_ANPR/ANPR_RZA2M_GR_MANGO/src/tensorflow_lite/src/third_party/flatbuffers/include/flatbuffers\flatbuffers.h ****   typedef std::random_access_iterator_tag iterator_category;
 135:C:/Renesas/e2studio_2021_01_workspace_RZA2M_ANPR/ANPR_RZA2M_GR_MANGO/src/tensorflow_lite/src/third_party/flatbuffers/include/flatbuffers\flatbuffers.h ****   typedef IT value_type;
 136:C:/Renesas/e2studio_2021_01_workspace_RZA2M_ANPR/ANPR_RZA2M_GR_MANGO/src/tensorflow_lite/src/third_party/flatbuffers/include/flatbuffers\flatbuffers.h ****   typedef ptrdiff_t difference_type;
 137:C:/Renesas/e2studio_2021_01_workspace_RZA2M_ANPR/ANPR_RZA2M_GR_MANGO/src/tensorflow_lite/src/third_party/flatbuffers/include/flatbuffers\flatbuffers.h ****   typedef IT *pointer;
 138:C:/Renesas/e2studio_2021_01_workspace_RZA2M_ANPR/ANPR_RZA2M_GR_MANGO/src/tensorflow_lite/src/third_party/flatbuffers/include/flatbuffers\flatbuffers.h ****   typedef IT &reference;
 139:C:/Renesas/e2studio_2021_01_workspace_RZA2M_ANPR/ANPR_RZA2M_GR_MANGO/src/tensorflow_lite/src/third_party/flatbuffers/include/flatbuffers\flatbuffers.h **** 
 140:C:/Renesas/e2studio_2021_01_workspace_RZA2M_ANPR/ANPR_RZA2M_GR_MANGO/src/tensorflow_lite/src/third_party/flatbuffers/include/flatbuffers\flatbuffers.h ****   VectorIterator(const uint8_t *data, uoffset_t i)
 141:C:/Renesas/e2studio_2021_01_workspace_RZA2M_ANPR/ANPR_RZA2M_GR_MANGO/src/tensorflow_lite/src/third_party/flatbuffers/include/flatbuffers\flatbuffers.h ****       : data_(data + IndirectHelper<T>::element_stride * i) {}
 142:C:/Renesas/e2studio_2021_01_workspace_RZA2M_ANPR/ANPR_RZA2M_GR_MANGO/src/tensorflow_lite/src/third_party/flatbuffers/include/flatbuffers\flatbuffers.h ****   VectorIterator(const VectorIterator &other) : data_(other.data_) {}
 143:C:/Renesas/e2studio_2021_01_workspace_RZA2M_ANPR/ANPR_RZA2M_GR_MANGO/src/tensorflow_lite/src/third_party/flatbuffers/include/flatbuffers\flatbuffers.h ****   VectorIterator() : data_(nullptr) {}
 144:C:/Renesas/e2studio_2021_01_workspace_RZA2M_ANPR/ANPR_RZA2M_GR_MANGO/src/tensorflow_lite/src/third_party/flatbuffers/include/flatbuffers\flatbuffers.h **** 
 145:C:/Renesas/e2studio_2021_01_workspace_RZA2M_ANPR/ANPR_RZA2M_GR_MANGO/src/tensorflow_lite/src/third_party/flatbuffers/include/flatbuffers\flatbuffers.h ****   VectorIterator &operator=(const VectorIterator &other) {
 146:C:/Renesas/e2studio_2021_01_workspace_RZA2M_ANPR/ANPR_RZA2M_GR_MANGO/src/tensorflow_lite/src/third_party/flatbuffers/include/flatbuffers\flatbuffers.h ****     data_ = other.data_;
 147:C:/Renesas/e2studio_2021_01_workspace_RZA2M_ANPR/ANPR_RZA2M_GR_MANGO/src/tensorflow_lite/src/third_party/flatbuffers/include/flatbuffers\flatbuffers.h ****     return *this;
 148:C:/Renesas/e2studio_2021_01_workspace_RZA2M_ANPR/ANPR_RZA2M_GR_MANGO/src/tensorflow_lite/src/third_party/flatbuffers/include/flatbuffers\flatbuffers.h ****   }
 149:C:/Renesas/e2studio_2021_01_workspace_RZA2M_ANPR/ANPR_RZA2M_GR_MANGO/src/tensorflow_lite/src/third_party/flatbuffers/include/flatbuffers\flatbuffers.h **** 
 150:C:/Renesas/e2studio_2021_01_workspace_RZA2M_ANPR/ANPR_RZA2M_GR_MANGO/src/tensorflow_lite/src/third_party/flatbuffers/include/flatbuffers\flatbuffers.h ****   // clang-format off
 151:C:/Renesas/e2studio_2021_01_workspace_RZA2M_ANPR/ANPR_RZA2M_GR_MANGO/src/tensorflow_lite/src/third_party/flatbuffers/include/flatbuffers\flatbuffers.h ****   #if !defined(FLATBUFFERS_CPP98_STL)
 152:C:/Renesas/e2studio_2021_01_workspace_RZA2M_ANPR/ANPR_RZA2M_GR_MANGO/src/tensorflow_lite/src/third_party/flatbuffers/include/flatbuffers\flatbuffers.h ****   VectorIterator &operator=(VectorIterator &&other) {
 153:C:/Renesas/e2studio_2021_01_workspace_RZA2M_ANPR/ANPR_RZA2M_GR_MANGO/src/tensorflow_lite/src/third_party/flatbuffers/include/flatbuffers\flatbuffers.h ****     data_ = other.data_;
 154:C:/Renesas/e2studio_2021_01_workspace_RZA2M_ANPR/ANPR_RZA2M_GR_MANGO/src/tensorflow_lite/src/third_party/flatbuffers/include/flatbuffers\flatbuffers.h ****     return *this;
 155:C:/Renesas/e2studio_2021_01_workspace_RZA2M_ANPR/ANPR_RZA2M_GR_MANGO/src/tensorflow_lite/src/third_party/flatbuffers/include/flatbuffers\flatbuffers.h ****   }
 156:C:/Renesas/e2studio_2021_01_workspace_RZA2M_ANPR/ANPR_RZA2M_GR_MANGO/src/tensorflow_lite/src/third_party/flatbuffers/include/flatbuffers\flatbuffers.h ****   #endif  // !defined(FLATBUFFERS_CPP98_STL)
 157:C:/Renesas/e2studio_2021_01_workspace_RZA2M_ANPR/ANPR_RZA2M_GR_MANGO/src/tensorflow_lite/src/third_party/flatbuffers/include/flatbuffers\flatbuffers.h ****   // clang-format on
 158:C:/Renesas/e2studio_2021_01_workspace_RZA2M_ANPR/ANPR_RZA2M_GR_MANGO/src/tensorflow_lite/src/third_party/flatbuffers/include/flatbuffers\flatbuffers.h **** 
 159:C:/Renesas/e2studio_2021_01_workspace_RZA2M_ANPR/ANPR_RZA2M_GR_MANGO/src/tensorflow_lite/src/third_party/flatbuffers/include/flatbuffers\flatbuffers.h ****   bool operator==(const VectorIterator &other) const {
 160:C:/Renesas/e2studio_2021_01_workspace_RZA2M_ANPR/ANPR_RZA2M_GR_MANGO/src/tensorflow_lite/src/third_party/flatbuffers/include/flatbuffers\flatbuffers.h ****     return data_ == other.data_;
 161:C:/Renesas/e2studio_2021_01_workspace_RZA2M_ANPR/ANPR_RZA2M_GR_MANGO/src/tensorflow_lite/src/third_party/flatbuffers/include/flatbuffers\flatbuffers.h ****   }
 162:C:/Renesas/e2studio_2021_01_workspace_RZA2M_ANPR/ANPR_RZA2M_GR_MANGO/src/tensorflow_lite/src/third_party/flatbuffers/include/flatbuffers\flatbuffers.h **** 
 163:C:/Renesas/e2studio_2021_01_workspace_RZA2M_ANPR/ANPR_RZA2M_GR_MANGO/src/tensorflow_lite/src/third_party/flatbuffers/include/flatbuffers\flatbuffers.h ****   bool operator<(const VectorIterator &other) const {
 164:C:/Renesas/e2studio_2021_01_workspace_RZA2M_ANPR/ANPR_RZA2M_GR_MANGO/src/tensorflow_lite/src/third_party/flatbuffers/include/flatbuffers\flatbuffers.h ****     return data_ < other.data_;
 165:C:/Renesas/e2studio_2021_01_workspace_RZA2M_ANPR/ANPR_RZA2M_GR_MANGO/src/tensorflow_lite/src/third_party/flatbuffers/include/flatbuffers\flatbuffers.h ****   }
 166:C:/Renesas/e2studio_2021_01_workspace_RZA2M_ANPR/ANPR_RZA2M_GR_MANGO/src/tensorflow_lite/src/third_party/flatbuffers/include/flatbuffers\flatbuffers.h **** 
 167:C:/Renesas/e2studio_2021_01_workspace_RZA2M_ANPR/ANPR_RZA2M_GR_MANGO/src/tensorflow_lite/src/third_party/flatbuffers/include/flatbuffers\flatbuffers.h ****   bool operator!=(const VectorIterator &other) const {
 168:C:/Renesas/e2studio_2021_01_workspace_RZA2M_ANPR/ANPR_RZA2M_GR_MANGO/src/tensorflow_lite/src/third_party/flatbuffers/include/flatbuffers\flatbuffers.h ****     return data_ != other.data_;
 169:C:/Renesas/e2studio_2021_01_workspace_RZA2M_ANPR/ANPR_RZA2M_GR_MANGO/src/tensorflow_lite/src/third_party/flatbuffers/include/flatbuffers\flatbuffers.h ****   }
 170:C:/Renesas/e2studio_2021_01_workspace_RZA2M_ANPR/ANPR_RZA2M_GR_MANGO/src/tensorflow_lite/src/third_party/flatbuffers/include/flatbuffers\flatbuffers.h **** 
