   1              		.cpu cortex-a9
   2              		.eabi_attribute 28, 1
   3              		.eabi_attribute 20, 1
   4              		.eabi_attribute 21, 1
   5              		.eabi_attribute 23, 3
   6              		.eabi_attribute 24, 1
   7              		.eabi_attribute 25, 1
   8              		.eabi_attribute 26, 1
   9              		.eabi_attribute 30, 2
  10              		.eabi_attribute 34, 0
  11              		.eabi_attribute 18, 4
  12              		.file	"mock_micro_graph.cpp"
  13              		.text
  14              	.Ltext0:
  15              		.cfi_sections	.debug_frame
  16              		.section	.text._ZN6tflite14MockMicroGraph14InvokeSubgraphEi,"ax",%progbits
  17              		.align	2
  18              		.global	_ZN6tflite14MockMicroGraph14InvokeSubgraphEi
  19              		.syntax unified
  20              		.arm
  21              		.fpu neon
  23              	_ZN6tflite14MockMicroGraph14InvokeSubgraphEi:
  24              		.fnstart
  25              	.LFB6883:
  26              		.file 1 "../src/tensorflow_lite/src/tensorflow/lite/micro/mock_micro_graph.cpp"
   1:../src/tensorflow_lite/src/tensorflow/lite/micro/mock_micro_graph.cpp **** /* Copyright 2021 The TensorFlow Authors. All Rights Reserved.
   2:../src/tensorflow_lite/src/tensorflow/lite/micro/mock_micro_graph.cpp **** 
   3:../src/tensorflow_lite/src/tensorflow/lite/micro/mock_micro_graph.cpp **** Licensed under the Apache License, Version 2.0 (the "License");
   4:../src/tensorflow_lite/src/tensorflow/lite/micro/mock_micro_graph.cpp **** you may not use this file except in compliance with the License.
   5:../src/tensorflow_lite/src/tensorflow/lite/micro/mock_micro_graph.cpp **** You may obtain a copy of the License at
   6:../src/tensorflow_lite/src/tensorflow/lite/micro/mock_micro_graph.cpp **** 
   7:../src/tensorflow_lite/src/tensorflow/lite/micro/mock_micro_graph.cpp ****     http://www.apache.org/licenses/LICENSE-2.0
   8:../src/tensorflow_lite/src/tensorflow/lite/micro/mock_micro_graph.cpp **** 
   9:../src/tensorflow_lite/src/tensorflow/lite/micro/mock_micro_graph.cpp **** Unless required by applicable law or agreed to in writing, software
  10:../src/tensorflow_lite/src/tensorflow/lite/micro/mock_micro_graph.cpp **** distributed under the License is distributed on an "AS IS" BASIS,
  11:../src/tensorflow_lite/src/tensorflow/lite/micro/mock_micro_graph.cpp **** WITHOUT WARRANTIES OR CONDITIONS OF ANY KIND, either express or implied.
  12:../src/tensorflow_lite/src/tensorflow/lite/micro/mock_micro_graph.cpp **** See the License for the specific language governing permissions and
  13:../src/tensorflow_lite/src/tensorflow/lite/micro/mock_micro_graph.cpp **** limitations under the License.
  14:../src/tensorflow_lite/src/tensorflow/lite/micro/mock_micro_graph.cpp **** ==============================================================================*/
  15:../src/tensorflow_lite/src/tensorflow/lite/micro/mock_micro_graph.cpp **** 
  16:../src/tensorflow_lite/src/tensorflow/lite/micro/mock_micro_graph.cpp **** #include "tensorflow/lite/micro/mock_micro_graph.h"
  17:../src/tensorflow_lite/src/tensorflow/lite/micro/mock_micro_graph.cpp **** 
  18:../src/tensorflow_lite/src/tensorflow/lite/micro/mock_micro_graph.cpp **** #include "tensorflow/lite/micro/test_helpers.h"
  19:../src/tensorflow_lite/src/tensorflow/lite/micro/mock_micro_graph.cpp **** 
  20:../src/tensorflow_lite/src/tensorflow/lite/micro/mock_micro_graph.cpp **** namespace tflite {
  21:../src/tensorflow_lite/src/tensorflow/lite/micro/mock_micro_graph.cpp **** 
  22:../src/tensorflow_lite/src/tensorflow/lite/micro/mock_micro_graph.cpp **** MockMicroGraph::MockMicroGraph(SimpleMemoryAllocator* allocator)
  23:../src/tensorflow_lite/src/tensorflow/lite/micro/mock_micro_graph.cpp ****     : MicroGraph(nullptr, nullptr, nullptr),
  24:../src/tensorflow_lite/src/tensorflow/lite/micro/mock_micro_graph.cpp ****       allocator_(allocator),
  25:../src/tensorflow_lite/src/tensorflow/lite/micro/mock_micro_graph.cpp ****       init_count_(0),
  26:../src/tensorflow_lite/src/tensorflow/lite/micro/mock_micro_graph.cpp ****       prepare_count_(0),
  27:../src/tensorflow_lite/src/tensorflow/lite/micro/mock_micro_graph.cpp ****       free_count_(0) {
  28:../src/tensorflow_lite/src/tensorflow/lite/micro/mock_micro_graph.cpp ****   memset(invoke_counts_, 0, sizeof(invoke_counts_));
  29:../src/tensorflow_lite/src/tensorflow/lite/micro/mock_micro_graph.cpp ****   mock_tensor_ =
  30:../src/tensorflow_lite/src/tensorflow/lite/micro/mock_micro_graph.cpp ****       reinterpret_cast<TfLiteEvalTensor*>(allocator_->AllocateFromTail(
  31:../src/tensorflow_lite/src/tensorflow/lite/micro/mock_micro_graph.cpp ****           sizeof(TfLiteEvalTensor), alignof(TfLiteEvalTensor)));
  32:../src/tensorflow_lite/src/tensorflow/lite/micro/mock_micro_graph.cpp ****   int* dims_array = reinterpret_cast<int*>(
  33:../src/tensorflow_lite/src/tensorflow/lite/micro/mock_micro_graph.cpp ****       allocator_->AllocateFromTail(3 * sizeof(int), alignof(int)));
  34:../src/tensorflow_lite/src/tensorflow/lite/micro/mock_micro_graph.cpp ****   float* data_array = reinterpret_cast<float*>(
  35:../src/tensorflow_lite/src/tensorflow/lite/micro/mock_micro_graph.cpp ****       allocator_->AllocateFromTail(2 * sizeof(float), alignof(float)));
  36:../src/tensorflow_lite/src/tensorflow/lite/micro/mock_micro_graph.cpp ****   int dims[] = {2, 1, 2};
  37:../src/tensorflow_lite/src/tensorflow/lite/micro/mock_micro_graph.cpp ****   memcpy(dims_array, dims, 3 * sizeof(int));
  38:../src/tensorflow_lite/src/tensorflow/lite/micro/mock_micro_graph.cpp ****   mock_tensor_->dims = testing::IntArrayFromInts(dims_array);
  39:../src/tensorflow_lite/src/tensorflow/lite/micro/mock_micro_graph.cpp ****   mock_tensor_->data.f = data_array;
  40:../src/tensorflow_lite/src/tensorflow/lite/micro/mock_micro_graph.cpp ****   mock_tensor_->type = kTfLiteFloat32;
  41:../src/tensorflow_lite/src/tensorflow/lite/micro/mock_micro_graph.cpp **** }
  42:../src/tensorflow_lite/src/tensorflow/lite/micro/mock_micro_graph.cpp **** 
  43:../src/tensorflow_lite/src/tensorflow/lite/micro/mock_micro_graph.cpp **** TfLiteStatus MockMicroGraph::InvokeSubgraph(int subgraph_idx) {
  27              		.loc 1 43 0
  28              		.cfi_startproc
  29              		@ args = 0, pretend = 0, frame = 0
  30              		@ frame_needed = 0, uses_anonymous_args = 0
  31              		@ link register save eliminated.
  32              	.LVL0:
  33 0000 011180E0 		add	r1, r0, r1, lsl #2
  34              	.LVL1:
  44:../src/tensorflow_lite/src/tensorflow/lite/micro/mock_micro_graph.cpp ****   invoke_counts_[subgraph_idx]++;
  45:../src/tensorflow_lite/src/tensorflow/lite/micro/mock_micro_graph.cpp ****   return kTfLiteOk;
  46:../src/tensorflow_lite/src/tensorflow/lite/micro/mock_micro_graph.cpp **** }
  35              		.loc 1 46 0
  36 0004 0000A0E3 		mov	r0, #0
  37              	.LVL2:
  44:../src/tensorflow_lite/src/tensorflow/lite/micro/mock_micro_graph.cpp ****   invoke_counts_[subgraph_idx]++;
  38              		.loc 1 44 0
  39 0008 303091E5 		ldr	r3, [r1, #48]
  40 000c 013083E2 		add	r3, r3, #1
  41 0010 303081E5 		str	r3, [r1, #48]
  42              		.loc 1 46 0
  43 0014 1EFF2FE1 		bx	lr
  44              		.cfi_endproc
  45              	.LFE6883:
  46              		.cantunwind
  47              		.fnend
  49              		.section	.text._ZN6tflite14MockMicroGraph20ResetVariableTensorsEv,"ax",%progbits
  50              		.align	2
  51              		.global	_ZN6tflite14MockMicroGraph20ResetVariableTensorsEv
  52              		.syntax unified
  53              		.arm
  54              		.fpu neon
  56              	_ZN6tflite14MockMicroGraph20ResetVariableTensorsEv:
  57              		.fnstart
  58              	.LFB6884:
  47:../src/tensorflow_lite/src/tensorflow/lite/micro/mock_micro_graph.cpp **** 
  48:../src/tensorflow_lite/src/tensorflow/lite/micro/mock_micro_graph.cpp **** TfLiteStatus MockMicroGraph::ResetVariableTensors() { return kTfLiteOk; }
  59              		.loc 1 48 0
  60              		.cfi_startproc
  61              		@ args = 0, pretend = 0, frame = 0
  62              		@ frame_needed = 0, uses_anonymous_args = 0
  63              		@ link register save eliminated.
  64              	.LVL3:
  65              		.loc 1 48 0
  66 0000 0000A0E3 		mov	r0, #0
  67              	.LVL4:
  68 0004 1EFF2FE1 		bx	lr
  69              		.cfi_endproc
  70              	.LFE6884:
  71              		.cantunwind
  72              		.fnend
  74              		.section	.text._ZN6tflite14MockMicroGraph18NumSubgraphOutputsEi,"ax",%progbits
  75              		.align	2
  76              		.global	_ZN6tflite14MockMicroGraph18NumSubgraphOutputsEi
  77              		.syntax unified
  78              		.arm
  79              		.fpu neon
  81              	_ZN6tflite14MockMicroGraph18NumSubgraphOutputsEi:
  82              		.fnstart
  83              	.LFB6887:
  49:../src/tensorflow_lite/src/tensorflow/lite/micro/mock_micro_graph.cpp **** 
  50:../src/tensorflow_lite/src/tensorflow/lite/micro/mock_micro_graph.cpp **** size_t MockMicroGraph::NumSubgraphInputs(int subgraph_idx) { return 1; }
  51:../src/tensorflow_lite/src/tensorflow/lite/micro/mock_micro_graph.cpp **** 
  52:../src/tensorflow_lite/src/tensorflow/lite/micro/mock_micro_graph.cpp **** TfLiteEvalTensor* MockMicroGraph::GetSubgraphInput(int subgraph_idx,
  53:../src/tensorflow_lite/src/tensorflow/lite/micro/mock_micro_graph.cpp ****                                                    int tensor_idx) {
  54:../src/tensorflow_lite/src/tensorflow/lite/micro/mock_micro_graph.cpp ****   return mock_tensor_;
  55:../src/tensorflow_lite/src/tensorflow/lite/micro/mock_micro_graph.cpp **** }
  56:../src/tensorflow_lite/src/tensorflow/lite/micro/mock_micro_graph.cpp **** 
  57:../src/tensorflow_lite/src/tensorflow/lite/micro/mock_micro_graph.cpp **** size_t MockMicroGraph::NumSubgraphOutputs(int subgraph_idx) { return 1; }
  84              		.loc 1 57 0
  85              		.cfi_startproc
  86              		@ args = 0, pretend = 0, frame = 0
  87              		@ frame_needed = 0, uses_anonymous_args = 0
  88              		@ link register save eliminated.
  89              	.LVL5:
  90              		.loc 1 57 0
  91 0000 0100A0E3 		mov	r0, #1
  92              	.LVL6:
  93 0004 1EFF2FE1 		bx	lr
  94              		.cfi_endproc
  95              	.LFE6887:
  96              		.cantunwind
  97              		.fnend
  99              		.global	_ZN6tflite14MockMicroGraph17NumSubgraphInputsEi
 100              		.set	_ZN6tflite14MockMicroGraph17NumSubgraphInputsEi,_ZN6tflite14MockMicroGraph18NumSubgraphOutput
 101              		.section	.text._ZN6tflite14MockMicroGraph17GetSubgraphOutputEii,"ax",%progbits
 102              		.align	2
 103              		.global	_ZN6tflite14MockMicroGraph17GetSubgraphOutputEii
 104              		.syntax unified
 105              		.arm
 106              		.fpu neon
 108              	_ZN6tflite14MockMicroGraph17GetSubgraphOutputEii:
 109              		.fnstart
 110              	.LFB6888:
  58:../src/tensorflow_lite/src/tensorflow/lite/micro/mock_micro_graph.cpp **** 
  59:../src/tensorflow_lite/src/tensorflow/lite/micro/mock_micro_graph.cpp **** TfLiteEvalTensor* MockMicroGraph::GetSubgraphOutput(int subgraph_idx,
  60:../src/tensorflow_lite/src/tensorflow/lite/micro/mock_micro_graph.cpp ****                                                     int tensor_idx) {
 111              		.loc 1 60 0
 112              		.cfi_startproc
 113              		@ args = 0, pretend = 0, frame = 0
 114              		@ frame_needed = 0, uses_anonymous_args = 0
 115              		@ link register save eliminated.
 116              	.LVL7:
  61:../src/tensorflow_lite/src/tensorflow/lite/micro/mock_micro_graph.cpp ****   return mock_tensor_;
  62:../src/tensorflow_lite/src/tensorflow/lite/micro/mock_micro_graph.cpp **** }
 117              		.loc 1 62 0
 118 0000 200090E5 		ldr	r0, [r0, #32]
 119              	.LVL8:
 120 0004 1EFF2FE1 		bx	lr
 121              		.cfi_endproc
 122              	.LFE6888:
 123              		.cantunwind
 124              		.fnend
 126              		.global	_ZN6tflite14MockMicroGraph16GetSubgraphInputEii
 127              		.set	_ZN6tflite14MockMicroGraph16GetSubgraphInputEii,_ZN6tflite14MockMicroGraph17GetSubgraphOutput
 128              		.section	.text._ZN6tflite14MockMicroGraph12NumSubgraphsEv,"ax",%progbits
 129              		.align	2
 130              		.global	_ZN6tflite14MockMicroGraph12NumSubgraphsEv
 131              		.syntax unified
 132              		.arm
 133              		.fpu neon
 135              	_ZN6tflite14MockMicroGraph12NumSubgraphsEv:
 136              		.fnstart
 137              	.LFB6889:
  63:../src/tensorflow_lite/src/tensorflow/lite/micro/mock_micro_graph.cpp **** 
  64:../src/tensorflow_lite/src/tensorflow/lite/micro/mock_micro_graph.cpp **** int MockMicroGraph::NumSubgraphs() { return kMaxSubgraphs; }
 138              		.loc 1 64 0
 139              		.cfi_startproc
 140              		@ args = 0, pretend = 0, frame = 0
 141              		@ frame_needed = 0, uses_anonymous_args = 0
 142              		@ link register save eliminated.
 143              	.LVL9:
 144              		.loc 1 64 0
 145 0000 0A00A0E3 		mov	r0, #10
 146              	.LVL10:
 147 0004 1EFF2FE1 		bx	lr
 148              		.cfi_endproc
 149              	.LFE6889:
 150              		.cantunwind
 151              		.fnend
 153              		.section	.text._ZN6tflite14MockMicroGraphD2Ev,"axG",%progbits,_ZN6tflite14MockMicroGraphD5Ev,comda
 154              		.align	2
 155              		.weak	_ZN6tflite14MockMicroGraphD2Ev
 156              		.syntax unified
 157              		.arm
 158              		.fpu neon
 160              	_ZN6tflite14MockMicroGraphD2Ev:
 161              		.fnstart
 162              	.LFB11182:
 163              		.file 2 "C:/Renesas/e2studio_2021_01_workspace_RZA2M_ANPR/ANPR_RZA2M_GR_MANGO/src/tensorflow_lite/
   1:C:/Renesas/e2studio_2021_01_workspace_RZA2M_ANPR/ANPR_RZA2M_GR_MANGO/src/tensorflow_lite/src/tensorflow/lite/micro\mock_micro_graph.h **** /* Copyright 2021 The TensorFlow Authors. All Rights Reserved.
   2:C:/Renesas/e2studio_2021_01_workspace_RZA2M_ANPR/ANPR_RZA2M_GR_MANGO/src/tensorflow_lite/src/tensorflow/lite/micro\mock_micro_graph.h **** 
   3:C:/Renesas/e2studio_2021_01_workspace_RZA2M_ANPR/ANPR_RZA2M_GR_MANGO/src/tensorflow_lite/src/tensorflow/lite/micro\mock_micro_graph.h **** Licensed under the Apache License, Version 2.0 (the "License");
   4:C:/Renesas/e2studio_2021_01_workspace_RZA2M_ANPR/ANPR_RZA2M_GR_MANGO/src/tensorflow_lite/src/tensorflow/lite/micro\mock_micro_graph.h **** you may not use this file except in compliance with the License.
   5:C:/Renesas/e2studio_2021_01_workspace_RZA2M_ANPR/ANPR_RZA2M_GR_MANGO/src/tensorflow_lite/src/tensorflow/lite/micro\mock_micro_graph.h **** You may obtain a copy of the License at
   6:C:/Renesas/e2studio_2021_01_workspace_RZA2M_ANPR/ANPR_RZA2M_GR_MANGO/src/tensorflow_lite/src/tensorflow/lite/micro\mock_micro_graph.h **** 
   7:C:/Renesas/e2studio_2021_01_workspace_RZA2M_ANPR/ANPR_RZA2M_GR_MANGO/src/tensorflow_lite/src/tensorflow/lite/micro\mock_micro_graph.h ****     http://www.apache.org/licenses/LICENSE-2.0
   8:C:/Renesas/e2studio_2021_01_workspace_RZA2M_ANPR/ANPR_RZA2M_GR_MANGO/src/tensorflow_lite/src/tensorflow/lite/micro\mock_micro_graph.h **** 
   9:C:/Renesas/e2studio_2021_01_workspace_RZA2M_ANPR/ANPR_RZA2M_GR_MANGO/src/tensorflow_lite/src/tensorflow/lite/micro\mock_micro_graph.h **** Unless required by applicable law or agreed to in writing, software
  10:C:/Renesas/e2studio_2021_01_workspace_RZA2M_ANPR/ANPR_RZA2M_GR_MANGO/src/tensorflow_lite/src/tensorflow/lite/micro\mock_micro_graph.h **** distributed under the License is distributed on an "AS IS" BASIS,
  11:C:/Renesas/e2studio_2021_01_workspace_RZA2M_ANPR/ANPR_RZA2M_GR_MANGO/src/tensorflow_lite/src/tensorflow/lite/micro\mock_micro_graph.h **** WITHOUT WARRANTIES OR CONDITIONS OF ANY KIND, either express or implied.
  12:C:/Renesas/e2studio_2021_01_workspace_RZA2M_ANPR/ANPR_RZA2M_GR_MANGO/src/tensorflow_lite/src/tensorflow/lite/micro\mock_micro_graph.h **** See the License for the specific language governing permissions and
  13:C:/Renesas/e2studio_2021_01_workspace_RZA2M_ANPR/ANPR_RZA2M_GR_MANGO/src/tensorflow_lite/src/tensorflow/lite/micro\mock_micro_graph.h **** limitations under the License.
  14:C:/Renesas/e2studio_2021_01_workspace_RZA2M_ANPR/ANPR_RZA2M_GR_MANGO/src/tensorflow_lite/src/tensorflow/lite/micro\mock_micro_graph.h **** ==============================================================================*/
  15:C:/Renesas/e2studio_2021_01_workspace_RZA2M_ANPR/ANPR_RZA2M_GR_MANGO/src/tensorflow_lite/src/tensorflow/lite/micro\mock_micro_graph.h **** 
  16:C:/Renesas/e2studio_2021_01_workspace_RZA2M_ANPR/ANPR_RZA2M_GR_MANGO/src/tensorflow_lite/src/tensorflow/lite/micro\mock_micro_graph.h **** #ifndef TENSORFLOW_LITE_MICRO_MOCK_MICRO_GRAPH_H_
  17:C:/Renesas/e2studio_2021_01_workspace_RZA2M_ANPR/ANPR_RZA2M_GR_MANGO/src/tensorflow_lite/src/tensorflow/lite/micro\mock_micro_graph.h **** #define TENSORFLOW_LITE_MICRO_MOCK_MICRO_GRAPH_H_
  18:C:/Renesas/e2studio_2021_01_workspace_RZA2M_ANPR/ANPR_RZA2M_GR_MANGO/src/tensorflow_lite/src/tensorflow/lite/micro\mock_micro_graph.h **** 
  19:C:/Renesas/e2studio_2021_01_workspace_RZA2M_ANPR/ANPR_RZA2M_GR_MANGO/src/tensorflow_lite/src/tensorflow/lite/micro\mock_micro_graph.h **** #include "tensorflow/lite/c/common.h"
  20:C:/Renesas/e2studio_2021_01_workspace_RZA2M_ANPR/ANPR_RZA2M_GR_MANGO/src/tensorflow_lite/src/tensorflow/lite/micro\mock_micro_graph.h **** #include "tensorflow/lite/micro/micro_allocator.h"
  21:C:/Renesas/e2studio_2021_01_workspace_RZA2M_ANPR/ANPR_RZA2M_GR_MANGO/src/tensorflow_lite/src/tensorflow/lite/micro\mock_micro_graph.h **** #include "tensorflow/lite/micro/micro_graph.h"
  22:C:/Renesas/e2studio_2021_01_workspace_RZA2M_ANPR/ANPR_RZA2M_GR_MANGO/src/tensorflow_lite/src/tensorflow/lite/micro\mock_micro_graph.h **** #include "tensorflow/lite/schema/schema_generated.h"
  23:C:/Renesas/e2studio_2021_01_workspace_RZA2M_ANPR/ANPR_RZA2M_GR_MANGO/src/tensorflow_lite/src/tensorflow/lite/micro\mock_micro_graph.h **** 
  24:C:/Renesas/e2studio_2021_01_workspace_RZA2M_ANPR/ANPR_RZA2M_GR_MANGO/src/tensorflow_lite/src/tensorflow/lite/micro\mock_micro_graph.h **** namespace tflite {
  25:C:/Renesas/e2studio_2021_01_workspace_RZA2M_ANPR/ANPR_RZA2M_GR_MANGO/src/tensorflow_lite/src/tensorflow/lite/micro\mock_micro_graph.h **** 
  26:C:/Renesas/e2studio_2021_01_workspace_RZA2M_ANPR/ANPR_RZA2M_GR_MANGO/src/tensorflow_lite/src/tensorflow/lite/micro\mock_micro_graph.h **** // MockMicroGraph stubs out all MicroGraph methods used during invoke. A count
  27:C:/Renesas/e2studio_2021_01_workspace_RZA2M_ANPR/ANPR_RZA2M_GR_MANGO/src/tensorflow_lite/src/tensorflow/lite/micro\mock_micro_graph.h **** // of the number of calls to invoke for each subgraph is maintained for
  28:C:/Renesas/e2studio_2021_01_workspace_RZA2M_ANPR/ANPR_RZA2M_GR_MANGO/src/tensorflow_lite/src/tensorflow/lite/micro\mock_micro_graph.h **** // validation of control flow operators.
  29:C:/Renesas/e2studio_2021_01_workspace_RZA2M_ANPR/ANPR_RZA2M_GR_MANGO/src/tensorflow_lite/src/tensorflow/lite/micro\mock_micro_graph.h **** class MockMicroGraph : public MicroGraph {
 164              		.loc 2 29 0
 165              		.cfi_startproc
 166              		@ args = 0, pretend = 0, frame = 0
 167              		@ frame_needed = 0, uses_anonymous_args = 0
 168              	.LVL11:
 169              	.LBB5:
 170 0000 14309FE5 		ldr	r3, .L8
 171              	.LBE5:
 172 0004 10402DE9 		push	{r4, lr}
 173              		.cfi_def_cfa_offset 8
 174              		.cfi_offset 4, -8
 175              		.cfi_offset 14, -4
 176              		.loc 2 29 0
 177 0008 0040A0E1 		mov	r4, r0
 178              	.LBB6:
 179 000c 003080E5 		str	r3, [r0]
 180 0010 FEFFFFEB 		bl	_ZN6tflite10MicroGraphD2Ev
 181              	.LVL12:
 182              	.LBE6:
 183 0014 0400A0E1 		mov	r0, r4
 184 0018 1080BDE8 		pop	{r4, pc}
 185              	.L9:
 186              		.align	2
 187              	.L8:
 188 001c 08000000 		.word	.LANCHOR0+8
 189              		.cfi_endproc
 190              	.LFE11182:
 191              		.cantunwind
 192              		.fnend
 194              		.weak	_ZN6tflite14MockMicroGraphD1Ev
 195              		.set	_ZN6tflite14MockMicroGraphD1Ev,_ZN6tflite14MockMicroGraphD2Ev
 196              		.section	.text._ZN6tflite14MockMicroGraphD0Ev,"axG",%progbits,_ZN6tflite14MockMicroGraphD5Ev,comda
 197              		.align	2
 198              		.weak	_ZN6tflite14MockMicroGraphD0Ev
 199              		.syntax unified
 200              		.arm
 201              		.fpu neon
 203              	_ZN6tflite14MockMicroGraphD0Ev:
 204              		.fnstart
 205              	.LFB11184:
 206              		.loc 2 29 0
 207              		.cfi_startproc
 208              		@ args = 0, pretend = 0, frame = 0
 209              		@ frame_needed = 0, uses_anonymous_args = 0
 210              	.LVL13:
 211              	.LBB7:
 212              	.LBB8:
 213 0000 1C309FE5 		ldr	r3, .L12
 214              	.LBE8:
 215              	.LBE7:
 216 0004 10402DE9 		push	{r4, lr}
 217              		.cfi_def_cfa_offset 8
 218              		.cfi_offset 4, -8
 219              		.cfi_offset 14, -4
 220              		.loc 2 29 0
 221 0008 0040A0E1 		mov	r4, r0
 222              	.LVL14:
 223              	.LBB10:
 224              	.LBB9:
 225 000c 003080E5 		str	r3, [r0]
 226 0010 FEFFFFEB 		bl	_ZN6tflite10MicroGraphD2Ev
 227              	.LVL15:
 228              	.LBE9:
 229              	.LBE10:
 230 0014 0400A0E1 		mov	r0, r4
 231 0018 FEFFFFEB 		bl	_ZdlPv
 232              	.LVL16:
 233 001c 0400A0E1 		mov	r0, r4
 234 0020 1080BDE8 		pop	{r4, pc}
 235              	.L13:
 236              		.align	2
 237              	.L12:
 238 0024 08000000 		.word	.LANCHOR0+8
 239              		.cfi_endproc
 240              	.LFE11184:
 241              		.cantunwind
 242              		.fnend
 244              		.section	.text._ZN6tflite14MockMicroGraphC2EPNS_21SimpleMemoryAllocatorE,"ax",%progbits
 245              		.align	2
 246              		.global	_ZN6tflite14MockMicroGraphC2EPNS_21SimpleMemoryAllocatorE
 247              		.syntax unified
 248              		.arm
 249              		.fpu neon
 251              	_ZN6tflite14MockMicroGraphC2EPNS_21SimpleMemoryAllocatorE:
 252              		.fnstart
 253              	.LFB6881:
  22:../src/tensorflow_lite/src/tensorflow/lite/micro/mock_micro_graph.cpp ****     : MicroGraph(nullptr, nullptr, nullptr),
 254              		.loc 1 22 0
 255              		.cfi_startproc
 256              		.cfi_personality 0,__gxx_personality_v0
 257              		.cfi_lsda 0,.LLSDA6881
 258              		@ args = 0, pretend = 0, frame = 16
 259              		@ frame_needed = 0, uses_anonymous_args = 0
 260              	.LVL17:
 261              	.LBB11:
  27:../src/tensorflow_lite/src/tensorflow/lite/micro/mock_micro_graph.cpp ****   memset(invoke_counts_, 0, sizeof(invoke_counts_));
 262              		.loc 1 27 0
 263 0000 0030A0E3 		mov	r3, #0
 264              	.LBE11:
  22:../src/tensorflow_lite/src/tensorflow/lite/micro/mock_micro_graph.cpp ****     : MicroGraph(nullptr, nullptr, nullptr),
 265              		.loc 1 22 0
 266 0004 70402DE9 		push	{r4, r5, r6, lr}
 267              		.save {r4, r5, r6, lr}
 268              		.cfi_def_cfa_offset 16
 269              		.cfi_offset 4, -16
 270              		.cfi_offset 5, -12
 271              		.cfi_offset 6, -8
 272              		.cfi_offset 14, -4
 273              	.LBB17:
  27:../src/tensorflow_lite/src/tensorflow/lite/micro/mock_micro_graph.cpp ****   memset(invoke_counts_, 0, sizeof(invoke_counts_));
 274              		.loc 1 27 0
 275 0008 0320A0E1 		mov	r2, r3
 276              	.LBE17:
  22:../src/tensorflow_lite/src/tensorflow/lite/micro/mock_micro_graph.cpp ****     : MicroGraph(nullptr, nullptr, nullptr),
 277              		.loc 1 22 0
 278 000c 0150A0E1 		mov	r5, r1
 279              		.pad #16
 280 0010 10D04DE2 		sub	sp, sp, #16
 281              		.cfi_def_cfa_offset 32
 282              	.LBB18:
  27:../src/tensorflow_lite/src/tensorflow/lite/micro/mock_micro_graph.cpp ****   memset(invoke_counts_, 0, sizeof(invoke_counts_));
 283              		.loc 1 27 0
 284 0014 0310A0E1 		mov	r1, r3
 285              	.LVL18:
 286              	.LBE18:
  22:../src/tensorflow_lite/src/tensorflow/lite/micro/mock_micro_graph.cpp ****     : MicroGraph(nullptr, nullptr, nullptr),
 287              		.loc 1 22 0
 288 0018 0040A0E1 		mov	r4, r0
 289              	.LEHB0:
 290              	.LBB19:
  27:../src/tensorflow_lite/src/tensorflow/lite/micro/mock_micro_graph.cpp ****   memset(invoke_counts_, 0, sizeof(invoke_counts_));
 291              		.loc 1 27 0
 292 001c FEFFFFEB 		bl	_ZN6tflite10MicroGraphC2EP13TfLiteContextPKNS_5ModelEPNS_14MicroAllocatorE
 293              	.LVL19:
 294              	.LEHE0:
 295 0020 D8209FE5 		ldr	r2, .L22
 296 0024 0030A0E3 		mov	r3, #0
 297              	.LBB12:
  28:../src/tensorflow_lite/src/tensorflow/lite/micro/mock_micro_graph.cpp ****   mock_tensor_ =
 298              		.loc 1 28 0
 299 0028 0310A0E1 		mov	r1, r3
 300              	.LBE12:
  27:../src/tensorflow_lite/src/tensorflow/lite/micro/mock_micro_graph.cpp ****   memset(invoke_counts_, 0, sizeof(invoke_counts_));
 301              		.loc 1 27 0
 302 002c 243084E5 		str	r3, [r4, #36]
 303 0030 283084E5 		str	r3, [r4, #40]
 304              	.LBB13:
  28:../src/tensorflow_lite/src/tensorflow/lite/micro/mock_micro_graph.cpp ****   mock_tensor_ =
 305              		.loc 1 28 0
 306 0034 300084E2 		add	r0, r4, #48
 307              	.LBE13:
  27:../src/tensorflow_lite/src/tensorflow/lite/micro/mock_micro_graph.cpp ****   memset(invoke_counts_, 0, sizeof(invoke_counts_));
 308              		.loc 1 27 0
 309 0038 002084E5 		str	r2, [r4]
 310              	.LBB14:
  28:../src/tensorflow_lite/src/tensorflow/lite/micro/mock_micro_graph.cpp ****   mock_tensor_ =
 311              		.loc 1 28 0
 312 003c 2820A0E3 		mov	r2, #40
 313              	.LBE14:
  27:../src/tensorflow_lite/src/tensorflow/lite/micro/mock_micro_graph.cpp ****   memset(invoke_counts_, 0, sizeof(invoke_counts_));
 314              		.loc 1 27 0
 315 0040 2C3084E5 		str	r3, [r4, #44]
 316 0044 1C5084E5 		str	r5, [r4, #28]
 317              	.LBB15:
  28:../src/tensorflow_lite/src/tensorflow/lite/micro/mock_micro_graph.cpp ****   mock_tensor_ =
 318              		.loc 1 28 0
 319 0048 FEFFFFEB 		bl	memset
 320              	.LVL20:
  31:../src/tensorflow_lite/src/tensorflow/lite/micro/mock_micro_graph.cpp ****   int* dims_array = reinterpret_cast<int*>(
 321              		.loc 1 31 0
 322 004c 003095E5 		ldr	r3, [r5]
  30:../src/tensorflow_lite/src/tensorflow/lite/micro/mock_micro_graph.cpp ****           sizeof(TfLiteEvalTensor), alignof(TfLiteEvalTensor)));
 323              		.loc 1 30 0
 324 0050 0500A0E1 		mov	r0, r5
 325 0054 0420A0E3 		mov	r2, #4
 326 0058 0C10A0E3 		mov	r1, #12
 327 005c 0C3093E5 		ldr	r3, [r3, #12]
 328              	.LEHB1:
 329 0060 33FF2FE1 		blx	r3
 330              	.LVL21:
  33:../src/tensorflow_lite/src/tensorflow/lite/micro/mock_micro_graph.cpp ****   float* data_array = reinterpret_cast<float*>(
 331              		.loc 1 33 0
 332 0064 1C3094E5 		ldr	r3, [r4, #28]
 333 0068 0420A0E3 		mov	r2, #4
  29:../src/tensorflow_lite/src/tensorflow/lite/micro/mock_micro_graph.cpp ****       reinterpret_cast<TfLiteEvalTensor*>(allocator_->AllocateFromTail(
 334              		.loc 1 29 0
 335 006c 200084E5 		str	r0, [r4, #32]
  33:../src/tensorflow_lite/src/tensorflow/lite/micro/mock_micro_graph.cpp ****   float* data_array = reinterpret_cast<float*>(
 336              		.loc 1 33 0
 337 0070 0C10A0E3 		mov	r1, #12
 338 0074 00C093E5 		ldr	ip, [r3]
 339 0078 0300A0E1 		mov	r0, r3
 340 007c 0C309CE5 		ldr	r3, [ip, #12]
 341 0080 33FF2FE1 		blx	r3
 342              	.LVL22:
  33:../src/tensorflow_lite/src/tensorflow/lite/micro/mock_micro_graph.cpp ****   float* data_array = reinterpret_cast<float*>(
 343              		.loc 1 33 0 is_stmt 0 discriminator 1
 344 0084 0050A0E1 		mov	r5, r0
 345              	.LVL23:
  35:../src/tensorflow_lite/src/tensorflow/lite/micro/mock_micro_graph.cpp ****   int dims[] = {2, 1, 2};
 346              		.loc 1 35 0 is_stmt 1 discriminator 1
 347 0088 1C0094E5 		ldr	r0, [r4, #28]
 348              	.LVL24:
 349 008c 0420A0E3 		mov	r2, #4
 350 0090 0810A0E3 		mov	r1, #8
 351 0094 003090E5 		ldr	r3, [r0]
 352 0098 0C3093E5 		ldr	r3, [r3, #12]
 353 009c 33FF2FE1 		blx	r3
 354              	.LVL25:
  36:../src/tensorflow_lite/src/tensorflow/lite/micro/mock_micro_graph.cpp ****   memcpy(dims_array, dims, 3 * sizeof(int));
 355              		.loc 1 36 0 discriminator 1
 356 00a0 003000E3 		movw	r3, #:lower16:.LANCHOR1
  35:../src/tensorflow_lite/src/tensorflow/lite/micro/mock_micro_graph.cpp ****   int dims[] = {2, 1, 2};
 357              		.loc 1 35 0 discriminator 1
 358 00a4 0060A0E1 		mov	r6, r0
 359              	.LVL26:
  36:../src/tensorflow_lite/src/tensorflow/lite/micro/mock_micro_graph.cpp ****   memcpy(dims_array, dims, 3 * sizeof(int));
 360              		.loc 1 36 0 discriminator 1
 361 00a8 003040E3 		movt	r3, #:upper16:.LANCHOR1
 362 00ac 04C08DE2 		add	ip, sp, #4
 363 00b0 070093E8 		ldm	r3, {r0, r1, r2}
 364              	.LVL27:
 365 00b4 07008CE8 		stm	ip, {r0, r1, r2}
  37:../src/tensorflow_lite/src/tensorflow/lite/micro/mock_micro_graph.cpp ****   mock_tensor_->dims = testing::IntArrayFromInts(dims_array);
 366              		.loc 1 37 0 discriminator 1
 367 00b8 0500A0E1 		mov	r0, r5
 368 00bc 0C10A0E1 		mov	r1, ip
 369 00c0 0C20A0E3 		mov	r2, #12
 370 00c4 FEFFFFEB 		bl	memcpy
 371              	.LVL28:
  38:../src/tensorflow_lite/src/tensorflow/lite/micro/mock_micro_graph.cpp ****   mock_tensor_->data.f = data_array;
 372              		.loc 1 38 0 discriminator 1
 373 00c8 0500A0E1 		mov	r0, r5
 374 00cc 205094E5 		ldr	r5, [r4, #32]
 375              	.LVL29:
 376 00d0 FEFFFFEB 		bl	_ZN6tflite7testing16IntArrayFromIntsEPi
 377              	.LVL30:
 378              	.LEHE1:
  39:../src/tensorflow_lite/src/tensorflow/lite/micro/mock_micro_graph.cpp ****   mock_tensor_->type = kTfLiteFloat32;
 379              		.loc 1 39 0 discriminator 1
 380 00d4 203094E5 		ldr	r3, [r4, #32]
  40:../src/tensorflow_lite/src/tensorflow/lite/micro/mock_micro_graph.cpp **** }
 381              		.loc 1 40 0 discriminator 1
 382 00d8 0120A0E3 		mov	r2, #1
  38:../src/tensorflow_lite/src/tensorflow/lite/micro/mock_micro_graph.cpp ****   mock_tensor_->data.f = data_array;
 383              		.loc 1 38 0 discriminator 1
 384 00dc 040085E5 		str	r0, [r5, #4]
 385              	.LBE15:
 386              	.LBE19:
  41:../src/tensorflow_lite/src/tensorflow/lite/micro/mock_micro_graph.cpp **** 
 387              		.loc 1 41 0 discriminator 1
 388 00e0 0400A0E1 		mov	r0, r4
 389              	.LBB20:
 390              	.LBB16:
  39:../src/tensorflow_lite/src/tensorflow/lite/micro/mock_micro_graph.cpp ****   mock_tensor_->type = kTfLiteFloat32;
 391              		.loc 1 39 0 discriminator 1
 392 00e4 006083E5 		str	r6, [r3]
  40:../src/tensorflow_lite/src/tensorflow/lite/micro/mock_micro_graph.cpp **** }
 393              		.loc 1 40 0 discriminator 1
 394 00e8 0820C3E5 		strb	r2, [r3, #8]
 395              	.LBE16:
 396              	.LBE20:
  41:../src/tensorflow_lite/src/tensorflow/lite/micro/mock_micro_graph.cpp **** 
 397              		.loc 1 41 0 discriminator 1
 398 00ec 10D08DE2 		add	sp, sp, #16
 399              		.cfi_remember_state
 400              		.cfi_def_cfa_offset 16
 401              		@ sp needed
 402 00f0 7080BDE8 		pop	{r4, r5, r6, pc}
 403              	.LVL31:
 404              	.L16:
 405              		.cfi_restore_state
 406              	.LBB21:
  27:../src/tensorflow_lite/src/tensorflow/lite/micro/mock_micro_graph.cpp ****   memset(invoke_counts_, 0, sizeof(invoke_counts_));
 407              		.loc 1 27 0
 408 00f4 0400A0E1 		mov	r0, r4
 409 00f8 FEFFFFEB 		bl	_ZN6tflite10MicroGraphD2Ev
 410              	.LVL32:
 411              	.LEHB2:
 412 00fc FEFFFFEB 		bl	__cxa_end_cleanup
 413              	.LVL33:
 414              	.LEHE2:
 415              	.L23:
 416              		.align	2
 417              	.L22:
 418 0100 08000000 		.word	.LANCHOR0+8
 419              	.LBE21:
 420              		.cfi_endproc
 421              	.LFE6881:
 422              		.global	__gxx_personality_v0
 423              		.personality	__gxx_personality_v0
 424              		.handlerdata
 425              	.LLSDA6881:
 426 0008 FF       		.byte	0xff
 427 0009 FF       		.byte	0xff
 428 000a 01       		.byte	0x1
 429 000b 0E       		.uleb128 .LLSDACSE6881-.LLSDACSB6881
 430              	.LLSDACSB6881:
 431 000c 1C       		.uleb128 .LEHB0-.LFB6881
 432 000d 04       		.uleb128 .LEHE0-.LEHB0
 433 000e 00       		.uleb128 0
 434 000f 00       		.uleb128 0
 435 0010 60       		.uleb128 .LEHB1-.LFB6881
 436 0011 74       		.uleb128 .LEHE1-.LEHB1
 437 0012 F401     		.uleb128 .L16-.LFB6881
 438 0014 00       		.uleb128 0
 439 0015 FC01     		.uleb128 .LEHB2-.LFB6881
 440 0017 04       		.uleb128 .LEHE2-.LEHB2
 441 0018 00       		.uleb128 0
 442 0019 00       		.uleb128 0
 443              	.LLSDACSE6881:
 444              		.section	.text._ZN6tflite14MockMicroGraphC2EPNS_21SimpleMemoryAllocatorE
 445              		.fnend
 447              		.global	_ZN6tflite14MockMicroGraphC1EPNS_21SimpleMemoryAllocatorE
 448              		.set	_ZN6tflite14MockMicroGraphC1EPNS_21SimpleMemoryAllocatorE,_ZN6tflite14MockMicroGraphC2EPNS_21
 449              		.global	_ZTSN6tflite14MockMicroGraphE
 450              		.global	_ZTIN6tflite14MockMicroGraphE
 451              		.global	_ZTVN6tflite14MockMicroGraphE
 452              		.weak	_ZN11flatbuffers25flatbuffer_version_stringE
 453              		.section	.rodata
 454              		.align	2
 455              		.set	.LANCHOR1,. + 0
 456              	.LC0:
 457 0000 02000000 		.word	2
 458 0004 01000000 		.word	1
 459 0008 02000000 		.word	2
 460              		.section	.data._ZN11flatbuffers25flatbuffer_version_stringE,"aw",%progbits
 461              		.align	2
 464              	_ZN11flatbuffers25flatbuffer_version_stringE:
 465 0000 00000000 		.word	.LC1
 466              		.section	.rodata._ZTIN6tflite14MockMicroGraphE,"a",%progbits
 467              		.align	2
 470              	_ZTIN6tflite14MockMicroGraphE:
 471 0000 08000000 		.word	_ZTVN10__cxxabiv120__si_class_type_infoE+8
 472 0004 00000000 		.word	_ZTSN6tflite14MockMicroGraphE
 473 0008 00000000 		.word	_ZTIN6tflite10MicroGraphE
 474              		.section	.rodata._ZTSN6tflite14MockMicroGraphE,"a",%progbits
 475              		.align	3
 478              	_ZTSN6tflite14MockMicroGraphE:
 479 0000 4E367466 		.ascii	"N6tflite14MockMicroGraphE\000"
 479      6C697465 
 479      31344D6F 
 479      636B4D69 
 479      63726F47 
 480              		.section	.rodata._ZTVN6tflite14MockMicroGraphE,"a",%progbits
 481              		.align	3
 482              		.set	.LANCHOR0,. + 0
 485              	_ZTVN6tflite14MockMicroGraphE:
 486 0000 00000000 		.word	0
 487 0004 00000000 		.word	_ZTIN6tflite14MockMicroGraphE
 488 0008 00000000 		.word	_ZN6tflite14MockMicroGraphD1Ev
 489 000c 00000000 		.word	_ZN6tflite14MockMicroGraphD0Ev
 490 0010 00000000 		.word	_ZN6tflite10MicroGraph13InitSubgraphsEv
 491 0014 00000000 		.word	_ZN6tflite10MicroGraph16PrepareSubgraphsEv
 492 0018 00000000 		.word	_ZN6tflite10MicroGraph13FreeSubgraphsEv
 493 001c 00000000 		.word	_ZN6tflite14MockMicroGraph14InvokeSubgraphEi
 494 0020 00000000 		.word	_ZN6tflite14MockMicroGraph20ResetVariableTensorsEv
 495 0024 00000000 		.word	_ZN6tflite14MockMicroGraph17NumSubgraphInputsEi
 496 0028 00000000 		.word	_ZN6tflite14MockMicroGraph16GetSubgraphInputEii
 497 002c 00000000 		.word	_ZN6tflite14MockMicroGraph18NumSubgraphOutputsEi
 498 0030 00000000 		.word	_ZN6tflite14MockMicroGraph17GetSubgraphOutputEii
 499 0034 00000000 		.word	_ZN6tflite14MockMicroGraph12NumSubgraphsEv
 500              		.section	.rodata.str1.4,"aMS",%progbits,1
 501              		.align	2
 502              	.LC1:
 503 0000 466C6174 		.ascii	"FlatBuffers 1.12.0\000"
 503      42756666 
 503      65727320 
 503      312E3132 
 503      2E3000
 504              		.text
 505              	.Letext0:
 506              		.file 3 "c:\\program files (x86)\\gnu tools arm embedded\\6 2017-q2-update\\lib\\gcc\\arm-none-eab
 507              		.file 4 "c:\\program files (x86)\\gnu tools arm embedded\\6 2017-q2-update\\arm-none-eabi\\include
 508              		.file 5 "c:\\program files (x86)\\gnu tools arm embedded\\6 2017-q2-update\\arm-none-eabi\\include
 509              		.file 6 "c:\\program files (x86)\\gnu tools arm embedded\\6 2017-q2-update\\arm-none-eabi\\include
 510              		.file 7 "C:/Renesas/e2studio_2021_01_workspace_RZA2M_ANPR/ANPR_RZA2M_GR_MANGO/src/tensorflow_lite/
 511              		.file 8 "C:/Renesas/e2studio_2021_01_workspace_RZA2M_ANPR/ANPR_RZA2M_GR_MANGO/src/tensorflow_lite/
 512              		.file 9 "c:\\program files (x86)\\gnu tools arm embedded\\6 2017-q2-update\\arm-none-eabi\\include
 513              		.file 10 "c:\\program files (x86)\\gnu tools arm embedded\\6 2017-q2-update\\arm-none-eabi\\includ
 514              		.file 11 "c:\\program files (x86)\\gnu tools arm embedded\\6 2017-q2-update\\arm-none-eabi\\includ
 515              		.file 12 "c:\\program files (x86)\\gnu tools arm embedded\\6 2017-q2-update\\arm-none-eabi\\includ
 516              		.file 13 "c:\\program files (x86)\\gnu tools arm embedded\\6 2017-q2-update\\arm-none-eabi\\includ
 517              		.file 14 "c:\\program files (x86)\\gnu tools arm embedded\\6 2017-q2-update\\arm-none-eabi\\includ
 518              		.file 15 "c:\\program files (x86)\\gnu tools arm embedded\\6 2017-q2-update\\arm-none-eabi\\includ
 519              		.file 16 "c:\\program files (x86)\\gnu tools arm embedded\\6 2017-q2-update\\arm-none-eabi\\includ
 520              		.file 17 "c:\\program files (x86)\\gnu tools arm embedded\\6 2017-q2-update\\arm-none-eabi\\includ
 521              		.file 18 "c:\\program files (x86)\\gnu tools arm embedded\\6 2017-q2-update\\arm-none-eabi\\includ
 522              		.file 19 "c:\\program files (x86)\\gnu tools arm embedded\\6 2017-q2-update\\arm-none-eabi\\includ
 523              		.file 20 "c:\\program files (x86)\\gnu tools arm embedded\\6 2017-q2-update\\arm-none-eabi\\includ
 524              		.file 21 "c:\\program files (x86)\\gnu tools arm embedded\\6 2017-q2-update\\arm-none-eabi\\includ
 525              		.file 22 "c:\\program files (x86)\\gnu tools arm embedded\\6 2017-q2-update\\arm-none-eabi\\includ
 526              		.file 23 "c:\\program files (x86)\\gnu tools arm embedded\\6 2017-q2-update\\arm-none-eabi\\includ
 527              		.file 24 "c:\\program files (x86)\\gnu tools arm embedded\\6 2017-q2-update\\arm-none-eabi\\includ
 528              		.file 25 "c:\\program files (x86)\\gnu tools arm embedded\\6 2017-q2-update\\arm-none-eabi\\includ
 529              		.file 26 "c:\\program files (x86)\\gnu tools arm embedded\\6 2017-q2-update\\arm-none-eabi\\includ
 530              		.file 27 "c:\\program files (x86)\\gnu tools arm embedded\\6 2017-q2-update\\arm-none-eabi\\includ
 531              		.file 28 "c:\\program files (x86)\\gnu tools arm embedded\\6 2017-q2-update\\arm-none-eabi\\includ
 532              		.file 29 "c:\\program files (x86)\\gnu tools arm embedded\\6 2017-q2-update\\arm-none-eabi\\includ
 533              		.file 30 "c:\\program files (x86)\\gnu tools arm embedded\\6 2017-q2-update\\arm-none-eabi\\includ
 534              		.file 31 "c:\\program files (x86)\\gnu tools arm embedded\\6 2017-q2-update\\arm-none-eabi\\includ
 535              		.file 32 "c:\\program files (x86)\\gnu tools arm embedded\\6 2017-q2-update\\arm-none-eabi\\includ
 536              		.file 33 "c:\\program files (x86)\\gnu tools arm embedded\\6 2017-q2-update\\arm-none-eabi\\includ
 537              		.file 34 "c:\\program files (x86)\\gnu tools arm embedded\\6 2017-q2-update\\arm-none-eabi\\includ
 538              		.file 35 "c:\\program files (x86)\\gnu tools arm embedded\\6 2017-q2-update\\arm-none-eabi\\includ
 539              		.file 36 "c:\\program files (x86)\\gnu tools arm embedded\\6 2017-q2-update\\arm-none-eabi\\includ
 540              		.file 37 "c:\\program files (x86)\\gnu tools arm embedded\\6 2017-q2-update\\arm-none-eabi\\includ
 541              		.file 38 "c:\\program files (x86)\\gnu tools arm embedded\\6 2017-q2-update\\arm-none-eabi\\includ
 542              		.file 39 "c:\\program files (x86)\\gnu tools arm embedded\\6 2017-q2-update\\arm-none-eabi\\includ
 543              		.file 40 "c:\\program files (x86)\\gnu tools arm embedded\\6 2017-q2-update\\arm-none-eabi\\includ
 544              		.file 41 "c:\\program files (x86)\\gnu tools arm embedded\\6 2017-q2-update\\lib\\gcc\\arm-none-ea
 545              		.file 42 "<built-in>"
 546              		.file 43 "c:\\program files (x86)\\gnu tools arm embedded\\6 2017-q2-update\\arm-none-eabi\\includ
 547              		.file 44 "c:\\program files (x86)\\gnu tools arm embedded\\6 2017-q2-update\\arm-none-eabi\\includ
 548              		.file 45 "c:\\program files (x86)\\gnu tools arm embedded\\6 2017-q2-update\\arm-none-eabi\\includ
 549              		.file 46 "c:\\program files (x86)\\gnu tools arm embedded\\6 2017-q2-update\\arm-none-eabi\\includ
 550              		.file 47 "c:\\program files (x86)\\gnu tools arm embedded\\6 2017-q2-update\\arm-none-eabi\\includ
 551              		.file 48 "c:\\program files (x86)\\gnu tools arm embedded\\6 2017-q2-update\\arm-none-eabi\\includ
 552              		.file 49 "C:/Renesas/e2studio_2021_01_workspace_RZA2M_ANPR/ANPR_RZA2M_GR_MANGO/src/tensorflow_lite
 553              		.file 50 "C:/Renesas/e2studio_2021_01_workspace_RZA2M_ANPR/ANPR_RZA2M_GR_MANGO/src/tensorflow_lite
 554              		.file 51 "C:/Renesas/e2studio_2021_01_workspace_RZA2M_ANPR/ANPR_RZA2M_GR_MANGO/src/tensorflow_lite
 555              		.file 52 "C:/Renesas/e2studio_2021_01_workspace_RZA2M_ANPR/ANPR_RZA2M_GR_MANGO/src/tensorflow_lite
 556              		.file 53 "C:/Renesas/e2studio_2021_01_workspace_RZA2M_ANPR/ANPR_RZA2M_GR_MANGO/src/tensorflow_lite
 557              		.file 54 "C:/Renesas/e2studio_2021_01_workspace_RZA2M_ANPR/ANPR_RZA2M_GR_MANGO/src/tensorflow_lite
 558              		.file 55 "C:/Renesas/e2studio_2021_01_workspace_RZA2M_ANPR/ANPR_RZA2M_GR_MANGO/src/tensorflow_lite
 559              		.file 56 "c:\\program files (x86)\\gnu tools arm embedded\\6 2017-q2-update\\arm-none-eabi\\includ