   1              		.cpu cortex-a9
   2              		.eabi_attribute 28, 1
   3              		.eabi_attribute 20, 1
   4              		.eabi_attribute 21, 1
   5              		.eabi_attribute 23, 3
   6              		.eabi_attribute 24, 1
   7              		.eabi_attribute 25, 1
   8              		.eabi_attribute 26, 1
   9              		.eabi_attribute 30, 2
  10              		.eabi_attribute 34, 0
  11              		.eabi_attribute 18, 4
  12              		.file	"tensorflowlite_PTQ_dnn_compute.cc"
  13              		.section	.text._ZN6tflite18MicroErrorReporterD2Ev,"axG",%progbits,_ZN6tflite18MicroErrorReporterD5
  14              		.align	2
  15              		.weak	_ZN6tflite18MicroErrorReporterD2Ev
  16              		.syntax unified
  17              		.arm
  18              		.fpu neon
  20              	_ZN6tflite18MicroErrorReporterD2Ev:
  21              		.fnstart
  22              	.LFB229:
  23              		@ args = 0, pretend = 0, frame = 0
  24              		@ frame_needed = 0, uses_anonymous_args = 0
  25              		@ link register save eliminated.
  26 0000 1EFF2FE1 		bx	lr
  27              		.cantunwind
  28              		.fnend
  30              		.weak	_ZN6tflite18MicroErrorReporterD1Ev
  31              		.set	_ZN6tflite18MicroErrorReporterD1Ev,_ZN6tflite18MicroErrorReporterD2Ev
  32              		.section	.text._ZNK6tflite10OpResolver12GetDelegatesEi,"axG",%progbits,_ZNK6tflite10OpResolver12Ge
  33              		.align	2
  34              		.weak	_ZNK6tflite10OpResolver12GetDelegatesEi
  35              		.syntax unified
  36              		.arm
  37              		.fpu neon
  39              	_ZNK6tflite10OpResolver12GetDelegatesEi:
  40              		.fnstart
  41              	.LFB6911:
  42              		@ args = 0, pretend = 0, frame = 0
  43              		@ frame_needed = 0, uses_anonymous_args = 0
  44              		@ link register save eliminated.
  45 0000 0020A0E3 		mov	r2, #0
  46 0004 002080E5 		str	r2, [r0]
  47 0008 042080E5 		str	r2, [r0, #4]
  48 000c 082080E5 		str	r2, [r0, #8]
  49 0010 1EFF2FE1 		bx	lr
  50              		.cantunwind
  51              		.fnend
  53              		.section	.text._ZNK6tflite10OpResolver24MayContainUserDefinedOpsEv,"axG",%progbits,_ZNK6tflite10Op
  54              		.align	2
  55              		.weak	_ZNK6tflite10OpResolver24MayContainUserDefinedOpsEv
  56              		.syntax unified
  57              		.arm
  58              		.fpu neon
  60              	_ZNK6tflite10OpResolver24MayContainUserDefinedOpsEv:
  61              		.fnstart
  62              	.LFB6916:
  63              		@ args = 0, pretend = 0, frame = 0
  64              		@ frame_needed = 0, uses_anonymous_args = 0
  65              		@ link register save eliminated.
  66 0000 0100A0E3 		mov	r0, #1
  67 0004 1EFF2FE1 		bx	lr
  68              		.cantunwind
  69              		.fnend
  71              		.section	.text._ZNK6tflite22MicroMutableOpResolverILj5EE6FindOpENS_15BuiltinOperatorE,"axG",%progb
  72              		.align	2
  73              		.weak	_ZNK6tflite22MicroMutableOpResolverILj5EE6FindOpENS_15BuiltinOperatorE
  74              		.syntax unified
  75              		.arm
  76              		.fpu neon
  78              	_ZNK6tflite22MicroMutableOpResolverILj5EE6FindOpENS_15BuiltinOperatorE:
  79              		.fnstart
  80              	.LFB10155:
  81              		@ args = 0, pretend = 0, frame = 0
  82              		@ frame_needed = 0, uses_anonymous_args = 0
  83              		@ link register save eliminated.
  84 0000 200051E3 		cmp	r1, #32
  85 0004 1900000A 		beq	.L16
  86 0008 A43090E5 		ldr	r3, [r0, #164]
  87 000c 000053E3 		cmp	r3, #0
  88 0010 1600000A 		beq	.L16
  89 0014 182090E5 		ldr	r2, [r0, #24]
  90 0018 010052E1 		cmp	r2, r1
  91 001c 1700000A 		beq	.L18
  92 0020 010053E3 		cmp	r3, #1
  93 0024 1100009A 		bls	.L16
  94 0028 382090E5 		ldr	r2, [r0, #56]
  95 002c 020051E1 		cmp	r1, r2
  96 0030 1800000A 		beq	.L11
  97 0034 020053E3 		cmp	r3, #2
  98 0038 0C00000A 		beq	.L16
  99 003c 582090E5 		ldr	r2, [r0, #88]
 100 0040 020051E1 		cmp	r1, r2
 101 0044 1100000A 		beq	.L13
 102 0048 030053E3 		cmp	r3, #3
 103 004c 0700000A 		beq	.L16
 104 0050 782090E5 		ldr	r2, [r0, #120]
 105 0054 020051E1 		cmp	r1, r2
 106 0058 0A00000A 		beq	.L15
 107 005c 040053E3 		cmp	r3, #4
 108 0060 0200000A 		beq	.L16
 109 0064 983090E5 		ldr	r3, [r0, #152]
 110 0068 030051E1 		cmp	r1, r3
 111 006c 0100000A 		beq	.L20
 112              	.L16:
 113 0070 0000A0E3 		mov	r0, #0
 114 0074 1EFF2FE1 		bx	lr
 115              	.L20:
 116 0078 0430A0E3 		mov	r3, #4
 117              	.L7:
 118 007c 830280E0 		add	r0, r0, r3, lsl #5
 119              	.L18:
 120 0080 040080E2 		add	r0, r0, #4
 121 0084 1EFF2FE1 		bx	lr
 122              	.L15:
 123 0088 0330A0E3 		mov	r3, #3
 124 008c FAFFFFEA 		b	.L7
 125              	.L13:
 126 0090 0230A0E3 		mov	r3, #2
 127 0094 F8FFFFEA 		b	.L7
 128              	.L11:
 129 0098 0130A0E3 		mov	r3, #1
 130 009c F6FFFFEA 		b	.L7
 131              		.cantunwind
 132              		.fnend
 134              		.section	.text._ZN6tflite22MicroMutableOpResolverILj5EED2Ev,"axG",%progbits,_ZN6tflite22MicroMutab
 135              		.align	2
 136              		.weak	_ZN6tflite22MicroMutableOpResolverILj5EED2Ev
 137              		.syntax unified
 138              		.arm
 139              		.fpu neon
 141              	_ZN6tflite22MicroMutableOpResolverILj5EED2Ev:
 142              		.fnstart
 143              	.LFB11517:
 144              		@ args = 0, pretend = 0, frame = 0
 145              		@ frame_needed = 0, uses_anonymous_args = 0
 146              		@ link register save eliminated.
 147 0000 1EFF2FE1 		bx	lr
 148              		.cantunwind
 149              		.fnend
 151              		.weak	_ZN6tflite22MicroMutableOpResolverILj5EED1Ev
 152              		.set	_ZN6tflite22MicroMutableOpResolverILj5EED1Ev,_ZN6tflite22MicroMutableOpResolverILj5EED2Ev
 153              		.section	.text._ZN6tflite13MicroProfilerD2Ev,"axG",%progbits,_ZN6tflite13MicroProfilerD5Ev,comdat
 154              		.align	2
 155              		.weak	_ZN6tflite13MicroProfilerD2Ev
 156              		.syntax unified
 157              		.arm
 158              		.fpu neon
 160              	_ZN6tflite13MicroProfilerD2Ev:
 161              		.fnstart
 162              	.LFB11533:
 163              		@ args = 0, pretend = 0, frame = 0
 164              		@ frame_needed = 0, uses_anonymous_args = 0
 165              		@ link register save eliminated.
 166 0000 1EFF2FE1 		bx	lr
 167              		.cantunwind
 168              		.fnend
 170              		.weak	_ZN6tflite13MicroProfilerD1Ev
 171              		.set	_ZN6tflite13MicroProfilerD1Ev,_ZN6tflite13MicroProfilerD2Ev
 172              		.section	.text._ZNK6tflite22MicroMutableOpResolverILj5EE15GetOpDataParserENS_15BuiltinOperatorE,"a
 173              		.align	2
 174              		.weak	_ZNK6tflite22MicroMutableOpResolverILj5EE15GetOpDataParserENS_15BuiltinOperatorE
 175              		.syntax unified
 176              		.arm
 177              		.fpu neon
 179              	_ZNK6tflite22MicroMutableOpResolverILj5EE15GetOpDataParserENS_15BuiltinOperatorE:
 180              		.fnstart
 181              	.LFB11537:
 182              		@ args = 0, pretend = 0, frame = 0
 183              		@ frame_needed = 0, uses_anonymous_args = 0
 184 0000 C43090E5 		ldr	r3, [r0, #196]
 185 0004 050053E3 		cmp	r3, #5
 186 0008 2600008A 		bhi	.L24
 187 000c 000053E3 		cmp	r3, #0
 188 0010 1600000A 		beq	.L38
 189 0014 A820D0E5 		ldrb	r2, [r0, #168]	@ zero_extendqisi2
 190 0018 010052E1 		cmp	r2, r1
 191 001c 1500000A 		beq	.L45
 192 0020 010053E3 		cmp	r3, #1
 193 0024 1100000A 		beq	.L38
 194 0028 A920D0E5 		ldrb	r2, [r0, #169]	@ zero_extendqisi2
 195 002c 010052E1 		cmp	r2, r1
 196 0030 1A00000A 		beq	.L33
 197 0034 020053E3 		cmp	r3, #2
 198 0038 0C00000A 		beq	.L38
 199 003c AA20D0E5 		ldrb	r2, [r0, #170]	@ zero_extendqisi2
 200 0040 010052E1 		cmp	r2, r1
 201 0044 1300000A 		beq	.L35
 202 0048 030053E3 		cmp	r3, #3
 203 004c 0700000A 		beq	.L38
 204 0050 AB20D0E5 		ldrb	r2, [r0, #171]	@ zero_extendqisi2
 205 0054 010052E1 		cmp	r2, r1
 206 0058 0C00000A 		beq	.L37
 207 005c 040053E3 		cmp	r3, #4
 208 0060 0200000A 		beq	.L38
 209 0064 AC30D0E5 		ldrb	r3, [r0, #172]	@ zero_extendqisi2
 210 0068 010053E1 		cmp	r3, r1
 211 006c 0500000A 		beq	.L39
 212              	.L38:
 213 0070 0000A0E3 		mov	r0, #0
 214 0074 1EFF2FE1 		bx	lr
 215              	.L45:
 216 0078 0030A0E3 		mov	r3, #0
 217              	.L27:
 218 007c 2C3083E2 		add	r3, r3, #44
 219 0080 030190E7 		ldr	r0, [r0, r3, lsl #2]
 220 0084 1EFF2FE1 		bx	lr
 221              	.L39:
 222 0088 0430A0E3 		mov	r3, #4
 223 008c FAFFFFEA 		b	.L27
 224              	.L37:
 225 0090 0330A0E3 		mov	r3, #3
 226 0094 F8FFFFEA 		b	.L27
 227              	.L35:
 228 0098 0230A0E3 		mov	r3, #2
 229 009c F6FFFFEA 		b	.L27
 230              	.L33:
 231 00a0 0130A0E3 		mov	r3, #1
 232 00a4 F4FFFFEA 		b	.L27
 233              	.L24:
 234 00a8 10402DE9 		push	{r4, lr}
 235              		.save {r4, lr}
 236 00ac FEFFFFEB 		bl	abort
 237              		.fnend
 239              		.section	.text._ZNK6tflite22MicroMutableOpResolverILj5EE6FindOpEPKc,"axG",%progbits,_ZNK6tflite22M
 240              		.align	2
 241              		.weak	_ZNK6tflite22MicroMutableOpResolverILj5EE6FindOpEPKc
 242              		.syntax unified
 243              		.arm
 244              		.fpu neon
 246              	_ZNK6tflite22MicroMutableOpResolverILj5EE6FindOpEPKc:
 247              		.fnstart
 248              	.LFB11536:
 249              		@ args = 0, pretend = 0, frame = 0
 250              		@ frame_needed = 0, uses_anonymous_args = 0
 251 0000 70402DE9 		push	{r4, r5, r6, lr}
 252 0004 A45090E5 		ldr	r5, [r0, #164]
 253 0008 000055E3 		cmp	r5, #0
 254 000c 1800000A 		beq	.L63
 255 0010 183090E5 		ldr	r3, [r0, #24]
 256 0014 0160A0E1 		mov	r6, r1
 257 0018 0040A0E1 		mov	r4, r0
 258 001c 200053E3 		cmp	r3, #32
 259 0020 1500000A 		beq	.L65
 260              	.L48:
 261 0024 010055E3 		cmp	r5, #1
 262 0028 1100009A 		bls	.L63
 263 002c 383094E5 		ldr	r3, [r4, #56]
 264 0030 200053E3 		cmp	r3, #32
 265 0034 2D00000A 		beq	.L66
 266              	.L50:
 267 0038 020055E3 		cmp	r5, #2
 268 003c 0C00000A 		beq	.L63
 269 0040 583094E5 		ldr	r3, [r4, #88]
 270 0044 200053E3 		cmp	r3, #32
 271 0048 2100000A 		beq	.L67
 272              	.L51:
 273 004c 030055E3 		cmp	r5, #3
 274 0050 0700000A 		beq	.L63
 275 0054 783094E5 		ldr	r3, [r4, #120]
 276 0058 200053E3 		cmp	r3, #32
 277 005c 1500000A 		beq	.L68
 278              	.L52:
 279 0060 040055E3 		cmp	r5, #4
 280 0064 0200000A 		beq	.L63
 281 0068 983094E5 		ldr	r3, [r4, #152]
 282 006c 200053E3 		cmp	r3, #32
 283 0070 0800000A 		beq	.L69
 284              	.L63:
 285 0074 0000A0E3 		mov	r0, #0
 286 0078 7080BDE8 		pop	{r4, r5, r6, pc}
 287              	.L65:
 288 007c 1C0090E5 		ldr	r0, [r0, #28]
 289 0080 FEFFFFEB 		bl	strcmp
 290 0084 003050E2 		subs	r3, r0, #0
 291 0088 E5FFFF1A 		bne	.L48
 292              	.L49:
 293 008c 834284E0 		add	r4, r4, r3, lsl #5
 294 0090 040084E2 		add	r0, r4, #4
 295 0094 7080BDE8 		pop	{r4, r5, r6, pc}
 296              	.L69:
 297 0098 0610A0E1 		mov	r1, r6
 298 009c 9C0094E5 		ldr	r0, [r4, #156]
 299 00a0 FEFFFFEB 		bl	strcmp
 300 00a4 000050E3 		cmp	r0, #0
 301 00a8 0430A003 		moveq	r3, #4
 302 00ac F6FFFF0A 		beq	.L49
 303 00b0 0000A0E3 		mov	r0, #0
 304 00b4 7080BDE8 		pop	{r4, r5, r6, pc}
 305              	.L68:
 306 00b8 0610A0E1 		mov	r1, r6
 307 00bc 7C0094E5 		ldr	r0, [r4, #124]
 308 00c0 FEFFFFEB 		bl	strcmp
 309 00c4 000050E3 		cmp	r0, #0
 310 00c8 E4FFFF1A 		bne	.L52
 311 00cc 0330A0E3 		mov	r3, #3
 312 00d0 EDFFFFEA 		b	.L49
 313              	.L67:
 314 00d4 0610A0E1 		mov	r1, r6
 315 00d8 5C0094E5 		ldr	r0, [r4, #92]
 316 00dc FEFFFFEB 		bl	strcmp
 317 00e0 000050E3 		cmp	r0, #0
 318 00e4 D8FFFF1A 		bne	.L51
 319 00e8 0230A0E3 		mov	r3, #2
 320 00ec E6FFFFEA 		b	.L49
 321              	.L66:
 322 00f0 0610A0E1 		mov	r1, r6
 323 00f4 3C0094E5 		ldr	r0, [r4, #60]
 324 00f8 FEFFFFEB 		bl	strcmp
 325 00fc 000050E3 		cmp	r0, #0
 326 0100 CCFFFF1A 		bne	.L50
 327 0104 0130A0E3 		mov	r3, #1
 328 0108 DFFFFFEA 		b	.L49
 329              		.cantunwind
 330              		.fnend
 332              		.section	.text._ZN6tflite22MicroMutableOpResolverILj5EED0Ev,"axG",%progbits,_ZN6tflite22MicroMutab
 333              		.align	2
 334              		.weak	_ZN6tflite22MicroMutableOpResolverILj5EED0Ev
 335              		.syntax unified
 336              		.arm
 337              		.fpu neon
 339              	_ZN6tflite22MicroMutableOpResolverILj5EED0Ev:
 340              		.fnstart
 341              	.LFB11519:
 342              		@ args = 0, pretend = 0, frame = 0
 343              		@ frame_needed = 0, uses_anonymous_args = 0
 344 0000 10402DE9 		push	{r4, lr}
 345 0004 CC10A0E3 		mov	r1, #204
 346 0008 0040A0E1 		mov	r4, r0
 347 000c FEFFFFEB 		bl	_ZdlPvj
 348 0010 0400A0E1 		mov	r0, r4
 349 0014 1080BDE8 		pop	{r4, pc}
 350              		.cantunwind
 351              		.fnend
 353              		.section	.text._ZNK6tflite15MicroOpResolver6FindOpENS_15BuiltinOperatorEi,"axG",%progbits,_ZNK6tfl
 354              		.align	2
 355              		.weak	_ZNK6tflite15MicroOpResolver6FindOpENS_15BuiltinOperatorEi
 356              		.syntax unified
 357              		.arm
 358              		.fpu neon
 360              	_ZNK6tflite15MicroOpResolver6FindOpENS_15BuiltinOperatorEi:
 361              		.fnstart
 362              	.LFB6917:
 363              		@ args = 0, pretend = 0, frame = 0
 364              		@ frame_needed = 0, uses_anonymous_args = 0
 365 0000 04E02DE5 		str	lr, [sp, #-4]!
 366 0004 00C000E3 		movw	ip, #:lower16:_ZNK6tflite22MicroMutableOpResolverILj5EE6FindOpENS_15BuiltinOperatorE
 367 0008 00E090E5 		ldr	lr, [r0]
 368 000c 00C040E3 		movt	ip, #:upper16:_ZNK6tflite22MicroMutableOpResolverILj5EE6FindOpENS_15BuiltinOperatorE
 369 0010 18E09EE5 		ldr	lr, [lr, #24]
 370 0014 0C005EE1 		cmp	lr, ip
 371 0018 2300001A 		bne	.L73
 372 001c 200051E3 		cmp	r1, #32
 373 0020 0120A0E1 		mov	r2, r1
 374 0024 1A00000A 		beq	.L85
 375 0028 0030A0E1 		mov	r3, r0
 376 002c A40090E5 		ldr	r0, [r0, #164]
 377 0030 000050E3 		cmp	r0, #0
 378 0034 04F09D04 		ldreq	pc, [sp], #4
 379 0038 181093E5 		ldr	r1, [r3, #24]
 380 003c 010052E1 		cmp	r2, r1
 381 0040 1700000A 		beq	.L88
 382 0044 010050E3 		cmp	r0, #1
 383 0048 1100009A 		bls	.L85
 384 004c 381093E5 		ldr	r1, [r3, #56]
 385 0050 010052E1 		cmp	r2, r1
 386 0054 1B00000A 		beq	.L80
 387 0058 020050E3 		cmp	r0, #2
 388 005c 0C00000A 		beq	.L85
 389 0060 581093E5 		ldr	r1, [r3, #88]
 390 0064 010052E1 		cmp	r2, r1
 391 0068 1400000A 		beq	.L82
 392 006c 030050E3 		cmp	r0, #3
 393 0070 0700000A 		beq	.L85
 394 0074 781093E5 		ldr	r1, [r3, #120]
 395 0078 010052E1 		cmp	r2, r1
 396 007c 0D00000A 		beq	.L84
 397 0080 040050E3 		cmp	r0, #4
 398 0084 0200000A 		beq	.L85
 399 0088 981093E5 		ldr	r1, [r3, #152]
 400 008c 010052E1 		cmp	r2, r1
 401 0090 0100000A 		beq	.L89
 402              	.L85:
 403 0094 0000A0E3 		mov	r0, #0
 404 0098 04F09DE4 		ldr	pc, [sp], #4
 405              	.L89:
 406 009c 0400A0E3 		mov	r0, #4
 407              	.L76:
 408 00a0 803283E0 		add	r3, r3, r0, lsl #5
 409              	.L88:
 410 00a4 040083E2 		add	r0, r3, #4
 411 00a8 04F09DE4 		ldr	pc, [sp], #4
 412              	.L73:
 413 00ac 0E30A0E1 		mov	r3, lr
 414 00b0 04E09DE4 		ldr	lr, [sp], #4
 415 00b4 13FF2FE1 		bx	r3
 416              	.L84:
 417 00b8 0300A0E3 		mov	r0, #3
 418 00bc F7FFFFEA 		b	.L76
 419              	.L82:
 420 00c0 0200A0E3 		mov	r0, #2
 421 00c4 F5FFFFEA 		b	.L76
 422              	.L80:
 423 00c8 0100A0E3 		mov	r0, #1
 424 00cc F3FFFFEA 		b	.L76
 425              		.cantunwind
 426              		.fnend
 428              		.section	.text._ZNK6tflite15MicroOpResolver6FindOpEPKci,"axG",%progbits,_ZNK6tflite15MicroOpResolv
 429              		.align	2
 430              		.weak	_ZNK6tflite15MicroOpResolver6FindOpEPKci
 431              		.syntax unified
 432              		.arm
 433              		.fpu neon
 435              	_ZNK6tflite15MicroOpResolver6FindOpEPKci:
 436              		.fnstart
 437              	.LFB6918:
 438              		@ args = 0, pretend = 0, frame = 0
 439              		@ frame_needed = 0, uses_anonymous_args = 0
 440 0000 002090E5 		ldr	r2, [r0]
 441 0004 003000E3 		movw	r3, #:lower16:_ZNK6tflite22MicroMutableOpResolverILj5EE6FindOpEPKc
 442 0008 003040E3 		movt	r3, #:upper16:_ZNK6tflite22MicroMutableOpResolverILj5EE6FindOpEPKc
 443 000c 1C2092E5 		ldr	r2, [r2, #28]
 444 0010 030052E1 		cmp	r2, r3
 445 0014 4200001A 		bne	.L91
 446 0018 70402DE9 		push	{r4, r5, r6, lr}
 447 001c 0040A0E1 		mov	r4, r0
 448 0020 A45090E5 		ldr	r5, [r0, #164]
 449 0024 000055E3 		cmp	r5, #0
 450 0028 1700000A 		beq	.L108
 451 002c 183090E5 		ldr	r3, [r0, #24]
 452 0030 0160A0E1 		mov	r6, r1
 453 0034 200053E3 		cmp	r3, #32
 454 0038 1500000A 		beq	.L112
 455              	.L93:
 456 003c 010055E3 		cmp	r5, #1
 457 0040 1100009A 		bls	.L108
 458 0044 383094E5 		ldr	r3, [r4, #56]
 459 0048 200053E3 		cmp	r3, #32
 460 004c 2D00000A 		beq	.L113
 461              	.L95:
 462 0050 020055E3 		cmp	r5, #2
 463 0054 0C00000A 		beq	.L108
 464 0058 583094E5 		ldr	r3, [r4, #88]
 465 005c 200053E3 		cmp	r3, #32
 466 0060 2100000A 		beq	.L114
 467              	.L96:
 468 0064 030055E3 		cmp	r5, #3
 469 0068 0700000A 		beq	.L108
 470 006c 783094E5 		ldr	r3, [r4, #120]
 471 0070 200053E3 		cmp	r3, #32
 472 0074 1500000A 		beq	.L115
 473              	.L97:
 474 0078 040055E3 		cmp	r5, #4
 475 007c 0200000A 		beq	.L108
 476 0080 983094E5 		ldr	r3, [r4, #152]
 477 0084 200053E3 		cmp	r3, #32
 478 0088 0800000A 		beq	.L116
 479              	.L108:
 480 008c 0000A0E3 		mov	r0, #0
 481 0090 7080BDE8 		pop	{r4, r5, r6, pc}
 482              	.L112:
 483 0094 1C0090E5 		ldr	r0, [r0, #28]
 484 0098 FEFFFFEB 		bl	strcmp
 485 009c 003050E2 		subs	r3, r0, #0
 486 00a0 E5FFFF1A 		bne	.L93
 487              	.L94:
 488 00a4 834284E0 		add	r4, r4, r3, lsl #5
 489 00a8 040084E2 		add	r0, r4, #4
 490 00ac 7080BDE8 		pop	{r4, r5, r6, pc}
 491              	.L116:
 492 00b0 0610A0E1 		mov	r1, r6
 493 00b4 9C0094E5 		ldr	r0, [r4, #156]
 494 00b8 FEFFFFEB 		bl	strcmp
 495 00bc 000050E3 		cmp	r0, #0
 496 00c0 0430A003 		moveq	r3, #4
 497 00c4 F6FFFF0A 		beq	.L94
 498 00c8 0000A0E3 		mov	r0, #0
 499 00cc 7080BDE8 		pop	{r4, r5, r6, pc}
 500              	.L115:
 501 00d0 0610A0E1 		mov	r1, r6
 502 00d4 7C0094E5 		ldr	r0, [r4, #124]
 503 00d8 FEFFFFEB 		bl	strcmp
 504 00dc 000050E3 		cmp	r0, #0
 505 00e0 E4FFFF1A 		bne	.L97
 506 00e4 0330A0E3 		mov	r3, #3
 507 00e8 EDFFFFEA 		b	.L94
 508              	.L114:
 509 00ec 0610A0E1 		mov	r1, r6
 510 00f0 5C0094E5 		ldr	r0, [r4, #92]
 511 00f4 FEFFFFEB 		bl	strcmp
 512 00f8 000050E3 		cmp	r0, #0
 513 00fc D8FFFF1A 		bne	.L96
 514 0100 0230A0E3 		mov	r3, #2
 515 0104 E6FFFFEA 		b	.L94
 516              	.L113:
 517 0108 0610A0E1 		mov	r1, r6
 518 010c 3C0094E5 		ldr	r0, [r4, #60]
 519 0110 FEFFFFEB 		bl	strcmp
 520 0114 000050E3 		cmp	r0, #0
 521 0118 CCFFFF1A 		bne	.L95
 522 011c 0130A0E3 		mov	r3, #1
 523 0120 DFFFFFEA 		b	.L94
 524              	.L91:
 525 0124 12FF2FE1 		bx	r2
 526              		.cantunwind
 527              		.fnend
 529              		.section	.text._ZN6tflite18MicroErrorReporterD0Ev,"axG",%progbits,_ZN6tflite18MicroErrorReporterD5
 530              		.align	2
 531              		.weak	_ZN6tflite18MicroErrorReporterD0Ev
 532              		.syntax unified
 533              		.arm
 534              		.fpu neon
 536              	_ZN6tflite18MicroErrorReporterD0Ev:
 537              		.fnstart
 538              	.LFB231:
 539              		@ args = 0, pretend = 0, frame = 0
 540              		@ frame_needed = 0, uses_anonymous_args = 0
 541 0000 10402DE9 		push	{r4, lr}
 542 0004 0410A0E3 		mov	r1, #4
 543 0008 0040A0E1 		mov	r4, r0
 544 000c FEFFFFEB 		bl	_ZdlPvj
 545 0010 0400A0E1 		mov	r0, r4
 546 0014 1080BDE8 		pop	{r4, pc}
 547              		.cantunwind
 548              		.fnend
 550              		.section	.text.tfl_PTQ_dnn_setupPre,"ax",%progbits
 551              		.align	2
 552              		.global	tfl_PTQ_dnn_setupPre
 553              		.syntax unified
 554              		.arm
 555              		.fpu neon
 557              	tfl_PTQ_dnn_setupPre:
 558              		.fnstart
 559              	.LFB7042:
 560              		@ args = 0, pretend = 0, frame = 32
 561              		@ frame_needed = 0, uses_anonymous_args = 0
 562 0000 F04F2DE9 		push	{r4, r5, r6, r7, r8, r9, r10, fp, lr}
 563              		.save {r4, r5, r6, r7, r8, r9, r10, fp, lr}
 564 0004 004000E3 		movw	r4, #:lower16:.LANCHOR0
 565 0008 004040E3 		movt	r4, #:upper16:.LANCHOR0
 566              		.pad #52
 567 000c 34D04DE2 		sub	sp, sp, #52
 568 0010 0030D4E5 		ldrb	r3, [r4]	@ zero_extendqisi2
 569 0014 5BF07FF5 		dmb	ish
 570 0018 010013E3 		tst	r3, #1
 571 001c 3B00000A 		beq	.L279
 572              	.L121:
 573 0020 004000E3 		movw	r4, #:lower16:.LANCHOR2
 574 0024 003000E3 		movw	r3, #:lower16:.LANCHOR1
 575 0028 005000E3 		movw	r5, #:lower16:.LANCHOR3
 576 002c 003040E3 		movt	r3, #:upper16:.LANCHOR1
 577 0030 004040E3 		movt	r4, #:upper16:.LANCHOR2
 578 0034 005040E3 		movt	r5, #:upper16:.LANCHOR3
 579 0038 003084E5 		str	r3, [r4]
 580 003c 0030D5E5 		ldrb	r3, [r5]	@ zero_extendqisi2
 581 0040 5BF07FF5 		dmb	ish
 582 0044 016013E2 		ands	r6, r3, #1
 583 0048 1E00000A 		beq	.L280
 584              	.L276:
 585 004c 007000E3 		movw	r7, #:lower16:.LANCHOR4
 586 0050 007040E3 		movt	r7, #:upper16:.LANCHOR4
 587              	.L124:
 588 0054 002000E3 		movw	r2, #:lower16:g_CNN_FE_Schrift_PTQ_data
 589 0058 006000E3 		movw	r6, #:lower16:.LANCHOR6
 590 005c 002040E3 		movt	r2, #:upper16:g_CNN_FE_Schrift_PTQ_data
 591 0060 005000E3 		movw	r5, #:lower16:.LANCHOR5
 592 0064 0030D2E5 		ldrb	r3, [r2]	@ zero_extendqisi2
 593 0068 006040E3 		movt	r6, #:upper16:.LANCHOR6
 594 006c 01C0D2E5 		ldrb	ip, [r2, #1]	@ zero_extendqisi2
 595 0070 005040E3 		movt	r5, #:upper16:.LANCHOR5
 596 0074 0200D2E5 		ldrb	r0, [r2, #2]	@ zero_extendqisi2
 597 0078 0310D2E5 		ldrb	r1, [r2, #3]	@ zero_extendqisi2
 598 007c 007085E5 		str	r7, [r5]
 599 0080 0C3483E1 		orr	r3, r3, ip, lsl #8
 600 0084 003883E1 		orr	r3, r3, r0, lsl #16
 601 0088 013C83E1 		orr	r3, r3, r1, lsl #24
 602 008c 021093E7 		ldr	r1, [r3, r2]
 603 0090 023083E0 		add	r3, r3, r2
 604 0094 003086E5 		str	r3, [r6]
 605 0098 012043E0 		sub	r2, r3, r1
 606 009c B010D2E1 		ldrh	r1, [r2]
 607 00a0 040051E3 		cmp	r1, #4
 608 00a4 050000DA 		ble	.L119
 609 00a8 B420D2E1 		ldrh	r2, [r2, #4]
 610 00ac 000052E3 		cmp	r2, #0
 611 00b0 0200000A 		beq	.L119
 612 00b4 023093E7 		ldr	r3, [r3, r2]
 613 00b8 030053E3 		cmp	r3, #3
 614 00bc 2100000A 		beq	.L281
 615              	.L119:
 616 00c0 34D08DE2 		add	sp, sp, #52
 617              		@ sp needed
 618 00c4 F08FBDE8 		pop	{r4, r5, r6, r7, r8, r9, r10, fp, pc}
 619              	.L280:
 620 00c8 0500A0E1 		mov	r0, r5
 621 00cc FEFFFFEB 		bl	__cxa_guard_acquire
 622 00d0 000050E3 		cmp	r0, #0
 623 00d4 DCFFFF0A 		beq	.L276
 624 00d8 6C369FE5 		ldr	r3, .L284
 625 00dc 007000E3 		movw	r7, #:lower16:.LANCHOR4
 626 00e0 007040E3 		movt	r7, #:upper16:.LANCHOR4
 627 00e4 0500A0E1 		mov	r0, r5
 628 00e8 5C6287E5 		str	r6, [r7, #604]
 629 00ec 003087E5 		str	r3, [r7]
 630 00f0 FEFFFFEB 		bl	__cxa_guard_release
 631 00f4 002000E3 		movw	r2, #:lower16:__dso_handle
 632 00f8 001000E3 		movw	r1, #:lower16:_ZN6tflite13MicroProfilerD1Ev
 633 00fc 0700A0E1 		mov	r0, r7
 634 0100 002040E3 		movt	r2, #:upper16:__dso_handle
 635 0104 001040E3 		movt	r1, #:upper16:_ZN6tflite13MicroProfilerD1Ev
 636 0108 FEFFFFEB 		bl	__aeabi_atexit
 637 010c D0FFFFEA 		b	.L124
 638              	.L279:
 639 0110 0400A0E1 		mov	r0, r4
 640 0114 FEFFFFEB 		bl	__cxa_guard_acquire
 641 0118 000050E3 		cmp	r0, #0
 642 011c BFFFFF0A 		beq	.L121
 643 0120 0400A0E1 		mov	r0, r4
 644 0124 FEFFFFEB 		bl	__cxa_guard_release
 645 0128 002000E3 		movw	r2, #:lower16:__dso_handle
 646 012c 001000E3 		movw	r1, #:lower16:_ZN6tflite18MicroErrorReporterD1Ev
 647 0130 000000E3 		movw	r0, #:lower16:.LANCHOR1
 648 0134 002040E3 		movt	r2, #:upper16:__dso_handle
 649 0138 001040E3 		movt	r1, #:upper16:_ZN6tflite18MicroErrorReporterD1Ev
 650 013c 000040E3 		movt	r0, #:upper16:.LANCHOR1
 651 0140 FEFFFFEB 		bl	__aeabi_atexit
 652 0144 B5FFFFEA 		b	.L121
 653              	.L281:
 654 0148 008000E3 		movw	r8, #:lower16:.LANCHOR7
 655 014c 008040E3 		movt	r8, #:upper16:.LANCHOR7
 656 0150 0030D8E5 		ldrb	r3, [r8]	@ zero_extendqisi2
 657 0154 5BF07FF5 		dmb	ish
 658 0158 019013E2 		ands	r9, r3, #1
 659 015c D500000A 		beq	.L282
 660              	.L277:
 661 0160 007000E3 		movw	r7, #:lower16:.LANCHOR8
 662 0164 007040E3 		movt	r7, #:upper16:.LANCHOR8
 663              	.L130:
 664 0168 10008DE2 		add	r0, sp, #16
 665              	.LEHB0:
 666 016c FEFFFFEB 		bl	_ZN6tflite16Register_CONV_2DEv
 667 0170 A43097E5 		ldr	r3, [r7, #164]
 668 0174 000053E3 		cmp	r3, #0
 669 0178 6D01000A 		beq	.L159
 670 017c 182097E5 		ldr	r2, [r7, #24]
 671 0180 030052E3 		cmp	r2, #3
 672 0184 1000000A 		beq	.L133
 673 0188 010053E3 		cmp	r3, #1
 674 018c DE00009A 		bls	.L134
 675 0190 382097E5 		ldr	r2, [r7, #56]
 676 0194 030052E3 		cmp	r2, #3
 677 0198 0B00000A 		beq	.L133
 678 019c 020053E3 		cmp	r3, #2
 679 01a0 D900000A 		beq	.L134
 680 01a4 582097E5 		ldr	r2, [r7, #88]
 681 01a8 030052E3 		cmp	r2, #3
 682 01ac 0600000A 		beq	.L133
 683 01b0 030053E3 		cmp	r3, #3
 684 01b4 D400000A 		beq	.L134
 685 01b8 782097E5 		ldr	r2, [r7, #120]
 686 01bc 030052E3 		cmp	r2, #3
 687 01c0 0100000A 		beq	.L133
 688 01c4 040053E3 		cmp	r3, #4
 689 01c8 CF00000A 		beq	.L134
 690              	.L133:
 691 01cc 10008DE2 		add	r0, sp, #16
 692 01d0 FEFFFFEB 		bl	_ZN6tflite3ops5micro20Register_MAX_POOL_2DEv
 693 01d4 A43097E5 		ldr	r3, [r7, #164]
 694 01d8 000053E3 		cmp	r3, #0
 695 01dc 5201000A 		beq	.L160
 696 01e0 182097E5 		ldr	r2, [r7, #24]
 697 01e4 110052E3 		cmp	r2, #17
 698 01e8 1000000A 		beq	.L137
 699 01ec 010053E3 		cmp	r3, #1
 700 01f0 DA00009A 		bls	.L138
 701 01f4 382097E5 		ldr	r2, [r7, #56]
 702 01f8 110052E3 		cmp	r2, #17
 703 01fc 0B00000A 		beq	.L137
 704 0200 020053E3 		cmp	r3, #2
 705 0204 D500000A 		beq	.L138
 706 0208 582097E5 		ldr	r2, [r7, #88]
 707 020c 110052E3 		cmp	r2, #17
 708 0210 0600000A 		beq	.L137
 709 0214 030053E3 		cmp	r3, #3
 710 0218 D000000A 		beq	.L138
 711 021c 782097E5 		ldr	r2, [r7, #120]
 712 0220 110052E3 		cmp	r2, #17
 713 0224 0100000A 		beq	.L137
 714 0228 040053E3 		cmp	r3, #4
 715 022c CB00000A 		beq	.L138
 716              	.L137:
 717 0230 10008DE2 		add	r0, sp, #16
 718 0234 FEFFFFEB 		bl	_ZN6tflite3ops5micro16Register_RESHAPEEv
 719 0238 A43097E5 		ldr	r3, [r7, #164]
 720 023c 000053E3 		cmp	r3, #0
 721 0240 3701000A 		beq	.L161
 722 0244 182097E5 		ldr	r2, [r7, #24]
 723 0248 160052E3 		cmp	r2, #22
 724 024c 1000000A 		beq	.L141
 725 0250 010053E3 		cmp	r3, #1
 726 0254 D600009A 		bls	.L142
 727 0258 382097E5 		ldr	r2, [r7, #56]
 728 025c 160052E3 		cmp	r2, #22
 729 0260 0B00000A 		beq	.L141
 730 0264 020053E3 		cmp	r3, #2
 731 0268 D100000A 		beq	.L142
 732 026c 582097E5 		ldr	r2, [r7, #88]
 733 0270 160052E3 		cmp	r2, #22
 734 0274 0600000A 		beq	.L141
 735 0278 030053E3 		cmp	r3, #3
 736 027c CC00000A 		beq	.L142
 737 0280 782097E5 		ldr	r2, [r7, #120]
 738 0284 160052E3 		cmp	r2, #22
 739 0288 0100000A 		beq	.L141
 740 028c 040053E3 		cmp	r3, #4
 741 0290 C700000A 		beq	.L142
 742              	.L141:
 743 0294 10008DE2 		add	r0, sp, #16
 744 0298 FEFFFFEB 		bl	_ZN6tflite24Register_FULLY_CONNECTEDEv
 745 029c A43097E5 		ldr	r3, [r7, #164]
 746 02a0 000053E3 		cmp	r3, #0
 747 02a4 1C01000A 		beq	.L162
 748 02a8 182097E5 		ldr	r2, [r7, #24]
 749 02ac 090052E3 		cmp	r2, #9
 750 02b0 1000000A 		beq	.L145
 751 02b4 010053E3 		cmp	r3, #1
 752 02b8 D200009A 		bls	.L146
 753 02bc 382097E5 		ldr	r2, [r7, #56]
 754 02c0 090052E3 		cmp	r2, #9
 755 02c4 0B00000A 		beq	.L145
 756 02c8 020053E3 		cmp	r3, #2
 757 02cc CD00000A 		beq	.L146
 758 02d0 582097E5 		ldr	r2, [r7, #88]
 759 02d4 090052E3 		cmp	r2, #9
 760 02d8 0600000A 		beq	.L145
 761 02dc 030053E3 		cmp	r3, #3
 762 02e0 C800000A 		beq	.L146
 763 02e4 782097E5 		ldr	r2, [r7, #120]
 764 02e8 090052E3 		cmp	r2, #9
 765 02ec 0100000A 		beq	.L145
 766 02f0 040053E3 		cmp	r3, #4
 767 02f4 C300000A 		beq	.L146
 768              	.L145:
 769 02f8 10008DE2 		add	r0, sp, #16
 770 02fc FEFFFFEB 		bl	_ZN6tflite16Register_SOFTMAXEv
 771 0300 A43097E5 		ldr	r3, [r7, #164]
 772 0304 000053E3 		cmp	r3, #0
 773 0308 0101000A 		beq	.L163
 774 030c 182097E5 		ldr	r2, [r7, #24]
 775 0310 190052E3 		cmp	r2, #25
 776 0314 1000000A 		beq	.L149
 777 0318 010053E3 		cmp	r3, #1
 778 031c CE00009A 		bls	.L150
 779 0320 382097E5 		ldr	r2, [r7, #56]
 780 0324 190052E3 		cmp	r2, #25
 781 0328 0B00000A 		beq	.L149
 782 032c 020053E3 		cmp	r3, #2
 783 0330 C900000A 		beq	.L150
 784 0334 582097E5 		ldr	r2, [r7, #88]
 785 0338 190052E3 		cmp	r2, #25
 786 033c 0600000A 		beq	.L149
 787 0340 030053E3 		cmp	r3, #3
 788 0344 C400000A 		beq	.L150
 789 0348 782097E5 		ldr	r2, [r7, #120]
 790 034c 190052E3 		cmp	r2, #25
 791 0350 0100000A 		beq	.L149
 792 0354 040053E3 		cmp	r3, #4
 793 0358 BF00000A 		beq	.L150
 794              	.L149:
 795 035c 000000E3 		movw	r0, #:lower16:.LANCHOR9
 796 0360 000040E3 		movt	r0, #:upper16:.LANCHOR9
 797 0364 0030D0E5 		ldrb	r3, [r0]	@ zero_extendqisi2
 798 0368 5BF07FF5 		dmb	ish
 799 036c 010013E3 		tst	r3, #1
 800 0370 0200001A 		bne	.L153
 801 0374 FEFFFFEB 		bl	__cxa_guard_acquire
 802 0378 000050E3 		cmp	r0, #0
 803 037c CB00001A 		bne	.L283
 804              	.L153:
 805 0380 005000E3 		movw	r5, #:lower16:.LANCHOR12
 806 0384 003000E3 		movw	r3, #:lower16:.LANCHOR11
 807 0388 001000E3 		movw	r1, #:lower16:.LC0
 808 038c 003040E3 		movt	r3, #:upper16:.LANCHOR11
 809 0390 001040E3 		movt	r1, #:upper16:.LC0
 810 0394 005040E3 		movt	r5, #:upper16:.LANCHOR12
 811 0398 000094E5 		ldr	r0, [r4]
 812 039c 003085E5 		str	r3, [r5]
 813 03a0 FEFFFFEB 		bl	_ZN6tflite13ErrorReporter6ReportEPKcz
 814 03a4 000095E5 		ldr	r0, [r5]
 815 03a8 FEFFFFEB 		bl	_ZN6tflite16MicroInterpreter15AllocateTensorsEv
 816 03ac 001050E2 		subs	r1, r0, #0
 817 03b0 42FFFF1A 		bne	.L119
 818 03b4 000095E5 		ldr	r0, [r5]
 819 03b8 006000E3 		movw	r6, #:lower16:.LANCHOR13
 820 03bc FEFFFFEB 		bl	_ZN6tflite16MicroInterpreter5inputEj
 821 03c0 0030A0E1 		mov	r3, r0
 822 03c4 001000E3 		movw	r1, #:lower16:.LC1
 823 03c8 082093E5 		ldr	r2, [r3, #8]
 824 03cc 006040E3 		movt	r6, #:upper16:.LANCHOR13
 825 03d0 000094E5 		ldr	r0, [r4]
 826 03d4 001040E3 		movt	r1, #:upper16:.LC1
 827 03d8 003086E5 		str	r3, [r6]
 828 03dc 002092E5 		ldr	r2, [r2]
 829 03e0 FEFFFFEB 		bl	_ZN6tflite13ErrorReporter6ReportEPKcz
 830 03e4 003096E5 		ldr	r3, [r6]
 831 03e8 001000E3 		movw	r1, #:lower16:.LC2
 832 03ec 000094E5 		ldr	r0, [r4]
 833 03f0 001040E3 		movt	r1, #:upper16:.LC2
 834 03f4 08C093E5 		ldr	ip, [r3, #8]
 835 03f8 10E09CE5 		ldr	lr, [ip, #16]
 836 03fc 0C009CE9 		ldmib	ip, {r2, r3}
 837 0400 04E08DE5 		str	lr, [sp, #4]
 838 0404 0CC09CE5 		ldr	ip, [ip, #12]
 839 0408 00C08DE5 		str	ip, [sp]
 840 040c FEFFFFEB 		bl	_ZN6tflite13ErrorReporter6ReportEPKcz
 841 0410 003096E5 		ldr	r3, [r6]
 842 0414 002000E3 		movw	r2, #:lower16:.LC3
 843 0418 000094E5 		ldr	r0, [r4]
 844 041c 0030D3E5 		ldrb	r3, [r3]	@ zero_extendqisi2
 845 0420 090053E3 		cmp	r3, #9
 846 0424 00100003 		movweq	r1, #:lower16:.LC4
 847 0428 00100013 		movwne	r1, #:lower16:.LC5
 848 042c 00204003 		movteq	r2, #:upper16:.LC3
 849 0430 00104003 		movteq	r1, #:upper16:.LC4
 850 0434 00204013 		movtne	r2, #:upper16:.LC3
 851 0438 00104013 		movtne	r1, #:upper16:.LC5
 852 043c FEFFFFEB 		bl	_ZN6tflite13ErrorReporter6ReportEPKcz
 853 0440 000095E5 		ldr	r0, [r5]
 854 0444 0010A0E3 		mov	r1, #0
 855 0448 FEFFFFEB 		bl	_ZN6tflite16MicroInterpreter6outputEj
 856 044c 0050A0E1 		mov	r5, r0
 857 0450 001000E3 		movw	r1, #:lower16:.LC6
 858 0454 083095E5 		ldr	r3, [r5, #8]
 859 0458 001040E3 		movt	r1, #:upper16:.LC6
 860 045c 000094E5 		ldr	r0, [r4]
 861 0460 002093E5 		ldr	r2, [r3]
 862 0464 FEFFFFEB 		bl	_ZN6tflite13ErrorReporter6ReportEPKcz
 863 0468 082095E5 		ldr	r2, [r5, #8]
 864 046c 001000E3 		movw	r1, #:lower16:.LC7
 865 0470 001040E3 		movt	r1, #:upper16:.LC7
 866 0474 000094E5 		ldr	r0, [r4]
 867 0478 0C0092E9 		ldmib	r2, {r2, r3}
 868 047c FEFFFFEB 		bl	_ZN6tflite13ErrorReporter6ReportEPKcz
 869 0480 0030D5E5 		ldrb	r3, [r5]	@ zero_extendqisi2
 870 0484 002000E3 		movw	r2, #:lower16:.LC3
 871 0488 090053E3 		cmp	r3, #9
 872 048c 00100003 		movweq	r1, #:lower16:.LC8
 873 0490 00100013 		movwne	r1, #:lower16:.LC9
 874 0494 00009405 		ldreq	r0, [r4]
 875 0498 00204003 		movteq	r2, #:upper16:.LC3
 876 049c 00104003 		movteq	r1, #:upper16:.LC8
 877 04a0 00009415 		ldrne	r0, [r4]
 878 04a4 00204013 		movtne	r2, #:upper16:.LC3
 879 04a8 00104013 		movtne	r1, #:upper16:.LC9
 880 04ac 34D08DE2 		add	sp, sp, #52
 881              		@ sp needed
 882 04b0 F04FBDE8 		pop	{r4, r5, r6, r7, r8, r9, r10, fp, lr}
 883 04b4 FEFFFFEA 		b	_ZN6tflite13ErrorReporter6ReportEPKcz
 884              	.LEHE0:
 885              	.L282:
 886 04b8 0800A0E1 		mov	r0, r8
 887 04bc FEFFFFEB 		bl	__cxa_guard_acquire
 888 04c0 000050E3 		cmp	r0, #0
 889 04c4 25FFFF0A 		beq	.L277
 890 04c8 80229FE5 		ldr	r2, .L284+4
 891 04cc 007000E3 		movw	r7, #:lower16:.LANCHOR8
 892 04d0 003094E5 		ldr	r3, [r4]
 893 04d4 007040E3 		movt	r7, #:upper16:.LANCHOR8
 894 04d8 0800A0E1 		mov	r0, r8
 895 04dc A49087E5 		str	r9, [r7, #164]
 896 04e0 002087E5 		str	r2, [r7]
 897 04e4 C49087E5 		str	r9, [r7, #196]
 898 04e8 C83087E5 		str	r3, [r7, #200]
 899 04ec FEFFFFEB 		bl	__cxa_guard_release
 900 04f0 002000E3 		movw	r2, #:lower16:__dso_handle
 901 04f4 001000E3 		movw	r1, #:lower16:_ZN6tflite22MicroMutableOpResolverILj5EED1Ev
 902 04f8 0700A0E1 		mov	r0, r7
 903 04fc 002040E3 		movt	r2, #:upper16:__dso_handle
 904 0500 001040E3 		movt	r1, #:upper16:_ZN6tflite22MicroMutableOpResolverILj5EED1Ev
 905 0504 FEFFFFEB 		bl	__aeabi_atexit
 906 0508 16FFFFEA 		b	.L130
 907              	.L134:
 908 050c 019083E2 		add	r9, r3, #1
 909              	.L132:
 910 0510 10808DE2 		add	r8, sp, #16
 911 0514 83C287E0 		add	ip, r7, r3, lsl #5
 912 0518 0F00B8E8 		ldmia	r8!, {r0, r1, r2, r3}
 913 051c 03B0A0E3 		mov	fp, #3
 914 0520 04E08CE2 		add	lr, ip, #4
 915 0524 00A000E3 		movw	r10, #:lower16:_ZN6tflite11ParseConv2DEPKNS_8OperatorEPNS_13ErrorReporterEPNS_20BuiltinDataAl
 916 0528 A49087E5 		str	r9, [r7, #164]
 917 052c 00A040E3 		movt	r10, #:upper16:_ZN6tflite11ParseConv2DEPKNS_8OperatorEPNS_13ErrorReporterEPNS_20BuiltinDataAl
 918 0530 C49097E5 		ldr	r9, [r7, #196]
 919 0534 0F00AEE8 		stmia	lr!, {r0, r1, r2, r3}
 920 0538 0F0098E8 		ldm	r8, {r0, r1, r2, r3}
 921 053c 098087E0 		add	r8, r7, r9
 922 0540 A8B0C8E5 		strb	fp, [r8, #168]
 923 0544 2C8089E2 		add	r8, r9, #44
 924 0548 019089E2 		add	r9, r9, #1
 925 054c 08A187E7 		str	r10, [r7, r8, lsl #2]
 926 0550 0F008EE8 		stm	lr, {r0, r1, r2, r3}
 927 0554 C49087E5 		str	r9, [r7, #196]
 928 0558 18B08CE5 		str	fp, [ip, #24]
 929 055c 1AFFFFEA 		b	.L133
 930              	.L138:
 931 0560 019083E2 		add	r9, r3, #1
 932              	.L136:
 933 0564 10808DE2 		add	r8, sp, #16
 934 0568 83C287E0 		add	ip, r7, r3, lsl #5
 935 056c 0F00B8E8 		ldmia	r8!, {r0, r1, r2, r3}
 936 0570 11B0A0E3 		mov	fp, #17
 937 0574 04E08CE2 		add	lr, ip, #4
 938 0578 00A000E3 		movw	r10, #:lower16:_ZN6tflite9ParsePoolEPKNS_8OperatorEPNS_13ErrorReporterEPNS_20BuiltinDataAlloc
 939 057c A49087E5 		str	r9, [r7, #164]
 940 0580 00A040E3 		movt	r10, #:upper16:_ZN6tflite9ParsePoolEPKNS_8OperatorEPNS_13ErrorReporterEPNS_20BuiltinDataAlloc
 941 0584 C49097E5 		ldr	r9, [r7, #196]
 942 0588 0F00AEE8 		stmia	lr!, {r0, r1, r2, r3}
 943 058c 0F0098E8 		ldm	r8, {r0, r1, r2, r3}
 944 0590 098087E0 		add	r8, r7, r9
 945 0594 A8B0C8E5 		strb	fp, [r8, #168]
 946 0598 2C8089E2 		add	r8, r9, #44
 947 059c 019089E2 		add	r9, r9, #1
 948 05a0 08A187E7 		str	r10, [r7, r8, lsl #2]
 949 05a4 0F008EE8 		stm	lr, {r0, r1, r2, r3}
 950 05a8 C49087E5 		str	r9, [r7, #196]
 951 05ac 18B08CE5 		str	fp, [ip, #24]
 952 05b0 1EFFFFEA 		b	.L137
 953              	.L142:
 954 05b4 019083E2 		add	r9, r3, #1
 955              	.L140:
 956 05b8 10808DE2 		add	r8, sp, #16
 957 05bc 83C287E0 		add	ip, r7, r3, lsl #5
 958 05c0 0F00B8E8 		ldmia	r8!, {r0, r1, r2, r3}
 959 05c4 16B0A0E3 		mov	fp, #22
 960 05c8 04E08CE2 		add	lr, ip, #4
 961 05cc 00A000E3 		movw	r10, #:lower16:_ZN6tflite12ParseReshapeEPKNS_8OperatorEPNS_13ErrorReporterEPNS_20BuiltinDataA
 962 05d0 A49087E5 		str	r9, [r7, #164]
 963 05d4 00A040E3 		movt	r10, #:upper16:_ZN6tflite12ParseReshapeEPKNS_8OperatorEPNS_13ErrorReporterEPNS_20BuiltinDataA
 964 05d8 C49097E5 		ldr	r9, [r7, #196]
 965 05dc 0F00AEE8 		stmia	lr!, {r0, r1, r2, r3}
 966 05e0 0F0098E8 		ldm	r8, {r0, r1, r2, r3}
 967 05e4 098087E0 		add	r8, r7, r9
 968 05e8 A8B0C8E5 		strb	fp, [r8, #168]
 969 05ec 2C8089E2 		add	r8, r9, #44
 970 05f0 019089E2 		add	r9, r9, #1
 971 05f4 08A187E7 		str	r10, [r7, r8, lsl #2]
 972 05f8 0F008EE8 		stm	lr, {r0, r1, r2, r3}
 973 05fc C49087E5 		str	r9, [r7, #196]
 974 0600 18B08CE5 		str	fp, [ip, #24]
 975 0604 22FFFFEA 		b	.L141
 976              	.L146:
 977 0608 019083E2 		add	r9, r3, #1
 978              	.L144:
 979 060c 10808DE2 		add	r8, sp, #16
 980 0610 83C287E0 		add	ip, r7, r3, lsl #5
 981 0614 0F00B8E8 		ldmia	r8!, {r0, r1, r2, r3}
 982 0618 09B0A0E3 		mov	fp, #9
 983 061c 04E08CE2 		add	lr, ip, #4
 984 0620 00A000E3 		movw	r10, #:lower16:_ZN6tflite19ParseFullyConnectedEPKNS_8OperatorEPNS_13ErrorReporterEPNS_20Built
 985 0624 A49087E5 		str	r9, [r7, #164]
 986 0628 00A040E3 		movt	r10, #:upper16:_ZN6tflite19ParseFullyConnectedEPKNS_8OperatorEPNS_13ErrorReporterEPNS_20Built
 987 062c C49097E5 		ldr	r9, [r7, #196]
 988 0630 0F00AEE8 		stmia	lr!, {r0, r1, r2, r3}
 989 0634 0F0098E8 		ldm	r8, {r0, r1, r2, r3}
 990 0638 098087E0 		add	r8, r7, r9
 991 063c A8B0C8E5 		strb	fp, [r8, #168]
 992 0640 2C8089E2 		add	r8, r9, #44
 993 0644 019089E2 		add	r9, r9, #1
 994 0648 08A187E7 		str	r10, [r7, r8, lsl #2]
 995 064c 0F008EE8 		stm	lr, {r0, r1, r2, r3}
 996 0650 C49087E5 		str	r9, [r7, #196]
 997 0654 18B08CE5 		str	fp, [ip, #24]
 998 0658 26FFFFEA 		b	.L145
 999              	.L150:
 1000 065c 019083E2 		add	r9, r3, #1
 1001              	.L148:
 1002 0660 10C08DE2 		add	ip, sp, #16
 1003 0664 83E287E0 		add	lr, r7, r3, lsl #5
 1004 0668 0F00BCE8 		ldmia	ip!, {r0, r1, r2, r3}
 1005 066c 19B0A0E3 		mov	fp, #25
 1006 0670 04808EE2 		add	r8, lr, #4
 1007 0674 00A000E3 		movw	r10, #:lower16:_ZN6tflite12ParseSoftmaxEPKNS_8OperatorEPNS_13ErrorReporterEPNS_20BuiltinDataA
 1008 0678 A49087E5 		str	r9, [r7, #164]
 1009 067c 00A040E3 		movt	r10, #:upper16:_ZN6tflite12ParseSoftmaxEPKNS_8OperatorEPNS_13ErrorReporterEPNS_20BuiltinDataA
 1010 0680 C49097E5 		ldr	r9, [r7, #196]
 1011 0684 0F00A8E8 		stmia	r8!, {r0, r1, r2, r3}
 1012 0688 0F009CE8 		ldm	ip, {r0, r1, r2, r3}
 1013 068c 09C087E0 		add	ip, r7, r9
 1014 0690 A8B0CCE5 		strb	fp, [ip, #168]
 1015 0694 2CC089E2 		add	ip, r9, #44
 1016 0698 019089E2 		add	r9, r9, #1
 1017 069c 0CA187E7 		str	r10, [r7, ip, lsl #2]
 1018 06a0 0F0088E8 		stm	r8, {r0, r1, r2, r3}
 1019 06a4 C49087E5 		str	r9, [r7, #196]
 1020 06a8 18B08EE5 		str	fp, [lr, #24]
 1021 06ac 2AFFFFEA 		b	.L149
 1022              	.L283:
 1023 06b0 005095E5 		ldr	r5, [r5]
 1024 06b4 0ACBA0E3 		mov	ip, #10240
 1025 06b8 00E094E5 		ldr	lr, [r4]
 1026 06bc 003000E3 		movw	r3, #:lower16:.LANCHOR10
 1027 06c0 002000E3 		movw	r2, #:lower16:.LANCHOR8
 1028 06c4 000000E3 		movw	r0, #:lower16:.LANCHOR11
 1029 06c8 001096E5 		ldr	r1, [r6]
 1030 06cc 003040E3 		movt	r3, #:upper16:.LANCHOR10
 1031 06d0 08508DE5 		str	r5, [sp, #8]
 1032 06d4 002040E3 		movt	r2, #:upper16:.LANCHOR8
 1033 06d8 04E08DE5 		str	lr, [sp, #4]
 1034 06dc 000040E3 		movt	r0, #:upper16:.LANCHOR11
 1035 06e0 00C08DE5 		str	ip, [sp]
 1036              	.LEHB1:
 1037 06e4 FEFFFFEB 		bl	_ZN6tflite16MicroInterpreterC1EPKNS_5ModelERKNS_15MicroOpResolverEPhjPNS_13ErrorReporterEPNS_13
 1038              	.LEHE1:
 1039 06e8 000000E3 		movw	r0, #:lower16:.LANCHOR9
 1040 06ec 000040E3 		movt	r0, #:upper16:.LANCHOR9
 1041 06f0 FEFFFFEB 		bl	__cxa_guard_release
 1042 06f4 002000E3 		movw	r2, #:lower16:__dso_handle
 1043 06f8 001000E3 		movw	r1, #:lower16:_ZN6tflite16MicroInterpreterD1Ev
 1044 06fc 000000E3 		movw	r0, #:lower16:.LANCHOR11
 1045 0700 002040E3 		movt	r2, #:upper16:__dso_handle
 1046 0704 001040E3 		movt	r1, #:upper16:_ZN6tflite16MicroInterpreterD1Ev
 1047 0708 000040E3 		movt	r0, #:upper16:.LANCHOR11
 1048 070c FEFFFFEB 		bl	__aeabi_atexit
 1049 0710 1AFFFFEA 		b	.L153
 1050              	.L163:
 1051 0714 0190A0E3 		mov	r9, #1
 1052 0718 D0FFFFEA 		b	.L148
 1053              	.L162:
 1054 071c 0190A0E3 		mov	r9, #1
 1055 0720 B9FFFFEA 		b	.L144
 1056              	.L161:
 1057 0724 0190A0E3 		mov	r9, #1
 1058 0728 A2FFFFEA 		b	.L140
 1059              	.L160:
 1060 072c 0190A0E3 		mov	r9, #1
 1061 0730 8BFFFFEA 		b	.L136
 1062              	.L159:
 1063 0734 0190A0E3 		mov	r9, #1
 1064 0738 74FFFFEA 		b	.L132
 1065              	.L164:
 1066 073c 000000E3 		movw	r0, #:lower16:.LANCHOR9
 1067 0740 000040E3 		movt	r0, #:upper16:.LANCHOR9
 1068 0744 FEFFFFEB 		bl	__cxa_guard_abort
 1069              	.LEHB2:
 1070 0748 FEFFFFEB 		bl	__cxa_end_cleanup
 1071              	.LEHE2:
 1072              	.L285:
 1073              		.align	2
 1074              	.L284:
 1075 074c 08000000 		.word	_ZTVN6tflite13MicroProfilerE+8
 1076 0750 08000000 		.word	_ZTVN6tflite22MicroMutableOpResolverILj5EEE+8
 1077              		.global	__gxx_personality_v0
 1078              		.personality	__gxx_personality_v0
 1079              		.handlerdata
 1080              	.LLSDA7042:
 1081 0008 FF       		.byte	0xff
 1082 0009 FF       		.byte	0xff
 1083 000a 01       		.byte	0x1
 1084 000b 11       		.uleb128 .LLSDACSE7042-.LLSDACSB7042
 1085              	.LLSDACSB7042:
 1086 000c EC02     		.uleb128 .LEHB0-.LFB7042
 1087 000e CC06     		.uleb128 .LEHE0-.LEHB0
 1088 0010 00       		.uleb128 0
 1089 0011 00       		.uleb128 0
 1090 0012 E40D     		.uleb128 .LEHB1-.LFB7042
 1091 0014 04       		.uleb128 .LEHE1-.LEHB1
 1092 0015 BC0E     		.uleb128 .L164-.LFB7042
 1093 0017 00       		.uleb128 0
 1094 0018 C80E     		.uleb128 .LEHB2-.LFB7042
 1095 001a 04       		.uleb128 .LEHE2-.LEHB2
 1096 001b 00       		.uleb128 0
 1097 001c 00       		.uleb128 0
 1098              	.LLSDACSE7042:
 1099              		.section	.text.tfl_PTQ_dnn_setupPre
 1100              		.fnend
 1102              		.section	.text.tfl_PTQ_dnn_computePre,"ax",%progbits
 1103              		.align	2
 1104              		.global	tfl_PTQ_dnn_computePre
 1105              		.syntax unified
 1106              		.arm
 1107              		.fpu neon
 1109              	tfl_PTQ_dnn_computePre:
 1110              		.fnstart
 1111              	.LFB7052:
 1112              		@ args = 0, pretend = 0, frame = 0
 1113              		@ frame_needed = 0, uses_anonymous_args = 0
 1114 0000 003000E3 		movw	r3, #:lower16:.LANCHOR13
 1115 0004 70402DE9 		push	{r4, r5, r6, lr}
 1116              		.save {r4, r5, r6, lr}
 1117 0008 003040E3 		movt	r3, #:upper16:.LANCHOR13
 1118 000c 004000E3 		movw	r4, #:lower16:.LANCHOR12
 1119 0010 0A2DA0E3 		mov	r2, #640
 1120 0014 0150A0E1 		mov	r5, r1
 1121 0018 003093E5 		ldr	r3, [r3]
 1122 001c 0010A0E1 		mov	r1, r0
 1123 0020 004040E3 		movt	r4, #:upper16:.LANCHOR12
 1124 0024 040093E5 		ldr	r0, [r3, #4]
 1125 0028 FEFFFFEB 		bl	memcpy
 1126 002c 000094E5 		ldr	r0, [r4]
 1127 0030 FEFFFFEB 		bl	_ZN6tflite16MicroInterpreter6InvokeEv
 1128 0034 000050E3 		cmp	r0, #0
 1129 0038 0500000A 		beq	.L287
 1130 003c 003000E3 		movw	r3, #:lower16:.LANCHOR2
 1131 0040 001000E3 		movw	r1, #:lower16:.LC10
 1132 0044 003040E3 		movt	r3, #:upper16:.LANCHOR2
 1133 0048 001040E3 		movt	r1, #:upper16:.LC10
 1134 004c 000093E5 		ldr	r0, [r3]
 1135 0050 FEFFFFEB 		bl	_ZN6tflite13ErrorReporter6ReportEPKcz
 1136              	.L287:
 1137 0054 000094E5 		ldr	r0, [r4]
 1138 0058 0010A0E3 		mov	r1, #0
 1139 005c FEFFFFEB 		bl	_ZN6tflite16MicroInterpreter6outputEj
 1140 0060 2720A0E3 		mov	r2, #39
 1141 0064 041090E5 		ldr	r1, [r0, #4]
 1142 0068 0500A0E1 		mov	r0, r5
 1143 006c 7040BDE8 		pop	{r4, r5, r6, lr}
 1144 0070 FEFFFFEA 		b	memcpy
 1145              		.fnend
 1147              		.section	.text._ZN6tflite13MicroProfilerD0Ev,"axG",%progbits,_ZN6tflite13MicroProfilerD5Ev,comdat
 1148              		.align	2
 1149              		.weak	_ZN6tflite13MicroProfilerD0Ev
 1150              		.syntax unified
 1151              		.arm
 1152              		.fpu neon
 1154              	_ZN6tflite13MicroProfilerD0Ev:
 1155              		.fnstart
 1156              	.LFB11535:
 1157              		@ args = 0, pretend = 0, frame = 0
 1158              		@ frame_needed = 0, uses_anonymous_args = 0
 1159 0000 10402DE9 		push	{r4, lr}
 1160 0004 261EA0E3 		mov	r1, #608
 1161 0008 0040A0E1 		mov	r4, r0
 1162 000c FEFFFFEB 		bl	_ZdlPvj
 1163 0010 0400A0E1 		mov	r0, r4
 1164 0014 1080BDE8 		pop	{r4, pc}
 1165              		.cantunwind
 1166              		.fnend
 1168              		.weak	_ZTSN6tflite10OpResolverE
 1169              		.section	.rodata._ZTSN6tflite10OpResolverE,"aG",%progbits,_ZTSN6tflite10OpResolverE,comdat
 1170              		.align	2
 1173              	_ZTSN6tflite10OpResolverE:
 1174 0000 4E367466 		.ascii	"N6tflite10OpResolverE\000"
 1174      6C697465 
 1174      31304F70 
 1174      5265736F 
 1174      6C766572 
 1175              		.weak	_ZTIN6tflite10OpResolverE
 1176              		.section	.rodata._ZTIN6tflite10OpResolverE,"aG",%progbits,_ZTIN6tflite10OpResolverE,comdat
 1177              		.align	2
 1180              	_ZTIN6tflite10OpResolverE:
 1181 0000 08000000 		.word	_ZTVN10__cxxabiv117__class_type_infoE+8
 1182 0004 00000000 		.word	_ZTSN6tflite10OpResolverE
 1183              		.weak	_ZTSN6tflite15MicroOpResolverE
 1184              		.section	.rodata._ZTSN6tflite15MicroOpResolverE,"aG",%progbits,_ZTSN6tflite15MicroOpResolverE,comd
 1185              		.align	2
 1188              	_ZTSN6tflite15MicroOpResolverE:
 1189 0000 4E367466 		.ascii	"N6tflite15MicroOpResolverE\000"
 1189      6C697465 
 1189      31354D69 
 1189      63726F4F 
 1189      70526573 
 1190              		.weak	_ZTIN6tflite15MicroOpResolverE
 1191              		.section	.rodata._ZTIN6tflite15MicroOpResolverE,"aG",%progbits,_ZTIN6tflite15MicroOpResolverE,comd
 1192              		.align	2
 1195              	_ZTIN6tflite15MicroOpResolverE:
 1196 0000 08000000 		.word	_ZTVN10__cxxabiv120__si_class_type_infoE+8
 1197 0004 00000000 		.word	_ZTSN6tflite15MicroOpResolverE
 1198 0008 00000000 		.word	_ZTIN6tflite10OpResolverE
 1199              		.weak	_ZTSN6tflite22MicroMutableOpResolverILj5EEE
 1200              		.section	.rodata._ZTSN6tflite22MicroMutableOpResolverILj5EEE,"aG",%progbits,_ZTSN6tflite22MicroMut
 1201              		.align	2
 1204              	_ZTSN6tflite22MicroMutableOpResolverILj5EEE:
 1205 0000 4E367466 		.ascii	"N6tflite22MicroMutableOpResolverILj5EEE\000"
 1205      6C697465 
 1205      32324D69 
 1205      63726F4D 
 1205      75746162 
 1206              		.weak	_ZTIN6tflite22MicroMutableOpResolverILj5EEE
 1207              		.section	.rodata._ZTIN6tflite22MicroMutableOpResolverILj5EEE,"aG",%progbits,_ZTIN6tflite22MicroMut
 1208              		.align	2
 1211              	_ZTIN6tflite22MicroMutableOpResolverILj5EEE:
 1212 0000 08000000 		.word	_ZTVN10__cxxabiv120__si_class_type_infoE+8
 1213 0004 00000000 		.word	_ZTSN6tflite22MicroMutableOpResolverILj5EEE
 1214 0008 00000000 		.word	_ZTIN6tflite15MicroOpResolverE
 1215              		.weak	_ZTVN6tflite22MicroMutableOpResolverILj5EEE
 1216              		.section	.rodata._ZTVN6tflite22MicroMutableOpResolverILj5EEE,"aG",%progbits,_ZTVN6tflite22MicroMut
 1217              		.align	2
 1220              	_ZTVN6tflite22MicroMutableOpResolverILj5EEE:
 1221 0000 00000000 		.word	0
 1222 0004 00000000 		.word	_ZTIN6tflite22MicroMutableOpResolverILj5EEE
 1223 0008 00000000 		.word	_ZNK6tflite15MicroOpResolver6FindOpENS_15BuiltinOperatorEi
 1224 000c 00000000 		.word	_ZNK6tflite15MicroOpResolver6FindOpEPKci
 1225 0010 00000000 		.word	_ZNK6tflite10OpResolver12GetDelegatesEi
 1226 0014 00000000 		.word	_ZN6tflite22MicroMutableOpResolverILj5EED1Ev
 1227 0018 00000000 		.word	_ZN6tflite22MicroMutableOpResolverILj5EED0Ev
 1228 001c 00000000 		.word	_ZNK6tflite10OpResolver24MayContainUserDefinedOpsEv
 1229 0020 00000000 		.word	_ZNK6tflite22MicroMutableOpResolverILj5EE6FindOpENS_15BuiltinOperatorE
 1230 0024 00000000 		.word	_ZNK6tflite22MicroMutableOpResolverILj5EE6FindOpEPKc
 1231 0028 00000000 		.word	_ZNK6tflite22MicroMutableOpResolverILj5EE15GetOpDataParserENS_15BuiltinOperatorE
 1232              		.weak	_ZN11flatbuffers25flatbuffer_version_stringE
 1233              		.section	.bss._ZGVZ20tfl_PTQ_dnn_setupPreE18micro_profiler_PTQ,"aw",%nobits
 1234              		.align	2
 1235              		.set	.LANCHOR3,. + 0
 1238              	_ZGVZ20tfl_PTQ_dnn_setupPreE18micro_profiler_PTQ:
 1239 0000 00000000 		.space	4
 1240              		.section	.bss._ZGVZ20tfl_PTQ_dnn_setupPreE21micro_op_resolver_PTQ,"aw",%nobits
 1241              		.align	2
 1242              		.set	.LANCHOR7,. + 0
 1245              	_ZGVZ20tfl_PTQ_dnn_setupPreE21micro_op_resolver_PTQ:
 1246 0000 00000000 		.space	4
 1247              		.section	.bss._ZGVZ20tfl_PTQ_dnn_setupPreE22static_interpreter_PTQ,"aw",%nobits
 1248              		.align	2
 1249              		.set	.LANCHOR9,. + 0
 1252              	_ZGVZ20tfl_PTQ_dnn_setupPreE22static_interpreter_PTQ:
 1253 0000 00000000 		.space	4
 1254              		.section	.bss._ZGVZ20tfl_PTQ_dnn_setupPreE24micro_error_reporter_PTQ,"aw",%nobits
 1255              		.align	2
 1256              		.set	.LANCHOR0,. + 0
 1259              	_ZGVZ20tfl_PTQ_dnn_setupPreE24micro_error_reporter_PTQ:
 1260 0000 00000000 		.space	4
 1261              		.section	.bss._ZN12_GLOBAL__N_112profiler_PTQE,"aw",%nobits
 1262              		.align	2
 1263              		.set	.LANCHOR5,. + 0
 1266              	_ZN12_GLOBAL__N_112profiler_PTQE:
 1267 0000 00000000 		.space	4
 1268              		.section	.bss._ZN12_GLOBAL__N_115interpreter_PTQE,"aw",%nobits
 1269              		.align	2
 1270              		.set	.LANCHOR12,. + 0
 1273              	_ZN12_GLOBAL__N_115interpreter_PTQE:
 1274 0000 00000000 		.space	4
 1275              		.section	.bss._ZN12_GLOBAL__N_118error_reporter_PTQE,"aw",%nobits
 1276              		.align	2
 1277              		.set	.LANCHOR2,. + 0
 1280              	_ZN12_GLOBAL__N_118error_reporter_PTQE:
 1281 0000 00000000 		.space	4
 1282              		.section	.bss._ZN12_GLOBAL__N_19input_PTQE,"aw",%nobits
 1283              		.align	2
 1284              		.set	.LANCHOR13,. + 0
 1287              	_ZN12_GLOBAL__N_19input_PTQE:
 1288 0000 00000000 		.space	4
 1289              		.section	.bss._ZN12_GLOBAL__N_19model_PTQE,"aw",%nobits
 1290              		.align	2
 1291              		.set	.LANCHOR6,. + 0
 1294              	_ZN12_GLOBAL__N_19model_PTQE:
 1295 0000 00000000 		.space	4
 1296              		.section	.bss._ZN12_GLOBAL__N_1L16tensor_arena_PTQE,"aw",%nobits
 1297              		.align	3
 1298              		.set	.LANCHOR10,. + 0
 1301              	_ZN12_GLOBAL__N_1L16tensor_arena_PTQE:
 1302 0000 00000000 		.space	10240
 1302      00000000 
 1302      00000000 
 1302      00000000 
 1302      00000000 
 1303              		.section	.bss._ZZ20tfl_PTQ_dnn_setupPreE18micro_profiler_PTQ,"aw",%nobits
 1304              		.align	2
 1305              		.set	.LANCHOR4,. + 0
 1308              	_ZZ20tfl_PTQ_dnn_setupPreE18micro_profiler_PTQ:
 1309 0000 00000000 		.space	608
 1309      00000000 
 1309      00000000 
 1309      00000000 
 1309      00000000 
 1310              		.section	.bss._ZZ20tfl_PTQ_dnn_setupPreE21micro_op_resolver_PTQ,"aw",%nobits
 1311              		.align	2
 1312              		.set	.LANCHOR8,. + 0
 1315              	_ZZ20tfl_PTQ_dnn_setupPreE21micro_op_resolver_PTQ:
 1316 0000 00000000 		.space	204
 1316      00000000 
 1316      00000000 
 1316      00000000 
 1316      00000000 
 1317              		.section	.bss._ZZ20tfl_PTQ_dnn_setupPreE22static_interpreter_PTQ,"aw",%nobits
 1318              		.align	2
 1319              		.set	.LANCHOR11,. + 0
 1322              	_ZZ20tfl_PTQ_dnn_setupPreE22static_interpreter_PTQ:
 1323 0000 00000000 		.space	148
 1323      00000000 
 1323      00000000 
 1323      00000000 
 1323      00000000 
 1324              		.section	.data._ZN11flatbuffers25flatbuffer_version_stringE,"aw",%progbits
 1325              		.align	2
 1328              	_ZN11flatbuffers25flatbuffer_version_stringE:
 1329 0000 00000000 		.word	.LC11
 1330              		.section	.data._ZZ20tfl_PTQ_dnn_setupPreE24micro_error_reporter_PTQ,"aw",%progbits
 1331              		.align	2
 1332              		.set	.LANCHOR1,. + 0
 1335              	_ZZ20tfl_PTQ_dnn_setupPreE24micro_error_reporter_PTQ:
 1336 0000 08000000 		.word	_ZTVN6tflite18MicroErrorReporterE+8
 1337              		.section	.rodata.str1.4,"aMS",%progbits,1
 1338              		.align	2
 1339              	.LC11:
 1340 0000 466C6174 		.ascii	"FlatBuffers 1.12.0\000"
 1340      42756666 
 1340      65727320 
 1340      312E3132 
 1340      2E3000
 1341              		.section	.rodata.tfl_PTQ_dnn_computePre.str1.4,"aMS",%progbits,1
 1342              		.align	2
 1343              	.LC10:
 1344 0000 496E766F 		.ascii	"Invoke failed.\000"
 1344      6B652066 
 1344      61696C65 
 1344      642E00
 1345              		.section	.rodata.tfl_PTQ_dnn_setupPre.str1.4,"aMS",%progbits,1
 1346              		.align	2
 1347              	.LC0:
 1348 0000 20202073 		.ascii	"   start allocating tensors\000"
 1348      74617274 
 1348      20616C6C 
 1348      6F636174 
 1348      696E6720 
 1349              	.LC1:
 1350 001c 20202069 		.ascii	"   input  dimensions : %d\000"
 1350      6E707574 
 1350      20206469 
 1350      6D656E73 
 1350      696F6E73 
 1351 0036 0000     		.space	2
 1352              	.LC2:
 1353 0038 20202069 		.ascii	"   input  shape      : %d, %d, %d, %d\000"
 1353      6E707574 
 1353      20207368 
 1353      61706520 
 1353      20202020 
 1354 005e 0000     		.space	2
 1355              	.LC3:
 1356 0060 6B54664C 		.ascii	"kTfLiteInt8\000"
 1356      69746549 
 1356      6E743800 
 1357              	.LC4:
 1358 006c 20202069 		.ascii	"   input  type       : %s\000"
 1358      6E707574 
 1358      20207479 
 1358      70652020 
 1358      20202020 
 1359 0086 0000     		.space	2
 1360              	.LC5:
 1361 0088 20202041 		.ascii	"   ATTENTION: input type is not %s\000"
 1361      5454454E 
 1361      54494F4E 
 1361      3A20696E 
 1361      70757420 
 1362 00ab 00       		.space	1
 1363              	.LC6:
 1364 00ac 2020206F 		.ascii	"   output dimensions : %d\000"
 1364      75747075 
 1364      74206469 
 1364      6D656E73 
 1364      696F6E73 
 1365 00c6 0000     		.space	2
 1366              	.LC7:
 1367 00c8 2020206F 		.ascii	"   output shape      : %d, %d\000"
 1367      75747075 
 1367      74207368 
 1367      61706520 
 1367      20202020 
 1368 00e6 0000     		.space	2
 1369              	.LC8:
 1370 00e8 2020206F 		.ascii	"   output type       : %s\000"
 1370      75747075 
 1370      74207479 
 1370      70652020 
 1370      20202020 
 1371 0102 0000     		.space	2
 1372              	.LC9:
 1373 0104 20202041 		.ascii	"   ATTENTION: output type is not %s\000"
 1373      5454454E 
 1373      54494F4E 
 1373      3A206F75 
 1373      74707574 
 1374              		.hidden	__dso_handle
 1375              		.ident	"GCC: (GNU Tools for ARM Embedded Processors 6-2017-q2-update) 6.3.1 20170620 (release) [AR