   1              		.cpu cortex-a9
   2              		.eabi_attribute 28, 1
   3              		.eabi_attribute 20, 1
   4              		.eabi_attribute 21, 1
   5              		.eabi_attribute 23, 3
   6              		.eabi_attribute 24, 1
   7              		.eabi_attribute 25, 1
   8              		.eabi_attribute 26, 1
   9              		.eabi_attribute 30, 2
  10              		.eabi_attribute 34, 0
  11              		.eabi_attribute 18, 4
  12              		.file	"r_devlink_wrapper.c"
  13              		.section	.text.no_dev_open,"ax",%progbits
  14              		.align	2
  15              		.global	no_dev_open
  16              		.syntax unified
  17              		.arm
  18              		.fpu neon
  20              	no_dev_open:
  21              		@ args = 0, pretend = 0, frame = 0
  22              		@ frame_needed = 0, uses_anonymous_args = 0
  23              		@ link register save eliminated.
  24 0000 0000E0E3 		mvn	r0, #0
  25 0004 1EFF2FE1 		bx	lr
  27              		.section	.text.no_dev_close,"ax",%progbits
  28              		.align	2
  29              		.global	no_dev_close
  30              		.syntax unified
  31              		.arm
  32              		.fpu neon
  34              	no_dev_close:
  35              		@ args = 0, pretend = 0, frame = 0
  36              		@ frame_needed = 0, uses_anonymous_args = 0
  37              		@ link register save eliminated.
  38 0000 1EFF2FE1 		bx	lr
  40              		.section	.text.no_dev_write,"ax",%progbits
  41              		.align	2
  42              		.global	no_dev_write
  43              		.syntax unified
  44              		.arm
  45              		.fpu neon
  47              	no_dev_write:
  48              		@ args = 0, pretend = 0, frame = 0
  49              		@ frame_needed = 0, uses_anonymous_args = 0
  50              		@ link register save eliminated.
  51 0000 0000E0E3 		mvn	r0, #0
  52 0004 1EFF2FE1 		bx	lr
  54              		.section	.text.no_dev_control,"ax",%progbits
  55              		.align	2
  56              		.global	no_dev_control
  57              		.syntax unified
  58              		.arm
  59              		.fpu neon
  61              	no_dev_control:
  62              		@ args = 0, pretend = 0, frame = 0
  63              		@ frame_needed = 0, uses_anonymous_args = 0
  64              		@ link register save eliminated.
  65 0000 0000E0E3 		mvn	r0, #0
  66 0004 1EFF2FE1 		bx	lr
  68              		.section	.text.no_dev_get_version,"ax",%progbits
  69              		.align	2
  70              		.global	no_dev_get_version
  71              		.syntax unified
  72              		.arm
  73              		.fpu neon
  75              	no_dev_get_version:
  76              		@ args = 0, pretend = 0, frame = 0
  77              		@ frame_needed = 0, uses_anonymous_args = 0
  78              		@ link register save eliminated.
  79 0000 0000E0E3 		mvn	r0, #0
  80 0004 1EFF2FE1 		bx	lr
  82              		.section	.text.no_dev_read,"ax",%progbits
  83              		.align	2
  84              		.global	no_dev_read
  85              		.syntax unified
  86              		.arm
  87              		.fpu neon
  89              	no_dev_read:
  90              		@ args = 0, pretend = 0, frame = 0
  91              		@ frame_needed = 0, uses_anonymous_args = 0
  92              		@ link register save eliminated.
  93 0000 0000E0E3 		mvn	r0, #0
  94 0004 1EFF2FE1 		bx	lr
  96              		.section	.text.direct_open,"ax",%progbits
  97              		.align	2
  98              		.global	direct_open
  99              		.syntax unified
 100              		.arm
 101              		.fpu neon
 103              	direct_open:
 104              		@ args = 0, pretend = 0, frame = 32
 105              		@ frame_needed = 0, uses_anonymous_args = 0
 106 0000 F0412DE9 		push	{r4, r5, r6, r7, r8, lr}
 107 0004 005000E3 		movw	r5, #:lower16:.LANCHOR0
 108 0008 20D04DE2 		sub	sp, sp, #32
 109 000c 005040E3 		movt	r5, #:upper16:.LANCHOR0
 110 0010 0340A0E3 		mov	r4, #3
 111 0014 020000EA 		b	.L9
 112              	.L41:
 113 0018 014084E2 		add	r4, r4, #1
 114 001c 540054E3 		cmp	r4, #84
 115 0020 1200000A 		beq	.L39
 116              	.L9:
 117 0024 842295E7 		ldr	r2, [r5, r4, lsl #5]
 118 0028 8462A0E1 		lsl	r6, r4, #5
 119 002c 000052E3 		cmp	r2, #0
 120 0030 F8FFFF1A 		bne	.L41
 121 0034 0170A0E1 		mov	r7, r1
 122 0038 002000E3 		movw	r2, #:lower16:.LC10
 123 003c 001000E3 		movw	r1, #:lower16:.LC11
 124 0040 0030A0E1 		mov	r3, r0
 125 0044 002040E3 		movt	r2, #:upper16:.LC10
 126 0048 001040E3 		movt	r1, #:upper16:.LC11
 127 004c 0D00A0E1 		mov	r0, sp
 128 0050 0D80A0E1 		mov	r8, sp
 129 0054 FEFFFFEB 		bl	sprintf
 130 0058 001000E3 		movw	r1, #:lower16:.LC10
 131 005c 0D00A0E1 		mov	r0, sp
 132 0060 001040E3 		movt	r1, #:upper16:.LC10
 133 0064 FEFFFFEB 		bl	strstr
 134 0068 000058E1 		cmp	r8, r0
 135 006c 0300000A 		beq	.L20
 136              	.L39:
 137 0070 0040E0E3 		mvn	r4, #0
 138              	.L7:
 139 0074 0400A0E1 		mov	r0, r4
 140 0078 20D08DE2 		add	sp, sp, #32
 141              		@ sp needed
 142 007c F081BDE8 		pop	{r4, r5, r6, r7, r8, pc}
 143              	.L20:
 144 0080 001000E3 		movw	r1, #:lower16:.LC1
 145 0084 04008DE2 		add	r0, sp, #4
 146 0088 001040E3 		movt	r1, #:upper16:.LC1
 147 008c FEFFFFEB 		bl	strcmp
 148 0090 000050E3 		cmp	r0, #0
 149 0094 6A00000A 		beq	.L21
 150 0098 001000E3 		movw	r1, #:lower16:.LC2
 151 009c 04008DE2 		add	r0, sp, #4
 152 00a0 001040E3 		movt	r1, #:upper16:.LC2
 153 00a4 FEFFFFEB 		bl	strcmp
 154 00a8 000050E3 		cmp	r0, #0
 155 00ac 8000000A 		beq	.L22
 156 00b0 001000E3 		movw	r1, #:lower16:.LC3
 157 00b4 04008DE2 		add	r0, sp, #4
 158 00b8 001040E3 		movt	r1, #:upper16:.LC3
 159 00bc FEFFFFEB 		bl	strcmp
 160 00c0 000050E3 		cmp	r0, #0
 161 00c4 7600000A 		beq	.L23
 162 00c8 001000E3 		movw	r1, #:lower16:.LC4
 163 00cc 04008DE2 		add	r0, sp, #4
 164 00d0 001040E3 		movt	r1, #:upper16:.LC4
 165 00d4 FEFFFFEB 		bl	strcmp
 166 00d8 000050E3 		cmp	r0, #0
 167 00dc 6C00000A 		beq	.L24
 168 00e0 001000E3 		movw	r1, #:lower16:.LC5
 169 00e4 04008DE2 		add	r0, sp, #4
 170 00e8 001040E3 		movt	r1, #:upper16:.LC5
 171 00ec FEFFFFEB 		bl	strcmp
 172 00f0 000050E3 		cmp	r0, #0
 173 00f4 6200000A 		beq	.L25
 174 00f8 001000E3 		movw	r1, #:lower16:.LC6
 175 00fc 04008DE2 		add	r0, sp, #4
 176 0100 001040E3 		movt	r1, #:upper16:.LC6
 177 0104 FEFFFFEB 		bl	strcmp
 178 0108 000050E3 		cmp	r0, #0
 179 010c 5800000A 		beq	.L26
 180 0110 001000E3 		movw	r1, #:lower16:.LC7
 181 0114 04008DE2 		add	r0, sp, #4
 182 0118 001040E3 		movt	r1, #:upper16:.LC7
 183 011c FEFFFFEB 		bl	strcmp
 184 0120 000050E3 		cmp	r0, #0
 185 0124 4E00000A 		beq	.L27
 186 0128 001000E3 		movw	r1, #:lower16:.LC8
 187 012c 04008DE2 		add	r0, sp, #4
 188 0130 001040E3 		movt	r1, #:upper16:.LC8
 189 0134 FEFFFFEB 		bl	strcmp
 190 0138 000050E3 		cmp	r0, #0
 191 013c 4400000A 		beq	.L28
 192 0140 001000E3 		movw	r1, #:lower16:.LC9
 193 0144 04008DE2 		add	r0, sp, #4
 194 0148 001040E3 		movt	r1, #:upper16:.LC9
 195 014c FEFFFFEB 		bl	strcmp
 196 0150 000050E3 		cmp	r0, #0
 197 0154 0F00000A 		beq	.L29
 198 0158 001000E3 		movw	r1, #:lower16:.LC0
 199 015c 04008DE2 		add	r0, sp, #4
 200 0160 001040E3 		movt	r1, #:upper16:.LC0
 201 0164 FEFFFFEB 		bl	strcmp
 202 0168 003050E2 		subs	r3, r0, #0
 203 016c 00000003 		movweq	r0, #:lower16:.LC0
 204 0170 00004003 		movteq	r0, #:upper16:.LC0
 205 0174 0A00000A 		beq	.L11
 206              	.L12:
 207 0178 060085E0 		add	r0, r5, r6
 208              	.L14:
 209 017c 2020A0E3 		mov	r2, #32
 210 0180 0010A0E3 		mov	r1, #0
 211 0184 FEFFFFEB 		bl	memset
 212 0188 0030A0E3 		mov	r3, #0
 213 018c 843285E7 		str	r3, [r5, r4, lsl #5]
 214 0190 0040E0E3 		mvn	r4, #0
 215 0194 B6FFFFEA 		b	.L7
 216              	.L29:
 217 0198 000000E3 		movw	r0, #:lower16:.LC9
 218 019c 0130A0E3 		mov	r3, #1
 219 01a0 000040E3 		movt	r0, #:upper16:.LC9
 220              	.L11:
 221 01a4 832083E0 		add	r2, r3, r3, lsl #1
 222 01a8 003000E3 		movw	r3, #:lower16:.LANCHOR1
 223 01ac 003040E3 		movt	r3, #:upper16:.LANCHOR1
 224 01b0 023183E0 		add	r3, r3, r2, lsl #2
 225 01b4 001000E3 		movw	r1, #:lower16:.LANCHOR2
 226 01b8 001040E3 		movt	r1, #:upper16:.LANCHOR2
 227 01bc 0C0093E9 		ldmib	r3, {r2, r3}
 228 01c0 841285E7 		str	r1, [r5, r4, lsl #5]
 229 01c4 000052E3 		cmp	r2, #0
 230 01c8 EAFFFF0A 		beq	.L12
 231 01cc 010052E1 		cmp	r2, r1
 232 01d0 068085E0 		add	r8, r5, r6
 233 01d4 842285E7 		str	r2, [r5, r4, lsl #5]
 234 01d8 080088E5 		str	r0, [r8, #8]
 235 01dc 1C30C8E5 		strb	r3, [r8, #28]
 236 01e0 0E00000A 		beq	.L38
 237 01e4 020017E3 		tst	r7, #2
 238 01e8 104088E5 		str	r4, [r8, #16]
 239 01ec 0D00000A 		beq	.L15
 240 01f0 0C30A0E3 		mov	r3, #12
 241 01f4 143088E5 		str	r3, [r8, #20]
 242              	.L16:
 243 01f8 020C17E3 		tst	r7, #512
 244 01fc 0800A0E1 		mov	r0, r8
 245 0200 06108510 		addne	r1, r5, r6
 246 0204 066085E0 		add	r6, r5, r6
 247 0208 14308115 		strne	r3, [r1, #20]
 248 020c 043092E5 		ldr	r3, [r2, #4]
 249 0210 187086E5 		str	r7, [r6, #24]
 250 0214 33FF2FE1 		blx	r3
 251 0218 010070E3 		cmn	r0, #1
 252 021c 94FFFF1A 		bne	.L7
 253              	.L38:
 254 0220 0800A0E1 		mov	r0, r8
 255 0224 D4FFFFEA 		b	.L14
 256              	.L15:
 257 0228 010017E3 		tst	r7, #1
 258 022c 0830A013 		movne	r3, #8
 259 0230 0410A003 		moveq	r1, #4
 260 0234 14308815 		strne	r3, [r8, #20]
 261 0238 0C30A003 		moveq	r3, #12
 262 023c 14108805 		streq	r1, [r8, #20]
 263 0240 ECFFFFEA 		b	.L16
 264              	.L21:
 265 0244 000000E3 		movw	r0, #:lower16:.LC1
 266 0248 0930A0E3 		mov	r3, #9
 267 024c 000040E3 		movt	r0, #:upper16:.LC1
 268 0250 D3FFFFEA 		b	.L11
 269              	.L28:
 270 0254 000000E3 		movw	r0, #:lower16:.LC8
 271 0258 0230A0E3 		mov	r3, #2
 272 025c 000040E3 		movt	r0, #:upper16:.LC8
 273 0260 CFFFFFEA 		b	.L11
 274              	.L27:
 275 0264 000000E3 		movw	r0, #:lower16:.LC7
 276 0268 0330A0E3 		mov	r3, #3
 277 026c 000040E3 		movt	r0, #:upper16:.LC7
 278 0270 CBFFFFEA 		b	.L11
 279              	.L26:
 280 0274 000000E3 		movw	r0, #:lower16:.LC6
 281 0278 0430A0E3 		mov	r3, #4
 282 027c 000040E3 		movt	r0, #:upper16:.LC6
 283 0280 C7FFFFEA 		b	.L11
 284              	.L25:
 285 0284 000000E3 		movw	r0, #:lower16:.LC5
 286 0288 0530A0E3 		mov	r3, #5
 287 028c 000040E3 		movt	r0, #:upper16:.LC5
 288 0290 C3FFFFEA 		b	.L11
 289              	.L24:
 290 0294 000000E3 		movw	r0, #:lower16:.LC4
 291 0298 0630A0E3 		mov	r3, #6
 292 029c 000040E3 		movt	r0, #:upper16:.LC4
 293 02a0 BFFFFFEA 		b	.L11
 294              	.L23:
 295 02a4 000000E3 		movw	r0, #:lower16:.LC3
 296 02a8 0730A0E3 		mov	r3, #7
 297 02ac 000040E3 		movt	r0, #:upper16:.LC3
 298 02b0 BBFFFFEA 		b	.L11
 299              	.L22:
 300 02b4 000000E3 		movw	r0, #:lower16:.LC2
 301 02b8 0830A0E3 		mov	r3, #8
 302 02bc 000040E3 		movt	r0, #:upper16:.LC2
 303 02c0 B7FFFFEA 		b	.L11
 305              		.section	.text.direct_close,"ax",%progbits
 306              		.align	2
 307              		.global	direct_close
 308              		.syntax unified
 309              		.arm
 310              		.fpu neon
 312              	direct_close:
 313              		@ args = 0, pretend = 0, frame = 0
 314              		@ frame_needed = 0, uses_anonymous_args = 0
 315 0000 530050E3 		cmp	r0, #83
 316 0004 0F00008A 		bhi	.L45
 317 0008 003000E3 		movw	r3, #:lower16:.LANCHOR0
 318 000c 003040E3 		movt	r3, #:upper16:.LANCHOR0
 319 0010 802293E7 		ldr	r2, [r3, r0, lsl #5]
 320 0014 000052E3 		cmp	r2, #0
 321 0018 0A00000A 		beq	.L45
 322 001c 10402DE9 		push	{r4, lr}
 323 0020 804283E0 		add	r4, r3, r0, lsl #5
 324 0024 083092E5 		ldr	r3, [r2, #8]
 325 0028 0400A0E1 		mov	r0, r4
 326 002c 33FF2FE1 		blx	r3
 327 0030 0400A0E1 		mov	r0, r4
 328 0034 2020A0E3 		mov	r2, #32
 329 0038 0010A0E3 		mov	r1, #0
 330 003c FEFFFFEB 		bl	memset
 331 0040 0000A0E3 		mov	r0, #0
 332 0044 1080BDE8 		pop	{r4, pc}
 333              	.L45:
 334 0048 0000E0E3 		mvn	r0, #0
 335 004c 1EFF2FE1 		bx	lr
 337              		.section	.text.direct_read,"ax",%progbits
 338              		.align	2
 339              		.global	direct_read
 340              		.syntax unified
 341              		.arm
 342              		.fpu neon
 344              	direct_read:
 345              		@ args = 0, pretend = 0, frame = 0
 346              		@ frame_needed = 0, uses_anonymous_args = 0
 347              		@ link register save eliminated.
 348 0000 530050E3 		cmp	r0, #83
 349 0004 0100009A 		bls	.L55
 350              	.L50:
 351 0008 0000E0E3 		mvn	r0, #0
 352 000c 1EFF2FE1 		bx	lr
 353              	.L55:
 354 0010 003000E3 		movw	r3, #:lower16:.LANCHOR0
 355 0014 003040E3 		movt	r3, #:upper16:.LANCHOR0
 356 0018 80C293E7 		ldr	ip, [r3, r0, lsl #5]
 357 001c 00005CE3 		cmp	ip, #0
 358 0020 F8FFFF0A 		beq	.L50
 359 0024 800283E0 		add	r0, r3, r0, lsl #5
 360 0028 183090E5 		ldr	r3, [r0, #24]
 361 002c 0230D3E3 		bics	r3, r3, #2
 362 0030 F4FFFF1A 		bne	.L50
 363 0034 0C309CE5 		ldr	r3, [ip, #12]
 364 0038 13FF2FE1 		bx	r3
 366              		.section	.text.direct_write,"ax",%progbits
 367              		.align	2
 368              		.global	direct_write
 369              		.syntax unified
 370              		.arm
 371              		.fpu neon
 373              	direct_write:
 374              		@ args = 0, pretend = 0, frame = 0
 375              		@ frame_needed = 0, uses_anonymous_args = 0
 376              		@ link register save eliminated.
 377 0000 530050E3 		cmp	r0, #83
 378 0004 0100009A 		bls	.L61
 379              	.L56:
 380 0008 0000E0E3 		mvn	r0, #0
 381 000c 1EFF2FE1 		bx	lr
 382              	.L61:
 383 0010 003000E3 		movw	r3, #:lower16:.LANCHOR0
 384 0014 003040E3 		movt	r3, #:upper16:.LANCHOR0
 385 0018 80C293E7 		ldr	ip, [r3, r0, lsl #5]
 386 001c 00005CE3 		cmp	ip, #0
 387 0020 F8FFFF0A 		beq	.L56
 388 0024 800283E0 		add	r0, r3, r0, lsl #5
 389 0028 183090E5 		ldr	r3, [r0, #24]
 390 002c 020053E3 		cmp	r3, #2
 391 0030 01308303 		orreq	r3, r3, #1
 392 0034 010013E3 		tst	r3, #1
 393 0038 F2FFFF0A 		beq	.L56
 394 003c 10309CE5 		ldr	r3, [ip, #16]
 395 0040 13FF2FE1 		bx	r3
 397              		.section	.text.direct_control,"ax",%progbits
 398              		.align	2
 399              		.global	direct_control
 400              		.syntax unified
 401              		.arm
 402              		.fpu neon
 404              	direct_control:
 405              		@ args = 0, pretend = 0, frame = 0
 406              		@ frame_needed = 0, uses_anonymous_args = 0
 407 0000 530050E3 		cmp	r0, #83
 408 0004 0100009A 		bls	.L69
 409              	.L62:
 410 0008 0000E0E3 		mvn	r0, #0
 411 000c 1EFF2FE1 		bx	lr
 412              	.L69:
 413 0010 003000E3 		movw	r3, #:lower16:.LANCHOR0
 414 0014 003040E3 		movt	r3, #:upper16:.LANCHOR0
 415 0018 80C293E7 		ldr	ip, [r3, r0, lsl #5]
 416 001c 00005CE3 		cmp	ip, #0
 417 0020 F8FFFF0A 		beq	.L62
 418 0024 04E02DE5 		str	lr, [sp, #-4]!
 419 0028 800283E0 		add	r0, r3, r0, lsl #5
 420 002c 14E09CE5 		ldr	lr, [ip, #20]
 421 0030 0E30A0E1 		mov	r3, lr
 422 0034 04E09DE4 		ldr	lr, [sp], #4
 423 0038 13FF2FE1 		bx	r3
 425              		.section	.text.direct_get_version,"ax",%progbits
 426              		.align	2
 427              		.global	direct_get_version
 428              		.syntax unified
 429              		.arm
 430              		.fpu neon
 432              	direct_get_version:
 433              		@ args = 0, pretend = 0, frame = 32
 434              		@ frame_needed = 0, uses_anonymous_args = 0
 435 0000 30402DE9 		push	{r4, r5, lr}
 436 0004 002000E3 		movw	r2, #:lower16:.LC10
 437 0008 24D04DE2 		sub	sp, sp, #36
 438 000c 0150A0E1 		mov	r5, r1
 439 0010 001000E3 		movw	r1, #:lower16:.LC11
 440 0014 0030A0E1 		mov	r3, r0
 441 0018 002040E3 		movt	r2, #:upper16:.LC10
 442 001c 001040E3 		movt	r1, #:upper16:.LC11
 443 0020 0D00A0E1 		mov	r0, sp
 444 0024 0D40A0E1 		mov	r4, sp
 445 0028 FEFFFFEB 		bl	sprintf
 446 002c 001000E3 		movw	r1, #:lower16:.LC10
 447 0030 0D00A0E1 		mov	r0, sp
 448 0034 001040E3 		movt	r1, #:upper16:.LC10
 449 0038 FEFFFFEB 		bl	strstr
 450 003c 000054E1 		cmp	r4, r0
 451 0040 0200000A 		beq	.L86
 452              	.L84:
 453 0044 0000E0E3 		mvn	r0, #0
 454 0048 24D08DE2 		add	sp, sp, #36
 455              		@ sp needed
 456 004c 3080BDE8 		pop	{r4, r5, pc}
 457              	.L86:
 458 0050 001000E3 		movw	r1, #:lower16:.LC1
 459 0054 04008DE2 		add	r0, sp, #4
 460 0058 001040E3 		movt	r1, #:upper16:.LC1
 461 005c FEFFFFEB 		bl	strcmp
 462 0060 000050E3 		cmp	r0, #0
 463 0064 5400000A 		beq	.L74
 464 0068 001000E3 		movw	r1, #:lower16:.LC2
 465 006c 04008DE2 		add	r0, sp, #4
 466 0070 001040E3 		movt	r1, #:upper16:.LC2
 467 0074 FEFFFFEB 		bl	strcmp
 468 0078 000050E3 		cmp	r0, #0
 469 007c 3E00000A 		beq	.L75
 470 0080 001000E3 		movw	r1, #:lower16:.LC3
 471 0084 04008DE2 		add	r0, sp, #4
 472 0088 001040E3 		movt	r1, #:upper16:.LC3
 473 008c FEFFFFEB 		bl	strcmp
 474 0090 000050E3 		cmp	r0, #0
 475 0094 4600000A 		beq	.L76
 476 0098 001000E3 		movw	r1, #:lower16:.LC4
 477 009c 04008DE2 		add	r0, sp, #4
 478 00a0 001040E3 		movt	r1, #:upper16:.LC4
 479 00a4 FEFFFFEB 		bl	strcmp
 480 00a8 000050E3 		cmp	r0, #0
 481 00ac 3E00000A 		beq	.L77
 482 00b0 001000E3 		movw	r1, #:lower16:.LC5
 483 00b4 04008DE2 		add	r0, sp, #4
 484 00b8 001040E3 		movt	r1, #:upper16:.LC5
 485 00bc FEFFFFEB 		bl	strcmp
 486 00c0 000050E3 		cmp	r0, #0
 487 00c4 3600000A 		beq	.L78
 488 00c8 001000E3 		movw	r1, #:lower16:.LC6
 489 00cc 04008DE2 		add	r0, sp, #4
 490 00d0 001040E3 		movt	r1, #:upper16:.LC6
 491 00d4 FEFFFFEB 		bl	strcmp
 492 00d8 000050E3 		cmp	r0, #0
 493 00dc 2E00000A 		beq	.L79
 494 00e0 001000E3 		movw	r1, #:lower16:.LC7
 495 00e4 04008DE2 		add	r0, sp, #4
 496 00e8 001040E3 		movt	r1, #:upper16:.LC7
 497 00ec FEFFFFEB 		bl	strcmp
 498 00f0 000050E3 		cmp	r0, #0
 499 00f4 2600000A 		beq	.L80
 500 00f8 001000E3 		movw	r1, #:lower16:.LC8
 501 00fc 04008DE2 		add	r0, sp, #4
 502 0100 001040E3 		movt	r1, #:upper16:.LC8
 503 0104 FEFFFFEB 		bl	strcmp
 504 0108 000050E3 		cmp	r0, #0
 505 010c 1E00000A 		beq	.L81
 506 0110 001000E3 		movw	r1, #:lower16:.LC9
 507 0114 04008DE2 		add	r0, sp, #4
 508 0118 001040E3 		movt	r1, #:upper16:.LC9
 509 011c FEFFFFEB 		bl	strcmp
 510 0120 000050E3 		cmp	r0, #0
 511 0124 1600000A 		beq	.L82
 512 0128 001000E3 		movw	r1, #:lower16:.LC0
 513 012c 04008DE2 		add	r0, sp, #4
 514 0130 001040E3 		movt	r1, #:upper16:.LC0
 515 0134 FEFFFFEB 		bl	strcmp
 516 0138 000050E3 		cmp	r0, #0
 517 013c 0030A001 		moveq	r3, r0
 518 0140 BFFFFF1A 		bne	.L84
 519              	.L72:
 520 0144 832083E0 		add	r2, r3, r3, lsl #1
 521 0148 003000E3 		movw	r3, #:lower16:.LANCHOR1
 522 014c 003040E3 		movt	r3, #:upper16:.LANCHOR1
 523 0150 023183E0 		add	r3, r3, r2, lsl #2
 524 0154 043093E5 		ldr	r3, [r3, #4]
 525 0158 000053E3 		cmp	r3, #0
 526 015c B8FFFF0A 		beq	.L84
 527 0160 183093E5 		ldr	r3, [r3, #24]
 528 0164 0510A0E1 		mov	r1, r5
 529 0168 0000A0E3 		mov	r0, #0
 530 016c 33FF2FE1 		blx	r3
 531 0170 7000AFE6 		sxtb	r0, r0
 532 0174 24D08DE2 		add	sp, sp, #36
 533              		@ sp needed
 534 0178 3080BDE8 		pop	{r4, r5, pc}
 535              	.L75:
 536 017c 0830A0E3 		mov	r3, #8
 537 0180 EFFFFFEA 		b	.L72
 538              	.L82:
 539 0184 0130A0E3 		mov	r3, #1
 540 0188 EDFFFFEA 		b	.L72
 541              	.L81:
 542 018c 0230A0E3 		mov	r3, #2
 543 0190 EBFFFFEA 		b	.L72
 544              	.L80:
 545 0194 0330A0E3 		mov	r3, #3
 546 0198 E9FFFFEA 		b	.L72
 547              	.L79:
 548 019c 0430A0E3 		mov	r3, #4
 549 01a0 E7FFFFEA 		b	.L72
 550              	.L78:
 551 01a4 0530A0E3 		mov	r3, #5
 552 01a8 E5FFFFEA 		b	.L72
 553              	.L77:
 554 01ac 0630A0E3 		mov	r3, #6
 555 01b0 E3FFFFEA 		b	.L72
 556              	.L76:
 557 01b4 0730A0E3 		mov	r3, #7
 558 01b8 E1FFFFEA 		b	.L72
 559              	.L74:
 560 01bc 0930A0E3 		mov	r3, #9
 561 01c0 DFFFFFEA 		b	.L72
 563              		.section	.text.low_open,"ax",%progbits
 564              		.align	2
 565              		.global	low_open
 566              		.syntax unified
 567              		.arm
 568              		.fpu neon
 570              	low_open:
 571              		@ args = 0, pretend = 0, frame = 0
 572              		@ frame_needed = 0, uses_anonymous_args = 0
 573 0000 F0472DE9 		push	{r4, r5, r6, r7, r8, r9, r10, lr}
 574 0004 005000E3 		movw	r5, #:lower16:.LANCHOR0
 575 0008 0070A0E1 		mov	r7, r0
 576 000c 0180A0E1 		mov	r8, r1
 577 0010 005040E3 		movt	r5, #:upper16:.LANCHOR0
 578 0014 0040A0E3 		mov	r4, #0
 579 0018 020000EA 		b	.L91
 580              	.L88:
 581 001c 014084E2 		add	r4, r4, #1
 582 0020 540054E3 		cmp	r4, #84
 583 0024 A100000A 		beq	.L124
 584              	.L91:
 585 0028 843295E7 		ldr	r3, [r5, r4, lsl #5]
 586 002c 8462A0E1 		lsl	r6, r4, #5
 587 0030 000053E3 		cmp	r3, #0
 588 0034 F8FFFF1A 		bne	.L88
 589 0038 001000E3 		movw	r1, #:lower16:.LC10
 590 003c 0700A0E1 		mov	r0, r7
 591 0040 001040E3 		movt	r1, #:upper16:.LC10
 592 0044 FEFFFFEB 		bl	strstr
 593 0048 000057E1 		cmp	r7, r0
 594 004c 00300013 		movwne	r3, #:lower16:.LANCHOR2
 595 0050 00304013 		movtne	r3, #:upper16:.LANCHOR2
 596 0054 84328517 		strne	r3, [r5, r4, lsl #5]
 597 0058 0900000A 		beq	.L125
 598              	.L93:
 599 005c 066085E0 		add	r6, r5, r6
 600              	.L92:
 601 0060 0600A0E1 		mov	r0, r6
 602 0064 2020A0E3 		mov	r2, #32
 603 0068 0010A0E3 		mov	r1, #0
 604 006c FEFFFFEB 		bl	memset
 605 0070 0030A0E3 		mov	r3, #0
 606 0074 843285E7 		str	r3, [r5, r4, lsl #5]
 607 0078 0040E0E3 		mvn	r4, #0
 608              	.L87:
 609 007c 0400A0E1 		mov	r0, r4
 610 0080 F087BDE8 		pop	{r4, r5, r6, r7, r8, r9, r10, pc}
 611              	.L125:
 612 0084 009000E3 		movw	r9, #:lower16:.LANCHOR2
 613 0088 047097E2 		adds	r7, r7, #4
 614 008c 009040E3 		movt	r9, #:upper16:.LANCHOR2
 615 0090 849285E7 		str	r9, [r5, r4, lsl #5]
 616 0094 F0FFFF0A 		beq	.L93
 617 0098 001000E3 		movw	r1, #:lower16:.LC1
 618 009c 0700A0E1 		mov	r0, r7
 619 00a0 001040E3 		movt	r1, #:upper16:.LC1
 620 00a4 FEFFFFEB 		bl	strcmp
 621 00a8 000050E3 		cmp	r0, #0
 622 00ac 7B00000A 		beq	.L101
 623 00b0 001000E3 		movw	r1, #:lower16:.LC2
 624 00b4 0700A0E1 		mov	r0, r7
 625 00b8 001040E3 		movt	r1, #:upper16:.LC2
 626 00bc FEFFFFEB 		bl	strcmp
 627 00c0 000050E3 		cmp	r0, #0
 628 00c4 5500000A 		beq	.L102
 629 00c8 001000E3 		movw	r1, #:lower16:.LC3
 630 00cc 0700A0E1 		mov	r0, r7
 631 00d0 001040E3 		movt	r1, #:upper16:.LC3
 632 00d4 FEFFFFEB 		bl	strcmp
 633 00d8 000050E3 		cmp	r0, #0
 634 00dc 6B00000A 		beq	.L103
 635 00e0 001000E3 		movw	r1, #:lower16:.LC4
 636 00e4 0700A0E1 		mov	r0, r7
 637 00e8 001040E3 		movt	r1, #:upper16:.LC4
 638 00ec FEFFFFEB 		bl	strcmp
 639 00f0 000050E3 		cmp	r0, #0
 640 00f4 6100000A 		beq	.L104
 641 00f8 001000E3 		movw	r1, #:lower16:.LC5
 642 00fc 0700A0E1 		mov	r0, r7
 643 0100 001040E3 		movt	r1, #:upper16:.LC5
 644 0104 FEFFFFEB 		bl	strcmp
 645 0108 000050E3 		cmp	r0, #0
 646 010c 5700000A 		beq	.L105
 647 0110 001000E3 		movw	r1, #:lower16:.LC6
 648 0114 0700A0E1 		mov	r0, r7
 649 0118 001040E3 		movt	r1, #:upper16:.LC6
 650 011c FEFFFFEB 		bl	strcmp
 651 0120 000050E3 		cmp	r0, #0
 652 0124 4D00000A 		beq	.L106
 653 0128 001000E3 		movw	r1, #:lower16:.LC7
 654 012c 0700A0E1 		mov	r0, r7
 655 0130 001040E3 		movt	r1, #:upper16:.LC7
 656 0134 FEFFFFEB 		bl	strcmp
 657 0138 000050E3 		cmp	r0, #0
 658 013c 4300000A 		beq	.L107
 659 0140 001000E3 		movw	r1, #:lower16:.LC8
 660 0144 0700A0E1 		mov	r0, r7
 661 0148 001040E3 		movt	r1, #:upper16:.LC8
 662 014c FEFFFFEB 		bl	strcmp
 663 0150 000050E3 		cmp	r0, #0
 664 0154 3900000A 		beq	.L108
 665 0158 001000E3 		movw	r1, #:lower16:.LC9
 666 015c 0700A0E1 		mov	r0, r7
 667 0160 001040E3 		movt	r1, #:upper16:.LC9
 668 0164 FEFFFFEB 		bl	strcmp
 669 0168 000050E3 		cmp	r0, #0
 670 016c 2F00000A 		beq	.L109
 671 0170 001000E3 		movw	r1, #:lower16:.LC0
 672 0174 0700A0E1 		mov	r0, r7
 673 0178 001040E3 		movt	r1, #:upper16:.LC0
 674 017c FEFFFFEB 		bl	strcmp
 675 0180 003050E2 		subs	r3, r0, #0
 676 0184 00100003 		movweq	r1, #:lower16:.LC0
 677 0188 00104003 		movteq	r1, #:upper16:.LC0
 678 018c B2FFFF1A 		bne	.L93
 679              	.L94:
 680 0190 832083E0 		add	r2, r3, r3, lsl #1
 681 0194 003000E3 		movw	r3, #:lower16:.LANCHOR1
 682 0198 003040E3 		movt	r3, #:upper16:.LANCHOR1
 683 019c 023183E0 		add	r3, r3, r2, lsl #2
 684 01a0 0C0093E9 		ldmib	r3, {r2, r3}
 685 01a4 000052E3 		cmp	r2, #0
 686 01a8 ABFFFF0A 		beq	.L93
 687 01ac 090052E1 		cmp	r2, r9
 688 01b0 067085E0 		add	r7, r5, r6
 689 01b4 842285E7 		str	r2, [r5, r4, lsl #5]
 690 01b8 081087E5 		str	r1, [r7, #8]
 691 01bc 1C30C7E5 		strb	r3, [r7, #28]
 692 01c0 1400000A 		beq	.L122
 693 01c4 020018E3 		tst	r8, #2
 694 01c8 104087E5 		str	r4, [r7, #16]
 695 01cc 0C30A013 		movne	r3, #12
 696 01d0 14308715 		strne	r3, [r7, #20]
 697 01d4 0500001A 		bne	.L97
 698 01d8 010018E3 		tst	r8, #1
 699 01dc 0C30A003 		moveq	r3, #12
 700 01e0 0830A013 		movne	r3, #8
 701 01e4 0410A003 		moveq	r1, #4
 702 01e8 14308715 		strne	r3, [r7, #20]
 703 01ec 14108705 		streq	r1, [r7, #20]
 704              	.L97:
 705 01f0 020C18E3 		tst	r8, #512
 706 01f4 0700A0E1 		mov	r0, r7
 707 01f8 06108510 		addne	r1, r5, r6
 708 01fc 066085E0 		add	r6, r5, r6
 709 0200 14308115 		strne	r3, [r1, #20]
 710 0204 043092E5 		ldr	r3, [r2, #4]
 711 0208 188086E5 		str	r8, [r6, #24]
 712 020c 33FF2FE1 		blx	r3
 713 0210 010070E3 		cmn	r0, #1
 714 0214 98FFFF1A 		bne	.L87
 715              	.L122:
 716 0218 0760A0E1 		mov	r6, r7
 717 021c 8FFFFFEA 		b	.L92
 718              	.L102:
 719 0220 001000E3 		movw	r1, #:lower16:.LC2
 720 0224 0830A0E3 		mov	r3, #8
 721 0228 001040E3 		movt	r1, #:upper16:.LC2
 722 022c D7FFFFEA 		b	.L94
 723              	.L109:
 724 0230 001000E3 		movw	r1, #:lower16:.LC9
 725 0234 0130A0E3 		mov	r3, #1
 726 0238 001040E3 		movt	r1, #:upper16:.LC9
 727 023c D3FFFFEA 		b	.L94
 728              	.L108:
 729 0240 001000E3 		movw	r1, #:lower16:.LC8
 730 0244 0230A0E3 		mov	r3, #2
 731 0248 001040E3 		movt	r1, #:upper16:.LC8
 732 024c CFFFFFEA 		b	.L94
 733              	.L107:
 734 0250 001000E3 		movw	r1, #:lower16:.LC7
 735 0254 0330A0E3 		mov	r3, #3
 736 0258 001040E3 		movt	r1, #:upper16:.LC7
 737 025c CBFFFFEA 		b	.L94
 738              	.L106:
 739 0260 001000E3 		movw	r1, #:lower16:.LC6
 740 0264 0430A0E3 		mov	r3, #4
 741 0268 001040E3 		movt	r1, #:upper16:.LC6
 742 026c C7FFFFEA 		b	.L94
 743              	.L105:
 744 0270 001000E3 		movw	r1, #:lower16:.LC5
 745 0274 0530A0E3 		mov	r3, #5
 746 0278 001040E3 		movt	r1, #:upper16:.LC5
 747 027c C3FFFFEA 		b	.L94
 748              	.L104:
 749 0280 001000E3 		movw	r1, #:lower16:.LC4
 750 0284 0630A0E3 		mov	r3, #6
 751 0288 001040E3 		movt	r1, #:upper16:.LC4
 752 028c BFFFFFEA 		b	.L94
 753              	.L103:
 754 0290 001000E3 		movw	r1, #:lower16:.LC3
 755 0294 0730A0E3 		mov	r3, #7
 756 0298 001040E3 		movt	r1, #:upper16:.LC3
 757 029c BBFFFFEA 		b	.L94
 758              	.L101:
 759 02a0 001000E3 		movw	r1, #:lower16:.LC1
 760 02a4 0930A0E3 		mov	r3, #9
 761 02a8 001040E3 		movt	r1, #:upper16:.LC1
 762 02ac B7FFFFEA 		b	.L94
 763              	.L124:
 764 02b0 0040E0E3 		mvn	r4, #0
 765 02b4 00609FE5 		ldr	r6, .L126
 766 02b8 68FFFFEA 		b	.L92
 767              	.L127:
 768              		.align	2
 769              	.L126:
 770 02bc E0FFFFFF 		.word	.LANCHOR0-32
 772              		.section	.text.low_close,"ax",%progbits
 773              		.align	2
 774              		.global	low_close
 775              		.syntax unified
 776              		.arm
 777              		.fpu neon
 779              	low_close:
 780              		@ args = 0, pretend = 0, frame = 0
 781              		@ frame_needed = 0, uses_anonymous_args = 0
 782 0000 530050E3 		cmp	r0, #83
 783 0004 0F00008A 		bhi	.L131
 784 0008 003000E3 		movw	r3, #:lower16:.LANCHOR0
 785 000c 003040E3 		movt	r3, #:upper16:.LANCHOR0
 786 0010 802293E7 		ldr	r2, [r3, r0, lsl #5]
 787 0014 000052E3 		cmp	r2, #0
 788 0018 0A00000A 		beq	.L131
 789 001c 10402DE9 		push	{r4, lr}
 790 0020 804283E0 		add	r4, r3, r0, lsl #5
 791 0024 083092E5 		ldr	r3, [r2, #8]
 792 0028 0400A0E1 		mov	r0, r4
 793 002c 33FF2FE1 		blx	r3
 794 0030 0400A0E1 		mov	r0, r4
 795 0034 2020A0E3 		mov	r2, #32
 796 0038 0010A0E3 		mov	r1, #0
 797 003c FEFFFFEB 		bl	memset
 798 0040 0000A0E3 		mov	r0, #0
 799 0044 1080BDE8 		pop	{r4, pc}
 800              	.L131:
 801 0048 0000E0E3 		mvn	r0, #0
 802 004c 1EFF2FE1 		bx	lr
 804              		.section	.text.low_read,"ax",%progbits
 805              		.align	2
 806              		.global	low_read
 807              		.syntax unified
 808              		.arm
 809              		.fpu neon
 811              	low_read:
 812              		@ args = 0, pretend = 0, frame = 0
 813              		@ frame_needed = 0, uses_anonymous_args = 0
 814              		@ link register save eliminated.
 815 0000 530050E3 		cmp	r0, #83
 816 0004 0100009A 		bls	.L141
 817              	.L136:
 818 0008 0000E0E3 		mvn	r0, #0
 819 000c 1EFF2FE1 		bx	lr
 820              	.L141:
 821 0010 003000E3 		movw	r3, #:lower16:.LANCHOR0
 822 0014 003040E3 		movt	r3, #:upper16:.LANCHOR0
 823 0018 80C293E7 		ldr	ip, [r3, r0, lsl #5]
 824 001c 00005CE3 		cmp	ip, #0
 825 0020 F8FFFF0A 		beq	.L136
 826 0024 800283E0 		add	r0, r3, r0, lsl #5
 827 0028 183090E5 		ldr	r3, [r0, #24]
 828 002c 0230D3E3 		bics	r3, r3, #2
 829 0030 F4FFFF1A 		bne	.L136
 830 0034 0C309CE5 		ldr	r3, [ip, #12]
 831 0038 13FF2FE1 		bx	r3
 833              		.section	.text.low_write,"ax",%progbits
 834              		.align	2
 835              		.global	low_write
 836              		.syntax unified
 837              		.arm
 838              		.fpu neon
 840              	low_write:
 841              		@ args = 0, pretend = 0, frame = 0
 842              		@ frame_needed = 0, uses_anonymous_args = 0
 843              		@ link register save eliminated.
 844 0000 530050E3 		cmp	r0, #83
 845 0004 0100009A 		bls	.L147
 846              	.L142:
 847 0008 0000E0E3 		mvn	r0, #0
 848 000c 1EFF2FE1 		bx	lr
 849              	.L147:
 850 0010 003000E3 		movw	r3, #:lower16:.LANCHOR0
 851 0014 003040E3 		movt	r3, #:upper16:.LANCHOR0
 852 0018 80C293E7 		ldr	ip, [r3, r0, lsl #5]
 853 001c 00005CE3 		cmp	ip, #0
 854 0020 F8FFFF0A 		beq	.L142
 855 0024 800283E0 		add	r0, r3, r0, lsl #5
 856 0028 183090E5 		ldr	r3, [r0, #24]
 857 002c 020053E3 		cmp	r3, #2
 858 0030 01308303 		orreq	r3, r3, #1
 859 0034 010013E3 		tst	r3, #1
 860 0038 F2FFFF0A 		beq	.L142
 861 003c 10309CE5 		ldr	r3, [ip, #16]
 862 0040 13FF2FE1 		bx	r3
 864              		.section	.text.control,"ax",%progbits
 865              		.align	2
 866              		.global	control
 867              		.syntax unified
 868              		.arm
 869              		.fpu neon
 871              	control:
 872              		@ args = 0, pretend = 0, frame = 0
 873              		@ frame_needed = 0, uses_anonymous_args = 0
 874 0000 530050E3 		cmp	r0, #83
 875 0004 0100009A 		bls	.L155
 876              	.L148:
 877 0008 0000E0E3 		mvn	r0, #0
 878 000c 1EFF2FE1 		bx	lr
 879              	.L155:
 880 0010 003000E3 		movw	r3, #:lower16:.LANCHOR0
 881 0014 003040E3 		movt	r3, #:upper16:.LANCHOR0
 882 0018 80C293E7 		ldr	ip, [r3, r0, lsl #5]
 883 001c 00005CE3 		cmp	ip, #0
 884 0020 F8FFFF0A 		beq	.L148
 885 0024 04E02DE5 		str	lr, [sp, #-4]!
 886 0028 800283E0 		add	r0, r3, r0, lsl #5
 887 002c 14E09CE5 		ldr	lr, [ip, #20]
 888 0030 0E30A0E1 		mov	r3, lr
 889 0034 04E09DE4 		ldr	lr, [sp], #4
 890 0038 13FF2FE1 		bx	r3
 892              		.section	.text.get_version,"ax",%progbits
 893              		.align	2
 894              		.global	get_version
 895              		.syntax unified
 896              		.arm
 897              		.fpu neon
 899              	get_version:
 900              		@ args = 0, pretend = 0, frame = 32
 901              		@ frame_needed = 0, uses_anonymous_args = 0
 902 0000 30402DE9 		push	{r4, r5, lr}
 903 0004 002000E3 		movw	r2, #:lower16:.LC10
 904 0008 24D04DE2 		sub	sp, sp, #36
 905 000c 0150A0E1 		mov	r5, r1
 906 0010 001000E3 		movw	r1, #:lower16:.LC11
 907 0014 0030A0E1 		mov	r3, r0
 908 0018 002040E3 		movt	r2, #:upper16:.LC10
 909 001c 001040E3 		movt	r1, #:upper16:.LC11
 910 0020 0D00A0E1 		mov	r0, sp
 911 0024 0D40A0E1 		mov	r4, sp
 912 0028 FEFFFFEB 		bl	sprintf
 913 002c 001000E3 		movw	r1, #:lower16:.LC10
 914 0030 0D00A0E1 		mov	r0, sp
 915 0034 001040E3 		movt	r1, #:upper16:.LC10
 916 0038 FEFFFFEB 		bl	strstr
 917 003c 000054E1 		cmp	r4, r0
 918 0040 0200000A 		beq	.L172
 919              	.L170:
 920 0044 0000E0E3 		mvn	r0, #0
 921 0048 24D08DE2 		add	sp, sp, #36
 922              		@ sp needed
 923 004c 3080BDE8 		pop	{r4, r5, pc}
 924              	.L172:
 925 0050 001000E3 		movw	r1, #:lower16:.LC1
 926 0054 04008DE2 		add	r0, sp, #4
 927 0058 001040E3 		movt	r1, #:upper16:.LC1
 928 005c FEFFFFEB 		bl	strcmp
 929 0060 000050E3 		cmp	r0, #0
 930 0064 5400000A 		beq	.L160
 931 0068 001000E3 		movw	r1, #:lower16:.LC2
 932 006c 04008DE2 		add	r0, sp, #4
 933 0070 001040E3 		movt	r1, #:upper16:.LC2
 934 0074 FEFFFFEB 		bl	strcmp
 935 0078 000050E3 		cmp	r0, #0
 936 007c 3E00000A 		beq	.L161
 937 0080 001000E3 		movw	r1, #:lower16:.LC3
 938 0084 04008DE2 		add	r0, sp, #4
 939 0088 001040E3 		movt	r1, #:upper16:.LC3
 940 008c FEFFFFEB 		bl	strcmp
 941 0090 000050E3 		cmp	r0, #0
 942 0094 4600000A 		beq	.L162
 943 0098 001000E3 		movw	r1, #:lower16:.LC4
 944 009c 04008DE2 		add	r0, sp, #4
 945 00a0 001040E3 		movt	r1, #:upper16:.LC4
 946 00a4 FEFFFFEB 		bl	strcmp
 947 00a8 000050E3 		cmp	r0, #0
 948 00ac 3E00000A 		beq	.L163
 949 00b0 001000E3 		movw	r1, #:lower16:.LC5
 950 00b4 04008DE2 		add	r0, sp, #4
 951 00b8 001040E3 		movt	r1, #:upper16:.LC5
 952 00bc FEFFFFEB 		bl	strcmp
 953 00c0 000050E3 		cmp	r0, #0
 954 00c4 3600000A 		beq	.L164
 955 00c8 001000E3 		movw	r1, #:lower16:.LC6
 956 00cc 04008DE2 		add	r0, sp, #4
 957 00d0 001040E3 		movt	r1, #:upper16:.LC6
 958 00d4 FEFFFFEB 		bl	strcmp
 959 00d8 000050E3 		cmp	r0, #0
 960 00dc 2E00000A 		beq	.L165
 961 00e0 001000E3 		movw	r1, #:lower16:.LC7
 962 00e4 04008DE2 		add	r0, sp, #4
 963 00e8 001040E3 		movt	r1, #:upper16:.LC7
 964 00ec FEFFFFEB 		bl	strcmp
 965 00f0 000050E3 		cmp	r0, #0
 966 00f4 2600000A 		beq	.L166
 967 00f8 001000E3 		movw	r1, #:lower16:.LC8
 968 00fc 04008DE2 		add	r0, sp, #4
 969 0100 001040E3 		movt	r1, #:upper16:.LC8
 970 0104 FEFFFFEB 		bl	strcmp
 971 0108 000050E3 		cmp	r0, #0
 972 010c 1E00000A 		beq	.L167
 973 0110 001000E3 		movw	r1, #:lower16:.LC9
 974 0114 04008DE2 		add	r0, sp, #4
 975 0118 001040E3 		movt	r1, #:upper16:.LC9
 976 011c FEFFFFEB 		bl	strcmp
 977 0120 000050E3 		cmp	r0, #0
 978 0124 1600000A 		beq	.L168
 979 0128 001000E3 		movw	r1, #:lower16:.LC0
 980 012c 04008DE2 		add	r0, sp, #4
 981 0130 001040E3 		movt	r1, #:upper16:.LC0
 982 0134 FEFFFFEB 		bl	strcmp
 983 0138 000050E3 		cmp	r0, #0
 984 013c 0030A001 		moveq	r3, r0
 985 0140 BFFFFF1A 		bne	.L170
 986              	.L158:
 987 0144 832083E0 		add	r2, r3, r3, lsl #1
 988 0148 003000E3 		movw	r3, #:lower16:.LANCHOR1
 989 014c 003040E3 		movt	r3, #:upper16:.LANCHOR1
 990 0150 023183E0 		add	r3, r3, r2, lsl #2
 991 0154 043093E5 		ldr	r3, [r3, #4]
 992 0158 000053E3 		cmp	r3, #0
 993 015c B8FFFF0A 		beq	.L170
 994 0160 183093E5 		ldr	r3, [r3, #24]
 995 0164 0510A0E1 		mov	r1, r5
 996 0168 0000A0E3 		mov	r0, #0
 997 016c 33FF2FE1 		blx	r3
 998 0170 7000AFE6 		sxtb	r0, r0
 999 0174 24D08DE2 		add	sp, sp, #36
 1000              		@ sp needed
 1001 0178 3080BDE8 		pop	{r4, r5, pc}
 1002              	.L161:
 1003 017c 0830A0E3 		mov	r3, #8
 1004 0180 EFFFFFEA 		b	.L158
 1005              	.L168:
 1006 0184 0130A0E3 		mov	r3, #1
 1007 0188 EDFFFFEA 		b	.L158
 1008              	.L167:
 1009 018c 0230A0E3 		mov	r3, #2
 1010 0190 EBFFFFEA 		b	.L158
 1011              	.L166:
 1012 0194 0330A0E3 		mov	r3, #3
 1013 0198 E9FFFFEA 		b	.L158
 1014              	.L165:
 1015 019c 0430A0E3 		mov	r3, #4
 1016 01a0 E7FFFFEA 		b	.L158
 1017              	.L164:
 1018 01a4 0530A0E3 		mov	r3, #5
 1019 01a8 E5FFFFEA 		b	.L158
 1020              	.L163:
 1021 01ac 0630A0E3 		mov	r3, #6
 1022 01b0 E3FFFFEA 		b	.L158
 1023              	.L162:
 1024 01b4 0730A0E3 		mov	r3, #7
 1025 01b8 E1FFFFEA 		b	.L158
 1026              	.L160:
 1027 01bc 0930A0E3 		mov	r3, #9
 1028 01c0 DFFFFFEA 		b	.L158
 1030              		.section	.text.low_lseek,"ax",%progbits
 1031              		.align	2
 1032              		.global	low_lseek
 1033              		.syntax unified
 1034              		.arm
 1035              		.fpu neon
 1037              	low_lseek:
 1038              		@ args = 0, pretend = 0, frame = 16
 1039              		@ frame_needed = 0, uses_anonymous_args = 0
 1040 0000 130050E3 		cmp	r0, #19
 1041 0004 1800008A 		bhi	.L177
 1042 0008 003000E3 		movw	r3, #:lower16:.LANCHOR0
 1043 000c 10402DE9 		push	{r4, lr}
 1044 0010 003040E3 		movt	r3, #:upper16:.LANCHOR0
 1045 0014 10D04DE2 		sub	sp, sp, #16
 1046 0018 80E293E7 		ldr	lr, [r3, r0, lsl #5]
 1047 001c 00005EE3 		cmp	lr, #0
 1048 0020 1300000A 		beq	.L178
 1049 0024 0040A0E3 		mov	r4, #0
 1050 0028 01C0A0E1 		mov	ip, r1
 1051 002c 0410A0E1 		mov	r1, r4
 1052 0030 800283E0 		add	r0, r3, r0, lsl #5
 1053 0034 08208DE5 		str	r2, [sp, #8]
 1054 0038 0F1742E3 		movt	r1, 9999
 1055 003c 04C08DE5 		str	ip, [sp, #4]
 1056 0040 04208DE2 		add	r2, sp, #4
 1057 0044 14309EE5 		ldr	r3, [lr, #20]
 1058 0048 0C408DE5 		str	r4, [sp, #12]
 1059 004c 33FF2FE1 		blx	r3
 1060 0050 040050E1 		cmp	r0, r4
 1061 0054 0C009DE5 		ldr	r0, [sp, #12]
 1062 0058 0100000A 		beq	.L173
 1063 005c 000050E3 		cmp	r0, #0
 1064 0060 0000E003 		mvneq	r0, #0
 1065              	.L173:
 1066 0064 10D08DE2 		add	sp, sp, #16
 1067              		@ sp needed
 1068 0068 1080BDE8 		pop	{r4, pc}
 1069              	.L177:
 1070 006c 0000E0E3 		mvn	r0, #0
 1071 0070 1EFF2FE1 		bx	lr
 1072              	.L178:
 1073 0074 0000E0E3 		mvn	r0, #0
 1074 0078 F9FFFFEA 		b	.L173
 1076              		.section	.text.R_DEVLINK_Init,"ax",%progbits
 1077              		.align	2
 1078              		.global	R_DEVLINK_Init
 1079              		.syntax unified
 1080              		.arm
 1081              		.fpu neon
 1083              	R_DEVLINK_Init:
 1084              		@ args = 0, pretend = 0, frame = 0
 1085              		@ frame_needed = 0, uses_anonymous_args = 0
 1086              		@ link register save eliminated.
 1087 0000 000000E3 		movw	r0, #:lower16:.LANCHOR0
 1088 0004 2A2DA0E3 		mov	r2, #2688
 1089 0008 000040E3 		movt	r0, #:upper16:.LANCHOR0
 1090 000c 0010A0E3 		mov	r1, #0
 1091 0010 FEFFFFEA 		b	memset
 1093              		.section	.text.R_DEVLINK_FilePtrDescriptor,"ax",%progbits
 1094              		.align	2
 1095              		.global	R_DEVLINK_FilePtrDescriptor
 1096              		.syntax unified
 1097              		.arm
 1098              		.fpu neon
 1100              	R_DEVLINK_FilePtrDescriptor:
 1101              		@ args = 0, pretend = 0, frame = 0
 1102              		@ frame_needed = 0, uses_anonymous_args = 0
 1103              		@ link register save eliminated.
 1104 0000 000050E3 		cmp	r0, #0
 1105 0004 FE00D011 		ldrshne	r0, [r0, #14]
 1106 0008 0000E003 		mvneq	r0, #0
 1107 000c 1EFF2FE1 		bx	lr
 1109              		.section	.bss.gs_filestream,"aw",%nobits
 1110              		.align	2
 1111              		.set	.LANCHOR0,. + 0
 1114              	gs_filestream:
 1115 0000 00000000 		.space	2688
 1115      00000000 
 1115      00000000 
 1115      00000000 
 1115      00000000 
 1116              		.section	.data.gs_no_driver,"aw",%progbits
 1117              		.align	2
 1118              		.set	.LANCHOR2,. + 0
 1121              	gs_no_driver:
 1122 0000 00000000 		.word	.LC12
 1123 0004 00000000 		.word	no_dev_open
 1124 0008 00000000 		.word	no_dev_close
 1125 000c 00000000 		.word	no_dev_read
 1126 0010 00000000 		.word	no_dev_write
 1127 0014 00000000 		.word	no_dev_control
 1128 0018 00000000 		.word	no_dev_get_version
 1129              		.section	.rodata.direct_open.str1.4,"aMS",%progbits,1
 1130              		.align	2
 1131              	.LC0:
 1132 0000 63706700 		.ascii	"cpg\000"
 1133              	.LC1:
 1134 0004 73746465 		.ascii	"stderr\000"
 1134      727200
 1135 000b 00       		.space	1
 1136              	.LC2:
 1137 000c 7374646F 		.ascii	"stdout\000"
 1137      757400
 1138 0013 00       		.space	1
 1139              	.LC3:
 1140 0014 73746469 		.ascii	"stdin\000"
 1140      6E00
 1141 001a 0000     		.space	2
 1142              	.LC4:
 1143 001c 6F73746D 		.ascii	"ostm_reserved\000"
 1143      5F726573 
 1143      65727665 
 1143      6400
 1144 002a 0000     		.space	2
 1145              	.LC5:
 1146 002c 72756E74 		.ascii	"runtime_stats_timer\000"
 1146      696D655F 
 1146      73746174 
 1146      735F7469 
 1146      6D657200 
 1147              	.LC6:
 1148 0040 73636966 		.ascii	"scifa4\000"
 1148      613400
 1149 0047 00       		.space	1
 1150              	.LC7:
 1151 0048 61646300 		.ascii	"adc\000"
 1152              	.LC8:
 1153 004c 72696963 		.ascii	"riic1\000"
 1153      3100
 1154 0052 0000     		.space	2
 1155              	.LC9:
 1156 0054 6770696F 		.ascii	"gpio\000"
 1156      00
 1157 0059 000000   		.space	3
 1158              	.LC10:
 1159 005c 5C5C2E5C 		.ascii	"\\\\.\\\000"
 1159      00
 1160 0061 000000   		.space	3
 1161              	.LC11:
 1162 0064 25732573 		.ascii	"%s%s\000"
 1162      00
 1163              		.section	.rodata.gs_mount_table,"a",%progbits
 1164              		.align	2
 1165              		.set	.LANCHOR1,. + 0
 1168              	gs_mount_table:
 1169 0000 00000000 		.word	.LC0
 1170 0004 00000000 		.word	g_cpg_driver
 1171 0008 00000000 		.word	0
 1172 000c 54000000 		.word	.LC9
 1173 0010 00000000 		.word	g_gpio_driver
 1174 0014 00000000 		.word	0
 1175 0018 4C000000 		.word	.LC8
 1176 001c 00000000 		.word	g_riic_driver
 1177 0020 00000000 		.word	0
 1178 0024 48000000 		.word	.LC7
 1179 0028 00000000 		.word	g_adc_driver
 1180 002c 00000000 		.word	0
 1181 0030 40000000 		.word	.LC6
 1182 0034 00000000 		.word	g_scifa_driver
 1183 0038 00000000 		.word	0
 1184 003c 2C000000 		.word	.LC5
 1185 0040 00000000 		.word	g_ostm_driver
 1186 0044 00000000 		.word	0
 1187 0048 1C000000 		.word	.LC4
 1188 004c 00000000 		.word	g_ostm_driver
 1189 0050 01000000 		.word	1
 1190 0054 14000000 		.word	.LC3
 1191 0058 00000000 		.word	g_scifa_driver
 1192 005c 00000000 		.word	0
 1193 0060 0C000000 		.word	.LC2
 1194 0064 00000000 		.word	g_scifa_driver
 1195 0068 00000000 		.word	0
 1196 006c 04000000 		.word	.LC1
 1197 0070 00000000 		.word	g_scifa_driver
 1198 0074 00000000 		.word	0
 1199              		.section	.rodata.str1.4,"aMS",%progbits,1
 1200              		.align	2
 1201              	.LC12:
 1202 0000 4E6F2044 		.ascii	"No Device Driver\000"
 1202      65766963 
 1202      65204472 
 1202      69766572 
 1202      00
 1203              		.ident	"GCC: (GNU Tools for ARM Embedded Processors 6-2017-q2-update) 6.3.1 20170620 (release) [AR