   1              		.cpu cortex-a9
   2              		.eabi_attribute 28, 1
   3              		.eabi_attribute 20, 1
   4              		.eabi_attribute 21, 1
   5              		.eabi_attribute 23, 3
   6              		.eabi_attribute 24, 1
   7              		.eabi_attribute 25, 1
   8              		.eabi_attribute 26, 1
   9              		.eabi_attribute 30, 2
  10              		.eabi_attribute 34, 0
  11              		.eabi_attribute 18, 4
  12              		.file	"rza_io_regrw.c"
  13              		.section	.text.RZA_IO_RegWrite_8,"ax",%progbits
  14              		.align	2
  15              		.global	RZA_IO_RegWrite_8
  16              		.syntax unified
  17              		.arm
  18              		.fpu neon
  20              	RZA_IO_RegWrite_8:
  21              		@ args = 0, pretend = 0, frame = 0
  22              		@ frame_needed = 0, uses_anonymous_args = 0
  23              		@ link register save eliminated.
  24 0000 010073E3 		cmn	r3, #1
  25 0004 00C0D015 		ldrbne	ip, [r0]	@ zero_extendqisi2
  26 0008 0330CC11 		bicne	r3, ip, r3
  27 000c 11128311 		orrne	r1, r3, r1, lsl r2
  28 0010 7110EF16 		uxtbne	r1, r1
  29 0014 0010C0E5 		strb	r1, [r0]
  30 0018 1EFF2FE1 		bx	lr
  32              		.section	.text.RZA_IO_RegWrite_16,"ax",%progbits
  33              		.align	2
  34              		.global	RZA_IO_RegWrite_16
  35              		.syntax unified
  36              		.arm
  37              		.fpu neon
  39              	RZA_IO_RegWrite_16:
  40              		@ args = 0, pretend = 0, frame = 0
  41              		@ frame_needed = 0, uses_anonymous_args = 0
  42              		@ link register save eliminated.
  43 0000 010073E3 		cmn	r3, #1
  44 0004 B0C0D011 		ldrhne	ip, [r0]
  45 0008 0330CC11 		bicne	r3, ip, r3
  46 000c 11128311 		orrne	r1, r3, r1, lsl r2
  47 0010 7110FF16 		uxthne	r1, r1
  48 0014 B010C0E1 		strh	r1, [r0]	@ movhi
  49 0018 1EFF2FE1 		bx	lr
  51              		.section	.text.RZA_IO_RegWrite_32,"ax",%progbits
  52              		.align	2
  53              		.global	RZA_IO_RegWrite_32
  54              		.syntax unified
  55              		.arm
  56              		.fpu neon
  58              	RZA_IO_RegWrite_32:
  59              		@ args = 0, pretend = 0, frame = 0
  60              		@ frame_needed = 0, uses_anonymous_args = 0
  61              		@ link register save eliminated.
  62 0000 010073E3 		cmn	r3, #1
  63 0004 00C09015 		ldrne	ip, [r0]
  64 0008 0330CC11 		bicne	r3, ip, r3
  65 000c 11128311 		orrne	r1, r3, r1, lsl r2
  66 0010 001080E5 		str	r1, [r0]
  67 0014 1EFF2FE1 		bx	lr
  69              		.section	.text.RZA_IO_RegRead_8,"ax",%progbits
  70              		.align	2
  71              		.global	RZA_IO_RegRead_8
  72              		.syntax unified
  73              		.arm
  74              		.fpu neon
  76              	RZA_IO_RegRead_8:
  77              		@ args = 0, pretend = 0, frame = 0
  78              		@ frame_needed = 0, uses_anonymous_args = 0
  79              		@ link register save eliminated.
  80 0000 0000D0E5 		ldrb	r0, [r0]	@ zero_extendqisi2
  81 0004 010072E3 		cmn	r2, #1
  82 0008 7000EFE6 		uxtb	r0, r0
  83 000c 02000010 		andne	r0, r0, r2
  84 0010 3001A011 		lsrne	r0, r0, r1
  85 0014 7000EF16 		uxtbne	r0, r0
  86 0018 1EFF2FE1 		bx	lr
  88              		.section	.text.RZA_IO_RegRead_16,"ax",%progbits
  89              		.align	2
  90              		.global	RZA_IO_RegRead_16
  91              		.syntax unified
  92              		.arm
  93              		.fpu neon
  95              	RZA_IO_RegRead_16:
  96              		@ args = 0, pretend = 0, frame = 0
  97              		@ frame_needed = 0, uses_anonymous_args = 0
  98              		@ link register save eliminated.
  99 0000 B000D0E1 		ldrh	r0, [r0]
 100 0004 010072E3 		cmn	r2, #1
 101 0008 7000FFE6 		uxth	r0, r0
 102 000c 02000010 		andne	r0, r0, r2
 103 0010 3001A011 		lsrne	r0, r0, r1
 104 0014 7000FF16 		uxthne	r0, r0
 105 0018 1EFF2FE1 		bx	lr
 107              		.section	.text.RZA_IO_RegRead_32,"ax",%progbits
 108              		.align	2
 109              		.global	RZA_IO_RegRead_32
 110              		.syntax unified
 111              		.arm
 112              		.fpu neon
 114              	RZA_IO_RegRead_32:
 115              		@ args = 0, pretend = 0, frame = 0
 116              		@ frame_needed = 0, uses_anonymous_args = 0
 117              		@ link register save eliminated.
 118 0000 000090E5 		ldr	r0, [r0]
 119 0004 010072E3 		cmn	r2, #1
 120 0008 02000010 		andne	r0, r0, r2
 121 000c 3001A011 		lsrne	r0, r0, r1
 122 0010 1EFF2FE1 		bx	lr
 124              		.ident	"GCC: (GNU Tools for ARM Embedded Processors 6-2017-q2-update) 6.3.1 20170620 (release) [AR