   1              		.cpu cortex-a9
   2              		.eabi_attribute 28, 1
   3              		.eabi_attribute 20, 1
   4              		.eabi_attribute 21, 1
   5              		.eabi_attribute 23, 3
   6              		.eabi_attribute 24, 1
   7              		.eabi_attribute 25, 1
   8              		.eabi_attribute 26, 1
   9              		.eabi_attribute 30, 2
  10              		.eabi_attribute 34, 0
  11              		.eabi_attribute 18, 4
  12              		.file	"micro_allocator.cc"
  13              		.section	.text._ZN6tflite12_GLOBAL__N_125MicroBuiltinDataAllocator8AllocateEjj,"ax",%progbits
  14              		.align	2
  15              		.syntax unified
  16              		.arm
  17              		.fpu neon
  19              	_ZN6tflite12_GLOBAL__N_125MicroBuiltinDataAllocator8AllocateEjj:
  20              		.fnstart
  21              	.LFB6531:
  22              		@ args = 0, pretend = 0, frame = 0
  23              		@ frame_needed = 0, uses_anonymous_args = 0
  24              		@ link register save eliminated.
  25 0000 040090E5 		ldr	r0, [r0, #4]
  26 0004 003090E5 		ldr	r3, [r0]
  27 0008 0C3093E5 		ldr	r3, [r3, #12]
  28 000c 13FF2FE1 		bx	r3
  29              		.cantunwind
  30              		.fnend
  32              		.section	.text._ZN6tflite12_GLOBAL__N_125MicroBuiltinDataAllocator10DeallocateEPv,"ax",%progbits
  33              		.align	2
  34              		.syntax unified
  35              		.arm
  36              		.fpu neon
  38              	_ZN6tflite12_GLOBAL__N_125MicroBuiltinDataAllocator10DeallocateEPv:
  39              		.fnstart
  40              	.LFB6532:
  41              		@ args = 0, pretend = 0, frame = 0
  42              		@ frame_needed = 0, uses_anonymous_args = 0
  43              		@ link register save eliminated.
  44 0000 1EFF2FE1 		bx	lr
  45              		.cantunwind
  46              		.fnend
  48              		.section	.text._ZN6tflite14MicroAllocatorD2Ev,"ax",%progbits
  49              		.align	2
  50              		.global	_ZN6tflite14MicroAllocatorD2Ev
  51              		.syntax unified
  52              		.arm
  53              		.fpu neon
  55              	_ZN6tflite14MicroAllocatorD2Ev:
  56              		.fnstart
  57              	.LFB6551:
  58              		@ args = 0, pretend = 0, frame = 0
  59              		@ frame_needed = 0, uses_anonymous_args = 0
  60              		@ link register save eliminated.
  61 0000 1EFF2FE1 		bx	lr
  62              		.cantunwind
  63              		.fnend
  65              		.global	_ZN6tflite14MicroAllocatorD1Ev
  66              		.set	_ZN6tflite14MicroAllocatorD1Ev,_ZN6tflite14MicroAllocatorD2Ev
  67              		.section	.text._ZN6tflite14MicroAllocator24AllocatePersistentBufferEj,"ax",%progbits
  68              		.align	2
  69              		.global	_ZN6tflite14MicroAllocator24AllocatePersistentBufferEj
  70              		.syntax unified
  71              		.arm
  72              		.fpu neon
  74              	_ZN6tflite14MicroAllocator24AllocatePersistentBufferEj:
  75              		.fnstart
  76              	.LFB6558:
  77              		@ args = 0, pretend = 0, frame = 0
  78              		@ frame_needed = 0, uses_anonymous_args = 0
  79              		@ link register save eliminated.
  80 0000 040090E5 		ldr	r0, [r0, #4]
  81 0004 1020A0E3 		mov	r2, #16
  82 0008 003090E5 		ldr	r3, [r0]
  83 000c 0C3093E5 		ldr	r3, [r3, #12]
  84 0010 13FF2FE1 		bx	r3
  85              		.cantunwind
  86              		.fnend
  88              		.section	.text._ZN6tflite14MicroAllocator20ResetTempAllocationsEv,"ax",%progbits
  89              		.align	2
  90              		.global	_ZN6tflite14MicroAllocator20ResetTempAllocationsEv
  91              		.syntax unified
  92              		.arm
  93              		.fpu neon
  95              	_ZN6tflite14MicroAllocator20ResetTempAllocationsEv:
  96              		.fnstart
  97              	.LFB6565:
  98              		@ args = 0, pretend = 0, frame = 0
  99              		@ frame_needed = 0, uses_anonymous_args = 0
 100              		@ link register save eliminated.
 101 0000 040090E5 		ldr	r0, [r0, #4]
 102 0004 003090E5 		ldr	r3, [r0]
 103 0008 143093E5 		ldr	r3, [r3, #20]
 104 000c 13FF2FE1 		bx	r3	@ indirect register sibling call
 105              		.cantunwind
 106              		.fnend
 108              		.section	.text._ZN6tflite14MicroAllocator38AllocatePersistentTfLiteTensorInternalEv,"ax",%progbits
 109              		.align	2
 110              		.global	_ZN6tflite14MicroAllocator38AllocatePersistentTfLiteTensorInternalEv
 111              		.syntax unified
 112              		.arm
 113              		.fpu neon
 115              	_ZN6tflite14MicroAllocator38AllocatePersistentTfLiteTensorInternalEv:
 116              		.fnstart
 117              	.LFB6568:
 118              		@ args = 0, pretend = 0, frame = 0
 119              		@ frame_needed = 0, uses_anonymous_args = 0
 120              		@ link register save eliminated.
 121 0000 040090E5 		ldr	r0, [r0, #4]
 122 0004 0420A0E3 		mov	r2, #4
 123 0008 4010A0E3 		mov	r1, #64
 124 000c 003090E5 		ldr	r3, [r0]
 125 0010 0C3093E5 		ldr	r3, [r3, #12]
 126 0014 13FF2FE1 		bx	r3
 127              		.cantunwind
 128              		.fnend
 130              		.section	.text._ZN6tflite12_GLOBAL__N_125MicroBuiltinDataAllocatorD2Ev,"ax",%progbits
 131              		.align	2
 132              		.syntax unified
 133              		.arm
 134              		.fpu neon
 136              	_ZN6tflite12_GLOBAL__N_125MicroBuiltinDataAllocatorD2Ev:
 137              		.fnstart
 138              	.LFB10882:
 139              		@ args = 0, pretend = 0, frame = 0
 140              		@ frame_needed = 0, uses_anonymous_args = 0
 141              		@ link register save eliminated.
 142 0000 1EFF2FE1 		bx	lr
 143              		.cantunwind
 144              		.fnend
 146              		.set	_ZN6tflite12_GLOBAL__N_125MicroBuiltinDataAllocatorD1Ev,_ZN6tflite12_GLOBAL__N_125MicroBuilti
 147              		.section	.text._ZN6tflite14MicroAllocatorD0Ev,"ax",%progbits
 148              		.align	2
 149              		.global	_ZN6tflite14MicroAllocatorD0Ev
 150              		.syntax unified
 151              		.arm
 152              		.fpu neon
 154              	_ZN6tflite14MicroAllocatorD0Ev:
 155              		.fnstart
 156              	.LFB6553:
 157              		@ args = 0, pretend = 0, frame = 0
 158              		@ frame_needed = 0, uses_anonymous_args = 0
 159 0000 10402DE9 		push	{r4, lr}
 160 0004 0040A0E1 		mov	r4, r0
 161 0008 FEFFFFEB 		bl	_ZdlPv
 162 000c 0400A0E1 		mov	r0, r4
 163 0010 1080BDE8 		pop	{r4, pc}
 164              		.cantunwind
 165              		.fnend
 167              		.section	.text._ZN6tflite12_GLOBAL__N_125MicroBuiltinDataAllocatorD0Ev,"ax",%progbits
 168              		.align	2
 169              		.syntax unified
 170              		.arm
 171              		.fpu neon
 173              	_ZN6tflite12_GLOBAL__N_125MicroBuiltinDataAllocatorD0Ev:
 174              		.fnstart
 175              	.LFB10884:
 176              		@ args = 0, pretend = 0, frame = 0
 177              		@ frame_needed = 0, uses_anonymous_args = 0
 178 0000 10402DE9 		push	{r4, lr}
 179 0004 0040A0E1 		mov	r4, r0
 180 0008 FEFFFFEB 		bl	_ZdlPv
 181 000c 0400A0E1 		mov	r0, r4
 182 0010 1080BDE8 		pop	{r4, pc}
 183              		.cantunwind
 184              		.fnend
 186              		.section	.text._ZN6tflite14MicroAllocator28AllocateScratchBufferHandlesEPPNS_19ScratchBufferHandle
 187              		.align	2
 188              		.global	_ZN6tflite14MicroAllocator28AllocateScratchBufferHandlesEPPNS_19ScratchBufferHandleEj
 189              		.syntax unified
 190              		.arm
 191              		.fpu neon
 193              	_ZN6tflite14MicroAllocator28AllocateScratchBufferHandlesEPPNS_19ScratchBufferHandleEj:
 194              		.fnstart
 195              	.LFB6572:
 196              		@ args = 0, pretend = 0, frame = 0
 197              		@ frame_needed = 0, uses_anonymous_args = 0
 198 0000 10402DE9 		push	{r4, lr}
 199              		.save {r4, lr}
 200 0004 004051E2 		subs	r4, r1, #0
 201 0008 0B00000A 		beq	.L20
 202 000c 143090E5 		ldr	r3, [r0, #20]
 203 0010 000053E3 		cmp	r3, #0
 204 0014 0600000A 		beq	.L14
 205 0018 040090E5 		ldr	r0, [r0, #4]
 206 001c 0211A0E1 		lsl	r1, r2, #2
 207 0020 0420A0E3 		mov	r2, #4
 208 0024 003090E5 		ldr	r3, [r0]
 209 0028 0C3093E5 		ldr	r3, [r3, #12]
 210 002c 33FF2FE1 		blx	r3
 211 0030 000084E5 		str	r0, [r4]
 212              	.L14:
 213 0034 0000A0E3 		mov	r0, #0
 214 0038 1080BDE8 		pop	{r4, pc}
 215              	.L20:
 216 003c FEFFFFEB 		bl	abort
 217              		.fnend
 219              		.section	.text._ZN6tflite14MicroAllocator17AllocateVariablesEPKNS_8SubGraphEP16TfLiteEvalTensor,"a
 220              		.align	2
 221              		.global	_ZN6tflite14MicroAllocator17AllocateVariablesEPKNS_8SubGraphEP16TfLiteEvalTensor
 222              		.syntax unified
 223              		.arm
 224              		.fpu neon
 226              	_ZN6tflite14MicroAllocator17AllocateVariablesEPKNS_8SubGraphEP16TfLiteEvalTensor:
 227              		.fnstart
 228              	.LFB6567:
 229              		@ args = 0, pretend = 0, frame = 8
 230              		@ frame_needed = 0, uses_anonymous_args = 0
 231 0000 F0402DE9 		push	{r4, r5, r6, r7, lr}
 232              		.save {r4, r5, r6, r7, lr}
 233 0004 0170A0E1 		mov	r7, r1
 234 0008 001091E5 		ldr	r1, [r1]
 235 000c 0060A0E1 		mov	r6, r0
 236              		.pad #12
 237 0010 0CD04DE2 		sub	sp, sp, #12
 238 0014 245082E2 		add	r5, r2, #36
 239 0018 0040A0E3 		mov	r4, #0
 240 001c 011047E0 		sub	r1, r7, r1
 241 0020 B000D1E1 		ldrh	r0, [r1]
 242 0024 2B0000EA 		b	.L26
 243              	.L41:
 244 0028 B420D1E1 		ldrh	r2, [r1, #4]
 245 002c 000052E3 		cmp	r2, #0
 246 0030 023087E0 		add	r3, r7, r2
 247 0034 2900000A 		beq	.L22
 248 0038 022097E7 		ldr	r2, [r7, r2]
 249 003c 02C093E7 		ldr	ip, [r3, r2]
 250 0040 023083E0 		add	r3, r3, r2
 251 0044 0C0054E1 		cmp	r4, ip
 252 0048 2A00002A 		bcs	.L27
 253 004c 043083E2 		add	r3, r3, #4
 254 0050 04C193E7 		ldr	ip, [r3, r4, lsl #2]
 255 0054 043183E0 		add	r3, r3, r4, lsl #2
 256 0058 0C2093E7 		ldr	r2, [r3, ip]
 257 005c 0C3083E0 		add	r3, r3, ip
 258 0060 022043E0 		sub	r2, r3, r2
 259 0064 B0C0D2E1 		ldrh	ip, [r2]
 260 0068 0E005CE3 		cmp	ip, #14
 261 006c 170000DA 		ble	.L24
 262 0070 BE20D2E1 		ldrh	r2, [r2, #14]
 263 0074 000052E3 		cmp	r2, #0
 264 0078 1400000A 		beq	.L24
 265 007c 0230D3E7 		ldrb	r3, [r3, r2]	@ zero_extendqisi2
 266 0080 000053E3 		cmp	r3, #0
 267 0084 1100000A 		beq	.L24
 268 0088 04108DE2 		add	r1, sp, #4
 269 008c 240045E2 		sub	r0, r5, #36
 270 0090 FEFFFFEB 		bl	_ZN6tflite26TfLiteEvalTensorByteLengthEPK16TfLiteEvalTensorPj
 271 0094 000050E3 		cmp	r0, #0
 272 0098 1400001A 		bne	.L39
 273 009c 040096E5 		ldr	r0, [r6, #4]
 274 00a0 1020A0E3 		mov	r2, #16
 275 00a4 04109DE5 		ldr	r1, [sp, #4]
 276 00a8 00F0D5F5 		pld	[r5]
 277 00ac 003090E5 		ldr	r3, [r0]
 278 00b0 0C3093E5 		ldr	r3, [r3, #12]
 279 00b4 33FF2FE1 		blx	r3
 280 00b8 000050E3 		cmp	r0, #0
 281 00bc 240005E5 		str	r0, [r5, #-36]
 282 00c0 0900000A 		beq	.L29
 283 00c4 001097E5 		ldr	r1, [r7]
 284 00c8 011047E0 		sub	r1, r7, r1
 285 00cc B000D1E1 		ldrh	r0, [r1]
 286              	.L24:
 287 00d0 014084E2 		add	r4, r4, #1
 288 00d4 0C5085E2 		add	r5, r5, #12
 289              	.L26:
 290 00d8 040050E3 		cmp	r0, #4
 291 00dc D1FFFFCA 		bgt	.L41
 292              	.L22:
 293 00e0 0030A0E3 		mov	r3, #0
 294 00e4 003093E5 		ldr	r3, [r3]
 295 00e8 F000F0E7 		.inst	0xe7f000f0
 296              	.L29:
 297 00ec 0100A0E3 		mov	r0, #1
 298              	.L39:
 299 00f0 0CD08DE2 		add	sp, sp, #12
 300              		@ sp needed
 301 00f4 F080BDE8 		pop	{r4, r5, r6, r7, pc}
 302              	.L27:
 303 00f8 0000A0E3 		mov	r0, #0
 304 00fc 0CD08DE2 		add	sp, sp, #12
 305              		@ sp needed
 306 0100 F080BDE8 		pop	{r4, r5, r6, r7, pc}
 307              		.fnend
 309              		.section	.text._ZN6tflite14MicroAllocator28AllocateNodeAndRegistrationsEPKNS_5ModelEPNS_19Subgraph
 310              		.align	2
 311              		.global	_ZN6tflite14MicroAllocator28AllocateNodeAndRegistrationsEPKNS_5ModelEPNS_19SubgraphAllocat
 312              		.syntax unified
 313              		.arm
 314              		.fpu neon
 316              	_ZN6tflite14MicroAllocator28AllocateNodeAndRegistrationsEPKNS_5ModelEPNS_19SubgraphAllocationsE:
 317              		.fnstart
 318              	.LFB6562:
 319              		@ args = 0, pretend = 0, frame = 0
 320              		@ frame_needed = 0, uses_anonymous_args = 0
 321 0000 000052E3 		cmp	r2, #0
 322 0004 F0472DE9 		push	{r4, r5, r6, r7, r8, r9, r10, lr}
 323              		.save {r4, r5, r6, r7, r8, r9, r10, lr}
 324 0008 3600000A 		beq	.L46
 325 000c 0070A0E1 		mov	r7, r0
 326 0010 0180A0E1 		mov	r8, r1
 327 0014 205082E2 		add	r5, r2, #32
 328 0018 0040A0E3 		mov	r4, #0
 329 001c 2C60A0E3 		mov	r6, #44
 330 0020 240000EA 		b	.L48
 331              	.L62:
 332 0024 B820D3E1 		ldrh	r2, [r3, #8]
 333 0028 000052E3 		cmp	r2, #0
 334 002c 023088E0 		add	r3, r8, r2
 335 0030 2500000A 		beq	.L47
 336 0034 022098E7 		ldr	r2, [r8, r2]
 337 0038 021093E7 		ldr	r1, [r3, r2]
 338 003c 023083E0 		add	r3, r3, r2
 339 0040 010054E1 		cmp	r4, r1
 340 0044 2300002A 		bcs	.L49
 341 0048 043083E2 		add	r3, r3, #4
 342 004c 042193E7 		ldr	r2, [r3, r4, lsl #2]
 343 0050 043183E0 		add	r3, r3, r4, lsl #2
 344 0054 021093E0 		adds	r1, r3, r2
 345 0058 2200000A 		beq	.L46
 346 005c 023093E7 		ldr	r3, [r3, r2]
 347 0060 040097E5 		ldr	r0, [r7, #4]
 348 0064 033041E0 		sub	r3, r1, r3
 349 0068 B0C0D3E1 		ldrh	ip, [r3]
 350 006c 002090E5 		ldr	r2, [r0]
 351 0070 0A005CE3 		cmp	ip, #10
 352 0074 0C9092E5 		ldr	r9, [r2, #12]
 353 0078 130000DA 		ble	.L47
 354 007c BA30D3E1 		ldrh	r3, [r3, #10]
 355 0080 000053E3 		cmp	r3, #0
 356 0084 03C081E0 		add	ip, r1, r3
 357 0088 0F00000A 		beq	.L47
 358 008c 033091E7 		ldr	r3, [r1, r3]
 359 0090 0420A0E3 		mov	r2, #4
 360 0094 03109CE7 		ldr	r1, [ip, r3]
 361 0098 960101E0 		mul	r1, r6, r1
 362 009c 39FF2FE1 		blx	r9
 363 00a0 000050E3 		cmp	r0, #0
 364 00a4 0D00000A 		beq	.L50
 365 00a8 00F0D5F5 		pld	[r5]
 366 00ac 014084E2 		add	r4, r4, #1
 367 00b0 200005E5 		str	r0, [r5, #-32]
 368 00b4 085085E2 		add	r5, r5, #8
 369              	.L48:
 370 00b8 003098E5 		ldr	r3, [r8]
 371 00bc 033048E0 		sub	r3, r8, r3
 372 00c0 B020D3E1 		ldrh	r2, [r3]
 373 00c4 080052E3 		cmp	r2, #8
 374 00c8 D5FFFFCA 		bgt	.L62
 375              	.L47:
 376 00cc 0030A0E3 		mov	r3, #0
 377 00d0 003093E5 		ldr	r3, [r3]
 378 00d4 F000F0E7 		.inst	0xe7f000f0
 379              	.L49:
 380 00d8 0000A0E3 		mov	r0, #0
 381 00dc F087BDE8 		pop	{r4, r5, r6, r7, r8, r9, r10, pc}
 382              	.L50:
 383 00e0 0100A0E3 		mov	r0, #1
 384 00e4 F087BDE8 		pop	{r4, r5, r6, r7, r8, r9, r10, pc}
 385              	.L46:
 386 00e8 FEFFFFEB 		bl	abort
 387              		.fnend
 389              		.section	.text._ZN6tflite14MicroAllocator25AllocateTfLiteEvalTensorsEPKNS_5ModelEPNS_19SubgraphAll
 390              		.align	2
 391              		.global	_ZN6tflite14MicroAllocator25AllocateTfLiteEvalTensorsEPKNS_5ModelEPNS_19SubgraphAllocation
 392              		.syntax unified
 393              		.arm
 394              		.fpu neon
 396              	_ZN6tflite14MicroAllocator25AllocateTfLiteEvalTensorsEPKNS_5ModelEPNS_19SubgraphAllocationsE:
 397              		.fnstart
 398              	.LFB6566:
 399              		@ args = 0, pretend = 0, frame = 32
 400              		@ frame_needed = 0, uses_anonymous_args = 0
 401 0000 000052E3 		cmp	r2, #0
 402 0004 F04F2DE9 		push	{r4, r5, r6, r7, r8, r9, r10, fp, lr}
 403              		.save {r4, r5, r6, r7, r8, r9, r10, fp, lr}
 404              		.pad #36
 405 0008 24D04DE2 		sub	sp, sp, #36
 406 000c 08008DE5 		str	r0, [sp, #8]
 407 0010 C600000A 		beq	.L67
 408 0014 003000E3 		movw	r3, #:lower16:.LANCHOR2
 409 0018 01B0A0E1 		mov	fp, r1
 410 001c 003040E3 		movt	r3, #:upper16:.LANCHOR2
 411 0020 0C2082E2 		add	r2, r2, #12
 412 0024 18308DE5 		str	r3, [sp, #24]
 413 0028 0030A0E3 		mov	r3, #0
 414 002c 1C208DE5 		str	r2, [sp, #28]
 415 0030 10308DE5 		str	r3, [sp, #16]
 416              	.L83:
 417 0034 00309BE5 		ldr	r3, [fp]
 418 0038 03304BE0 		sub	r3, fp, r3
 419 003c B020D3E1 		ldrh	r2, [r3]
 420 0040 080052E3 		cmp	r2, #8
 421 0044 640000DA 		ble	.L71
 422 0048 B820D3E1 		ldrh	r2, [r3, #8]
 423 004c 000052E3 		cmp	r2, #0
 424 0050 02308BE0 		add	r3, fp, r2
 425 0054 6000000A 		beq	.L71
 426 0058 02209BE7 		ldr	r2, [fp, r2]
 427 005c 021093E7 		ldr	r1, [r3, r2]
 428 0060 023083E0 		add	r3, r3, r2
 429 0064 10209DE5 		ldr	r2, [sp, #16]
 430 0068 010052E1 		cmp	r2, r1
 431 006c A500002A 		bcs	.L85
 432 0070 043083E2 		add	r3, r3, #4
 433 0074 0210A0E1 		mov	r1, r2
 434 0078 022193E7 		ldr	r2, [r3, r2, lsl #2]
 435 007c 013183E0 		add	r3, r3, r1, lsl #2
 436 0080 029093E0 		adds	r9, r3, r2
 437 0084 A900000A 		beq	.L67
 438 0088 023093E7 		ldr	r3, [r3, r2]
 439 008c 033049E0 		sub	r3, r9, r3
 440 0090 B020D3E1 		ldrh	r2, [r3]
 441 0094 040052E3 		cmp	r2, #4
 442 0098 4F0000DA 		ble	.L71
 443 009c B430D3E1 		ldrh	r3, [r3, #4]
 444 00a0 000053E3 		cmp	r3, #0
 445 00a4 031089E0 		add	r1, r9, r3
 446 00a8 4B00000A 		beq	.L71
 447 00ac 033099E7 		ldr	r3, [r9, r3]
 448 00b0 0420A0E3 		mov	r2, #4
 449 00b4 08009DE5 		ldr	r0, [sp, #8]
 450 00b8 033091E7 		ldr	r3, [r1, r3]
 451 00bc 040090E5 		ldr	r0, [r0, #4]
 452 00c0 0310A0E1 		mov	r1, r3
 453 00c4 0C308DE5 		str	r3, [sp, #12]
 454 00c8 003090E5 		ldr	r3, [r0]
 455 00cc 811081E0 		add	r1, r1, r1, lsl #1
 456 00d0 0111A0E1 		lsl	r1, r1, #2
 457 00d4 0C3093E5 		ldr	r3, [r3, #12]
 458 00d8 33FF2FE1 		blx	r3
 459 00dc 003050E2 		subs	r3, r0, #0
 460 00e0 14308DE5 		str	r3, [sp, #20]
 461 00e4 3900000A 		beq	.L75
 462 00e8 0C309DE5 		ldr	r3, [sp, #12]
 463 00ec 000053E3 		cmp	r3, #0
 464 00f0 6000000A 		beq	.L70
 465 00f4 14309DE5 		ldr	r3, [sp, #20]
 466 00f8 0080A0E3 		mov	r8, #0
 467 00fc 1C6083E2 		add	r6, r3, #28
 468              	.L84:
 469 0100 003099E5 		ldr	r3, [r9]
 470 0104 033049E0 		sub	r3, r9, r3
 471 0108 B020D3E1 		ldrh	r2, [r3]
 472 010c 040052E3 		cmp	r2, #4
 473 0110 310000DA 		ble	.L71
 474 0114 B430D3E1 		ldrh	r3, [r3, #4]
 475 0118 000053E3 		cmp	r3, #0
 476 011c 034089E0 		add	r4, r9, r3
 477 0120 2D00000A 		beq	.L71
 478 0124 033099E7 		ldr	r3, [r9, r3]
 479 0128 032094E7 		ldr	r2, [r4, r3]
 480 012c 034084E0 		add	r4, r4, r3
 481 0130 080052E1 		cmp	r2, r8
 482 0134 7500009A 		bls	.L122
 483 0138 00309BE5 		ldr	r3, [fp]
 484 013c 044084E2 		add	r4, r4, #4
 485 0140 08A194E7 		ldr	r10, [r4, r8, lsl #2]
 486 0144 084184E0 		add	r4, r4, r8, lsl #2
 487 0148 03304BE0 		sub	r3, fp, r3
 488 014c B020D3E1 		ldrh	r2, [r3]
 489 0150 0A7084E0 		add	r7, r4, r10
 490 0154 0C0052E3 		cmp	r2, #12
 491 0158 0050A0D3 		movle	r5, #0
 492 015c 040000DA 		ble	.L73
 493 0160 BC50D3E1 		ldrh	r5, [r3, #12]
 494 0164 000055E3 		cmp	r5, #0
 495 0168 05308BE0 		add	r3, fp, r5
 496 016c 05509B17 		ldrne	r5, [fp, r5]
 497 0170 05508310 		addne	r5, r3, r5
 498              	.L73:
 499 0174 0A1094E7 		ldr	r1, [r4, r10]
 500 0178 0000A0E3 		mov	r0, #0
 501 017c 08309DE5 		ldr	r3, [sp, #8]
 502 0180 00C0A0E3 		mov	ip, #0
 503 0184 011047E0 		sub	r1, r7, r1
 504 0188 0C3093E5 		ldr	r3, [r3, #12]
 505 018c 1C0006E5 		str	r0, [r6, #-28]
 506 0190 180006E5 		str	r0, [r6, #-24]
 507 0194 B000D1E1 		ldrh	r0, [r1]
 508 0198 14C006E5 		str	ip, [r6, #-20]
 509 019c 060050E3 		cmp	r0, #6
 510 01a0 0000A0D3 		movle	r0, #0
 511 01a4 020000DA 		ble	.L74
 512 01a8 B600D1E1 		ldrh	r0, [r1, #6]
 513 01ac 0C0050E1 		cmp	r0, ip
 514 01b0 0000D717 		ldrbne	r0, [r7, r0]	@ zero_extendqisi2
 515              	.L74:
 516 01b4 0320A0E1 		mov	r2, r3
 517 01b8 141046E2 		sub	r1, r6, #20
 518 01bc 04308DE5 		str	r3, [sp, #4]
 519 01c0 FEFFFFEB 		bl	_ZN6tflite17ConvertTensorTypeENS_10TensorTypeEP10TfLiteTypePNS_13ErrorReporterE
 520 01c4 000050E3 		cmp	r0, #0
 521 01c8 04309DE5 		ldr	r3, [sp, #4]
 522 01cc 0500000A 		beq	.L123
 523              	.L75:
 524 01d0 0100A0E3 		mov	r0, #1
 525              	.L120:
 526 01d4 24D08DE2 		add	sp, sp, #36
 527              		@ sp needed
 528 01d8 F08FBDE8 		pop	{r4, r5, r6, r7, r8, r9, r10, fp, pc}
 529              	.L71:
 530 01dc 0030A0E3 		mov	r3, #0
 531 01e0 003093E5 		ldr	r3, [r3]
 532 01e4 F000F0E7 		.inst	0xe7f000f0
 533              	.L123:
 534 01e8 0A2094E7 		ldr	r2, [r4, r10]
 535 01ec 022047E0 		sub	r2, r7, r2
 536 01f0 B010D2E1 		ldrh	r1, [r2]
 537 01f4 080051E3 		cmp	r1, #8
 538 01f8 020000DA 		ble	.L76
 539 01fc B800D2E1 		ldrh	r0, [r2, #8]
 540 0200 000050E3 		cmp	r0, #0
 541 0204 00009717 		ldrne	r0, [r7, r0]
 542              	.L76:
 543 0208 00C095E5 		ldr	ip, [r5]
 544 020c 0C0050E1 		cmp	r0, ip
 545 0210 4700002A 		bcs	.L124
 546 0214 045085E2 		add	r5, r5, #4
 547 0218 00C195E7 		ldr	ip, [r5, r0, lsl #2]
 548 021c 005185E0 		add	r5, r5, r0, lsl #2
 549 0220 0C0095E0 		adds	r0, r5, ip
 550 0224 2400000A 		beq	.L78
 551 0228 0CC095E7 		ldr	ip, [r5, ip]
 552 022c 0CC040E0 		sub	ip, r0, ip
 553 0230 B0E0DCE1 		ldrh	lr, [ip]
 554 0234 04005EE3 		cmp	lr, #4
 555 0238 2E0000DA 		ble	.L93
 556 023c B4C0DCE1 		ldrh	ip, [ip, #4]
 557 0240 00005CE3 		cmp	ip, #0
 558 0244 0CE080E0 		add	lr, r0, ip
 559 0248 1400001A 		bne	.L125
 560 024c 040051E3 		cmp	r1, #4
 561 0250 1CC006E5 		str	ip, [r6, #-28]
 562 0254 1B0000CA 		bgt	.L80
 563              	.L82:
 564 0258 00F0D6F5 		pld	[r6]
 565 025c 18309DE5 		ldr	r3, [sp, #24]
 566 0260 183006E5 		str	r3, [r6, #-24]
 567              	.L81:
 568 0264 0C309DE5 		ldr	r3, [sp, #12]
 569 0268 018088E2 		add	r8, r8, #1
 570 026c 0C6086E2 		add	r6, r6, #12
 571 0270 030058E1 		cmp	r8, r3
 572 0274 A1FFFF1A 		bne	.L84
 573              	.L70:
 574 0278 10209DE5 		ldr	r2, [sp, #16]
 575 027c 1C309DE5 		ldr	r3, [sp, #28]
 576 0280 012082E2 		add	r2, r2, #1
 577 0284 00F0D3F5 		pld	[r3]
 578 0288 083083E2 		add	r3, r3, #8
 579 028c 10208DE5 		str	r2, [sp, #16]
 580 0290 14209DE5 		ldr	r2, [sp, #20]
 581 0294 102003E5 		str	r2, [r3, #-16]
 582 0298 1C308DE5 		str	r3, [sp, #28]
 583 029c 64FFFFEA 		b	.L83
 584              	.L125:
 585 02a0 0CC090E7 		ldr	ip, [r0, ip]
 586 02a4 0C009EE0 		adds	r0, lr, ip
 587 02a8 0300000A 		beq	.L78
 588 02ac 0CC09EE7 		ldr	ip, [lr, ip]
 589 02b0 00005CE3 		cmp	ip, #0
 590 02b4 1100000A 		beq	.L95
 591 02b8 040080E2 		add	r0, r0, #4
 592              	.L78:
 593 02bc 040051E3 		cmp	r1, #4
 594 02c0 1C0006E5 		str	r0, [r6, #-28]
 595 02c4 E3FFFFDA 		ble	.L82
 596              	.L80:
 597 02c8 B420D2E1 		ldrh	r2, [r2, #4]
 598 02cc 000052E3 		cmp	r2, #0
 599 02d0 E0FFFF0A 		beq	.L82
 600 02d4 021097E7 		ldr	r1, [r7, r2]
 601 02d8 027087E0 		add	r7, r7, r2
 602 02dc 017097E0 		adds	r7, r7, r1
 603 02e0 DCFFFF0A 		beq	.L82
 604 02e4 000053E3 		cmp	r3, #0
 605 02e8 1000000A 		beq	.L67
 606 02ec 00F0D6F5 		pld	[r6]
 607 02f0 187006E5 		str	r7, [r6, #-24]
 608 02f4 DAFFFFEA 		b	.L81
 609              	.L93:
 610 02f8 0000A0E3 		mov	r0, #0
 611 02fc EEFFFFEA 		b	.L78
 612              	.L95:
 613 0300 0C00A0E1 		mov	r0, ip
 614 0304 ECFFFFEA 		b	.L78
 615              	.L85:
 616 0308 0000A0E3 		mov	r0, #0
 617 030c B0FFFFEA 		b	.L120
 618              	.L122:
 619 0310 003000E3 		movw	r3, #:lower16:.LC0
 620 0314 002000E3 		movw	r2, #:lower16:.LANCHOR0
 621 0318 000000E3 		movw	r0, #:lower16:.LC1
 622 031c 003040E3 		movt	r3, #:upper16:.LC0
 623 0320 002040E3 		movt	r2, #:upper16:.LANCHOR0
 624 0324 000040E3 		movt	r0, #:upper16:.LC1
 625 0328 061100E3 		movw	r1, #262
 626 032c FEFFFFEB 		bl	__assert_func
 627              	.L67:
 628 0330 FEFFFFEB 		bl	abort
 629              	.L124:
 630 0334 003000E3 		movw	r3, #:lower16:.LC0
 631 0338 002000E3 		movw	r2, #:lower16:.LANCHOR1
 632 033c 000000E3 		movw	r0, #:lower16:.LC1
 633 0340 003040E3 		movt	r3, #:upper16:.LC0
 634 0344 002040E3 		movt	r2, #:upper16:.LANCHOR1
 635 0348 000040E3 		movt	r0, #:upper16:.LC1
 636 034c 061100E3 		movw	r1, #262
 637 0350 FEFFFFEB 		bl	__assert_func
 638              		.fnend
 640              		.section	.text._ZN6tflite8internal25GetFlatbufferTensorBufferERKNS_6TensorEPKN11flatbuffers6Vector
 641              		.align	2
 642              		.global	_ZN6tflite8internal25GetFlatbufferTensorBufferERKNS_6TensorEPKN11flatbuffers6VectorINS4_6O
 643              		.syntax unified
 644              		.arm
 645              		.fpu neon
 647              	_ZN6tflite8internal25GetFlatbufferTensorBufferERKNS_6TensorEPKN11flatbuffers6VectorINS4_6OffsetINS_
 648              		.fnstart
 649              	.LFB6544:
 650              		@ args = 0, pretend = 0, frame = 0
 651              		@ frame_needed = 0, uses_anonymous_args = 0
 652 0000 003090E5 		ldr	r3, [r0]
 653 0004 033040E0 		sub	r3, r0, r3
 654 0008 B020D3E1 		ldrh	r2, [r3]
 655 000c 080052E3 		cmp	r2, #8
 656 0010 0030A0D3 		movle	r3, #0
 657 0014 020000DA 		ble	.L127
 658 0018 B830D3E1 		ldrh	r3, [r3, #8]
 659 001c 000053E3 		cmp	r3, #0
 660 0020 03309017 		ldrne	r3, [r0, r3]
 661              	.L127:
 662 0024 002091E5 		ldr	r2, [r1]
 663 0028 020053E1 		cmp	r3, r2
 664 002c 1800002A 		bcs	.L140
 665 0030 041081E2 		add	r1, r1, #4
 666 0034 032191E7 		ldr	r2, [r1, r3, lsl #2]
 667 0038 031181E0 		add	r1, r1, r3, lsl #2
 668 003c 020091E0 		adds	r0, r1, r2
 669 0040 1000000A 		beq	.L126
 670 0044 023091E7 		ldr	r3, [r1, r2]
 671 0048 033040E0 		sub	r3, r0, r3
 672 004c B020D3E1 		ldrh	r2, [r3]
 673 0050 040052E3 		cmp	r2, #4
 674 0054 0000A0D3 		movle	r0, #0
 675 0058 0A0000DA 		ble	.L126
 676 005c B430D3E1 		ldrh	r3, [r3, #4]
 677 0060 000053E3 		cmp	r3, #0
 678 0064 032080E0 		add	r2, r0, r3
 679 0068 0700000A 		beq	.L136
 680 006c 033090E7 		ldr	r3, [r0, r3]
 681 0070 030092E0 		adds	r0, r2, r3
 682 0074 0300000A 		beq	.L126
 683 0078 033092E7 		ldr	r3, [r2, r3]
 684 007c 000053E3 		cmp	r3, #0
 685 0080 0100000A 		beq	.L136
 686 0084 040080E2 		add	r0, r0, #4
 687              	.L126:
 688 0088 1EFF2FE1 		bx	lr
 689              	.L136:
 690 008c 0300A0E1 		mov	r0, r3
 691 0090 FCFFFFEA 		b	.L126
 692              	.L140:
 693 0094 003000E3 		movw	r3, #:lower16:.LC0
 694 0098 002000E3 		movw	r2, #:lower16:.LANCHOR1
 695 009c 000000E3 		movw	r0, #:lower16:.LC1
 696 00a0 10402DE9 		push	{r4, lr}
 697              		.save {r4, lr}
 698 00a4 003040E3 		movt	r3, #:upper16:.LC0
 699 00a8 002040E3 		movt	r2, #:upper16:.LANCHOR1
 700 00ac 000040E3 		movt	r0, #:upper16:.LC1
 701 00b0 061100E3 		movw	r1, #262
 702 00b4 FEFFFFEB 		bl	__assert_func
 703              		.fnend
 705              		.section	.text._ZN6tflite8internal36InitializeTfLiteTensorFromFlatbufferEPNS_21SimpleMemoryAllocat
 706              		.align	2
 707              		.global	_ZN6tflite8internal36InitializeTfLiteTensorFromFlatbufferEPNS_21SimpleMemoryAllocatorEbRKN
 708              		.syntax unified
 709              		.arm
 710              		.fpu neon
 712              	_ZN6tflite8internal36InitializeTfLiteTensorFromFlatbufferEPNS_21SimpleMemoryAllocatorEbRKNS_6Tensor
 713              		.fnstart
 714              	.LFB6545:
 715              		@ args = 8, pretend = 0, frame = 8
 716              		@ frame_needed = 0, uses_anonymous_args = 0
 717 0000 F04F2DE9 		push	{r4, r5, r6, r7, r8, r9, r10, fp, lr}
 718              		.save {r4, r5, r6, r7, r8, r9, r10, fp, lr}
 719              		.pad #12
 720 0004 0CD04DE2 		sub	sp, sp, #12
 721 0008 34409DE5 		ldr	r4, [sp, #52]
 722 000c 000054E3 		cmp	r4, #0
 723 0010 9200000A 		beq	.L154
 724 0014 0250A0E1 		mov	r5, r2
 725 0018 0060A0E1 		mov	r6, r0
 726 001c 4020A0E3 		mov	r2, #64
 727 0020 0170A0E1 		mov	r7, r1
 728 0024 0400A0E1 		mov	r0, r4
 729 0028 0010A0E3 		mov	r1, #0
 730 002c 0380A0E1 		mov	r8, r3
 731 0030 FEFFFFEB 		bl	memset
 732 0034 003095E5 		ldr	r3, [r5]
 733 0038 033045E0 		sub	r3, r5, r3
 734 003c B020D3E1 		ldrh	r2, [r3]
 735 0040 060052E3 		cmp	r2, #6
 736 0044 0000A0D3 		movle	r0, #0
 737 0048 020000DA 		ble	.L143
 738 004c B600D3E1 		ldrh	r0, [r3, #6]
 739 0050 000050E3 		cmp	r0, #0
 740 0054 0000D517 		ldrbne	r0, [r5, r0]	@ zero_extendqisi2
 741              	.L143:
 742 0058 30209DE5 		ldr	r2, [sp, #48]
 743 005c 0410A0E1 		mov	r1, r4
 744 0060 FEFFFFEB 		bl	_ZN6tflite17ConvertTensorTypeENS_10TensorTypeEP10TfLiteTypePNS_13ErrorReporterE
 745 0064 000050E3 		cmp	r0, #0
 746 0068 8800001A 		bne	.L229
 747 006c 003095E5 		ldr	r3, [r5]
 748 0070 033045E0 		sub	r3, r5, r3
 749 0074 B020D3E1 		ldrh	r2, [r3]
 750 0078 0E0052E3 		cmp	r2, #14
 751 007c 850000CA 		bgt	.L233
 752 0080 080052E3 		cmp	r2, #8
 753 0084 2D00C4E5 		strb	r0, [r4, #45]
 754 0088 890000CA 		bgt	.L169
 755              	.L147:
 756 008c 003098E5 		ldr	r3, [r8]
 757 0090 030050E1 		cmp	r0, r3
 758 0094 D500002A 		bcs	.L234
 759 0098 048088E2 		add	r8, r8, #4
 760 009c 003198E7 		ldr	r3, [r8, r0, lsl #2]
 761 00a0 000188E0 		add	r0, r8, r0, lsl #2
 762 00a4 032090E0 		adds	r2, r0, r3
 763 00a8 0400000A 		beq	.L149
 764 00ac 033090E7 		ldr	r3, [r0, r3]
 765 00b0 033042E0 		sub	r3, r2, r3
 766 00b4 B010D3E1 		ldrh	r1, [r3]
 767 00b8 040051E3 		cmp	r1, #4
 768 00bc 800000CA 		bgt	.L235
 769              	.L149:
 770 00c0 0220A0E3 		mov	r2, #2
 771 00c4 0030A0E3 		mov	r3, #0
 772 00c8 043084E5 		str	r3, [r4, #4]
 773              	.L150:
 774 00cc 1420C4E5 		strb	r2, [r4, #20]
 775 00d0 181084E2 		add	r1, r4, #24
 776 00d4 30309DE5 		ldr	r3, [sp, #48]
 777 00d8 04208DE2 		add	r2, sp, #4
 778 00dc 0500A0E1 		mov	r0, r5
 779 00e0 FEFFFFEB 		bl	_ZN6tflite22BytesRequiredForTensorERKNS_6TensorEPjS3_PNS_13ErrorReporterE
 780 00e4 000050E3 		cmp	r0, #0
 781 00e8 6800001A 		bne	.L229
 782 00ec 003095E5 		ldr	r3, [r5]
 783 00f0 033045E0 		sub	r3, r5, r3
 784 00f4 B020D3E1 		ldrh	r2, [r3]
 785 00f8 040052E3 		cmp	r2, #4
 786 00fc 7E0000DA 		ble	.L151
 787 0100 B400D3E1 		ldrh	r0, [r3, #4]
 788 0104 000050E3 		cmp	r0, #0
 789 0108 001085E0 		add	r1, r5, r0
 790 010c 7A00000A 		beq	.L151
 791 0110 000095E7 		ldr	r0, [r5, r0]
 792 0114 001091E0 		adds	r1, r1, r0
 793 0118 7700000A 		beq	.L151
 794 011c 30009DE5 		ldr	r0, [sp, #48]
 795 0120 000050E3 		cmp	r0, #0
 796 0124 4D00000A 		beq	.L154
 797 0128 081084E5 		str	r1, [r4, #8]
 798              	.L153:
 799 012c 0C0052E3 		cmp	r2, #12
 800 0130 9A0000DA 		ble	.L186
 801 0134 BC00D3E1 		ldrh	r0, [r3, #12]
 802 0138 000050E3 		cmp	r0, #0
 803 013c 008085E0 		add	r8, r5, r0
 804 0140 5200000A 		beq	.L229
 805 0144 00A095E7 		ldr	r10, [r5, r0]
 806 0148 0A5098E0 		adds	r5, r8, r10
 807 014c 9300000A 		beq	.L186
 808 0150 0A3098E7 		ldr	r3, [r8, r10]
 809 0154 033045E0 		sub	r3, r5, r3
 810 0158 B020D3E1 		ldrh	r2, [r3]
 811 015c 080052E3 		cmp	r2, #8
 812 0160 8E0000DA 		ble	.L186
 813 0164 B800D3E1 		ldrh	r0, [r3, #8]
 814 0168 000050E3 		cmp	r0, #0
 815 016c 00C085E0 		add	ip, r5, r0
 816 0170 4600000A 		beq	.L229
 817 0174 001095E7 		ldr	r1, [r5, r0]
 818 0178 01E09CE0 		adds	lr, ip, r1
 819 017c 8700000A 		beq	.L186
 820 0180 01009CE7 		ldr	r0, [ip, r1]
 821 0184 000050E3 		cmp	r0, #0
 822 0188 4000000A 		beq	.L229
 823 018c 0A0052E3 		cmp	r2, #10
 824 0190 820000DA 		ble	.L186
 825 0194 BA00D3E1 		ldrh	r0, [r3, #10]
 826 0198 000050E3 		cmp	r0, #0
 827 019c 002085E0 		add	r2, r5, r0
 828 01a0 3A00000A 		beq	.L229
 829 01a4 003095E7 		ldr	r3, [r5, r0]
 830 01a8 031092E0 		adds	r1, r2, r3
 831 01ac 7B00000A 		beq	.L186
 832 01b0 030092E7 		ldr	r0, [r2, r3]
 833 01b4 000050E3 		cmp	r0, #0
 834 01b8 3400000A 		beq	.L229
 835 01bc 043091E5 		ldr	r3, [r1, #4]
 836 01c0 04209EE5 		ldr	r2, [lr, #4]	@ float
 837 01c4 103084E5 		str	r3, [r4, #16]
 838 01c8 0A3098E7 		ldr	r3, [r8, r10]
 839 01cc 0C2084E5 		str	r2, [r4, #12]	@ float
 840 01d0 033045E0 		sub	r3, r5, r3
 841 01d4 B020D3E1 		ldrh	r2, [r3]
 842 01d8 080052E3 		cmp	r2, #8
 843 01dc 6C0000DA 		ble	.L165
 844 01e0 B830D3E1 		ldrh	r3, [r3, #8]
 845 01e4 000053E3 		cmp	r3, #0
 846 01e8 032085E0 		add	r2, r5, r3
 847 01ec 6800000A 		beq	.L165
 848 01f0 033095E7 		ldr	r3, [r5, r3]
 849 01f4 000057E3 		cmp	r7, #0
 850 01f8 0C10A0E3 		mov	r1, #12
 851 01fc 0600A0E1 		mov	r0, r6
 852 0200 039092E7 		ldr	r9, [r2, r3]
 853 0204 0420A0E3 		mov	r2, #4
 854 0208 003096E5 		ldr	r3, [r6]
 855 020c 6600000A 		beq	.L157
 856 0210 103093E5 		ldr	r3, [r3, #16]
 857 0214 33FF2FE1 		blx	r3
 858 0218 007050E2 		subs	r7, r0, #0
 859 021c 6900000A 		beq	.L159
 860 0220 003096E5 		ldr	r3, [r6]
 861 0224 0900A0E1 		mov	r0, r9
 862 0228 10B093E5 		ldr	fp, [r3, #16]
 863              	.L232:
 864 022c FEFFFFEB 		bl	TfLiteIntArrayGetSizeInBytes
 865 0230 0420A0E3 		mov	r2, #4
 866 0234 0010A0E1 		mov	r1, r0
 867 0238 0600A0E1 		mov	r0, r6
 868 023c 3BFF2FE1 		blx	fp
 869 0240 000050E3 		cmp	r0, #0
 870 0244 040087E5 		str	r0, [r7, #4]
 871 0248 5E00000A 		beq	.L159
 872 024c 0AE098E7 		ldr	lr, [r8, r10]
 873 0250 0EE045E0 		sub	lr, r5, lr
 874 0254 B060DEE1 		ldrh	r6, [lr]
 875 0258 080056E3 		cmp	r6, #8
 876 025c 2A0000CA 		bgt	.L236
 877              	.L154:
 878 0260 FEFFFFEB 		bl	abort
 879              	.L167:
 880 0264 100056E3 		cmp	r6, #16
 881 0268 0030A0D3 		movle	r3, #0
 882 026c 020000DA 		ble	.L164
 883 0270 B031DEE1 		ldrh	r3, [lr, #16]
 884 0274 000053E3 		cmp	r3, #0
 885 0278 03309517 		ldrne	r3, [r5, r3]
 886              	.L164:
 887 027c 0000A0E3 		mov	r0, #0
 888 0280 0120A0E3 		mov	r2, #1
 889 0284 083087E5 		str	r3, [r7, #8]
 890 0288 347084E5 		str	r7, [r4, #52]
 891 028c 3020C4E5 		strb	r2, [r4, #48]
 892              	.L229:
 893 0290 0CD08DE2 		add	sp, sp, #12
 894              		@ sp needed
 895 0294 F08FBDE8 		pop	{r4, r5, r6, r7, r8, r9, r10, fp, pc}
 896              	.L233:
 897 0298 BE20D3E1 		ldrh	r2, [r3, #14]
 898 029c 000052E3 		cmp	r2, #0
 899 02a0 0200000A 		beq	.L146
 900 02a4 0220D5E7 		ldrb	r2, [r5, r2]	@ zero_extendqisi2
 901 02a8 002092E2 		adds	r2, r2, #0
 902 02ac 0120A013 		movne	r2, #1
 903              	.L146:
 904 02b0 2D20C4E5 		strb	r2, [r4, #45]
 905              	.L169:
 906 02b4 B800D3E1 		ldrh	r0, [r3, #8]
 907 02b8 000050E3 		cmp	r0, #0
 908 02bc 00009517 		ldrne	r0, [r5, r0]
 909 02c0 71FFFFEA 		b	.L147
 910              	.L235:
 911 02c4 B430D3E1 		ldrh	r3, [r3, #4]
 912 02c8 000053E3 		cmp	r3, #0
 913 02cc 031082E0 		add	r1, r2, r3
 914 02d0 7AFFFF0A 		beq	.L149
 915 02d4 032092E7 		ldr	r2, [r2, r3]
 916 02d8 023091E0 		adds	r3, r1, r2
 917 02dc 77FFFF0A 		beq	.L149
 918 02e0 022091E7 		ldr	r2, [r1, r2]
 919 02e4 000052E3 		cmp	r2, #0
 920 02e8 74FFFF0A 		beq	.L149
 921 02ec 043083E2 		add	r3, r3, #4
 922 02f0 0120A0E3 		mov	r2, #1
 923 02f4 043084E5 		str	r3, [r4, #4]
 924 02f8 73FFFFEA 		b	.L150
 925              	.L151:
 926 02fc 001000E3 		movw	r1, #:lower16:.LANCHOR2
 927 0300 001040E3 		movt	r1, #:upper16:.LANCHOR2
 928 0304 081084E5 		str	r1, [r4, #8]
 929 0308 87FFFFEA 		b	.L153
 930              	.L236:
 931 030c B820DEE1 		ldrh	r2, [lr, #8]
 932 0310 000052E3 		cmp	r2, #0
 933 0314 023085E0 		add	r3, r5, r2
 934 0318 D0FFFF0A 		beq	.L154
 935 031c 30109DE5 		ldr	r1, [sp, #48]
 936 0320 022095E7 		ldr	r2, [r5, r2]
 937 0324 000051E3 		cmp	r1, #0
 938 0328 023083E0 		add	r3, r3, r2
 939 032c CBFFFF0A 		beq	.L154
 940 0330 000053E3 		cmp	r3, #0
 941 0334 C9FFFF0A 		beq	.L154
 942 0338 000059E3 		cmp	r9, #0
 943 033c 003087E5 		str	r3, [r7]
 944 0340 009080E5 		str	r9, [r0]
 945 0344 C6FFFFDA 		ble	.L167
 946 0348 0A0056E3 		cmp	r6, #10
 947 034c 100000DA 		ble	.L165
 948 0350 BAC0DEE1 		ldrh	ip, [lr, #10]
 949 0354 0020A0E3 		mov	r2, #0
 950 0358 0C1085E0 		add	r1, r5, ip
 951 035c 0A0000EA 		b	.L168
 952              	.L237:
 953 0360 003091E5 		ldr	r3, [r1]
 954 0364 038091E7 		ldr	r8, [r1, r3]
 955 0368 033081E0 		add	r3, r1, r3
 956 036c 080052E1 		cmp	r2, r8
 957 0370 1600002A 		bcs	.L166
 958 0374 823183E0 		add	r3, r3, r2, lsl #3
 959 0378 012082E2 		add	r2, r2, #1
 960 037c 020059E1 		cmp	r9, r2
 961 0380 043093E5 		ldr	r3, [r3, #4]
 962 0384 0430A0E5 		str	r3, [r0, #4]!
 963 0388 B5FFFF0A 		beq	.L167
 964              	.L168:
 965 038c 00005CE3 		cmp	ip, #0
 966 0390 F2FFFF1A 		bne	.L237
 967              	.L165:
 968 0394 0030A0E3 		mov	r3, #0
 969 0398 003093E5 		ldr	r3, [r3]
 970 039c F000F0E7 		.inst	0xe7f000f0
 971              	.L186:
 972 03a0 0000A0E3 		mov	r0, #0
 973 03a4 0CD08DE2 		add	sp, sp, #12
 974              		@ sp needed
 975 03a8 F08FBDE8 		pop	{r4, r5, r6, r7, r8, r9, r10, fp, pc}
 976              	.L157:
 977 03ac 0C3093E5 		ldr	r3, [r3, #12]
 978 03b0 33FF2FE1 		blx	r3
 979 03b4 007050E2 		subs	r7, r0, #0
 980 03b8 00309615 		ldrne	r3, [r6]
 981 03bc 0900A011 		movne	r0, r9
 982 03c0 0CB09315 		ldrne	fp, [r3, #12]
 983 03c4 98FFFF1A 		bne	.L232
 984              	.L159:
 985 03c8 0100A0E3 		mov	r0, #1
 986 03cc AFFFFFEA 		b	.L229
 987              	.L166:
 988 03d0 003000E3 		movw	r3, #:lower16:.LC0
 989 03d4 002000E3 		movw	r2, #:lower16:.LANCHOR3
 990 03d8 000000E3 		movw	r0, #:lower16:.LC1
 991 03dc 003040E3 		movt	r3, #:upper16:.LC0
 992 03e0 002040E3 		movt	r2, #:upper16:.LANCHOR3
 993 03e4 000040E3 		movt	r0, #:upper16:.LC1
 994 03e8 061100E3 		movw	r1, #262
 995 03ec FEFFFFEB 		bl	__assert_func
 996              	.L234:
 997 03f0 003000E3 		movw	r3, #:lower16:.LC0
 998 03f4 002000E3 		movw	r2, #:lower16:.LANCHOR1
 999 03f8 000000E3 		movw	r0, #:lower16:.LC1
 1000 03fc 003040E3 		movt	r3, #:upper16:.LC0
 1001 0400 002040E3 		movt	r2, #:upper16:.LANCHOR1
 1002 0404 000040E3 		movt	r0, #:upper16:.LC1
 1003 0408 061100E3 		movw	r1, #262
 1004 040c FEFFFFEB 		bl	__assert_func
 1005              		.fnend
 1007              		.section	.text._ZN6tflite14MicroAllocator34PopulateTfLiteTensorFromFlatbufferEPKNS_5ModelEP12TfLit
 1008              		.align	2
 1009              		.global	_ZN6tflite14MicroAllocator34PopulateTfLiteTensorFromFlatbufferEPKNS_5ModelEP12TfLiteTensor
 1010              		.syntax unified
 1011              		.arm
 1012              		.fpu neon
 1014              	_ZN6tflite14MicroAllocator34PopulateTfLiteTensorFromFlatbufferEPKNS_5ModelEP12TfLiteTensoriib:
 1015              		.fnstart
 1016              	.LFB6569:
 1017              		@ args = 8, pretend = 0, frame = 0
 1018              		@ frame_needed = 0, uses_anonymous_args = 0
 1019 0000 F04F2DE9 		push	{r4, r5, r6, r7, r8, r9, r10, fp, lr}
 1020              		.save {r4, r5, r6, r7, r8, r9, r10, fp, lr}
 1021              		.pad #4
 1022 0004 04D04DE2 		sub	sp, sp, #4
 1023 0008 006091E5 		ldr	r6, [r1]
 1024 000c 047090E5 		ldr	r7, [r0, #4]
 1025 0010 066041E0 		sub	r6, r1, r6
 1026 0014 28B09DE5 		ldr	fp, [sp, #40]
 1027 0018 B0A0D6E1 		ldrh	r10, [r6]
 1028 001c 2C80DDE5 		ldrb	r8, [sp, #44]	@ zero_extendqisi2
 1029 0020 08005AE3 		cmp	r10, #8
 1030 0024 320000DA 		ble	.L241
 1031 0028 B8C0D6E1 		ldrh	ip, [r6, #8]
 1032 002c 00005CE3 		cmp	ip, #0
 1033 0030 0CE081E0 		add	lr, r1, ip
 1034 0034 2E00000A 		beq	.L241
 1035 0038 0CC091E7 		ldr	ip, [r1, ip]
 1036 003c 0290A0E1 		mov	r9, r2
 1037 0040 0050A0E1 		mov	r5, r0
 1038 0044 0140A0E1 		mov	r4, r1
 1039 0048 0C209EE7 		ldr	r2, [lr, ip]
 1040 004c 0CC08EE0 		add	ip, lr, ip
 1041 0050 02005BE1 		cmp	fp, r2
 1042 0054 3100002A 		bcs	.L253
 1043 0058 04C08CE2 		add	ip, ip, #4
 1044 005c 0B119CE7 		ldr	r1, [ip, fp, lsl #2]
 1045 0060 0BC18CE0 		add	ip, ip, fp, lsl #2
 1046 0064 01209CE7 		ldr	r2, [ip, r1]
 1047 0068 01C08CE0 		add	ip, ip, r1
 1048 006c 02204CE0 		sub	r2, ip, r2
 1049 0070 B010D2E1 		ldrh	r1, [r2]
 1050 0074 040051E3 		cmp	r1, #4
 1051 0078 1D0000DA 		ble	.L241
 1052 007c B410D2E1 		ldrh	r1, [r2, #4]
 1053 0080 000051E3 		cmp	r1, #0
 1054 0084 01208CE0 		add	r2, ip, r1
 1055 0088 1900000A 		beq	.L241
 1056 008c 01C09CE7 		ldr	ip, [ip, r1]
 1057 0090 0C1092E7 		ldr	r1, [r2, ip]
 1058 0094 0CC082E0 		add	ip, r2, ip
 1059 0098 010053E1 		cmp	r3, r1
 1060 009c 1700002A 		bcs	.L254
 1061 00a0 04C08CE2 		add	ip, ip, #4
 1062 00a4 0C005AE3 		cmp	r10, #12
 1063 00a8 03219CE7 		ldr	r2, [ip, r3, lsl #2]
 1064 00ac 03318CE0 		add	r3, ip, r3, lsl #2
 1065 00b0 022083E0 		add	r2, r3, r2
 1066 00b4 0030A0D3 		movle	r3, #0
 1067 00b8 050000DA 		ble	.L243
 1068 00bc BC10D6E1 		ldrh	r1, [r6, #12]
 1069 00c0 000051E3 		cmp	r1, #0
 1070 00c4 013084E0 		add	r3, r4, r1
 1071 00c8 01109417 		ldrne	r1, [r4, r1]
 1072 00cc 0130A001 		moveq	r3, r1
 1073 00d0 01308310 		addne	r3, r3, r1
 1074              	.L243:
 1075 00d4 0CC095E5 		ldr	ip, [r5, #12]
 1076 00d8 0810A0E1 		mov	r1, r8
 1077 00dc 2C908DE5 		str	r9, [sp, #44]
 1078 00e0 0700A0E1 		mov	r0, r7
 1079 00e4 28C08DE5 		str	ip, [sp, #40]
 1080 00e8 04D08DE2 		add	sp, sp, #4
 1081              		@ sp needed
 1082 00ec F04FBDE8 		pop	{r4, r5, r6, r7, r8, r9, r10, fp, lr}
 1083 00f0 FEFFFFEA 		b	_ZN6tflite8internal36InitializeTfLiteTensorFromFlatbufferEPNS_21SimpleMemoryAllocatorEbRKNS_6Ten
 1084              	.L241:
 1085 00f4 0030A0E3 		mov	r3, #0
 1086 00f8 003093E5 		ldr	r3, [r3]
 1087 00fc F000F0E7 		.inst	0xe7f000f0
 1088              	.L254:
 1089 0100 003000E3 		movw	r3, #:lower16:.LC0
 1090 0104 002000E3 		movw	r2, #:lower16:.LANCHOR0
 1091 0108 000000E3 		movw	r0, #:lower16:.LC1
 1092 010c 003040E3 		movt	r3, #:upper16:.LC0
 1093 0110 002040E3 		movt	r2, #:upper16:.LANCHOR0
 1094 0114 000040E3 		movt	r0, #:upper16:.LC1
 1095 0118 061100E3 		movw	r1, #262
 1096 011c FEFFFFEB 		bl	__assert_func
 1097              	.L253:
 1098 0120 003000E3 		movw	r3, #:lower16:.LC0
 1099 0124 002000E3 		movw	r2, #:lower16:.LANCHOR4
 1100 0128 000000E3 		movw	r0, #:lower16:.LC1
 1101 012c 003040E3 		movt	r3, #:upper16:.LC0
 1102 0130 002040E3 		movt	r2, #:upper16:.LANCHOR4
 1103 0134 000040E3 		movt	r0, #:upper16:.LC1
 1104 0138 061100E3 		movw	r1, #262
 1105 013c FEFFFFEB 		bl	__assert_func
 1106              		.fnend
 1108              		.section	.text._ZN6tflite14MicroAllocator30AllocatePersistentTfLiteTensorEPKNS_5ModelEPKNS_19Subgr
 1109              		.align	2
 1110              		.global	_ZN6tflite14MicroAllocator30AllocatePersistentTfLiteTensorEPKNS_5ModelEPKNS_19SubgraphAllo
 1111              		.syntax unified
 1112              		.arm
 1113              		.fpu neon
 1115              	_ZN6tflite14MicroAllocator30AllocatePersistentTfLiteTensorEPKNS_5ModelEPKNS_19SubgraphAllocationsEi
 1116              		.fnstart
 1117              	.LFB6563:
 1118              		@ args = 4, pretend = 0, frame = 0
 1119              		@ frame_needed = 0, uses_anonymous_args = 0
 1120 0000 00C091E5 		ldr	ip, [r1]
 1121 0004 F04F2DE9 		push	{r4, r5, r6, r7, r8, r9, r10, fp, lr}
 1122              		.save {r4, r5, r6, r7, r8, r9, r10, fp, lr}
 1123              		.pad #12
 1124 0008 0CD04DE2 		sub	sp, sp, #12
 1125 000c 30609DE5 		ldr	r6, [sp, #48]
 1126 0010 0CC041E0 		sub	ip, r1, ip
 1127 0014 B0E0DCE1 		ldrh	lr, [ip]
 1128 0018 08005EE3 		cmp	lr, #8
 1129 001c 640000DA 		ble	.L264
 1130 0020 B8E0DCE1 		ldrh	lr, [ip, #8]
 1131 0024 00005EE3 		cmp	lr, #0
 1132 0028 0EC081E0 		add	ip, r1, lr
 1133 002c 6000000A 		beq	.L264
 1134 0030 0140A0E1 		mov	r4, r1
 1135 0034 0E1091E7 		ldr	r1, [r1, lr]
 1136 0038 0350A0E1 		mov	r5, r3
 1137 003c 0270A0E1 		mov	r7, r2
 1138 0040 01309CE7 		ldr	r3, [ip, r1]
 1139 0044 01108CE0 		add	r1, ip, r1
 1140 0048 030056E1 		cmp	r6, r3
 1141 004c 6900002A 		bcs	.L263
 1142 0050 041081E2 		add	r1, r1, #4
 1143 0054 06A1A0E1 		lsl	r10, r6, #2
 1144 0058 063191E7 		ldr	r3, [r1, r6, lsl #2]
 1145 005c 0A1081E0 		add	r1, r1, r10
 1146 0060 030071E1 		cmn	r1, r3
 1147 0064 6B00000A 		beq	.L285
 1148 0068 002090E5 		ldr	r2, [r0]
 1149 006c 003000E3 		movw	r3, #:lower16:_ZN6tflite14MicroAllocator38AllocatePersistentTfLiteTensorInternalEv
 1150 0070 003040E3 		movt	r3, #:upper16:_ZN6tflite14MicroAllocator38AllocatePersistentTfLiteTensorInternalEv
 1151 0074 0080A0E1 		mov	r8, r0
 1152 0078 242092E5 		ldr	r2, [r2, #36]
 1153 007c 030052E1 		cmp	r2, r3
 1154 0080 5700001A 		bne	.L259
 1155 0084 040090E5 		ldr	r0, [r0, #4]
 1156 0088 0420A0E3 		mov	r2, #4
 1157 008c 4010A0E3 		mov	r1, #64
 1158 0090 003090E5 		ldr	r3, [r0]
 1159 0094 0C3093E5 		ldr	r3, [r3, #12]
 1160 0098 33FF2FE1 		blx	r3
 1161 009c 0090A0E1 		mov	r9, r0
 1162              	.L260:
 1163 00a0 002098E5 		ldr	r2, [r8]
 1164 00a4 003000E3 		movw	r3, #:lower16:_ZN6tflite14MicroAllocator34PopulateTfLiteTensorFromFlatbufferEPKNS_5ModelEP12T
 1165 00a8 003040E3 		movt	r3, #:upper16:_ZN6tflite14MicroAllocator34PopulateTfLiteTensorFromFlatbufferEPKNS_5ModelEP12T
 1166 00ac 28B092E5 		ldr	fp, [r2, #40]
 1167 00b0 03005BE1 		cmp	fp, r3
 1168 00b4 4100001A 		bne	.L261
 1169 00b8 003094E5 		ldr	r3, [r4]
 1170 00bc 040098E5 		ldr	r0, [r8, #4]
 1171 00c0 033044E0 		sub	r3, r4, r3
 1172 00c4 B010D3E1 		ldrh	r1, [r3]
 1173 00c8 080051E3 		cmp	r1, #8
 1174 00cc 380000DA 		ble	.L264
 1175 00d0 B820D3E1 		ldrh	r2, [r3, #8]
 1176 00d4 000052E3 		cmp	r2, #0
 1177 00d8 02C084E0 		add	ip, r4, r2
 1178 00dc 3400000A 		beq	.L264
 1179 00e0 022094E7 		ldr	r2, [r4, r2]
 1180 00e4 02E09CE7 		ldr	lr, [ip, r2]
 1181 00e8 02C08CE0 		add	ip, ip, r2
 1182 00ec 0E0056E1 		cmp	r6, lr
 1183 00f0 4000002A 		bcs	.L263
 1184 00f4 04C08CE2 		add	ip, ip, #4
 1185 00f8 06E19CE7 		ldr	lr, [ip, r6, lsl #2]
 1186 00fc 0AC08CE0 		add	ip, ip, r10
 1187 0100 0E209CE7 		ldr	r2, [ip, lr]
 1188 0104 0EC08CE0 		add	ip, ip, lr
 1189 0108 02204CE0 		sub	r2, ip, r2
 1190 010c B0E0D2E1 		ldrh	lr, [r2]
 1191 0110 04005EE3 		cmp	lr, #4
 1192 0114 260000DA 		ble	.L264
 1193 0118 B4E0D2E1 		ldrh	lr, [r2, #4]
 1194 011c 00005EE3 		cmp	lr, #0
 1195 0120 0E208CE0 		add	r2, ip, lr
 1196 0124 2200000A 		beq	.L264
 1197 0128 0EC09CE7 		ldr	ip, [ip, lr]
 1198 012c 0CE092E7 		ldr	lr, [r2, ip]
 1199 0130 0CC082E0 		add	ip, r2, ip
 1200 0134 0E0055E1 		cmp	r5, lr
 1201 0138 3700002A 		bcs	.L286
 1202 013c 04C08CE2 		add	ip, ip, #4
 1203 0140 0C0051E3 		cmp	r1, #12
 1204 0144 05219CE7 		ldr	r2, [ip, r5, lsl #2]
 1205 0148 05C18CE0 		add	ip, ip, r5, lsl #2
 1206 014c 0030A0D3 		movle	r3, #0
 1207 0150 02208CE0 		add	r2, ip, r2
 1208 0154 050000DA 		ble	.L266
 1209 0158 BC10D3E1 		ldrh	r1, [r3, #12]
 1210 015c 000051E3 		cmp	r1, #0
 1211 0160 013084E0 		add	r3, r4, r1
 1212 0164 01109417 		ldrne	r1, [r4, r1]
 1213 0168 0130A001 		moveq	r3, r1
 1214 016c 01308310 		addne	r3, r3, r1
 1215              	.L266:
 1216 0170 0CC098E5 		ldr	ip, [r8, #12]
 1217 0174 0010A0E3 		mov	r1, #0
 1218 0178 04908DE5 		str	r9, [sp, #4]
 1219 017c 00C08DE5 		str	ip, [sp]
 1220 0180 FEFFFFEB 		bl	_ZN6tflite8internal36InitializeTfLiteTensorFromFlatbufferEPNS_21SimpleMemoryAllocatorEbRKNS_6Te
 1221              	.L267:
 1222 0184 000050E3 		cmp	r0, #0
 1223 0188 1800001A 		bne	.L271
 1224 018c 000057E3 		cmp	r7, #0
 1225 0190 0400000A 		beq	.L255
 1226 0194 866187E0 		add	r6, r7, r6, lsl #3
 1227 0198 855085E0 		add	r5, r5, r5, lsl #1
 1228 019c 043096E5 		ldr	r3, [r6, #4]
 1229 01a0 053193E7 		ldr	r3, [r3, r5, lsl #2]
 1230 01a4 043089E5 		str	r3, [r9, #4]
 1231              	.L255:
 1232 01a8 0900A0E1 		mov	r0, r9
 1233 01ac 0CD08DE2 		add	sp, sp, #12
 1234              		@ sp needed
 1235 01b0 F08FBDE8 		pop	{r4, r5, r6, r7, r8, r9, r10, fp, pc}
 1236              	.L264:
 1237 01b4 0030A0E3 		mov	r3, #0
 1238 01b8 003093E5 		ldr	r3, [r3]
 1239 01bc F000F0E7 		.inst	0xe7f000f0
 1240              	.L261:
 1241 01c0 0030A0E3 		mov	r3, #0
 1242 01c4 00608DE5 		str	r6, [sp]
 1243 01c8 04308DE5 		str	r3, [sp, #4]
 1244 01cc 0410A0E1 		mov	r1, r4
 1245 01d0 0800A0E1 		mov	r0, r8
 1246 01d4 0530A0E1 		mov	r3, r5
 1247 01d8 0920A0E1 		mov	r2, r9
 1248 01dc 3BFF2FE1 		blx	fp
 1249 01e0 E7FFFFEA 		b	.L267
 1250              	.L259:
 1251 01e4 32FF2FE1 		blx	r2
 1252 01e8 0090A0E1 		mov	r9, r0
 1253 01ec ABFFFFEA 		b	.L260
 1254              	.L271:
 1255 01f0 0090A0E3 		mov	r9, #0
 1256 01f4 EBFFFFEA 		b	.L255
 1257              	.L263:
 1258 01f8 003000E3 		movw	r3, #:lower16:.LC0
 1259 01fc 002000E3 		movw	r2, #:lower16:.LANCHOR4
 1260 0200 000000E3 		movw	r0, #:lower16:.LC1
 1261 0204 003040E3 		movt	r3, #:upper16:.LC0
 1262 0208 002040E3 		movt	r2, #:upper16:.LANCHOR4
 1263 020c 000040E3 		movt	r0, #:upper16:.LC1
 1264 0210 061100E3 		movw	r1, #262
 1265 0214 FEFFFFEB 		bl	__assert_func
 1266              	.L285:
 1267 0218 FEFFFFEB 		bl	abort
 1268              	.L286:
 1269 021c 003000E3 		movw	r3, #:lower16:.LC0
 1270 0220 002000E3 		movw	r2, #:lower16:.LANCHOR0
 1271 0224 000000E3 		movw	r0, #:lower16:.LC1
 1272 0228 003040E3 		movt	r3, #:upper16:.LC0
 1273 022c 002040E3 		movt	r2, #:upper16:.LANCHOR0
 1274 0230 000040E3 		movt	r0, #:upper16:.LC1
 1275 0234 061100E3 		movw	r1, #262
 1276 0238 FEFFFFEB 		bl	__assert_func
 1277              		.fnend
 1279              		.section	.text._ZN6tflite14MicroAllocator24AllocateTempTfLiteTensorEPKNS_5ModelEPKNS_19SubgraphAll
 1280              		.align	2
 1281              		.global	_ZN6tflite14MicroAllocator24AllocateTempTfLiteTensorEPKNS_5ModelEPKNS_19SubgraphAllocation
 1282              		.syntax unified
 1283              		.arm
 1284              		.fpu neon
 1286              	_ZN6tflite14MicroAllocator24AllocateTempTfLiteTensorEPKNS_5ModelEPKNS_19SubgraphAllocationsEii:
 1287              		.fnstart
 1288              	.LFB6564:
 1289              		@ args = 4, pretend = 0, frame = 0
 1290              		@ frame_needed = 0, uses_anonymous_args = 0
 1291 0000 00C091E5 		ldr	ip, [r1]
 1292 0004 F04F2DE9 		push	{r4, r5, r6, r7, r8, r9, r10, fp, lr}
 1293              		.save {r4, r5, r6, r7, r8, r9, r10, fp, lr}
 1294              		.pad #12
 1295 0008 0CD04DE2 		sub	sp, sp, #12
 1296 000c 30609DE5 		ldr	r6, [sp, #48]
 1297 0010 0CC041E0 		sub	ip, r1, ip
 1298 0014 B0E0DCE1 		ldrh	lr, [ip]
 1299 0018 08005EE3 		cmp	lr, #8
 1300 001c 5E0000DA 		ble	.L294
 1301 0020 B8E0DCE1 		ldrh	lr, [ip, #8]
 1302 0024 00005EE3 		cmp	lr, #0
 1303 0028 0EC081E0 		add	ip, r1, lr
 1304 002c 5A00000A 		beq	.L294
 1305 0030 0140A0E1 		mov	r4, r1
 1306 0034 0E1091E7 		ldr	r1, [r1, lr]
 1307 0038 0350A0E1 		mov	r5, r3
 1308 003c 0270A0E1 		mov	r7, r2
 1309 0040 0080A0E1 		mov	r8, r0
 1310 0044 01309CE7 		ldr	r3, [ip, r1]
 1311 0048 01108CE0 		add	r1, ip, r1
 1312 004c 030056E1 		cmp	r6, r3
 1313 0050 5F00002A 		bcs	.L293
 1314 0054 041081E2 		add	r1, r1, #4
 1315 0058 06A1A0E1 		lsl	r10, r6, #2
 1316 005c 063191E7 		ldr	r3, [r1, r6, lsl #2]
 1317 0060 0A1081E0 		add	r1, r1, r10
 1318 0064 030071E1 		cmn	r1, r3
 1319 0068 6100000A 		beq	.L315
 1320 006c 040090E5 		ldr	r0, [r0, #4]
 1321 0070 0420A0E3 		mov	r2, #4
 1322 0074 4010A0E3 		mov	r1, #64
 1323 0078 003090E5 		ldr	r3, [r0]
 1324 007c 103093E5 		ldr	r3, [r3, #16]
 1325 0080 33FF2FE1 		blx	r3
 1326 0084 002098E5 		ldr	r2, [r8]
 1327 0088 003000E3 		movw	r3, #:lower16:_ZN6tflite14MicroAllocator34PopulateTfLiteTensorFromFlatbufferEPKNS_5ModelEP12T
 1328 008c 003040E3 		movt	r3, #:upper16:_ZN6tflite14MicroAllocator34PopulateTfLiteTensorFromFlatbufferEPKNS_5ModelEP12T
 1329 0090 0090A0E1 		mov	r9, r0
 1330 0094 28B092E5 		ldr	fp, [r2, #40]
 1331 0098 03005BE1 		cmp	fp, r3
 1332 009c 4100001A 		bne	.L291
 1333 00a0 003094E5 		ldr	r3, [r4]
 1334 00a4 040098E5 		ldr	r0, [r8, #4]
 1335 00a8 033044E0 		sub	r3, r4, r3
 1336 00ac B010D3E1 		ldrh	r1, [r3]
 1337 00b0 080051E3 		cmp	r1, #8
 1338 00b4 380000DA 		ble	.L294
 1339 00b8 B820D3E1 		ldrh	r2, [r3, #8]
 1340 00bc 000052E3 		cmp	r2, #0
 1341 00c0 02C084E0 		add	ip, r4, r2
 1342 00c4 3400000A 		beq	.L294
 1343 00c8 022094E7 		ldr	r2, [r4, r2]
 1344 00cc 02E09CE7 		ldr	lr, [ip, r2]
 1345 00d0 02C08CE0 		add	ip, ip, r2
 1346 00d4 0E0056E1 		cmp	r6, lr
 1347 00d8 3D00002A 		bcs	.L293
 1348 00dc 04C08CE2 		add	ip, ip, #4
 1349 00e0 06E19CE7 		ldr	lr, [ip, r6, lsl #2]
 1350 00e4 0AC08CE0 		add	ip, ip, r10
 1351 00e8 0E209CE7 		ldr	r2, [ip, lr]
 1352 00ec 0EC08CE0 		add	ip, ip, lr
 1353 00f0 02204CE0 		sub	r2, ip, r2
 1354 00f4 B0E0D2E1 		ldrh	lr, [r2]
 1355 00f8 04005EE3 		cmp	lr, #4
 1356 00fc 260000DA 		ble	.L294
 1357 0100 B4E0D2E1 		ldrh	lr, [r2, #4]
 1358 0104 00005EE3 		cmp	lr, #0
 1359 0108 0E208CE0 		add	r2, ip, lr
 1360 010c 2200000A 		beq	.L294
 1361 0110 0EC09CE7 		ldr	ip, [ip, lr]
 1362 0114 0CE092E7 		ldr	lr, [r2, ip]
 1363 0118 0CC082E0 		add	ip, r2, ip
 1364 011c 0E0055E1 		cmp	r5, lr
 1365 0120 3400002A 		bcs	.L316
 1366 0124 04C08CE2 		add	ip, ip, #4
 1367 0128 0C0051E3 		cmp	r1, #12
 1368 012c 05219CE7 		ldr	r2, [ip, r5, lsl #2]
 1369 0130 05C18CE0 		add	ip, ip, r5, lsl #2
 1370 0134 0030A0D3 		movle	r3, #0
 1371 0138 02208CE0 		add	r2, ip, r2
 1372 013c 050000DA 		ble	.L296
 1373 0140 BC10D3E1 		ldrh	r1, [r3, #12]
 1374 0144 000051E3 		cmp	r1, #0
 1375 0148 013084E0 		add	r3, r4, r1
 1376 014c 01109417 		ldrne	r1, [r4, r1]
 1377 0150 0130A001 		moveq	r3, r1
 1378 0154 01308310 		addne	r3, r3, r1
 1379              	.L296:
 1380 0158 0CC098E5 		ldr	ip, [r8, #12]
 1381 015c 0110A0E3 		mov	r1, #1
 1382 0160 04908DE5 		str	r9, [sp, #4]
 1383 0164 00C08DE5 		str	ip, [sp]
 1384 0168 FEFFFFEB 		bl	_ZN6tflite8internal36InitializeTfLiteTensorFromFlatbufferEPNS_21SimpleMemoryAllocatorEbRKNS_6Te
 1385              	.L297:
 1386 016c 000050E3 		cmp	r0, #0
 1387 0170 1500001A 		bne	.L301
 1388 0174 000057E3 		cmp	r7, #0
 1389 0178 0400000A 		beq	.L287
 1390 017c 866187E0 		add	r6, r7, r6, lsl #3
 1391 0180 855085E0 		add	r5, r5, r5, lsl #1
 1392 0184 043096E5 		ldr	r3, [r6, #4]
 1393 0188 053193E7 		ldr	r3, [r3, r5, lsl #2]
 1394 018c 043089E5 		str	r3, [r9, #4]
 1395              	.L287:
 1396 0190 0900A0E1 		mov	r0, r9
 1397 0194 0CD08DE2 		add	sp, sp, #12
 1398              		@ sp needed
 1399 0198 F08FBDE8 		pop	{r4, r5, r6, r7, r8, r9, r10, fp, pc}
 1400              	.L294:
 1401 019c 0030A0E3 		mov	r3, #0
 1402 01a0 003093E5 		ldr	r3, [r3]
 1403 01a4 F000F0E7 		.inst	0xe7f000f0
 1404              	.L291:
 1405 01a8 0130A0E3 		mov	r3, #1
 1406 01ac 00608DE5 		str	r6, [sp]
 1407 01b0 04308DE5 		str	r3, [sp, #4]
 1408 01b4 0410A0E1 		mov	r1, r4
 1409 01b8 0800A0E1 		mov	r0, r8
 1410 01bc 0530A0E1 		mov	r3, r5
 1411 01c0 0920A0E1 		mov	r2, r9
 1412 01c4 3BFF2FE1 		blx	fp
 1413 01c8 E7FFFFEA 		b	.L297
 1414              	.L301:
 1415 01cc 0090A0E3 		mov	r9, #0
 1416 01d0 EEFFFFEA 		b	.L287
 1417              	.L293:
 1418 01d4 003000E3 		movw	r3, #:lower16:.LC0
 1419 01d8 002000E3 		movw	r2, #:lower16:.LANCHOR4
 1420 01dc 000000E3 		movw	r0, #:lower16:.LC1
 1421 01e0 003040E3 		movt	r3, #:upper16:.LC0
 1422 01e4 002040E3 		movt	r2, #:upper16:.LANCHOR4
 1423 01e8 000040E3 		movt	r0, #:upper16:.LC1
 1424 01ec 061100E3 		movw	r1, #262
 1425 01f0 FEFFFFEB 		bl	__assert_func
 1426              	.L315:
 1427 01f4 FEFFFFEB 		bl	abort
 1428              	.L316:
 1429 01f8 003000E3 		movw	r3, #:lower16:.LC0
 1430 01fc 002000E3 		movw	r2, #:lower16:.LANCHOR0
 1431 0200 000000E3 		movw	r0, #:lower16:.LC1
 1432 0204 003040E3 		movt	r3, #:upper16:.LC0
 1433 0208 002040E3 		movt	r2, #:upper16:.LANCHOR0
 1434 020c 000040E3 		movt	r0, #:upper16:.LC1
 1435 0210 061100E3 		movw	r1, #262
 1436 0214 FEFFFFEB 		bl	__assert_func
 1437              		.fnend
 1439              		.section	.text._ZN6tflite8internal40InitializeTfLiteEvalTensorFromFlatbufferEPNS_21SimpleMemoryAll
 1440              		.align	2
 1441              		.global	_ZN6tflite8internal40InitializeTfLiteEvalTensorFromFlatbufferEPNS_21SimpleMemoryAllocatorE
 1442              		.syntax unified
 1443              		.arm
 1444              		.fpu neon
 1446              	_ZN6tflite8internal40InitializeTfLiteEvalTensorFromFlatbufferEPNS_21SimpleMemoryAllocatorERKNS_6Ten
 1447              		.fnstart
 1448              	.LFB6546:
 1449              		@ args = 4, pretend = 0, frame = 0
 1450              		@ frame_needed = 0, uses_anonymous_args = 0
 1451 0000 F0412DE9 		push	{r4, r5, r6, r7, r8, lr}
 1452              		.save {r4, r5, r6, r7, r8, lr}
 1453 0004 0150A0E1 		mov	r5, r1
 1454 0008 001091E5 		ldr	r1, [r1]
 1455 000c 0370A0E1 		mov	r7, r3
 1456 0010 0260A0E1 		mov	r6, r2
 1457 0014 0000A0E3 		mov	r0, #0
 1458 0018 18409DE5 		ldr	r4, [sp, #24]
 1459 001c 013045E0 		sub	r3, r5, r1
 1460 0020 B020D3E1 		ldrh	r2, [r3]
 1461 0024 000084E5 		str	r0, [r4]
 1462 0028 040084E5 		str	r0, [r4, #4]
 1463 002c 060052E3 		cmp	r2, #6
 1464 0030 080084E5 		str	r0, [r4, #8]
 1465 0034 020000DA 		ble	.L318
 1466 0038 B600D3E1 		ldrh	r0, [r3, #6]
 1467 003c 000050E3 		cmp	r0, #0
 1468 0040 0000D517 		ldrbne	r0, [r5, r0]	@ zero_extendqisi2
 1469              	.L318:
 1470 0044 0720A0E1 		mov	r2, r7
 1471 0048 081084E2 		add	r1, r4, #8
 1472 004c FEFFFFEB 		bl	_ZN6tflite17ConvertTensorTypeENS_10TensorTypeEP10TfLiteTypePNS_13ErrorReporterE
 1473 0050 000050E3 		cmp	r0, #0
 1474 0054 F081BD18 		popne	{r4, r5, r6, r7, r8, pc}
 1475 0058 002095E5 		ldr	r2, [r5]
 1476 005c 022045E0 		sub	r2, r5, r2
 1477 0060 B010D2E1 		ldrh	r1, [r2]
 1478 0064 080051E3 		cmp	r1, #8
 1479 0068 270000CA 		bgt	.L340
 1480              	.L320:
 1481 006c 003096E5 		ldr	r3, [r6]
 1482 0070 030050E1 		cmp	r0, r3
 1483 0074 2F00002A 		bcs	.L341
 1484 0078 046086E2 		add	r6, r6, #4
 1485 007c 00C196E7 		ldr	ip, [r6, r0, lsl #2]
 1486 0080 000186E0 		add	r0, r6, r0, lsl #2
 1487 0084 0C3090E0 		adds	r3, r0, ip
 1488 0088 1000000A 		beq	.L322
 1489 008c 0C0090E7 		ldr	r0, [r0, ip]
 1490 0090 000043E0 		sub	r0, r3, r0
 1491 0094 B0C0D0E1 		ldrh	ip, [r0]
 1492 0098 04005CE3 		cmp	ip, #4
 1493 009c 0030A0D3 		movle	r3, #0
 1494 00a0 0A0000DA 		ble	.L322
 1495 00a4 B400D0E1 		ldrh	r0, [r0, #4]
 1496 00a8 000050E3 		cmp	r0, #0
 1497 00ac 00C083E0 		add	ip, r3, r0
 1498 00b0 1E00000A 		beq	.L335
 1499 00b4 000093E7 		ldr	r0, [r3, r0]
 1500 00b8 00309CE0 		adds	r3, ip, r0
 1501 00bc 0300000A 		beq	.L322
 1502 00c0 00009CE7 		ldr	r0, [ip, r0]
 1503 00c4 000050E3 		cmp	r0, #0
 1504 00c8 1800000A 		beq	.L335
 1505 00cc 043083E2 		add	r3, r3, #4
 1506              	.L322:
 1507 00d0 040051E3 		cmp	r1, #4
 1508 00d4 003084E5 		str	r3, [r4]
 1509 00d8 0F0000DA 		ble	.L323
 1510 00dc B420D2E1 		ldrh	r2, [r2, #4]
 1511 00e0 000052E3 		cmp	r2, #0
 1512 00e4 023085E0 		add	r3, r5, r2
 1513 00e8 0B00000A 		beq	.L323
 1514 00ec 022095E7 		ldr	r2, [r5, r2]
 1515 00f0 023093E0 		adds	r3, r3, r2
 1516 00f4 0800000A 		beq	.L323
 1517 00f8 000057E3 		cmp	r7, #0
 1518 00fc 1500000A 		beq	.L342
 1519 0100 043084E5 		str	r3, [r4, #4]
 1520 0104 0000A0E3 		mov	r0, #0
 1521 0108 F081BDE8 		pop	{r4, r5, r6, r7, r8, pc}
 1522              	.L340:
 1523 010c B800D2E1 		ldrh	r0, [r2, #8]
 1524 0110 000050E3 		cmp	r0, #0
 1525 0114 00009517 		ldrne	r0, [r5, r0]
 1526 0118 D3FFFFEA 		b	.L320
 1527              	.L323:
 1528 011c 003000E3 		movw	r3, #:lower16:.LANCHOR2
 1529 0120 0000A0E3 		mov	r0, #0
 1530 0124 003040E3 		movt	r3, #:upper16:.LANCHOR2
 1531 0128 043084E5 		str	r3, [r4, #4]
 1532 012c F081BDE8 		pop	{r4, r5, r6, r7, r8, pc}
 1533              	.L335:
 1534 0130 0030A0E1 		mov	r3, r0
 1535 0134 E5FFFFEA 		b	.L322
 1536              	.L341:
 1537 0138 003000E3 		movw	r3, #:lower16:.LC0
 1538 013c 002000E3 		movw	r2, #:lower16:.LANCHOR1
 1539 0140 000000E3 		movw	r0, #:lower16:.LC1
 1540 0144 003040E3 		movt	r3, #:upper16:.LC0
 1541 0148 002040E3 		movt	r2, #:upper16:.LANCHOR1
 1542 014c 000040E3 		movt	r0, #:upper16:.LC1
 1543 0150 061100E3 		movw	r1, #262
 1544 0154 FEFFFFEB 		bl	__assert_func
 1545              	.L342:
 1546 0158 FEFFFFEB 		bl	abort
 1547              		.fnend
 1549              		.section	.text._ZN6tflite14MicroAllocatorC2EPNS_21SimpleMemoryAllocatorEPNS_13ErrorReporterE,"ax",
 1550              		.align	2
 1551              		.global	_ZN6tflite14MicroAllocatorC2EPNS_21SimpleMemoryAllocatorEPNS_13ErrorReporterE
 1552              		.syntax unified
 1553              		.arm
 1554              		.fpu neon
 1556              	_ZN6tflite14MicroAllocatorC2EPNS_21SimpleMemoryAllocatorEPNS_13ErrorReporterE:
 1557              		.fnstart
 1558              	.LFB6548:
 1559              		@ args = 0, pretend = 0, frame = 0
 1560              		@ frame_needed = 0, uses_anonymous_args = 0
 1561 0000 04E02DE5 		str	lr, [sp, #-4]!
 1562 0004 00C0A0E3 		mov	ip, #0
 1563 0008 18E09FE5 		ldr	lr, .L345
 1564 000c 041080E5 		str	r1, [r0, #4]
 1565 0010 0C2080E5 		str	r2, [r0, #12]
 1566 0014 00E080E5 		str	lr, [r0]
 1567 0018 10C0C0E5 		strb	ip, [r0, #16]
 1568 001c 14C080E5 		str	ip, [r0, #20]
 1569 0020 18C080E5 		str	ip, [r0, #24]
 1570 0024 04F09DE4 		ldr	pc, [sp], #4
 1571              	.L346:
 1572              		.align	2
 1573              	.L345:
 1574 0028 08000000 		.word	.LANCHOR5+8
 1575              		.cantunwind
 1576              		.fnend
 1578              		.global	_ZN6tflite14MicroAllocatorC1EPNS_21SimpleMemoryAllocatorEPNS_13ErrorReporterE
 1579              		.set	_ZN6tflite14MicroAllocatorC1EPNS_21SimpleMemoryAllocatorEPNS_13ErrorReporterE,_ZN6tflite14Mic
 1580              		.section	.text._ZN6tflite14MicroAllocator6CreateEPhjPNS_13ErrorReporterE,"ax",%progbits
 1581              		.align	2
 1582              		.global	_ZN6tflite14MicroAllocator6CreateEPhjPNS_13ErrorReporterE
 1583              		.syntax unified
 1584              		.arm
 1585              		.fpu neon
 1587              	_ZN6tflite14MicroAllocator6CreateEPhjPNS_13ErrorReporterE:
 1588              		.fnstart
 1589              	.LFB6554:
 1590              		@ args = 0, pretend = 0, frame = 0
 1591              		@ frame_needed = 0, uses_anonymous_args = 0
 1592 0000 70402DE9 		push	{r4, r5, r6, lr}
 1593              		.save {r4, r5, r6, lr}
 1594 0004 0160A0E1 		mov	r6, r1
 1595 0008 0040A0E1 		mov	r4, r0
 1596 000c 1010A0E3 		mov	r1, #16
 1597 0010 0250A0E1 		mov	r5, r2
 1598 0014 064084E0 		add	r4, r4, r6
 1599 0018 FEFFFFEB 		bl	_ZN6tflite14AlignPointerUpEPhj
 1600 001c 0020A0E1 		mov	r2, r0
 1601 0020 0500A0E1 		mov	r0, r5
 1602 0024 0210A0E1 		mov	r1, r2
 1603 0028 022044E0 		sub	r2, r4, r2
 1604 002c FEFFFFEB 		bl	_ZN6tflite21SimpleMemoryAllocator6CreateEPNS_13ErrorReporterEPhj
 1605 0030 004050E2 		subs	r4, r0, #0
 1606 0034 1100000A 		beq	.L349
 1607 0038 000055E3 		cmp	r5, #0
 1608 003c 0F00000A 		beq	.L349
 1609 0040 003094E5 		ldr	r3, [r4]
 1610 0044 0420A0E3 		mov	r2, #4
 1611 0048 1C10A0E3 		mov	r1, #28
 1612 004c 0C3093E5 		ldr	r3, [r3, #12]
 1613 0050 33FF2FE1 		blx	r3
 1614 0054 000050E3 		cmp	r0, #0
 1615 0058 7080BD08 		popeq	{r4, r5, r6, pc}
 1616 005c 20209FE5 		ldr	r2, .L358
 1617 0060 0030A0E3 		mov	r3, #0
 1618 0064 044080E5 		str	r4, [r0, #4]
 1619 0068 0C5080E5 		str	r5, [r0, #12]
 1620 006c 002080E5 		str	r2, [r0]
 1621 0070 1030C0E5 		strb	r3, [r0, #16]
 1622 0074 143080E5 		str	r3, [r0, #20]
 1623 0078 183080E5 		str	r3, [r0, #24]
 1624 007c 7080BDE8 		pop	{r4, r5, r6, pc}
 1625              	.L349:
 1626 0080 FEFFFFEB 		bl	abort
 1627              	.L359:
 1628              		.align	2
 1629              	.L358:
 1630 0084 08000000 		.word	.LANCHOR5+8
 1631              		.fnend
 1633              		.section	.text._ZN6tflite14MicroAllocator6CreateEPNS_21SimpleMemoryAllocatorEPNS_13ErrorReporterE,
 1634              		.align	2
 1635              		.global	_ZN6tflite14MicroAllocator6CreateEPNS_21SimpleMemoryAllocatorEPNS_13ErrorReporterE
 1636              		.syntax unified
 1637              		.arm
 1638              		.fpu neon
 1640              	_ZN6tflite14MicroAllocator6CreateEPNS_21SimpleMemoryAllocatorEPNS_13ErrorReporterE:
 1641              		.fnstart
 1642              	.LFB6555:
 1643              		@ args = 0, pretend = 0, frame = 0
 1644              		@ frame_needed = 0, uses_anonymous_args = 0
 1645 0000 70402DE9 		push	{r4, r5, r6, lr}
 1646              		.save {r4, r5, r6, lr}
 1647 0004 005050E2 		subs	r5, r0, #0
 1648 0008 1200000A 		beq	.L362
 1649 000c 000051E3 		cmp	r1, #0
 1650 0010 0140A0E1 		mov	r4, r1
 1651 0014 0F00000A 		beq	.L362
 1652 0018 003095E5 		ldr	r3, [r5]
 1653 001c 0420A0E3 		mov	r2, #4
 1654 0020 1C10A0E3 		mov	r1, #28
 1655 0024 0C3093E5 		ldr	r3, [r3, #12]
 1656 0028 33FF2FE1 		blx	r3
 1657 002c 000050E3 		cmp	r0, #0
 1658 0030 7080BD08 		popeq	{r4, r5, r6, pc}
 1659 0034 20209FE5 		ldr	r2, .L371
 1660 0038 0030A0E3 		mov	r3, #0
 1661 003c 045080E5 		str	r5, [r0, #4]
 1662 0040 0C4080E5 		str	r4, [r0, #12]
 1663 0044 002080E5 		str	r2, [r0]
 1664 0048 1030C0E5 		strb	r3, [r0, #16]
 1665 004c 143080E5 		str	r3, [r0, #20]
 1666 0050 183080E5 		str	r3, [r0, #24]
 1667 0054 7080BDE8 		pop	{r4, r5, r6, pc}
 1668              	.L362:
 1669 0058 FEFFFFEB 		bl	abort
 1670              	.L372:
 1671              		.align	2
 1672              	.L371:
 1673 005c 08000000 		.word	.LANCHOR5+8
 1674              		.fnend
 1676              		.section	.text._ZN6tflite14MicroAllocator20StartModelAllocationEPKNS_5ModelE,"ax",%progbits
 1677              		.align	2
 1678              		.global	_ZN6tflite14MicroAllocator20StartModelAllocationEPKNS_5ModelE
 1679              		.syntax unified
 1680              		.arm
 1681              		.fpu neon
 1683              	_ZN6tflite14MicroAllocator20StartModelAllocationEPKNS_5ModelE:
 1684              		.fnstart
 1685              	.LFB6556:
 1686              		@ args = 0, pretend = 0, frame = 0
 1687              		@ frame_needed = 0, uses_anonymous_args = 0
 1688 0000 70402DE9 		push	{r4, r5, r6, lr}
 1689              		.save {r4, r5, r6, lr}
 1690 0004 005051E2 		subs	r5, r1, #0
 1691 0008 4400000A 		beq	.L391
 1692 000c 1030D0E5 		ldrb	r3, [r0, #16]	@ zero_extendqisi2
 1693 0010 0040A0E1 		mov	r4, r0
 1694 0014 000053E3 		cmp	r3, #0
 1695 0018 1600001A 		bne	.L375
 1696 001c 040090E5 		ldr	r0, [r0, #4]
 1697 0020 0130A0E3 		mov	r3, #1
 1698 0024 1030C4E5 		strb	r3, [r4, #16]
 1699 0028 0420A0E3 		mov	r2, #4
 1700 002c 0810A0E3 		mov	r1, #8
 1701 0030 003090E5 		ldr	r3, [r0]
 1702 0034 0C3093E5 		ldr	r3, [r3, #12]
 1703 0038 33FF2FE1 		blx	r3
 1704 003c 003050E2 		subs	r3, r0, #0
 1705 0040 040094E5 		ldr	r0, [r4, #4]
 1706 0044 D8209F15 		ldrne	r2, .L393
 1707 0048 001090E5 		ldr	r1, [r0]
 1708 004c 00208315 		strne	r2, [r3]
 1709 0050 0020A0E3 		mov	r2, #0
 1710 0054 04008315 		strne	r0, [r3, #4]
 1711 0058 083084E5 		str	r3, [r4, #8]
 1712 005c 142084E5 		str	r2, [r4, #20]
 1713 0060 0420A0E3 		mov	r2, #4
 1714 0064 083091E5 		ldr	r3, [r1, #8]
 1715 0068 6010A0E3 		mov	r1, #96
 1716 006c 33FF2FE1 		blx	r3
 1717 0070 000050E3 		cmp	r0, #0
 1718 0074 0200000A 		beq	.L392
 1719              	.L375:
 1720 0078 0060A0E3 		mov	r6, #0
 1721              	.L373:
 1722 007c 0600A0E1 		mov	r0, r6
 1723 0080 7080BDE8 		pop	{r4, r5, r6, pc}
 1724              	.L392:
 1725 0084 003095E5 		ldr	r3, [r5]
 1726 0088 040094E5 		ldr	r0, [r4, #4]
 1727 008c 033045E0 		sub	r3, r5, r3
 1728 0090 B010D3E1 		ldrh	r1, [r3]
 1729 0094 002090E5 		ldr	r2, [r0]
 1730 0098 080051E3 		cmp	r1, #8
 1731 009c 0C6092E5 		ldr	r6, [r2, #12]
 1732 00a0 1B0000DA 		ble	.L379
 1733 00a4 B830D3E1 		ldrh	r3, [r3, #8]
 1734 00a8 000053E3 		cmp	r3, #0
 1735 00ac 031085E0 		add	r1, r5, r3
 1736 00b0 1700000A 		beq	.L379
 1737 00b4 033095E7 		ldr	r3, [r5, r3]
 1738 00b8 0420A0E3 		mov	r2, #4
 1739 00bc 031091E7 		ldr	r1, [r1, r3]
 1740 00c0 8111A0E1 		lsl	r1, r1, #3
 1741 00c4 36FF2FE1 		blx	r6
 1742 00c8 006050E2 		subs	r6, r0, #0
 1743 00cc E9FFFF0A 		beq	.L375
 1744 00d0 003094E5 		ldr	r3, [r4]
 1745 00d4 0620A0E1 		mov	r2, r6
 1746 00d8 0510A0E1 		mov	r1, r5
 1747 00dc 0400A0E1 		mov	r0, r4
 1748 00e0 1C3093E5 		ldr	r3, [r3, #28]
 1749 00e4 33FF2FE1 		blx	r3
 1750 00e8 000050E3 		cmp	r0, #0
 1751 00ec E1FFFF1A 		bne	.L375
 1752 00f0 003094E5 		ldr	r3, [r4]
 1753 00f4 0510A0E1 		mov	r1, r5
 1754 00f8 0400A0E1 		mov	r0, r4
 1755 00fc 0620A0E1 		mov	r2, r6
 1756 0100 183093E5 		ldr	r3, [r3, #24]
 1757 0104 33FF2FE1 		blx	r3
 1758 0108 000050E3 		cmp	r0, #0
 1759 010c D9FFFF1A 		bne	.L375
 1760 0110 D9FFFFEA 		b	.L373
 1761              	.L379:
 1762 0114 0030A0E3 		mov	r3, #0
 1763 0118 003093E5 		ldr	r3, [r3]
 1764 011c F000F0E7 		.inst	0xe7f000f0
 1765              	.L391:
 1766 0120 FEFFFFEB 		bl	abort
 1767              	.L394:
 1768              		.align	2
 1769              	.L393:
 1770 0124 08000000 		.word	.LANCHOR6+8
 1771              		.fnend
 1773              		.section	.text._ZN6tflite14MicroAllocator21FinishModelAllocationEPKNS_5ModelEPNS_19SubgraphAllocat
 1774              		.align	2
 1775              		.global	_ZN6tflite14MicroAllocator21FinishModelAllocationEPKNS_5ModelEPNS_19SubgraphAllocationsEPP
 1776              		.syntax unified
 1777              		.arm
 1778              		.fpu neon
 1780              	_ZN6tflite14MicroAllocator21FinishModelAllocationEPKNS_5ModelEPNS_19SubgraphAllocationsEPPNS_19Scra
 1781              		.fnstart
 1782              	.LFB6557:
 1783              		@ args = 0, pretend = 0, frame = 0
 1784              		@ frame_needed = 0, uses_anonymous_args = 0
 1785 0000 10C0D0E5 		ldrb	ip, [r0, #16]	@ zero_extendqisi2
 1786 0004 00005CE3 		cmp	ip, #0
 1787 0008 5100000A 		beq	.L405
 1788 000c F04F2DE9 		push	{r4, r5, r6, r7, r8, r9, r10, fp, lr}
 1789              		.save {r4, r5, r6, r7, r8, r9, r10, fp, lr}
 1790 0010 009000E3 		movw	r9, #:lower16:_ZN6tflite14MicroAllocator28AllocateScratchBufferHandlesEPPNS_19ScratchBufferHa
 1791              		.pad #12
 1792 0014 0CD04DE2 		sub	sp, sp, #12
 1793 0018 0380A0E1 		mov	r8, r3
 1794 001c 0170A0E1 		mov	r7, r1
 1795 0020 0040A0E1 		mov	r4, r0
 1796 0024 146082E2 		add	r6, r2, #20
 1797 0028 009040E3 		movt	r9, #:upper16:_ZN6tflite14MicroAllocator28AllocateScratchBufferHandlesEPPNS_19ScratchBufferHa
 1798 002c 0050A0E3 		mov	r5, #0
 1799 0030 2A0000EA 		b	.L404
 1800              	.L421:
 1801 0034 B830D3E1 		ldrh	r3, [r3, #8]
 1802 0038 000053E3 		cmp	r3, #0
 1803 003c 032087E0 		add	r2, r7, r3
 1804 0040 2B00000A 		beq	.L397
 1805 0044 033097E7 		ldr	r3, [r7, r3]
 1806 0048 031092E7 		ldr	r1, [r2, r3]
 1807 004c 032082E0 		add	r2, r2, r3
 1808 0050 010055E1 		cmp	r5, r1
 1809 0054 3A00002A 		bcs	.L398
 1810 0058 042082E2 		add	r2, r2, #4
 1811 005c 05A192E7 		ldr	r10, [r2, r5, lsl #2]
 1812 0060 052182E0 		add	r2, r2, r5, lsl #2
 1813 0064 0AA092E0 		adds	r10, r2, r10
 1814 0068 3B00000A 		beq	.L401
 1815 006c 00C094E5 		ldr	ip, [r4]
 1816 0070 142094E5 		ldr	r2, [r4, #20]
 1817 0074 30309CE5 		ldr	r3, [ip, #48]
 1818 0078 090053E1 		cmp	r3, r9
 1819 007c 2900001A 		bne	.L400
 1820 0080 000058E3 		cmp	r8, #0
 1821 0084 3400000A 		beq	.L401
 1822 0088 000052E3 		cmp	r2, #0
 1823 008c 1B00001A 		bne	.L420
 1824              	.L419:
 1825 0090 003098E5 		ldr	r3, [r8]
 1826              	.L403:
 1827 0094 102016E5 		ldr	r2, [r6, #-16]
 1828 0098 0710A0E1 		mov	r1, r7
 1829 009c 00508DE5 		str	r5, [sp]
 1830 00a0 0400A0E1 		mov	r0, r4
 1831 00a4 2CB09CE5 		ldr	fp, [ip, #44]
 1832 00a8 00F0D6F5 		pld	[r6]
 1833 00ac 3BFF2FE1 		blx	fp
 1834 00b0 000050E3 		cmp	r0, #0
 1835 00b4 2400001A 		bne	.L408
 1836 00b8 003094E5 		ldr	r3, [r4]
 1837 00bc 0A10A0E1 		mov	r1, r10
 1838 00c0 102016E5 		ldr	r2, [r6, #-16]
 1839 00c4 0400A0E1 		mov	r0, r4
 1840 00c8 086086E2 		add	r6, r6, #8
 1841 00cc 203093E5 		ldr	r3, [r3, #32]
 1842 00d0 33FF2FE1 		blx	r3
 1843 00d4 000050E3 		cmp	r0, #0
 1844 00d8 1B00001A 		bne	.L408
 1845 00dc 015085E2 		add	r5, r5, #1
 1846              	.L404:
 1847 00e0 003097E5 		ldr	r3, [r7]
 1848 00e4 033047E0 		sub	r3, r7, r3
 1849 00e8 B020D3E1 		ldrh	r2, [r3]
 1850 00ec 080052E3 		cmp	r2, #8
 1851 00f0 CFFFFFCA 		bgt	.L421
 1852              	.L397:
 1853 00f4 0030A0E3 		mov	r3, #0
 1854 00f8 003093E5 		ldr	r3, [r3]
 1855 00fc F000F0E7 		.inst	0xe7f000f0
 1856              	.L420:
 1857 0100 040094E5 		ldr	r0, [r4, #4]
 1858 0104 0211A0E1 		lsl	r1, r2, #2
 1859 0108 0420A0E3 		mov	r2, #4
 1860 010c 003090E5 		ldr	r3, [r0]
 1861 0110 0C3093E5 		ldr	r3, [r3, #12]
 1862 0114 33FF2FE1 		blx	r3
 1863 0118 00C094E5 		ldr	ip, [r4]
 1864 011c 0030A0E1 		mov	r3, r0
 1865 0120 000088E5 		str	r0, [r8]
 1866 0124 DAFFFFEA 		b	.L403
 1867              	.L400:
 1868 0128 0810A0E1 		mov	r1, r8
 1869 012c 0400A0E1 		mov	r0, r4
 1870 0130 33FF2FE1 		blx	r3
 1871 0134 000050E3 		cmp	r0, #0
 1872 0138 0300001A 		bne	.L408
 1873 013c 00C094E5 		ldr	ip, [r4]
 1874 0140 D2FFFFEA 		b	.L419
 1875              	.L398:
 1876 0144 0000A0E3 		mov	r0, #0
 1877 0148 1000C4E5 		strb	r0, [r4, #16]
 1878              	.L408:
 1879 014c 0CD08DE2 		add	sp, sp, #12
 1880              		@ sp needed
 1881 0150 F08FBDE8 		pop	{r4, r5, r6, r7, r8, r9, r10, fp, pc}
 1882              	.L405:
 1883 0154 0100A0E3 		mov	r0, #1
 1884 0158 1EFF2FE1 		bx	lr
 1885              	.L401:
 1886 015c FEFFFFEB 		bl	abort
 1887              		.fnend
 1889              		.section	.text._ZN6tflite14MicroAllocator27RequestScratchBufferInArenaEjiPi,"ax",%progbits
 1890              		.align	2
 1891              		.global	_ZN6tflite14MicroAllocator27RequestScratchBufferInArenaEjiPi
 1892              		.syntax unified
 1893              		.arm
 1894              		.fpu neon
 1896              	_ZN6tflite14MicroAllocator27RequestScratchBufferInArenaEjiPi:
 1897              		.fnstart
 1898              	.LFB6559:
 1899              		@ args = 0, pretend = 0, frame = 0
 1900              		@ frame_needed = 0, uses_anonymous_args = 0
 1901 0000 F0472DE9 		push	{r4, r5, r6, r7, r8, r9, r10, lr}
 1902              		.save {r4, r5, r6, r7, r8, r9, r10, lr}
 1903 0004 0040A0E1 		mov	r4, r0
 1904 0008 040090E5 		ldr	r0, [r0, #4]
 1905 000c 0150A0E1 		mov	r5, r1
 1906 0010 0360A0E1 		mov	r6, r3
 1907 0014 FEFFFFEB 		bl	_ZNK6tflite21SimpleMemoryAllocator13GetHeadBufferEv
 1908 0018 0410A0E3 		mov	r1, #4
 1909 001c FEFFFFEB 		bl	_ZN6tflite14AlignPointerUpEPhj
 1910 0020 141094E5 		ldr	r1, [r4, #20]
 1911 0024 000051E3 		cmp	r1, #0
 1912 0028 9300000A 		beq	.L435
 1913 002c 04C080E2 		add	ip, r0, #4
 1914 0030 060051E3 		cmp	r1, #6
 1915 0034 5C30E3E7 		ubfx	r3, ip, #0, #4
 1916 0038 0070A093 		movls	r7, #0
 1917 003c 0170A083 		movhi	r7, #1
 1918 0040 000053E3 		cmp	r3, #0
 1919 0044 0070A013 		movne	r7, #0
 1920 0048 000057E3 		cmp	r7, #0
 1921 004c 5F00000A 		beq	.L424
 1922 0050 052041E2 		sub	r2, r1, #5
 1923 0054 5000C0F2 		vmov.i32	q8, #0  @ v4si
 1924 0058 2221A0E1 		lsr	r2, r2, #2
 1925 005c 5F2EC7F3 		vmov.i32	q9, #4294967295  @ v4si
 1926 0060 00E0A0E3 		mov	lr, #0
 1927 0064 012082E2 		add	r2, r2, #1
 1928 0068 F08160F2 		vmov	q12, q8  @ v4si
 1929 006c 0231A0E1 		lsl	r3, r2, #2
 1930              	.L426:
 1931 0070 8F436CF4 		vld2.32	{d20-d23}, [ip]
 1932 0074 01E08EE2 		add	lr, lr, #1
 1933 0078 0E0052E1 		cmp	r2, lr
 1934 007c 20C08CE2 		add	ip, ip, #32
 1935 0080 F24864F3 		vceq.i32	q10, q10, q9
 1936 0084 F84152F3 		vbsl	q10, q9, q12
 1937 0088 E40860F3 		vsub.i32	q8, q8, q10
 1938 008c F7FFFF8A 		bhi	.L426
 1939 0090 A10860F2 		vadd.i32	d16, d16, d17
 1940 0094 030051E1 		cmp	r1, r3
 1941 0098 B00B60F2 		vpadd.i32	d16, d16, d16
 1942 009c 902B10EE 		vmov.32	r2, d16[0]
 1943 00a0 3B00000A 		beq	.L432
 1944 00a4 83E180E0 		add	lr, r0, r3, lsl #3
 1945 00a8 01C083E2 		add	ip, r3, #1
 1946 00ac 04E09EE5 		ldr	lr, [lr, #4]
 1947 00b0 01007EE3 		cmn	lr, #1
 1948 00b4 00E0A013 		movne	lr, #0
 1949 00b8 01E0A003 		moveq	lr, #1
 1950 00bc 01005CE1 		cmp	ip, r1
 1951 00c0 0E2082E0 		add	r2, r2, lr
 1952 00c4 3200002A 		bcs	.L432
 1953 00c8 8CE180E0 		add	lr, r0, ip, lsl #3
 1954 00cc 02C083E2 		add	ip, r3, #2
 1955 00d0 04E09EE5 		ldr	lr, [lr, #4]
 1956 00d4 01007EE3 		cmn	lr, #1
 1957 00d8 00E0A013 		movne	lr, #0
 1958 00dc 01E0A003 		moveq	lr, #1
 1959 00e0 0C0051E1 		cmp	r1, ip
 1960 00e4 0E2082E0 		add	r2, r2, lr
 1961 00e8 2900009A 		bls	.L432
 1962 00ec 8CE180E0 		add	lr, r0, ip, lsl #3
 1963 00f0 03C083E2 		add	ip, r3, #3
 1964 00f4 04E09EE5 		ldr	lr, [lr, #4]
 1965 00f8 01007EE3 		cmn	lr, #1
 1966 00fc 00E0A013 		movne	lr, #0
 1967 0100 01E0A003 		moveq	lr, #1
 1968 0104 0C0051E1 		cmp	r1, ip
 1969 0108 0E2082E0 		add	r2, r2, lr
 1970 010c 2000009A 		bls	.L432
 1971 0110 8CE180E0 		add	lr, r0, ip, lsl #3
 1972 0114 04C083E2 		add	ip, r3, #4
 1973 0118 04E09EE5 		ldr	lr, [lr, #4]
 1974 011c 01007EE3 		cmn	lr, #1
 1975 0120 00E0A013 		movne	lr, #0
 1976 0124 01E0A003 		moveq	lr, #1
 1977 0128 0C0051E1 		cmp	r1, ip
 1978 012c 0E2082E0 		add	r2, r2, lr
 1979 0130 1700009A 		bls	.L432
 1980 0134 8CE180E0 		add	lr, r0, ip, lsl #3
 1981 0138 05C083E2 		add	ip, r3, #5
 1982 013c 04E09EE5 		ldr	lr, [lr, #4]
 1983 0140 01007EE3 		cmn	lr, #1
 1984 0144 00E0A013 		movne	lr, #0
 1985 0148 01E0A003 		moveq	lr, #1
 1986 014c 0C0051E1 		cmp	r1, ip
 1987 0150 0E2082E0 		add	r2, r2, lr
 1988 0154 0E00009A 		bls	.L432
 1989 0158 8CC180E0 		add	ip, r0, ip, lsl #3
 1990 015c 063083E2 		add	r3, r3, #6
 1991 0160 04C09CE5 		ldr	ip, [ip, #4]
 1992 0164 01007CE3 		cmn	ip, #1
 1993 0168 00C0A013 		movne	ip, #0
 1994 016c 01C0A003 		moveq	ip, #1
 1995 0170 030051E1 		cmp	r1, r3
 1996 0174 0C2082E0 		add	r2, r2, ip
 1997 0178 0500009A 		bls	.L432
 1998 017c 833180E0 		add	r3, r0, r3, lsl #3
 1999 0180 043093E5 		ldr	r3, [r3, #4]
 2000 0184 010073E3 		cmn	r3, #1
 2001 0188 0030A013 		movne	r3, #0
 2002 018c 0130A003 		moveq	r3, #1
 2003 0190 032082E0 		add	r2, r2, r3
 2004              	.L432:
 2005 0194 0B0052E3 		cmp	r2, #11
 2006 0198 8131A091 		lslls	r3, r1, #3
 2007 019c 0900008A 		bhi	.L443
 2008              	.L423:
 2009 01a0 032080E0 		add	r2, r0, r3
 2010 01a4 00C0E0E3 		mvn	ip, #0
 2011 01a8 035080E7 		str	r5, [r0, r3]
 2012 01ac 0000A0E3 		mov	r0, #0
 2013 01b0 04C082E5 		str	ip, [r2, #4]
 2014 01b4 001086E5 		str	r1, [r6]
 2015 01b8 143094E5 		ldr	r3, [r4, #20]
 2016 01bc 013083E2 		add	r3, r3, #1
 2017 01c0 143084E5 		str	r3, [r4, #20]
 2018 01c4 F087BDE8 		pop	{r4, r5, r6, r7, r8, r9, r10, pc}
 2019              	.L443:
 2020 01c8 0100A0E3 		mov	r0, #1
 2021 01cc F087BDE8 		pop	{r4, r5, r6, r7, r8, r9, r10, pc}
 2022              	.L424:
 2023 01d0 040051E3 		cmp	r1, #4
 2024 01d4 2A00009A 		bls	.L436
 2025 01d8 053041E2 		sub	r3, r1, #5
 2026 01dc 0720A0E1 		mov	r2, r7
 2027 01e0 0330C3E3 		bic	r3, r3, #3
 2028 01e4 CCE080E2 		add	lr, r0, #204
 2029 01e8 043083E2 		add	r3, r3, #4
 2030              	.L431:
 2031 01ec C8C01EE5 		ldr	ip, [lr, #-200]
 2032 01f0 047087E2 		add	r7, r7, #4
 2033 01f4 C0A01EE5 		ldr	r10, [lr, #-192]
 2034 01f8 B8901EE5 		ldr	r9, [lr, #-184]
 2035 01fc B0801EE5 		ldr	r8, [lr, #-176]
 2036 0200 01007CE3 		cmn	ip, #1
 2037 0204 00C0A013 		movne	ip, #0
 2038 0208 01C0A003 		moveq	ip, #1
 2039 020c 01007AE3 		cmn	r10, #1
 2040 0210 00F0DEF5 		pld	[lr]
 2041 0214 00A0A013 		movne	r10, #0
 2042 0218 01A0A003 		moveq	r10, #1
 2043 021c 010079E3 		cmn	r9, #1
 2044 0220 0AC08CE0 		add	ip, ip, r10
 2045 0224 0090A013 		movne	r9, #0
 2046 0228 0190A003 		moveq	r9, #1
 2047 022c 010078E3 		cmn	r8, #1
 2048 0230 09C08CE0 		add	ip, ip, r9
 2049 0234 0080A013 		movne	r8, #0
 2050 0238 0180A003 		moveq	r8, #1
 2051 023c 030057E1 		cmp	r7, r3
 2052 0240 08C08CE0 		add	ip, ip, r8
 2053 0244 0C2082E0 		add	r2, r2, ip
 2054 0248 20E08EE2 		add	lr, lr, #32
 2055 024c E6FFFF1A 		bne	.L431
 2056              	.L430:
 2057 0250 83E180E0 		add	lr, r0, r3, lsl #3
 2058              	.L433:
 2059 0254 04C09EE5 		ldr	ip, [lr, #4]
 2060 0258 013083E2 		add	r3, r3, #1
 2061 025c 08E08EE2 		add	lr, lr, #8
 2062 0260 01007CE3 		cmn	ip, #1
 2063 0264 00C0A013 		movne	ip, #0
 2064 0268 01C0A003 		moveq	ip, #1
 2065 026c 030051E1 		cmp	r1, r3
 2066 0270 0C2082E0 		add	r2, r2, ip
 2067 0274 F6FFFF8A 		bhi	.L433
 2068 0278 C5FFFFEA 		b	.L432
 2069              	.L435:
 2070 027c 0130A0E1 		mov	r3, r1
 2071 0280 C6FFFFEA 		b	.L423
 2072              	.L436:
 2073 0284 0730A0E1 		mov	r3, r7
 2074 0288 0720A0E1 		mov	r2, r7
 2075 028c EFFFFFEA 		b	.L430
 2076              		.fnend
 2078              		.section	.text._ZN6tflite14MicroAllocator28FinishPrepareNodeAllocationsEi,"ax",%progbits
 2079              		.align	2
 2080              		.global	_ZN6tflite14MicroAllocator28FinishPrepareNodeAllocationsEi
 2081              		.syntax unified
 2082              		.arm
 2083              		.fpu neon
 2085              	_ZN6tflite14MicroAllocator28FinishPrepareNodeAllocationsEi:
 2086              		.fnstart
 2087              	.LFB6560:
 2088              		@ args = 0, pretend = 0, frame = 0
 2089              		@ frame_needed = 0, uses_anonymous_args = 0
 2090 0000 002090E5 		ldr	r2, [r0]
 2091 0004 003000E3 		movw	r3, #:lower16:_ZN6tflite14MicroAllocator20ResetTempAllocationsEv
 2092 0008 003040E3 		movt	r3, #:upper16:_ZN6tflite14MicroAllocator20ResetTempAllocationsEv
 2093 000c 70402DE9 		push	{r4, r5, r6, lr}
 2094              		.save {r4, r5, r6, lr}
 2095 0010 0040A0E1 		mov	r4, r0
 2096 0014 0150A0E1 		mov	r5, r1
 2097 0018 082092E5 		ldr	r2, [r2, #8]
 2098 001c 030052E1 		cmp	r2, r3
 2099 0020 1900001A 		bne	.L445
 2100 0024 040090E5 		ldr	r0, [r0, #4]
 2101 0028 003090E5 		ldr	r3, [r0]
 2102 002c 143093E5 		ldr	r3, [r3, #20]
 2103 0030 33FF2FE1 		blx	r3
 2104              	.L446:
 2105 0034 040094E5 		ldr	r0, [r4, #4]
 2106 0038 FEFFFFEB 		bl	_ZNK6tflite21SimpleMemoryAllocator13GetHeadBufferEv
 2107 003c 0410A0E3 		mov	r1, #4
 2108 0040 FEFFFFEB 		bl	_ZN6tflite14AlignPointerUpEPhj
 2109 0044 141094E5 		ldr	r1, [r4, #20]
 2110 0048 000051E3 		cmp	r1, #0
 2111 004c 1000000A 		beq	.L450
 2112 0050 8111A0E1 		lsl	r1, r1, #3
 2113 0054 012080E0 		add	r2, r0, r1
 2114              	.L449:
 2115 0058 043090E5 		ldr	r3, [r0, #4]
 2116 005c 080080E2 		add	r0, r0, #8
 2117 0060 010073E3 		cmn	r3, #1
 2118 0064 04500005 		streq	r5, [r0, #-4]
 2119 0068 000052E1 		cmp	r2, r0
 2120 006c F9FFFF1A 		bne	.L449
 2121 0070 601081E2 		add	r1, r1, #96
 2122              	.L447:
 2123 0074 040094E5 		ldr	r0, [r4, #4]
 2124 0078 0420A0E3 		mov	r2, #4
 2125 007c 7040BDE8 		pop	{r4, r5, r6, lr}
 2126 0080 003090E5 		ldr	r3, [r0]
 2127 0084 083093E5 		ldr	r3, [r3, #8]
 2128 0088 13FF2FE1 		bx	r3
 2129              	.L445:
 2130 008c 32FF2FE1 		blx	r2
 2131 0090 E7FFFFEA 		b	.L446
 2132              	.L450:
 2133 0094 6010A0E3 		mov	r1, #96
 2134 0098 F5FFFFEA 		b	.L447
 2135              		.fnend
 2137              		.section	.text._ZNK6tflite14MicroAllocator10used_bytesEv,"ax",%progbits
 2138              		.align	2
 2139              		.global	_ZNK6tflite14MicroAllocator10used_bytesEv
 2140              		.syntax unified
 2141              		.arm
 2142              		.fpu neon
 2144              	_ZNK6tflite14MicroAllocator10used_bytesEv:
 2145              		.fnstart
 2146              	.LFB6561:
 2147              		@ args = 0, pretend = 0, frame = 0
 2148              		@ frame_needed = 0, uses_anonymous_args = 0
 2149              		@ link register save eliminated.
 2150 0000 040090E5 		ldr	r0, [r0, #4]
 2151 0004 FEFFFFEA 		b	_ZNK6tflite21SimpleMemoryAllocator12GetUsedBytesEv
 2152              		.cantunwind
 2153              		.fnend
 2155              		.section	.text._ZNK6tflite14MicroAllocator14error_reporterEv,"ax",%progbits
 2156              		.align	2
 2157              		.global	_ZNK6tflite14MicroAllocator14error_reporterEv
 2158              		.syntax unified
 2159              		.arm
 2160              		.fpu neon
 2162              	_ZNK6tflite14MicroAllocator14error_reporterEv:
 2163              		.fnstart
 2164              	.LFB6570:
 2165              		@ args = 0, pretend = 0, frame = 0
 2166              		@ frame_needed = 0, uses_anonymous_args = 0
 2167              		@ link register save eliminated.
 2168 0000 0C0090E5 		ldr	r0, [r0, #12]
 2169 0004 1EFF2FE1 		bx	lr
 2170              		.cantunwind
 2171              		.fnend
 2173              		.section	.text._ZN6tflite14MicroAllocator21InitScratchBufferDataEv,"ax",%progbits
 2174              		.align	2
 2175              		.global	_ZN6tflite14MicroAllocator21InitScratchBufferDataEv
 2176              		.syntax unified
 2177              		.arm
 2178              		.fpu neon
 2180              	_ZN6tflite14MicroAllocator21InitScratchBufferDataEv:
 2181              		.fnstart
 2182              	.LFB6573:
 2183              		@ args = 0, pretend = 0, frame = 0
 2184              		@ frame_needed = 0, uses_anonymous_args = 0
 2185              		@ link register save eliminated.
 2186 0000 043090E5 		ldr	r3, [r0, #4]
 2187 0004 0010A0E3 		mov	r1, #0
 2188 0008 141080E5 		str	r1, [r0, #20]
 2189 000c 0420A0E3 		mov	r2, #4
 2190 0010 6010A0E3 		mov	r1, #96
 2191 0014 00C093E5 		ldr	ip, [r3]
 2192 0018 0300A0E1 		mov	r0, r3
 2193 001c 08309CE5 		ldr	r3, [ip, #8]
 2194 0020 13FF2FE1 		bx	r3
 2195              		.cantunwind
 2196              		.fnend
 2198              		.section	.text._ZN6tflite14MicroAllocator24GetScratchBufferRequestsEv,"ax",%progbits
 2199              		.align	2
 2200              		.global	_ZN6tflite14MicroAllocator24GetScratchBufferRequestsEv
 2201              		.syntax unified
 2202              		.arm
 2203              		.fpu neon
 2205              	_ZN6tflite14MicroAllocator24GetScratchBufferRequestsEv:
 2206              		.fnstart
 2207              	.LFB6574:
 2208              		@ args = 0, pretend = 0, frame = 0
 2209              		@ frame_needed = 0, uses_anonymous_args = 0
 2210 0000 10402DE9 		push	{r4, lr}
 2211              		.save {r4, lr}
 2212 0004 040090E5 		ldr	r0, [r0, #4]
 2213 0008 FEFFFFEB 		bl	_ZNK6tflite21SimpleMemoryAllocator13GetHeadBufferEv
 2214 000c 0410A0E3 		mov	r1, #4
 2215 0010 1040BDE8 		pop	{r4, lr}
 2216 0014 FEFFFFEA 		b	_ZN6tflite14AlignPointerUpEPhj
 2217              		.fnend
 2219              		.section	.text._ZN6tflite14MicroAllocator33FlatBufferVectorToTfLiteTypeArrayEPKN11flatbuffers6Vect
 2220              		.align	2
 2221              		.global	_ZN6tflite14MicroAllocator33FlatBufferVectorToTfLiteTypeArrayEPKN11flatbuffers6VectorIlEEP
 2222              		.syntax unified
 2223              		.arm
 2224              		.fpu neon
 2226              	_ZN6tflite14MicroAllocator33FlatBufferVectorToTfLiteTypeArrayEPKN11flatbuffers6VectorIlEEPP14TfLite
 2227              		.fnstart
 2228              	.LFB6575:
 2229              		@ args = 0, pretend = 0, frame = 0
 2230              		@ frame_needed = 0, uses_anonymous_args = 0
 2231 0000 0C3090E5 		ldr	r3, [r0, #12]
 2232 0004 000053E3 		cmp	r3, #0
 2233 0008 0400000A 		beq	.L460
 2234 000c 000051E3 		cmp	r1, #0
 2235 0010 0200000A 		beq	.L460
 2236 0014 001082E5 		str	r1, [r2]
 2237 0018 0000A0E3 		mov	r0, #0
 2238 001c 1EFF2FE1 		bx	lr
 2239              	.L460:
 2240 0020 10402DE9 		push	{r4, lr}
 2241              		.save {r4, lr}
 2242 0024 FEFFFFEB 		bl	abort
 2243              		.fnend
 2245              		.section	.text._ZN6tflite14MicroAllocator23GetBuiltinDataAllocatorEv,"ax",%progbits
 2246              		.align	2
 2247              		.global	_ZN6tflite14MicroAllocator23GetBuiltinDataAllocatorEv
 2248              		.syntax unified
 2249              		.arm
 2250              		.fpu neon
 2252              	_ZN6tflite14MicroAllocator23GetBuiltinDataAllocatorEv:
 2253              		.fnstart
 2254              	.LFB6576:
 2255              		@ args = 0, pretend = 0, frame = 0
 2256              		@ frame_needed = 0, uses_anonymous_args = 0
 2257              		@ link register save eliminated.
 2258 0000 080090E5 		ldr	r0, [r0, #8]
 2259 0004 1EFF2FE1 		bx	lr
 2260              		.cantunwind
 2261              		.fnend
 2263              		.section	.text._ZN6tflite14MicroAllocator22CommitStaticMemoryPlanEPKNS_5ModelEP16TfLiteEvalTensorP
 2264              		.align	2
 2265              		.global	_ZN6tflite14MicroAllocator22CommitStaticMemoryPlanEPKNS_5ModelEP16TfLiteEvalTensorPNS_19Sc
 2266              		.syntax unified
 2267              		.arm
 2268              		.fpu neon
 2270              	_ZN6tflite14MicroAllocator22CommitStaticMemoryPlanEPKNS_5ModelEP16TfLiteEvalTensorPNS_19ScratchBuff
 2271              		.fnstart
 2272              	.LFB6571:
 2273              		@ args = 4, pretend = 0, frame = 104
 2274              		@ frame_needed = 0, uses_anonymous_args = 0
 2275 0000 00C091E5 		ldr	ip, [r1]
 2276 0004 F04F2DE9 		push	{r4, r5, r6, r7, r8, r9, r10, fp, lr}
 2277              		.save {r4, r5, r6, r7, r8, r9, r10, fp, lr}
 2278              		.pad #116
 2279 0008 74D04DE2 		sub	sp, sp, #116
 2280 000c 98E09DE5 		ldr	lr, [sp, #152]
 2281 0010 0CC041E0 		sub	ip, r1, ip
 2282 0014 B040DCE1 		ldrh	r4, [ip]
 2283 0018 080054E3 		cmp	r4, #8
 2284 001c C90000DA 		ble	.L508
 2285 0020 B840DCE1 		ldrh	r4, [ip, #8]
 2286 0024 000054E3 		cmp	r4, #0
 2287 0028 04C081E0 		add	ip, r1, r4
 2288 002c C500000A 		beq	.L508
 2289 0030 34308DE5 		str	r3, [sp, #52]
 2290 0034 043091E7 		ldr	r3, [r1, r4]
 2291 0038 28208DE5 		str	r2, [sp, #40]
 2292 003c 14008DE5 		str	r0, [sp, #20]
 2293 0040 03209CE7 		ldr	r2, [ip, r3]
 2294 0044 03308CE0 		add	r3, ip, r3
 2295 0048 0C108DE5 		str	r1, [sp, #12]
 2296 004c 02005EE1 		cmp	lr, r2
 2297 0050 0F02002A 		bcs	.L623
 2298 0054 043083E2 		add	r3, r3, #4
 2299 0058 0E2193E7 		ldr	r2, [r3, lr, lsl #2]
 2300 005c 0E3183E0 		add	r3, r3, lr, lsl #2
 2301 0060 0310A0E1 		mov	r1, r3
 2302 0064 20308DE5 		str	r3, [sp, #32]
 2303 0068 023093E7 		ldr	r3, [r3, r2]
 2304 006c 24208DE5 		str	r2, [sp, #36]
 2305 0070 022081E0 		add	r2, r1, r2
 2306 0074 0210A0E1 		mov	r1, r2
 2307 0078 18208DE5 		str	r2, [sp, #24]
 2308 007c 033042E0 		sub	r3, r2, r3
 2309 0080 B020D3E1 		ldrh	r2, [r3]
 2310 0084 040052E3 		cmp	r2, #4
 2311 0088 AE0000DA 		ble	.L508
 2312 008c B430D3E1 		ldrh	r3, [r3, #4]
 2313 0090 000053E3 		cmp	r3, #0
 2314 0094 03C081E0 		add	ip, r1, r3
 2315 0098 AA00000A 		beq	.L508
 2316 009c 033091E7 		ldr	r3, [r1, r3]
 2317 00a0 0420A0E3 		mov	r2, #4
 2318 00a4 141090E5 		ldr	r1, [r0, #20]
 2319 00a8 040090E5 		ldr	r0, [r0, #4]
 2320 00ac 03C09CE7 		ldr	ip, [ip, r3]
 2321 00b0 003090E5 		ldr	r3, [r0]
 2322 00b4 01108CE0 		add	r1, ip, r1
 2323 00b8 1C108DE5 		str	r1, [sp, #28]
 2324 00bc 811081E0 		add	r1, r1, r1, lsl #1
 2325 00c0 103093E5 		ldr	r3, [r3, #16]
 2326 00c4 8111A0E1 		lsl	r1, r1, #3
 2327              	.LEHB0:
 2328 00c8 33FF2FE1 		blx	r3
 2329 00cc 005050E2 		subs	r5, r0, #0
 2330 00d0 6900000A 		beq	.L480
 2331 00d4 20309DE5 		ldr	r3, [sp, #32]
 2332 00d8 24209DE5 		ldr	r2, [sp, #36]
 2333 00dc 18E09DE5 		ldr	lr, [sp, #24]
 2334 00e0 023093E7 		ldr	r3, [r3, r2]
 2335 00e4 03304EE0 		sub	r3, lr, r3
 2336 00e8 B010D3E1 		ldrh	r1, [r3]
 2337 00ec 38308DE5 		str	r3, [sp, #56]
 2338 00f0 040051E3 		cmp	r1, #4
 2339 00f4 2C108DE5 		str	r1, [sp, #44]
 2340 00f8 920000DA 		ble	.L508
 2341 00fc B430D3E1 		ldrh	r3, [r3, #4]
 2342 0100 000053E3 		cmp	r3, #0
 2343 0104 03008EE0 		add	r0, lr, r3
 2344 0108 8E00000A 		beq	.L508
 2345 010c 0CC09DE5 		ldr	ip, [sp, #12]
 2346 0110 03209EE7 		ldr	r2, [lr, r3]
 2347 0114 14309DE5 		ldr	r3, [sp, #20]
 2348 0118 00109CE5 		ldr	r1, [ip]
 2349 011c 022090E7 		ldr	r2, [r0, r2]
 2350 0120 143093E5 		ldr	r3, [r3, #20]
 2351 0124 08208DE5 		str	r2, [sp, #8]
 2352 0128 30308DE5 		str	r3, [sp, #48]
 2353 012c 01304CE0 		sub	r3, ip, r1
 2354 0130 0310A0E1 		mov	r1, r3
 2355 0134 10308DE5 		str	r3, [sp, #16]
 2356 0138 B030D3E1 		ldrh	r3, [r3]
 2357 013c 100053E3 		cmp	r3, #16
 2358 0140 C90000DA 		ble	.L538
 2359 0144 B031D1E1 		ldrh	r3, [r1, #16]
 2360 0148 000053E3 		cmp	r3, #0
 2361 014c 03208CE0 		add	r2, ip, r3
 2362 0150 C500000A 		beq	.L538
 2363 0154 03309CE7 		ldr	r3, [ip, r3]
 2364 0158 036092E0 		adds	r6, r2, r3
 2365 015c 8000000A 		beq	.L474
 2366 0160 033092E7 		ldr	r3, [r2, r3]
 2367 0164 000053E3 		cmp	r3, #0
 2368 0168 AE01000A 		beq	.L540
 2369 016c 00B0A0E3 		mov	fp, #0
 2370 0170 00A000E3 		movw	r10, #:lower16:.LANCHOR8
 2371 0174 048086E2 		add	r8, r6, #4
 2372 0178 00A040E3 		movt	r10, #:upper16:.LANCHOR8
 2373 017c 0B60A0E1 		mov	r6, fp
 2374 0180 3C508DE5 		str	r5, [sp, #60]
 2375 0184 0390A0E1 		mov	r9, r3
 2376 0188 020000EA 		b	.L481
 2377              	.L536:
 2378 018c 01B08BE2 		add	fp, fp, #1
 2379 0190 0B0059E1 		cmp	r9, fp
 2380 0194 7100000A 		beq	.L624
 2381              	.L481:
 2382 0198 0840A0E1 		mov	r4, r8
 2383 019c 048088E2 		add	r8, r8, #4
 2384 01a0 002094E5 		ldr	r2, [r4]
 2385 01a4 025094E7 		ldr	r5, [r4, r2]
 2386 01a8 024084E0 		add	r4, r4, r2
 2387 01ac 055044E0 		sub	r5, r4, r5
 2388 01b0 B070D5E1 		ldrh	r7, [r5]
 2389 01b4 040057E3 		cmp	r7, #4
 2390 01b8 0000A0D3 		movle	r0, #0
 2391 01bc 040000DA 		ble	.L475
 2392 01c0 B400D5E1 		ldrh	r0, [r5, #4]
 2393 01c4 000050E3 		cmp	r0, #0
 2394 01c8 002084E0 		add	r2, r4, r0
 2395 01cc 00009417 		ldrne	r0, [r4, r0]
 2396 01d0 00008210 		addne	r0, r2, r0
 2397              	.L475:
 2398 01d4 040080E2 		add	r0, r0, #4
 2399 01d8 1720A0E3 		mov	r2, #23
 2400 01dc 0A10A0E1 		mov	r1, r10
 2401 01e0 FEFFFFEB 		bl	strncmp
 2402 01e4 000050E3 		cmp	r0, #0
 2403 01e8 E7FFFF1A 		bne	.L536
 2404 01ec 10309DE5 		ldr	r3, [sp, #16]
 2405 01f0 BC20D3E1 		ldrh	r2, [r3, #12]
 2406 01f4 0C309DE5 		ldr	r3, [sp, #12]
 2407 01f8 000052E3 		cmp	r2, #0
 2408 01fc 021083E0 		add	r1, r3, r2
 2409 0200 02209317 		ldrne	r2, [r3, r2]
 2410 0204 02208110 		addne	r2, r1, r2
 2411              	.L476:
 2412 0208 060057E3 		cmp	r7, #6
 2413 020c 0010A0D3 		movle	r1, #0
 2414 0210 020000DA 		ble	.L477
 2415 0214 B610D5E1 		ldrh	r1, [r5, #6]
 2416 0218 000051E3 		cmp	r1, #0
 2417 021c 01109417 		ldrne	r1, [r4, r1]
 2418              	.L477:
 2419 0220 000092E5 		ldr	r0, [r2]
 2420 0224 000051E1 		cmp	r1, r0
 2421 0228 AC01002A 		bcs	.L625
 2422 022c 042082E2 		add	r2, r2, #4
 2423 0230 010192E7 		ldr	r0, [r2, r1, lsl #2]
 2424 0234 012182E0 		add	r2, r2, r1, lsl #2
 2425 0238 001092E7 		ldr	r1, [r2, r0]
 2426 023c 002082E0 		add	r2, r2, r0
 2427 0240 011042E0 		sub	r1, r2, r1
 2428 0244 B000D1E1 		ldrh	r0, [r1]
 2429 0248 040050E3 		cmp	r0, #4
 2430 024c 400000DA 		ble	.L479
 2431 0250 B410D1E1 		ldrh	r1, [r1, #4]
 2432 0254 000051E3 		cmp	r1, #0
 2433 0258 016082E0 		add	r6, r2, r1
 2434 025c 3C00000A 		beq	.L479
 2435 0260 012092E7 		ldr	r2, [r2, r1]
 2436 0264 08309DE5 		ldr	r3, [sp, #8]
 2437 0268 026086E0 		add	r6, r6, r2
 2438 026c 0C2096E5 		ldr	r2, [r6, #12]
 2439 0270 106086E2 		add	r6, r6, #16
 2440 0274 020053E1 		cmp	r3, r2
 2441 0278 C3FFFF0A 		beq	.L536
 2442              	.L480:
 2443 027c 01A0A0E3 		mov	r10, #1
 2444              	.L552:
 2445 0280 0A00A0E1 		mov	r0, r10
 2446 0284 74D08DE2 		add	sp, sp, #116
 2447              		@ sp needed
 2448 0288 F08FBDE8 		pop	{r4, r5, r6, r7, r8, r9, r10, fp, pc}
 2449              	.L634:
 2450 028c BA20DCE1 		ldrh	r2, [ip, #10]
 2451 0290 18309DE5 		ldr	r3, [sp, #24]
 2452 0294 000052E3 		cmp	r2, #0
 2453 0298 023083E0 		add	r3, r3, r2
 2454 029c 2900000A 		beq	.L508
 2455 02a0 18109DE5 		ldr	r1, [sp, #24]
 2456 02a4 028091E7 		ldr	r8, [r1, r2]
 2457 02a8 08A093E7 		ldr	r10, [r3, r8]
 2458 02ac 083083E0 		add	r3, r3, r8
 2459 02b0 01E05AE2 		subs	lr, r10, #1
 2460 02b4 D000004A 		bmi	.L503
 2461 02b8 0A8183E0 		add	r8, r3, r10, lsl #2
 2462              	.L514:
 2463 02bc 0E005AE1 		cmp	r10, lr
 2464 02c0 7E01009A 		bls	.L626
 2465 02c4 0810A0E1 		mov	r1, r8
 2466 02c8 048048E2 		sub	r8, r8, #4
 2467 02cc 003091E5 		ldr	r3, [r1]
 2468 02d0 034091E7 		ldr	r4, [r1, r3]
 2469 02d4 031081E0 		add	r1, r1, r3
 2470 02d8 044041E0 		sub	r4, r1, r4
 2471 02dc B060D4E1 		ldrh	r6, [r4]
 2472 02e0 060056E3 		cmp	r6, #6
 2473 02e4 170000DA 		ble	.L508
 2474 02e8 B6C0D4E1 		ldrh	ip, [r4, #6]
 2475 02ec 0020A0E3 		mov	r2, #0
 2476 02f0 0C0081E0 		add	r0, r1, ip
 2477 02f4 110000EA 		b	.L510
 2478              	.L628:
 2479 02f8 003090E5 		ldr	r3, [r0]
 2480 02fc 037090E7 		ldr	r7, [r0, r3]
 2481 0300 033080E0 		add	r3, r0, r3
 2482 0304 020057E1 		cmp	r7, r2
 2483 0308 9E00009A 		bls	.L627
 2484 030c 023183E0 		add	r3, r3, r2, lsl #2
 2485 0310 012082E2 		add	r2, r2, #1
 2486 0314 043093E5 		ldr	r3, [r3, #4]
 2487 0318 833083E0 		add	r3, r3, r3, lsl #1
 2488 031c 833185E0 		add	r3, r5, r3, lsl #3
 2489 0320 0C9093E5 		ldr	r9, [r3, #12]
 2490 0324 010079E3 		cmn	r9, #1
 2491 0328 0070A013 		movne	r7, #0
 2492 032c 0170A003 		moveq	r7, #1
 2493 0330 0E0059E1 		cmp	r9, lr
 2494 0334 017087B3 		orrlt	r7, r7, #1
 2495 0338 000057E3 		cmp	r7, #0
 2496 033c 0CE08315 		strne	lr, [r3, #12]
 2497              	.L510:
 2498 0340 00005CE3 		cmp	ip, #0
 2499 0344 EBFFFF1A 		bne	.L628
 2500              	.L508:
 2501 0348 0030A0E3 		mov	r3, #0
 2502 034c 003093E5 		ldr	r3, [r3]
 2503 0350 F000F0E7 		.inst	0xe7f000f0
 2504              	.L479:
 2505 0354 0030A0E3 		mov	r3, #0
 2506 0358 0C3093E5 		ldr	r3, [r3, #12]
 2507 035c F000F0E7 		.inst	0xe7f000f0
 2508              	.L624:
 2509 0360 3C509DE5 		ldr	r5, [sp, #60]
 2510              	.L474:
 2511 0364 28309DE5 		ldr	r3, [sp, #40]
 2512 0368 000053E3 		cmp	r3, #0
 2513 036c 6301000A 		beq	.L482
 2514 0370 08309DE5 		ldr	r3, [sp, #8]
 2515 0374 000053E3 		cmp	r3, #0
 2516 0378 2C01000A 		beq	.L629
 2517 037c 03B0A0E1 		mov	fp, r3
 2518 0380 28709DE5 		ldr	r7, [sp, #40]
 2519 0384 644085E2 		add	r4, r5, #100
 2520 0388 0080A0E3 		mov	r8, #0
 2521 038c 0090E0E3 		mvn	r9, #0
 2522 0390 18A09DE5 		ldr	r10, [sp, #24]
 2523 0394 090000EA 		b	.L492
 2524              	.L487:
 2525 0398 000056E3 		cmp	r6, #0
 2526 039c 500044E5 		strb	r0, [r4, #-80]
 2527 03a0 08319617 		ldrne	r3, [r6, r8, lsl #2]
 2528 03a4 018088E2 		add	r8, r8, #1
 2529 03a8 0030E003 		mvneq	r3, #0
 2530 03ac 08005BE1 		cmp	fp, r8
 2531 03b0 184084E2 		add	r4, r4, #24
 2532 03b4 0C7087E2 		add	r7, r7, #12
 2533 03b8 6C3004E5 		str	r3, [r4, #-108]
 2534 03bc 3000000A 		beq	.L630
 2535              	.L492:
 2536 03c0 607004E5 		str	r7, [r4, #-96]
 2537 03c4 641044E2 		sub	r1, r4, #100
 2538 03c8 0700A0E1 		mov	r0, r7
 2539 03cc 00F0D4F5 		pld	[r4]
 2540 03d0 FEFFFFEB 		bl	_ZN6tflite26TfLiteEvalTensorByteLengthEPK16TfLiteEvalTensorPj
 2541 03d4 000050E3 		cmp	r0, #0
 2542 03d8 2500001A 		bne	.L612
 2543 03dc 5C9004E5 		str	r9, [r4, #-92]
 2544 03e0 589004E5 		str	r9, [r4, #-88]
 2545 03e4 003097E5 		ldr	r3, [r7]
 2546 03e8 000053E3 		cmp	r3, #0
 2547 03ec E9FFFF1A 		bne	.L487
 2548 03f0 00309AE5 		ldr	r3, [r10]
 2549 03f4 03304AE0 		sub	r3, r10, r3
 2550 03f8 B020D3E1 		ldrh	r2, [r3]
 2551 03fc 040052E3 		cmp	r2, #4
 2552 0400 D0FFFFDA 		ble	.L508
 2553 0404 B420D3E1 		ldrh	r2, [r3, #4]
 2554 0408 000052E3 		cmp	r2, #0
 2555 040c 02308AE0 		add	r3, r10, r2
 2556 0410 CCFFFF0A 		beq	.L508
 2557 0414 02209AE7 		ldr	r2, [r10, r2]
 2558 0418 021093E7 		ldr	r1, [r3, r2]
 2559 041c 023083E0 		add	r3, r3, r2
 2560 0420 080051E1 		cmp	r1, r8
 2561 0424 1201009A 		bls	.L631
 2562 0428 043083E2 		add	r3, r3, #4
 2563 042c 081193E7 		ldr	r1, [r3, r8, lsl #2]
 2564 0430 083183E0 		add	r3, r3, r8, lsl #2
 2565 0434 012093E7 		ldr	r2, [r3, r1]
 2566 0438 013083E0 		add	r3, r3, r1
 2567 043c 022043E0 		sub	r2, r3, r2
 2568 0440 B010D2E1 		ldrh	r1, [r2]
 2569 0444 0E0051E3 		cmp	r1, #14
 2570 0448 050000DA 		ble	.L548
 2571 044c BE20D2E1 		ldrh	r2, [r2, #14]
 2572 0450 000052E3 		cmp	r2, #0
 2573 0454 0200D317 		ldrbne	r0, [r3, r2]	@ zero_extendqisi2
 2574 0458 100F6F11 		clzne	r0, r0
 2575 045c A002A011 		lsrne	r0, r0, #5
 2576 0460 CCFFFF1A 		bne	.L487
 2577              	.L548:
 2578 0464 0100A0E3 		mov	r0, #1
 2579 0468 CAFFFFEA 		b	.L487
 2580              	.L538:
 2581 046c 0060A0E3 		mov	r6, #0
 2582 0470 BBFFFFEA 		b	.L474
 2583              	.L612:
 2584 0474 00A0A0E1 		mov	r10, r0
 2585 0478 0A00A0E1 		mov	r0, r10
 2586 047c 74D08DE2 		add	sp, sp, #116
 2587              		@ sp needed
 2588 0480 F08FBDE8 		pop	{r4, r5, r6, r7, r8, r9, r10, fp, pc}
 2589              	.L630:
 2590 0484 20309DE5 		ldr	r3, [sp, #32]
 2591 0488 24209DE5 		ldr	r2, [sp, #36]
 2592 048c 02C093E7 		ldr	ip, [r3, r2]
 2593 0490 18309DE5 		ldr	r3, [sp, #24]
 2594 0494 0CC043E0 		sub	ip, r3, ip
 2595 0498 B030DCE1 		ldrh	r3, [ip]
 2596 049c 2C308DE5 		str	r3, [sp, #44]
 2597              	.L483:
 2598 04a0 060053E3 		cmp	r3, #6
 2599 04a4 A7FFFFDA 		ble	.L508
 2600 04a8 B6E0DCE1 		ldrh	lr, [ip, #6]
 2601 04ac 0020A0E3 		mov	r2, #0
 2602 04b0 18309DE5 		ldr	r3, [sp, #24]
 2603 04b4 0240A0E1 		mov	r4, r2
 2604 04b8 0E1083E0 		add	r1, r3, lr
 2605 04bc 0A0000EA 		b	.L496
 2606              	.L633:
 2607 04c0 003091E5 		ldr	r3, [r1]
 2608 04c4 030091E7 		ldr	r0, [r1, r3]
 2609 04c8 033081E0 		add	r3, r1, r3
 2610 04cc 020050E1 		cmp	r0, r2
 2611 04d0 0A00009A 		bls	.L632
 2612 04d4 023183E0 		add	r3, r3, r2, lsl #2
 2613 04d8 012082E2 		add	r2, r2, #1
 2614 04dc 043093E5 		ldr	r3, [r3, #4]
 2615 04e0 833083E0 		add	r3, r3, r3, lsl #1
 2616 04e4 833185E0 		add	r3, r5, r3, lsl #3
 2617 04e8 084083E5 		str	r4, [r3, #8]
 2618              	.L496:
 2619 04ec 00005EE3 		cmp	lr, #0
 2620 04f0 F2FFFF1A 		bne	.L633
 2621 04f4 0030A0E3 		mov	r3, #0
 2622 04f8 003093E5 		ldr	r3, [r3]
 2623 04fc F000F0E7 		.inst	0xe7f000f0
 2624              	.L632:
 2625 0500 2C309DE5 		ldr	r3, [sp, #44]
 2626 0504 080053E3 		cmp	r3, #8
 2627 0508 8EFFFFDA 		ble	.L508
 2628 050c 0A0053E3 		cmp	r3, #10
 2629 0510 8CFFFFDA 		ble	.L508
 2630 0514 18309DE5 		ldr	r3, [sp, #24]
 2631 0518 0020A0E3 		mov	r2, #0
 2632 051c B800DCE1 		ldrh	r0, [ip, #8]
 2633 0520 0340A0E1 		mov	r4, r3
 2634 0524 001083E0 		add	r1, r3, r0
 2635 0528 110000EA 		b	.L502
 2636              	.L635:
 2637 052c 003091E5 		ldr	r3, [r1]
 2638 0530 03E091E7 		ldr	lr, [r1, r3]
 2639 0534 033081E0 		add	r3, r1, r3
 2640 0538 02005EE1 		cmp	lr, r2
 2641 053c 52FFFF9A 		bls	.L634
 2642 0540 023183E0 		add	r3, r3, r2, lsl #2
 2643 0544 BAE0DCE1 		ldrh	lr, [ip, #10]
 2644 0548 043093E5 		ldr	r3, [r3, #4]
 2645 054c 00005EE3 		cmp	lr, #0
 2646 0550 0E6084E0 		add	r6, r4, lr
 2647 0554 833083E0 		add	r3, r3, r3, lsl #1
 2648 0558 833185E0 		add	r3, r5, r3, lsl #3
 2649 055c 79FFFF0A 		beq	.L508
 2650 0560 0EE094E7 		ldr	lr, [r4, lr]
 2651 0564 012082E2 		add	r2, r2, #1
 2652 0568 0EE096E7 		ldr	lr, [r6, lr]
 2653 056c 01E04EE2 		sub	lr, lr, #1
 2654 0570 0CE083E5 		str	lr, [r3, #12]
 2655              	.L502:
 2656 0574 000050E3 		cmp	r0, #0
 2657 0578 EBFFFF1A 		bne	.L635
 2658 057c 0030A0E3 		mov	r3, #0
 2659 0580 003093E5 		ldr	r3, [r3]
 2660 0584 F000F0E7 		.inst	0xe7f000f0
 2661              	.L627:
 2662 0588 080056E3 		cmp	r6, #8
 2663 058c 6DFFFFDA 		ble	.L508
 2664 0590 B8C0D4E1 		ldrh	ip, [r4, #8]
 2665 0594 0000A0E3 		mov	r0, #0
 2666 0598 0C1081E0 		add	r1, r1, ip
 2667 059c 110000EA 		b	.L513
 2668              	.L636:
 2669 05a0 003091E5 		ldr	r3, [r1]
 2670 05a4 032091E7 		ldr	r2, [r1, r3]
 2671 05a8 033081E0 		add	r3, r1, r3
 2672 05ac 000052E1 		cmp	r2, r0
 2673 05b0 0F00009A 		bls	.L511
 2674 05b4 003183E0 		add	r3, r3, r0, lsl #2
 2675 05b8 010080E2 		add	r0, r0, #1
 2676 05bc 043093E5 		ldr	r3, [r3, #4]
 2677 05c0 833083E0 		add	r3, r3, r3, lsl #1
 2678 05c4 833185E0 		add	r3, r5, r3, lsl #3
 2679 05c8 084093E5 		ldr	r4, [r3, #8]
 2680 05cc 010074E3 		cmn	r4, #1
 2681 05d0 0020A013 		movne	r2, #0
 2682 05d4 0120A003 		moveq	r2, #1
 2683 05d8 0E0054E1 		cmp	r4, lr
 2684 05dc 012082C3 		orrgt	r2, r2, #1
 2685 05e0 000052E3 		cmp	r2, #0
 2686 05e4 08E08315 		strne	lr, [r3, #8]
 2687              	.L513:
 2688 05e8 00005CE3 		cmp	ip, #0
 2689 05ec 55FFFF0A 		beq	.L508
 2690 05f0 EAFFFFEA 		b	.L636
 2691              	.L511:
 2692 05f4 01E05EE2 		subs	lr, lr, #1
 2693 05f8 2FFFFF2A 		bcs	.L514
 2694              	.L503:
 2695 05fc 14309DE5 		ldr	r3, [sp, #20]
 2696 0600 040093E5 		ldr	r0, [r3, #4]
 2697 0604 FEFFFFEB 		bl	_ZNK6tflite21SimpleMemoryAllocator13GetHeadBufferEv
 2698 0608 0410A0E3 		mov	r1, #4
 2699 060c FEFFFFEB 		bl	_ZN6tflite14AlignPointerUpEPhj
 2700 0610 08209DE5 		ldr	r2, [sp, #8]
 2701 0614 30109DE5 		ldr	r1, [sp, #48]
 2702 0618 023081E0 		add	r3, r1, r2
 2703 061c 030052E1 		cmp	r2, r3
 2704 0620 1400002A 		bcs	.L530
 2705 0624 823082E0 		add	r3, r2, r2, lsl #1
 2706 0628 34109DE5 		ldr	r1, [sp, #52]
 2707 062c 30209DE5 		ldr	r2, [sp, #48]
 2708 0630 00E0E0E3 		mvn	lr, #0
 2709 0634 833185E0 		add	r3, r5, r3, lsl #3
 2710 0638 01C0A0E3 		mov	ip, #1
 2711 063c 024181E0 		add	r4, r1, r2, lsl #2
 2712 0640 0020A0E1 		mov	r2, r0
 2713              	.L515:
 2714 0644 000092E5 		ldr	r0, [r2]
 2715 0648 183083E2 		add	r3, r3, #24
 2716 064c 141003E5 		str	r1, [r3, #-20]
 2717 0650 041081E2 		add	r1, r1, #4
 2718 0654 040051E1 		cmp	r1, r4
 2719 0658 082082E2 		add	r2, r2, #8
 2720 065c 180003E5 		str	r0, [r3, #-24]
 2721 0660 040012E5 		ldr	r0, [r2, #-4]
 2722 0664 08E003E5 		str	lr, [r3, #-8]
 2723 0668 04C043E5 		strb	ip, [r3, #-4]
 2724 066c 100003E5 		str	r0, [r3, #-16]
 2725 0670 0C0003E5 		str	r0, [r3, #-12]
 2726 0674 F2FFFF1A 		bne	.L515
 2727              	.L530:
 2728 0678 14609DE5 		ldr	r6, [sp, #20]
 2729 067c 1010A0E3 		mov	r1, #16
 2730 0680 040096E5 		ldr	r0, [r6, #4]
 2731 0684 FEFFFFEB 		bl	_ZNK6tflite21SimpleMemoryAllocator18GetAvailableMemoryEj
 2732 0688 0040A0E1 		mov	r4, r0
 2733 068c 040096E5 		ldr	r0, [r6, #4]
 2734 0690 0410A0E1 		mov	r1, r4
 2735 0694 1020A0E3 		mov	r2, #16
 2736 0698 003090E5 		ldr	r3, [r0]
 2737 069c 103093E5 		ldr	r3, [r3, #16]
 2738 06a0 33FF2FE1 		blx	r3
 2739 06a4 001050E2 		subs	r1, r0, #0
 2740 06a8 F3FEFF0A 		beq	.L480
 2741 06ac 0420A0E1 		mov	r2, r4
 2742 06b0 44008DE2 		add	r0, sp, #68
 2743 06b4 FEFFFFEB 		bl	_ZN6tflite19GreedyMemoryPlannerC1EPhi
 2744              	.LEHE0:
 2745 06b8 1C309DE5 		ldr	r3, [sp, #28]
 2746 06bc 0C7096E5 		ldr	r7, [r6, #12]
 2747 06c0 000053E3 		cmp	r3, #0
 2748 06c4 2400000A 		beq	.L516
 2749 06c8 744085E2 		add	r4, r5, #116
 2750 06cc 0060A0E3 		mov	r6, #0
 2751 06d0 040000EA 		b	.L518
 2752              	.L521:
 2753 06d4 1C309DE5 		ldr	r3, [sp, #28]
 2754 06d8 016086E2 		add	r6, r6, #1
 2755 06dc 184084E2 		add	r4, r4, #24
 2756 06e0 060053E1 		cmp	r3, r6
 2757 06e4 1C00000A 		beq	.L516
 2758              	.L518:
 2759 06e8 603054E5 		ldrb	r3, [r4, #-96]	@ zero_extendqisi2
 2760 06ec 00F0D4F5 		pld	[r4]
 2761 06f0 000053E3 		cmp	r3, #0
 2762 06f4 F6FFFF0A 		beq	.L521
 2763 06f8 1010A0E3 		mov	r1, #16
 2764 06fc 740014E5 		ldr	r0, [r4, #-116]
 2765              	.LEHB1:
 2766 0700 FEFFFFEB 		bl	_ZN6tflite11AlignSizeUpEjj
 2767 0704 641014E5 		ldr	r1, [r4, #-100]
 2768 0708 0020A0E1 		mov	r2, r0
 2769 070c 6C3014E5 		ldr	r3, [r4, #-108]
 2770 0710 010071E3 		cmn	r1, #1
 2771 0714 0A00000A 		beq	.L637
 2772 0718 04108DE5 		str	r1, [sp, #4]
 2773 071c 44008DE2 		add	r0, sp, #68
 2774 0720 68C014E5 		ldr	ip, [r4, #-104]
 2775 0724 0710A0E1 		mov	r1, r7
 2776 0728 00C08DE5 		str	ip, [sp]
 2777 072c FEFFFFEB 		bl	_ZN6tflite19GreedyMemoryPlanner9AddBufferEPNS_13ErrorReporterEiiii
 2778              	.L615:
 2779 0730 00A050E2 		subs	r10, r0, #0
 2780 0734 E6FFFF0A 		beq	.L521
 2781              	.L520:
 2782 0738 44008DE2 		add	r0, sp, #68
 2783 073c FEFFFFEB 		bl	_ZN6tflite19GreedyMemoryPlannerD1Ev
 2784 0740 CEFEFFEA 		b	.L552
 2785              	.L637:
 2786 0744 68C014E5 		ldr	ip, [r4, #-104]
 2787 0748 0710A0E1 		mov	r1, r7
 2788 074c 44008DE2 		add	r0, sp, #68
 2789 0750 00C08DE5 		str	ip, [sp]
 2790 0754 FEFFFFEB 		bl	_ZN6tflite19GreedyMemoryPlanner9AddBufferEPNS_13ErrorReporterEiii
 2791 0758 F4FFFFEA 		b	.L615
 2792              	.L516:
 2793 075c 14309DE5 		ldr	r3, [sp, #20]
 2794 0760 040093E5 		ldr	r0, [r3, #4]
 2795 0764 003090E5 		ldr	r3, [r0]
 2796 0768 143093E5 		ldr	r3, [r3, #20]
 2797 076c 33FF2FE1 		blx	r3
 2798 0770 14309DE5 		ldr	r3, [sp, #20]
 2799 0774 1010A0E3 		mov	r1, #16
 2800 0778 040093E5 		ldr	r0, [r3, #4]
 2801 077c FEFFFFEB 		bl	_ZNK6tflite21SimpleMemoryAllocator18GetAvailableMemoryEj
 2802 0780 0040A0E1 		mov	r4, r0
 2803 0784 44008DE2 		add	r0, sp, #68
 2804 0788 FEFFFFEB 		bl	_ZN6tflite19GreedyMemoryPlanner20GetMaximumMemorySizeEv
 2805 078c 000054E1 		cmp	r4, r0
 2806 0790 01A0A033 		movcc	r10, #1
 2807 0794 E7FFFF3A 		bcc	.L520
 2808 0798 14309DE5 		ldr	r3, [sp, #20]
 2809 079c 040093E5 		ldr	r0, [r3, #4]
 2810 07a0 0C7093E5 		ldr	r7, [r3, #12]
 2811 07a4 FEFFFFEB 		bl	_ZNK6tflite21SimpleMemoryAllocator13GetHeadBufferEv
 2812 07a8 1C309DE5 		ldr	r3, [sp, #28]
 2813 07ac 0080A0E1 		mov	r8, r0
 2814 07b0 000053E3 		cmp	r3, #0
 2815 07b4 2000000A 		beq	.L522
 2816 07b8 0040A0E3 		mov	r4, #0
 2817 07bc BC5085E2 		add	r5, r5, #188
 2818 07c0 0460A0E1 		mov	r6, r4
 2819 07c4 0090E0E3 		mvn	r9, #0
 2820 07c8 040000EA 		b	.L525
 2821              	.L523:
 2822 07cc 1C309DE5 		ldr	r3, [sp, #28]
 2823 07d0 016086E2 		add	r6, r6, #1
 2824 07d4 185085E2 		add	r5, r5, #24
 2825 07d8 060053E1 		cmp	r3, r6
 2826 07dc 1600000A 		beq	.L522
 2827              	.L525:
 2828 07e0 A83055E5 		ldrb	r3, [r5, #-168]	@ zero_extendqisi2
 2829 07e4 00F0D5F5 		pld	[r5]
 2830 07e8 000053E3 		cmp	r3, #0
 2831 07ec F6FFFF0A 		beq	.L523
 2832 07f0 40308DE2 		add	r3, sp, #64
 2833 07f4 0420A0E1 		mov	r2, r4
 2834 07f8 0710A0E1 		mov	r1, r7
 2835 07fc 44008DE2 		add	r0, sp, #68
 2836 0800 40908DE5 		str	r9, [sp, #64]
 2837 0804 FEFFFFEB 		bl	_ZN6tflite19GreedyMemoryPlanner18GetOffsetForBufferEPNS_13ErrorReporterEiPi
 2838 0808 00A050E2 		subs	r10, r0, #0
 2839 080c C9FFFF1A 		bne	.L520
 2840 0810 40309DE5 		ldr	r3, [sp, #64]
 2841 0814 014084E2 		add	r4, r4, #1
 2842 0818 B82015E5 		ldr	r2, [r5, #-184]
 2843 081c 033088E0 		add	r3, r8, r3
 2844 0820 003082E5 		str	r3, [r2]
 2845 0824 E8FFFFEA 		b	.L523
 2846              	.L540:
 2847 0828 0360A0E1 		mov	r6, r3
 2848 082c CCFEFFEA 		b	.L474
 2849              	.L629:
 2850 0830 38C09DE5 		ldr	ip, [sp, #56]
 2851 0834 2C309DE5 		ldr	r3, [sp, #44]
 2852 0838 18FFFFEA 		b	.L483
 2853              	.L522:
 2854 083c 44008DE2 		add	r0, sp, #68
 2855 0840 FEFFFFEB 		bl	_ZN6tflite19GreedyMemoryPlanner20GetMaximumMemorySizeEv
 2856 0844 14309DE5 		ldr	r3, [sp, #20]
 2857 0848 181093E5 		ldr	r1, [r3, #24]
 2858 084c 010050E1 		cmp	r0, r1
 2859 0850 0010A081 		movhi	r1, r0
 2860 0854 18008385 		strhi	r0, [r3, #24]
 2861              	.L526:
 2862 0858 040093E5 		ldr	r0, [r3, #4]
 2863 085c 1020A0E3 		mov	r2, #16
 2864 0860 003090E5 		ldr	r3, [r0]
 2865 0864 083093E5 		ldr	r3, [r3, #8]
 2866 0868 33FF2FE1 		blx	r3
 2867              	.LEHE1:
 2868 086c 00A0A0E1 		mov	r10, r0
 2869 0870 B0FFFFEA 		b	.L520
 2870              	.L631:
 2871 0874 003000E3 		movw	r3, #:lower16:.LC0
 2872 0878 002000E3 		movw	r2, #:lower16:.LANCHOR0
 2873 087c 000000E3 		movw	r0, #:lower16:.LC1
 2874 0880 003040E3 		movt	r3, #:upper16:.LC0
 2875 0884 002040E3 		movt	r2, #:upper16:.LANCHOR0
 2876 0888 000040E3 		movt	r0, #:upper16:.LC1
 2877 088c 061100E3 		movw	r1, #262
 2878              	.LEHB2:
 2879 0890 FEFFFFEB 		bl	__assert_func
 2880              	.L623:
 2881 0894 003000E3 		movw	r3, #:lower16:.LC0
 2882 0898 002000E3 		movw	r2, #:lower16:.LANCHOR4
 2883 089c 000000E3 		movw	r0, #:lower16:.LC1
 2884 08a0 003040E3 		movt	r3, #:upper16:.LC0
 2885 08a4 002040E3 		movt	r2, #:upper16:.LANCHOR4
 2886 08a8 000040E3 		movt	r0, #:upper16:.LC1
 2887 08ac 061100E3 		movw	r1, #262
 2888 08b0 FEFFFFEB 		bl	__assert_func
 2889              	.L551:
 2890 08b4 44008DE2 		add	r0, sp, #68
 2891 08b8 FEFFFFEB 		bl	_ZN6tflite19GreedyMemoryPlannerD1Ev
 2892 08bc FEFFFFEB 		bl	__cxa_end_cleanup
 2893              	.L626:
 2894 08c0 003000E3 		movw	r3, #:lower16:.LC0
 2895 08c4 002000E3 		movw	r2, #:lower16:.LANCHOR7
 2896 08c8 000000E3 		movw	r0, #:lower16:.LC1
 2897 08cc 003040E3 		movt	r3, #:upper16:.LC0
 2898 08d0 002040E3 		movt	r2, #:upper16:.LANCHOR7
 2899 08d4 000040E3 		movt	r0, #:upper16:.LC1
 2900 08d8 061100E3 		movw	r1, #262
 2901 08dc FEFFFFEB 		bl	__assert_func
 2902              	.L625:
 2903 08e0 003000E3 		movw	r3, #:lower16:.LC0
 2904 08e4 002000E3 		movw	r2, #:lower16:.LANCHOR1
 2905 08e8 000000E3 		movw	r0, #:lower16:.LC1
 2906 08ec 003040E3 		movt	r3, #:upper16:.LC0
 2907 08f0 002040E3 		movt	r2, #:upper16:.LANCHOR1
 2908 08f4 000040E3 		movt	r0, #:upper16:.LC1
 2909 08f8 061100E3 		movw	r1, #262
 2910 08fc FEFFFFEB 		bl	__assert_func
 2911              	.L482:
 2912 0900 FEFFFFEB 		bl	abort
 2913              	.LEHE2:
 2914              		.global	__gxx_personality_v0
 2915              		.personality	__gxx_personality_v0
 2916              		.handlerdata
 2917              	.LLSDA6571:
 2918 0008 FF       		.byte	0xff
 2919 0009 FF       		.byte	0xff
 2920 000a 01       		.byte	0x1
 2921 000b 12       		.uleb128 .LLSDACSE6571-.LLSDACSB6571
 2922              	.LLSDACSB6571:
 2923 000c C801     		.uleb128 .LEHB0-.LFB6571
 2924 000e F00B     		.uleb128 .LEHE0-.LEHB0
 2925 0010 00       		.uleb128 0
 2926 0011 00       		.uleb128 0
 2927 0012 800E     		.uleb128 .LEHB1-.LFB6571
 2928 0014 EC02     		.uleb128 .LEHE1-.LEHB1
 2929 0016 B411     		.uleb128 .L551-.LFB6571
 2930 0018 00       		.uleb128 0
 2931 0019 9011     		.uleb128 .LEHB2-.LFB6571
 2932 001b 74       		.uleb128 .LEHE2-.LEHB2
 2933 001c 00       		.uleb128 0
 2934 001d 00       		.uleb128 0
 2935              	.LLSDACSE6571:
 2936              		.section	.text._ZN6tflite14MicroAllocator22CommitStaticMemoryPlanEPKNS_5ModelEP16TfLiteEvalTensorP
 2937              		.fnend
 2939              		.weak	_ZTSN6tflite20BuiltinDataAllocatorE
 2940              		.section	.rodata._ZTSN6tflite20BuiltinDataAllocatorE,"aG",%progbits,_ZTSN6tflite20BuiltinDataAlloc
 2941              		.align	2
 2944              	_ZTSN6tflite20BuiltinDataAllocatorE:
 2945 0000 4E367466 		.ascii	"N6tflite20BuiltinDataAllocatorE\000"
 2945      6C697465 
 2945      32304275 
 2945      696C7469 
 2945      6E446174 
 2946              		.weak	_ZTIN6tflite20BuiltinDataAllocatorE
 2947              		.section	.rodata._ZTIN6tflite20BuiltinDataAllocatorE,"aG",%progbits,_ZTIN6tflite20BuiltinDataAlloc
 2948              		.align	2
 2951              	_ZTIN6tflite20BuiltinDataAllocatorE:
 2952 0000 08000000 		.word	_ZTVN10__cxxabiv117__class_type_infoE+8
 2953 0004 00000000 		.word	_ZTSN6tflite20BuiltinDataAllocatorE
 2954              		.global	_ZTSN6tflite14MicroAllocatorE
 2955              		.global	_ZTIN6tflite14MicroAllocatorE
 2956              		.global	_ZTVN6tflite14MicroAllocatorE
 2957              		.weak	_ZN11flatbuffers25flatbuffer_version_stringE
 2958              		.section	.data._ZN11flatbuffers25flatbuffer_version_stringE,"aw",%progbits
 2959              		.align	2
 2962              	_ZN11flatbuffers25flatbuffer_version_stringE:
 2963 0000 00000000 		.word	.LC2
 2964              		.section	.rodata._ZN6tflite12_GLOBAL__N_1L19kZeroLengthIntArrayE,"a",%progbits
 2965              		.align	2
 2966              		.set	.LANCHOR2,. + 0
 2969              	_ZN6tflite12_GLOBAL__N_1L19kZeroLengthIntArrayE:
 2970 0000 00000000 		.space	4
 2971              		.section	.rodata._ZN6tflite12_GLOBAL__N_1L24kOfflineMemAllocMetadataE,"a",%progbits
 2972              		.align	3
 2973              		.set	.LANCHOR8,. + 0
 2976              	_ZN6tflite12_GLOBAL__N_1L24kOfflineMemAllocMetadataE:
 2977 0000 4F66666C 		.ascii	"OfflineMemoryAllocation\000"
 2977      696E654D 
 2977      656D6F72 
 2977      79416C6C 
 2977      6F636174 
 2978              		.section	.rodata._ZN6tflite14MicroAllocator25AllocateTfLiteEvalTensorsEPKNS_5ModelEPNS_19SubgraphA
 2979              		.align	2
 2980              	.LC0:
 2981 0000 69203C20 		.ascii	"i < size()\000"
 2981      73697A65 
 2981      282900
 2982 000b 00       		.space	1
 2983              	.LC1:
 2984 000c 433A2F52 		.ascii	"C:/Renesas/e2studio_2021_01_workspace_RZA2M_ANPR/AN"
 2984      656E6573 
 2984      61732F65 
 2984      32737475 
 2984      64696F5F 
 2985 003f 50525F52 		.ascii	"PR_RZA2M_EBK/src/tensorflow_lite/third_party/flatbu"
 2985      5A41324D 
 2985      5F45424B 
 2985      2F737263 
 2985      2F74656E 
 2986 0072 66666572 		.ascii	"ffers/include/flatbuffers/flatbuffers.h\000"
 2986      732F696E 
 2986      636C7564 
 2986      652F666C 
 2986      61746275 
 2987              		.section	.rodata._ZTIN6tflite12_GLOBAL__N_125MicroBuiltinDataAllocatorE,"a",%progbits
 2988              		.align	2
 2991              	_ZTIN6tflite12_GLOBAL__N_125MicroBuiltinDataAllocatorE:
 2992 0000 08000000 		.word	_ZTVN10__cxxabiv120__si_class_type_infoE+8
 2993 0004 00000000 		.word	_ZTSN6tflite12_GLOBAL__N_125MicroBuiltinDataAllocatorE
 2994 0008 00000000 		.word	_ZTIN6tflite20BuiltinDataAllocatorE
 2995              		.section	.rodata._ZTIN6tflite14MicroAllocatorE,"a",%progbits
 2996              		.align	2
 2999              	_ZTIN6tflite14MicroAllocatorE:
 3000 0000 08000000 		.word	_ZTVN10__cxxabiv117__class_type_infoE+8
 3001 0004 00000000 		.word	_ZTSN6tflite14MicroAllocatorE
 3002              		.section	.rodata._ZTSN6tflite12_GLOBAL__N_125MicroBuiltinDataAllocatorE,"a",%progbits
 3003              		.align	3
 3006              	_ZTSN6tflite12_GLOBAL__N_125MicroBuiltinDataAllocatorE:
 3007 0000 2A4E3674 		.ascii	"*N6tflite12_GLOBAL__N_125MicroBuiltinDataAllocatorE"
 3007      666C6974 
 3007      6531325F 
 3007      474C4F42 
 3007      414C5F5F 
 3008 0033 00       		.ascii	"\000"
 3009              		.section	.rodata._ZTSN6tflite14MicroAllocatorE,"a",%progbits
 3010              		.align	3
 3013              	_ZTSN6tflite14MicroAllocatorE:
 3014 0000 4E367466 		.ascii	"N6tflite14MicroAllocatorE\000"
 3014      6C697465 
 3014      31344D69 
 3014      63726F41 
 3014      6C6C6F63 
 3015              		.section	.rodata._ZTVN6tflite12_GLOBAL__N_125MicroBuiltinDataAllocatorE,"a",%progbits
 3016              		.align	3
 3017              		.set	.LANCHOR6,. + 0
 3020              	_ZTVN6tflite12_GLOBAL__N_125MicroBuiltinDataAllocatorE:
 3021 0000 00000000 		.word	0
 3022 0004 00000000 		.word	_ZTIN6tflite12_GLOBAL__N_125MicroBuiltinDataAllocatorE
 3023 0008 00000000 		.word	_ZN6tflite12_GLOBAL__N_125MicroBuiltinDataAllocator8AllocateEjj
 3024 000c 00000000 		.word	_ZN6tflite12_GLOBAL__N_125MicroBuiltinDataAllocator10DeallocateEPv
 3025 0010 00000000 		.word	_ZN6tflite12_GLOBAL__N_125MicroBuiltinDataAllocatorD1Ev
 3026 0014 00000000 		.word	_ZN6tflite12_GLOBAL__N_125MicroBuiltinDataAllocatorD0Ev
 3027              		.section	.rodata._ZTVN6tflite14MicroAllocatorE,"a",%progbits
 3028              		.align	3
 3029              		.set	.LANCHOR5,. + 0
 3032              	_ZTVN6tflite14MicroAllocatorE:
 3033 0000 00000000 		.word	0
 3034 0004 00000000 		.word	_ZTIN6tflite14MicroAllocatorE
 3035 0008 00000000 		.word	_ZN6tflite14MicroAllocator30AllocatePersistentTfLiteTensorEPKNS_5ModelEPKNS_19SubgraphAlloca
 3036 000c 00000000 		.word	_ZN6tflite14MicroAllocator24AllocateTempTfLiteTensorEPKNS_5ModelEPKNS_19SubgraphAllocationsE
 3037 0010 00000000 		.word	_ZN6tflite14MicroAllocator20ResetTempAllocationsEv
 3038 0014 00000000 		.word	_ZN6tflite14MicroAllocator24AllocatePersistentBufferEj
 3039 0018 00000000 		.word	_ZN6tflite14MicroAllocatorD1Ev
 3040 001c 00000000 		.word	_ZN6tflite14MicroAllocatorD0Ev
 3041 0020 00000000 		.word	_ZN6tflite14MicroAllocator28AllocateNodeAndRegistrationsEPKNS_5ModelEPNS_19SubgraphAllocatio
 3042 0024 00000000 		.word	_ZN6tflite14MicroAllocator25AllocateTfLiteEvalTensorsEPKNS_5ModelEPNS_19SubgraphAllocationsE
 3043 0028 00000000 		.word	_ZN6tflite14MicroAllocator17AllocateVariablesEPKNS_8SubGraphEP16TfLiteEvalTensor
 3044 002c 00000000 		.word	_ZN6tflite14MicroAllocator38AllocatePersistentTfLiteTensorInternalEv
 3045 0030 00000000 		.word	_ZN6tflite14MicroAllocator34PopulateTfLiteTensorFromFlatbufferEPKNS_5ModelEP12TfLiteTensorii
 3046 0034 00000000 		.word	_ZN6tflite14MicroAllocator22CommitStaticMemoryPlanEPKNS_5ModelEP16TfLiteEvalTensorPNS_19Scra
 3047 0038 00000000 		.word	_ZN6tflite14MicroAllocator28AllocateScratchBufferHandlesEPPNS_19ScratchBufferHandleEj
 3048              		.section	.rodata._ZZNK11flatbuffers6VectorINS_6OffsetIN6tflite6BufferEEEE3GetEmE19__PRETTY_FUNCTIO
 3049              		.align	3
 3050              		.set	.LANCHOR1,. + 0
 3053              	_ZZNK11flatbuffers6VectorINS_6OffsetIN6tflite6BufferEEEE3GetEmE19__PRETTY_FUNCTION__:
 3054 0000 666C6174 		.ascii	"flatbuffers::Vector<T>::return_type flatbuffers::Ve"
 3054      62756666 
 3054      6572733A 
 3054      3A566563 
 3054      746F723C 
 3055 0033 63746F72 		.ascii	"ctor<T>::Get(flatbuffers::uoffset_t) const [with T "
 3055      3C543E3A 
 3055      3A476574 
 3055      28666C61 
 3055      74627566 
 3056 0066 3D20666C 		.ascii	"= flatbuffers::Offset<tflite::Buffer>; flatbuffers:"
 3056      61746275 
 3056      66666572 
 3056      733A3A4F 
 3056      66667365 
 3057 0099 3A566563 		.ascii	":Vector<T>::return_type = const tflite::Buffer*; fl"
 3057      746F723C 
 3057      543E3A3A 
 3057      72657475 
 3057      726E5F74 
 3058 00cc 61746275 		.ascii	"atbuffers::uoffset_t = long unsigned int]\000"
 3058      66666572 
 3058      733A3A75 
 3058      6F666673 
 3058      65745F74 
 3059              		.section	.rodata._ZZNK11flatbuffers6VectorINS_6OffsetIN6tflite6TensorEEEE3GetEmE19__PRETTY_FUNCTIO
 3060              		.align	3
 3061              		.set	.LANCHOR0,. + 0
 3064              	_ZZNK11flatbuffers6VectorINS_6OffsetIN6tflite6TensorEEEE3GetEmE19__PRETTY_FUNCTION__:
 3065 0000 666C6174 		.ascii	"flatbuffers::Vector<T>::return_type flatbuffers::Ve"
 3065      62756666 
 3065      6572733A 
 3065      3A566563 
 3065      746F723C 
 3066 0033 63746F72 		.ascii	"ctor<T>::Get(flatbuffers::uoffset_t) const [with T "
 3066      3C543E3A 
 3066      3A476574 
 3066      28666C61 
 3066      74627566 
 3067 0066 3D20666C 		.ascii	"= flatbuffers::Offset<tflite::Tensor>; flatbuffers:"
 3067      61746275 
 3067      66666572 
 3067      733A3A4F 
 3067      66667365 
 3068 0099 3A566563 		.ascii	":Vector<T>::return_type = const tflite::Tensor*; fl"
 3068      746F723C 
 3068      543E3A3A 
 3068      72657475 
 3068      726E5F74 
 3069 00cc 61746275 		.ascii	"atbuffers::uoffset_t = long unsigned int]\000"
 3069      66666572 
 3069      733A3A75 
 3069      6F666673 
 3069      65745F74 
 3070              		.section	.rodata._ZZNK11flatbuffers6VectorINS_6OffsetIN6tflite8OperatorEEEE3GetEmE19__PRETTY_FUNCT
 3071              		.align	3
 3072              		.set	.LANCHOR7,. + 0
 3075              	_ZZNK11flatbuffers6VectorINS_6OffsetIN6tflite8OperatorEEEE3GetEmE19__PRETTY_FUNCTION__:
 3076 0000 666C6174 		.ascii	"flatbuffers::Vector<T>::return_type flatbuffers::Ve"
 3076      62756666 
 3076      6572733A 
 3076      3A566563 
 3076      746F723C 
 3077 0033 63746F72 		.ascii	"ctor<T>::Get(flatbuffers::uoffset_t) const [with T "
 3077      3C543E3A 
 3077      3A476574 
 3077      28666C61 
 3077      74627566 
 3078 0066 3D20666C 		.ascii	"= flatbuffers::Offset<tflite::Operator>; flatbuffer"
 3078      61746275 
 3078      66666572 
 3078      733A3A4F 
 3078      66667365 
 3079 0099 733A3A56 		.ascii	"s::Vector<T>::return_type = const tflite::Operator*"
 3079      6563746F 
 3079      723C543E 
 3079      3A3A7265 
 3079      7475726E 
 3080 00cc 3B20666C 		.ascii	"; flatbuffers::uoffset_t = long unsigned int]\000"
 3080      61746275 
 3080      66666572 
 3080      733A3A75 
 3080      6F666673 
 3081              		.section	.rodata._ZZNK11flatbuffers6VectorINS_6OffsetIN6tflite8SubGraphEEEE3GetEmE19__PRETTY_FUNCT
 3082              		.align	3
 3083              		.set	.LANCHOR4,. + 0
 3086              	_ZZNK11flatbuffers6VectorINS_6OffsetIN6tflite8SubGraphEEEE3GetEmE19__PRETTY_FUNCTION__:
 3087 0000 666C6174 		.ascii	"flatbuffers::Vector<T>::return_type flatbuffers::Ve"
 3087      62756666 
 3087      6572733A 
 3087      3A566563 
 3087      746F723C 
 3088 0033 63746F72 		.ascii	"ctor<T>::Get(flatbuffers::uoffset_t) const [with T "
 3088      3C543E3A 
 3088      3A476574 
 3088      28666C61 
 3088      74627566 
 3089 0066 3D20666C 		.ascii	"= flatbuffers::Offset<tflite::SubGraph>; flatbuffer"
 3089      61746275 
 3089      66666572 
 3089      733A3A4F 
 3089      66667365 
 3090 0099 733A3A56 		.ascii	"s::Vector<T>::return_type = const tflite::SubGraph*"
 3090      6563746F 
 3090      723C543E 
 3090      3A3A7265 
 3090      7475726E 
 3091 00cc 3B20666C 		.ascii	"; flatbuffers::uoffset_t = long unsigned int]\000"
 3091      61746275 
 3091      66666572 
 3091      733A3A75 
 3091      6F666673 
 3092              		.section	.rodata._ZZNK11flatbuffers6VectorIxE3GetEmE19__PRETTY_FUNCTION__,"a",%progbits
 3093              		.align	3
 3094              		.set	.LANCHOR3,. + 0
 3097              	_ZZNK11flatbuffers6VectorIxE3GetEmE19__PRETTY_FUNCTION__:
 3098 0000 666C6174 		.ascii	"flatbuffers::Vector<T>::return_type flatbuffers::Ve"
 3098      62756666 
 3098      6572733A 
 3098      3A566563 
 3098      746F723C 
 3099 0033 63746F72 		.ascii	"ctor<T>::Get(flatbuffers::uoffset_t) const [with T "
 3099      3C543E3A 
 3099      3A476574 
 3099      28666C61 
 3099      74627566 
 3100 0066 3D206C6F 		.ascii	"= long long int; flatbuffers::Vector<T>::return_typ"
 3100      6E67206C 
 3100      6F6E6720 
 3100      696E743B 
 3100      20666C61 
 3101 0099 65203D20 		.ascii	"e = long long int; flatbuffers::uoffset_t = long un"
 3101      6C6F6E67 
 3101      206C6F6E 
 3101      6720696E 
 3101      743B2066 
 3102 00cc 7369676E 		.ascii	"signed int]\000"
 3102      65642069 
 3102      6E745D00 
 3103              		.section	.rodata.str1.4,"aMS",%progbits,1
 3104              		.align	2
 3105              	.LC2:
 3106 0000 466C6174 		.ascii	"FlatBuffers 1.12.0\000"
 3106      42756666 
 3106      65727320 
 3106      312E3132 
 3106      2E3000
 3107              		.ident	"GCC: (GNU Tools for ARM Embedded Processors 6-2017-q2-update) 6.3.1 20170620 (release) [AR