   1              		.cpu cortex-a9
   2              		.eabi_attribute 28, 1
   3              		.eabi_attribute 20, 1
   4              		.eabi_attribute 21, 1
   5              		.eabi_attribute 23, 3
   6              		.eabi_attribute 24, 1
   7              		.eabi_attribute 25, 1
   8              		.eabi_attribute 26, 1
   9              		.eabi_attribute 30, 2
  10              		.eabi_attribute 34, 0
  11              		.eabi_attribute 18, 4
  12              		.file	"micro_error_reporter.cc"
  13              		.section	.text._ZN6tflite18MicroErrorReporterD2Ev,"axG",%progbits,_ZN6tflite18MicroErrorReporterD5
  14              		.align	2
  15              		.weak	_ZN6tflite18MicroErrorReporterD2Ev
  16              		.syntax unified
  17              		.arm
  18              		.fpu neon
  20              	_ZN6tflite18MicroErrorReporterD2Ev:
  21              		.fnstart
  22              	.LFB5:
  23              		@ args = 0, pretend = 0, frame = 0
  24              		@ frame_needed = 0, uses_anonymous_args = 0
  25              		@ link register save eliminated.
  26 0000 1EFF2FE1 		bx	lr
  27              		.cantunwind
  28              		.fnend
  30              		.weak	_ZN6tflite18MicroErrorReporterD1Ev
  31              		.set	_ZN6tflite18MicroErrorReporterD1Ev,_ZN6tflite18MicroErrorReporterD2Ev
  32              		.section	.text._ZN6tflite18MicroErrorReporter6ReportEPKcSt9__va_list,"ax",%progbits
  33              		.align	2
  34              		.global	_ZN6tflite18MicroErrorReporter6ReportEPKcSt9__va_list
  35              		.syntax unified
  36              		.arm
  37              		.fpu neon
  39              	_ZN6tflite18MicroErrorReporter6ReportEPKcSt9__va_list:
  40              		.fnstart
  41              	.LFB67:
  42              		@ args = 0, pretend = 0, frame = 0
  43              		@ frame_needed = 0, uses_anonymous_args = 0
  44              		@ link register save eliminated.
  45 0000 0000A0E3 		mov	r0, #0
  46 0004 1EFF2FE1 		bx	lr
  47              		.cantunwind
  48              		.fnend
  50              		.section	.text._ZN6tflite18MicroErrorReporterD0Ev,"axG",%progbits,_ZN6tflite18MicroErrorReporterD5
  51              		.align	2
  52              		.weak	_ZN6tflite18MicroErrorReporterD0Ev
  53              		.syntax unified
  54              		.arm
  55              		.fpu neon
  57              	_ZN6tflite18MicroErrorReporterD0Ev:
  58              		.fnstart
  59              	.LFB7:
  60              		@ args = 0, pretend = 0, frame = 0
  61              		@ frame_needed = 0, uses_anonymous_args = 0
  62 0000 10402DE9 		push	{r4, lr}
  63 0004 0040A0E1 		mov	r4, r0
  64 0008 FEFFFFEB 		bl	_ZdlPv
  65 000c 0400A0E1 		mov	r0, r4
  66 0010 1080BDE8 		pop	{r4, pc}
  67              		.cantunwind
  68              		.fnend
  70              		.section	.text._ZN6tflite21GetMicroErrorReporterEv,"ax",%progbits
  71              		.align	2
  72              		.global	_ZN6tflite21GetMicroErrorReporterEv
  73              		.syntax unified
  74              		.arm
  75              		.fpu neon
  77              	_ZN6tflite21GetMicroErrorReporterEv:
  78              		.fnstart
  79              	.LFB60:
  80              		@ args = 0, pretend = 0, frame = 0
  81              		@ frame_needed = 0, uses_anonymous_args = 0
  82              		@ link register save eliminated.
  83 0000 003000E3 		movw	r3, #:lower16:.LANCHOR1
  84 0004 003040E3 		movt	r3, #:upper16:.LANCHOR1
  85 0008 000093E5 		ldr	r0, [r3]
  86 000c 000050E3 		cmp	r0, #0
  87 0010 1EFF2F11 		bxne	lr
  88 0014 14109FE5 		ldr	r1, .L8
  89 0018 002000E3 		movw	r2, #:lower16:.LANCHOR0
  90 001c 002040E3 		movt	r2, #:upper16:.LANCHOR0
  91 0020 0200A0E1 		mov	r0, r2
  92 0024 002083E5 		str	r2, [r3]
  93 0028 001082E5 		str	r1, [r2]
  94 002c 1EFF2FE1 		bx	lr
  95              	.L9:
  96              		.align	2
  97              	.L8:
  98 0030 08000000 		.word	.LANCHOR2+8
  99              		.cantunwind
 100              		.fnend
 102              		.weak	_ZTSN6tflite13ErrorReporterE
 103              		.section	.rodata._ZTSN6tflite13ErrorReporterE,"aG",%progbits,_ZTSN6tflite13ErrorReporterE,comdat
 104              		.align	2
 107              	_ZTSN6tflite13ErrorReporterE:
 108 0000 4E367466 		.ascii	"N6tflite13ErrorReporterE\000"
 108      6C697465 
 108      31334572 
 108      726F7252 
 108      65706F72 
 109              		.weak	_ZTIN6tflite13ErrorReporterE
 110              		.section	.rodata._ZTIN6tflite13ErrorReporterE,"aG",%progbits,_ZTIN6tflite13ErrorReporterE,comdat
 111              		.align	2
 114              	_ZTIN6tflite13ErrorReporterE:
 115 0000 08000000 		.word	_ZTVN10__cxxabiv117__class_type_infoE+8
 116 0004 00000000 		.word	_ZTSN6tflite13ErrorReporterE
 117              		.global	_ZTSN6tflite18MicroErrorReporterE
 118              		.global	_ZTIN6tflite18MicroErrorReporterE
 119              		.global	_ZTVN6tflite18MicroErrorReporterE
 120              		.section	.bss._ZN12_GLOBAL__N_115error_reporter_E,"aw",%nobits
 121              		.align	2
 122              		.set	.LANCHOR1,. + 0
 125              	_ZN12_GLOBAL__N_115error_reporter_E:
 126 0000 00000000 		.space	4
 127              		.section	.bss._ZN12_GLOBAL__N_127micro_error_reporter_bufferE,"aw",%nobits
 128              		.align	3
 129              		.set	.LANCHOR0,. + 0
 132              	_ZN12_GLOBAL__N_127micro_error_reporter_bufferE:
 133 0000 00000000 		.space	4
 134              		.section	.rodata._ZTIN6tflite18MicroErrorReporterE,"a",%progbits
 135              		.align	2
 138              	_ZTIN6tflite18MicroErrorReporterE:
 139 0000 08000000 		.word	_ZTVN10__cxxabiv120__si_class_type_infoE+8
 140 0004 00000000 		.word	_ZTSN6tflite18MicroErrorReporterE
 141 0008 00000000 		.word	_ZTIN6tflite13ErrorReporterE
 142              		.section	.rodata._ZTSN6tflite18MicroErrorReporterE,"a",%progbits
 143              		.align	3
 146              	_ZTSN6tflite18MicroErrorReporterE:
 147 0000 4E367466 		.ascii	"N6tflite18MicroErrorReporterE\000"
 147      6C697465 
 147      31384D69 
 147      63726F45 
 147      72726F72 
 148              		.section	.rodata._ZTVN6tflite18MicroErrorReporterE,"a",%progbits
 149              		.align	3
 150              		.set	.LANCHOR2,. + 0
 153              	_ZTVN6tflite18MicroErrorReporterE:
 154 0000 00000000 		.word	0
 155 0004 00000000 		.word	_ZTIN6tflite18MicroErrorReporterE
 156 0008 00000000 		.word	_ZN6tflite18MicroErrorReporterD1Ev
 157 000c 00000000 		.word	_ZN6tflite18MicroErrorReporterD0Ev
 158 0010 00000000 		.word	_ZN6tflite18MicroErrorReporter6ReportEPKcSt9__va_list
 159              		.ident	"GCC: (GNU Tools for ARM Embedded Processors 6-2017-q2-update) 6.3.1 20170620 (release) [AR