   1              		.cpu cortex-a9
   2              		.eabi_attribute 28, 1
   3              		.eabi_attribute 20, 1
   4              		.eabi_attribute 21, 1
   5              		.eabi_attribute 23, 3
   6              		.eabi_attribute 24, 1
   7              		.eabi_attribute 25, 1
   8              		.eabi_attribute 26, 1
   9              		.eabi_attribute 30, 2
  10              		.eabi_attribute 34, 0
  11              		.eabi_attribute 18, 4
  12              		.file	"simple_memory_allocator.cc"
  13              		.section	.text._ZN6tflite21SimpleMemoryAllocatorD2Ev,"ax",%progbits
  14              		.align	2
  15              		.global	_ZN6tflite21SimpleMemoryAllocatorD2Ev
  16              		.syntax unified
  17              		.arm
  18              		.fpu neon
  20              	_ZN6tflite21SimpleMemoryAllocatorD2Ev:
  21              		.fnstart
  22              	.LFB6513:
  23              		@ args = 0, pretend = 0, frame = 0
  24              		@ frame_needed = 0, uses_anonymous_args = 0
  25              		@ link register save eliminated.
  26 0000 1EFF2FE1 		bx	lr
  27              		.cantunwind
  28              		.fnend
  30              		.global	_ZN6tflite21SimpleMemoryAllocatorD1Ev
  31              		.set	_ZN6tflite21SimpleMemoryAllocatorD1Ev,_ZN6tflite21SimpleMemoryAllocatorD2Ev
  32              		.section	.text._ZN6tflite21SimpleMemoryAllocator20ResetTempAllocationsEv,"ax",%progbits
  33              		.align	2
  34              		.global	_ZN6tflite21SimpleMemoryAllocator20ResetTempAllocationsEv
  35              		.syntax unified
  36              		.arm
  37              		.fpu neon
  39              	_ZN6tflite21SimpleMemoryAllocator20ResetTempAllocationsEv:
  40              		.fnstart
  41              	.LFB6519:
  42              		@ args = 0, pretend = 0, frame = 0
  43              		@ frame_needed = 0, uses_anonymous_args = 0
  44              		@ link register save eliminated.
  45 0000 103090E5 		ldr	r3, [r0, #16]
  46 0004 183080E5 		str	r3, [r0, #24]
  47 0008 1EFF2FE1 		bx	lr
  48              		.cantunwind
  49              		.fnend
  51              		.section	.text._ZN6tflite21SimpleMemoryAllocatorD0Ev,"ax",%progbits
  52              		.align	2
  53              		.global	_ZN6tflite21SimpleMemoryAllocatorD0Ev
  54              		.syntax unified
  55              		.arm
  56              		.fpu neon
  58              	_ZN6tflite21SimpleMemoryAllocatorD0Ev:
  59              		.fnstart
  60              	.LFB6515:
  61              		@ args = 0, pretend = 0, frame = 0
  62              		@ frame_needed = 0, uses_anonymous_args = 0
  63 0000 10402DE9 		push	{r4, lr}
  64 0004 0040A0E1 		mov	r4, r0
  65 0008 FEFFFFEB 		bl	_ZdlPv
  66 000c 0400A0E1 		mov	r0, r4
  67 0010 1080BDE8 		pop	{r4, pc}
  68              		.cantunwind
  69              		.fnend
  71              		.section	.text._ZN6tflite21SimpleMemoryAllocator12AllocateTempEjj,"ax",%progbits
  72              		.align	2
  73              		.global	_ZN6tflite21SimpleMemoryAllocator12AllocateTempEjj
  74              		.syntax unified
  75              		.arm
  76              		.fpu neon
  78              	_ZN6tflite21SimpleMemoryAllocator12AllocateTempEjj:
  79              		.fnstart
  80              	.LFB6518:
  81              		@ args = 0, pretend = 0, frame = 0
  82              		@ frame_needed = 0, uses_anonymous_args = 0
  83 0000 70402DE9 		push	{r4, r5, r6, lr}
  84              		.save {r4, r5, r6, lr}
  85 0004 0140A0E1 		mov	r4, r1
  86 0008 0050A0E1 		mov	r5, r0
  87 000c 0210A0E1 		mov	r1, r2
  88 0010 180090E5 		ldr	r0, [r0, #24]
  89 0014 FEFFFFEB 		bl	_ZN6tflite14AlignPointerUpEPhj
  90 0018 143095E5 		ldr	r3, [r5, #20]
  91 001c 003043E0 		sub	r3, r3, r0
  92 0020 040053E1 		cmp	r3, r4
  93 0024 04408020 		addcs	r4, r0, r4
  94 0028 0000A033 		movcc	r0, #0
  95 002c 18408525 		strcs	r4, [r5, #24]
  96 0030 7080BDE8 		pop	{r4, r5, r6, pc}
  97              		.fnend
  99              		.section	.text._ZN6tflite21SimpleMemoryAllocator16AllocateFromTailEjj,"ax",%progbits
 100              		.align	2
 101              		.global	_ZN6tflite21SimpleMemoryAllocator16AllocateFromTailEjj
 102              		.syntax unified
 103              		.arm
 104              		.fpu neon
 106              	_ZN6tflite21SimpleMemoryAllocator16AllocateFromTailEjj:
 107              		.fnstart
 108              	.LFB6517:
 109              		@ args = 0, pretend = 0, frame = 0
 110              		@ frame_needed = 0, uses_anonymous_args = 0
 111 0000 10402DE9 		push	{r4, lr}
 112              		.save {r4, lr}
 113 0004 0040A0E1 		mov	r4, r0
 114 0008 140090E5 		ldr	r0, [r0, #20]
 115 000c 010040E0 		sub	r0, r0, r1
 116 0010 0210A0E1 		mov	r1, r2
 117 0014 FEFFFFEB 		bl	_ZN6tflite16AlignPointerDownEPhj
 118 0018 103094E5 		ldr	r3, [r4, #16]
 119 001c 030050E1 		cmp	r0, r3
 120 0020 14008425 		strcs	r0, [r4, #20]
 121 0024 0000A033 		movcc	r0, #0
 122 0028 1080BDE8 		pop	{r4, pc}
 123              		.fnend
 125              		.section	.text._ZN6tflite21SimpleMemoryAllocator17SetHeadBufferSizeEjj,"ax",%progbits
 126              		.align	2
 127              		.global	_ZN6tflite21SimpleMemoryAllocator17SetHeadBufferSizeEjj
 128              		.syntax unified
 129              		.arm
 130              		.fpu neon
 132              	_ZN6tflite21SimpleMemoryAllocator17SetHeadBufferSizeEjj:
 133              		.fnstart
 134              	.LFB6516:
 135              		@ args = 0, pretend = 0, frame = 0
 136              		@ frame_needed = 0, uses_anonymous_args = 0
 137 0000 10C090E5 		ldr	ip, [r0, #16]
 138 0004 183090E5 		ldr	r3, [r0, #24]
 139 0008 03005CE1 		cmp	ip, r3
 140 000c 0100000A 		beq	.L22
 141 0010 0100A0E3 		mov	r0, #1
 142 0014 1EFF2FE1 		bx	lr
 143              	.L22:
 144 0018 70402DE9 		push	{r4, r5, r6, lr}
 145              		.save {r4, r5, r6, lr}
 146 001c 0150A0E1 		mov	r5, r1
 147 0020 0040A0E1 		mov	r4, r0
 148 0024 0210A0E1 		mov	r1, r2
 149 0028 080090E5 		ldr	r0, [r0, #8]
 150 002c FEFFFFEB 		bl	_ZN6tflite14AlignPointerUpEPhj
 151 0030 143094E5 		ldr	r3, [r4, #20]
 152 0034 0010A0E1 		mov	r1, r0
 153 0038 003043E0 		sub	r3, r3, r0
 154 003c 030055E1 		cmp	r5, r3
 155 0040 0400008A 		bhi	.L17
 156 0044 051081E0 		add	r1, r1, r5
 157 0048 0000A0E3 		mov	r0, #0
 158 004c 101084E5 		str	r1, [r4, #16]
 159 0050 181084E5 		str	r1, [r4, #24]
 160 0054 7080BDE8 		pop	{r4, r5, r6, pc}
 161              	.L17:
 162 0058 0100A0E3 		mov	r0, #1
 163 005c 7080BDE8 		pop	{r4, r5, r6, pc}
 164              		.fnend
 166              		.section	.text._ZN6tflite21SimpleMemoryAllocatorC2EPNS_13ErrorReporterEPhS3_,"ax",%progbits
 167              		.align	2
 168              		.global	_ZN6tflite21SimpleMemoryAllocatorC2EPNS_13ErrorReporterEPhS3_
 169              		.syntax unified
 170              		.arm
 171              		.fpu neon
 173              	_ZN6tflite21SimpleMemoryAllocatorC2EPNS_13ErrorReporterEPhS3_:
 174              		.fnstart
 175              	.LFB6503:
 176              		@ args = 0, pretend = 0, frame = 0
 177              		@ frame_needed = 0, uses_anonymous_args = 0
 178 0000 04E02DE5 		str	lr, [sp, #-4]!
 179 0004 14E09FE5 		ldr	lr, .L25
 180 0008 0E0080E9 		stmib	r0, {r1, r2, r3}
 181 000c 102080E5 		str	r2, [r0, #16]
 182 0010 143080E5 		str	r3, [r0, #20]
 183 0014 182080E5 		str	r2, [r0, #24]
 184 0018 00E080E5 		str	lr, [r0]
 185 001c 04F09DE4 		ldr	pc, [sp], #4
 186              	.L26:
 187              		.align	2
 188              	.L25:
 189 0020 08000000 		.word	.LANCHOR0+8
 190              		.cantunwind
 191              		.fnend
 193              		.global	_ZN6tflite21SimpleMemoryAllocatorC1EPNS_13ErrorReporterEPhS3_
 194              		.set	_ZN6tflite21SimpleMemoryAllocatorC1EPNS_13ErrorReporterEPhS3_,_ZN6tflite21SimpleMemoryAllocat
 195              		.section	.text._ZN6tflite21SimpleMemoryAllocatorC2EPNS_13ErrorReporterEPhj,"ax",%progbits
 196              		.align	2
 197              		.global	_ZN6tflite21SimpleMemoryAllocatorC2EPNS_13ErrorReporterEPhj
 198              		.syntax unified
 199              		.arm
 200              		.fpu neon
 202              	_ZN6tflite21SimpleMemoryAllocatorC2EPNS_13ErrorReporterEPhj:
 203              		.fnstart
 204              	.LFB6506:
 205              		@ args = 0, pretend = 0, frame = 0
 206              		@ frame_needed = 0, uses_anonymous_args = 0
 207 0000 04E02DE5 		str	lr, [sp, #-4]!
 208 0004 033082E0 		add	r3, r2, r3
 209 0008 18E09FE5 		ldr	lr, .L29
 210 000c 0C3080E5 		str	r3, [r0, #12]
 211 0010 143080E5 		str	r3, [r0, #20]
 212 0014 060080E9 		stmib	r0, {r1, r2}
 213 0018 102080E5 		str	r2, [r0, #16]
 214 001c 182080E5 		str	r2, [r0, #24]
 215 0020 00E080E5 		str	lr, [r0]
 216 0024 04F09DE4 		ldr	pc, [sp], #4
 217              	.L30:
 218              		.align	2
 219              	.L29:
 220 0028 08000000 		.word	.LANCHOR0+8
 221              		.cantunwind
 222              		.fnend
 224              		.global	_ZN6tflite21SimpleMemoryAllocatorC1EPNS_13ErrorReporterEPhj
 225              		.set	_ZN6tflite21SimpleMemoryAllocatorC1EPNS_13ErrorReporterEPhj,_ZN6tflite21SimpleMemoryAllocator
 226              		.section	.text._ZN6tflite21SimpleMemoryAllocator6CreateEPNS_13ErrorReporterEPhj,"ax",%progbits
 227              		.align	2
 228              		.global	_ZN6tflite21SimpleMemoryAllocator6CreateEPNS_13ErrorReporterEPhj
 229              		.syntax unified
 230              		.arm
 231              		.fpu neon
 233              	_ZN6tflite21SimpleMemoryAllocator6CreateEPNS_13ErrorReporterEPhj:
 234              		.fnstart
 235              	.LFB6508:
 236              		@ args = 0, pretend = 0, frame = 0
 237              		@ frame_needed = 0, uses_anonymous_args = 0
 238 0000 70402DE9 		push	{r4, r5, r6, lr}
 239              		.save {r4, r5, r6, lr}
 240 0004 006050E2 		subs	r6, r0, #0
 241 0008 1500000A 		beq	.L33
 242 000c 000051E3 		cmp	r1, #0
 243 0010 0140A0E1 		mov	r4, r1
 244 0014 1200000A 		beq	.L33
 245 0018 025081E0 		add	r5, r1, r2
 246 001c 0410A0E3 		mov	r1, #4
 247 0020 1C0045E2 		sub	r0, r5, #28
 248 0024 FEFFFFEB 		bl	_ZN6tflite16AlignPointerDownEPhj
 249 0028 000054E1 		cmp	r4, r0
 250 002c 0A00008A 		bhi	.L35
 251 0030 000050E3 		cmp	r0, #0
 252 0034 7080BD08 		popeq	{r4, r5, r6, pc}
 253 0038 28309FE5 		ldr	r3, .L43
 254 003c 046080E5 		str	r6, [r0, #4]
 255 0040 084080E5 		str	r4, [r0, #8]
 256 0044 0C5080E5 		str	r5, [r0, #12]
 257 0048 104080E5 		str	r4, [r0, #16]
 258 004c 140080E5 		str	r0, [r0, #20]
 259 0050 184080E5 		str	r4, [r0, #24]
 260 0054 003080E5 		str	r3, [r0]
 261 0058 7080BDE8 		pop	{r4, r5, r6, pc}
 262              	.L35:
 263 005c 0000A0E3 		mov	r0, #0
 264 0060 7080BDE8 		pop	{r4, r5, r6, pc}
 265              	.L33:
 266 0064 FEFFFFEB 		bl	abort
 267              	.L44:
 268              		.align	2
 269              	.L43:
 270 0068 08000000 		.word	.LANCHOR0+8
 271              		.fnend
 273              		.section	.text._ZNK6tflite21SimpleMemoryAllocator13GetHeadBufferEv,"ax",%progbits
 274              		.align	2
 275              		.global	_ZNK6tflite21SimpleMemoryAllocator13GetHeadBufferEv
 276              		.syntax unified
 277              		.arm
 278              		.fpu neon
 280              	_ZNK6tflite21SimpleMemoryAllocator13GetHeadBufferEv:
 281              		.fnstart
 282              	.LFB6520:
 283              		@ args = 0, pretend = 0, frame = 0
 284              		@ frame_needed = 0, uses_anonymous_args = 0
 285              		@ link register save eliminated.
 286 0000 080090E5 		ldr	r0, [r0, #8]
 287 0004 1EFF2FE1 		bx	lr
 288              		.cantunwind
 289              		.fnend
 291              		.section	.text._ZNK6tflite21SimpleMemoryAllocator16GetHeadUsedBytesEv,"ax",%progbits
 292              		.align	2
 293              		.global	_ZNK6tflite21SimpleMemoryAllocator16GetHeadUsedBytesEv
 294              		.syntax unified
 295              		.arm
 296              		.fpu neon
 298              	_ZNK6tflite21SimpleMemoryAllocator16GetHeadUsedBytesEv:
 299              		.fnstart
 300              	.LFB6521:
 301              		@ args = 0, pretend = 0, frame = 0
 302              		@ frame_needed = 0, uses_anonymous_args = 0
 303              		@ link register save eliminated.
 304 0000 102090E5 		ldr	r2, [r0, #16]
 305 0004 080090E5 		ldr	r0, [r0, #8]
 306 0008 000042E0 		sub	r0, r2, r0
 307 000c 1EFF2FE1 		bx	lr
 308              		.cantunwind
 309              		.fnend
 311              		.section	.text._ZNK6tflite21SimpleMemoryAllocator16GetTailUsedBytesEv,"ax",%progbits
 312              		.align	2
 313              		.global	_ZNK6tflite21SimpleMemoryAllocator16GetTailUsedBytesEv
 314              		.syntax unified
 315              		.arm
 316              		.fpu neon
 318              	_ZNK6tflite21SimpleMemoryAllocator16GetTailUsedBytesEv:
 319              		.fnstart
 320              	.LFB6522:
 321              		@ args = 0, pretend = 0, frame = 0
 322              		@ frame_needed = 0, uses_anonymous_args = 0
 323              		@ link register save eliminated.
 324 0000 0C2090E5 		ldr	r2, [r0, #12]
 325 0004 140090E5 		ldr	r0, [r0, #20]
 326 0008 000042E0 		sub	r0, r2, r0
 327 000c 1EFF2FE1 		bx	lr
 328              		.cantunwind
 329              		.fnend
 331              		.section	.text._ZNK6tflite21SimpleMemoryAllocator18GetAvailableMemoryEj,"ax",%progbits
 332              		.align	2
 333              		.global	_ZNK6tflite21SimpleMemoryAllocator18GetAvailableMemoryEj
 334              		.syntax unified
 335              		.arm
 336              		.fpu neon
 338              	_ZNK6tflite21SimpleMemoryAllocator18GetAvailableMemoryEj:
 339              		.fnstart
 340              	.LFB6523:
 341              		@ args = 0, pretend = 0, frame = 0
 342              		@ frame_needed = 0, uses_anonymous_args = 0
 343 0000 70402DE9 		push	{r4, r5, r6, lr}
 344              		.save {r4, r5, r6, lr}
 345 0004 0040A0E1 		mov	r4, r0
 346 0008 0160A0E1 		mov	r6, r1
 347 000c 180090E5 		ldr	r0, [r0, #24]
 348 0010 FEFFFFEB 		bl	_ZN6tflite14AlignPointerUpEPhj
 349 0014 0610A0E1 		mov	r1, r6
 350 0018 0050A0E1 		mov	r5, r0
 351 001c 140094E5 		ldr	r0, [r4, #20]
 352 0020 FEFFFFEB 		bl	_ZN6tflite16AlignPointerDownEPhj
 353 0024 050040E0 		sub	r0, r0, r5
 354 0028 7080BDE8 		pop	{r4, r5, r6, pc}
 355              		.fnend
 357              		.section	.text._ZNK6tflite21SimpleMemoryAllocator12GetUsedBytesEv,"ax",%progbits
 358              		.align	2
 359              		.global	_ZNK6tflite21SimpleMemoryAllocator12GetUsedBytesEv
 360              		.syntax unified
 361              		.arm
 362              		.fpu neon
 364              	_ZNK6tflite21SimpleMemoryAllocator12GetUsedBytesEv:
 365              		.fnstart
 366              	.LFB6524:
 367              		@ args = 0, pretend = 0, frame = 0
 368              		@ frame_needed = 0, uses_anonymous_args = 0
 369              		@ link register save eliminated.
 370 0000 143090E5 		ldr	r3, [r0, #20]
 371 0004 181090E5 		ldr	r1, [r0, #24]
 372 0008 0C2090E5 		ldr	r2, [r0, #12]
 373 000c 08C090E5 		ldr	ip, [r0, #8]
 374 0010 013043E0 		sub	r3, r3, r1
 375 0014 0C0042E0 		sub	r0, r2, ip
 376 0018 030040E0 		sub	r0, r0, r3
 377 001c 1EFF2FE1 		bx	lr
 378              		.cantunwind
 379              		.fnend
 381              		.section	.text._ZNK6tflite21SimpleMemoryAllocator13GetBufferSizeEv,"ax",%progbits
 382              		.align	2
 383              		.global	_ZNK6tflite21SimpleMemoryAllocator13GetBufferSizeEv
 384              		.syntax unified
 385              		.arm
 386              		.fpu neon
 388              	_ZNK6tflite21SimpleMemoryAllocator13GetBufferSizeEv:
 389              		.fnstart
 390              	.LFB6525:
 391              		@ args = 0, pretend = 0, frame = 0
 392              		@ frame_needed = 0, uses_anonymous_args = 0
 393              		@ link register save eliminated.
 394 0000 0C2090E5 		ldr	r2, [r0, #12]
 395 0004 080090E5 		ldr	r0, [r0, #8]
 396 0008 000042E0 		sub	r0, r2, r0
 397 000c 1EFF2FE1 		bx	lr
 398              		.cantunwind
 399              		.fnend
 401              		.section	.text._ZNK6tflite21SimpleMemoryAllocator4headEv,"ax",%progbits
 402              		.align	2
 403              		.global	_ZNK6tflite21SimpleMemoryAllocator4headEv
 404              		.syntax unified
 405              		.arm
 406              		.fpu neon
 408              	_ZNK6tflite21SimpleMemoryAllocator4headEv:
 409              		.fnstart
 410              	.LFB6526:
 411              		@ args = 0, pretend = 0, frame = 0
 412              		@ frame_needed = 0, uses_anonymous_args = 0
 413              		@ link register save eliminated.
 414 0000 100090E5 		ldr	r0, [r0, #16]
 415 0004 1EFF2FE1 		bx	lr
 416              		.cantunwind
 417              		.fnend
 419              		.section	.text._ZNK6tflite21SimpleMemoryAllocator4tailEv,"ax",%progbits
 420              		.align	2
 421              		.global	_ZNK6tflite21SimpleMemoryAllocator4tailEv
 422              		.syntax unified
 423              		.arm
 424              		.fpu neon
 426              	_ZNK6tflite21SimpleMemoryAllocator4tailEv:
 427              		.fnstart
 428              	.LFB6527:
 429              		@ args = 0, pretend = 0, frame = 0
 430              		@ frame_needed = 0, uses_anonymous_args = 0
 431              		@ link register save eliminated.
 432 0000 140090E5 		ldr	r0, [r0, #20]
 433 0004 1EFF2FE1 		bx	lr
 434              		.cantunwind
 435              		.fnend
 437              		.global	_ZTSN6tflite21SimpleMemoryAllocatorE
 438              		.global	_ZTIN6tflite21SimpleMemoryAllocatorE
 439              		.global	_ZTVN6tflite21SimpleMemoryAllocatorE
 440              		.weak	_ZN11flatbuffers25flatbuffer_version_stringE
 441              		.section	.data._ZN11flatbuffers25flatbuffer_version_stringE,"aw",%progbits
 442              		.align	2
 445              	_ZN11flatbuffers25flatbuffer_version_stringE:
 446 0000 00000000 		.word	.LC0
 447              		.section	.rodata._ZTIN6tflite21SimpleMemoryAllocatorE,"a",%progbits
 448              		.align	2
 451              	_ZTIN6tflite21SimpleMemoryAllocatorE:
 452 0000 08000000 		.word	_ZTVN10__cxxabiv117__class_type_infoE+8
 453 0004 00000000 		.word	_ZTSN6tflite21SimpleMemoryAllocatorE
 454              		.section	.rodata._ZTSN6tflite21SimpleMemoryAllocatorE,"a",%progbits
 455              		.align	3
 458              	_ZTSN6tflite21SimpleMemoryAllocatorE:
 459 0000 4E367466 		.ascii	"N6tflite21SimpleMemoryAllocatorE\000"
 459      6C697465 
 459      32315369 
 459      6D706C65 
 459      4D656D6F 
 460              		.section	.rodata._ZTVN6tflite21SimpleMemoryAllocatorE,"a",%progbits
 461              		.align	3
 462              		.set	.LANCHOR0,. + 0
 465              	_ZTVN6tflite21SimpleMemoryAllocatorE:
 466 0000 00000000 		.word	0
 467 0004 00000000 		.word	_ZTIN6tflite21SimpleMemoryAllocatorE
 468 0008 00000000 		.word	_ZN6tflite21SimpleMemoryAllocatorD1Ev
 469 000c 00000000 		.word	_ZN6tflite21SimpleMemoryAllocatorD0Ev
 470 0010 00000000 		.word	_ZN6tflite21SimpleMemoryAllocator17SetHeadBufferSizeEjj
 471 0014 00000000 		.word	_ZN6tflite21SimpleMemoryAllocator16AllocateFromTailEjj
 472 0018 00000000 		.word	_ZN6tflite21SimpleMemoryAllocator12AllocateTempEjj
 473 001c 00000000 		.word	_ZN6tflite21SimpleMemoryAllocator20ResetTempAllocationsEv
 474              		.section	.rodata.str1.4,"aMS",%progbits,1
 475              		.align	2
 476              	.LC0:
 477 0000 466C6174 		.ascii	"FlatBuffers 1.12.0\000"
 477      42756666 
 477      65727320 
 477      312E3132 
 477      2E3000
 478              		.ident	"GCC: (GNU Tools for ARM Embedded Processors 6-2017-q2-update) 6.3.1 20170620 (release) [AR