   1              		.cpu cortex-a9
   2              		.eabi_attribute 28, 1
   3              		.eabi_attribute 20, 1
   4              		.eabi_attribute 21, 1
   5              		.eabi_attribute 23, 3
   6              		.eabi_attribute 24, 1
   7              		.eabi_attribute 25, 1
   8              		.eabi_attribute 26, 1
   9              		.eabi_attribute 30, 2
  10              		.eabi_attribute 34, 0
  11              		.eabi_attribute 18, 4
  12              		.file	"test_helpers.cc"
  13              		.section	.text._ZN6tflite7testing12_GLOBAL__N_114StackAllocator10deallocateEPhj,"ax",%progbits
  14              		.align	2
  15              		.syntax unified
  16              		.arm
  17              		.fpu neon
  19              	_ZN6tflite7testing12_GLOBAL__N_114StackAllocator10deallocateEPhj:
  20              		.fnstart
  21              	.LFB6954:
  22              		@ args = 0, pretend = 0, frame = 0
  23              		@ frame_needed = 0, uses_anonymous_args = 0
  24              		@ link register save eliminated.
  25 0000 1EFF2FE1 		bx	lr
  26              		.cantunwind
  27              		.fnend
  29              		.section	.text._ZN6tflite7testing10MockCustom4FreeEP13TfLiteContextPv,"ax",%progbits
  30              		.align	2
  31              		.global	_ZN6tflite7testing10MockCustom4FreeEP13TfLiteContextPv
  32              		.syntax unified
  33              		.arm
  34              		.fpu neon
  36              	_ZN6tflite7testing10MockCustom4FreeEP13TfLiteContextPv:
  37              		.fnstart
  38              	.LFB6988:
  39              		@ args = 0, pretend = 0, frame = 0
  40              		@ frame_needed = 0, uses_anonymous_args = 0
  41              		@ link register save eliminated.
  42 0000 003000E3 		movw	r3, #:lower16:.LANCHOR0
  43 0004 0120A0E3 		mov	r2, #1
  44 0008 003040E3 		movt	r3, #:upper16:.LANCHOR0
  45 000c 0020C3E5 		strb	r2, [r3]
  46 0010 1EFF2FE1 		bx	lr
  47              		.cantunwind
  48              		.fnend
  50              		.section	.text._ZN6tflite7testing14MultipleInputs4FreeEP13TfLiteContextPv,"ax",%progbits
  51              		.align	2
  52              		.global	_ZN6tflite7testing14MultipleInputs4FreeEP13TfLiteContextPv
  53              		.syntax unified
  54              		.arm
  55              		.fpu neon
  57              	_ZN6tflite7testing14MultipleInputs4FreeEP13TfLiteContextPv:
  58              		.fnstart
  59              	.LFB6994:
  60              		@ args = 0, pretend = 0, frame = 0
  61              		@ frame_needed = 0, uses_anonymous_args = 0
  62              		@ link register save eliminated.
  63 0000 003000E3 		movw	r3, #:lower16:.LANCHOR1
  64 0004 0120A0E3 		mov	r2, #1
  65 0008 003040E3 		movt	r3, #:upper16:.LANCHOR1
  66 000c 0020C3E5 		strb	r2, [r3]
  67 0010 1EFF2FE1 		bx	lr
  68              		.cantunwind
  69              		.fnend
  71              		.section	.text._ZN6tflite7testing14MultipleInputs7PrepareEP13TfLiteContextP10TfLiteNode,"ax",%prog
  72              		.align	2
  73              		.global	_ZN6tflite7testing14MultipleInputs7PrepareEP13TfLiteContextP10TfLiteNode
  74              		.syntax unified
  75              		.arm
  76              		.fpu neon
  78              	_ZN6tflite7testing14MultipleInputs7PrepareEP13TfLiteContextP10TfLiteNode:
  79              		.fnstart
  80              	.LFB6995:
  81              		@ args = 0, pretend = 0, frame = 0
  82              		@ frame_needed = 0, uses_anonymous_args = 0
  83              		@ link register save eliminated.
  84 0000 0000A0E3 		mov	r0, #0
  85 0004 1EFF2FE1 		bx	lr
  86              		.cantunwind
  87              		.fnend
  89              		.section	.text._ZN6tflite7testing12_GLOBAL__N_114StackAllocatorD2Ev,"ax",%progbits
  90              		.align	2
  91              		.syntax unified
  92              		.arm
  93              		.fpu neon
  95              	_ZN6tflite7testing12_GLOBAL__N_114StackAllocatorD2Ev:
  96              		.fnstart
  97              	.LFB11427:
  98              		@ args = 0, pretend = 0, frame = 0
  99              		@ frame_needed = 0, uses_anonymous_args = 0
 100              		@ link register save eliminated.
 101 0000 1EFF2FE1 		bx	lr
 102              		.cantunwind
 103              		.fnend
 105              		.set	_ZN6tflite7testing12_GLOBAL__N_114StackAllocatorD1Ev,_ZN6tflite7testing12_GLOBAL__N_114StackA
 106              		.section	.text._ZN11flatbuffers16DefaultAllocatorD2Ev,"axG",%progbits,_ZN11flatbuffers16DefaultAll
 107              		.align	2
 108              		.weak	_ZN11flatbuffers16DefaultAllocatorD2Ev
 109              		.syntax unified
 110              		.arm
 111              		.fpu neon
 113              	_ZN11flatbuffers16DefaultAllocatorD2Ev:
 114              		.fnstart
 115              	.LFB11435:
 116              		@ args = 0, pretend = 0, frame = 0
 117              		@ frame_needed = 0, uses_anonymous_args = 0
 118              		@ link register save eliminated.
 119 0000 1EFF2FE1 		bx	lr
 120              		.cantunwind
 121              		.fnend
 123              		.weak	_ZN11flatbuffers16DefaultAllocatorD1Ev
 124              		.set	_ZN11flatbuffers16DefaultAllocatorD1Ev,_ZN11flatbuffers16DefaultAllocatorD2Ev
 125              		.section	.text._ZN6tflite7testing10MockCustom4InitEP13TfLiteContextPKcj,"ax",%progbits
 126              		.align	2
 127              		.global	_ZN6tflite7testing10MockCustom4InitEP13TfLiteContextPKcj
 128              		.syntax unified
 129              		.arm
 130              		.fpu neon
 132              	_ZN6tflite7testing10MockCustom4InitEP13TfLiteContextPKcj:
 133              		.fnstart
 134              	.LFB6987:
 135              		@ args = 0, pretend = 0, frame = 0
 136              		@ frame_needed = 0, uses_anonymous_args = 0
 137 0000 203090E5 		ldr	r3, [r0, #32]
 138 0004 000053E3 		cmp	r3, #0
 139 0008 0400001A 		bne	.L13
 140 000c 002000E3 		movw	r2, #:lower16:.LANCHOR0
 141 0010 0300A0E1 		mov	r0, r3
 142 0014 002040E3 		movt	r2, #:upper16:.LANCHOR0
 143 0018 0030C2E5 		strb	r3, [r2]
 144 001c 1EFF2FE1 		bx	lr
 145              	.L13:
 146 0020 10402DE9 		push	{r4, lr}
 147              		.save {r4, lr}
 148 0024 FEFFFFEB 		bl	abort
 149              		.fnend
 151              		.section	.text._ZN6tflite7testing14MultipleInputs4InitEP13TfLiteContextPKcj,"ax",%progbits
 152              		.align	2
 153              		.global	_ZN6tflite7testing14MultipleInputs4InitEP13TfLiteContextPKcj
 154              		.syntax unified
 155              		.arm
 156              		.fpu neon
 158              	_ZN6tflite7testing14MultipleInputs4InitEP13TfLiteContextPKcj:
 159              		.fnstart
 160              	.LFB6993:
 161              		@ args = 0, pretend = 0, frame = 0
 162              		@ frame_needed = 0, uses_anonymous_args = 0
 163 0000 203090E5 		ldr	r3, [r0, #32]
 164 0004 000053E3 		cmp	r3, #0
 165 0008 0400001A 		bne	.L19
 166 000c 002000E3 		movw	r2, #:lower16:.LANCHOR1
 167 0010 0300A0E1 		mov	r0, r3
 168 0014 002040E3 		movt	r2, #:upper16:.LANCHOR1
 169 0018 0030C2E5 		strb	r3, [r2]
 170 001c 1EFF2FE1 		bx	lr
 171              	.L19:
 172 0020 10402DE9 		push	{r4, lr}
 173              		.save {r4, lr}
 174 0024 FEFFFFEB 		bl	abort
 175              		.fnend
 177              		.section	.text._ZN6tflite7testing12_GLOBAL__N_114StackAllocator8allocateEj,"ax",%progbits
 178              		.align	2
 179              		.syntax unified
 180              		.arm
 181              		.fpu neon
 183              	_ZN6tflite7testing12_GLOBAL__N_114StackAllocator8allocateEj:
 184              		.fnstart
 185              	.LFB6953:
 186              		@ args = 0, pretend = 0, frame = 0
 187              		@ frame_needed = 0, uses_anonymous_args = 0
 188 0000 022A80E2 		add	r2, r0, #8192
 189 0004 083092E5 		ldr	r3, [r2, #8]
 190 0008 033081E0 		add	r3, r1, r3
 191 000c 020A53E3 		cmp	r3, #8192
 192 0010 0400008A 		bhi	.L25
 193 0014 040092E5 		ldr	r0, [r2, #4]
 194 0018 083082E5 		str	r3, [r2, #8]
 195 001c 011080E0 		add	r1, r0, r1
 196 0020 041082E5 		str	r1, [r2, #4]
 197 0024 1EFF2FE1 		bx	lr
 198              	.L25:
 199 0028 10402DE9 		push	{r4, lr}
 200              		.save {r4, lr}
 201 002c FEFFFFEB 		bl	abort
 202              		.fnend
 204              		.section	.text._ZN6tflite7testing16SimpleStatefulOp4InitEP13TfLiteContextPKcj,"ax",%progbits
 205              		.align	2
 206              		.global	_ZN6tflite7testing16SimpleStatefulOp4InitEP13TfLiteContextPKcj
 207              		.syntax unified
 208              		.arm
 209              		.fpu neon
 211              	_ZN6tflite7testing16SimpleStatefulOp4InitEP13TfLiteContextPKcj:
 212              		.fnstart
 213              	.LFB6979:
 214              		@ args = 0, pretend = 0, frame = 0
 215              		@ frame_needed = 0, uses_anonymous_args = 0
 216 0000 3C2090E5 		ldr	r2, [r0, #60]
 217 0004 10402DE9 		push	{r4, lr}
 218              		.save {r4, lr}
 219 0008 000052E3 		cmp	r2, #0
 220 000c 0B00001A 		bne	.L28
 221 0010 442090E5 		ldr	r2, [r0, #68]
 222 0014 000052E3 		cmp	r2, #0
 223 0018 0800001A 		bne	.L28
 224 001c 404090E5 		ldr	r4, [r0, #64]
 225 0020 000054E3 		cmp	r4, #0
 226 0024 0500001A 		bne	.L28
 227 0028 383090E5 		ldr	r3, [r0, #56]
 228 002c 0810A0E3 		mov	r1, #8
 229 0030 33FF2FE1 		blx	r3
 230 0034 004080E5 		str	r4, [r0]
 231 0038 044080E5 		str	r4, [r0, #4]
 232 003c 1080BDE8 		pop	{r4, pc}
 233              	.L28:
 234 0040 FEFFFFEB 		bl	abort
 235              		.fnend
 237              		.section	.text._ZN6tflite7testing16SimpleStatefulOp7PrepareEP13TfLiteContextP10TfLiteNode,"ax",%pr
 238              		.align	2
 239              		.global	_ZN6tflite7testing16SimpleStatefulOp7PrepareEP13TfLiteContextP10TfLiteNode
 240              		.syntax unified
 241              		.arm
 242              		.fpu neon
 244              	_ZN6tflite7testing16SimpleStatefulOp7PrepareEP13TfLiteContextP10TfLiteNode:
 245              		.fnstart
 246              	.LFB6983:
 247              		@ args = 0, pretend = 0, frame = 32
 248              		@ frame_needed = 0, uses_anonymous_args = 0
 249 0000 10C091E5 		ldr	ip, [r1, #16]
 250 0004 0020A0E3 		mov	r2, #0
 251 0008 F04F2DE9 		push	{r4, r5, r6, r7, r8, r9, r10, fp, lr}
 252              		.save {r4, r5, r6, r7, r8, r9, r10, fp, lr}
 253              		.pad #36
 254 000c 24D04DE2 		sub	sp, sp, #36
 255 0010 1C308DE2 		add	r3, sp, #28
 256 0014 04008DE5 		str	r0, [sp, #4]
 257 0018 08C08DE5 		str	ip, [sp, #8]
 258 001c FEFFFFEB 		bl	_ZN6tflite12GetInputSafeEPK13TfLiteContextPK10TfLiteNodeiPPK12TfLiteTensor
 259 0020 000050E3 		cmp	r0, #0
 260 0024 0400001A 		bne	.L53
 261 0028 1C309DE5 		ldr	r3, [sp, #28]
 262 002c 0020D3E5 		ldrb	r2, [r3]	@ zero_extendqisi2
 263 0030 030052E3 		cmp	r2, #3
 264 0034 0200000A 		beq	.L56
 265              	.L48:
 266 0038 0100A0E3 		mov	r0, #1
 267              	.L53:
 268 003c 24D08DE2 		add	sp, sp, #36
 269              		@ sp needed
 270 0040 F08FBDE8 		pop	{r4, r5, r6, r7, r8, r9, r10, fp, pc}
 271              	.L56:
 272 0044 083093E5 		ldr	r3, [r3, #8]
 273 0048 00B093E5 		ldr	fp, [r3]
 274 004c 0320A0E1 		mov	r2, r3
 275 0050 0C308DE5 		str	r3, [sp, #12]
 276 0054 00005BE3 		cmp	fp, #0
 277 0058 BA0000DA 		ble	.L32
 278 005c 08005BE3 		cmp	fp, #8
 279 0060 B40000DA 		ble	.L46
 280 0064 09304BE2 		sub	r3, fp, #9
 281 0068 0080A0E1 		mov	r8, r0
 282 006c 0730C3E3 		bic	r3, r3, #7
 283 0070 A4E082E2 		add	lr, r2, #164
 284 0074 083083E2 		add	r3, r3, #8
 285 0078 0140A0E3 		mov	r4, #1
 286 007c 0050A0E3 		mov	r5, #0
 287 0080 0390A0E1 		mov	r9, r3
 288 0084 10B08DE5 		str	fp, [sp, #16]
 289              	.L34:
 290 0088 A0201EE5 		ldr	r2, [lr, #-160]
 291 008c 088088E2 		add	r8, r8, #8
 292 0090 9CC01EE5 		ldr	ip, [lr, #-156]
 293 0094 090058E1 		cmp	r8, r9
 294 0098 98601EE5 		ldr	r6, [lr, #-152]
 295 009c 94001EE5 		ldr	r0, [lr, #-148]
 296 00a0 920501E0 		mul	r1, r2, r5
 297 00a4 C2BFA0E1 		asr	fp, r2, #31
 298 00a8 00F0DEF5 		pld	[lr]
 299 00ac 20E08EE2 		add	lr, lr, #32
 300 00b0 922483E0 		umull	r2, r3, r2, r4
 301 00b4 941B21E0 		mla	r1, r4, fp, r1
 302 00b8 CCBFA0E1 		asr	fp, ip, #31
 303 00bc 9C4285E0 		umull	r4, r5, ip, r2
 304 00c0 033081E0 		add	r3, r1, r3
 305 00c4 B0101EE5 		ldr	r1, [lr, #-176]
 306 00c8 9C0307E0 		mul	r7, ip, r3
 307 00cc C63FA0E1 		asr	r3, r6, #31
 308 00d0 927B27E0 		mla	r7, r2, fp, r7
 309 00d4 AC201EE5 		ldr	r2, [lr, #-172]
 310 00d8 C0BFA0E1 		asr	fp, r0, #31
 311 00dc 055087E0 		add	r5, r7, r5
 312 00e0 96050CE0 		mul	ip, r6, r5
 313 00e4 C15FA0E1 		asr	r5, r1, #31
 314 00e8 966487E0 		umull	r6, r7, r6, r4
 315 00ec 94C32CE0 		mla	ip, r4, r3, ip
 316 00f0 A8301EE5 		ldr	r3, [lr, #-168]
 317 00f4 A4401EE5 		ldr	r4, [lr, #-164]
 318 00f8 03A0A0E1 		mov	r10, r3
 319 00fc 07708CE0 		add	r7, ip, r7
 320 0100 90070CE0 		mul	ip, r0, r7
 321 0104 96CB2CE0 		mla	ip, r6, fp, ip
 322 0108 906687E0 		umull	r6, r7, r0, r6
 323 010c C3BFA0E1 		asr	fp, r3, #31
 324 0110 07708CE0 		add	r7, ip, r7
 325 0114 91070CE0 		mul	ip, r1, r7
 326 0118 C27FA0E1 		asr	r7, r2, #31
 327 011c 910681E0 		umull	r0, r1, r1, r6
 328 0120 96C52CE0 		mla	ip, r6, r5, ip
 329 0124 01108CE0 		add	r1, ip, r1
 330 0128 92010CE0 		mul	ip, r2, r1
 331 012c 90C72CE0 		mla	ip, r0, r7, ip
 332 0130 920081E0 		umull	r0, r1, r2, r0
 333 0134 C47FA0E1 		asr	r7, r4, #31
 334 0138 01108CE0 		add	r1, ip, r1
 335 013c 930102E0 		mul	r2, r3, r1
 336 0140 902B22E0 		mla	r2, r0, fp, r2
 337 0144 930081E0 		umull	r0, r1, r3, r0
 338 0148 011082E0 		add	r1, r2, r1
 339 014c 940103E0 		mul	r3, r4, r1
 340 0150 944085E0 		umull	r4, r5, r4, r0
 341 0154 903720E0 		mla	r0, r0, r7, r3
 342 0158 055080E0 		add	r5, r0, r5
 343 015c C9FFFF1A 		bne	.L34
 344 0160 10B09DE5 		ldr	fp, [sp, #16]
 345 0164 0C309DE5 		ldr	r3, [sp, #12]
 346              	.L33:
 347 0168 018088E2 		add	r8, r8, #1
 348 016c 080183E0 		add	r0, r3, r8, lsl #2
 349              	.L36:
 350 0170 042090E4 		ldr	r2, [r0], #4
 351 0174 08005BE1 		cmp	fp, r8
 352 0178 018088E2 		add	r8, r8, #1
 353 017c C27FA0E1 		asr	r7, r2, #31
 354 0180 940703E0 		mul	r3, r4, r7
 355 0184 923523E0 		mla	r3, r2, r5, r3
 356 0188 944285E0 		umull	r4, r5, r4, r2
 357 018c 055083E0 		add	r5, r3, r5
 358 0190 F6FFFFCA 		bgt	.L36
 359 0194 053094E1 		orrs	r3, r4, r5
 360 0198 A6FFFF0A 		beq	.L48
 361 019c 04309DE5 		ldr	r3, [sp, #4]
 362 01a0 08005BE3 		cmp	fp, #8
 363 01a4 0180A0D3 		movle	r8, #1
 364 01a8 0090A0D3 		movle	r9, #0
 365 01ac 00A0A0D3 		movle	r10, #0
 366 01b0 403093E5 		ldr	r3, [r3, #64]
 367 01b4 10308DE5 		str	r3, [sp, #16]
 368 01b8 3F0000DA 		ble	.L40
 369 01bc 09304BE2 		sub	r3, fp, #9
 370 01c0 0C209DE5 		ldr	r2, [sp, #12]
 371 01c4 0730C3E3 		bic	r3, r3, #7
 372 01c8 14B08DE5 		str	fp, [sp, #20]
 373 01cc 083083E2 		add	r3, r3, #8
 374 01d0 0180A0E3 		mov	r8, #1
 375 01d4 A4E082E2 		add	lr, r2, #164
 376 01d8 0090A0E3 		mov	r9, #0
 377 01dc 00A0A0E3 		mov	r10, #0
 378 01e0 03B0A0E1 		mov	fp, r3
 379              	.L39:
 380 01e4 A0601EE5 		ldr	r6, [lr, #-160]
 381 01e8 08A08AE2 		add	r10, r10, #8
 382 01ec 9CC01EE5 		ldr	ip, [lr, #-156]
 383 01f0 0B005AE1 		cmp	r10, fp
 384 01f4 98401EE5 		ldr	r4, [lr, #-152]
 385 01f8 94001EE5 		ldr	r0, [lr, #-148]
 386 01fc 960905E0 		mul	r5, r6, r9
 387 0200 C61FA0E1 		asr	r1, r6, #31
 388 0204 CC7FA0E1 		asr	r7, ip, #31
 389 0208 00F0DEF5 		pld	[lr]
 390 020c 962883E0 		umull	r2, r3, r6, r8
 391 0210 20E08EE2 		add	lr, lr, #32
 392 0214 985125E0 		mla	r5, r8, r1, r5
 393 0218 B0101EE5 		ldr	r1, [lr, #-176]
 394 021c A4801EE5 		ldr	r8, [lr, #-164]
 395 0220 033085E0 		add	r3, r5, r3
 396 0224 9C0305E0 		mul	r5, ip, r3
 397 0228 C43FA0E1 		asr	r3, r4, #31
 398 022c 925725E0 		mla	r5, r2, r7, r5
 399 0230 9C6287E0 		umull	r6, r7, ip, r2
 400 0234 AC201EE5 		ldr	r2, [lr, #-172]
 401 0238 077085E0 		add	r7, r5, r7
 402 023c 94070CE0 		mul	ip, r4, r7
 403 0240 C07FA0E1 		asr	r7, r0, #31
 404 0244 944685E0 		umull	r4, r5, r4, r6
 405 0248 96C32CE0 		mla	ip, r6, r3, ip
 406 024c A8301EE5 		ldr	r3, [lr, #-168]
 407 0250 05508CE0 		add	r5, ip, r5
 408 0254 90050CE0 		mul	ip, r0, r5
 409 0258 94C72CE0 		mla	ip, r4, r7, ip
 410 025c 904485E0 		umull	r4, r5, r0, r4
 411 0260 C17FA0E1 		asr	r7, r1, #31
 412 0264 05508CE0 		add	r5, ip, r5
 413 0268 91050CE0 		mul	ip, r1, r5
 414 026c C25FA0E1 		asr	r5, r2, #31
 415 0270 910481E0 		umull	r0, r1, r1, r4
 416 0274 94C72CE0 		mla	ip, r4, r7, ip
 417 0278 C37FA0E1 		asr	r7, r3, #31
 418 027c 01108CE0 		add	r1, ip, r1
 419 0280 92010CE0 		mul	ip, r2, r1
 420 0284 90C52CE0 		mla	ip, r0, r5, ip
 421 0288 920081E0 		umull	r0, r1, r2, r0
 422 028c C85FA0E1 		asr	r5, r8, #31
 423 0290 01108CE0 		add	r1, ip, r1
 424 0294 930102E0 		mul	r2, r3, r1
 425 0298 902722E0 		mla	r2, r0, r7, r2
 426 029c 930081E0 		umull	r0, r1, r3, r0
 427 02a0 011082E0 		add	r1, r2, r1
 428 02a4 980103E0 		mul	r3, r8, r1
 429 02a8 988089E0 		umull	r8, r9, r8, r0
 430 02ac 903520E0 		mla	r0, r0, r5, r3
 431 02b0 099080E0 		add	r9, r0, r9
 432 02b4 CAFFFF1A 		bne	.L39
 433 02b8 14B09DE5 		ldr	fp, [sp, #20]
 434              	.L40:
 435 02bc 0C309DE5 		ldr	r3, [sp, #12]
 436 02c0 01A08AE2 		add	r10, r10, #1
 437 02c4 0A0183E0 		add	r0, r3, r10, lsl #2
 438              	.L38:
 439 02c8 042090E4 		ldr	r2, [r0], #4
 440 02cc 0B005AE1 		cmp	r10, fp
 441 02d0 01A08AE2 		add	r10, r10, #1
 442 02d4 C25FA0E1 		asr	r5, r2, #31
 443 02d8 980503E0 		mul	r3, r8, r5
 444 02dc 923923E0 		mla	r3, r2, r9, r3
 445 02e0 988289E0 		umull	r8, r9, r8, r2
 446 02e4 099083E0 		add	r9, r3, r9
 447 02e8 F6FFFFBA 		blt	.L38
 448 02ec 0810A0E1 		mov	r1, r8
 449              	.L41:
 450 02f0 08309DE5 		ldr	r3, [sp, #8]
 451 02f4 04009DE5 		ldr	r0, [sp, #4]
 452 02f8 042083E2 		add	r2, r3, #4
 453 02fc 10309DE5 		ldr	r3, [sp, #16]
 454 0300 33FF2FE1 		blx	r3
 455 0304 004050E2 		subs	r4, r0, #0
 456 0308 0400A011 		movne	r0, r4
 457 030c 4AFFFF1A 		bne	.L53
 458 0310 04009DE5 		ldr	r0, [sp, #4]
 459 0314 0410A0E3 		mov	r1, #4
 460 0318 383090E5 		ldr	r3, [r0, #56]
 461 031c 33FF2FE1 		blx	r3
 462 0320 08209DE5 		ldr	r2, [sp, #8]
 463 0324 0030A0E1 		mov	r3, r0
 464 0328 000082E5 		str	r0, [r2]
 465 032c 0400A0E1 		mov	r0, r4
 466 0330 004083E5 		str	r4, [r3]
 467 0334 40FFFFEA 		b	.L53
 468              	.L46:
 469 0338 0080A0E1 		mov	r8, r0
 470 033c 0140A0E3 		mov	r4, #1
 471 0340 0050A0E3 		mov	r5, #0
 472 0344 87FFFFEA 		b	.L33
 473              	.L32:
 474 0348 04309DE5 		ldr	r3, [sp, #4]
 475 034c 0110A0E3 		mov	r1, #1
 476 0350 403093E5 		ldr	r3, [r3, #64]
 477 0354 10308DE5 		str	r3, [sp, #16]
 478 0358 E4FFFFEA 		b	.L41
 479              		.fnend
 481              		.section	.text._ZN6tflite7testing10MockCustom6InvokeEP13TfLiteContextP10TfLiteNode,"ax",%progbits
 482              		.align	2
 483              		.global	_ZN6tflite7testing10MockCustom6InvokeEP13TfLiteContextP10TfLiteNode
 484              		.syntax unified
 485              		.arm
 486              		.fpu neon
 488              	_ZN6tflite7testing10MockCustom6InvokeEP13TfLiteContextP10TfLiteNode:
 489              		.fnstart
 490              	.LFB6990:
 491              		@ args = 0, pretend = 0, frame = 16
 492              		@ frame_needed = 0, uses_anonymous_args = 0
 493 0000 70402DE9 		push	{r4, r5, r6, lr}
 494              		.save {r4, r5, r6, lr}
 495              		.pad #16
 496 0004 10D04DE2 		sub	sp, sp, #16
 497 0008 04308DE2 		add	r3, sp, #4
 498 000c 0020A0E3 		mov	r2, #0
 499 0010 0040A0E1 		mov	r4, r0
 500 0014 0150A0E1 		mov	r5, r1
 501 0018 FEFFFFEB 		bl	_ZN6tflite12GetInputSafeEPK13TfLiteContextPK10TfLiteNodeiPPK12TfLiteTensor
 502 001c 000050E3 		cmp	r0, #0
 503 0020 0100000A 		beq	.L63
 504              	.L58:
 505 0024 10D08DE2 		add	sp, sp, #16
 506              		@ sp needed
 507 0028 7080BDE8 		pop	{r4, r5, r6, pc}
 508              	.L63:
 509 002c 04C09DE5 		ldr	ip, [sp, #4]
 510 0030 0120A0E3 		mov	r2, #1
 511 0034 08308DE2 		add	r3, sp, #8
 512 0038 0510A0E1 		mov	r1, r5
 513 003c 0400A0E1 		mov	r0, r4
 514 0040 04609CE5 		ldr	r6, [ip, #4]
 515 0044 FEFFFFEB 		bl	_ZN6tflite12GetInputSafeEPK13TfLiteContextPK10TfLiteNodeiPPK12TfLiteTensor
 516 0048 002050E2 		subs	r2, r0, #0
 517 004c 0200A011 		movne	r0, r2
 518 0050 F3FFFF1A 		bne	.L58
 519 0054 08C09DE5 		ldr	ip, [sp, #8]
 520 0058 0510A0E1 		mov	r1, r5
 521 005c 0C308DE2 		add	r3, sp, #12
 522 0060 0400A0E1 		mov	r0, r4
 523 0064 04409CE5 		ldr	r4, [ip, #4]
 524 0068 FEFFFFEB 		bl	_ZN6tflite13GetOutputSafeEPK13TfLiteContextPK10TfLiteNodeiPP12TfLiteTensor
 525 006c 003050E2 		subs	r3, r0, #0
 526 0070 0C209D05 		ldreq	r2, [sp, #12]
 527 0074 0300A001 		moveq	r0, r3
 528 0078 0300A011 		movne	r0, r3
 529 007c 04209205 		ldreq	r2, [r2, #4]
 530 0080 00308205 		streq	r3, [r2]
 531 0084 0010D405 		ldrbeq	r1, [r4]	@ zero_extendqisi2
 532 0088 00309605 		ldreq	r3, [r6]
 533 008c 01308300 		addeq	r3, r3, r1
 534 0090 00308205 		streq	r3, [r2]
 535 0094 10D08DE2 		add	sp, sp, #16
 536              		@ sp needed
 537 0098 7080BDE8 		pop	{r4, r5, r6, pc}
 538              		.fnend
 540              		.section	.text._ZN6tflite7testing14MultipleInputs6InvokeEP13TfLiteContextP10TfLiteNode,"ax",%progb
 541              		.align	2
 542              		.global	_ZN6tflite7testing14MultipleInputs6InvokeEP13TfLiteContextP10TfLiteNode
 543              		.syntax unified
 544              		.arm
 545              		.fpu neon
 547              	_ZN6tflite7testing14MultipleInputs6InvokeEP13TfLiteContextP10TfLiteNode:
 548              		.fnstart
 549              	.LFB6996:
 550              		@ args = 0, pretend = 0, frame = 16
 551              		@ frame_needed = 0, uses_anonymous_args = 0
 552 0000 F0402DE9 		push	{r4, r5, r6, r7, lr}
 553              		.save {r4, r5, r6, r7, lr}
 554              		.pad #20
 555 0004 14D04DE2 		sub	sp, sp, #20
 556 0008 0D30A0E1 		mov	r3, sp
 557 000c 0020A0E3 		mov	r2, #0
 558 0010 0040A0E1 		mov	r4, r0
 559 0014 0150A0E1 		mov	r5, r1
 560 0018 FEFFFFEB 		bl	_ZN6tflite12GetInputSafeEPK13TfLiteContextPK10TfLiteNodeiPPK12TfLiteTensor
 561 001c 000050E3 		cmp	r0, #0
 562 0020 0100000A 		beq	.L71
 563              	.L65:
 564 0024 14D08DE2 		add	sp, sp, #20
 565              		@ sp needed
 566 0028 F080BDE8 		pop	{r4, r5, r6, r7, pc}
 567              	.L71:
 568 002c 00C09DE5 		ldr	ip, [sp]
 569 0030 04308DE2 		add	r3, sp, #4
 570 0034 0120A0E3 		mov	r2, #1
 571 0038 0510A0E1 		mov	r1, r5
 572 003c 0400A0E1 		mov	r0, r4
 573 0040 04609CE5 		ldr	r6, [ip, #4]
 574 0044 FEFFFFEB 		bl	_ZN6tflite12GetInputSafeEPK13TfLiteContextPK10TfLiteNodeiPPK12TfLiteTensor
 575 0048 000050E3 		cmp	r0, #0
 576 004c F4FFFF1A 		bne	.L65
 577 0050 04C09DE5 		ldr	ip, [sp, #4]
 578 0054 0220A0E3 		mov	r2, #2
 579 0058 08308DE2 		add	r3, sp, #8
 580 005c 0510A0E1 		mov	r1, r5
 581 0060 0400A0E1 		mov	r0, r4
 582 0064 04709CE5 		ldr	r7, [ip, #4]
 583 0068 FEFFFFEB 		bl	_ZN6tflite12GetInputSafeEPK13TfLiteContextPK10TfLiteNodeiPPK12TfLiteTensor
 584 006c 002050E2 		subs	r2, r0, #0
 585 0070 0200A011 		movne	r0, r2
 586 0074 EAFFFF1A 		bne	.L65
 587 0078 08C09DE5 		ldr	ip, [sp, #8]
 588 007c 0400A0E1 		mov	r0, r4
 589 0080 0C308DE2 		add	r3, sp, #12
 590 0084 0510A0E1 		mov	r1, r5
 591 0088 04409CE5 		ldr	r4, [ip, #4]
 592 008c FEFFFFEB 		bl	_ZN6tflite13GetOutputSafeEPK13TfLiteContextPK10TfLiteNodeiPP12TfLiteTensor
 593 0090 003050E2 		subs	r3, r0, #0
 594 0094 0300A011 		movne	r0, r3
 595 0098 E1FFFF1A 		bne	.L65
 596 009c 0C209DE5 		ldr	r2, [sp, #12]
 597 00a0 0300A0E1 		mov	r0, r3
 598 00a4 042092E5 		ldr	r2, [r2, #4]
 599 00a8 003082E5 		str	r3, [r2]
 600 00ac 003096E5 		ldr	r3, [r6]
 601 00b0 00C097E5 		ldr	ip, [r7]
 602 00b4 001094E5 		ldr	r1, [r4]
 603 00b8 0C3083E0 		add	r3, r3, ip
 604 00bc 013083E0 		add	r3, r3, r1
 605 00c0 003082E5 		str	r3, [r2]
 606 00c4 D6FFFFEA 		b	.L65
 607              		.fnend
 609              		.section	.text._ZN6tflite7testing16SimpleStatefulOp6InvokeEP13TfLiteContextP10TfLiteNode,"ax",%pro
 610              		.align	2
 611              		.global	_ZN6tflite7testing16SimpleStatefulOp6InvokeEP13TfLiteContextP10TfLiteNode
 612              		.syntax unified
 613              		.arm
 614              		.fpu neon
 616              	_ZN6tflite7testing16SimpleStatefulOp6InvokeEP13TfLiteContextP10TfLiteNode:
 617              		.fnstart
 618              	.LFB6984:
 619              		@ args = 0, pretend = 0, frame = 48
 620              		@ frame_needed = 0, uses_anonymous_args = 0
 621 0000 102091E5 		ldr	r2, [r1, #16]
 622 0004 F04F2DE9 		push	{r4, r5, r6, r7, r8, r9, r10, fp, lr}
 623              		.save {r4, r5, r6, r7, r8, r9, r10, fp, lr}
 624              		.pad #52
 625 0008 34D04DE2 		sub	sp, sp, #52
 626 000c 24308DE2 		add	r3, sp, #36
 627 0010 0C108DE5 		str	r1, [sp, #12]
 628 0014 02C0A0E1 		mov	ip, r2
 629 0018 00E09CE5 		ldr	lr, [ip]
 630 001c 10208DE5 		str	r2, [sp, #16]
 631 0020 0020A0E3 		mov	r2, #0
 632 0024 08008DE5 		str	r0, [sp, #8]
 633 0028 00C09EE5 		ldr	ip, [lr]
 634 002c 01C08CE2 		add	ip, ip, #1
 635 0030 00C08EE5 		str	ip, [lr]
 636 0034 FEFFFFEB 		bl	_ZN6tflite12GetInputSafeEPK13TfLiteContextPK10TfLiteNodeiPPK12TfLiteTensor
 637 0038 000050E3 		cmp	r0, #0
 638 003c F800001A 		bne	.L112
 639 0040 24309DE5 		ldr	r3, [sp, #36]
 640 0044 000053E3 		cmp	r3, #0
 641 0048 04209315 		ldrne	r2, [r3, #4]
 642 004c 14308D05 		streq	r3, [sp, #20]
 643 0050 083093E5 		ldr	r3, [r3, #8]
 644 0054 14208D15 		strne	r2, [sp, #20]
 645 0058 18308DE5 		str	r3, [sp, #24]
 646 005c 0320A0E1 		mov	r2, r3
 647 0060 003093E5 		ldr	r3, [r3]
 648 0064 000053E3 		cmp	r3, #0
 649 0068 1C308DE5 		str	r3, [sp, #28]
 650 006c FC0000DA 		ble	.L75
 651 0070 080053E3 		cmp	r3, #8
 652 0074 020100DA 		ble	.L99
 653 0078 093043E2 		sub	r3, r3, #9
 654 007c A4E082E2 		add	lr, r2, #164
 655 0080 0730C3E3 		bic	r3, r3, #7
 656 0084 01A0A0E3 		mov	r10, #1
 657 0088 00B0A0E3 		mov	fp, #0
 658 008c 0080A0E3 		mov	r8, #0
 659 0090 083083E2 		add	r3, r3, #8
 660 0094 04308DE5 		str	r3, [sp, #4]
 661              	.L77:
 662 0098 A0201EE5 		ldr	r2, [lr, #-160]
 663 009c 088088E2 		add	r8, r8, #8
 664 00a0 04309DE5 		ldr	r3, [sp, #4]
 665 00a4 9C401EE5 		ldr	r4, [lr, #-156]
 666 00a8 94001EE5 		ldr	r0, [lr, #-148]
 667 00ac 920B01E0 		mul	r1, r2, fp
 668 00b0 C27FA0E1 		asr	r7, r2, #31
 669 00b4 030058E1 		cmp	r8, r3
 670 00b8 00F0DEF5 		pld	[lr]
 671 00bc 922A83E0 		umull	r2, r3, r2, r10
 672 00c0 20E08EE2 		add	lr, lr, #32
 673 00c4 9A172AE0 		mla	r10, r10, r7, r1
 674 00c8 B8101EE5 		ldr	r1, [lr, #-184]
 675 00cc C47FA0E1 		asr	r7, r4, #31
 676 00d0 03308AE0 		add	r3, r10, r3
 677 00d4 A4A01EE5 		ldr	r10, [lr, #-164]
 678 00d8 94030CE0 		mul	ip, r4, r3
 679 00dc B0301EE5 		ldr	r3, [lr, #-176]
 680 00e0 944285E0 		umull	r4, r5, r4, r2
 681 00e4 92C72CE0 		mla	ip, r2, r7, ip
 682 00e8 AC201EE5 		ldr	r2, [lr, #-172]
 683 00ec C17FA0E1 		asr	r7, r1, #31
 684 00f0 05508CE0 		add	r5, ip, r5
 685 00f4 A8C01EE5 		ldr	ip, [lr, #-168]
 686 00f8 910509E0 		mul	r9, r1, r5
 687 00fc 949729E0 		mla	r9, r4, r7, r9
 688 0100 914485E0 		umull	r4, r5, r1, r4
 689 0104 C07FA0E1 		asr	r7, r0, #31
 690 0108 055089E0 		add	r5, r9, r5
 691 010c 900506E0 		mul	r6, r0, r5
 692 0110 C35FA0E1 		asr	r5, r3, #31
 693 0114 900481E0 		umull	r0, r1, r0, r4
 694 0118 946726E0 		mla	r6, r4, r7, r6
 695 011c C27FA0E1 		asr	r7, r2, #31
 696 0120 011086E0 		add	r1, r6, r1
 697 0124 930109E0 		mul	r9, r3, r1
 698 0128 909529E0 		mla	r9, r0, r5, r9
 699 012c 930081E0 		umull	r0, r1, r3, r0
 700 0130 CC5FA0E1 		asr	r5, ip, #31
 701 0134 011089E0 		add	r1, r9, r1
 702 0138 920104E0 		mul	r4, r2, r1
 703 013c CA1FA0E1 		asr	r1, r10, #31
 704 0140 922083E0 		umull	r2, r3, r2, r0
 705 0144 904724E0 		mla	r4, r0, r7, r4
 706 0148 033084E0 		add	r3, r4, r3
 707 014c 9C0300E0 		mul	r0, ip, r3
 708 0150 920520E0 		mla	r0, r2, r5, r0
 709 0154 9C2283E0 		umull	r2, r3, ip, r2
 710 0158 033080E0 		add	r3, r0, r3
 711 015c 9A030CE0 		mul	ip, r10, r3
 712 0160 9AA28BE0 		umull	r10, fp, r10, r2
 713 0164 92C122E0 		mla	r2, r2, r1, ip
 714 0168 0BB082E0 		add	fp, r2, fp
 715 016c C9FFFF1A 		bne	.L77
 716 0170 18309DE5 		ldr	r3, [sp, #24]
 717              	.L76:
 718 0174 018088E2 		add	r8, r8, #1
 719 0178 1C109DE5 		ldr	r1, [sp, #28]
 720 017c 080183E0 		add	r0, r3, r8, lsl #2
 721 0180 000000EA 		b	.L78
 722              	.L115:
 723 0184 018088E2 		add	r8, r8, #1
 724              	.L78:
 725 0188 042090E4 		ldr	r2, [r0], #4
 726 018c 080051E1 		cmp	r1, r8
 727 0190 C25FA0E1 		asr	r5, r2, #31
 728 0194 9A0503E0 		mul	r3, r10, r5
 729 0198 923B23E0 		mla	r3, r2, fp, r3
 730 019c 9AA28BE0 		umull	r10, fp, r10, r2
 731 01a0 0BB083E0 		add	fp, r3, fp
 732 01a4 F6FFFFCA 		bgt	.L115
 733 01a8 08009DE5 		ldr	r0, [sp, #8]
 734 01ac 0A50A0E1 		mov	r5, r10
 735 01b0 10209DE5 		ldr	r2, [sp, #16]
 736 01b4 443090E5 		ldr	r3, [r0, #68]
 737 01b8 041092E5 		ldr	r1, [r2, #4]
 738 01bc 33FF2FE1 		blx	r3
 739 01c0 00005AE3 		cmp	r10, #0
 740 01c4 0040A0E1 		mov	r4, r0
 741 01c8 790000DA 		ble	.L87
 742              	.L79:
 743 01cc 14109DE5 		ldr	r1, [sp, #20]
 744 01d0 103084E2 		add	r3, r4, #16
 745 01d4 102081E2 		add	r2, r1, #16
 746 01d8 020054E1 		cmp	r4, r2
 747 01dc 03005131 		cmpcc	r1, r3
 748 01e0 012084E1 		orr	r2, r4, r1
 749 01e4 0130A023 		movcs	r3, #1
 750 01e8 0030A033 		movcc	r3, #0
 751 01ec 0F0055E3 		cmp	r5, #15
 752 01f0 0030A093 		movls	r3, #0
 753 01f4 01300382 		andhi	r3, r3, #1
 754 01f8 0F0012E3 		tst	r2, #15
 755 01fc 0030A013 		movne	r3, #0
 756 0200 01300302 		andeq	r3, r3, #1
 757 0204 000053E3 		cmp	r3, #0
 758 0208 8B00000A 		beq	.L81
 759 020c 102045E2 		sub	r2, r5, #16
 760 0210 0F0055E3 		cmp	r5, #15
 761 0214 2222A0E1 		lsr	r2, r2, #4
 762 0218 012082E2 		add	r2, r2, #1
 763 021c 0232A0E1 		lsl	r3, r2, #4
 764 0220 8D0000DA 		ble	.L101
 765 0224 01C0A0E1 		mov	ip, r1
 766 0228 0400A0E1 		mov	r0, r4
 767 022c 0010A0E3 		mov	r1, #0
 768              	.L84:
 769 0230 011081E2 		add	r1, r1, #1
 770 0234 DF0A6CF4 		vld1.64	{d16-d17}, [ip:64]
 771 0238 010052E1 		cmp	r2, r1
 772 023c 10C08CE2 		add	ip, ip, #16
 773 0240 DF0A40F4 		vst1.64	{d16-d17}, [r0:64]
 774 0244 100080E2 		add	r0, r0, #16
 775 0248 F8FFFF8A 		bhi	.L84
 776 024c 050053E1 		cmp	r3, r5
 777 0250 4700000A 		beq	.L89
 778              	.L82:
 779 0254 14C09DE5 		ldr	ip, [sp, #20]
 780 0258 012083E2 		add	r2, r3, #1
 781 025c 050052E1 		cmp	r2, r5
 782 0260 0310DCE7 		ldrb	r1, [ip, r3]	@ zero_extendqisi2
 783 0264 0310C4E7 		strb	r1, [r4, r3]
 784 0268 410000AA 		bge	.L89
 785 026c 0200DCE7 		ldrb	r0, [ip, r2]	@ zero_extendqisi2
 786 0270 021083E2 		add	r1, r3, #2
 787 0274 010055E1 		cmp	r5, r1
 788 0278 0200C4E7 		strb	r0, [r4, r2]
 789 027c 3C0000DA 		ble	.L89
 790 0280 0100DCE7 		ldrb	r0, [ip, r1]	@ zero_extendqisi2
 791 0284 032083E2 		add	r2, r3, #3
 792 0288 020055E1 		cmp	r5, r2
 793 028c 0100C4E7 		strb	r0, [r4, r1]
 794 0290 370000DA 		ble	.L89
 795 0294 0200DCE7 		ldrb	r0, [ip, r2]	@ zero_extendqisi2
 796 0298 041083E2 		add	r1, r3, #4
 797 029c 010055E1 		cmp	r5, r1
 798 02a0 0200C4E7 		strb	r0, [r4, r2]
 799 02a4 320000DA 		ble	.L89
 800 02a8 0100DCE7 		ldrb	r0, [ip, r1]	@ zero_extendqisi2
 801 02ac 052083E2 		add	r2, r3, #5
 802 02b0 020055E1 		cmp	r5, r2
 803 02b4 0100C4E7 		strb	r0, [r4, r1]
 804 02b8 2D0000DA 		ble	.L89
 805 02bc 0200DCE7 		ldrb	r0, [ip, r2]	@ zero_extendqisi2
 806 02c0 061083E2 		add	r1, r3, #6
 807 02c4 010055E1 		cmp	r5, r1
 808 02c8 0200C4E7 		strb	r0, [r4, r2]
 809 02cc 280000DA 		ble	.L89
 810 02d0 0100DCE7 		ldrb	r0, [ip, r1]	@ zero_extendqisi2
 811 02d4 072083E2 		add	r2, r3, #7
 812 02d8 020055E1 		cmp	r5, r2
 813 02dc 0100C4E7 		strb	r0, [r4, r1]
 814 02e0 230000DA 		ble	.L89
 815 02e4 0200DCE7 		ldrb	r0, [ip, r2]	@ zero_extendqisi2
 816 02e8 081083E2 		add	r1, r3, #8
 817 02ec 010055E1 		cmp	r5, r1
 818 02f0 0200C4E7 		strb	r0, [r4, r2]
 819 02f4 1E0000DA 		ble	.L89
 820 02f8 0100DCE7 		ldrb	r0, [ip, r1]	@ zero_extendqisi2
 821 02fc 092083E2 		add	r2, r3, #9
 822 0300 020055E1 		cmp	r5, r2
 823 0304 0100C4E7 		strb	r0, [r4, r1]
 824 0308 190000DA 		ble	.L89
 825 030c 0200DCE7 		ldrb	r0, [ip, r2]	@ zero_extendqisi2
 826 0310 0A1083E2 		add	r1, r3, #10
 827 0314 010055E1 		cmp	r5, r1
 828 0318 0200C4E7 		strb	r0, [r4, r2]
 829 031c 140000DA 		ble	.L89
 830 0320 0100DCE7 		ldrb	r0, [ip, r1]	@ zero_extendqisi2
 831 0324 0B2083E2 		add	r2, r3, #11
 832 0328 020055E1 		cmp	r5, r2
 833 032c 0100C4E7 		strb	r0, [r4, r1]
 834 0330 0F0000DA 		ble	.L89
 835 0334 0200DCE7 		ldrb	r0, [ip, r2]	@ zero_extendqisi2
 836 0338 0C1083E2 		add	r1, r3, #12
 837 033c 010055E1 		cmp	r5, r1
 838 0340 0200C4E7 		strb	r0, [r4, r2]
 839 0344 0A0000DA 		ble	.L89
 840 0348 0100DCE7 		ldrb	r0, [ip, r1]	@ zero_extendqisi2
 841 034c 0D2083E2 		add	r2, r3, #13
 842 0350 020055E1 		cmp	r5, r2
 843 0354 0100C4E7 		strb	r0, [r4, r1]
 844 0358 050000DA 		ble	.L89
 845 035c 0E3083E2 		add	r3, r3, #14
 846 0360 0210DCE7 		ldrb	r1, [ip, r2]	@ zero_extendqisi2
 847 0364 030055E1 		cmp	r5, r3
 848 0368 0210C4E7 		strb	r1, [r4, r2]
 849 036c 0320DCC7 		ldrbgt	r2, [ip, r3]	@ zero_extendqisi2
 850 0370 0320C4C7 		strbgt	r2, [r4, r3]
 851              	.L89:
 852 0374 010055E3 		cmp	r5, #1
 853 0378 010084C2 		addgt	r0, r4, #1
 854 037c 05C084C0 		addgt	ip, r4, r5
 855 0380 0B0000DA 		ble	.L87
 856              	.L92:
 857 0384 0030A0E1 		mov	r3, r0
 858              	.L94:
 859 0388 0020D3E5 		ldrb	r2, [r3]	@ zero_extendqisi2
 860 038c 011053E5 		ldrb	r1, [r3, #-1]	@ zero_extendqisi2
 861 0390 010052E1 		cmp	r2, r1
 862 0394 030000AA 		bge	.L93
 863 0398 0010C3E5 		strb	r1, [r3]
 864 039c 012063E5 		strb	r2, [r3, #-1]!
 865 03a0 030054E1 		cmp	r4, r3
 866 03a4 F7FFFF1A 		bne	.L94
 867              	.L93:
 868 03a8 010080E2 		add	r0, r0, #1
 869 03ac 0C0050E1 		cmp	r0, ip
 870 03b0 F3FFFF1A 		bne	.L92
 871              	.L87:
 872 03b4 28308DE2 		add	r3, sp, #40
 873 03b8 0020A0E3 		mov	r2, #0
 874 03bc 0C109DE5 		ldr	r1, [sp, #12]
 875 03c0 08009DE5 		ldr	r0, [sp, #8]
 876 03c4 FEFFFFEB 		bl	_ZN6tflite13GetOutputSafeEPK13TfLiteContextPK10TfLiteNodeiPP12TfLiteTensor
 877 03c8 000050E3 		cmp	r0, #0
 878 03cc 1400001A 		bne	.L112
 879 03d0 28609DE5 		ldr	r6, [sp, #40]
 880 03d4 2C308DE2 		add	r3, sp, #44
 881 03d8 0C109DE5 		ldr	r1, [sp, #12]
 882 03dc 0120A0E3 		mov	r2, #1
 883 03e0 08009DE5 		ldr	r0, [sp, #8]
 884 03e4 000056E3 		cmp	r6, #0
 885 03e8 04609615 		ldrne	r6, [r6, #4]
 886 03ec FEFFFFEB 		bl	_ZN6tflite13GetOutputSafeEPK13TfLiteContextPK10TfLiteNodeiPP12TfLiteTensor
 887 03f0 000050E3 		cmp	r0, #0
 888 03f4 0A00001A 		bne	.L112
 889 03f8 2C309DE5 		ldr	r3, [sp, #44]
 890 03fc A55F85E0 		add	r5, r5, r5, lsr #31
 891 0400 000053E3 		cmp	r3, #0
 892 0404 0800000A 		beq	.L96
 893 0408 C520D4E7 		ldrb	r2, [r4, r5, asr #1]	@ zero_extendqisi2
 894 040c 043093E5 		ldr	r3, [r3, #4]
 895 0410 0020C6E5 		strb	r2, [r6]
 896 0414 10209DE5 		ldr	r2, [sp, #16]
 897 0418 002092E5 		ldr	r2, [r2]
 898 041c 002092E5 		ldr	r2, [r2]
 899 0420 002083E5 		str	r2, [r3]
 900              	.L112:
 901 0424 34D08DE2 		add	sp, sp, #52
 902              		@ sp needed
 903 0428 F08FBDE8 		pop	{r4, r5, r6, r7, r8, r9, r10, fp, pc}
 904              	.L96:
 905 042c C520D4E7 		ldrb	r2, [r4, r5, asr #1]	@ zero_extendqisi2
 906 0430 0020C6E5 		strb	r2, [r6]
 907 0434 003083E5 		str	r3, [r3]
 908 0438 F000F0E7 		.inst	0xe7f000f0
 909              	.L81:
 910 043c 011041E2 		sub	r1, r1, #1
 911 0440 012044E2 		sub	r2, r4, #1
 912              	.L90:
 913 0444 013083E2 		add	r3, r3, #1
 914 0448 0100F1E5 		ldrb	r0, [r1, #1]!	@ zero_extendqisi2
 915 044c 030055E1 		cmp	r5, r3
 916 0450 0100E2E5 		strb	r0, [r2, #1]!
 917 0454 FAFFFFCA 		bgt	.L90
 918 0458 C5FFFFEA 		b	.L89
 919              	.L101:
 920 045c 0030A0E3 		mov	r3, #0
 921 0460 7BFFFFEA 		b	.L82
 922              	.L75:
 923 0464 08009DE5 		ldr	r0, [sp, #8]
 924 0468 0150A0E3 		mov	r5, #1
 925 046c 10209DE5 		ldr	r2, [sp, #16]
 926 0470 443090E5 		ldr	r3, [r0, #68]
 927 0474 041092E5 		ldr	r1, [r2, #4]
 928 0478 33FF2FE1 		blx	r3
 929 047c 0040A0E1 		mov	r4, r0
 930 0480 51FFFFEA 		b	.L79
 931              	.L99:
 932 0484 01A0A0E3 		mov	r10, #1
 933 0488 00B0A0E3 		mov	fp, #0
 934 048c 0080A0E3 		mov	r8, #0
 935 0490 0230A0E1 		mov	r3, r2
 936 0494 36FFFFEA 		b	.L76
 937              		.fnend
 939              		.section	.text._ZNK6tflite22MicroMutableOpResolverILj128EE6FindOpEPKc,"axG",%progbits,_ZNK6tflite2
 940              		.align	2
 941              		.weak	_ZNK6tflite22MicroMutableOpResolverILj128EE6FindOpEPKc
 942              		.syntax unified
 943              		.arm
 944              		.fpu neon
 946              	_ZNK6tflite22MicroMutableOpResolverILj128EE6FindOpEPKc:
 947              		.fnstart
 948              	.LFB9538:
 949              		@ args = 0, pretend = 0, frame = 0
 950              		@ frame_needed = 0, uses_anonymous_args = 0
 951 0000 013A80E2 		add	r3, r0, #4096
 952 0004 F0412DE9 		push	{r4, r5, r6, r7, r8, lr}
 953 0008 046093E5 		ldr	r6, [r3, #4]
 954 000c 000056E3 		cmp	r6, #0
 955 0010 1300000A 		beq	.L123
 956 0014 0170A0E1 		mov	r7, r1
 957 0018 0080A0E1 		mov	r8, r0
 958 001c 0040A0E1 		mov	r4, r0
 959 0020 0050A0E3 		mov	r5, #0
 960 0024 030000EA 		b	.L119
 961              	.L118:
 962 0028 015085E2 		add	r5, r5, #1
 963 002c 204084E2 		add	r4, r4, #32
 964 0030 060055E1 		cmp	r5, r6
 965 0034 0A00000A 		beq	.L123
 966              	.L119:
 967 0038 183094E5 		ldr	r3, [r4, #24]
 968 003c 200053E3 		cmp	r3, #32
 969 0040 F8FFFF1A 		bne	.L118
 970 0044 0710A0E1 		mov	r1, r7
 971 0048 1C0094E5 		ldr	r0, [r4, #28]
 972 004c FEFFFFEB 		bl	strcmp
 973 0050 000050E3 		cmp	r0, #0
 974 0054 F3FFFF1A 		bne	.L118
 975 0058 850288E0 		add	r0, r8, r5, lsl #5
 976 005c 040080E2 		add	r0, r0, #4
 977 0060 F081BDE8 		pop	{r4, r5, r6, r7, r8, pc}
 978              	.L123:
 979 0064 0000A0E3 		mov	r0, #0
 980 0068 F081BDE8 		pop	{r4, r5, r6, r7, r8, pc}
 981              		.cantunwind
 982              		.fnend
 984              		.section	.text._ZN6tflite7testing12_GLOBAL__N_114StackAllocatorD0Ev,"ax",%progbits
 985              		.align	2
 986              		.syntax unified
 987              		.arm
 988              		.fpu neon
 990              	_ZN6tflite7testing12_GLOBAL__N_114StackAllocatorD0Ev:
 991              		.fnstart
 992              	.LFB11429:
 993              		@ args = 0, pretend = 0, frame = 0
 994              		@ frame_needed = 0, uses_anonymous_args = 0
 995 0000 10402DE9 		push	{r4, lr}
 996 0004 0040A0E1 		mov	r4, r0
 997 0008 FEFFFFEB 		bl	_ZdlPv
 998 000c 0400A0E1 		mov	r0, r4
 999 0010 1080BDE8 		pop	{r4, pc}
 1000              		.cantunwind
 1001              		.fnend
 1003              		.section	.text._ZN11flatbuffers16DefaultAllocatorD0Ev,"axG",%progbits,_ZN11flatbuffers16DefaultAll
 1004              		.align	2
 1005              		.weak	_ZN11flatbuffers16DefaultAllocatorD0Ev
 1006              		.syntax unified
 1007              		.arm
 1008              		.fpu neon
 1010              	_ZN11flatbuffers16DefaultAllocatorD0Ev:
 1011              		.fnstart
 1012              	.LFB11437:
 1013              		@ args = 0, pretend = 0, frame = 0
 1014              		@ frame_needed = 0, uses_anonymous_args = 0
 1015 0000 10402DE9 		push	{r4, lr}
 1016 0004 0040A0E1 		mov	r4, r0
 1017 0008 FEFFFFEB 		bl	_ZdlPv
 1018 000c 0400A0E1 		mov	r0, r4
 1019 0010 1080BDE8 		pop	{r4, pc}
 1020              		.cantunwind
 1021              		.fnend
 1023              		.section	.text._ZN6tflite7testing12_GLOBAL__N_115BuilderInstanceEv,"ax",%progbits
 1024              		.align	2
 1025              		.syntax unified
 1026              		.arm
 1027              		.fpu neon
 1029              	_ZN6tflite7testing12_GLOBAL__N_115BuilderInstanceEv:
 1030              		.fnstart
 1031              	.LFB6956:
 1032              		@ args = 0, pretend = 0, frame = 0
 1033              		@ frame_needed = 0, uses_anonymous_args = 0
 1034 0000 000000E3 		movw	r0, #:lower16:.LANCHOR4
 1035 0004 000040E3 		movt	r0, #:upper16:.LANCHOR4
 1036 0008 0030D0E5 		ldrb	r3, [r0]	@ zero_extendqisi2
 1037 000c 5BF07FF5 		dmb	ish
 1038 0010 010013E3 		tst	r3, #1
 1039 0014 0300000A 		beq	.L129
 1040 0018 003000E3 		movw	r3, #:lower16:.LANCHOR5
 1041 001c 003040E3 		movt	r3, #:upper16:.LANCHOR5
 1042 0020 000093E5 		ldr	r0, [r3]
 1043 0024 1EFF2FE1 		bx	lr
 1044              	.L129:
 1045 0028 70402DE9 		push	{r4, r5, r6, lr}
 1046 002c FEFFFFEB 		bl	__cxa_guard_acquire
 1047 0030 000050E3 		cmp	r0, #0
 1048 0034 0300001A 		bne	.L131
 1049 0038 003000E3 		movw	r3, #:lower16:.LANCHOR5
 1050 003c 003040E3 		movt	r3, #:upper16:.LANCHOR5
 1051 0040 000093E5 		ldr	r0, [r3]
 1052 0044 7080BDE8 		pop	{r4, r5, r6, pc}
 1053              	.L131:
 1054 0048 004000E3 		movw	r4, #:lower16:.LANCHOR6
 1055 004c 004040E3 		movt	r4, #:upper16:.LANCHOR6
 1056 0050 0030D4E5 		ldrb	r3, [r4]	@ zero_extendqisi2
 1057 0054 5BF07FF5 		dmb	ish
 1058 0058 015013E2 		ands	r5, r3, #1
 1059 005c 2000000A 		beq	.L139
 1060              	.L138:
 1061 0060 003000E3 		movw	r3, #:lower16:.LANCHOR7
 1062 0064 003040E3 		movt	r3, #:upper16:.LANCHOR7
 1063 0068 001093E5 		ldr	r1, [r3]
 1064              	.L133:
 1065 006c 004000E3 		movw	r4, #:lower16:.LANCHOR3
 1066 0070 0030A0E3 		mov	r3, #0
 1067 0074 004040E3 		movt	r4, #:upper16:.LANCHOR3
 1068 0078 01C0A0E3 		mov	ip, #1
 1069 007c 08E0A0E3 		mov	lr, #8
 1070 0080 025AA0E3 		mov	r5, #8192
 1071 0084 002000E3 		movw	r2, #:lower16:.LANCHOR5
 1072 0088 000000E3 		movw	r0, #:lower16:.LANCHOR4
 1073 008c 002040E3 		movt	r2, #:upper16:.LANCHOR5
 1074 0090 000040E3 		movt	r0, #:upper16:.LANCHOR4
 1075 0094 001084E5 		str	r1, [r4]
 1076 0098 085084E5 		str	r5, [r4, #8]
 1077 009c 0CE084E5 		str	lr, [r4, #12]
 1078 00a0 0430C4E5 		strb	r3, [r4, #4]
 1079 00a4 103084E5 		str	r3, [r4, #16]
 1080 00a8 143084E5 		str	r3, [r4, #20]
 1081 00ac 183084E5 		str	r3, [r4, #24]
 1082 00b0 1C3084E5 		str	r3, [r4, #28]
 1083 00b4 203084E5 		str	r3, [r4, #32]
 1084 00b8 B432C4E1 		strh	r3, [r4, #36]	@ movhi
 1085 00bc 2630C4E5 		strb	r3, [r4, #38]
 1086 00c0 2730C4E5 		strb	r3, [r4, #39]
 1087 00c4 2C30C4E5 		strb	r3, [r4, #44]
 1088 00c8 303084E5 		str	r3, [r4, #48]
 1089 00cc 28C084E5 		str	ip, [r4, #40]
 1090 00d0 2DC0C4E5 		strb	ip, [r4, #45]
 1091 00d4 004082E5 		str	r4, [r2]
 1092 00d8 FEFFFFEB 		bl	__cxa_guard_release
 1093 00dc 0400A0E1 		mov	r0, r4
 1094 00e0 7080BDE8 		pop	{r4, r5, r6, pc}
 1095              	.L139:
 1096 00e4 0400A0E1 		mov	r0, r4
 1097 00e8 FEFFFFEB 		bl	__cxa_guard_acquire
 1098 00ec 000050E3 		cmp	r0, #0
 1099 00f0 DAFFFF0A 		beq	.L138
 1100 00f4 006000E3 		movw	r6, #:lower16:.LANCHOR2
 1101 00f8 2CC09FE5 		ldr	ip, .L140
 1102 00fc 006040E3 		movt	r6, #:upper16:.LANCHOR2
 1103 0100 003000E3 		movw	r3, #:lower16:.LANCHOR7
 1104 0104 041086E2 		add	r1, r6, #4
 1105 0108 022A86E2 		add	r2, r6, #8192
 1106 010c 003040E3 		movt	r3, #:upper16:.LANCHOR7
 1107 0110 220082E9 		stmib	r2, {r1, r5}
 1108 0114 0400A0E1 		mov	r0, r4
 1109 0118 00C086E5 		str	ip, [r6]
 1110 011c 006083E5 		str	r6, [r3]
 1111 0120 FEFFFFEB 		bl	__cxa_guard_release
 1112 0124 0610A0E1 		mov	r1, r6
 1113 0128 CFFFFFEA 		b	.L133
 1114              	.L141:
 1115              		.align	2
 1116              	.L140:
 1117 012c 08000000 		.word	.LANCHOR8+8
 1118              		.cantunwind
 1119              		.fnend
 1121              		.section	.text._ZN11flatbuffers16DefaultAllocator8allocateEj,"axG",%progbits,_ZN11flatbuffers16Def
 1122              		.align	2
 1123              		.weak	_ZN11flatbuffers16DefaultAllocator8allocateEj
 1124              		.syntax unified
 1125              		.arm
 1126              		.fpu neon
 1128              	_ZN11flatbuffers16DefaultAllocator8allocateEj:
 1129              		.fnstart
 1130              	.LFB3432:
 1131              		@ args = 0, pretend = 0, frame = 0
 1132              		@ frame_needed = 0, uses_anonymous_args = 0
 1133              		@ link register save eliminated.
 1134 0000 0100A0E1 		mov	r0, r1
 1135 0004 FEFFFFEA 		b	_Znaj
 1136              		.cantunwind
 1137              		.fnend
 1139              		.section	.text._ZN11flatbuffers16DefaultAllocator10deallocateEPhj,"axG",%progbits,_ZN11flatbuffers
 1140              		.align	2
 1141              		.weak	_ZN11flatbuffers16DefaultAllocator10deallocateEPhj
 1142              		.syntax unified
 1143              		.arm
 1144              		.fpu neon
 1146              	_ZN11flatbuffers16DefaultAllocator10deallocateEPhj:
 1147              		.fnstart
 1148              	.LFB3433:
 1149              		@ args = 0, pretend = 0, frame = 0
 1150              		@ frame_needed = 0, uses_anonymous_args = 0
 1151              		@ link register save eliminated.
 1152 0000 000051E2 		subs	r0, r1, #0
 1153 0004 1EFF2F01 		bxeq	lr
 1154 0008 FEFFFFEA 		b	_ZdaPv
 1155              		.cantunwind
 1156              		.fnend
 1158              		.section	.text._ZN11flatbuffers9Allocator19reallocate_downwardEPhjjjj,"axG",%progbits,_ZN11flatbuf
 1159              		.align	2
 1160              		.weak	_ZN11flatbuffers9Allocator19reallocate_downwardEPhjjjj
 1161              		.syntax unified
 1162              		.arm
 1163              		.fpu neon
 1165              	_ZN11flatbuffers9Allocator19reallocate_downwardEPhjjjj:
 1166              		.fnstart
 1167              	.LFB3430:
 1168              		@ args = 8, pretend = 0, frame = 0
 1169              		@ frame_needed = 0, uses_anonymous_args = 0
 1170 0000 020053E1 		cmp	r3, r2
 1171 0004 F0472DE9 		push	{r4, r5, r6, r7, r8, r9, r10, lr}
 1172              		.save {r4, r5, r6, r7, r8, r9, r10, lr}
 1173 0008 20809DE5 		ldr	r8, [sp, #32]
 1174 000c 1A00009A 		bls	.L148
 1175 0010 0340A0E1 		mov	r4, r3
 1176 0014 003090E5 		ldr	r3, [r0]
 1177 0018 0250A0E1 		mov	r5, r2
 1178 001c 0170A0E1 		mov	r7, r1
 1179 0020 0410A0E1 		mov	r1, r4
 1180 0024 0060A0E1 		mov	r6, r0
 1181 0028 083093E5 		ldr	r3, [r3, #8]
 1182 002c 33FF2FE1 		blx	r3
 1183 0030 081045E0 		sub	r1, r5, r8
 1184 0034 0090A0E1 		mov	r9, r0
 1185 0038 080044E0 		sub	r0, r4, r8
 1186 003c 011087E0 		add	r1, r7, r1
 1187 0040 0820A0E1 		mov	r2, r8
 1188 0044 000089E0 		add	r0, r9, r0
 1189 0048 FEFFFFEB 		bl	memcpy
 1190 004c 24209DE5 		ldr	r2, [sp, #36]
 1191 0050 0710A0E1 		mov	r1, r7
 1192 0054 0900A0E1 		mov	r0, r9
 1193 0058 FEFFFFEB 		bl	memcpy
 1194 005c 003096E5 		ldr	r3, [r6]
 1195 0060 0600A0E1 		mov	r0, r6
 1196 0064 0520A0E1 		mov	r2, r5
 1197 0068 0710A0E1 		mov	r1, r7
 1198 006c 0C3093E5 		ldr	r3, [r3, #12]
 1199 0070 33FF2FE1 		blx	r3
 1200 0074 0900A0E1 		mov	r0, r9
 1201 0078 F087BDE8 		pop	{r4, r5, r6, r7, r8, r9, r10, pc}
 1202              	.L148:
 1203 007c 003000E3 		movw	r3, #:lower16:.LC18
 1204 0080 002000E3 		movw	r2, #:lower16:.LANCHOR9
 1205 0084 000000E3 		movw	r0, #:lower16:.LC19
 1206 0088 003040E3 		movt	r3, #:upper16:.LC18
 1207 008c 002040E3 		movt	r2, #:upper16:.LANCHOR9
 1208 0090 000040E3 		movt	r0, #:upper16:.LC19
 1209 0094 691200E3 		movw	r1, #617
 1210 0098 FEFFFFEB 		bl	__assert_func
 1211              		.fnend
 1213              		.section	.text.unlikely._ZNK11flatbuffers15vector_downward4dataEv.isra.9.part.10,"ax",%progbits
 1214              		.align	2
 1215              		.syntax unified
 1216              		.arm
 1217              		.fpu neon
 1219              	_ZNK11flatbuffers15vector_downward4dataEv.isra.9.part.10:
 1220              		.fnstart
 1221              	.LFB11458:
 1222              		@ args = 0, pretend = 0, frame = 0
 1223              		@ frame_needed = 0, uses_anonymous_args = 0
 1224 0000 003000E3 		movw	r3, #:lower16:.LC20
 1225 0004 002000E3 		movw	r2, #:lower16:.LANCHOR10
 1226 0008 000000E3 		movw	r0, #:lower16:.LC19
 1227 000c 10402DE9 		push	{r4, lr}
 1228              		.save {r4, lr}
 1229 0010 003040E3 		movt	r3, #:upper16:.LC20
 1230 0014 002040E3 		movt	r2, #:upper16:.LANCHOR10
 1231 0018 000040E3 		movt	r0, #:upper16:.LC19
 1232 001c B21300E3 		movw	r1, #946
 1233 0020 FEFFFFEB 		bl	__assert_func
 1234              		.fnend
 1236              		.section	.text.unlikely._ZN11flatbuffers17FlatBufferBuilder9NotNestedEv.isra.19.part.20,"ax",%prog
 1237              		.align	2
 1238              		.syntax unified
 1239              		.arm
 1240              		.fpu neon
 1242              	_ZN11flatbuffers17FlatBufferBuilder9NotNestedEv.isra.19.part.20:
 1243              		.fnstart
 1244              	.LFB11468:
 1245              		@ args = 0, pretend = 0, frame = 0
 1246              		@ frame_needed = 0, uses_anonymous_args = 0
 1247 0000 003000E3 		movw	r3, #:lower16:.LC21
 1248 0004 002000E3 		movw	r2, #:lower16:.LANCHOR11
 1249 0008 000000E3 		movw	r0, #:lower16:.LC19
 1250 000c 10402DE9 		push	{r4, lr}
 1251              		.save {r4, lr}
 1252 0010 003040E3 		movt	r3, #:upper16:.LC21
 1253 0014 002040E3 		movt	r2, #:upper16:.LANCHOR11
 1254 0018 000040E3 		movt	r0, #:upper16:.LC19
 1255 001c 4A1500E3 		movw	r1, #1354
 1256 0020 FEFFFFEB 		bl	__assert_func
 1257              		.fnend
 1259              		.section	.text._ZN6tflite7testing10MockCustom7PrepareEP13TfLiteContextP10TfLiteNode,"ax",%progbits
 1260              		.align	2
 1261              		.global	_ZN6tflite7testing10MockCustom7PrepareEP13TfLiteContextP10TfLiteNode
 1262              		.syntax unified
 1263              		.arm
 1264              		.fpu neon
 1266              	_ZN6tflite7testing10MockCustom7PrepareEP13TfLiteContextP10TfLiteNode:
 1267              		.fnstart
 1268              	.LFB11575:
 1269              		@ args = 0, pretend = 0, frame = 0
 1270              		@ frame_needed = 0, uses_anonymous_args = 0
 1271              		@ link register save eliminated.
 1272 0000 0000A0E3 		mov	r0, #0
 1273 0004 1EFF2FE1 		bx	lr
 1274              		.cantunwind
 1275              		.fnend
 1277              		.section	.text._ZN11flatbuffers15vector_downward12ensure_spaceEj,"axG",%progbits,_ZN11flatbuffers1
 1278              		.align	2
 1279              		.weak	_ZN11flatbuffers15vector_downward12ensure_spaceEj
 1280              		.syntax unified
 1281              		.arm
 1282              		.fpu neon
 1284              	_ZN11flatbuffers15vector_downward12ensure_spaceEj:
 1285              		.fnstart
 1286              	.LFB3480:
 1287              		@ args = 0, pretend = 0, frame = 8
 1288              		@ frame_needed = 0, uses_anonymous_args = 0
 1289 0000 F04F2DE9 		push	{r4, r5, r6, r7, r8, r9, r10, fp, lr}
 1290              		.save {r4, r5, r6, r7, r8, r9, r10, fp, lr}
 1291              		.pad #20
 1292 0004 14D04DE2 		sub	sp, sp, #20
 1293 0008 182090E5 		ldr	r2, [r0, #24]
 1294 000c 1C5090E5 		ldr	r5, [r0, #28]
 1295 0010 050052E1 		cmp	r2, r5
 1296 0014 7A00003A 		bcc	.L155
 1297 0018 146090E5 		ldr	r6, [r0, #20]
 1298 001c 0040A0E1 		mov	r4, r0
 1299 0020 060055E1 		cmp	r5, r6
 1300 0024 7600003A 		bcc	.L155
 1301 0028 0180A0E1 		mov	r8, r1
 1302 002c 051042E0 		sub	r1, r2, r5
 1303 0030 080051E1 		cmp	r1, r8
 1304 0034 0230A0E1 		mov	r3, r2
 1305 0038 0700003A 		bcc	.L157
 1306 003c 102090E5 		ldr	r2, [r0, #16]
 1307              	.L158:
 1308 0040 066043E0 		sub	r6, r3, r6
 1309 0044 066042E0 		sub	r6, r2, r6
 1310 0048 0A0176E3 		cmn	r6, #-2147483646
 1311 004c 7400008A 		bhi	.L172
 1312 0050 0800A0E1 		mov	r0, r8
 1313 0054 14D08DE2 		add	sp, sp, #20
 1314              		@ sp needed
 1315 0058 F08FBDE8 		pop	{r4, r5, r6, r7, r8, r9, r10, fp, pc}
 1316              	.L157:
 1317 005c 109090E5 		ldr	r9, [r0, #16]
 1318 0060 067042E0 		sub	r7, r2, r6
 1319 0064 065045E0 		sub	r5, r5, r6
 1320 0068 000059E3 		cmp	r9, #0
 1321 006c 077049E0 		sub	r7, r9, r7
 1322 0070 08109005 		ldreq	r1, [r0, #8]
 1323 0074 A910A011 		lsrne	r1, r9, #1
 1324 0078 0C0090E5 		ldr	r0, [r0, #12]
 1325 007c 003089E0 		add	r3, r9, r0
 1326 0080 000060E2 		rsb	r0, r0, #0
 1327 0084 013043E2 		sub	r3, r3, #1
 1328 0088 010058E1 		cmp	r8, r1
 1329 008c 08308320 		addcs	r3, r3, r8
 1330 0090 01308330 		addcc	r3, r3, r1
 1331 0094 000056E3 		cmp	r6, #0
 1332 0098 003003E0 		and	r3, r3, r0
 1333 009c 103084E5 		str	r3, [r4, #16]
 1334 00a0 2C00000A 		beq	.L161
 1335 00a4 00A094E5 		ldr	r10, [r4]
 1336 00a8 00005AE3 		cmp	r10, #0
 1337 00ac 3200000A 		beq	.L162
 1338 00b0 00009AE5 		ldr	r0, [r10]
 1339 00b4 001000E3 		movw	r1, #:lower16:_ZN11flatbuffers9Allocator19reallocate_downwardEPhjjjj
 1340 00b8 001040E3 		movt	r1, #:upper16:_ZN11flatbuffers9Allocator19reallocate_downwardEPhjjjj
 1341 00bc 10B090E5 		ldr	fp, [r0, #16]
 1342 00c0 01005BE1 		cmp	fp, r1
 1343 00c4 4600001A 		bne	.L163
 1344 00c8 030059E1 		cmp	r9, r3
 1345 00cc 5C00002A 		bcs	.L166
 1346 00d0 08B090E5 		ldr	fp, [r0, #8]
 1347 00d4 0310A0E1 		mov	r1, r3
 1348 00d8 0C208DE5 		str	r2, [sp, #12]
 1349 00dc 0A00A0E1 		mov	r0, r10
 1350 00e0 08308DE5 		str	r3, [sp, #8]
 1351 00e4 3BFF2FE1 		blx	fp
 1352 00e8 08309DE5 		ldr	r3, [sp, #8]
 1353 00ec 00B0A0E1 		mov	fp, r0
 1354 00f0 0C209DE5 		ldr	r2, [sp, #12]
 1355 00f4 070043E0 		sub	r0, r3, r7
 1356 00f8 0210A0E1 		mov	r1, r2
 1357 00fc 00008BE0 		add	r0, fp, r0
 1358 0100 0720A0E1 		mov	r2, r7
 1359 0104 FEFFFFEB 		bl	memcpy
 1360 0108 0610A0E1 		mov	r1, r6
 1361 010c 0520A0E1 		mov	r2, r5
 1362 0110 0B00A0E1 		mov	r0, fp
 1363 0114 FEFFFFEB 		bl	memcpy
 1364 0118 00309AE5 		ldr	r3, [r10]
 1365 011c 0610A0E1 		mov	r1, r6
 1366 0120 0920A0E1 		mov	r2, r9
 1367 0124 0A00A0E1 		mov	r0, r10
 1368 0128 0B60A0E1 		mov	r6, fp
 1369 012c 0C3093E5 		ldr	r3, [r3, #12]
 1370 0130 33FF2FE1 		blx	r3
 1371              	.L169:
 1372 0134 102094E5 		ldr	r2, [r4, #16]
 1373 0138 055086E0 		add	r5, r6, r5
 1374 013c 146084E5 		str	r6, [r4, #20]
 1375 0140 1C5084E5 		str	r5, [r4, #28]
 1376 0144 077042E0 		sub	r7, r2, r7
 1377 0148 077086E0 		add	r7, r6, r7
 1378 014c 0730A0E1 		mov	r3, r7
 1379 0150 187084E5 		str	r7, [r4, #24]
 1380 0154 B9FFFFEA 		b	.L158
 1381              	.L161:
 1382 0158 000094E5 		ldr	r0, [r4]
 1383 015c 000050E3 		cmp	r0, #0
 1384 0160 1B00000A 		beq	.L168
 1385 0164 002090E5 		ldr	r2, [r0]
 1386 0168 0310A0E1 		mov	r1, r3
 1387 016c 083092E5 		ldr	r3, [r2, #8]
 1388 0170 33FF2FE1 		blx	r3
 1389 0174 0060A0E1 		mov	r6, r0
 1390 0178 EDFFFFEA 		b	.L169
 1391              	.L162:
 1392 017c 030059E1 		cmp	r9, r3
 1393 0180 0C208DE5 		str	r2, [sp, #12]
 1394 0184 2E00002A 		bcs	.L166
 1395 0188 0300A0E1 		mov	r0, r3
 1396 018c 08308DE5 		str	r3, [sp, #8]
 1397 0190 FEFFFFEB 		bl	_Znaj
 1398 0194 08309DE5 		ldr	r3, [sp, #8]
 1399 0198 0090A0E1 		mov	r9, r0
 1400 019c 0C209DE5 		ldr	r2, [sp, #12]
 1401 01a0 070043E0 		sub	r0, r3, r7
 1402 01a4 0210A0E1 		mov	r1, r2
 1403 01a8 000089E0 		add	r0, r9, r0
 1404 01ac 0720A0E1 		mov	r2, r7
 1405 01b0 FEFFFFEB 		bl	memcpy
 1406 01b4 0610A0E1 		mov	r1, r6
 1407 01b8 0520A0E1 		mov	r2, r5
 1408 01bc 0900A0E1 		mov	r0, r9
 1409 01c0 FEFFFFEB 		bl	memcpy
 1410 01c4 0600A0E1 		mov	r0, r6
 1411 01c8 0960A0E1 		mov	r6, r9
 1412 01cc FEFFFFEB 		bl	_ZdaPv
 1413 01d0 D7FFFFEA 		b	.L169
 1414              	.L168:
 1415 01d4 0300A0E1 		mov	r0, r3
 1416 01d8 FEFFFFEB 		bl	_Znaj
 1417 01dc 0060A0E1 		mov	r6, r0
 1418 01e0 D3FFFFEA 		b	.L169
 1419              	.L163:
 1420 01e4 0610A0E1 		mov	r1, r6
 1421 01e8 04508DE5 		str	r5, [sp, #4]
 1422 01ec 00708DE5 		str	r7, [sp]
 1423 01f0 0920A0E1 		mov	r2, r9
 1424 01f4 0A00A0E1 		mov	r0, r10
 1425 01f8 3BFF2FE1 		blx	fp
 1426 01fc 0060A0E1 		mov	r6, r0
 1427 0200 CBFFFFEA 		b	.L169
 1428              	.L155:
 1429 0204 003000E3 		movw	r3, #:lower16:.LC22
 1430 0208 002000E3 		movw	r2, #:lower16:.LANCHOR12
 1431 020c 000000E3 		movw	r0, #:lower16:.LC19
 1432 0210 003040E3 		movt	r3, #:upper16:.LC22
 1433 0214 002040E3 		movt	r2, #:upper16:.LANCHOR12
 1434 0218 000040E3 		movt	r0, #:upper16:.LC19
 1435 021c 961300E3 		movw	r1, #918
 1436 0220 FEFFFFEB 		bl	__assert_func
 1437              	.L172:
 1438 0224 003000E3 		movw	r3, #:lower16:.LC23
 1439 0228 002000E3 		movw	r2, #:lower16:.LANCHOR12
 1440 022c 000000E3 		movw	r0, #:lower16:.LC19
 1441 0230 003040E3 		movt	r3, #:upper16:.LC23
 1442 0234 002040E3 		movt	r2, #:upper16:.LANCHOR12
 1443 0238 000040E3 		movt	r0, #:upper16:.LC19
 1444 023c 9A1300E3 		movw	r1, #922
 1445 0240 FEFFFFEB 		bl	__assert_func
 1446              	.L166:
 1447 0244 003000E3 		movw	r3, #:lower16:.LC18
 1448 0248 002000E3 		movw	r2, #:lower16:.LANCHOR9
 1449 024c 000000E3 		movw	r0, #:lower16:.LC19
 1450 0250 003040E3 		movt	r3, #:upper16:.LC18
 1451 0254 002040E3 		movt	r2, #:upper16:.LANCHOR9
 1452 0258 000040E3 		movt	r0, #:upper16:.LC19
 1453 025c 691200E3 		movw	r1, #617
 1454 0260 FEFFFFEB 		bl	__assert_func
 1455              		.fnend
 1457              		.section	.text._ZN11flatbuffers17FlatBufferBuilder11StartVectorEjj.constprop.148,"ax",%progbits
 1458              		.align	2
 1459              		.syntax unified
 1460              		.arm
 1461              		.fpu neon
 1463              	_ZN11flatbuffers17FlatBufferBuilder11StartVectorEjj.constprop.148:
 1464              		.fnstart
 1465              	.LFB11578:
 1466              		@ args = 0, pretend = 0, frame = 0
 1467              		@ frame_needed = 0, uses_anonymous_args = 0
 1468 0000 2620D0E5 		ldrb	r2, [r0, #38]	@ zero_extendqisi2
 1469 0004 70402DE9 		push	{r4, r5, r6, lr}
 1470              		.save {r4, r5, r6, lr}
 1471 0008 203090E5 		ldr	r3, [r0, #32]
 1472 000c 000052E3 		cmp	r2, #0
 1473 0010 3A00001A 		bne	.L200
 1474 0014 000053E3 		cmp	r3, #0
 1475 0018 4000001A 		bne	.L201
 1476 001c 283090E5 		ldr	r3, [r0, #40]
 1477 0020 0120A0E3 		mov	r2, #1
 1478 0024 2620C0E5 		strb	r2, [r0, #38]
 1479 0028 0040A0E1 		mov	r4, r0
 1480 002c 185090E5 		ldr	r5, [r0, #24]
 1481 0030 030053E3 		cmp	r3, #3
 1482 0034 142090E5 		ldr	r2, [r0, #20]
 1483 0038 0430A093 		movls	r3, #4
 1484 003c 28308095 		strls	r3, [r0, #40]
 1485 0040 103090E5 		ldr	r3, [r0, #16]
 1486 0044 025045E0 		sub	r5, r5, r2
 1487 0048 035045E0 		sub	r5, r5, r3
 1488 004c 035005E2 		and	r5, r5, #3
 1489 0050 0510A0E1 		mov	r1, r5
 1490 0054 FEFFFFEB 		bl	_ZN11flatbuffers15vector_downward12ensure_spaceEj
 1491 0058 183094E5 		ldr	r3, [r4, #24]
 1492 005c 000055E3 		cmp	r5, #0
 1493 0060 003043E0 		sub	r3, r3, r0
 1494 0064 183084E5 		str	r3, [r4, #24]
 1495 0068 0900000A 		beq	.L177
 1496 006c 010055E3 		cmp	r5, #1
 1497 0070 0020A0E3 		mov	r2, #0
 1498 0074 0020C3E5 		strb	r2, [r3]
 1499 0078 0400000A 		beq	.L178
 1500 007c 183094E5 		ldr	r3, [r4, #24]
 1501 0080 020055E3 		cmp	r5, #2
 1502 0084 0120C3E5 		strb	r2, [r3, #1]
 1503 0088 18309415 		ldrne	r3, [r4, #24]
 1504 008c 0220C315 		strbne	r2, [r3, #2]
 1505              	.L178:
 1506 0090 183094E5 		ldr	r3, [r4, #24]
 1507              	.L177:
 1508 0094 282094E5 		ldr	r2, [r4, #40]
 1509 0098 0400A0E1 		mov	r0, r4
 1510 009c 145094E5 		ldr	r5, [r4, #20]
 1511 00a0 030052E3 		cmp	r2, #3
 1512 00a4 0420A093 		movls	r2, #4
 1513 00a8 055043E0 		sub	r5, r3, r5
 1514 00ac 28208495 		strls	r2, [r4, #40]
 1515 00b0 102094E5 		ldr	r2, [r4, #16]
 1516 00b4 025045E0 		sub	r5, r5, r2
 1517 00b8 035005E2 		and	r5, r5, #3
 1518 00bc 0510A0E1 		mov	r1, r5
 1519 00c0 FEFFFFEB 		bl	_ZN11flatbuffers15vector_downward12ensure_spaceEj
 1520 00c4 183094E5 		ldr	r3, [r4, #24]
 1521 00c8 000055E3 		cmp	r5, #0
 1522 00cc 000043E0 		sub	r0, r3, r0
 1523 00d0 180084E5 		str	r0, [r4, #24]
 1524 00d4 7080BD08 		popeq	{r4, r5, r6, pc}
 1525 00d8 0030A0E3 		mov	r3, #0
 1526 00dc 010055E3 		cmp	r5, #1
 1527 00e0 0030C0E5 		strb	r3, [r0]
 1528 00e4 7080BD08 		popeq	{r4, r5, r6, pc}
 1529 00e8 182094E5 		ldr	r2, [r4, #24]
 1530 00ec 020055E3 		cmp	r5, #2
 1531 00f0 0130C2E5 		strb	r3, [r2, #1]
 1532 00f4 18209415 		ldrne	r2, [r4, #24]
 1533 00f8 0230C215 		strbne	r3, [r2, #2]
 1534 00fc 7080BDE8 		pop	{r4, r5, r6, pc}
 1535              	.L200:
 1536 0100 003000E3 		movw	r3, #:lower16:.LC24
 1537 0104 002000E3 		movw	r2, #:lower16:.LANCHOR11
 1538 0108 000000E3 		movw	r0, #:lower16:.LC19
 1539 010c 003040E3 		movt	r3, #:upper16:.LC24
 1540 0110 002040E3 		movt	r2, #:upper16:.LANCHOR11
 1541 0114 000040E3 		movt	r0, #:upper16:.LC19
 1542 0118 481500E3 		movw	r1, #1352
 1543 011c FEFFFFEB 		bl	__assert_func
 1544              	.L201:
 1545 0120 FEFFFFEB 		bl	_ZN11flatbuffers17FlatBufferBuilder9NotNestedEv.isra.19.part.20
 1546              		.fnend
 1548              		.section	.text._ZN11flatbuffers17FlatBufferBuilder10AddElementImEEvtT_S2_.part.45,"ax",%progbits
 1549              		.align	2
 1550              		.syntax unified
 1551              		.arm
 1552              		.fpu neon
 1554              	_ZN11flatbuffers17FlatBufferBuilder10AddElementImEEvtT_S2_.part.45:
 1555              		.fnstart
 1556              	.LFB11493:
 1557              		@ args = 0, pretend = 0, frame = 0
 1558              		@ frame_needed = 0, uses_anonymous_args = 0
 1559 0000 283090E5 		ldr	r3, [r0, #40]
 1560 0004 F0412DE9 		push	{r4, r5, r6, r7, r8, lr}
 1561              		.save {r4, r5, r6, r7, r8, lr}
 1562 0008 0270A0E1 		mov	r7, r2
 1563 000c 185090E5 		ldr	r5, [r0, #24]
 1564 0010 0040A0E1 		mov	r4, r0
 1565 0014 030053E3 		cmp	r3, #3
 1566 0018 0160A0E1 		mov	r6, r1
 1567 001c 0430A093 		movls	r3, #4
 1568 0020 142090E5 		ldr	r2, [r0, #20]
 1569 0024 28308095 		strls	r3, [r0, #40]
 1570 0028 103090E5 		ldr	r3, [r0, #16]
 1571 002c 025045E0 		sub	r5, r5, r2
 1572 0030 035045E0 		sub	r5, r5, r3
 1573 0034 035005E2 		and	r5, r5, #3
 1574 0038 0510A0E1 		mov	r1, r5
 1575 003c FEFFFFEB 		bl	_ZN11flatbuffers15vector_downward12ensure_spaceEj
 1576 0040 183094E5 		ldr	r3, [r4, #24]
 1577 0044 000055E3 		cmp	r5, #0
 1578 0048 000043E0 		sub	r0, r3, r0
 1579 004c 180084E5 		str	r0, [r4, #24]
 1580 0050 0800000A 		beq	.L204
 1581 0054 010055E3 		cmp	r5, #1
 1582 0058 0030A0E3 		mov	r3, #0
 1583 005c 0030C0E5 		strb	r3, [r0]
 1584 0060 0400000A 		beq	.L204
 1585 0064 182094E5 		ldr	r2, [r4, #24]
 1586 0068 020055E3 		cmp	r5, #2
 1587 006c 0130C2E5 		strb	r3, [r2, #1]
 1588 0070 18209415 		ldrne	r2, [r4, #24]
 1589 0074 0230C215 		strbne	r3, [r2, #2]
 1590              	.L204:
 1591 0078 0410A0E3 		mov	r1, #4
 1592 007c 0400A0E1 		mov	r0, r4
 1593 0080 FEFFFFEB 		bl	_ZN11flatbuffers15vector_downward12ensure_spaceEj
 1594 0084 183094E5 		ldr	r3, [r4, #24]
 1595 0088 0810A0E3 		mov	r1, #8
 1596 008c 142094E5 		ldr	r2, [r4, #20]
 1597 0090 105094E5 		ldr	r5, [r4, #16]
 1598 0094 003043E0 		sub	r3, r3, r0
 1599 0098 0400A0E1 		mov	r0, r4
 1600 009c 022043E0 		sub	r2, r3, r2
 1601 00a0 183084E5 		str	r3, [r4, #24]
 1602 00a4 007083E5 		str	r7, [r3]
 1603 00a8 025045E0 		sub	r5, r5, r2
 1604 00ac FEFFFFEB 		bl	_ZN11flatbuffers15vector_downward12ensure_spaceEj
 1605 00b0 1C2094E5 		ldr	r2, [r4, #28]
 1606 00b4 203094E5 		ldr	r3, [r4, #32]
 1607 00b8 081082E2 		add	r1, r2, #8
 1608 00bc B460C2E1 		strh	r6, [r2, #4]	@ movhi
 1609 00c0 005082E5 		str	r5, [r2]
 1610 00c4 013083E2 		add	r3, r3, #1
 1611 00c8 B422D4E1 		ldrh	r2, [r4, #36]
 1612 00cc 1C1084E5 		str	r1, [r4, #28]
 1613 00d0 203084E5 		str	r3, [r4, #32]
 1614 00d4 020056E1 		cmp	r6, r2
 1615 00d8 0260A0B1 		movlt	r6, r2
 1616 00dc B462C4E1 		strh	r6, [r4, #36]	@ movhi
 1617 00e0 F081BDE8 		pop	{r4, r5, r6, r7, r8, pc}
 1618              		.fnend
 1620              		.section	.text._ZN11flatbuffers17FlatBufferBuilder12CreateVectorIN6tflite6BufferEEENS_6OffsetINS_6
 1621              		.align	2
 1622              		.syntax unified
 1623              		.arm
 1624              		.fpu neon
 1626              	_ZN11flatbuffers17FlatBufferBuilder12CreateVectorIN6tflite6BufferEEENS_6OffsetINS_6VectorINS4_IT_EE
 1627              		.fnstart
 1628              	.LFB11590:
 1629              		@ args = 0, pretend = 0, frame = 0
 1630              		@ frame_needed = 0, uses_anonymous_args = 0
 1631 0000 70402DE9 		push	{r4, r5, r6, lr}
 1632              		.save {r4, r5, r6, lr}
 1633 0004 0040A0E1 		mov	r4, r0
 1634 0008 0150A0E1 		mov	r5, r1
 1635 000c 0110A0E3 		mov	r1, #1
 1636 0010 FEFFFFEB 		bl	_ZN11flatbuffers17FlatBufferBuilder11StartVectorEjj.constprop.148
 1637 0014 283094E5 		ldr	r3, [r4, #40]
 1638 0018 0400A0E1 		mov	r0, r4
 1639 001c 006095E5 		ldr	r6, [r5]
 1640 0020 142094E5 		ldr	r2, [r4, #20]
 1641 0024 030053E3 		cmp	r3, #3
 1642 0028 185094E5 		ldr	r5, [r4, #24]
 1643 002c 0430A093 		movls	r3, #4
 1644 0030 28308495 		strls	r3, [r4, #40]
 1645 0034 103094E5 		ldr	r3, [r4, #16]
 1646 0038 025045E0 		sub	r5, r5, r2
 1647 003c 035045E0 		sub	r5, r5, r3
 1648 0040 035005E2 		and	r5, r5, #3
 1649 0044 0510A0E1 		mov	r1, r5
 1650 0048 FEFFFFEB 		bl	_ZN11flatbuffers15vector_downward12ensure_spaceEj
 1651 004c 183094E5 		ldr	r3, [r4, #24]
 1652 0050 000055E3 		cmp	r5, #0
 1653 0054 000043E0 		sub	r0, r3, r0
 1654 0058 180084E5 		str	r0, [r4, #24]
 1655 005c 0800000A 		beq	.L218
 1656 0060 010055E3 		cmp	r5, #1
 1657 0064 0030A0E3 		mov	r3, #0
 1658 0068 0030C0E5 		strb	r3, [r0]
 1659 006c 0400000A 		beq	.L218
 1660 0070 182094E5 		ldr	r2, [r4, #24]
 1661 0074 020055E3 		cmp	r5, #2
 1662 0078 0130C2E5 		strb	r3, [r2, #1]
 1663 007c 18209415 		ldrne	r2, [r4, #24]
 1664 0080 0230C215 		strbne	r3, [r2, #2]
 1665              	.L218:
 1666 0084 000056E3 		cmp	r6, #0
 1667 0088 5300000A 		beq	.L219
 1668 008c 182094E5 		ldr	r2, [r4, #24]
 1669 0090 141094E5 		ldr	r1, [r4, #20]
 1670 0094 103094E5 		ldr	r3, [r4, #16]
 1671 0098 012042E0 		sub	r2, r2, r1
 1672 009c 023043E0 		sub	r3, r3, r2
 1673 00a0 030056E1 		cmp	r6, r3
 1674 00a4 4C00008A 		bhi	.L219
 1675 00a8 282094E5 		ldr	r2, [r4, #40]
 1676 00ac 046066E2 		rsb	r6, r6, #4
 1677 00b0 036086E0 		add	r6, r6, r3
 1678 00b4 003063E2 		rsb	r3, r3, #0
 1679 00b8 035003E2 		and	r5, r3, #3
 1680 00bc 0400A0E1 		mov	r0, r4
 1681 00c0 030052E3 		cmp	r2, #3
 1682 00c4 0510A0E1 		mov	r1, r5
 1683 00c8 0420A093 		movls	r2, #4
 1684 00cc 28208495 		strls	r2, [r4, #40]
 1685 00d0 FEFFFFEB 		bl	_ZN11flatbuffers15vector_downward12ensure_spaceEj
 1686 00d4 183094E5 		ldr	r3, [r4, #24]
 1687 00d8 000055E3 		cmp	r5, #0
 1688 00dc 000043E0 		sub	r0, r3, r0
 1689 00e0 180084E5 		str	r0, [r4, #24]
 1690 00e4 0800000A 		beq	.L221
 1691 00e8 010055E3 		cmp	r5, #1
 1692 00ec 0030A0E3 		mov	r3, #0
 1693 00f0 0030C0E5 		strb	r3, [r0]
 1694 00f4 0400000A 		beq	.L221
 1695 00f8 182094E5 		ldr	r2, [r4, #24]
 1696 00fc 020055E3 		cmp	r5, #2
 1697 0100 0130C2E5 		strb	r3, [r2, #1]
 1698 0104 18209415 		ldrne	r2, [r4, #24]
 1699 0108 0230C215 		strbne	r3, [r2, #2]
 1700              	.L221:
 1701 010c 0410A0E3 		mov	r1, #4
 1702 0110 0400A0E1 		mov	r0, r4
 1703 0114 FEFFFFEB 		bl	_ZN11flatbuffers15vector_downward12ensure_spaceEj
 1704 0118 182094E5 		ldr	r2, [r4, #24]
 1705 011c 26C0D4E5 		ldrb	ip, [r4, #38]	@ zero_extendqisi2
 1706 0120 141094E5 		ldr	r1, [r4, #20]
 1707 0124 103094E5 		ldr	r3, [r4, #16]
 1708 0128 000042E0 		sub	r0, r2, r0
 1709 012c 00005CE3 		cmp	ip, #0
 1710 0130 180084E5 		str	r0, [r4, #24]
 1711 0134 011040E0 		sub	r1, r0, r1
 1712 0138 006080E5 		str	r6, [r0]
 1713 013c 013043E0 		sub	r3, r3, r1
 1714 0140 2D00000A 		beq	.L259
 1715 0144 282094E5 		ldr	r2, [r4, #40]
 1716 0148 003063E2 		rsb	r3, r3, #0
 1717 014c 035003E2 		and	r5, r3, #3
 1718 0150 0010A0E3 		mov	r1, #0
 1719 0154 2610C4E5 		strb	r1, [r4, #38]
 1720 0158 0400A0E1 		mov	r0, r4
 1721 015c 030052E3 		cmp	r2, #3
 1722 0160 0510A0E1 		mov	r1, r5
 1723 0164 0420A093 		movls	r2, #4
 1724 0168 28208495 		strls	r2, [r4, #40]
 1725 016c FEFFFFEB 		bl	_ZN11flatbuffers15vector_downward12ensure_spaceEj
 1726 0170 183094E5 		ldr	r3, [r4, #24]
 1727 0174 000055E3 		cmp	r5, #0
 1728 0178 000043E0 		sub	r0, r3, r0
 1729 017c 180084E5 		str	r0, [r4, #24]
 1730 0180 0800000A 		beq	.L225
 1731 0184 010055E3 		cmp	r5, #1
 1732 0188 0030A0E3 		mov	r3, #0
 1733 018c 0030C0E5 		strb	r3, [r0]
 1734 0190 0400000A 		beq	.L225
 1735 0194 182094E5 		ldr	r2, [r4, #24]
 1736 0198 020055E3 		cmp	r5, #2
 1737 019c 0130C2E5 		strb	r3, [r2, #1]
 1738 01a0 18209415 		ldrne	r2, [r4, #24]
 1739 01a4 0230C215 		strbne	r3, [r2, #2]
 1740              	.L225:
 1741 01a8 0410A0E3 		mov	r1, #4
 1742 01ac 0400A0E1 		mov	r0, r4
 1743 01b0 FEFFFFEB 		bl	_ZN11flatbuffers15vector_downward12ensure_spaceEj
 1744 01b4 183094E5 		ldr	r3, [r4, #24]
 1745 01b8 0110A0E3 		mov	r1, #1
 1746 01bc 142094E5 		ldr	r2, [r4, #20]
 1747 01c0 10C094E5 		ldr	ip, [r4, #16]
 1748 01c4 003043E0 		sub	r3, r3, r0
 1749 01c8 022043E0 		sub	r2, r3, r2
 1750 01cc 183084E5 		str	r3, [r4, #24]
 1751 01d0 02004CE0 		sub	r0, ip, r2
 1752 01d4 001083E5 		str	r1, [r3]
 1753 01d8 7080BDE8 		pop	{r4, r5, r6, pc}
 1754              	.L219:
 1755 01dc 003000E3 		movw	r3, #:lower16:.LC25
 1756 01e0 002000E3 		movw	r2, #:lower16:.LANCHOR13
 1757 01e4 000000E3 		movw	r0, #:lower16:.LC19
 1758 01e8 003040E3 		movt	r3, #:upper16:.LC25
 1759 01ec 002040E3 		movt	r2, #:upper16:.LANCHOR13
 1760 01f0 000040E3 		movt	r0, #:upper16:.LC19
 1761 01f4 3B1500E3 		movw	r1, #1339
 1762 01f8 FEFFFFEB 		bl	__assert_func
 1763              	.L259:
 1764 01fc 003000E3 		movw	r3, #:lower16:.LC26
 1765 0200 002000E3 		movw	r2, #:lower16:.LANCHOR14
 1766 0204 000000E3 		movw	r0, #:lower16:.LC19
 1767 0208 003040E3 		movt	r3, #:upper16:.LC26
 1768 020c 002040E3 		movt	r2, #:upper16:.LANCHOR14
 1769 0210 000040E3 		movt	r0, #:upper16:.LC19
 1770 0214 2C1600E3 		movw	r1, #1580
 1771 0218 FEFFFFEB 		bl	__assert_func
 1772              		.fnend
 1774              		.section	.text._ZN11flatbuffers17FlatBufferBuilder12CreateVectorIN6tflite6TensorEEENS_6OffsetINS_6
 1775              		.align	2
 1776              		.syntax unified
 1777              		.arm
 1778              		.fpu neon
 1780              	_ZN11flatbuffers17FlatBufferBuilder12CreateVectorIN6tflite6TensorEEENS_6OffsetINS_6VectorINS4_IT_EE
 1781              		.fnstart
 1782              	.LFB11601:
 1783              		@ args = 0, pretend = 0, frame = 0
 1784              		@ frame_needed = 0, uses_anonymous_args = 0
 1785 0000 F0472DE9 		push	{r4, r5, r6, r7, r8, r9, r10, lr}
 1786              		.save {r4, r5, r6, r7, r8, r9, r10, lr}
 1787 0004 0190A0E1 		mov	r9, r1
 1788 0008 0040A0E1 		mov	r4, r0
 1789 000c 0410A0E3 		mov	r1, #4
 1790 0010 107089E2 		add	r7, r9, #16
 1791 0014 0480A0E3 		mov	r8, #4
 1792 0018 FEFFFFEB 		bl	_ZN11flatbuffers17FlatBufferBuilder11StartVectorEjj.constprop.148
 1793 001c 185094E5 		ldr	r5, [r4, #24]
 1794 0020 0060A0E3 		mov	r6, #0
 1795              	.L267:
 1796 0024 282094E5 		ldr	r2, [r4, #40]
 1797 0028 0400A0E1 		mov	r0, r4
 1798 002c 143094E5 		ldr	r3, [r4, #20]
 1799 0030 04A037E5 		ldr	r10, [r7, #-4]!
 1800 0034 030052E3 		cmp	r2, #3
 1801 0038 102094E5 		ldr	r2, [r4, #16]
 1802 003c 035045E0 		sub	r5, r5, r3
 1803 0040 28808495 		strls	r8, [r4, #40]
 1804 0044 025045E0 		sub	r5, r5, r2
 1805 0048 035005E2 		and	r5, r5, #3
 1806 004c 0510A0E1 		mov	r1, r5
 1807 0050 FEFFFFEB 		bl	_ZN11flatbuffers15vector_downward12ensure_spaceEj
 1808 0054 183094E5 		ldr	r3, [r4, #24]
 1809 0058 000055E3 		cmp	r5, #0
 1810 005c 000043E0 		sub	r0, r3, r0
 1811 0060 180084E5 		str	r0, [r4, #24]
 1812 0064 0700000A 		beq	.L262
 1813 0068 010055E3 		cmp	r5, #1
 1814 006c 0060C0E5 		strb	r6, [r0]
 1815 0070 0400000A 		beq	.L262
 1816 0074 183094E5 		ldr	r3, [r4, #24]
 1817 0078 020055E3 		cmp	r5, #2
 1818 007c 0160C3E5 		strb	r6, [r3, #1]
 1819 0080 18309415 		ldrne	r3, [r4, #24]
 1820 0084 0260C315 		strbne	r6, [r3, #2]
 1821              	.L262:
 1822 0088 00005AE3 		cmp	r10, #0
 1823 008c 5200000A 		beq	.L263
 1824 0090 183094E5 		ldr	r3, [r4, #24]
 1825 0094 142094E5 		ldr	r2, [r4, #20]
 1826 0098 105094E5 		ldr	r5, [r4, #16]
 1827 009c 023043E0 		sub	r3, r3, r2
 1828 00a0 035045E0 		sub	r5, r5, r3
 1829 00a4 0A0055E1 		cmp	r5, r10
 1830 00a8 4B00003A 		bcc	.L263
 1831 00ac 283094E5 		ldr	r3, [r4, #40]
 1832 00b0 04A06AE2 		rsb	r10, r10, #4
 1833 00b4 05A08AE0 		add	r10, r10, r5
 1834 00b8 005065E2 		rsb	r5, r5, #0
 1835 00bc 035005E2 		and	r5, r5, #3
 1836 00c0 0400A0E1 		mov	r0, r4
 1837 00c4 030053E3 		cmp	r3, #3
 1838 00c8 0510A0E1 		mov	r1, r5
 1839 00cc 28808495 		strls	r8, [r4, #40]
 1840 00d0 FEFFFFEB 		bl	_ZN11flatbuffers15vector_downward12ensure_spaceEj
 1841 00d4 183094E5 		ldr	r3, [r4, #24]
 1842 00d8 000055E3 		cmp	r5, #0
 1843 00dc 000043E0 		sub	r0, r3, r0
 1844 00e0 180084E5 		str	r0, [r4, #24]
 1845 00e4 0700000A 		beq	.L266
 1846 00e8 010055E3 		cmp	r5, #1
 1847 00ec 0060C0E5 		strb	r6, [r0]
 1848 00f0 0400000A 		beq	.L266
 1849 00f4 183094E5 		ldr	r3, [r4, #24]
 1850 00f8 020055E3 		cmp	r5, #2
 1851 00fc 0160C3E5 		strb	r6, [r3, #1]
 1852 0100 18309415 		ldrne	r3, [r4, #24]
 1853 0104 0260C315 		strbne	r6, [r3, #2]
 1854              	.L266:
 1855 0108 0410A0E3 		mov	r1, #4
 1856 010c 0400A0E1 		mov	r0, r4
 1857 0110 FEFFFFEB 		bl	_ZN11flatbuffers15vector_downward12ensure_spaceEj
 1858 0114 185094E5 		ldr	r5, [r4, #24]
 1859 0118 090057E1 		cmp	r7, r9
 1860 011c 005045E0 		sub	r5, r5, r0
 1861 0120 185084E5 		str	r5, [r4, #24]
 1862 0124 00A085E5 		str	r10, [r5]
 1863 0128 BDFFFF1A 		bne	.L267
 1864 012c 2620D4E5 		ldrb	r2, [r4, #38]	@ zero_extendqisi2
 1865 0130 000052E3 		cmp	r2, #0
 1866 0134 3000000A 		beq	.L303
 1867 0138 282094E5 		ldr	r2, [r4, #40]
 1868 013c 0010A0E3 		mov	r1, #0
 1869 0140 143094E5 		ldr	r3, [r4, #20]
 1870 0144 0400A0E1 		mov	r0, r4
 1871 0148 2610C4E5 		strb	r1, [r4, #38]
 1872 014c 030052E3 		cmp	r2, #3
 1873 0150 0420A093 		movls	r2, #4
 1874 0154 035045E0 		sub	r5, r5, r3
 1875 0158 28208495 		strls	r2, [r4, #40]
 1876 015c 102094E5 		ldr	r2, [r4, #16]
 1877 0160 025045E0 		sub	r5, r5, r2
 1878 0164 035005E2 		and	r5, r5, #3
 1879 0168 0510A0E1 		mov	r1, r5
 1880 016c FEFFFFEB 		bl	_ZN11flatbuffers15vector_downward12ensure_spaceEj
 1881 0170 183094E5 		ldr	r3, [r4, #24]
 1882 0174 000055E3 		cmp	r5, #0
 1883 0178 000043E0 		sub	r0, r3, r0
 1884 017c 180084E5 		str	r0, [r4, #24]
 1885 0180 0800000A 		beq	.L270
 1886 0184 010055E3 		cmp	r5, #1
 1887 0188 0030A0E3 		mov	r3, #0
 1888 018c 0030C0E5 		strb	r3, [r0]
 1889 0190 0400000A 		beq	.L270
 1890 0194 182094E5 		ldr	r2, [r4, #24]
 1891 0198 020055E3 		cmp	r5, #2
 1892 019c 0130C2E5 		strb	r3, [r2, #1]
 1893 01a0 18209415 		ldrne	r2, [r4, #24]
 1894 01a4 0230C215 		strbne	r3, [r2, #2]
 1895              	.L270:
 1896 01a8 0410A0E3 		mov	r1, #4
 1897 01ac 0400A0E1 		mov	r0, r4
 1898 01b0 FEFFFFEB 		bl	_ZN11flatbuffers15vector_downward12ensure_spaceEj
 1899 01b4 183094E5 		ldr	r3, [r4, #24]
 1900 01b8 0410A0E3 		mov	r1, #4
 1901 01bc 142094E5 		ldr	r2, [r4, #20]
 1902 01c0 10C094E5 		ldr	ip, [r4, #16]
 1903 01c4 003043E0 		sub	r3, r3, r0
 1904 01c8 022043E0 		sub	r2, r3, r2
 1905 01cc 183084E5 		str	r3, [r4, #24]
 1906 01d0 02004CE0 		sub	r0, ip, r2
 1907 01d4 001083E5 		str	r1, [r3]
 1908 01d8 F087BDE8 		pop	{r4, r5, r6, r7, r8, r9, r10, pc}
 1909              	.L263:
 1910 01dc 003000E3 		movw	r3, #:lower16:.LC25
 1911 01e0 002000E3 		movw	r2, #:lower16:.LANCHOR13
 1912 01e4 000000E3 		movw	r0, #:lower16:.LC19
 1913 01e8 003040E3 		movt	r3, #:upper16:.LC25
 1914 01ec 002040E3 		movt	r2, #:upper16:.LANCHOR13
 1915 01f0 000040E3 		movt	r0, #:upper16:.LC19
 1916 01f4 3B1500E3 		movw	r1, #1339
 1917 01f8 FEFFFFEB 		bl	__assert_func
 1918              	.L303:
 1919 01fc 003000E3 		movw	r3, #:lower16:.LC26
 1920 0200 002000E3 		movw	r2, #:lower16:.LANCHOR14
 1921 0204 000000E3 		movw	r0, #:lower16:.LC19
 1922 0208 003040E3 		movt	r3, #:upper16:.LC26
 1923 020c 002040E3 		movt	r2, #:upper16:.LANCHOR14
 1924 0210 000040E3 		movt	r0, #:upper16:.LC19
 1925 0214 2C1600E3 		movw	r1, #1580
 1926 0218 FEFFFFEB 		bl	__assert_func
 1927              		.fnend
 1929              		.section	.text._ZN11flatbuffers17FlatBufferBuilder12CreateVectorIN6tflite8OperatorEEENS_6OffsetINS
 1930              		.align	2
 1931              		.syntax unified
 1932              		.arm
 1933              		.fpu neon
 1935              	_ZN11flatbuffers17FlatBufferBuilder12CreateVectorIN6tflite8OperatorEEENS_6OffsetINS_6VectorINS4_IT_
 1936              		.fnstart
 1937              	.LFB11597:
 1938              		@ args = 0, pretend = 0, frame = 0
 1939              		@ frame_needed = 0, uses_anonymous_args = 0
 1940 0000 70402DE9 		push	{r4, r5, r6, lr}
 1941              		.save {r4, r5, r6, lr}
 1942 0004 0040A0E1 		mov	r4, r0
 1943 0008 0150A0E1 		mov	r5, r1
 1944 000c 0110A0E3 		mov	r1, #1
 1945 0010 FEFFFFEB 		bl	_ZN11flatbuffers17FlatBufferBuilder11StartVectorEjj.constprop.148
 1946 0014 283094E5 		ldr	r3, [r4, #40]
 1947 0018 0400A0E1 		mov	r0, r4
 1948 001c 006095E5 		ldr	r6, [r5]
 1949 0020 142094E5 		ldr	r2, [r4, #20]
 1950 0024 030053E3 		cmp	r3, #3
 1951 0028 185094E5 		ldr	r5, [r4, #24]
 1952 002c 0430A093 		movls	r3, #4
 1953 0030 28308495 		strls	r3, [r4, #40]
 1954 0034 103094E5 		ldr	r3, [r4, #16]
 1955 0038 025045E0 		sub	r5, r5, r2
 1956 003c 035045E0 		sub	r5, r5, r3
 1957 0040 035005E2 		and	r5, r5, #3
 1958 0044 0510A0E1 		mov	r1, r5
 1959 0048 FEFFFFEB 		bl	_ZN11flatbuffers15vector_downward12ensure_spaceEj
 1960 004c 183094E5 		ldr	r3, [r4, #24]
 1961 0050 000055E3 		cmp	r5, #0
 1962 0054 000043E0 		sub	r0, r3, r0
 1963 0058 180084E5 		str	r0, [r4, #24]
 1964 005c 0800000A 		beq	.L306
 1965 0060 010055E3 		cmp	r5, #1
 1966 0064 0030A0E3 		mov	r3, #0
 1967 0068 0030C0E5 		strb	r3, [r0]
 1968 006c 0400000A 		beq	.L306
 1969 0070 182094E5 		ldr	r2, [r4, #24]
 1970 0074 020055E3 		cmp	r5, #2
 1971 0078 0130C2E5 		strb	r3, [r2, #1]
 1972 007c 18209415 		ldrne	r2, [r4, #24]
 1973 0080 0230C215 		strbne	r3, [r2, #2]
 1974              	.L306:
 1975 0084 000056E3 		cmp	r6, #0
 1976 0088 5300000A 		beq	.L307
 1977 008c 182094E5 		ldr	r2, [r4, #24]
 1978 0090 141094E5 		ldr	r1, [r4, #20]
 1979 0094 103094E5 		ldr	r3, [r4, #16]
 1980 0098 012042E0 		sub	r2, r2, r1
 1981 009c 023043E0 		sub	r3, r3, r2
 1982 00a0 030056E1 		cmp	r6, r3
 1983 00a4 4C00008A 		bhi	.L307
 1984 00a8 282094E5 		ldr	r2, [r4, #40]
 1985 00ac 046066E2 		rsb	r6, r6, #4
 1986 00b0 036086E0 		add	r6, r6, r3
 1987 00b4 003063E2 		rsb	r3, r3, #0
 1988 00b8 035003E2 		and	r5, r3, #3
 1989 00bc 0400A0E1 		mov	r0, r4
 1990 00c0 030052E3 		cmp	r2, #3
 1991 00c4 0510A0E1 		mov	r1, r5
 1992 00c8 0420A093 		movls	r2, #4
 1993 00cc 28208495 		strls	r2, [r4, #40]
 1994 00d0 FEFFFFEB 		bl	_ZN11flatbuffers15vector_downward12ensure_spaceEj
 1995 00d4 183094E5 		ldr	r3, [r4, #24]
 1996 00d8 000055E3 		cmp	r5, #0
 1997 00dc 000043E0 		sub	r0, r3, r0
 1998 00e0 180084E5 		str	r0, [r4, #24]
 1999 00e4 0800000A 		beq	.L309
 2000 00e8 010055E3 		cmp	r5, #1
 2001 00ec 0030A0E3 		mov	r3, #0
 2002 00f0 0030C0E5 		strb	r3, [r0]
 2003 00f4 0400000A 		beq	.L309
 2004 00f8 182094E5 		ldr	r2, [r4, #24]
 2005 00fc 020055E3 		cmp	r5, #2
 2006 0100 0130C2E5 		strb	r3, [r2, #1]
 2007 0104 18209415 		ldrne	r2, [r4, #24]
 2008 0108 0230C215 		strbne	r3, [r2, #2]
 2009              	.L309:
 2010 010c 0410A0E3 		mov	r1, #4
 2011 0110 0400A0E1 		mov	r0, r4
 2012 0114 FEFFFFEB 		bl	_ZN11flatbuffers15vector_downward12ensure_spaceEj
 2013 0118 182094E5 		ldr	r2, [r4, #24]
 2014 011c 26C0D4E5 		ldrb	ip, [r4, #38]	@ zero_extendqisi2
 2015 0120 141094E5 		ldr	r1, [r4, #20]
 2016 0124 103094E5 		ldr	r3, [r4, #16]
 2017 0128 000042E0 		sub	r0, r2, r0
 2018 012c 00005CE3 		cmp	ip, #0
 2019 0130 180084E5 		str	r0, [r4, #24]
 2020 0134 011040E0 		sub	r1, r0, r1
 2021 0138 006080E5 		str	r6, [r0]
 2022 013c 013043E0 		sub	r3, r3, r1
 2023 0140 2D00000A 		beq	.L347
 2024 0144 282094E5 		ldr	r2, [r4, #40]
 2025 0148 003063E2 		rsb	r3, r3, #0
 2026 014c 035003E2 		and	r5, r3, #3
 2027 0150 0010A0E3 		mov	r1, #0
 2028 0154 2610C4E5 		strb	r1, [r4, #38]
 2029 0158 0400A0E1 		mov	r0, r4
 2030 015c 030052E3 		cmp	r2, #3
 2031 0160 0510A0E1 		mov	r1, r5
 2032 0164 0420A093 		movls	r2, #4
 2033 0168 28208495 		strls	r2, [r4, #40]
 2034 016c FEFFFFEB 		bl	_ZN11flatbuffers15vector_downward12ensure_spaceEj
 2035 0170 183094E5 		ldr	r3, [r4, #24]
 2036 0174 000055E3 		cmp	r5, #0
 2037 0178 000043E0 		sub	r0, r3, r0
 2038 017c 180084E5 		str	r0, [r4, #24]
 2039 0180 0800000A 		beq	.L313
 2040 0184 010055E3 		cmp	r5, #1
 2041 0188 0030A0E3 		mov	r3, #0
 2042 018c 0030C0E5 		strb	r3, [r0]
 2043 0190 0400000A 		beq	.L313
 2044 0194 182094E5 		ldr	r2, [r4, #24]
 2045 0198 020055E3 		cmp	r5, #2
 2046 019c 0130C2E5 		strb	r3, [r2, #1]
 2047 01a0 18209415 		ldrne	r2, [r4, #24]
 2048 01a4 0230C215 		strbne	r3, [r2, #2]
 2049              	.L313:
 2050 01a8 0410A0E3 		mov	r1, #4
 2051 01ac 0400A0E1 		mov	r0, r4
 2052 01b0 FEFFFFEB 		bl	_ZN11flatbuffers15vector_downward12ensure_spaceEj
 2053 01b4 183094E5 		ldr	r3, [r4, #24]
 2054 01b8 0110A0E3 		mov	r1, #1
 2055 01bc 142094E5 		ldr	r2, [r4, #20]
 2056 01c0 10C094E5 		ldr	ip, [r4, #16]
 2057 01c4 003043E0 		sub	r3, r3, r0
 2058 01c8 022043E0 		sub	r2, r3, r2
 2059 01cc 183084E5 		str	r3, [r4, #24]
 2060 01d0 02004CE0 		sub	r0, ip, r2
 2061 01d4 001083E5 		str	r1, [r3]
 2062 01d8 7080BDE8 		pop	{r4, r5, r6, pc}
 2063              	.L307:
 2064 01dc 003000E3 		movw	r3, #:lower16:.LC25
 2065 01e0 002000E3 		movw	r2, #:lower16:.LANCHOR13
 2066 01e4 000000E3 		movw	r0, #:lower16:.LC19
 2067 01e8 003040E3 		movt	r3, #:upper16:.LC25
 2068 01ec 002040E3 		movt	r2, #:upper16:.LANCHOR13
 2069 01f0 000040E3 		movt	r0, #:upper16:.LC19
 2070 01f4 3B1500E3 		movw	r1, #1339
 2071 01f8 FEFFFFEB 		bl	__assert_func
 2072              	.L347:
 2073 01fc 003000E3 		movw	r3, #:lower16:.LC26
 2074 0200 002000E3 		movw	r2, #:lower16:.LANCHOR14
 2075 0204 000000E3 		movw	r0, #:lower16:.LC19
 2076 0208 003040E3 		movt	r3, #:upper16:.LC26
 2077 020c 002040E3 		movt	r2, #:upper16:.LANCHOR14
 2078 0210 000040E3 		movt	r0, #:upper16:.LC19
 2079 0214 2C1600E3 		movw	r1, #1580
 2080 0218 FEFFFFEB 		bl	__assert_func
 2081              		.fnend
 2083              		.section	.text._ZN11flatbuffers17FlatBufferBuilder12CreateVectorIN6tflite12OperatorCodeEEENS_6Offs
 2084              		.align	2
 2085              		.syntax unified
 2086              		.arm
 2087              		.fpu neon
 2089              	_ZN11flatbuffers17FlatBufferBuilder12CreateVectorIN6tflite12OperatorCodeEEENS_6OffsetINS_6VectorINS
 2090              		.fnstart
 2091              	.LFB11596:
 2092              		@ args = 0, pretend = 0, frame = 0
 2093              		@ frame_needed = 0, uses_anonymous_args = 0
 2094 0000 70402DE9 		push	{r4, r5, r6, lr}
 2095              		.save {r4, r5, r6, lr}
 2096 0004 0040A0E1 		mov	r4, r0
 2097 0008 0150A0E1 		mov	r5, r1
 2098 000c 0110A0E3 		mov	r1, #1
 2099 0010 FEFFFFEB 		bl	_ZN11flatbuffers17FlatBufferBuilder11StartVectorEjj.constprop.148
 2100 0014 283094E5 		ldr	r3, [r4, #40]
 2101 0018 0400A0E1 		mov	r0, r4
 2102 001c 006095E5 		ldr	r6, [r5]
 2103 0020 142094E5 		ldr	r2, [r4, #20]
 2104 0024 030053E3 		cmp	r3, #3
 2105 0028 185094E5 		ldr	r5, [r4, #24]
 2106 002c 0430A093 		movls	r3, #4
 2107 0030 28308495 		strls	r3, [r4, #40]
 2108 0034 103094E5 		ldr	r3, [r4, #16]
 2109 0038 025045E0 		sub	r5, r5, r2
 2110 003c 035045E0 		sub	r5, r5, r3
 2111 0040 035005E2 		and	r5, r5, #3
 2112 0044 0510A0E1 		mov	r1, r5
 2113 0048 FEFFFFEB 		bl	_ZN11flatbuffers15vector_downward12ensure_spaceEj
 2114 004c 183094E5 		ldr	r3, [r4, #24]
 2115 0050 000055E3 		cmp	r5, #0
 2116 0054 000043E0 		sub	r0, r3, r0
 2117 0058 180084E5 		str	r0, [r4, #24]
 2118 005c 0800000A 		beq	.L350
 2119 0060 010055E3 		cmp	r5, #1
 2120 0064 0030A0E3 		mov	r3, #0
 2121 0068 0030C0E5 		strb	r3, [r0]
 2122 006c 0400000A 		beq	.L350
 2123 0070 182094E5 		ldr	r2, [r4, #24]
 2124 0074 020055E3 		cmp	r5, #2
 2125 0078 0130C2E5 		strb	r3, [r2, #1]
 2126 007c 18209415 		ldrne	r2, [r4, #24]
 2127 0080 0230C215 		strbne	r3, [r2, #2]
 2128              	.L350:
 2129 0084 000056E3 		cmp	r6, #0
 2130 0088 5300000A 		beq	.L351
 2131 008c 182094E5 		ldr	r2, [r4, #24]
 2132 0090 141094E5 		ldr	r1, [r4, #20]
 2133 0094 103094E5 		ldr	r3, [r4, #16]
 2134 0098 012042E0 		sub	r2, r2, r1
 2135 009c 023043E0 		sub	r3, r3, r2
 2136 00a0 030056E1 		cmp	r6, r3
 2137 00a4 4C00008A 		bhi	.L351
 2138 00a8 282094E5 		ldr	r2, [r4, #40]
 2139 00ac 046066E2 		rsb	r6, r6, #4
 2140 00b0 036086E0 		add	r6, r6, r3
 2141 00b4 003063E2 		rsb	r3, r3, #0
 2142 00b8 035003E2 		and	r5, r3, #3
 2143 00bc 0400A0E1 		mov	r0, r4
 2144 00c0 030052E3 		cmp	r2, #3
 2145 00c4 0510A0E1 		mov	r1, r5
 2146 00c8 0420A093 		movls	r2, #4
 2147 00cc 28208495 		strls	r2, [r4, #40]
 2148 00d0 FEFFFFEB 		bl	_ZN11flatbuffers15vector_downward12ensure_spaceEj
 2149 00d4 183094E5 		ldr	r3, [r4, #24]
 2150 00d8 000055E3 		cmp	r5, #0
 2151 00dc 000043E0 		sub	r0, r3, r0
 2152 00e0 180084E5 		str	r0, [r4, #24]
 2153 00e4 0800000A 		beq	.L353
 2154 00e8 010055E3 		cmp	r5, #1
 2155 00ec 0030A0E3 		mov	r3, #0
 2156 00f0 0030C0E5 		strb	r3, [r0]
 2157 00f4 0400000A 		beq	.L353
 2158 00f8 182094E5 		ldr	r2, [r4, #24]
 2159 00fc 020055E3 		cmp	r5, #2
 2160 0100 0130C2E5 		strb	r3, [r2, #1]
 2161 0104 18209415 		ldrne	r2, [r4, #24]
 2162 0108 0230C215 		strbne	r3, [r2, #2]
 2163              	.L353:
 2164 010c 0410A0E3 		mov	r1, #4
 2165 0110 0400A0E1 		mov	r0, r4
 2166 0114 FEFFFFEB 		bl	_ZN11flatbuffers15vector_downward12ensure_spaceEj
 2167 0118 182094E5 		ldr	r2, [r4, #24]
 2168 011c 26C0D4E5 		ldrb	ip, [r4, #38]	@ zero_extendqisi2
 2169 0120 141094E5 		ldr	r1, [r4, #20]
 2170 0124 103094E5 		ldr	r3, [r4, #16]
 2171 0128 000042E0 		sub	r0, r2, r0
 2172 012c 00005CE3 		cmp	ip, #0
 2173 0130 180084E5 		str	r0, [r4, #24]
 2174 0134 011040E0 		sub	r1, r0, r1
 2175 0138 006080E5 		str	r6, [r0]
 2176 013c 013043E0 		sub	r3, r3, r1
 2177 0140 2D00000A 		beq	.L391
 2178 0144 282094E5 		ldr	r2, [r4, #40]
 2179 0148 003063E2 		rsb	r3, r3, #0
 2180 014c 035003E2 		and	r5, r3, #3
 2181 0150 0010A0E3 		mov	r1, #0
 2182 0154 2610C4E5 		strb	r1, [r4, #38]
 2183 0158 0400A0E1 		mov	r0, r4
 2184 015c 030052E3 		cmp	r2, #3
 2185 0160 0510A0E1 		mov	r1, r5
 2186 0164 0420A093 		movls	r2, #4
 2187 0168 28208495 		strls	r2, [r4, #40]
 2188 016c FEFFFFEB 		bl	_ZN11flatbuffers15vector_downward12ensure_spaceEj
 2189 0170 183094E5 		ldr	r3, [r4, #24]
 2190 0174 000055E3 		cmp	r5, #0
 2191 0178 000043E0 		sub	r0, r3, r0
 2192 017c 180084E5 		str	r0, [r4, #24]
 2193 0180 0800000A 		beq	.L357
 2194 0184 010055E3 		cmp	r5, #1
 2195 0188 0030A0E3 		mov	r3, #0
 2196 018c 0030C0E5 		strb	r3, [r0]
 2197 0190 0400000A 		beq	.L357
 2198 0194 182094E5 		ldr	r2, [r4, #24]
 2199 0198 020055E3 		cmp	r5, #2
 2200 019c 0130C2E5 		strb	r3, [r2, #1]
 2201 01a0 18209415 		ldrne	r2, [r4, #24]
 2202 01a4 0230C215 		strbne	r3, [r2, #2]
 2203              	.L357:
 2204 01a8 0410A0E3 		mov	r1, #4
 2205 01ac 0400A0E1 		mov	r0, r4
 2206 01b0 FEFFFFEB 		bl	_ZN11flatbuffers15vector_downward12ensure_spaceEj
 2207 01b4 183094E5 		ldr	r3, [r4, #24]
 2208 01b8 0110A0E3 		mov	r1, #1
 2209 01bc 142094E5 		ldr	r2, [r4, #20]
 2210 01c0 10C094E5 		ldr	ip, [r4, #16]
 2211 01c4 003043E0 		sub	r3, r3, r0
 2212 01c8 022043E0 		sub	r2, r3, r2
 2213 01cc 183084E5 		str	r3, [r4, #24]
 2214 01d0 02004CE0 		sub	r0, ip, r2
 2215 01d4 001083E5 		str	r1, [r3]
 2216 01d8 7080BDE8 		pop	{r4, r5, r6, pc}
 2217              	.L351:
 2218 01dc 003000E3 		movw	r3, #:lower16:.LC25
 2219 01e0 002000E3 		movw	r2, #:lower16:.LANCHOR13
 2220 01e4 000000E3 		movw	r0, #:lower16:.LC19
 2221 01e8 003040E3 		movt	r3, #:upper16:.LC25
 2222 01ec 002040E3 		movt	r2, #:upper16:.LANCHOR13
 2223 01f0 000040E3 		movt	r0, #:upper16:.LC19
 2224 01f4 3B1500E3 		movw	r1, #1339
 2225 01f8 FEFFFFEB 		bl	__assert_func
 2226              	.L391:
 2227 01fc 003000E3 		movw	r3, #:lower16:.LC26
 2228 0200 002000E3 		movw	r2, #:lower16:.LANCHOR14
 2229 0204 000000E3 		movw	r0, #:lower16:.LC19
 2230 0208 003040E3 		movt	r3, #:upper16:.LC26
 2231 020c 002040E3 		movt	r2, #:upper16:.LANCHOR14
 2232 0210 000040E3 		movt	r0, #:upper16:.LC19
 2233 0214 2C1600E3 		movw	r1, #1580
 2234 0218 FEFFFFEB 		bl	__assert_func
 2235              		.fnend
 2237              		.section	.text._ZN11flatbuffers17FlatBufferBuilder12CreateVectorIN6tflite8SubGraphEEENS_6OffsetINS
 2238              		.align	2
 2239              		.syntax unified
 2240              		.arm
 2241              		.fpu neon
 2243              	_ZN11flatbuffers17FlatBufferBuilder12CreateVectorIN6tflite8SubGraphEEENS_6OffsetINS_6VectorINS4_IT_
 2244              		.fnstart
 2245              	.LFB11594:
 2246              		@ args = 0, pretend = 0, frame = 0
 2247              		@ frame_needed = 0, uses_anonymous_args = 0
 2248 0000 70402DE9 		push	{r4, r5, r6, lr}
 2249              		.save {r4, r5, r6, lr}
 2250 0004 0040A0E1 		mov	r4, r0
 2251 0008 0150A0E1 		mov	r5, r1
 2252 000c 0110A0E3 		mov	r1, #1
 2253 0010 FEFFFFEB 		bl	_ZN11flatbuffers17FlatBufferBuilder11StartVectorEjj.constprop.148
 2254 0014 283094E5 		ldr	r3, [r4, #40]
 2255 0018 0400A0E1 		mov	r0, r4
 2256 001c 006095E5 		ldr	r6, [r5]
 2257 0020 142094E5 		ldr	r2, [r4, #20]
 2258 0024 030053E3 		cmp	r3, #3
 2259 0028 185094E5 		ldr	r5, [r4, #24]
 2260 002c 0430A093 		movls	r3, #4
 2261 0030 28308495 		strls	r3, [r4, #40]
 2262 0034 103094E5 		ldr	r3, [r4, #16]
 2263 0038 025045E0 		sub	r5, r5, r2
 2264 003c 035045E0 		sub	r5, r5, r3
 2265 0040 035005E2 		and	r5, r5, #3
 2266 0044 0510A0E1 		mov	r1, r5
 2267 0048 FEFFFFEB 		bl	_ZN11flatbuffers15vector_downward12ensure_spaceEj
 2268 004c 183094E5 		ldr	r3, [r4, #24]
 2269 0050 000055E3 		cmp	r5, #0
 2270 0054 000043E0 		sub	r0, r3, r0
 2271 0058 180084E5 		str	r0, [r4, #24]
 2272 005c 0800000A 		beq	.L394
 2273 0060 010055E3 		cmp	r5, #1
 2274 0064 0030A0E3 		mov	r3, #0
 2275 0068 0030C0E5 		strb	r3, [r0]
 2276 006c 0400000A 		beq	.L394
 2277 0070 182094E5 		ldr	r2, [r4, #24]
 2278 0074 020055E3 		cmp	r5, #2
 2279 0078 0130C2E5 		strb	r3, [r2, #1]
 2280 007c 18209415 		ldrne	r2, [r4, #24]
 2281 0080 0230C215 		strbne	r3, [r2, #2]
 2282              	.L394:
 2283 0084 000056E3 		cmp	r6, #0
 2284 0088 5300000A 		beq	.L395
 2285 008c 182094E5 		ldr	r2, [r4, #24]
 2286 0090 141094E5 		ldr	r1, [r4, #20]
 2287 0094 103094E5 		ldr	r3, [r4, #16]
 2288 0098 012042E0 		sub	r2, r2, r1
 2289 009c 023043E0 		sub	r3, r3, r2
 2290 00a0 030056E1 		cmp	r6, r3
 2291 00a4 4C00008A 		bhi	.L395
 2292 00a8 282094E5 		ldr	r2, [r4, #40]
 2293 00ac 046066E2 		rsb	r6, r6, #4
 2294 00b0 036086E0 		add	r6, r6, r3
 2295 00b4 003063E2 		rsb	r3, r3, #0
 2296 00b8 035003E2 		and	r5, r3, #3
 2297 00bc 0400A0E1 		mov	r0, r4
 2298 00c0 030052E3 		cmp	r2, #3
 2299 00c4 0510A0E1 		mov	r1, r5
 2300 00c8 0420A093 		movls	r2, #4
 2301 00cc 28208495 		strls	r2, [r4, #40]
 2302 00d0 FEFFFFEB 		bl	_ZN11flatbuffers15vector_downward12ensure_spaceEj
 2303 00d4 183094E5 		ldr	r3, [r4, #24]
 2304 00d8 000055E3 		cmp	r5, #0
 2305 00dc 000043E0 		sub	r0, r3, r0
 2306 00e0 180084E5 		str	r0, [r4, #24]
 2307 00e4 0800000A 		beq	.L397
 2308 00e8 010055E3 		cmp	r5, #1
 2309 00ec 0030A0E3 		mov	r3, #0
 2310 00f0 0030C0E5 		strb	r3, [r0]
 2311 00f4 0400000A 		beq	.L397
 2312 00f8 182094E5 		ldr	r2, [r4, #24]
 2313 00fc 020055E3 		cmp	r5, #2
 2314 0100 0130C2E5 		strb	r3, [r2, #1]
 2315 0104 18209415 		ldrne	r2, [r4, #24]
 2316 0108 0230C215 		strbne	r3, [r2, #2]
 2317              	.L397:
 2318 010c 0410A0E3 		mov	r1, #4
 2319 0110 0400A0E1 		mov	r0, r4
 2320 0114 FEFFFFEB 		bl	_ZN11flatbuffers15vector_downward12ensure_spaceEj
 2321 0118 182094E5 		ldr	r2, [r4, #24]
 2322 011c 26C0D4E5 		ldrb	ip, [r4, #38]	@ zero_extendqisi2
 2323 0120 141094E5 		ldr	r1, [r4, #20]
 2324 0124 103094E5 		ldr	r3, [r4, #16]
 2325 0128 000042E0 		sub	r0, r2, r0
 2326 012c 00005CE3 		cmp	ip, #0
 2327 0130 180084E5 		str	r0, [r4, #24]
 2328 0134 011040E0 		sub	r1, r0, r1
 2329 0138 006080E5 		str	r6, [r0]
 2330 013c 013043E0 		sub	r3, r3, r1
 2331 0140 2D00000A 		beq	.L435
 2332 0144 282094E5 		ldr	r2, [r4, #40]
 2333 0148 003063E2 		rsb	r3, r3, #0
 2334 014c 035003E2 		and	r5, r3, #3
 2335 0150 0010A0E3 		mov	r1, #0
 2336 0154 2610C4E5 		strb	r1, [r4, #38]
 2337 0158 0400A0E1 		mov	r0, r4
 2338 015c 030052E3 		cmp	r2, #3
 2339 0160 0510A0E1 		mov	r1, r5
 2340 0164 0420A093 		movls	r2, #4
 2341 0168 28208495 		strls	r2, [r4, #40]
 2342 016c FEFFFFEB 		bl	_ZN11flatbuffers15vector_downward12ensure_spaceEj
 2343 0170 183094E5 		ldr	r3, [r4, #24]
 2344 0174 000055E3 		cmp	r5, #0
 2345 0178 000043E0 		sub	r0, r3, r0
 2346 017c 180084E5 		str	r0, [r4, #24]
 2347 0180 0800000A 		beq	.L401
 2348 0184 010055E3 		cmp	r5, #1
 2349 0188 0030A0E3 		mov	r3, #0
 2350 018c 0030C0E5 		strb	r3, [r0]
 2351 0190 0400000A 		beq	.L401
 2352 0194 182094E5 		ldr	r2, [r4, #24]
 2353 0198 020055E3 		cmp	r5, #2
 2354 019c 0130C2E5 		strb	r3, [r2, #1]
 2355 01a0 18209415 		ldrne	r2, [r4, #24]
 2356 01a4 0230C215 		strbne	r3, [r2, #2]
 2357              	.L401:
 2358 01a8 0410A0E3 		mov	r1, #4
 2359 01ac 0400A0E1 		mov	r0, r4
 2360 01b0 FEFFFFEB 		bl	_ZN11flatbuffers15vector_downward12ensure_spaceEj
 2361 01b4 183094E5 		ldr	r3, [r4, #24]
 2362 01b8 0110A0E3 		mov	r1, #1
 2363 01bc 142094E5 		ldr	r2, [r4, #20]
 2364 01c0 10C094E5 		ldr	ip, [r4, #16]
 2365 01c4 003043E0 		sub	r3, r3, r0
 2366 01c8 022043E0 		sub	r2, r3, r2
 2367 01cc 183084E5 		str	r3, [r4, #24]
 2368 01d0 02004CE0 		sub	r0, ip, r2
 2369 01d4 001083E5 		str	r1, [r3]
 2370 01d8 7080BDE8 		pop	{r4, r5, r6, pc}
 2371              	.L395:
 2372 01dc 003000E3 		movw	r3, #:lower16:.LC25
 2373 01e0 002000E3 		movw	r2, #:lower16:.LANCHOR13
 2374 01e4 000000E3 		movw	r0, #:lower16:.LC19
 2375 01e8 003040E3 		movt	r3, #:upper16:.LC25
 2376 01ec 002040E3 		movt	r2, #:upper16:.LANCHOR13
 2377 01f0 000040E3 		movt	r0, #:upper16:.LC19
 2378 01f4 3B1500E3 		movw	r1, #1339
 2379 01f8 FEFFFFEB 		bl	__assert_func
 2380              	.L435:
 2381 01fc 003000E3 		movw	r3, #:lower16:.LC26
 2382 0200 002000E3 		movw	r2, #:lower16:.LANCHOR14
 2383 0204 000000E3 		movw	r0, #:lower16:.LC19
 2384 0208 003040E3 		movt	r3, #:upper16:.LC26
 2385 020c 002040E3 		movt	r2, #:upper16:.LANCHOR14
 2386 0210 000040E3 		movt	r0, #:upper16:.LC19
 2387 0214 2C1600E3 		movw	r1, #1580
 2388 0218 FEFFFFEB 		bl	__assert_func
 2389              		.fnend
 2391              		.section	.text._ZN11flatbuffers17FlatBufferBuilder7ReferToEm,"axG",%progbits,_ZN11flatbuffers17Fla
 2392              		.align	2
 2393              		.weak	_ZN11flatbuffers17FlatBufferBuilder7ReferToEm
 2394              		.syntax unified
 2395              		.arm
 2396              		.fpu neon
 2398              	_ZN11flatbuffers17FlatBufferBuilder7ReferToEm:
 2399              		.fnstart
 2400              	.LFB3546:
 2401              		@ args = 0, pretend = 0, frame = 0
 2402              		@ frame_needed = 0, uses_anonymous_args = 0
 2403 0000 283090E5 		ldr	r3, [r0, #40]
 2404 0004 70402DE9 		push	{r4, r5, r6, lr}
 2405              		.save {r4, r5, r6, lr}
 2406 0008 0040A0E1 		mov	r4, r0
 2407 000c 185090E5 		ldr	r5, [r0, #24]
 2408 0010 0160A0E1 		mov	r6, r1
 2409 0014 030053E3 		cmp	r3, #3
 2410 0018 0430A093 		movls	r3, #4
 2411 001c 142090E5 		ldr	r2, [r0, #20]
 2412 0020 28308095 		strls	r3, [r0, #40]
 2413 0024 103090E5 		ldr	r3, [r0, #16]
 2414 0028 025045E0 		sub	r5, r5, r2
 2415 002c 035045E0 		sub	r5, r5, r3
 2416 0030 035005E2 		and	r5, r5, #3
 2417 0034 0510A0E1 		mov	r1, r5
 2418 0038 FEFFFFEB 		bl	_ZN11flatbuffers15vector_downward12ensure_spaceEj
 2419 003c 183094E5 		ldr	r3, [r4, #24]
 2420 0040 000055E3 		cmp	r5, #0
 2421 0044 000043E0 		sub	r0, r3, r0
 2422 0048 180084E5 		str	r0, [r4, #24]
 2423 004c 0800000A 		beq	.L438
 2424 0050 010055E3 		cmp	r5, #1
 2425 0054 0030A0E3 		mov	r3, #0
 2426 0058 0030C0E5 		strb	r3, [r0]
 2427 005c 0400000A 		beq	.L438
 2428 0060 182094E5 		ldr	r2, [r4, #24]
 2429 0064 020055E3 		cmp	r5, #2
 2430 0068 0130C2E5 		strb	r3, [r2, #1]
 2431 006c 18209415 		ldrne	r2, [r4, #24]
 2432 0070 0230C215 		strbne	r3, [r2, #2]
 2433              	.L438:
 2434 0074 000056E3 		cmp	r6, #0
 2435 0078 0800000A 		beq	.L439
 2436 007c 100084E2 		add	r0, r4, #16
 2437 0080 0D0090E8 		ldm	r0, {r0, r2, r3}
 2438 0084 023043E0 		sub	r3, r3, r2
 2439 0088 030040E0 		sub	r0, r0, r3
 2440 008c 000056E1 		cmp	r6, r0
 2441 0090 0200008A 		bhi	.L439
 2442 0094 046066E2 		rsb	r6, r6, #4
 2443 0098 000086E0 		add	r0, r6, r0
 2444 009c 7080BDE8 		pop	{r4, r5, r6, pc}
 2445              	.L439:
 2446 00a0 003000E3 		movw	r3, #:lower16:.LC25
 2447 00a4 002000E3 		movw	r2, #:lower16:.LANCHOR13
 2448 00a8 000000E3 		movw	r0, #:lower16:.LC19
 2449 00ac 003040E3 		movt	r3, #:upper16:.LC25
 2450 00b0 002040E3 		movt	r2, #:upper16:.LANCHOR13
 2451 00b4 000040E3 		movt	r0, #:upper16:.LC19
 2452 00b8 3B1500E3 		movw	r1, #1339
 2453 00bc FEFFFFEB 		bl	__assert_func
 2454              		.fnend
 2456              		.section	.text._ZN11flatbuffers17FlatBufferBuilder6FinishEmPKcb.constprop.146,"ax",%progbits
 2457              		.align	2
 2458              		.syntax unified
 2459              		.arm
 2460              		.fpu neon
 2462              	_ZN11flatbuffers17FlatBufferBuilder6FinishEmPKcb.constprop.146:
 2463              		.fnstart
 2464              	.LFB11580:
 2465              		@ args = 0, pretend = 0, frame = 0
 2466              		@ frame_needed = 0, uses_anonymous_args = 0
 2467 0000 2630D0E5 		ldrb	r3, [r0, #38]	@ zero_extendqisi2
 2468 0004 F0412DE9 		push	{r4, r5, r6, r7, r8, lr}
 2469              		.save {r4, r5, r6, r7, r8, lr}
 2470 0008 204090E5 		ldr	r4, [r0, #32]
 2471 000c 000053E3 		cmp	r3, #0
 2472 0010 4E00001A 		bne	.L476
 2473 0014 000054E3 		cmp	r4, #0
 2474 0018 5400001A 		bne	.L477
 2475 001c 0170A0E1 		mov	r7, r1
 2476 0020 101080E2 		add	r1, r0, #16
 2477 0024 460091E8 		ldm	r1, {r1, r2, r6}
 2478 0028 0050A0E1 		mov	r5, r0
 2479 002c 283090E5 		ldr	r3, [r0, #40]
 2480 0030 026046E0 		sub	r6, r6, r2
 2481 0034 1C2080E5 		str	r2, [r0, #28]
 2482 0038 016046E0 		sub	r6, r6, r1
 2483 003c 013043E2 		sub	r3, r3, #1
 2484 0040 086046E2 		sub	r6, r6, #8
 2485 0044 036006E0 		and	r6, r6, r3
 2486 0048 0610A0E1 		mov	r1, r6
 2487 004c FEFFFFEB 		bl	_ZN11flatbuffers15vector_downward12ensure_spaceEj
 2488 0050 183095E5 		ldr	r3, [r5, #24]
 2489 0054 000056E3 		cmp	r6, #0
 2490 0058 000043E0 		sub	r0, r3, r0
 2491 005c 180085E5 		str	r0, [r5, #24]
 2492 0060 0700000A 		beq	.L457
 2493 0064 0430A0E1 		mov	r3, r4
 2494 0068 0420A0E1 		mov	r2, r4
 2495 006c 000000EA 		b	.L458
 2496              	.L478:
 2497 0070 180095E5 		ldr	r0, [r5, #24]
 2498              	.L458:
 2499 0074 0320C0E7 		strb	r2, [r0, r3]
 2500 0078 013083E2 		add	r3, r3, #1
 2501 007c 030056E1 		cmp	r6, r3
 2502 0080 FAFFFF1A 		bne	.L478
 2503              	.L457:
 2504 0084 0410A0E3 		mov	r1, #4
 2505 0088 0500A0E1 		mov	r0, r5
 2506 008c FEFFFFEB 		bl	_ZN11flatbuffers15vector_downward12ensure_spaceEj
 2507 0090 183095E5 		ldr	r3, [r5, #24]
 2508 0094 0440A0E3 		mov	r4, #4
 2509 0098 001000E3 		movw	r1, #:lower16:.LC27
 2510 009c 0420A0E1 		mov	r2, r4
 2511 00a0 001040E3 		movt	r1, #:upper16:.LC27
 2512 00a4 000043E0 		sub	r0, r3, r0
 2513 00a8 180085E5 		str	r0, [r5, #24]
 2514 00ac FEFFFFEB 		bl	memcpy
 2515 00b0 0710A0E1 		mov	r1, r7
 2516 00b4 0500A0E1 		mov	r0, r5
 2517 00b8 FEFFFFEB 		bl	_ZN11flatbuffers17FlatBufferBuilder7ReferToEm
 2518 00bc 283095E5 		ldr	r3, [r5, #40]
 2519 00c0 0060A0E1 		mov	r6, r0
 2520 00c4 142095E5 		ldr	r2, [r5, #20]
 2521 00c8 0500A0E1 		mov	r0, r5
 2522 00cc 030053E3 		cmp	r3, #3
 2523 00d0 103095E5 		ldr	r3, [r5, #16]
 2524 00d4 28408595 		strls	r4, [r5, #40]
 2525 00d8 184095E5 		ldr	r4, [r5, #24]
 2526 00dc 024044E0 		sub	r4, r4, r2
 2527 00e0 034044E0 		sub	r4, r4, r3
 2528 00e4 034004E2 		and	r4, r4, #3
 2529 00e8 0410A0E1 		mov	r1, r4
 2530 00ec FEFFFFEB 		bl	_ZN11flatbuffers15vector_downward12ensure_spaceEj
 2531 00f0 183095E5 		ldr	r3, [r5, #24]
 2532 00f4 000054E3 		cmp	r4, #0
 2533 00f8 000043E0 		sub	r0, r3, r0
 2534 00fc 180085E5 		str	r0, [r5, #24]
 2535 0100 0800000A 		beq	.L461
 2536 0104 010054E3 		cmp	r4, #1
 2537 0108 0030A0E3 		mov	r3, #0
 2538 010c 0030C0E5 		strb	r3, [r0]
 2539 0110 0400000A 		beq	.L461
 2540 0114 182095E5 		ldr	r2, [r5, #24]
 2541 0118 020054E3 		cmp	r4, #2
 2542 011c 0130C2E5 		strb	r3, [r2, #1]
 2543 0120 18209515 		ldrne	r2, [r5, #24]
 2544 0124 0230C215 		strbne	r3, [r2, #2]
 2545              	.L461:
 2546 0128 0410A0E3 		mov	r1, #4
 2547 012c 0500A0E1 		mov	r0, r5
 2548 0130 FEFFFFEB 		bl	_ZN11flatbuffers15vector_downward12ensure_spaceEj
 2549 0134 183095E5 		ldr	r3, [r5, #24]
 2550 0138 0120A0E3 		mov	r2, #1
 2551 013c 000043E0 		sub	r0, r3, r0
 2552 0140 180085E5 		str	r0, [r5, #24]
 2553 0144 006080E5 		str	r6, [r0]
 2554 0148 2720C5E5 		strb	r2, [r5, #39]
 2555 014c F081BDE8 		pop	{r4, r5, r6, r7, r8, pc}
 2556              	.L476:
 2557 0150 003000E3 		movw	r3, #:lower16:.LC24
 2558 0154 002000E3 		movw	r2, #:lower16:.LANCHOR11
 2559 0158 000000E3 		movw	r0, #:lower16:.LC19
 2560 015c 003040E3 		movt	r3, #:upper16:.LC24
 2561 0160 002040E3 		movt	r2, #:upper16:.LANCHOR11
 2562 0164 000040E3 		movt	r0, #:upper16:.LC19
 2563 0168 481500E3 		movw	r1, #1352
 2564 016c FEFFFFEB 		bl	__assert_func
 2565              	.L477:
 2566 0170 FEFFFFEB 		bl	_ZN11flatbuffers17FlatBufferBuilder9NotNestedEv.isra.19.part.20
 2567              		.fnend
 2569              		.section	.text._ZN11flatbuffers17FlatBufferBuilder8EndTableEm,"axG",%progbits,_ZN11flatbuffers17Fl
 2570              		.align	2
 2571              		.weak	_ZN11flatbuffers17FlatBufferBuilder8EndTableEm
 2572              		.syntax unified
 2573              		.arm
 2574              		.fpu neon
 2576              	_ZN11flatbuffers17FlatBufferBuilder8EndTableEm:
 2577              		.fnstart
 2578              	.LFB3549:
 2579              		@ args = 0, pretend = 0, frame = 8
 2580              		@ frame_needed = 0, uses_anonymous_args = 0
 2581 0000 2630D0E5 		ldrb	r3, [r0, #38]	@ zero_extendqisi2
 2582 0004 F04F2DE9 		push	{r4, r5, r6, r7, r8, r9, r10, fp, lr}
 2583              		.save {r4, r5, r6, r7, r8, r9, r10, fp, lr}
 2584              		.pad #12
 2585 0008 0CD04DE2 		sub	sp, sp, #12
 2586 000c 000053E3 		cmp	r3, #0
 2587 0010 B400000A 		beq	.L515
 2588 0014 283090E5 		ldr	r3, [r0, #40]
 2589 0018 0060A0E1 		mov	r6, r0
 2590 001c 184090E5 		ldr	r4, [r0, #24]
 2591 0020 0150A0E1 		mov	r5, r1
 2592 0024 142090E5 		ldr	r2, [r0, #20]
 2593 0028 030053E3 		cmp	r3, #3
 2594 002c 0430A093 		movls	r3, #4
 2595 0030 28308095 		strls	r3, [r0, #40]
 2596 0034 024044E0 		sub	r4, r4, r2
 2597 0038 103090E5 		ldr	r3, [r0, #16]
 2598 003c 034044E0 		sub	r4, r4, r3
 2599 0040 034004E2 		and	r4, r4, #3
 2600 0044 0410A0E1 		mov	r1, r4
 2601 0048 FEFFFFEB 		bl	_ZN11flatbuffers15vector_downward12ensure_spaceEj
 2602 004c 183096E5 		ldr	r3, [r6, #24]
 2603 0050 000054E3 		cmp	r4, #0
 2604 0054 000043E0 		sub	r0, r3, r0
 2605 0058 180086E5 		str	r0, [r6, #24]
 2606 005c 0800000A 		beq	.L482
 2607 0060 010054E3 		cmp	r4, #1
 2608 0064 0030A0E3 		mov	r3, #0
 2609 0068 0030C0E5 		strb	r3, [r0]
 2610 006c 0400000A 		beq	.L482
 2611 0070 182096E5 		ldr	r2, [r6, #24]
 2612 0074 020054E3 		cmp	r4, #2
 2613 0078 0130C2E5 		strb	r3, [r2, #1]
 2614 007c 18209615 		ldrne	r2, [r6, #24]
 2615 0080 0230C215 		strbne	r3, [r2, #2]
 2616              	.L482:
 2617 0084 0410A0E3 		mov	r1, #4
 2618 0088 0600A0E1 		mov	r0, r6
 2619 008c FEFFFFEB 		bl	_ZN11flatbuffers15vector_downward12ensure_spaceEj
 2620 0090 B442D6E1 		ldrh	r4, [r6, #36]
 2621 0094 0070A0E3 		mov	r7, #0
 2622 0098 183096E5 		ldr	r3, [r6, #24]
 2623 009c 14B096E5 		ldr	fp, [r6, #20]
 2624 00a0 024084E2 		add	r4, r4, #2
 2625 00a4 102096E5 		ldr	r2, [r6, #16]
 2626 00a8 7440FFE6 		uxth	r4, r4
 2627 00ac 000043E0 		sub	r0, r3, r0
 2628 00b0 0B3040E0 		sub	r3, r0, fp
 2629 00b4 180086E5 		str	r0, [r6, #24]
 2630 00b8 040054E3 		cmp	r4, #4
 2631 00bc 033042E0 		sub	r3, r2, r3
 2632 00c0 0440A033 		movcc	r4, #4
 2633 00c4 007080E5 		str	r7, [r0]
 2634 00c8 0410A0E1 		mov	r1, r4
 2635 00cc 0600A0E1 		mov	r0, r6
 2636 00d0 B442C6E1 		strh	r4, [r6, #36]	@ movhi
 2637 00d4 0380A0E1 		mov	r8, r3
 2638 00d8 00308DE5 		str	r3, [sp]
 2639 00dc 055048E0 		sub	r5, r8, r5
 2640 00e0 FEFFFFEB 		bl	_ZN11flatbuffers15vector_downward12ensure_spaceEj
 2641 00e4 183096E5 		ldr	r3, [r6, #24]
 2642 00e8 0420A0E1 		mov	r2, r4
 2643 00ec 0710A0E1 		mov	r1, r7
 2644 00f0 000043E0 		sub	r0, r3, r0
 2645 00f4 180086E5 		str	r0, [r6, #24]
 2646 00f8 FEFFFFEB 		bl	memset
 2647 00fc 010855E3 		cmp	r5, #65536
 2648 0100 8100002A 		bcs	.L516
 2649 0104 184096E5 		ldr	r4, [r6, #24]
 2650 0108 000054E3 		cmp	r4, #0
 2651 010c 7D00000A 		beq	.L517
 2652 0110 1C0096E5 		ldr	r0, [r6, #28]
 2653 0114 B250C4E1 		strh	r5, [r4, #2]	@ movhi
 2654 0118 B432D6E1 		ldrh	r3, [r6, #36]
 2655 011c 000050E3 		cmp	r0, #0
 2656 0120 B030C4E1 		strh	r3, [r4]	@ movhi
 2657 0124 5F00000A 		beq	.L496
 2658 0128 209096E5 		ldr	r9, [r6, #32]
 2659 012c 899140E0 		sub	r9, r0, r9, lsl #3
 2660 0130 000059E1 		cmp	r9, r0
 2661 0134 1600002A 		bcs	.L493
 2662 0138 B410D9E1 		ldrh	r1, [r9, #4]
 2663 013c B0C0DDE1 		ldrh	ip, [sp]
 2664 0140 003099E5 		ldr	r3, [r9]
 2665 0144 B12094E1 		ldrh	r2, [r4, r1]
 2666 0148 011084E0 		add	r1, r4, r1
 2667 014c 03304CE0 		sub	r3, ip, r3
 2668 0150 000052E3 		cmp	r2, #0
 2669 0154 7330FFE6 		uxth	r3, r3
 2670 0158 0920A001 		moveq	r2, r9
 2671 015c 0800000A 		beq	.L490
 2672 0160 480000EA 		b	.L491
 2673              	.L492:
 2674 0164 B410D2E1 		ldrh	r1, [r2, #4]
 2675 0168 003092E5 		ldr	r3, [r2]
 2676 016c B1E094E1 		ldrh	lr, [r4, r1]
 2677 0170 011084E0 		add	r1, r4, r1
 2678 0174 03304CE0 		sub	r3, ip, r3
 2679 0178 7330FFE6 		uxth	r3, r3
 2680 017c 00005EE3 		cmp	lr, #0
 2681 0180 4000001A 		bne	.L491
 2682              	.L490:
 2683 0184 082082E2 		add	r2, r2, #8
 2684 0188 B030C1E1 		strh	r3, [r1]	@ movhi
 2685 018c 000052E1 		cmp	r2, r0
 2686 0190 F3FFFF3A 		bcc	.L492
 2687              	.L493:
 2688 0194 2D20D6E5 		ldrb	r2, [r6, #45]	@ zero_extendqisi2
 2689 0198 0030A0E3 		mov	r3, #0
 2690 019c 147096E5 		ldr	r7, [r6, #20]
 2691 01a0 10A096E5 		ldr	r10, [r6, #16]
 2692 01a4 030052E1 		cmp	r2, r3
 2693 01a8 1C9086E5 		str	r9, [r6, #28]
 2694 01ac 072044E0 		sub	r2, r4, r7
 2695 01b0 203086E5 		str	r3, [r6, #32]
 2696 01b4 02204AE0 		sub	r2, r10, r2
 2697 01b8 B432C6E1 		strh	r3, [r6, #36]	@ movhi
 2698 01bc 04208DE5 		str	r2, [sp, #4]
 2699 01c0 1E00000A 		beq	.L488
 2700 01c4 000057E3 		cmp	r7, #0
 2701 01c8 3E00000A 		beq	.L494
 2702 01cc 000059E3 		cmp	r9, #0
 2703 01d0 3400000A 		beq	.L496
 2704 01d4 070059E1 		cmp	r9, r7
 2705 01d8 1800009A 		bls	.L488
 2706 01dc B0B0D4E1 		ldrh	fp, [r4]
 2707 01e0 0750A0E1 		mov	r5, r7
 2708 01e4 010000EA 		b	.L499
 2709              	.L497:
 2710 01e8 050059E1 		cmp	r9, r5
 2711 01ec 1300009A 		bls	.L488
 2712              	.L499:
 2713 01f0 048095E4 		ldr	r8, [r5], #4
 2714 01f4 08004AE0 		sub	r0, r10, r8
 2715 01f8 B03097E1 		ldrh	r3, [r7, r0]
 2716 01fc 000087E0 		add	r0, r7, r0
 2717 0200 0B0053E1 		cmp	r3, fp
 2718 0204 F7FFFF1A 		bne	.L497
 2719 0208 0B20A0E1 		mov	r2, fp
 2720 020c 0410A0E1 		mov	r1, r4
 2721 0210 FEFFFFEB 		bl	memcmp
 2722 0214 000050E3 		cmp	r0, #0
 2723 0218 F2FFFF1A 		bne	.L497
 2724 021c 0C009DE8 		ldm	sp, {r2, r3}
 2725 0220 023043E0 		sub	r3, r3, r2
 2726 0224 034084E0 		add	r4, r4, r3
 2727 0228 073044E0 		sub	r3, r4, r7
 2728 022c 184086E5 		str	r4, [r6, #24]
 2729 0230 03304AE0 		sub	r3, r10, r3
 2730 0234 030058E1 		cmp	r8, r3
 2731 0238 0A00001A 		bne	.L498
 2732 023c 04808DE5 		str	r8, [sp, #4]
 2733              	.L488:
 2734 0240 0410A0E3 		mov	r1, #4
 2735 0244 0600A0E1 		mov	r0, r6
 2736 0248 FEFFFFEB 		bl	_ZN11flatbuffers15vector_downward12ensure_spaceEj
 2737 024c 04209DE5 		ldr	r2, [sp, #4]
 2738 0250 1C3096E5 		ldr	r3, [r6, #28]
 2739 0254 10A096E5 		ldr	r10, [r6, #16]
 2740 0258 0280A0E1 		mov	r8, r2
 2741 025c 147096E5 		ldr	r7, [r6, #20]
 2742 0260 042083E4 		str	r2, [r3], #4
 2743 0264 1C3086E5 		str	r3, [r6, #28]
 2744              	.L498:
 2745 0268 00009DE5 		ldr	r0, [sp]
 2746 026c 0030A0E3 		mov	r3, #0
 2747 0270 00A04AE0 		sub	r10, r10, r0
 2748 0274 008048E0 		sub	r8, r8, r0
 2749 0278 0A8087E7 		str	r8, [r7, r10]
 2750 027c 2630C6E5 		strb	r3, [r6, #38]
 2751 0280 0CD08DE2 		add	sp, sp, #12
 2752              		@ sp needed
 2753 0284 F08FBDE8 		pop	{r4, r5, r6, r7, r8, r9, r10, fp, pc}
 2754              	.L491:
 2755 0288 003000E3 		movw	r3, #:lower16:.LC30
 2756 028c 002000E3 		movw	r2, #:lower16:.LANCHOR15
 2757 0290 000000E3 		movw	r0, #:lower16:.LC19
 2758 0294 003040E3 		movt	r3, #:upper16:.LC30
 2759 0298 002040E3 		movt	r2, #:upper16:.LANCHOR15
 2760 029c 000040E3 		movt	r0, #:upper16:.LC19
 2761 02a0 731500E3 		movw	r1, #1395
 2762 02a4 FEFFFFEB 		bl	__assert_func
 2763              	.L496:
 2764 02a8 003000E3 		movw	r3, #:lower16:.LC29
 2765 02ac 002000E3 		movw	r2, #:lower16:.LANCHOR16
 2766 02b0 000000E3 		movw	r0, #:lower16:.LC19
 2767 02b4 003040E3 		movt	r3, #:upper16:.LC29
 2768 02b8 002040E3 		movt	r2, #:upper16:.LANCHOR16
 2769 02bc 000040E3 		movt	r0, #:upper16:.LC19
 2770 02c0 EF1FA0E3 		mov	r1, #956
 2771 02c4 FEFFFFEB 		bl	__assert_func
 2772              	.L494:
 2773 02c8 003000E3 		movw	r3, #:lower16:.LC31
 2774 02cc 002000E3 		movw	r2, #:lower16:.LANCHOR17
 2775 02d0 000000E3 		movw	r0, #:lower16:.LC19
 2776 02d4 003040E3 		movt	r3, #:upper16:.LC31
 2777 02d8 002040E3 		movt	r2, #:upper16:.LANCHOR17
 2778 02dc 000040E3 		movt	r0, #:upper16:.LC19
 2779 02e0 B71300E3 		movw	r1, #951
 2780 02e4 FEFFFFEB 		bl	__assert_func
 2781              	.L515:
 2782 02e8 003000E3 		movw	r3, #:lower16:.LC26
 2783 02ec 002000E3 		movw	r2, #:lower16:.LANCHOR15
 2784 02f0 000000E3 		movw	r0, #:lower16:.LC19
 2785 02f4 003040E3 		movt	r3, #:upper16:.LC26
 2786 02f8 002040E3 		movt	r2, #:upper16:.LANCHOR15
 2787 02fc 000040E3 		movt	r0, #:upper16:.LC19
 2788 0300 5A1500E3 		movw	r1, #1370
 2789 0304 FEFFFFEB 		bl	__assert_func
 2790              	.L517:
 2791 0308 FEFFFFEB 		bl	_ZNK11flatbuffers15vector_downward4dataEv.isra.9.part.10
 2792              	.L516:
 2793 030c 003000E3 		movw	r3, #:lower16:.LC28
 2794 0310 002000E3 		movw	r2, #:lower16:.LANCHOR15
 2795 0314 000000E3 		movw	r0, #:lower16:.LC19
 2796 0318 003040E3 		movt	r3, #:upper16:.LC28
 2797 031c 002040E3 		movt	r2, #:upper16:.LANCHOR15
 2798 0320 000040E3 		movt	r0, #:upper16:.LC19
 2799 0324 691500E3 		movw	r1, #1385
 2800 0328 FEFFFFEB 		bl	__assert_func
 2801              		.fnend
 2803              		.section	.text._ZN6tflite12CreateTensorERN11flatbuffers17FlatBufferBuilderENS0_6OffsetINS0_6Vector
 2804              		.align	2
 2805              		.syntax unified
 2806              		.arm
 2807              		.fpu neon
 2809              	_ZN6tflite12CreateTensorERN11flatbuffers17FlatBufferBuilderENS0_6OffsetINS0_6VectorIlEEEENS_10Tenso
 2810              		.fnstart
 2811              	.LFB11582:
 2812              		@ args = 16, pretend = 0, frame = 0
 2813              		@ frame_needed = 0, uses_anonymous_args = 0
 2814 0000 F84F2DE9 		push	{r3, r4, r5, r6, r7, r8, r9, r10, fp, lr}
 2815              		.save {r3, r4, r5, r6, r7, r8, r9, r10, fp, lr}
 2816 0004 0180A0E1 		mov	r8, r1
 2817 0008 2610D0E5 		ldrb	r1, [r0, #38]	@ zero_extendqisi2
 2818 000c 0350A0E1 		mov	r5, r3
 2819 0010 28A09DE5 		ldr	r10, [sp, #40]
 2820 0014 000051E3 		cmp	r1, #0
 2821 0018 203090E5 		ldr	r3, [r0, #32]
 2822 001c 2C70DDE5 		ldrb	r7, [sp, #44]	@ zero_extendqisi2
 2823 0020 30B09DE5 		ldr	fp, [sp, #48]
 2824 0024 34109DE5 		ldr	r1, [sp, #52]
 2825 0028 E700001A 		bne	.L584
 2826 002c 000053E3 		cmp	r3, #0
 2827 0030 ED00001A 		bne	.L585
 2828 0034 0290A0E1 		mov	r9, r2
 2829 0038 183090E5 		ldr	r3, [r0, #24]
 2830 003c 142090E5 		ldr	r2, [r0, #20]
 2831 0040 000051E3 		cmp	r1, #0
 2832 0044 106090E5 		ldr	r6, [r0, #16]
 2833 0048 01C0A0E3 		mov	ip, #1
 2834 004c 0040A0E1 		mov	r4, r0
 2835 0050 26C0C0E5 		strb	ip, [r0, #38]
 2836 0054 023043E0 		sub	r3, r3, r2
 2837 0058 036046E0 		sub	r6, r6, r3
 2838 005c D000001A 		bne	.L586
 2839              	.L522:
 2840 0060 00005BE3 		cmp	fp, #0
 2841 0064 C200001A 		bne	.L587
 2842              	.L526:
 2843 0068 00005AE3 		cmp	r10, #0
 2844 006c B400001A 		bne	.L588
 2845              	.L530:
 2846 0070 000055E3 		cmp	r5, #0
 2847 0074 5C00001A 		bne	.L589
 2848              	.L533:
 2849 0078 000059E3 		cmp	r9, #0
 2850 007c 6400001A 		bne	.L536
 2851 0080 2C30D4E5 		ldrb	r3, [r4, #44]	@ zero_extendqisi2
 2852 0084 000053E3 		cmp	r3, #0
 2853 0088 6100001A 		bne	.L536
 2854              	.L537:
 2855 008c 000058E3 		cmp	r8, #0
 2856 0090 9700001A 		bne	.L590
 2857              	.L540:
 2858 0094 000057E3 		cmp	r7, #0
 2859 0098 9F00001A 		bne	.L559
 2860 009c 2C30D4E5 		ldrb	r3, [r4, #44]	@ zero_extendqisi2
 2861 00a0 000053E3 		cmp	r3, #0
 2862 00a4 2500000A 		beq	.L544
 2863              	.L543:
 2864 00a8 283094E5 		ldr	r3, [r4, #40]
 2865 00ac 0010A0E3 		mov	r1, #0
 2866 00b0 0400A0E1 		mov	r0, r4
 2867 00b4 000053E3 		cmp	r3, #0
 2868 00b8 0130A003 		moveq	r3, #1
 2869 00bc 28308405 		streq	r3, [r4, #40]
 2870 00c0 FEFFFFEB 		bl	_ZN11flatbuffers15vector_downward12ensure_spaceEj
 2871 00c4 183094E5 		ldr	r3, [r4, #24]
 2872 00c8 0110A0E3 		mov	r1, #1
 2873 00cc 003043E0 		sub	r3, r3, r0
 2874 00d0 0400A0E1 		mov	r0, r4
 2875 00d4 183084E5 		str	r3, [r4, #24]
 2876 00d8 FEFFFFEB 		bl	_ZN11flatbuffers15vector_downward12ensure_spaceEj
 2877 00dc 183094E5 		ldr	r3, [r4, #24]
 2878 00e0 0810A0E3 		mov	r1, #8
 2879 00e4 003043E0 		sub	r3, r3, r0
 2880 00e8 0400A0E1 		mov	r0, r4
 2881 00ec 183084E5 		str	r3, [r4, #24]
 2882 00f0 0070C3E5 		strb	r7, [r3]
 2883 00f4 142094E5 		ldr	r2, [r4, #20]
 2884 00f8 183094E5 		ldr	r3, [r4, #24]
 2885 00fc 105094E5 		ldr	r5, [r4, #16]
 2886 0100 023043E0 		sub	r3, r3, r2
 2887 0104 035045E0 		sub	r5, r5, r3
 2888 0108 FEFFFFEB 		bl	_ZN11flatbuffers15vector_downward12ensure_spaceEj
 2889 010c 1C3094E5 		ldr	r3, [r4, #28]
 2890 0110 0E00A0E3 		mov	r0, #14
 2891 0114 202094E5 		ldr	r2, [r4, #32]
 2892 0118 081083E2 		add	r1, r3, #8
 2893 011c 005083E5 		str	r5, [r3]
 2894 0120 B400C3E1 		strh	r0, [r3, #4]	@ movhi
 2895 0124 012082E2 		add	r2, r2, #1
 2896 0128 B432D4E1 		ldrh	r3, [r4, #36]
 2897 012c 1C1084E5 		str	r1, [r4, #28]
 2898 0130 202084E5 		str	r2, [r4, #32]
 2899 0134 000053E1 		cmp	r3, r0
 2900 0138 0030A0B1 		movlt	r3, r0
 2901 013c B432C4E1 		strh	r3, [r4, #36]	@ movhi
 2902              	.L544:
 2903 0140 283094E5 		ldr	r3, [r4, #40]
 2904 0144 0010A0E3 		mov	r1, #0
 2905 0148 0400A0E1 		mov	r0, r4
 2906 014c 000053E3 		cmp	r3, #0
 2907 0150 0130A003 		moveq	r3, #1
 2908 0154 28308405 		streq	r3, [r4, #40]
 2909 0158 FEFFFFEB 		bl	_ZN11flatbuffers15vector_downward12ensure_spaceEj
 2910 015c 183094E5 		ldr	r3, [r4, #24]
 2911 0160 0110A0E3 		mov	r1, #1
 2912 0164 003043E0 		sub	r3, r3, r0
 2913 0168 0400A0E1 		mov	r0, r4
 2914 016c 183084E5 		str	r3, [r4, #24]
 2915 0170 FEFFFFEB 		bl	_ZN11flatbuffers15vector_downward12ensure_spaceEj
 2916 0174 183094E5 		ldr	r3, [r4, #24]
 2917 0178 0220A0E3 		mov	r2, #2
 2918 017c 0810A0E3 		mov	r1, #8
 2919 0180 003043E0 		sub	r3, r3, r0
 2920 0184 0400A0E1 		mov	r0, r4
 2921 0188 183084E5 		str	r3, [r4, #24]
 2922 018c 0020C3E5 		strb	r2, [r3]
 2923 0190 142094E5 		ldr	r2, [r4, #20]
 2924 0194 183094E5 		ldr	r3, [r4, #24]
 2925 0198 105094E5 		ldr	r5, [r4, #16]
 2926 019c 023043E0 		sub	r3, r3, r2
 2927 01a0 035045E0 		sub	r5, r5, r3
 2928 01a4 FEFFFFEB 		bl	_ZN11flatbuffers15vector_downward12ensure_spaceEj
 2929 01a8 1C3094E5 		ldr	r3, [r4, #28]
 2930 01ac 06E0A0E3 		mov	lr, #6
 2931 01b0 202094E5 		ldr	r2, [r4, #32]
 2932 01b4 0610A0E1 		mov	r1, r6
 2933 01b8 0400A0E1 		mov	r0, r4
 2934 01bc 005083E5 		str	r5, [r3]
 2935 01c0 08C083E2 		add	ip, r3, #8
 2936 01c4 B4E0C3E1 		strh	lr, [r3, #4]	@ movhi
 2937 01c8 012082E2 		add	r2, r2, #1
 2938 01cc B432D4E1 		ldrh	r3, [r4, #36]
 2939 01d0 1CC084E5 		str	ip, [r4, #28]
 2940 01d4 202084E5 		str	r2, [r4, #32]
 2941 01d8 0E0053E1 		cmp	r3, lr
 2942 01dc 0E30A0B1 		movlt	r3, lr
 2943 01e0 B432C4E1 		strh	r3, [r4, #36]	@ movhi
 2944 01e4 FEFFFFEB 		bl	_ZN11flatbuffers17FlatBufferBuilder8EndTableEm
 2945 01e8 F88FBDE8 		pop	{r3, r4, r5, r6, r7, r8, r9, r10, fp, pc}
 2946              	.L589:
 2947 01ec 0510A0E1 		mov	r1, r5
 2948 01f0 0400A0E1 		mov	r0, r4
 2949 01f4 FEFFFFEB 		bl	_ZN11flatbuffers17FlatBufferBuilder7ReferToEm
 2950 01f8 002050E2 		subs	r2, r0, #0
 2951 01fc 4C00001A 		bne	.L534
 2952 0200 2C30D4E5 		ldrb	r3, [r4, #44]	@ zero_extendqisi2
 2953 0204 000053E3 		cmp	r3, #0
 2954 0208 4900001A 		bne	.L534
 2955 020c 000059E3 		cmp	r9, #0
 2956 0210 9DFFFF0A 		beq	.L537
 2957              	.L536:
 2958 0214 283094E5 		ldr	r3, [r4, #40]
 2959 0218 0400A0E1 		mov	r0, r4
 2960 021c 185094E5 		ldr	r5, [r4, #24]
 2961 0220 142094E5 		ldr	r2, [r4, #20]
 2962 0224 030053E3 		cmp	r3, #3
 2963 0228 0430A093 		movls	r3, #4
 2964 022c 28308495 		strls	r3, [r4, #40]
 2965 0230 025045E0 		sub	r5, r5, r2
 2966 0234 103094E5 		ldr	r3, [r4, #16]
 2967 0238 035045E0 		sub	r5, r5, r3
 2968 023c 035005E2 		and	r5, r5, #3
 2969 0240 0510A0E1 		mov	r1, r5
 2970 0244 FEFFFFEB 		bl	_ZN11flatbuffers15vector_downward12ensure_spaceEj
 2971 0248 183094E5 		ldr	r3, [r4, #24]
 2972 024c 000055E3 		cmp	r5, #0
 2973 0250 000043E0 		sub	r0, r3, r0
 2974 0254 180084E5 		str	r0, [r4, #24]
 2975 0258 0800000A 		beq	.L538
 2976 025c 010055E3 		cmp	r5, #1
 2977 0260 0030A0E3 		mov	r3, #0
 2978 0264 0030C0E5 		strb	r3, [r0]
 2979 0268 0400000A 		beq	.L538
 2980 026c 182094E5 		ldr	r2, [r4, #24]
 2981 0270 020055E3 		cmp	r5, #2
 2982 0274 0130C2E5 		strb	r3, [r2, #1]
 2983 0278 18209415 		ldrne	r2, [r4, #24]
 2984 027c 0230C215 		strbne	r3, [r2, #2]
 2985              	.L538:
 2986 0280 0410A0E3 		mov	r1, #4
 2987 0284 0400A0E1 		mov	r0, r4
 2988 0288 FEFFFFEB 		bl	_ZN11flatbuffers15vector_downward12ensure_spaceEj
 2989 028c 183094E5 		ldr	r3, [r4, #24]
 2990 0290 0810A0E3 		mov	r1, #8
 2991 0294 142094E5 		ldr	r2, [r4, #20]
 2992 0298 105094E5 		ldr	r5, [r4, #16]
 2993 029c 000043E0 		sub	r0, r3, r0
 2994 02a0 023040E0 		sub	r3, r0, r2
 2995 02a4 180084E5 		str	r0, [r4, #24]
 2996 02a8 009080E5 		str	r9, [r0]
 2997 02ac 0400A0E1 		mov	r0, r4
 2998 02b0 035045E0 		sub	r5, r5, r3
 2999 02b4 FEFFFFEB 		bl	_ZN11flatbuffers15vector_downward12ensure_spaceEj
 3000 02b8 1C3094E5 		ldr	r3, [r4, #28]
 3001 02bc 0800A0E3 		mov	r0, #8
 3002 02c0 202094E5 		ldr	r2, [r4, #32]
 3003 02c4 001083E0 		add	r1, r3, r0
 3004 02c8 005083E5 		str	r5, [r3]
 3005 02cc B400C3E1 		strh	r0, [r3, #4]	@ movhi
 3006 02d0 012082E2 		add	r2, r2, #1
 3007 02d4 B432D4E1 		ldrh	r3, [r4, #36]
 3008 02d8 1C1084E5 		str	r1, [r4, #28]
 3009 02dc 202084E5 		str	r2, [r4, #32]
 3010 02e0 000053E1 		cmp	r3, r0
 3011 02e4 0030A0B1 		movlt	r3, r0
 3012 02e8 000058E3 		cmp	r8, #0
 3013 02ec B432C4E1 		strh	r3, [r4, #36]	@ movhi
 3014 02f0 67FFFF0A 		beq	.L540
 3015              	.L590:
 3016 02f4 0810A0E1 		mov	r1, r8
 3017 02f8 0400A0E1 		mov	r0, r4
 3018 02fc FEFFFFEB 		bl	_ZN11flatbuffers17FlatBufferBuilder7ReferToEm
 3019 0300 002050E2 		subs	r2, r0, #0
 3020 0304 0600001A 		bne	.L541
 3021 0308 2C30D4E5 		ldrb	r3, [r4, #44]	@ zero_extendqisi2
 3022 030c 000053E3 		cmp	r3, #0
 3023 0310 0300001A 		bne	.L541
 3024 0314 000057E3 		cmp	r7, #0
 3025 0318 88FFFF0A 		beq	.L544
 3026              	.L559:
 3027 031c 0170A0E3 		mov	r7, #1
 3028 0320 60FFFFEA 		b	.L543
 3029              	.L541:
 3030 0324 0410A0E3 		mov	r1, #4
 3031 0328 0400A0E1 		mov	r0, r4
 3032 032c FEFFFFEB 		bl	_ZN11flatbuffers17FlatBufferBuilder10AddElementImEEvtT_S2_.part.45
 3033 0330 57FFFFEA 		b	.L540
 3034              	.L534:
 3035 0334 0A10A0E3 		mov	r1, #10
 3036 0338 0400A0E1 		mov	r0, r4
 3037 033c FEFFFFEB 		bl	_ZN11flatbuffers17FlatBufferBuilder10AddElementImEEvtT_S2_.part.45
 3038 0340 4CFFFFEA 		b	.L533
 3039              	.L588:
 3040 0344 0A10A0E1 		mov	r1, r10
 3041 0348 0400A0E1 		mov	r0, r4
 3042 034c FEFFFFEB 		bl	_ZN11flatbuffers17FlatBufferBuilder7ReferToEm
 3043 0350 002050E2 		subs	r2, r0, #0
 3044 0354 0200001A 		bne	.L531
 3045 0358 2C30D4E5 		ldrb	r3, [r4, #44]	@ zero_extendqisi2
 3046 035c 000053E3 		cmp	r3, #0
 3047 0360 42FFFF0A 		beq	.L530
 3048              	.L531:
 3049 0364 0C10A0E3 		mov	r1, #12
 3050 0368 0400A0E1 		mov	r0, r4
 3051 036c FEFFFFEB 		bl	_ZN11flatbuffers17FlatBufferBuilder10AddElementImEEvtT_S2_.part.45
 3052 0370 3EFFFFEA 		b	.L530
 3053              	.L587:
 3054 0374 0B10A0E1 		mov	r1, fp
 3055 0378 0400A0E1 		mov	r0, r4
 3056 037c FEFFFFEB 		bl	_ZN11flatbuffers17FlatBufferBuilder7ReferToEm
 3057 0380 002050E2 		subs	r2, r0, #0
 3058 0384 0200001A 		bne	.L527
 3059 0388 2C30D4E5 		ldrb	r3, [r4, #44]	@ zero_extendqisi2
 3060 038c 000053E3 		cmp	r3, #0
 3061 0390 34FFFF0A 		beq	.L526
 3062              	.L527:
 3063 0394 1010A0E3 		mov	r1, #16
 3064 0398 0400A0E1 		mov	r0, r4
 3065 039c FEFFFFEB 		bl	_ZN11flatbuffers17FlatBufferBuilder10AddElementImEEvtT_S2_.part.45
 3066 03a0 30FFFFEA 		b	.L526
 3067              	.L586:
 3068 03a4 FEFFFFEB 		bl	_ZN11flatbuffers17FlatBufferBuilder7ReferToEm
 3069 03a8 002050E2 		subs	r2, r0, #0
 3070 03ac 0200001A 		bne	.L523
 3071 03b0 2C30D4E5 		ldrb	r3, [r4, #44]	@ zero_extendqisi2
 3072 03b4 000053E3 		cmp	r3, #0
 3073 03b8 28FFFF0A 		beq	.L522
 3074              	.L523:
 3075 03bc 1210A0E3 		mov	r1, #18
 3076 03c0 0400A0E1 		mov	r0, r4
 3077 03c4 FEFFFFEB 		bl	_ZN11flatbuffers17FlatBufferBuilder10AddElementImEEvtT_S2_.part.45
 3078 03c8 24FFFFEA 		b	.L522
 3079              	.L584:
 3080 03cc 003000E3 		movw	r3, #:lower16:.LC24
 3081 03d0 002000E3 		movw	r2, #:lower16:.LANCHOR11
 3082 03d4 000000E3 		movw	r0, #:lower16:.LC19
 3083 03d8 003040E3 		movt	r3, #:upper16:.LC24
 3084 03dc 002040E3 		movt	r2, #:upper16:.LANCHOR11
 3085 03e0 000040E3 		movt	r0, #:upper16:.LC19
 3086 03e4 481500E3 		movw	r1, #1352
 3087 03e8 FEFFFFEB 		bl	__assert_func
 3088              	.L585:
 3089 03ec FEFFFFEB 		bl	_ZN11flatbuffers17FlatBufferBuilder9NotNestedEv.isra.19.part.20
 3090              		.fnend
 3092              		.section	.text._ZN6tflite12CreateTensorERN11flatbuffers17FlatBufferBuilderENS0_6OffsetINS0_6Vector
 3093              		.align	2
 3094              		.syntax unified
 3095              		.arm
 3096              		.fpu neon
 3098              	_ZN6tflite12CreateTensorERN11flatbuffers17FlatBufferBuilderENS0_6OffsetINS0_6VectorIlEEEENS_10Tenso
 3099              		.fnstart
 3100              	.LFB11581:
 3101              		@ args = 12, pretend = 0, frame = 0
 3102              		@ frame_needed = 0, uses_anonymous_args = 0
 3103 0000 F0472DE9 		push	{r4, r5, r6, r7, r8, r9, r10, lr}
 3104              		.save {r4, r5, r6, r7, r8, r9, r10, lr}
 3105 0004 0180A0E1 		mov	r8, r1
 3106 0008 2610D0E5 		ldrb	r1, [r0, #38]	@ zero_extendqisi2
 3107 000c 0350A0E1 		mov	r5, r3
 3108 0010 20909DE5 		ldr	r9, [sp, #32]
 3109 0014 000051E3 		cmp	r1, #0
 3110 0018 203090E5 		ldr	r3, [r0, #32]
 3111 001c 24A09DE5 		ldr	r10, [sp, #36]
 3112 0020 28109DE5 		ldr	r1, [sp, #40]
 3113 0024 E700001A 		bne	.L657
 3114 0028 000053E3 		cmp	r3, #0
 3115 002c E400001A 		bne	.L658
 3116 0030 0260A0E1 		mov	r6, r2
 3117 0034 183090E5 		ldr	r3, [r0, #24]
 3118 0038 142090E5 		ldr	r2, [r0, #20]
 3119 003c 000051E3 		cmp	r1, #0
 3120 0040 107090E5 		ldr	r7, [r0, #16]
 3121 0044 01C0A0E3 		mov	ip, #1
 3122 0048 0040A0E1 		mov	r4, r0
 3123 004c 26C0C0E5 		strb	ip, [r0, #38]
 3124 0050 023043E0 		sub	r3, r3, r2
 3125 0054 037047E0 		sub	r7, r7, r3
 3126 0058 CF00001A 		bne	.L659
 3127              	.L595:
 3128 005c 00005AE3 		cmp	r10, #0
 3129 0060 C100001A 		bne	.L660
 3130              	.L599:
 3131 0064 000059E3 		cmp	r9, #0
 3132 0068 B300001A 		bne	.L661
 3133              	.L603:
 3134 006c 000055E3 		cmp	r5, #0
 3135 0070 A500001A 		bne	.L662
 3136              	.L606:
 3137 0074 2C30D4E5 		ldrb	r3, [r4, #44]	@ zero_extendqisi2
 3138 0078 000053E3 		cmp	r3, #0
 3139 007c 3600000A 		beq	.L608
 3140 0080 283094E5 		ldr	r3, [r4, #40]
 3141 0084 0400A0E1 		mov	r0, r4
 3142 0088 185094E5 		ldr	r5, [r4, #24]
 3143 008c 142094E5 		ldr	r2, [r4, #20]
 3144 0090 030053E3 		cmp	r3, #3
 3145 0094 0430A093 		movls	r3, #4
 3146 0098 28308495 		strls	r3, [r4, #40]
 3147 009c 025045E0 		sub	r5, r5, r2
 3148 00a0 103094E5 		ldr	r3, [r4, #16]
 3149 00a4 035045E0 		sub	r5, r5, r3
 3150 00a8 035005E2 		and	r5, r5, #3
 3151 00ac 0510A0E1 		mov	r1, r5
 3152 00b0 FEFFFFEB 		bl	_ZN11flatbuffers15vector_downward12ensure_spaceEj
 3153 00b4 183094E5 		ldr	r3, [r4, #24]
 3154 00b8 000055E3 		cmp	r5, #0
 3155 00bc 000043E0 		sub	r0, r3, r0
 3156 00c0 180084E5 		str	r0, [r4, #24]
 3157 00c4 0800000A 		beq	.L611
 3158 00c8 010055E3 		cmp	r5, #1
 3159 00cc 0030A0E3 		mov	r3, #0
 3160 00d0 0030C0E5 		strb	r3, [r0]
 3161 00d4 0400000A 		beq	.L611
 3162 00d8 182094E5 		ldr	r2, [r4, #24]
 3163 00dc 020055E3 		cmp	r5, #2
 3164 00e0 0130C2E5 		strb	r3, [r2, #1]
 3165 00e4 18209415 		ldrne	r2, [r4, #24]
 3166 00e8 0230C215 		strbne	r3, [r2, #2]
 3167              	.L611:
 3168 00ec 0410A0E3 		mov	r1, #4
 3169 00f0 0400A0E1 		mov	r0, r4
 3170 00f4 FEFFFFEB 		bl	_ZN11flatbuffers15vector_downward12ensure_spaceEj
 3171 00f8 183094E5 		ldr	r3, [r4, #24]
 3172 00fc 00C0A0E3 		mov	ip, #0
 3173 0100 142094E5 		ldr	r2, [r4, #20]
 3174 0104 0810A0E3 		mov	r1, #8
 3175 0108 105094E5 		ldr	r5, [r4, #16]
 3176 010c 000043E0 		sub	r0, r3, r0
 3177 0110 023040E0 		sub	r3, r0, r2
 3178 0114 180084E5 		str	r0, [r4, #24]
 3179 0118 00C080E5 		str	ip, [r0]
 3180 011c 0400A0E1 		mov	r0, r4
 3181 0120 035045E0 		sub	r5, r5, r3
 3182 0124 FEFFFFEB 		bl	_ZN11flatbuffers15vector_downward12ensure_spaceEj
 3183 0128 1C3094E5 		ldr	r3, [r4, #28]
 3184 012c 0800A0E3 		mov	r0, #8
 3185 0130 202094E5 		ldr	r2, [r4, #32]
 3186 0134 001083E0 		add	r1, r3, r0
 3187 0138 005083E5 		str	r5, [r3]
 3188 013c B400C3E1 		strh	r0, [r3, #4]	@ movhi
 3189 0140 012082E2 		add	r2, r2, #1
 3190 0144 B432D4E1 		ldrh	r3, [r4, #36]
 3191 0148 1C1084E5 		str	r1, [r4, #28]
 3192 014c 202084E5 		str	r2, [r4, #32]
 3193 0150 000053E1 		cmp	r3, r0
 3194 0154 0030A0B1 		movlt	r3, r0
 3195 0158 B432C4E1 		strh	r3, [r4, #36]	@ movhi
 3196              	.L608:
 3197 015c 000058E3 		cmp	r8, #0
 3198 0160 5900001A 		bne	.L663
 3199              	.L613:
 3200 0164 2C30D4E5 		ldrb	r3, [r4, #44]	@ zero_extendqisi2
 3201 0168 000053E3 		cmp	r3, #0
 3202 016c 5E00000A 		beq	.L653
 3203 0170 283094E5 		ldr	r3, [r4, #40]
 3204 0174 0010A0E3 		mov	r1, #0
 3205 0178 0400A0E1 		mov	r0, r4
 3206 017c 7660AFE6 		sxtb	r6, r6
 3207 0180 000053E3 		cmp	r3, #0
 3208 0184 0130A003 		moveq	r3, #1
 3209 0188 28308405 		streq	r3, [r4, #40]
 3210 018c FEFFFFEB 		bl	_ZN11flatbuffers15vector_downward12ensure_spaceEj
 3211 0190 183094E5 		ldr	r3, [r4, #24]
 3212 0194 0110A0E3 		mov	r1, #1
 3213 0198 003043E0 		sub	r3, r3, r0
 3214 019c 0400A0E1 		mov	r0, r4
 3215 01a0 183084E5 		str	r3, [r4, #24]
 3216 01a4 FEFFFFEB 		bl	_ZN11flatbuffers15vector_downward12ensure_spaceEj
 3217 01a8 183094E5 		ldr	r3, [r4, #24]
 3218 01ac 0020A0E3 		mov	r2, #0
 3219 01b0 0810A0E3 		mov	r1, #8
 3220 01b4 003043E0 		sub	r3, r3, r0
 3221 01b8 0400A0E1 		mov	r0, r4
 3222 01bc 183084E5 		str	r3, [r4, #24]
 3223 01c0 0020C3E5 		strb	r2, [r3]
 3224 01c4 142094E5 		ldr	r2, [r4, #20]
 3225 01c8 183094E5 		ldr	r3, [r4, #24]
 3226 01cc 105094E5 		ldr	r5, [r4, #16]
 3227 01d0 023043E0 		sub	r3, r3, r2
 3228 01d4 035045E0 		sub	r5, r5, r3
 3229 01d8 FEFFFFEB 		bl	_ZN11flatbuffers15vector_downward12ensure_spaceEj
 3230 01dc 1C3094E5 		ldr	r3, [r4, #28]
 3231 01e0 0E00A0E3 		mov	r0, #14
 3232 01e4 202094E5 		ldr	r2, [r4, #32]
 3233 01e8 081083E2 		add	r1, r3, #8
 3234 01ec 005083E5 		str	r5, [r3]
 3235 01f0 B400C3E1 		strh	r0, [r3, #4]	@ movhi
 3236 01f4 012082E2 		add	r2, r2, #1
 3237 01f8 B432D4E1 		ldrh	r3, [r4, #36]
 3238 01fc 1C1084E5 		str	r1, [r4, #28]
 3239 0200 202084E5 		str	r2, [r4, #32]
 3240 0204 000053E1 		cmp	r3, r0
 3241 0208 0030A0B1 		movlt	r3, r0
 3242 020c 000056E3 		cmp	r6, #0
 3243 0210 B432C4E1 		strh	r3, [r4, #36]	@ movhi
 3244 0214 0200001A 		bne	.L619
 3245 0218 2C30D4E5 		ldrb	r3, [r4, #44]	@ zero_extendqisi2
 3246 021c 000053E3 		cmp	r3, #0
 3247 0220 2500000A 		beq	.L620
 3248              	.L619:
 3249 0224 283094E5 		ldr	r3, [r4, #40]
 3250 0228 0010A0E3 		mov	r1, #0
 3251 022c 0400A0E1 		mov	r0, r4
 3252 0230 000053E3 		cmp	r3, #0
 3253 0234 0130A003 		moveq	r3, #1
 3254 0238 28308405 		streq	r3, [r4, #40]
 3255 023c FEFFFFEB 		bl	_ZN11flatbuffers15vector_downward12ensure_spaceEj
 3256 0240 183094E5 		ldr	r3, [r4, #24]
 3257 0244 0110A0E3 		mov	r1, #1
 3258 0248 003043E0 		sub	r3, r3, r0
 3259 024c 0400A0E1 		mov	r0, r4
 3260 0250 183084E5 		str	r3, [r4, #24]
 3261 0254 FEFFFFEB 		bl	_ZN11flatbuffers15vector_downward12ensure_spaceEj
 3262 0258 183094E5 		ldr	r3, [r4, #24]
 3263 025c 0810A0E3 		mov	r1, #8
 3264 0260 003043E0 		sub	r3, r3, r0
 3265 0264 0400A0E1 		mov	r0, r4
 3266 0268 183084E5 		str	r3, [r4, #24]
 3267 026c 0060C3E5 		strb	r6, [r3]
 3268 0270 142094E5 		ldr	r2, [r4, #20]
 3269 0274 183094E5 		ldr	r3, [r4, #24]
 3270 0278 105094E5 		ldr	r5, [r4, #16]
 3271 027c 023043E0 		sub	r3, r3, r2
 3272 0280 035045E0 		sub	r5, r5, r3
 3273 0284 FEFFFFEB 		bl	_ZN11flatbuffers15vector_downward12ensure_spaceEj
 3274 0288 1C3094E5 		ldr	r3, [r4, #28]
 3275 028c 0600A0E3 		mov	r0, #6
 3276 0290 202094E5 		ldr	r2, [r4, #32]
 3277 0294 081083E2 		add	r1, r3, #8
 3278 0298 005083E5 		str	r5, [r3]
 3279 029c B400C3E1 		strh	r0, [r3, #4]	@ movhi
 3280 02a0 012082E2 		add	r2, r2, #1
 3281 02a4 B432D4E1 		ldrh	r3, [r4, #36]
 3282 02a8 1C1084E5 		str	r1, [r4, #28]
 3283 02ac 202084E5 		str	r2, [r4, #32]
 3284 02b0 000053E1 		cmp	r3, r0
 3285 02b4 0030A0B1 		movlt	r3, r0
 3286 02b8 B432C4E1 		strh	r3, [r4, #36]	@ movhi
 3287              	.L620:
 3288 02bc 0710A0E1 		mov	r1, r7
 3289 02c0 0400A0E1 		mov	r0, r4
 3290 02c4 FEFFFFEB 		bl	_ZN11flatbuffers17FlatBufferBuilder8EndTableEm
 3291 02c8 F087BDE8 		pop	{r4, r5, r6, r7, r8, r9, r10, pc}
 3292              	.L663:
 3293 02cc 0810A0E1 		mov	r1, r8
 3294 02d0 0400A0E1 		mov	r0, r4
 3295 02d4 FEFFFFEB 		bl	_ZN11flatbuffers17FlatBufferBuilder7ReferToEm
 3296 02d8 002050E2 		subs	r2, r0, #0
 3297 02dc 0600001A 		bne	.L614
 3298 02e0 2C30D4E5 		ldrb	r3, [r4, #44]	@ zero_extendqisi2
 3299 02e4 000053E3 		cmp	r3, #0
 3300 02e8 0300001A 		bne	.L614
 3301              	.L653:
 3302 02ec 7660AFE6 		sxtb	r6, r6
 3303 02f0 000056E3 		cmp	r6, #0
 3304 02f4 CAFFFF1A 		bne	.L619
 3305 02f8 EFFFFFEA 		b	.L620
 3306              	.L614:
 3307 02fc 0410A0E3 		mov	r1, #4
 3308 0300 0400A0E1 		mov	r0, r4
 3309 0304 FEFFFFEB 		bl	_ZN11flatbuffers17FlatBufferBuilder10AddElementImEEvtT_S2_.part.45
 3310 0308 95FFFFEA 		b	.L613
 3311              	.L662:
 3312 030c 0510A0E1 		mov	r1, r5
 3313 0310 0400A0E1 		mov	r0, r4
 3314 0314 FEFFFFEB 		bl	_ZN11flatbuffers17FlatBufferBuilder7ReferToEm
 3315 0318 002050E2 		subs	r2, r0, #0
 3316 031c 0200001A 		bne	.L607
 3317 0320 2C30D4E5 		ldrb	r3, [r4, #44]	@ zero_extendqisi2
 3318 0324 000053E3 		cmp	r3, #0
 3319 0328 8BFFFF0A 		beq	.L608
 3320              	.L607:
 3321 032c 0A10A0E3 		mov	r1, #10
 3322 0330 0400A0E1 		mov	r0, r4
 3323 0334 FEFFFFEB 		bl	_ZN11flatbuffers17FlatBufferBuilder10AddElementImEEvtT_S2_.part.45
 3324 0338 4DFFFFEA 		b	.L606
 3325              	.L661:
 3326 033c 0910A0E1 		mov	r1, r9
 3327 0340 0400A0E1 		mov	r0, r4
 3328 0344 FEFFFFEB 		bl	_ZN11flatbuffers17FlatBufferBuilder7ReferToEm
 3329 0348 002050E2 		subs	r2, r0, #0
 3330 034c 0200001A 		bne	.L604
 3331 0350 2C30D4E5 		ldrb	r3, [r4, #44]	@ zero_extendqisi2
 3332 0354 000053E3 		cmp	r3, #0
 3333 0358 43FFFF0A 		beq	.L603
 3334              	.L604:
 3335 035c 0C10A0E3 		mov	r1, #12
 3336 0360 0400A0E1 		mov	r0, r4
 3337 0364 FEFFFFEB 		bl	_ZN11flatbuffers17FlatBufferBuilder10AddElementImEEvtT_S2_.part.45
 3338 0368 3FFFFFEA 		b	.L603
 3339              	.L660:
 3340 036c 0A10A0E1 		mov	r1, r10
 3341 0370 0400A0E1 		mov	r0, r4
 3342 0374 FEFFFFEB 		bl	_ZN11flatbuffers17FlatBufferBuilder7ReferToEm
 3343 0378 002050E2 		subs	r2, r0, #0
 3344 037c 0200001A 		bne	.L600
 3345 0380 2C30D4E5 		ldrb	r3, [r4, #44]	@ zero_extendqisi2
 3346 0384 000053E3 		cmp	r3, #0
 3347 0388 35FFFF0A 		beq	.L599
 3348              	.L600:
 3349 038c 1010A0E3 		mov	r1, #16
 3350 0390 0400A0E1 		mov	r0, r4
 3351 0394 FEFFFFEB 		bl	_ZN11flatbuffers17FlatBufferBuilder10AddElementImEEvtT_S2_.part.45
 3352 0398 31FFFFEA 		b	.L599
 3353              	.L659:
 3354 039c FEFFFFEB 		bl	_ZN11flatbuffers17FlatBufferBuilder7ReferToEm
 3355 03a0 002050E2 		subs	r2, r0, #0
 3356 03a4 0200001A 		bne	.L596
 3357 03a8 2C30D4E5 		ldrb	r3, [r4, #44]	@ zero_extendqisi2
 3358 03ac 000053E3 		cmp	r3, #0
 3359 03b0 29FFFF0A 		beq	.L595
 3360              	.L596:
 3361 03b4 1210A0E3 		mov	r1, #18
 3362 03b8 0400A0E1 		mov	r0, r4
 3363 03bc FEFFFFEB 		bl	_ZN11flatbuffers17FlatBufferBuilder10AddElementImEEvtT_S2_.part.45
 3364 03c0 25FFFFEA 		b	.L595
 3365              	.L658:
 3366 03c4 FEFFFFEB 		bl	_ZN11flatbuffers17FlatBufferBuilder9NotNestedEv.isra.19.part.20
 3367              	.L657:
 3368 03c8 003000E3 		movw	r3, #:lower16:.LC24
 3369 03cc 002000E3 		movw	r2, #:lower16:.LANCHOR11
 3370 03d0 000000E3 		movw	r0, #:lower16:.LC19
 3371 03d4 003040E3 		movt	r3, #:upper16:.LC24
 3372 03d8 002040E3 		movt	r2, #:upper16:.LANCHOR11
 3373 03dc 000040E3 		movt	r0, #:upper16:.LC19
 3374 03e0 481500E3 		movw	r1, #1352
 3375 03e4 FEFFFFEB 		bl	__assert_func
 3376              		.fnend
 3378              		.section	.text._ZN11flatbuffers17FlatBufferBuilder12CreateStringEPKcj,"axG",%progbits,_ZN11flatbuf
 3379              		.align	2
 3380              		.weak	_ZN11flatbuffers17FlatBufferBuilder12CreateStringEPKcj
 3381              		.syntax unified
 3382              		.arm
 3383              		.fpu neon
 3385              	_ZN11flatbuffers17FlatBufferBuilder12CreateStringEPKcj:
 3386              		.fnstart
 3387              	.LFB3556:
 3388              		@ args = 0, pretend = 0, frame = 0
 3389              		@ frame_needed = 0, uses_anonymous_args = 0
 3390 0000 F0412DE9 		push	{r4, r5, r6, r7, r8, lr}
 3391              		.save {r4, r5, r6, r7, r8, lr}
 3392 0004 0170A0E1 		mov	r7, r1
 3393 0008 2610D0E5 		ldrb	r1, [r0, #38]	@ zero_extendqisi2
 3394 000c 203090E5 		ldr	r3, [r0, #32]
 3395 0010 000051E3 		cmp	r1, #0
 3396 0014 5A00001A 		bne	.L694
 3397 0018 000053E3 		cmp	r3, #0
 3398 001c 5700001A 		bne	.L695
 3399 0020 0250A0E1 		mov	r5, r2
 3400 0024 282090E5 		ldr	r2, [r0, #40]
 3401 0028 101090E5 		ldr	r1, [r0, #16]
 3402 002c 013085E2 		add	r3, r5, #1
 3403 0030 186090E5 		ldr	r6, [r0, #24]
 3404 0034 0040A0E1 		mov	r4, r0
 3405 0038 030052E3 		cmp	r2, #3
 3406 003c 0420A093 		movls	r2, #4
 3407 0040 013083E0 		add	r3, r3, r1
 3408 0044 28208095 		strls	r2, [r0, #40]
 3409 0048 142090E5 		ldr	r2, [r0, #20]
 3410 004c 026046E0 		sub	r6, r6, r2
 3411 0050 036046E0 		sub	r6, r6, r3
 3412 0054 036006E2 		and	r6, r6, #3
 3413 0058 0610A0E1 		mov	r1, r6
 3414 005c FEFFFFEB 		bl	_ZN11flatbuffers15vector_downward12ensure_spaceEj
 3415 0060 183094E5 		ldr	r3, [r4, #24]
 3416 0064 000056E3 		cmp	r6, #0
 3417 0068 000043E0 		sub	r0, r3, r0
 3418 006c 180084E5 		str	r0, [r4, #24]
 3419 0070 0800000A 		beq	.L668
 3420 0074 010056E3 		cmp	r6, #1
 3421 0078 0030A0E3 		mov	r3, #0
 3422 007c 0030C0E5 		strb	r3, [r0]
 3423 0080 0400000A 		beq	.L668
 3424 0084 182094E5 		ldr	r2, [r4, #24]
 3425 0088 020056E3 		cmp	r6, #2
 3426 008c 0130C2E5 		strb	r3, [r2, #1]
 3427 0090 18209415 		ldrne	r2, [r4, #24]
 3428 0094 0230C215 		strbne	r3, [r2, #2]
 3429              	.L668:
 3430 0098 0110A0E3 		mov	r1, #1
 3431 009c 0400A0E1 		mov	r0, r4
 3432 00a0 FEFFFFEB 		bl	_ZN11flatbuffers15vector_downward12ensure_spaceEj
 3433 00a4 183094E5 		ldr	r3, [r4, #24]
 3434 00a8 000055E3 		cmp	r5, #0
 3435 00ac 0020A0E3 		mov	r2, #0
 3436 00b0 000043E0 		sub	r0, r3, r0
 3437 00b4 180084E5 		str	r0, [r4, #24]
 3438 00b8 0020C0E5 		strb	r2, [r0]
 3439 00bc 2500001A 		bne	.L696
 3440              	.L669:
 3441 00c0 283094E5 		ldr	r3, [r4, #40]
 3442 00c4 0400A0E1 		mov	r0, r4
 3443 00c8 186094E5 		ldr	r6, [r4, #24]
 3444 00cc 142094E5 		ldr	r2, [r4, #20]
 3445 00d0 030053E3 		cmp	r3, #3
 3446 00d4 0430A093 		movls	r3, #4
 3447 00d8 28308495 		strls	r3, [r4, #40]
 3448 00dc 026046E0 		sub	r6, r6, r2
 3449 00e0 103094E5 		ldr	r3, [r4, #16]
 3450 00e4 036046E0 		sub	r6, r6, r3
 3451 00e8 036006E2 		and	r6, r6, #3
 3452 00ec 0610A0E1 		mov	r1, r6
 3453 00f0 FEFFFFEB 		bl	_ZN11flatbuffers15vector_downward12ensure_spaceEj
 3454 00f4 183094E5 		ldr	r3, [r4, #24]
 3455 00f8 000056E3 		cmp	r6, #0
 3456 00fc 000043E0 		sub	r0, r3, r0
 3457 0100 180084E5 		str	r0, [r4, #24]
 3458 0104 0800000A 		beq	.L671
 3459 0108 010056E3 		cmp	r6, #1
 3460 010c 0030A0E3 		mov	r3, #0
 3461 0110 0030C0E5 		strb	r3, [r0]
 3462 0114 0400000A 		beq	.L671
 3463 0118 182094E5 		ldr	r2, [r4, #24]
 3464 011c 020056E3 		cmp	r6, #2
 3465 0120 0130C2E5 		strb	r3, [r2, #1]
 3466 0124 18209415 		ldrne	r2, [r4, #24]
 3467 0128 0230C215 		strbne	r3, [r2, #2]
 3468              	.L671:
 3469 012c 0410A0E3 		mov	r1, #4
 3470 0130 0400A0E1 		mov	r0, r4
 3471 0134 FEFFFFEB 		bl	_ZN11flatbuffers15vector_downward12ensure_spaceEj
 3472 0138 101084E2 		add	r1, r4, #16
 3473 013c 0E0091E8 		ldm	r1, {r1, r2, r3}
 3474 0140 003043E0 		sub	r3, r3, r0
 3475 0144 020043E0 		sub	r0, r3, r2
 3476 0148 183084E5 		str	r3, [r4, #24]
 3477 014c 000041E0 		sub	r0, r1, r0
 3478 0150 005083E5 		str	r5, [r3]
 3479 0154 F081BDE8 		pop	{r4, r5, r6, r7, r8, pc}
 3480              	.L696:
 3481 0158 0510A0E1 		mov	r1, r5
 3482 015c 0400A0E1 		mov	r0, r4
 3483 0160 FEFFFFEB 		bl	_ZN11flatbuffers15vector_downward12ensure_spaceEj
 3484 0164 183094E5 		ldr	r3, [r4, #24]
 3485 0168 0710A0E1 		mov	r1, r7
 3486 016c 0520A0E1 		mov	r2, r5
 3487 0170 000043E0 		sub	r0, r3, r0
 3488 0174 180084E5 		str	r0, [r4, #24]
 3489 0178 FEFFFFEB 		bl	memcpy
 3490 017c CFFFFFEA 		b	.L669
 3491              	.L695:
 3492 0180 FEFFFFEB 		bl	_ZN11flatbuffers17FlatBufferBuilder9NotNestedEv.isra.19.part.20
 3493              	.L694:
 3494 0184 003000E3 		movw	r3, #:lower16:.LC24
 3495 0188 002000E3 		movw	r2, #:lower16:.LANCHOR11
 3496 018c 000000E3 		movw	r0, #:lower16:.LC19
 3497 0190 003040E3 		movt	r3, #:upper16:.LC24
 3498 0194 002040E3 		movt	r2, #:upper16:.LANCHOR11
 3499 0198 000040E3 		movt	r0, #:upper16:.LC19
 3500 019c 481500E3 		movw	r1, #1352
 3501 01a0 FEFFFFEB 		bl	__assert_func
 3502              		.fnend
 3504              		.section	.text._ZN6tflite24CreateOperatorCodeDirectERN11flatbuffers17FlatBufferBuilderEaPKclNS_15B
 3505              		.align	2
 3506              		.syntax unified
 3507              		.arm
 3508              		.fpu neon
 3510              	_ZN6tflite24CreateOperatorCodeDirectERN11flatbuffers17FlatBufferBuilderEaPKclNS_15BuiltinOperatorE.
 3511              		.fnstart
 3512              	.LFB11583:
 3513              		@ args = 0, pretend = 0, frame = 0
 3514              		@ frame_needed = 0, uses_anonymous_args = 0
 3515 0000 F0412DE9 		push	{r4, r5, r6, r7, r8, lr}
 3516              		.save {r4, r5, r6, r7, r8, lr}
 3517 0004 006051E2 		subs	r6, r1, #0
 3518 0008 0040A0E1 		mov	r4, r0
 3519 000c 0280A0E1 		mov	r8, r2
 3520 0010 0600000A 		beq	.L698
 3521 0014 0600A0E1 		mov	r0, r6
 3522 0018 FEFFFFEB 		bl	strlen
 3523 001c 0610A0E1 		mov	r1, r6
 3524 0020 0020A0E1 		mov	r2, r0
 3525 0024 0400A0E1 		mov	r0, r4
 3526 0028 FEFFFFEB 		bl	_ZN11flatbuffers17FlatBufferBuilder12CreateStringEPKcj
 3527 002c 0060A0E1 		mov	r6, r0
 3528              	.L698:
 3529 0030 2620D4E5 		ldrb	r2, [r4, #38]	@ zero_extendqisi2
 3530 0034 203094E5 		ldr	r3, [r4, #32]
 3531 0038 000052E3 		cmp	r2, #0
 3532 003c E900001A 		bne	.L759
 3533 0040 000053E3 		cmp	r3, #0
 3534 0044 EF00001A 		bne	.L760
 3535 0048 183094E5 		ldr	r3, [r4, #24]
 3536 004c 000058E3 		cmp	r8, #0
 3537 0050 142094E5 		ldr	r2, [r4, #20]
 3538 0054 0110A0E3 		mov	r1, #1
 3539 0058 107094E5 		ldr	r7, [r4, #16]
 3540 005c 2610C4E5 		strb	r1, [r4, #38]
 3541 0060 023043E0 		sub	r3, r3, r2
 3542 0064 037047E0 		sub	r7, r7, r3
 3543 0068 6600001A 		bne	.L701
 3544 006c 2C30D4E5 		ldrb	r3, [r4, #44]	@ zero_extendqisi2
 3545 0070 000053E3 		cmp	r3, #0
 3546 0074 0750A001 		moveq	r5, r7
 3547 0078 6200001A 		bne	.L701
 3548              	.L702:
 3549 007c 283094E5 		ldr	r3, [r4, #40]
 3550 0080 005065E2 		rsb	r5, r5, #0
 3551 0084 035005E2 		and	r5, r5, #3
 3552 0088 0400A0E1 		mov	r0, r4
 3553 008c 0510A0E1 		mov	r1, r5
 3554 0090 030053E3 		cmp	r3, #3
 3555 0094 0430A093 		movls	r3, #4
 3556 0098 28308495 		strls	r3, [r4, #40]
 3557 009c FEFFFFEB 		bl	_ZN11flatbuffers15vector_downward12ensure_spaceEj
 3558 00a0 183094E5 		ldr	r3, [r4, #24]
 3559 00a4 000055E3 		cmp	r5, #0
 3560 00a8 000043E0 		sub	r0, r3, r0
 3561 00ac 180084E5 		str	r0, [r4, #24]
 3562 00b0 0800000A 		beq	.L706
 3563 00b4 010055E3 		cmp	r5, #1
 3564 00b8 0030A0E3 		mov	r3, #0
 3565 00bc 0030C0E5 		strb	r3, [r0]
 3566 00c0 0400000A 		beq	.L706
 3567 00c4 182094E5 		ldr	r2, [r4, #24]
 3568 00c8 020055E3 		cmp	r5, #2
 3569 00cc 0130C2E5 		strb	r3, [r2, #1]
 3570 00d0 18209415 		ldrne	r2, [r4, #24]
 3571 00d4 0230C215 		strbne	r3, [r2, #2]
 3572              	.L706:
 3573 00d8 0410A0E3 		mov	r1, #4
 3574 00dc 0400A0E1 		mov	r0, r4
 3575 00e0 FEFFFFEB 		bl	_ZN11flatbuffers15vector_downward12ensure_spaceEj
 3576 00e4 183094E5 		ldr	r3, [r4, #24]
 3577 00e8 00C0A0E3 		mov	ip, #0
 3578 00ec 142094E5 		ldr	r2, [r4, #20]
 3579 00f0 0810A0E3 		mov	r1, #8
 3580 00f4 105094E5 		ldr	r5, [r4, #16]
 3581 00f8 003043E0 		sub	r3, r3, r0
 3582 00fc 0400A0E1 		mov	r0, r4
 3583 0100 022043E0 		sub	r2, r3, r2
 3584 0104 183084E5 		str	r3, [r4, #24]
 3585 0108 00C083E5 		str	ip, [r3]
 3586 010c 025045E0 		sub	r5, r5, r2
 3587 0110 FEFFFFEB 		bl	_ZN11flatbuffers15vector_downward12ensure_spaceEj
 3588 0114 1C3094E5 		ldr	r3, [r4, #28]
 3589 0118 0800A0E3 		mov	r0, #8
 3590 011c 202094E5 		ldr	r2, [r4, #32]
 3591 0120 001083E0 		add	r1, r3, r0
 3592 0124 005083E5 		str	r5, [r3]
 3593 0128 B400C3E1 		strh	r0, [r3, #4]	@ movhi
 3594 012c 012082E2 		add	r2, r2, #1
 3595 0130 B432D4E1 		ldrh	r3, [r4, #36]
 3596 0134 1C1084E5 		str	r1, [r4, #28]
 3597 0138 202084E5 		str	r2, [r4, #32]
 3598 013c 000053E1 		cmp	r3, r0
 3599 0140 0030A0B1 		movlt	r3, r0
 3600 0144 000056E3 		cmp	r6, #0
 3601 0148 B432C4E1 		strh	r3, [r4, #36]	@ movhi
 3602 014c 6500001A 		bne	.L761
 3603              	.L708:
 3604 0150 2C30D4E5 		ldrb	r3, [r4, #44]	@ zero_extendqisi2
 3605 0154 000053E3 		cmp	r3, #0
 3606 0158 2600000A 		beq	.L710
 3607 015c 283094E5 		ldr	r3, [r4, #40]
 3608 0160 0010A0E3 		mov	r1, #0
 3609 0164 0400A0E1 		mov	r0, r4
 3610 0168 000053E3 		cmp	r3, #0
 3611 016c 0130A003 		moveq	r3, #1
 3612 0170 28308405 		streq	r3, [r4, #40]
 3613 0174 FEFFFFEB 		bl	_ZN11flatbuffers15vector_downward12ensure_spaceEj
 3614 0178 183094E5 		ldr	r3, [r4, #24]
 3615 017c 0110A0E3 		mov	r1, #1
 3616 0180 003043E0 		sub	r3, r3, r0
 3617 0184 0400A0E1 		mov	r0, r4
 3618 0188 183084E5 		str	r3, [r4, #24]
 3619 018c FEFFFFEB 		bl	_ZN11flatbuffers15vector_downward12ensure_spaceEj
 3620 0190 183094E5 		ldr	r3, [r4, #24]
 3621 0194 0020A0E3 		mov	r2, #0
 3622 0198 0810A0E3 		mov	r1, #8
 3623 019c 003043E0 		sub	r3, r3, r0
 3624 01a0 0400A0E1 		mov	r0, r4
 3625 01a4 183084E5 		str	r3, [r4, #24]
 3626 01a8 0020C3E5 		strb	r2, [r3]
 3627 01ac 142094E5 		ldr	r2, [r4, #20]
 3628 01b0 183094E5 		ldr	r3, [r4, #24]
 3629 01b4 105094E5 		ldr	r5, [r4, #16]
 3630 01b8 023043E0 		sub	r3, r3, r2
 3631 01bc 035045E0 		sub	r5, r5, r3
 3632 01c0 FEFFFFEB 		bl	_ZN11flatbuffers15vector_downward12ensure_spaceEj
 3633 01c4 1C3094E5 		ldr	r3, [r4, #28]
 3634 01c8 0400A0E3 		mov	r0, #4
 3635 01cc 202094E5 		ldr	r2, [r4, #32]
 3636 01d0 081083E2 		add	r1, r3, #8
 3637 01d4 005083E5 		str	r5, [r3]
 3638 01d8 B400C3E1 		strh	r0, [r3, #4]	@ movhi
 3639 01dc 012082E2 		add	r2, r2, #1
 3640 01e0 B432D4E1 		ldrh	r3, [r4, #36]
 3641 01e4 1C1084E5 		str	r1, [r4, #28]
 3642 01e8 202084E5 		str	r2, [r4, #32]
 3643 01ec 000053E1 		cmp	r3, r0
 3644 01f0 0030A0B1 		movlt	r3, r0
 3645 01f4 B432C4E1 		strh	r3, [r4, #36]	@ movhi
 3646              	.L710:
 3647 01f8 0710A0E1 		mov	r1, r7
 3648 01fc 0400A0E1 		mov	r0, r4
 3649 0200 FEFFFFEB 		bl	_ZN11flatbuffers17FlatBufferBuilder8EndTableEm
 3650 0204 F081BDE8 		pop	{r4, r5, r6, r7, r8, pc}
 3651              	.L701:
 3652 0208 283094E5 		ldr	r3, [r4, #40]
 3653 020c 005067E2 		rsb	r5, r7, #0
 3654 0210 035005E2 		and	r5, r5, #3
 3655 0214 0400A0E1 		mov	r0, r4
 3656 0218 0510A0E1 		mov	r1, r5
 3657 021c 030053E3 		cmp	r3, #3
 3658 0220 0430A093 		movls	r3, #4
 3659 0224 28308495 		strls	r3, [r4, #40]
 3660 0228 FEFFFFEB 		bl	_ZN11flatbuffers15vector_downward12ensure_spaceEj
 3661 022c 183094E5 		ldr	r3, [r4, #24]
 3662 0230 000055E3 		cmp	r5, #0
 3663 0234 000043E0 		sub	r0, r3, r0
 3664 0238 180084E5 		str	r0, [r4, #24]
 3665 023c 0800000A 		beq	.L703
 3666 0240 010055E3 		cmp	r5, #1
 3667 0244 0030A0E3 		mov	r3, #0
 3668 0248 0030C0E5 		strb	r3, [r0]
 3669 024c 0400000A 		beq	.L703
 3670 0250 182094E5 		ldr	r2, [r4, #24]
 3671 0254 020055E3 		cmp	r5, #2
 3672 0258 0130C2E5 		strb	r3, [r2, #1]
 3673 025c 18209415 		ldrne	r2, [r4, #24]
 3674 0260 0230C215 		strbne	r3, [r2, #2]
 3675              	.L703:
 3676 0264 0410A0E3 		mov	r1, #4
 3677 0268 0400A0E1 		mov	r0, r4
 3678 026c FEFFFFEB 		bl	_ZN11flatbuffers15vector_downward12ensure_spaceEj
 3679 0270 183094E5 		ldr	r3, [r4, #24]
 3680 0274 0810A0E3 		mov	r1, #8
 3681 0278 14C094E5 		ldr	ip, [r4, #20]
 3682 027c 102094E5 		ldr	r2, [r4, #16]
 3683 0280 003043E0 		sub	r3, r3, r0
 3684 0284 0400A0E1 		mov	r0, r4
 3685 0288 0CC043E0 		sub	ip, r3, ip
 3686 028c 183084E5 		str	r3, [r4, #24]
 3687 0290 008083E5 		str	r8, [r3]
 3688 0294 0C8042E0 		sub	r8, r2, ip
 3689 0298 FEFFFFEB 		bl	_ZN11flatbuffers15vector_downward12ensure_spaceEj
 3690 029c 1C3094E5 		ldr	r3, [r4, #28]
 3691 02a0 0AC0A0E3 		mov	ip, #10
 3692 02a4 142094E5 		ldr	r2, [r4, #20]
 3693 02a8 181094E5 		ldr	r1, [r4, #24]
 3694 02ac 080083E2 		add	r0, r3, #8
 3695 02b0 008083E5 		str	r8, [r3]
 3696 02b4 B4C0C3E1 		strh	ip, [r3, #4]	@ movhi
 3697 02b8 B432D4E1 		ldrh	r3, [r4, #36]
 3698 02bc 021041E0 		sub	r1, r1, r2
 3699 02c0 202094E5 		ldr	r2, [r4, #32]
 3700 02c4 105094E5 		ldr	r5, [r4, #16]
 3701 02c8 0C0053E1 		cmp	r3, ip
 3702 02cc 1C0084E5 		str	r0, [r4, #28]
 3703 02d0 0C30A0B1 		movlt	r3, ip
 3704 02d4 012082E2 		add	r2, r2, #1
 3705 02d8 015045E0 		sub	r5, r5, r1
 3706 02dc B432C4E1 		strh	r3, [r4, #36]	@ movhi
 3707 02e0 202084E5 		str	r2, [r4, #32]
 3708 02e4 64FFFFEA 		b	.L702
 3709              	.L761:
 3710 02e8 0610A0E1 		mov	r1, r6
 3711 02ec 0400A0E1 		mov	r0, r4
 3712 02f0 FEFFFFEB 		bl	_ZN11flatbuffers17FlatBufferBuilder7ReferToEm
 3713 02f4 006050E2 		subs	r6, r0, #0
 3714 02f8 3600000A 		beq	.L762
 3715              	.L709:
 3716 02fc 283094E5 		ldr	r3, [r4, #40]
 3717 0300 0400A0E1 		mov	r0, r4
 3718 0304 185094E5 		ldr	r5, [r4, #24]
 3719 0308 142094E5 		ldr	r2, [r4, #20]
 3720 030c 030053E3 		cmp	r3, #3
 3721 0310 0430A093 		movls	r3, #4
 3722 0314 28308495 		strls	r3, [r4, #40]
 3723 0318 025045E0 		sub	r5, r5, r2
 3724 031c 103094E5 		ldr	r3, [r4, #16]
 3725 0320 035045E0 		sub	r5, r5, r3
 3726 0324 035005E2 		and	r5, r5, #3
 3727 0328 0510A0E1 		mov	r1, r5
 3728 032c FEFFFFEB 		bl	_ZN11flatbuffers15vector_downward12ensure_spaceEj
 3729 0330 183094E5 		ldr	r3, [r4, #24]
 3730 0334 000055E3 		cmp	r5, #0
 3731 0338 000043E0 		sub	r0, r3, r0
 3732 033c 180084E5 		str	r0, [r4, #24]
 3733 0340 0800000A 		beq	.L711
 3734 0344 010055E3 		cmp	r5, #1
 3735 0348 0030A0E3 		mov	r3, #0
 3736 034c 0030C0E5 		strb	r3, [r0]
 3737 0350 0400000A 		beq	.L711
 3738 0354 182094E5 		ldr	r2, [r4, #24]
 3739 0358 020055E3 		cmp	r5, #2
 3740 035c 0130C2E5 		strb	r3, [r2, #1]
 3741 0360 18209415 		ldrne	r2, [r4, #24]
 3742 0364 0230C215 		strbne	r3, [r2, #2]
 3743              	.L711:
 3744 0368 0410A0E3 		mov	r1, #4
 3745 036c 0400A0E1 		mov	r0, r4
 3746 0370 FEFFFFEB 		bl	_ZN11flatbuffers15vector_downward12ensure_spaceEj
 3747 0374 183094E5 		ldr	r3, [r4, #24]
 3748 0378 0810A0E3 		mov	r1, #8
 3749 037c 142094E5 		ldr	r2, [r4, #20]
 3750 0380 105094E5 		ldr	r5, [r4, #16]
 3751 0384 003043E0 		sub	r3, r3, r0
 3752 0388 0400A0E1 		mov	r0, r4
 3753 038c 022043E0 		sub	r2, r3, r2
 3754 0390 183084E5 		str	r3, [r4, #24]
 3755 0394 006083E5 		str	r6, [r3]
 3756 0398 025045E0 		sub	r5, r5, r2
 3757 039c FEFFFFEB 		bl	_ZN11flatbuffers15vector_downward12ensure_spaceEj
 3758 03a0 1C3094E5 		ldr	r3, [r4, #28]
 3759 03a4 0600A0E3 		mov	r0, #6
 3760 03a8 202094E5 		ldr	r2, [r4, #32]
 3761 03ac 081083E2 		add	r1, r3, #8
 3762 03b0 005083E5 		str	r5, [r3]
 3763 03b4 B400C3E1 		strh	r0, [r3, #4]	@ movhi
 3764 03b8 012082E2 		add	r2, r2, #1
 3765 03bc B432D4E1 		ldrh	r3, [r4, #36]
 3766 03c0 1C1084E5 		str	r1, [r4, #28]
 3767 03c4 202084E5 		str	r2, [r4, #32]
 3768 03c8 000053E1 		cmp	r3, r0
 3769 03cc 0030A0B1 		movlt	r3, r0
 3770 03d0 B432C4E1 		strh	r3, [r4, #36]	@ movhi
 3771 03d4 5DFFFFEA 		b	.L708
 3772              	.L762:
 3773 03d8 2C30D4E5 		ldrb	r3, [r4, #44]	@ zero_extendqisi2
 3774 03dc 000053E3 		cmp	r3, #0
 3775 03e0 C5FFFF1A 		bne	.L709
 3776 03e4 83FFFFEA 		b	.L710
 3777              	.L759:
 3778 03e8 003000E3 		movw	r3, #:lower16:.LC24
 3779 03ec 002000E3 		movw	r2, #:lower16:.LANCHOR11
 3780 03f0 000000E3 		movw	r0, #:lower16:.LC19
 3781 03f4 003040E3 		movt	r3, #:upper16:.LC24
 3782 03f8 002040E3 		movt	r2, #:upper16:.LANCHOR11
 3783 03fc 000040E3 		movt	r0, #:upper16:.LC19
 3784 0400 481500E3 		movw	r1, #1352
 3785 0404 FEFFFFEB 		bl	__assert_func
 3786              	.L760:
 3787 0408 FEFFFFEB 		bl	_ZN11flatbuffers17FlatBufferBuilder9NotNestedEv.isra.19.part.20
 3788              		.fnend
 3790              		.section	.text._ZN11flatbuffers17FlatBufferBuilder9EndVectorEj,"axG",%progbits,_ZN11flatbuffers17F
 3791              		.align	2
 3792              		.weak	_ZN11flatbuffers17FlatBufferBuilder9EndVectorEj
 3793              		.syntax unified
 3794              		.arm
 3795              		.fpu neon
 3797              	_ZN11flatbuffers17FlatBufferBuilder9EndVectorEj:
 3798              		.fnstart
 3799              	.LFB3566:
 3800              		@ args = 0, pretend = 0, frame = 0
 3801              		@ frame_needed = 0, uses_anonymous_args = 0
 3802 0000 2630D0E5 		ldrb	r3, [r0, #38]	@ zero_extendqisi2
 3803 0004 70402DE9 		push	{r4, r5, r6, lr}
 3804              		.save {r4, r5, r6, lr}
 3805 0008 000053E3 		cmp	r3, #0
 3806 000c 2800000A 		beq	.L777
 3807 0010 283090E5 		ldr	r3, [r0, #40]
 3808 0014 0020A0E3 		mov	r2, #0
 3809 0018 2620C0E5 		strb	r2, [r0, #38]
 3810 001c 0040A0E1 		mov	r4, r0
 3811 0020 185090E5 		ldr	r5, [r0, #24]
 3812 0024 0160A0E1 		mov	r6, r1
 3813 0028 030053E3 		cmp	r3, #3
 3814 002c 142090E5 		ldr	r2, [r0, #20]
 3815 0030 0430A093 		movls	r3, #4
 3816 0034 28308095 		strls	r3, [r0, #40]
 3817 0038 103090E5 		ldr	r3, [r0, #16]
 3818 003c 025045E0 		sub	r5, r5, r2
 3819 0040 035045E0 		sub	r5, r5, r3
 3820 0044 035005E2 		and	r5, r5, #3
 3821 0048 0510A0E1 		mov	r1, r5
 3822 004c FEFFFFEB 		bl	_ZN11flatbuffers15vector_downward12ensure_spaceEj
 3823 0050 183094E5 		ldr	r3, [r4, #24]
 3824 0054 000055E3 		cmp	r5, #0
 3825 0058 000043E0 		sub	r0, r3, r0
 3826 005c 180084E5 		str	r0, [r4, #24]
 3827 0060 0800000A 		beq	.L766
 3828 0064 010055E3 		cmp	r5, #1
 3829 0068 0030A0E3 		mov	r3, #0
 3830 006c 0030C0E5 		strb	r3, [r0]
 3831 0070 0400000A 		beq	.L766
 3832 0074 182094E5 		ldr	r2, [r4, #24]
 3833 0078 020055E3 		cmp	r5, #2
 3834 007c 0130C2E5 		strb	r3, [r2, #1]
 3835 0080 18209415 		ldrne	r2, [r4, #24]
 3836 0084 0230C215 		strbne	r3, [r2, #2]
 3837              	.L766:
 3838 0088 0410A0E3 		mov	r1, #4
 3839 008c 0400A0E1 		mov	r0, r4
 3840 0090 FEFFFFEB 		bl	_ZN11flatbuffers15vector_downward12ensure_spaceEj
 3841 0094 101084E2 		add	r1, r4, #16
 3842 0098 0E0091E8 		ldm	r1, {r1, r2, r3}
 3843 009c 003043E0 		sub	r3, r3, r0
 3844 00a0 020043E0 		sub	r0, r3, r2
 3845 00a4 183084E5 		str	r3, [r4, #24]
 3846 00a8 000041E0 		sub	r0, r1, r0
 3847 00ac 006083E5 		str	r6, [r3]
 3848 00b0 7080BDE8 		pop	{r4, r5, r6, pc}
 3849              	.L777:
 3850 00b4 003000E3 		movw	r3, #:lower16:.LC26
 3851 00b8 002000E3 		movw	r2, #:lower16:.LANCHOR14
 3852 00bc 000000E3 		movw	r0, #:lower16:.LC19
 3853 00c0 003040E3 		movt	r3, #:upper16:.LC26
 3854 00c4 002040E3 		movt	r2, #:upper16:.LANCHOR14
 3855 00c8 000040E3 		movt	r0, #:upper16:.LC19
 3856 00cc 2C1600E3 		movw	r1, #1580
 3857 00d0 FEFFFFEB 		bl	__assert_func
 3858              		.fnend
 3860              		.section	.text._ZN11flatbuffers17FlatBufferBuilder12CreateVectorIlEENS_6OffsetINS_6VectorIT_EEEEPK
 3861              		.align	2
 3862              		.syntax unified
 3863              		.arm
 3864              		.fpu neon
 3866              	_ZN11flatbuffers17FlatBufferBuilder12CreateVectorIlEENS_6OffsetINS_6VectorIT_EEEEPKS4_j.constprop.1
 3867              		.fnstart
 3868              	.LFB11586:
 3869              		@ args = 0, pretend = 0, frame = 0
 3870              		@ frame_needed = 0, uses_anonymous_args = 0
 3871 0000 70402DE9 		push	{r4, r5, r6, lr}
 3872              		.save {r4, r5, r6, lr}
 3873 0004 0040A0E1 		mov	r4, r0
 3874 0008 0150A0E1 		mov	r5, r1
 3875 000c 0210A0E3 		mov	r1, #2
 3876 0010 FEFFFFEB 		bl	_ZN11flatbuffers17FlatBufferBuilder11StartVectorEjj.constprop.148
 3877 0014 0400A0E1 		mov	r0, r4
 3878 0018 0810A0E3 		mov	r1, #8
 3879 001c FEFFFFEB 		bl	_ZN11flatbuffers15vector_downward12ensure_spaceEj
 3880 0020 183094E5 		ldr	r3, [r4, #24]
 3881 0024 0510A0E1 		mov	r1, r5
 3882 0028 0820A0E3 		mov	r2, #8
 3883 002c 000043E0 		sub	r0, r3, r0
 3884 0030 180084E5 		str	r0, [r4, #24]
 3885 0034 FEFFFFEB 		bl	memcpy
 3886 0038 0400A0E1 		mov	r0, r4
 3887 003c 0210A0E3 		mov	r1, #2
 3888 0040 FEFFFFEB 		bl	_ZN11flatbuffers17FlatBufferBuilder9EndVectorEj
 3889 0044 7080BDE8 		pop	{r4, r5, r6, pc}
 3890              		.fnend
 3892              		.section	.text._ZN11flatbuffers17FlatBufferBuilder12CreateVectorIlEENS_6OffsetINS_6VectorIT_EEEEPK
 3893              		.align	2
 3894              		.syntax unified
 3895              		.arm
 3896              		.fpu neon
 3898              	_ZN11flatbuffers17FlatBufferBuilder12CreateVectorIlEENS_6OffsetINS_6VectorIT_EEEEPKS4_j.constprop.1
 3899              		.fnstart
 3900              	.LFB11585:
 3901              		@ args = 0, pretend = 0, frame = 0
 3902              		@ frame_needed = 0, uses_anonymous_args = 0
 3903 0000 70402DE9 		push	{r4, r5, r6, lr}
 3904              		.save {r4, r5, r6, lr}
 3905 0004 0040A0E1 		mov	r4, r0
 3906 0008 0150A0E1 		mov	r5, r1
 3907 000c 0110A0E3 		mov	r1, #1
 3908 0010 FEFFFFEB 		bl	_ZN11flatbuffers17FlatBufferBuilder11StartVectorEjj.constprop.148
 3909 0014 0400A0E1 		mov	r0, r4
 3910 0018 0410A0E3 		mov	r1, #4
 3911 001c FEFFFFEB 		bl	_ZN11flatbuffers15vector_downward12ensure_spaceEj
 3912 0020 183094E5 		ldr	r3, [r4, #24]
 3913 0024 0510A0E1 		mov	r1, r5
 3914 0028 0420A0E3 		mov	r2, #4
 3915 002c 000043E0 		sub	r0, r3, r0
 3916 0030 180084E5 		str	r0, [r4, #24]
 3917 0034 FEFFFFEB 		bl	memcpy
 3918 0038 0400A0E1 		mov	r0, r4
 3919 003c 0110A0E3 		mov	r1, #1
 3920 0040 FEFFFFEB 		bl	_ZN11flatbuffers17FlatBufferBuilder9EndVectorEj
 3921 0044 7080BDE8 		pop	{r4, r5, r6, pc}
 3922              		.fnend
 3924              		.section	.text._ZN6tflite7testing12_GLOBAL__N_112ModelBuilder13AddTensorImplENS_10TensorTypeEbSt16
 3925              		.align	2
 3926              		.syntax unified
 3927              		.arm
 3928              		.fpu neon
 3930              	_ZN6tflite7testing12_GLOBAL__N_112ModelBuilder13AddTensorImplENS_10TensorTypeEbSt16initializer_list
 3931              		.fnstart
 3932              	.LFB11604:
 3933              		@ args = 0, pretend = 0, frame = 8
 3934              		@ frame_needed = 0, uses_anonymous_args = 0
 3935 0000 F0402DE9 		push	{r4, r5, r6, r7, lr}
 3936              		.save {r4, r5, r6, r7, lr}
 3937              		.pad #28
 3938 0004 1CD04DE2 		sub	sp, sp, #28
 3939 0008 184290E5 		ldr	r4, [r0, #536]
 3940 000c 18308DE2 		add	r3, sp, #24
 3941 0010 060003E9 		stmdb	r3, {r1, r2}
 3942 0014 320054E3 		cmp	r4, #50
 3943 0018 230000CA 		bgt	.L785
 3944 001c 005090E5 		ldr	r5, [r0]
 3945 0020 0060A0E1 		mov	r6, r0
 3946 0024 0310A0E3 		mov	r1, #3
 3947 0028 10709DE5 		ldr	r7, [sp, #16]
 3948 002c 3E4084E2 		add	r4, r4, #62
 3949 0030 0500A0E1 		mov	r0, r5
 3950 0034 044186E0 		add	r4, r6, r4, lsl #2
 3951 0038 FEFFFFEB 		bl	_ZN11flatbuffers17FlatBufferBuilder11StartVectorEjj.constprop.148
 3952 003c 0500A0E1 		mov	r0, r5
 3953 0040 0C10A0E3 		mov	r1, #12
 3954 0044 FEFFFFEB 		bl	_ZN11flatbuffers15vector_downward12ensure_spaceEj
 3955 0048 183095E5 		ldr	r3, [r5, #24]
 3956 004c 0710A0E1 		mov	r1, r7
 3957 0050 0C20A0E3 		mov	r2, #12
 3958 0054 000043E0 		sub	r0, r3, r0
 3959 0058 180085E5 		str	r0, [r5, #24]
 3960 005c FEFFFFEB 		bl	memcpy
 3961 0060 0500A0E1 		mov	r0, r5
 3962 0064 0310A0E3 		mov	r1, #3
 3963 0068 FEFFFFEB 		bl	_ZN11flatbuffers17FlatBufferBuilder9EndVectorEj
 3964 006c 00C0A0E3 		mov	ip, #0
 3965 0070 0010A0E1 		mov	r1, r0
 3966 0074 0C30A0E1 		mov	r3, ip
 3967 0078 0C20A0E1 		mov	r2, ip
 3968 007c 0500A0E1 		mov	r0, r5
 3969 0080 08C08DE5 		str	ip, [sp, #8]
 3970 0084 04C08DE5 		str	ip, [sp, #4]
 3971 0088 00C08DE5 		str	ip, [sp]
 3972 008c FEFFFFEB 		bl	_ZN6tflite12CreateTensorERN11flatbuffers17FlatBufferBuilderENS0_6OffsetINS0_6VectorIlEEEENS_10T
 3973 0090 183296E5 		ldr	r3, [r6, #536]
 3974 0094 040084E5 		str	r0, [r4, #4]
 3975 0098 012083E2 		add	r2, r3, #1
 3976 009c 0300A0E1 		mov	r0, r3
 3977 00a0 182286E5 		str	r2, [r6, #536]
 3978 00a4 1CD08DE2 		add	sp, sp, #28
 3979              		@ sp needed
 3980 00a8 F080BDE8 		pop	{r4, r5, r6, r7, pc}
 3981              	.L785:
 3982 00ac FEFFFFEB 		bl	abort
 3983              		.fnend
 3985              		.section	.text._ZN6tflite12CreateTensorERN11flatbuffers17FlatBufferBuilderENS0_6OffsetINS0_6Vector
 3986              		.align	2
 3987              		.weak	_ZN6tflite12CreateTensorERN11flatbuffers17FlatBufferBuilderENS0_6OffsetINS0_6VectorIlEEEENS_
 3988              		.syntax unified
 3989              		.arm
 3990              		.fpu neon
 3992              	_ZN6tflite12CreateTensorERN11flatbuffers17FlatBufferBuilderENS0_6OffsetINS0_6VectorIlEEEENS_10Tenso
 3993              		.fnstart
 3994              	.LFB4279:
 3995              		@ args = 20, pretend = 0, frame = 0
 3996              		@ frame_needed = 0, uses_anonymous_args = 0
 3997 0000 F84F2DE9 		push	{r3, r4, r5, r6, r7, r8, r9, r10, fp, lr}
 3998              		.save {r3, r4, r5, r6, r7, r8, r9, r10, fp, lr}
 3999 0004 0170A0E1 		mov	r7, r1
 4000 0008 2610D0E5 		ldrb	r1, [r0, #38]	@ zero_extendqisi2
 4001 000c 0390A0E1 		mov	r9, r3
 4002 0010 2CA09DE5 		ldr	r10, [sp, #44]
 4003 0014 000051E3 		cmp	r1, #0
 4004 0018 203090E5 		ldr	r3, [r0, #32]
 4005 001c 3080DDE5 		ldrb	r8, [sp, #48]	@ zero_extendqisi2
 4006 0020 34B09DE5 		ldr	fp, [sp, #52]
 4007 0024 38109DE5 		ldr	r1, [sp, #56]
 4008 0028 EE00001A 		bne	.L853
 4009 002c 000053E3 		cmp	r3, #0
 4010 0030 F400001A 		bne	.L854
 4011 0034 0260A0E1 		mov	r6, r2
 4012 0038 183090E5 		ldr	r3, [r0, #24]
 4013 003c 142090E5 		ldr	r2, [r0, #20]
 4014 0040 000051E3 		cmp	r1, #0
 4015 0044 105090E5 		ldr	r5, [r0, #16]
 4016 0048 01C0A0E3 		mov	ip, #1
 4017 004c 0040A0E1 		mov	r4, r0
 4018 0050 26C0C0E5 		strb	ip, [r0, #38]
 4019 0054 023043E0 		sub	r3, r3, r2
 4020 0058 035045E0 		sub	r5, r5, r3
 4021 005c D700001A 		bne	.L855
 4022              	.L790:
 4023 0060 00005BE3 		cmp	fp, #0
 4024 0064 C900001A 		bne	.L856
 4025              	.L794:
 4026 0068 00005AE3 		cmp	r10, #0
 4027 006c BB00001A 		bne	.L857
 4028              	.L798:
 4029 0070 28309DE5 		ldr	r3, [sp, #40]
 4030 0074 000053E3 		cmp	r3, #0
 4031 0078 1200001A 		bne	.L858
 4032              	.L801:
 4033 007c 000059E3 		cmp	r9, #0
 4034 0080 1A00001A 		bne	.L804
 4035 0084 2C30D4E5 		ldrb	r3, [r4, #44]	@ zero_extendqisi2
 4036 0088 000053E3 		cmp	r3, #0
 4037 008c 1700001A 		bne	.L804
 4038              	.L805:
 4039 0090 000057E3 		cmp	r7, #0
 4040 0094 4D00001A 		bne	.L859
 4041              	.L809:
 4042 0098 000058E3 		cmp	r8, #0
 4043 009c 5800001A 		bne	.L812
 4044              	.L860:
 4045 00a0 2C30D4E5 		ldrb	r3, [r4, #44]	@ zero_extendqisi2
 4046 00a4 000053E3 		cmp	r3, #0
 4047 00a8 5500001A 		bne	.L812
 4048 00ac 7660AFE6 		sxtb	r6, r6
 4049 00b0 000056E3 		cmp	r6, #0
 4050 00b4 7E00001A 		bne	.L815
 4051              	.L816:
 4052 00b8 0510A0E1 		mov	r1, r5
 4053 00bc 0400A0E1 		mov	r0, r4
 4054 00c0 FEFFFFEB 		bl	_ZN11flatbuffers17FlatBufferBuilder8EndTableEm
 4055 00c4 F88FBDE8 		pop	{r3, r4, r5, r6, r7, r8, r9, r10, fp, pc}
 4056              	.L858:
 4057 00c8 0310A0E1 		mov	r1, r3
 4058 00cc 0400A0E1 		mov	r0, r4
 4059 00d0 FEFFFFEB 		bl	_ZN11flatbuffers17FlatBufferBuilder7ReferToEm
 4060 00d4 002050E2 		subs	r2, r0, #0
 4061 00d8 9C00001A 		bne	.L802
 4062 00dc 2C30D4E5 		ldrb	r3, [r4, #44]	@ zero_extendqisi2
 4063 00e0 000053E3 		cmp	r3, #0
 4064 00e4 9900001A 		bne	.L802
 4065 00e8 000059E3 		cmp	r9, #0
 4066 00ec E7FFFF0A 		beq	.L805
 4067              	.L804:
 4068 00f0 283094E5 		ldr	r3, [r4, #40]
 4069 00f4 0400A0E1 		mov	r0, r4
 4070 00f8 18A094E5 		ldr	r10, [r4, #24]
 4071 00fc 142094E5 		ldr	r2, [r4, #20]
 4072 0100 030053E3 		cmp	r3, #3
 4073 0104 0430A093 		movls	r3, #4
 4074 0108 28308495 		strls	r3, [r4, #40]
 4075 010c 02A04AE0 		sub	r10, r10, r2
 4076 0110 103094E5 		ldr	r3, [r4, #16]
 4077 0114 03A04AE0 		sub	r10, r10, r3
 4078 0118 03A00AE2 		and	r10, r10, #3
 4079 011c 0A10A0E1 		mov	r1, r10
 4080 0120 FEFFFFEB 		bl	_ZN11flatbuffers15vector_downward12ensure_spaceEj
 4081 0124 183094E5 		ldr	r3, [r4, #24]
 4082 0128 00005AE3 		cmp	r10, #0
 4083 012c 000043E0 		sub	r0, r3, r0
 4084 0130 180084E5 		str	r0, [r4, #24]
 4085 0134 0800000A 		beq	.L806
 4086 0138 01005AE3 		cmp	r10, #1
 4087 013c 0030A0E3 		mov	r3, #0
 4088 0140 0030C0E5 		strb	r3, [r0]
 4089 0144 0400000A 		beq	.L806
 4090 0148 182094E5 		ldr	r2, [r4, #24]
 4091 014c 02005AE3 		cmp	r10, #2
 4092 0150 0130C2E5 		strb	r3, [r2, #1]
 4093 0154 18209415 		ldrne	r2, [r4, #24]
 4094 0158 0230C215 		strbne	r3, [r2, #2]
 4095              	.L806:
 4096 015c 0410A0E3 		mov	r1, #4
 4097 0160 0400A0E1 		mov	r0, r4
 4098 0164 FEFFFFEB 		bl	_ZN11flatbuffers15vector_downward12ensure_spaceEj
 4099 0168 183094E5 		ldr	r3, [r4, #24]
 4100 016c 0810A0E3 		mov	r1, #8
 4101 0170 142094E5 		ldr	r2, [r4, #20]
 4102 0174 000043E0 		sub	r0, r3, r0
 4103 0178 103094E5 		ldr	r3, [r4, #16]
 4104 017c 022040E0 		sub	r2, r0, r2
 4105 0180 180084E5 		str	r0, [r4, #24]
 4106 0184 009080E5 		str	r9, [r0]
 4107 0188 0400A0E1 		mov	r0, r4
 4108 018c 029043E0 		sub	r9, r3, r2
 4109 0190 FEFFFFEB 		bl	_ZN11flatbuffers15vector_downward12ensure_spaceEj
 4110 0194 1C3094E5 		ldr	r3, [r4, #28]
 4111 0198 0800A0E3 		mov	r0, #8
 4112 019c 202094E5 		ldr	r2, [r4, #32]
 4113 01a0 001083E0 		add	r1, r3, r0
 4114 01a4 009083E5 		str	r9, [r3]
 4115 01a8 B400C3E1 		strh	r0, [r3, #4]	@ movhi
 4116 01ac 012082E2 		add	r2, r2, #1
 4117 01b0 B432D4E1 		ldrh	r3, [r4, #36]
 4118 01b4 1C1084E5 		str	r1, [r4, #28]
 4119 01b8 202084E5 		str	r2, [r4, #32]
 4120 01bc 000053E1 		cmp	r3, r0
 4121 01c0 0030A0B1 		movlt	r3, r0
 4122 01c4 000057E3 		cmp	r7, #0
 4123 01c8 B432C4E1 		strh	r3, [r4, #36]	@ movhi
 4124 01cc B1FFFF0A 		beq	.L809
 4125              	.L859:
 4126 01d0 0710A0E1 		mov	r1, r7
 4127 01d4 0400A0E1 		mov	r0, r4
 4128 01d8 FEFFFFEB 		bl	_ZN11flatbuffers17FlatBufferBuilder7ReferToEm
 4129 01dc 002050E2 		subs	r2, r0, #0
 4130 01e0 0200001A 		bne	.L810
 4131 01e4 2C30D4E5 		ldrb	r3, [r4, #44]	@ zero_extendqisi2
 4132 01e8 000053E3 		cmp	r3, #0
 4133 01ec A9FFFF0A 		beq	.L809
 4134              	.L810:
 4135 01f0 0410A0E3 		mov	r1, #4
 4136 01f4 0400A0E1 		mov	r0, r4
 4137 01f8 FEFFFFEB 		bl	_ZN11flatbuffers17FlatBufferBuilder10AddElementImEEvtT_S2_.part.45
 4138 01fc 000058E3 		cmp	r8, #0
 4139 0200 A6FFFF0A 		beq	.L860
 4140              	.L812:
 4141 0204 283094E5 		ldr	r3, [r4, #40]
 4142 0208 0010A0E3 		mov	r1, #0
 4143 020c 0400A0E1 		mov	r0, r4
 4144 0210 7660AFE6 		sxtb	r6, r6
 4145 0214 000053E3 		cmp	r3, #0
 4146 0218 0130A003 		moveq	r3, #1
 4147 021c 28308405 		streq	r3, [r4, #40]
 4148 0220 FEFFFFEB 		bl	_ZN11flatbuffers15vector_downward12ensure_spaceEj
 4149 0224 183094E5 		ldr	r3, [r4, #24]
 4150 0228 0110A0E3 		mov	r1, #1
 4151 022c 003043E0 		sub	r3, r3, r0
 4152 0230 0400A0E1 		mov	r0, r4
 4153 0234 183084E5 		str	r3, [r4, #24]
 4154 0238 FEFFFFEB 		bl	_ZN11flatbuffers15vector_downward12ensure_spaceEj
 4155 023c 183094E5 		ldr	r3, [r4, #24]
 4156 0240 0810A0E3 		mov	r1, #8
 4157 0244 003043E0 		sub	r3, r3, r0
 4158 0248 0400A0E1 		mov	r0, r4
 4159 024c 183084E5 		str	r3, [r4, #24]
 4160 0250 0080C3E5 		strb	r8, [r3]
 4161 0254 142094E5 		ldr	r2, [r4, #20]
 4162 0258 183094E5 		ldr	r3, [r4, #24]
 4163 025c 107094E5 		ldr	r7, [r4, #16]
 4164 0260 023043E0 		sub	r3, r3, r2
 4165 0264 037047E0 		sub	r7, r7, r3
 4166 0268 FEFFFFEB 		bl	_ZN11flatbuffers15vector_downward12ensure_spaceEj
 4167 026c 1C3094E5 		ldr	r3, [r4, #28]
 4168 0270 0E00A0E3 		mov	r0, #14
 4169 0274 202094E5 		ldr	r2, [r4, #32]
 4170 0278 081083E2 		add	r1, r3, #8
 4171 027c 007083E5 		str	r7, [r3]
 4172 0280 B400C3E1 		strh	r0, [r3, #4]	@ movhi
 4173 0284 012082E2 		add	r2, r2, #1
 4174 0288 B432D4E1 		ldrh	r3, [r4, #36]
 4175 028c 1C1084E5 		str	r1, [r4, #28]
 4176 0290 202084E5 		str	r2, [r4, #32]
 4177 0294 000053E1 		cmp	r3, r0
 4178 0298 0030A0B1 		movlt	r3, r0
 4179 029c 000056E3 		cmp	r6, #0
 4180 02a0 B432C4E1 		strh	r3, [r4, #36]	@ movhi
 4181 02a4 0200001A 		bne	.L815
 4182 02a8 2C30D4E5 		ldrb	r3, [r4, #44]	@ zero_extendqisi2
 4183 02ac 000053E3 		cmp	r3, #0
 4184 02b0 80FFFF0A 		beq	.L816
 4185              	.L815:
 4186 02b4 283094E5 		ldr	r3, [r4, #40]
 4187 02b8 0010A0E3 		mov	r1, #0
 4188 02bc 0400A0E1 		mov	r0, r4
 4189 02c0 000053E3 		cmp	r3, #0
 4190 02c4 0130A003 		moveq	r3, #1
 4191 02c8 28308405 		streq	r3, [r4, #40]
 4192 02cc FEFFFFEB 		bl	_ZN11flatbuffers15vector_downward12ensure_spaceEj
 4193 02d0 183094E5 		ldr	r3, [r4, #24]
 4194 02d4 0110A0E3 		mov	r1, #1
 4195 02d8 003043E0 		sub	r3, r3, r0
 4196 02dc 0400A0E1 		mov	r0, r4
 4197 02e0 183084E5 		str	r3, [r4, #24]
 4198 02e4 FEFFFFEB 		bl	_ZN11flatbuffers15vector_downward12ensure_spaceEj
 4199 02e8 183094E5 		ldr	r3, [r4, #24]
 4200 02ec 0810A0E3 		mov	r1, #8
 4201 02f0 003043E0 		sub	r3, r3, r0
 4202 02f4 0400A0E1 		mov	r0, r4
 4203 02f8 183084E5 		str	r3, [r4, #24]
 4204 02fc 0060C3E5 		strb	r6, [r3]
 4205 0300 142094E5 		ldr	r2, [r4, #20]
 4206 0304 183094E5 		ldr	r3, [r4, #24]
 4207 0308 106094E5 		ldr	r6, [r4, #16]
 4208 030c 023043E0 		sub	r3, r3, r2
 4209 0310 036046E0 		sub	r6, r6, r3
 4210 0314 FEFFFFEB 		bl	_ZN11flatbuffers15vector_downward12ensure_spaceEj
 4211 0318 1C3094E5 		ldr	r3, [r4, #28]
 4212 031c 0600A0E3 		mov	r0, #6
 4213 0320 202094E5 		ldr	r2, [r4, #32]
 4214 0324 081083E2 		add	r1, r3, #8
 4215 0328 006083E5 		str	r6, [r3]
 4216 032c B400C3E1 		strh	r0, [r3, #4]	@ movhi
 4217 0330 012082E2 		add	r2, r2, #1
 4218 0334 B432D4E1 		ldrh	r3, [r4, #36]
 4219 0338 1C1084E5 		str	r1, [r4, #28]
 4220 033c 202084E5 		str	r2, [r4, #32]
 4221 0340 000053E1 		cmp	r3, r0
 4222 0344 0030A0B1 		movlt	r3, r0
 4223 0348 B432C4E1 		strh	r3, [r4, #36]	@ movhi
 4224 034c 59FFFFEA 		b	.L816
 4225              	.L802:
 4226 0350 0A10A0E3 		mov	r1, #10
 4227 0354 0400A0E1 		mov	r0, r4
 4228 0358 FEFFFFEB 		bl	_ZN11flatbuffers17FlatBufferBuilder10AddElementImEEvtT_S2_.part.45
 4229 035c 46FFFFEA 		b	.L801
 4230              	.L857:
 4231 0360 0A10A0E1 		mov	r1, r10
 4232 0364 0400A0E1 		mov	r0, r4
 4233 0368 FEFFFFEB 		bl	_ZN11flatbuffers17FlatBufferBuilder7ReferToEm
 4234 036c 002050E2 		subs	r2, r0, #0
 4235 0370 0200001A 		bne	.L799
 4236 0374 2C30D4E5 		ldrb	r3, [r4, #44]	@ zero_extendqisi2
 4237 0378 000053E3 		cmp	r3, #0
 4238 037c 3BFFFF0A 		beq	.L798
 4239              	.L799:
 4240 0380 0C10A0E3 		mov	r1, #12
 4241 0384 0400A0E1 		mov	r0, r4
 4242 0388 FEFFFFEB 		bl	_ZN11flatbuffers17FlatBufferBuilder10AddElementImEEvtT_S2_.part.45
 4243 038c 37FFFFEA 		b	.L798
 4244              	.L856:
 4245 0390 0B10A0E1 		mov	r1, fp
 4246 0394 0400A0E1 		mov	r0, r4
 4247 0398 FEFFFFEB 		bl	_ZN11flatbuffers17FlatBufferBuilder7ReferToEm
 4248 039c 002050E2 		subs	r2, r0, #0
 4249 03a0 0200001A 		bne	.L795
 4250 03a4 2C30D4E5 		ldrb	r3, [r4, #44]	@ zero_extendqisi2
 4251 03a8 000053E3 		cmp	r3, #0
 4252 03ac 2DFFFF0A 		beq	.L794
 4253              	.L795:
 4254 03b0 1010A0E3 		mov	r1, #16
 4255 03b4 0400A0E1 		mov	r0, r4
 4256 03b8 FEFFFFEB 		bl	_ZN11flatbuffers17FlatBufferBuilder10AddElementImEEvtT_S2_.part.45
 4257 03bc 29FFFFEA 		b	.L794
 4258              	.L855:
 4259 03c0 FEFFFFEB 		bl	_ZN11flatbuffers17FlatBufferBuilder7ReferToEm
 4260 03c4 002050E2 		subs	r2, r0, #0
 4261 03c8 0200001A 		bne	.L791
 4262 03cc 2C30D4E5 		ldrb	r3, [r4, #44]	@ zero_extendqisi2
 4263 03d0 000053E3 		cmp	r3, #0
 4264 03d4 21FFFF0A 		beq	.L790
 4265              	.L791:
 4266 03d8 1210A0E3 		mov	r1, #18
 4267 03dc 0400A0E1 		mov	r0, r4
 4268 03e0 FEFFFFEB 		bl	_ZN11flatbuffers17FlatBufferBuilder10AddElementImEEvtT_S2_.part.45
 4269 03e4 1DFFFFEA 		b	.L790
 4270              	.L853:
 4271 03e8 003000E3 		movw	r3, #:lower16:.LC24
 4272 03ec 002000E3 		movw	r2, #:lower16:.LANCHOR11
 4273 03f0 000000E3 		movw	r0, #:lower16:.LC19
 4274 03f4 003040E3 		movt	r3, #:upper16:.LC24
 4275 03f8 002040E3 		movt	r2, #:upper16:.LANCHOR11
 4276 03fc 000040E3 		movt	r0, #:upper16:.LC19
 4277 0400 481500E3 		movw	r1, #1352
 4278 0404 FEFFFFEB 		bl	__assert_func
 4279              	.L854:
 4280 0408 FEFFFFEB 		bl	_ZN11flatbuffers17FlatBufferBuilder9NotNestedEv.isra.19.part.20
 4281              		.fnend
 4283              		.section	.text._ZN6tflite14CreateOperatorERN11flatbuffers17FlatBufferBuilderEmNS0_6OffsetINS0_6Vec
 4284              		.align	2
 4285              		.weak	_ZN6tflite14CreateOperatorERN11flatbuffers17FlatBufferBuilderEmNS0_6OffsetINS0_6VectorIlEEEE
 4286              		.syntax unified
 4287              		.arm
 4288              		.fpu neon
 4290              	_ZN6tflite14CreateOperatorERN11flatbuffers17FlatBufferBuilderEmNS0_6OffsetINS0_6VectorIlEEEES6_NS_1
 4291              		.fnstart
 4292              	.LFB5848:
 4293              		@ args = 24, pretend = 0, frame = 0
 4294              		@ frame_needed = 0, uses_anonymous_args = 0
 4295 0000 F84F2DE9 		push	{r3, r4, r5, r6, r7, r8, r9, r10, fp, lr}
 4296              		.save {r3, r4, r5, r6, r7, r8, r9, r10, fp, lr}
 4297 0004 0170A0E1 		mov	r7, r1
 4298 0008 2610D0E5 		ldrb	r1, [r0, #38]	@ zero_extendqisi2
 4299 000c 0390A0E1 		mov	r9, r3
 4300 0010 28B0DDE5 		ldrb	fp, [sp, #40]	@ zero_extendqisi2
 4301 0014 000051E3 		cmp	r1, #0
 4302 0018 203090E5 		ldr	r3, [r0, #32]
 4303 001c 3460DDE5 		ldrb	r6, [sp, #52]	@ zero_extendqisi2
 4304 0020 38A09DE5 		ldr	r10, [sp, #56]
 4305 0024 3C109DE5 		ldr	r1, [sp, #60]
 4306 0028 FD00001A 		bne	.L927
 4307 002c 000053E3 		cmp	r3, #0
 4308 0030 0301001A 		bne	.L928
 4309 0034 0280A0E1 		mov	r8, r2
 4310 0038 183090E5 		ldr	r3, [r0, #24]
 4311 003c 142090E5 		ldr	r2, [r0, #20]
 4312 0040 000051E3 		cmp	r1, #0
 4313 0044 105090E5 		ldr	r5, [r0, #16]
 4314 0048 01C0A0E3 		mov	ip, #1
 4315 004c 0040A0E1 		mov	r4, r0
 4316 0050 26C0C0E5 		strb	ip, [r0, #38]
 4317 0054 023043E0 		sub	r3, r3, r2
 4318 0058 035045E0 		sub	r5, r5, r3
 4319 005c E600001A 		bne	.L929
 4320              	.L865:
 4321 0060 00005AE3 		cmp	r10, #0
 4322 0064 D800001A 		bne	.L930
 4323              	.L869:
 4324 0068 30309DE5 		ldr	r3, [sp, #48]
 4325 006c 000053E3 		cmp	r3, #0
 4326 0070 C900001A 		bne	.L931
 4327              	.L873:
 4328 0074 2C309DE5 		ldr	r3, [sp, #44]
 4329 0078 000053E3 		cmp	r3, #0
 4330 007c BA00001A 		bne	.L932
 4331              	.L877:
 4332 0080 000059E3 		cmp	r9, #0
 4333 0084 AC00001A 		bne	.L933
 4334              	.L881:
 4335 0088 000058E3 		cmp	r8, #0
 4336 008c 9E00001A 		bne	.L934
 4337              	.L885:
 4338 0090 000057E3 		cmp	r7, #0
 4339 0094 0200001A 		bne	.L888
 4340 0098 2C30D4E5 		ldrb	r3, [r4, #44]	@ zero_extendqisi2
 4341 009c 000053E3 		cmp	r3, #0
 4342 00a0 8D00000A 		beq	.L935
 4343              	.L888:
 4344 00a4 283094E5 		ldr	r3, [r4, #40]
 4345 00a8 0400A0E1 		mov	r0, r4
 4346 00ac 188094E5 		ldr	r8, [r4, #24]
 4347 00b0 142094E5 		ldr	r2, [r4, #20]
 4348 00b4 030053E3 		cmp	r3, #3
 4349 00b8 0430A093 		movls	r3, #4
 4350 00bc 28308495 		strls	r3, [r4, #40]
 4351 00c0 028048E0 		sub	r8, r8, r2
 4352 00c4 103094E5 		ldr	r3, [r4, #16]
 4353 00c8 038048E0 		sub	r8, r8, r3
 4354 00cc 038008E2 		and	r8, r8, #3
 4355 00d0 0810A0E1 		mov	r1, r8
 4356 00d4 FEFFFFEB 		bl	_ZN11flatbuffers15vector_downward12ensure_spaceEj
 4357 00d8 183094E5 		ldr	r3, [r4, #24]
 4358 00dc 000058E3 		cmp	r8, #0
 4359 00e0 000043E0 		sub	r0, r3, r0
 4360 00e4 180084E5 		str	r0, [r4, #24]
 4361 00e8 0800000A 		beq	.L890
 4362 00ec 010058E3 		cmp	r8, #1
 4363 00f0 0030A0E3 		mov	r3, #0
 4364 00f4 0030C0E5 		strb	r3, [r0]
 4365 00f8 0400000A 		beq	.L890
 4366 00fc 182094E5 		ldr	r2, [r4, #24]
 4367 0100 020058E3 		cmp	r8, #2
 4368 0104 0130C2E5 		strb	r3, [r2, #1]
 4369 0108 18209415 		ldrne	r2, [r4, #24]
 4370 010c 0230C215 		strbne	r3, [r2, #2]
 4371              	.L890:
 4372 0110 0410A0E3 		mov	r1, #4
 4373 0114 0400A0E1 		mov	r0, r4
 4374 0118 FEFFFFEB 		bl	_ZN11flatbuffers15vector_downward12ensure_spaceEj
 4375 011c 183094E5 		ldr	r3, [r4, #24]
 4376 0120 0810A0E3 		mov	r1, #8
 4377 0124 142094E5 		ldr	r2, [r4, #20]
 4378 0128 7660AFE6 		sxtb	r6, r6
 4379 012c 000043E0 		sub	r0, r3, r0
 4380 0130 103094E5 		ldr	r3, [r4, #16]
 4381 0134 022040E0 		sub	r2, r0, r2
 4382 0138 180084E5 		str	r0, [r4, #24]
 4383 013c 007080E5 		str	r7, [r0]
 4384 0140 0400A0E1 		mov	r0, r4
 4385 0144 027043E0 		sub	r7, r3, r2
 4386 0148 FEFFFFEB 		bl	_ZN11flatbuffers15vector_downward12ensure_spaceEj
 4387 014c 1C3094E5 		ldr	r3, [r4, #28]
 4388 0150 0400A0E3 		mov	r0, #4
 4389 0154 202094E5 		ldr	r2, [r4, #32]
 4390 0158 081083E2 		add	r1, r3, #8
 4391 015c 007083E5 		str	r7, [r3]
 4392 0160 B400C3E1 		strh	r0, [r3, #4]	@ movhi
 4393 0164 012082E2 		add	r2, r2, #1
 4394 0168 B432D4E1 		ldrh	r3, [r4, #36]
 4395 016c 1C1084E5 		str	r1, [r4, #28]
 4396 0170 202084E5 		str	r2, [r4, #32]
 4397 0174 000053E1 		cmp	r3, r0
 4398 0178 0030A0B1 		movlt	r3, r0
 4399 017c 000056E3 		cmp	r6, #0
 4400 0180 B432C4E1 		strh	r3, [r4, #36]	@ movhi
 4401 0184 5A00000A 		beq	.L936
 4402              	.L892:
 4403 0188 283094E5 		ldr	r3, [r4, #40]
 4404 018c 0010A0E3 		mov	r1, #0
 4405 0190 0400A0E1 		mov	r0, r4
 4406 0194 000053E3 		cmp	r3, #0
 4407 0198 0130A003 		moveq	r3, #1
 4408 019c 28308405 		streq	r3, [r4, #40]
 4409 01a0 FEFFFFEB 		bl	_ZN11flatbuffers15vector_downward12ensure_spaceEj
 4410 01a4 183094E5 		ldr	r3, [r4, #24]
 4411 01a8 0110A0E3 		mov	r1, #1
 4412 01ac 003043E0 		sub	r3, r3, r0
 4413 01b0 0400A0E1 		mov	r0, r4
 4414 01b4 183084E5 		str	r3, [r4, #24]
 4415 01b8 FEFFFFEB 		bl	_ZN11flatbuffers15vector_downward12ensure_spaceEj
 4416 01bc 183094E5 		ldr	r3, [r4, #24]
 4417 01c0 0810A0E3 		mov	r1, #8
 4418 01c4 003043E0 		sub	r3, r3, r0
 4419 01c8 0400A0E1 		mov	r0, r4
 4420 01cc 183084E5 		str	r3, [r4, #24]
 4421 01d0 0060C3E5 		strb	r6, [r3]
 4422 01d4 142094E5 		ldr	r2, [r4, #20]
 4423 01d8 183094E5 		ldr	r3, [r4, #24]
 4424 01dc 106094E5 		ldr	r6, [r4, #16]
 4425 01e0 023043E0 		sub	r3, r3, r2
 4426 01e4 036046E0 		sub	r6, r6, r3
 4427 01e8 FEFFFFEB 		bl	_ZN11flatbuffers15vector_downward12ensure_spaceEj
 4428 01ec 1C3094E5 		ldr	r3, [r4, #28]
 4429 01f0 1000A0E3 		mov	r0, #16
 4430 01f4 202094E5 		ldr	r2, [r4, #32]
 4431 01f8 081083E2 		add	r1, r3, #8
 4432 01fc 006083E5 		str	r6, [r3]
 4433 0200 B400C3E1 		strh	r0, [r3, #4]	@ movhi
 4434 0204 012082E2 		add	r2, r2, #1
 4435 0208 B432D4E1 		ldrh	r3, [r4, #36]
 4436 020c 1C1084E5 		str	r1, [r4, #28]
 4437 0210 202084E5 		str	r2, [r4, #32]
 4438 0214 000053E1 		cmp	r3, r0
 4439 0218 0030A0B1 		movlt	r3, r0
 4440 021c 00005BE3 		cmp	fp, #0
 4441 0220 B432C4E1 		strh	r3, [r4, #36]	@ movhi
 4442 0224 0200001A 		bne	.L895
 4443 0228 2C30D4E5 		ldrb	r3, [r4, #44]	@ zero_extendqisi2
 4444 022c 000053E3 		cmp	r3, #0
 4445 0230 2500000A 		beq	.L896
 4446              	.L895:
 4447 0234 283094E5 		ldr	r3, [r4, #40]
 4448 0238 0010A0E3 		mov	r1, #0
 4449 023c 0400A0E1 		mov	r0, r4
 4450 0240 000053E3 		cmp	r3, #0
 4451 0244 0130A003 		moveq	r3, #1
 4452 0248 28308405 		streq	r3, [r4, #40]
 4453 024c FEFFFFEB 		bl	_ZN11flatbuffers15vector_downward12ensure_spaceEj
 4454 0250 183094E5 		ldr	r3, [r4, #24]
 4455 0254 0110A0E3 		mov	r1, #1
 4456 0258 003043E0 		sub	r3, r3, r0
 4457 025c 0400A0E1 		mov	r0, r4
 4458 0260 183084E5 		str	r3, [r4, #24]
 4459 0264 FEFFFFEB 		bl	_ZN11flatbuffers15vector_downward12ensure_spaceEj
 4460 0268 183094E5 		ldr	r3, [r4, #24]
 4461 026c 0810A0E3 		mov	r1, #8
 4462 0270 003043E0 		sub	r3, r3, r0
 4463 0274 0400A0E1 		mov	r0, r4
 4464 0278 183084E5 		str	r3, [r4, #24]
 4465 027c 00B0C3E5 		strb	fp, [r3]
 4466 0280 142094E5 		ldr	r2, [r4, #20]
 4467 0284 183094E5 		ldr	r3, [r4, #24]
 4468 0288 106094E5 		ldr	r6, [r4, #16]
 4469 028c 023043E0 		sub	r3, r3, r2
 4470 0290 036046E0 		sub	r6, r6, r3
 4471 0294 FEFFFFEB 		bl	_ZN11flatbuffers15vector_downward12ensure_spaceEj
 4472 0298 1C3094E5 		ldr	r3, [r4, #28]
 4473 029c 0A00A0E3 		mov	r0, #10
 4474 02a0 202094E5 		ldr	r2, [r4, #32]
 4475 02a4 081083E2 		add	r1, r3, #8
 4476 02a8 006083E5 		str	r6, [r3]
 4477 02ac B400C3E1 		strh	r0, [r3, #4]	@ movhi
 4478 02b0 012082E2 		add	r2, r2, #1
 4479 02b4 B432D4E1 		ldrh	r3, [r4, #36]
 4480 02b8 1C1084E5 		str	r1, [r4, #28]
 4481 02bc 202084E5 		str	r2, [r4, #32]
 4482 02c0 000053E1 		cmp	r3, r0
 4483 02c4 0030A0B1 		movlt	r3, r0
 4484 02c8 B432C4E1 		strh	r3, [r4, #36]	@ movhi
 4485              	.L896:
 4486 02cc 0510A0E1 		mov	r1, r5
 4487 02d0 0400A0E1 		mov	r0, r4
 4488 02d4 FEFFFFEB 		bl	_ZN11flatbuffers17FlatBufferBuilder8EndTableEm
 4489 02d8 F88FBDE8 		pop	{r3, r4, r5, r6, r7, r8, r9, r10, fp, pc}
 4490              	.L935:
 4491 02dc 7660AFE6 		sxtb	r6, r6
 4492 02e0 000056E3 		cmp	r6, #0
 4493 02e4 A7FFFF1A 		bne	.L892
 4494 02e8 00005BE3 		cmp	fp, #0
 4495 02ec F6FFFF0A 		beq	.L896
 4496 02f0 CFFFFFEA 		b	.L895
 4497              	.L936:
 4498 02f4 2C30D4E5 		ldrb	r3, [r4, #44]	@ zero_extendqisi2
 4499 02f8 000053E3 		cmp	r3, #0
 4500 02fc A1FFFF1A 		bne	.L892
 4501 0300 00005BE3 		cmp	fp, #0
 4502 0304 F0FFFF0A 		beq	.L896
 4503 0308 C9FFFFEA 		b	.L895
 4504              	.L934:
 4505 030c 0810A0E1 		mov	r1, r8
 4506 0310 0400A0E1 		mov	r0, r4
 4507 0314 FEFFFFEB 		bl	_ZN11flatbuffers17FlatBufferBuilder7ReferToEm
 4508 0318 002050E2 		subs	r2, r0, #0
 4509 031c 0200001A 		bne	.L886
 4510 0320 2C30D4E5 		ldrb	r3, [r4, #44]	@ zero_extendqisi2
 4511 0324 000053E3 		cmp	r3, #0
 4512 0328 58FFFF0A 		beq	.L885
 4513              	.L886:
 4514 032c 0610A0E3 		mov	r1, #6
 4515 0330 0400A0E1 		mov	r0, r4
 4516 0334 FEFFFFEB 		bl	_ZN11flatbuffers17FlatBufferBuilder10AddElementImEEvtT_S2_.part.45
 4517 0338 54FFFFEA 		b	.L885
 4518              	.L933:
 4519 033c 0910A0E1 		mov	r1, r9
 4520 0340 0400A0E1 		mov	r0, r4
 4521 0344 FEFFFFEB 		bl	_ZN11flatbuffers17FlatBufferBuilder7ReferToEm
 4522 0348 002050E2 		subs	r2, r0, #0
 4523 034c 0200001A 		bne	.L882
 4524 0350 2C30D4E5 		ldrb	r3, [r4, #44]	@ zero_extendqisi2
 4525 0354 000053E3 		cmp	r3, #0
 4526 0358 4AFFFF0A 		beq	.L881
 4527              	.L882:
 4528 035c 0810A0E3 		mov	r1, #8
 4529 0360 0400A0E1 		mov	r0, r4
 4530 0364 FEFFFFEB 		bl	_ZN11flatbuffers17FlatBufferBuilder10AddElementImEEvtT_S2_.part.45
 4531 0368 46FFFFEA 		b	.L881
 4532              	.L932:
 4533 036c 0310A0E1 		mov	r1, r3
 4534 0370 0400A0E1 		mov	r0, r4
 4535 0374 FEFFFFEB 		bl	_ZN11flatbuffers17FlatBufferBuilder7ReferToEm
 4536 0378 002050E2 		subs	r2, r0, #0
 4537 037c 0200001A 		bne	.L878
 4538 0380 2C30D4E5 		ldrb	r3, [r4, #44]	@ zero_extendqisi2
 4539 0384 000053E3 		cmp	r3, #0
 4540 0388 3CFFFF0A 		beq	.L877
 4541              	.L878:
 4542 038c 0C10A0E3 		mov	r1, #12
 4543 0390 0400A0E1 		mov	r0, r4
 4544 0394 FEFFFFEB 		bl	_ZN11flatbuffers17FlatBufferBuilder10AddElementImEEvtT_S2_.part.45
 4545 0398 38FFFFEA 		b	.L877
 4546              	.L931:
 4547 039c 0310A0E1 		mov	r1, r3
 4548 03a0 0400A0E1 		mov	r0, r4
 4549 03a4 FEFFFFEB 		bl	_ZN11flatbuffers17FlatBufferBuilder7ReferToEm
 4550 03a8 002050E2 		subs	r2, r0, #0
 4551 03ac 0200001A 		bne	.L874
 4552 03b0 2C30D4E5 		ldrb	r3, [r4, #44]	@ zero_extendqisi2
 4553 03b4 000053E3 		cmp	r3, #0
 4554 03b8 2DFFFF0A 		beq	.L873
 4555              	.L874:
 4556 03bc 0E10A0E3 		mov	r1, #14
 4557 03c0 0400A0E1 		mov	r0, r4
 4558 03c4 FEFFFFEB 		bl	_ZN11flatbuffers17FlatBufferBuilder10AddElementImEEvtT_S2_.part.45
 4559 03c8 29FFFFEA 		b	.L873
 4560              	.L930:
 4561 03cc 0A10A0E1 		mov	r1, r10
 4562 03d0 0400A0E1 		mov	r0, r4
 4563 03d4 FEFFFFEB 		bl	_ZN11flatbuffers17FlatBufferBuilder7ReferToEm
 4564 03d8 002050E2 		subs	r2, r0, #0
 4565 03dc 0200001A 		bne	.L870
 4566 03e0 2C30D4E5 		ldrb	r3, [r4, #44]	@ zero_extendqisi2
 4567 03e4 000053E3 		cmp	r3, #0
 4568 03e8 1EFFFF0A 		beq	.L869
 4569              	.L870:
 4570 03ec 1210A0E3 		mov	r1, #18
 4571 03f0 0400A0E1 		mov	r0, r4
 4572 03f4 FEFFFFEB 		bl	_ZN11flatbuffers17FlatBufferBuilder10AddElementImEEvtT_S2_.part.45
 4573 03f8 1AFFFFEA 		b	.L869
 4574              	.L929:
 4575 03fc FEFFFFEB 		bl	_ZN11flatbuffers17FlatBufferBuilder7ReferToEm
 4576 0400 002050E2 		subs	r2, r0, #0
 4577 0404 0200001A 		bne	.L866
 4578 0408 2C30D4E5 		ldrb	r3, [r4, #44]	@ zero_extendqisi2
 4579 040c 000053E3 		cmp	r3, #0
 4580 0410 12FFFF0A 		beq	.L865
 4581              	.L866:
 4582 0414 1410A0E3 		mov	r1, #20
 4583 0418 0400A0E1 		mov	r0, r4
 4584 041c FEFFFFEB 		bl	_ZN11flatbuffers17FlatBufferBuilder10AddElementImEEvtT_S2_.part.45
 4585 0420 0EFFFFEA 		b	.L865
 4586              	.L927:
 4587 0424 003000E3 		movw	r3, #:lower16:.LC24
 4588 0428 002000E3 		movw	r2, #:lower16:.LANCHOR11
 4589 042c 000000E3 		movw	r0, #:lower16:.LC19
 4590 0430 003040E3 		movt	r3, #:upper16:.LC24
 4591 0434 002040E3 		movt	r2, #:upper16:.LANCHOR11
 4592 0438 000040E3 		movt	r0, #:upper16:.LC19
 4593 043c 481500E3 		movw	r1, #1352
 4594 0440 FEFFFFEB 		bl	__assert_func
 4595              	.L928:
 4596 0444 FEFFFFEB 		bl	_ZN11flatbuffers17FlatBufferBuilder9NotNestedEv.isra.19.part.20
 4597              		.fnend
 4599              		.section	.text._ZN6tflite7testing12_GLOBAL__N_112ModelBuilder7AddNodeEiSt16initializer_listIlES4_,
 4600              		.align	2
 4601              		.syntax unified
 4602              		.arm
 4603              		.fpu neon
 4605              	_ZN6tflite7testing12_GLOBAL__N_112ModelBuilder7AddNodeEiSt16initializer_listIlES4_:
 4606              		.fnstart
 4607              	.LFB6963:
 4608              		@ args = 8, pretend = 0, frame = 8
 4609              		@ frame_needed = 0, uses_anonymous_args = 0
 4610 0000 F04F2DE9 		push	{r4, r5, r6, r7, r8, r9, r10, fp, lr}
 4611              		.save {r4, r5, r6, r7, r8, r9, r10, fp, lr}
 4612              		.pad #36
 4613 0004 24D04DE2 		sub	sp, sp, #36
 4614 0008 F86090E5 		ldr	r6, [r0, #248]
 4615 000c 0180A0E1 		mov	r8, r1
 4616 0010 20108DE2 		add	r1, sp, #32
 4617 0014 0C0001E9 		stmdb	r1, {r2, r3}
 4618 0018 320056E3 		cmp	r6, #50
 4619 001c 430000CA 		bgt	.L952
 4620 0020 1C509DE5 		ldr	r5, [sp, #28]
 4621 0024 0040A0E1 		mov	r4, r0
 4622 0028 007090E5 		ldr	r7, [r0]
 4623 002c 18A09DE5 		ldr	r10, [sp, #24]
 4624 0030 0510A0E1 		mov	r1, r5
 4625 0034 0700A0E1 		mov	r0, r7
 4626 0038 FEFFFFEB 		bl	_ZN11flatbuffers17FlatBufferBuilder11StartVectorEjj.constprop.148
 4627 003c 000055E3 		cmp	r5, #0
 4628 0040 0100000A 		beq	.L941
 4629 0044 0591B0E1 		lsls	r9, r5, #2
 4630 0048 2400001A 		bne	.L953
 4631              	.L941:
 4632 004c 0510A0E1 		mov	r1, r5
 4633 0050 0700A0E1 		mov	r0, r7
 4634 0054 FEFFFFEB 		bl	_ZN11flatbuffers17FlatBufferBuilder9EndVectorEj
 4635 0058 4C509DE5 		ldr	r5, [sp, #76]
 4636 005c 0090A0E1 		mov	r9, r0
 4637 0060 007094E5 		ldr	r7, [r4]
 4638 0064 48B09DE5 		ldr	fp, [sp, #72]
 4639 0068 0510A0E1 		mov	r1, r5
 4640 006c 0700A0E1 		mov	r0, r7
 4641 0070 FEFFFFEB 		bl	_ZN11flatbuffers17FlatBufferBuilder11StartVectorEjj.constprop.148
 4642 0074 000055E3 		cmp	r5, #0
 4643 0078 0100000A 		beq	.L944
 4644 007c 05A1B0E1 		lsls	r10, r5, #2
 4645 0080 2000001A 		bne	.L954
 4646              	.L944:
 4647 0084 0510A0E1 		mov	r1, r5
 4648 0088 0700A0E1 		mov	r0, r7
 4649 008c FEFFFFEB 		bl	_ZN11flatbuffers17FlatBufferBuilder9EndVectorEj
 4650 0090 00C0A0E3 		mov	ip, #0
 4651 0094 0030A0E1 		mov	r3, r0
 4652 0098 0920A0E1 		mov	r2, r9
 4653 009c 0810A0E1 		mov	r1, r8
 4654 00a0 0700A0E1 		mov	r0, r7
 4655 00a4 14C08DE5 		str	ip, [sp, #20]
 4656 00a8 10C08DE5 		str	ip, [sp, #16]
 4657 00ac 0C6086E2 		add	r6, r6, #12
 4658 00b0 0CC08DE5 		str	ip, [sp, #12]
 4659 00b4 08C08DE5 		str	ip, [sp, #8]
 4660 00b8 04C08DE5 		str	ip, [sp, #4]
 4661 00bc 00C08DE5 		str	ip, [sp]
 4662 00c0 FEFFFFEB 		bl	_ZN6tflite14CreateOperatorERN11flatbuffers17FlatBufferBuilderEmNS0_6OffsetINS0_6VectorIlEEEES6_
 4663 00c4 F83094E5 		ldr	r3, [r4, #248]
 4664 00c8 060184E7 		str	r0, [r4, r6, lsl #2]
 4665 00cc 012083E2 		add	r2, r3, #1
 4666 00d0 0300A0E1 		mov	r0, r3
 4667 00d4 F82084E5 		str	r2, [r4, #248]
 4668 00d8 24D08DE2 		add	sp, sp, #36
 4669              		@ sp needed
 4670 00dc F08FBDE8 		pop	{r4, r5, r6, r7, r8, r9, r10, fp, pc}
 4671              	.L953:
 4672 00e0 0910A0E1 		mov	r1, r9
 4673 00e4 0700A0E1 		mov	r0, r7
 4674 00e8 FEFFFFEB 		bl	_ZN11flatbuffers15vector_downward12ensure_spaceEj
 4675 00ec 183097E5 		ldr	r3, [r7, #24]
 4676 00f0 0920A0E1 		mov	r2, r9
 4677 00f4 0A10A0E1 		mov	r1, r10
 4678 00f8 000043E0 		sub	r0, r3, r0
 4679 00fc 180087E5 		str	r0, [r7, #24]
 4680 0100 FEFFFFEB 		bl	memcpy
 4681 0104 D0FFFFEA 		b	.L941
 4682              	.L954:
 4683 0108 0A10A0E1 		mov	r1, r10
 4684 010c 0700A0E1 		mov	r0, r7
 4685 0110 FEFFFFEB 		bl	_ZN11flatbuffers15vector_downward12ensure_spaceEj
 4686 0114 183097E5 		ldr	r3, [r7, #24]
 4687 0118 0A20A0E1 		mov	r2, r10
 4688 011c 0B10A0E1 		mov	r1, fp
 4689 0120 000043E0 		sub	r0, r3, r0
 4690 0124 180087E5 		str	r0, [r7, #24]
 4691 0128 FEFFFFEB 		bl	memcpy
 4692 012c D4FFFFEA 		b	.L944
 4693              	.L952:
 4694 0130 FEFFFFEB 		bl	abort
 4695              		.fnend
 4697              		.section	.text._ZN6tflite14CreateSubGraphERN11flatbuffers17FlatBufferBuilderENS0_6OffsetINS0_6Vect
 4698              		.align	2
 4699              		.weak	_ZN6tflite14CreateSubGraphERN11flatbuffers17FlatBufferBuilderENS0_6OffsetINS0_6VectorINS3_IN
 4700              		.syntax unified
 4701              		.arm
 4702              		.fpu neon
 4704              	_ZN6tflite14CreateSubGraphERN11flatbuffers17FlatBufferBuilderENS0_6OffsetINS0_6VectorINS3_INS_6Tens
 4705              		.fnstart
 4706              	.LFB5868:
 4707              		@ args = 8, pretend = 0, frame = 0
 4708              		@ frame_needed = 0, uses_anonymous_args = 0
 4709 0000 F0472DE9 		push	{r4, r5, r6, r7, r8, r9, r10, lr}
 4710              		.save {r4, r5, r6, r7, r8, r9, r10, lr}
 4711 0004 0160A0E1 		mov	r6, r1
 4712 0008 2610D0E5 		ldrb	r1, [r0, #38]	@ zero_extendqisi2
 4713 000c 0380A0E1 		mov	r8, r3
 4714 0010 20909DE5 		ldr	r9, [sp, #32]
 4715 0014 000051E3 		cmp	r1, #0
 4716 0018 203090E5 		ldr	r3, [r0, #32]
 4717 001c 24109DE5 		ldr	r1, [sp, #36]
 4718 0020 5600001A 		bne	.L980
 4719 0024 000053E3 		cmp	r3, #0
 4720 0028 5C00001A 		bne	.L981
 4721 002c 0270A0E1 		mov	r7, r2
 4722 0030 143090E5 		ldr	r3, [r0, #20]
 4723 0034 182090E5 		ldr	r2, [r0, #24]
 4724 0038 000051E3 		cmp	r1, #0
 4725 003c 105090E5 		ldr	r5, [r0, #16]
 4726 0040 01C0A0E3 		mov	ip, #1
 4727 0044 0040A0E1 		mov	r4, r0
 4728 0048 26C0C0E5 		strb	ip, [r0, #38]
 4729 004c 032042E0 		sub	r2, r2, r3
 4730 0050 025045E0 		sub	r5, r5, r2
 4731 0054 0B00001A 		bne	.L982
 4732              	.L959:
 4733 0058 000059E3 		cmp	r9, #0
 4734 005c 1400001A 		bne	.L983
 4735              	.L963:
 4736 0060 000058E3 		cmp	r8, #0
 4737 0064 1F00001A 		bne	.L984
 4738              	.L967:
 4739 0068 000057E3 		cmp	r7, #0
 4740 006c 2A00001A 		bne	.L985
 4741              	.L971:
 4742 0070 000056E3 		cmp	r6, #0
 4743 0074 3500001A 		bne	.L986
 4744              	.L975:
 4745 0078 0510A0E1 		mov	r1, r5
 4746 007c 0400A0E1 		mov	r0, r4
 4747 0080 FEFFFFEB 		bl	_ZN11flatbuffers17FlatBufferBuilder8EndTableEm
 4748 0084 F087BDE8 		pop	{r4, r5, r6, r7, r8, r9, r10, pc}
 4749              	.L982:
 4750 0088 FEFFFFEB 		bl	_ZN11flatbuffers17FlatBufferBuilder7ReferToEm
 4751 008c 002050E2 		subs	r2, r0, #0
 4752 0090 0200001A 		bne	.L960
 4753 0094 2C30D4E5 		ldrb	r3, [r4, #44]	@ zero_extendqisi2
 4754 0098 000053E3 		cmp	r3, #0
 4755 009c EDFFFF0A 		beq	.L959
 4756              	.L960:
 4757 00a0 0C10A0E3 		mov	r1, #12
 4758 00a4 0400A0E1 		mov	r0, r4
 4759 00a8 FEFFFFEB 		bl	_ZN11flatbuffers17FlatBufferBuilder10AddElementImEEvtT_S2_.part.45
 4760 00ac 000059E3 		cmp	r9, #0
 4761 00b0 EAFFFF0A 		beq	.L963
 4762              	.L983:
 4763 00b4 0910A0E1 		mov	r1, r9
 4764 00b8 0400A0E1 		mov	r0, r4
 4765 00bc FEFFFFEB 		bl	_ZN11flatbuffers17FlatBufferBuilder7ReferToEm
 4766 00c0 002050E2 		subs	r2, r0, #0
 4767 00c4 0200001A 		bne	.L964
 4768 00c8 2C30D4E5 		ldrb	r3, [r4, #44]	@ zero_extendqisi2
 4769 00cc 000053E3 		cmp	r3, #0
 4770 00d0 E2FFFF0A 		beq	.L963
 4771              	.L964:
 4772 00d4 0A10A0E3 		mov	r1, #10
 4773 00d8 0400A0E1 		mov	r0, r4
 4774 00dc FEFFFFEB 		bl	_ZN11flatbuffers17FlatBufferBuilder10AddElementImEEvtT_S2_.part.45
 4775 00e0 000058E3 		cmp	r8, #0
 4776 00e4 DFFFFF0A 		beq	.L967
 4777              	.L984:
 4778 00e8 0810A0E1 		mov	r1, r8
 4779 00ec 0400A0E1 		mov	r0, r4
 4780 00f0 FEFFFFEB 		bl	_ZN11flatbuffers17FlatBufferBuilder7ReferToEm
 4781 00f4 002050E2 		subs	r2, r0, #0
 4782 00f8 0200001A 		bne	.L968
 4783 00fc 2C30D4E5 		ldrb	r3, [r4, #44]	@ zero_extendqisi2
 4784 0100 000053E3 		cmp	r3, #0
 4785 0104 D7FFFF0A 		beq	.L967
 4786              	.L968:
 4787 0108 0810A0E3 		mov	r1, #8
 4788 010c 0400A0E1 		mov	r0, r4
 4789 0110 FEFFFFEB 		bl	_ZN11flatbuffers17FlatBufferBuilder10AddElementImEEvtT_S2_.part.45
 4790 0114 000057E3 		cmp	r7, #0
 4791 0118 D4FFFF0A 		beq	.L971
 4792              	.L985:
 4793 011c 0710A0E1 		mov	r1, r7
 4794 0120 0400A0E1 		mov	r0, r4
 4795 0124 FEFFFFEB 		bl	_ZN11flatbuffers17FlatBufferBuilder7ReferToEm
 4796 0128 002050E2 		subs	r2, r0, #0
 4797 012c 0200001A 		bne	.L972
 4798 0130 2C30D4E5 		ldrb	r3, [r4, #44]	@ zero_extendqisi2
 4799 0134 000053E3 		cmp	r3, #0
 4800 0138 CCFFFF0A 		beq	.L971
 4801              	.L972:
 4802 013c 0610A0E3 		mov	r1, #6
 4803 0140 0400A0E1 		mov	r0, r4
 4804 0144 FEFFFFEB 		bl	_ZN11flatbuffers17FlatBufferBuilder10AddElementImEEvtT_S2_.part.45
 4805 0148 000056E3 		cmp	r6, #0
 4806 014c C9FFFF0A 		beq	.L975
 4807              	.L986:
 4808 0150 0610A0E1 		mov	r1, r6
 4809 0154 0400A0E1 		mov	r0, r4
 4810 0158 FEFFFFEB 		bl	_ZN11flatbuffers17FlatBufferBuilder7ReferToEm
 4811 015c 002050E2 		subs	r2, r0, #0
 4812 0160 0200001A 		bne	.L976
 4813 0164 2C30D4E5 		ldrb	r3, [r4, #44]	@ zero_extendqisi2
 4814 0168 000053E3 		cmp	r3, #0
 4815 016c C1FFFF0A 		beq	.L975
 4816              	.L976:
 4817 0170 0410A0E3 		mov	r1, #4
 4818 0174 0400A0E1 		mov	r0, r4
 4819 0178 FEFFFFEB 		bl	_ZN11flatbuffers17FlatBufferBuilder10AddElementImEEvtT_S2_.part.45
 4820 017c BDFFFFEA 		b	.L975
 4821              	.L980:
 4822 0180 003000E3 		movw	r3, #:lower16:.LC24
 4823 0184 002000E3 		movw	r2, #:lower16:.LANCHOR11
 4824 0188 000000E3 		movw	r0, #:lower16:.LC19
 4825 018c 003040E3 		movt	r3, #:upper16:.LC24
 4826 0190 002040E3 		movt	r2, #:upper16:.LANCHOR11
 4827 0194 000040E3 		movt	r0, #:upper16:.LC19
 4828 0198 481500E3 		movw	r1, #1352
 4829 019c FEFFFFEB 		bl	__assert_func
 4830              	.L981:
 4831 01a0 FEFFFFEB 		bl	_ZN11flatbuffers17FlatBufferBuilder9NotNestedEv.isra.19.part.20
 4832              		.fnend
 4834              		.section	.text._ZN6tflite12CreateBufferERN11flatbuffers17FlatBufferBuilderENS0_6OffsetINS0_6Vector
 4835              		.align	2
 4836              		.weak	_ZN6tflite12CreateBufferERN11flatbuffers17FlatBufferBuilderENS0_6OffsetINS0_6VectorIhEEEE
 4837              		.syntax unified
 4838              		.arm
 4839              		.fpu neon
 4841              	_ZN6tflite12CreateBufferERN11flatbuffers17FlatBufferBuilderENS0_6OffsetINS0_6VectorIhEEEE:
 4842              		.fnstart
 4843              	.LFB5880:
 4844              		@ args = 0, pretend = 0, frame = 0
 4845              		@ frame_needed = 0, uses_anonymous_args = 0
 4846 0000 26C0D0E5 		ldrb	ip, [r0, #38]	@ zero_extendqisi2
 4847 0004 F0412DE9 		push	{r4, r5, r6, r7, r8, lr}
 4848              		.save {r4, r5, r6, r7, r8, lr}
 4849 0008 203090E5 		ldr	r3, [r0, #32]
 4850 000c 00005CE3 		cmp	ip, #0
 4851 0010 4D00001A 		bne	.L1010
 4852 0014 000053E3 		cmp	r3, #0
 4853 0018 5300001A 		bne	.L1011
 4854 001c 183090E5 		ldr	r3, [r0, #24]
 4855 0020 000051E3 		cmp	r1, #0
 4856 0024 142090E5 		ldr	r2, [r0, #20]
 4857 0028 01C0A0E3 		mov	ip, #1
 4858 002c 105090E5 		ldr	r5, [r0, #16]
 4859 0030 0040A0E1 		mov	r4, r0
 4860 0034 26C0C0E5 		strb	ip, [r0, #38]
 4861 0038 023043E0 		sub	r3, r3, r2
 4862 003c 035045E0 		sub	r5, r5, r3
 4863 0040 0300001A 		bne	.L1012
 4864              	.L991:
 4865 0044 0510A0E1 		mov	r1, r5
 4866 0048 0400A0E1 		mov	r0, r4
 4867 004c FEFFFFEB 		bl	_ZN11flatbuffers17FlatBufferBuilder8EndTableEm
 4868 0050 F081BDE8 		pop	{r4, r5, r6, r7, r8, pc}
 4869              	.L1012:
 4870 0054 FEFFFFEB 		bl	_ZN11flatbuffers17FlatBufferBuilder7ReferToEm
 4871 0058 007050E2 		subs	r7, r0, #0
 4872 005c 3600000A 		beq	.L1013
 4873              	.L992:
 4874 0060 283094E5 		ldr	r3, [r4, #40]
 4875 0064 0400A0E1 		mov	r0, r4
 4876 0068 186094E5 		ldr	r6, [r4, #24]
 4877 006c 142094E5 		ldr	r2, [r4, #20]
 4878 0070 030053E3 		cmp	r3, #3
 4879 0074 0430A093 		movls	r3, #4
 4880 0078 28308495 		strls	r3, [r4, #40]
 4881 007c 026046E0 		sub	r6, r6, r2
 4882 0080 103094E5 		ldr	r3, [r4, #16]
 4883 0084 036046E0 		sub	r6, r6, r3
 4884 0088 036006E2 		and	r6, r6, #3
 4885 008c 0610A0E1 		mov	r1, r6
 4886 0090 FEFFFFEB 		bl	_ZN11flatbuffers15vector_downward12ensure_spaceEj
 4887 0094 183094E5 		ldr	r3, [r4, #24]
 4888 0098 000056E3 		cmp	r6, #0
 4889 009c 000043E0 		sub	r0, r3, r0
 4890 00a0 180084E5 		str	r0, [r4, #24]
 4891 00a4 0800000A 		beq	.L994
 4892 00a8 010056E3 		cmp	r6, #1
 4893 00ac 0030A0E3 		mov	r3, #0
 4894 00b0 0030C0E5 		strb	r3, [r0]
 4895 00b4 0400000A 		beq	.L994
 4896 00b8 182094E5 		ldr	r2, [r4, #24]
 4897 00bc 020056E3 		cmp	r6, #2
 4898 00c0 0130C2E5 		strb	r3, [r2, #1]
 4899 00c4 18209415 		ldrne	r2, [r4, #24]
 4900 00c8 0230C215 		strbne	r3, [r2, #2]
 4901              	.L994:
 4902 00cc 0410A0E3 		mov	r1, #4
 4903 00d0 0400A0E1 		mov	r0, r4
 4904 00d4 FEFFFFEB 		bl	_ZN11flatbuffers15vector_downward12ensure_spaceEj
 4905 00d8 183094E5 		ldr	r3, [r4, #24]
 4906 00dc 0810A0E3 		mov	r1, #8
 4907 00e0 142094E5 		ldr	r2, [r4, #20]
 4908 00e4 106094E5 		ldr	r6, [r4, #16]
 4909 00e8 003043E0 		sub	r3, r3, r0
 4910 00ec 0400A0E1 		mov	r0, r4
 4911 00f0 022043E0 		sub	r2, r3, r2
 4912 00f4 183084E5 		str	r3, [r4, #24]
 4913 00f8 007083E5 		str	r7, [r3]
 4914 00fc 026046E0 		sub	r6, r6, r2
 4915 0100 FEFFFFEB 		bl	_ZN11flatbuffers15vector_downward12ensure_spaceEj
 4916 0104 1C3094E5 		ldr	r3, [r4, #28]
 4917 0108 0400A0E3 		mov	r0, #4
 4918 010c 202094E5 		ldr	r2, [r4, #32]
 4919 0110 081083E2 		add	r1, r3, #8
 4920 0114 006083E5 		str	r6, [r3]
 4921 0118 B400C3E1 		strh	r0, [r3, #4]	@ movhi
 4922 011c 012082E2 		add	r2, r2, #1
 4923 0120 B432D4E1 		ldrh	r3, [r4, #36]
 4924 0124 1C1084E5 		str	r1, [r4, #28]
 4925 0128 202084E5 		str	r2, [r4, #32]
 4926 012c 000053E1 		cmp	r3, r0
 4927 0130 0030A0B1 		movlt	r3, r0
 4928 0134 B432C4E1 		strh	r3, [r4, #36]	@ movhi
 4929 0138 C1FFFFEA 		b	.L991
 4930              	.L1013:
 4931 013c 2C30D4E5 		ldrb	r3, [r4, #44]	@ zero_extendqisi2
 4932 0140 000053E3 		cmp	r3, #0
 4933 0144 C5FFFF1A 		bne	.L992
 4934 0148 BDFFFFEA 		b	.L991
 4935              	.L1010:
 4936 014c 003000E3 		movw	r3, #:lower16:.LC24
 4937 0150 002000E3 		movw	r2, #:lower16:.LANCHOR11
 4938 0154 000000E3 		movw	r0, #:lower16:.LC19
 4939 0158 003040E3 		movt	r3, #:upper16:.LC24
 4940 015c 002040E3 		movt	r2, #:upper16:.LANCHOR11
 4941 0160 000040E3 		movt	r0, #:upper16:.LC19
 4942 0164 481500E3 		movw	r1, #1352
 4943 0168 FEFFFFEB 		bl	__assert_func
 4944              	.L1011:
 4945 016c FEFFFFEB 		bl	_ZN11flatbuffers17FlatBufferBuilder9NotNestedEv.isra.19.part.20
 4946              		.fnend
 4948              		.section	.text._ZN6tflite11CreateModelERN11flatbuffers17FlatBufferBuilderEmNS0_6OffsetINS0_6Vector
 4949              		.align	2
 4950              		.weak	_ZN6tflite11CreateModelERN11flatbuffers17FlatBufferBuilderEmNS0_6OffsetINS0_6VectorINS3_INS_
 4951              		.syntax unified
 4952              		.arm
 4953              		.fpu neon
 4955              	_ZN6tflite11CreateModelERN11flatbuffers17FlatBufferBuilderEmNS0_6OffsetINS0_6VectorINS3_INS_12Opera
 4956              		.fnstart
 4957              	.LFB5954:
 4958              		@ args = 20, pretend = 0, frame = 0
 4959              		@ frame_needed = 0, uses_anonymous_args = 0
 4960 0000 F84F2DE9 		push	{r3, r4, r5, r6, r7, r8, r9, r10, fp, lr}
 4961              		.save {r3, r4, r5, r6, r7, r8, r9, r10, fp, lr}
 4962 0004 0160A0E1 		mov	r6, r1
 4963 0008 2610D0E5 		ldrb	r1, [r0, #38]	@ zero_extendqisi2
 4964 000c 2C908DE2 		add	r9, sp, #44
 4965 0010 0380A0E1 		mov	r8, r3
 4966 0014 000E99E8 		ldm	r9, {r9, r10, fp}
 4967 0018 000051E3 		cmp	r1, #0
 4968 001c 203090E5 		ldr	r3, [r0, #32]
 4969 0020 38109DE5 		ldr	r1, [sp, #56]
 4970 0024 AD00001A 		bne	.L1071
 4971 0028 000053E3 		cmp	r3, #0
 4972 002c B300001A 		bne	.L1072
 4973 0030 0270A0E1 		mov	r7, r2
 4974 0034 183090E5 		ldr	r3, [r0, #24]
 4975 0038 142090E5 		ldr	r2, [r0, #20]
 4976 003c 000051E3 		cmp	r1, #0
 4977 0040 105090E5 		ldr	r5, [r0, #16]
 4978 0044 01C0A0E3 		mov	ip, #1
 4979 0048 0040A0E1 		mov	r4, r0
 4980 004c 26C0C0E5 		strb	ip, [r0, #38]
 4981 0050 023043E0 		sub	r3, r3, r2
 4982 0054 035045E0 		sub	r5, r5, r3
 4983 0058 9600001A 		bne	.L1073
 4984              	.L1018:
 4985 005c 00005BE3 		cmp	fp, #0
 4986 0060 8800001A 		bne	.L1074
 4987              	.L1022:
 4988 0064 00005AE3 		cmp	r10, #0
 4989 0068 7A00001A 		bne	.L1075
 4990              	.L1026:
 4991 006c 000059E3 		cmp	r9, #0
 4992 0070 6C00001A 		bne	.L1076
 4993              	.L1030:
 4994 0074 28309DE5 		ldr	r3, [sp, #40]
 4995 0078 000053E3 		cmp	r3, #0
 4996 007c 5D00001A 		bne	.L1077
 4997              	.L1034:
 4998 0080 000058E3 		cmp	r8, #0
 4999 0084 4F00001A 		bne	.L1078
 5000              	.L1038:
 5001 0088 000057E3 		cmp	r7, #0
 5002 008c 0800001A 		bne	.L1079
 5003              	.L1041:
 5004 0090 000056E3 		cmp	r6, #0
 5005 0094 1000001A 		bne	.L1044
 5006 0098 2C30D4E5 		ldrb	r3, [r4, #44]	@ zero_extendqisi2
 5007 009c 000053E3 		cmp	r3, #0
 5008 00a0 0D00001A 		bne	.L1044
 5009              	.L1045:
 5010 00a4 0510A0E1 		mov	r1, r5
 5011 00a8 0400A0E1 		mov	r0, r4
 5012 00ac FEFFFFEB 		bl	_ZN11flatbuffers17FlatBufferBuilder8EndTableEm
 5013 00b0 F88FBDE8 		pop	{r3, r4, r5, r6, r7, r8, r9, r10, fp, pc}
 5014              	.L1079:
 5015 00b4 0710A0E1 		mov	r1, r7
 5016 00b8 0400A0E1 		mov	r0, r4
 5017 00bc FEFFFFEB 		bl	_ZN11flatbuffers17FlatBufferBuilder7ReferToEm
 5018 00c0 002050E2 		subs	r2, r0, #0
 5019 00c4 3B00001A 		bne	.L1042
 5020 00c8 2C30D4E5 		ldrb	r3, [r4, #44]	@ zero_extendqisi2
 5021 00cc 000053E3 		cmp	r3, #0
 5022 00d0 3800001A 		bne	.L1042
 5023 00d4 000056E3 		cmp	r6, #0
 5024 00d8 F1FFFF0A 		beq	.L1045
 5025              	.L1044:
 5026 00dc 283094E5 		ldr	r3, [r4, #40]
 5027 00e0 0400A0E1 		mov	r0, r4
 5028 00e4 187094E5 		ldr	r7, [r4, #24]
 5029 00e8 142094E5 		ldr	r2, [r4, #20]
 5030 00ec 030053E3 		cmp	r3, #3
 5031 00f0 0430A093 		movls	r3, #4
 5032 00f4 28308495 		strls	r3, [r4, #40]
 5033 00f8 027047E0 		sub	r7, r7, r2
 5034 00fc 103094E5 		ldr	r3, [r4, #16]
 5035 0100 037047E0 		sub	r7, r7, r3
 5036 0104 037007E2 		and	r7, r7, #3
 5037 0108 0710A0E1 		mov	r1, r7
 5038 010c FEFFFFEB 		bl	_ZN11flatbuffers15vector_downward12ensure_spaceEj
 5039 0110 183094E5 		ldr	r3, [r4, #24]
 5040 0114 000057E3 		cmp	r7, #0
 5041 0118 000043E0 		sub	r0, r3, r0
 5042 011c 180084E5 		str	r0, [r4, #24]
 5043 0120 0800000A 		beq	.L1046
 5044 0124 010057E3 		cmp	r7, #1
 5045 0128 0030A0E3 		mov	r3, #0
 5046 012c 0030C0E5 		strb	r3, [r0]
 5047 0130 0400000A 		beq	.L1046
 5048 0134 182094E5 		ldr	r2, [r4, #24]
 5049 0138 020057E3 		cmp	r7, #2
 5050 013c 0130C2E5 		strb	r3, [r2, #1]
 5051 0140 18209415 		ldrne	r2, [r4, #24]
 5052 0144 0230C215 		strbne	r3, [r2, #2]
 5053              	.L1046:
 5054 0148 0410A0E3 		mov	r1, #4
 5055 014c 0400A0E1 		mov	r0, r4
 5056 0150 FEFFFFEB 		bl	_ZN11flatbuffers15vector_downward12ensure_spaceEj
 5057 0154 183094E5 		ldr	r3, [r4, #24]
 5058 0158 0810A0E3 		mov	r1, #8
 5059 015c 14C094E5 		ldr	ip, [r4, #20]
 5060 0160 102094E5 		ldr	r2, [r4, #16]
 5061 0164 003043E0 		sub	r3, r3, r0
 5062 0168 0400A0E1 		mov	r0, r4
 5063 016c 183084E5 		str	r3, [r4, #24]
 5064 0170 0CC043E0 		sub	ip, r3, ip
 5065 0174 006083E5 		str	r6, [r3]
 5066 0178 0C6042E0 		sub	r6, r2, ip
 5067 017c FEFFFFEB 		bl	_ZN11flatbuffers15vector_downward12ensure_spaceEj
 5068 0180 1C3094E5 		ldr	r3, [r4, #28]
 5069 0184 0400A0E3 		mov	r0, #4
 5070 0188 202094E5 		ldr	r2, [r4, #32]
 5071 018c 081083E2 		add	r1, r3, #8
 5072 0190 006083E5 		str	r6, [r3]
 5073 0194 B400C3E1 		strh	r0, [r3, #4]	@ movhi
 5074 0198 012082E2 		add	r2, r2, #1
 5075 019c B432D4E1 		ldrh	r3, [r4, #36]
 5076 01a0 1C1084E5 		str	r1, [r4, #28]
 5077 01a4 202084E5 		str	r2, [r4, #32]
 5078 01a8 000053E1 		cmp	r3, r0
 5079 01ac 0030A0B1 		movlt	r3, r0
 5080 01b0 B432C4E1 		strh	r3, [r4, #36]	@ movhi
 5081 01b4 BAFFFFEA 		b	.L1045
 5082              	.L1042:
 5083 01b8 0610A0E3 		mov	r1, #6
 5084 01bc 0400A0E1 		mov	r0, r4
 5085 01c0 FEFFFFEB 		bl	_ZN11flatbuffers17FlatBufferBuilder10AddElementImEEvtT_S2_.part.45
 5086 01c4 B1FFFFEA 		b	.L1041
 5087              	.L1078:
 5088 01c8 0810A0E1 		mov	r1, r8
 5089 01cc 0400A0E1 		mov	r0, r4
 5090 01d0 FEFFFFEB 		bl	_ZN11flatbuffers17FlatBufferBuilder7ReferToEm
 5091 01d4 002050E2 		subs	r2, r0, #0
 5092 01d8 0200001A 		bne	.L1039
 5093 01dc 2C30D4E5 		ldrb	r3, [r4, #44]	@ zero_extendqisi2
 5094 01e0 000053E3 		cmp	r3, #0
 5095 01e4 A7FFFF0A 		beq	.L1038
 5096              	.L1039:
 5097 01e8 0810A0E3 		mov	r1, #8
 5098 01ec 0400A0E1 		mov	r0, r4
 5099 01f0 FEFFFFEB 		bl	_ZN11flatbuffers17FlatBufferBuilder10AddElementImEEvtT_S2_.part.45
 5100 01f4 A3FFFFEA 		b	.L1038
 5101              	.L1077:
 5102 01f8 0310A0E1 		mov	r1, r3
 5103 01fc 0400A0E1 		mov	r0, r4
 5104 0200 FEFFFFEB 		bl	_ZN11flatbuffers17FlatBufferBuilder7ReferToEm
 5105 0204 002050E2 		subs	r2, r0, #0
 5106 0208 0200001A 		bne	.L1035
 5107 020c 2C30D4E5 		ldrb	r3, [r4, #44]	@ zero_extendqisi2
 5108 0210 000053E3 		cmp	r3, #0
 5109 0214 99FFFF0A 		beq	.L1034
 5110              	.L1035:
 5111 0218 0A10A0E3 		mov	r1, #10
 5112 021c 0400A0E1 		mov	r0, r4
 5113 0220 FEFFFFEB 		bl	_ZN11flatbuffers17FlatBufferBuilder10AddElementImEEvtT_S2_.part.45
 5114 0224 95FFFFEA 		b	.L1034
 5115              	.L1076:
 5116 0228 0910A0E1 		mov	r1, r9
 5117 022c 0400A0E1 		mov	r0, r4
 5118 0230 FEFFFFEB 		bl	_ZN11flatbuffers17FlatBufferBuilder7ReferToEm
 5119 0234 002050E2 		subs	r2, r0, #0
 5120 0238 0200001A 		bne	.L1031
 5121 023c 2C30D4E5 		ldrb	r3, [r4, #44]	@ zero_extendqisi2
 5122 0240 000053E3 		cmp	r3, #0
 5123 0244 8AFFFF0A 		beq	.L1030
 5124              	.L1031:
 5125 0248 0C10A0E3 		mov	r1, #12
 5126 024c 0400A0E1 		mov	r0, r4
 5127 0250 FEFFFFEB 		bl	_ZN11flatbuffers17FlatBufferBuilder10AddElementImEEvtT_S2_.part.45
 5128 0254 86FFFFEA 		b	.L1030
 5129              	.L1075:
 5130 0258 0A10A0E1 		mov	r1, r10
 5131 025c 0400A0E1 		mov	r0, r4
 5132 0260 FEFFFFEB 		bl	_ZN11flatbuffers17FlatBufferBuilder7ReferToEm
 5133 0264 002050E2 		subs	r2, r0, #0
 5134 0268 0200001A 		bne	.L1027
 5135 026c 2C30D4E5 		ldrb	r3, [r4, #44]	@ zero_extendqisi2
 5136 0270 000053E3 		cmp	r3, #0
 5137 0274 7CFFFF0A 		beq	.L1026
 5138              	.L1027:
 5139 0278 0E10A0E3 		mov	r1, #14
 5140 027c 0400A0E1 		mov	r0, r4
 5141 0280 FEFFFFEB 		bl	_ZN11flatbuffers17FlatBufferBuilder10AddElementImEEvtT_S2_.part.45
 5142 0284 78FFFFEA 		b	.L1026
 5143              	.L1074:
 5144 0288 0B10A0E1 		mov	r1, fp
 5145 028c 0400A0E1 		mov	r0, r4
 5146 0290 FEFFFFEB 		bl	_ZN11flatbuffers17FlatBufferBuilder7ReferToEm
 5147 0294 002050E2 		subs	r2, r0, #0
 5148 0298 0200001A 		bne	.L1023
 5149 029c 2C30D4E5 		ldrb	r3, [r4, #44]	@ zero_extendqisi2
 5150 02a0 000053E3 		cmp	r3, #0
 5151 02a4 6EFFFF0A 		beq	.L1022
 5152              	.L1023:
 5153 02a8 1010A0E3 		mov	r1, #16
 5154 02ac 0400A0E1 		mov	r0, r4
 5155 02b0 FEFFFFEB 		bl	_ZN11flatbuffers17FlatBufferBuilder10AddElementImEEvtT_S2_.part.45
 5156 02b4 6AFFFFEA 		b	.L1022
 5157              	.L1073:
 5158 02b8 FEFFFFEB 		bl	_ZN11flatbuffers17FlatBufferBuilder7ReferToEm
 5159 02bc 002050E2 		subs	r2, r0, #0
 5160 02c0 0200001A 		bne	.L1019
 5161 02c4 2C30D4E5 		ldrb	r3, [r4, #44]	@ zero_extendqisi2
 5162 02c8 000053E3 		cmp	r3, #0
 5163 02cc 62FFFF0A 		beq	.L1018
 5164              	.L1019:
 5165 02d0 1210A0E3 		mov	r1, #18
 5166 02d4 0400A0E1 		mov	r0, r4
 5167 02d8 FEFFFFEB 		bl	_ZN11flatbuffers17FlatBufferBuilder10AddElementImEEvtT_S2_.part.45
 5168 02dc 5EFFFFEA 		b	.L1018
 5169              	.L1071:
 5170 02e0 003000E3 		movw	r3, #:lower16:.LC24
 5171 02e4 002000E3 		movw	r2, #:lower16:.LANCHOR11
 5172 02e8 000000E3 		movw	r0, #:lower16:.LC19
 5173 02ec 003040E3 		movt	r3, #:upper16:.LC24
 5174 02f0 002040E3 		movt	r2, #:upper16:.LANCHOR11
 5175 02f4 000040E3 		movt	r0, #:upper16:.LC19
 5176 02f8 481500E3 		movw	r1, #1352
 5177 02fc FEFFFFEB 		bl	__assert_func
 5178              	.L1072:
 5179 0300 FEFFFFEB 		bl	_ZN11flatbuffers17FlatBufferBuilder9NotNestedEv.isra.19.part.20
 5180              		.fnend
 5182              		.section	.text._ZN6tflite7testing12_GLOBAL__N_112ModelBuilder10BuildModelESt16initializer_listIlES
 5183              		.align	2
 5184              		.syntax unified
 5185              		.arm
 5186              		.fpu neon
 5188              	_ZN6tflite7testing12_GLOBAL__N_112ModelBuilder10BuildModelESt16initializer_listIlES4_j:
 5189              		.fnstart
 5190              	.LFB6967:
 5191              		@ args = 16, pretend = 8, frame = 80
 5192              		@ frame_needed = 0, uses_anonymous_args = 0
 5193              		.pad #8
 5194 0000 08D04DE2 		sub	sp, sp, #8
 5195 0004 5000C0F2 		vmov.i32	q8, #0  @ v4si
 5196 0008 F04F2DE9 		push	{r4, r5, r6, r7, r8, r9, r10, fp, lr}
 5197              		.save {r4, r5, r6, r7, r8, r9, r10, fp, lr}
 5198 000c 0050A0E1 		mov	r5, r0
 5199              		.pad #108
 5200 0010 6CD04DE2 		sub	sp, sp, #108
 5201 0014 00C0A0E3 		mov	ip, #0
 5202 0018 94308DE5 		str	r3, [sp, #148]
 5203 001c 143295E5 		ldr	r3, [r5, #532]
 5204 0020 18008DE5 		str	r0, [sp, #24]
 5205 0024 30008DE2 		add	r0, sp, #48
 5206 0028 060080E8 		stm	r0, {r1, r2}
 5207 002c 0C10A0E1 		mov	r1, ip
 5208 0030 24308DE5 		str	r3, [sp, #36]
 5209 0034 013083E2 		add	r3, r3, #1
 5210 0038 000095E5 		ldr	r0, [r5]
 5211 003c 34409DE5 		ldr	r4, [sp, #52]
 5212 0040 100BCDED 		vstr	d16, [sp, #64]
 5213 0044 121BCDED 		vstr	d17, [sp, #72]
 5214 0048 60C08DE5 		str	ip, [sp, #96]
 5215 004c 140BCDED 		vstr	d16, [sp, #80]
 5216 0050 161BCDED 		vstr	d17, [sp, #88]
 5217 0054 1C308DE5 		str	r3, [sp, #28]
 5218 0058 64C08DE5 		str	ip, [sp, #100]
 5219 005c FEFFFFEB 		bl	_ZN6tflite12CreateBufferERN11flatbuffers17FlatBufferBuilderENS0_6OffsetINS0_6VectorIhEEEE
 5220 0060 142295E5 		ldr	r2, [r5, #532]
 5221 0064 40008DE5 		str	r0, [sp, #64]
 5222 0068 000052E3 		cmp	r2, #0
 5223 006c 040000DA 		ble	.L1084
 5224 0070 18309DE5 		ldr	r3, [sp, #24]
 5225 0074 0221A0E1 		lsl	r2, r2, #2
 5226 0078 44008DE2 		add	r0, sp, #68
 5227 007c 7B1F83E2 		add	r1, r3, #492
 5228 0080 FEFFFFEB 		bl	memcpy
 5229              	.L1084:
 5230 0084 9C309DE5 		ldr	r3, [sp, #156]
 5231 0088 000053E3 		cmp	r3, #0
 5232 008c 8902000A 		beq	.L1310
 5233 0090 030054E1 		cmp	r4, r3
 5234 0094 C802003A 		bcc	.L1311
 5235 0098 18309DE5 		ldr	r3, [sp, #24]
 5236 009c 0370A0E1 		mov	r7, r3
 5237 00a0 18A293E5 		ldr	r10, [r3, #536]
 5238 00a4 FCB097E4 		ldr	fp, [r7], #252
 5239 00a8 0A10A0E1 		mov	r1, r10
 5240 00ac 0B00A0E1 		mov	r0, fp
 5241 00b0 FEFFFFEB 		bl	_ZN11flatbuffers17FlatBufferBuilder11StartVectorEjj.constprop.148
 5242 00b4 00005AE3 		cmp	r10, #0
 5243 00b8 A202000A 		beq	.L1312
 5244              	.L1144:
 5245 00bc 18209BE5 		ldr	r2, [fp, #24]
 5246 00c0 0A7187E0 		add	r7, r7, r10, lsl #2
 5247 00c4 0A60A0E1 		mov	r6, r10
 5248 00c8 0480A0E3 		mov	r8, #4
 5249 00cc 0050A0E3 		mov	r5, #0
 5250              	.L1093:
 5251 00d0 28309BE5 		ldr	r3, [fp, #40]
 5252 00d4 0B00A0E1 		mov	r0, fp
 5253 00d8 14409BE5 		ldr	r4, [fp, #20]
 5254 00dc 016046E2 		sub	r6, r6, #1
 5255 00e0 049037E5 		ldr	r9, [r7, #-4]!
 5256 00e4 030053E3 		cmp	r3, #3
 5257 00e8 10309BE5 		ldr	r3, [fp, #16]
 5258 00ec 044042E0 		sub	r4, r2, r4
 5259 00f0 28808B95 		strls	r8, [fp, #40]
 5260 00f4 034044E0 		sub	r4, r4, r3
 5261 00f8 034004E2 		and	r4, r4, #3
 5262 00fc 0410A0E1 		mov	r1, r4
 5263 0100 FEFFFFEB 		bl	_ZN11flatbuffers15vector_downward12ensure_spaceEj
 5264 0104 18309BE5 		ldr	r3, [fp, #24]
 5265 0108 000054E3 		cmp	r4, #0
 5266 010c 000043E0 		sub	r0, r3, r0
 5267 0110 18008BE5 		str	r0, [fp, #24]
 5268 0114 0700000A 		beq	.L1088
 5269 0118 010054E3 		cmp	r4, #1
 5270 011c 0050C0E5 		strb	r5, [r0]
 5271 0120 0400000A 		beq	.L1088
 5272 0124 18309BE5 		ldr	r3, [fp, #24]
 5273 0128 020054E3 		cmp	r4, #2
 5274 012c 0150C3E5 		strb	r5, [r3, #1]
 5275 0130 18309B15 		ldrne	r3, [fp, #24]
 5276 0134 0250C315 		strbne	r5, [r3, #2]
 5277              	.L1088:
 5278 0138 000059E3 		cmp	r9, #0
 5279 013c 8D02000A 		beq	.L1090
 5280 0140 18309BE5 		ldr	r3, [fp, #24]
 5281 0144 14209BE5 		ldr	r2, [fp, #20]
 5282 0148 10409BE5 		ldr	r4, [fp, #16]
 5283 014c 023043E0 		sub	r3, r3, r2
 5284 0150 034044E0 		sub	r4, r4, r3
 5285 0154 090054E1 		cmp	r4, r9
 5286 0158 8602003A 		bcc	.L1090
 5287 015c 28309BE5 		ldr	r3, [fp, #40]
 5288 0160 049069E2 		rsb	r9, r9, #4
 5289 0164 049089E0 		add	r9, r9, r4
 5290 0168 004064E2 		rsb	r4, r4, #0
 5291 016c 034004E2 		and	r4, r4, #3
 5292 0170 0B00A0E1 		mov	r0, fp
 5293 0174 030053E3 		cmp	r3, #3
 5294 0178 0410A0E1 		mov	r1, r4
 5295 017c 28808B95 		strls	r8, [fp, #40]
 5296 0180 FEFFFFEB 		bl	_ZN11flatbuffers15vector_downward12ensure_spaceEj
 5297 0184 18309BE5 		ldr	r3, [fp, #24]
 5298 0188 000054E3 		cmp	r4, #0
 5299 018c 000043E0 		sub	r0, r3, r0
 5300 0190 18008BE5 		str	r0, [fp, #24]
 5301 0194 0700000A 		beq	.L1092
 5302 0198 010054E3 		cmp	r4, #1
 5303 019c 0050C0E5 		strb	r5, [r0]
 5304 01a0 0400000A 		beq	.L1092
 5305 01a4 18309BE5 		ldr	r3, [fp, #24]
 5306 01a8 020054E3 		cmp	r4, #2
 5307 01ac 0150C3E5 		strb	r5, [r3, #1]
 5308 01b0 18309B15 		ldrne	r3, [fp, #24]
 5309 01b4 0250C315 		strbne	r5, [r3, #2]
 5310              	.L1092:
 5311 01b8 0410A0E3 		mov	r1, #4
 5312 01bc 0B00A0E1 		mov	r0, fp
 5313 01c0 FEFFFFEB 		bl	_ZN11flatbuffers15vector_downward12ensure_spaceEj
 5314 01c4 18209BE5 		ldr	r2, [fp, #24]
 5315 01c8 000056E3 		cmp	r6, #0
 5316 01cc 002042E0 		sub	r2, r2, r0
 5317 01d0 18208BE5 		str	r2, [fp, #24]
 5318 01d4 009082E5 		str	r9, [r2]
 5319 01d8 BCFFFF1A 		bne	.L1093
 5320              	.L1086:
 5321 01dc 0A10A0E1 		mov	r1, r10
 5322 01e0 0B00A0E1 		mov	r0, fp
 5323 01e4 FEFFFFEB 		bl	_ZN11flatbuffers17FlatBufferBuilder9EndVectorEj
 5324 01e8 18309DE5 		ldr	r3, [sp, #24]
 5325 01ec 20008DE5 		str	r0, [sp, #32]
 5326 01f0 9C109DE5 		ldr	r1, [sp, #156]
 5327 01f4 004093E5 		ldr	r4, [r3]
 5328 01f8 30509DE5 		ldr	r5, [sp, #48]
 5329 01fc 0400A0E1 		mov	r0, r4
 5330 0200 FEFFFFEB 		bl	_ZN11flatbuffers17FlatBufferBuilder11StartVectorEjj.constprop.148
 5331 0204 9C309DE5 		ldr	r3, [sp, #156]
 5332 0208 000053E3 		cmp	r3, #0
 5333 020c 4802000A 		beq	.L1313
 5334              	.L1094:
 5335 0210 0361B0E1 		lsls	r6, r3, #2
 5336 0214 3C02001A 		bne	.L1314
 5337              	.L1096:
 5338 0218 9C109DE5 		ldr	r1, [sp, #156]
 5339 021c 0400A0E1 		mov	r0, r4
 5340 0220 FEFFFFEB 		bl	_ZN11flatbuffers17FlatBufferBuilder9EndVectorEj
 5341 0224 2C008DE5 		str	r0, [sp, #44]
 5342              	.L1095:
 5343 0228 18309DE5 		ldr	r3, [sp, #24]
 5344 022c 98409DE5 		ldr	r4, [sp, #152]
 5345 0230 94609DE5 		ldr	r6, [sp, #148]
 5346 0234 005093E5 		ldr	r5, [r3]
 5347 0238 0410A0E1 		mov	r1, r4
 5348 023c 0500A0E1 		mov	r0, r5
 5349 0240 FEFFFFEB 		bl	_ZN11flatbuffers17FlatBufferBuilder11StartVectorEjj.constprop.148
 5350 0244 000054E3 		cmp	r4, #0
 5351 0248 0100000A 		beq	.L1099
 5352 024c 0471B0E1 		lsls	r7, r4, #2
 5353 0250 2302001A 		bne	.L1315
 5354              	.L1099:
 5355 0254 0410A0E1 		mov	r1, r4
 5356 0258 0500A0E1 		mov	r0, r5
 5357 025c FEFFFFEB 		bl	_ZN11flatbuffers17FlatBufferBuilder9EndVectorEj
 5358 0260 18309DE5 		ldr	r3, [sp, #24]
 5359 0264 28008DE5 		str	r0, [sp, #40]
 5360 0268 0370A0E1 		mov	r7, r3
 5361 026c F89093E5 		ldr	r9, [r3, #248]
 5362 0270 30A097E4 		ldr	r10, [r7], #48
 5363 0274 0910A0E1 		mov	r1, r9
 5364 0278 0A00A0E1 		mov	r0, r10
 5365 027c FEFFFFEB 		bl	_ZN11flatbuffers17FlatBufferBuilder11StartVectorEjj.constprop.148
 5366 0280 000059E3 		cmp	r9, #0
 5367 0284 4700000A 		beq	.L1107
 5368 0288 18309AE5 		ldr	r3, [r10, #24]
 5369 028c 097187E0 		add	r7, r7, r9, lsl #2
 5370 0290 0960A0E1 		mov	r6, r9
 5371 0294 0480A0E3 		mov	r8, #4
 5372 0298 0050A0E3 		mov	r5, #0
 5373              	.L1108:
 5374 029c 28209AE5 		ldr	r2, [r10, #40]
 5375 02a0 0A00A0E1 		mov	r0, r10
 5376 02a4 14409AE5 		ldr	r4, [r10, #20]
 5377 02a8 016046E2 		sub	r6, r6, #1
 5378 02ac 04B037E5 		ldr	fp, [r7, #-4]!
 5379 02b0 030052E3 		cmp	r2, #3
 5380 02b4 10209AE5 		ldr	r2, [r10, #16]
 5381 02b8 044043E0 		sub	r4, r3, r4
 5382 02bc 28808A95 		strls	r8, [r10, #40]
 5383 02c0 024044E0 		sub	r4, r4, r2
 5384 02c4 034004E2 		and	r4, r4, #3
 5385 02c8 0410A0E1 		mov	r1, r4
 5386 02cc FEFFFFEB 		bl	_ZN11flatbuffers15vector_downward12ensure_spaceEj
 5387 02d0 18309AE5 		ldr	r3, [r10, #24]
 5388 02d4 000054E3 		cmp	r4, #0
 5389 02d8 000043E0 		sub	r0, r3, r0
 5390 02dc 18008AE5 		str	r0, [r10, #24]
 5391 02e0 0700000A 		beq	.L1104
 5392 02e4 010054E3 		cmp	r4, #1
 5393 02e8 0050C0E5 		strb	r5, [r0]
 5394 02ec 0400000A 		beq	.L1104
 5395 02f0 18309AE5 		ldr	r3, [r10, #24]
 5396 02f4 020054E3 		cmp	r4, #2
 5397 02f8 0150C3E5 		strb	r5, [r3, #1]
 5398 02fc 18309A15 		ldrne	r3, [r10, #24]
 5399 0300 0250C315 		strbne	r5, [r3, #2]
 5400              	.L1104:
 5401 0304 00005BE3 		cmp	fp, #0
 5402 0308 1A02000A 		beq	.L1090
 5403 030c 18309AE5 		ldr	r3, [r10, #24]
 5404 0310 14209AE5 		ldr	r2, [r10, #20]
 5405 0314 10409AE5 		ldr	r4, [r10, #16]
 5406 0318 023043E0 		sub	r3, r3, r2
 5407 031c 034044E0 		sub	r4, r4, r3
 5408 0320 0B0054E1 		cmp	r4, fp
 5409 0324 1302003A 		bcc	.L1090
 5410 0328 28309AE5 		ldr	r3, [r10, #40]
 5411 032c 04B06BE2 		rsb	fp, fp, #4
 5412 0330 04B08BE0 		add	fp, fp, r4
 5413 0334 004064E2 		rsb	r4, r4, #0
 5414 0338 034004E2 		and	r4, r4, #3
 5415 033c 0A00A0E1 		mov	r0, r10
 5416 0340 030053E3 		cmp	r3, #3
 5417 0344 0410A0E1 		mov	r1, r4
 5418 0348 28808A95 		strls	r8, [r10, #40]
 5419 034c FEFFFFEB 		bl	_ZN11flatbuffers15vector_downward12ensure_spaceEj
 5420 0350 18309AE5 		ldr	r3, [r10, #24]
 5421 0354 000054E3 		cmp	r4, #0
 5422 0358 000043E0 		sub	r0, r3, r0
 5423 035c 18008AE5 		str	r0, [r10, #24]
 5424 0360 0700000A 		beq	.L1106
 5425 0364 010054E3 		cmp	r4, #1
 5426 0368 0050C0E5 		strb	r5, [r0]
 5427 036c 0400000A 		beq	.L1106
 5428 0370 18309AE5 		ldr	r3, [r10, #24]
 5429 0374 020054E3 		cmp	r4, #2
 5430 0378 0150C3E5 		strb	r5, [r3, #1]
 5431 037c 18309A15 		ldrne	r3, [r10, #24]
 5432 0380 0250C315 		strbne	r5, [r3, #2]
 5433              	.L1106:
 5434 0384 0410A0E3 		mov	r1, #4
 5435 0388 0A00A0E1 		mov	r0, r10
 5436 038c FEFFFFEB 		bl	_ZN11flatbuffers15vector_downward12ensure_spaceEj
 5437 0390 18309AE5 		ldr	r3, [r10, #24]
 5438 0394 000056E3 		cmp	r6, #0
 5439 0398 003043E0 		sub	r3, r3, r0
 5440 039c 18308AE5 		str	r3, [r10, #24]
 5441 03a0 00B083E5 		str	fp, [r3]
 5442 03a4 BCFFFF1A 		bne	.L1108
 5443              	.L1107:
 5444 03a8 0910A0E1 		mov	r1, r9
 5445 03ac 0A00A0E1 		mov	r0, r10
 5446 03b0 FEFFFFEB 		bl	_ZN11flatbuffers17FlatBufferBuilder9EndVectorEj
 5447 03b4 18609DE5 		ldr	r6, [sp, #24]
 5448 03b8 001000E3 		movw	r1, #:lower16:.LC32
 5449 03bc 0050A0E1 		mov	r5, r0
 5450 03c0 001040E3 		movt	r1, #:upper16:.LC32
 5451 03c4 0D20A0E3 		mov	r2, #13
 5452 03c8 004096E5 		ldr	r4, [r6]
 5453 03cc 0400A0E1 		mov	r0, r4
 5454 03d0 FEFFFFEB 		bl	_ZN11flatbuffers17FlatBufferBuilder12CreateStringEPKcj
 5455 03d4 28309DE5 		ldr	r3, [sp, #40]
 5456 03d8 04008DE5 		str	r0, [sp, #4]
 5457 03dc 0400A0E1 		mov	r0, r4
 5458 03e0 00508DE5 		str	r5, [sp]
 5459 03e4 2C209DE5 		ldr	r2, [sp, #44]
 5460 03e8 20109DE5 		ldr	r1, [sp, #32]
 5461 03ec FEFFFFEB 		bl	_ZN6tflite14CreateSubGraphERN11flatbuffers17FlatBufferBuilderENS0_6OffsetINS0_6VectorINS3_INS_6
 5462 03f0 143296E5 		ldr	r3, [r6, #532]
 5463 03f4 3C008DE5 		str	r0, [sp, #60]
 5464 03f8 000053E3 		cmp	r3, #0
 5465 03fc 250100DA 		ble	.L1316
 5466 0400 18309DE5 		ldr	r3, [sp, #24]
 5467 0404 0370A0E1 		mov	r7, r3
 5468 0408 2C9093E5 		ldr	r9, [r3, #44]
 5469 040c 04A097E4 		ldr	r10, [r7], #4
 5470 0410 0910A0E1 		mov	r1, r9
 5471 0414 0A00A0E1 		mov	r0, r10
 5472 0418 FEFFFFEB 		bl	_ZN11flatbuffers17FlatBufferBuilder11StartVectorEjj.constprop.148
 5473 041c 000059E3 		cmp	r9, #0
 5474 0420 4700000A 		beq	.L1116
 5475 0424 18309AE5 		ldr	r3, [r10, #24]
 5476 0428 097187E0 		add	r7, r7, r9, lsl #2
 5477 042c 0960A0E1 		mov	r6, r9
 5478 0430 0480A0E3 		mov	r8, #4
 5479 0434 0050A0E3 		mov	r5, #0
 5480              	.L1117:
 5481 0438 28209AE5 		ldr	r2, [r10, #40]
 5482 043c 0A00A0E1 		mov	r0, r10
 5483 0440 14409AE5 		ldr	r4, [r10, #20]
 5484 0444 016046E2 		sub	r6, r6, #1
 5485 0448 04B037E5 		ldr	fp, [r7, #-4]!
 5486 044c 030052E3 		cmp	r2, #3
 5487 0450 10209AE5 		ldr	r2, [r10, #16]
 5488 0454 044043E0 		sub	r4, r3, r4
 5489 0458 28808A95 		strls	r8, [r10, #40]
 5490 045c 024044E0 		sub	r4, r4, r2
 5491 0460 034004E2 		and	r4, r4, #3
 5492 0464 0410A0E1 		mov	r1, r4
 5493 0468 FEFFFFEB 		bl	_ZN11flatbuffers15vector_downward12ensure_spaceEj
 5494 046c 18309AE5 		ldr	r3, [r10, #24]
 5495 0470 000054E3 		cmp	r4, #0
 5496 0474 000043E0 		sub	r0, r3, r0
 5497 0478 18008AE5 		str	r0, [r10, #24]
 5498 047c 0700000A 		beq	.L1113
 5499 0480 010054E3 		cmp	r4, #1
 5500 0484 0050C0E5 		strb	r5, [r0]
 5501 0488 0400000A 		beq	.L1113
 5502 048c 18309AE5 		ldr	r3, [r10, #24]
 5503 0490 020054E3 		cmp	r4, #2
 5504 0494 0150C3E5 		strb	r5, [r3, #1]
 5505 0498 18309A15 		ldrne	r3, [r10, #24]
 5506 049c 0250C315 		strbne	r5, [r3, #2]
 5507              	.L1113:
 5508 04a0 00005BE3 		cmp	fp, #0
 5509 04a4 B301000A 		beq	.L1090
 5510 04a8 18209AE5 		ldr	r2, [r10, #24]
 5511 04ac 14109AE5 		ldr	r1, [r10, #20]
 5512 04b0 10309AE5 		ldr	r3, [r10, #16]
 5513 04b4 012042E0 		sub	r2, r2, r1
 5514 04b8 023043E0 		sub	r3, r3, r2
 5515 04bc 0B0053E1 		cmp	r3, fp
 5516 04c0 AC01003A 		bcc	.L1090
 5517 04c4 28209AE5 		ldr	r2, [r10, #40]
 5518 04c8 04406BE2 		rsb	r4, fp, #4
 5519 04cc 00B063E2 		rsb	fp, r3, #0
 5520 04d0 0A00A0E1 		mov	r0, r10
 5521 04d4 03B00BE2 		and	fp, fp, #3
 5522 04d8 034084E0 		add	r4, r4, r3
 5523 04dc 030052E3 		cmp	r2, #3
 5524 04e0 0B10A0E1 		mov	r1, fp
 5525 04e4 28808A95 		strls	r8, [r10, #40]
 5526 04e8 FEFFFFEB 		bl	_ZN11flatbuffers15vector_downward12ensure_spaceEj
 5527 04ec 18309AE5 		ldr	r3, [r10, #24]
 5528 04f0 00005BE3 		cmp	fp, #0
 5529 04f4 000043E0 		sub	r0, r3, r0
 5530 04f8 18008AE5 		str	r0, [r10, #24]
 5531 04fc 0700000A 		beq	.L1115
 5532 0500 01005BE3 		cmp	fp, #1
 5533 0504 0050C0E5 		strb	r5, [r0]
 5534 0508 0400000A 		beq	.L1115
 5535 050c 18309AE5 		ldr	r3, [r10, #24]
 5536 0510 02005BE3 		cmp	fp, #2
 5537 0514 0150C3E5 		strb	r5, [r3, #1]
 5538 0518 18309A15 		ldrne	r3, [r10, #24]
 5539 051c 0250C315 		strbne	r5, [r3, #2]
 5540              	.L1115:
 5541 0520 0410A0E3 		mov	r1, #4
 5542 0524 0A00A0E1 		mov	r0, r10
 5543 0528 FEFFFFEB 		bl	_ZN11flatbuffers15vector_downward12ensure_spaceEj
 5544 052c 18309AE5 		ldr	r3, [r10, #24]
 5545 0530 000056E3 		cmp	r6, #0
 5546 0534 003043E0 		sub	r3, r3, r0
 5547 0538 18308AE5 		str	r3, [r10, #24]
 5548 053c 004083E5 		str	r4, [r3]
 5549 0540 BCFFFF1A 		bne	.L1117
 5550              	.L1116:
 5551 0544 0910A0E1 		mov	r1, r9
 5552 0548 0A00A0E1 		mov	r0, r10
 5553 054c FEFFFFEB 		bl	_ZN11flatbuffers17FlatBufferBuilder9EndVectorEj
 5554 0550 18409DE5 		ldr	r4, [sp, #24]
 5555 0554 3C108DE2 		add	r1, sp, #60
 5556 0558 2C008DE5 		str	r0, [sp, #44]
 5557 055c 000094E5 		ldr	r0, [r4]
 5558 0560 FEFFFFEB 		bl	_ZN11flatbuffers17FlatBufferBuilder12CreateVectorIN6tflite8SubGraphEEENS_6OffsetINS_6VectorINS4
 5559 0564 001000E3 		movw	r1, #:lower16:.LC33
 5560 0568 28008DE5 		str	r0, [sp, #40]
 5561 056c 0B20A0E3 		mov	r2, #11
 5562 0570 000094E5 		ldr	r0, [r4]
 5563 0574 001040E3 		movt	r1, #:upper16:.LC33
 5564 0578 FEFFFFEB 		bl	_ZN11flatbuffers17FlatBufferBuilder12CreateStringEPKcj
 5565 057c 009094E5 		ldr	r9, [r4]
 5566 0580 1C409DE5 		ldr	r4, [sp, #28]
 5567 0584 20008DE5 		str	r0, [sp, #32]
 5568 0588 0900A0E1 		mov	r0, r9
 5569 058c 0410A0E1 		mov	r1, r4
 5570 0590 FEFFFFEB 		bl	_ZN11flatbuffers17FlatBufferBuilder11StartVectorEjj.constprop.148
 5571 0594 000054E3 		cmp	r4, #0
 5572 0598 4900000A 		beq	.L1110
 5573 059c 24109DE5 		ldr	r1, [sp, #36]
 5574 05a0 40208DE2 		add	r2, sp, #64
 5575 05a4 183099E5 		ldr	r3, [r9, #24]
 5576 05a8 0480A0E3 		mov	r8, #4
 5577 05ac 1C609DE5 		ldr	r6, [sp, #28]
 5578 05b0 0050A0E3 		mov	r5, #0
 5579 05b4 017182E0 		add	r7, r2, r1, lsl #2
 5580              	.L1124:
 5581 05b8 282099E5 		ldr	r2, [r9, #40]
 5582 05bc 0900A0E1 		mov	r0, r9
 5583 05c0 144099E5 		ldr	r4, [r9, #20]
 5584 05c4 016046E2 		sub	r6, r6, #1
 5585 05c8 04B017E4 		ldr	fp, [r7], #-4
 5586 05cc 030052E3 		cmp	r2, #3
 5587 05d0 102099E5 		ldr	r2, [r9, #16]
 5588 05d4 044043E0 		sub	r4, r3, r4
 5589 05d8 28808995 		strls	r8, [r9, #40]
 5590 05dc 024044E0 		sub	r4, r4, r2
 5591 05e0 034004E2 		and	r4, r4, #3
 5592 05e4 0410A0E1 		mov	r1, r4
 5593 05e8 FEFFFFEB 		bl	_ZN11flatbuffers15vector_downward12ensure_spaceEj
 5594 05ec 183099E5 		ldr	r3, [r9, #24]
 5595 05f0 000054E3 		cmp	r4, #0
 5596 05f4 000043E0 		sub	r0, r3, r0
 5597 05f8 180089E5 		str	r0, [r9, #24]
 5598 05fc 0700000A 		beq	.L1121
 5599 0600 010054E3 		cmp	r4, #1
 5600 0604 0050C0E5 		strb	r5, [r0]
 5601 0608 0400000A 		beq	.L1121
 5602 060c 183099E5 		ldr	r3, [r9, #24]
 5603 0610 020054E3 		cmp	r4, #2
 5604 0614 0150C3E5 		strb	r5, [r3, #1]
 5605 0618 18309915 		ldrne	r3, [r9, #24]
 5606 061c 0250C315 		strbne	r5, [r3, #2]
 5607              	.L1121:
 5608 0620 00005BE3 		cmp	fp, #0
 5609 0624 5301000A 		beq	.L1090
 5610 0628 183099E5 		ldr	r3, [r9, #24]
 5611 062c 142099E5 		ldr	r2, [r9, #20]
 5612 0630 10A099E5 		ldr	r10, [r9, #16]
 5613 0634 023043E0 		sub	r3, r3, r2
 5614 0638 03A04AE0 		sub	r10, r10, r3
 5615 063c 0B005AE1 		cmp	r10, fp
 5616 0640 4C01003A 		bcc	.L1090
 5617 0644 283099E5 		ldr	r3, [r9, #40]
 5618 0648 04408AE2 		add	r4, r10, #4
 5619 064c 00A06AE2 		rsb	r10, r10, #0
 5620 0650 0900A0E1 		mov	r0, r9
 5621 0654 03A00AE2 		and	r10, r10, #3
 5622 0658 0B4044E0 		sub	r4, r4, fp
 5623 065c 030053E3 		cmp	r3, #3
 5624 0660 0A10A0E1 		mov	r1, r10
 5625 0664 28808995 		strls	r8, [r9, #40]
 5626 0668 FEFFFFEB 		bl	_ZN11flatbuffers15vector_downward12ensure_spaceEj
 5627 066c 183099E5 		ldr	r3, [r9, #24]
 5628 0670 00005AE3 		cmp	r10, #0
 5629 0674 000043E0 		sub	r0, r3, r0
 5630 0678 180089E5 		str	r0, [r9, #24]
 5631 067c 0700000A 		beq	.L1123
 5632 0680 01005AE3 		cmp	r10, #1
 5633 0684 0050C0E5 		strb	r5, [r0]
 5634 0688 0400000A 		beq	.L1123
 5635 068c 183099E5 		ldr	r3, [r9, #24]
 5636 0690 02005AE3 		cmp	r10, #2
 5637 0694 0150C3E5 		strb	r5, [r3, #1]
 5638 0698 18309915 		ldrne	r3, [r9, #24]
 5639 069c 0250C315 		strbne	r5, [r3, #2]
 5640              	.L1123:
 5641 06a0 0410A0E3 		mov	r1, #4
 5642 06a4 0900A0E1 		mov	r0, r9
 5643 06a8 FEFFFFEB 		bl	_ZN11flatbuffers15vector_downward12ensure_spaceEj
 5644 06ac 183099E5 		ldr	r3, [r9, #24]
 5645 06b0 000056E3 		cmp	r6, #0
 5646 06b4 003043E0 		sub	r3, r3, r0
 5647 06b8 183089E5 		str	r3, [r9, #24]
 5648 06bc 004083E5 		str	r4, [r3]
 5649 06c0 BCFFFF1A 		bne	.L1124
 5650              	.L1110:
 5651 06c4 18509DE5 		ldr	r5, [sp, #24]
 5652 06c8 0900A0E1 		mov	r0, r9
 5653 06cc 1C109DE5 		ldr	r1, [sp, #28]
 5654 06d0 FEFFFFEB 		bl	_ZN11flatbuffers17FlatBufferBuilder9EndVectorEj
 5655 06d4 0580A0E1 		mov	r8, r5
 5656 06d8 14A295E5 		ldr	r10, [r5, #532]
 5657 06dc C44198E4 		ldr	r4, [r8], #452
 5658 06e0 1C008DE5 		str	r0, [sp, #28]
 5659 06e4 0A10A0E1 		mov	r1, r10
 5660 06e8 0400A0E1 		mov	r0, r4
 5661 06ec FEFFFFEB 		bl	_ZN11flatbuffers17FlatBufferBuilder11StartVectorEjj.constprop.148
 5662 06f0 00005AE3 		cmp	r10, #0
 5663 06f4 4700000A 		beq	.L1118
 5664 06f8 183094E5 		ldr	r3, [r4, #24]
 5665 06fc 0A8188E0 		add	r8, r8, r10, lsl #2
 5666 0700 0A70A0E1 		mov	r7, r10
 5667 0704 0490A0E3 		mov	r9, #4
 5668 0708 0060A0E3 		mov	r6, #0
 5669              	.L1130:
 5670 070c 282094E5 		ldr	r2, [r4, #40]
 5671 0710 0400A0E1 		mov	r0, r4
 5672 0714 145094E5 		ldr	r5, [r4, #20]
 5673 0718 017047E2 		sub	r7, r7, #1
 5674 071c 04B038E5 		ldr	fp, [r8, #-4]!
 5675 0720 030052E3 		cmp	r2, #3
 5676 0724 102094E5 		ldr	r2, [r4, #16]
 5677 0728 055043E0 		sub	r5, r3, r5
 5678 072c 28908495 		strls	r9, [r4, #40]
 5679 0730 025045E0 		sub	r5, r5, r2
 5680 0734 035005E2 		and	r5, r5, #3
 5681 0738 0510A0E1 		mov	r1, r5
 5682 073c FEFFFFEB 		bl	_ZN11flatbuffers15vector_downward12ensure_spaceEj
 5683 0740 183094E5 		ldr	r3, [r4, #24]
 5684 0744 000055E3 		cmp	r5, #0
 5685 0748 000043E0 		sub	r0, r3, r0
 5686 074c 180084E5 		str	r0, [r4, #24]
 5687 0750 0700000A 		beq	.L1127
 5688 0754 010055E3 		cmp	r5, #1
 5689 0758 0060C0E5 		strb	r6, [r0]
 5690 075c 0400000A 		beq	.L1127
 5691 0760 183094E5 		ldr	r3, [r4, #24]
 5692 0764 020055E3 		cmp	r5, #2
 5693 0768 0160C3E5 		strb	r6, [r3, #1]
 5694 076c 18309415 		ldrne	r3, [r4, #24]
 5695 0770 0260C315 		strbne	r6, [r3, #2]
 5696              	.L1127:
 5697 0774 00005BE3 		cmp	fp, #0
 5698 0778 FE00000A 		beq	.L1090
 5699 077c 182094E5 		ldr	r2, [r4, #24]
 5700 0780 141094E5 		ldr	r1, [r4, #20]
 5701 0784 103094E5 		ldr	r3, [r4, #16]
 5702 0788 012042E0 		sub	r2, r2, r1
 5703 078c 023043E0 		sub	r3, r3, r2
 5704 0790 0B0053E1 		cmp	r3, fp
 5705 0794 F700003A 		bcc	.L1090
 5706 0798 282094E5 		ldr	r2, [r4, #40]
 5707 079c 04506BE2 		rsb	r5, fp, #4
 5708 07a0 00B063E2 		rsb	fp, r3, #0
 5709 07a4 0400A0E1 		mov	r0, r4
 5710 07a8 03B00BE2 		and	fp, fp, #3
 5711 07ac 035085E0 		add	r5, r5, r3
 5712 07b0 030052E3 		cmp	r2, #3
 5713 07b4 0B10A0E1 		mov	r1, fp
 5714 07b8 28908495 		strls	r9, [r4, #40]
 5715 07bc FEFFFFEB 		bl	_ZN11flatbuffers15vector_downward12ensure_spaceEj
 5716 07c0 183094E5 		ldr	r3, [r4, #24]
 5717 07c4 00005BE3 		cmp	fp, #0
 5718 07c8 000043E0 		sub	r0, r3, r0
 5719 07cc 180084E5 		str	r0, [r4, #24]
 5720 07d0 0700000A 		beq	.L1129
 5721 07d4 01005BE3 		cmp	fp, #1
 5722 07d8 0060C0E5 		strb	r6, [r0]
 5723 07dc 0400000A 		beq	.L1129
 5724 07e0 183094E5 		ldr	r3, [r4, #24]
 5725 07e4 02005BE3 		cmp	fp, #2
 5726 07e8 0160C3E5 		strb	r6, [r3, #1]
 5727 07ec 18309415 		ldrne	r3, [r4, #24]
 5728 07f0 0260C315 		strbne	r6, [r3, #2]
 5729              	.L1129:
 5730 07f4 0410A0E3 		mov	r1, #4
 5731 07f8 0400A0E1 		mov	r0, r4
 5732 07fc FEFFFFEB 		bl	_ZN11flatbuffers15vector_downward12ensure_spaceEj
 5733 0800 183094E5 		ldr	r3, [r4, #24]
 5734 0804 000057E3 		cmp	r7, #0
 5735 0808 003043E0 		sub	r3, r3, r0
 5736 080c 183084E5 		str	r3, [r4, #24]
 5737 0810 005083E5 		str	r5, [r3]
 5738 0814 BCFFFF1A 		bne	.L1130
 5739              	.L1118:
 5740 0818 0A10A0E1 		mov	r1, r10
 5741 081c 0400A0E1 		mov	r0, r4
 5742 0820 FEFFFFEB 		bl	_ZN11flatbuffers17FlatBufferBuilder9EndVectorEj
 5743 0824 1C209DE5 		ldr	r2, [sp, #28]
 5744 0828 0010A0E3 		mov	r1, #0
 5745 082c 0C008DE5 		str	r0, [sp, #12]
 5746 0830 20009DE5 		ldr	r0, [sp, #32]
 5747 0834 08108DE5 		str	r1, [sp, #8]
 5748 0838 04208DE5 		str	r2, [sp, #4]
 5749 083c 00008DE5 		str	r0, [sp]
 5750 0840 0400A0E1 		mov	r0, r4
 5751 0844 10108DE5 		str	r1, [sp, #16]
 5752 0848 28309DE5 		ldr	r3, [sp, #40]
 5753 084c 2C209DE5 		ldr	r2, [sp, #44]
 5754 0850 FEFFFFEB 		bl	_ZN6tflite11CreateModelERN11flatbuffers17FlatBufferBuilderEmNS0_6OffsetINS0_6VectorINS3_INS_12O
 5755 0854 0010A0E1 		mov	r1, r0
 5756              	.L1125:
 5757 0858 18409DE5 		ldr	r4, [sp, #24]
 5758 085c 000094E5 		ldr	r0, [r4]
 5759 0860 FEFFFFEB 		bl	_ZN11flatbuffers17FlatBufferBuilder6FinishEmPKcb.constprop.146
 5760 0864 003094E5 		ldr	r3, [r4]
 5761 0868 2720D3E5 		ldrb	r2, [r3, #39]	@ zero_extendqisi2
 5762 086c 000052E3 		cmp	r2, #0
 5763 0870 C900000A 		beq	.L1317
 5764 0874 183093E5 		ldr	r3, [r3, #24]
 5765 0878 000053E3 		cmp	r3, #0
 5766 087c C500000A 		beq	.L1318
 5767 0880 000093E5 		ldr	r0, [r3]
 5768 0884 000083E0 		add	r0, r3, r0
 5769 0888 6CD08DE2 		add	sp, sp, #108
 5770              		@ sp needed
 5771 088c F04FBDE8 		pop	{r4, r5, r6, r7, r8, r9, r10, fp, lr}
 5772 0890 08D08DE2 		add	sp, sp, #8
 5773 0894 1EFF2FE1 		bx	lr
 5774              	.L1316:
 5775 0898 18309DE5 		ldr	r3, [sp, #24]
 5776 089c 0360A0E1 		mov	r6, r3
 5777 08a0 2C9093E5 		ldr	r9, [r3, #44]
 5778 08a4 04B096E4 		ldr	fp, [r6], #4
 5779 08a8 0910A0E1 		mov	r1, r9
 5780 08ac 0B00A0E1 		mov	r0, fp
 5781 08b0 FEFFFFEB 		bl	_ZN11flatbuffers17FlatBufferBuilder11StartVectorEjj.constprop.148
 5782 08b4 000059E3 		cmp	r9, #0
 5783 08b8 2A00000A 		beq	.L1136
 5784 08bc 096186E0 		add	r6, r6, r9, lsl #2
 5785 08c0 0940A0E1 		mov	r4, r9
 5786 08c4 0480A0E3 		mov	r8, #4
 5787 08c8 0050A0E3 		mov	r5, #0
 5788              	.L1137:
 5789 08cc 041036E5 		ldr	r1, [r6, #-4]!
 5790 08d0 0B00A0E1 		mov	r0, fp
 5791 08d4 FEFFFFEB 		bl	_ZN11flatbuffers17FlatBufferBuilder7ReferToEm
 5792 08d8 28309BE5 		ldr	r3, [fp, #40]
 5793 08dc 00A0A0E1 		mov	r10, r0
 5794 08e0 18709BE5 		ldr	r7, [fp, #24]
 5795 08e4 0B00A0E1 		mov	r0, fp
 5796 08e8 14209BE5 		ldr	r2, [fp, #20]
 5797 08ec 014044E2 		sub	r4, r4, #1
 5798 08f0 030053E3 		cmp	r3, #3
 5799 08f4 10309BE5 		ldr	r3, [fp, #16]
 5800 08f8 28808B95 		strls	r8, [fp, #40]
 5801 08fc 027047E0 		sub	r7, r7, r2
 5802 0900 037047E0 		sub	r7, r7, r3
 5803 0904 037007E2 		and	r7, r7, #3
 5804 0908 0710A0E1 		mov	r1, r7
 5805 090c FEFFFFEB 		bl	_ZN11flatbuffers15vector_downward12ensure_spaceEj
 5806 0910 18309BE5 		ldr	r3, [fp, #24]
 5807 0914 000057E3 		cmp	r7, #0
 5808 0918 000043E0 		sub	r0, r3, r0
 5809 091c 18008BE5 		str	r0, [fp, #24]
 5810 0920 0700000A 		beq	.L1135
 5811 0924 010057E3 		cmp	r7, #1
 5812 0928 0050C0E5 		strb	r5, [r0]
 5813 092c 0400000A 		beq	.L1135
 5814 0930 18309BE5 		ldr	r3, [fp, #24]
 5815 0934 020057E3 		cmp	r7, #2
 5816 0938 0150C3E5 		strb	r5, [r3, #1]
 5817 093c 18309B15 		ldrne	r3, [fp, #24]
 5818 0940 0250C315 		strbne	r5, [r3, #2]
 5819              	.L1135:
 5820 0944 0410A0E3 		mov	r1, #4
 5821 0948 0B00A0E1 		mov	r0, fp
 5822 094c FEFFFFEB 		bl	_ZN11flatbuffers15vector_downward12ensure_spaceEj
 5823 0950 18309BE5 		ldr	r3, [fp, #24]
 5824 0954 000054E3 		cmp	r4, #0
 5825 0958 000043E0 		sub	r0, r3, r0
 5826 095c 18008BE5 		str	r0, [fp, #24]
 5827 0960 00A080E5 		str	r10, [r0]
 5828 0964 D8FFFF1A 		bne	.L1137
 5829              	.L1136:
 5830 0968 0910A0E1 		mov	r1, r9
 5831 096c 0B00A0E1 		mov	r0, fp
 5832 0970 FEFFFFEB 		bl	_ZN11flatbuffers17FlatBufferBuilder9EndVectorEj
 5833 0974 18409DE5 		ldr	r4, [sp, #24]
 5834 0978 3C108DE2 		add	r1, sp, #60
 5835 097c 00B0A0E1 		mov	fp, r0
 5836 0980 000094E5 		ldr	r0, [r4]
 5837 0984 FEFFFFEB 		bl	_ZN11flatbuffers17FlatBufferBuilder12CreateVectorIN6tflite8SubGraphEEENS_6OffsetINS_6VectorINS4
 5838 0988 001000E3 		movw	r1, #:lower16:.LC33
 5839 098c 28008DE5 		str	r0, [sp, #40]
 5840 0990 0B20A0E3 		mov	r2, #11
 5841 0994 000094E5 		ldr	r0, [r4]
 5842 0998 001040E3 		movt	r1, #:upper16:.LC33
 5843 099c FEFFFFEB 		bl	_ZN11flatbuffers17FlatBufferBuilder12CreateStringEPKcj
 5844 09a0 1C509DE5 		ldr	r5, [sp, #28]
 5845 09a4 004094E5 		ldr	r4, [r4]
 5846 09a8 20008DE5 		str	r0, [sp, #32]
 5847 09ac 0510A0E1 		mov	r1, r5
 5848 09b0 0400A0E1 		mov	r0, r4
 5849 09b4 FEFFFFEB 		bl	_ZN11flatbuffers17FlatBufferBuilder11StartVectorEjj.constprop.148
 5850 09b8 000055E3 		cmp	r5, #0
 5851 09bc 2C00000A 		beq	.L1132
 5852 09c0 24209DE5 		ldr	r2, [sp, #36]
 5853 09c4 40308DE2 		add	r3, sp, #64
 5854 09c8 1C509DE5 		ldr	r5, [sp, #28]
 5855 09cc 0490A0E3 		mov	r9, #4
 5856 09d0 0060A0E3 		mov	r6, #0
 5857 09d4 027183E0 		add	r7, r3, r2, lsl #2
 5858              	.L1140:
 5859 09d8 041017E4 		ldr	r1, [r7], #-4
 5860 09dc 0400A0E1 		mov	r0, r4
 5861 09e0 FEFFFFEB 		bl	_ZN11flatbuffers17FlatBufferBuilder7ReferToEm
 5862 09e4 283094E5 		ldr	r3, [r4, #40]
 5863 09e8 00A0A0E1 		mov	r10, r0
 5864 09ec 188094E5 		ldr	r8, [r4, #24]
 5865 09f0 0400A0E1 		mov	r0, r4
 5866 09f4 142094E5 		ldr	r2, [r4, #20]
 5867 09f8 015045E2 		sub	r5, r5, #1
 5868 09fc 030053E3 		cmp	r3, #3
 5869 0a00 103094E5 		ldr	r3, [r4, #16]
 5870 0a04 28908495 		strls	r9, [r4, #40]
 5871 0a08 028048E0 		sub	r8, r8, r2
 5872 0a0c 038048E0 		sub	r8, r8, r3
 5873 0a10 038008E2 		and	r8, r8, #3
 5874 0a14 0810A0E1 		mov	r1, r8
 5875 0a18 FEFFFFEB 		bl	_ZN11flatbuffers15vector_downward12ensure_spaceEj
 5876 0a1c 183094E5 		ldr	r3, [r4, #24]
 5877 0a20 000058E3 		cmp	r8, #0
 5878 0a24 000043E0 		sub	r0, r3, r0
 5879 0a28 180084E5 		str	r0, [r4, #24]
 5880 0a2c 0700000A 		beq	.L1139
 5881 0a30 010058E3 		cmp	r8, #1
 5882 0a34 0060C0E5 		strb	r6, [r0]
 5883 0a38 0400000A 		beq	.L1139
 5884 0a3c 183094E5 		ldr	r3, [r4, #24]
 5885 0a40 020058E3 		cmp	r8, #2
 5886 0a44 0160C3E5 		strb	r6, [r3, #1]
 5887 0a48 18309415 		ldrne	r3, [r4, #24]
 5888 0a4c 0260C315 		strbne	r6, [r3, #2]
 5889              	.L1139:
 5890 0a50 0410A0E3 		mov	r1, #4
 5891 0a54 0400A0E1 		mov	r0, r4
 5892 0a58 FEFFFFEB 		bl	_ZN11flatbuffers15vector_downward12ensure_spaceEj
 5893 0a5c 183094E5 		ldr	r3, [r4, #24]
 5894 0a60 000055E3 		cmp	r5, #0
 5895 0a64 000043E0 		sub	r0, r3, r0
 5896 0a68 180084E5 		str	r0, [r4, #24]
 5897 0a6c 00A080E5 		str	r10, [r0]
 5898 0a70 D8FFFF1A 		bne	.L1140
 5899              	.L1132:
 5900 0a74 1C109DE5 		ldr	r1, [sp, #28]
 5901 0a78 0400A0E1 		mov	r0, r4
 5902 0a7c FEFFFFEB 		bl	_ZN11flatbuffers17FlatBufferBuilder9EndVectorEj
 5903 0a80 20309DE5 		ldr	r3, [sp, #32]
 5904 0a84 00C0A0E3 		mov	ip, #0
 5905 0a88 04008DE5 		str	r0, [sp, #4]
 5906 0a8c 0C10A0E1 		mov	r1, ip
 5907 0a90 0B20A0E1 		mov	r2, fp
 5908 0a94 0400A0E1 		mov	r0, r4
 5909 0a98 00308DE5 		str	r3, [sp]
 5910 0a9c 10C08DE5 		str	ip, [sp, #16]
 5911 0aa0 28309DE5 		ldr	r3, [sp, #40]
 5912 0aa4 0CC08DE5 		str	ip, [sp, #12]
 5913 0aa8 08C08DE5 		str	ip, [sp, #8]
 5914 0aac FEFFFFEB 		bl	_ZN6tflite11CreateModelERN11flatbuffers17FlatBufferBuilderEmNS0_6OffsetINS0_6VectorINS3_INS_12O
 5915 0ab0 0010A0E1 		mov	r1, r0
 5916 0ab4 67FFFFEA 		b	.L1125
 5917              	.L1310:
 5918 0ab8 18309DE5 		ldr	r3, [sp, #24]
 5919 0abc 0370A0E1 		mov	r7, r3
 5920 0ac0 18A293E5 		ldr	r10, [r3, #536]
 5921 0ac4 FCB097E4 		ldr	fp, [r7], #252
 5922 0ac8 0A10A0E1 		mov	r1, r10
 5923 0acc 0B00A0E1 		mov	r0, fp
 5924 0ad0 FEFFFFEB 		bl	_ZN11flatbuffers17FlatBufferBuilder11StartVectorEjj.constprop.148
 5925 0ad4 00005AE3 		cmp	r10, #0
 5926 0ad8 9C408DE5 		str	r4, [sp, #156]
 5927 0adc 76FDFF1A 		bne	.L1144
 5928 0ae0 BDFDFFEA 		b	.L1086
 5929              	.L1315:
 5930 0ae4 0710A0E1 		mov	r1, r7
 5931 0ae8 0500A0E1 		mov	r0, r5
 5932 0aec FEFFFFEB 		bl	_ZN11flatbuffers15vector_downward12ensure_spaceEj
 5933 0af0 183095E5 		ldr	r3, [r5, #24]
 5934 0af4 0720A0E1 		mov	r2, r7
 5935 0af8 0610A0E1 		mov	r1, r6
 5936 0afc 000043E0 		sub	r0, r3, r0
 5937 0b00 180085E5 		str	r0, [r5, #24]
 5938 0b04 FEFFFFEB 		bl	memcpy
 5939 0b08 D1FDFFEA 		b	.L1099
 5940              	.L1314:
 5941 0b0c 0610A0E1 		mov	r1, r6
 5942 0b10 0400A0E1 		mov	r0, r4
 5943 0b14 FEFFFFEB 		bl	_ZN11flatbuffers15vector_downward12ensure_spaceEj
 5944 0b18 183094E5 		ldr	r3, [r4, #24]
 5945 0b1c 0620A0E1 		mov	r2, r6
 5946 0b20 0510A0E1 		mov	r1, r5
 5947 0b24 000043E0 		sub	r0, r3, r0
 5948 0b28 180084E5 		str	r0, [r4, #24]
 5949 0b2c FEFFFFEB 		bl	memcpy
 5950 0b30 B8FDFFEA 		b	.L1096
 5951              	.L1313:
 5952 0b34 0310A0E1 		mov	r1, r3
 5953 0b38 0400A0E1 		mov	r0, r4
 5954 0b3c FEFFFFEB 		bl	_ZN11flatbuffers17FlatBufferBuilder9EndVectorEj
 5955 0b40 2C008DE5 		str	r0, [sp, #44]
 5956 0b44 B7FDFFEA 		b	.L1095
 5957              	.L1312:
 5958 0b48 0A10A0E1 		mov	r1, r10
 5959 0b4c 0B00A0E1 		mov	r0, fp
 5960 0b50 FEFFFFEB 		bl	_ZN11flatbuffers17FlatBufferBuilder9EndVectorEj
 5961 0b54 18309DE5 		ldr	r3, [sp, #24]
 5962 0b58 20008DE5 		str	r0, [sp, #32]
 5963 0b5c 9C109DE5 		ldr	r1, [sp, #156]
 5964 0b60 004093E5 		ldr	r4, [r3]
 5965 0b64 30509DE5 		ldr	r5, [sp, #48]
 5966 0b68 0400A0E1 		mov	r0, r4
 5967 0b6c FEFFFFEB 		bl	_ZN11flatbuffers17FlatBufferBuilder11StartVectorEjj.constprop.148
 5968 0b70 9C309DE5 		ldr	r3, [sp, #156]
 5969 0b74 A5FDFFEA 		b	.L1094
 5970              	.L1090:
 5971 0b78 003000E3 		movw	r3, #:lower16:.LC25
 5972 0b7c 002000E3 		movw	r2, #:lower16:.LANCHOR13
 5973 0b80 000000E3 		movw	r0, #:lower16:.LC19
 5974 0b84 003040E3 		movt	r3, #:upper16:.LC25
 5975 0b88 002040E3 		movt	r2, #:upper16:.LANCHOR13
 5976 0b8c 000040E3 		movt	r0, #:upper16:.LC19
 5977 0b90 3B1500E3 		movw	r1, #1339
 5978 0b94 FEFFFFEB 		bl	__assert_func
 5979              	.L1318:
 5980 0b98 FEFFFFEB 		bl	_ZNK11flatbuffers15vector_downward4dataEv.isra.9.part.10
 5981              	.L1317:
 5982 0b9c 003000E3 		movw	r3, #:lower16:.LC34
 5983 0ba0 002000E3 		movw	r2, #:lower16:.LANCHOR18
 5984 0ba4 000000E3 		movw	r0, #:lower16:.LC19
 5985 0ba8 003040E3 		movt	r3, #:upper16:.LC34
 5986 0bac 002040E3 		movt	r2, #:upper16:.LANCHOR18
 5987 0bb0 000040E3 		movt	r0, #:upper16:.LC19
 5988 0bb4 D71400E3 		movw	r1, #1239
 5989 0bb8 FEFFFFEB 		bl	__assert_func
 5990              	.L1311:
 5991 0bbc FEFFFFEB 		bl	abort
 5992              		.fnend
 5994              		.section	.text._ZN6tflite7testing12_GLOBAL__N_126BuildSimpleModelWithBranchEv,"ax",%progbits
 5995              		.align	2
 5996              		.syntax unified
 5997              		.arm
 5998              		.fpu neon
 6000              	_ZN6tflite7testing12_GLOBAL__N_126BuildSimpleModelWithBranchEv:
 6001              		.fnstart
 6002              	.LFB6970:
 6003              		@ args = 0, pretend = 0, frame = 656
 6004              		@ frame_needed = 0, uses_anonymous_args = 0
 6005 0000 F04F2DE9 		push	{r4, r5, r6, r7, r8, r9, r10, fp, lr}
 6006              		.save {r4, r5, r6, r7, r8, r9, r10, fp, lr}
 6007              		.pad #668
 6008 0004 A7DF4DE2 		sub	sp, sp, #668
 6009 0008 FEFFFFEB 		bl	_ZN6tflite7testing12_GLOBAL__N_115BuilderInstanceEv
 6010 000c 001000E3 		movw	r1, #:lower16:.LC35
 6011 0010 0040A0E3 		mov	r4, #0
 6012 0014 5000C0F2 		vmov.i32	q8, #0  @ v4si
 6013 0018 001040E3 		movt	r1, #:upper16:.LC35
 6014 001c 2020A0E3 		mov	r2, #32
 6015 0020 78008DE5 		str	r0, [sp, #120]
 6016 0024 7C408DE5 		str	r4, [sp, #124]
 6017 0028 0150A0E3 		mov	r5, #1
 6018 002c 220BCDED 		vstr	d16, [sp, #136]
 6019 0030 241BCDED 		vstr	d17, [sp, #144]
 6020 0034 0360A0E3 		mov	r6, #3
 6021 0038 80408DE5 		str	r4, [sp, #128]
 6022 003c A67F8DE2 		add	r7, sp, #664
 6023 0040 2A0BCDED 		vstr	d16, [sp, #168]
 6024 0044 2C1BCDED 		vstr	d17, [sp, #176]
 6025 0048 84408DE5 		str	r4, [sp, #132]
 6026 004c 2E0BCDED 		vstr	d16, [sp, #184]
 6027 0050 301BCDED 		vstr	d17, [sp, #192]
 6028 0054 98408DE5 		str	r4, [sp, #152]
 6029 0058 320BCDED 		vstr	d16, [sp, #200]
 6030 005c 341BCDED 		vstr	d17, [sp, #208]
 6031 0060 9C408DE5 		str	r4, [sp, #156]
 6032 0064 360BCDED 		vstr	d16, [sp, #216]
 6033 0068 381BCDED 		vstr	d17, [sp, #224]
 6034 006c A0408DE5 		str	r4, [sp, #160]
 6035 0070 3A0BCDED 		vstr	d16, [sp, #232]
 6036 0074 3C1BCDED 		vstr	d17, [sp, #240]
 6037 0078 A4408DE5 		str	r4, [sp, #164]
 6038 007c 3E0BCDED 		vstr	d16, [sp, #248]
 6039 0080 401BCDED 		vstr	d17, [sp, #256]
 6040 0084 68418DE5 		str	r4, [sp, #360]
 6041 0088 420BCDED 		vstr	d16, [sp, #264]
 6042 008c 441BCDED 		vstr	d17, [sp, #272]
 6043 0090 6C418DE5 		str	r4, [sp, #364]
 6044 0094 460BCDED 		vstr	d16, [sp, #280]
 6045 0098 481BCDED 		vstr	d17, [sp, #288]
 6046 009c 70418DE5 		str	r4, [sp, #368]
 6047 00a0 4A0BCDED 		vstr	d16, [sp, #296]
 6048 00a4 4C1BCDED 		vstr	d17, [sp, #304]
 6049 00a8 74418DE5 		str	r4, [sp, #372]
 6050 00ac 4E0BCDED 		vstr	d16, [sp, #312]
 6051 00b0 501BCDED 		vstr	d17, [sp, #320]
 6052 00b4 78418DE5 		str	r4, [sp, #376]
 6053 00b8 520BCDED 		vstr	d16, [sp, #328]
 6054 00bc 541BCDED 		vstr	d17, [sp, #336]
 6055 00c0 7C418DE5 		str	r4, [sp, #380]
 6056 00c4 560BCDED 		vstr	d16, [sp, #344]
 6057 00c8 581BCDED 		vstr	d17, [sp, #352]
 6058 00cc 600BCDED 		vstr	d16, [sp, #384]
 6059 00d0 621BCDED 		vstr	d17, [sp, #392]
 6060 00d4 640BCDED 		vstr	d16, [sp, #400]
 6061 00d8 661BCDED 		vstr	d17, [sp, #408]
 6062 00dc 680BCDED 		vstr	d16, [sp, #416]
 6063 00e0 6A1BCDED 		vstr	d17, [sp, #424]
 6064 00e4 6C0BCDED 		vstr	d16, [sp, #432]
 6065 00e8 6E1BCDED 		vstr	d17, [sp, #440]
 6066 00ec 700BCDED 		vstr	d16, [sp, #448]
 6067 00f0 721BCDED 		vstr	d17, [sp, #456]
 6068 00f4 740BCDED 		vstr	d16, [sp, #464]
 6069 00f8 761BCDED 		vstr	d17, [sp, #472]
 6070 00fc 30428DE5 		str	r4, [sp, #560]
 6071 0100 780BCDED 		vstr	d16, [sp, #480]
 6072 0104 7A1BCDED 		vstr	d17, [sp, #488]
 6073 0108 34428DE5 		str	r4, [sp, #564]
 6074 010c 7C0BCDED 		vstr	d16, [sp, #496]
 6075 0110 7E1BCDED 		vstr	d17, [sp, #504]
 6076 0114 38428DE5 		str	r4, [sp, #568]
 6077 0118 800BCDED 		vstr	d16, [sp, #512]
 6078 011c 821BCDED 		vstr	d17, [sp, #520]
 6079 0120 3C428DE5 		str	r4, [sp, #572]
 6080 0124 840BCDED 		vstr	d16, [sp, #528]
 6081 0128 861BCDED 		vstr	d17, [sp, #536]
 6082 012c 40428DE5 		str	r4, [sp, #576]
 6083 0130 880BCDED 		vstr	d16, [sp, #544]
 6084 0134 8A1BCDED 		vstr	d17, [sp, #552]
 6085 0138 44428DE5 		str	r4, [sp, #580]
 6086 013c 920BCDED 		vstr	d16, [sp, #584]
 6087 0140 941BCDED 		vstr	d17, [sp, #592]
 6088 0144 58428DE5 		str	r4, [sp, #600]
 6089 0148 9C0BCDED 		vstr	d16, [sp, #624]
 6090 014c 9E1BCDED 		vstr	d17, [sp, #632]
 6091 0150 5C428DE5 		str	r4, [sp, #604]
 6092 0154 60428DE5 		str	r4, [sp, #608]
 6093 0158 64428DE5 		str	r4, [sp, #612]
 6094 015c 68428DE5 		str	r4, [sp, #616]
 6095 0160 6C428DE5 		str	r4, [sp, #620]
 6096 0164 80428DE5 		str	r4, [sp, #640]
 6097 0168 84428DE5 		str	r4, [sp, #644]
 6098 016c 88428DE5 		str	r4, [sp, #648]
 6099 0170 8C428DE5 		str	r4, [sp, #652]
 6100 0174 90428DE5 		str	r4, [sp, #656]
 6101 0178 FEFFFFEB 		bl	_ZN6tflite24CreateOperatorCodeDirectERN11flatbuffers17FlatBufferBuilderEaPKclNS_15BuiltinOperat
 6102 017c A4809DE5 		ldr	r8, [sp, #164]
 6103 0180 003000E3 		movw	r3, #:lower16:.LANCHOR19
 6104 0184 003040E3 		movt	r3, #:upper16:.LANCHOR19
 6105 0188 58208DE2 		add	r2, sp, #88
 6106 018c 58308DE5 		str	r3, [sp, #88]
 6107 0190 5C608DE5 		str	r6, [sp, #92]
 6108 0194 053088E0 		add	r3, r8, r5
 6109 0198 7C008DE5 		str	r0, [sp, #124]
 6110 019c 78008DE2 		add	r0, sp, #120
 6111 01a0 060092E8 		ldm	r2, {r1, r2}
 6112 01a4 A4308DE5 		str	r3, [sp, #164]
 6113 01a8 FEFFFFEB 		bl	_ZN6tflite7testing12_GLOBAL__N_112ModelBuilder13AddTensorImplENS_10TensorTypeEbSt16initializer_
 6114 01ac 003000E3 		movw	r3, #:lower16:.LANCHOR20
 6115 01b0 60208DE2 		add	r2, sp, #96
 6116 01b4 003040E3 		movt	r3, #:upper16:.LANCHOR20
 6117 01b8 0090A0E1 		mov	r9, r0
 6118 01bc 64608DE5 		str	r6, [sp, #100]
 6119 01c0 78008DE2 		add	r0, sp, #120
 6120 01c4 60308DE5 		str	r3, [sp, #96]
 6121 01c8 060092E8 		ldm	r2, {r1, r2}
